ARM GAS  C:\Users\DJESSOU\AppData\Local\Temp\ccMfOXfy.s 			page 1


   1              		.arch armv8.1-m.main
   2              		.fpu fpv5-d16
   3              		.arch_extension dsp
   4              		.arch_extension fp
   5              		.arch_extension fp.dp
   6              		.arch_extension mve
   7              		.arch_extension mve.fp
   8              		.eabi_attribute 5, "cortex-m55"
   9              		.eabi_attribute 28, 1
  10              		.eabi_attribute 20, 1
  11              		.eabi_attribute 21, 1
  12              		.eabi_attribute 23, 3
  13              		.eabi_attribute 24, 1
  14              		.eabi_attribute 25, 1
  15              		.eabi_attribute 26, 1
  16              		.eabi_attribute 30, 4
  17              		.eabi_attribute 34, 1
  18              		.eabi_attribute 38, 1
  19              		.eabi_attribute 18, 4
  20              		.file	"app_postprocess_mpe_pd_uf.c"
  21              		.text
  22              	.Ltext0:
  23              		.cfi_sections	.debug_frame
  24              		.file 1 "Lib/ai-postprocessing-wrapper/app_postprocess_mpe_pd_uf.c"
  25              		.section	.text.app_postprocess_init,"ax",%progbits
  26              		.align	1
  27              		.global	app_postprocess_init
  28              		.syntax unified
  29              		.thumb
  30              		.thumb_func
  32              	app_postprocess_init:
  33              	.LVL0:
  34              	.LFB2807:
   1:Lib/ai-postprocessing-wrapper/app_postprocess_mpe_pd_uf.c ****  /**
   2:Lib/ai-postprocessing-wrapper/app_postprocess_mpe_pd_uf.c ****  ******************************************************************************
   3:Lib/ai-postprocessing-wrapper/app_postprocess_mpe_pd_uf.c ****  * @file    app_postprocess_mpe_pd_uf.c
   4:Lib/ai-postprocessing-wrapper/app_postprocess_mpe_pd_uf.c ****  * @author  GPM Application Team
   5:Lib/ai-postprocessing-wrapper/app_postprocess_mpe_pd_uf.c ****  *
   6:Lib/ai-postprocessing-wrapper/app_postprocess_mpe_pd_uf.c ****  ******************************************************************************
   7:Lib/ai-postprocessing-wrapper/app_postprocess_mpe_pd_uf.c ****  * @attention
   8:Lib/ai-postprocessing-wrapper/app_postprocess_mpe_pd_uf.c ****  *
   9:Lib/ai-postprocessing-wrapper/app_postprocess_mpe_pd_uf.c ****  * Copyright (c) 2023 STMicroelectronics.
  10:Lib/ai-postprocessing-wrapper/app_postprocess_mpe_pd_uf.c ****  * All rights reserved.
  11:Lib/ai-postprocessing-wrapper/app_postprocess_mpe_pd_uf.c ****  *
  12:Lib/ai-postprocessing-wrapper/app_postprocess_mpe_pd_uf.c ****  * This software is licensed under terms that can be found in the LICENSE file
  13:Lib/ai-postprocessing-wrapper/app_postprocess_mpe_pd_uf.c ****  * in the root directory of this software component.
  14:Lib/ai-postprocessing-wrapper/app_postprocess_mpe_pd_uf.c ****  * If no LICENSE file comes with this software, it is provided AS-IS.
  15:Lib/ai-postprocessing-wrapper/app_postprocess_mpe_pd_uf.c ****  *
  16:Lib/ai-postprocessing-wrapper/app_postprocess_mpe_pd_uf.c ****  ******************************************************************************
  17:Lib/ai-postprocessing-wrapper/app_postprocess_mpe_pd_uf.c ****  */
  18:Lib/ai-postprocessing-wrapper/app_postprocess_mpe_pd_uf.c **** 
  19:Lib/ai-postprocessing-wrapper/app_postprocess_mpe_pd_uf.c **** 
  20:Lib/ai-postprocessing-wrapper/app_postprocess_mpe_pd_uf.c **** #include "app_postprocess.h"
  21:Lib/ai-postprocessing-wrapper/app_postprocess_mpe_pd_uf.c **** #include "app_config.h"
  22:Lib/ai-postprocessing-wrapper/app_postprocess_mpe_pd_uf.c **** #include <assert.h>
  23:Lib/ai-postprocessing-wrapper/app_postprocess_mpe_pd_uf.c **** 
  24:Lib/ai-postprocessing-wrapper/app_postprocess_mpe_pd_uf.c **** #if POSTPROCESS_TYPE == POSTPROCESS_MPE_PD_UF
ARM GAS  C:\Users\DJESSOU\AppData\Local\Temp\ccMfOXfy.s 			page 2


  25:Lib/ai-postprocessing-wrapper/app_postprocess_mpe_pd_uf.c **** /* Must be in app code */
  26:Lib/ai-postprocessing-wrapper/app_postprocess_mpe_pd_uf.c **** #include "pd_anchors.c"
  27:Lib/ai-postprocessing-wrapper/app_postprocess_mpe_pd_uf.c **** /* post process algo will not write more than AI_PD_MODEL_PP_MAX_BOXES_LIMIT */
  28:Lib/ai-postprocessing-wrapper/app_postprocess_mpe_pd_uf.c **** static pd_pp_box_t out_detections[AI_PD_MODEL_PP_MAX_BOXES_LIMIT];
  29:Lib/ai-postprocessing-wrapper/app_postprocess_mpe_pd_uf.c **** static pd_pp_point_t out_keyPoints[AI_PD_MODEL_PP_MAX_BOXES_LIMIT][AI_PD_MODEL_PP_NB_KEYPOINTS];
  30:Lib/ai-postprocessing-wrapper/app_postprocess_mpe_pd_uf.c **** 
  31:Lib/ai-postprocessing-wrapper/app_postprocess_mpe_pd_uf.c **** int32_t app_postprocess_init(void *params_postprocess, stai_network_info *NN_Info)
  32:Lib/ai-postprocessing-wrapper/app_postprocess_mpe_pd_uf.c **** {
  35              		.loc 1 32 1 view -0
  36              		.cfi_startproc
  37              		@ args = 0, pretend = 0, frame = 0
  38              		@ frame_needed = 0, uses_anonymous_args = 0
  33:Lib/ai-postprocessing-wrapper/app_postprocess_mpe_pd_uf.c ****   int32_t error;
  39              		.loc 1 33 3 view .LVU1
  34:Lib/ai-postprocessing-wrapper/app_postprocess_mpe_pd_uf.c ****   pd_model_pp_static_param_t *params = (pd_model_pp_static_param_t *) params_postprocess;
  40              		.loc 1 34 3 view .LVU2
  35:Lib/ai-postprocessing-wrapper/app_postprocess_mpe_pd_uf.c ****   params->width = AI_PD_MODEL_PP_WIDTH;
  41              		.loc 1 35 3 view .LVU3
  42              		.loc 1 35 17 is_stmt 0 view .LVU4
  43 0000 C023     		movs	r3, #192
  32:Lib/ai-postprocessing-wrapper/app_postprocess_mpe_pd_uf.c ****   int32_t error;
  44              		.loc 1 32 1 view .LVU5
  45 0002 00B5     		push	{lr}
  46              		.cfi_def_cfa_offset 4
  47              		.cfi_offset 14, -4
  36:Lib/ai-postprocessing-wrapper/app_postprocess_mpe_pd_uf.c ****   params->height = AI_PD_MODEL_PP_HEIGHT;
  48              		.loc 1 36 18 view .LVU6
  49 0004 C0E90033 		strd	r3, r3, [r0]
  37:Lib/ai-postprocessing-wrapper/app_postprocess_mpe_pd_uf.c ****   params->nb_keypoints = AI_PD_MODEL_PP_NB_KEYPOINTS;
  50              		.loc 1 37 3 is_stmt 1 view .LVU7
  51              		.loc 1 37 24 is_stmt 0 view .LVU8
  52 0008 0723     		movs	r3, #7
  53 000a 8360     		str	r3, [r0, #8]
  38:Lib/ai-postprocessing-wrapper/app_postprocess_mpe_pd_uf.c ****   params->conf_threshold = AI_PD_MODEL_PP_CONF_THRESHOLD;
  54              		.loc 1 38 3 is_stmt 1 view .LVU9
  55              		.loc 1 38 26 is_stmt 0 view .LVU10
  56 000c 4FF07C53 		mov	r3, #1056964608
  39:Lib/ai-postprocessing-wrapper/app_postprocess_mpe_pd_uf.c ****   params->iou_threshold = AI_PD_MODEL_PP_IOU_THRESHOLD;
  40:Lib/ai-postprocessing-wrapper/app_postprocess_mpe_pd_uf.c ****   params->nb_total_boxes = AI_PD_MODEL_PP_TOTAL_DETECTIONS;
  41:Lib/ai-postprocessing-wrapper/app_postprocess_mpe_pd_uf.c ****   params->max_boxes_limit = AI_PD_MODEL_PP_MAX_BOXES_LIMIT;
  57              		.loc 1 41 27 view .LVU11
  58 0010 1421     		movs	r1, #20
  59              	.LVL1:
  38:Lib/ai-postprocessing-wrapper/app_postprocess_mpe_pd_uf.c ****   params->conf_threshold = AI_PD_MODEL_PP_CONF_THRESHOLD;
  60              		.loc 1 38 26 view .LVU12
  61 0012 C360     		str	r3, [r0, #12]	@ float
  39:Lib/ai-postprocessing-wrapper/app_postprocess_mpe_pd_uf.c ****   params->iou_threshold = AI_PD_MODEL_PP_IOU_THRESHOLD;
  62              		.loc 1 39 3 is_stmt 1 view .LVU13
  39:Lib/ai-postprocessing-wrapper/app_postprocess_mpe_pd_uf.c ****   params->iou_threshold = AI_PD_MODEL_PP_IOU_THRESHOLD;
  63              		.loc 1 39 25 is_stmt 0 view .LVU14
  64 0014 0A4B     		ldr	r3, .L4
  65              	.LBB2:
  42:Lib/ai-postprocessing-wrapper/app_postprocess_mpe_pd_uf.c ****   params->pAnchors = g_Anchors;
  43:Lib/ai-postprocessing-wrapper/app_postprocess_mpe_pd_uf.c ****   for (int i = 0; i < AI_PD_MODEL_PP_MAX_BOXES_LIMIT; i++) {
  66              		.loc 1 43 12 view .LVU15
  67 0016 41F001E0 		dls	lr, r1
  68              	.LBE2:
ARM GAS  C:\Users\DJESSOU\AppData\Local\Temp\ccMfOXfy.s 			page 3


  39:Lib/ai-postprocessing-wrapper/app_postprocess_mpe_pd_uf.c ****   params->iou_threshold = AI_PD_MODEL_PP_IOU_THRESHOLD;
  69              		.loc 1 39 25 view .LVU16
  70 001a 0361     		str	r3, [r0, #16]	@ float
  40:Lib/ai-postprocessing-wrapper/app_postprocess_mpe_pd_uf.c ****   params->max_boxes_limit = AI_PD_MODEL_PP_MAX_BOXES_LIMIT;
  71              		.loc 1 40 3 is_stmt 1 view .LVU17
  41:Lib/ai-postprocessing-wrapper/app_postprocess_mpe_pd_uf.c ****   params->pAnchors = g_Anchors;
  72              		.loc 1 41 27 is_stmt 0 view .LVU18
  73 001c 4FF4FC63 		mov	r3, #2016
  74 0020 C0E90531 		strd	r3, r1, [r0, #20]
  42:Lib/ai-postprocessing-wrapper/app_postprocess_mpe_pd_uf.c ****   params->pAnchors = g_Anchors;
  75              		.loc 1 42 3 is_stmt 1 view .LVU19
  42:Lib/ai-postprocessing-wrapper/app_postprocess_mpe_pd_uf.c ****   params->pAnchors = g_Anchors;
  76              		.loc 1 42 20 is_stmt 0 view .LVU20
  77 0024 074B     		ldr	r3, .L4+4
  78 0026 084A     		ldr	r2, .L4+8
  79 0028 C361     		str	r3, [r0, #28]
  80              		.loc 1 43 3 is_stmt 1 view .LVU21
  81              	.LBB3:
  82              		.loc 1 43 8 view .LVU22
  83              	.LVL2:
  84              		.loc 1 43 21 discriminator 1 view .LVU23
  85 002a 084B     		ldr	r3, .L4+12
  86              	.LVL3:
  87              	.L2:
  44:Lib/ai-postprocessing-wrapper/app_postprocess_mpe_pd_uf.c ****     out_detections[i].pKps = &out_keyPoints[i][0];
  88              		.loc 1 44 5 view .LVU24
  89              		.loc 1 44 28 is_stmt 0 view .LVU25
  90 002c 5A61     		str	r2, [r3, #20]
  43:Lib/ai-postprocessing-wrapper/app_postprocess_mpe_pd_uf.c ****     out_detections[i].pKps = &out_keyPoints[i][0];
  91              		.loc 1 43 56 is_stmt 1 discriminator 3 view .LVU26
  43:Lib/ai-postprocessing-wrapper/app_postprocess_mpe_pd_uf.c ****     out_detections[i].pKps = &out_keyPoints[i][0];
  92              		.loc 1 43 21 discriminator 1 view .LVU27
  93 002e 3832     		adds	r2, r2, #56
  94 0030 1833     		adds	r3, r3, #24
  95 0032 0FF005C8 		le	lr, .L2
  96              	.LBE3:
  45:Lib/ai-postprocessing-wrapper/app_postprocess_mpe_pd_uf.c ****   }
  46:Lib/ai-postprocessing-wrapper/app_postprocess_mpe_pd_uf.c ****   error = pd_model_pp_reset(params);
  97              		.loc 1 46 3 view .LVU28
  47:Lib/ai-postprocessing-wrapper/app_postprocess_mpe_pd_uf.c ****   return error;
  48:Lib/ai-postprocessing-wrapper/app_postprocess_mpe_pd_uf.c **** }
  98              		.loc 1 48 1 is_stmt 0 view .LVU29
  99 0036 5DF804EB 		ldr	lr, [sp], #4
 100              		.cfi_restore 14
 101              		.cfi_def_cfa_offset 0
  46:Lib/ai-postprocessing-wrapper/app_postprocess_mpe_pd_uf.c ****   return error;
 102              		.loc 1 46 11 view .LVU30
 103 003a FFF7FEBF 		b	pd_model_pp_reset
 104              	.LVL4:
 105              	.L5:
  46:Lib/ai-postprocessing-wrapper/app_postprocess_mpe_pd_uf.c ****   return error;
 106              		.loc 1 46 11 view .LVU31
 107 003e 00BF     		.align	2
 108              	.L4:
 109 0040 CDCCCC3E 		.word	1053609165
 110 0044 00000000 		.word	g_Anchors
 111 0048 00000000 		.word	out_keyPoints
ARM GAS  C:\Users\DJESSOU\AppData\Local\Temp\ccMfOXfy.s 			page 4


 112 004c 00000000 		.word	out_detections
 113              		.cfi_endproc
 114              	.LFE2807:
 116              		.section	.rodata.app_postprocess_run.str1.1,"aMS",%progbits,1
 117              	.LC0:
 118 0000 6E625F69 		.ascii	"nb_input == 2\000"
 118      6E707574 
 118      203D3D20 
 118      3200
 119              	.LC1:
 120 000e 4C69622F 		.ascii	"Lib/ai-postprocessing-wrapper/app_postprocess_mpe_p"
 120      61692D70 
 120      6F737470 
 120      726F6365 
 120      7373696E 
 121 0041 645F7566 		.ascii	"d_uf.c\000"
 121      2E6300
 122              		.section	.text.app_postprocess_run,"ax",%progbits
 123              		.align	1
 124              		.global	app_postprocess_run
 125              		.syntax unified
 126              		.thumb
 127              		.thumb_func
 129              	app_postprocess_run:
 130              	.LVL5:
 131              	.LFB2808:
  49:Lib/ai-postprocessing-wrapper/app_postprocess_mpe_pd_uf.c **** 
  50:Lib/ai-postprocessing-wrapper/app_postprocess_mpe_pd_uf.c **** int32_t app_postprocess_run(void *pInput[], int nb_input, void *pOutput, void *pInput_param)
  51:Lib/ai-postprocessing-wrapper/app_postprocess_mpe_pd_uf.c **** {
 132              		.loc 1 51 1 is_stmt 1 view -0
 133              		.cfi_startproc
 134              		@ args = 0, pretend = 0, frame = 8
 135              		@ frame_needed = 0, uses_anonymous_args = 0
  52:Lib/ai-postprocessing-wrapper/app_postprocess_mpe_pd_uf.c ****   assert(nb_input == 2);
 136              		.loc 1 52 3 view .LVU33
  51:Lib/ai-postprocessing-wrapper/app_postprocess_mpe_pd_uf.c ****   assert(nb_input == 2);
 137              		.loc 1 51 1 is_stmt 0 view .LVU34
 138 0000 13B5     		push	{r0, r1, r4, lr}
 139              		.cfi_def_cfa_offset 16
 140              		.cfi_offset 4, -8
 141              		.cfi_offset 14, -4
  51:Lib/ai-postprocessing-wrapper/app_postprocess_mpe_pd_uf.c ****   assert(nb_input == 2);
 142              		.loc 1 51 1 view .LVU35
 143 0002 0C46     		mov	r4, r1
 144              		.loc 1 52 3 view .LVU36
 145 0004 022C     		cmp	r4, #2
  51:Lib/ai-postprocessing-wrapper/app_postprocess_mpe_pd_uf.c ****   assert(nb_input == 2);
 146              		.loc 1 51 1 view .LVU37
 147 0006 1146     		mov	r1, r2
 148              	.LVL6:
  51:Lib/ai-postprocessing-wrapper/app_postprocess_mpe_pd_uf.c ****   assert(nb_input == 2);
 149              		.loc 1 51 1 view .LVU38
 150 0008 1A46     		mov	r2, r3
 151              	.LVL7:
 152              		.loc 1 52 3 view .LVU39
 153 000a 05D0     		beq	.L7
 154              		.loc 1 52 3 discriminator 1 view .LVU40
ARM GAS  C:\Users\DJESSOU\AppData\Local\Temp\ccMfOXfy.s 			page 5


 155 000c 3421     		movs	r1, #52
 156              	.LVL8:
 157              		.loc 1 52 3 discriminator 1 view .LVU41
 158 000e 084B     		ldr	r3, .L8
 159              	.LVL9:
 160              		.loc 1 52 3 discriminator 1 view .LVU42
 161 0010 084A     		ldr	r2, .L8+4
 162              	.LVL10:
 163              		.loc 1 52 3 discriminator 1 view .LVU43
 164 0012 0948     		ldr	r0, .L8+8
 165              	.LVL11:
 166              		.loc 1 52 3 discriminator 1 view .LVU44
 167 0014 FFF7FEFF 		bl	__assert_func
 168              	.LVL12:
 169              	.L7:
  53:Lib/ai-postprocessing-wrapper/app_postprocess_mpe_pd_uf.c ****   pd_pp_out_t *pPdOutput = (pd_pp_out_t *) pOutput;
 170              		.loc 1 53 3 is_stmt 1 view .LVU45
  54:Lib/ai-postprocessing-wrapper/app_postprocess_mpe_pd_uf.c ****   pd_model_pp_in_t pp_input = {
 171              		.loc 1 54 3 view .LVU46
 172              		.loc 1 54 20 is_stmt 0 view .LVU47
 173 0018 0368     		ldr	r3, [r0]
 174 001a 0093     		str	r3, [sp]
 175 001c 4368     		ldr	r3, [r0, #4]
  55:Lib/ai-postprocessing-wrapper/app_postprocess_mpe_pd_uf.c ****     .pProbs = (float32_t *) pInput[0],
  56:Lib/ai-postprocessing-wrapper/app_postprocess_mpe_pd_uf.c ****     .pBoxes = (float32_t *) pInput[1],
  57:Lib/ai-postprocessing-wrapper/app_postprocess_mpe_pd_uf.c ****   };
  58:Lib/ai-postprocessing-wrapper/app_postprocess_mpe_pd_uf.c ****   int32_t error;
  59:Lib/ai-postprocessing-wrapper/app_postprocess_mpe_pd_uf.c ****   pPdOutput->pOutData = out_detections;
  60:Lib/ai-postprocessing-wrapper/app_postprocess_mpe_pd_uf.c ****   error = pd_model_pp_process(&pp_input, pPdOutput, 
 176              		.loc 1 60 11 view .LVU48
 177 001e 6846     		mov	r0, sp
 178              	.LVL13:
  54:Lib/ai-postprocessing-wrapper/app_postprocess_mpe_pd_uf.c ****   pd_model_pp_in_t pp_input = {
 179              		.loc 1 54 20 view .LVU49
 180 0020 0193     		str	r3, [sp, #4]
  58:Lib/ai-postprocessing-wrapper/app_postprocess_mpe_pd_uf.c ****   pPdOutput->pOutData = out_detections;
 181              		.loc 1 58 3 is_stmt 1 view .LVU50
  59:Lib/ai-postprocessing-wrapper/app_postprocess_mpe_pd_uf.c ****   error = pd_model_pp_process(&pp_input, pPdOutput, 
 182              		.loc 1 59 3 view .LVU51
  59:Lib/ai-postprocessing-wrapper/app_postprocess_mpe_pd_uf.c ****   error = pd_model_pp_process(&pp_input, pPdOutput, 
 183              		.loc 1 59 23 is_stmt 0 view .LVU52
 184 0022 064B     		ldr	r3, .L8+12
 185 0024 0B60     		str	r3, [r1]
 186              		.loc 1 60 3 is_stmt 1 view .LVU53
 187              		.loc 1 60 11 is_stmt 0 view .LVU54
 188 0026 FFF7FEFF 		bl	pd_model_pp_process
 189              	.LVL14:
  61:Lib/ai-postprocessing-wrapper/app_postprocess_mpe_pd_uf.c ****                               (pd_model_pp_static_param_t *) pInput_param);
  62:Lib/ai-postprocessing-wrapper/app_postprocess_mpe_pd_uf.c **** 
  63:Lib/ai-postprocessing-wrapper/app_postprocess_mpe_pd_uf.c ****   return error;
 190              		.loc 1 63 3 is_stmt 1 view .LVU55
  64:Lib/ai-postprocessing-wrapper/app_postprocess_mpe_pd_uf.c **** }
 191              		.loc 1 64 1 is_stmt 0 view .LVU56
 192 002a 02B0     		add	sp, sp, #8
 193              		.cfi_def_cfa_offset 8
 194              		@ sp needed
 195 002c 10BD     		pop	{r4, pc}
ARM GAS  C:\Users\DJESSOU\AppData\Local\Temp\ccMfOXfy.s 			page 6


 196              	.LVL15:
 197              	.L9:
 198              		.loc 1 64 1 view .LVU57
 199 002e 00BF     		.align	2
 200              	.L8:
 201 0030 00000000 		.word	.LC0
 202 0034 00000000 		.word	__func__.0
 203 0038 0E000000 		.word	.LC1
 204 003c 00000000 		.word	out_detections
 205              		.cfi_endproc
 206              	.LFE2808:
 208              		.section	.rodata.__func__.0,"a"
 211              	__func__.0:
 212 0000 6170705F 		.ascii	"app_postprocess_run\000"
 212      706F7374 
 212      70726F63 
 212      6573735F 
 212      72756E00 
 213              		.section	.bss.out_keyPoints,"aw",%nobits
 214              		.align	2
 217              	out_keyPoints:
 218 0000 00000000 		.space	1120
 218      00000000 
 218      00000000 
 218      00000000 
 218      00000000 
 219              		.section	.bss.out_detections,"aw",%nobits
 220              		.align	2
 223              	out_detections:
 224 0000 00000000 		.space	480
 224      00000000 
 224      00000000 
 224      00000000 
 224      00000000 
 225              		.section	.data.g_Anchors,"aw"
 226              		.align	2
 229              	g_Anchors:
 230 0000 F8A9AA3C 		.word	1017817592
 231 0004 F8A9AA3C 		.word	1017817592
 232 0008 F8A9AA3C 		.word	1017817592
 233 000c F8A9AA3C 		.word	1017817592
 234 0010 0000803D 		.word	1031798784
 235 0014 F8A9AA3C 		.word	1017817592
 236 0018 0000803D 		.word	1031798784
 237 001c F8A9AA3C 		.word	1017817592
 238 0020 8255D53D 		.word	1037391234
 239 0024 F8A9AA3C 		.word	1017817592
 240 0028 8255D53D 		.word	1037391234
 241 002c F8A9AA3C 		.word	1017817592
 242 0030 3F55153E 		.word	1041585471
 243 0034 F8A9AA3C 		.word	1017817592
 244 0038 3F55153E 		.word	1041585471
 245 003c F8A9AA3C 		.word	1017817592
 246 0040 0000403E 		.word	1044381696
 247 0044 F8A9AA3C 		.word	1017817592
 248 0048 0000403E 		.word	1044381696
 249 004c F8A9AA3C 		.word	1017817592
ARM GAS  C:\Users\DJESSOU\AppData\Local\Temp\ccMfOXfy.s 			page 7


 250 0050 C1AA6A3E 		.word	1047177921
 251 0054 F8A9AA3C 		.word	1017817592
 252 0058 C1AA6A3E 		.word	1047177921
 253 005c F8A9AA3C 		.word	1017817592
 254 0060 9FAA8A3E 		.word	1049275039
 255 0064 F8A9AA3C 		.word	1017817592
 256 0068 9FAA8A3E 		.word	1049275039
 257 006c F8A9AA3C 		.word	1017817592
 258 0070 0000A03E 		.word	1050673152
 259 0074 F8A9AA3C 		.word	1017817592
 260 0078 0000A03E 		.word	1050673152
 261 007c F8A9AA3C 		.word	1017817592
 262 0080 6155B53E 		.word	1052071265
 263 0084 F8A9AA3C 		.word	1017817592
 264 0088 6155B53E 		.word	1052071265
 265 008c F8A9AA3C 		.word	1017817592
 266 0090 9FAACA3E 		.word	1053469343
 267 0094 F8A9AA3C 		.word	1017817592
 268 0098 9FAACA3E 		.word	1053469343
 269 009c F8A9AA3C 		.word	1017817592
 270 00a0 0000E03E 		.word	1054867456
 271 00a4 F8A9AA3C 		.word	1017817592
 272 00a8 0000E03E 		.word	1054867456
 273 00ac F8A9AA3C 		.word	1017817592
 274 00b0 6155F53E 		.word	1056265569
 275 00b4 F8A9AA3C 		.word	1017817592
 276 00b8 6155F53E 		.word	1056265569
 277 00bc F8A9AA3C 		.word	1017817592
 278 00c0 5055053F 		.word	1057314128
 279 00c4 F8A9AA3C 		.word	1017817592
 280 00c8 5055053F 		.word	1057314128
 281 00cc F8A9AA3C 		.word	1017817592
 282 00d0 0000103F 		.word	1058013184
 283 00d4 F8A9AA3C 		.word	1017817592
 284 00d8 0000103F 		.word	1058013184
 285 00dc F8A9AA3C 		.word	1017817592
 286 00e0 B0AA1A3F 		.word	1058712240
 287 00e4 F8A9AA3C 		.word	1017817592
 288 00e8 B0AA1A3F 		.word	1058712240
 289 00ec F8A9AA3C 		.word	1017817592
 290 00f0 5055253F 		.word	1059411280
 291 00f4 F8A9AA3C 		.word	1017817592
 292 00f8 5055253F 		.word	1059411280
 293 00fc F8A9AA3C 		.word	1017817592
 294 0100 0000303F 		.word	1060110336
 295 0104 F8A9AA3C 		.word	1017817592
 296 0108 0000303F 		.word	1060110336
 297 010c F8A9AA3C 		.word	1017817592
 298 0110 B0AA3A3F 		.word	1060809392
 299 0114 F8A9AA3C 		.word	1017817592
 300 0118 B0AA3A3F 		.word	1060809392
 301 011c F8A9AA3C 		.word	1017817592
 302 0120 5055453F 		.word	1061508432
 303 0124 F8A9AA3C 		.word	1017817592
 304 0128 5055453F 		.word	1061508432
 305 012c F8A9AA3C 		.word	1017817592
 306 0130 0000503F 		.word	1062207488
ARM GAS  C:\Users\DJESSOU\AppData\Local\Temp\ccMfOXfy.s 			page 8


 307 0134 F8A9AA3C 		.word	1017817592
 308 0138 0000503F 		.word	1062207488
 309 013c F8A9AA3C 		.word	1017817592
 310 0140 B0AA5A3F 		.word	1062906544
 311 0144 F8A9AA3C 		.word	1017817592
 312 0148 B0AA5A3F 		.word	1062906544
 313 014c F8A9AA3C 		.word	1017817592
 314 0150 5055653F 		.word	1063605584
 315 0154 F8A9AA3C 		.word	1017817592
 316 0158 5055653F 		.word	1063605584
 317 015c F8A9AA3C 		.word	1017817592
 318 0160 0000703F 		.word	1064304640
 319 0164 F8A9AA3C 		.word	1017817592
 320 0168 0000703F 		.word	1064304640
 321 016c F8A9AA3C 		.word	1017817592
 322 0170 B0AA7A3F 		.word	1065003696
 323 0174 F8A9AA3C 		.word	1017817592
 324 0178 B0AA7A3F 		.word	1065003696
 325 017c F8A9AA3C 		.word	1017817592
 326 0180 F8A9AA3C 		.word	1017817592
 327 0184 0000803D 		.word	1031798784
 328 0188 F8A9AA3C 		.word	1017817592
 329 018c 0000803D 		.word	1031798784
 330 0190 0000803D 		.word	1031798784
 331 0194 0000803D 		.word	1031798784
 332 0198 0000803D 		.word	1031798784
 333 019c 0000803D 		.word	1031798784
 334 01a0 8255D53D 		.word	1037391234
 335 01a4 0000803D 		.word	1031798784
 336 01a8 8255D53D 		.word	1037391234
 337 01ac 0000803D 		.word	1031798784
 338 01b0 3F55153E 		.word	1041585471
 339 01b4 0000803D 		.word	1031798784
 340 01b8 3F55153E 		.word	1041585471
 341 01bc 0000803D 		.word	1031798784
 342 01c0 0000403E 		.word	1044381696
 343 01c4 0000803D 		.word	1031798784
 344 01c8 0000403E 		.word	1044381696
 345 01cc 0000803D 		.word	1031798784
 346 01d0 C1AA6A3E 		.word	1047177921
 347 01d4 0000803D 		.word	1031798784
 348 01d8 C1AA6A3E 		.word	1047177921
 349 01dc 0000803D 		.word	1031798784
 350 01e0 9FAA8A3E 		.word	1049275039
 351 01e4 0000803D 		.word	1031798784
 352 01e8 9FAA8A3E 		.word	1049275039
 353 01ec 0000803D 		.word	1031798784
 354 01f0 0000A03E 		.word	1050673152
 355 01f4 0000803D 		.word	1031798784
 356 01f8 0000A03E 		.word	1050673152
 357 01fc 0000803D 		.word	1031798784
 358 0200 6155B53E 		.word	1052071265
 359 0204 0000803D 		.word	1031798784
 360 0208 6155B53E 		.word	1052071265
 361 020c 0000803D 		.word	1031798784
 362 0210 9FAACA3E 		.word	1053469343
 363 0214 0000803D 		.word	1031798784
ARM GAS  C:\Users\DJESSOU\AppData\Local\Temp\ccMfOXfy.s 			page 9


 364 0218 9FAACA3E 		.word	1053469343
 365 021c 0000803D 		.word	1031798784
 366 0220 0000E03E 		.word	1054867456
 367 0224 0000803D 		.word	1031798784
 368 0228 0000E03E 		.word	1054867456
 369 022c 0000803D 		.word	1031798784
 370 0230 6155F53E 		.word	1056265569
 371 0234 0000803D 		.word	1031798784
 372 0238 6155F53E 		.word	1056265569
 373 023c 0000803D 		.word	1031798784
 374 0240 5055053F 		.word	1057314128
 375 0244 0000803D 		.word	1031798784
 376 0248 5055053F 		.word	1057314128
 377 024c 0000803D 		.word	1031798784
 378 0250 0000103F 		.word	1058013184
 379 0254 0000803D 		.word	1031798784
 380 0258 0000103F 		.word	1058013184
 381 025c 0000803D 		.word	1031798784
 382 0260 B0AA1A3F 		.word	1058712240
 383 0264 0000803D 		.word	1031798784
 384 0268 B0AA1A3F 		.word	1058712240
 385 026c 0000803D 		.word	1031798784
 386 0270 5055253F 		.word	1059411280
 387 0274 0000803D 		.word	1031798784
 388 0278 5055253F 		.word	1059411280
 389 027c 0000803D 		.word	1031798784
 390 0280 0000303F 		.word	1060110336
 391 0284 0000803D 		.word	1031798784
 392 0288 0000303F 		.word	1060110336
 393 028c 0000803D 		.word	1031798784
 394 0290 B0AA3A3F 		.word	1060809392
 395 0294 0000803D 		.word	1031798784
 396 0298 B0AA3A3F 		.word	1060809392
 397 029c 0000803D 		.word	1031798784
 398 02a0 5055453F 		.word	1061508432
 399 02a4 0000803D 		.word	1031798784
 400 02a8 5055453F 		.word	1061508432
 401 02ac 0000803D 		.word	1031798784
 402 02b0 0000503F 		.word	1062207488
 403 02b4 0000803D 		.word	1031798784
 404 02b8 0000503F 		.word	1062207488
 405 02bc 0000803D 		.word	1031798784
 406 02c0 B0AA5A3F 		.word	1062906544
 407 02c4 0000803D 		.word	1031798784
 408 02c8 B0AA5A3F 		.word	1062906544
 409 02cc 0000803D 		.word	1031798784
 410 02d0 5055653F 		.word	1063605584
 411 02d4 0000803D 		.word	1031798784
 412 02d8 5055653F 		.word	1063605584
 413 02dc 0000803D 		.word	1031798784
 414 02e0 0000703F 		.word	1064304640
 415 02e4 0000803D 		.word	1031798784
 416 02e8 0000703F 		.word	1064304640
 417 02ec 0000803D 		.word	1031798784
 418 02f0 B0AA7A3F 		.word	1065003696
 419 02f4 0000803D 		.word	1031798784
 420 02f8 B0AA7A3F 		.word	1065003696
ARM GAS  C:\Users\DJESSOU\AppData\Local\Temp\ccMfOXfy.s 			page 10


 421 02fc 0000803D 		.word	1031798784
 422 0300 F8A9AA3C 		.word	1017817592
 423 0304 8255D53D 		.word	1037391234
 424 0308 F8A9AA3C 		.word	1017817592
 425 030c 8255D53D 		.word	1037391234
 426 0310 0000803D 		.word	1031798784
 427 0314 8255D53D 		.word	1037391234
 428 0318 0000803D 		.word	1031798784
 429 031c 8255D53D 		.word	1037391234
 430 0320 8255D53D 		.word	1037391234
 431 0324 8255D53D 		.word	1037391234
 432 0328 8255D53D 		.word	1037391234
 433 032c 8255D53D 		.word	1037391234
 434 0330 3F55153E 		.word	1041585471
 435 0334 8255D53D 		.word	1037391234
 436 0338 3F55153E 		.word	1041585471
 437 033c 8255D53D 		.word	1037391234
 438 0340 0000403E 		.word	1044381696
 439 0344 8255D53D 		.word	1037391234
 440 0348 0000403E 		.word	1044381696
 441 034c 8255D53D 		.word	1037391234
 442 0350 C1AA6A3E 		.word	1047177921
 443 0354 8255D53D 		.word	1037391234
 444 0358 C1AA6A3E 		.word	1047177921
 445 035c 8255D53D 		.word	1037391234
 446 0360 9FAA8A3E 		.word	1049275039
 447 0364 8255D53D 		.word	1037391234
 448 0368 9FAA8A3E 		.word	1049275039
 449 036c 8255D53D 		.word	1037391234
 450 0370 0000A03E 		.word	1050673152
 451 0374 8255D53D 		.word	1037391234
 452 0378 0000A03E 		.word	1050673152
 453 037c 8255D53D 		.word	1037391234
 454 0380 6155B53E 		.word	1052071265
 455 0384 8255D53D 		.word	1037391234
 456 0388 6155B53E 		.word	1052071265
 457 038c 8255D53D 		.word	1037391234
 458 0390 9FAACA3E 		.word	1053469343
 459 0394 8255D53D 		.word	1037391234
 460 0398 9FAACA3E 		.word	1053469343
 461 039c 8255D53D 		.word	1037391234
 462 03a0 0000E03E 		.word	1054867456
 463 03a4 8255D53D 		.word	1037391234
 464 03a8 0000E03E 		.word	1054867456
 465 03ac 8255D53D 		.word	1037391234
 466 03b0 6155F53E 		.word	1056265569
 467 03b4 8255D53D 		.word	1037391234
 468 03b8 6155F53E 		.word	1056265569
 469 03bc 8255D53D 		.word	1037391234
 470 03c0 5055053F 		.word	1057314128
 471 03c4 8255D53D 		.word	1037391234
 472 03c8 5055053F 		.word	1057314128
 473 03cc 8255D53D 		.word	1037391234
 474 03d0 0000103F 		.word	1058013184
 475 03d4 8255D53D 		.word	1037391234
 476 03d8 0000103F 		.word	1058013184
 477 03dc 8255D53D 		.word	1037391234
ARM GAS  C:\Users\DJESSOU\AppData\Local\Temp\ccMfOXfy.s 			page 11


 478 03e0 B0AA1A3F 		.word	1058712240
 479 03e4 8255D53D 		.word	1037391234
 480 03e8 B0AA1A3F 		.word	1058712240
 481 03ec 8255D53D 		.word	1037391234
 482 03f0 5055253F 		.word	1059411280
 483 03f4 8255D53D 		.word	1037391234
 484 03f8 5055253F 		.word	1059411280
 485 03fc 8255D53D 		.word	1037391234
 486 0400 0000303F 		.word	1060110336
 487 0404 8255D53D 		.word	1037391234
 488 0408 0000303F 		.word	1060110336
 489 040c 8255D53D 		.word	1037391234
 490 0410 B0AA3A3F 		.word	1060809392
 491 0414 8255D53D 		.word	1037391234
 492 0418 B0AA3A3F 		.word	1060809392
 493 041c 8255D53D 		.word	1037391234
 494 0420 5055453F 		.word	1061508432
 495 0424 8255D53D 		.word	1037391234
 496 0428 5055453F 		.word	1061508432
 497 042c 8255D53D 		.word	1037391234
 498 0430 0000503F 		.word	1062207488
 499 0434 8255D53D 		.word	1037391234
 500 0438 0000503F 		.word	1062207488
 501 043c 8255D53D 		.word	1037391234
 502 0440 B0AA5A3F 		.word	1062906544
 503 0444 8255D53D 		.word	1037391234
 504 0448 B0AA5A3F 		.word	1062906544
 505 044c 8255D53D 		.word	1037391234
 506 0450 5055653F 		.word	1063605584
 507 0454 8255D53D 		.word	1037391234
 508 0458 5055653F 		.word	1063605584
 509 045c 8255D53D 		.word	1037391234
 510 0460 0000703F 		.word	1064304640
 511 0464 8255D53D 		.word	1037391234
 512 0468 0000703F 		.word	1064304640
 513 046c 8255D53D 		.word	1037391234
 514 0470 B0AA7A3F 		.word	1065003696
 515 0474 8255D53D 		.word	1037391234
 516 0478 B0AA7A3F 		.word	1065003696
 517 047c 8255D53D 		.word	1037391234
 518 0480 F8A9AA3C 		.word	1017817592
 519 0484 3F55153E 		.word	1041585471
 520 0488 F8A9AA3C 		.word	1017817592
 521 048c 3F55153E 		.word	1041585471
 522 0490 0000803D 		.word	1031798784
 523 0494 3F55153E 		.word	1041585471
 524 0498 0000803D 		.word	1031798784
 525 049c 3F55153E 		.word	1041585471
 526 04a0 8255D53D 		.word	1037391234
 527 04a4 3F55153E 		.word	1041585471
 528 04a8 8255D53D 		.word	1037391234
 529 04ac 3F55153E 		.word	1041585471
 530 04b0 3F55153E 		.word	1041585471
 531 04b4 3F55153E 		.word	1041585471
 532 04b8 3F55153E 		.word	1041585471
 533 04bc 3F55153E 		.word	1041585471
 534 04c0 0000403E 		.word	1044381696
ARM GAS  C:\Users\DJESSOU\AppData\Local\Temp\ccMfOXfy.s 			page 12


 535 04c4 3F55153E 		.word	1041585471
 536 04c8 0000403E 		.word	1044381696
 537 04cc 3F55153E 		.word	1041585471
 538 04d0 C1AA6A3E 		.word	1047177921
 539 04d4 3F55153E 		.word	1041585471
 540 04d8 C1AA6A3E 		.word	1047177921
 541 04dc 3F55153E 		.word	1041585471
 542 04e0 9FAA8A3E 		.word	1049275039
 543 04e4 3F55153E 		.word	1041585471
 544 04e8 9FAA8A3E 		.word	1049275039
 545 04ec 3F55153E 		.word	1041585471
 546 04f0 0000A03E 		.word	1050673152
 547 04f4 3F55153E 		.word	1041585471
 548 04f8 0000A03E 		.word	1050673152
 549 04fc 3F55153E 		.word	1041585471
 550 0500 6155B53E 		.word	1052071265
 551 0504 3F55153E 		.word	1041585471
 552 0508 6155B53E 		.word	1052071265
 553 050c 3F55153E 		.word	1041585471
 554 0510 9FAACA3E 		.word	1053469343
 555 0514 3F55153E 		.word	1041585471
 556 0518 9FAACA3E 		.word	1053469343
 557 051c 3F55153E 		.word	1041585471
 558 0520 0000E03E 		.word	1054867456
 559 0524 3F55153E 		.word	1041585471
 560 0528 0000E03E 		.word	1054867456
 561 052c 3F55153E 		.word	1041585471
 562 0530 6155F53E 		.word	1056265569
 563 0534 3F55153E 		.word	1041585471
 564 0538 6155F53E 		.word	1056265569
 565 053c 3F55153E 		.word	1041585471
 566 0540 5055053F 		.word	1057314128
 567 0544 3F55153E 		.word	1041585471
 568 0548 5055053F 		.word	1057314128
 569 054c 3F55153E 		.word	1041585471
 570 0550 0000103F 		.word	1058013184
 571 0554 3F55153E 		.word	1041585471
 572 0558 0000103F 		.word	1058013184
 573 055c 3F55153E 		.word	1041585471
 574 0560 B0AA1A3F 		.word	1058712240
 575 0564 3F55153E 		.word	1041585471
 576 0568 B0AA1A3F 		.word	1058712240
 577 056c 3F55153E 		.word	1041585471
 578 0570 5055253F 		.word	1059411280
 579 0574 3F55153E 		.word	1041585471
 580 0578 5055253F 		.word	1059411280
 581 057c 3F55153E 		.word	1041585471
 582 0580 0000303F 		.word	1060110336
 583 0584 3F55153E 		.word	1041585471
 584 0588 0000303F 		.word	1060110336
 585 058c 3F55153E 		.word	1041585471
 586 0590 B0AA3A3F 		.word	1060809392
 587 0594 3F55153E 		.word	1041585471
 588 0598 B0AA3A3F 		.word	1060809392
 589 059c 3F55153E 		.word	1041585471
 590 05a0 5055453F 		.word	1061508432
 591 05a4 3F55153E 		.word	1041585471
ARM GAS  C:\Users\DJESSOU\AppData\Local\Temp\ccMfOXfy.s 			page 13


 592 05a8 5055453F 		.word	1061508432
 593 05ac 3F55153E 		.word	1041585471
 594 05b0 0000503F 		.word	1062207488
 595 05b4 3F55153E 		.word	1041585471
 596 05b8 0000503F 		.word	1062207488
 597 05bc 3F55153E 		.word	1041585471
 598 05c0 B0AA5A3F 		.word	1062906544
 599 05c4 3F55153E 		.word	1041585471
 600 05c8 B0AA5A3F 		.word	1062906544
 601 05cc 3F55153E 		.word	1041585471
 602 05d0 5055653F 		.word	1063605584
 603 05d4 3F55153E 		.word	1041585471
 604 05d8 5055653F 		.word	1063605584
 605 05dc 3F55153E 		.word	1041585471
 606 05e0 0000703F 		.word	1064304640
 607 05e4 3F55153E 		.word	1041585471
 608 05e8 0000703F 		.word	1064304640
 609 05ec 3F55153E 		.word	1041585471
 610 05f0 B0AA7A3F 		.word	1065003696
 611 05f4 3F55153E 		.word	1041585471
 612 05f8 B0AA7A3F 		.word	1065003696
 613 05fc 3F55153E 		.word	1041585471
 614 0600 F8A9AA3C 		.word	1017817592
 615 0604 0000403E 		.word	1044381696
 616 0608 F8A9AA3C 		.word	1017817592
 617 060c 0000403E 		.word	1044381696
 618 0610 0000803D 		.word	1031798784
 619 0614 0000403E 		.word	1044381696
 620 0618 0000803D 		.word	1031798784
 621 061c 0000403E 		.word	1044381696
 622 0620 8255D53D 		.word	1037391234
 623 0624 0000403E 		.word	1044381696
 624 0628 8255D53D 		.word	1037391234
 625 062c 0000403E 		.word	1044381696
 626 0630 3F55153E 		.word	1041585471
 627 0634 0000403E 		.word	1044381696
 628 0638 3F55153E 		.word	1041585471
 629 063c 0000403E 		.word	1044381696
 630 0640 0000403E 		.word	1044381696
 631 0644 0000403E 		.word	1044381696
 632 0648 0000403E 		.word	1044381696
 633 064c 0000403E 		.word	1044381696
 634 0650 C1AA6A3E 		.word	1047177921
 635 0654 0000403E 		.word	1044381696
 636 0658 C1AA6A3E 		.word	1047177921
 637 065c 0000403E 		.word	1044381696
 638 0660 9FAA8A3E 		.word	1049275039
 639 0664 0000403E 		.word	1044381696
 640 0668 9FAA8A3E 		.word	1049275039
 641 066c 0000403E 		.word	1044381696
 642 0670 0000A03E 		.word	1050673152
 643 0674 0000403E 		.word	1044381696
 644 0678 0000A03E 		.word	1050673152
 645 067c 0000403E 		.word	1044381696
 646 0680 6155B53E 		.word	1052071265
 647 0684 0000403E 		.word	1044381696
 648 0688 6155B53E 		.word	1052071265
ARM GAS  C:\Users\DJESSOU\AppData\Local\Temp\ccMfOXfy.s 			page 14


 649 068c 0000403E 		.word	1044381696
 650 0690 9FAACA3E 		.word	1053469343
 651 0694 0000403E 		.word	1044381696
 652 0698 9FAACA3E 		.word	1053469343
 653 069c 0000403E 		.word	1044381696
 654 06a0 0000E03E 		.word	1054867456
 655 06a4 0000403E 		.word	1044381696
 656 06a8 0000E03E 		.word	1054867456
 657 06ac 0000403E 		.word	1044381696
 658 06b0 6155F53E 		.word	1056265569
 659 06b4 0000403E 		.word	1044381696
 660 06b8 6155F53E 		.word	1056265569
 661 06bc 0000403E 		.word	1044381696
 662 06c0 5055053F 		.word	1057314128
 663 06c4 0000403E 		.word	1044381696
 664 06c8 5055053F 		.word	1057314128
 665 06cc 0000403E 		.word	1044381696
 666 06d0 0000103F 		.word	1058013184
 667 06d4 0000403E 		.word	1044381696
 668 06d8 0000103F 		.word	1058013184
 669 06dc 0000403E 		.word	1044381696
 670 06e0 B0AA1A3F 		.word	1058712240
 671 06e4 0000403E 		.word	1044381696
 672 06e8 B0AA1A3F 		.word	1058712240
 673 06ec 0000403E 		.word	1044381696
 674 06f0 5055253F 		.word	1059411280
 675 06f4 0000403E 		.word	1044381696
 676 06f8 5055253F 		.word	1059411280
 677 06fc 0000403E 		.word	1044381696
 678 0700 0000303F 		.word	1060110336
 679 0704 0000403E 		.word	1044381696
 680 0708 0000303F 		.word	1060110336
 681 070c 0000403E 		.word	1044381696
 682 0710 B0AA3A3F 		.word	1060809392
 683 0714 0000403E 		.word	1044381696
 684 0718 B0AA3A3F 		.word	1060809392
 685 071c 0000403E 		.word	1044381696
 686 0720 5055453F 		.word	1061508432
 687 0724 0000403E 		.word	1044381696
 688 0728 5055453F 		.word	1061508432
 689 072c 0000403E 		.word	1044381696
 690 0730 0000503F 		.word	1062207488
 691 0734 0000403E 		.word	1044381696
 692 0738 0000503F 		.word	1062207488
 693 073c 0000403E 		.word	1044381696
 694 0740 B0AA5A3F 		.word	1062906544
 695 0744 0000403E 		.word	1044381696
 696 0748 B0AA5A3F 		.word	1062906544
 697 074c 0000403E 		.word	1044381696
 698 0750 5055653F 		.word	1063605584
 699 0754 0000403E 		.word	1044381696
 700 0758 5055653F 		.word	1063605584
 701 075c 0000403E 		.word	1044381696
 702 0760 0000703F 		.word	1064304640
 703 0764 0000403E 		.word	1044381696
 704 0768 0000703F 		.word	1064304640
 705 076c 0000403E 		.word	1044381696
ARM GAS  C:\Users\DJESSOU\AppData\Local\Temp\ccMfOXfy.s 			page 15


 706 0770 B0AA7A3F 		.word	1065003696
 707 0774 0000403E 		.word	1044381696
 708 0778 B0AA7A3F 		.word	1065003696
 709 077c 0000403E 		.word	1044381696
 710 0780 F8A9AA3C 		.word	1017817592
 711 0784 C1AA6A3E 		.word	1047177921
 712 0788 F8A9AA3C 		.word	1017817592
 713 078c C1AA6A3E 		.word	1047177921
 714 0790 0000803D 		.word	1031798784
 715 0794 C1AA6A3E 		.word	1047177921
 716 0798 0000803D 		.word	1031798784
 717 079c C1AA6A3E 		.word	1047177921
 718 07a0 8255D53D 		.word	1037391234
 719 07a4 C1AA6A3E 		.word	1047177921
 720 07a8 8255D53D 		.word	1037391234
 721 07ac C1AA6A3E 		.word	1047177921
 722 07b0 3F55153E 		.word	1041585471
 723 07b4 C1AA6A3E 		.word	1047177921
 724 07b8 3F55153E 		.word	1041585471
 725 07bc C1AA6A3E 		.word	1047177921
 726 07c0 0000403E 		.word	1044381696
 727 07c4 C1AA6A3E 		.word	1047177921
 728 07c8 0000403E 		.word	1044381696
 729 07cc C1AA6A3E 		.word	1047177921
 730 07d0 C1AA6A3E 		.word	1047177921
 731 07d4 C1AA6A3E 		.word	1047177921
 732 07d8 C1AA6A3E 		.word	1047177921
 733 07dc C1AA6A3E 		.word	1047177921
 734 07e0 9FAA8A3E 		.word	1049275039
 735 07e4 C1AA6A3E 		.word	1047177921
 736 07e8 9FAA8A3E 		.word	1049275039
 737 07ec C1AA6A3E 		.word	1047177921
 738 07f0 0000A03E 		.word	1050673152
 739 07f4 C1AA6A3E 		.word	1047177921
 740 07f8 0000A03E 		.word	1050673152
 741 07fc C1AA6A3E 		.word	1047177921
 742 0800 6155B53E 		.word	1052071265
 743 0804 C1AA6A3E 		.word	1047177921
 744 0808 6155B53E 		.word	1052071265
 745 080c C1AA6A3E 		.word	1047177921
 746 0810 9FAACA3E 		.word	1053469343
 747 0814 C1AA6A3E 		.word	1047177921
 748 0818 9FAACA3E 		.word	1053469343
 749 081c C1AA6A3E 		.word	1047177921
 750 0820 0000E03E 		.word	1054867456
 751 0824 C1AA6A3E 		.word	1047177921
 752 0828 0000E03E 		.word	1054867456
 753 082c C1AA6A3E 		.word	1047177921
 754 0830 6155F53E 		.word	1056265569
 755 0834 C1AA6A3E 		.word	1047177921
 756 0838 6155F53E 		.word	1056265569
 757 083c C1AA6A3E 		.word	1047177921
 758 0840 5055053F 		.word	1057314128
 759 0844 C1AA6A3E 		.word	1047177921
 760 0848 5055053F 		.word	1057314128
 761 084c C1AA6A3E 		.word	1047177921
 762 0850 0000103F 		.word	1058013184
ARM GAS  C:\Users\DJESSOU\AppData\Local\Temp\ccMfOXfy.s 			page 16


 763 0854 C1AA6A3E 		.word	1047177921
 764 0858 0000103F 		.word	1058013184
 765 085c C1AA6A3E 		.word	1047177921
 766 0860 B0AA1A3F 		.word	1058712240
 767 0864 C1AA6A3E 		.word	1047177921
 768 0868 B0AA1A3F 		.word	1058712240
 769 086c C1AA6A3E 		.word	1047177921
 770 0870 5055253F 		.word	1059411280
 771 0874 C1AA6A3E 		.word	1047177921
 772 0878 5055253F 		.word	1059411280
 773 087c C1AA6A3E 		.word	1047177921
 774 0880 0000303F 		.word	1060110336
 775 0884 C1AA6A3E 		.word	1047177921
 776 0888 0000303F 		.word	1060110336
 777 088c C1AA6A3E 		.word	1047177921
 778 0890 B0AA3A3F 		.word	1060809392
 779 0894 C1AA6A3E 		.word	1047177921
 780 0898 B0AA3A3F 		.word	1060809392
 781 089c C1AA6A3E 		.word	1047177921
 782 08a0 5055453F 		.word	1061508432
 783 08a4 C1AA6A3E 		.word	1047177921
 784 08a8 5055453F 		.word	1061508432
 785 08ac C1AA6A3E 		.word	1047177921
 786 08b0 0000503F 		.word	1062207488
 787 08b4 C1AA6A3E 		.word	1047177921
 788 08b8 0000503F 		.word	1062207488
 789 08bc C1AA6A3E 		.word	1047177921
 790 08c0 B0AA5A3F 		.word	1062906544
 791 08c4 C1AA6A3E 		.word	1047177921
 792 08c8 B0AA5A3F 		.word	1062906544
 793 08cc C1AA6A3E 		.word	1047177921
 794 08d0 5055653F 		.word	1063605584
 795 08d4 C1AA6A3E 		.word	1047177921
 796 08d8 5055653F 		.word	1063605584
 797 08dc C1AA6A3E 		.word	1047177921
 798 08e0 0000703F 		.word	1064304640
 799 08e4 C1AA6A3E 		.word	1047177921
 800 08e8 0000703F 		.word	1064304640
 801 08ec C1AA6A3E 		.word	1047177921
 802 08f0 B0AA7A3F 		.word	1065003696
 803 08f4 C1AA6A3E 		.word	1047177921
 804 08f8 B0AA7A3F 		.word	1065003696
 805 08fc C1AA6A3E 		.word	1047177921
 806 0900 F8A9AA3C 		.word	1017817592
 807 0904 9FAA8A3E 		.word	1049275039
 808 0908 F8A9AA3C 		.word	1017817592
 809 090c 9FAA8A3E 		.word	1049275039
 810 0910 0000803D 		.word	1031798784
 811 0914 9FAA8A3E 		.word	1049275039
 812 0918 0000803D 		.word	1031798784
 813 091c 9FAA8A3E 		.word	1049275039
 814 0920 8255D53D 		.word	1037391234
 815 0924 9FAA8A3E 		.word	1049275039
 816 0928 8255D53D 		.word	1037391234
 817 092c 9FAA8A3E 		.word	1049275039
 818 0930 3F55153E 		.word	1041585471
 819 0934 9FAA8A3E 		.word	1049275039
ARM GAS  C:\Users\DJESSOU\AppData\Local\Temp\ccMfOXfy.s 			page 17


 820 0938 3F55153E 		.word	1041585471
 821 093c 9FAA8A3E 		.word	1049275039
 822 0940 0000403E 		.word	1044381696
 823 0944 9FAA8A3E 		.word	1049275039
 824 0948 0000403E 		.word	1044381696
 825 094c 9FAA8A3E 		.word	1049275039
 826 0950 C1AA6A3E 		.word	1047177921
 827 0954 9FAA8A3E 		.word	1049275039
 828 0958 C1AA6A3E 		.word	1047177921
 829 095c 9FAA8A3E 		.word	1049275039
 830 0960 9FAA8A3E 		.word	1049275039
 831 0964 9FAA8A3E 		.word	1049275039
 832 0968 9FAA8A3E 		.word	1049275039
 833 096c 9FAA8A3E 		.word	1049275039
 834 0970 0000A03E 		.word	1050673152
 835 0974 9FAA8A3E 		.word	1049275039
 836 0978 0000A03E 		.word	1050673152
 837 097c 9FAA8A3E 		.word	1049275039
 838 0980 6155B53E 		.word	1052071265
 839 0984 9FAA8A3E 		.word	1049275039
 840 0988 6155B53E 		.word	1052071265
 841 098c 9FAA8A3E 		.word	1049275039
 842 0990 9FAACA3E 		.word	1053469343
 843 0994 9FAA8A3E 		.word	1049275039
 844 0998 9FAACA3E 		.word	1053469343
 845 099c 9FAA8A3E 		.word	1049275039
 846 09a0 0000E03E 		.word	1054867456
 847 09a4 9FAA8A3E 		.word	1049275039
 848 09a8 0000E03E 		.word	1054867456
 849 09ac 9FAA8A3E 		.word	1049275039
 850 09b0 6155F53E 		.word	1056265569
 851 09b4 9FAA8A3E 		.word	1049275039
 852 09b8 6155F53E 		.word	1056265569
 853 09bc 9FAA8A3E 		.word	1049275039
 854 09c0 5055053F 		.word	1057314128
 855 09c4 9FAA8A3E 		.word	1049275039
 856 09c8 5055053F 		.word	1057314128
 857 09cc 9FAA8A3E 		.word	1049275039
 858 09d0 0000103F 		.word	1058013184
 859 09d4 9FAA8A3E 		.word	1049275039
 860 09d8 0000103F 		.word	1058013184
 861 09dc 9FAA8A3E 		.word	1049275039
 862 09e0 B0AA1A3F 		.word	1058712240
 863 09e4 9FAA8A3E 		.word	1049275039
 864 09e8 B0AA1A3F 		.word	1058712240
 865 09ec 9FAA8A3E 		.word	1049275039
 866 09f0 5055253F 		.word	1059411280
 867 09f4 9FAA8A3E 		.word	1049275039
 868 09f8 5055253F 		.word	1059411280
 869 09fc 9FAA8A3E 		.word	1049275039
 870 0a00 0000303F 		.word	1060110336
 871 0a04 9FAA8A3E 		.word	1049275039
 872 0a08 0000303F 		.word	1060110336
 873 0a0c 9FAA8A3E 		.word	1049275039
 874 0a10 B0AA3A3F 		.word	1060809392
 875 0a14 9FAA8A3E 		.word	1049275039
 876 0a18 B0AA3A3F 		.word	1060809392
ARM GAS  C:\Users\DJESSOU\AppData\Local\Temp\ccMfOXfy.s 			page 18


 877 0a1c 9FAA8A3E 		.word	1049275039
 878 0a20 5055453F 		.word	1061508432
 879 0a24 9FAA8A3E 		.word	1049275039
 880 0a28 5055453F 		.word	1061508432
 881 0a2c 9FAA8A3E 		.word	1049275039
 882 0a30 0000503F 		.word	1062207488
 883 0a34 9FAA8A3E 		.word	1049275039
 884 0a38 0000503F 		.word	1062207488
 885 0a3c 9FAA8A3E 		.word	1049275039
 886 0a40 B0AA5A3F 		.word	1062906544
 887 0a44 9FAA8A3E 		.word	1049275039
 888 0a48 B0AA5A3F 		.word	1062906544
 889 0a4c 9FAA8A3E 		.word	1049275039
 890 0a50 5055653F 		.word	1063605584
 891 0a54 9FAA8A3E 		.word	1049275039
 892 0a58 5055653F 		.word	1063605584
 893 0a5c 9FAA8A3E 		.word	1049275039
 894 0a60 0000703F 		.word	1064304640
 895 0a64 9FAA8A3E 		.word	1049275039
 896 0a68 0000703F 		.word	1064304640
 897 0a6c 9FAA8A3E 		.word	1049275039
 898 0a70 B0AA7A3F 		.word	1065003696
 899 0a74 9FAA8A3E 		.word	1049275039
 900 0a78 B0AA7A3F 		.word	1065003696
 901 0a7c 9FAA8A3E 		.word	1049275039
 902 0a80 F8A9AA3C 		.word	1017817592
 903 0a84 0000A03E 		.word	1050673152
 904 0a88 F8A9AA3C 		.word	1017817592
 905 0a8c 0000A03E 		.word	1050673152
 906 0a90 0000803D 		.word	1031798784
 907 0a94 0000A03E 		.word	1050673152
 908 0a98 0000803D 		.word	1031798784
 909 0a9c 0000A03E 		.word	1050673152
 910 0aa0 8255D53D 		.word	1037391234
 911 0aa4 0000A03E 		.word	1050673152
 912 0aa8 8255D53D 		.word	1037391234
 913 0aac 0000A03E 		.word	1050673152
 914 0ab0 3F55153E 		.word	1041585471
 915 0ab4 0000A03E 		.word	1050673152
 916 0ab8 3F55153E 		.word	1041585471
 917 0abc 0000A03E 		.word	1050673152
 918 0ac0 0000403E 		.word	1044381696
 919 0ac4 0000A03E 		.word	1050673152
 920 0ac8 0000403E 		.word	1044381696
 921 0acc 0000A03E 		.word	1050673152
 922 0ad0 C1AA6A3E 		.word	1047177921
 923 0ad4 0000A03E 		.word	1050673152
 924 0ad8 C1AA6A3E 		.word	1047177921
 925 0adc 0000A03E 		.word	1050673152
 926 0ae0 9FAA8A3E 		.word	1049275039
 927 0ae4 0000A03E 		.word	1050673152
 928 0ae8 9FAA8A3E 		.word	1049275039
 929 0aec 0000A03E 		.word	1050673152
 930 0af0 0000A03E 		.word	1050673152
 931 0af4 0000A03E 		.word	1050673152
 932 0af8 0000A03E 		.word	1050673152
 933 0afc 0000A03E 		.word	1050673152
ARM GAS  C:\Users\DJESSOU\AppData\Local\Temp\ccMfOXfy.s 			page 19


 934 0b00 6155B53E 		.word	1052071265
 935 0b04 0000A03E 		.word	1050673152
 936 0b08 6155B53E 		.word	1052071265
 937 0b0c 0000A03E 		.word	1050673152
 938 0b10 9FAACA3E 		.word	1053469343
 939 0b14 0000A03E 		.word	1050673152
 940 0b18 9FAACA3E 		.word	1053469343
 941 0b1c 0000A03E 		.word	1050673152
 942 0b20 0000E03E 		.word	1054867456
 943 0b24 0000A03E 		.word	1050673152
 944 0b28 0000E03E 		.word	1054867456
 945 0b2c 0000A03E 		.word	1050673152
 946 0b30 6155F53E 		.word	1056265569
 947 0b34 0000A03E 		.word	1050673152
 948 0b38 6155F53E 		.word	1056265569
 949 0b3c 0000A03E 		.word	1050673152
 950 0b40 5055053F 		.word	1057314128
 951 0b44 0000A03E 		.word	1050673152
 952 0b48 5055053F 		.word	1057314128
 953 0b4c 0000A03E 		.word	1050673152
 954 0b50 0000103F 		.word	1058013184
 955 0b54 0000A03E 		.word	1050673152
 956 0b58 0000103F 		.word	1058013184
 957 0b5c 0000A03E 		.word	1050673152
 958 0b60 B0AA1A3F 		.word	1058712240
 959 0b64 0000A03E 		.word	1050673152
 960 0b68 B0AA1A3F 		.word	1058712240
 961 0b6c 0000A03E 		.word	1050673152
 962 0b70 5055253F 		.word	1059411280
 963 0b74 0000A03E 		.word	1050673152
 964 0b78 5055253F 		.word	1059411280
 965 0b7c 0000A03E 		.word	1050673152
 966 0b80 0000303F 		.word	1060110336
 967 0b84 0000A03E 		.word	1050673152
 968 0b88 0000303F 		.word	1060110336
 969 0b8c 0000A03E 		.word	1050673152
 970 0b90 B0AA3A3F 		.word	1060809392
 971 0b94 0000A03E 		.word	1050673152
 972 0b98 B0AA3A3F 		.word	1060809392
 973 0b9c 0000A03E 		.word	1050673152
 974 0ba0 5055453F 		.word	1061508432
 975 0ba4 0000A03E 		.word	1050673152
 976 0ba8 5055453F 		.word	1061508432
 977 0bac 0000A03E 		.word	1050673152
 978 0bb0 0000503F 		.word	1062207488
 979 0bb4 0000A03E 		.word	1050673152
 980 0bb8 0000503F 		.word	1062207488
 981 0bbc 0000A03E 		.word	1050673152
 982 0bc0 B0AA5A3F 		.word	1062906544
 983 0bc4 0000A03E 		.word	1050673152
 984 0bc8 B0AA5A3F 		.word	1062906544
 985 0bcc 0000A03E 		.word	1050673152
 986 0bd0 5055653F 		.word	1063605584
 987 0bd4 0000A03E 		.word	1050673152
 988 0bd8 5055653F 		.word	1063605584
 989 0bdc 0000A03E 		.word	1050673152
 990 0be0 0000703F 		.word	1064304640
ARM GAS  C:\Users\DJESSOU\AppData\Local\Temp\ccMfOXfy.s 			page 20


 991 0be4 0000A03E 		.word	1050673152
 992 0be8 0000703F 		.word	1064304640
 993 0bec 0000A03E 		.word	1050673152
 994 0bf0 B0AA7A3F 		.word	1065003696
 995 0bf4 0000A03E 		.word	1050673152
 996 0bf8 B0AA7A3F 		.word	1065003696
 997 0bfc 0000A03E 		.word	1050673152
 998 0c00 F8A9AA3C 		.word	1017817592
 999 0c04 6155B53E 		.word	1052071265
 1000 0c08 F8A9AA3C 		.word	1017817592
 1001 0c0c 6155B53E 		.word	1052071265
 1002 0c10 0000803D 		.word	1031798784
 1003 0c14 6155B53E 		.word	1052071265
 1004 0c18 0000803D 		.word	1031798784
 1005 0c1c 6155B53E 		.word	1052071265
 1006 0c20 8255D53D 		.word	1037391234
 1007 0c24 6155B53E 		.word	1052071265
 1008 0c28 8255D53D 		.word	1037391234
 1009 0c2c 6155B53E 		.word	1052071265
 1010 0c30 3F55153E 		.word	1041585471
 1011 0c34 6155B53E 		.word	1052071265
 1012 0c38 3F55153E 		.word	1041585471
 1013 0c3c 6155B53E 		.word	1052071265
 1014 0c40 0000403E 		.word	1044381696
 1015 0c44 6155B53E 		.word	1052071265
 1016 0c48 0000403E 		.word	1044381696
 1017 0c4c 6155B53E 		.word	1052071265
 1018 0c50 C1AA6A3E 		.word	1047177921
 1019 0c54 6155B53E 		.word	1052071265
 1020 0c58 C1AA6A3E 		.word	1047177921
 1021 0c5c 6155B53E 		.word	1052071265
 1022 0c60 9FAA8A3E 		.word	1049275039
 1023 0c64 6155B53E 		.word	1052071265
 1024 0c68 9FAA8A3E 		.word	1049275039
 1025 0c6c 6155B53E 		.word	1052071265
 1026 0c70 0000A03E 		.word	1050673152
 1027 0c74 6155B53E 		.word	1052071265
 1028 0c78 0000A03E 		.word	1050673152
 1029 0c7c 6155B53E 		.word	1052071265
 1030 0c80 6155B53E 		.word	1052071265
 1031 0c84 6155B53E 		.word	1052071265
 1032 0c88 6155B53E 		.word	1052071265
 1033 0c8c 6155B53E 		.word	1052071265
 1034 0c90 9FAACA3E 		.word	1053469343
 1035 0c94 6155B53E 		.word	1052071265
 1036 0c98 9FAACA3E 		.word	1053469343
 1037 0c9c 6155B53E 		.word	1052071265
 1038 0ca0 0000E03E 		.word	1054867456
 1039 0ca4 6155B53E 		.word	1052071265
 1040 0ca8 0000E03E 		.word	1054867456
 1041 0cac 6155B53E 		.word	1052071265
 1042 0cb0 6155F53E 		.word	1056265569
 1043 0cb4 6155B53E 		.word	1052071265
 1044 0cb8 6155F53E 		.word	1056265569
 1045 0cbc 6155B53E 		.word	1052071265
 1046 0cc0 5055053F 		.word	1057314128
 1047 0cc4 6155B53E 		.word	1052071265
ARM GAS  C:\Users\DJESSOU\AppData\Local\Temp\ccMfOXfy.s 			page 21


 1048 0cc8 5055053F 		.word	1057314128
 1049 0ccc 6155B53E 		.word	1052071265
 1050 0cd0 0000103F 		.word	1058013184
 1051 0cd4 6155B53E 		.word	1052071265
 1052 0cd8 0000103F 		.word	1058013184
 1053 0cdc 6155B53E 		.word	1052071265
 1054 0ce0 B0AA1A3F 		.word	1058712240
 1055 0ce4 6155B53E 		.word	1052071265
 1056 0ce8 B0AA1A3F 		.word	1058712240
 1057 0cec 6155B53E 		.word	1052071265
 1058 0cf0 5055253F 		.word	1059411280
 1059 0cf4 6155B53E 		.word	1052071265
 1060 0cf8 5055253F 		.word	1059411280
 1061 0cfc 6155B53E 		.word	1052071265
 1062 0d00 0000303F 		.word	1060110336
 1063 0d04 6155B53E 		.word	1052071265
 1064 0d08 0000303F 		.word	1060110336
 1065 0d0c 6155B53E 		.word	1052071265
 1066 0d10 B0AA3A3F 		.word	1060809392
 1067 0d14 6155B53E 		.word	1052071265
 1068 0d18 B0AA3A3F 		.word	1060809392
 1069 0d1c 6155B53E 		.word	1052071265
 1070 0d20 5055453F 		.word	1061508432
 1071 0d24 6155B53E 		.word	1052071265
 1072 0d28 5055453F 		.word	1061508432
 1073 0d2c 6155B53E 		.word	1052071265
 1074 0d30 0000503F 		.word	1062207488
 1075 0d34 6155B53E 		.word	1052071265
 1076 0d38 0000503F 		.word	1062207488
 1077 0d3c 6155B53E 		.word	1052071265
 1078 0d40 B0AA5A3F 		.word	1062906544
 1079 0d44 6155B53E 		.word	1052071265
 1080 0d48 B0AA5A3F 		.word	1062906544
 1081 0d4c 6155B53E 		.word	1052071265
 1082 0d50 5055653F 		.word	1063605584
 1083 0d54 6155B53E 		.word	1052071265
 1084 0d58 5055653F 		.word	1063605584
 1085 0d5c 6155B53E 		.word	1052071265
 1086 0d60 0000703F 		.word	1064304640
 1087 0d64 6155B53E 		.word	1052071265
 1088 0d68 0000703F 		.word	1064304640
 1089 0d6c 6155B53E 		.word	1052071265
 1090 0d70 B0AA7A3F 		.word	1065003696
 1091 0d74 6155B53E 		.word	1052071265
 1092 0d78 B0AA7A3F 		.word	1065003696
 1093 0d7c 6155B53E 		.word	1052071265
 1094 0d80 F8A9AA3C 		.word	1017817592
 1095 0d84 9FAACA3E 		.word	1053469343
 1096 0d88 F8A9AA3C 		.word	1017817592
 1097 0d8c 9FAACA3E 		.word	1053469343
 1098 0d90 0000803D 		.word	1031798784
 1099 0d94 9FAACA3E 		.word	1053469343
 1100 0d98 0000803D 		.word	1031798784
 1101 0d9c 9FAACA3E 		.word	1053469343
 1102 0da0 8255D53D 		.word	1037391234
 1103 0da4 9FAACA3E 		.word	1053469343
 1104 0da8 8255D53D 		.word	1037391234
ARM GAS  C:\Users\DJESSOU\AppData\Local\Temp\ccMfOXfy.s 			page 22


 1105 0dac 9FAACA3E 		.word	1053469343
 1106 0db0 3F55153E 		.word	1041585471
 1107 0db4 9FAACA3E 		.word	1053469343
 1108 0db8 3F55153E 		.word	1041585471
 1109 0dbc 9FAACA3E 		.word	1053469343
 1110 0dc0 0000403E 		.word	1044381696
 1111 0dc4 9FAACA3E 		.word	1053469343
 1112 0dc8 0000403E 		.word	1044381696
 1113 0dcc 9FAACA3E 		.word	1053469343
 1114 0dd0 C1AA6A3E 		.word	1047177921
 1115 0dd4 9FAACA3E 		.word	1053469343
 1116 0dd8 C1AA6A3E 		.word	1047177921
 1117 0ddc 9FAACA3E 		.word	1053469343
 1118 0de0 9FAA8A3E 		.word	1049275039
 1119 0de4 9FAACA3E 		.word	1053469343
 1120 0de8 9FAA8A3E 		.word	1049275039
 1121 0dec 9FAACA3E 		.word	1053469343
 1122 0df0 0000A03E 		.word	1050673152
 1123 0df4 9FAACA3E 		.word	1053469343
 1124 0df8 0000A03E 		.word	1050673152
 1125 0dfc 9FAACA3E 		.word	1053469343
 1126 0e00 6155B53E 		.word	1052071265
 1127 0e04 9FAACA3E 		.word	1053469343
 1128 0e08 6155B53E 		.word	1052071265
 1129 0e0c 9FAACA3E 		.word	1053469343
 1130 0e10 9FAACA3E 		.word	1053469343
 1131 0e14 9FAACA3E 		.word	1053469343
 1132 0e18 9FAACA3E 		.word	1053469343
 1133 0e1c 9FAACA3E 		.word	1053469343
 1134 0e20 0000E03E 		.word	1054867456
 1135 0e24 9FAACA3E 		.word	1053469343
 1136 0e28 0000E03E 		.word	1054867456
 1137 0e2c 9FAACA3E 		.word	1053469343
 1138 0e30 6155F53E 		.word	1056265569
 1139 0e34 9FAACA3E 		.word	1053469343
 1140 0e38 6155F53E 		.word	1056265569
 1141 0e3c 9FAACA3E 		.word	1053469343
 1142 0e40 5055053F 		.word	1057314128
 1143 0e44 9FAACA3E 		.word	1053469343
 1144 0e48 5055053F 		.word	1057314128
 1145 0e4c 9FAACA3E 		.word	1053469343
 1146 0e50 0000103F 		.word	1058013184
 1147 0e54 9FAACA3E 		.word	1053469343
 1148 0e58 0000103F 		.word	1058013184
 1149 0e5c 9FAACA3E 		.word	1053469343
 1150 0e60 B0AA1A3F 		.word	1058712240
 1151 0e64 9FAACA3E 		.word	1053469343
 1152 0e68 B0AA1A3F 		.word	1058712240
 1153 0e6c 9FAACA3E 		.word	1053469343
 1154 0e70 5055253F 		.word	1059411280
 1155 0e74 9FAACA3E 		.word	1053469343
 1156 0e78 5055253F 		.word	1059411280
 1157 0e7c 9FAACA3E 		.word	1053469343
 1158 0e80 0000303F 		.word	1060110336
 1159 0e84 9FAACA3E 		.word	1053469343
 1160 0e88 0000303F 		.word	1060110336
 1161 0e8c 9FAACA3E 		.word	1053469343
ARM GAS  C:\Users\DJESSOU\AppData\Local\Temp\ccMfOXfy.s 			page 23


 1162 0e90 B0AA3A3F 		.word	1060809392
 1163 0e94 9FAACA3E 		.word	1053469343
 1164 0e98 B0AA3A3F 		.word	1060809392
 1165 0e9c 9FAACA3E 		.word	1053469343
 1166 0ea0 5055453F 		.word	1061508432
 1167 0ea4 9FAACA3E 		.word	1053469343
 1168 0ea8 5055453F 		.word	1061508432
 1169 0eac 9FAACA3E 		.word	1053469343
 1170 0eb0 0000503F 		.word	1062207488
 1171 0eb4 9FAACA3E 		.word	1053469343
 1172 0eb8 0000503F 		.word	1062207488
 1173 0ebc 9FAACA3E 		.word	1053469343
 1174 0ec0 B0AA5A3F 		.word	1062906544
 1175 0ec4 9FAACA3E 		.word	1053469343
 1176 0ec8 B0AA5A3F 		.word	1062906544
 1177 0ecc 9FAACA3E 		.word	1053469343
 1178 0ed0 5055653F 		.word	1063605584
 1179 0ed4 9FAACA3E 		.word	1053469343
 1180 0ed8 5055653F 		.word	1063605584
 1181 0edc 9FAACA3E 		.word	1053469343
 1182 0ee0 0000703F 		.word	1064304640
 1183 0ee4 9FAACA3E 		.word	1053469343
 1184 0ee8 0000703F 		.word	1064304640
 1185 0eec 9FAACA3E 		.word	1053469343
 1186 0ef0 B0AA7A3F 		.word	1065003696
 1187 0ef4 9FAACA3E 		.word	1053469343
 1188 0ef8 B0AA7A3F 		.word	1065003696
 1189 0efc 9FAACA3E 		.word	1053469343
 1190 0f00 F8A9AA3C 		.word	1017817592
 1191 0f04 0000E03E 		.word	1054867456
 1192 0f08 F8A9AA3C 		.word	1017817592
 1193 0f0c 0000E03E 		.word	1054867456
 1194 0f10 0000803D 		.word	1031798784
 1195 0f14 0000E03E 		.word	1054867456
 1196 0f18 0000803D 		.word	1031798784
 1197 0f1c 0000E03E 		.word	1054867456
 1198 0f20 8255D53D 		.word	1037391234
 1199 0f24 0000E03E 		.word	1054867456
 1200 0f28 8255D53D 		.word	1037391234
 1201 0f2c 0000E03E 		.word	1054867456
 1202 0f30 3F55153E 		.word	1041585471
 1203 0f34 0000E03E 		.word	1054867456
 1204 0f38 3F55153E 		.word	1041585471
 1205 0f3c 0000E03E 		.word	1054867456
 1206 0f40 0000403E 		.word	1044381696
 1207 0f44 0000E03E 		.word	1054867456
 1208 0f48 0000403E 		.word	1044381696
 1209 0f4c 0000E03E 		.word	1054867456
 1210 0f50 C1AA6A3E 		.word	1047177921
 1211 0f54 0000E03E 		.word	1054867456
 1212 0f58 C1AA6A3E 		.word	1047177921
 1213 0f5c 0000E03E 		.word	1054867456
 1214 0f60 9FAA8A3E 		.word	1049275039
 1215 0f64 0000E03E 		.word	1054867456
 1216 0f68 9FAA8A3E 		.word	1049275039
 1217 0f6c 0000E03E 		.word	1054867456
 1218 0f70 0000A03E 		.word	1050673152
ARM GAS  C:\Users\DJESSOU\AppData\Local\Temp\ccMfOXfy.s 			page 24


 1219 0f74 0000E03E 		.word	1054867456
 1220 0f78 0000A03E 		.word	1050673152
 1221 0f7c 0000E03E 		.word	1054867456
 1222 0f80 6155B53E 		.word	1052071265
 1223 0f84 0000E03E 		.word	1054867456
 1224 0f88 6155B53E 		.word	1052071265
 1225 0f8c 0000E03E 		.word	1054867456
 1226 0f90 9FAACA3E 		.word	1053469343
 1227 0f94 0000E03E 		.word	1054867456
 1228 0f98 9FAACA3E 		.word	1053469343
 1229 0f9c 0000E03E 		.word	1054867456
 1230 0fa0 0000E03E 		.word	1054867456
 1231 0fa4 0000E03E 		.word	1054867456
 1232 0fa8 0000E03E 		.word	1054867456
 1233 0fac 0000E03E 		.word	1054867456
 1234 0fb0 6155F53E 		.word	1056265569
 1235 0fb4 0000E03E 		.word	1054867456
 1236 0fb8 6155F53E 		.word	1056265569
 1237 0fbc 0000E03E 		.word	1054867456
 1238 0fc0 5055053F 		.word	1057314128
 1239 0fc4 0000E03E 		.word	1054867456
 1240 0fc8 5055053F 		.word	1057314128
 1241 0fcc 0000E03E 		.word	1054867456
 1242 0fd0 0000103F 		.word	1058013184
 1243 0fd4 0000E03E 		.word	1054867456
 1244 0fd8 0000103F 		.word	1058013184
 1245 0fdc 0000E03E 		.word	1054867456
 1246 0fe0 B0AA1A3F 		.word	1058712240
 1247 0fe4 0000E03E 		.word	1054867456
 1248 0fe8 B0AA1A3F 		.word	1058712240
 1249 0fec 0000E03E 		.word	1054867456
 1250 0ff0 5055253F 		.word	1059411280
 1251 0ff4 0000E03E 		.word	1054867456
 1252 0ff8 5055253F 		.word	1059411280
 1253 0ffc 0000E03E 		.word	1054867456
 1254 1000 0000303F 		.word	1060110336
 1255 1004 0000E03E 		.word	1054867456
 1256 1008 0000303F 		.word	1060110336
 1257 100c 0000E03E 		.word	1054867456
 1258 1010 B0AA3A3F 		.word	1060809392
 1259 1014 0000E03E 		.word	1054867456
 1260 1018 B0AA3A3F 		.word	1060809392
 1261 101c 0000E03E 		.word	1054867456
 1262 1020 5055453F 		.word	1061508432
 1263 1024 0000E03E 		.word	1054867456
 1264 1028 5055453F 		.word	1061508432
 1265 102c 0000E03E 		.word	1054867456
 1266 1030 0000503F 		.word	1062207488
 1267 1034 0000E03E 		.word	1054867456
 1268 1038 0000503F 		.word	1062207488
 1269 103c 0000E03E 		.word	1054867456
 1270 1040 B0AA5A3F 		.word	1062906544
 1271 1044 0000E03E 		.word	1054867456
 1272 1048 B0AA5A3F 		.word	1062906544
 1273 104c 0000E03E 		.word	1054867456
 1274 1050 5055653F 		.word	1063605584
 1275 1054 0000E03E 		.word	1054867456
ARM GAS  C:\Users\DJESSOU\AppData\Local\Temp\ccMfOXfy.s 			page 25


 1276 1058 5055653F 		.word	1063605584
 1277 105c 0000E03E 		.word	1054867456
 1278 1060 0000703F 		.word	1064304640
 1279 1064 0000E03E 		.word	1054867456
 1280 1068 0000703F 		.word	1064304640
 1281 106c 0000E03E 		.word	1054867456
 1282 1070 B0AA7A3F 		.word	1065003696
 1283 1074 0000E03E 		.word	1054867456
 1284 1078 B0AA7A3F 		.word	1065003696
 1285 107c 0000E03E 		.word	1054867456
 1286 1080 F8A9AA3C 		.word	1017817592
 1287 1084 6155F53E 		.word	1056265569
 1288 1088 F8A9AA3C 		.word	1017817592
 1289 108c 6155F53E 		.word	1056265569
 1290 1090 0000803D 		.word	1031798784
 1291 1094 6155F53E 		.word	1056265569
 1292 1098 0000803D 		.word	1031798784
 1293 109c 6155F53E 		.word	1056265569
 1294 10a0 8255D53D 		.word	1037391234
 1295 10a4 6155F53E 		.word	1056265569
 1296 10a8 8255D53D 		.word	1037391234
 1297 10ac 6155F53E 		.word	1056265569
 1298 10b0 3F55153E 		.word	1041585471
 1299 10b4 6155F53E 		.word	1056265569
 1300 10b8 3F55153E 		.word	1041585471
 1301 10bc 6155F53E 		.word	1056265569
 1302 10c0 0000403E 		.word	1044381696
 1303 10c4 6155F53E 		.word	1056265569
 1304 10c8 0000403E 		.word	1044381696
 1305 10cc 6155F53E 		.word	1056265569
 1306 10d0 C1AA6A3E 		.word	1047177921
 1307 10d4 6155F53E 		.word	1056265569
 1308 10d8 C1AA6A3E 		.word	1047177921
 1309 10dc 6155F53E 		.word	1056265569
 1310 10e0 9FAA8A3E 		.word	1049275039
 1311 10e4 6155F53E 		.word	1056265569
 1312 10e8 9FAA8A3E 		.word	1049275039
 1313 10ec 6155F53E 		.word	1056265569
 1314 10f0 0000A03E 		.word	1050673152
 1315 10f4 6155F53E 		.word	1056265569
 1316 10f8 0000A03E 		.word	1050673152
 1317 10fc 6155F53E 		.word	1056265569
 1318 1100 6155B53E 		.word	1052071265
 1319 1104 6155F53E 		.word	1056265569
 1320 1108 6155B53E 		.word	1052071265
 1321 110c 6155F53E 		.word	1056265569
 1322 1110 9FAACA3E 		.word	1053469343
 1323 1114 6155F53E 		.word	1056265569
 1324 1118 9FAACA3E 		.word	1053469343
 1325 111c 6155F53E 		.word	1056265569
 1326 1120 0000E03E 		.word	1054867456
 1327 1124 6155F53E 		.word	1056265569
 1328 1128 0000E03E 		.word	1054867456
 1329 112c 6155F53E 		.word	1056265569
 1330 1130 6155F53E 		.word	1056265569
 1331 1134 6155F53E 		.word	1056265569
 1332 1138 6155F53E 		.word	1056265569
ARM GAS  C:\Users\DJESSOU\AppData\Local\Temp\ccMfOXfy.s 			page 26


 1333 113c 6155F53E 		.word	1056265569
 1334 1140 5055053F 		.word	1057314128
 1335 1144 6155F53E 		.word	1056265569
 1336 1148 5055053F 		.word	1057314128
 1337 114c 6155F53E 		.word	1056265569
 1338 1150 0000103F 		.word	1058013184
 1339 1154 6155F53E 		.word	1056265569
 1340 1158 0000103F 		.word	1058013184
 1341 115c 6155F53E 		.word	1056265569
 1342 1160 B0AA1A3F 		.word	1058712240
 1343 1164 6155F53E 		.word	1056265569
 1344 1168 B0AA1A3F 		.word	1058712240
 1345 116c 6155F53E 		.word	1056265569
 1346 1170 5055253F 		.word	1059411280
 1347 1174 6155F53E 		.word	1056265569
 1348 1178 5055253F 		.word	1059411280
 1349 117c 6155F53E 		.word	1056265569
 1350 1180 0000303F 		.word	1060110336
 1351 1184 6155F53E 		.word	1056265569
 1352 1188 0000303F 		.word	1060110336
 1353 118c 6155F53E 		.word	1056265569
 1354 1190 B0AA3A3F 		.word	1060809392
 1355 1194 6155F53E 		.word	1056265569
 1356 1198 B0AA3A3F 		.word	1060809392
 1357 119c 6155F53E 		.word	1056265569
 1358 11a0 5055453F 		.word	1061508432
 1359 11a4 6155F53E 		.word	1056265569
 1360 11a8 5055453F 		.word	1061508432
 1361 11ac 6155F53E 		.word	1056265569
 1362 11b0 0000503F 		.word	1062207488
 1363 11b4 6155F53E 		.word	1056265569
 1364 11b8 0000503F 		.word	1062207488
 1365 11bc 6155F53E 		.word	1056265569
 1366 11c0 B0AA5A3F 		.word	1062906544
 1367 11c4 6155F53E 		.word	1056265569
 1368 11c8 B0AA5A3F 		.word	1062906544
 1369 11cc 6155F53E 		.word	1056265569
 1370 11d0 5055653F 		.word	1063605584
 1371 11d4 6155F53E 		.word	1056265569
 1372 11d8 5055653F 		.word	1063605584
 1373 11dc 6155F53E 		.word	1056265569
 1374 11e0 0000703F 		.word	1064304640
 1375 11e4 6155F53E 		.word	1056265569
 1376 11e8 0000703F 		.word	1064304640
 1377 11ec 6155F53E 		.word	1056265569
 1378 11f0 B0AA7A3F 		.word	1065003696
 1379 11f4 6155F53E 		.word	1056265569
 1380 11f8 B0AA7A3F 		.word	1065003696
 1381 11fc 6155F53E 		.word	1056265569
 1382 1200 F8A9AA3C 		.word	1017817592
 1383 1204 5055053F 		.word	1057314128
 1384 1208 F8A9AA3C 		.word	1017817592
 1385 120c 5055053F 		.word	1057314128
 1386 1210 0000803D 		.word	1031798784
 1387 1214 5055053F 		.word	1057314128
 1388 1218 0000803D 		.word	1031798784
 1389 121c 5055053F 		.word	1057314128
ARM GAS  C:\Users\DJESSOU\AppData\Local\Temp\ccMfOXfy.s 			page 27


 1390 1220 8255D53D 		.word	1037391234
 1391 1224 5055053F 		.word	1057314128
 1392 1228 8255D53D 		.word	1037391234
 1393 122c 5055053F 		.word	1057314128
 1394 1230 3F55153E 		.word	1041585471
 1395 1234 5055053F 		.word	1057314128
 1396 1238 3F55153E 		.word	1041585471
 1397 123c 5055053F 		.word	1057314128
 1398 1240 0000403E 		.word	1044381696
 1399 1244 5055053F 		.word	1057314128
 1400 1248 0000403E 		.word	1044381696
 1401 124c 5055053F 		.word	1057314128
 1402 1250 C1AA6A3E 		.word	1047177921
 1403 1254 5055053F 		.word	1057314128
 1404 1258 C1AA6A3E 		.word	1047177921
 1405 125c 5055053F 		.word	1057314128
 1406 1260 9FAA8A3E 		.word	1049275039
 1407 1264 5055053F 		.word	1057314128
 1408 1268 9FAA8A3E 		.word	1049275039
 1409 126c 5055053F 		.word	1057314128
 1410 1270 0000A03E 		.word	1050673152
 1411 1274 5055053F 		.word	1057314128
 1412 1278 0000A03E 		.word	1050673152
 1413 127c 5055053F 		.word	1057314128
 1414 1280 6155B53E 		.word	1052071265
 1415 1284 5055053F 		.word	1057314128
 1416 1288 6155B53E 		.word	1052071265
 1417 128c 5055053F 		.word	1057314128
 1418 1290 9FAACA3E 		.word	1053469343
 1419 1294 5055053F 		.word	1057314128
 1420 1298 9FAACA3E 		.word	1053469343
 1421 129c 5055053F 		.word	1057314128
 1422 12a0 0000E03E 		.word	1054867456
 1423 12a4 5055053F 		.word	1057314128
 1424 12a8 0000E03E 		.word	1054867456
 1425 12ac 5055053F 		.word	1057314128
 1426 12b0 6155F53E 		.word	1056265569
 1427 12b4 5055053F 		.word	1057314128
 1428 12b8 6155F53E 		.word	1056265569
 1429 12bc 5055053F 		.word	1057314128
 1430 12c0 5055053F 		.word	1057314128
 1431 12c4 5055053F 		.word	1057314128
 1432 12c8 5055053F 		.word	1057314128
 1433 12cc 5055053F 		.word	1057314128
 1434 12d0 0000103F 		.word	1058013184
 1435 12d4 5055053F 		.word	1057314128
 1436 12d8 0000103F 		.word	1058013184
 1437 12dc 5055053F 		.word	1057314128
 1438 12e0 B0AA1A3F 		.word	1058712240
 1439 12e4 5055053F 		.word	1057314128
 1440 12e8 B0AA1A3F 		.word	1058712240
 1441 12ec 5055053F 		.word	1057314128
 1442 12f0 5055253F 		.word	1059411280
 1443 12f4 5055053F 		.word	1057314128
 1444 12f8 5055253F 		.word	1059411280
 1445 12fc 5055053F 		.word	1057314128
 1446 1300 0000303F 		.word	1060110336
ARM GAS  C:\Users\DJESSOU\AppData\Local\Temp\ccMfOXfy.s 			page 28


 1447 1304 5055053F 		.word	1057314128
 1448 1308 0000303F 		.word	1060110336
 1449 130c 5055053F 		.word	1057314128
 1450 1310 B0AA3A3F 		.word	1060809392
 1451 1314 5055053F 		.word	1057314128
 1452 1318 B0AA3A3F 		.word	1060809392
 1453 131c 5055053F 		.word	1057314128
 1454 1320 5055453F 		.word	1061508432
 1455 1324 5055053F 		.word	1057314128
 1456 1328 5055453F 		.word	1061508432
 1457 132c 5055053F 		.word	1057314128
 1458 1330 0000503F 		.word	1062207488
 1459 1334 5055053F 		.word	1057314128
 1460 1338 0000503F 		.word	1062207488
 1461 133c 5055053F 		.word	1057314128
 1462 1340 B0AA5A3F 		.word	1062906544
 1463 1344 5055053F 		.word	1057314128
 1464 1348 B0AA5A3F 		.word	1062906544
 1465 134c 5055053F 		.word	1057314128
 1466 1350 5055653F 		.word	1063605584
 1467 1354 5055053F 		.word	1057314128
 1468 1358 5055653F 		.word	1063605584
 1469 135c 5055053F 		.word	1057314128
 1470 1360 0000703F 		.word	1064304640
 1471 1364 5055053F 		.word	1057314128
 1472 1368 0000703F 		.word	1064304640
 1473 136c 5055053F 		.word	1057314128
 1474 1370 B0AA7A3F 		.word	1065003696
 1475 1374 5055053F 		.word	1057314128
 1476 1378 B0AA7A3F 		.word	1065003696
 1477 137c 5055053F 		.word	1057314128
 1478 1380 F8A9AA3C 		.word	1017817592
 1479 1384 0000103F 		.word	1058013184
 1480 1388 F8A9AA3C 		.word	1017817592
 1481 138c 0000103F 		.word	1058013184
 1482 1390 0000803D 		.word	1031798784
 1483 1394 0000103F 		.word	1058013184
 1484 1398 0000803D 		.word	1031798784
 1485 139c 0000103F 		.word	1058013184
 1486 13a0 8255D53D 		.word	1037391234
 1487 13a4 0000103F 		.word	1058013184
 1488 13a8 8255D53D 		.word	1037391234
 1489 13ac 0000103F 		.word	1058013184
 1490 13b0 3F55153E 		.word	1041585471
 1491 13b4 0000103F 		.word	1058013184
 1492 13b8 3F55153E 		.word	1041585471
 1493 13bc 0000103F 		.word	1058013184
 1494 13c0 0000403E 		.word	1044381696
 1495 13c4 0000103F 		.word	1058013184
 1496 13c8 0000403E 		.word	1044381696
 1497 13cc 0000103F 		.word	1058013184
 1498 13d0 C1AA6A3E 		.word	1047177921
 1499 13d4 0000103F 		.word	1058013184
 1500 13d8 C1AA6A3E 		.word	1047177921
 1501 13dc 0000103F 		.word	1058013184
 1502 13e0 9FAA8A3E 		.word	1049275039
 1503 13e4 0000103F 		.word	1058013184
ARM GAS  C:\Users\DJESSOU\AppData\Local\Temp\ccMfOXfy.s 			page 29


 1504 13e8 9FAA8A3E 		.word	1049275039
 1505 13ec 0000103F 		.word	1058013184
 1506 13f0 0000A03E 		.word	1050673152
 1507 13f4 0000103F 		.word	1058013184
 1508 13f8 0000A03E 		.word	1050673152
 1509 13fc 0000103F 		.word	1058013184
 1510 1400 6155B53E 		.word	1052071265
 1511 1404 0000103F 		.word	1058013184
 1512 1408 6155B53E 		.word	1052071265
 1513 140c 0000103F 		.word	1058013184
 1514 1410 9FAACA3E 		.word	1053469343
 1515 1414 0000103F 		.word	1058013184
 1516 1418 9FAACA3E 		.word	1053469343
 1517 141c 0000103F 		.word	1058013184
 1518 1420 0000E03E 		.word	1054867456
 1519 1424 0000103F 		.word	1058013184
 1520 1428 0000E03E 		.word	1054867456
 1521 142c 0000103F 		.word	1058013184
 1522 1430 6155F53E 		.word	1056265569
 1523 1434 0000103F 		.word	1058013184
 1524 1438 6155F53E 		.word	1056265569
 1525 143c 0000103F 		.word	1058013184
 1526 1440 5055053F 		.word	1057314128
 1527 1444 0000103F 		.word	1058013184
 1528 1448 5055053F 		.word	1057314128
 1529 144c 0000103F 		.word	1058013184
 1530 1450 0000103F 		.word	1058013184
 1531 1454 0000103F 		.word	1058013184
 1532 1458 0000103F 		.word	1058013184
 1533 145c 0000103F 		.word	1058013184
 1534 1460 B0AA1A3F 		.word	1058712240
 1535 1464 0000103F 		.word	1058013184
 1536 1468 B0AA1A3F 		.word	1058712240
 1537 146c 0000103F 		.word	1058013184
 1538 1470 5055253F 		.word	1059411280
 1539 1474 0000103F 		.word	1058013184
 1540 1478 5055253F 		.word	1059411280
 1541 147c 0000103F 		.word	1058013184
 1542 1480 0000303F 		.word	1060110336
 1543 1484 0000103F 		.word	1058013184
 1544 1488 0000303F 		.word	1060110336
 1545 148c 0000103F 		.word	1058013184
 1546 1490 B0AA3A3F 		.word	1060809392
 1547 1494 0000103F 		.word	1058013184
 1548 1498 B0AA3A3F 		.word	1060809392
 1549 149c 0000103F 		.word	1058013184
 1550 14a0 5055453F 		.word	1061508432
 1551 14a4 0000103F 		.word	1058013184
 1552 14a8 5055453F 		.word	1061508432
 1553 14ac 0000103F 		.word	1058013184
 1554 14b0 0000503F 		.word	1062207488
 1555 14b4 0000103F 		.word	1058013184
 1556 14b8 0000503F 		.word	1062207488
 1557 14bc 0000103F 		.word	1058013184
 1558 14c0 B0AA5A3F 		.word	1062906544
 1559 14c4 0000103F 		.word	1058013184
 1560 14c8 B0AA5A3F 		.word	1062906544
ARM GAS  C:\Users\DJESSOU\AppData\Local\Temp\ccMfOXfy.s 			page 30


 1561 14cc 0000103F 		.word	1058013184
 1562 14d0 5055653F 		.word	1063605584
 1563 14d4 0000103F 		.word	1058013184
 1564 14d8 5055653F 		.word	1063605584
 1565 14dc 0000103F 		.word	1058013184
 1566 14e0 0000703F 		.word	1064304640
 1567 14e4 0000103F 		.word	1058013184
 1568 14e8 0000703F 		.word	1064304640
 1569 14ec 0000103F 		.word	1058013184
 1570 14f0 B0AA7A3F 		.word	1065003696
 1571 14f4 0000103F 		.word	1058013184
 1572 14f8 B0AA7A3F 		.word	1065003696
 1573 14fc 0000103F 		.word	1058013184
 1574 1500 F8A9AA3C 		.word	1017817592
 1575 1504 B0AA1A3F 		.word	1058712240
 1576 1508 F8A9AA3C 		.word	1017817592
 1577 150c B0AA1A3F 		.word	1058712240
 1578 1510 0000803D 		.word	1031798784
 1579 1514 B0AA1A3F 		.word	1058712240
 1580 1518 0000803D 		.word	1031798784
 1581 151c B0AA1A3F 		.word	1058712240
 1582 1520 8255D53D 		.word	1037391234
 1583 1524 B0AA1A3F 		.word	1058712240
 1584 1528 8255D53D 		.word	1037391234
 1585 152c B0AA1A3F 		.word	1058712240
 1586 1530 3F55153E 		.word	1041585471
 1587 1534 B0AA1A3F 		.word	1058712240
 1588 1538 3F55153E 		.word	1041585471
 1589 153c B0AA1A3F 		.word	1058712240
 1590 1540 0000403E 		.word	1044381696
 1591 1544 B0AA1A3F 		.word	1058712240
 1592 1548 0000403E 		.word	1044381696
 1593 154c B0AA1A3F 		.word	1058712240
 1594 1550 C1AA6A3E 		.word	1047177921
 1595 1554 B0AA1A3F 		.word	1058712240
 1596 1558 C1AA6A3E 		.word	1047177921
 1597 155c B0AA1A3F 		.word	1058712240
 1598 1560 9FAA8A3E 		.word	1049275039
 1599 1564 B0AA1A3F 		.word	1058712240
 1600 1568 9FAA8A3E 		.word	1049275039
 1601 156c B0AA1A3F 		.word	1058712240
 1602 1570 0000A03E 		.word	1050673152
 1603 1574 B0AA1A3F 		.word	1058712240
 1604 1578 0000A03E 		.word	1050673152
 1605 157c B0AA1A3F 		.word	1058712240
 1606 1580 6155B53E 		.word	1052071265
 1607 1584 B0AA1A3F 		.word	1058712240
 1608 1588 6155B53E 		.word	1052071265
 1609 158c B0AA1A3F 		.word	1058712240
 1610 1590 9FAACA3E 		.word	1053469343
 1611 1594 B0AA1A3F 		.word	1058712240
 1612 1598 9FAACA3E 		.word	1053469343
 1613 159c B0AA1A3F 		.word	1058712240
 1614 15a0 0000E03E 		.word	1054867456
 1615 15a4 B0AA1A3F 		.word	1058712240
 1616 15a8 0000E03E 		.word	1054867456
 1617 15ac B0AA1A3F 		.word	1058712240
ARM GAS  C:\Users\DJESSOU\AppData\Local\Temp\ccMfOXfy.s 			page 31


 1618 15b0 6155F53E 		.word	1056265569
 1619 15b4 B0AA1A3F 		.word	1058712240
 1620 15b8 6155F53E 		.word	1056265569
 1621 15bc B0AA1A3F 		.word	1058712240
 1622 15c0 5055053F 		.word	1057314128
 1623 15c4 B0AA1A3F 		.word	1058712240
 1624 15c8 5055053F 		.word	1057314128
 1625 15cc B0AA1A3F 		.word	1058712240
 1626 15d0 0000103F 		.word	1058013184
 1627 15d4 B0AA1A3F 		.word	1058712240
 1628 15d8 0000103F 		.word	1058013184
 1629 15dc B0AA1A3F 		.word	1058712240
 1630 15e0 B0AA1A3F 		.word	1058712240
 1631 15e4 B0AA1A3F 		.word	1058712240
 1632 15e8 B0AA1A3F 		.word	1058712240
 1633 15ec B0AA1A3F 		.word	1058712240
 1634 15f0 5055253F 		.word	1059411280
 1635 15f4 B0AA1A3F 		.word	1058712240
 1636 15f8 5055253F 		.word	1059411280
 1637 15fc B0AA1A3F 		.word	1058712240
 1638 1600 0000303F 		.word	1060110336
 1639 1604 B0AA1A3F 		.word	1058712240
 1640 1608 0000303F 		.word	1060110336
 1641 160c B0AA1A3F 		.word	1058712240
 1642 1610 B0AA3A3F 		.word	1060809392
 1643 1614 B0AA1A3F 		.word	1058712240
 1644 1618 B0AA3A3F 		.word	1060809392
 1645 161c B0AA1A3F 		.word	1058712240
 1646 1620 5055453F 		.word	1061508432
 1647 1624 B0AA1A3F 		.word	1058712240
 1648 1628 5055453F 		.word	1061508432
 1649 162c B0AA1A3F 		.word	1058712240
 1650 1630 0000503F 		.word	1062207488
 1651 1634 B0AA1A3F 		.word	1058712240
 1652 1638 0000503F 		.word	1062207488
 1653 163c B0AA1A3F 		.word	1058712240
 1654 1640 B0AA5A3F 		.word	1062906544
 1655 1644 B0AA1A3F 		.word	1058712240
 1656 1648 B0AA5A3F 		.word	1062906544
 1657 164c B0AA1A3F 		.word	1058712240
 1658 1650 5055653F 		.word	1063605584
 1659 1654 B0AA1A3F 		.word	1058712240
 1660 1658 5055653F 		.word	1063605584
 1661 165c B0AA1A3F 		.word	1058712240
 1662 1660 0000703F 		.word	1064304640
 1663 1664 B0AA1A3F 		.word	1058712240
 1664 1668 0000703F 		.word	1064304640
 1665 166c B0AA1A3F 		.word	1058712240
 1666 1670 B0AA7A3F 		.word	1065003696
 1667 1674 B0AA1A3F 		.word	1058712240
 1668 1678 B0AA7A3F 		.word	1065003696
 1669 167c B0AA1A3F 		.word	1058712240
 1670 1680 F8A9AA3C 		.word	1017817592
 1671 1684 5055253F 		.word	1059411280
 1672 1688 F8A9AA3C 		.word	1017817592
 1673 168c 5055253F 		.word	1059411280
 1674 1690 0000803D 		.word	1031798784
ARM GAS  C:\Users\DJESSOU\AppData\Local\Temp\ccMfOXfy.s 			page 32


 1675 1694 5055253F 		.word	1059411280
 1676 1698 0000803D 		.word	1031798784
 1677 169c 5055253F 		.word	1059411280
 1678 16a0 8255D53D 		.word	1037391234
 1679 16a4 5055253F 		.word	1059411280
 1680 16a8 8255D53D 		.word	1037391234
 1681 16ac 5055253F 		.word	1059411280
 1682 16b0 3F55153E 		.word	1041585471
 1683 16b4 5055253F 		.word	1059411280
 1684 16b8 3F55153E 		.word	1041585471
 1685 16bc 5055253F 		.word	1059411280
 1686 16c0 0000403E 		.word	1044381696
 1687 16c4 5055253F 		.word	1059411280
 1688 16c8 0000403E 		.word	1044381696
 1689 16cc 5055253F 		.word	1059411280
 1690 16d0 C1AA6A3E 		.word	1047177921
 1691 16d4 5055253F 		.word	1059411280
 1692 16d8 C1AA6A3E 		.word	1047177921
 1693 16dc 5055253F 		.word	1059411280
 1694 16e0 9FAA8A3E 		.word	1049275039
 1695 16e4 5055253F 		.word	1059411280
 1696 16e8 9FAA8A3E 		.word	1049275039
 1697 16ec 5055253F 		.word	1059411280
 1698 16f0 0000A03E 		.word	1050673152
 1699 16f4 5055253F 		.word	1059411280
 1700 16f8 0000A03E 		.word	1050673152
 1701 16fc 5055253F 		.word	1059411280
 1702 1700 6155B53E 		.word	1052071265
 1703 1704 5055253F 		.word	1059411280
 1704 1708 6155B53E 		.word	1052071265
 1705 170c 5055253F 		.word	1059411280
 1706 1710 9FAACA3E 		.word	1053469343
 1707 1714 5055253F 		.word	1059411280
 1708 1718 9FAACA3E 		.word	1053469343
 1709 171c 5055253F 		.word	1059411280
 1710 1720 0000E03E 		.word	1054867456
 1711 1724 5055253F 		.word	1059411280
 1712 1728 0000E03E 		.word	1054867456
 1713 172c 5055253F 		.word	1059411280
 1714 1730 6155F53E 		.word	1056265569
 1715 1734 5055253F 		.word	1059411280
 1716 1738 6155F53E 		.word	1056265569
 1717 173c 5055253F 		.word	1059411280
 1718 1740 5055053F 		.word	1057314128
 1719 1744 5055253F 		.word	1059411280
 1720 1748 5055053F 		.word	1057314128
 1721 174c 5055253F 		.word	1059411280
 1722 1750 0000103F 		.word	1058013184
 1723 1754 5055253F 		.word	1059411280
 1724 1758 0000103F 		.word	1058013184
 1725 175c 5055253F 		.word	1059411280
 1726 1760 B0AA1A3F 		.word	1058712240
 1727 1764 5055253F 		.word	1059411280
 1728 1768 B0AA1A3F 		.word	1058712240
 1729 176c 5055253F 		.word	1059411280
 1730 1770 5055253F 		.word	1059411280
 1731 1774 5055253F 		.word	1059411280
ARM GAS  C:\Users\DJESSOU\AppData\Local\Temp\ccMfOXfy.s 			page 33


 1732 1778 5055253F 		.word	1059411280
 1733 177c 5055253F 		.word	1059411280
 1734 1780 0000303F 		.word	1060110336
 1735 1784 5055253F 		.word	1059411280
 1736 1788 0000303F 		.word	1060110336
 1737 178c 5055253F 		.word	1059411280
 1738 1790 B0AA3A3F 		.word	1060809392
 1739 1794 5055253F 		.word	1059411280
 1740 1798 B0AA3A3F 		.word	1060809392
 1741 179c 5055253F 		.word	1059411280
 1742 17a0 5055453F 		.word	1061508432
 1743 17a4 5055253F 		.word	1059411280
 1744 17a8 5055453F 		.word	1061508432
 1745 17ac 5055253F 		.word	1059411280
 1746 17b0 0000503F 		.word	1062207488
 1747 17b4 5055253F 		.word	1059411280
 1748 17b8 0000503F 		.word	1062207488
 1749 17bc 5055253F 		.word	1059411280
 1750 17c0 B0AA5A3F 		.word	1062906544
 1751 17c4 5055253F 		.word	1059411280
 1752 17c8 B0AA5A3F 		.word	1062906544
 1753 17cc 5055253F 		.word	1059411280
 1754 17d0 5055653F 		.word	1063605584
 1755 17d4 5055253F 		.word	1059411280
 1756 17d8 5055653F 		.word	1063605584
 1757 17dc 5055253F 		.word	1059411280
 1758 17e0 0000703F 		.word	1064304640
 1759 17e4 5055253F 		.word	1059411280
 1760 17e8 0000703F 		.word	1064304640
 1761 17ec 5055253F 		.word	1059411280
 1762 17f0 B0AA7A3F 		.word	1065003696
 1763 17f4 5055253F 		.word	1059411280
 1764 17f8 B0AA7A3F 		.word	1065003696
 1765 17fc 5055253F 		.word	1059411280
 1766 1800 F8A9AA3C 		.word	1017817592
 1767 1804 0000303F 		.word	1060110336
 1768 1808 F8A9AA3C 		.word	1017817592
 1769 180c 0000303F 		.word	1060110336
 1770 1810 0000803D 		.word	1031798784
 1771 1814 0000303F 		.word	1060110336
 1772 1818 0000803D 		.word	1031798784
 1773 181c 0000303F 		.word	1060110336
 1774 1820 8255D53D 		.word	1037391234
 1775 1824 0000303F 		.word	1060110336
 1776 1828 8255D53D 		.word	1037391234
 1777 182c 0000303F 		.word	1060110336
 1778 1830 3F55153E 		.word	1041585471
 1779 1834 0000303F 		.word	1060110336
 1780 1838 3F55153E 		.word	1041585471
 1781 183c 0000303F 		.word	1060110336
 1782 1840 0000403E 		.word	1044381696
 1783 1844 0000303F 		.word	1060110336
 1784 1848 0000403E 		.word	1044381696
 1785 184c 0000303F 		.word	1060110336
 1786 1850 C1AA6A3E 		.word	1047177921
 1787 1854 0000303F 		.word	1060110336
 1788 1858 C1AA6A3E 		.word	1047177921
ARM GAS  C:\Users\DJESSOU\AppData\Local\Temp\ccMfOXfy.s 			page 34


 1789 185c 0000303F 		.word	1060110336
 1790 1860 9FAA8A3E 		.word	1049275039
 1791 1864 0000303F 		.word	1060110336
 1792 1868 9FAA8A3E 		.word	1049275039
 1793 186c 0000303F 		.word	1060110336
 1794 1870 0000A03E 		.word	1050673152
 1795 1874 0000303F 		.word	1060110336
 1796 1878 0000A03E 		.word	1050673152
 1797 187c 0000303F 		.word	1060110336
 1798 1880 6155B53E 		.word	1052071265
 1799 1884 0000303F 		.word	1060110336
 1800 1888 6155B53E 		.word	1052071265
 1801 188c 0000303F 		.word	1060110336
 1802 1890 9FAACA3E 		.word	1053469343
 1803 1894 0000303F 		.word	1060110336
 1804 1898 9FAACA3E 		.word	1053469343
 1805 189c 0000303F 		.word	1060110336
 1806 18a0 0000E03E 		.word	1054867456
 1807 18a4 0000303F 		.word	1060110336
 1808 18a8 0000E03E 		.word	1054867456
 1809 18ac 0000303F 		.word	1060110336
 1810 18b0 6155F53E 		.word	1056265569
 1811 18b4 0000303F 		.word	1060110336
 1812 18b8 6155F53E 		.word	1056265569
 1813 18bc 0000303F 		.word	1060110336
 1814 18c0 5055053F 		.word	1057314128
 1815 18c4 0000303F 		.word	1060110336
 1816 18c8 5055053F 		.word	1057314128
 1817 18cc 0000303F 		.word	1060110336
 1818 18d0 0000103F 		.word	1058013184
 1819 18d4 0000303F 		.word	1060110336
 1820 18d8 0000103F 		.word	1058013184
 1821 18dc 0000303F 		.word	1060110336
 1822 18e0 B0AA1A3F 		.word	1058712240
 1823 18e4 0000303F 		.word	1060110336
 1824 18e8 B0AA1A3F 		.word	1058712240
 1825 18ec 0000303F 		.word	1060110336
 1826 18f0 5055253F 		.word	1059411280
 1827 18f4 0000303F 		.word	1060110336
 1828 18f8 5055253F 		.word	1059411280
 1829 18fc 0000303F 		.word	1060110336
 1830 1900 0000303F 		.word	1060110336
 1831 1904 0000303F 		.word	1060110336
 1832 1908 0000303F 		.word	1060110336
 1833 190c 0000303F 		.word	1060110336
 1834 1910 B0AA3A3F 		.word	1060809392
 1835 1914 0000303F 		.word	1060110336
 1836 1918 B0AA3A3F 		.word	1060809392
 1837 191c 0000303F 		.word	1060110336
 1838 1920 5055453F 		.word	1061508432
 1839 1924 0000303F 		.word	1060110336
 1840 1928 5055453F 		.word	1061508432
 1841 192c 0000303F 		.word	1060110336
 1842 1930 0000503F 		.word	1062207488
 1843 1934 0000303F 		.word	1060110336
 1844 1938 0000503F 		.word	1062207488
 1845 193c 0000303F 		.word	1060110336
ARM GAS  C:\Users\DJESSOU\AppData\Local\Temp\ccMfOXfy.s 			page 35


 1846 1940 B0AA5A3F 		.word	1062906544
 1847 1944 0000303F 		.word	1060110336
 1848 1948 B0AA5A3F 		.word	1062906544
 1849 194c 0000303F 		.word	1060110336
 1850 1950 5055653F 		.word	1063605584
 1851 1954 0000303F 		.word	1060110336
 1852 1958 5055653F 		.word	1063605584
 1853 195c 0000303F 		.word	1060110336
 1854 1960 0000703F 		.word	1064304640
 1855 1964 0000303F 		.word	1060110336
 1856 1968 0000703F 		.word	1064304640
 1857 196c 0000303F 		.word	1060110336
 1858 1970 B0AA7A3F 		.word	1065003696
 1859 1974 0000303F 		.word	1060110336
 1860 1978 B0AA7A3F 		.word	1065003696
 1861 197c 0000303F 		.word	1060110336
 1862 1980 F8A9AA3C 		.word	1017817592
 1863 1984 B0AA3A3F 		.word	1060809392
 1864 1988 F8A9AA3C 		.word	1017817592
 1865 198c B0AA3A3F 		.word	1060809392
 1866 1990 0000803D 		.word	1031798784
 1867 1994 B0AA3A3F 		.word	1060809392
 1868 1998 0000803D 		.word	1031798784
 1869 199c B0AA3A3F 		.word	1060809392
 1870 19a0 8255D53D 		.word	1037391234
 1871 19a4 B0AA3A3F 		.word	1060809392
 1872 19a8 8255D53D 		.word	1037391234
 1873 19ac B0AA3A3F 		.word	1060809392
 1874 19b0 3F55153E 		.word	1041585471
 1875 19b4 B0AA3A3F 		.word	1060809392
 1876 19b8 3F55153E 		.word	1041585471
 1877 19bc B0AA3A3F 		.word	1060809392
 1878 19c0 0000403E 		.word	1044381696
 1879 19c4 B0AA3A3F 		.word	1060809392
 1880 19c8 0000403E 		.word	1044381696
 1881 19cc B0AA3A3F 		.word	1060809392
 1882 19d0 C1AA6A3E 		.word	1047177921
 1883 19d4 B0AA3A3F 		.word	1060809392
 1884 19d8 C1AA6A3E 		.word	1047177921
 1885 19dc B0AA3A3F 		.word	1060809392
 1886 19e0 9FAA8A3E 		.word	1049275039
 1887 19e4 B0AA3A3F 		.word	1060809392
 1888 19e8 9FAA8A3E 		.word	1049275039
 1889 19ec B0AA3A3F 		.word	1060809392
 1890 19f0 0000A03E 		.word	1050673152
 1891 19f4 B0AA3A3F 		.word	1060809392
 1892 19f8 0000A03E 		.word	1050673152
 1893 19fc B0AA3A3F 		.word	1060809392
 1894 1a00 6155B53E 		.word	1052071265
 1895 1a04 B0AA3A3F 		.word	1060809392
 1896 1a08 6155B53E 		.word	1052071265
 1897 1a0c B0AA3A3F 		.word	1060809392
 1898 1a10 9FAACA3E 		.word	1053469343
 1899 1a14 B0AA3A3F 		.word	1060809392
 1900 1a18 9FAACA3E 		.word	1053469343
 1901 1a1c B0AA3A3F 		.word	1060809392
 1902 1a20 0000E03E 		.word	1054867456
ARM GAS  C:\Users\DJESSOU\AppData\Local\Temp\ccMfOXfy.s 			page 36


 1903 1a24 B0AA3A3F 		.word	1060809392
 1904 1a28 0000E03E 		.word	1054867456
 1905 1a2c B0AA3A3F 		.word	1060809392
 1906 1a30 6155F53E 		.word	1056265569
 1907 1a34 B0AA3A3F 		.word	1060809392
 1908 1a38 6155F53E 		.word	1056265569
 1909 1a3c B0AA3A3F 		.word	1060809392
 1910 1a40 5055053F 		.word	1057314128
 1911 1a44 B0AA3A3F 		.word	1060809392
 1912 1a48 5055053F 		.word	1057314128
 1913 1a4c B0AA3A3F 		.word	1060809392
 1914 1a50 0000103F 		.word	1058013184
 1915 1a54 B0AA3A3F 		.word	1060809392
 1916 1a58 0000103F 		.word	1058013184
 1917 1a5c B0AA3A3F 		.word	1060809392
 1918 1a60 B0AA1A3F 		.word	1058712240
 1919 1a64 B0AA3A3F 		.word	1060809392
 1920 1a68 B0AA1A3F 		.word	1058712240
 1921 1a6c B0AA3A3F 		.word	1060809392
 1922 1a70 5055253F 		.word	1059411280
 1923 1a74 B0AA3A3F 		.word	1060809392
 1924 1a78 5055253F 		.word	1059411280
 1925 1a7c B0AA3A3F 		.word	1060809392
 1926 1a80 0000303F 		.word	1060110336
 1927 1a84 B0AA3A3F 		.word	1060809392
 1928 1a88 0000303F 		.word	1060110336
 1929 1a8c B0AA3A3F 		.word	1060809392
 1930 1a90 B0AA3A3F 		.word	1060809392
 1931 1a94 B0AA3A3F 		.word	1060809392
 1932 1a98 B0AA3A3F 		.word	1060809392
 1933 1a9c B0AA3A3F 		.word	1060809392
 1934 1aa0 5055453F 		.word	1061508432
 1935 1aa4 B0AA3A3F 		.word	1060809392
 1936 1aa8 5055453F 		.word	1061508432
 1937 1aac B0AA3A3F 		.word	1060809392
 1938 1ab0 0000503F 		.word	1062207488
 1939 1ab4 B0AA3A3F 		.word	1060809392
 1940 1ab8 0000503F 		.word	1062207488
 1941 1abc B0AA3A3F 		.word	1060809392
 1942 1ac0 B0AA5A3F 		.word	1062906544
 1943 1ac4 B0AA3A3F 		.word	1060809392
 1944 1ac8 B0AA5A3F 		.word	1062906544
 1945 1acc B0AA3A3F 		.word	1060809392
 1946 1ad0 5055653F 		.word	1063605584
 1947 1ad4 B0AA3A3F 		.word	1060809392
 1948 1ad8 5055653F 		.word	1063605584
 1949 1adc B0AA3A3F 		.word	1060809392
 1950 1ae0 0000703F 		.word	1064304640
 1951 1ae4 B0AA3A3F 		.word	1060809392
 1952 1ae8 0000703F 		.word	1064304640
 1953 1aec B0AA3A3F 		.word	1060809392
 1954 1af0 B0AA7A3F 		.word	1065003696
 1955 1af4 B0AA3A3F 		.word	1060809392
 1956 1af8 B0AA7A3F 		.word	1065003696
 1957 1afc B0AA3A3F 		.word	1060809392
 1958 1b00 F8A9AA3C 		.word	1017817592
 1959 1b04 5055453F 		.word	1061508432
ARM GAS  C:\Users\DJESSOU\AppData\Local\Temp\ccMfOXfy.s 			page 37


 1960 1b08 F8A9AA3C 		.word	1017817592
 1961 1b0c 5055453F 		.word	1061508432
 1962 1b10 0000803D 		.word	1031798784
 1963 1b14 5055453F 		.word	1061508432
 1964 1b18 0000803D 		.word	1031798784
 1965 1b1c 5055453F 		.word	1061508432
 1966 1b20 8255D53D 		.word	1037391234
 1967 1b24 5055453F 		.word	1061508432
 1968 1b28 8255D53D 		.word	1037391234
 1969 1b2c 5055453F 		.word	1061508432
 1970 1b30 3F55153E 		.word	1041585471
 1971 1b34 5055453F 		.word	1061508432
 1972 1b38 3F55153E 		.word	1041585471
 1973 1b3c 5055453F 		.word	1061508432
 1974 1b40 0000403E 		.word	1044381696
 1975 1b44 5055453F 		.word	1061508432
 1976 1b48 0000403E 		.word	1044381696
 1977 1b4c 5055453F 		.word	1061508432
 1978 1b50 C1AA6A3E 		.word	1047177921
 1979 1b54 5055453F 		.word	1061508432
 1980 1b58 C1AA6A3E 		.word	1047177921
 1981 1b5c 5055453F 		.word	1061508432
 1982 1b60 9FAA8A3E 		.word	1049275039
 1983 1b64 5055453F 		.word	1061508432
 1984 1b68 9FAA8A3E 		.word	1049275039
 1985 1b6c 5055453F 		.word	1061508432
 1986 1b70 0000A03E 		.word	1050673152
 1987 1b74 5055453F 		.word	1061508432
 1988 1b78 0000A03E 		.word	1050673152
 1989 1b7c 5055453F 		.word	1061508432
 1990 1b80 6155B53E 		.word	1052071265
 1991 1b84 5055453F 		.word	1061508432
 1992 1b88 6155B53E 		.word	1052071265
 1993 1b8c 5055453F 		.word	1061508432
 1994 1b90 9FAACA3E 		.word	1053469343
 1995 1b94 5055453F 		.word	1061508432
 1996 1b98 9FAACA3E 		.word	1053469343
 1997 1b9c 5055453F 		.word	1061508432
 1998 1ba0 0000E03E 		.word	1054867456
 1999 1ba4 5055453F 		.word	1061508432
 2000 1ba8 0000E03E 		.word	1054867456
 2001 1bac 5055453F 		.word	1061508432
 2002 1bb0 6155F53E 		.word	1056265569
 2003 1bb4 5055453F 		.word	1061508432
 2004 1bb8 6155F53E 		.word	1056265569
 2005 1bbc 5055453F 		.word	1061508432
 2006 1bc0 5055053F 		.word	1057314128
 2007 1bc4 5055453F 		.word	1061508432
 2008 1bc8 5055053F 		.word	1057314128
 2009 1bcc 5055453F 		.word	1061508432
 2010 1bd0 0000103F 		.word	1058013184
 2011 1bd4 5055453F 		.word	1061508432
 2012 1bd8 0000103F 		.word	1058013184
 2013 1bdc 5055453F 		.word	1061508432
 2014 1be0 B0AA1A3F 		.word	1058712240
 2015 1be4 5055453F 		.word	1061508432
 2016 1be8 B0AA1A3F 		.word	1058712240
ARM GAS  C:\Users\DJESSOU\AppData\Local\Temp\ccMfOXfy.s 			page 38


 2017 1bec 5055453F 		.word	1061508432
 2018 1bf0 5055253F 		.word	1059411280
 2019 1bf4 5055453F 		.word	1061508432
 2020 1bf8 5055253F 		.word	1059411280
 2021 1bfc 5055453F 		.word	1061508432
 2022 1c00 0000303F 		.word	1060110336
 2023 1c04 5055453F 		.word	1061508432
 2024 1c08 0000303F 		.word	1060110336
 2025 1c0c 5055453F 		.word	1061508432
 2026 1c10 B0AA3A3F 		.word	1060809392
 2027 1c14 5055453F 		.word	1061508432
 2028 1c18 B0AA3A3F 		.word	1060809392
 2029 1c1c 5055453F 		.word	1061508432
 2030 1c20 5055453F 		.word	1061508432
 2031 1c24 5055453F 		.word	1061508432
 2032 1c28 5055453F 		.word	1061508432
 2033 1c2c 5055453F 		.word	1061508432
 2034 1c30 0000503F 		.word	1062207488
 2035 1c34 5055453F 		.word	1061508432
 2036 1c38 0000503F 		.word	1062207488
 2037 1c3c 5055453F 		.word	1061508432
 2038 1c40 B0AA5A3F 		.word	1062906544
 2039 1c44 5055453F 		.word	1061508432
 2040 1c48 B0AA5A3F 		.word	1062906544
 2041 1c4c 5055453F 		.word	1061508432
 2042 1c50 5055653F 		.word	1063605584
 2043 1c54 5055453F 		.word	1061508432
 2044 1c58 5055653F 		.word	1063605584
 2045 1c5c 5055453F 		.word	1061508432
 2046 1c60 0000703F 		.word	1064304640
 2047 1c64 5055453F 		.word	1061508432
 2048 1c68 0000703F 		.word	1064304640
 2049 1c6c 5055453F 		.word	1061508432
 2050 1c70 B0AA7A3F 		.word	1065003696
 2051 1c74 5055453F 		.word	1061508432
 2052 1c78 B0AA7A3F 		.word	1065003696
 2053 1c7c 5055453F 		.word	1061508432
 2054 1c80 F8A9AA3C 		.word	1017817592
 2055 1c84 0000503F 		.word	1062207488
 2056 1c88 F8A9AA3C 		.word	1017817592
 2057 1c8c 0000503F 		.word	1062207488
 2058 1c90 0000803D 		.word	1031798784
 2059 1c94 0000503F 		.word	1062207488
 2060 1c98 0000803D 		.word	1031798784
 2061 1c9c 0000503F 		.word	1062207488
 2062 1ca0 8255D53D 		.word	1037391234
 2063 1ca4 0000503F 		.word	1062207488
 2064 1ca8 8255D53D 		.word	1037391234
 2065 1cac 0000503F 		.word	1062207488
 2066 1cb0 3F55153E 		.word	1041585471
 2067 1cb4 0000503F 		.word	1062207488
 2068 1cb8 3F55153E 		.word	1041585471
 2069 1cbc 0000503F 		.word	1062207488
 2070 1cc0 0000403E 		.word	1044381696
 2071 1cc4 0000503F 		.word	1062207488
 2072 1cc8 0000403E 		.word	1044381696
 2073 1ccc 0000503F 		.word	1062207488
ARM GAS  C:\Users\DJESSOU\AppData\Local\Temp\ccMfOXfy.s 			page 39


 2074 1cd0 C1AA6A3E 		.word	1047177921
 2075 1cd4 0000503F 		.word	1062207488
 2076 1cd8 C1AA6A3E 		.word	1047177921
 2077 1cdc 0000503F 		.word	1062207488
 2078 1ce0 9FAA8A3E 		.word	1049275039
 2079 1ce4 0000503F 		.word	1062207488
 2080 1ce8 9FAA8A3E 		.word	1049275039
 2081 1cec 0000503F 		.word	1062207488
 2082 1cf0 0000A03E 		.word	1050673152
 2083 1cf4 0000503F 		.word	1062207488
 2084 1cf8 0000A03E 		.word	1050673152
 2085 1cfc 0000503F 		.word	1062207488
 2086 1d00 6155B53E 		.word	1052071265
 2087 1d04 0000503F 		.word	1062207488
 2088 1d08 6155B53E 		.word	1052071265
 2089 1d0c 0000503F 		.word	1062207488
 2090 1d10 9FAACA3E 		.word	1053469343
 2091 1d14 0000503F 		.word	1062207488
 2092 1d18 9FAACA3E 		.word	1053469343
 2093 1d1c 0000503F 		.word	1062207488
 2094 1d20 0000E03E 		.word	1054867456
 2095 1d24 0000503F 		.word	1062207488
 2096 1d28 0000E03E 		.word	1054867456
 2097 1d2c 0000503F 		.word	1062207488
 2098 1d30 6155F53E 		.word	1056265569
 2099 1d34 0000503F 		.word	1062207488
 2100 1d38 6155F53E 		.word	1056265569
 2101 1d3c 0000503F 		.word	1062207488
 2102 1d40 5055053F 		.word	1057314128
 2103 1d44 0000503F 		.word	1062207488
 2104 1d48 5055053F 		.word	1057314128
 2105 1d4c 0000503F 		.word	1062207488
 2106 1d50 0000103F 		.word	1058013184
 2107 1d54 0000503F 		.word	1062207488
 2108 1d58 0000103F 		.word	1058013184
 2109 1d5c 0000503F 		.word	1062207488
 2110 1d60 B0AA1A3F 		.word	1058712240
 2111 1d64 0000503F 		.word	1062207488
 2112 1d68 B0AA1A3F 		.word	1058712240
 2113 1d6c 0000503F 		.word	1062207488
 2114 1d70 5055253F 		.word	1059411280
 2115 1d74 0000503F 		.word	1062207488
 2116 1d78 5055253F 		.word	1059411280
 2117 1d7c 0000503F 		.word	1062207488
 2118 1d80 0000303F 		.word	1060110336
 2119 1d84 0000503F 		.word	1062207488
 2120 1d88 0000303F 		.word	1060110336
 2121 1d8c 0000503F 		.word	1062207488
 2122 1d90 B0AA3A3F 		.word	1060809392
 2123 1d94 0000503F 		.word	1062207488
 2124 1d98 B0AA3A3F 		.word	1060809392
 2125 1d9c 0000503F 		.word	1062207488
 2126 1da0 5055453F 		.word	1061508432
 2127 1da4 0000503F 		.word	1062207488
 2128 1da8 5055453F 		.word	1061508432
 2129 1dac 0000503F 		.word	1062207488
 2130 1db0 0000503F 		.word	1062207488
ARM GAS  C:\Users\DJESSOU\AppData\Local\Temp\ccMfOXfy.s 			page 40


 2131 1db4 0000503F 		.word	1062207488
 2132 1db8 0000503F 		.word	1062207488
 2133 1dbc 0000503F 		.word	1062207488
 2134 1dc0 B0AA5A3F 		.word	1062906544
 2135 1dc4 0000503F 		.word	1062207488
 2136 1dc8 B0AA5A3F 		.word	1062906544
 2137 1dcc 0000503F 		.word	1062207488
 2138 1dd0 5055653F 		.word	1063605584
 2139 1dd4 0000503F 		.word	1062207488
 2140 1dd8 5055653F 		.word	1063605584
 2141 1ddc 0000503F 		.word	1062207488
 2142 1de0 0000703F 		.word	1064304640
 2143 1de4 0000503F 		.word	1062207488
 2144 1de8 0000703F 		.word	1064304640
 2145 1dec 0000503F 		.word	1062207488
 2146 1df0 B0AA7A3F 		.word	1065003696
 2147 1df4 0000503F 		.word	1062207488
 2148 1df8 B0AA7A3F 		.word	1065003696
 2149 1dfc 0000503F 		.word	1062207488
 2150 1e00 F8A9AA3C 		.word	1017817592
 2151 1e04 B0AA5A3F 		.word	1062906544
 2152 1e08 F8A9AA3C 		.word	1017817592
 2153 1e0c B0AA5A3F 		.word	1062906544
 2154 1e10 0000803D 		.word	1031798784
 2155 1e14 B0AA5A3F 		.word	1062906544
 2156 1e18 0000803D 		.word	1031798784
 2157 1e1c B0AA5A3F 		.word	1062906544
 2158 1e20 8255D53D 		.word	1037391234
 2159 1e24 B0AA5A3F 		.word	1062906544
 2160 1e28 8255D53D 		.word	1037391234
 2161 1e2c B0AA5A3F 		.word	1062906544
 2162 1e30 3F55153E 		.word	1041585471
 2163 1e34 B0AA5A3F 		.word	1062906544
 2164 1e38 3F55153E 		.word	1041585471
 2165 1e3c B0AA5A3F 		.word	1062906544
 2166 1e40 0000403E 		.word	1044381696
 2167 1e44 B0AA5A3F 		.word	1062906544
 2168 1e48 0000403E 		.word	1044381696
 2169 1e4c B0AA5A3F 		.word	1062906544
 2170 1e50 C1AA6A3E 		.word	1047177921
 2171 1e54 B0AA5A3F 		.word	1062906544
 2172 1e58 C1AA6A3E 		.word	1047177921
 2173 1e5c B0AA5A3F 		.word	1062906544
 2174 1e60 9FAA8A3E 		.word	1049275039
 2175 1e64 B0AA5A3F 		.word	1062906544
 2176 1e68 9FAA8A3E 		.word	1049275039
 2177 1e6c B0AA5A3F 		.word	1062906544
 2178 1e70 0000A03E 		.word	1050673152
 2179 1e74 B0AA5A3F 		.word	1062906544
 2180 1e78 0000A03E 		.word	1050673152
 2181 1e7c B0AA5A3F 		.word	1062906544
 2182 1e80 6155B53E 		.word	1052071265
 2183 1e84 B0AA5A3F 		.word	1062906544
 2184 1e88 6155B53E 		.word	1052071265
 2185 1e8c B0AA5A3F 		.word	1062906544
 2186 1e90 9FAACA3E 		.word	1053469343
 2187 1e94 B0AA5A3F 		.word	1062906544
ARM GAS  C:\Users\DJESSOU\AppData\Local\Temp\ccMfOXfy.s 			page 41


 2188 1e98 9FAACA3E 		.word	1053469343
 2189 1e9c B0AA5A3F 		.word	1062906544
 2190 1ea0 0000E03E 		.word	1054867456
 2191 1ea4 B0AA5A3F 		.word	1062906544
 2192 1ea8 0000E03E 		.word	1054867456
 2193 1eac B0AA5A3F 		.word	1062906544
 2194 1eb0 6155F53E 		.word	1056265569
 2195 1eb4 B0AA5A3F 		.word	1062906544
 2196 1eb8 6155F53E 		.word	1056265569
 2197 1ebc B0AA5A3F 		.word	1062906544
 2198 1ec0 5055053F 		.word	1057314128
 2199 1ec4 B0AA5A3F 		.word	1062906544
 2200 1ec8 5055053F 		.word	1057314128
 2201 1ecc B0AA5A3F 		.word	1062906544
 2202 1ed0 0000103F 		.word	1058013184
 2203 1ed4 B0AA5A3F 		.word	1062906544
 2204 1ed8 0000103F 		.word	1058013184
 2205 1edc B0AA5A3F 		.word	1062906544
 2206 1ee0 B0AA1A3F 		.word	1058712240
 2207 1ee4 B0AA5A3F 		.word	1062906544
 2208 1ee8 B0AA1A3F 		.word	1058712240
 2209 1eec B0AA5A3F 		.word	1062906544
 2210 1ef0 5055253F 		.word	1059411280
 2211 1ef4 B0AA5A3F 		.word	1062906544
 2212 1ef8 5055253F 		.word	1059411280
 2213 1efc B0AA5A3F 		.word	1062906544
 2214 1f00 0000303F 		.word	1060110336
 2215 1f04 B0AA5A3F 		.word	1062906544
 2216 1f08 0000303F 		.word	1060110336
 2217 1f0c B0AA5A3F 		.word	1062906544
 2218 1f10 B0AA3A3F 		.word	1060809392
 2219 1f14 B0AA5A3F 		.word	1062906544
 2220 1f18 B0AA3A3F 		.word	1060809392
 2221 1f1c B0AA5A3F 		.word	1062906544
 2222 1f20 5055453F 		.word	1061508432
 2223 1f24 B0AA5A3F 		.word	1062906544
 2224 1f28 5055453F 		.word	1061508432
 2225 1f2c B0AA5A3F 		.word	1062906544
 2226 1f30 0000503F 		.word	1062207488
 2227 1f34 B0AA5A3F 		.word	1062906544
 2228 1f38 0000503F 		.word	1062207488
 2229 1f3c B0AA5A3F 		.word	1062906544
 2230 1f40 B0AA5A3F 		.word	1062906544
 2231 1f44 B0AA5A3F 		.word	1062906544
 2232 1f48 B0AA5A3F 		.word	1062906544
 2233 1f4c B0AA5A3F 		.word	1062906544
 2234 1f50 5055653F 		.word	1063605584
 2235 1f54 B0AA5A3F 		.word	1062906544
 2236 1f58 5055653F 		.word	1063605584
 2237 1f5c B0AA5A3F 		.word	1062906544
 2238 1f60 0000703F 		.word	1064304640
 2239 1f64 B0AA5A3F 		.word	1062906544
 2240 1f68 0000703F 		.word	1064304640
 2241 1f6c B0AA5A3F 		.word	1062906544
 2242 1f70 B0AA7A3F 		.word	1065003696
 2243 1f74 B0AA5A3F 		.word	1062906544
 2244 1f78 B0AA7A3F 		.word	1065003696
ARM GAS  C:\Users\DJESSOU\AppData\Local\Temp\ccMfOXfy.s 			page 42


 2245 1f7c B0AA5A3F 		.word	1062906544
 2246 1f80 F8A9AA3C 		.word	1017817592
 2247 1f84 5055653F 		.word	1063605584
 2248 1f88 F8A9AA3C 		.word	1017817592
 2249 1f8c 5055653F 		.word	1063605584
 2250 1f90 0000803D 		.word	1031798784
 2251 1f94 5055653F 		.word	1063605584
 2252 1f98 0000803D 		.word	1031798784
 2253 1f9c 5055653F 		.word	1063605584
 2254 1fa0 8255D53D 		.word	1037391234
 2255 1fa4 5055653F 		.word	1063605584
 2256 1fa8 8255D53D 		.word	1037391234
 2257 1fac 5055653F 		.word	1063605584
 2258 1fb0 3F55153E 		.word	1041585471
 2259 1fb4 5055653F 		.word	1063605584
 2260 1fb8 3F55153E 		.word	1041585471
 2261 1fbc 5055653F 		.word	1063605584
 2262 1fc0 0000403E 		.word	1044381696
 2263 1fc4 5055653F 		.word	1063605584
 2264 1fc8 0000403E 		.word	1044381696
 2265 1fcc 5055653F 		.word	1063605584
 2266 1fd0 C1AA6A3E 		.word	1047177921
 2267 1fd4 5055653F 		.word	1063605584
 2268 1fd8 C1AA6A3E 		.word	1047177921
 2269 1fdc 5055653F 		.word	1063605584
 2270 1fe0 9FAA8A3E 		.word	1049275039
 2271 1fe4 5055653F 		.word	1063605584
 2272 1fe8 9FAA8A3E 		.word	1049275039
 2273 1fec 5055653F 		.word	1063605584
 2274 1ff0 0000A03E 		.word	1050673152
 2275 1ff4 5055653F 		.word	1063605584
 2276 1ff8 0000A03E 		.word	1050673152
 2277 1ffc 5055653F 		.word	1063605584
 2278 2000 6155B53E 		.word	1052071265
 2279 2004 5055653F 		.word	1063605584
 2280 2008 6155B53E 		.word	1052071265
 2281 200c 5055653F 		.word	1063605584
 2282 2010 9FAACA3E 		.word	1053469343
 2283 2014 5055653F 		.word	1063605584
 2284 2018 9FAACA3E 		.word	1053469343
 2285 201c 5055653F 		.word	1063605584
 2286 2020 0000E03E 		.word	1054867456
 2287 2024 5055653F 		.word	1063605584
 2288 2028 0000E03E 		.word	1054867456
 2289 202c 5055653F 		.word	1063605584
 2290 2030 6155F53E 		.word	1056265569
 2291 2034 5055653F 		.word	1063605584
 2292 2038 6155F53E 		.word	1056265569
 2293 203c 5055653F 		.word	1063605584
 2294 2040 5055053F 		.word	1057314128
 2295 2044 5055653F 		.word	1063605584
 2296 2048 5055053F 		.word	1057314128
 2297 204c 5055653F 		.word	1063605584
 2298 2050 0000103F 		.word	1058013184
 2299 2054 5055653F 		.word	1063605584
 2300 2058 0000103F 		.word	1058013184
 2301 205c 5055653F 		.word	1063605584
ARM GAS  C:\Users\DJESSOU\AppData\Local\Temp\ccMfOXfy.s 			page 43


 2302 2060 B0AA1A3F 		.word	1058712240
 2303 2064 5055653F 		.word	1063605584
 2304 2068 B0AA1A3F 		.word	1058712240
 2305 206c 5055653F 		.word	1063605584
 2306 2070 5055253F 		.word	1059411280
 2307 2074 5055653F 		.word	1063605584
 2308 2078 5055253F 		.word	1059411280
 2309 207c 5055653F 		.word	1063605584
 2310 2080 0000303F 		.word	1060110336
 2311 2084 5055653F 		.word	1063605584
 2312 2088 0000303F 		.word	1060110336
 2313 208c 5055653F 		.word	1063605584
 2314 2090 B0AA3A3F 		.word	1060809392
 2315 2094 5055653F 		.word	1063605584
 2316 2098 B0AA3A3F 		.word	1060809392
 2317 209c 5055653F 		.word	1063605584
 2318 20a0 5055453F 		.word	1061508432
 2319 20a4 5055653F 		.word	1063605584
 2320 20a8 5055453F 		.word	1061508432
 2321 20ac 5055653F 		.word	1063605584
 2322 20b0 0000503F 		.word	1062207488
 2323 20b4 5055653F 		.word	1063605584
 2324 20b8 0000503F 		.word	1062207488
 2325 20bc 5055653F 		.word	1063605584
 2326 20c0 B0AA5A3F 		.word	1062906544
 2327 20c4 5055653F 		.word	1063605584
 2328 20c8 B0AA5A3F 		.word	1062906544
 2329 20cc 5055653F 		.word	1063605584
 2330 20d0 5055653F 		.word	1063605584
 2331 20d4 5055653F 		.word	1063605584
 2332 20d8 5055653F 		.word	1063605584
 2333 20dc 5055653F 		.word	1063605584
 2334 20e0 0000703F 		.word	1064304640
 2335 20e4 5055653F 		.word	1063605584
 2336 20e8 0000703F 		.word	1064304640
 2337 20ec 5055653F 		.word	1063605584
 2338 20f0 B0AA7A3F 		.word	1065003696
 2339 20f4 5055653F 		.word	1063605584
 2340 20f8 B0AA7A3F 		.word	1065003696
 2341 20fc 5055653F 		.word	1063605584
 2342 2100 F8A9AA3C 		.word	1017817592
 2343 2104 0000703F 		.word	1064304640
 2344 2108 F8A9AA3C 		.word	1017817592
 2345 210c 0000703F 		.word	1064304640
 2346 2110 0000803D 		.word	1031798784
 2347 2114 0000703F 		.word	1064304640
 2348 2118 0000803D 		.word	1031798784
 2349 211c 0000703F 		.word	1064304640
 2350 2120 8255D53D 		.word	1037391234
 2351 2124 0000703F 		.word	1064304640
 2352 2128 8255D53D 		.word	1037391234
 2353 212c 0000703F 		.word	1064304640
 2354 2130 3F55153E 		.word	1041585471
 2355 2134 0000703F 		.word	1064304640
 2356 2138 3F55153E 		.word	1041585471
 2357 213c 0000703F 		.word	1064304640
 2358 2140 0000403E 		.word	1044381696
ARM GAS  C:\Users\DJESSOU\AppData\Local\Temp\ccMfOXfy.s 			page 44


 2359 2144 0000703F 		.word	1064304640
 2360 2148 0000403E 		.word	1044381696
 2361 214c 0000703F 		.word	1064304640
 2362 2150 C1AA6A3E 		.word	1047177921
 2363 2154 0000703F 		.word	1064304640
 2364 2158 C1AA6A3E 		.word	1047177921
 2365 215c 0000703F 		.word	1064304640
 2366 2160 9FAA8A3E 		.word	1049275039
 2367 2164 0000703F 		.word	1064304640
 2368 2168 9FAA8A3E 		.word	1049275039
 2369 216c 0000703F 		.word	1064304640
 2370 2170 0000A03E 		.word	1050673152
 2371 2174 0000703F 		.word	1064304640
 2372 2178 0000A03E 		.word	1050673152
 2373 217c 0000703F 		.word	1064304640
 2374 2180 6155B53E 		.word	1052071265
 2375 2184 0000703F 		.word	1064304640
 2376 2188 6155B53E 		.word	1052071265
 2377 218c 0000703F 		.word	1064304640
 2378 2190 9FAACA3E 		.word	1053469343
 2379 2194 0000703F 		.word	1064304640
 2380 2198 9FAACA3E 		.word	1053469343
 2381 219c 0000703F 		.word	1064304640
 2382 21a0 0000E03E 		.word	1054867456
 2383 21a4 0000703F 		.word	1064304640
 2384 21a8 0000E03E 		.word	1054867456
 2385 21ac 0000703F 		.word	1064304640
 2386 21b0 6155F53E 		.word	1056265569
 2387 21b4 0000703F 		.word	1064304640
 2388 21b8 6155F53E 		.word	1056265569
 2389 21bc 0000703F 		.word	1064304640
 2390 21c0 5055053F 		.word	1057314128
 2391 21c4 0000703F 		.word	1064304640
 2392 21c8 5055053F 		.word	1057314128
 2393 21cc 0000703F 		.word	1064304640
 2394 21d0 0000103F 		.word	1058013184
 2395 21d4 0000703F 		.word	1064304640
 2396 21d8 0000103F 		.word	1058013184
 2397 21dc 0000703F 		.word	1064304640
 2398 21e0 B0AA1A3F 		.word	1058712240
 2399 21e4 0000703F 		.word	1064304640
 2400 21e8 B0AA1A3F 		.word	1058712240
 2401 21ec 0000703F 		.word	1064304640
 2402 21f0 5055253F 		.word	1059411280
 2403 21f4 0000703F 		.word	1064304640
 2404 21f8 5055253F 		.word	1059411280
 2405 21fc 0000703F 		.word	1064304640
 2406 2200 0000303F 		.word	1060110336
 2407 2204 0000703F 		.word	1064304640
 2408 2208 0000303F 		.word	1060110336
 2409 220c 0000703F 		.word	1064304640
 2410 2210 B0AA3A3F 		.word	1060809392
 2411 2214 0000703F 		.word	1064304640
 2412 2218 B0AA3A3F 		.word	1060809392
 2413 221c 0000703F 		.word	1064304640
 2414 2220 5055453F 		.word	1061508432
 2415 2224 0000703F 		.word	1064304640
ARM GAS  C:\Users\DJESSOU\AppData\Local\Temp\ccMfOXfy.s 			page 45


 2416 2228 5055453F 		.word	1061508432
 2417 222c 0000703F 		.word	1064304640
 2418 2230 0000503F 		.word	1062207488
 2419 2234 0000703F 		.word	1064304640
 2420 2238 0000503F 		.word	1062207488
 2421 223c 0000703F 		.word	1064304640
 2422 2240 B0AA5A3F 		.word	1062906544
 2423 2244 0000703F 		.word	1064304640
 2424 2248 B0AA5A3F 		.word	1062906544
 2425 224c 0000703F 		.word	1064304640
 2426 2250 5055653F 		.word	1063605584
 2427 2254 0000703F 		.word	1064304640
 2428 2258 5055653F 		.word	1063605584
 2429 225c 0000703F 		.word	1064304640
 2430 2260 0000703F 		.word	1064304640
 2431 2264 0000703F 		.word	1064304640
 2432 2268 0000703F 		.word	1064304640
 2433 226c 0000703F 		.word	1064304640
 2434 2270 B0AA7A3F 		.word	1065003696
 2435 2274 0000703F 		.word	1064304640
 2436 2278 B0AA7A3F 		.word	1065003696
 2437 227c 0000703F 		.word	1064304640
 2438 2280 F8A9AA3C 		.word	1017817592
 2439 2284 B0AA7A3F 		.word	1065003696
 2440 2288 F8A9AA3C 		.word	1017817592
 2441 228c B0AA7A3F 		.word	1065003696
 2442 2290 0000803D 		.word	1031798784
 2443 2294 B0AA7A3F 		.word	1065003696
 2444 2298 0000803D 		.word	1031798784
 2445 229c B0AA7A3F 		.word	1065003696
 2446 22a0 8255D53D 		.word	1037391234
 2447 22a4 B0AA7A3F 		.word	1065003696
 2448 22a8 8255D53D 		.word	1037391234
 2449 22ac B0AA7A3F 		.word	1065003696
 2450 22b0 3F55153E 		.word	1041585471
 2451 22b4 B0AA7A3F 		.word	1065003696
 2452 22b8 3F55153E 		.word	1041585471
 2453 22bc B0AA7A3F 		.word	1065003696
 2454 22c0 0000403E 		.word	1044381696
 2455 22c4 B0AA7A3F 		.word	1065003696
 2456 22c8 0000403E 		.word	1044381696
 2457 22cc B0AA7A3F 		.word	1065003696
 2458 22d0 C1AA6A3E 		.word	1047177921
 2459 22d4 B0AA7A3F 		.word	1065003696
 2460 22d8 C1AA6A3E 		.word	1047177921
 2461 22dc B0AA7A3F 		.word	1065003696
 2462 22e0 9FAA8A3E 		.word	1049275039
 2463 22e4 B0AA7A3F 		.word	1065003696
 2464 22e8 9FAA8A3E 		.word	1049275039
 2465 22ec B0AA7A3F 		.word	1065003696
 2466 22f0 0000A03E 		.word	1050673152
 2467 22f4 B0AA7A3F 		.word	1065003696
 2468 22f8 0000A03E 		.word	1050673152
 2469 22fc B0AA7A3F 		.word	1065003696
 2470 2300 6155B53E 		.word	1052071265
 2471 2304 B0AA7A3F 		.word	1065003696
 2472 2308 6155B53E 		.word	1052071265
ARM GAS  C:\Users\DJESSOU\AppData\Local\Temp\ccMfOXfy.s 			page 46


 2473 230c B0AA7A3F 		.word	1065003696
 2474 2310 9FAACA3E 		.word	1053469343
 2475 2314 B0AA7A3F 		.word	1065003696
 2476 2318 9FAACA3E 		.word	1053469343
 2477 231c B0AA7A3F 		.word	1065003696
 2478 2320 0000E03E 		.word	1054867456
 2479 2324 B0AA7A3F 		.word	1065003696
 2480 2328 0000E03E 		.word	1054867456
 2481 232c B0AA7A3F 		.word	1065003696
 2482 2330 6155F53E 		.word	1056265569
 2483 2334 B0AA7A3F 		.word	1065003696
 2484 2338 6155F53E 		.word	1056265569
 2485 233c B0AA7A3F 		.word	1065003696
 2486 2340 5055053F 		.word	1057314128
 2487 2344 B0AA7A3F 		.word	1065003696
 2488 2348 5055053F 		.word	1057314128
 2489 234c B0AA7A3F 		.word	1065003696
 2490 2350 0000103F 		.word	1058013184
 2491 2354 B0AA7A3F 		.word	1065003696
 2492 2358 0000103F 		.word	1058013184
 2493 235c B0AA7A3F 		.word	1065003696
 2494 2360 B0AA1A3F 		.word	1058712240
 2495 2364 B0AA7A3F 		.word	1065003696
 2496 2368 B0AA1A3F 		.word	1058712240
 2497 236c B0AA7A3F 		.word	1065003696
 2498 2370 5055253F 		.word	1059411280
 2499 2374 B0AA7A3F 		.word	1065003696
 2500 2378 5055253F 		.word	1059411280
 2501 237c B0AA7A3F 		.word	1065003696
 2502 2380 0000303F 		.word	1060110336
 2503 2384 B0AA7A3F 		.word	1065003696
 2504 2388 0000303F 		.word	1060110336
 2505 238c B0AA7A3F 		.word	1065003696
 2506 2390 B0AA3A3F 		.word	1060809392
 2507 2394 B0AA7A3F 		.word	1065003696
 2508 2398 B0AA3A3F 		.word	1060809392
 2509 239c B0AA7A3F 		.word	1065003696
 2510 23a0 5055453F 		.word	1061508432
 2511 23a4 B0AA7A3F 		.word	1065003696
 2512 23a8 5055453F 		.word	1061508432
 2513 23ac B0AA7A3F 		.word	1065003696
 2514 23b0 0000503F 		.word	1062207488
 2515 23b4 B0AA7A3F 		.word	1065003696
 2516 23b8 0000503F 		.word	1062207488
 2517 23bc B0AA7A3F 		.word	1065003696
 2518 23c0 B0AA5A3F 		.word	1062906544
 2519 23c4 B0AA7A3F 		.word	1065003696
 2520 23c8 B0AA5A3F 		.word	1062906544
 2521 23cc B0AA7A3F 		.word	1065003696
 2522 23d0 5055653F 		.word	1063605584
 2523 23d4 B0AA7A3F 		.word	1065003696
 2524 23d8 5055653F 		.word	1063605584
 2525 23dc B0AA7A3F 		.word	1065003696
 2526 23e0 0000703F 		.word	1064304640
 2527 23e4 B0AA7A3F 		.word	1065003696
 2528 23e8 0000703F 		.word	1064304640
 2529 23ec B0AA7A3F 		.word	1065003696
ARM GAS  C:\Users\DJESSOU\AppData\Local\Temp\ccMfOXfy.s 			page 47


 2530 23f0 B0AA7A3F 		.word	1065003696
 2531 23f4 B0AA7A3F 		.word	1065003696
 2532 23f8 B0AA7A3F 		.word	1065003696
 2533 23fc B0AA7A3F 		.word	1065003696
 2534 2400 04AB2A3D 		.word	1026206468
 2535 2404 04AB2A3D 		.word	1026206468
 2536 2408 04AB2A3D 		.word	1026206468
 2537 240c 04AB2A3D 		.word	1026206468
 2538 2410 04AB2A3D 		.word	1026206468
 2539 2414 04AB2A3D 		.word	1026206468
 2540 2418 04AB2A3D 		.word	1026206468
 2541 241c 04AB2A3D 		.word	1026206468
 2542 2420 04AB2A3D 		.word	1026206468
 2543 2424 04AB2A3D 		.word	1026206468
 2544 2428 04AB2A3D 		.word	1026206468
 2545 242c 04AB2A3D 		.word	1026206468
 2546 2430 0000003E 		.word	1040187392
 2547 2434 04AB2A3D 		.word	1026206468
 2548 2438 0000003E 		.word	1040187392
 2549 243c 04AB2A3D 		.word	1026206468
 2550 2440 0000003E 		.word	1040187392
 2551 2444 04AB2A3D 		.word	1026206468
 2552 2448 0000003E 		.word	1040187392
 2553 244c 04AB2A3D 		.word	1026206468
 2554 2450 0000003E 		.word	1040187392
 2555 2454 04AB2A3D 		.word	1026206468
 2556 2458 0000003E 		.word	1040187392
 2557 245c 04AB2A3D 		.word	1026206468
 2558 2460 3F55553E 		.word	1045779775
 2559 2464 04AB2A3D 		.word	1026206468
 2560 2468 3F55553E 		.word	1045779775
 2561 246c 04AB2A3D 		.word	1026206468
 2562 2470 3F55553E 		.word	1045779775
 2563 2474 04AB2A3D 		.word	1026206468
 2564 2478 3F55553E 		.word	1045779775
 2565 247c 04AB2A3D 		.word	1026206468
 2566 2480 3F55553E 		.word	1045779775
 2567 2484 04AB2A3D 		.word	1026206468
 2568 2488 3F55553E 		.word	1045779775
 2569 248c 04AB2A3D 		.word	1026206468
 2570 2490 6155953E 		.word	1049974113
 2571 2494 04AB2A3D 		.word	1026206468
 2572 2498 6155953E 		.word	1049974113
 2573 249c 04AB2A3D 		.word	1026206468
 2574 24a0 6155953E 		.word	1049974113
 2575 24a4 04AB2A3D 		.word	1026206468
 2576 24a8 6155953E 		.word	1049974113
 2577 24ac 04AB2A3D 		.word	1026206468
 2578 24b0 6155953E 		.word	1049974113
 2579 24b4 04AB2A3D 		.word	1026206468
 2580 24b8 6155953E 		.word	1049974113
 2581 24bc 04AB2A3D 		.word	1026206468
 2582 24c0 0000C03E 		.word	1052770304
 2583 24c4 04AB2A3D 		.word	1026206468
 2584 24c8 0000C03E 		.word	1052770304
 2585 24cc 04AB2A3D 		.word	1026206468
 2586 24d0 0000C03E 		.word	1052770304
ARM GAS  C:\Users\DJESSOU\AppData\Local\Temp\ccMfOXfy.s 			page 48


 2587 24d4 04AB2A3D 		.word	1026206468
 2588 24d8 0000C03E 		.word	1052770304
 2589 24dc 04AB2A3D 		.word	1026206468
 2590 24e0 0000C03E 		.word	1052770304
 2591 24e4 04AB2A3D 		.word	1026206468
 2592 24e8 0000C03E 		.word	1052770304
 2593 24ec 04AB2A3D 		.word	1026206468
 2594 24f0 9FAAEA3E 		.word	1055566495
 2595 24f4 04AB2A3D 		.word	1026206468
 2596 24f8 9FAAEA3E 		.word	1055566495
 2597 24fc 04AB2A3D 		.word	1026206468
 2598 2500 9FAAEA3E 		.word	1055566495
 2599 2504 04AB2A3D 		.word	1026206468
 2600 2508 9FAAEA3E 		.word	1055566495
 2601 250c 04AB2A3D 		.word	1026206468
 2602 2510 9FAAEA3E 		.word	1055566495
 2603 2514 04AB2A3D 		.word	1026206468
 2604 2518 9FAAEA3E 		.word	1055566495
 2605 251c 04AB2A3D 		.word	1026206468
 2606 2520 B0AA0A3F 		.word	1057663664
 2607 2524 04AB2A3D 		.word	1026206468
 2608 2528 B0AA0A3F 		.word	1057663664
 2609 252c 04AB2A3D 		.word	1026206468
 2610 2530 B0AA0A3F 		.word	1057663664
 2611 2534 04AB2A3D 		.word	1026206468
 2612 2538 B0AA0A3F 		.word	1057663664
 2613 253c 04AB2A3D 		.word	1026206468
 2614 2540 B0AA0A3F 		.word	1057663664
 2615 2544 04AB2A3D 		.word	1026206468
 2616 2548 B0AA0A3F 		.word	1057663664
 2617 254c 04AB2A3D 		.word	1026206468
 2618 2550 0000203F 		.word	1059061760
 2619 2554 04AB2A3D 		.word	1026206468
 2620 2558 0000203F 		.word	1059061760
 2621 255c 04AB2A3D 		.word	1026206468
 2622 2560 0000203F 		.word	1059061760
 2623 2564 04AB2A3D 		.word	1026206468
 2624 2568 0000203F 		.word	1059061760
 2625 256c 04AB2A3D 		.word	1026206468
 2626 2570 0000203F 		.word	1059061760
 2627 2574 04AB2A3D 		.word	1026206468
 2628 2578 0000203F 		.word	1059061760
 2629 257c 04AB2A3D 		.word	1026206468
 2630 2580 5055353F 		.word	1060459856
 2631 2584 04AB2A3D 		.word	1026206468
 2632 2588 5055353F 		.word	1060459856
 2633 258c 04AB2A3D 		.word	1026206468
 2634 2590 5055353F 		.word	1060459856
 2635 2594 04AB2A3D 		.word	1026206468
 2636 2598 5055353F 		.word	1060459856
 2637 259c 04AB2A3D 		.word	1026206468
 2638 25a0 5055353F 		.word	1060459856
 2639 25a4 04AB2A3D 		.word	1026206468
 2640 25a8 5055353F 		.word	1060459856
 2641 25ac 04AB2A3D 		.word	1026206468
 2642 25b0 B0AA4A3F 		.word	1061857968
 2643 25b4 04AB2A3D 		.word	1026206468
ARM GAS  C:\Users\DJESSOU\AppData\Local\Temp\ccMfOXfy.s 			page 49


 2644 25b8 B0AA4A3F 		.word	1061857968
 2645 25bc 04AB2A3D 		.word	1026206468
 2646 25c0 B0AA4A3F 		.word	1061857968
 2647 25c4 04AB2A3D 		.word	1026206468
 2648 25c8 B0AA4A3F 		.word	1061857968
 2649 25cc 04AB2A3D 		.word	1026206468
 2650 25d0 B0AA4A3F 		.word	1061857968
 2651 25d4 04AB2A3D 		.word	1026206468
 2652 25d8 B0AA4A3F 		.word	1061857968
 2653 25dc 04AB2A3D 		.word	1026206468
 2654 25e0 0000603F 		.word	1063256064
 2655 25e4 04AB2A3D 		.word	1026206468
 2656 25e8 0000603F 		.word	1063256064
 2657 25ec 04AB2A3D 		.word	1026206468
 2658 25f0 0000603F 		.word	1063256064
 2659 25f4 04AB2A3D 		.word	1026206468
 2660 25f8 0000603F 		.word	1063256064
 2661 25fc 04AB2A3D 		.word	1026206468
 2662 2600 0000603F 		.word	1063256064
 2663 2604 04AB2A3D 		.word	1026206468
 2664 2608 0000603F 		.word	1063256064
 2665 260c 04AB2A3D 		.word	1026206468
 2666 2610 5055753F 		.word	1064654160
 2667 2614 04AB2A3D 		.word	1026206468
 2668 2618 5055753F 		.word	1064654160
 2669 261c 04AB2A3D 		.word	1026206468
 2670 2620 5055753F 		.word	1064654160
 2671 2624 04AB2A3D 		.word	1026206468
 2672 2628 5055753F 		.word	1064654160
 2673 262c 04AB2A3D 		.word	1026206468
 2674 2630 5055753F 		.word	1064654160
 2675 2634 04AB2A3D 		.word	1026206468
 2676 2638 5055753F 		.word	1064654160
 2677 263c 04AB2A3D 		.word	1026206468
 2678 2640 04AB2A3D 		.word	1026206468
 2679 2644 0000003E 		.word	1040187392
 2680 2648 04AB2A3D 		.word	1026206468
 2681 264c 0000003E 		.word	1040187392
 2682 2650 04AB2A3D 		.word	1026206468
 2683 2654 0000003E 		.word	1040187392
 2684 2658 04AB2A3D 		.word	1026206468
 2685 265c 0000003E 		.word	1040187392
 2686 2660 04AB2A3D 		.word	1026206468
 2687 2664 0000003E 		.word	1040187392
 2688 2668 04AB2A3D 		.word	1026206468
 2689 266c 0000003E 		.word	1040187392
 2690 2670 0000003E 		.word	1040187392
 2691 2674 0000003E 		.word	1040187392
 2692 2678 0000003E 		.word	1040187392
 2693 267c 0000003E 		.word	1040187392
 2694 2680 0000003E 		.word	1040187392
 2695 2684 0000003E 		.word	1040187392
 2696 2688 0000003E 		.word	1040187392
 2697 268c 0000003E 		.word	1040187392
 2698 2690 0000003E 		.word	1040187392
 2699 2694 0000003E 		.word	1040187392
 2700 2698 0000003E 		.word	1040187392
ARM GAS  C:\Users\DJESSOU\AppData\Local\Temp\ccMfOXfy.s 			page 50


 2701 269c 0000003E 		.word	1040187392
 2702 26a0 3F55553E 		.word	1045779775
 2703 26a4 0000003E 		.word	1040187392
 2704 26a8 3F55553E 		.word	1045779775
 2705 26ac 0000003E 		.word	1040187392
 2706 26b0 3F55553E 		.word	1045779775
 2707 26b4 0000003E 		.word	1040187392
 2708 26b8 3F55553E 		.word	1045779775
 2709 26bc 0000003E 		.word	1040187392
 2710 26c0 3F55553E 		.word	1045779775
 2711 26c4 0000003E 		.word	1040187392
 2712 26c8 3F55553E 		.word	1045779775
 2713 26cc 0000003E 		.word	1040187392
 2714 26d0 6155953E 		.word	1049974113
 2715 26d4 0000003E 		.word	1040187392
 2716 26d8 6155953E 		.word	1049974113
 2717 26dc 0000003E 		.word	1040187392
 2718 26e0 6155953E 		.word	1049974113
 2719 26e4 0000003E 		.word	1040187392
 2720 26e8 6155953E 		.word	1049974113
 2721 26ec 0000003E 		.word	1040187392
 2722 26f0 6155953E 		.word	1049974113
 2723 26f4 0000003E 		.word	1040187392
 2724 26f8 6155953E 		.word	1049974113
 2725 26fc 0000003E 		.word	1040187392
 2726 2700 0000C03E 		.word	1052770304
 2727 2704 0000003E 		.word	1040187392
 2728 2708 0000C03E 		.word	1052770304
 2729 270c 0000003E 		.word	1040187392
 2730 2710 0000C03E 		.word	1052770304
 2731 2714 0000003E 		.word	1040187392
 2732 2718 0000C03E 		.word	1052770304
 2733 271c 0000003E 		.word	1040187392
 2734 2720 0000C03E 		.word	1052770304
 2735 2724 0000003E 		.word	1040187392
 2736 2728 0000C03E 		.word	1052770304
 2737 272c 0000003E 		.word	1040187392
 2738 2730 9FAAEA3E 		.word	1055566495
 2739 2734 0000003E 		.word	1040187392
 2740 2738 9FAAEA3E 		.word	1055566495
 2741 273c 0000003E 		.word	1040187392
 2742 2740 9FAAEA3E 		.word	1055566495
 2743 2744 0000003E 		.word	1040187392
 2744 2748 9FAAEA3E 		.word	1055566495
 2745 274c 0000003E 		.word	1040187392
 2746 2750 9FAAEA3E 		.word	1055566495
 2747 2754 0000003E 		.word	1040187392
 2748 2758 9FAAEA3E 		.word	1055566495
 2749 275c 0000003E 		.word	1040187392
 2750 2760 B0AA0A3F 		.word	1057663664
 2751 2764 0000003E 		.word	1040187392
 2752 2768 B0AA0A3F 		.word	1057663664
 2753 276c 0000003E 		.word	1040187392
 2754 2770 B0AA0A3F 		.word	1057663664
 2755 2774 0000003E 		.word	1040187392
 2756 2778 B0AA0A3F 		.word	1057663664
 2757 277c 0000003E 		.word	1040187392
ARM GAS  C:\Users\DJESSOU\AppData\Local\Temp\ccMfOXfy.s 			page 51


 2758 2780 B0AA0A3F 		.word	1057663664
 2759 2784 0000003E 		.word	1040187392
 2760 2788 B0AA0A3F 		.word	1057663664
 2761 278c 0000003E 		.word	1040187392
 2762 2790 0000203F 		.word	1059061760
 2763 2794 0000003E 		.word	1040187392
 2764 2798 0000203F 		.word	1059061760
 2765 279c 0000003E 		.word	1040187392
 2766 27a0 0000203F 		.word	1059061760
 2767 27a4 0000003E 		.word	1040187392
 2768 27a8 0000203F 		.word	1059061760
 2769 27ac 0000003E 		.word	1040187392
 2770 27b0 0000203F 		.word	1059061760
 2771 27b4 0000003E 		.word	1040187392
 2772 27b8 0000203F 		.word	1059061760
 2773 27bc 0000003E 		.word	1040187392
 2774 27c0 5055353F 		.word	1060459856
 2775 27c4 0000003E 		.word	1040187392
 2776 27c8 5055353F 		.word	1060459856
 2777 27cc 0000003E 		.word	1040187392
 2778 27d0 5055353F 		.word	1060459856
 2779 27d4 0000003E 		.word	1040187392
 2780 27d8 5055353F 		.word	1060459856
 2781 27dc 0000003E 		.word	1040187392
 2782 27e0 5055353F 		.word	1060459856
 2783 27e4 0000003E 		.word	1040187392
 2784 27e8 5055353F 		.word	1060459856
 2785 27ec 0000003E 		.word	1040187392
 2786 27f0 B0AA4A3F 		.word	1061857968
 2787 27f4 0000003E 		.word	1040187392
 2788 27f8 B0AA4A3F 		.word	1061857968
 2789 27fc 0000003E 		.word	1040187392
 2790 2800 B0AA4A3F 		.word	1061857968
 2791 2804 0000003E 		.word	1040187392
 2792 2808 B0AA4A3F 		.word	1061857968
 2793 280c 0000003E 		.word	1040187392
 2794 2810 B0AA4A3F 		.word	1061857968
 2795 2814 0000003E 		.word	1040187392
 2796 2818 B0AA4A3F 		.word	1061857968
 2797 281c 0000003E 		.word	1040187392
 2798 2820 0000603F 		.word	1063256064
 2799 2824 0000003E 		.word	1040187392
 2800 2828 0000603F 		.word	1063256064
 2801 282c 0000003E 		.word	1040187392
 2802 2830 0000603F 		.word	1063256064
 2803 2834 0000003E 		.word	1040187392
 2804 2838 0000603F 		.word	1063256064
 2805 283c 0000003E 		.word	1040187392
 2806 2840 0000603F 		.word	1063256064
 2807 2844 0000003E 		.word	1040187392
 2808 2848 0000603F 		.word	1063256064
 2809 284c 0000003E 		.word	1040187392
 2810 2850 5055753F 		.word	1064654160
 2811 2854 0000003E 		.word	1040187392
 2812 2858 5055753F 		.word	1064654160
 2813 285c 0000003E 		.word	1040187392
 2814 2860 5055753F 		.word	1064654160
ARM GAS  C:\Users\DJESSOU\AppData\Local\Temp\ccMfOXfy.s 			page 52


 2815 2864 0000003E 		.word	1040187392
 2816 2868 5055753F 		.word	1064654160
 2817 286c 0000003E 		.word	1040187392
 2818 2870 5055753F 		.word	1064654160
 2819 2874 0000003E 		.word	1040187392
 2820 2878 5055753F 		.word	1064654160
 2821 287c 0000003E 		.word	1040187392
 2822 2880 04AB2A3D 		.word	1026206468
 2823 2884 3F55553E 		.word	1045779775
 2824 2888 04AB2A3D 		.word	1026206468
 2825 288c 3F55553E 		.word	1045779775
 2826 2890 04AB2A3D 		.word	1026206468
 2827 2894 3F55553E 		.word	1045779775
 2828 2898 04AB2A3D 		.word	1026206468
 2829 289c 3F55553E 		.word	1045779775
 2830 28a0 04AB2A3D 		.word	1026206468
 2831 28a4 3F55553E 		.word	1045779775
 2832 28a8 04AB2A3D 		.word	1026206468
 2833 28ac 3F55553E 		.word	1045779775
 2834 28b0 0000003E 		.word	1040187392
 2835 28b4 3F55553E 		.word	1045779775
 2836 28b8 0000003E 		.word	1040187392
 2837 28bc 3F55553E 		.word	1045779775
 2838 28c0 0000003E 		.word	1040187392
 2839 28c4 3F55553E 		.word	1045779775
 2840 28c8 0000003E 		.word	1040187392
 2841 28cc 3F55553E 		.word	1045779775
 2842 28d0 0000003E 		.word	1040187392
 2843 28d4 3F55553E 		.word	1045779775
 2844 28d8 0000003E 		.word	1040187392
 2845 28dc 3F55553E 		.word	1045779775
 2846 28e0 3F55553E 		.word	1045779775
 2847 28e4 3F55553E 		.word	1045779775
 2848 28e8 3F55553E 		.word	1045779775
 2849 28ec 3F55553E 		.word	1045779775
 2850 28f0 3F55553E 		.word	1045779775
 2851 28f4 3F55553E 		.word	1045779775
 2852 28f8 3F55553E 		.word	1045779775
 2853 28fc 3F55553E 		.word	1045779775
 2854 2900 3F55553E 		.word	1045779775
 2855 2904 3F55553E 		.word	1045779775
 2856 2908 3F55553E 		.word	1045779775
 2857 290c 3F55553E 		.word	1045779775
 2858 2910 6155953E 		.word	1049974113
 2859 2914 3F55553E 		.word	1045779775
 2860 2918 6155953E 		.word	1049974113
 2861 291c 3F55553E 		.word	1045779775
 2862 2920 6155953E 		.word	1049974113
 2863 2924 3F55553E 		.word	1045779775
 2864 2928 6155953E 		.word	1049974113
 2865 292c 3F55553E 		.word	1045779775
 2866 2930 6155953E 		.word	1049974113
 2867 2934 3F55553E 		.word	1045779775
 2868 2938 6155953E 		.word	1049974113
 2869 293c 3F55553E 		.word	1045779775
 2870 2940 0000C03E 		.word	1052770304
 2871 2944 3F55553E 		.word	1045779775
ARM GAS  C:\Users\DJESSOU\AppData\Local\Temp\ccMfOXfy.s 			page 53


 2872 2948 0000C03E 		.word	1052770304
 2873 294c 3F55553E 		.word	1045779775
 2874 2950 0000C03E 		.word	1052770304
 2875 2954 3F55553E 		.word	1045779775
 2876 2958 0000C03E 		.word	1052770304
 2877 295c 3F55553E 		.word	1045779775
 2878 2960 0000C03E 		.word	1052770304
 2879 2964 3F55553E 		.word	1045779775
 2880 2968 0000C03E 		.word	1052770304
 2881 296c 3F55553E 		.word	1045779775
 2882 2970 9FAAEA3E 		.word	1055566495
 2883 2974 3F55553E 		.word	1045779775
 2884 2978 9FAAEA3E 		.word	1055566495
 2885 297c 3F55553E 		.word	1045779775
 2886 2980 9FAAEA3E 		.word	1055566495
 2887 2984 3F55553E 		.word	1045779775
 2888 2988 9FAAEA3E 		.word	1055566495
 2889 298c 3F55553E 		.word	1045779775
 2890 2990 9FAAEA3E 		.word	1055566495
 2891 2994 3F55553E 		.word	1045779775
 2892 2998 9FAAEA3E 		.word	1055566495
 2893 299c 3F55553E 		.word	1045779775
 2894 29a0 B0AA0A3F 		.word	1057663664
 2895 29a4 3F55553E 		.word	1045779775
 2896 29a8 B0AA0A3F 		.word	1057663664
 2897 29ac 3F55553E 		.word	1045779775
 2898 29b0 B0AA0A3F 		.word	1057663664
 2899 29b4 3F55553E 		.word	1045779775
 2900 29b8 B0AA0A3F 		.word	1057663664
 2901 29bc 3F55553E 		.word	1045779775
 2902 29c0 B0AA0A3F 		.word	1057663664
 2903 29c4 3F55553E 		.word	1045779775
 2904 29c8 B0AA0A3F 		.word	1057663664
 2905 29cc 3F55553E 		.word	1045779775
 2906 29d0 0000203F 		.word	1059061760
 2907 29d4 3F55553E 		.word	1045779775
 2908 29d8 0000203F 		.word	1059061760
 2909 29dc 3F55553E 		.word	1045779775
 2910 29e0 0000203F 		.word	1059061760
 2911 29e4 3F55553E 		.word	1045779775
 2912 29e8 0000203F 		.word	1059061760
 2913 29ec 3F55553E 		.word	1045779775
 2914 29f0 0000203F 		.word	1059061760
 2915 29f4 3F55553E 		.word	1045779775
 2916 29f8 0000203F 		.word	1059061760
 2917 29fc 3F55553E 		.word	1045779775
 2918 2a00 5055353F 		.word	1060459856
 2919 2a04 3F55553E 		.word	1045779775
 2920 2a08 5055353F 		.word	1060459856
 2921 2a0c 3F55553E 		.word	1045779775
 2922 2a10 5055353F 		.word	1060459856
 2923 2a14 3F55553E 		.word	1045779775
 2924 2a18 5055353F 		.word	1060459856
 2925 2a1c 3F55553E 		.word	1045779775
 2926 2a20 5055353F 		.word	1060459856
 2927 2a24 3F55553E 		.word	1045779775
 2928 2a28 5055353F 		.word	1060459856
ARM GAS  C:\Users\DJESSOU\AppData\Local\Temp\ccMfOXfy.s 			page 54


 2929 2a2c 3F55553E 		.word	1045779775
 2930 2a30 B0AA4A3F 		.word	1061857968
 2931 2a34 3F55553E 		.word	1045779775
 2932 2a38 B0AA4A3F 		.word	1061857968
 2933 2a3c 3F55553E 		.word	1045779775
 2934 2a40 B0AA4A3F 		.word	1061857968
 2935 2a44 3F55553E 		.word	1045779775
 2936 2a48 B0AA4A3F 		.word	1061857968
 2937 2a4c 3F55553E 		.word	1045779775
 2938 2a50 B0AA4A3F 		.word	1061857968
 2939 2a54 3F55553E 		.word	1045779775
 2940 2a58 B0AA4A3F 		.word	1061857968
 2941 2a5c 3F55553E 		.word	1045779775
 2942 2a60 0000603F 		.word	1063256064
 2943 2a64 3F55553E 		.word	1045779775
 2944 2a68 0000603F 		.word	1063256064
 2945 2a6c 3F55553E 		.word	1045779775
 2946 2a70 0000603F 		.word	1063256064
 2947 2a74 3F55553E 		.word	1045779775
 2948 2a78 0000603F 		.word	1063256064
 2949 2a7c 3F55553E 		.word	1045779775
 2950 2a80 0000603F 		.word	1063256064
 2951 2a84 3F55553E 		.word	1045779775
 2952 2a88 0000603F 		.word	1063256064
 2953 2a8c 3F55553E 		.word	1045779775
 2954 2a90 5055753F 		.word	1064654160
 2955 2a94 3F55553E 		.word	1045779775
 2956 2a98 5055753F 		.word	1064654160
 2957 2a9c 3F55553E 		.word	1045779775
 2958 2aa0 5055753F 		.word	1064654160
 2959 2aa4 3F55553E 		.word	1045779775
 2960 2aa8 5055753F 		.word	1064654160
 2961 2aac 3F55553E 		.word	1045779775
 2962 2ab0 5055753F 		.word	1064654160
 2963 2ab4 3F55553E 		.word	1045779775
 2964 2ab8 5055753F 		.word	1064654160
 2965 2abc 3F55553E 		.word	1045779775
 2966 2ac0 04AB2A3D 		.word	1026206468
 2967 2ac4 6155953E 		.word	1049974113
 2968 2ac8 04AB2A3D 		.word	1026206468
 2969 2acc 6155953E 		.word	1049974113
 2970 2ad0 04AB2A3D 		.word	1026206468
 2971 2ad4 6155953E 		.word	1049974113
 2972 2ad8 04AB2A3D 		.word	1026206468
 2973 2adc 6155953E 		.word	1049974113
 2974 2ae0 04AB2A3D 		.word	1026206468
 2975 2ae4 6155953E 		.word	1049974113
 2976 2ae8 04AB2A3D 		.word	1026206468
 2977 2aec 6155953E 		.word	1049974113
 2978 2af0 0000003E 		.word	1040187392
 2979 2af4 6155953E 		.word	1049974113
 2980 2af8 0000003E 		.word	1040187392
 2981 2afc 6155953E 		.word	1049974113
 2982 2b00 0000003E 		.word	1040187392
 2983 2b04 6155953E 		.word	1049974113
 2984 2b08 0000003E 		.word	1040187392
 2985 2b0c 6155953E 		.word	1049974113
ARM GAS  C:\Users\DJESSOU\AppData\Local\Temp\ccMfOXfy.s 			page 55


 2986 2b10 0000003E 		.word	1040187392
 2987 2b14 6155953E 		.word	1049974113
 2988 2b18 0000003E 		.word	1040187392
 2989 2b1c 6155953E 		.word	1049974113
 2990 2b20 3F55553E 		.word	1045779775
 2991 2b24 6155953E 		.word	1049974113
 2992 2b28 3F55553E 		.word	1045779775
 2993 2b2c 6155953E 		.word	1049974113
 2994 2b30 3F55553E 		.word	1045779775
 2995 2b34 6155953E 		.word	1049974113
 2996 2b38 3F55553E 		.word	1045779775
 2997 2b3c 6155953E 		.word	1049974113
 2998 2b40 3F55553E 		.word	1045779775
 2999 2b44 6155953E 		.word	1049974113
 3000 2b48 3F55553E 		.word	1045779775
 3001 2b4c 6155953E 		.word	1049974113
 3002 2b50 6155953E 		.word	1049974113
 3003 2b54 6155953E 		.word	1049974113
 3004 2b58 6155953E 		.word	1049974113
 3005 2b5c 6155953E 		.word	1049974113
 3006 2b60 6155953E 		.word	1049974113
 3007 2b64 6155953E 		.word	1049974113
 3008 2b68 6155953E 		.word	1049974113
 3009 2b6c 6155953E 		.word	1049974113
 3010 2b70 6155953E 		.word	1049974113
 3011 2b74 6155953E 		.word	1049974113
 3012 2b78 6155953E 		.word	1049974113
 3013 2b7c 6155953E 		.word	1049974113
 3014 2b80 0000C03E 		.word	1052770304
 3015 2b84 6155953E 		.word	1049974113
 3016 2b88 0000C03E 		.word	1052770304
 3017 2b8c 6155953E 		.word	1049974113
 3018 2b90 0000C03E 		.word	1052770304
 3019 2b94 6155953E 		.word	1049974113
 3020 2b98 0000C03E 		.word	1052770304
 3021 2b9c 6155953E 		.word	1049974113
 3022 2ba0 0000C03E 		.word	1052770304
 3023 2ba4 6155953E 		.word	1049974113
 3024 2ba8 0000C03E 		.word	1052770304
 3025 2bac 6155953E 		.word	1049974113
 3026 2bb0 9FAAEA3E 		.word	1055566495
 3027 2bb4 6155953E 		.word	1049974113
 3028 2bb8 9FAAEA3E 		.word	1055566495
 3029 2bbc 6155953E 		.word	1049974113
 3030 2bc0 9FAAEA3E 		.word	1055566495
 3031 2bc4 6155953E 		.word	1049974113
 3032 2bc8 9FAAEA3E 		.word	1055566495
 3033 2bcc 6155953E 		.word	1049974113
 3034 2bd0 9FAAEA3E 		.word	1055566495
 3035 2bd4 6155953E 		.word	1049974113
 3036 2bd8 9FAAEA3E 		.word	1055566495
 3037 2bdc 6155953E 		.word	1049974113
 3038 2be0 B0AA0A3F 		.word	1057663664
 3039 2be4 6155953E 		.word	1049974113
 3040 2be8 B0AA0A3F 		.word	1057663664
 3041 2bec 6155953E 		.word	1049974113
 3042 2bf0 B0AA0A3F 		.word	1057663664
ARM GAS  C:\Users\DJESSOU\AppData\Local\Temp\ccMfOXfy.s 			page 56


 3043 2bf4 6155953E 		.word	1049974113
 3044 2bf8 B0AA0A3F 		.word	1057663664
 3045 2bfc 6155953E 		.word	1049974113
 3046 2c00 B0AA0A3F 		.word	1057663664
 3047 2c04 6155953E 		.word	1049974113
 3048 2c08 B0AA0A3F 		.word	1057663664
 3049 2c0c 6155953E 		.word	1049974113
 3050 2c10 0000203F 		.word	1059061760
 3051 2c14 6155953E 		.word	1049974113
 3052 2c18 0000203F 		.word	1059061760
 3053 2c1c 6155953E 		.word	1049974113
 3054 2c20 0000203F 		.word	1059061760
 3055 2c24 6155953E 		.word	1049974113
 3056 2c28 0000203F 		.word	1059061760
 3057 2c2c 6155953E 		.word	1049974113
 3058 2c30 0000203F 		.word	1059061760
 3059 2c34 6155953E 		.word	1049974113
 3060 2c38 0000203F 		.word	1059061760
 3061 2c3c 6155953E 		.word	1049974113
 3062 2c40 5055353F 		.word	1060459856
 3063 2c44 6155953E 		.word	1049974113
 3064 2c48 5055353F 		.word	1060459856
 3065 2c4c 6155953E 		.word	1049974113
 3066 2c50 5055353F 		.word	1060459856
 3067 2c54 6155953E 		.word	1049974113
 3068 2c58 5055353F 		.word	1060459856
 3069 2c5c 6155953E 		.word	1049974113
 3070 2c60 5055353F 		.word	1060459856
 3071 2c64 6155953E 		.word	1049974113
 3072 2c68 5055353F 		.word	1060459856
 3073 2c6c 6155953E 		.word	1049974113
 3074 2c70 B0AA4A3F 		.word	1061857968
 3075 2c74 6155953E 		.word	1049974113
 3076 2c78 B0AA4A3F 		.word	1061857968
 3077 2c7c 6155953E 		.word	1049974113
 3078 2c80 B0AA4A3F 		.word	1061857968
 3079 2c84 6155953E 		.word	1049974113
 3080 2c88 B0AA4A3F 		.word	1061857968
 3081 2c8c 6155953E 		.word	1049974113
 3082 2c90 B0AA4A3F 		.word	1061857968
 3083 2c94 6155953E 		.word	1049974113
 3084 2c98 B0AA4A3F 		.word	1061857968
 3085 2c9c 6155953E 		.word	1049974113
 3086 2ca0 0000603F 		.word	1063256064
 3087 2ca4 6155953E 		.word	1049974113
 3088 2ca8 0000603F 		.word	1063256064
 3089 2cac 6155953E 		.word	1049974113
 3090 2cb0 0000603F 		.word	1063256064
 3091 2cb4 6155953E 		.word	1049974113
 3092 2cb8 0000603F 		.word	1063256064
 3093 2cbc 6155953E 		.word	1049974113
 3094 2cc0 0000603F 		.word	1063256064
 3095 2cc4 6155953E 		.word	1049974113
 3096 2cc8 0000603F 		.word	1063256064
 3097 2ccc 6155953E 		.word	1049974113
 3098 2cd0 5055753F 		.word	1064654160
 3099 2cd4 6155953E 		.word	1049974113
ARM GAS  C:\Users\DJESSOU\AppData\Local\Temp\ccMfOXfy.s 			page 57


 3100 2cd8 5055753F 		.word	1064654160
 3101 2cdc 6155953E 		.word	1049974113
 3102 2ce0 5055753F 		.word	1064654160
 3103 2ce4 6155953E 		.word	1049974113
 3104 2ce8 5055753F 		.word	1064654160
 3105 2cec 6155953E 		.word	1049974113
 3106 2cf0 5055753F 		.word	1064654160
 3107 2cf4 6155953E 		.word	1049974113
 3108 2cf8 5055753F 		.word	1064654160
 3109 2cfc 6155953E 		.word	1049974113
 3110 2d00 04AB2A3D 		.word	1026206468
 3111 2d04 0000C03E 		.word	1052770304
 3112 2d08 04AB2A3D 		.word	1026206468
 3113 2d0c 0000C03E 		.word	1052770304
 3114 2d10 04AB2A3D 		.word	1026206468
 3115 2d14 0000C03E 		.word	1052770304
 3116 2d18 04AB2A3D 		.word	1026206468
 3117 2d1c 0000C03E 		.word	1052770304
 3118 2d20 04AB2A3D 		.word	1026206468
 3119 2d24 0000C03E 		.word	1052770304
 3120 2d28 04AB2A3D 		.word	1026206468
 3121 2d2c 0000C03E 		.word	1052770304
 3122 2d30 0000003E 		.word	1040187392
 3123 2d34 0000C03E 		.word	1052770304
 3124 2d38 0000003E 		.word	1040187392
 3125 2d3c 0000C03E 		.word	1052770304
 3126 2d40 0000003E 		.word	1040187392
 3127 2d44 0000C03E 		.word	1052770304
 3128 2d48 0000003E 		.word	1040187392
 3129 2d4c 0000C03E 		.word	1052770304
 3130 2d50 0000003E 		.word	1040187392
 3131 2d54 0000C03E 		.word	1052770304
 3132 2d58 0000003E 		.word	1040187392
 3133 2d5c 0000C03E 		.word	1052770304
 3134 2d60 3F55553E 		.word	1045779775
 3135 2d64 0000C03E 		.word	1052770304
 3136 2d68 3F55553E 		.word	1045779775
 3137 2d6c 0000C03E 		.word	1052770304
 3138 2d70 3F55553E 		.word	1045779775
 3139 2d74 0000C03E 		.word	1052770304
 3140 2d78 3F55553E 		.word	1045779775
 3141 2d7c 0000C03E 		.word	1052770304
 3142 2d80 3F55553E 		.word	1045779775
 3143 2d84 0000C03E 		.word	1052770304
 3144 2d88 3F55553E 		.word	1045779775
 3145 2d8c 0000C03E 		.word	1052770304
 3146 2d90 6155953E 		.word	1049974113
 3147 2d94 0000C03E 		.word	1052770304
 3148 2d98 6155953E 		.word	1049974113
 3149 2d9c 0000C03E 		.word	1052770304
 3150 2da0 6155953E 		.word	1049974113
 3151 2da4 0000C03E 		.word	1052770304
 3152 2da8 6155953E 		.word	1049974113
 3153 2dac 0000C03E 		.word	1052770304
 3154 2db0 6155953E 		.word	1049974113
 3155 2db4 0000C03E 		.word	1052770304
 3156 2db8 6155953E 		.word	1049974113
ARM GAS  C:\Users\DJESSOU\AppData\Local\Temp\ccMfOXfy.s 			page 58


 3157 2dbc 0000C03E 		.word	1052770304
 3158 2dc0 0000C03E 		.word	1052770304
 3159 2dc4 0000C03E 		.word	1052770304
 3160 2dc8 0000C03E 		.word	1052770304
 3161 2dcc 0000C03E 		.word	1052770304
 3162 2dd0 0000C03E 		.word	1052770304
 3163 2dd4 0000C03E 		.word	1052770304
 3164 2dd8 0000C03E 		.word	1052770304
 3165 2ddc 0000C03E 		.word	1052770304
 3166 2de0 0000C03E 		.word	1052770304
 3167 2de4 0000C03E 		.word	1052770304
 3168 2de8 0000C03E 		.word	1052770304
 3169 2dec 0000C03E 		.word	1052770304
 3170 2df0 9FAAEA3E 		.word	1055566495
 3171 2df4 0000C03E 		.word	1052770304
 3172 2df8 9FAAEA3E 		.word	1055566495
 3173 2dfc 0000C03E 		.word	1052770304
 3174 2e00 9FAAEA3E 		.word	1055566495
 3175 2e04 0000C03E 		.word	1052770304
 3176 2e08 9FAAEA3E 		.word	1055566495
 3177 2e0c 0000C03E 		.word	1052770304
 3178 2e10 9FAAEA3E 		.word	1055566495
 3179 2e14 0000C03E 		.word	1052770304
 3180 2e18 9FAAEA3E 		.word	1055566495
 3181 2e1c 0000C03E 		.word	1052770304
 3182 2e20 B0AA0A3F 		.word	1057663664
 3183 2e24 0000C03E 		.word	1052770304
 3184 2e28 B0AA0A3F 		.word	1057663664
 3185 2e2c 0000C03E 		.word	1052770304
 3186 2e30 B0AA0A3F 		.word	1057663664
 3187 2e34 0000C03E 		.word	1052770304
 3188 2e38 B0AA0A3F 		.word	1057663664
 3189 2e3c 0000C03E 		.word	1052770304
 3190 2e40 B0AA0A3F 		.word	1057663664
 3191 2e44 0000C03E 		.word	1052770304
 3192 2e48 B0AA0A3F 		.word	1057663664
 3193 2e4c 0000C03E 		.word	1052770304
 3194 2e50 0000203F 		.word	1059061760
 3195 2e54 0000C03E 		.word	1052770304
 3196 2e58 0000203F 		.word	1059061760
 3197 2e5c 0000C03E 		.word	1052770304
 3198 2e60 0000203F 		.word	1059061760
 3199 2e64 0000C03E 		.word	1052770304
 3200 2e68 0000203F 		.word	1059061760
 3201 2e6c 0000C03E 		.word	1052770304
 3202 2e70 0000203F 		.word	1059061760
 3203 2e74 0000C03E 		.word	1052770304
 3204 2e78 0000203F 		.word	1059061760
 3205 2e7c 0000C03E 		.word	1052770304
 3206 2e80 5055353F 		.word	1060459856
 3207 2e84 0000C03E 		.word	1052770304
 3208 2e88 5055353F 		.word	1060459856
 3209 2e8c 0000C03E 		.word	1052770304
 3210 2e90 5055353F 		.word	1060459856
 3211 2e94 0000C03E 		.word	1052770304
 3212 2e98 5055353F 		.word	1060459856
 3213 2e9c 0000C03E 		.word	1052770304
ARM GAS  C:\Users\DJESSOU\AppData\Local\Temp\ccMfOXfy.s 			page 59


 3214 2ea0 5055353F 		.word	1060459856
 3215 2ea4 0000C03E 		.word	1052770304
 3216 2ea8 5055353F 		.word	1060459856
 3217 2eac 0000C03E 		.word	1052770304
 3218 2eb0 B0AA4A3F 		.word	1061857968
 3219 2eb4 0000C03E 		.word	1052770304
 3220 2eb8 B0AA4A3F 		.word	1061857968
 3221 2ebc 0000C03E 		.word	1052770304
 3222 2ec0 B0AA4A3F 		.word	1061857968
 3223 2ec4 0000C03E 		.word	1052770304
 3224 2ec8 B0AA4A3F 		.word	1061857968
 3225 2ecc 0000C03E 		.word	1052770304
 3226 2ed0 B0AA4A3F 		.word	1061857968
 3227 2ed4 0000C03E 		.word	1052770304
 3228 2ed8 B0AA4A3F 		.word	1061857968
 3229 2edc 0000C03E 		.word	1052770304
 3230 2ee0 0000603F 		.word	1063256064
 3231 2ee4 0000C03E 		.word	1052770304
 3232 2ee8 0000603F 		.word	1063256064
 3233 2eec 0000C03E 		.word	1052770304
 3234 2ef0 0000603F 		.word	1063256064
 3235 2ef4 0000C03E 		.word	1052770304
 3236 2ef8 0000603F 		.word	1063256064
 3237 2efc 0000C03E 		.word	1052770304
 3238 2f00 0000603F 		.word	1063256064
 3239 2f04 0000C03E 		.word	1052770304
 3240 2f08 0000603F 		.word	1063256064
 3241 2f0c 0000C03E 		.word	1052770304
 3242 2f10 5055753F 		.word	1064654160
 3243 2f14 0000C03E 		.word	1052770304
 3244 2f18 5055753F 		.word	1064654160
 3245 2f1c 0000C03E 		.word	1052770304
 3246 2f20 5055753F 		.word	1064654160
 3247 2f24 0000C03E 		.word	1052770304
 3248 2f28 5055753F 		.word	1064654160
 3249 2f2c 0000C03E 		.word	1052770304
 3250 2f30 5055753F 		.word	1064654160
 3251 2f34 0000C03E 		.word	1052770304
 3252 2f38 5055753F 		.word	1064654160
 3253 2f3c 0000C03E 		.word	1052770304
 3254 2f40 04AB2A3D 		.word	1026206468
 3255 2f44 9FAAEA3E 		.word	1055566495
 3256 2f48 04AB2A3D 		.word	1026206468
 3257 2f4c 9FAAEA3E 		.word	1055566495
 3258 2f50 04AB2A3D 		.word	1026206468
 3259 2f54 9FAAEA3E 		.word	1055566495
 3260 2f58 04AB2A3D 		.word	1026206468
 3261 2f5c 9FAAEA3E 		.word	1055566495
 3262 2f60 04AB2A3D 		.word	1026206468
 3263 2f64 9FAAEA3E 		.word	1055566495
 3264 2f68 04AB2A3D 		.word	1026206468
 3265 2f6c 9FAAEA3E 		.word	1055566495
 3266 2f70 0000003E 		.word	1040187392
 3267 2f74 9FAAEA3E 		.word	1055566495
 3268 2f78 0000003E 		.word	1040187392
 3269 2f7c 9FAAEA3E 		.word	1055566495
 3270 2f80 0000003E 		.word	1040187392
ARM GAS  C:\Users\DJESSOU\AppData\Local\Temp\ccMfOXfy.s 			page 60


 3271 2f84 9FAAEA3E 		.word	1055566495
 3272 2f88 0000003E 		.word	1040187392
 3273 2f8c 9FAAEA3E 		.word	1055566495
 3274 2f90 0000003E 		.word	1040187392
 3275 2f94 9FAAEA3E 		.word	1055566495
 3276 2f98 0000003E 		.word	1040187392
 3277 2f9c 9FAAEA3E 		.word	1055566495
 3278 2fa0 3F55553E 		.word	1045779775
 3279 2fa4 9FAAEA3E 		.word	1055566495
 3280 2fa8 3F55553E 		.word	1045779775
 3281 2fac 9FAAEA3E 		.word	1055566495
 3282 2fb0 3F55553E 		.word	1045779775
 3283 2fb4 9FAAEA3E 		.word	1055566495
 3284 2fb8 3F55553E 		.word	1045779775
 3285 2fbc 9FAAEA3E 		.word	1055566495
 3286 2fc0 3F55553E 		.word	1045779775
 3287 2fc4 9FAAEA3E 		.word	1055566495
 3288 2fc8 3F55553E 		.word	1045779775
 3289 2fcc 9FAAEA3E 		.word	1055566495
 3290 2fd0 6155953E 		.word	1049974113
 3291 2fd4 9FAAEA3E 		.word	1055566495
 3292 2fd8 6155953E 		.word	1049974113
 3293 2fdc 9FAAEA3E 		.word	1055566495
 3294 2fe0 6155953E 		.word	1049974113
 3295 2fe4 9FAAEA3E 		.word	1055566495
 3296 2fe8 6155953E 		.word	1049974113
 3297 2fec 9FAAEA3E 		.word	1055566495
 3298 2ff0 6155953E 		.word	1049974113
 3299 2ff4 9FAAEA3E 		.word	1055566495
 3300 2ff8 6155953E 		.word	1049974113
 3301 2ffc 9FAAEA3E 		.word	1055566495
 3302 3000 0000C03E 		.word	1052770304
 3303 3004 9FAAEA3E 		.word	1055566495
 3304 3008 0000C03E 		.word	1052770304
 3305 300c 9FAAEA3E 		.word	1055566495
 3306 3010 0000C03E 		.word	1052770304
 3307 3014 9FAAEA3E 		.word	1055566495
 3308 3018 0000C03E 		.word	1052770304
 3309 301c 9FAAEA3E 		.word	1055566495
 3310 3020 0000C03E 		.word	1052770304
 3311 3024 9FAAEA3E 		.word	1055566495
 3312 3028 0000C03E 		.word	1052770304
 3313 302c 9FAAEA3E 		.word	1055566495
 3314 3030 9FAAEA3E 		.word	1055566495
 3315 3034 9FAAEA3E 		.word	1055566495
 3316 3038 9FAAEA3E 		.word	1055566495
 3317 303c 9FAAEA3E 		.word	1055566495
 3318 3040 9FAAEA3E 		.word	1055566495
 3319 3044 9FAAEA3E 		.word	1055566495
 3320 3048 9FAAEA3E 		.word	1055566495
 3321 304c 9FAAEA3E 		.word	1055566495
 3322 3050 9FAAEA3E 		.word	1055566495
 3323 3054 9FAAEA3E 		.word	1055566495
 3324 3058 9FAAEA3E 		.word	1055566495
 3325 305c 9FAAEA3E 		.word	1055566495
 3326 3060 B0AA0A3F 		.word	1057663664
 3327 3064 9FAAEA3E 		.word	1055566495
ARM GAS  C:\Users\DJESSOU\AppData\Local\Temp\ccMfOXfy.s 			page 61


 3328 3068 B0AA0A3F 		.word	1057663664
 3329 306c 9FAAEA3E 		.word	1055566495
 3330 3070 B0AA0A3F 		.word	1057663664
 3331 3074 9FAAEA3E 		.word	1055566495
 3332 3078 B0AA0A3F 		.word	1057663664
 3333 307c 9FAAEA3E 		.word	1055566495
 3334 3080 B0AA0A3F 		.word	1057663664
 3335 3084 9FAAEA3E 		.word	1055566495
 3336 3088 B0AA0A3F 		.word	1057663664
 3337 308c 9FAAEA3E 		.word	1055566495
 3338 3090 0000203F 		.word	1059061760
 3339 3094 9FAAEA3E 		.word	1055566495
 3340 3098 0000203F 		.word	1059061760
 3341 309c 9FAAEA3E 		.word	1055566495
 3342 30a0 0000203F 		.word	1059061760
 3343 30a4 9FAAEA3E 		.word	1055566495
 3344 30a8 0000203F 		.word	1059061760
 3345 30ac 9FAAEA3E 		.word	1055566495
 3346 30b0 0000203F 		.word	1059061760
 3347 30b4 9FAAEA3E 		.word	1055566495
 3348 30b8 0000203F 		.word	1059061760
 3349 30bc 9FAAEA3E 		.word	1055566495
 3350 30c0 5055353F 		.word	1060459856
 3351 30c4 9FAAEA3E 		.word	1055566495
 3352 30c8 5055353F 		.word	1060459856
 3353 30cc 9FAAEA3E 		.word	1055566495
 3354 30d0 5055353F 		.word	1060459856
 3355 30d4 9FAAEA3E 		.word	1055566495
 3356 30d8 5055353F 		.word	1060459856
 3357 30dc 9FAAEA3E 		.word	1055566495
 3358 30e0 5055353F 		.word	1060459856
 3359 30e4 9FAAEA3E 		.word	1055566495
 3360 30e8 5055353F 		.word	1060459856
 3361 30ec 9FAAEA3E 		.word	1055566495
 3362 30f0 B0AA4A3F 		.word	1061857968
 3363 30f4 9FAAEA3E 		.word	1055566495
 3364 30f8 B0AA4A3F 		.word	1061857968
 3365 30fc 9FAAEA3E 		.word	1055566495
 3366 3100 B0AA4A3F 		.word	1061857968
 3367 3104 9FAAEA3E 		.word	1055566495
 3368 3108 B0AA4A3F 		.word	1061857968
 3369 310c 9FAAEA3E 		.word	1055566495
 3370 3110 B0AA4A3F 		.word	1061857968
 3371 3114 9FAAEA3E 		.word	1055566495
 3372 3118 B0AA4A3F 		.word	1061857968
 3373 311c 9FAAEA3E 		.word	1055566495
 3374 3120 0000603F 		.word	1063256064
 3375 3124 9FAAEA3E 		.word	1055566495
 3376 3128 0000603F 		.word	1063256064
 3377 312c 9FAAEA3E 		.word	1055566495
 3378 3130 0000603F 		.word	1063256064
 3379 3134 9FAAEA3E 		.word	1055566495
 3380 3138 0000603F 		.word	1063256064
 3381 313c 9FAAEA3E 		.word	1055566495
 3382 3140 0000603F 		.word	1063256064
 3383 3144 9FAAEA3E 		.word	1055566495
 3384 3148 0000603F 		.word	1063256064
ARM GAS  C:\Users\DJESSOU\AppData\Local\Temp\ccMfOXfy.s 			page 62


 3385 314c 9FAAEA3E 		.word	1055566495
 3386 3150 5055753F 		.word	1064654160
 3387 3154 9FAAEA3E 		.word	1055566495
 3388 3158 5055753F 		.word	1064654160
 3389 315c 9FAAEA3E 		.word	1055566495
 3390 3160 5055753F 		.word	1064654160
 3391 3164 9FAAEA3E 		.word	1055566495
 3392 3168 5055753F 		.word	1064654160
 3393 316c 9FAAEA3E 		.word	1055566495
 3394 3170 5055753F 		.word	1064654160
 3395 3174 9FAAEA3E 		.word	1055566495
 3396 3178 5055753F 		.word	1064654160
 3397 317c 9FAAEA3E 		.word	1055566495
 3398 3180 04AB2A3D 		.word	1026206468
 3399 3184 B0AA0A3F 		.word	1057663664
 3400 3188 04AB2A3D 		.word	1026206468
 3401 318c B0AA0A3F 		.word	1057663664
 3402 3190 04AB2A3D 		.word	1026206468
 3403 3194 B0AA0A3F 		.word	1057663664
 3404 3198 04AB2A3D 		.word	1026206468
 3405 319c B0AA0A3F 		.word	1057663664
 3406 31a0 04AB2A3D 		.word	1026206468
 3407 31a4 B0AA0A3F 		.word	1057663664
 3408 31a8 04AB2A3D 		.word	1026206468
 3409 31ac B0AA0A3F 		.word	1057663664
 3410 31b0 0000003E 		.word	1040187392
 3411 31b4 B0AA0A3F 		.word	1057663664
 3412 31b8 0000003E 		.word	1040187392
 3413 31bc B0AA0A3F 		.word	1057663664
 3414 31c0 0000003E 		.word	1040187392
 3415 31c4 B0AA0A3F 		.word	1057663664
 3416 31c8 0000003E 		.word	1040187392
 3417 31cc B0AA0A3F 		.word	1057663664
 3418 31d0 0000003E 		.word	1040187392
 3419 31d4 B0AA0A3F 		.word	1057663664
 3420 31d8 0000003E 		.word	1040187392
 3421 31dc B0AA0A3F 		.word	1057663664
 3422 31e0 3F55553E 		.word	1045779775
 3423 31e4 B0AA0A3F 		.word	1057663664
 3424 31e8 3F55553E 		.word	1045779775
 3425 31ec B0AA0A3F 		.word	1057663664
 3426 31f0 3F55553E 		.word	1045779775
 3427 31f4 B0AA0A3F 		.word	1057663664
 3428 31f8 3F55553E 		.word	1045779775
 3429 31fc B0AA0A3F 		.word	1057663664
 3430 3200 3F55553E 		.word	1045779775
 3431 3204 B0AA0A3F 		.word	1057663664
 3432 3208 3F55553E 		.word	1045779775
 3433 320c B0AA0A3F 		.word	1057663664
 3434 3210 6155953E 		.word	1049974113
 3435 3214 B0AA0A3F 		.word	1057663664
 3436 3218 6155953E 		.word	1049974113
 3437 321c B0AA0A3F 		.word	1057663664
 3438 3220 6155953E 		.word	1049974113
 3439 3224 B0AA0A3F 		.word	1057663664
 3440 3228 6155953E 		.word	1049974113
 3441 322c B0AA0A3F 		.word	1057663664
ARM GAS  C:\Users\DJESSOU\AppData\Local\Temp\ccMfOXfy.s 			page 63


 3442 3230 6155953E 		.word	1049974113
 3443 3234 B0AA0A3F 		.word	1057663664
 3444 3238 6155953E 		.word	1049974113
 3445 323c B0AA0A3F 		.word	1057663664
 3446 3240 0000C03E 		.word	1052770304
 3447 3244 B0AA0A3F 		.word	1057663664
 3448 3248 0000C03E 		.word	1052770304
 3449 324c B0AA0A3F 		.word	1057663664
 3450 3250 0000C03E 		.word	1052770304
 3451 3254 B0AA0A3F 		.word	1057663664
 3452 3258 0000C03E 		.word	1052770304
 3453 325c B0AA0A3F 		.word	1057663664
 3454 3260 0000C03E 		.word	1052770304
 3455 3264 B0AA0A3F 		.word	1057663664
 3456 3268 0000C03E 		.word	1052770304
 3457 326c B0AA0A3F 		.word	1057663664
 3458 3270 9FAAEA3E 		.word	1055566495
 3459 3274 B0AA0A3F 		.word	1057663664
 3460 3278 9FAAEA3E 		.word	1055566495
 3461 327c B0AA0A3F 		.word	1057663664
 3462 3280 9FAAEA3E 		.word	1055566495
 3463 3284 B0AA0A3F 		.word	1057663664
 3464 3288 9FAAEA3E 		.word	1055566495
 3465 328c B0AA0A3F 		.word	1057663664
 3466 3290 9FAAEA3E 		.word	1055566495
 3467 3294 B0AA0A3F 		.word	1057663664
 3468 3298 9FAAEA3E 		.word	1055566495
 3469 329c B0AA0A3F 		.word	1057663664
 3470 32a0 B0AA0A3F 		.word	1057663664
 3471 32a4 B0AA0A3F 		.word	1057663664
 3472 32a8 B0AA0A3F 		.word	1057663664
 3473 32ac B0AA0A3F 		.word	1057663664
 3474 32b0 B0AA0A3F 		.word	1057663664
 3475 32b4 B0AA0A3F 		.word	1057663664
 3476 32b8 B0AA0A3F 		.word	1057663664
 3477 32bc B0AA0A3F 		.word	1057663664
 3478 32c0 B0AA0A3F 		.word	1057663664
 3479 32c4 B0AA0A3F 		.word	1057663664
 3480 32c8 B0AA0A3F 		.word	1057663664
 3481 32cc B0AA0A3F 		.word	1057663664
 3482 32d0 0000203F 		.word	1059061760
 3483 32d4 B0AA0A3F 		.word	1057663664
 3484 32d8 0000203F 		.word	1059061760
 3485 32dc B0AA0A3F 		.word	1057663664
 3486 32e0 0000203F 		.word	1059061760
 3487 32e4 B0AA0A3F 		.word	1057663664
 3488 32e8 0000203F 		.word	1059061760
 3489 32ec B0AA0A3F 		.word	1057663664
 3490 32f0 0000203F 		.word	1059061760
 3491 32f4 B0AA0A3F 		.word	1057663664
 3492 32f8 0000203F 		.word	1059061760
 3493 32fc B0AA0A3F 		.word	1057663664
 3494 3300 5055353F 		.word	1060459856
 3495 3304 B0AA0A3F 		.word	1057663664
 3496 3308 5055353F 		.word	1060459856
 3497 330c B0AA0A3F 		.word	1057663664
 3498 3310 5055353F 		.word	1060459856
ARM GAS  C:\Users\DJESSOU\AppData\Local\Temp\ccMfOXfy.s 			page 64


 3499 3314 B0AA0A3F 		.word	1057663664
 3500 3318 5055353F 		.word	1060459856
 3501 331c B0AA0A3F 		.word	1057663664
 3502 3320 5055353F 		.word	1060459856
 3503 3324 B0AA0A3F 		.word	1057663664
 3504 3328 5055353F 		.word	1060459856
 3505 332c B0AA0A3F 		.word	1057663664
 3506 3330 B0AA4A3F 		.word	1061857968
 3507 3334 B0AA0A3F 		.word	1057663664
 3508 3338 B0AA4A3F 		.word	1061857968
 3509 333c B0AA0A3F 		.word	1057663664
 3510 3340 B0AA4A3F 		.word	1061857968
 3511 3344 B0AA0A3F 		.word	1057663664
 3512 3348 B0AA4A3F 		.word	1061857968
 3513 334c B0AA0A3F 		.word	1057663664
 3514 3350 B0AA4A3F 		.word	1061857968
 3515 3354 B0AA0A3F 		.word	1057663664
 3516 3358 B0AA4A3F 		.word	1061857968
 3517 335c B0AA0A3F 		.word	1057663664
 3518 3360 0000603F 		.word	1063256064
 3519 3364 B0AA0A3F 		.word	1057663664
 3520 3368 0000603F 		.word	1063256064
 3521 336c B0AA0A3F 		.word	1057663664
 3522 3370 0000603F 		.word	1063256064
 3523 3374 B0AA0A3F 		.word	1057663664
 3524 3378 0000603F 		.word	1063256064
 3525 337c B0AA0A3F 		.word	1057663664
 3526 3380 0000603F 		.word	1063256064
 3527 3384 B0AA0A3F 		.word	1057663664
 3528 3388 0000603F 		.word	1063256064
 3529 338c B0AA0A3F 		.word	1057663664
 3530 3390 5055753F 		.word	1064654160
 3531 3394 B0AA0A3F 		.word	1057663664
 3532 3398 5055753F 		.word	1064654160
 3533 339c B0AA0A3F 		.word	1057663664
 3534 33a0 5055753F 		.word	1064654160
 3535 33a4 B0AA0A3F 		.word	1057663664
 3536 33a8 5055753F 		.word	1064654160
 3537 33ac B0AA0A3F 		.word	1057663664
 3538 33b0 5055753F 		.word	1064654160
 3539 33b4 B0AA0A3F 		.word	1057663664
 3540 33b8 5055753F 		.word	1064654160
 3541 33bc B0AA0A3F 		.word	1057663664
 3542 33c0 04AB2A3D 		.word	1026206468
 3543 33c4 0000203F 		.word	1059061760
 3544 33c8 04AB2A3D 		.word	1026206468
 3545 33cc 0000203F 		.word	1059061760
 3546 33d0 04AB2A3D 		.word	1026206468
 3547 33d4 0000203F 		.word	1059061760
 3548 33d8 04AB2A3D 		.word	1026206468
 3549 33dc 0000203F 		.word	1059061760
 3550 33e0 04AB2A3D 		.word	1026206468
 3551 33e4 0000203F 		.word	1059061760
 3552 33e8 04AB2A3D 		.word	1026206468
 3553 33ec 0000203F 		.word	1059061760
 3554 33f0 0000003E 		.word	1040187392
 3555 33f4 0000203F 		.word	1059061760
ARM GAS  C:\Users\DJESSOU\AppData\Local\Temp\ccMfOXfy.s 			page 65


 3556 33f8 0000003E 		.word	1040187392
 3557 33fc 0000203F 		.word	1059061760
 3558 3400 0000003E 		.word	1040187392
 3559 3404 0000203F 		.word	1059061760
 3560 3408 0000003E 		.word	1040187392
 3561 340c 0000203F 		.word	1059061760
 3562 3410 0000003E 		.word	1040187392
 3563 3414 0000203F 		.word	1059061760
 3564 3418 0000003E 		.word	1040187392
 3565 341c 0000203F 		.word	1059061760
 3566 3420 3F55553E 		.word	1045779775
 3567 3424 0000203F 		.word	1059061760
 3568 3428 3F55553E 		.word	1045779775
 3569 342c 0000203F 		.word	1059061760
 3570 3430 3F55553E 		.word	1045779775
 3571 3434 0000203F 		.word	1059061760
 3572 3438 3F55553E 		.word	1045779775
 3573 343c 0000203F 		.word	1059061760
 3574 3440 3F55553E 		.word	1045779775
 3575 3444 0000203F 		.word	1059061760
 3576 3448 3F55553E 		.word	1045779775
 3577 344c 0000203F 		.word	1059061760
 3578 3450 6155953E 		.word	1049974113
 3579 3454 0000203F 		.word	1059061760
 3580 3458 6155953E 		.word	1049974113
 3581 345c 0000203F 		.word	1059061760
 3582 3460 6155953E 		.word	1049974113
 3583 3464 0000203F 		.word	1059061760
 3584 3468 6155953E 		.word	1049974113
 3585 346c 0000203F 		.word	1059061760
 3586 3470 6155953E 		.word	1049974113
 3587 3474 0000203F 		.word	1059061760
 3588 3478 6155953E 		.word	1049974113
 3589 347c 0000203F 		.word	1059061760
 3590 3480 0000C03E 		.word	1052770304
 3591 3484 0000203F 		.word	1059061760
 3592 3488 0000C03E 		.word	1052770304
 3593 348c 0000203F 		.word	1059061760
 3594 3490 0000C03E 		.word	1052770304
 3595 3494 0000203F 		.word	1059061760
 3596 3498 0000C03E 		.word	1052770304
 3597 349c 0000203F 		.word	1059061760
 3598 34a0 0000C03E 		.word	1052770304
 3599 34a4 0000203F 		.word	1059061760
 3600 34a8 0000C03E 		.word	1052770304
 3601 34ac 0000203F 		.word	1059061760
 3602 34b0 9FAAEA3E 		.word	1055566495
 3603 34b4 0000203F 		.word	1059061760
 3604 34b8 9FAAEA3E 		.word	1055566495
 3605 34bc 0000203F 		.word	1059061760
 3606 34c0 9FAAEA3E 		.word	1055566495
 3607 34c4 0000203F 		.word	1059061760
 3608 34c8 9FAAEA3E 		.word	1055566495
 3609 34cc 0000203F 		.word	1059061760
 3610 34d0 9FAAEA3E 		.word	1055566495
 3611 34d4 0000203F 		.word	1059061760
 3612 34d8 9FAAEA3E 		.word	1055566495
ARM GAS  C:\Users\DJESSOU\AppData\Local\Temp\ccMfOXfy.s 			page 66


 3613 34dc 0000203F 		.word	1059061760
 3614 34e0 B0AA0A3F 		.word	1057663664
 3615 34e4 0000203F 		.word	1059061760
 3616 34e8 B0AA0A3F 		.word	1057663664
 3617 34ec 0000203F 		.word	1059061760
 3618 34f0 B0AA0A3F 		.word	1057663664
 3619 34f4 0000203F 		.word	1059061760
 3620 34f8 B0AA0A3F 		.word	1057663664
 3621 34fc 0000203F 		.word	1059061760
 3622 3500 B0AA0A3F 		.word	1057663664
 3623 3504 0000203F 		.word	1059061760
 3624 3508 B0AA0A3F 		.word	1057663664
 3625 350c 0000203F 		.word	1059061760
 3626 3510 0000203F 		.word	1059061760
 3627 3514 0000203F 		.word	1059061760
 3628 3518 0000203F 		.word	1059061760
 3629 351c 0000203F 		.word	1059061760
 3630 3520 0000203F 		.word	1059061760
 3631 3524 0000203F 		.word	1059061760
 3632 3528 0000203F 		.word	1059061760
 3633 352c 0000203F 		.word	1059061760
 3634 3530 0000203F 		.word	1059061760
 3635 3534 0000203F 		.word	1059061760
 3636 3538 0000203F 		.word	1059061760
 3637 353c 0000203F 		.word	1059061760
 3638 3540 5055353F 		.word	1060459856
 3639 3544 0000203F 		.word	1059061760
 3640 3548 5055353F 		.word	1060459856
 3641 354c 0000203F 		.word	1059061760
 3642 3550 5055353F 		.word	1060459856
 3643 3554 0000203F 		.word	1059061760
 3644 3558 5055353F 		.word	1060459856
 3645 355c 0000203F 		.word	1059061760
 3646 3560 5055353F 		.word	1060459856
 3647 3564 0000203F 		.word	1059061760
 3648 3568 5055353F 		.word	1060459856
 3649 356c 0000203F 		.word	1059061760
 3650 3570 B0AA4A3F 		.word	1061857968
 3651 3574 0000203F 		.word	1059061760
 3652 3578 B0AA4A3F 		.word	1061857968
 3653 357c 0000203F 		.word	1059061760
 3654 3580 B0AA4A3F 		.word	1061857968
 3655 3584 0000203F 		.word	1059061760
 3656 3588 B0AA4A3F 		.word	1061857968
 3657 358c 0000203F 		.word	1059061760
 3658 3590 B0AA4A3F 		.word	1061857968
 3659 3594 0000203F 		.word	1059061760
 3660 3598 B0AA4A3F 		.word	1061857968
 3661 359c 0000203F 		.word	1059061760
 3662 35a0 0000603F 		.word	1063256064
 3663 35a4 0000203F 		.word	1059061760
 3664 35a8 0000603F 		.word	1063256064
 3665 35ac 0000203F 		.word	1059061760
 3666 35b0 0000603F 		.word	1063256064
 3667 35b4 0000203F 		.word	1059061760
 3668 35b8 0000603F 		.word	1063256064
 3669 35bc 0000203F 		.word	1059061760
ARM GAS  C:\Users\DJESSOU\AppData\Local\Temp\ccMfOXfy.s 			page 67


 3670 35c0 0000603F 		.word	1063256064
 3671 35c4 0000203F 		.word	1059061760
 3672 35c8 0000603F 		.word	1063256064
 3673 35cc 0000203F 		.word	1059061760
 3674 35d0 5055753F 		.word	1064654160
 3675 35d4 0000203F 		.word	1059061760
 3676 35d8 5055753F 		.word	1064654160
 3677 35dc 0000203F 		.word	1059061760
 3678 35e0 5055753F 		.word	1064654160
 3679 35e4 0000203F 		.word	1059061760
 3680 35e8 5055753F 		.word	1064654160
 3681 35ec 0000203F 		.word	1059061760
 3682 35f0 5055753F 		.word	1064654160
 3683 35f4 0000203F 		.word	1059061760
 3684 35f8 5055753F 		.word	1064654160
 3685 35fc 0000203F 		.word	1059061760
 3686 3600 04AB2A3D 		.word	1026206468
 3687 3604 5055353F 		.word	1060459856
 3688 3608 04AB2A3D 		.word	1026206468
 3689 360c 5055353F 		.word	1060459856
 3690 3610 04AB2A3D 		.word	1026206468
 3691 3614 5055353F 		.word	1060459856
 3692 3618 04AB2A3D 		.word	1026206468
 3693 361c 5055353F 		.word	1060459856
 3694 3620 04AB2A3D 		.word	1026206468
 3695 3624 5055353F 		.word	1060459856
 3696 3628 04AB2A3D 		.word	1026206468
 3697 362c 5055353F 		.word	1060459856
 3698 3630 0000003E 		.word	1040187392
 3699 3634 5055353F 		.word	1060459856
 3700 3638 0000003E 		.word	1040187392
 3701 363c 5055353F 		.word	1060459856
 3702 3640 0000003E 		.word	1040187392
 3703 3644 5055353F 		.word	1060459856
 3704 3648 0000003E 		.word	1040187392
 3705 364c 5055353F 		.word	1060459856
 3706 3650 0000003E 		.word	1040187392
 3707 3654 5055353F 		.word	1060459856
 3708 3658 0000003E 		.word	1040187392
 3709 365c 5055353F 		.word	1060459856
 3710 3660 3F55553E 		.word	1045779775
 3711 3664 5055353F 		.word	1060459856
 3712 3668 3F55553E 		.word	1045779775
 3713 366c 5055353F 		.word	1060459856
 3714 3670 3F55553E 		.word	1045779775
 3715 3674 5055353F 		.word	1060459856
 3716 3678 3F55553E 		.word	1045779775
 3717 367c 5055353F 		.word	1060459856
 3718 3680 3F55553E 		.word	1045779775
 3719 3684 5055353F 		.word	1060459856
 3720 3688 3F55553E 		.word	1045779775
 3721 368c 5055353F 		.word	1060459856
 3722 3690 6155953E 		.word	1049974113
 3723 3694 5055353F 		.word	1060459856
 3724 3698 6155953E 		.word	1049974113
 3725 369c 5055353F 		.word	1060459856
 3726 36a0 6155953E 		.word	1049974113
ARM GAS  C:\Users\DJESSOU\AppData\Local\Temp\ccMfOXfy.s 			page 68


 3727 36a4 5055353F 		.word	1060459856
 3728 36a8 6155953E 		.word	1049974113
 3729 36ac 5055353F 		.word	1060459856
 3730 36b0 6155953E 		.word	1049974113
 3731 36b4 5055353F 		.word	1060459856
 3732 36b8 6155953E 		.word	1049974113
 3733 36bc 5055353F 		.word	1060459856
 3734 36c0 0000C03E 		.word	1052770304
 3735 36c4 5055353F 		.word	1060459856
 3736 36c8 0000C03E 		.word	1052770304
 3737 36cc 5055353F 		.word	1060459856
 3738 36d0 0000C03E 		.word	1052770304
 3739 36d4 5055353F 		.word	1060459856
 3740 36d8 0000C03E 		.word	1052770304
 3741 36dc 5055353F 		.word	1060459856
 3742 36e0 0000C03E 		.word	1052770304
 3743 36e4 5055353F 		.word	1060459856
 3744 36e8 0000C03E 		.word	1052770304
 3745 36ec 5055353F 		.word	1060459856
 3746 36f0 9FAAEA3E 		.word	1055566495
 3747 36f4 5055353F 		.word	1060459856
 3748 36f8 9FAAEA3E 		.word	1055566495
 3749 36fc 5055353F 		.word	1060459856
 3750 3700 9FAAEA3E 		.word	1055566495
 3751 3704 5055353F 		.word	1060459856
 3752 3708 9FAAEA3E 		.word	1055566495
 3753 370c 5055353F 		.word	1060459856
 3754 3710 9FAAEA3E 		.word	1055566495
 3755 3714 5055353F 		.word	1060459856
 3756 3718 9FAAEA3E 		.word	1055566495
 3757 371c 5055353F 		.word	1060459856
 3758 3720 B0AA0A3F 		.word	1057663664
 3759 3724 5055353F 		.word	1060459856
 3760 3728 B0AA0A3F 		.word	1057663664
 3761 372c 5055353F 		.word	1060459856
 3762 3730 B0AA0A3F 		.word	1057663664
 3763 3734 5055353F 		.word	1060459856
 3764 3738 B0AA0A3F 		.word	1057663664
 3765 373c 5055353F 		.word	1060459856
 3766 3740 B0AA0A3F 		.word	1057663664
 3767 3744 5055353F 		.word	1060459856
 3768 3748 B0AA0A3F 		.word	1057663664
 3769 374c 5055353F 		.word	1060459856
 3770 3750 0000203F 		.word	1059061760
 3771 3754 5055353F 		.word	1060459856
 3772 3758 0000203F 		.word	1059061760
 3773 375c 5055353F 		.word	1060459856
 3774 3760 0000203F 		.word	1059061760
 3775 3764 5055353F 		.word	1060459856
 3776 3768 0000203F 		.word	1059061760
 3777 376c 5055353F 		.word	1060459856
 3778 3770 0000203F 		.word	1059061760
 3779 3774 5055353F 		.word	1060459856
 3780 3778 0000203F 		.word	1059061760
 3781 377c 5055353F 		.word	1060459856
 3782 3780 5055353F 		.word	1060459856
 3783 3784 5055353F 		.word	1060459856
ARM GAS  C:\Users\DJESSOU\AppData\Local\Temp\ccMfOXfy.s 			page 69


 3784 3788 5055353F 		.word	1060459856
 3785 378c 5055353F 		.word	1060459856
 3786 3790 5055353F 		.word	1060459856
 3787 3794 5055353F 		.word	1060459856
 3788 3798 5055353F 		.word	1060459856
 3789 379c 5055353F 		.word	1060459856
 3790 37a0 5055353F 		.word	1060459856
 3791 37a4 5055353F 		.word	1060459856
 3792 37a8 5055353F 		.word	1060459856
 3793 37ac 5055353F 		.word	1060459856
 3794 37b0 B0AA4A3F 		.word	1061857968
 3795 37b4 5055353F 		.word	1060459856
 3796 37b8 B0AA4A3F 		.word	1061857968
 3797 37bc 5055353F 		.word	1060459856
 3798 37c0 B0AA4A3F 		.word	1061857968
 3799 37c4 5055353F 		.word	1060459856
 3800 37c8 B0AA4A3F 		.word	1061857968
 3801 37cc 5055353F 		.word	1060459856
 3802 37d0 B0AA4A3F 		.word	1061857968
 3803 37d4 5055353F 		.word	1060459856
 3804 37d8 B0AA4A3F 		.word	1061857968
 3805 37dc 5055353F 		.word	1060459856
 3806 37e0 0000603F 		.word	1063256064
 3807 37e4 5055353F 		.word	1060459856
 3808 37e8 0000603F 		.word	1063256064
 3809 37ec 5055353F 		.word	1060459856
 3810 37f0 0000603F 		.word	1063256064
 3811 37f4 5055353F 		.word	1060459856
 3812 37f8 0000603F 		.word	1063256064
 3813 37fc 5055353F 		.word	1060459856
 3814 3800 0000603F 		.word	1063256064
 3815 3804 5055353F 		.word	1060459856
 3816 3808 0000603F 		.word	1063256064
 3817 380c 5055353F 		.word	1060459856
 3818 3810 5055753F 		.word	1064654160
 3819 3814 5055353F 		.word	1060459856
 3820 3818 5055753F 		.word	1064654160
 3821 381c 5055353F 		.word	1060459856
 3822 3820 5055753F 		.word	1064654160
 3823 3824 5055353F 		.word	1060459856
 3824 3828 5055753F 		.word	1064654160
 3825 382c 5055353F 		.word	1060459856
 3826 3830 5055753F 		.word	1064654160
 3827 3834 5055353F 		.word	1060459856
 3828 3838 5055753F 		.word	1064654160
 3829 383c 5055353F 		.word	1060459856
 3830 3840 04AB2A3D 		.word	1026206468
 3831 3844 B0AA4A3F 		.word	1061857968
 3832 3848 04AB2A3D 		.word	1026206468
 3833 384c B0AA4A3F 		.word	1061857968
 3834 3850 04AB2A3D 		.word	1026206468
 3835 3854 B0AA4A3F 		.word	1061857968
 3836 3858 04AB2A3D 		.word	1026206468
 3837 385c B0AA4A3F 		.word	1061857968
 3838 3860 04AB2A3D 		.word	1026206468
 3839 3864 B0AA4A3F 		.word	1061857968
 3840 3868 04AB2A3D 		.word	1026206468
ARM GAS  C:\Users\DJESSOU\AppData\Local\Temp\ccMfOXfy.s 			page 70


 3841 386c B0AA4A3F 		.word	1061857968
 3842 3870 0000003E 		.word	1040187392
 3843 3874 B0AA4A3F 		.word	1061857968
 3844 3878 0000003E 		.word	1040187392
 3845 387c B0AA4A3F 		.word	1061857968
 3846 3880 0000003E 		.word	1040187392
 3847 3884 B0AA4A3F 		.word	1061857968
 3848 3888 0000003E 		.word	1040187392
 3849 388c B0AA4A3F 		.word	1061857968
 3850 3890 0000003E 		.word	1040187392
 3851 3894 B0AA4A3F 		.word	1061857968
 3852 3898 0000003E 		.word	1040187392
 3853 389c B0AA4A3F 		.word	1061857968
 3854 38a0 3F55553E 		.word	1045779775
 3855 38a4 B0AA4A3F 		.word	1061857968
 3856 38a8 3F55553E 		.word	1045779775
 3857 38ac B0AA4A3F 		.word	1061857968
 3858 38b0 3F55553E 		.word	1045779775
 3859 38b4 B0AA4A3F 		.word	1061857968
 3860 38b8 3F55553E 		.word	1045779775
 3861 38bc B0AA4A3F 		.word	1061857968
 3862 38c0 3F55553E 		.word	1045779775
 3863 38c4 B0AA4A3F 		.word	1061857968
 3864 38c8 3F55553E 		.word	1045779775
 3865 38cc B0AA4A3F 		.word	1061857968
 3866 38d0 6155953E 		.word	1049974113
 3867 38d4 B0AA4A3F 		.word	1061857968
 3868 38d8 6155953E 		.word	1049974113
 3869 38dc B0AA4A3F 		.word	1061857968
 3870 38e0 6155953E 		.word	1049974113
 3871 38e4 B0AA4A3F 		.word	1061857968
 3872 38e8 6155953E 		.word	1049974113
 3873 38ec B0AA4A3F 		.word	1061857968
 3874 38f0 6155953E 		.word	1049974113
 3875 38f4 B0AA4A3F 		.word	1061857968
 3876 38f8 6155953E 		.word	1049974113
 3877 38fc B0AA4A3F 		.word	1061857968
 3878 3900 0000C03E 		.word	1052770304
 3879 3904 B0AA4A3F 		.word	1061857968
 3880 3908 0000C03E 		.word	1052770304
 3881 390c B0AA4A3F 		.word	1061857968
 3882 3910 0000C03E 		.word	1052770304
 3883 3914 B0AA4A3F 		.word	1061857968
 3884 3918 0000C03E 		.word	1052770304
 3885 391c B0AA4A3F 		.word	1061857968
 3886 3920 0000C03E 		.word	1052770304
 3887 3924 B0AA4A3F 		.word	1061857968
 3888 3928 0000C03E 		.word	1052770304
 3889 392c B0AA4A3F 		.word	1061857968
 3890 3930 9FAAEA3E 		.word	1055566495
 3891 3934 B0AA4A3F 		.word	1061857968
 3892 3938 9FAAEA3E 		.word	1055566495
 3893 393c B0AA4A3F 		.word	1061857968
 3894 3940 9FAAEA3E 		.word	1055566495
 3895 3944 B0AA4A3F 		.word	1061857968
 3896 3948 9FAAEA3E 		.word	1055566495
 3897 394c B0AA4A3F 		.word	1061857968
ARM GAS  C:\Users\DJESSOU\AppData\Local\Temp\ccMfOXfy.s 			page 71


 3898 3950 9FAAEA3E 		.word	1055566495
 3899 3954 B0AA4A3F 		.word	1061857968
 3900 3958 9FAAEA3E 		.word	1055566495
 3901 395c B0AA4A3F 		.word	1061857968
 3902 3960 B0AA0A3F 		.word	1057663664
 3903 3964 B0AA4A3F 		.word	1061857968
 3904 3968 B0AA0A3F 		.word	1057663664
 3905 396c B0AA4A3F 		.word	1061857968
 3906 3970 B0AA0A3F 		.word	1057663664
 3907 3974 B0AA4A3F 		.word	1061857968
 3908 3978 B0AA0A3F 		.word	1057663664
 3909 397c B0AA4A3F 		.word	1061857968
 3910 3980 B0AA0A3F 		.word	1057663664
 3911 3984 B0AA4A3F 		.word	1061857968
 3912 3988 B0AA0A3F 		.word	1057663664
 3913 398c B0AA4A3F 		.word	1061857968
 3914 3990 0000203F 		.word	1059061760
 3915 3994 B0AA4A3F 		.word	1061857968
 3916 3998 0000203F 		.word	1059061760
 3917 399c B0AA4A3F 		.word	1061857968
 3918 39a0 0000203F 		.word	1059061760
 3919 39a4 B0AA4A3F 		.word	1061857968
 3920 39a8 0000203F 		.word	1059061760
 3921 39ac B0AA4A3F 		.word	1061857968
 3922 39b0 0000203F 		.word	1059061760
 3923 39b4 B0AA4A3F 		.word	1061857968
 3924 39b8 0000203F 		.word	1059061760
 3925 39bc B0AA4A3F 		.word	1061857968
 3926 39c0 5055353F 		.word	1060459856
 3927 39c4 B0AA4A3F 		.word	1061857968
 3928 39c8 5055353F 		.word	1060459856
 3929 39cc B0AA4A3F 		.word	1061857968
 3930 39d0 5055353F 		.word	1060459856
 3931 39d4 B0AA4A3F 		.word	1061857968
 3932 39d8 5055353F 		.word	1060459856
 3933 39dc B0AA4A3F 		.word	1061857968
 3934 39e0 5055353F 		.word	1060459856
 3935 39e4 B0AA4A3F 		.word	1061857968
 3936 39e8 5055353F 		.word	1060459856
 3937 39ec B0AA4A3F 		.word	1061857968
 3938 39f0 B0AA4A3F 		.word	1061857968
 3939 39f4 B0AA4A3F 		.word	1061857968
 3940 39f8 B0AA4A3F 		.word	1061857968
 3941 39fc B0AA4A3F 		.word	1061857968
 3942 3a00 B0AA4A3F 		.word	1061857968
 3943 3a04 B0AA4A3F 		.word	1061857968
 3944 3a08 B0AA4A3F 		.word	1061857968
 3945 3a0c B0AA4A3F 		.word	1061857968
 3946 3a10 B0AA4A3F 		.word	1061857968
 3947 3a14 B0AA4A3F 		.word	1061857968
 3948 3a18 B0AA4A3F 		.word	1061857968
 3949 3a1c B0AA4A3F 		.word	1061857968
 3950 3a20 0000603F 		.word	1063256064
 3951 3a24 B0AA4A3F 		.word	1061857968
 3952 3a28 0000603F 		.word	1063256064
 3953 3a2c B0AA4A3F 		.word	1061857968
 3954 3a30 0000603F 		.word	1063256064
ARM GAS  C:\Users\DJESSOU\AppData\Local\Temp\ccMfOXfy.s 			page 72


 3955 3a34 B0AA4A3F 		.word	1061857968
 3956 3a38 0000603F 		.word	1063256064
 3957 3a3c B0AA4A3F 		.word	1061857968
 3958 3a40 0000603F 		.word	1063256064
 3959 3a44 B0AA4A3F 		.word	1061857968
 3960 3a48 0000603F 		.word	1063256064
 3961 3a4c B0AA4A3F 		.word	1061857968
 3962 3a50 5055753F 		.word	1064654160
 3963 3a54 B0AA4A3F 		.word	1061857968
 3964 3a58 5055753F 		.word	1064654160
 3965 3a5c B0AA4A3F 		.word	1061857968
 3966 3a60 5055753F 		.word	1064654160
 3967 3a64 B0AA4A3F 		.word	1061857968
 3968 3a68 5055753F 		.word	1064654160
 3969 3a6c B0AA4A3F 		.word	1061857968
 3970 3a70 5055753F 		.word	1064654160
 3971 3a74 B0AA4A3F 		.word	1061857968
 3972 3a78 5055753F 		.word	1064654160
 3973 3a7c B0AA4A3F 		.word	1061857968
 3974 3a80 04AB2A3D 		.word	1026206468
 3975 3a84 0000603F 		.word	1063256064
 3976 3a88 04AB2A3D 		.word	1026206468
 3977 3a8c 0000603F 		.word	1063256064
 3978 3a90 04AB2A3D 		.word	1026206468
 3979 3a94 0000603F 		.word	1063256064
 3980 3a98 04AB2A3D 		.word	1026206468
 3981 3a9c 0000603F 		.word	1063256064
 3982 3aa0 04AB2A3D 		.word	1026206468
 3983 3aa4 0000603F 		.word	1063256064
 3984 3aa8 04AB2A3D 		.word	1026206468
 3985 3aac 0000603F 		.word	1063256064
 3986 3ab0 0000003E 		.word	1040187392
 3987 3ab4 0000603F 		.word	1063256064
 3988 3ab8 0000003E 		.word	1040187392
 3989 3abc 0000603F 		.word	1063256064
 3990 3ac0 0000003E 		.word	1040187392
 3991 3ac4 0000603F 		.word	1063256064
 3992 3ac8 0000003E 		.word	1040187392
 3993 3acc 0000603F 		.word	1063256064
 3994 3ad0 0000003E 		.word	1040187392
 3995 3ad4 0000603F 		.word	1063256064
 3996 3ad8 0000003E 		.word	1040187392
 3997 3adc 0000603F 		.word	1063256064
 3998 3ae0 3F55553E 		.word	1045779775
 3999 3ae4 0000603F 		.word	1063256064
 4000 3ae8 3F55553E 		.word	1045779775
 4001 3aec 0000603F 		.word	1063256064
 4002 3af0 3F55553E 		.word	1045779775
 4003 3af4 0000603F 		.word	1063256064
 4004 3af8 3F55553E 		.word	1045779775
 4005 3afc 0000603F 		.word	1063256064
 4006 3b00 3F55553E 		.word	1045779775
 4007 3b04 0000603F 		.word	1063256064
 4008 3b08 3F55553E 		.word	1045779775
 4009 3b0c 0000603F 		.word	1063256064
 4010 3b10 6155953E 		.word	1049974113
 4011 3b14 0000603F 		.word	1063256064
ARM GAS  C:\Users\DJESSOU\AppData\Local\Temp\ccMfOXfy.s 			page 73


 4012 3b18 6155953E 		.word	1049974113
 4013 3b1c 0000603F 		.word	1063256064
 4014 3b20 6155953E 		.word	1049974113
 4015 3b24 0000603F 		.word	1063256064
 4016 3b28 6155953E 		.word	1049974113
 4017 3b2c 0000603F 		.word	1063256064
 4018 3b30 6155953E 		.word	1049974113
 4019 3b34 0000603F 		.word	1063256064
 4020 3b38 6155953E 		.word	1049974113
 4021 3b3c 0000603F 		.word	1063256064
 4022 3b40 0000C03E 		.word	1052770304
 4023 3b44 0000603F 		.word	1063256064
 4024 3b48 0000C03E 		.word	1052770304
 4025 3b4c 0000603F 		.word	1063256064
 4026 3b50 0000C03E 		.word	1052770304
 4027 3b54 0000603F 		.word	1063256064
 4028 3b58 0000C03E 		.word	1052770304
 4029 3b5c 0000603F 		.word	1063256064
 4030 3b60 0000C03E 		.word	1052770304
 4031 3b64 0000603F 		.word	1063256064
 4032 3b68 0000C03E 		.word	1052770304
 4033 3b6c 0000603F 		.word	1063256064
 4034 3b70 9FAAEA3E 		.word	1055566495
 4035 3b74 0000603F 		.word	1063256064
 4036 3b78 9FAAEA3E 		.word	1055566495
 4037 3b7c 0000603F 		.word	1063256064
 4038 3b80 9FAAEA3E 		.word	1055566495
 4039 3b84 0000603F 		.word	1063256064
 4040 3b88 9FAAEA3E 		.word	1055566495
 4041 3b8c 0000603F 		.word	1063256064
 4042 3b90 9FAAEA3E 		.word	1055566495
 4043 3b94 0000603F 		.word	1063256064
 4044 3b98 9FAAEA3E 		.word	1055566495
 4045 3b9c 0000603F 		.word	1063256064
 4046 3ba0 B0AA0A3F 		.word	1057663664
 4047 3ba4 0000603F 		.word	1063256064
 4048 3ba8 B0AA0A3F 		.word	1057663664
 4049 3bac 0000603F 		.word	1063256064
 4050 3bb0 B0AA0A3F 		.word	1057663664
 4051 3bb4 0000603F 		.word	1063256064
 4052 3bb8 B0AA0A3F 		.word	1057663664
 4053 3bbc 0000603F 		.word	1063256064
 4054 3bc0 B0AA0A3F 		.word	1057663664
 4055 3bc4 0000603F 		.word	1063256064
 4056 3bc8 B0AA0A3F 		.word	1057663664
 4057 3bcc 0000603F 		.word	1063256064
 4058 3bd0 0000203F 		.word	1059061760
 4059 3bd4 0000603F 		.word	1063256064
 4060 3bd8 0000203F 		.word	1059061760
 4061 3bdc 0000603F 		.word	1063256064
 4062 3be0 0000203F 		.word	1059061760
 4063 3be4 0000603F 		.word	1063256064
 4064 3be8 0000203F 		.word	1059061760
 4065 3bec 0000603F 		.word	1063256064
 4066 3bf0 0000203F 		.word	1059061760
 4067 3bf4 0000603F 		.word	1063256064
 4068 3bf8 0000203F 		.word	1059061760
ARM GAS  C:\Users\DJESSOU\AppData\Local\Temp\ccMfOXfy.s 			page 74


 4069 3bfc 0000603F 		.word	1063256064
 4070 3c00 5055353F 		.word	1060459856
 4071 3c04 0000603F 		.word	1063256064
 4072 3c08 5055353F 		.word	1060459856
 4073 3c0c 0000603F 		.word	1063256064
 4074 3c10 5055353F 		.word	1060459856
 4075 3c14 0000603F 		.word	1063256064
 4076 3c18 5055353F 		.word	1060459856
 4077 3c1c 0000603F 		.word	1063256064
 4078 3c20 5055353F 		.word	1060459856
 4079 3c24 0000603F 		.word	1063256064
 4080 3c28 5055353F 		.word	1060459856
 4081 3c2c 0000603F 		.word	1063256064
 4082 3c30 B0AA4A3F 		.word	1061857968
 4083 3c34 0000603F 		.word	1063256064
 4084 3c38 B0AA4A3F 		.word	1061857968
 4085 3c3c 0000603F 		.word	1063256064
 4086 3c40 B0AA4A3F 		.word	1061857968
 4087 3c44 0000603F 		.word	1063256064
 4088 3c48 B0AA4A3F 		.word	1061857968
 4089 3c4c 0000603F 		.word	1063256064
 4090 3c50 B0AA4A3F 		.word	1061857968
 4091 3c54 0000603F 		.word	1063256064
 4092 3c58 B0AA4A3F 		.word	1061857968
 4093 3c5c 0000603F 		.word	1063256064
 4094 3c60 0000603F 		.word	1063256064
 4095 3c64 0000603F 		.word	1063256064
 4096 3c68 0000603F 		.word	1063256064
 4097 3c6c 0000603F 		.word	1063256064
 4098 3c70 0000603F 		.word	1063256064
 4099 3c74 0000603F 		.word	1063256064
 4100 3c78 0000603F 		.word	1063256064
 4101 3c7c 0000603F 		.word	1063256064
 4102 3c80 0000603F 		.word	1063256064
 4103 3c84 0000603F 		.word	1063256064
 4104 3c88 0000603F 		.word	1063256064
 4105 3c8c 0000603F 		.word	1063256064
 4106 3c90 5055753F 		.word	1064654160
 4107 3c94 0000603F 		.word	1063256064
 4108 3c98 5055753F 		.word	1064654160
 4109 3c9c 0000603F 		.word	1063256064
 4110 3ca0 5055753F 		.word	1064654160
 4111 3ca4 0000603F 		.word	1063256064
 4112 3ca8 5055753F 		.word	1064654160
 4113 3cac 0000603F 		.word	1063256064
 4114 3cb0 5055753F 		.word	1064654160
 4115 3cb4 0000603F 		.word	1063256064
 4116 3cb8 5055753F 		.word	1064654160
 4117 3cbc 0000603F 		.word	1063256064
 4118 3cc0 04AB2A3D 		.word	1026206468
 4119 3cc4 5055753F 		.word	1064654160
 4120 3cc8 04AB2A3D 		.word	1026206468
 4121 3ccc 5055753F 		.word	1064654160
 4122 3cd0 04AB2A3D 		.word	1026206468
 4123 3cd4 5055753F 		.word	1064654160
 4124 3cd8 04AB2A3D 		.word	1026206468
 4125 3cdc 5055753F 		.word	1064654160
ARM GAS  C:\Users\DJESSOU\AppData\Local\Temp\ccMfOXfy.s 			page 75


 4126 3ce0 04AB2A3D 		.word	1026206468
 4127 3ce4 5055753F 		.word	1064654160
 4128 3ce8 04AB2A3D 		.word	1026206468
 4129 3cec 5055753F 		.word	1064654160
 4130 3cf0 0000003E 		.word	1040187392
 4131 3cf4 5055753F 		.word	1064654160
 4132 3cf8 0000003E 		.word	1040187392
 4133 3cfc 5055753F 		.word	1064654160
 4134 3d00 0000003E 		.word	1040187392
 4135 3d04 5055753F 		.word	1064654160
 4136 3d08 0000003E 		.word	1040187392
 4137 3d0c 5055753F 		.word	1064654160
 4138 3d10 0000003E 		.word	1040187392
 4139 3d14 5055753F 		.word	1064654160
 4140 3d18 0000003E 		.word	1040187392
 4141 3d1c 5055753F 		.word	1064654160
 4142 3d20 3F55553E 		.word	1045779775
 4143 3d24 5055753F 		.word	1064654160
 4144 3d28 3F55553E 		.word	1045779775
 4145 3d2c 5055753F 		.word	1064654160
 4146 3d30 3F55553E 		.word	1045779775
 4147 3d34 5055753F 		.word	1064654160
 4148 3d38 3F55553E 		.word	1045779775
 4149 3d3c 5055753F 		.word	1064654160
 4150 3d40 3F55553E 		.word	1045779775
 4151 3d44 5055753F 		.word	1064654160
 4152 3d48 3F55553E 		.word	1045779775
 4153 3d4c 5055753F 		.word	1064654160
 4154 3d50 6155953E 		.word	1049974113
 4155 3d54 5055753F 		.word	1064654160
 4156 3d58 6155953E 		.word	1049974113
 4157 3d5c 5055753F 		.word	1064654160
 4158 3d60 6155953E 		.word	1049974113
 4159 3d64 5055753F 		.word	1064654160
 4160 3d68 6155953E 		.word	1049974113
 4161 3d6c 5055753F 		.word	1064654160
 4162 3d70 6155953E 		.word	1049974113
 4163 3d74 5055753F 		.word	1064654160
 4164 3d78 6155953E 		.word	1049974113
 4165 3d7c 5055753F 		.word	1064654160
 4166 3d80 0000C03E 		.word	1052770304
 4167 3d84 5055753F 		.word	1064654160
 4168 3d88 0000C03E 		.word	1052770304
 4169 3d8c 5055753F 		.word	1064654160
 4170 3d90 0000C03E 		.word	1052770304
 4171 3d94 5055753F 		.word	1064654160
 4172 3d98 0000C03E 		.word	1052770304
 4173 3d9c 5055753F 		.word	1064654160
 4174 3da0 0000C03E 		.word	1052770304
 4175 3da4 5055753F 		.word	1064654160
 4176 3da8 0000C03E 		.word	1052770304
 4177 3dac 5055753F 		.word	1064654160
 4178 3db0 9FAAEA3E 		.word	1055566495
 4179 3db4 5055753F 		.word	1064654160
 4180 3db8 9FAAEA3E 		.word	1055566495
 4181 3dbc 5055753F 		.word	1064654160
 4182 3dc0 9FAAEA3E 		.word	1055566495
ARM GAS  C:\Users\DJESSOU\AppData\Local\Temp\ccMfOXfy.s 			page 76


 4183 3dc4 5055753F 		.word	1064654160
 4184 3dc8 9FAAEA3E 		.word	1055566495
 4185 3dcc 5055753F 		.word	1064654160
 4186 3dd0 9FAAEA3E 		.word	1055566495
 4187 3dd4 5055753F 		.word	1064654160
 4188 3dd8 9FAAEA3E 		.word	1055566495
 4189 3ddc 5055753F 		.word	1064654160
 4190 3de0 B0AA0A3F 		.word	1057663664
 4191 3de4 5055753F 		.word	1064654160
 4192 3de8 B0AA0A3F 		.word	1057663664
 4193 3dec 5055753F 		.word	1064654160
 4194 3df0 B0AA0A3F 		.word	1057663664
 4195 3df4 5055753F 		.word	1064654160
 4196 3df8 B0AA0A3F 		.word	1057663664
 4197 3dfc 5055753F 		.word	1064654160
 4198 3e00 B0AA0A3F 		.word	1057663664
 4199 3e04 5055753F 		.word	1064654160
 4200 3e08 B0AA0A3F 		.word	1057663664
 4201 3e0c 5055753F 		.word	1064654160
 4202 3e10 0000203F 		.word	1059061760
 4203 3e14 5055753F 		.word	1064654160
 4204 3e18 0000203F 		.word	1059061760
 4205 3e1c 5055753F 		.word	1064654160
 4206 3e20 0000203F 		.word	1059061760
 4207 3e24 5055753F 		.word	1064654160
 4208 3e28 0000203F 		.word	1059061760
 4209 3e2c 5055753F 		.word	1064654160
 4210 3e30 0000203F 		.word	1059061760
 4211 3e34 5055753F 		.word	1064654160
 4212 3e38 0000203F 		.word	1059061760
 4213 3e3c 5055753F 		.word	1064654160
 4214 3e40 5055353F 		.word	1060459856
 4215 3e44 5055753F 		.word	1064654160
 4216 3e48 5055353F 		.word	1060459856
 4217 3e4c 5055753F 		.word	1064654160
 4218 3e50 5055353F 		.word	1060459856
 4219 3e54 5055753F 		.word	1064654160
 4220 3e58 5055353F 		.word	1060459856
 4221 3e5c 5055753F 		.word	1064654160
 4222 3e60 5055353F 		.word	1060459856
 4223 3e64 5055753F 		.word	1064654160
 4224 3e68 5055353F 		.word	1060459856
 4225 3e6c 5055753F 		.word	1064654160
 4226 3e70 B0AA4A3F 		.word	1061857968
 4227 3e74 5055753F 		.word	1064654160
 4228 3e78 B0AA4A3F 		.word	1061857968
 4229 3e7c 5055753F 		.word	1064654160
 4230 3e80 B0AA4A3F 		.word	1061857968
 4231 3e84 5055753F 		.word	1064654160
 4232 3e88 B0AA4A3F 		.word	1061857968
 4233 3e8c 5055753F 		.word	1064654160
 4234 3e90 B0AA4A3F 		.word	1061857968
 4235 3e94 5055753F 		.word	1064654160
 4236 3e98 B0AA4A3F 		.word	1061857968
 4237 3e9c 5055753F 		.word	1064654160
 4238 3ea0 0000603F 		.word	1063256064
 4239 3ea4 5055753F 		.word	1064654160
ARM GAS  C:\Users\DJESSOU\AppData\Local\Temp\ccMfOXfy.s 			page 77


 4240 3ea8 0000603F 		.word	1063256064
 4241 3eac 5055753F 		.word	1064654160
 4242 3eb0 0000603F 		.word	1063256064
 4243 3eb4 5055753F 		.word	1064654160
 4244 3eb8 0000603F 		.word	1063256064
 4245 3ebc 5055753F 		.word	1064654160
 4246 3ec0 0000603F 		.word	1063256064
 4247 3ec4 5055753F 		.word	1064654160
 4248 3ec8 0000603F 		.word	1063256064
 4249 3ecc 5055753F 		.word	1064654160
 4250 3ed0 5055753F 		.word	1064654160
 4251 3ed4 5055753F 		.word	1064654160
 4252 3ed8 5055753F 		.word	1064654160
 4253 3edc 5055753F 		.word	1064654160
 4254 3ee0 5055753F 		.word	1064654160
 4255 3ee4 5055753F 		.word	1064654160
 4256 3ee8 5055753F 		.word	1064654160
 4257 3eec 5055753F 		.word	1064654160
 4258 3ef0 5055753F 		.word	1064654160
 4259 3ef4 5055753F 		.word	1064654160
 4260 3ef8 5055753F 		.word	1064654160
 4261 3efc 5055753F 		.word	1064654160
 4262              		.text
 4263              	.Letext0:
 4264              		.file 2 "C:\\ST\\STM32CubeIDE_1.18.1\\STM32CubeIDE\\plugins\\com.st.stm32cube.ide.mcu.externaltool
 4265              		.file 3 "C:\\ST\\STM32CubeIDE_1.18.1\\STM32CubeIDE\\plugins\\com.st.stm32cube.ide.mcu.externaltool
 4266              		.file 4 "Lib/AI_Runtime/Inc/stai.h"
 4267              		.file 5 "C:\\ST\\STM32CubeIDE_1.18.1\\STM32CubeIDE\\plugins\\com.st.stm32cube.ide.mcu.externaltool
 4268              		.file 6 "Lib/lib_vision_models_pp/lib_vision_models_pp/Inc/pd_pp_output_if.h"
 4269              		.file 7 "Lib/lib_vision_models_pp/lib_vision_models_pp/Inc/pd_model_pp_if.h"
 4270              		.file 8 "Src/pd_anchors.c"
 4271              		.file 9 "C:\\ST\\STM32CubeIDE_1.18.1\\STM32CubeIDE\\plugins\\com.st.stm32cube.ide.mcu.externaltool
ARM GAS  C:\Users\DJESSOU\AppData\Local\Temp\ccMfOXfy.s 			page 78


DEFINED SYMBOLS
                            *ABS*:00000000 app_postprocess_mpe_pd_uf.c
C:\Users\DJESSOU\AppData\Local\Temp\ccMfOXfy.s:26     .text.app_postprocess_init:00000000 $t
C:\Users\DJESSOU\AppData\Local\Temp\ccMfOXfy.s:32     .text.app_postprocess_init:00000000 app_postprocess_init
C:\Users\DJESSOU\AppData\Local\Temp\ccMfOXfy.s:109    .text.app_postprocess_init:00000040 $d
C:\Users\DJESSOU\AppData\Local\Temp\ccMfOXfy.s:229    .data.g_Anchors:00000000 g_Anchors
C:\Users\DJESSOU\AppData\Local\Temp\ccMfOXfy.s:217    .bss.out_keyPoints:00000000 out_keyPoints
C:\Users\DJESSOU\AppData\Local\Temp\ccMfOXfy.s:223    .bss.out_detections:00000000 out_detections
C:\Users\DJESSOU\AppData\Local\Temp\ccMfOXfy.s:123    .text.app_postprocess_run:00000000 $t
C:\Users\DJESSOU\AppData\Local\Temp\ccMfOXfy.s:129    .text.app_postprocess_run:00000000 app_postprocess_run
C:\Users\DJESSOU\AppData\Local\Temp\ccMfOXfy.s:201    .text.app_postprocess_run:00000030 $d
C:\Users\DJESSOU\AppData\Local\Temp\ccMfOXfy.s:211    .rodata.__func__.0:00000000 __func__.0
C:\Users\DJESSOU\AppData\Local\Temp\ccMfOXfy.s:214    .bss.out_keyPoints:00000000 $d
C:\Users\DJESSOU\AppData\Local\Temp\ccMfOXfy.s:220    .bss.out_detections:00000000 $d
C:\Users\DJESSOU\AppData\Local\Temp\ccMfOXfy.s:226    .data.g_Anchors:00000000 $d
                           .group:00000000 wm4.0.c530a555507323ed657a04d5a22acbf4
                           .group:00000000 wm4._newlib_version.h.4.411db44ea2338a62eca2f0777f81481b
                           .group:00000000 wm4.features.h.33.e0c9f337c65cb9f22ed5f23d082bc78b
                           .group:00000000 wm4._default_types.h.15.247e5cd201eca3442cbf5404108c4935
                           .group:00000000 wm4._intsup.h.10.48bafbb683905c4daa4565a85aeeb264
                           .group:00000000 wm4._stdint.h.10.c24fa3af3bc1706662bb5593a907e841
                           .group:00000000 wm4.stdint.h.23.d53047a68f4a85177f80b422d52785ed
                           .group:00000000 wm4.stddef.h.39.0dc9006b34572d4d9cae4c8b422c4971
                           .group:00000000 wm4.stai.h.24.ddd618ce0ba6fb7aa0eecae2c221570b
                           .group:00000000 wm4.stdbool.h.29.c08aa3eec75cf5b9b5003883f43253f0
                           .group:00000000 wm4.stai.h.38.8b7b3b20574e05eb8d4bb79c3a135768
                           .group:00000000 wm4.od_pp_output_if.h.11.62a3da738caf687aa42d96759c237b2c
                           .group:00000000 wm4.arm_math_types.h.28.9e71aea5cdf6aebdd83091bf39b4832a
                           .group:00000000 wm4.arm_acle.h.28.ce8f475a5cc50333e54ae4adeb8c0298
                           .group:00000000 wm4.cmsis_gcc.h.39.eba7438bc45fd1a6e6376b63ffe44436
                           .group:00000000 wm4.cmsis_gcc_m.h.24.e590ec51aeda3a1242400351d73f5dce
                           .group:00000000 wm4.newlib.h.7.a37ffbe9e5aff74303f4e60b1cc1c01b
                           .group:00000000 wm4.ieeefp.h.77.bd5feb87d9990dd328793ced294f6a87
                           .group:00000000 wm4.config.h.224.10ee1ad185d877c6e334e6581faab44d
                           .group:00000000 wm4._ansi.h.31.de524f58584151836e90d8620a16f8e8
                           .group:00000000 wm4.cdefs.h.49.70fc7af612f78ddcace70fdd90b5623b
                           .group:00000000 wm4._types.h.20.dd0d04dca3800a0d2a6129b87f3adbb2
                           .group:00000000 wm4.stddef.h.158.6f8e08a347b1cff664332fa350bfceb3
                           .group:00000000 wm4._types.h.127.3bdfe3ff8ea2d0985b03d9cbe93480e3
                           .group:00000000 wm4.reent.h.18.25503cdc8b7e55dd0d6ea7b3e5af7a03
                           .group:00000000 wm4.lock.h.2.1461d1fff82dffe8bfddc23307f6484f
                           .group:00000000 wm4.reent.h.78.6b87466b04591b1f1cb88c14fdf2ba9e
                           .group:00000000 wm4.string.h.15.dab3980bf35408a4c507182805e2de3a
                           .group:00000000 wm4.stddef.h.158.eec8bf00b5213f43d095cb984c5f22e3
                           .group:00000000 wm4.string.h.177.59a005921fa78485abc80a0267de5752
                           .group:00000000 wm4.math.h.13.47cfc34cae8a1153323939c4d32cf7c2
                           .group:00000000 wm4.float.h.29.0e9d9baf95ec39f9555dc80c6e28186b
                           .group:00000000 wm4.syslimits.h.34.de5cbd310098bc5895998b6bde577ed2
                           .group:00000000 wm4.limits.h.9.70fb0ada6f71b16202a66baaa6d8ea70
                           .group:00000000 wm4.limits.h.60.56a1ae353e2028a24298ec6463b8b593
                           .group:00000000 wm4.arm_math_types.h.116.3e44bd031718f65bdb345972ddc8cf86
                           .group:00000000 wm4.arm_mve.h.38.47b22bbd301ce82bc6dafd1a387f65a3
                           .group:00000000 wm4.arm_math_types.h.605.32c5d7843b3dcaa8f5174feea7de7445
                           .group:00000000 wm4.arm_math_memory.h.28.3ee75b06517df8378241b72d6c61e5b0
                           .group:00000000 wm4.none.h.185.db055cca83e83f96d8d0bb450fbdf4bb
                           .group:00000000 wm4.utils.h.41.820d6032ed1c0d7dd5bd2ed80938ee65
                           .group:00000000 wm4.fast_math_functions.h.28.aa389abd5521cfceab0e76a6af3dd2e2
ARM GAS  C:\Users\DJESSOU\AppData\Local\Temp\ccMfOXfy.s 			page 79


                           .group:00000000 wm4.matrix_functions.h.28.8fc8488c73b2d6f328b0946db3460102
                           .group:00000000 wm4.controller_functions.h.28.388735b97ccd96442b0ac9e554629f36
                           .group:00000000 wm4.filtering_functions.h.46.6cf1424fb1f86d5f9958d208b83340a1
                           .group:00000000 wm4.mpe_pp_output_if.h.11.db0dd5ceb87072354c56b51e8f9b2a0d
                           .group:00000000 wm4.pd_pp_output_if.h.19.b7de9bd1876930668a82409743b6dbf4
                           .group:00000000 wm4.spe_pp_output_if.h.11.cb67d0d15a71c95e0e8b7fee8a9755fe
                           .group:00000000 wm4.iseg_pp_output_if.h.11.df7e791a4e783022a9fba78cdb1c05d4
                           .group:00000000 wm4.sseg_pp_output_if.h.11.caf00fb1ae24f8dc9c80bee7827b96f2
                           .group:00000000 wm4.fd_pp_output_if.h.11.55d9221e24521333a11e600e0275a430
                           .group:00000000 wm4.app_postprocess.h.52.699af388c8aba32a4eb04b7495c3e56e
                           .group:00000000 wm4.ll_aton_config.h.20.27cfa9f6f5afc4105991355367358a39
                           .group:00000000 wm4.ll_aton_attributes.h.20.26d469460cb32db5740effdc8cc403f3
                           .group:00000000 wm4.ll_aton_cipher.h.20.e98fdae11c912f4036a83cedb835e14e
                           .group:00000000 wm4.assert.h.11.db24e541f16414db224bf986d21017e2
                           .group:00000000 wm4.errno.h.2.ba016d646105af6cad23be83630b6a3f
                           .group:00000000 wm4.errno.h.9.ae5ea2b0ff9ea6e39e585807e35200d3
                           .group:00000000 wm4.stdio.h.27.3fc80220048df77954e38daec3bb9670
                           .group:00000000 wm4.stdarg.h.34.3a23a216c0c293b3d2ea2e89281481e6
                           .group:00000000 wm4.stdio.h.47.dc31ec4674d7bcb103c9f08809549f45
                           .group:00000000 wm4.stdio.h.2.4aa87247282eca6c8f36f9de33d8df1a
                           .group:00000000 wm4.stdio.h.87.a1e20d2651f9bfb66e51bfbe849db00a
                           .group:00000000 wm4.ll_aton_util.h.34.9098eaa90d3d72b819973556e3e5fe44
                           .group:00000000 wm4.FreeRTOS.h.59.647b1b0da38e4e98108aae13c8abe9ee
                           .group:00000000 wm4.assert.h.11.d99a111e320bc5106fc4046225782672
                           .group:00000000 wm4.FreeRTOSConfig.h.59.2629c72cff9e6dbe880a2dc225eae516
                           .group:00000000 wm4.FreeRTOS.h.80.7742fabaf5accf3762dc12f7f259a8a0
                           .group:00000000 wm4.projdefs.h.30.55a824156f299c075c33148a9fdadb99
                           .group:00000000 wm4.portmacro.h.30.cbb4b2da41f551c2a9904f0d03a1ce3e
                           .group:00000000 wm4.portmacrocommon.h.30.d5cb67896ab50a95311be7e023da5c4f
                           .group:00000000 wm4.portmacro.h.68.4051ecf710d074fb55b16d91dfebeeaa
                           .group:00000000 wm4.portable.h.61.d557c57974d490f056246a26cdcddd6c
                           .group:00000000 wm4.mpu_wrappers.h.30.ccc5f1a6903f941a88c268f5f62af3fe
                           .group:00000000 wm4.portable.h.189.522b8bd52a171d3fd1432ef06d0caa63
                           .group:00000000 wm4.FreeRTOS.h.102.fb871f3e464d99c5a57b3115545a02ad
                           .group:00000000 wm4.list.h.59.bce6419520cd4f5f98779a1530bf2118
                           .group:00000000 wm4.task.h.56.84290139c73b47f5b9aac361361a2a31
                           .group:00000000 wm4.queue.h.68.219f47fba8b59640449b84d04c5bd6d8
                           .group:00000000 wm4.semphr.h.40.c1a9c6f5bf0feb4da0b6a45d234a79d0
                           .group:00000000 wm4.ll_aton_platform.h.20.8f1d4e7781c282794886ffdd00ccd30b
                           .group:00000000 wm4.stm32n6xx.h.34.c523a1ffdf274a69e8802892c6776332
                           .group:00000000 wm4.stm32n657xx.h.26.acd272cb67318cc1a4791ce2f0720ca6
                           .group:00000000 wm4.cmsis_version.h.30.d128735bf87720f7436b74fefeb5043c
                           .group:00000000 wm4.core_cm55.h.67.25006a3ce7048d64bcddd2996d5fac93
                           .group:00000000 wm4.core_cm55.h.213.0528f46a674315ef8d35c4477e230358
                           .group:00000000 wm4.armv8m_mpu.h.24.bf28cc25bee30a7ff9d2f7a44a5e2230
                           .group:00000000 wm4.armv8m_pmu.h.24.6ded195d2625055391fd378c0e1d2519
                           .group:00000000 wm4.core_cm55.h.4477.396e822ef855bcfb932819ad48de1c4c
                           .group:00000000 wm4.armv7m_cachel1.h.24.936dd92d6e204a8d0b17d5e4ea4a356e
                           .group:00000000 wm4.stm32n657xx.h.575.78d331c417ec710388ced647138f735f
                           .group:00000000 wm4.stm32n6xx.h.116.b4247d9785590e7c5ec9234ffb2153bf
                           .group:00000000 wm4.ll_aton_platform.h.205.098bebcb126012e5dfc0544db0a7d4c8
                           .group:00000000 wm4.inttypes.h.14.b28deb26920e51e0da310220ef0f9003
                           .group:00000000 wm4.inttypes.h.28.684aa7736e7ecc9a6ffc44acc61c7a90
                           .group:00000000 wm4.ATONidxs.h.16.969ebf3fd32e13543179e6907b3869c9
                           .group:00000000 wm4.ATON.h.19.0bce86f27eb7ac354272c44c1804cd24
                           .group:00000000 wm4.ll_aton_rcompat.h.22.4788366561a5f8dfb37661f794bdd403
                           .group:00000000 wm4.ll_aton_platform.h.279.2fa1ab569e6816db5b603cc3ef09d875
ARM GAS  C:\Users\DJESSOU\AppData\Local\Temp\ccMfOXfy.s 			page 80


                           .group:00000000 wm4.ll_aton_osal_freertos.h.63.1e66f105894f6ee9e5e9ee361a3df896
                           .group:00000000 wm4.ll_aton_osal.h.117.70ff644e90427fadc04622c387869938
                           .group:00000000 wm4.ll_aton_rt_user_api.h.71.52957347efa02883c6e8b1a7f756d297
                           .group:00000000 wm4.stai_debug.h.37.4be079c70c66033549ba26b63a31db94
                           .group:00000000 wm4.ll_aton_stai_internal.h.35.4ede4d59178f196dca4b635c5600498b
                           .group:00000000 wm4.stai_palm_detector.h.57.debf59e73409726805ff914e3324d286
                           .group:00000000 wm4.postprocess_conf.h.23.752829cd21603d5967ee3777a73fb300
                           .group:00000000 wm4.app_config.h.23.726746aecdeac4550fc4bca4b08fd195

UNDEFINED SYMBOLS
pd_model_pp_reset
__assert_func
pd_model_pp_process
