ARM GAS  C:\Users\DJESSOU\AppData\Local\Temp\cc5TDnr2.s 			page 1


   1              		.arch armv8.1-m.main
   2              		.fpu fpv5-d16
   3              		.arch_extension dsp
   4              		.arch_extension fp
   5              		.arch_extension fp.dp
   6              		.arch_extension mve
   7              		.arch_extension mve.fp
   8              		.eabi_attribute 5, "cortex-m55"
   9              		.eabi_attribute 28, 1
  10              		.eabi_attribute 20, 1
  11              		.eabi_attribute 21, 1
  12              		.eabi_attribute 23, 3
  13              		.eabi_attribute 24, 1
  14              		.eabi_attribute 25, 1
  15              		.eabi_attribute 26, 1
  16              		.eabi_attribute 30, 4
  17              		.eabi_attribute 34, 1
  18              		.eabi_attribute 38, 1
  19              		.eabi_attribute 18, 4
  20              		.file	"cmw_ov5640.c"
  21              		.text
  22              	.Ltext0:
  23              		.cfi_sections	.debug_frame
  24              		.file 1 "Lib/Camera_Middleware/sensors/cmw_ov5640.c"
  25              		.section	.text.CMW_OV5640_GetSensorInfo,"ax",%progbits
  26              		.align	1
  27              		.syntax unified
  28              		.thumb
  29              		.thumb_func
  31              	CMW_OV5640_GetSensorInfo:
  32              	.LVL0:
  33              	.LFB865:
   1:Lib/Camera_Middleware/sensors/cmw_ov5640.c **** /**
   2:Lib/Camera_Middleware/sensors/cmw_ov5640.c ****   ******************************************************************************
   3:Lib/Camera_Middleware/sensors/cmw_ov5640.c ****   * @file    cmw_ov5640.c
   4:Lib/Camera_Middleware/sensors/cmw_ov5640.c ****   * @author  MDG Application Team
   5:Lib/Camera_Middleware/sensors/cmw_ov5640.c ****   ******************************************************************************
   6:Lib/Camera_Middleware/sensors/cmw_ov5640.c ****   * @attention
   7:Lib/Camera_Middleware/sensors/cmw_ov5640.c ****   *
   8:Lib/Camera_Middleware/sensors/cmw_ov5640.c ****   * Copyright (c) 2024 STMicroelectronics.
   9:Lib/Camera_Middleware/sensors/cmw_ov5640.c ****   * All rights reserved.
  10:Lib/Camera_Middleware/sensors/cmw_ov5640.c ****   *
  11:Lib/Camera_Middleware/sensors/cmw_ov5640.c ****   * This software is licensed under terms that can be found in the LICENSE file
  12:Lib/Camera_Middleware/sensors/cmw_ov5640.c ****   * in the root directory of this software component.
  13:Lib/Camera_Middleware/sensors/cmw_ov5640.c ****   * If no LICENSE file comes with this software, it is provided AS-IS.
  14:Lib/Camera_Middleware/sensors/cmw_ov5640.c ****   *
  15:Lib/Camera_Middleware/sensors/cmw_ov5640.c ****   ******************************************************************************
  16:Lib/Camera_Middleware/sensors/cmw_ov5640.c ****   */
  17:Lib/Camera_Middleware/sensors/cmw_ov5640.c **** 
  18:Lib/Camera_Middleware/sensors/cmw_ov5640.c **** #include <assert.h>
  19:Lib/Camera_Middleware/sensors/cmw_ov5640.c **** #include <stdlib.h>
  20:Lib/Camera_Middleware/sensors/cmw_ov5640.c **** #include <stdio.h>
  21:Lib/Camera_Middleware/sensors/cmw_ov5640.c **** #include <stddef.h>
  22:Lib/Camera_Middleware/sensors/cmw_ov5640.c **** #include <string.h>
  23:Lib/Camera_Middleware/sensors/cmw_ov5640.c **** #include "cmw_ov5640.h"
  24:Lib/Camera_Middleware/sensors/cmw_ov5640.c **** #include "cmw_camera.h"
  25:Lib/Camera_Middleware/sensors/cmw_ov5640.c **** #include "ov5640_reg.h"
ARM GAS  C:\Users\DJESSOU\AppData\Local\Temp\cc5TDnr2.s 			page 2


  26:Lib/Camera_Middleware/sensors/cmw_ov5640.c **** #include "ov5640.h"
  27:Lib/Camera_Middleware/sensors/cmw_ov5640.c **** 
  28:Lib/Camera_Middleware/sensors/cmw_ov5640.c **** 
  29:Lib/Camera_Middleware/sensors/cmw_ov5640.c **** /**
  30:Lib/Camera_Middleware/sensors/cmw_ov5640.c ****   * @brief  Get the sensor info
  31:Lib/Camera_Middleware/sensors/cmw_ov5640.c ****   * @param  pObj  pointer to component object
  32:Lib/Camera_Middleware/sensors/cmw_ov5640.c ****   * @param  pInfo pointer to sensor info structure
  33:Lib/Camera_Middleware/sensors/cmw_ov5640.c ****   * @retval Component status
  34:Lib/Camera_Middleware/sensors/cmw_ov5640.c ****   */
  35:Lib/Camera_Middleware/sensors/cmw_ov5640.c **** static int32_t CMW_OV5640_GetSensorInfo(void *io_ctx, ISP_SensorInfoTypeDef *info)
  36:Lib/Camera_Middleware/sensors/cmw_ov5640.c **** {
  34              		.loc 1 36 1 view -0
  35              		.cfi_startproc
  36              		@ args = 0, pretend = 0, frame = 0
  37              		@ frame_needed = 0, uses_anonymous_args = 0
  38              		@ link register save eliminated.
  37:Lib/Camera_Middleware/sensors/cmw_ov5640.c ****   if ((io_ctx ==  NULL) || (info == NULL))
  39              		.loc 1 37 3 view .LVU1
  40              		.loc 1 37 6 is_stmt 0 view .LVU2
  41 0000 40B1     		cbz	r0, .L4
  42              		.loc 1 37 25 discriminator 1 view .LVU3
  43 0002 39B1     		cbz	r1, .L4
  38:Lib/Camera_Middleware/sensors/cmw_ov5640.c ****   {
  39:Lib/Camera_Middleware/sensors/cmw_ov5640.c ****     return CMW_ERROR_WRONG_PARAM;
  40:Lib/Camera_Middleware/sensors/cmw_ov5640.c ****   }
  41:Lib/Camera_Middleware/sensors/cmw_ov5640.c **** 
  42:Lib/Camera_Middleware/sensors/cmw_ov5640.c ****   /* Return the default full resolution */
  43:Lib/Camera_Middleware/sensors/cmw_ov5640.c ****   info->width = 640;
  44              		.loc 1 43 3 is_stmt 1 view .LVU4
  44:Lib/Camera_Middleware/sensors/cmw_ov5640.c ****   info->height = 480;
  45              		.loc 1 44 16 is_stmt 0 view .LVU5
  46 0004 4FF42072 		mov	r2, #640
  47 0008 4FF4F073 		mov	r3, #480
  45:Lib/Camera_Middleware/sensors/cmw_ov5640.c **** 
  46:Lib/Camera_Middleware/sensors/cmw_ov5640.c ****   return CMW_ERROR_NONE;
  48              		.loc 1 46 10 view .LVU6
  49 000c 0020     		movs	r0, #0
  50              	.LVL1:
  44:Lib/Camera_Middleware/sensors/cmw_ov5640.c ****   info->height = 480;
  51              		.loc 1 44 16 view .LVU7
  52 000e C1E90923 		strd	r2, r3, [r1, #36]
  53              		.loc 1 46 3 is_stmt 1 view .LVU8
  54              		.loc 1 46 10 is_stmt 0 view .LVU9
  55 0012 7047     		bx	lr
  56              	.LVL2:
  57              	.L4:
  39:Lib/Camera_Middleware/sensors/cmw_ov5640.c ****   }
  58              		.loc 1 39 12 view .LVU10
  59 0014 6FF00100 		mvn	r0, #1
  60              	.LVL3:
  47:Lib/Camera_Middleware/sensors/cmw_ov5640.c **** }
  61              		.loc 1 47 1 view .LVU11
  62 0018 7047     		bx	lr
  63              		.cfi_endproc
  64              	.LFE865:
  66              		.section	.text.CMW_OV5640_ReadID,"ax",%progbits
  67              		.align	1
ARM GAS  C:\Users\DJESSOU\AppData\Local\Temp\cc5TDnr2.s 			page 3


  68              		.syntax unified
  69              		.thumb
  70              		.thumb_func
  72              	CMW_OV5640_ReadID:
  73              	.LVL4:
  74              	.LFB869:
  48:Lib/Camera_Middleware/sensors/cmw_ov5640.c **** 
  49:Lib/Camera_Middleware/sensors/cmw_ov5640.c **** static int CMW_OV5640_GetResType(uint32_t width, uint32_t height, uint32_t*res)
  50:Lib/Camera_Middleware/sensors/cmw_ov5640.c **** {
  51:Lib/Camera_Middleware/sensors/cmw_ov5640.c ****   if (width == 160 && height == 120)
  52:Lib/Camera_Middleware/sensors/cmw_ov5640.c ****   {
  53:Lib/Camera_Middleware/sensors/cmw_ov5640.c ****     *res = OV5640_R160x120;
  54:Lib/Camera_Middleware/sensors/cmw_ov5640.c ****   }
  55:Lib/Camera_Middleware/sensors/cmw_ov5640.c ****   else if (width == 320 && height == 240)
  56:Lib/Camera_Middleware/sensors/cmw_ov5640.c ****   {
  57:Lib/Camera_Middleware/sensors/cmw_ov5640.c ****     *res = OV5640_R320x240;
  58:Lib/Camera_Middleware/sensors/cmw_ov5640.c ****   }
  59:Lib/Camera_Middleware/sensors/cmw_ov5640.c ****   else if (width == 480 && height == 272)
  60:Lib/Camera_Middleware/sensors/cmw_ov5640.c ****   {
  61:Lib/Camera_Middleware/sensors/cmw_ov5640.c ****     *res = OV5640_R480x272;
  62:Lib/Camera_Middleware/sensors/cmw_ov5640.c ****   }
  63:Lib/Camera_Middleware/sensors/cmw_ov5640.c ****   else if (width == 640 && height == 480)
  64:Lib/Camera_Middleware/sensors/cmw_ov5640.c ****   {
  65:Lib/Camera_Middleware/sensors/cmw_ov5640.c ****     *res = OV5640_R640x480;
  66:Lib/Camera_Middleware/sensors/cmw_ov5640.c ****   }
  67:Lib/Camera_Middleware/sensors/cmw_ov5640.c ****   else if (width == 800 && height == 480)
  68:Lib/Camera_Middleware/sensors/cmw_ov5640.c ****   {
  69:Lib/Camera_Middleware/sensors/cmw_ov5640.c ****     *res = OV5640_R800x480;
  70:Lib/Camera_Middleware/sensors/cmw_ov5640.c ****   }
  71:Lib/Camera_Middleware/sensors/cmw_ov5640.c ****   else
  72:Lib/Camera_Middleware/sensors/cmw_ov5640.c ****   {
  73:Lib/Camera_Middleware/sensors/cmw_ov5640.c ****     return -1;
  74:Lib/Camera_Middleware/sensors/cmw_ov5640.c ****   }
  75:Lib/Camera_Middleware/sensors/cmw_ov5640.c ****   return 0;
  76:Lib/Camera_Middleware/sensors/cmw_ov5640.c **** }
  77:Lib/Camera_Middleware/sensors/cmw_ov5640.c **** 
  78:Lib/Camera_Middleware/sensors/cmw_ov5640.c **** static int32_t CMW_OV5640_getMirrorFlipConfig(uint32_t Config)
  79:Lib/Camera_Middleware/sensors/cmw_ov5640.c **** {
  80:Lib/Camera_Middleware/sensors/cmw_ov5640.c ****   switch (Config) {
  81:Lib/Camera_Middleware/sensors/cmw_ov5640.c ****     case CMW_MIRRORFLIP_NONE:
  82:Lib/Camera_Middleware/sensors/cmw_ov5640.c ****       return OV5640_MIRROR_FLIP_NONE;
  83:Lib/Camera_Middleware/sensors/cmw_ov5640.c ****       break;
  84:Lib/Camera_Middleware/sensors/cmw_ov5640.c ****     case CMW_MIRRORFLIP_FLIP:
  85:Lib/Camera_Middleware/sensors/cmw_ov5640.c ****       return OV5640_FLIP;
  86:Lib/Camera_Middleware/sensors/cmw_ov5640.c ****       break;
  87:Lib/Camera_Middleware/sensors/cmw_ov5640.c ****     case CMW_MIRRORFLIP_MIRROR:
  88:Lib/Camera_Middleware/sensors/cmw_ov5640.c ****       return OV5640_MIRROR;
  89:Lib/Camera_Middleware/sensors/cmw_ov5640.c ****       break;
  90:Lib/Camera_Middleware/sensors/cmw_ov5640.c ****     case CMW_MIRRORFLIP_FLIP_MIRROR:
  91:Lib/Camera_Middleware/sensors/cmw_ov5640.c ****       return OV5640_MIRROR_FLIP;
  92:Lib/Camera_Middleware/sensors/cmw_ov5640.c ****       break;
  93:Lib/Camera_Middleware/sensors/cmw_ov5640.c ****     default:
  94:Lib/Camera_Middleware/sensors/cmw_ov5640.c ****       return CMW_ERROR_PERIPH_FAILURE;
  95:Lib/Camera_Middleware/sensors/cmw_ov5640.c ****   }
  96:Lib/Camera_Middleware/sensors/cmw_ov5640.c **** }
  97:Lib/Camera_Middleware/sensors/cmw_ov5640.c **** 
  98:Lib/Camera_Middleware/sensors/cmw_ov5640.c **** static int32_t CMW_OV5640_DeInit(void *io_ctx)
ARM GAS  C:\Users\DJESSOU\AppData\Local\Temp\cc5TDnr2.s 			page 4


  99:Lib/Camera_Middleware/sensors/cmw_ov5640.c **** {
 100:Lib/Camera_Middleware/sensors/cmw_ov5640.c ****   int ret = CMW_ERROR_NONE;
 101:Lib/Camera_Middleware/sensors/cmw_ov5640.c **** 
 102:Lib/Camera_Middleware/sensors/cmw_ov5640.c ****   ret = OV5640_DeInit(&((CMW_OV5640_t *)io_ctx)->ctx_driver);
 103:Lib/Camera_Middleware/sensors/cmw_ov5640.c ****   if (ret)
 104:Lib/Camera_Middleware/sensors/cmw_ov5640.c ****   {
 105:Lib/Camera_Middleware/sensors/cmw_ov5640.c ****     return CMW_ERROR_COMPONENT_FAILURE;
 106:Lib/Camera_Middleware/sensors/cmw_ov5640.c ****   }
 107:Lib/Camera_Middleware/sensors/cmw_ov5640.c ****   return ret;
 108:Lib/Camera_Middleware/sensors/cmw_ov5640.c **** }
 109:Lib/Camera_Middleware/sensors/cmw_ov5640.c **** 
 110:Lib/Camera_Middleware/sensors/cmw_ov5640.c **** static int32_t CMW_OV5640_ReadID(void *io_ctx, uint32_t *Id)
 111:Lib/Camera_Middleware/sensors/cmw_ov5640.c **** {
  75              		.loc 1 111 1 is_stmt 1 view -0
  76              		.cfi_startproc
  77              		@ args = 0, pretend = 0, frame = 0
  78              		@ frame_needed = 0, uses_anonymous_args = 0
  79              		@ link register save eliminated.
 112:Lib/Camera_Middleware/sensors/cmw_ov5640.c ****   return OV5640_ReadID(&((CMW_OV5640_t *)io_ctx)->ctx_driver, Id);
  80              		.loc 1 112 3 view .LVU13
  81              		.loc 1 112 10 is_stmt 0 view .LVU14
  82 0000 0830     		adds	r0, r0, #8
  83              	.LVL5:
  84              		.loc 1 112 10 view .LVU15
  85 0002 FFF7FEBF 		b	OV5640_ReadID
  86              	.LVL6:
  87              		.loc 1 112 10 view .LVU16
  88              		.cfi_endproc
  89              	.LFE869:
  91              		.section	.text.CMW_OV5640_SetMirrorFlip,"ax",%progbits
  92              		.align	1
  93              		.syntax unified
  94              		.thumb
  95              		.thumb_func
  97              	CMW_OV5640_SetMirrorFlip:
  98              	.LVL7:
  99              	.LFB870:
 113:Lib/Camera_Middleware/sensors/cmw_ov5640.c **** }
 114:Lib/Camera_Middleware/sensors/cmw_ov5640.c **** 
 115:Lib/Camera_Middleware/sensors/cmw_ov5640.c **** static int32_t CMW_OV5640_SetMirrorFlip(void *io_ctx, uint32_t config)
 116:Lib/Camera_Middleware/sensors/cmw_ov5640.c **** {
 100              		.loc 1 116 1 is_stmt 1 view -0
 101              		.cfi_startproc
 102              		@ args = 0, pretend = 0, frame = 0
 103              		@ frame_needed = 0, uses_anonymous_args = 0
 104              		@ link register save eliminated.
 117:Lib/Camera_Middleware/sensors/cmw_ov5640.c ****   int32_t mirrorFlip = CMW_OV5640_getMirrorFlipConfig(config);
 105              		.loc 1 117 3 view .LVU18
 106              		.loc 1 117 3 is_stmt 0 view .LVU19
 107 0000 0329     		cmp	r1, #3
 108              	.LVL8:
 118:Lib/Camera_Middleware/sensors/cmw_ov5640.c ****   return OV5640_MirrorFlipConfig(&((CMW_OV5640_t *)io_ctx)->ctx_driver, mirrorFlip);
 109              		.loc 1 118 3 is_stmt 1 view .LVU20
 110              		.loc 1 118 10 is_stmt 0 view .LVU21
 111 0002 88BF     		it	hi
 112 0004 6FF00301 		mvnhi	r1, #3
 113              	.LVL9:
ARM GAS  C:\Users\DJESSOU\AppData\Local\Temp\cc5TDnr2.s 			page 5


 114              		.loc 1 118 10 view .LVU22
 115 0008 0830     		adds	r0, r0, #8
 116              	.LVL10:
 117              		.loc 1 118 10 view .LVU23
 118 000a FFF7FEBF 		b	OV5640_MirrorFlipConfig
 119              	.LVL11:
 120              		.loc 1 118 10 view .LVU24
 121              		.cfi_endproc
 122              	.LFE870:
 124              		.section	.text.CMW_OV5640_DeInit,"ax",%progbits
 125              		.align	1
 126              		.syntax unified
 127              		.thumb
 128              		.thumb_func
 130              	CMW_OV5640_DeInit:
 131              	.LVL12:
 132              	.LFB868:
  99:Lib/Camera_Middleware/sensors/cmw_ov5640.c ****   int ret = CMW_ERROR_NONE;
 133              		.loc 1 99 1 is_stmt 1 view -0
 134              		.cfi_startproc
 135              		@ args = 0, pretend = 0, frame = 0
 136              		@ frame_needed = 0, uses_anonymous_args = 0
 100:Lib/Camera_Middleware/sensors/cmw_ov5640.c **** 
 137              		.loc 1 100 3 view .LVU26
 102:Lib/Camera_Middleware/sensors/cmw_ov5640.c ****   if (ret)
 138              		.loc 1 102 3 view .LVU27
  99:Lib/Camera_Middleware/sensors/cmw_ov5640.c ****   int ret = CMW_ERROR_NONE;
 139              		.loc 1 99 1 is_stmt 0 view .LVU28
 140 0000 08B5     		push	{r3, lr}
 141              		.cfi_def_cfa_offset 8
 142              		.cfi_offset 3, -8
 143              		.cfi_offset 14, -4
 102:Lib/Camera_Middleware/sensors/cmw_ov5640.c ****   if (ret)
 144              		.loc 1 102 9 view .LVU29
 145 0002 0830     		adds	r0, r0, #8
 146              	.LVL13:
 102:Lib/Camera_Middleware/sensors/cmw_ov5640.c ****   if (ret)
 147              		.loc 1 102 9 view .LVU30
 148 0004 FFF7FEFF 		bl	OV5640_DeInit
 149              	.LVL14:
 103:Lib/Camera_Middleware/sensors/cmw_ov5640.c ****   {
 150              		.loc 1 103 3 is_stmt 1 view .LVU31
 105:Lib/Camera_Middleware/sensors/cmw_ov5640.c ****   }
 151              		.loc 1 105 12 is_stmt 0 view .LVU32
 152 0008 0028     		cmp	r0, #0
 108:Lib/Camera_Middleware/sensors/cmw_ov5640.c **** 
 153              		.loc 1 108 1 view .LVU33
 154 000a 18BF     		it	ne
 155 000c 6FF00400 		mvnne	r0, #4
 156              	.LVL15:
 108:Lib/Camera_Middleware/sensors/cmw_ov5640.c **** 
 157              		.loc 1 108 1 view .LVU34
 158 0010 08BD     		pop	{r3, pc}
 159              		.cfi_endproc
 160              	.LFE868:
 162              		.section	.text.CMW_OV5640_Start,"ax",%progbits
 163              		.align	1
ARM GAS  C:\Users\DJESSOU\AppData\Local\Temp\cc5TDnr2.s 			page 6


 164              		.syntax unified
 165              		.thumb
 166              		.thumb_func
 168              	CMW_OV5640_Start:
 169              	.LVL16:
 170              	.LFB873:
 119:Lib/Camera_Middleware/sensors/cmw_ov5640.c **** }
 120:Lib/Camera_Middleware/sensors/cmw_ov5640.c **** 
 121:Lib/Camera_Middleware/sensors/cmw_ov5640.c **** static int32_t CMW_OV5640_Init(void *io_ctx, CMW_Sensor_Init_t *initSensor)
 122:Lib/Camera_Middleware/sensors/cmw_ov5640.c **** {
 123:Lib/Camera_Middleware/sensors/cmw_ov5640.c ****   int ret = CMW_ERROR_NONE;
 124:Lib/Camera_Middleware/sensors/cmw_ov5640.c ****   uint32_t resolution;
 125:Lib/Camera_Middleware/sensors/cmw_ov5640.c ****   uint32_t pixelFormat;
 126:Lib/Camera_Middleware/sensors/cmw_ov5640.c ****   CMW_OV5640_config_t *sensor_config;
 127:Lib/Camera_Middleware/sensors/cmw_ov5640.c ****   sensor_config = (CMW_OV5640_config_t*)(initSensor->sensor_config);
 128:Lib/Camera_Middleware/sensors/cmw_ov5640.c ****   if (sensor_config == NULL)
 129:Lib/Camera_Middleware/sensors/cmw_ov5640.c ****   {
 130:Lib/Camera_Middleware/sensors/cmw_ov5640.c ****     return CMW_ERROR_WRONG_PARAM;
 131:Lib/Camera_Middleware/sensors/cmw_ov5640.c ****   }
 132:Lib/Camera_Middleware/sensors/cmw_ov5640.c **** 
 133:Lib/Camera_Middleware/sensors/cmw_ov5640.c ****   ret = CMW_OV5640_GetResType(initSensor->width, initSensor->height, &resolution);
 134:Lib/Camera_Middleware/sensors/cmw_ov5640.c ****   if (ret)
 135:Lib/Camera_Middleware/sensors/cmw_ov5640.c ****   {
 136:Lib/Camera_Middleware/sensors/cmw_ov5640.c ****     return CMW_ERROR_WRONG_PARAM;
 137:Lib/Camera_Middleware/sensors/cmw_ov5640.c ****   }
 138:Lib/Camera_Middleware/sensors/cmw_ov5640.c **** 
 139:Lib/Camera_Middleware/sensors/cmw_ov5640.c ****   switch (sensor_config->pixel_format)
 140:Lib/Camera_Middleware/sensors/cmw_ov5640.c ****   {
 141:Lib/Camera_Middleware/sensors/cmw_ov5640.c **** 
 142:Lib/Camera_Middleware/sensors/cmw_ov5640.c ****     case CMW_PIXEL_FORMAT_YUV422_8:
 143:Lib/Camera_Middleware/sensors/cmw_ov5640.c ****     {
 144:Lib/Camera_Middleware/sensors/cmw_ov5640.c ****       pixelFormat = OV5640_YUV422;
 145:Lib/Camera_Middleware/sensors/cmw_ov5640.c ****       break;
 146:Lib/Camera_Middleware/sensors/cmw_ov5640.c ****     }
 147:Lib/Camera_Middleware/sensors/cmw_ov5640.c ****     case CMW_PIXEL_FORMAT_DEFAULT:
 148:Lib/Camera_Middleware/sensors/cmw_ov5640.c ****     case CMW_PIXEL_FORMAT_RGB565:
 149:Lib/Camera_Middleware/sensors/cmw_ov5640.c ****     {
 150:Lib/Camera_Middleware/sensors/cmw_ov5640.c ****       pixelFormat = OV5640_RGB565;
 151:Lib/Camera_Middleware/sensors/cmw_ov5640.c ****       break;
 152:Lib/Camera_Middleware/sensors/cmw_ov5640.c ****     }
 153:Lib/Camera_Middleware/sensors/cmw_ov5640.c ****     case CMW_PIXEL_FORMAT_RGB888:
 154:Lib/Camera_Middleware/sensors/cmw_ov5640.c ****     {
 155:Lib/Camera_Middleware/sensors/cmw_ov5640.c ****       pixelFormat = OV5640_RGB888;
 156:Lib/Camera_Middleware/sensors/cmw_ov5640.c ****       break;
 157:Lib/Camera_Middleware/sensors/cmw_ov5640.c ****     }
 158:Lib/Camera_Middleware/sensors/cmw_ov5640.c ****     case CMW_PIXEL_FORMAT_RAW8:
 159:Lib/Camera_Middleware/sensors/cmw_ov5640.c ****     {
 160:Lib/Camera_Middleware/sensors/cmw_ov5640.c ****       pixelFormat = OV5640_Y8;
 161:Lib/Camera_Middleware/sensors/cmw_ov5640.c ****       break;
 162:Lib/Camera_Middleware/sensors/cmw_ov5640.c ****     }
 163:Lib/Camera_Middleware/sensors/cmw_ov5640.c ****     default:
 164:Lib/Camera_Middleware/sensors/cmw_ov5640.c ****       return CMW_ERROR_COMPONENT_FAILURE;
 165:Lib/Camera_Middleware/sensors/cmw_ov5640.c ****       break;
 166:Lib/Camera_Middleware/sensors/cmw_ov5640.c ****   }
 167:Lib/Camera_Middleware/sensors/cmw_ov5640.c **** 
 168:Lib/Camera_Middleware/sensors/cmw_ov5640.c ****   ret = OV5640_Init(&((CMW_OV5640_t *)io_ctx)->ctx_driver, resolution, pixelFormat);
 169:Lib/Camera_Middleware/sensors/cmw_ov5640.c ****   if (ret != OV5640_OK)
ARM GAS  C:\Users\DJESSOU\AppData\Local\Temp\cc5TDnr2.s 			page 7


 170:Lib/Camera_Middleware/sensors/cmw_ov5640.c ****   {
 171:Lib/Camera_Middleware/sensors/cmw_ov5640.c ****     return CMW_ERROR_COMPONENT_FAILURE;
 172:Lib/Camera_Middleware/sensors/cmw_ov5640.c ****   }
 173:Lib/Camera_Middleware/sensors/cmw_ov5640.c **** 
 174:Lib/Camera_Middleware/sensors/cmw_ov5640.c ****   ret = CMW_OV5640_SetMirrorFlip(io_ctx, initSensor->mirrorFlip);
 175:Lib/Camera_Middleware/sensors/cmw_ov5640.c ****   if (ret)
 176:Lib/Camera_Middleware/sensors/cmw_ov5640.c ****   {
 177:Lib/Camera_Middleware/sensors/cmw_ov5640.c ****     return CMW_ERROR_WRONG_PARAM;
 178:Lib/Camera_Middleware/sensors/cmw_ov5640.c ****   }
 179:Lib/Camera_Middleware/sensors/cmw_ov5640.c **** 
 180:Lib/Camera_Middleware/sensors/cmw_ov5640.c ****   return CMW_ERROR_NONE;
 181:Lib/Camera_Middleware/sensors/cmw_ov5640.c **** }
 182:Lib/Camera_Middleware/sensors/cmw_ov5640.c **** 
 183:Lib/Camera_Middleware/sensors/cmw_ov5640.c **** void CMW_OV5640_SetDefaultSensorValues(CMW_OV5640_config_t *ov5640_config)
 184:Lib/Camera_Middleware/sensors/cmw_ov5640.c **** {
 185:Lib/Camera_Middleware/sensors/cmw_ov5640.c ****   assert(ov5640_config != NULL);
 186:Lib/Camera_Middleware/sensors/cmw_ov5640.c ****   ov5640_config->pixel_format = CMW_PIXEL_FORMAT_RGB565;
 187:Lib/Camera_Middleware/sensors/cmw_ov5640.c **** }
 188:Lib/Camera_Middleware/sensors/cmw_ov5640.c **** 
 189:Lib/Camera_Middleware/sensors/cmw_ov5640.c **** static int32_t CMW_OV5640_Start(void *io_ctx)
 190:Lib/Camera_Middleware/sensors/cmw_ov5640.c **** {
 171              		.loc 1 190 1 is_stmt 1 view -0
 172              		.cfi_startproc
 173              		@ args = 0, pretend = 0, frame = 0
 174              		@ frame_needed = 0, uses_anonymous_args = 0
 175              		@ link register save eliminated.
 191:Lib/Camera_Middleware/sensors/cmw_ov5640.c ****   return OV5640_Start(&((CMW_OV5640_t *)io_ctx)->ctx_driver);
 176              		.loc 1 191 3 view .LVU36
 177              		.loc 1 191 10 is_stmt 0 view .LVU37
 178 0000 0830     		adds	r0, r0, #8
 179              	.LVL17:
 180              		.loc 1 191 10 view .LVU38
 181 0002 FFF7FEBF 		b	OV5640_Start
 182              	.LVL18:
 183              		.loc 1 191 10 view .LVU39
 184              		.cfi_endproc
 185              	.LFE873:
 187              		.section	.text.CMW_OV5640_Init,"ax",%progbits
 188              		.align	1
 189              		.syntax unified
 190              		.thumb
 191              		.thumb_func
 193              	CMW_OV5640_Init:
 194              	.LVL19:
 195              	.LFB871:
 122:Lib/Camera_Middleware/sensors/cmw_ov5640.c ****   int ret = CMW_ERROR_NONE;
 196              		.loc 1 122 1 is_stmt 1 view -0
 197              		.cfi_startproc
 198              		@ args = 0, pretend = 0, frame = 0
 199              		@ frame_needed = 0, uses_anonymous_args = 0
 123:Lib/Camera_Middleware/sensors/cmw_ov5640.c ****   uint32_t resolution;
 200              		.loc 1 123 3 view .LVU41
 124:Lib/Camera_Middleware/sensors/cmw_ov5640.c ****   uint32_t pixelFormat;
 201              		.loc 1 124 3 view .LVU42
 125:Lib/Camera_Middleware/sensors/cmw_ov5640.c ****   CMW_OV5640_config_t *sensor_config;
 202              		.loc 1 125 3 view .LVU43
 126:Lib/Camera_Middleware/sensors/cmw_ov5640.c ****   sensor_config = (CMW_OV5640_config_t*)(initSensor->sensor_config);
ARM GAS  C:\Users\DJESSOU\AppData\Local\Temp\cc5TDnr2.s 			page 8


 203              		.loc 1 126 3 view .LVU44
 127:Lib/Camera_Middleware/sensors/cmw_ov5640.c ****   if (sensor_config == NULL)
 204              		.loc 1 127 3 view .LVU45
 122:Lib/Camera_Middleware/sensors/cmw_ov5640.c ****   int ret = CMW_ERROR_NONE;
 205              		.loc 1 122 1 is_stmt 0 view .LVU46
 206 0000 38B5     		push	{r3, r4, r5, lr}
 207              		.cfi_def_cfa_offset 16
 208              		.cfi_offset 3, -16
 209              		.cfi_offset 4, -12
 210              		.cfi_offset 5, -8
 211              		.cfi_offset 14, -4
 122:Lib/Camera_Middleware/sensors/cmw_ov5640.c ****   int ret = CMW_ERROR_NONE;
 212              		.loc 1 122 1 view .LVU47
 213 0002 0546     		mov	r5, r0
 127:Lib/Camera_Middleware/sensors/cmw_ov5640.c ****   if (sensor_config == NULL)
 214              		.loc 1 127 17 view .LVU48
 215 0004 0869     		ldr	r0, [r1, #16]
 216              	.LVL20:
 128:Lib/Camera_Middleware/sensors/cmw_ov5640.c ****   {
 217              		.loc 1 128 3 is_stmt 1 view .LVU49
 122:Lib/Camera_Middleware/sensors/cmw_ov5640.c ****   int ret = CMW_ERROR_NONE;
 218              		.loc 1 122 1 is_stmt 0 view .LVU50
 219 0006 0C46     		mov	r4, r1
 128:Lib/Camera_Middleware/sensors/cmw_ov5640.c ****   {
 220              		.loc 1 128 6 view .LVU51
 221 0008 10B9     		cbnz	r0, .L14
 222              	.LVL21:
 223              	.L18:
 130:Lib/Camera_Middleware/sensors/cmw_ov5640.c ****   }
 224              		.loc 1 130 12 view .LVU52
 225 000a 6FF00100 		mvn	r0, #1
 226              	.L13:
 181:Lib/Camera_Middleware/sensors/cmw_ov5640.c **** 
 227              		.loc 1 181 1 view .LVU53
 228 000e 38BD     		pop	{r3, r4, r5, pc}
 229              	.LVL22:
 230              	.L14:
 133:Lib/Camera_Middleware/sensors/cmw_ov5640.c ****   if (ret)
 231              		.loc 1 133 3 is_stmt 1 view .LVU54
 133:Lib/Camera_Middleware/sensors/cmw_ov5640.c ****   if (ret)
 232              		.loc 1 133 9 is_stmt 0 view .LVU55
 233 0010 D1E90023 		ldrd	r2, r3, [r1]
 234              	.LVL23:
 235              	.LBB6:
 236              	.LBI6:
  49:Lib/Camera_Middleware/sensors/cmw_ov5640.c **** {
 237              		.loc 1 49 12 is_stmt 1 view .LVU56
 238              	.LBB7:
  51:Lib/Camera_Middleware/sensors/cmw_ov5640.c ****   {
 239              		.loc 1 51 3 view .LVU57
  51:Lib/Camera_Middleware/sensors/cmw_ov5640.c ****   {
 240              		.loc 1 51 6 is_stmt 0 view .LVU58
 241 0014 A02A     		cmp	r2, #160
 242 0016 03D1     		bne	.L16
  51:Lib/Camera_Middleware/sensors/cmw_ov5640.c ****   {
 243              		.loc 1 51 20 discriminator 1 view .LVU59
 244 0018 782B     		cmp	r3, #120
ARM GAS  C:\Users\DJESSOU\AppData\Local\Temp\cc5TDnr2.s 			page 9


 245 001a F6D1     		bne	.L18
  53:Lib/Camera_Middleware/sensors/cmw_ov5640.c ****   }
 246              		.loc 1 53 10 view .LVU60
 247 001c 0021     		movs	r1, #0
 248              	.LVL24:
  53:Lib/Camera_Middleware/sensors/cmw_ov5640.c ****   }
 249              		.loc 1 53 10 view .LVU61
 250 001e 1DE0     		b	.L17
 251              	.LVL25:
 252              	.L16:
  55:Lib/Camera_Middleware/sensors/cmw_ov5640.c ****   {
 253              		.loc 1 55 8 is_stmt 1 view .LVU62
  55:Lib/Camera_Middleware/sensors/cmw_ov5640.c ****   {
 254              		.loc 1 55 11 is_stmt 0 view .LVU63
 255 0020 B2F5A07F 		cmp	r2, #320
 256 0024 03D1     		bne	.L19
  55:Lib/Camera_Middleware/sensors/cmw_ov5640.c ****   {
 257              		.loc 1 55 25 discriminator 1 view .LVU64
 258 0026 F02B     		cmp	r3, #240
 259 0028 EFD1     		bne	.L18
  57:Lib/Camera_Middleware/sensors/cmw_ov5640.c ****   }
 260              		.loc 1 57 10 view .LVU65
 261 002a 0121     		movs	r1, #1
 262              	.LVL26:
  57:Lib/Camera_Middleware/sensors/cmw_ov5640.c ****   }
 263              		.loc 1 57 10 view .LVU66
 264 002c 16E0     		b	.L17
 265              	.LVL27:
 266              	.L19:
  59:Lib/Camera_Middleware/sensors/cmw_ov5640.c ****   {
 267              		.loc 1 59 8 is_stmt 1 view .LVU67
  59:Lib/Camera_Middleware/sensors/cmw_ov5640.c ****   {
 268              		.loc 1 59 11 is_stmt 0 view .LVU68
 269 002e B2F5F07F 		cmp	r2, #480
 270 0032 04D1     		bne	.L20
  59:Lib/Camera_Middleware/sensors/cmw_ov5640.c ****   {
 271              		.loc 1 59 25 discriminator 1 view .LVU69
 272 0034 B3F5887F 		cmp	r3, #272
 273 0038 E7D1     		bne	.L18
  61:Lib/Camera_Middleware/sensors/cmw_ov5640.c ****   }
 274              		.loc 1 61 10 view .LVU70
 275 003a 0221     		movs	r1, #2
 276              	.LVL28:
  61:Lib/Camera_Middleware/sensors/cmw_ov5640.c ****   }
 277              		.loc 1 61 10 view .LVU71
 278 003c 0EE0     		b	.L17
 279              	.LVL29:
 280              	.L20:
  63:Lib/Camera_Middleware/sensors/cmw_ov5640.c ****   {
 281              		.loc 1 63 8 is_stmt 1 view .LVU72
  63:Lib/Camera_Middleware/sensors/cmw_ov5640.c ****   {
 282              		.loc 1 63 11 is_stmt 0 view .LVU73
 283 003e B2F5207F 		cmp	r2, #640
 284 0042 04D1     		bne	.L21
  63:Lib/Camera_Middleware/sensors/cmw_ov5640.c ****   {
 285              		.loc 1 63 25 discriminator 1 view .LVU74
 286 0044 B3F5F07F 		cmp	r3, #480
ARM GAS  C:\Users\DJESSOU\AppData\Local\Temp\cc5TDnr2.s 			page 10


 287 0048 DFD1     		bne	.L18
  65:Lib/Camera_Middleware/sensors/cmw_ov5640.c ****   }
 288              		.loc 1 65 10 view .LVU75
 289 004a 0321     		movs	r1, #3
 290              	.LVL30:
  65:Lib/Camera_Middleware/sensors/cmw_ov5640.c ****   }
 291              		.loc 1 65 10 view .LVU76
 292 004c 06E0     		b	.L17
 293              	.LVL31:
 294              	.L21:
  67:Lib/Camera_Middleware/sensors/cmw_ov5640.c ****   {
 295              		.loc 1 67 8 is_stmt 1 view .LVU77
  67:Lib/Camera_Middleware/sensors/cmw_ov5640.c ****   {
 296              		.loc 1 67 11 is_stmt 0 view .LVU78
 297 004e B2F5487F 		cmp	r2, #800
 298 0052 DAD1     		bne	.L18
  67:Lib/Camera_Middleware/sensors/cmw_ov5640.c ****   {
 299              		.loc 1 67 25 discriminator 1 view .LVU79
 300 0054 B3F5F07F 		cmp	r3, #480
 301 0058 D7D1     		bne	.L18
  69:Lib/Camera_Middleware/sensors/cmw_ov5640.c ****   }
 302              		.loc 1 69 10 view .LVU80
 303 005a 0421     		movs	r1, #4
 304              	.LVL32:
 305              	.L17:
  69:Lib/Camera_Middleware/sensors/cmw_ov5640.c ****   }
 306              		.loc 1 69 10 view .LVU81
 307              	.LBE7:
 308              	.LBE6:
 139:Lib/Camera_Middleware/sensors/cmw_ov5640.c ****   {
 309              		.loc 1 139 3 is_stmt 1 view .LVU82
 139:Lib/Camera_Middleware/sensors/cmw_ov5640.c ****   {
 310              		.loc 1 139 24 is_stmt 0 view .LVU83
 311 005c 0268     		ldr	r2, [r0]
 139:Lib/Camera_Middleware/sensors/cmw_ov5640.c ****   {
 312              		.loc 1 139 3 view .LVU84
 313 005e 242A     		cmp	r2, #36
 314 0060 18D0     		beq	.L30
 315 0062 07D8     		bhi	.L23
 316 0064 1E2A     		cmp	r2, #30
 317 0066 17D0     		beq	.L31
 318 0068 222A     		cmp	r2, #34
 319 006a 17D0     		beq	.L32
 320 006c 2AB1     		cbz	r2, .L22
 321              	.LVL33:
 322              	.L24:
 164:Lib/Camera_Middleware/sensors/cmw_ov5640.c ****       break;
 323              		.loc 1 164 14 view .LVU85
 324 006e 6FF00400 		mvn	r0, #4
 325 0072 CCE7     		b	.L13
 326              	.LVL34:
 327              	.L23:
 139:Lib/Camera_Middleware/sensors/cmw_ov5640.c ****   {
 328              		.loc 1 139 3 view .LVU86
 329 0074 2A2A     		cmp	r2, #42
 330 0076 FAD1     		bne	.L24
 160:Lib/Camera_Middleware/sensors/cmw_ov5640.c ****       break;
ARM GAS  C:\Users\DJESSOU\AppData\Local\Temp\cc5TDnr2.s 			page 11


 331              		.loc 1 160 19 view .LVU87
 332 0078 0722     		movs	r2, #7
 333              	.L22:
 334              	.LVL35:
 165:Lib/Camera_Middleware/sensors/cmw_ov5640.c ****   }
 335              		.loc 1 165 7 is_stmt 1 view .LVU88
 168:Lib/Camera_Middleware/sensors/cmw_ov5640.c ****   if (ret != OV5640_OK)
 336              		.loc 1 168 3 view .LVU89
 168:Lib/Camera_Middleware/sensors/cmw_ov5640.c ****   if (ret != OV5640_OK)
 337              		.loc 1 168 9 is_stmt 0 view .LVU90
 338 007a 05F10800 		add	r0, r5, #8
 339              	.LVL36:
 168:Lib/Camera_Middleware/sensors/cmw_ov5640.c ****   if (ret != OV5640_OK)
 340              		.loc 1 168 9 view .LVU91
 341 007e FFF7FEFF 		bl	OV5640_Init
 342              	.LVL37:
 169:Lib/Camera_Middleware/sensors/cmw_ov5640.c ****   {
 343              		.loc 1 169 3 is_stmt 1 view .LVU92
 169:Lib/Camera_Middleware/sensors/cmw_ov5640.c ****   {
 344              		.loc 1 169 6 is_stmt 0 view .LVU93
 345 0082 0028     		cmp	r0, #0
 346 0084 F3D1     		bne	.L24
 174:Lib/Camera_Middleware/sensors/cmw_ov5640.c ****   if (ret)
 347              		.loc 1 174 3 is_stmt 1 view .LVU94
 174:Lib/Camera_Middleware/sensors/cmw_ov5640.c ****   if (ret)
 348              		.loc 1 174 9 is_stmt 0 view .LVU95
 349 0086 2846     		mov	r0, r5
 350              	.LVL38:
 174:Lib/Camera_Middleware/sensors/cmw_ov5640.c ****   if (ret)
 351              		.loc 1 174 9 view .LVU96
 352 0088 E168     		ldr	r1, [r4, #12]
 353 008a FFF7FEFF 		bl	CMW_OV5640_SetMirrorFlip
 354              	.LVL39:
 175:Lib/Camera_Middleware/sensors/cmw_ov5640.c ****   {
 355              		.loc 1 175 3 is_stmt 1 view .LVU97
 175:Lib/Camera_Middleware/sensors/cmw_ov5640.c ****   {
 356              		.loc 1 175 6 is_stmt 0 view .LVU98
 357 008e 0028     		cmp	r0, #0
 358 0090 BDD0     		beq	.L13
 359 0092 BAE7     		b	.L18
 360              	.LVL40:
 361              	.L30:
 155:Lib/Camera_Middleware/sensors/cmw_ov5640.c ****       break;
 362              		.loc 1 155 19 view .LVU99
 363 0094 0122     		movs	r2, #1
 364 0096 F0E7     		b	.L22
 365              	.L31:
 144:Lib/Camera_Middleware/sensors/cmw_ov5640.c ****       break;
 366              		.loc 1 144 19 view .LVU100
 367 0098 0222     		movs	r2, #2
 368 009a EEE7     		b	.L22
 369              	.L32:
 139:Lib/Camera_Middleware/sensors/cmw_ov5640.c ****   {
 370              		.loc 1 139 3 view .LVU101
 371 009c 0022     		movs	r2, #0
 372 009e ECE7     		b	.L22
 373              		.cfi_endproc
ARM GAS  C:\Users\DJESSOU\AppData\Local\Temp\cc5TDnr2.s 			page 12


 374              	.LFE871:
 376              		.section	.rodata.CMW_OV5640_SetDefaultSensorValues.str1.1,"aMS",%progbits,1
 377              	.LC0:
 378 0000 6F763536 		.ascii	"ov5640_config != NULL\000"
 378      34305F63 
 378      6F6E6669 
 378      6720213D 
 378      204E554C 
 379              	.LC1:
 380 0016 4C69622F 		.ascii	"Lib/Camera_Middleware/sensors/cmw_ov5640.c\000"
 380      43616D65 
 380      72615F4D 
 380      6964646C 
 380      65776172 
 381              		.section	.text.CMW_OV5640_SetDefaultSensorValues,"ax",%progbits
 382              		.align	1
 383              		.global	CMW_OV5640_SetDefaultSensorValues
 384              		.syntax unified
 385              		.thumb
 386              		.thumb_func
 388              	CMW_OV5640_SetDefaultSensorValues:
 389              	.LVL41:
 390              	.LFB872:
 184:Lib/Camera_Middleware/sensors/cmw_ov5640.c ****   assert(ov5640_config != NULL);
 391              		.loc 1 184 1 is_stmt 1 view -0
 392              		.cfi_startproc
 393              		@ args = 0, pretend = 0, frame = 0
 394              		@ frame_needed = 0, uses_anonymous_args = 0
 185:Lib/Camera_Middleware/sensors/cmw_ov5640.c ****   ov5640_config->pixel_format = CMW_PIXEL_FORMAT_RGB565;
 395              		.loc 1 185 3 view .LVU103
 184:Lib/Camera_Middleware/sensors/cmw_ov5640.c ****   assert(ov5640_config != NULL);
 396              		.loc 1 184 1 is_stmt 0 view .LVU104
 397 0000 08B5     		push	{r3, lr}
 398              		.cfi_def_cfa_offset 8
 399              		.cfi_offset 3, -8
 400              		.cfi_offset 14, -4
 185:Lib/Camera_Middleware/sensors/cmw_ov5640.c ****   ov5640_config->pixel_format = CMW_PIXEL_FORMAT_RGB565;
 401              		.loc 1 185 3 view .LVU105
 402 0002 28B9     		cbnz	r0, .L37
 185:Lib/Camera_Middleware/sensors/cmw_ov5640.c ****   ov5640_config->pixel_format = CMW_PIXEL_FORMAT_RGB565;
 403              		.loc 1 185 3 discriminator 1 view .LVU106
 404 0004 B921     		movs	r1, #185
 405 0006 044B     		ldr	r3, .L38
 406 0008 044A     		ldr	r2, .L38+4
 407 000a 0548     		ldr	r0, .L38+8
 408              	.LVL42:
 185:Lib/Camera_Middleware/sensors/cmw_ov5640.c ****   ov5640_config->pixel_format = CMW_PIXEL_FORMAT_RGB565;
 409              		.loc 1 185 3 discriminator 1 view .LVU107
 410 000c FFF7FEFF 		bl	__assert_func
 411              	.LVL43:
 412              	.L37:
 186:Lib/Camera_Middleware/sensors/cmw_ov5640.c **** }
 413              		.loc 1 186 3 is_stmt 1 view .LVU108
 186:Lib/Camera_Middleware/sensors/cmw_ov5640.c **** }
 414              		.loc 1 186 31 is_stmt 0 view .LVU109
 415 0010 2223     		movs	r3, #34
 416 0012 0360     		str	r3, [r0]
ARM GAS  C:\Users\DJESSOU\AppData\Local\Temp\cc5TDnr2.s 			page 13


 187:Lib/Camera_Middleware/sensors/cmw_ov5640.c **** 
 417              		.loc 1 187 1 view .LVU110
 418 0014 08BD     		pop	{r3, pc}
 419              	.L39:
 420 0016 00BF     		.align	2
 421              	.L38:
 422 0018 00000000 		.word	.LC0
 423 001c 00000000 		.word	__func__.0
 424 0020 16000000 		.word	.LC1
 425              		.cfi_endproc
 426              	.LFE872:
 428              		.section	.text.CMW_OV5640_Probe,"ax",%progbits
 429              		.align	1
 430              		.global	CMW_OV5640_Probe
 431              		.syntax unified
 432              		.thumb
 433              		.thumb_func
 435              	CMW_OV5640_Probe:
 436              	.LVL44:
 437              	.LFB875:
 192:Lib/Camera_Middleware/sensors/cmw_ov5640.c **** }
 193:Lib/Camera_Middleware/sensors/cmw_ov5640.c **** 
 194:Lib/Camera_Middleware/sensors/cmw_ov5640.c **** static void CMW_OV5640_PowerOn(CMW_OV5640_t *io_ctx)
 195:Lib/Camera_Middleware/sensors/cmw_ov5640.c **** {
 196:Lib/Camera_Middleware/sensors/cmw_ov5640.c ****   /* Camera sensor Power-On sequence */
 197:Lib/Camera_Middleware/sensors/cmw_ov5640.c ****   /* Assert the camera  NRST pins */
 198:Lib/Camera_Middleware/sensors/cmw_ov5640.c ****   io_ctx->EnablePin(1);
 199:Lib/Camera_Middleware/sensors/cmw_ov5640.c ****   io_ctx->ShutdownPin(0);  /* Disable MB1723 2V8 signal  */
 200:Lib/Camera_Middleware/sensors/cmw_ov5640.c ****   io_ctx->Delay(200); /* NRST signals asserted during 200ms */
 201:Lib/Camera_Middleware/sensors/cmw_ov5640.c ****   /* De-assert the camera STANDBY pin (active high) */
 202:Lib/Camera_Middleware/sensors/cmw_ov5640.c ****   io_ctx->ShutdownPin(1);  /* Disable MB1723 2V8 signal  */
 203:Lib/Camera_Middleware/sensors/cmw_ov5640.c **** 	io_ctx->Delay(20);     /* NRST de-asserted during 20ms */
 204:Lib/Camera_Middleware/sensors/cmw_ov5640.c **** }
 205:Lib/Camera_Middleware/sensors/cmw_ov5640.c **** 
 206:Lib/Camera_Middleware/sensors/cmw_ov5640.c **** int CMW_OV5640_Probe(CMW_OV5640_t *io_ctx, CMW_Sensor_if_t *ov5640_if)
 207:Lib/Camera_Middleware/sensors/cmw_ov5640.c **** {
 438              		.loc 1 207 1 is_stmt 1 view -0
 439              		.cfi_startproc
 440              		@ args = 0, pretend = 0, frame = 8
 441              		@ frame_needed = 0, uses_anonymous_args = 0
 208:Lib/Camera_Middleware/sensors/cmw_ov5640.c ****   int ret = CMW_ERROR_NONE;
 442              		.loc 1 208 3 view .LVU112
 209:Lib/Camera_Middleware/sensors/cmw_ov5640.c ****   uint32_t id;
 443              		.loc 1 209 3 view .LVU113
 210:Lib/Camera_Middleware/sensors/cmw_ov5640.c ****   io_ctx->ctx_driver.IO.Address = io_ctx->Address;
 444              		.loc 1 210 3 view .LVU114
 207:Lib/Camera_Middleware/sensors/cmw_ov5640.c ****   int ret = CMW_ERROR_NONE;
 445              		.loc 1 207 1 is_stmt 0 view .LVU115
 446 0000 F7B5     		push	{r0, r1, r2, r4, r5, r6, r7, lr}
 447              		.cfi_def_cfa_offset 32
 448              		.cfi_offset 4, -20
 449              		.cfi_offset 5, -16
 450              		.cfi_offset 6, -12
 451              		.cfi_offset 7, -8
 452              		.cfi_offset 14, -4
 211:Lib/Camera_Middleware/sensors/cmw_ov5640.c ****   io_ctx->ctx_driver.IO.Init = io_ctx->Init;
 212:Lib/Camera_Middleware/sensors/cmw_ov5640.c ****   io_ctx->ctx_driver.IO.DeInit = io_ctx->DeInit;
ARM GAS  C:\Users\DJESSOU\AppData\Local\Temp\cc5TDnr2.s 			page 14


 213:Lib/Camera_Middleware/sensors/cmw_ov5640.c ****   io_ctx->ctx_driver.IO.GetTick = io_ctx->GetTick;
 214:Lib/Camera_Middleware/sensors/cmw_ov5640.c ****   io_ctx->ctx_driver.IO.ReadReg = io_ctx->ReadReg;
 215:Lib/Camera_Middleware/sensors/cmw_ov5640.c ****   io_ctx->ctx_driver.IO.WriteReg = io_ctx->WriteReg;
 216:Lib/Camera_Middleware/sensors/cmw_ov5640.c ****   io_ctx->ctx_driver.Mode = SERIAL_MODE;
 453              		.loc 1 216 27 view .LVU116
 454 0002 0126     		movs	r6, #1
 217:Lib/Camera_Middleware/sensors/cmw_ov5640.c ****   io_ctx->ctx_driver.VirtualChannelID = 0U;
 455              		.loc 1 217 39 view .LVU117
 456 0004 0027     		movs	r7, #0
 207:Lib/Camera_Middleware/sensors/cmw_ov5640.c ****   int ret = CMW_ERROR_NONE;
 457              		.loc 1 207 1 view .LVU118
 458 0006 0446     		mov	r4, r0
 210:Lib/Camera_Middleware/sensors/cmw_ov5640.c ****   io_ctx->ctx_driver.IO.Init = io_ctx->Init;
 459              		.loc 1 210 33 view .LVU119
 460 0008 0388     		ldrh	r3, [r0]
 216:Lib/Camera_Middleware/sensors/cmw_ov5640.c ****   io_ctx->ctx_driver.VirtualChannelID = 0U;
 461              		.loc 1 216 27 view .LVU120
 462 000a 80F82D60 		strb	r6, [r0, #45]
 210:Lib/Camera_Middleware/sensors/cmw_ov5640.c ****   io_ctx->ctx_driver.IO.Init = io_ctx->Init;
 463              		.loc 1 210 33 view .LVU121
 464 000e 0382     		strh	r3, [r0, #16]	@ movhi
 211:Lib/Camera_Middleware/sensors/cmw_ov5640.c ****   io_ctx->ctx_driver.IO.DeInit = io_ctx->DeInit;
 465              		.loc 1 211 3 is_stmt 1 view .LVU122
 211:Lib/Camera_Middleware/sensors/cmw_ov5640.c ****   io_ctx->ctx_driver.IO.DeInit = io_ctx->DeInit;
 466              		.loc 1 211 30 is_stmt 0 view .LVU123
 467 0010 836B     		ldr	r3, [r0, #56]
 468              		.loc 1 217 39 view .LVU124
 469 0012 0763     		str	r7, [r0, #48]
 211:Lib/Camera_Middleware/sensors/cmw_ov5640.c ****   io_ctx->ctx_driver.IO.DeInit = io_ctx->DeInit;
 470              		.loc 1 211 30 view .LVU125
 471 0014 8360     		str	r3, [r0, #8]
 212:Lib/Camera_Middleware/sensors/cmw_ov5640.c ****   io_ctx->ctx_driver.IO.GetTick = io_ctx->GetTick;
 472              		.loc 1 212 3 is_stmt 1 view .LVU126
 212:Lib/Camera_Middleware/sensors/cmw_ov5640.c ****   io_ctx->ctx_driver.IO.GetTick = io_ctx->GetTick;
 473              		.loc 1 212 32 is_stmt 0 view .LVU127
 474 0016 C36B     		ldr	r3, [r0, #60]
 207:Lib/Camera_Middleware/sensors/cmw_ov5640.c ****   int ret = CMW_ERROR_NONE;
 475              		.loc 1 207 1 view .LVU128
 476 0018 0D46     		mov	r5, r1
 212:Lib/Camera_Middleware/sensors/cmw_ov5640.c ****   io_ctx->ctx_driver.IO.GetTick = io_ctx->GetTick;
 477              		.loc 1 212 32 view .LVU129
 478 001a C360     		str	r3, [r0, #12]
 213:Lib/Camera_Middleware/sensors/cmw_ov5640.c ****   io_ctx->ctx_driver.IO.ReadReg = io_ctx->ReadReg;
 479              		.loc 1 213 3 is_stmt 1 view .LVU130
 213:Lib/Camera_Middleware/sensors/cmw_ov5640.c ****   io_ctx->ctx_driver.IO.ReadReg = io_ctx->ReadReg;
 480              		.loc 1 213 33 is_stmt 0 view .LVU131
 481 001c 836C     		ldr	r3, [r0, #72]
 218:Lib/Camera_Middleware/sensors/cmw_ov5640.c **** 
 219:Lib/Camera_Middleware/sensors/cmw_ov5640.c ****   CMW_OV5640_PowerOn(io_ctx);
 220:Lib/Camera_Middleware/sensors/cmw_ov5640.c **** 
 221:Lib/Camera_Middleware/sensors/cmw_ov5640.c ****   ret = OV5640_RegisterBusIO(&io_ctx->ctx_driver, &io_ctx->ctx_driver.IO);
 482              		.loc 1 221 9 view .LVU132
 483 001e 0834     		adds	r4, r4, #8
 213:Lib/Camera_Middleware/sensors/cmw_ov5640.c ****   io_ctx->ctx_driver.IO.ReadReg = io_ctx->ReadReg;
 484              		.loc 1 213 33 view .LVU133
 485 0020 C361     		str	r3, [r0, #28]
 214:Lib/Camera_Middleware/sensors/cmw_ov5640.c ****   io_ctx->ctx_driver.IO.WriteReg = io_ctx->WriteReg;
ARM GAS  C:\Users\DJESSOU\AppData\Local\Temp\cc5TDnr2.s 			page 15


 486              		.loc 1 214 3 is_stmt 1 view .LVU134
 214:Lib/Camera_Middleware/sensors/cmw_ov5640.c ****   io_ctx->ctx_driver.IO.WriteReg = io_ctx->WriteReg;
 487              		.loc 1 214 33 is_stmt 0 view .LVU135
 488 0022 436C     		ldr	r3, [r0, #68]
 489 0024 8361     		str	r3, [r0, #24]
 215:Lib/Camera_Middleware/sensors/cmw_ov5640.c ****   io_ctx->ctx_driver.Mode = SERIAL_MODE;
 490              		.loc 1 215 3 is_stmt 1 view .LVU136
 215:Lib/Camera_Middleware/sensors/cmw_ov5640.c ****   io_ctx->ctx_driver.Mode = SERIAL_MODE;
 491              		.loc 1 215 34 is_stmt 0 view .LVU137
 492 0026 036C     		ldr	r3, [r0, #64]
 493 0028 4361     		str	r3, [r0, #20]
 216:Lib/Camera_Middleware/sensors/cmw_ov5640.c ****   io_ctx->ctx_driver.VirtualChannelID = 0U;
 494              		.loc 1 216 3 is_stmt 1 view .LVU138
 217:Lib/Camera_Middleware/sensors/cmw_ov5640.c **** 
 495              		.loc 1 217 3 view .LVU139
 219:Lib/Camera_Middleware/sensors/cmw_ov5640.c **** 
 496              		.loc 1 219 3 view .LVU140
 497              	.LVL45:
 498              	.LBB10:
 499              	.LBI10:
 194:Lib/Camera_Middleware/sensors/cmw_ov5640.c **** {
 500              		.loc 1 194 13 view .LVU141
 501              	.LBB11:
 198:Lib/Camera_Middleware/sensors/cmw_ov5640.c ****   io_ctx->ShutdownPin(0);  /* Disable MB1723 2V8 signal  */
 502              		.loc 1 198 3 view .LVU142
 503 002a 436D     		ldr	r3, [r0, #84]
 504 002c 3046     		mov	r0, r6
 505              	.LVL46:
 198:Lib/Camera_Middleware/sensors/cmw_ov5640.c ****   io_ctx->ShutdownPin(0);  /* Disable MB1723 2V8 signal  */
 506              		.loc 1 198 3 is_stmt 0 view .LVU143
 507 002e 9847     		blx	r3
 508              	.LVL47:
 199:Lib/Camera_Middleware/sensors/cmw_ov5640.c ****   io_ctx->Delay(200); /* NRST signals asserted during 200ms */
 509              		.loc 1 199 3 is_stmt 1 view .LVU144
 510 0030 A36C     		ldr	r3, [r4, #72]
 511 0032 3846     		mov	r0, r7
 512 0034 9847     		blx	r3
 513              	.LVL48:
 200:Lib/Camera_Middleware/sensors/cmw_ov5640.c ****   /* De-assert the camera STANDBY pin (active high) */
 514              		.loc 1 200 3 view .LVU145
 515 0036 636C     		ldr	r3, [r4, #68]
 516 0038 C820     		movs	r0, #200
 517 003a 9847     		blx	r3
 518              	.LVL49:
 202:Lib/Camera_Middleware/sensors/cmw_ov5640.c **** 	io_ctx->Delay(20);     /* NRST de-asserted during 20ms */
 519              		.loc 1 202 3 view .LVU146
 520 003c A36C     		ldr	r3, [r4, #72]
 521 003e 3046     		mov	r0, r6
 522 0040 9847     		blx	r3
 523              	.LVL50:
 203:Lib/Camera_Middleware/sensors/cmw_ov5640.c **** }
 524              		.loc 1 203 2 view .LVU147
 525 0042 636C     		ldr	r3, [r4, #68]
 526 0044 1420     		movs	r0, #20
 527 0046 9847     		blx	r3
 528              	.LVL51:
 203:Lib/Camera_Middleware/sensors/cmw_ov5640.c **** }
ARM GAS  C:\Users\DJESSOU\AppData\Local\Temp\cc5TDnr2.s 			page 16


 529              		.loc 1 203 2 is_stmt 0 view .LVU148
 530              	.LBE11:
 531              	.LBE10:
 532              		.loc 1 221 3 is_stmt 1 view .LVU149
 533              		.loc 1 221 9 is_stmt 0 view .LVU150
 534 0048 2146     		mov	r1, r4
 535 004a 2046     		mov	r0, r4
 536 004c FFF7FEFF 		bl	OV5640_RegisterBusIO
 537              	.LVL52:
 222:Lib/Camera_Middleware/sensors/cmw_ov5640.c ****   if (ret != OV5640_OK)
 538              		.loc 1 222 3 is_stmt 1 view .LVU151
 539              		.loc 1 222 6 is_stmt 0 view .LVU152
 540 0050 0646     		mov	r6, r0
 541 0052 20B1     		cbz	r0, .L41
 542              	.LVL53:
 543              	.L43:
 223:Lib/Camera_Middleware/sensors/cmw_ov5640.c ****   {
 224:Lib/Camera_Middleware/sensors/cmw_ov5640.c ****     return CMW_ERROR_COMPONENT_FAILURE;
 544              		.loc 1 224 12 view .LVU153
 545 0054 6FF00404 		mvn	r4, #4
 546              	.LVL54:
 547              	.L40:
 225:Lib/Camera_Middleware/sensors/cmw_ov5640.c ****   }
 226:Lib/Camera_Middleware/sensors/cmw_ov5640.c **** 
 227:Lib/Camera_Middleware/sensors/cmw_ov5640.c ****   ret = OV5640_ReadID(&io_ctx->ctx_driver, &id);
 228:Lib/Camera_Middleware/sensors/cmw_ov5640.c ****   if (ret != OV5640_OK)
 229:Lib/Camera_Middleware/sensors/cmw_ov5640.c ****   {
 230:Lib/Camera_Middleware/sensors/cmw_ov5640.c ****     return CMW_ERROR_COMPONENT_FAILURE;
 231:Lib/Camera_Middleware/sensors/cmw_ov5640.c ****   }
 232:Lib/Camera_Middleware/sensors/cmw_ov5640.c ****   if (id != OV5640_ID)
 233:Lib/Camera_Middleware/sensors/cmw_ov5640.c ****   {
 234:Lib/Camera_Middleware/sensors/cmw_ov5640.c ****       ret = CMW_ERROR_UNKNOWN_COMPONENT;
 235:Lib/Camera_Middleware/sensors/cmw_ov5640.c ****   }
 236:Lib/Camera_Middleware/sensors/cmw_ov5640.c **** 
 237:Lib/Camera_Middleware/sensors/cmw_ov5640.c ****   memset(ov5640_if, 0, sizeof(*ov5640_if));
 238:Lib/Camera_Middleware/sensors/cmw_ov5640.c ****   ov5640_if->Init = CMW_OV5640_Init;
 239:Lib/Camera_Middleware/sensors/cmw_ov5640.c ****   ov5640_if->Start = CMW_OV5640_Start;
 240:Lib/Camera_Middleware/sensors/cmw_ov5640.c ****   ov5640_if->DeInit = CMW_OV5640_DeInit;
 241:Lib/Camera_Middleware/sensors/cmw_ov5640.c ****   ov5640_if->ReadID = CMW_OV5640_ReadID;
 242:Lib/Camera_Middleware/sensors/cmw_ov5640.c ****   ov5640_if->SetMirrorFlip = CMW_OV5640_SetMirrorFlip;
 243:Lib/Camera_Middleware/sensors/cmw_ov5640.c ****   ov5640_if->GetSensorInfo = CMW_OV5640_GetSensorInfo;
 244:Lib/Camera_Middleware/sensors/cmw_ov5640.c ****   return ret;
 245:Lib/Camera_Middleware/sensors/cmw_ov5640.c **** }
 548              		.loc 1 245 1 view .LVU154
 549 0058 2046     		mov	r0, r4
 550 005a 03B0     		add	sp, sp, #12
 551              		.cfi_remember_state
 552              		.cfi_def_cfa_offset 20
 553              		@ sp needed
 554 005c F0BD     		pop	{r4, r5, r6, r7, pc}
 555              	.LVL55:
 556              	.L41:
 557              		.cfi_restore_state
 227:Lib/Camera_Middleware/sensors/cmw_ov5640.c ****   if (ret != OV5640_OK)
 558              		.loc 1 227 3 is_stmt 1 view .LVU155
 227:Lib/Camera_Middleware/sensors/cmw_ov5640.c ****   if (ret != OV5640_OK)
 559              		.loc 1 227 9 is_stmt 0 view .LVU156
ARM GAS  C:\Users\DJESSOU\AppData\Local\Temp\cc5TDnr2.s 			page 17


 560 005e 2046     		mov	r0, r4
 561              	.LVL56:
 227:Lib/Camera_Middleware/sensors/cmw_ov5640.c ****   if (ret != OV5640_OK)
 562              		.loc 1 227 9 view .LVU157
 563 0060 01A9     		add	r1, sp, #4
 564 0062 FFF7FEFF 		bl	OV5640_ReadID
 565              	.LVL57:
 228:Lib/Camera_Middleware/sensors/cmw_ov5640.c ****   {
 566              		.loc 1 228 3 is_stmt 1 view .LVU158
 228:Lib/Camera_Middleware/sensors/cmw_ov5640.c ****   {
 567              		.loc 1 228 6 is_stmt 0 view .LVU159
 568 0066 0446     		mov	r4, r0
 569 0068 0028     		cmp	r0, #0
 570 006a F3D1     		bne	.L43
 232:Lib/Camera_Middleware/sensors/cmw_ov5640.c ****   {
 571              		.loc 1 232 3 is_stmt 1 view .LVU160
 234:Lib/Camera_Middleware/sensors/cmw_ov5640.c ****   }
 572              		.loc 1 234 11 is_stmt 0 view .LVU161
 573 006c 45F24063 		movw	r3, #22080
 574 0070 019A     		ldr	r2, [sp, #4]
 237:Lib/Camera_Middleware/sensors/cmw_ov5640.c ****   ov5640_if->Init = CMW_OV5640_Init;
 575              		.loc 1 237 3 view .LVU162
 576 0072 3146     		mov	r1, r6
 234:Lib/Camera_Middleware/sensors/cmw_ov5640.c ****   }
 577              		.loc 1 234 11 view .LVU163
 578 0074 9A42     		cmp	r2, r3
 579 0076 08BF     		it	eq
 580 0078 0446     		moveq	r4, r0
 237:Lib/Camera_Middleware/sensors/cmw_ov5640.c ****   ov5640_if->Init = CMW_OV5640_Init;
 581              		.loc 1 237 3 view .LVU164
 582 007a 4FF06002 		mov	r2, #96
 583 007e 05F10C00 		add	r0, r5, #12
 584              	.LVL58:
 234:Lib/Camera_Middleware/sensors/cmw_ov5640.c ****   }
 585              		.loc 1 234 11 view .LVU165
 586 0082 18BF     		it	ne
 587 0084 6FF00604 		mvnne	r4, #6
 588              	.LVL59:
 237:Lib/Camera_Middleware/sensors/cmw_ov5640.c ****   ov5640_if->Init = CMW_OV5640_Init;
 589              		.loc 1 237 3 is_stmt 1 view .LVU166
 590 0088 FFF7FEFF 		bl	memset
 591              	.LVL60:
 238:Lib/Camera_Middleware/sensors/cmw_ov5640.c ****   ov5640_if->Start = CMW_OV5640_Start;
 592              		.loc 1 238 3 view .LVU167
 238:Lib/Camera_Middleware/sensors/cmw_ov5640.c ****   ov5640_if->Start = CMW_OV5640_Start;
 593              		.loc 1 238 19 is_stmt 0 view .LVU168
 594 008c 064B     		ldr	r3, .L46
 595 008e 2B60     		str	r3, [r5]
 239:Lib/Camera_Middleware/sensors/cmw_ov5640.c ****   ov5640_if->DeInit = CMW_OV5640_DeInit;
 596              		.loc 1 239 3 is_stmt 1 view .LVU169
 239:Lib/Camera_Middleware/sensors/cmw_ov5640.c ****   ov5640_if->DeInit = CMW_OV5640_DeInit;
 597              		.loc 1 239 20 is_stmt 0 view .LVU170
 598 0090 064B     		ldr	r3, .L46+4
 599 0092 AB60     		str	r3, [r5, #8]
 240:Lib/Camera_Middleware/sensors/cmw_ov5640.c ****   ov5640_if->ReadID = CMW_OV5640_ReadID;
 600              		.loc 1 240 3 is_stmt 1 view .LVU171
 240:Lib/Camera_Middleware/sensors/cmw_ov5640.c ****   ov5640_if->ReadID = CMW_OV5640_ReadID;
ARM GAS  C:\Users\DJESSOU\AppData\Local\Temp\cc5TDnr2.s 			page 18


 601              		.loc 1 240 21 is_stmt 0 view .LVU172
 602 0094 064B     		ldr	r3, .L46+8
 603 0096 6B60     		str	r3, [r5, #4]
 241:Lib/Camera_Middleware/sensors/cmw_ov5640.c ****   ov5640_if->SetMirrorFlip = CMW_OV5640_SetMirrorFlip;
 604              		.loc 1 241 3 is_stmt 1 view .LVU173
 241:Lib/Camera_Middleware/sensors/cmw_ov5640.c ****   ov5640_if->SetMirrorFlip = CMW_OV5640_SetMirrorFlip;
 605              		.loc 1 241 21 is_stmt 0 view .LVU174
 606 0098 064B     		ldr	r3, .L46+12
 607 009a EB61     		str	r3, [r5, #28]
 242:Lib/Camera_Middleware/sensors/cmw_ov5640.c ****   ov5640_if->GetSensorInfo = CMW_OV5640_GetSensorInfo;
 608              		.loc 1 242 3 is_stmt 1 view .LVU175
 242:Lib/Camera_Middleware/sensors/cmw_ov5640.c ****   ov5640_if->GetSensorInfo = CMW_OV5640_GetSensorInfo;
 609              		.loc 1 242 28 is_stmt 0 view .LVU176
 610 009c 064B     		ldr	r3, .L46+16
 611 009e EB62     		str	r3, [r5, #44]
 243:Lib/Camera_Middleware/sensors/cmw_ov5640.c ****   return ret;
 612              		.loc 1 243 3 is_stmt 1 view .LVU177
 243:Lib/Camera_Middleware/sensors/cmw_ov5640.c ****   return ret;
 613              		.loc 1 243 28 is_stmt 0 view .LVU178
 614 00a0 064B     		ldr	r3, .L46+20
 615 00a2 2B66     		str	r3, [r5, #96]
 244:Lib/Camera_Middleware/sensors/cmw_ov5640.c **** }
 616              		.loc 1 244 3 is_stmt 1 view .LVU179
 244:Lib/Camera_Middleware/sensors/cmw_ov5640.c **** }
 617              		.loc 1 244 10 is_stmt 0 view .LVU180
 618 00a4 D8E7     		b	.L40
 619              	.L47:
 620 00a6 00BF     		.align	2
 621              	.L46:
 622 00a8 00000000 		.word	CMW_OV5640_Init
 623 00ac 00000000 		.word	CMW_OV5640_Start
 624 00b0 00000000 		.word	CMW_OV5640_DeInit
 625 00b4 00000000 		.word	CMW_OV5640_ReadID
 626 00b8 00000000 		.word	CMW_OV5640_SetMirrorFlip
 627 00bc 00000000 		.word	CMW_OV5640_GetSensorInfo
 628              		.cfi_endproc
 629              	.LFE875:
 631              		.section	.rodata.__func__.0,"a"
 634              	__func__.0:
 635 0000 434D575F 		.ascii	"CMW_OV5640_SetDefaultSensorValues\000"
 635      4F563536 
 635      34305F53 
 635      65744465 
 635      6661756C 
 636              		.text
 637              	.Letext0:
 638              		.file 2 "C:\\ST\\STM32CubeIDE_1.18.1\\STM32CubeIDE\\plugins\\com.st.stm32cube.ide.mcu.externaltool
 639              		.file 3 "C:\\ST\\STM32CubeIDE_1.18.1\\STM32CubeIDE\\plugins\\com.st.stm32cube.ide.mcu.externaltool
 640              		.file 4 "C:\\ST\\STM32CubeIDE_1.18.1\\STM32CubeIDE\\plugins\\com.st.stm32cube.ide.mcu.externaltool
 641              		.file 5 "Lib/Camera_Middleware/ISP_Library/isp/Inc/isp_core.h"
 642              		.file 6 "Lib/Camera_Middleware/sensors/cmw_sensors_if.h"
 643              		.file 7 "Lib/Camera_Middleware/sensors/ov5640/ov5640_reg.h"
 644              		.file 8 "Lib/Camera_Middleware/sensors/ov5640/ov5640.h"
 645              		.file 9 "Lib/Camera_Middleware/cmw_camera.h"
 646              		.file 10 "Lib/Camera_Middleware/sensors/cmw_ov5640.h"
 647              		.file 11 "C:\\ST\\STM32CubeIDE_1.18.1\\STM32CubeIDE\\plugins\\com.st.stm32cube.ide.mcu.externaltoo
 648              		.file 12 "C:\\ST\\STM32CubeIDE_1.18.1\\STM32CubeIDE\\plugins\\com.st.stm32cube.ide.mcu.externaltoo
ARM GAS  C:\Users\DJESSOU\AppData\Local\Temp\cc5TDnr2.s 			page 19


 649              		.file 13 "<built-in>"
ARM GAS  C:\Users\DJESSOU\AppData\Local\Temp\cc5TDnr2.s 			page 20

