ARM GAS  C:\Users\DJESSOU\AppData\Local\Temp\ccVrO9fV.s 			page 1


   1              		.arch armv8.1-m.main
   2              		.fpu fpv5-d16
   3              		.arch_extension dsp
   4              		.arch_extension fp
   5              		.arch_extension fp.dp
   6              		.arch_extension mve
   7              		.arch_extension mve.fp
   8              		.eabi_attribute 5, "cortex-m55"
   9              		.eabi_attribute 28, 1
  10              		.eabi_attribute 20, 1
  11              		.eabi_attribute 21, 1
  12              		.eabi_attribute 23, 3
  13              		.eabi_attribute 24, 1
  14              		.eabi_attribute 25, 1
  15              		.eabi_attribute 26, 1
  16              		.eabi_attribute 30, 4
  17              		.eabi_attribute 34, 1
  18              		.eabi_attribute 38, 1
  19              		.eabi_attribute 18, 4
  20              		.file	"cmw_imx335.c"
  21              		.text
  22              	.Ltext0:
  23              		.cfi_sections	.debug_frame
  24              		.file 1 "Lib/Camera_Middleware/sensors/cmw_imx335.c"
  25              		.section	.text.CMW_IMX335_FrameEventCallback,"ax",%progbits
  26              		.align	1
  27              		.syntax unified
  28              		.thumb
  29              		.thumb_func
  31              	CMW_IMX335_FrameEventCallback:
  32              	.LVL0:
  33              	.LFB3432:
   1:Lib/Camera_Middleware/sensors/cmw_imx335.c **** /**
   2:Lib/Camera_Middleware/sensors/cmw_imx335.c ****   ******************************************************************************
   3:Lib/Camera_Middleware/sensors/cmw_imx335.c ****   * @file    cmw_imx335.c
   4:Lib/Camera_Middleware/sensors/cmw_imx335.c ****   * @author  MDG Application Team
   5:Lib/Camera_Middleware/sensors/cmw_imx335.c ****   ******************************************************************************
   6:Lib/Camera_Middleware/sensors/cmw_imx335.c ****   * @attention
   7:Lib/Camera_Middleware/sensors/cmw_imx335.c ****   *
   8:Lib/Camera_Middleware/sensors/cmw_imx335.c ****   * Copyright (c) 2024 STMicroelectronics.
   9:Lib/Camera_Middleware/sensors/cmw_imx335.c ****   * All rights reserved.
  10:Lib/Camera_Middleware/sensors/cmw_imx335.c ****   *
  11:Lib/Camera_Middleware/sensors/cmw_imx335.c ****   * This software is licensed under terms that can be found in the LICENSE file
  12:Lib/Camera_Middleware/sensors/cmw_imx335.c ****   * in the root directory of this software component.
  13:Lib/Camera_Middleware/sensors/cmw_imx335.c ****   * If no LICENSE file comes with this software, it is provided AS-IS.
  14:Lib/Camera_Middleware/sensors/cmw_imx335.c ****   *
  15:Lib/Camera_Middleware/sensors/cmw_imx335.c ****   ******************************************************************************
  16:Lib/Camera_Middleware/sensors/cmw_imx335.c ****   */
  17:Lib/Camera_Middleware/sensors/cmw_imx335.c **** 
  18:Lib/Camera_Middleware/sensors/cmw_imx335.c **** #include <assert.h>
  19:Lib/Camera_Middleware/sensors/cmw_imx335.c **** #include <stdlib.h>
  20:Lib/Camera_Middleware/sensors/cmw_imx335.c **** #include <stdio.h>
  21:Lib/Camera_Middleware/sensors/cmw_imx335.c **** #include <stddef.h>
  22:Lib/Camera_Middleware/sensors/cmw_imx335.c **** #include <string.h>
  23:Lib/Camera_Middleware/sensors/cmw_imx335.c **** #include "cmw_imx335.h"
  24:Lib/Camera_Middleware/sensors/cmw_imx335.c **** #include "cmw_camera.h"
  25:Lib/Camera_Middleware/sensors/cmw_imx335.c **** #include "imx335_reg.h"
ARM GAS  C:\Users\DJESSOU\AppData\Local\Temp\ccVrO9fV.s 			page 2


  26:Lib/Camera_Middleware/sensors/cmw_imx335.c **** #include "imx335.h"
  27:Lib/Camera_Middleware/sensors/cmw_imx335.c **** #ifndef ISP_MW_TUNING_TOOL_SUPPORT
  28:Lib/Camera_Middleware/sensors/cmw_imx335.c **** #include "isp_param_conf.h"
  29:Lib/Camera_Middleware/sensors/cmw_imx335.c **** #endif
  30:Lib/Camera_Middleware/sensors/cmw_imx335.c **** 
  31:Lib/Camera_Middleware/sensors/cmw_imx335.c **** #define ARRAY_SIZE(arr) (sizeof(arr) / sizeof((arr)[0]))
  32:Lib/Camera_Middleware/sensors/cmw_imx335.c **** 
  33:Lib/Camera_Middleware/sensors/cmw_imx335.c **** 
  34:Lib/Camera_Middleware/sensors/cmw_imx335.c **** static int CMW_IMX335_GetResType(uint32_t width, uint32_t height, uint32_t*res)
  35:Lib/Camera_Middleware/sensors/cmw_imx335.c **** {
  36:Lib/Camera_Middleware/sensors/cmw_imx335.c ****   if (width == 2592 && height == 1944)
  37:Lib/Camera_Middleware/sensors/cmw_imx335.c ****   {
  38:Lib/Camera_Middleware/sensors/cmw_imx335.c ****     *res = IMX335_R2592_1944;
  39:Lib/Camera_Middleware/sensors/cmw_imx335.c ****   }
  40:Lib/Camera_Middleware/sensors/cmw_imx335.c ****   else
  41:Lib/Camera_Middleware/sensors/cmw_imx335.c ****   {
  42:Lib/Camera_Middleware/sensors/cmw_imx335.c ****     return CMW_ERROR_WRONG_PARAM;
  43:Lib/Camera_Middleware/sensors/cmw_imx335.c ****   }
  44:Lib/Camera_Middleware/sensors/cmw_imx335.c ****   return 0;
  45:Lib/Camera_Middleware/sensors/cmw_imx335.c **** }
  46:Lib/Camera_Middleware/sensors/cmw_imx335.c **** 
  47:Lib/Camera_Middleware/sensors/cmw_imx335.c **** static int32_t CMW_IMX335_getMirrorFlipConfig(uint32_t Config)
  48:Lib/Camera_Middleware/sensors/cmw_imx335.c **** {
  49:Lib/Camera_Middleware/sensors/cmw_imx335.c ****   int32_t ret;
  50:Lib/Camera_Middleware/sensors/cmw_imx335.c **** 
  51:Lib/Camera_Middleware/sensors/cmw_imx335.c ****   switch (Config)
  52:Lib/Camera_Middleware/sensors/cmw_imx335.c ****   {
  53:Lib/Camera_Middleware/sensors/cmw_imx335.c ****     case CMW_MIRRORFLIP_NONE:
  54:Lib/Camera_Middleware/sensors/cmw_imx335.c ****       ret = IMX335_MIRROR_FLIP_NONE;
  55:Lib/Camera_Middleware/sensors/cmw_imx335.c ****       break;
  56:Lib/Camera_Middleware/sensors/cmw_imx335.c ****     case CMW_MIRRORFLIP_FLIP:
  57:Lib/Camera_Middleware/sensors/cmw_imx335.c ****       ret = IMX335_FLIP;
  58:Lib/Camera_Middleware/sensors/cmw_imx335.c ****       break;
  59:Lib/Camera_Middleware/sensors/cmw_imx335.c ****     case CMW_MIRRORFLIP_MIRROR:
  60:Lib/Camera_Middleware/sensors/cmw_imx335.c ****       ret = IMX335_MIRROR;
  61:Lib/Camera_Middleware/sensors/cmw_imx335.c ****       break;
  62:Lib/Camera_Middleware/sensors/cmw_imx335.c ****     case CMW_MIRRORFLIP_FLIP_MIRROR:
  63:Lib/Camera_Middleware/sensors/cmw_imx335.c ****     default:
  64:Lib/Camera_Middleware/sensors/cmw_imx335.c ****       ret = IMX335_MIRROR_FLIP;
  65:Lib/Camera_Middleware/sensors/cmw_imx335.c ****       break;
  66:Lib/Camera_Middleware/sensors/cmw_imx335.c ****   }
  67:Lib/Camera_Middleware/sensors/cmw_imx335.c **** 
  68:Lib/Camera_Middleware/sensors/cmw_imx335.c ****   return ret;
  69:Lib/Camera_Middleware/sensors/cmw_imx335.c **** }
  70:Lib/Camera_Middleware/sensors/cmw_imx335.c **** 
  71:Lib/Camera_Middleware/sensors/cmw_imx335.c **** static int32_t CMW_IMX335_DeInit(void *io_ctx)
  72:Lib/Camera_Middleware/sensors/cmw_imx335.c **** {
  73:Lib/Camera_Middleware/sensors/cmw_imx335.c ****   int ret = CMW_ERROR_NONE;
  74:Lib/Camera_Middleware/sensors/cmw_imx335.c ****   ret = ISP_DeInit(&((CMW_IMX335_t *)io_ctx)->hIsp);
  75:Lib/Camera_Middleware/sensors/cmw_imx335.c ****   if (ret)
  76:Lib/Camera_Middleware/sensors/cmw_imx335.c ****   {
  77:Lib/Camera_Middleware/sensors/cmw_imx335.c ****     return CMW_ERROR_COMPONENT_FAILURE;
  78:Lib/Camera_Middleware/sensors/cmw_imx335.c ****   }
  79:Lib/Camera_Middleware/sensors/cmw_imx335.c **** 
  80:Lib/Camera_Middleware/sensors/cmw_imx335.c ****   ret = IMX335_DeInit(&((CMW_IMX335_t *)io_ctx)->ctx_driver);
  81:Lib/Camera_Middleware/sensors/cmw_imx335.c ****   if (ret)
  82:Lib/Camera_Middleware/sensors/cmw_imx335.c ****   {
ARM GAS  C:\Users\DJESSOU\AppData\Local\Temp\ccVrO9fV.s 			page 3


  83:Lib/Camera_Middleware/sensors/cmw_imx335.c ****     return CMW_ERROR_COMPONENT_FAILURE;
  84:Lib/Camera_Middleware/sensors/cmw_imx335.c ****   }
  85:Lib/Camera_Middleware/sensors/cmw_imx335.c ****   return ret;
  86:Lib/Camera_Middleware/sensors/cmw_imx335.c **** }
  87:Lib/Camera_Middleware/sensors/cmw_imx335.c **** 
  88:Lib/Camera_Middleware/sensors/cmw_imx335.c **** static int32_t CMW_IMX335_ReadID(void *io_ctx, uint32_t *Id)
  89:Lib/Camera_Middleware/sensors/cmw_imx335.c **** {
  90:Lib/Camera_Middleware/sensors/cmw_imx335.c ****   return IMX335_ReadID(&((CMW_IMX335_t *)io_ctx)->ctx_driver, Id);
  91:Lib/Camera_Middleware/sensors/cmw_imx335.c **** }
  92:Lib/Camera_Middleware/sensors/cmw_imx335.c **** 
  93:Lib/Camera_Middleware/sensors/cmw_imx335.c **** static int32_t CMW_IMX335_SetGain(void *io_ctx, int32_t gain)
  94:Lib/Camera_Middleware/sensors/cmw_imx335.c **** {
  95:Lib/Camera_Middleware/sensors/cmw_imx335.c ****   return IMX335_SetGain(&((CMW_IMX335_t *)io_ctx)->ctx_driver, gain);
  96:Lib/Camera_Middleware/sensors/cmw_imx335.c **** }
  97:Lib/Camera_Middleware/sensors/cmw_imx335.c **** 
  98:Lib/Camera_Middleware/sensors/cmw_imx335.c **** static int32_t CMW_IMX335_SetExposure(void *io_ctx, int32_t exposure)
  99:Lib/Camera_Middleware/sensors/cmw_imx335.c **** {
 100:Lib/Camera_Middleware/sensors/cmw_imx335.c ****   return IMX335_SetExposure(&((CMW_IMX335_t *)io_ctx)->ctx_driver, exposure);
 101:Lib/Camera_Middleware/sensors/cmw_imx335.c **** }
 102:Lib/Camera_Middleware/sensors/cmw_imx335.c **** 
 103:Lib/Camera_Middleware/sensors/cmw_imx335.c **** /**
 104:Lib/Camera_Middleware/sensors/cmw_imx335.c ****   * @brief  Set the sensor white balance mode
 105:Lib/Camera_Middleware/sensors/cmw_imx335.c ****   * @param  io_ctx  pointer to component object
 106:Lib/Camera_Middleware/sensors/cmw_imx335.c ****   * @param  Automatic automatic mode enable/disable
 107:Lib/Camera_Middleware/sensors/cmw_imx335.c ****   * @param  RefColorTemp color temperature if automatic mode is disabled
 108:Lib/Camera_Middleware/sensors/cmw_imx335.c ****   * @retval Component status
 109:Lib/Camera_Middleware/sensors/cmw_imx335.c ****   */
 110:Lib/Camera_Middleware/sensors/cmw_imx335.c **** int32_t CMW_IMX335_SetWBRefMode(void *io_ctx, uint8_t Automatic, uint32_t RefColorTemp)
 111:Lib/Camera_Middleware/sensors/cmw_imx335.c **** {
 112:Lib/Camera_Middleware/sensors/cmw_imx335.c ****   int ret = CMW_ERROR_NONE;
 113:Lib/Camera_Middleware/sensors/cmw_imx335.c **** 
 114:Lib/Camera_Middleware/sensors/cmw_imx335.c ****   ret = ISP_SetWBRefMode(&((CMW_IMX335_t *)io_ctx)->hIsp, Automatic, RefColorTemp);
 115:Lib/Camera_Middleware/sensors/cmw_imx335.c ****   if (ret)
 116:Lib/Camera_Middleware/sensors/cmw_imx335.c ****   {
 117:Lib/Camera_Middleware/sensors/cmw_imx335.c ****     return CMW_ERROR_PERIPH_FAILURE;
 118:Lib/Camera_Middleware/sensors/cmw_imx335.c ****   }
 119:Lib/Camera_Middleware/sensors/cmw_imx335.c **** 
 120:Lib/Camera_Middleware/sensors/cmw_imx335.c ****   return CMW_ERROR_NONE;
 121:Lib/Camera_Middleware/sensors/cmw_imx335.c **** }
 122:Lib/Camera_Middleware/sensors/cmw_imx335.c **** 
 123:Lib/Camera_Middleware/sensors/cmw_imx335.c **** /**
 124:Lib/Camera_Middleware/sensors/cmw_imx335.c ****   * @brief  List the sensor white balance modes
 125:Lib/Camera_Middleware/sensors/cmw_imx335.c ****   * @param  io_ctx  pointer to component object
 126:Lib/Camera_Middleware/sensors/cmw_imx335.c ****   * @param  RefColorTemp color temperature list
 127:Lib/Camera_Middleware/sensors/cmw_imx335.c ****   * @retval Component status
 128:Lib/Camera_Middleware/sensors/cmw_imx335.c ****   */
 129:Lib/Camera_Middleware/sensors/cmw_imx335.c **** int32_t CMW_IMX335_ListWBRefModes(void *io_ctx, uint32_t RefColorTemp[])
 130:Lib/Camera_Middleware/sensors/cmw_imx335.c **** {
 131:Lib/Camera_Middleware/sensors/cmw_imx335.c ****   int ret = CMW_ERROR_NONE;
 132:Lib/Camera_Middleware/sensors/cmw_imx335.c **** 
 133:Lib/Camera_Middleware/sensors/cmw_imx335.c ****   ret = ISP_ListWBRefModes(&((CMW_IMX335_t *)io_ctx)->hIsp, RefColorTemp);
 134:Lib/Camera_Middleware/sensors/cmw_imx335.c ****   if (ret)
 135:Lib/Camera_Middleware/sensors/cmw_imx335.c ****   {
 136:Lib/Camera_Middleware/sensors/cmw_imx335.c ****     return CMW_ERROR_PERIPH_FAILURE;
 137:Lib/Camera_Middleware/sensors/cmw_imx335.c ****   }
 138:Lib/Camera_Middleware/sensors/cmw_imx335.c **** 
 139:Lib/Camera_Middleware/sensors/cmw_imx335.c ****   return CMW_ERROR_NONE;
ARM GAS  C:\Users\DJESSOU\AppData\Local\Temp\ccVrO9fV.s 			page 4


 140:Lib/Camera_Middleware/sensors/cmw_imx335.c **** }
 141:Lib/Camera_Middleware/sensors/cmw_imx335.c **** 
 142:Lib/Camera_Middleware/sensors/cmw_imx335.c **** static int32_t CMW_IMX335_SetFrequency(void *io_ctx, int32_t frequency)
 143:Lib/Camera_Middleware/sensors/cmw_imx335.c **** {
 144:Lib/Camera_Middleware/sensors/cmw_imx335.c ****   return IMX335_SetFrequency(&((CMW_IMX335_t *)io_ctx)->ctx_driver, frequency);
 145:Lib/Camera_Middleware/sensors/cmw_imx335.c **** }
 146:Lib/Camera_Middleware/sensors/cmw_imx335.c **** 
 147:Lib/Camera_Middleware/sensors/cmw_imx335.c **** static int32_t CMW_IMX335_SetFramerate(void *io_ctx, int32_t framerate)
 148:Lib/Camera_Middleware/sensors/cmw_imx335.c **** {
 149:Lib/Camera_Middleware/sensors/cmw_imx335.c ****   const int32_t available_imx335_fps[] = {10, 15, 20, 25, 30};
 150:Lib/Camera_Middleware/sensors/cmw_imx335.c **** 
 151:Lib/Camera_Middleware/sensors/cmw_imx335.c ****   for (int i = 0; i < ARRAY_SIZE(available_imx335_fps); i++)
 152:Lib/Camera_Middleware/sensors/cmw_imx335.c ****     if (framerate == available_imx335_fps[i])
 153:Lib/Camera_Middleware/sensors/cmw_imx335.c ****       return IMX335_SetFramerate(&((CMW_IMX335_t *)io_ctx)->ctx_driver, framerate);
 154:Lib/Camera_Middleware/sensors/cmw_imx335.c **** 
 155:Lib/Camera_Middleware/sensors/cmw_imx335.c ****   return CMW_ERROR_WRONG_PARAM;
 156:Lib/Camera_Middleware/sensors/cmw_imx335.c **** }
 157:Lib/Camera_Middleware/sensors/cmw_imx335.c **** 
 158:Lib/Camera_Middleware/sensors/cmw_imx335.c **** static int32_t CMW_IMX335_SetMirrorFlip(void *io_ctx, uint32_t config)
 159:Lib/Camera_Middleware/sensors/cmw_imx335.c **** {
 160:Lib/Camera_Middleware/sensors/cmw_imx335.c ****   int32_t mirrorFlip = CMW_IMX335_getMirrorFlipConfig(config);
 161:Lib/Camera_Middleware/sensors/cmw_imx335.c ****   return IMX335_MirrorFlipConfig(&((CMW_IMX335_t *)io_ctx)->ctx_driver, mirrorFlip);
 162:Lib/Camera_Middleware/sensors/cmw_imx335.c **** }
 163:Lib/Camera_Middleware/sensors/cmw_imx335.c **** 
 164:Lib/Camera_Middleware/sensors/cmw_imx335.c **** static int32_t CMW_IMX335_GetSensorInfo(void *io_ctx, ISP_SensorInfoTypeDef *info)
 165:Lib/Camera_Middleware/sensors/cmw_imx335.c **** {
 166:Lib/Camera_Middleware/sensors/cmw_imx335.c ****   if ((io_ctx ==  NULL) || (info == NULL))
 167:Lib/Camera_Middleware/sensors/cmw_imx335.c ****   {
 168:Lib/Camera_Middleware/sensors/cmw_imx335.c ****     return CMW_ERROR_WRONG_PARAM;
 169:Lib/Camera_Middleware/sensors/cmw_imx335.c ****   }
 170:Lib/Camera_Middleware/sensors/cmw_imx335.c **** 
 171:Lib/Camera_Middleware/sensors/cmw_imx335.c ****   if (sizeof(info->name) >= strlen(IMX335_NAME) + 1)
 172:Lib/Camera_Middleware/sensors/cmw_imx335.c ****   {
 173:Lib/Camera_Middleware/sensors/cmw_imx335.c ****     strcpy(info->name, IMX335_NAME);
 174:Lib/Camera_Middleware/sensors/cmw_imx335.c ****   }
 175:Lib/Camera_Middleware/sensors/cmw_imx335.c ****   else
 176:Lib/Camera_Middleware/sensors/cmw_imx335.c ****   {
 177:Lib/Camera_Middleware/sensors/cmw_imx335.c ****     return CMW_ERROR_COMPONENT_FAILURE;
 178:Lib/Camera_Middleware/sensors/cmw_imx335.c ****   }
 179:Lib/Camera_Middleware/sensors/cmw_imx335.c **** 
 180:Lib/Camera_Middleware/sensors/cmw_imx335.c ****   info->bayer_pattern = IMX335_BAYER_PATTERN;
 181:Lib/Camera_Middleware/sensors/cmw_imx335.c ****   info->color_depth = IMX335_COLOR_DEPTH;
 182:Lib/Camera_Middleware/sensors/cmw_imx335.c ****   info->width = IMX335_WIDTH;
 183:Lib/Camera_Middleware/sensors/cmw_imx335.c ****   info->height = IMX335_HEIGHT;
 184:Lib/Camera_Middleware/sensors/cmw_imx335.c ****   info->gain_min = IMX335_GAIN_MIN;
 185:Lib/Camera_Middleware/sensors/cmw_imx335.c ****   info->gain_max = IMX335_GAIN_MAX;
 186:Lib/Camera_Middleware/sensors/cmw_imx335.c ****   info->again_max = IMX335_AGAIN_MAX;
 187:Lib/Camera_Middleware/sensors/cmw_imx335.c ****   info->exposure_min = IMX335_EXPOSURE_MIN;
 188:Lib/Camera_Middleware/sensors/cmw_imx335.c ****   info->exposure_max = IMX335_EXPOSURE_MAX;
 189:Lib/Camera_Middleware/sensors/cmw_imx335.c **** 
 190:Lib/Camera_Middleware/sensors/cmw_imx335.c ****   return CMW_ERROR_NONE;
 191:Lib/Camera_Middleware/sensors/cmw_imx335.c **** }
 192:Lib/Camera_Middleware/sensors/cmw_imx335.c **** 
 193:Lib/Camera_Middleware/sensors/cmw_imx335.c **** static int32_t CMW_IMX335_SetTestPattern(void *io_ctx, int32_t mode)
 194:Lib/Camera_Middleware/sensors/cmw_imx335.c **** {
 195:Lib/Camera_Middleware/sensors/cmw_imx335.c ****   return IMX335_SetTestPattern(&((CMW_IMX335_t *)io_ctx)->ctx_driver, mode);
 196:Lib/Camera_Middleware/sensors/cmw_imx335.c **** }
ARM GAS  C:\Users\DJESSOU\AppData\Local\Temp\ccVrO9fV.s 			page 5


 197:Lib/Camera_Middleware/sensors/cmw_imx335.c **** 
 198:Lib/Camera_Middleware/sensors/cmw_imx335.c **** static int32_t CMW_IMX335_Init(void *io_ctx, CMW_Sensor_Init_t *initSensor)
 199:Lib/Camera_Middleware/sensors/cmw_imx335.c **** {
 200:Lib/Camera_Middleware/sensors/cmw_imx335.c ****   int ret = CMW_ERROR_NONE;
 201:Lib/Camera_Middleware/sensors/cmw_imx335.c ****   uint32_t resolution;
 202:Lib/Camera_Middleware/sensors/cmw_imx335.c ****   CMW_IMX335_config_t *sensor_config;
 203:Lib/Camera_Middleware/sensors/cmw_imx335.c ****   sensor_config = (CMW_IMX335_config_t*)(initSensor->sensor_config);
 204:Lib/Camera_Middleware/sensors/cmw_imx335.c ****   if (sensor_config == NULL)
 205:Lib/Camera_Middleware/sensors/cmw_imx335.c ****   {
 206:Lib/Camera_Middleware/sensors/cmw_imx335.c ****     return CMW_ERROR_WRONG_PARAM;
 207:Lib/Camera_Middleware/sensors/cmw_imx335.c ****   }
 208:Lib/Camera_Middleware/sensors/cmw_imx335.c **** 
 209:Lib/Camera_Middleware/sensors/cmw_imx335.c ****   ret = CMW_IMX335_GetResType(initSensor->width, initSensor->height, &resolution);
 210:Lib/Camera_Middleware/sensors/cmw_imx335.c ****   if (ret)
 211:Lib/Camera_Middleware/sensors/cmw_imx335.c ****   {
 212:Lib/Camera_Middleware/sensors/cmw_imx335.c ****     return CMW_ERROR_WRONG_PARAM;
 213:Lib/Camera_Middleware/sensors/cmw_imx335.c ****   }
 214:Lib/Camera_Middleware/sensors/cmw_imx335.c **** 
 215:Lib/Camera_Middleware/sensors/cmw_imx335.c ****   ret = CMW_IMX335_SetMirrorFlip(io_ctx, initSensor->mirrorFlip);
 216:Lib/Camera_Middleware/sensors/cmw_imx335.c ****   if (ret)
 217:Lib/Camera_Middleware/sensors/cmw_imx335.c ****   {
 218:Lib/Camera_Middleware/sensors/cmw_imx335.c ****     return CMW_ERROR_WRONG_PARAM;
 219:Lib/Camera_Middleware/sensors/cmw_imx335.c ****   }
 220:Lib/Camera_Middleware/sensors/cmw_imx335.c **** 
 221:Lib/Camera_Middleware/sensors/cmw_imx335.c ****   ret = IMX335_Init(&((CMW_IMX335_t *)io_ctx)->ctx_driver, resolution, sensor_config->pixel_format)
 222:Lib/Camera_Middleware/sensors/cmw_imx335.c ****   if (ret != IMX335_OK)
 223:Lib/Camera_Middleware/sensors/cmw_imx335.c ****   {
 224:Lib/Camera_Middleware/sensors/cmw_imx335.c ****     return CMW_ERROR_COMPONENT_FAILURE;
 225:Lib/Camera_Middleware/sensors/cmw_imx335.c ****   }
 226:Lib/Camera_Middleware/sensors/cmw_imx335.c **** 
 227:Lib/Camera_Middleware/sensors/cmw_imx335.c ****   return CMW_ERROR_NONE;
 228:Lib/Camera_Middleware/sensors/cmw_imx335.c **** }
 229:Lib/Camera_Middleware/sensors/cmw_imx335.c **** 
 230:Lib/Camera_Middleware/sensors/cmw_imx335.c **** void CMW_IMX335_SetDefaultSensorValues(CMW_IMX335_config_t *imx335_config)
 231:Lib/Camera_Middleware/sensors/cmw_imx335.c **** {
 232:Lib/Camera_Middleware/sensors/cmw_imx335.c ****   assert(imx335_config != NULL);
 233:Lib/Camera_Middleware/sensors/cmw_imx335.c ****   imx335_config->pixel_format = CMW_PIXEL_FORMAT_RAW10;
 234:Lib/Camera_Middleware/sensors/cmw_imx335.c **** }
 235:Lib/Camera_Middleware/sensors/cmw_imx335.c **** 
 236:Lib/Camera_Middleware/sensors/cmw_imx335.c **** static int32_t CMW_IMX335_Start(void *io_ctx)
 237:Lib/Camera_Middleware/sensors/cmw_imx335.c **** {
 238:Lib/Camera_Middleware/sensors/cmw_imx335.c **** #ifndef ISP_MW_TUNING_TOOL_SUPPORT
 239:Lib/Camera_Middleware/sensors/cmw_imx335.c ****   int ret;
 240:Lib/Camera_Middleware/sensors/cmw_imx335.c ****   /* Statistic area is provided with null value so that it force the ISP Library to get the statist
 241:Lib/Camera_Middleware/sensors/cmw_imx335.c ****    * area information from the tuning file.
 242:Lib/Camera_Middleware/sensors/cmw_imx335.c ****    */
 243:Lib/Camera_Middleware/sensors/cmw_imx335.c ****   (void) ISP_IQParamCacheInit; /* unused */
 244:Lib/Camera_Middleware/sensors/cmw_imx335.c ****   ret = ISP_Init(&((CMW_IMX335_t *)io_ctx)->hIsp, ((CMW_IMX335_t *)io_ctx)->hdcmipp, 0, &((CMW_IMX3
 245:Lib/Camera_Middleware/sensors/cmw_imx335.c ****   if (ret != ISP_OK)
 246:Lib/Camera_Middleware/sensors/cmw_imx335.c ****   {
 247:Lib/Camera_Middleware/sensors/cmw_imx335.c ****     return CMW_ERROR_COMPONENT_FAILURE;
 248:Lib/Camera_Middleware/sensors/cmw_imx335.c ****   }
 249:Lib/Camera_Middleware/sensors/cmw_imx335.c **** 
 250:Lib/Camera_Middleware/sensors/cmw_imx335.c ****   ret = ISP_Start(&((CMW_IMX335_t *)io_ctx)->hIsp);
 251:Lib/Camera_Middleware/sensors/cmw_imx335.c ****   if (ret != ISP_OK)
 252:Lib/Camera_Middleware/sensors/cmw_imx335.c ****   {
 253:Lib/Camera_Middleware/sensors/cmw_imx335.c ****       return CMW_ERROR_PERIPH_FAILURE;
ARM GAS  C:\Users\DJESSOU\AppData\Local\Temp\ccVrO9fV.s 			page 6


 254:Lib/Camera_Middleware/sensors/cmw_imx335.c ****   }
 255:Lib/Camera_Middleware/sensors/cmw_imx335.c **** #endif
 256:Lib/Camera_Middleware/sensors/cmw_imx335.c ****   return IMX335_Start(&((CMW_IMX335_t *)io_ctx)->ctx_driver);
 257:Lib/Camera_Middleware/sensors/cmw_imx335.c **** }
 258:Lib/Camera_Middleware/sensors/cmw_imx335.c **** 
 259:Lib/Camera_Middleware/sensors/cmw_imx335.c **** static int32_t CMW_IMX335_Run(void *io_ctx)
 260:Lib/Camera_Middleware/sensors/cmw_imx335.c **** {
 261:Lib/Camera_Middleware/sensors/cmw_imx335.c **** #ifndef ISP_MW_TUNING_TOOL_SUPPORT
 262:Lib/Camera_Middleware/sensors/cmw_imx335.c ****   int ret;
 263:Lib/Camera_Middleware/sensors/cmw_imx335.c ****   ret = ISP_BackgroundProcess(&((CMW_IMX335_t *)io_ctx)->hIsp);
 264:Lib/Camera_Middleware/sensors/cmw_imx335.c ****   if (ret != ISP_OK)
 265:Lib/Camera_Middleware/sensors/cmw_imx335.c ****   {
 266:Lib/Camera_Middleware/sensors/cmw_imx335.c ****       return CMW_ERROR_PERIPH_FAILURE;
 267:Lib/Camera_Middleware/sensors/cmw_imx335.c ****   }
 268:Lib/Camera_Middleware/sensors/cmw_imx335.c **** #endif
 269:Lib/Camera_Middleware/sensors/cmw_imx335.c ****   return CMW_ERROR_NONE;
 270:Lib/Camera_Middleware/sensors/cmw_imx335.c **** }
 271:Lib/Camera_Middleware/sensors/cmw_imx335.c **** 
 272:Lib/Camera_Middleware/sensors/cmw_imx335.c **** static void CMW_IMX335_PowerOn(CMW_IMX335_t *io_ctx)
 273:Lib/Camera_Middleware/sensors/cmw_imx335.c **** {
 274:Lib/Camera_Middleware/sensors/cmw_imx335.c ****   /* Note: According to the IMX335 datasheet (E18112A84), the power-on sequence
 275:Lib/Camera_Middleware/sensors/cmw_imx335.c ****    * should be as followed:
 276:Lib/Camera_Middleware/sensors/cmw_imx335.c ****    * 1. Turn On the power supplies so that the power supplies rise in order of
 277:Lib/Camera_Middleware/sensors/cmw_imx335.c ****    *    1.2V power supply (DVDD),
 278:Lib/Camera_Middleware/sensors/cmw_imx335.c ****    *    1.8V power supply (OVDD),
 279:Lib/Camera_Middleware/sensors/cmw_imx335.c ****    *    2.9V power supply (AVDD)
 280:Lib/Camera_Middleware/sensors/cmw_imx335.c ****    *   with a rise time of 0 to 200ms.
 281:Lib/Camera_Middleware/sensors/cmw_imx335.c ****    *   In addition, all power supplies should finish rising within 200ms.
 282:Lib/Camera_Middleware/sensors/cmw_imx335.c ****    * 2. The register values are undefined immediately after power-on, so the
 283:Lib/Camera_Middleware/sensors/cmw_imx335.c ****    *    system must be cleared. Hold XCLR at Low level for 500 ns or more after
 284:Lib/Camera_Middleware/sensors/cmw_imx335.c ****    *    all the power supplies have finished rising. (The register values after
 285:Lib/Camera_Middleware/sensors/cmw_imx335.c ****    *    a system clear are the default values.)
 286:Lib/Camera_Middleware/sensors/cmw_imx335.c ****    * 3. The system clear is applied by setting XCLR to High level. The master
 287:Lib/Camera_Middleware/sensors/cmw_imx335.c ****    *    clock input after setting the XCLR pin to High level.
 288:Lib/Camera_Middleware/sensors/cmw_imx335.c ****    * 4. Make the sensor setting by register communication after the system
 289:Lib/Camera_Middleware/sensors/cmw_imx335.c ****    *    clear.
 290:Lib/Camera_Middleware/sensors/cmw_imx335.c ****    *
 291:Lib/Camera_Middleware/sensors/cmw_imx335.c ****    * By default, on the MB1939 STM32N6-DK board, OVDD (1.8V) and AVDD (2.8V) are
 292:Lib/Camera_Middleware/sensors/cmw_imx335.c ****    * always on when PWR_ON is high (VDD3V3 and VCORE ON). Power-on order cannot
 293:Lib/Camera_Middleware/sensors/cmw_imx335.c ****    * be followed.
 294:Lib/Camera_Middleware/sensors/cmw_imx335.c ****    *
 295:Lib/Camera_Middleware/sensors/cmw_imx335.c ****    * MB1938 N6-DK and MB1854 IMX335 board IO mapping:
 296:Lib/Camera_Middleware/sensors/cmw_imx335.c ****    *  ShutdownPin PC8 (CN14-17) -- (CN1-17) NRST_CAM  -- 1V8 (CN2-10) RESET (XCLR?)
 297:Lib/Camera_Middleware/sensors/cmw_imx335.c ****    *  EnablePin   PD2 (CN14-18) -- (CN1-18) EN_MODULE -- 1V2 enable (CN2-6) DVDD
 298:Lib/Camera_Middleware/sensors/cmw_imx335.c ****    */
 299:Lib/Camera_Middleware/sensors/cmw_imx335.c ****   io_ctx->EnablePin(1);   /* Enable MB1854 1V2: DVDD and 24MHz CAM_CLK*/
 300:Lib/Camera_Middleware/sensors/cmw_imx335.c ****   io_ctx->ShutdownPin(0); /* Set RESET low */
 301:Lib/Camera_Middleware/sensors/cmw_imx335.c ****   io_ctx->Delay(1);       /* Hold RESET low for at least 500 ns after power supply have finished ri
 302:Lib/Camera_Middleware/sensors/cmw_imx335.c ****   io_ctx->ShutdownPin(1); /* Release RESET */
 303:Lib/Camera_Middleware/sensors/cmw_imx335.c ****   io_ctx->Delay(1);      /* Wait for sensor to be ready */
 304:Lib/Camera_Middleware/sensors/cmw_imx335.c **** }
 305:Lib/Camera_Middleware/sensors/cmw_imx335.c **** 
 306:Lib/Camera_Middleware/sensors/cmw_imx335.c **** static void CMW_IMX335_VsyncEventCallback(void *io_ctx, uint32_t pipe)
 307:Lib/Camera_Middleware/sensors/cmw_imx335.c **** {
 308:Lib/Camera_Middleware/sensors/cmw_imx335.c **** #ifndef ISP_MW_TUNING_TOOL_SUPPORT
 309:Lib/Camera_Middleware/sensors/cmw_imx335.c ****   /* Update the ISP frame counter and call its statistics handler */
 310:Lib/Camera_Middleware/sensors/cmw_imx335.c ****   switch (pipe)
ARM GAS  C:\Users\DJESSOU\AppData\Local\Temp\ccVrO9fV.s 			page 7


 311:Lib/Camera_Middleware/sensors/cmw_imx335.c ****   {
 312:Lib/Camera_Middleware/sensors/cmw_imx335.c ****     case DCMIPP_PIPE0 :
 313:Lib/Camera_Middleware/sensors/cmw_imx335.c ****       ISP_IncDumpFrameId(&((CMW_IMX335_t *)io_ctx)->hIsp);
 314:Lib/Camera_Middleware/sensors/cmw_imx335.c ****       break;
 315:Lib/Camera_Middleware/sensors/cmw_imx335.c ****     case DCMIPP_PIPE1 :
 316:Lib/Camera_Middleware/sensors/cmw_imx335.c ****       ISP_IncMainFrameId(&((CMW_IMX335_t *)io_ctx)->hIsp);
 317:Lib/Camera_Middleware/sensors/cmw_imx335.c ****       ISP_GatherStatistics(&((CMW_IMX335_t *)io_ctx)->hIsp);
 318:Lib/Camera_Middleware/sensors/cmw_imx335.c ****       break;
 319:Lib/Camera_Middleware/sensors/cmw_imx335.c ****     case DCMIPP_PIPE2 :
 320:Lib/Camera_Middleware/sensors/cmw_imx335.c ****       ISP_IncAncillaryFrameId(&((CMW_IMX335_t *)io_ctx)->hIsp);
 321:Lib/Camera_Middleware/sensors/cmw_imx335.c ****       break;
 322:Lib/Camera_Middleware/sensors/cmw_imx335.c ****   }
 323:Lib/Camera_Middleware/sensors/cmw_imx335.c **** #endif
 324:Lib/Camera_Middleware/sensors/cmw_imx335.c **** }
 325:Lib/Camera_Middleware/sensors/cmw_imx335.c **** 
 326:Lib/Camera_Middleware/sensors/cmw_imx335.c **** static void CMW_IMX335_FrameEventCallback(void *io_ctx, uint32_t pipe)
 327:Lib/Camera_Middleware/sensors/cmw_imx335.c **** {
  34              		.loc 1 327 1 view -0
  35              		.cfi_startproc
  36              		@ args = 0, pretend = 0, frame = 0
  37              		@ frame_needed = 0, uses_anonymous_args = 0
  38              		@ link register save eliminated.
 328:Lib/Camera_Middleware/sensors/cmw_imx335.c **** }
  39              		.loc 1 328 1 view .LVU1
  40 0000 7047     		bx	lr
  41              		.cfi_endproc
  42              	.LFE3432:
  44              		.section	.text.CMW_IMX335_SetWBRefMode,"ax",%progbits
  45              		.align	1
  46              		.global	CMW_IMX335_SetWBRefMode
  47              		.syntax unified
  48              		.thumb
  49              		.thumb_func
  51              	CMW_IMX335_SetWBRefMode:
  52              	.LVL1:
  53              	.LFB3419:
 111:Lib/Camera_Middleware/sensors/cmw_imx335.c ****   int ret = CMW_ERROR_NONE;
  54              		.loc 1 111 1 view -0
  55              		.cfi_startproc
  56              		@ args = 0, pretend = 0, frame = 0
  57              		@ frame_needed = 0, uses_anonymous_args = 0
 112:Lib/Camera_Middleware/sensors/cmw_imx335.c **** 
  58              		.loc 1 112 3 view .LVU3
 114:Lib/Camera_Middleware/sensors/cmw_imx335.c ****   if (ret)
  59              		.loc 1 114 3 view .LVU4
 111:Lib/Camera_Middleware/sensors/cmw_imx335.c ****   int ret = CMW_ERROR_NONE;
  60              		.loc 1 111 1 is_stmt 0 view .LVU5
  61 0000 08B5     		push	{r3, lr}
  62              		.cfi_def_cfa_offset 8
  63              		.cfi_offset 3, -8
  64              		.cfi_offset 14, -4
 114:Lib/Camera_Middleware/sensors/cmw_imx335.c ****   if (ret)
  65              		.loc 1 114 9 view .LVU6
  66 0002 3030     		adds	r0, r0, #48
  67              	.LVL2:
 114:Lib/Camera_Middleware/sensors/cmw_imx335.c ****   if (ret)
  68              		.loc 1 114 9 view .LVU7
ARM GAS  C:\Users\DJESSOU\AppData\Local\Temp\ccVrO9fV.s 			page 8


  69 0004 FFF7FEFF 		bl	ISP_SetWBRefMode
  70              	.LVL3:
 115:Lib/Camera_Middleware/sensors/cmw_imx335.c ****   {
  71              		.loc 1 115 3 is_stmt 1 view .LVU8
 120:Lib/Camera_Middleware/sensors/cmw_imx335.c **** }
  72              		.loc 1 120 10 is_stmt 0 view .LVU9
  73 0008 0028     		cmp	r0, #0
 121:Lib/Camera_Middleware/sensors/cmw_imx335.c **** 
  74              		.loc 1 121 1 view .LVU10
  75 000a 14BF     		ite	ne
  76 000c 6FF00300 		mvnne	r0, #3
  77              	.LVL4:
 121:Lib/Camera_Middleware/sensors/cmw_imx335.c **** 
  78              		.loc 1 121 1 view .LVU11
  79 0010 0020     		moveq	r0, #0
  80 0012 08BD     		pop	{r3, pc}
  81              		.cfi_endproc
  82              	.LFE3419:
  84              		.section	.text.CMW_IMX335_ListWBRefModes,"ax",%progbits
  85              		.align	1
  86              		.global	CMW_IMX335_ListWBRefModes
  87              		.syntax unified
  88              		.thumb
  89              		.thumb_func
  91              	CMW_IMX335_ListWBRefModes:
  92              	.LVL5:
  93              	.LFB3420:
 130:Lib/Camera_Middleware/sensors/cmw_imx335.c ****   int ret = CMW_ERROR_NONE;
  94              		.loc 1 130 1 is_stmt 1 view -0
  95              		.cfi_startproc
  96              		@ args = 0, pretend = 0, frame = 0
  97              		@ frame_needed = 0, uses_anonymous_args = 0
 131:Lib/Camera_Middleware/sensors/cmw_imx335.c **** 
  98              		.loc 1 131 3 view .LVU13
 133:Lib/Camera_Middleware/sensors/cmw_imx335.c ****   if (ret)
  99              		.loc 1 133 3 view .LVU14
 130:Lib/Camera_Middleware/sensors/cmw_imx335.c ****   int ret = CMW_ERROR_NONE;
 100              		.loc 1 130 1 is_stmt 0 view .LVU15
 101 0000 08B5     		push	{r3, lr}
 102              		.cfi_def_cfa_offset 8
 103              		.cfi_offset 3, -8
 104              		.cfi_offset 14, -4
 133:Lib/Camera_Middleware/sensors/cmw_imx335.c ****   if (ret)
 105              		.loc 1 133 9 view .LVU16
 106 0002 3030     		adds	r0, r0, #48
 107              	.LVL6:
 133:Lib/Camera_Middleware/sensors/cmw_imx335.c ****   if (ret)
 108              		.loc 1 133 9 view .LVU17
 109 0004 FFF7FEFF 		bl	ISP_ListWBRefModes
 110              	.LVL7:
 134:Lib/Camera_Middleware/sensors/cmw_imx335.c ****   {
 111              		.loc 1 134 3 is_stmt 1 view .LVU18
 139:Lib/Camera_Middleware/sensors/cmw_imx335.c **** }
 112              		.loc 1 139 10 is_stmt 0 view .LVU19
 113 0008 0028     		cmp	r0, #0
 140:Lib/Camera_Middleware/sensors/cmw_imx335.c **** 
 114              		.loc 1 140 1 view .LVU20
ARM GAS  C:\Users\DJESSOU\AppData\Local\Temp\ccVrO9fV.s 			page 9


 115 000a 14BF     		ite	ne
 116 000c 6FF00300 		mvnne	r0, #3
 117              	.LVL8:
 140:Lib/Camera_Middleware/sensors/cmw_imx335.c **** 
 118              		.loc 1 140 1 view .LVU21
 119 0010 0020     		moveq	r0, #0
 120 0012 08BD     		pop	{r3, pc}
 121              		.cfi_endproc
 122              	.LFE3420:
 124              		.section	.text.CMW_IMX335_ReadID,"ax",%progbits
 125              		.align	1
 126              		.syntax unified
 127              		.thumb
 128              		.thumb_func
 130              	CMW_IMX335_ReadID:
 131              	.LVL9:
 132              	.LFB3416:
  89:Lib/Camera_Middleware/sensors/cmw_imx335.c ****   return IMX335_ReadID(&((CMW_IMX335_t *)io_ctx)->ctx_driver, Id);
 133              		.loc 1 89 1 is_stmt 1 view -0
 134              		.cfi_startproc
 135              		@ args = 0, pretend = 0, frame = 0
 136              		@ frame_needed = 0, uses_anonymous_args = 0
 137              		@ link register save eliminated.
  90:Lib/Camera_Middleware/sensors/cmw_imx335.c **** }
 138              		.loc 1 90 3 view .LVU23
  90:Lib/Camera_Middleware/sensors/cmw_imx335.c **** }
 139              		.loc 1 90 10 is_stmt 0 view .LVU24
 140 0000 0830     		adds	r0, r0, #8
 141              	.LVL10:
  90:Lib/Camera_Middleware/sensors/cmw_imx335.c **** }
 142              		.loc 1 90 10 view .LVU25
 143 0002 FFF7FEBF 		b	IMX335_ReadID
 144              	.LVL11:
  90:Lib/Camera_Middleware/sensors/cmw_imx335.c **** }
 145              		.loc 1 90 10 view .LVU26
 146              		.cfi_endproc
 147              	.LFE3416:
 149              		.section	.text.CMW_IMX335_SetTestPattern,"ax",%progbits
 150              		.align	1
 151              		.syntax unified
 152              		.thumb
 153              		.thumb_func
 155              	CMW_IMX335_SetTestPattern:
 156              	.LVL12:
 157              	.LFB3425:
 194:Lib/Camera_Middleware/sensors/cmw_imx335.c ****   return IMX335_SetTestPattern(&((CMW_IMX335_t *)io_ctx)->ctx_driver, mode);
 158              		.loc 1 194 1 is_stmt 1 view -0
 159              		.cfi_startproc
 160              		@ args = 0, pretend = 0, frame = 0
 161              		@ frame_needed = 0, uses_anonymous_args = 0
 162              		@ link register save eliminated.
 195:Lib/Camera_Middleware/sensors/cmw_imx335.c **** }
 163              		.loc 1 195 3 view .LVU28
 195:Lib/Camera_Middleware/sensors/cmw_imx335.c **** }
 164              		.loc 1 195 10 is_stmt 0 view .LVU29
 165 0000 0830     		adds	r0, r0, #8
 166              	.LVL13:
ARM GAS  C:\Users\DJESSOU\AppData\Local\Temp\ccVrO9fV.s 			page 10


 195:Lib/Camera_Middleware/sensors/cmw_imx335.c **** }
 167              		.loc 1 195 10 view .LVU30
 168 0002 FFF7FEBF 		b	IMX335_SetTestPattern
 169              	.LVL14:
 195:Lib/Camera_Middleware/sensors/cmw_imx335.c **** }
 170              		.loc 1 195 10 view .LVU31
 171              		.cfi_endproc
 172              	.LFE3425:
 174              		.section	.rodata.CMW_IMX335_GetSensorInfo.str1.1,"aMS",%progbits,1
 175              	.LC1:
 176 0000 494D5833 		.ascii	"IMX335\000"
 176      333500
 177              		.section	.text.CMW_IMX335_GetSensorInfo,"ax",%progbits
 178              		.align	1
 179              		.syntax unified
 180              		.thumb
 181              		.thumb_func
 183              	CMW_IMX335_GetSensorInfo:
 184              	.LVL15:
 185              	.LFB3424:
 165:Lib/Camera_Middleware/sensors/cmw_imx335.c ****   if ((io_ctx ==  NULL) || (info == NULL))
 186              		.loc 1 165 1 is_stmt 1 view -0
 187              		.cfi_startproc
 188              		@ args = 0, pretend = 0, frame = 0
 189              		@ frame_needed = 0, uses_anonymous_args = 0
 166:Lib/Camera_Middleware/sensors/cmw_imx335.c ****   {
 190              		.loc 1 166 3 view .LVU33
 165:Lib/Camera_Middleware/sensors/cmw_imx335.c ****   if ((io_ctx ==  NULL) || (info == NULL))
 191              		.loc 1 165 1 is_stmt 0 view .LVU34
 192 0000 08B5     		push	{r3, lr}
 193              		.cfi_def_cfa_offset 8
 194              		.cfi_offset 3, -8
 195              		.cfi_offset 14, -4
 165:Lib/Camera_Middleware/sensors/cmw_imx335.c ****   if ((io_ctx ==  NULL) || (info == NULL))
 196              		.loc 1 165 1 view .LVU35
 197 0002 0B46     		mov	r3, r1
 166:Lib/Camera_Middleware/sensors/cmw_imx335.c ****   {
 198              		.loc 1 166 6 view .LVU36
 199 0004 D8B1     		cbz	r0, .L13
 166:Lib/Camera_Middleware/sensors/cmw_imx335.c ****   {
 200              		.loc 1 166 25 discriminator 1 view .LVU37
 201 0006 D1B1     		cbz	r1, .L13
 171:Lib/Camera_Middleware/sensors/cmw_imx335.c ****   {
 202              		.loc 1 171 3 is_stmt 1 view .LVU38
 173:Lib/Camera_Middleware/sensors/cmw_imx335.c ****   }
 203              		.loc 1 173 5 view .LVU39
 204 0008 1846     		mov	r0, r3
 205              	.LVL16:
 173:Lib/Camera_Middleware/sensors/cmw_imx335.c ****   }
 206              		.loc 1 173 5 is_stmt 0 view .LVU40
 207 000a 0E49     		ldr	r1, .L14
 208              	.LVL17:
 173:Lib/Camera_Middleware/sensors/cmw_imx335.c ****   }
 209              		.loc 1 173 5 view .LVU41
 210 000c FFF7FEFF 		bl	strcpy
 211              	.LVL18:
 180:Lib/Camera_Middleware/sensors/cmw_imx335.c ****   info->color_depth = IMX335_COLOR_DEPTH;
ARM GAS  C:\Users\DJESSOU\AppData\Local\Temp\ccVrO9fV.s 			page 11


 212              		.loc 1 180 23 view .LVU42
 213 0010 4FF42062 		mov	r2, #2560
 183:Lib/Camera_Middleware/sensors/cmw_imx335.c ****   info->gain_min = IMX335_GAIN_MIN;
 214              		.loc 1 183 16 view .LVU43
 215 0014 4FF42261 		mov	r1, #2592
 180:Lib/Camera_Middleware/sensors/cmw_imx335.c ****   info->color_depth = IMX335_COLOR_DEPTH;
 216              		.loc 1 180 23 view .LVU44
 217 0018 0284     		strh	r2, [r0, #32]	@ movhi
 183:Lib/Camera_Middleware/sensors/cmw_imx335.c ****   info->gain_min = IMX335_GAIN_MIN;
 218              		.loc 1 183 16 view .LVU45
 219 001a 4FF4F362 		mov	r2, #1944
 173:Lib/Camera_Middleware/sensors/cmw_imx335.c ****   }
 220              		.loc 1 173 5 view .LVU46
 221 001e 0346     		mov	r3, r0
 180:Lib/Camera_Middleware/sensors/cmw_imx335.c ****   info->color_depth = IMX335_COLOR_DEPTH;
 222              		.loc 1 180 3 is_stmt 1 view .LVU47
 181:Lib/Camera_Middleware/sensors/cmw_imx335.c ****   info->width = IMX335_WIDTH;
 223              		.loc 1 181 3 view .LVU48
 182:Lib/Camera_Middleware/sensors/cmw_imx335.c ****   info->height = IMX335_HEIGHT;
 224              		.loc 1 182 3 view .LVU49
 183:Lib/Camera_Middleware/sensors/cmw_imx335.c ****   info->gain_min = IMX335_GAIN_MIN;
 225              		.loc 1 183 16 is_stmt 0 view .LVU50
 226 0020 C0E90912 		strd	r1, r2, [r0, #36]
 184:Lib/Camera_Middleware/sensors/cmw_imx335.c ****   info->gain_max = IMX335_GAIN_MAX;
 227              		.loc 1 184 3 is_stmt 1 view .LVU51
 185:Lib/Camera_Middleware/sensors/cmw_imx335.c ****   info->again_max = IMX335_AGAIN_MAX;
 228              		.loc 1 185 18 is_stmt 0 view .LVU52
 229 0024 0020     		movs	r0, #0
 230 0026 084A     		ldr	r2, .L14+4
 187:Lib/Camera_Middleware/sensors/cmw_imx335.c ****   info->exposure_max = IMX335_EXPOSURE_MAX;
 231              		.loc 1 187 22 view .LVU53
 232 0028 47F2305C 		movw	ip, #30000
 185:Lib/Camera_Middleware/sensors/cmw_imx335.c ****   info->again_max = IMX335_AGAIN_MAX;
 233              		.loc 1 185 18 view .LVU54
 234 002c C3E90B02 		strd	r0, r2, [r3, #44]
 186:Lib/Camera_Middleware/sensors/cmw_imx335.c ****   info->exposure_min = IMX335_EXPOSURE_MIN;
 235              		.loc 1 186 3 is_stmt 1 view .LVU55
 187:Lib/Camera_Middleware/sensors/cmw_imx335.c ****   info->exposure_max = IMX335_EXPOSURE_MAX;
 236              		.loc 1 187 22 is_stmt 0 view .LVU56
 237 0030 0822     		movs	r2, #8
 238 0032 C3E90DC2 		strd	ip, r2, [r3, #52]
 188:Lib/Camera_Middleware/sensors/cmw_imx335.c **** 
 239              		.loc 1 188 3 is_stmt 1 view .LVU57
 188:Lib/Camera_Middleware/sensors/cmw_imx335.c **** 
 240              		.loc 1 188 22 is_stmt 0 view .LVU58
 241 0036 48F2F212 		movw	r2, #33266
 242 003a DA63     		str	r2, [r3, #60]
 190:Lib/Camera_Middleware/sensors/cmw_imx335.c **** }
 243              		.loc 1 190 3 is_stmt 1 view .LVU59
 244              	.L10:
 191:Lib/Camera_Middleware/sensors/cmw_imx335.c **** 
 245              		.loc 1 191 1 is_stmt 0 view .LVU60
 246 003c 08BD     		pop	{r3, pc}
 247              	.LVL19:
 248              	.L13:
 168:Lib/Camera_Middleware/sensors/cmw_imx335.c ****   }
 249              		.loc 1 168 12 view .LVU61
ARM GAS  C:\Users\DJESSOU\AppData\Local\Temp\ccVrO9fV.s 			page 12


 250 003e 6FF00100 		mvn	r0, #1
 251              	.LVL20:
 168:Lib/Camera_Middleware/sensors/cmw_imx335.c ****   }
 252              		.loc 1 168 12 view .LVU62
 253 0042 FBE7     		b	.L10
 254              	.L15:
 255              		.align	2
 256              	.L14:
 257 0044 00000000 		.word	.LC1
 258 0048 40190100 		.word	72000
 259              		.cfi_endproc
 260              	.LFE3424:
 262              		.section	.text.CMW_IMX335_SetMirrorFlip,"ax",%progbits
 263              		.align	1
 264              		.syntax unified
 265              		.thumb
 266              		.thumb_func
 268              	CMW_IMX335_SetMirrorFlip:
 269              	.LVL21:
 270              	.LFB3423:
 159:Lib/Camera_Middleware/sensors/cmw_imx335.c ****   int32_t mirrorFlip = CMW_IMX335_getMirrorFlipConfig(config);
 271              		.loc 1 159 1 is_stmt 1 view -0
 272              		.cfi_startproc
 273              		@ args = 0, pretend = 0, frame = 0
 274              		@ frame_needed = 0, uses_anonymous_args = 0
 275              		@ link register save eliminated.
 160:Lib/Camera_Middleware/sensors/cmw_imx335.c ****   return IMX335_MirrorFlipConfig(&((CMW_IMX335_t *)io_ctx)->ctx_driver, mirrorFlip);
 276              		.loc 1 160 3 view .LVU64
 161:Lib/Camera_Middleware/sensors/cmw_imx335.c **** }
 277              		.loc 1 161 3 view .LVU65
 161:Lib/Camera_Middleware/sensors/cmw_imx335.c **** }
 278              		.loc 1 161 10 is_stmt 0 view .LVU66
 279 0000 0329     		cmp	r1, #3
 280 0002 28BF     		it	cs
 281 0004 0321     		movcs	r1, #3
 282              	.LVL22:
 161:Lib/Camera_Middleware/sensors/cmw_imx335.c **** }
 283              		.loc 1 161 10 view .LVU67
 284 0006 0830     		adds	r0, r0, #8
 285              	.LVL23:
 161:Lib/Camera_Middleware/sensors/cmw_imx335.c **** }
 286              		.loc 1 161 10 view .LVU68
 287 0008 FFF7FEBF 		b	IMX335_MirrorFlipConfig
 288              	.LVL24:
 161:Lib/Camera_Middleware/sensors/cmw_imx335.c **** }
 289              		.loc 1 161 10 view .LVU69
 290              		.cfi_endproc
 291              	.LFE3423:
 293              		.section	.text.CMW_IMX335_SetFramerate,"ax",%progbits
 294              		.align	1
 295              		.syntax unified
 296              		.thumb
 297              		.thumb_func
 299              	CMW_IMX335_SetFramerate:
 300              	.LVL25:
 301              	.LFB3422:
 148:Lib/Camera_Middleware/sensors/cmw_imx335.c ****   const int32_t available_imx335_fps[] = {10, 15, 20, 25, 30};
ARM GAS  C:\Users\DJESSOU\AppData\Local\Temp\ccVrO9fV.s 			page 13


 302              		.loc 1 148 1 is_stmt 1 view -0
 303              		.cfi_startproc
 304              		@ args = 0, pretend = 0, frame = 24
 305              		@ frame_needed = 0, uses_anonymous_args = 0
 306              		@ link register save eliminated.
 149:Lib/Camera_Middleware/sensors/cmw_imx335.c **** 
 307              		.loc 1 149 3 view .LVU71
 148:Lib/Camera_Middleware/sensors/cmw_imx335.c ****   const int32_t available_imx335_fps[] = {10, 15, 20, 25, 30};
 308              		.loc 1 148 1 is_stmt 0 view .LVU72
 309 0000 F0B4     		push	{r4, r5, r6, r7}
 310              		.cfi_def_cfa_offset 16
 311              		.cfi_offset 4, -16
 312              		.cfi_offset 5, -12
 313              		.cfi_offset 6, -8
 314              		.cfi_offset 7, -4
 149:Lib/Camera_Middleware/sensors/cmw_imx335.c **** 
 315              		.loc 1 149 17 view .LVU73
 316 0002 0E4D     		ldr	r5, .L21
 148:Lib/Camera_Middleware/sensors/cmw_imx335.c ****   const int32_t available_imx335_fps[] = {10, 15, 20, 25, 30};
 317              		.loc 1 148 1 view .LVU74
 318 0004 86B0     		sub	sp, sp, #24
 319              		.cfi_def_cfa_offset 40
 149:Lib/Camera_Middleware/sensors/cmw_imx335.c **** 
 320              		.loc 1 149 17 view .LVU75
 321 0006 01AC     		add	r4, sp, #4
 148:Lib/Camera_Middleware/sensors/cmw_imx335.c ****   const int32_t available_imx335_fps[] = {10, 15, 20, 25, 30};
 322              		.loc 1 148 1 view .LVU76
 323 0008 0746     		mov	r7, r0
 324 000a 0E46     		mov	r6, r1
 149:Lib/Camera_Middleware/sensors/cmw_imx335.c **** 
 325              		.loc 1 149 17 view .LVU77
 326 000c 0FCD     		ldmia	r5!, {r0, r1, r2, r3}
 327              	.LVL26:
 149:Lib/Camera_Middleware/sensors/cmw_imx335.c **** 
 328              		.loc 1 149 17 view .LVU78
 329 000e 0FC4     		stmia	r4!, {r0, r1, r2, r3}
 330 0010 2B68     		ldr	r3, [r5]
 331 0012 01AA     		add	r2, sp, #4
 332 0014 2360     		str	r3, [r4]
 151:Lib/Camera_Middleware/sensors/cmw_imx335.c ****     if (framerate == available_imx335_fps[i])
 333              		.loc 1 151 3 is_stmt 1 view .LVU79
 334              	.LBB6:
 151:Lib/Camera_Middleware/sensors/cmw_imx335.c ****     if (framerate == available_imx335_fps[i])
 335              		.loc 1 151 8 view .LVU80
 336              	.LVL27:
 151:Lib/Camera_Middleware/sensors/cmw_imx335.c ****     if (framerate == available_imx335_fps[i])
 337              		.loc 1 151 21 discriminator 1 view .LVU81
 151:Lib/Camera_Middleware/sensors/cmw_imx335.c ****     if (framerate == available_imx335_fps[i])
 338              		.loc 1 151 12 is_stmt 0 view .LVU82
 339 0016 0523     		movs	r3, #5
 340              	.LVL28:
 341              	.L19:
 152:Lib/Camera_Middleware/sensors/cmw_imx335.c ****       return IMX335_SetFramerate(&((CMW_IMX335_t *)io_ctx)->ctx_driver, framerate);
 342              		.loc 1 152 5 is_stmt 1 view .LVU83
 152:Lib/Camera_Middleware/sensors/cmw_imx335.c ****       return IMX335_SetFramerate(&((CMW_IMX335_t *)io_ctx)->ctx_driver, framerate);
 343              		.loc 1 152 42 is_stmt 0 view .LVU84
 344 0018 52F8041B 		ldr	r1, [r2], #4
ARM GAS  C:\Users\DJESSOU\AppData\Local\Temp\ccVrO9fV.s 			page 14


 152:Lib/Camera_Middleware/sensors/cmw_imx335.c ****       return IMX335_SetFramerate(&((CMW_IMX335_t *)io_ctx)->ctx_driver, framerate);
 345              		.loc 1 152 8 view .LVU85
 346 001c B142     		cmp	r1, r6
 347 001e 06D1     		bne	.L18
 153:Lib/Camera_Middleware/sensors/cmw_imx335.c **** 
 348              		.loc 1 153 7 is_stmt 1 view .LVU86
 153:Lib/Camera_Middleware/sensors/cmw_imx335.c **** 
 349              		.loc 1 153 14 is_stmt 0 view .LVU87
 350 0020 3146     		mov	r1, r6
 351 0022 07F10800 		add	r0, r7, #8
 352              	.LBE6:
 156:Lib/Camera_Middleware/sensors/cmw_imx335.c **** 
 353              		.loc 1 156 1 view .LVU88
 354 0026 06B0     		add	sp, sp, #24
 355              		.cfi_remember_state
 356              		.cfi_def_cfa_offset 16
 357              		@ sp needed
 358 0028 F0BC     		pop	{r4, r5, r6, r7}
 359              		.cfi_restore 7
 360              		.cfi_restore 6
 361              		.cfi_restore 5
 362              		.cfi_restore 4
 363              		.cfi_def_cfa_offset 0
 364              	.LVL29:
 365              	.LBB7:
 153:Lib/Camera_Middleware/sensors/cmw_imx335.c **** 
 366              		.loc 1 153 14 view .LVU89
 367 002a FFF7FEBF 		b	IMX335_SetFramerate
 368              	.LVL30:
 369              	.L18:
 370              		.cfi_restore_state
 151:Lib/Camera_Middleware/sensors/cmw_imx335.c ****     if (framerate == available_imx335_fps[i])
 371              		.loc 1 151 58 is_stmt 1 discriminator 2 view .LVU90
 151:Lib/Camera_Middleware/sensors/cmw_imx335.c ****     if (framerate == available_imx335_fps[i])
 372              		.loc 1 151 21 discriminator 1 view .LVU91
 373 002e 013B     		subs	r3, r3, #1
 374 0030 F2D1     		bne	.L19
 375              	.LBE7:
 156:Lib/Camera_Middleware/sensors/cmw_imx335.c **** 
 376              		.loc 1 156 1 is_stmt 0 view .LVU92
 377 0032 6FF00100 		mvn	r0, #1
 378 0036 06B0     		add	sp, sp, #24
 379              		.cfi_def_cfa_offset 16
 380              		@ sp needed
 381 0038 F0BC     		pop	{r4, r5, r6, r7}
 382              		.cfi_restore 7
 383              		.cfi_restore 6
 384              		.cfi_restore 5
 385              		.cfi_restore 4
 386              		.cfi_def_cfa_offset 0
 387              	.LVL31:
 156:Lib/Camera_Middleware/sensors/cmw_imx335.c **** 
 388              		.loc 1 156 1 view .LVU93
 389 003a 7047     		bx	lr
 390              	.L22:
 391              		.align	2
 392              	.L21:
ARM GAS  C:\Users\DJESSOU\AppData\Local\Temp\ccVrO9fV.s 			page 15


 393 003c 00000000 		.word	.LANCHOR0
 394              		.cfi_endproc
 395              	.LFE3422:
 397              		.section	.text.CMW_IMX335_SetFrequency,"ax",%progbits
 398              		.align	1
 399              		.syntax unified
 400              		.thumb
 401              		.thumb_func
 403              	CMW_IMX335_SetFrequency:
 404              	.LVL32:
 405              	.LFB3421:
 143:Lib/Camera_Middleware/sensors/cmw_imx335.c ****   return IMX335_SetFrequency(&((CMW_IMX335_t *)io_ctx)->ctx_driver, frequency);
 406              		.loc 1 143 1 is_stmt 1 view -0
 407              		.cfi_startproc
 408              		@ args = 0, pretend = 0, frame = 0
 409              		@ frame_needed = 0, uses_anonymous_args = 0
 410              		@ link register save eliminated.
 144:Lib/Camera_Middleware/sensors/cmw_imx335.c **** }
 411              		.loc 1 144 3 view .LVU95
 144:Lib/Camera_Middleware/sensors/cmw_imx335.c **** }
 412              		.loc 1 144 10 is_stmt 0 view .LVU96
 413 0000 0830     		adds	r0, r0, #8
 414              	.LVL33:
 144:Lib/Camera_Middleware/sensors/cmw_imx335.c **** }
 415              		.loc 1 144 10 view .LVU97
 416 0002 FFF7FEBF 		b	IMX335_SetFrequency
 417              	.LVL34:
 144:Lib/Camera_Middleware/sensors/cmw_imx335.c **** }
 418              		.loc 1 144 10 view .LVU98
 419              		.cfi_endproc
 420              	.LFE3421:
 422              		.section	.text.CMW_IMX335_SetExposure,"ax",%progbits
 423              		.align	1
 424              		.syntax unified
 425              		.thumb
 426              		.thumb_func
 428              	CMW_IMX335_SetExposure:
 429              	.LVL35:
 430              	.LFB3418:
  99:Lib/Camera_Middleware/sensors/cmw_imx335.c ****   return IMX335_SetExposure(&((CMW_IMX335_t *)io_ctx)->ctx_driver, exposure);
 431              		.loc 1 99 1 is_stmt 1 view -0
 432              		.cfi_startproc
 433              		@ args = 0, pretend = 0, frame = 0
 434              		@ frame_needed = 0, uses_anonymous_args = 0
 435              		@ link register save eliminated.
 100:Lib/Camera_Middleware/sensors/cmw_imx335.c **** }
 436              		.loc 1 100 3 view .LVU100
 100:Lib/Camera_Middleware/sensors/cmw_imx335.c **** }
 437              		.loc 1 100 10 is_stmt 0 view .LVU101
 438 0000 0830     		adds	r0, r0, #8
 439              	.LVL36:
 100:Lib/Camera_Middleware/sensors/cmw_imx335.c **** }
 440              		.loc 1 100 10 view .LVU102
 441 0002 FFF7FEBF 		b	IMX335_SetExposure
 442              	.LVL37:
 100:Lib/Camera_Middleware/sensors/cmw_imx335.c **** }
 443              		.loc 1 100 10 view .LVU103
ARM GAS  C:\Users\DJESSOU\AppData\Local\Temp\ccVrO9fV.s 			page 16


 444              		.cfi_endproc
 445              	.LFE3418:
 447              		.section	.text.CMW_IMX335_SetGain,"ax",%progbits
 448              		.align	1
 449              		.syntax unified
 450              		.thumb
 451              		.thumb_func
 453              	CMW_IMX335_SetGain:
 454              	.LVL38:
 455              	.LFB3417:
  94:Lib/Camera_Middleware/sensors/cmw_imx335.c ****   return IMX335_SetGain(&((CMW_IMX335_t *)io_ctx)->ctx_driver, gain);
 456              		.loc 1 94 1 is_stmt 1 view -0
 457              		.cfi_startproc
 458              		@ args = 0, pretend = 0, frame = 0
 459              		@ frame_needed = 0, uses_anonymous_args = 0
 460              		@ link register save eliminated.
  95:Lib/Camera_Middleware/sensors/cmw_imx335.c **** }
 461              		.loc 1 95 3 view .LVU105
  95:Lib/Camera_Middleware/sensors/cmw_imx335.c **** }
 462              		.loc 1 95 10 is_stmt 0 view .LVU106
 463 0000 0830     		adds	r0, r0, #8
 464              	.LVL39:
  95:Lib/Camera_Middleware/sensors/cmw_imx335.c **** }
 465              		.loc 1 95 10 view .LVU107
 466 0002 FFF7FEBF 		b	IMX335_SetGain
 467              	.LVL40:
  95:Lib/Camera_Middleware/sensors/cmw_imx335.c **** }
 468              		.loc 1 95 10 view .LVU108
 469              		.cfi_endproc
 470              	.LFE3417:
 472              		.section	.text.CMW_IMX335_Run,"ax",%progbits
 473              		.align	1
 474              		.syntax unified
 475              		.thumb
 476              		.thumb_func
 478              	CMW_IMX335_Run:
 479              	.LVL41:
 480              	.LFB3429:
 260:Lib/Camera_Middleware/sensors/cmw_imx335.c **** #ifndef ISP_MW_TUNING_TOOL_SUPPORT
 481              		.loc 1 260 1 is_stmt 1 view -0
 482              		.cfi_startproc
 483              		@ args = 0, pretend = 0, frame = 0
 484              		@ frame_needed = 0, uses_anonymous_args = 0
 262:Lib/Camera_Middleware/sensors/cmw_imx335.c ****   ret = ISP_BackgroundProcess(&((CMW_IMX335_t *)io_ctx)->hIsp);
 485              		.loc 1 262 3 view .LVU110
 263:Lib/Camera_Middleware/sensors/cmw_imx335.c ****   if (ret != ISP_OK)
 486              		.loc 1 263 3 view .LVU111
 260:Lib/Camera_Middleware/sensors/cmw_imx335.c **** #ifndef ISP_MW_TUNING_TOOL_SUPPORT
 487              		.loc 1 260 1 is_stmt 0 view .LVU112
 488 0000 08B5     		push	{r3, lr}
 489              		.cfi_def_cfa_offset 8
 490              		.cfi_offset 3, -8
 491              		.cfi_offset 14, -4
 263:Lib/Camera_Middleware/sensors/cmw_imx335.c ****   if (ret != ISP_OK)
 492              		.loc 1 263 9 view .LVU113
 493 0002 3030     		adds	r0, r0, #48
 494              	.LVL42:
ARM GAS  C:\Users\DJESSOU\AppData\Local\Temp\ccVrO9fV.s 			page 17


 263:Lib/Camera_Middleware/sensors/cmw_imx335.c ****   if (ret != ISP_OK)
 495              		.loc 1 263 9 view .LVU114
 496 0004 FFF7FEFF 		bl	ISP_BackgroundProcess
 497              	.LVL43:
 264:Lib/Camera_Middleware/sensors/cmw_imx335.c ****   {
 498              		.loc 1 264 3 is_stmt 1 view .LVU115
 269:Lib/Camera_Middleware/sensors/cmw_imx335.c **** }
 499              		.loc 1 269 10 is_stmt 0 view .LVU116
 500 0008 0028     		cmp	r0, #0
 270:Lib/Camera_Middleware/sensors/cmw_imx335.c **** 
 501              		.loc 1 270 1 view .LVU117
 502 000a 14BF     		ite	ne
 503 000c 6FF00300 		mvnne	r0, #3
 504              	.LVL44:
 270:Lib/Camera_Middleware/sensors/cmw_imx335.c **** 
 505              		.loc 1 270 1 view .LVU118
 506 0010 0020     		moveq	r0, #0
 507 0012 08BD     		pop	{r3, pc}
 508              		.cfi_endproc
 509              	.LFE3429:
 511              		.section	.text.CMW_IMX335_DeInit,"ax",%progbits
 512              		.align	1
 513              		.syntax unified
 514              		.thumb
 515              		.thumb_func
 517              	CMW_IMX335_DeInit:
 518              	.LVL45:
 519              	.LFB3415:
  72:Lib/Camera_Middleware/sensors/cmw_imx335.c ****   int ret = CMW_ERROR_NONE;
 520              		.loc 1 72 1 is_stmt 1 view -0
 521              		.cfi_startproc
 522              		@ args = 0, pretend = 0, frame = 0
 523              		@ frame_needed = 0, uses_anonymous_args = 0
  73:Lib/Camera_Middleware/sensors/cmw_imx335.c ****   ret = ISP_DeInit(&((CMW_IMX335_t *)io_ctx)->hIsp);
 524              		.loc 1 73 3 view .LVU120
  74:Lib/Camera_Middleware/sensors/cmw_imx335.c ****   if (ret)
 525              		.loc 1 74 3 view .LVU121
  72:Lib/Camera_Middleware/sensors/cmw_imx335.c ****   int ret = CMW_ERROR_NONE;
 526              		.loc 1 72 1 is_stmt 0 view .LVU122
 527 0000 10B5     		push	{r4, lr}
 528              		.cfi_def_cfa_offset 8
 529              		.cfi_offset 4, -8
 530              		.cfi_offset 14, -4
  72:Lib/Camera_Middleware/sensors/cmw_imx335.c ****   int ret = CMW_ERROR_NONE;
 531              		.loc 1 72 1 view .LVU123
 532 0002 0446     		mov	r4, r0
  74:Lib/Camera_Middleware/sensors/cmw_imx335.c ****   if (ret)
 533              		.loc 1 74 9 view .LVU124
 534 0004 3030     		adds	r0, r0, #48
 535              	.LVL46:
  74:Lib/Camera_Middleware/sensors/cmw_imx335.c ****   if (ret)
 536              		.loc 1 74 9 view .LVU125
 537 0006 FFF7FEFF 		bl	ISP_DeInit
 538              	.LVL47:
  75:Lib/Camera_Middleware/sensors/cmw_imx335.c ****   {
 539              		.loc 1 75 3 is_stmt 1 view .LVU126
  75:Lib/Camera_Middleware/sensors/cmw_imx335.c ****   {
ARM GAS  C:\Users\DJESSOU\AppData\Local\Temp\ccVrO9fV.s 			page 18


 540              		.loc 1 75 6 is_stmt 0 view .LVU127
 541 000a 10B1     		cbz	r0, .L30
 542              	.LVL48:
 543              	.L32:
  77:Lib/Camera_Middleware/sensors/cmw_imx335.c ****   }
 544              		.loc 1 77 12 view .LVU128
 545 000c 6FF00400 		mvn	r0, #4
 546              	.L29:
  86:Lib/Camera_Middleware/sensors/cmw_imx335.c **** 
 547              		.loc 1 86 1 view .LVU129
 548 0010 10BD     		pop	{r4, pc}
 549              	.LVL49:
 550              	.L30:
  80:Lib/Camera_Middleware/sensors/cmw_imx335.c ****   if (ret)
 551              		.loc 1 80 3 is_stmt 1 view .LVU130
  80:Lib/Camera_Middleware/sensors/cmw_imx335.c ****   if (ret)
 552              		.loc 1 80 9 is_stmt 0 view .LVU131
 553 0012 04F10800 		add	r0, r4, #8
 554              	.LVL50:
  80:Lib/Camera_Middleware/sensors/cmw_imx335.c ****   if (ret)
 555              		.loc 1 80 9 view .LVU132
 556 0016 FFF7FEFF 		bl	IMX335_DeInit
 557              	.LVL51:
  81:Lib/Camera_Middleware/sensors/cmw_imx335.c ****   {
 558              		.loc 1 81 3 is_stmt 1 view .LVU133
  81:Lib/Camera_Middleware/sensors/cmw_imx335.c ****   {
 559              		.loc 1 81 6 is_stmt 0 view .LVU134
 560 001a 0028     		cmp	r0, #0
 561 001c F8D0     		beq	.L29
 562 001e F5E7     		b	.L32
 563              		.cfi_endproc
 564              	.LFE3415:
 566              		.section	.text.CMW_IMX335_Start,"ax",%progbits
 567              		.align	1
 568              		.syntax unified
 569              		.thumb
 570              		.thumb_func
 572              	CMW_IMX335_Start:
 573              	.LVL52:
 574              	.LFB3428:
 237:Lib/Camera_Middleware/sensors/cmw_imx335.c **** #ifndef ISP_MW_TUNING_TOOL_SUPPORT
 575              		.loc 1 237 1 is_stmt 1 view -0
 576              		.cfi_startproc
 577              		@ args = 0, pretend = 0, frame = 0
 578              		@ frame_needed = 0, uses_anonymous_args = 0
 239:Lib/Camera_Middleware/sensors/cmw_imx335.c ****   /* Statistic area is provided with null value so that it force the ISP Library to get the statist
 579              		.loc 1 239 3 view .LVU136
 243:Lib/Camera_Middleware/sensors/cmw_imx335.c ****   ret = ISP_Init(&((CMW_IMX335_t *)io_ctx)->hIsp, ((CMW_IMX335_t *)io_ctx)->hdcmipp, 0, &((CMW_IMX3
 580              		.loc 1 243 3 view .LVU137
 244:Lib/Camera_Middleware/sensors/cmw_imx335.c ****   if (ret != ISP_OK)
 581              		.loc 1 244 3 view .LVU138
 237:Lib/Camera_Middleware/sensors/cmw_imx335.c **** #ifndef ISP_MW_TUNING_TOOL_SUPPORT
 582              		.loc 1 237 1 is_stmt 0 view .LVU139
 583 0000 37B5     		push	{r0, r1, r2, r4, r5, lr}
 584              		.cfi_def_cfa_offset 24
 585              		.cfi_offset 4, -12
 586              		.cfi_offset 5, -8
ARM GAS  C:\Users\DJESSOU\AppData\Local\Temp\ccVrO9fV.s 			page 19


 587              		.cfi_offset 14, -4
 244:Lib/Camera_Middleware/sensors/cmw_imx335.c ****   if (ret != ISP_OK)
 588              		.loc 1 244 9 view .LVU140
 589 0002 104B     		ldr	r3, .L37
 590 0004 00F13005 		add	r5, r0, #48
 591 0008 0093     		str	r3, [sp]
 237:Lib/Camera_Middleware/sensors/cmw_imx335.c **** #ifndef ISP_MW_TUNING_TOOL_SUPPORT
 592              		.loc 1 237 1 view .LVU141
 593 000a 0446     		mov	r4, r0
 244:Lib/Camera_Middleware/sensors/cmw_imx335.c ****   if (ret != ISP_OK)
 594              		.loc 1 244 9 view .LVU142
 595 000c D0F8E010 		ldr	r1, [r0, #224]
 596 0010 00F1BC03 		add	r3, r0, #188
 597 0014 0022     		movs	r2, #0
 598 0016 2846     		mov	r0, r5
 599              	.LVL53:
 244:Lib/Camera_Middleware/sensors/cmw_imx335.c ****   if (ret != ISP_OK)
 600              		.loc 1 244 9 view .LVU143
 601 0018 FFF7FEFF 		bl	ISP_Init
 602              	.LVL54:
 245:Lib/Camera_Middleware/sensors/cmw_imx335.c ****   {
 603              		.loc 1 245 3 is_stmt 1 view .LVU144
 245:Lib/Camera_Middleware/sensors/cmw_imx335.c ****   {
 604              		.loc 1 245 6 is_stmt 0 view .LVU145
 605 001c 50B9     		cbnz	r0, .L35
 250:Lib/Camera_Middleware/sensors/cmw_imx335.c ****   if (ret != ISP_OK)
 606              		.loc 1 250 3 is_stmt 1 view .LVU146
 250:Lib/Camera_Middleware/sensors/cmw_imx335.c ****   if (ret != ISP_OK)
 607              		.loc 1 250 9 is_stmt 0 view .LVU147
 608 001e 2846     		mov	r0, r5
 609              	.LVL55:
 250:Lib/Camera_Middleware/sensors/cmw_imx335.c ****   if (ret != ISP_OK)
 610              		.loc 1 250 9 view .LVU148
 611 0020 FFF7FEFF 		bl	ISP_Start
 612              	.LVL56:
 251:Lib/Camera_Middleware/sensors/cmw_imx335.c ****   {
 613              		.loc 1 251 3 is_stmt 1 view .LVU149
 251:Lib/Camera_Middleware/sensors/cmw_imx335.c ****   {
 614              		.loc 1 251 6 is_stmt 0 view .LVU150
 615 0024 50B9     		cbnz	r0, .L36
 256:Lib/Camera_Middleware/sensors/cmw_imx335.c **** }
 616              		.loc 1 256 3 is_stmt 1 view .LVU151
 256:Lib/Camera_Middleware/sensors/cmw_imx335.c **** }
 617              		.loc 1 256 10 is_stmt 0 view .LVU152
 618 0026 04F10800 		add	r0, r4, #8
 619              	.LVL57:
 257:Lib/Camera_Middleware/sensors/cmw_imx335.c **** 
 620              		.loc 1 257 1 view .LVU153
 621 002a 03B0     		add	sp, sp, #12
 622              		.cfi_remember_state
 623              		.cfi_def_cfa_offset 12
 624              		@ sp needed
 625 002c BDE83040 		pop	{r4, r5, lr}
 626              		.cfi_restore 14
 627              		.cfi_restore 5
 628              		.cfi_restore 4
 629              		.cfi_def_cfa_offset 0
ARM GAS  C:\Users\DJESSOU\AppData\Local\Temp\ccVrO9fV.s 			page 20


 630              	.LVL58:
 256:Lib/Camera_Middleware/sensors/cmw_imx335.c **** }
 631              		.loc 1 256 10 view .LVU154
 632 0030 FFF7FEBF 		b	IMX335_Start
 633              	.LVL59:
 634              	.L35:
 635              		.cfi_restore_state
 247:Lib/Camera_Middleware/sensors/cmw_imx335.c ****   }
 636              		.loc 1 247 12 view .LVU155
 637 0034 6FF00400 		mvn	r0, #4
 638              	.LVL60:
 639              	.L33:
 257:Lib/Camera_Middleware/sensors/cmw_imx335.c **** 
 640              		.loc 1 257 1 view .LVU156
 641 0038 03B0     		add	sp, sp, #12
 642              		.cfi_remember_state
 643              		.cfi_def_cfa_offset 12
 644              		@ sp needed
 645 003a 30BD     		pop	{r4, r5, pc}
 646              	.LVL61:
 647              	.L36:
 648              		.cfi_restore_state
 253:Lib/Camera_Middleware/sensors/cmw_imx335.c ****   }
 649              		.loc 1 253 14 view .LVU157
 650 003c 6FF00300 		mvn	r0, #3
 651              	.LVL62:
 253:Lib/Camera_Middleware/sensors/cmw_imx335.c ****   }
 652              		.loc 1 253 14 view .LVU158
 653 0040 FAE7     		b	.L33
 654              	.L38:
 655 0042 00BF     		.align	2
 656              	.L37:
 657 0044 00000000 		.word	ISP_IQParamCacheInit_IMX335
 658              		.cfi_endproc
 659              	.LFE3428:
 661              		.section	.text.CMW_IMX335_Init,"ax",%progbits
 662              		.align	1
 663              		.syntax unified
 664              		.thumb
 665              		.thumb_func
 667              	CMW_IMX335_Init:
 668              	.LVL63:
 669              	.LFB3426:
 199:Lib/Camera_Middleware/sensors/cmw_imx335.c ****   int ret = CMW_ERROR_NONE;
 670              		.loc 1 199 1 is_stmt 1 view -0
 671              		.cfi_startproc
 672              		@ args = 0, pretend = 0, frame = 0
 673              		@ frame_needed = 0, uses_anonymous_args = 0
 200:Lib/Camera_Middleware/sensors/cmw_imx335.c ****   uint32_t resolution;
 674              		.loc 1 200 3 view .LVU160
 201:Lib/Camera_Middleware/sensors/cmw_imx335.c ****   CMW_IMX335_config_t *sensor_config;
 675              		.loc 1 201 3 view .LVU161
 202:Lib/Camera_Middleware/sensors/cmw_imx335.c ****   sensor_config = (CMW_IMX335_config_t*)(initSensor->sensor_config);
 676              		.loc 1 202 3 view .LVU162
 203:Lib/Camera_Middleware/sensors/cmw_imx335.c ****   if (sensor_config == NULL)
 677              		.loc 1 203 3 view .LVU163
 199:Lib/Camera_Middleware/sensors/cmw_imx335.c ****   int ret = CMW_ERROR_NONE;
ARM GAS  C:\Users\DJESSOU\AppData\Local\Temp\ccVrO9fV.s 			page 21


 678              		.loc 1 199 1 is_stmt 0 view .LVU164
 679 0000 38B5     		push	{r3, r4, r5, lr}
 680              		.cfi_def_cfa_offset 16
 681              		.cfi_offset 3, -16
 682              		.cfi_offset 4, -12
 683              		.cfi_offset 5, -8
 684              		.cfi_offset 14, -4
 203:Lib/Camera_Middleware/sensors/cmw_imx335.c ****   if (sensor_config == NULL)
 685              		.loc 1 203 17 view .LVU165
 686 0002 0D69     		ldr	r5, [r1, #16]
 687              	.LVL64:
 204:Lib/Camera_Middleware/sensors/cmw_imx335.c ****   {
 688              		.loc 1 204 3 is_stmt 1 view .LVU166
 199:Lib/Camera_Middleware/sensors/cmw_imx335.c ****   int ret = CMW_ERROR_NONE;
 689              		.loc 1 199 1 is_stmt 0 view .LVU167
 690 0004 0446     		mov	r4, r0
 204:Lib/Camera_Middleware/sensors/cmw_imx335.c ****   {
 691              		.loc 1 204 6 view .LVU168
 692 0006 15B9     		cbnz	r5, .L40
 693              	.LVL65:
 694              	.L42:
 206:Lib/Camera_Middleware/sensors/cmw_imx335.c ****   }
 695              		.loc 1 206 12 view .LVU169
 696 0008 6FF00100 		mvn	r0, #1
 697              	.L39:
 228:Lib/Camera_Middleware/sensors/cmw_imx335.c **** 
 698              		.loc 1 228 1 view .LVU170
 699 000c 38BD     		pop	{r3, r4, r5, pc}
 700              	.LVL66:
 701              	.L40:
 209:Lib/Camera_Middleware/sensors/cmw_imx335.c ****   if (ret)
 702              		.loc 1 209 3 is_stmt 1 view .LVU171
 703              	.LBB8:
 704              	.LBB9:
  36:Lib/Camera_Middleware/sensors/cmw_imx335.c ****   {
 705              		.loc 1 36 6 is_stmt 0 view .LVU172
 706 000e D1E90023 		ldrd	r2, r3, [r1]
 707 0012 B2F5226F 		cmp	r2, #2592
 708 0016 F7D1     		bne	.L42
  36:Lib/Camera_Middleware/sensors/cmw_imx335.c ****   {
 709              		.loc 1 36 21 discriminator 1 view .LVU173
 710 0018 B3F5F36F 		cmp	r3, #1944
 711 001c F4D1     		bne	.L42
  38:Lib/Camera_Middleware/sensors/cmw_imx335.c ****   }
 712              		.loc 1 38 5 is_stmt 1 view .LVU174
 713              	.LVL67:
  44:Lib/Camera_Middleware/sensors/cmw_imx335.c **** }
 714              		.loc 1 44 3 view .LVU175
  44:Lib/Camera_Middleware/sensors/cmw_imx335.c **** }
 715              		.loc 1 44 3 is_stmt 0 view .LVU176
 716              	.LBE9:
 717              	.LBE8:
 210:Lib/Camera_Middleware/sensors/cmw_imx335.c ****   {
 718              		.loc 1 210 3 is_stmt 1 view .LVU177
 215:Lib/Camera_Middleware/sensors/cmw_imx335.c ****   if (ret)
 719              		.loc 1 215 3 view .LVU178
 215:Lib/Camera_Middleware/sensors/cmw_imx335.c ****   if (ret)
ARM GAS  C:\Users\DJESSOU\AppData\Local\Temp\ccVrO9fV.s 			page 22


 720              		.loc 1 215 9 is_stmt 0 view .LVU179
 721 001e C968     		ldr	r1, [r1, #12]
 722              	.LVL68:
 215:Lib/Camera_Middleware/sensors/cmw_imx335.c ****   if (ret)
 723              		.loc 1 215 9 view .LVU180
 724 0020 FFF7FEFF 		bl	CMW_IMX335_SetMirrorFlip
 725              	.LVL69:
 216:Lib/Camera_Middleware/sensors/cmw_imx335.c ****   {
 726              		.loc 1 216 3 is_stmt 1 view .LVU181
 216:Lib/Camera_Middleware/sensors/cmw_imx335.c ****   {
 727              		.loc 1 216 6 is_stmt 0 view .LVU182
 728 0024 0028     		cmp	r0, #0
 729 0026 EFD1     		bne	.L42
 221:Lib/Camera_Middleware/sensors/cmw_imx335.c ****   if (ret != IMX335_OK)
 730              		.loc 1 221 3 is_stmt 1 view .LVU183
 221:Lib/Camera_Middleware/sensors/cmw_imx335.c ****   if (ret != IMX335_OK)
 731              		.loc 1 221 9 is_stmt 0 view .LVU184
 732 0028 0621     		movs	r1, #6
 733 002a 2A68     		ldr	r2, [r5]
 734 002c 04F10800 		add	r0, r4, #8
 735              	.LVL70:
 221:Lib/Camera_Middleware/sensors/cmw_imx335.c ****   if (ret != IMX335_OK)
 736              		.loc 1 221 9 view .LVU185
 737 0030 FFF7FEFF 		bl	IMX335_Init
 738              	.LVL71:
 222:Lib/Camera_Middleware/sensors/cmw_imx335.c ****   {
 739              		.loc 1 222 3 is_stmt 1 view .LVU186
 224:Lib/Camera_Middleware/sensors/cmw_imx335.c ****   }
 740              		.loc 1 224 12 is_stmt 0 view .LVU187
 741 0034 0028     		cmp	r0, #0
 224:Lib/Camera_Middleware/sensors/cmw_imx335.c ****   }
 742              		.loc 1 224 12 view .LVU188
 743 0036 18BF     		it	ne
 744 0038 6FF00400 		mvnne	r0, #4
 745              	.LVL72:
 224:Lib/Camera_Middleware/sensors/cmw_imx335.c ****   }
 746              		.loc 1 224 12 view .LVU189
 747 003c E6E7     		b	.L39
 748              		.cfi_endproc
 749              	.LFE3426:
 751              		.section	.text.CMW_IMX335_VsyncEventCallback,"ax",%progbits
 752              		.align	1
 753              		.syntax unified
 754              		.thumb
 755              		.thumb_func
 757              	CMW_IMX335_VsyncEventCallback:
 758              	.LVL73:
 759              	.LFB3431:
 307:Lib/Camera_Middleware/sensors/cmw_imx335.c **** #ifndef ISP_MW_TUNING_TOOL_SUPPORT
 760              		.loc 1 307 1 is_stmt 1 view -0
 761              		.cfi_startproc
 762              		@ args = 0, pretend = 0, frame = 0
 763              		@ frame_needed = 0, uses_anonymous_args = 0
 310:Lib/Camera_Middleware/sensors/cmw_imx335.c ****   {
 764              		.loc 1 310 3 view .LVU191
 765 0000 0129     		cmp	r1, #1
 307:Lib/Camera_Middleware/sensors/cmw_imx335.c **** #ifndef ISP_MW_TUNING_TOOL_SUPPORT
ARM GAS  C:\Users\DJESSOU\AppData\Local\Temp\ccVrO9fV.s 			page 23


 766              		.loc 1 307 1 is_stmt 0 view .LVU192
 767 0002 10B5     		push	{r4, lr}
 768              		.cfi_def_cfa_offset 8
 769              		.cfi_offset 4, -8
 770              		.cfi_offset 14, -4
 310:Lib/Camera_Middleware/sensors/cmw_imx335.c ****   {
 771              		.loc 1 310 3 view .LVU193
 772 0004 07D0     		beq	.L45
 773 0006 0229     		cmp	r1, #2
 774 0008 0FD0     		beq	.L46
 775 000a 99B9     		cbnz	r1, .L44
 313:Lib/Camera_Middleware/sensors/cmw_imx335.c ****       break;
 776              		.loc 1 313 7 is_stmt 1 view .LVU194
 324:Lib/Camera_Middleware/sensors/cmw_imx335.c **** 
 777              		.loc 1 324 1 is_stmt 0 view .LVU195
 778 000c BDE81040 		pop	{r4, lr}
 779              		.cfi_remember_state
 780              		.cfi_restore 14
 781              		.cfi_restore 4
 782              		.cfi_def_cfa_offset 0
 313:Lib/Camera_Middleware/sensors/cmw_imx335.c ****       break;
 783              		.loc 1 313 7 view .LVU196
 784 0010 3030     		adds	r0, r0, #48
 785              	.LVL74:
 313:Lib/Camera_Middleware/sensors/cmw_imx335.c ****       break;
 786              		.loc 1 313 7 view .LVU197
 787 0012 FFF7FEBF 		b	ISP_IncDumpFrameId
 788              	.LVL75:
 789              	.L45:
 790              		.cfi_restore_state
 791              	.LBB12:
 792              	.LBI12:
 306:Lib/Camera_Middleware/sensors/cmw_imx335.c **** {
 793              		.loc 1 306 13 is_stmt 1 view .LVU198
 794              	.LBB13:
 316:Lib/Camera_Middleware/sensors/cmw_imx335.c ****       ISP_GatherStatistics(&((CMW_IMX335_t *)io_ctx)->hIsp);
 795              		.loc 1 316 7 view .LVU199
 796 0016 00F13004 		add	r4, r0, #48
 797 001a 2046     		mov	r0, r4
 798              	.LVL76:
 316:Lib/Camera_Middleware/sensors/cmw_imx335.c ****       ISP_GatherStatistics(&((CMW_IMX335_t *)io_ctx)->hIsp);
 799              		.loc 1 316 7 is_stmt 0 view .LVU200
 800 001c FFF7FEFF 		bl	ISP_IncMainFrameId
 801              	.LVL77:
 317:Lib/Camera_Middleware/sensors/cmw_imx335.c ****       break;
 802              		.loc 1 317 7 is_stmt 1 view .LVU201
 803 0020 2046     		mov	r0, r4
 804              	.LBE13:
 805              	.LBE12:
 324:Lib/Camera_Middleware/sensors/cmw_imx335.c **** 
 806              		.loc 1 324 1 is_stmt 0 view .LVU202
 807 0022 BDE81040 		pop	{r4, lr}
 808              		.cfi_remember_state
 809              		.cfi_restore 14
 810              		.cfi_restore 4
 811              		.cfi_def_cfa_offset 0
 812              	.LVL78:
ARM GAS  C:\Users\DJESSOU\AppData\Local\Temp\ccVrO9fV.s 			page 24


 813              	.LBB15:
 814              	.LBB14:
 317:Lib/Camera_Middleware/sensors/cmw_imx335.c ****       break;
 815              		.loc 1 317 7 view .LVU203
 816 0026 FFF7FEBF 		b	ISP_GatherStatistics
 817              	.LVL79:
 818              	.L46:
 819              		.cfi_restore_state
 317:Lib/Camera_Middleware/sensors/cmw_imx335.c ****       break;
 820              		.loc 1 317 7 view .LVU204
 821              	.LBE14:
 822              	.LBE15:
 320:Lib/Camera_Middleware/sensors/cmw_imx335.c ****       break;
 823              		.loc 1 320 7 is_stmt 1 view .LVU205
 824 002a 3030     		adds	r0, r0, #48
 825              	.LVL80:
 324:Lib/Camera_Middleware/sensors/cmw_imx335.c **** 
 826              		.loc 1 324 1 is_stmt 0 view .LVU206
 827 002c BDE81040 		pop	{r4, lr}
 828              		.cfi_remember_state
 829              		.cfi_restore 14
 830              		.cfi_restore 4
 831              		.cfi_def_cfa_offset 0
 320:Lib/Camera_Middleware/sensors/cmw_imx335.c ****       break;
 832              		.loc 1 320 7 view .LVU207
 833 0030 FFF7FEBF 		b	ISP_IncAncillaryFrameId
 834              	.LVL81:
 835              	.L44:
 836              		.cfi_restore_state
 324:Lib/Camera_Middleware/sensors/cmw_imx335.c **** 
 837              		.loc 1 324 1 view .LVU208
 838 0034 10BD     		pop	{r4, pc}
 839              		.cfi_endproc
 840              	.LFE3431:
 842              		.section	.rodata.CMW_IMX335_SetDefaultSensorValues.str1.1,"aMS",%progbits,1
 843              	.LC2:
 844 0000 696D7833 		.ascii	"imx335_config != NULL\000"
 844      33355F63 
 844      6F6E6669 
 844      6720213D 
 844      204E554C 
 845              	.LC3:
 846 0016 4C69622F 		.ascii	"Lib/Camera_Middleware/sensors/cmw_imx335.c\000"
 846      43616D65 
 846      72615F4D 
 846      6964646C 
 846      65776172 
 847              		.section	.text.CMW_IMX335_SetDefaultSensorValues,"ax",%progbits
 848              		.align	1
 849              		.global	CMW_IMX335_SetDefaultSensorValues
 850              		.syntax unified
 851              		.thumb
 852              		.thumb_func
 854              	CMW_IMX335_SetDefaultSensorValues:
 855              	.LVL82:
 856              	.LFB3427:
 231:Lib/Camera_Middleware/sensors/cmw_imx335.c ****   assert(imx335_config != NULL);
ARM GAS  C:\Users\DJESSOU\AppData\Local\Temp\ccVrO9fV.s 			page 25


 857              		.loc 1 231 1 is_stmt 1 view -0
 858              		.cfi_startproc
 859              		@ args = 0, pretend = 0, frame = 0
 860              		@ frame_needed = 0, uses_anonymous_args = 0
 232:Lib/Camera_Middleware/sensors/cmw_imx335.c ****   imx335_config->pixel_format = CMW_PIXEL_FORMAT_RAW10;
 861              		.loc 1 232 3 view .LVU210
 231:Lib/Camera_Middleware/sensors/cmw_imx335.c ****   assert(imx335_config != NULL);
 862              		.loc 1 231 1 is_stmt 0 view .LVU211
 863 0000 08B5     		push	{r3, lr}
 864              		.cfi_def_cfa_offset 8
 865              		.cfi_offset 3, -8
 866              		.cfi_offset 14, -4
 232:Lib/Camera_Middleware/sensors/cmw_imx335.c ****   imx335_config->pixel_format = CMW_PIXEL_FORMAT_RAW10;
 867              		.loc 1 232 3 view .LVU212
 868 0002 28B9     		cbnz	r0, .L49
 232:Lib/Camera_Middleware/sensors/cmw_imx335.c ****   imx335_config->pixel_format = CMW_PIXEL_FORMAT_RAW10;
 869              		.loc 1 232 3 discriminator 1 view .LVU213
 870 0004 E821     		movs	r1, #232
 871 0006 044B     		ldr	r3, .L50
 872 0008 044A     		ldr	r2, .L50+4
 873 000a 0548     		ldr	r0, .L50+8
 874              	.LVL83:
 232:Lib/Camera_Middleware/sensors/cmw_imx335.c ****   imx335_config->pixel_format = CMW_PIXEL_FORMAT_RAW10;
 875              		.loc 1 232 3 discriminator 1 view .LVU214
 876 000c FFF7FEFF 		bl	__assert_func
 877              	.LVL84:
 878              	.L49:
 233:Lib/Camera_Middleware/sensors/cmw_imx335.c **** }
 879              		.loc 1 233 3 is_stmt 1 view .LVU215
 233:Lib/Camera_Middleware/sensors/cmw_imx335.c **** }
 880              		.loc 1 233 31 is_stmt 0 view .LVU216
 881 0010 2B23     		movs	r3, #43
 882 0012 0360     		str	r3, [r0]
 234:Lib/Camera_Middleware/sensors/cmw_imx335.c **** 
 883              		.loc 1 234 1 view .LVU217
 884 0014 08BD     		pop	{r3, pc}
 885              	.L51:
 886 0016 00BF     		.align	2
 887              	.L50:
 888 0018 00000000 		.word	.LC2
 889 001c 00000000 		.word	__func__.0
 890 0020 16000000 		.word	.LC3
 891              		.cfi_endproc
 892              	.LFE3427:
 894              		.section	.text.CMW_IMX335_Probe,"ax",%progbits
 895              		.align	1
 896              		.global	CMW_IMX335_Probe
 897              		.syntax unified
 898              		.thumb
 899              		.thumb_func
 901              	CMW_IMX335_Probe:
 902              	.LVL85:
 903              	.LFB3433:
 329:Lib/Camera_Middleware/sensors/cmw_imx335.c **** 
 330:Lib/Camera_Middleware/sensors/cmw_imx335.c **** int CMW_IMX335_Probe(CMW_IMX335_t *io_ctx, CMW_Sensor_if_t *imx335_if)
 331:Lib/Camera_Middleware/sensors/cmw_imx335.c **** {
 904              		.loc 1 331 1 is_stmt 1 view -0
ARM GAS  C:\Users\DJESSOU\AppData\Local\Temp\ccVrO9fV.s 			page 26


 905              		.cfi_startproc
 906              		@ args = 0, pretend = 0, frame = 8
 907              		@ frame_needed = 0, uses_anonymous_args = 0
 332:Lib/Camera_Middleware/sensors/cmw_imx335.c ****   int ret = CMW_ERROR_NONE;
 908              		.loc 1 332 3 view .LVU219
 333:Lib/Camera_Middleware/sensors/cmw_imx335.c ****   uint32_t id;
 909              		.loc 1 333 3 view .LVU220
 334:Lib/Camera_Middleware/sensors/cmw_imx335.c ****   io_ctx->ctx_driver.IO.Address = io_ctx->Address;
 910              		.loc 1 334 3 view .LVU221
 331:Lib/Camera_Middleware/sensors/cmw_imx335.c ****   int ret = CMW_ERROR_NONE;
 911              		.loc 1 331 1 is_stmt 0 view .LVU222
 912 0000 73B5     		push	{r0, r1, r4, r5, r6, lr}
 913              		.cfi_def_cfa_offset 24
 914              		.cfi_offset 4, -16
 915              		.cfi_offset 5, -12
 916              		.cfi_offset 6, -8
 917              		.cfi_offset 14, -4
 331:Lib/Camera_Middleware/sensors/cmw_imx335.c ****   int ret = CMW_ERROR_NONE;
 918              		.loc 1 331 1 view .LVU223
 919 0002 0446     		mov	r4, r0
 920              		.loc 1 334 33 view .LVU224
 921 0004 0388     		ldrh	r3, [r0]
 331:Lib/Camera_Middleware/sensors/cmw_imx335.c ****   int ret = CMW_ERROR_NONE;
 922              		.loc 1 331 1 view .LVU225
 923 0006 0D46     		mov	r5, r1
 924              		.loc 1 334 33 view .LVU226
 925 0008 0382     		strh	r3, [r0, #16]	@ movhi
 335:Lib/Camera_Middleware/sensors/cmw_imx335.c ****   io_ctx->ctx_driver.IO.Init = io_ctx->Init;
 926              		.loc 1 335 3 is_stmt 1 view .LVU227
 927              		.loc 1 335 30 is_stmt 0 view .LVU228
 928 000a D0F8E830 		ldr	r3, [r0, #232]
 336:Lib/Camera_Middleware/sensors/cmw_imx335.c ****   io_ctx->ctx_driver.IO.DeInit = io_ctx->DeInit;
 337:Lib/Camera_Middleware/sensors/cmw_imx335.c ****   io_ctx->ctx_driver.IO.GetTick = io_ctx->GetTick;
 338:Lib/Camera_Middleware/sensors/cmw_imx335.c ****   io_ctx->ctx_driver.IO.ReadReg = io_ctx->ReadReg;
 339:Lib/Camera_Middleware/sensors/cmw_imx335.c ****   io_ctx->ctx_driver.IO.WriteReg = io_ctx->WriteReg;
 340:Lib/Camera_Middleware/sensors/cmw_imx335.c **** 
 341:Lib/Camera_Middleware/sensors/cmw_imx335.c ****   CMW_IMX335_PowerOn(io_ctx);
 342:Lib/Camera_Middleware/sensors/cmw_imx335.c **** 
 343:Lib/Camera_Middleware/sensors/cmw_imx335.c ****   ret = IMX335_RegisterBusIO(&io_ctx->ctx_driver, &io_ctx->ctx_driver.IO);
 929              		.loc 1 343 9 view .LVU229
 930 000e 0834     		adds	r4, r4, #8
 335:Lib/Camera_Middleware/sensors/cmw_imx335.c ****   io_ctx->ctx_driver.IO.Init = io_ctx->Init;
 931              		.loc 1 335 30 view .LVU230
 932 0010 8360     		str	r3, [r0, #8]
 336:Lib/Camera_Middleware/sensors/cmw_imx335.c ****   io_ctx->ctx_driver.IO.DeInit = io_ctx->DeInit;
 933              		.loc 1 336 3 is_stmt 1 view .LVU231
 336:Lib/Camera_Middleware/sensors/cmw_imx335.c ****   io_ctx->ctx_driver.IO.DeInit = io_ctx->DeInit;
 934              		.loc 1 336 32 is_stmt 0 view .LVU232
 935 0012 D0F8EC30 		ldr	r3, [r0, #236]
 936 0016 C360     		str	r3, [r0, #12]
 337:Lib/Camera_Middleware/sensors/cmw_imx335.c ****   io_ctx->ctx_driver.IO.ReadReg = io_ctx->ReadReg;
 937              		.loc 1 337 3 is_stmt 1 view .LVU233
 337:Lib/Camera_Middleware/sensors/cmw_imx335.c ****   io_ctx->ctx_driver.IO.ReadReg = io_ctx->ReadReg;
 938              		.loc 1 337 33 is_stmt 0 view .LVU234
 939 0018 D0F8F830 		ldr	r3, [r0, #248]
 940 001c C361     		str	r3, [r0, #28]
 338:Lib/Camera_Middleware/sensors/cmw_imx335.c ****   io_ctx->ctx_driver.IO.WriteReg = io_ctx->WriteReg;
ARM GAS  C:\Users\DJESSOU\AppData\Local\Temp\ccVrO9fV.s 			page 27


 941              		.loc 1 338 3 is_stmt 1 view .LVU235
 338:Lib/Camera_Middleware/sensors/cmw_imx335.c ****   io_ctx->ctx_driver.IO.WriteReg = io_ctx->WriteReg;
 942              		.loc 1 338 33 is_stmt 0 view .LVU236
 943 001e D0F8F430 		ldr	r3, [r0, #244]
 944 0022 8361     		str	r3, [r0, #24]
 339:Lib/Camera_Middleware/sensors/cmw_imx335.c **** 
 945              		.loc 1 339 3 is_stmt 1 view .LVU237
 339:Lib/Camera_Middleware/sensors/cmw_imx335.c **** 
 946              		.loc 1 339 34 is_stmt 0 view .LVU238
 947 0024 D0F8F030 		ldr	r3, [r0, #240]
 948 0028 4361     		str	r3, [r0, #20]
 341:Lib/Camera_Middleware/sensors/cmw_imx335.c **** 
 949              		.loc 1 341 3 is_stmt 1 view .LVU239
 950              	.LVL86:
 951              	.LBB18:
 952              	.LBI18:
 272:Lib/Camera_Middleware/sensors/cmw_imx335.c **** {
 953              		.loc 1 272 13 view .LVU240
 954              	.LBB19:
 299:Lib/Camera_Middleware/sensors/cmw_imx335.c ****   io_ctx->ShutdownPin(0); /* Set RESET low */
 955              		.loc 1 299 3 view .LVU241
 956 002a D0F80431 		ldr	r3, [r0, #260]
 957 002e 0120     		movs	r0, #1
 958              	.LVL87:
 299:Lib/Camera_Middleware/sensors/cmw_imx335.c ****   io_ctx->ShutdownPin(0); /* Set RESET low */
 959              		.loc 1 299 3 is_stmt 0 view .LVU242
 960 0030 9847     		blx	r3
 961              	.LVL88:
 300:Lib/Camera_Middleware/sensors/cmw_imx335.c ****   io_ctx->Delay(1);       /* Hold RESET low for at least 500 ns after power supply have finished ri
 962              		.loc 1 300 3 is_stmt 1 view .LVU243
 963 0032 D4F8F830 		ldr	r3, [r4, #248]
 964 0036 0020     		movs	r0, #0
 965 0038 9847     		blx	r3
 966              	.LVL89:
 301:Lib/Camera_Middleware/sensors/cmw_imx335.c ****   io_ctx->ShutdownPin(1); /* Release RESET */
 967              		.loc 1 301 3 view .LVU244
 968 003a D4F8F430 		ldr	r3, [r4, #244]
 969 003e 0120     		movs	r0, #1
 970 0040 9847     		blx	r3
 971              	.LVL90:
 302:Lib/Camera_Middleware/sensors/cmw_imx335.c ****   io_ctx->Delay(1);      /* Wait for sensor to be ready */
 972              		.loc 1 302 3 view .LVU245
 973 0042 D4F8F830 		ldr	r3, [r4, #248]
 974 0046 0120     		movs	r0, #1
 975 0048 9847     		blx	r3
 976              	.LVL91:
 303:Lib/Camera_Middleware/sensors/cmw_imx335.c **** }
 977              		.loc 1 303 3 view .LVU246
 978 004a D4F8F430 		ldr	r3, [r4, #244]
 979 004e 0120     		movs	r0, #1
 980 0050 9847     		blx	r3
 981              	.LVL92:
 303:Lib/Camera_Middleware/sensors/cmw_imx335.c **** }
 982              		.loc 1 303 3 is_stmt 0 view .LVU247
 983              	.LBE19:
 984              	.LBE18:
 985              		.loc 1 343 3 is_stmt 1 view .LVU248
ARM GAS  C:\Users\DJESSOU\AppData\Local\Temp\ccVrO9fV.s 			page 28


 986              		.loc 1 343 9 is_stmt 0 view .LVU249
 987 0052 2146     		mov	r1, r4
 988 0054 2046     		mov	r0, r4
 989 0056 FFF7FEFF 		bl	IMX335_RegisterBusIO
 990              	.LVL93:
 344:Lib/Camera_Middleware/sensors/cmw_imx335.c ****   if (ret != IMX335_OK)
 991              		.loc 1 344 3 is_stmt 1 view .LVU250
 992              		.loc 1 344 6 is_stmt 0 view .LVU251
 993 005a 0646     		mov	r6, r0
 994 005c 20B1     		cbz	r0, .L53
 995              	.LVL94:
 996              	.L55:
 345:Lib/Camera_Middleware/sensors/cmw_imx335.c ****   {
 346:Lib/Camera_Middleware/sensors/cmw_imx335.c ****     return CMW_ERROR_COMPONENT_FAILURE;
 997              		.loc 1 346 12 view .LVU252
 998 005e 6FF00404 		mvn	r4, #4
 999              	.LVL95:
 1000              	.L52:
 347:Lib/Camera_Middleware/sensors/cmw_imx335.c ****   }
 348:Lib/Camera_Middleware/sensors/cmw_imx335.c **** 
 349:Lib/Camera_Middleware/sensors/cmw_imx335.c ****   ret = IMX335_ReadID(&io_ctx->ctx_driver, &id);
 350:Lib/Camera_Middleware/sensors/cmw_imx335.c ****   if (ret != IMX335_OK)
 351:Lib/Camera_Middleware/sensors/cmw_imx335.c ****   {
 352:Lib/Camera_Middleware/sensors/cmw_imx335.c ****     return CMW_ERROR_COMPONENT_FAILURE;
 353:Lib/Camera_Middleware/sensors/cmw_imx335.c ****   }
 354:Lib/Camera_Middleware/sensors/cmw_imx335.c ****   if (id != IMX335_CHIP_ID)
 355:Lib/Camera_Middleware/sensors/cmw_imx335.c ****   {
 356:Lib/Camera_Middleware/sensors/cmw_imx335.c ****       ret = CMW_ERROR_UNKNOWN_COMPONENT;
 357:Lib/Camera_Middleware/sensors/cmw_imx335.c ****   }
 358:Lib/Camera_Middleware/sensors/cmw_imx335.c **** 
 359:Lib/Camera_Middleware/sensors/cmw_imx335.c ****   memset(imx335_if, 0, sizeof(*imx335_if));
 360:Lib/Camera_Middleware/sensors/cmw_imx335.c ****   imx335_if->Init = CMW_IMX335_Init;
 361:Lib/Camera_Middleware/sensors/cmw_imx335.c ****   imx335_if->Start = CMW_IMX335_Start;
 362:Lib/Camera_Middleware/sensors/cmw_imx335.c ****   imx335_if->DeInit = CMW_IMX335_DeInit;
 363:Lib/Camera_Middleware/sensors/cmw_imx335.c ****   imx335_if->Run = CMW_IMX335_Run;
 364:Lib/Camera_Middleware/sensors/cmw_imx335.c ****   imx335_if->VsyncEventCallback = CMW_IMX335_VsyncEventCallback;
 365:Lib/Camera_Middleware/sensors/cmw_imx335.c ****   imx335_if->FrameEventCallback = CMW_IMX335_FrameEventCallback;
 366:Lib/Camera_Middleware/sensors/cmw_imx335.c ****   imx335_if->ReadID = CMW_IMX335_ReadID;
 367:Lib/Camera_Middleware/sensors/cmw_imx335.c ****   imx335_if->SetGain = CMW_IMX335_SetGain;
 368:Lib/Camera_Middleware/sensors/cmw_imx335.c ****   imx335_if->SetExposure = CMW_IMX335_SetExposure;
 369:Lib/Camera_Middleware/sensors/cmw_imx335.c ****   imx335_if->SetWBRefMode = CMW_IMX335_SetWBRefMode;
 370:Lib/Camera_Middleware/sensors/cmw_imx335.c ****   imx335_if->ListWBRefModes = CMW_IMX335_ListWBRefModes;
 371:Lib/Camera_Middleware/sensors/cmw_imx335.c ****   imx335_if->SetFrequency = CMW_IMX335_SetFrequency;
 372:Lib/Camera_Middleware/sensors/cmw_imx335.c ****   imx335_if->SetFramerate = CMW_IMX335_SetFramerate;
 373:Lib/Camera_Middleware/sensors/cmw_imx335.c ****   imx335_if->SetMirrorFlip = CMW_IMX335_SetMirrorFlip;
 374:Lib/Camera_Middleware/sensors/cmw_imx335.c ****   imx335_if->GetSensorInfo = CMW_IMX335_GetSensorInfo;
 375:Lib/Camera_Middleware/sensors/cmw_imx335.c ****   imx335_if->SetTestPattern = CMW_IMX335_SetTestPattern;
 376:Lib/Camera_Middleware/sensors/cmw_imx335.c ****   return ret;
 377:Lib/Camera_Middleware/sensors/cmw_imx335.c **** }
 1001              		.loc 1 377 1 view .LVU253
 1002 0062 2046     		mov	r0, r4
 1003 0064 02B0     		add	sp, sp, #8
 1004              		.cfi_remember_state
 1005              		.cfi_def_cfa_offset 16
 1006              		@ sp needed
 1007 0066 70BD     		pop	{r4, r5, r6, pc}
 1008              	.LVL96:
ARM GAS  C:\Users\DJESSOU\AppData\Local\Temp\ccVrO9fV.s 			page 29


 1009              	.L53:
 1010              		.cfi_restore_state
 349:Lib/Camera_Middleware/sensors/cmw_imx335.c ****   if (ret != IMX335_OK)
 1011              		.loc 1 349 3 is_stmt 1 view .LVU254
 349:Lib/Camera_Middleware/sensors/cmw_imx335.c ****   if (ret != IMX335_OK)
 1012              		.loc 1 349 9 is_stmt 0 view .LVU255
 1013 0068 2046     		mov	r0, r4
 1014              	.LVL97:
 349:Lib/Camera_Middleware/sensors/cmw_imx335.c ****   if (ret != IMX335_OK)
 1015              		.loc 1 349 9 view .LVU256
 1016 006a 01A9     		add	r1, sp, #4
 1017 006c FFF7FEFF 		bl	IMX335_ReadID
 1018              	.LVL98:
 350:Lib/Camera_Middleware/sensors/cmw_imx335.c ****   {
 1019              		.loc 1 350 3 is_stmt 1 view .LVU257
 350:Lib/Camera_Middleware/sensors/cmw_imx335.c ****   {
 1020              		.loc 1 350 6 is_stmt 0 view .LVU258
 1021 0070 0446     		mov	r4, r0
 1022 0072 0028     		cmp	r0, #0
 1023 0074 F3D1     		bne	.L55
 354:Lib/Camera_Middleware/sensors/cmw_imx335.c ****   {
 1024              		.loc 1 354 3 is_stmt 1 view .LVU259
 354:Lib/Camera_Middleware/sensors/cmw_imx335.c ****   {
 1025              		.loc 1 354 6 is_stmt 0 view .LVU260
 1026 0076 019B     		ldr	r3, [sp, #4]
 359:Lib/Camera_Middleware/sensors/cmw_imx335.c ****   imx335_if->Init = CMW_IMX335_Init;
 1027              		.loc 1 359 3 view .LVU261
 1028 0078 5422     		movs	r2, #84
 356:Lib/Camera_Middleware/sensors/cmw_imx335.c ****   }
 1029              		.loc 1 356 11 view .LVU262
 1030 007a 002B     		cmp	r3, #0
 1031 007c 08BF     		it	eq
 1032 007e 0446     		moveq	r4, r0
 359:Lib/Camera_Middleware/sensors/cmw_imx335.c ****   imx335_if->Init = CMW_IMX335_Init;
 1033              		.loc 1 359 3 view .LVU263
 1034 0080 3146     		mov	r1, r6
 1035 0082 05F11800 		add	r0, r5, #24
 1036              	.LVL99:
 356:Lib/Camera_Middleware/sensors/cmw_imx335.c ****   }
 1037              		.loc 1 356 11 view .LVU264
 1038 0086 18BF     		it	ne
 1039 0088 6FF00604 		mvnne	r4, #6
 1040              	.LVL100:
 359:Lib/Camera_Middleware/sensors/cmw_imx335.c ****   imx335_if->Init = CMW_IMX335_Init;
 1041              		.loc 1 359 3 is_stmt 1 view .LVU265
 1042 008c FFF7FEFF 		bl	memset
 1043              	.LVL101:
 360:Lib/Camera_Middleware/sensors/cmw_imx335.c ****   imx335_if->Start = CMW_IMX335_Start;
 1044              		.loc 1 360 3 view .LVU266
 360:Lib/Camera_Middleware/sensors/cmw_imx335.c ****   imx335_if->Start = CMW_IMX335_Start;
 1045              		.loc 1 360 19 is_stmt 0 view .LVU267
 1046 0090 104B     		ldr	r3, .L58
 1047 0092 2B60     		str	r3, [r5]
 361:Lib/Camera_Middleware/sensors/cmw_imx335.c ****   imx335_if->DeInit = CMW_IMX335_DeInit;
 1048              		.loc 1 361 3 is_stmt 1 view .LVU268
 361:Lib/Camera_Middleware/sensors/cmw_imx335.c ****   imx335_if->DeInit = CMW_IMX335_DeInit;
 1049              		.loc 1 361 20 is_stmt 0 view .LVU269
ARM GAS  C:\Users\DJESSOU\AppData\Local\Temp\ccVrO9fV.s 			page 30


 1050 0094 104B     		ldr	r3, .L58+4
 1051 0096 AB60     		str	r3, [r5, #8]
 362:Lib/Camera_Middleware/sensors/cmw_imx335.c ****   imx335_if->Run = CMW_IMX335_Run;
 1052              		.loc 1 362 3 is_stmt 1 view .LVU270
 362:Lib/Camera_Middleware/sensors/cmw_imx335.c ****   imx335_if->Run = CMW_IMX335_Run;
 1053              		.loc 1 362 21 is_stmt 0 view .LVU271
 1054 0098 104B     		ldr	r3, .L58+8
 1055 009a 6B60     		str	r3, [r5, #4]
 363:Lib/Camera_Middleware/sensors/cmw_imx335.c ****   imx335_if->VsyncEventCallback = CMW_IMX335_VsyncEventCallback;
 1056              		.loc 1 363 3 is_stmt 1 view .LVU272
 363:Lib/Camera_Middleware/sensors/cmw_imx335.c ****   imx335_if->VsyncEventCallback = CMW_IMX335_VsyncEventCallback;
 1057              		.loc 1 363 18 is_stmt 0 view .LVU273
 1058 009c 104B     		ldr	r3, .L58+12
 1059 009e EB60     		str	r3, [r5, #12]
 364:Lib/Camera_Middleware/sensors/cmw_imx335.c ****   imx335_if->FrameEventCallback = CMW_IMX335_FrameEventCallback;
 1060              		.loc 1 364 3 is_stmt 1 view .LVU274
 364:Lib/Camera_Middleware/sensors/cmw_imx335.c ****   imx335_if->FrameEventCallback = CMW_IMX335_FrameEventCallback;
 1061              		.loc 1 364 33 is_stmt 0 view .LVU275
 1062 00a0 104B     		ldr	r3, .L58+16
 1063 00a2 2B61     		str	r3, [r5, #16]
 365:Lib/Camera_Middleware/sensors/cmw_imx335.c ****   imx335_if->ReadID = CMW_IMX335_ReadID;
 1064              		.loc 1 365 3 is_stmt 1 view .LVU276
 365:Lib/Camera_Middleware/sensors/cmw_imx335.c ****   imx335_if->ReadID = CMW_IMX335_ReadID;
 1065              		.loc 1 365 33 is_stmt 0 view .LVU277
 1066 00a4 104B     		ldr	r3, .L58+20
 1067 00a6 6B61     		str	r3, [r5, #20]
 366:Lib/Camera_Middleware/sensors/cmw_imx335.c ****   imx335_if->SetGain = CMW_IMX335_SetGain;
 1068              		.loc 1 366 3 is_stmt 1 view .LVU278
 366:Lib/Camera_Middleware/sensors/cmw_imx335.c ****   imx335_if->SetGain = CMW_IMX335_SetGain;
 1069              		.loc 1 366 21 is_stmt 0 view .LVU279
 1070 00a8 104B     		ldr	r3, .L58+24
 1071 00aa EB61     		str	r3, [r5, #28]
 367:Lib/Camera_Middleware/sensors/cmw_imx335.c ****   imx335_if->SetExposure = CMW_IMX335_SetExposure;
 1072              		.loc 1 367 3 is_stmt 1 view .LVU280
 367:Lib/Camera_Middleware/sensors/cmw_imx335.c ****   imx335_if->SetExposure = CMW_IMX335_SetExposure;
 1073              		.loc 1 367 22 is_stmt 0 view .LVU281
 1074 00ac 104B     		ldr	r3, .L58+28
 1075 00ae AB64     		str	r3, [r5, #72]
 368:Lib/Camera_Middleware/sensors/cmw_imx335.c ****   imx335_if->SetWBRefMode = CMW_IMX335_SetWBRefMode;
 1076              		.loc 1 368 3 is_stmt 1 view .LVU282
 368:Lib/Camera_Middleware/sensors/cmw_imx335.c ****   imx335_if->SetWBRefMode = CMW_IMX335_SetWBRefMode;
 1077              		.loc 1 368 26 is_stmt 0 view .LVU283
 1078 00b0 104B     		ldr	r3, .L58+32
 1079 00b2 EB64     		str	r3, [r5, #76]
 369:Lib/Camera_Middleware/sensors/cmw_imx335.c ****   imx335_if->ListWBRefModes = CMW_IMX335_ListWBRefModes;
 1080              		.loc 1 369 3 is_stmt 1 view .LVU284
 369:Lib/Camera_Middleware/sensors/cmw_imx335.c ****   imx335_if->ListWBRefModes = CMW_IMX335_ListWBRefModes;
 1081              		.loc 1 369 27 is_stmt 0 view .LVU285
 1082 00b4 104B     		ldr	r3, .L58+36
 1083 00b6 6B65     		str	r3, [r5, #84]
 370:Lib/Camera_Middleware/sensors/cmw_imx335.c ****   imx335_if->SetFrequency = CMW_IMX335_SetFrequency;
 1084              		.loc 1 370 3 is_stmt 1 view .LVU286
 370:Lib/Camera_Middleware/sensors/cmw_imx335.c ****   imx335_if->SetFrequency = CMW_IMX335_SetFrequency;
 1085              		.loc 1 370 29 is_stmt 0 view .LVU287
 1086 00b8 104B     		ldr	r3, .L58+40
 1087 00ba AB65     		str	r3, [r5, #88]
 371:Lib/Camera_Middleware/sensors/cmw_imx335.c ****   imx335_if->SetFramerate = CMW_IMX335_SetFramerate;
ARM GAS  C:\Users\DJESSOU\AppData\Local\Temp\ccVrO9fV.s 			page 31


 1088              		.loc 1 371 3 is_stmt 1 view .LVU288
 371:Lib/Camera_Middleware/sensors/cmw_imx335.c ****   imx335_if->SetFramerate = CMW_IMX335_SetFramerate;
 1089              		.loc 1 371 27 is_stmt 0 view .LVU289
 1090 00bc 104B     		ldr	r3, .L58+44
 1091 00be 2B64     		str	r3, [r5, #64]
 372:Lib/Camera_Middleware/sensors/cmw_imx335.c ****   imx335_if->SetMirrorFlip = CMW_IMX335_SetMirrorFlip;
 1092              		.loc 1 372 3 is_stmt 1 view .LVU290
 372:Lib/Camera_Middleware/sensors/cmw_imx335.c ****   imx335_if->SetMirrorFlip = CMW_IMX335_SetMirrorFlip;
 1093              		.loc 1 372 27 is_stmt 0 view .LVU291
 1094 00c0 104B     		ldr	r3, .L58+48
 1095 00c2 6B64     		str	r3, [r5, #68]
 373:Lib/Camera_Middleware/sensors/cmw_imx335.c ****   imx335_if->GetSensorInfo = CMW_IMX335_GetSensorInfo;
 1096              		.loc 1 373 3 is_stmt 1 view .LVU292
 373:Lib/Camera_Middleware/sensors/cmw_imx335.c ****   imx335_if->GetSensorInfo = CMW_IMX335_GetSensorInfo;
 1097              		.loc 1 373 28 is_stmt 0 view .LVU293
 1098 00c4 104B     		ldr	r3, .L58+52
 1099 00c6 EB62     		str	r3, [r5, #44]
 374:Lib/Camera_Middleware/sensors/cmw_imx335.c ****   imx335_if->SetTestPattern = CMW_IMX335_SetTestPattern;
 1100              		.loc 1 374 3 is_stmt 1 view .LVU294
 374:Lib/Camera_Middleware/sensors/cmw_imx335.c ****   imx335_if->SetTestPattern = CMW_IMX335_SetTestPattern;
 1101              		.loc 1 374 28 is_stmt 0 view .LVU295
 1102 00c8 104B     		ldr	r3, .L58+56
 1103 00ca 2B66     		str	r3, [r5, #96]
 375:Lib/Camera_Middleware/sensors/cmw_imx335.c ****   return ret;
 1104              		.loc 1 375 3 is_stmt 1 view .LVU296
 375:Lib/Camera_Middleware/sensors/cmw_imx335.c ****   return ret;
 1105              		.loc 1 375 29 is_stmt 0 view .LVU297
 1106 00cc 104B     		ldr	r3, .L58+60
 1107 00ce 6B66     		str	r3, [r5, #100]
 376:Lib/Camera_Middleware/sensors/cmw_imx335.c **** }
 1108              		.loc 1 376 3 is_stmt 1 view .LVU298
 376:Lib/Camera_Middleware/sensors/cmw_imx335.c **** }
 1109              		.loc 1 376 10 is_stmt 0 view .LVU299
 1110 00d0 C7E7     		b	.L52
 1111              	.L59:
 1112 00d2 00BF     		.align	2
 1113              	.L58:
 1114 00d4 00000000 		.word	CMW_IMX335_Init
 1115 00d8 00000000 		.word	CMW_IMX335_Start
 1116 00dc 00000000 		.word	CMW_IMX335_DeInit
 1117 00e0 00000000 		.word	CMW_IMX335_Run
 1118 00e4 00000000 		.word	CMW_IMX335_VsyncEventCallback
 1119 00e8 00000000 		.word	CMW_IMX335_FrameEventCallback
 1120 00ec 00000000 		.word	CMW_IMX335_ReadID
 1121 00f0 00000000 		.word	CMW_IMX335_SetGain
 1122 00f4 00000000 		.word	CMW_IMX335_SetExposure
 1123 00f8 00000000 		.word	CMW_IMX335_SetWBRefMode
 1124 00fc 00000000 		.word	CMW_IMX335_ListWBRefModes
 1125 0100 00000000 		.word	CMW_IMX335_SetFrequency
 1126 0104 00000000 		.word	CMW_IMX335_SetFramerate
 1127 0108 00000000 		.word	CMW_IMX335_SetMirrorFlip
 1128 010c 00000000 		.word	CMW_IMX335_GetSensorInfo
 1129 0110 00000000 		.word	CMW_IMX335_SetTestPattern
 1130              		.cfi_endproc
 1131              	.LFE3433:
 1133              		.section	.rodata.__func__.0,"a"
 1136              	__func__.0:
ARM GAS  C:\Users\DJESSOU\AppData\Local\Temp\ccVrO9fV.s 			page 32


 1137 0000 434D575F 		.ascii	"CMW_IMX335_SetDefaultSensorValues\000"
 1137      494D5833 
 1137      33355F53 
 1137      65744465 
 1137      6661756C 
 1138              		.section	.rodata.ISP_IQParamCacheInit_IMX335,"a"
 1139              		.align	2
 1142              	ISP_IQParamCacheInit_IMX335:
 1143 0000 00       		.byte	0
 1144 0001 000000   		.space	3
 1145 0004 00000000 		.word	0
 1146 0008 00000000 		.word	0
 1147 000c 01       		.byte	1
 1148 000d 00       		.byte	0
 1149 000e 02       		.byte	2
 1150 000f 04       		.byte	4
 1151 0010 04       		.byte	4
 1152 0011 06       		.byte	6
 1153 0012 0000     		.space	2
 1154 0014 00       		.byte	0
 1155 0015 000000   		.space	3
 1156 0018 00000000 		.word	0
 1157 001c 00000000 		.word	0
 1158 0020 00000000 		.word	0
 1159 0024 00000000 		.word	0
 1160 0028 00000000 		.word	0
 1161 002c 00000000 		.word	0
 1162 0030 00000000 		.word	0
 1163 0034 00000000 		.word	0
 1164 0038 00000000 		.word	0
 1165 003c 88020000 		.word	648
 1166 0040 E6010000 		.word	486
 1167 0044 10050000 		.word	1296
 1168 0048 CC030000 		.word	972
 1169 004c 00000000 		.word	0
 1170 0050 00000000 		.word	0
 1171 0054 00       		.byte	0
 1172 0055 000000   		.space	3
 1173 0058 00000000 		.word	0
 1174 005c 00       		.byte	0
 1175 005d 00       		.byte	0
 1176 005e 00000000 		.space	6
 1176      0000
 1177 0064 01       		.byte	1
 1178 0065 0C       		.byte	12
 1179 0066 0C       		.byte	12
 1180 0067 0C       		.byte	12
 1181 0068 01       		.byte	1
 1182 0069 00       		.byte	0
 1183 006a 00000000 		.space	6
 1183      0000
 1184 0070 00       		.byte	0
 1185 0071 000000   		.space	3
 1186 0074 01       		.byte	1
 1187 0075 4A756467 		.ascii	"JudgeII-A\000"
 1187      6549492D 
 1187      4100
ARM GAS  C:\Users\DJESSOU\AppData\Local\Temp\ccVrO9fV.s 			page 33


 1188 007f 00000000 		.space	22
 1188      00000000 
 1188      00000000 
 1188      00000000 
 1188      00000000 
 1189 0095 4A756467 		.ascii	"JudgeII-TL84\000"
 1189      6549492D 
 1189      544C3834 
 1189      00
 1190 00a2 00000000 		.space	19
 1190      00000000 
 1190      00000000 
 1190      00000000 
 1190      000000
 1191 00b5 4A756467 		.ascii	"JudgeII-DAY\000"
 1191      6549492D 
 1191      44415900 
 1192 00c1 00000000 		.space	20
 1192      00000000 
 1192      00000000 
 1192      00000000 
 1192      00000000 
 1193 00d5 46726565 		.ascii	"Free Slot\000"
 1193      20536C6F 
 1193      7400
 1194 00df 00000000 		.space	22
 1194      00000000 
 1194      00000000 
 1194      00000000 
 1194      00000000 
 1195 00f5 46726565 		.ascii	"Free Slot\000"
 1195      20536C6F 
 1195      7400
 1196 00ff 00000000 		.space	22
 1196      00000000 
 1196      00000000 
 1196      00000000 
 1196      00000000 
 1197 0115 000000   		.space	3
 1198 0118 FA0A0000 		.word	2810
 1199 011c AF0F0000 		.word	4015
 1200 0120 FA190000 		.word	6650
 1201 0124 00000000 		.word	0
 1202 0128 00000000 		.word	0
 1203 012c 00176407 		.word	124000000
 1204 0130 8019D90A 		.word	182000000
 1205 0134 00258B0E 		.word	244000000
 1206 0138 00000000 		.word	0
 1207 013c 00000000 		.word	0
 1208 0140 00E1F505 		.word	100000000
 1209 0144 00E1F505 		.word	100000000
 1210 0148 00E1F505 		.word	100000000
 1211 014c 00000000 		.word	0
 1212 0150 00000000 		.word	0
 1213 0154 80FACE10 		.word	282000000
 1214 0158 00DDA20C 		.word	212000000
 1215 015c C0018608 		.word	143000000
ARM GAS  C:\Users\DJESSOU\AppData\Local\Temp\ccVrO9fV.s 			page 34


 1216 0160 00000000 		.word	0
 1217 0164 00000000 		.word	0
 1218 0168 5016EA04 		.word	82450000
 1219 016c 00D66505 		.word	90560000
 1220 0170 B0F4A5FB 		.word	-73010000
 1221 0174 D10119FC 		.word	-65469999
 1222 0178 6025CA0A 		.word	181020000
 1223 017c C19212FF 		.word	-15559999
 1224 0180 70C22EFE 		.word	-30490000
 1225 0184 2033D8FC 		.word	-52940000
 1226 0188 70EBEE0A 		.word	183430000
 1227 018c 30AAD009 		.word	164670000
 1228 0190 F005C0FE 		.word	-20970000
 1229 0194 E03065FD 		.word	-43700000
 1230 0198 30C4F0FC 		.word	-51330000
 1231 019c B049A60A 		.word	178670000
 1232 01a0 21D35EFE 		.word	-27339999
 1233 01a4 F06A41FF 		.word	-12490000
 1234 01a8 F0FB20FD 		.word	-48170000
 1235 01ac 30A19309 		.word	160670000
 1236 01b0 1084F908 		.word	150570000
 1237 01b4 403B2500 		.word	2440000
 1238 01b8 B021D7FC 		.word	-53010000
 1239 01bc 9015C6FD 		.word	-37350000
 1240 01c0 008B8C0B 		.word	193760000
 1241 01c4 6019A3FC 		.word	-56420000
 1242 01c8 A0A056FF 		.word	-11100000
 1243 01cc 3077E2FD 		.word	-35490000
 1244 01d0 30C9BC08 		.word	146590000
 1245 01d4 00000000 		.word	0
 1246 01d8 00000000 		.word	0
 1247 01dc 00000000 		.word	0
 1248 01e0 00000000 		.word	0
 1249 01e4 00000000 		.word	0
 1250 01e8 00000000 		.word	0
 1251 01ec 00000000 		.word	0
 1252 01f0 00000000 		.word	0
 1253 01f4 00000000 		.word	0
 1254 01f8 00000000 		.word	0
 1255 01fc 00000000 		.word	0
 1256 0200 00000000 		.word	0
 1257 0204 00000000 		.word	0
 1258 0208 00000000 		.word	0
 1259 020c 00000000 		.word	0
 1260 0210 00000000 		.word	0
 1261 0214 00000000 		.word	0
 1262 0218 00000000 		.word	0
 1263 021c 3D411E   		.ascii	"=A\036"
 1264 021f 2E4425   		.ascii	".D%"
 1265 0222 264431   		.ascii	"&D1"
 1266 0225 000000   		.ascii	"\000\000\000"
 1267 0228 000000   		.ascii	"\000\000\000"
 1268 022b 00       		.space	1
 1269 022c 00       		.byte	0
 1270 022d 000000   		.space	3
 1271 0230 00000000 		.word	0
 1272 0234 00000000 		.word	0
ARM GAS  C:\Users\DJESSOU\AppData\Local\Temp\ccVrO9fV.s 			page 35


 1273 0238 00000000 		.word	0
 1274 023c 00       		.byte	0
 1275 023d 000000   		.space	3
 1276 0240 00000000 		.word	0
 1277 0244 00000000 		.word	0
 1278 0248 00000000 		.word	0
 1279 024c 00000000 		.word	0
 1280 0250 00000000 		.word	0
 1281 0254 00000000 		.word	0
 1282 0258 00000000 		.word	0
 1283 025c 00000000 		.word	0
 1284 0260 00000000 		.word	0
 1285 0264 01       		.byte	1
 1286 0265 03       		.byte	3
 1287 0266 0000     		.space	2
 1288 0268 1A040000 		.word	1050
 1289 026c 88130000 		.word	5000
 1290 0270 14       		.byte	20
 1291 0271 000000   		.space	3
 1292 0274 F2810000 		.word	33266
 1293 0278 75       		.byte	117
 1294 0279 000000   		.space	3
 1295 027c 0E010000 		.word	270
 1296 0280 28230000 		.word	9000
 1297 0284 0A       		.byte	10
 1298 0285 000000   		.space	3
 1299 0288 F2810000 		.word	33266
 1300 028c 24       		.byte	36
 1301 028d 000000   		.space	3
 1302 0290 14AE673F 		.word	1063759380
 1303              		.section	.rodata
 1304              		.align	2
 1305              		.set	.LANCHOR0,. + 0
 1306              	.LC0:
 1307 0000 0A000000 		.word	10
 1308 0004 0F000000 		.word	15
 1309 0008 14000000 		.word	20
 1310 000c 19000000 		.word	25
 1311 0010 1E000000 		.word	30
 1312              		.text
 1313              	.Letext0:
 1314              		.file 2 "C:\\ST\\STM32CubeIDE_1.18.1\\STM32CubeIDE\\plugins\\com.st.stm32cube.ide.mcu.externaltool
 1315              		.file 3 "C:\\ST\\STM32CubeIDE_1.18.1\\STM32CubeIDE\\plugins\\com.st.stm32cube.ide.mcu.externaltool
 1316              		.file 4 "C:\\ST\\STM32CubeIDE_1.18.1\\STM32CubeIDE\\plugins\\com.st.stm32cube.ide.mcu.externaltool
 1317              		.file 5 "STM32Cube_FW_N6/Drivers/CMSIS/Device/ST/STM32N6xx/Include/stm32n657xx.h"
 1318              		.file 6 "STM32Cube_FW_N6/Drivers/STM32N6xx_HAL_Driver/Inc/stm32n6xx_hal_dcmipp.h"
 1319              		.file 7 "Lib/Camera_Middleware/ISP_Library/isp/Inc/isp_core.h"
 1320              		.file 8 "Lib/Camera_Middleware/sensors/cmw_sensors_if.h"
 1321              		.file 9 "Lib/Camera_Middleware/sensors/imx335/imx335_reg.h"
 1322              		.file 10 "Lib/Camera_Middleware/sensors/imx335/imx335.h"
 1323              		.file 11 "Lib/Camera_Middleware/cmw_camera.h"
 1324              		.file 12 "Lib/Camera_Middleware/sensors/cmw_imx335.h"
 1325              		.file 13 "Inc/imx335_isp_param_conf.h"
 1326              		.file 14 "Inc/vd66gy_isp_param_conf.h"
 1327              		.file 15 "Inc/vd1943_isp_param_conf.h"
 1328              		.file 16 "Lib/Camera_Middleware/ISP_Library/isp/Inc/isp_api.h"
 1329              		.file 17 "C:\\ST\\STM32CubeIDE_1.18.1\\STM32CubeIDE\\plugins\\com.st.stm32cube.ide.mcu.externaltoo
ARM GAS  C:\Users\DJESSOU\AppData\Local\Temp\ccVrO9fV.s 			page 36


 1330              		.file 18 "C:\\ST\\STM32CubeIDE_1.18.1\\STM32CubeIDE\\plugins\\com.st.stm32cube.ide.mcu.externaltoo
 1331              		.file 19 "Inc/isp_param_conf.h"
 1332              		.file 20 "<built-in>"
ARM GAS  C:\Users\DJESSOU\AppData\Local\Temp\ccVrO9fV.s 			page 37

