ARM GAS  C:\Users\DJESSOU\AppData\Local\Temp\cc3dm0Vf.s 			page 1


   1              		.arch armv8.1-m.main
   2              		.fpu fpv5-d16
   3              		.arch_extension dsp
   4              		.arch_extension fp
   5              		.arch_extension fp.dp
   6              		.arch_extension mve
   7              		.arch_extension mve.fp
   8              		.eabi_attribute 5, "cortex-m55"
   9              		.eabi_attribute 28, 1
  10              		.eabi_attribute 20, 1
  11              		.eabi_attribute 21, 1
  12              		.eabi_attribute 23, 3
  13              		.eabi_attribute 24, 1
  14              		.eabi_attribute 25, 1
  15              		.eabi_attribute 26, 1
  16              		.eabi_attribute 30, 4
  17              		.eabi_attribute 34, 1
  18              		.eabi_attribute 38, 1
  19              		.eabi_attribute 18, 4
  20              		.file	"cmw_camera.c"
  21              		.text
  22              	.Ltext0:
  23              		.cfi_sections	.debug_frame
  24              		.file 1 "Lib/Camera_Middleware/cmw_camera.c"
  25              		.section	.text.CB_ISP_GetSensorGain,"ax",%progbits
  26              		.align	1
  27              		.syntax unified
  28              		.thumb
  29              		.thumb_func
  31              	CB_ISP_GetSensorGain:
  32              	.LVL0:
  33              	.LFB904:
   1:Lib/Camera_Middleware/cmw_camera.c ****  /**
   2:Lib/Camera_Middleware/cmw_camera.c ****  ******************************************************************************
   3:Lib/Camera_Middleware/cmw_camera.c ****  * @file    cmw_camera.c
   4:Lib/Camera_Middleware/cmw_camera.c ****  * @author  GPM Application Team
   5:Lib/Camera_Middleware/cmw_camera.c ****  *
   6:Lib/Camera_Middleware/cmw_camera.c ****  ******************************************************************************
   7:Lib/Camera_Middleware/cmw_camera.c ****  * @attention
   8:Lib/Camera_Middleware/cmw_camera.c ****  *
   9:Lib/Camera_Middleware/cmw_camera.c ****  * Copyright (c) 2024 STMicroelectronics.
  10:Lib/Camera_Middleware/cmw_camera.c ****  * All rights reserved.
  11:Lib/Camera_Middleware/cmw_camera.c ****  *
  12:Lib/Camera_Middleware/cmw_camera.c ****  * This software is licensed under terms that can be found in the LICENSE file
  13:Lib/Camera_Middleware/cmw_camera.c ****  * in the root directory of this software component.
  14:Lib/Camera_Middleware/cmw_camera.c ****  * If no LICENSE file comes with this software, it is provided AS-IS.
  15:Lib/Camera_Middleware/cmw_camera.c ****  *
  16:Lib/Camera_Middleware/cmw_camera.c ****  ******************************************************************************
  17:Lib/Camera_Middleware/cmw_camera.c ****  */
  18:Lib/Camera_Middleware/cmw_camera.c **** 
  19:Lib/Camera_Middleware/cmw_camera.c **** 
  20:Lib/Camera_Middleware/cmw_camera.c **** /* Includes ------------------------------------------------------------------*/
  21:Lib/Camera_Middleware/cmw_camera.c **** #include "cmw_camera.h"
  22:Lib/Camera_Middleware/cmw_camera.c **** 
  23:Lib/Camera_Middleware/cmw_camera.c **** #include "isp_api.h"
  24:Lib/Camera_Middleware/cmw_camera.c **** #include "stm32n6xx_hal_dcmipp.h"
  25:Lib/Camera_Middleware/cmw_camera.c **** #include "cmw_utils.h"
ARM GAS  C:\Users\DJESSOU\AppData\Local\Temp\cc3dm0Vf.s 			page 2


  26:Lib/Camera_Middleware/cmw_camera.c **** #include "cmw_io.h"
  27:Lib/Camera_Middleware/cmw_camera.c **** #if defined(USE_VD55G1_SENSOR)
  28:Lib/Camera_Middleware/cmw_camera.c **** #include "cmw_vd55g1.h"
  29:Lib/Camera_Middleware/cmw_camera.c **** #endif
  30:Lib/Camera_Middleware/cmw_camera.c **** #if defined(USE_VD65G4_SENSOR)
  31:Lib/Camera_Middleware/cmw_camera.c **** #include "cmw_vd65g4.h"
  32:Lib/Camera_Middleware/cmw_camera.c **** #endif
  33:Lib/Camera_Middleware/cmw_camera.c **** #if defined(USE_IMX335_SENSOR)
  34:Lib/Camera_Middleware/cmw_camera.c **** #include "cmw_imx335.h"
  35:Lib/Camera_Middleware/cmw_camera.c **** #endif
  36:Lib/Camera_Middleware/cmw_camera.c **** #if defined(USE_OV5640_SENSOR)
  37:Lib/Camera_Middleware/cmw_camera.c **** #include "cmw_ov5640.h"
  38:Lib/Camera_Middleware/cmw_camera.c **** #endif
  39:Lib/Camera_Middleware/cmw_camera.c **** #if defined(USE_VD66GY_SENSOR)
  40:Lib/Camera_Middleware/cmw_camera.c **** #include "cmw_vd66gy.h"
  41:Lib/Camera_Middleware/cmw_camera.c **** #endif
  42:Lib/Camera_Middleware/cmw_camera.c **** #if defined(USE_VD56G3_SENSOR)
  43:Lib/Camera_Middleware/cmw_camera.c **** #include "cmw_vd56g3.h"
  44:Lib/Camera_Middleware/cmw_camera.c **** #endif
  45:Lib/Camera_Middleware/cmw_camera.c **** #if defined(USE_VD1943_SENSOR)
  46:Lib/Camera_Middleware/cmw_camera.c **** #include "cmw_vd1943.h"
  47:Lib/Camera_Middleware/cmw_camera.c **** #endif
  48:Lib/Camera_Middleware/cmw_camera.c **** #if defined (USE_VD5943_SENSOR)
  49:Lib/Camera_Middleware/cmw_camera.c **** #include "cmw_vd5943.h"
  50:Lib/Camera_Middleware/cmw_camera.c **** #endif
  51:Lib/Camera_Middleware/cmw_camera.c **** #include "assert.h"
  52:Lib/Camera_Middleware/cmw_camera.c **** 
  53:Lib/Camera_Middleware/cmw_camera.c **** typedef struct
  54:Lib/Camera_Middleware/cmw_camera.c **** {
  55:Lib/Camera_Middleware/cmw_camera.c ****   uint32_t Resolution;
  56:Lib/Camera_Middleware/cmw_camera.c ****   uint32_t pixel_format;
  57:Lib/Camera_Middleware/cmw_camera.c ****   uint32_t LightMode;
  58:Lib/Camera_Middleware/cmw_camera.c ****   uint32_t ColorEffect;
  59:Lib/Camera_Middleware/cmw_camera.c ****   int32_t  Brightness;
  60:Lib/Camera_Middleware/cmw_camera.c ****   int32_t  Saturation;
  61:Lib/Camera_Middleware/cmw_camera.c ****   int32_t  Contrast;
  62:Lib/Camera_Middleware/cmw_camera.c ****   int32_t  HueDegree;
  63:Lib/Camera_Middleware/cmw_camera.c ****   int32_t  Gain;
  64:Lib/Camera_Middleware/cmw_camera.c ****   int32_t  Exposure;
  65:Lib/Camera_Middleware/cmw_camera.c ****   int32_t  ExposureMode;
  66:Lib/Camera_Middleware/cmw_camera.c ****   uint32_t MirrorFlip;
  67:Lib/Camera_Middleware/cmw_camera.c ****   uint32_t Zoom;
  68:Lib/Camera_Middleware/cmw_camera.c ****   uint32_t NightMode;
  69:Lib/Camera_Middleware/cmw_camera.c ****   uint32_t IsMspCallbacksValid;
  70:Lib/Camera_Middleware/cmw_camera.c ****   uint32_t TestPattern;
  71:Lib/Camera_Middleware/cmw_camera.c **** } CAMERA_Ctx_t;
  72:Lib/Camera_Middleware/cmw_camera.c **** 
  73:Lib/Camera_Middleware/cmw_camera.c **** CMW_CameraInit_t  camera_conf;
  74:Lib/Camera_Middleware/cmw_camera.c **** CMW_Sensor_Name_t connected_sensor;
  75:Lib/Camera_Middleware/cmw_camera.c **** CAMERA_Ctx_t  Camera_Ctx;
  76:Lib/Camera_Middleware/cmw_camera.c **** 
  77:Lib/Camera_Middleware/cmw_camera.c **** DCMIPP_HandleTypeDef hcamera_dcmipp;
  78:Lib/Camera_Middleware/cmw_camera.c **** static CMW_Sensor_if_t Camera_Drv;
  79:Lib/Camera_Middleware/cmw_camera.c **** 
  80:Lib/Camera_Middleware/cmw_camera.c **** static union
  81:Lib/Camera_Middleware/cmw_camera.c **** {
  82:Lib/Camera_Middleware/cmw_camera.c **** #if defined(USE_IMX335_SENSOR)
ARM GAS  C:\Users\DJESSOU\AppData\Local\Temp\cc3dm0Vf.s 			page 3


  83:Lib/Camera_Middleware/cmw_camera.c ****   CMW_IMX335_t imx335_bsp;
  84:Lib/Camera_Middleware/cmw_camera.c **** #endif
  85:Lib/Camera_Middleware/cmw_camera.c **** #if defined(USE_VD55G1_SENSOR)
  86:Lib/Camera_Middleware/cmw_camera.c ****   CMW_VD55G1_t vd55g1_bsp;
  87:Lib/Camera_Middleware/cmw_camera.c **** #endif
  88:Lib/Camera_Middleware/cmw_camera.c **** #if defined(USE_VD65G4_SENSOR)
  89:Lib/Camera_Middleware/cmw_camera.c ****   CMW_VD65G4_t vd65g4_bsp;
  90:Lib/Camera_Middleware/cmw_camera.c **** #endif
  91:Lib/Camera_Middleware/cmw_camera.c **** #if defined(USE_VD66GY_SENSOR)
  92:Lib/Camera_Middleware/cmw_camera.c ****   CMW_VD66GY_t vd66gy_bsp;
  93:Lib/Camera_Middleware/cmw_camera.c **** #endif
  94:Lib/Camera_Middleware/cmw_camera.c **** #if defined(USE_VD56G3_SENSOR)
  95:Lib/Camera_Middleware/cmw_camera.c ****   CMW_VD56G3_t vd56g3_bsp;
  96:Lib/Camera_Middleware/cmw_camera.c **** #endif
  97:Lib/Camera_Middleware/cmw_camera.c **** #if defined(USE_OV5640_SENSOR)
  98:Lib/Camera_Middleware/cmw_camera.c ****   CMW_OV5640_t ov5640_bsp;
  99:Lib/Camera_Middleware/cmw_camera.c **** #endif
 100:Lib/Camera_Middleware/cmw_camera.c **** #if defined(USE_VD1943_SENSOR)
 101:Lib/Camera_Middleware/cmw_camera.c ****   CMW_VD1943_t vd1943_bsp;
 102:Lib/Camera_Middleware/cmw_camera.c **** #endif
 103:Lib/Camera_Middleware/cmw_camera.c **** #if defined(USE_VD5943_SENSOR)
 104:Lib/Camera_Middleware/cmw_camera.c ****   CMW_VD5943_t vd5943_bsp;
 105:Lib/Camera_Middleware/cmw_camera.c **** #endif
 106:Lib/Camera_Middleware/cmw_camera.c **** } camera_bsp;
 107:Lib/Camera_Middleware/cmw_camera.c **** 
 108:Lib/Camera_Middleware/cmw_camera.c **** int is_camera_init = 0;
 109:Lib/Camera_Middleware/cmw_camera.c **** int is_camera_started = 0;
 110:Lib/Camera_Middleware/cmw_camera.c **** int is_pipe1_2_shared = 0;
 111:Lib/Camera_Middleware/cmw_camera.c **** 
 112:Lib/Camera_Middleware/cmw_camera.c **** #if defined(USE_IMX335_SENSOR)
 113:Lib/Camera_Middleware/cmw_camera.c **** static int32_t CMW_CAMERA_IMX335_Init( CMW_Sensor_Init_t *initSensors_params);
 114:Lib/Camera_Middleware/cmw_camera.c **** #endif
 115:Lib/Camera_Middleware/cmw_camera.c **** #if defined(USE_VD55G1_SENSOR)
 116:Lib/Camera_Middleware/cmw_camera.c **** static int32_t CMW_CAMERA_VD55G1_Init( CMW_Sensor_Init_t *initSensors_params);
 117:Lib/Camera_Middleware/cmw_camera.c **** #endif
 118:Lib/Camera_Middleware/cmw_camera.c **** #if defined(USE_VD65G4_SENSOR)
 119:Lib/Camera_Middleware/cmw_camera.c **** static int32_t CMW_CAMERA_VD65G4_Init( CMW_Sensor_Init_t *initSensors_params);
 120:Lib/Camera_Middleware/cmw_camera.c **** #endif
 121:Lib/Camera_Middleware/cmw_camera.c **** #if defined(USE_OV5640_SENSOR)
 122:Lib/Camera_Middleware/cmw_camera.c **** static int32_t CMW_CAMERA_OV5640_Init( CMW_Sensor_Init_t *initSensors_params);
 123:Lib/Camera_Middleware/cmw_camera.c **** #endif
 124:Lib/Camera_Middleware/cmw_camera.c **** #if defined(USE_VD66GY_SENSOR)
 125:Lib/Camera_Middleware/cmw_camera.c **** static int32_t CMW_CAMERA_VD66GY_Init(CMW_Sensor_Init_t *initValues);
 126:Lib/Camera_Middleware/cmw_camera.c **** #endif
 127:Lib/Camera_Middleware/cmw_camera.c **** #if defined(USE_VD56G3_SENSOR)
 128:Lib/Camera_Middleware/cmw_camera.c **** static int32_t CMW_CAMERA_VD56G3_Init(CMW_Sensor_Init_t *initSensors_params);
 129:Lib/Camera_Middleware/cmw_camera.c **** #endif
 130:Lib/Camera_Middleware/cmw_camera.c **** #if defined(USE_VD1943_SENSOR)
 131:Lib/Camera_Middleware/cmw_camera.c **** static int32_t CMW_CAMERA_VD1943_Init(CMW_Sensor_Init_t *initValues);
 132:Lib/Camera_Middleware/cmw_camera.c **** #endif
 133:Lib/Camera_Middleware/cmw_camera.c **** #if defined(USE_VD5943_SENSOR)
 134:Lib/Camera_Middleware/cmw_camera.c **** static int32_t CMW_CAMERA_VD5943_Init(CMW_Sensor_Init_t *initValues);
 135:Lib/Camera_Middleware/cmw_camera.c **** #endif
 136:Lib/Camera_Middleware/cmw_camera.c **** static void CMW_CAMERA_EnableGPIOs(void);
 137:Lib/Camera_Middleware/cmw_camera.c **** static void CMW_CAMERA_PwrDown(void);
 138:Lib/Camera_Middleware/cmw_camera.c **** static int32_t CMW_CAMERA_SetPipe(DCMIPP_HandleTypeDef *hdcmipp, uint32_t pipe, CMW_DCMIPP_Conf_t *
 139:Lib/Camera_Middleware/cmw_camera.c **** static int CMW_CAMERA_Probe_Sensor(CMW_Sensor_Init_t *initValues, CMW_Sensor_Name_t *sensorName);
ARM GAS  C:\Users\DJESSOU\AppData\Local\Temp\cc3dm0Vf.s 			page 4


 140:Lib/Camera_Middleware/cmw_camera.c **** 
 141:Lib/Camera_Middleware/cmw_camera.c **** DCMIPP_HandleTypeDef* CMW_CAMERA_GetDCMIPPHandle(void)
 142:Lib/Camera_Middleware/cmw_camera.c **** {
 143:Lib/Camera_Middleware/cmw_camera.c ****     return &hcamera_dcmipp;
 144:Lib/Camera_Middleware/cmw_camera.c **** }
 145:Lib/Camera_Middleware/cmw_camera.c **** 
 146:Lib/Camera_Middleware/cmw_camera.c **** int32_t CMW_CAMERA_SetPipeConfig(uint32_t pipe, CMW_DCMIPP_Conf_t *p_conf, uint32_t *pitch)
 147:Lib/Camera_Middleware/cmw_camera.c **** {
 148:Lib/Camera_Middleware/cmw_camera.c ****   return CMW_CAMERA_SetPipe(&hcamera_dcmipp, pipe, p_conf, pitch);
 149:Lib/Camera_Middleware/cmw_camera.c **** }
 150:Lib/Camera_Middleware/cmw_camera.c **** 
 151:Lib/Camera_Middleware/cmw_camera.c **** /**
 152:Lib/Camera_Middleware/cmw_camera.c ****   * @brief  Get Sensor name.
 153:Lib/Camera_Middleware/cmw_camera.c ****   * @param  sensorName  Camera sensor name
 154:Lib/Camera_Middleware/cmw_camera.c ****   * @retval CMW status
 155:Lib/Camera_Middleware/cmw_camera.c ****   */
 156:Lib/Camera_Middleware/cmw_camera.c **** int32_t CMW_CAMERA_GetSensorName(CMW_Sensor_Name_t *sensorName)
 157:Lib/Camera_Middleware/cmw_camera.c **** {
 158:Lib/Camera_Middleware/cmw_camera.c ****   int32_t ret = CMW_ERROR_NONE;
 159:Lib/Camera_Middleware/cmw_camera.c ****   CMW_Sensor_Init_t initValues = {0};
 160:Lib/Camera_Middleware/cmw_camera.c **** 
 161:Lib/Camera_Middleware/cmw_camera.c ****   if (is_camera_init != 0)
 162:Lib/Camera_Middleware/cmw_camera.c ****   {
 163:Lib/Camera_Middleware/cmw_camera.c ****     *sensorName = connected_sensor;
 164:Lib/Camera_Middleware/cmw_camera.c ****     return CMW_ERROR_NONE;
 165:Lib/Camera_Middleware/cmw_camera.c ****   }
 166:Lib/Camera_Middleware/cmw_camera.c **** 
 167:Lib/Camera_Middleware/cmw_camera.c ****   initValues.width = 0;
 168:Lib/Camera_Middleware/cmw_camera.c ****   initValues.height = 0;
 169:Lib/Camera_Middleware/cmw_camera.c ****   initValues.fps = 30;
 170:Lib/Camera_Middleware/cmw_camera.c ****   initValues.mirrorFlip = CMW_MIRRORFLIP_NONE;
 171:Lib/Camera_Middleware/cmw_camera.c ****   initValues.sensor_config = NULL;
 172:Lib/Camera_Middleware/cmw_camera.c **** 
 173:Lib/Camera_Middleware/cmw_camera.c ****   /* Set DCMIPP instance */
 174:Lib/Camera_Middleware/cmw_camera.c ****   hcamera_dcmipp.Instance = DCMIPP;
 175:Lib/Camera_Middleware/cmw_camera.c **** 
 176:Lib/Camera_Middleware/cmw_camera.c ****   /* Configure DCMIPP clock */
 177:Lib/Camera_Middleware/cmw_camera.c ****   ret = MX_DCMIPP_ClockConfig(&hcamera_dcmipp);
 178:Lib/Camera_Middleware/cmw_camera.c ****   if (ret != HAL_OK)
 179:Lib/Camera_Middleware/cmw_camera.c ****   {
 180:Lib/Camera_Middleware/cmw_camera.c ****     return CMW_ERROR_PERIPH_FAILURE;
 181:Lib/Camera_Middleware/cmw_camera.c ****   }
 182:Lib/Camera_Middleware/cmw_camera.c ****   /* Enable DCMIPP clock */
 183:Lib/Camera_Middleware/cmw_camera.c ****   ret = HAL_DCMIPP_Init(&hcamera_dcmipp);
 184:Lib/Camera_Middleware/cmw_camera.c ****   if (ret != HAL_OK)
 185:Lib/Camera_Middleware/cmw_camera.c ****   {
 186:Lib/Camera_Middleware/cmw_camera.c ****     return CMW_ERROR_PERIPH_FAILURE;
 187:Lib/Camera_Middleware/cmw_camera.c ****   }
 188:Lib/Camera_Middleware/cmw_camera.c **** 
 189:Lib/Camera_Middleware/cmw_camera.c ****   CMW_CAMERA_EnableGPIOs();
 190:Lib/Camera_Middleware/cmw_camera.c **** 
 191:Lib/Camera_Middleware/cmw_camera.c ****   ret = CMW_CAMERA_Probe_Sensor(&initValues, &connected_sensor);
 192:Lib/Camera_Middleware/cmw_camera.c ****   if (ret != CMW_ERROR_NONE)
 193:Lib/Camera_Middleware/cmw_camera.c ****   {
 194:Lib/Camera_Middleware/cmw_camera.c ****     return CMW_ERROR_UNKNOWN_COMPONENT;
 195:Lib/Camera_Middleware/cmw_camera.c ****   }
 196:Lib/Camera_Middleware/cmw_camera.c ****   *sensorName = connected_sensor;
ARM GAS  C:\Users\DJESSOU\AppData\Local\Temp\cc3dm0Vf.s 			page 5


 197:Lib/Camera_Middleware/cmw_camera.c ****   return CMW_ERROR_NONE;
 198:Lib/Camera_Middleware/cmw_camera.c **** }
 199:Lib/Camera_Middleware/cmw_camera.c **** 
 200:Lib/Camera_Middleware/cmw_camera.c **** /**
 201:Lib/Camera_Middleware/cmw_camera.c ****   * @brief  Set White Balance mode.
 202:Lib/Camera_Middleware/cmw_camera.c ****   * @param  Automatic  If not null, set automatic white balance mode
 203:Lib/Camera_Middleware/cmw_camera.c ****   * @param  RefColorTemp  If automatic is null, set white balance mode
 204:Lib/Camera_Middleware/cmw_camera.c ****   * @retval CMW status
 205:Lib/Camera_Middleware/cmw_camera.c ****   */
 206:Lib/Camera_Middleware/cmw_camera.c **** int32_t CMW_CAMERA_SetWBRefMode(uint8_t Automatic, uint32_t RefColorTemp)
 207:Lib/Camera_Middleware/cmw_camera.c **** {
 208:Lib/Camera_Middleware/cmw_camera.c ****   int ret;
 209:Lib/Camera_Middleware/cmw_camera.c **** 
 210:Lib/Camera_Middleware/cmw_camera.c ****   ret = Camera_Drv.SetWBRefMode(&camera_bsp, Automatic, RefColorTemp);
 211:Lib/Camera_Middleware/cmw_camera.c ****   if (ret != CMW_ERROR_NONE)
 212:Lib/Camera_Middleware/cmw_camera.c ****   {
 213:Lib/Camera_Middleware/cmw_camera.c ****     return CMW_ERROR_COMPONENT_FAILURE;
 214:Lib/Camera_Middleware/cmw_camera.c ****   }
 215:Lib/Camera_Middleware/cmw_camera.c **** 
 216:Lib/Camera_Middleware/cmw_camera.c ****   ret = CMW_ERROR_NONE;
 217:Lib/Camera_Middleware/cmw_camera.c ****   /* Return CMW status */
 218:Lib/Camera_Middleware/cmw_camera.c ****   return ret;
 219:Lib/Camera_Middleware/cmw_camera.c **** }
 220:Lib/Camera_Middleware/cmw_camera.c **** 
 221:Lib/Camera_Middleware/cmw_camera.c **** /**
 222:Lib/Camera_Middleware/cmw_camera.c ****   * @brief  Get White Balance reference modes list.
 223:Lib/Camera_Middleware/cmw_camera.c ****   * @param  RefColorTemp  White Balance reference modes
 224:Lib/Camera_Middleware/cmw_camera.c ****   * @retval CMW status
 225:Lib/Camera_Middleware/cmw_camera.c ****   */
 226:Lib/Camera_Middleware/cmw_camera.c **** int32_t CMW_CAMERA_ListWBRefModes(uint32_t RefColorTemp[])
 227:Lib/Camera_Middleware/cmw_camera.c **** {
 228:Lib/Camera_Middleware/cmw_camera.c ****   int ret;
 229:Lib/Camera_Middleware/cmw_camera.c **** 
 230:Lib/Camera_Middleware/cmw_camera.c ****   ret = Camera_Drv.ListWBRefModes(&camera_bsp, RefColorTemp);
 231:Lib/Camera_Middleware/cmw_camera.c ****   if (ret != CMW_ERROR_NONE)
 232:Lib/Camera_Middleware/cmw_camera.c ****   {
 233:Lib/Camera_Middleware/cmw_camera.c ****     return CMW_ERROR_COMPONENT_FAILURE;
 234:Lib/Camera_Middleware/cmw_camera.c ****   }
 235:Lib/Camera_Middleware/cmw_camera.c **** 
 236:Lib/Camera_Middleware/cmw_camera.c ****   ret = CMW_ERROR_NONE;
 237:Lib/Camera_Middleware/cmw_camera.c ****   /* Return CMW status */
 238:Lib/Camera_Middleware/cmw_camera.c ****   return ret;
 239:Lib/Camera_Middleware/cmw_camera.c **** }
 240:Lib/Camera_Middleware/cmw_camera.c **** 
 241:Lib/Camera_Middleware/cmw_camera.c **** /**
 242:Lib/Camera_Middleware/cmw_camera.c ****   * @brief  Probe camera sensor.
 243:Lib/Camera_Middleware/cmw_camera.c ****   * @param  initValues  Initialization values for the sensor
 244:Lib/Camera_Middleware/cmw_camera.c ****   * @param  sensorName  Camera sensor name
 245:Lib/Camera_Middleware/cmw_camera.c ****   * @retval CMW status
 246:Lib/Camera_Middleware/cmw_camera.c ****   */
 247:Lib/Camera_Middleware/cmw_camera.c **** static int CMW_CAMERA_Probe_Sensor(CMW_Sensor_Init_t *initValues, CMW_Sensor_Name_t *sensorName)
 248:Lib/Camera_Middleware/cmw_camera.c **** {
 249:Lib/Camera_Middleware/cmw_camera.c ****   int ret;
 250:Lib/Camera_Middleware/cmw_camera.c **** #if defined(USE_OV5640_SENSOR)
 251:Lib/Camera_Middleware/cmw_camera.c ****   ret = CMW_CAMERA_OV5640_Init(initValues);
 252:Lib/Camera_Middleware/cmw_camera.c ****   if (ret == CMW_ERROR_NONE)
 253:Lib/Camera_Middleware/cmw_camera.c ****   {
ARM GAS  C:\Users\DJESSOU\AppData\Local\Temp\cc3dm0Vf.s 			page 6


 254:Lib/Camera_Middleware/cmw_camera.c ****     *sensorName = CMW_OV5640_Sensor;
 255:Lib/Camera_Middleware/cmw_camera.c ****     return ret;
 256:Lib/Camera_Middleware/cmw_camera.c ****   }
 257:Lib/Camera_Middleware/cmw_camera.c **** #endif
 258:Lib/Camera_Middleware/cmw_camera.c **** #if defined(USE_VD55G1_SENSOR)
 259:Lib/Camera_Middleware/cmw_camera.c ****   ret = CMW_CAMERA_VD55G1_Init(initValues);
 260:Lib/Camera_Middleware/cmw_camera.c ****   if (ret == CMW_ERROR_NONE)
 261:Lib/Camera_Middleware/cmw_camera.c ****   {
 262:Lib/Camera_Middleware/cmw_camera.c ****     *sensorName = CMW_VD55G1_Sensor;
 263:Lib/Camera_Middleware/cmw_camera.c ****     return ret;
 264:Lib/Camera_Middleware/cmw_camera.c ****   }
 265:Lib/Camera_Middleware/cmw_camera.c **** #endif
 266:Lib/Camera_Middleware/cmw_camera.c **** #if defined(USE_VD65G4_SENSOR)
 267:Lib/Camera_Middleware/cmw_camera.c ****   ret = CMW_CAMERA_VD65G4_Init(initValues);
 268:Lib/Camera_Middleware/cmw_camera.c ****   if (ret == CMW_ERROR_NONE)
 269:Lib/Camera_Middleware/cmw_camera.c ****   {
 270:Lib/Camera_Middleware/cmw_camera.c ****     *sensorName = CMW_VD65G4_Sensor;
 271:Lib/Camera_Middleware/cmw_camera.c ****     return ret;
 272:Lib/Camera_Middleware/cmw_camera.c ****   }
 273:Lib/Camera_Middleware/cmw_camera.c **** #endif
 274:Lib/Camera_Middleware/cmw_camera.c **** #if defined(USE_VD66GY_SENSOR)
 275:Lib/Camera_Middleware/cmw_camera.c ****   ret = CMW_CAMERA_VD66GY_Init(initValues);
 276:Lib/Camera_Middleware/cmw_camera.c ****   if (ret == CMW_ERROR_NONE)
 277:Lib/Camera_Middleware/cmw_camera.c ****   {
 278:Lib/Camera_Middleware/cmw_camera.c ****     *sensorName = CMW_VD66GY_Sensor;
 279:Lib/Camera_Middleware/cmw_camera.c ****     return ret;
 280:Lib/Camera_Middleware/cmw_camera.c ****   }
 281:Lib/Camera_Middleware/cmw_camera.c **** #endif
 282:Lib/Camera_Middleware/cmw_camera.c **** #if defined(USE_VD56G3_SENSOR)
 283:Lib/Camera_Middleware/cmw_camera.c ****   ret = CMW_CAMERA_VD56G3_Init(initValues);
 284:Lib/Camera_Middleware/cmw_camera.c ****   if (ret == CMW_ERROR_NONE)
 285:Lib/Camera_Middleware/cmw_camera.c ****   {
 286:Lib/Camera_Middleware/cmw_camera.c ****     *sensorName = CMW_VD56G3_Sensor;
 287:Lib/Camera_Middleware/cmw_camera.c ****     return ret;
 288:Lib/Camera_Middleware/cmw_camera.c ****   }
 289:Lib/Camera_Middleware/cmw_camera.c **** #endif
 290:Lib/Camera_Middleware/cmw_camera.c **** #if defined(USE_VD1943_SENSOR)
 291:Lib/Camera_Middleware/cmw_camera.c ****   ret = CMW_CAMERA_VD1943_Init(initValues);
 292:Lib/Camera_Middleware/cmw_camera.c ****   if (ret == CMW_ERROR_NONE)
 293:Lib/Camera_Middleware/cmw_camera.c ****   {
 294:Lib/Camera_Middleware/cmw_camera.c ****     *sensorName = CMW_VD1943_Sensor;
 295:Lib/Camera_Middleware/cmw_camera.c ****     return ret;
 296:Lib/Camera_Middleware/cmw_camera.c ****   }
 297:Lib/Camera_Middleware/cmw_camera.c **** #endif
 298:Lib/Camera_Middleware/cmw_camera.c **** #if defined(USE_VD5943_SENSOR)
 299:Lib/Camera_Middleware/cmw_camera.c ****   ret = CMW_CAMERA_VD5943_Init(initValues);
 300:Lib/Camera_Middleware/cmw_camera.c ****   if (ret == CMW_ERROR_NONE)
 301:Lib/Camera_Middleware/cmw_camera.c ****   {
 302:Lib/Camera_Middleware/cmw_camera.c ****     *sensorName = CMW_VD5943_Sensor;
 303:Lib/Camera_Middleware/cmw_camera.c ****     return ret;
 304:Lib/Camera_Middleware/cmw_camera.c ****   }
 305:Lib/Camera_Middleware/cmw_camera.c **** #endif
 306:Lib/Camera_Middleware/cmw_camera.c **** #if defined(USE_IMX335_SENSOR)
 307:Lib/Camera_Middleware/cmw_camera.c ****   ret = CMW_CAMERA_IMX335_Init(initValues);
 308:Lib/Camera_Middleware/cmw_camera.c ****   if (ret == CMW_ERROR_NONE)
 309:Lib/Camera_Middleware/cmw_camera.c ****   {
 310:Lib/Camera_Middleware/cmw_camera.c ****     *sensorName = CMW_IMX335_Sensor;
ARM GAS  C:\Users\DJESSOU\AppData\Local\Temp\cc3dm0Vf.s 			page 7


 311:Lib/Camera_Middleware/cmw_camera.c ****     return ret;
 312:Lib/Camera_Middleware/cmw_camera.c ****   }
 313:Lib/Camera_Middleware/cmw_camera.c **** #endif
 314:Lib/Camera_Middleware/cmw_camera.c ****   else
 315:Lib/Camera_Middleware/cmw_camera.c ****   {
 316:Lib/Camera_Middleware/cmw_camera.c ****     return CMW_ERROR_UNKNOWN_COMPONENT;
 317:Lib/Camera_Middleware/cmw_camera.c ****   }
 318:Lib/Camera_Middleware/cmw_camera.c **** }
 319:Lib/Camera_Middleware/cmw_camera.c **** 
 320:Lib/Camera_Middleware/cmw_camera.c **** 
 321:Lib/Camera_Middleware/cmw_camera.c **** 
 322:Lib/Camera_Middleware/cmw_camera.c **** /**
 323:Lib/Camera_Middleware/cmw_camera.c ****   * @brief  Initializes the camera.
 324:Lib/Camera_Middleware/cmw_camera.c ****   * @param  initConf  Mandatory: General camera config
 325:Lib/Camera_Middleware/cmw_camera.c ****   * @param  advanced_config  Optional: Sensor specific configuration
 326:Lib/Camera_Middleware/cmw_camera.c ****   * @retval CMW status
 327:Lib/Camera_Middleware/cmw_camera.c ****   */
 328:Lib/Camera_Middleware/cmw_camera.c **** int32_t CMW_CAMERA_Init(CMW_CameraInit_t *initConf, CMW_Advanced_Config_t *advanced_config)
 329:Lib/Camera_Middleware/cmw_camera.c **** {
 330:Lib/Camera_Middleware/cmw_camera.c ****   int32_t ret = CMW_ERROR_NONE;
 331:Lib/Camera_Middleware/cmw_camera.c ****   CMW_Sensor_Init_t initValues = {0};
 332:Lib/Camera_Middleware/cmw_camera.c ****   ISP_SensorInfoTypeDef info = {0};
 333:Lib/Camera_Middleware/cmw_camera.c **** 
 334:Lib/Camera_Middleware/cmw_camera.c ****   initValues.width = initConf->width;
 335:Lib/Camera_Middleware/cmw_camera.c ****   initValues.height = initConf->height;
 336:Lib/Camera_Middleware/cmw_camera.c ****   initValues.fps = initConf->fps;
 337:Lib/Camera_Middleware/cmw_camera.c ****   initValues.mirrorFlip = initConf->mirror_flip;
 338:Lib/Camera_Middleware/cmw_camera.c **** 
 339:Lib/Camera_Middleware/cmw_camera.c ****   if ((advanced_config != NULL) && (advanced_config->selected_sensor != CMW_UNKNOWN_Sensor))
 340:Lib/Camera_Middleware/cmw_camera.c ****   {
 341:Lib/Camera_Middleware/cmw_camera.c ****     /* Assume The sensor is the one selected by the application. Check during probe */
 342:Lib/Camera_Middleware/cmw_camera.c ****     connected_sensor = advanced_config->selected_sensor;
 343:Lib/Camera_Middleware/cmw_camera.c ****     initValues.sensor_config = (void *) &advanced_config->config_sensor;
 344:Lib/Camera_Middleware/cmw_camera.c ****   }
 345:Lib/Camera_Middleware/cmw_camera.c ****   else
 346:Lib/Camera_Middleware/cmw_camera.c ****   {
 347:Lib/Camera_Middleware/cmw_camera.c ****     connected_sensor = CMW_UNKNOWN_Sensor;
 348:Lib/Camera_Middleware/cmw_camera.c ****     initValues.sensor_config = NULL;
 349:Lib/Camera_Middleware/cmw_camera.c ****   }
 350:Lib/Camera_Middleware/cmw_camera.c **** 
 351:Lib/Camera_Middleware/cmw_camera.c ****   /* Set DCMIPP instance */
 352:Lib/Camera_Middleware/cmw_camera.c ****   hcamera_dcmipp.Instance = DCMIPP;
 353:Lib/Camera_Middleware/cmw_camera.c **** 
 354:Lib/Camera_Middleware/cmw_camera.c ****   /* Configure DCMIPP clock */
 355:Lib/Camera_Middleware/cmw_camera.c ****   ret = MX_DCMIPP_ClockConfig(&hcamera_dcmipp);
 356:Lib/Camera_Middleware/cmw_camera.c ****   if (ret != HAL_OK)
 357:Lib/Camera_Middleware/cmw_camera.c ****   {
 358:Lib/Camera_Middleware/cmw_camera.c ****     return CMW_ERROR_PERIPH_FAILURE;
 359:Lib/Camera_Middleware/cmw_camera.c ****   }
 360:Lib/Camera_Middleware/cmw_camera.c ****   /* Enable DCMIPP clock */
 361:Lib/Camera_Middleware/cmw_camera.c ****   ret = HAL_DCMIPP_Init(&hcamera_dcmipp);
 362:Lib/Camera_Middleware/cmw_camera.c ****   if (ret != HAL_OK)
 363:Lib/Camera_Middleware/cmw_camera.c ****   {
 364:Lib/Camera_Middleware/cmw_camera.c ****     return CMW_ERROR_PERIPH_FAILURE;
 365:Lib/Camera_Middleware/cmw_camera.c ****   }
 366:Lib/Camera_Middleware/cmw_camera.c **** 
 367:Lib/Camera_Middleware/cmw_camera.c ****   CMW_CAMERA_EnableGPIOs();
ARM GAS  C:\Users\DJESSOU\AppData\Local\Temp\cc3dm0Vf.s 			page 8


 368:Lib/Camera_Middleware/cmw_camera.c **** 
 369:Lib/Camera_Middleware/cmw_camera.c ****   ret = CMW_CAMERA_Probe_Sensor(&initValues, &connected_sensor);
 370:Lib/Camera_Middleware/cmw_camera.c ****   if (ret != CMW_ERROR_NONE)
 371:Lib/Camera_Middleware/cmw_camera.c ****   {
 372:Lib/Camera_Middleware/cmw_camera.c ****     return CMW_ERROR_UNKNOWN_COMPONENT;
 373:Lib/Camera_Middleware/cmw_camera.c ****   }
 374:Lib/Camera_Middleware/cmw_camera.c **** 
 375:Lib/Camera_Middleware/cmw_camera.c ****   /* Configure exposure and gain for a more suitable quality */
 376:Lib/Camera_Middleware/cmw_camera.c ****   ret = CMW_CAMERA_GetSensorInfo(&info);
 377:Lib/Camera_Middleware/cmw_camera.c ****   if (ret == CMW_ERROR_COMPONENT_FAILURE)
 378:Lib/Camera_Middleware/cmw_camera.c ****   {
 379:Lib/Camera_Middleware/cmw_camera.c ****     return CMW_ERROR_UNKNOWN_COMPONENT;
 380:Lib/Camera_Middleware/cmw_camera.c ****   }
 381:Lib/Camera_Middleware/cmw_camera.c ****   ret = CMW_CAMERA_SetExposure(info.exposure_min);
 382:Lib/Camera_Middleware/cmw_camera.c ****   if (ret == CMW_ERROR_COMPONENT_FAILURE)
 383:Lib/Camera_Middleware/cmw_camera.c ****   {
 384:Lib/Camera_Middleware/cmw_camera.c ****     return CMW_ERROR_UNKNOWN_COMPONENT;
 385:Lib/Camera_Middleware/cmw_camera.c ****   }
 386:Lib/Camera_Middleware/cmw_camera.c ****   ret = CMW_CAMERA_SetGain(info.gain_min);
 387:Lib/Camera_Middleware/cmw_camera.c ****   if (ret == CMW_ERROR_COMPONENT_FAILURE)
 388:Lib/Camera_Middleware/cmw_camera.c ****   {
 389:Lib/Camera_Middleware/cmw_camera.c ****     return CMW_ERROR_UNKNOWN_COMPONENT;
 390:Lib/Camera_Middleware/cmw_camera.c ****   }
 391:Lib/Camera_Middleware/cmw_camera.c **** 
 392:Lib/Camera_Middleware/cmw_camera.c ****   /* Write back the initValue width and height that might be changed */
 393:Lib/Camera_Middleware/cmw_camera.c ****   initConf->width = initValues.width;
 394:Lib/Camera_Middleware/cmw_camera.c ****   initConf->height = initValues.height ;
 395:Lib/Camera_Middleware/cmw_camera.c ****   camera_conf = *initConf;
 396:Lib/Camera_Middleware/cmw_camera.c **** 
 397:Lib/Camera_Middleware/cmw_camera.c ****   is_camera_init++;
 398:Lib/Camera_Middleware/cmw_camera.c ****   /* CMW status */
 399:Lib/Camera_Middleware/cmw_camera.c ****   ret = CMW_ERROR_NONE;
 400:Lib/Camera_Middleware/cmw_camera.c ****   return ret;
 401:Lib/Camera_Middleware/cmw_camera.c **** }
 402:Lib/Camera_Middleware/cmw_camera.c **** 
 403:Lib/Camera_Middleware/cmw_camera.c **** /**
 404:Lib/Camera_Middleware/cmw_camera.c ****   * @brief  Set the camera Mirror/Flip.
 405:Lib/Camera_Middleware/cmw_camera.c ****   * @param  MirrorFlip CMW_MIRRORFLIP_NONE CMW_MIRRORFLIP_FLIP CMW_MIRRORFLIP_MIRROR CMW_MIRRORFLIP
 406:Lib/Camera_Middleware/cmw_camera.c ****   * @retval CMW status
 407:Lib/Camera_Middleware/cmw_camera.c **** */
 408:Lib/Camera_Middleware/cmw_camera.c **** int32_t CMW_CAMERA_SetMirrorFlip(int32_t MirrorFlip)
 409:Lib/Camera_Middleware/cmw_camera.c **** {
 410:Lib/Camera_Middleware/cmw_camera.c ****   int ret;
 411:Lib/Camera_Middleware/cmw_camera.c **** 
 412:Lib/Camera_Middleware/cmw_camera.c ****   if (Camera_Drv.SetMirrorFlip == NULL)
 413:Lib/Camera_Middleware/cmw_camera.c ****   {
 414:Lib/Camera_Middleware/cmw_camera.c ****     return CMW_ERROR_FEATURE_NOT_SUPPORTED;
 415:Lib/Camera_Middleware/cmw_camera.c ****   }
 416:Lib/Camera_Middleware/cmw_camera.c **** 
 417:Lib/Camera_Middleware/cmw_camera.c ****   ret = Camera_Drv.SetMirrorFlip(&camera_bsp, MirrorFlip);
 418:Lib/Camera_Middleware/cmw_camera.c ****   if (ret != CMW_ERROR_NONE)
 419:Lib/Camera_Middleware/cmw_camera.c ****   {
 420:Lib/Camera_Middleware/cmw_camera.c ****     return CMW_ERROR_COMPONENT_FAILURE;
 421:Lib/Camera_Middleware/cmw_camera.c ****   }
 422:Lib/Camera_Middleware/cmw_camera.c **** 
 423:Lib/Camera_Middleware/cmw_camera.c ****   camera_conf.mirror_flip = MirrorFlip;
 424:Lib/Camera_Middleware/cmw_camera.c ****   ret = CMW_ERROR_NONE;
ARM GAS  C:\Users\DJESSOU\AppData\Local\Temp\cc3dm0Vf.s 			page 9


 425:Lib/Camera_Middleware/cmw_camera.c ****   /* Return CMW status */
 426:Lib/Camera_Middleware/cmw_camera.c ****   return ret;
 427:Lib/Camera_Middleware/cmw_camera.c **** }
 428:Lib/Camera_Middleware/cmw_camera.c **** 
 429:Lib/Camera_Middleware/cmw_camera.c **** /**
 430:Lib/Camera_Middleware/cmw_camera.c ****   * @brief  Get the camera Mirror/Flip.
 431:Lib/Camera_Middleware/cmw_camera.c ****   * @param  MirrorFlip CMW_MIRRORFLIP_NONE CMW_MIRRORFLIP_FLIP CMW_MIRRORFLIP_MIRROR CMW_MIRRORFLIP
 432:Lib/Camera_Middleware/cmw_camera.c ****   * @retval CMW status
 433:Lib/Camera_Middleware/cmw_camera.c **** */
 434:Lib/Camera_Middleware/cmw_camera.c **** int32_t CMW_CAMERA_GetMirrorFlip(int32_t *MirrorFlip)
 435:Lib/Camera_Middleware/cmw_camera.c **** {
 436:Lib/Camera_Middleware/cmw_camera.c ****   *MirrorFlip = camera_conf.mirror_flip;
 437:Lib/Camera_Middleware/cmw_camera.c ****   return CMW_ERROR_NONE;
 438:Lib/Camera_Middleware/cmw_camera.c **** }
 439:Lib/Camera_Middleware/cmw_camera.c **** 
 440:Lib/Camera_Middleware/cmw_camera.c **** /**
 441:Lib/Camera_Middleware/cmw_camera.c ****   * @brief  Starts the camera capture in the selected mode.
 442:Lib/Camera_Middleware/cmw_camera.c ****   * @param  pipe  DCMIPP Pipe
 443:Lib/Camera_Middleware/cmw_camera.c ****   * @param  pbuff pointer to the camera output buffer
 444:Lib/Camera_Middleware/cmw_camera.c ****   * @param  mode  CMW_MODE_CONTINUOUS or CMW_MODE_SNAPSHOT
 445:Lib/Camera_Middleware/cmw_camera.c ****   * @retval CMW status
 446:Lib/Camera_Middleware/cmw_camera.c ****   */
 447:Lib/Camera_Middleware/cmw_camera.c **** int32_t CMW_CAMERA_Start(uint32_t pipe, uint8_t *pbuff, uint32_t mode)
 448:Lib/Camera_Middleware/cmw_camera.c **** {
 449:Lib/Camera_Middleware/cmw_camera.c ****   int32_t ret = CMW_ERROR_NONE;
 450:Lib/Camera_Middleware/cmw_camera.c **** 
 451:Lib/Camera_Middleware/cmw_camera.c ****   if (pipe >= DCMIPP_NUM_OF_PIPES)
 452:Lib/Camera_Middleware/cmw_camera.c ****   {
 453:Lib/Camera_Middleware/cmw_camera.c ****     return CMW_ERROR_WRONG_PARAM;
 454:Lib/Camera_Middleware/cmw_camera.c ****   }
 455:Lib/Camera_Middleware/cmw_camera.c **** 
 456:Lib/Camera_Middleware/cmw_camera.c ****   ret = HAL_DCMIPP_CSI_PIPE_Start(&hcamera_dcmipp, pipe, DCMIPP_VIRTUAL_CHANNEL0, (uint32_t)pbuff, 
 457:Lib/Camera_Middleware/cmw_camera.c ****   if (ret != HAL_OK)
 458:Lib/Camera_Middleware/cmw_camera.c ****   {
 459:Lib/Camera_Middleware/cmw_camera.c ****     return CMW_ERROR_PERIPH_FAILURE;
 460:Lib/Camera_Middleware/cmw_camera.c ****   }
 461:Lib/Camera_Middleware/cmw_camera.c **** 
 462:Lib/Camera_Middleware/cmw_camera.c ****   if (!is_camera_started)
 463:Lib/Camera_Middleware/cmw_camera.c ****   {
 464:Lib/Camera_Middleware/cmw_camera.c ****     ret = Camera_Drv.Start(&camera_bsp);
 465:Lib/Camera_Middleware/cmw_camera.c ****     if (ret != CMW_ERROR_NONE)
 466:Lib/Camera_Middleware/cmw_camera.c ****     {
 467:Lib/Camera_Middleware/cmw_camera.c ****       return CMW_ERROR_COMPONENT_FAILURE;
 468:Lib/Camera_Middleware/cmw_camera.c ****     }
 469:Lib/Camera_Middleware/cmw_camera.c ****     is_camera_started++;
 470:Lib/Camera_Middleware/cmw_camera.c ****   }
 471:Lib/Camera_Middleware/cmw_camera.c **** 
 472:Lib/Camera_Middleware/cmw_camera.c ****   /* Return CMW status */
 473:Lib/Camera_Middleware/cmw_camera.c ****   return ret;
 474:Lib/Camera_Middleware/cmw_camera.c **** }
 475:Lib/Camera_Middleware/cmw_camera.c **** 
 476:Lib/Camera_Middleware/cmw_camera.c **** #if defined (STM32N657xx)
 477:Lib/Camera_Middleware/cmw_camera.c **** /**
 478:Lib/Camera_Middleware/cmw_camera.c ****   * @brief  Starts the camera capture in the selected mode.
 479:Lib/Camera_Middleware/cmw_camera.c ****   * @param  pipe  DCMIPP Pipe
 480:Lib/Camera_Middleware/cmw_camera.c ****   * @param  pbuff1 pointer to the first camera output buffer
 481:Lib/Camera_Middleware/cmw_camera.c ****   * @param  pbuff2 pointer to the second camera output buffer
ARM GAS  C:\Users\DJESSOU\AppData\Local\Temp\cc3dm0Vf.s 			page 10


 482:Lib/Camera_Middleware/cmw_camera.c ****   * @param  mode  CMW_MODE_CONTINUOUS or CMW_MODE_SNAPSHOT
 483:Lib/Camera_Middleware/cmw_camera.c ****   * @retval CMW status
 484:Lib/Camera_Middleware/cmw_camera.c ****   */
 485:Lib/Camera_Middleware/cmw_camera.c **** int32_t CMW_CAMERA_DoubleBufferStart(uint32_t pipe, uint8_t *pbuff1, uint8_t *pbuff2, uint32_t Mode
 486:Lib/Camera_Middleware/cmw_camera.c **** {
 487:Lib/Camera_Middleware/cmw_camera.c ****   int32_t ret = CMW_ERROR_NONE;
 488:Lib/Camera_Middleware/cmw_camera.c **** 
 489:Lib/Camera_Middleware/cmw_camera.c ****   if (pipe >= DCMIPP_NUM_OF_PIPES)
 490:Lib/Camera_Middleware/cmw_camera.c ****   {
 491:Lib/Camera_Middleware/cmw_camera.c ****     return CMW_ERROR_WRONG_PARAM;
 492:Lib/Camera_Middleware/cmw_camera.c ****   }
 493:Lib/Camera_Middleware/cmw_camera.c **** 
 494:Lib/Camera_Middleware/cmw_camera.c ****   if (HAL_DCMIPP_CSI_PIPE_DoubleBufferStart(&hcamera_dcmipp, pipe, DCMIPP_VIRTUAL_CHANNEL0, (uint32
 495:Lib/Camera_Middleware/cmw_camera.c ****                                             (uint32_t)pbuff2, Mode) != HAL_OK)
 496:Lib/Camera_Middleware/cmw_camera.c ****   {
 497:Lib/Camera_Middleware/cmw_camera.c ****     return CMW_ERROR_PERIPH_FAILURE;
 498:Lib/Camera_Middleware/cmw_camera.c ****   }
 499:Lib/Camera_Middleware/cmw_camera.c **** 
 500:Lib/Camera_Middleware/cmw_camera.c ****   if (!is_camera_started)
 501:Lib/Camera_Middleware/cmw_camera.c ****   {
 502:Lib/Camera_Middleware/cmw_camera.c ****     ret = Camera_Drv.Start(&camera_bsp);
 503:Lib/Camera_Middleware/cmw_camera.c ****     if (ret != CMW_ERROR_NONE)
 504:Lib/Camera_Middleware/cmw_camera.c ****     {
 505:Lib/Camera_Middleware/cmw_camera.c ****       return CMW_ERROR_COMPONENT_FAILURE;
 506:Lib/Camera_Middleware/cmw_camera.c ****     }
 507:Lib/Camera_Middleware/cmw_camera.c ****     is_camera_started++;
 508:Lib/Camera_Middleware/cmw_camera.c ****   }
 509:Lib/Camera_Middleware/cmw_camera.c **** 
 510:Lib/Camera_Middleware/cmw_camera.c ****   /* Return CMW status */
 511:Lib/Camera_Middleware/cmw_camera.c ****   return ret;
 512:Lib/Camera_Middleware/cmw_camera.c **** }
 513:Lib/Camera_Middleware/cmw_camera.c **** #endif
 514:Lib/Camera_Middleware/cmw_camera.c **** 
 515:Lib/Camera_Middleware/cmw_camera.c **** 
 516:Lib/Camera_Middleware/cmw_camera.c **** 
 517:Lib/Camera_Middleware/cmw_camera.c **** 
 518:Lib/Camera_Middleware/cmw_camera.c **** /**
 519:Lib/Camera_Middleware/cmw_camera.c ****   * @brief  DCMIPP Clock Config for DCMIPP.
 520:Lib/Camera_Middleware/cmw_camera.c ****   * @param  hdcmipp  DCMIPP Handle
 521:Lib/Camera_Middleware/cmw_camera.c ****   *         Being __weak it can be overwritten by the application
 522:Lib/Camera_Middleware/cmw_camera.c ****   * @retval HAL_status
 523:Lib/Camera_Middleware/cmw_camera.c ****   */
 524:Lib/Camera_Middleware/cmw_camera.c **** __weak HAL_StatusTypeDef MX_DCMIPP_ClockConfig(DCMIPP_HandleTypeDef *hdcmipp)
 525:Lib/Camera_Middleware/cmw_camera.c **** {
 526:Lib/Camera_Middleware/cmw_camera.c ****   UNUSED(hdcmipp);
 527:Lib/Camera_Middleware/cmw_camera.c **** 
 528:Lib/Camera_Middleware/cmw_camera.c ****   return HAL_OK;
 529:Lib/Camera_Middleware/cmw_camera.c **** }
 530:Lib/Camera_Middleware/cmw_camera.c **** 
 531:Lib/Camera_Middleware/cmw_camera.c **** /**
 532:Lib/Camera_Middleware/cmw_camera.c ****   * @brief  DeInitializes the camera.
 533:Lib/Camera_Middleware/cmw_camera.c ****   * @retval CMW status
 534:Lib/Camera_Middleware/cmw_camera.c ****   */
 535:Lib/Camera_Middleware/cmw_camera.c **** int32_t CMW_CAMERA_DeInit(void)
 536:Lib/Camera_Middleware/cmw_camera.c **** {
 537:Lib/Camera_Middleware/cmw_camera.c ****   int32_t ret = CMW_ERROR_NONE;
 538:Lib/Camera_Middleware/cmw_camera.c **** 
ARM GAS  C:\Users\DJESSOU\AppData\Local\Temp\cc3dm0Vf.s 			page 11


 539:Lib/Camera_Middleware/cmw_camera.c ****   if (HAL_DCMIPP_PIPE_GetState(&hcamera_dcmipp, DCMIPP_PIPE1) != HAL_DCMIPP_PIPE_STATE_RESET)
 540:Lib/Camera_Middleware/cmw_camera.c ****   {
 541:Lib/Camera_Middleware/cmw_camera.c ****     ret = HAL_DCMIPP_CSI_PIPE_Stop(&hcamera_dcmipp, DCMIPP_PIPE1, DCMIPP_VIRTUAL_CHANNEL0);
 542:Lib/Camera_Middleware/cmw_camera.c ****     if (ret != HAL_OK)
 543:Lib/Camera_Middleware/cmw_camera.c ****     {
 544:Lib/Camera_Middleware/cmw_camera.c ****       return CMW_ERROR_PERIPH_FAILURE;
 545:Lib/Camera_Middleware/cmw_camera.c ****     }
 546:Lib/Camera_Middleware/cmw_camera.c ****   }
 547:Lib/Camera_Middleware/cmw_camera.c **** 
 548:Lib/Camera_Middleware/cmw_camera.c ****   if (HAL_DCMIPP_PIPE_GetState(&hcamera_dcmipp, DCMIPP_PIPE2) != HAL_DCMIPP_PIPE_STATE_RESET)
 549:Lib/Camera_Middleware/cmw_camera.c ****   {
 550:Lib/Camera_Middleware/cmw_camera.c ****     ret = HAL_DCMIPP_CSI_PIPE_Stop(&hcamera_dcmipp, DCMIPP_PIPE2, DCMIPP_VIRTUAL_CHANNEL0);
 551:Lib/Camera_Middleware/cmw_camera.c ****     if (ret != HAL_OK)
 552:Lib/Camera_Middleware/cmw_camera.c ****     {
 553:Lib/Camera_Middleware/cmw_camera.c ****       return CMW_ERROR_PERIPH_FAILURE;
 554:Lib/Camera_Middleware/cmw_camera.c ****     }
 555:Lib/Camera_Middleware/cmw_camera.c ****   }
 556:Lib/Camera_Middleware/cmw_camera.c **** 
 557:Lib/Camera_Middleware/cmw_camera.c ****   ret = HAL_DCMIPP_DeInit(&hcamera_dcmipp);
 558:Lib/Camera_Middleware/cmw_camera.c ****   if (ret != HAL_OK)
 559:Lib/Camera_Middleware/cmw_camera.c ****   {
 560:Lib/Camera_Middleware/cmw_camera.c ****     return CMW_ERROR_PERIPH_FAILURE;
 561:Lib/Camera_Middleware/cmw_camera.c ****   }
 562:Lib/Camera_Middleware/cmw_camera.c **** 
 563:Lib/Camera_Middleware/cmw_camera.c ****   if (is_camera_init <= 0)
 564:Lib/Camera_Middleware/cmw_camera.c ****   {
 565:Lib/Camera_Middleware/cmw_camera.c ****     return CMW_ERROR_NONE;
 566:Lib/Camera_Middleware/cmw_camera.c ****   }
 567:Lib/Camera_Middleware/cmw_camera.c **** 
 568:Lib/Camera_Middleware/cmw_camera.c ****   /* De-initialize the camera module */
 569:Lib/Camera_Middleware/cmw_camera.c ****   ret = Camera_Drv.DeInit(&camera_bsp);
 570:Lib/Camera_Middleware/cmw_camera.c ****   if (ret != CMW_ERROR_NONE)
 571:Lib/Camera_Middleware/cmw_camera.c ****   {
 572:Lib/Camera_Middleware/cmw_camera.c ****     return CMW_ERROR_COMPONENT_FAILURE;
 573:Lib/Camera_Middleware/cmw_camera.c ****   }
 574:Lib/Camera_Middleware/cmw_camera.c ****   /* Set Camera in Power Down */
 575:Lib/Camera_Middleware/cmw_camera.c ****   CMW_CAMERA_PwrDown();
 576:Lib/Camera_Middleware/cmw_camera.c **** 
 577:Lib/Camera_Middleware/cmw_camera.c ****   /* Update DCMIPPInit counter */
 578:Lib/Camera_Middleware/cmw_camera.c ****   is_camera_init--;
 579:Lib/Camera_Middleware/cmw_camera.c ****   is_camera_started--;
 580:Lib/Camera_Middleware/cmw_camera.c ****   is_pipe1_2_shared--;
 581:Lib/Camera_Middleware/cmw_camera.c **** 
 582:Lib/Camera_Middleware/cmw_camera.c ****   /* Return CMW status */
 583:Lib/Camera_Middleware/cmw_camera.c ****   ret = CMW_ERROR_NONE;
 584:Lib/Camera_Middleware/cmw_camera.c ****   return ret;
 585:Lib/Camera_Middleware/cmw_camera.c **** }
 586:Lib/Camera_Middleware/cmw_camera.c **** 
 587:Lib/Camera_Middleware/cmw_camera.c **** /**
 588:Lib/Camera_Middleware/cmw_camera.c ****   * @brief  Suspend the CAMERA capture on selected pipe
 589:Lib/Camera_Middleware/cmw_camera.c ****   * @param  pipe Dcmipp pipe.
 590:Lib/Camera_Middleware/cmw_camera.c ****   * @retval CMW status
 591:Lib/Camera_Middleware/cmw_camera.c ****   */
 592:Lib/Camera_Middleware/cmw_camera.c **** int32_t CMW_CAMERA_Suspend(uint32_t pipe)
 593:Lib/Camera_Middleware/cmw_camera.c **** {
 594:Lib/Camera_Middleware/cmw_camera.c ****   HAL_DCMIPP_PipeStateTypeDef state = hcamera_dcmipp.PipeState[pipe];
 595:Lib/Camera_Middleware/cmw_camera.c **** 
ARM GAS  C:\Users\DJESSOU\AppData\Local\Temp\cc3dm0Vf.s 			page 12


 596:Lib/Camera_Middleware/cmw_camera.c ****   if (state == HAL_DCMIPP_PIPE_STATE_SUSPEND)
 597:Lib/Camera_Middleware/cmw_camera.c ****   {
 598:Lib/Camera_Middleware/cmw_camera.c ****     return CMW_ERROR_NONE;
 599:Lib/Camera_Middleware/cmw_camera.c ****   }
 600:Lib/Camera_Middleware/cmw_camera.c ****   else if (state > HAL_DCMIPP_PIPE_STATE_READY)
 601:Lib/Camera_Middleware/cmw_camera.c ****   {
 602:Lib/Camera_Middleware/cmw_camera.c ****     if (HAL_DCMIPP_PIPE_Suspend(&hcamera_dcmipp, pipe) != HAL_OK)
 603:Lib/Camera_Middleware/cmw_camera.c ****     {
 604:Lib/Camera_Middleware/cmw_camera.c ****       return CMW_ERROR_PERIPH_FAILURE;
 605:Lib/Camera_Middleware/cmw_camera.c ****     }
 606:Lib/Camera_Middleware/cmw_camera.c ****   }
 607:Lib/Camera_Middleware/cmw_camera.c **** 
 608:Lib/Camera_Middleware/cmw_camera.c ****   /* Return CMW status */
 609:Lib/Camera_Middleware/cmw_camera.c ****   return CMW_ERROR_NONE;
 610:Lib/Camera_Middleware/cmw_camera.c **** }
 611:Lib/Camera_Middleware/cmw_camera.c **** 
 612:Lib/Camera_Middleware/cmw_camera.c **** /**
 613:Lib/Camera_Middleware/cmw_camera.c ****   * @brief  Resume the CAMERA capture on selected pipe
 614:Lib/Camera_Middleware/cmw_camera.c ****   * @param  pipe Dcmipp pipe.
 615:Lib/Camera_Middleware/cmw_camera.c ****   * @retval CMW status
 616:Lib/Camera_Middleware/cmw_camera.c ****   */
 617:Lib/Camera_Middleware/cmw_camera.c **** int32_t CMW_CAMERA_Resume(uint32_t pipe)
 618:Lib/Camera_Middleware/cmw_camera.c **** {
 619:Lib/Camera_Middleware/cmw_camera.c ****   HAL_DCMIPP_PipeStateTypeDef state = hcamera_dcmipp.PipeState[pipe];
 620:Lib/Camera_Middleware/cmw_camera.c **** 
 621:Lib/Camera_Middleware/cmw_camera.c ****   if (state == HAL_DCMIPP_PIPE_STATE_BUSY)
 622:Lib/Camera_Middleware/cmw_camera.c ****   {
 623:Lib/Camera_Middleware/cmw_camera.c ****     return CMW_ERROR_NONE;
 624:Lib/Camera_Middleware/cmw_camera.c ****   }
 625:Lib/Camera_Middleware/cmw_camera.c ****   else if (state > HAL_DCMIPP_PIPE_STATE_BUSY)
 626:Lib/Camera_Middleware/cmw_camera.c ****   {
 627:Lib/Camera_Middleware/cmw_camera.c ****     if (HAL_DCMIPP_PIPE_Resume(&hcamera_dcmipp, pipe) != HAL_OK)
 628:Lib/Camera_Middleware/cmw_camera.c ****     {
 629:Lib/Camera_Middleware/cmw_camera.c ****       return CMW_ERROR_PERIPH_FAILURE;
 630:Lib/Camera_Middleware/cmw_camera.c ****     }
 631:Lib/Camera_Middleware/cmw_camera.c ****   }
 632:Lib/Camera_Middleware/cmw_camera.c **** 
 633:Lib/Camera_Middleware/cmw_camera.c ****   /* Return CMW status */
 634:Lib/Camera_Middleware/cmw_camera.c ****   return CMW_ERROR_NONE;
 635:Lib/Camera_Middleware/cmw_camera.c **** }
 636:Lib/Camera_Middleware/cmw_camera.c **** 
 637:Lib/Camera_Middleware/cmw_camera.c **** /**
 638:Lib/Camera_Middleware/cmw_camera.c ****   * @brief  Enable the Restart State. When enabled, at system restart, the ISP middleware configura
 639:Lib/Camera_Middleware/cmw_camera.c ****   *         is restored from the last update before the restart.
 640:Lib/Camera_Middleware/cmw_camera.c ****   * @param  ISP_RestartState pointer to ISP Restart State. To use this mode in a Low Power use case
 641:Lib/Camera_Middleware/cmw_camera.c ****   *         the ISP state is applied at system wake up, this pointer must be in some retention memo
 642:Lib/Camera_Middleware/cmw_camera.c ****   * @retval CMW status
 643:Lib/Camera_Middleware/cmw_camera.c ****   */
 644:Lib/Camera_Middleware/cmw_camera.c **** int32_t CMW_CAMERA_EnableRestartState(ISP_RestartStateTypeDef *ISP_RestartState)
 645:Lib/Camera_Middleware/cmw_camera.c **** {
 646:Lib/Camera_Middleware/cmw_camera.c ****   if (ISP_EnableRestartState(NULL, ISP_RestartState) != ISP_OK)
 647:Lib/Camera_Middleware/cmw_camera.c ****   {
 648:Lib/Camera_Middleware/cmw_camera.c ****     return CMW_ERROR_COMPONENT_FAILURE;
 649:Lib/Camera_Middleware/cmw_camera.c ****   }
 650:Lib/Camera_Middleware/cmw_camera.c **** 
 651:Lib/Camera_Middleware/cmw_camera.c ****   /* Return CMW status */
 652:Lib/Camera_Middleware/cmw_camera.c ****   return CMW_ERROR_NONE;
ARM GAS  C:\Users\DJESSOU\AppData\Local\Temp\cc3dm0Vf.s 			page 13


 653:Lib/Camera_Middleware/cmw_camera.c **** }
 654:Lib/Camera_Middleware/cmw_camera.c **** 
 655:Lib/Camera_Middleware/cmw_camera.c **** /**
 656:Lib/Camera_Middleware/cmw_camera.c ****   * @brief  Disable the Restart State
 657:Lib/Camera_Middleware/cmw_camera.c ****   * @retval CMW status
 658:Lib/Camera_Middleware/cmw_camera.c ****   */
 659:Lib/Camera_Middleware/cmw_camera.c **** int32_t CMW_CAMERA_DisableRestartState()
 660:Lib/Camera_Middleware/cmw_camera.c **** {
 661:Lib/Camera_Middleware/cmw_camera.c ****   if (ISP_DisableRestartState(NULL) != ISP_OK)
 662:Lib/Camera_Middleware/cmw_camera.c ****   {
 663:Lib/Camera_Middleware/cmw_camera.c ****     return CMW_ERROR_COMPONENT_FAILURE;
 664:Lib/Camera_Middleware/cmw_camera.c ****   }
 665:Lib/Camera_Middleware/cmw_camera.c **** 
 666:Lib/Camera_Middleware/cmw_camera.c ****   /* Return CMW status */
 667:Lib/Camera_Middleware/cmw_camera.c ****   return CMW_ERROR_NONE;
 668:Lib/Camera_Middleware/cmw_camera.c **** }
 669:Lib/Camera_Middleware/cmw_camera.c **** 
 670:Lib/Camera_Middleware/cmw_camera.c **** /**
 671:Lib/Camera_Middleware/cmw_camera.c ****   * @brief  Set the camera gain.
 672:Lib/Camera_Middleware/cmw_camera.c ****   * @param  Gain     Gain in mdB
 673:Lib/Camera_Middleware/cmw_camera.c ****   * @retval CMW status
 674:Lib/Camera_Middleware/cmw_camera.c ****   */
 675:Lib/Camera_Middleware/cmw_camera.c **** int CMW_CAMERA_SetGain(int32_t Gain)
 676:Lib/Camera_Middleware/cmw_camera.c **** {
 677:Lib/Camera_Middleware/cmw_camera.c ****   int ret;
 678:Lib/Camera_Middleware/cmw_camera.c ****   if(Camera_Drv.SetGain == NULL)
 679:Lib/Camera_Middleware/cmw_camera.c ****   {
 680:Lib/Camera_Middleware/cmw_camera.c ****     return CMW_ERROR_FEATURE_NOT_SUPPORTED;
 681:Lib/Camera_Middleware/cmw_camera.c ****   }
 682:Lib/Camera_Middleware/cmw_camera.c **** 
 683:Lib/Camera_Middleware/cmw_camera.c ****   ret = Camera_Drv.SetGain(&camera_bsp, Gain);
 684:Lib/Camera_Middleware/cmw_camera.c ****   if (ret != CMW_ERROR_NONE)
 685:Lib/Camera_Middleware/cmw_camera.c ****   {
 686:Lib/Camera_Middleware/cmw_camera.c ****     return CMW_ERROR_COMPONENT_FAILURE;
 687:Lib/Camera_Middleware/cmw_camera.c ****   }
 688:Lib/Camera_Middleware/cmw_camera.c **** 
 689:Lib/Camera_Middleware/cmw_camera.c ****   Camera_Ctx.Gain = Gain;
 690:Lib/Camera_Middleware/cmw_camera.c ****   return CMW_ERROR_NONE;
 691:Lib/Camera_Middleware/cmw_camera.c **** }
 692:Lib/Camera_Middleware/cmw_camera.c **** 
 693:Lib/Camera_Middleware/cmw_camera.c **** /**
 694:Lib/Camera_Middleware/cmw_camera.c ****   * @brief  Get the camera gain.
 695:Lib/Camera_Middleware/cmw_camera.c ****   * @param  Gain     Gain in mdB
 696:Lib/Camera_Middleware/cmw_camera.c ****   * @retval CMW status
 697:Lib/Camera_Middleware/cmw_camera.c ****   */
 698:Lib/Camera_Middleware/cmw_camera.c **** int CMW_CAMERA_GetGain(int32_t *Gain)
 699:Lib/Camera_Middleware/cmw_camera.c **** {
 700:Lib/Camera_Middleware/cmw_camera.c ****   *Gain = Camera_Ctx.Gain;
 701:Lib/Camera_Middleware/cmw_camera.c ****   return CMW_ERROR_NONE;
 702:Lib/Camera_Middleware/cmw_camera.c **** }
 703:Lib/Camera_Middleware/cmw_camera.c **** 
 704:Lib/Camera_Middleware/cmw_camera.c **** /**
 705:Lib/Camera_Middleware/cmw_camera.c ****   * @brief  Set the camera exposure.
 706:Lib/Camera_Middleware/cmw_camera.c ****   * @param  exposure exposure in microseconds
 707:Lib/Camera_Middleware/cmw_camera.c ****   * @retval CMW status
 708:Lib/Camera_Middleware/cmw_camera.c ****   */
 709:Lib/Camera_Middleware/cmw_camera.c **** int CMW_CAMERA_SetExposure(int32_t exposure)
ARM GAS  C:\Users\DJESSOU\AppData\Local\Temp\cc3dm0Vf.s 			page 14


 710:Lib/Camera_Middleware/cmw_camera.c **** {
 711:Lib/Camera_Middleware/cmw_camera.c ****   int ret;
 712:Lib/Camera_Middleware/cmw_camera.c **** 
 713:Lib/Camera_Middleware/cmw_camera.c ****   if(Camera_Drv.SetExposure == NULL)
 714:Lib/Camera_Middleware/cmw_camera.c ****   {
 715:Lib/Camera_Middleware/cmw_camera.c ****     return CMW_ERROR_FEATURE_NOT_SUPPORTED;
 716:Lib/Camera_Middleware/cmw_camera.c ****   }
 717:Lib/Camera_Middleware/cmw_camera.c **** 
 718:Lib/Camera_Middleware/cmw_camera.c ****   ret = Camera_Drv.SetExposure(&camera_bsp, exposure);
 719:Lib/Camera_Middleware/cmw_camera.c ****   if (ret != CMW_ERROR_NONE)
 720:Lib/Camera_Middleware/cmw_camera.c ****   {
 721:Lib/Camera_Middleware/cmw_camera.c ****     return CMW_ERROR_COMPONENT_FAILURE;
 722:Lib/Camera_Middleware/cmw_camera.c ****   }
 723:Lib/Camera_Middleware/cmw_camera.c **** 
 724:Lib/Camera_Middleware/cmw_camera.c ****   Camera_Ctx.Exposure = exposure;
 725:Lib/Camera_Middleware/cmw_camera.c ****   return CMW_ERROR_NONE;
 726:Lib/Camera_Middleware/cmw_camera.c **** }
 727:Lib/Camera_Middleware/cmw_camera.c **** 
 728:Lib/Camera_Middleware/cmw_camera.c **** /**
 729:Lib/Camera_Middleware/cmw_camera.c ****   * @brief  Get the camera exposure.
 730:Lib/Camera_Middleware/cmw_camera.c ****   * @param  exposure exposure in microseconds
 731:Lib/Camera_Middleware/cmw_camera.c ****   * @retval CMW status
 732:Lib/Camera_Middleware/cmw_camera.c ****   */
 733:Lib/Camera_Middleware/cmw_camera.c **** int CMW_CAMERA_GetExposure(int32_t *exposure)
 734:Lib/Camera_Middleware/cmw_camera.c **** {
 735:Lib/Camera_Middleware/cmw_camera.c ****   *exposure = Camera_Ctx.Exposure;
 736:Lib/Camera_Middleware/cmw_camera.c ****   return CMW_ERROR_NONE;
 737:Lib/Camera_Middleware/cmw_camera.c **** }
 738:Lib/Camera_Middleware/cmw_camera.c **** 
 739:Lib/Camera_Middleware/cmw_camera.c **** /**
 740:Lib/Camera_Middleware/cmw_camera.c ****   * @brief  Set the camera exposure mode.
 741:Lib/Camera_Middleware/cmw_camera.c ****   * @param  exposureMode Exposure mode CMW_EXPOSUREMODE_AUTO, CMW_EXPOSUREMODE_AUTOFREEZE, CMW_EXPO
 742:Lib/Camera_Middleware/cmw_camera.c ****   * @retval CMW status
 743:Lib/Camera_Middleware/cmw_camera.c ****   */
 744:Lib/Camera_Middleware/cmw_camera.c **** int32_t CMW_CAMERA_SetExposureMode(int32_t exposureMode)
 745:Lib/Camera_Middleware/cmw_camera.c **** {
 746:Lib/Camera_Middleware/cmw_camera.c ****   int ret;
 747:Lib/Camera_Middleware/cmw_camera.c **** 
 748:Lib/Camera_Middleware/cmw_camera.c ****   if(Camera_Drv.SetExposureMode == NULL)
 749:Lib/Camera_Middleware/cmw_camera.c ****   {
 750:Lib/Camera_Middleware/cmw_camera.c ****     return CMW_ERROR_FEATURE_NOT_SUPPORTED;
 751:Lib/Camera_Middleware/cmw_camera.c ****   }
 752:Lib/Camera_Middleware/cmw_camera.c **** 
 753:Lib/Camera_Middleware/cmw_camera.c ****   ret = Camera_Drv.SetExposureMode(&camera_bsp, exposureMode);
 754:Lib/Camera_Middleware/cmw_camera.c ****   if (ret != CMW_ERROR_NONE)
 755:Lib/Camera_Middleware/cmw_camera.c ****   {
 756:Lib/Camera_Middleware/cmw_camera.c ****     return CMW_ERROR_COMPONENT_FAILURE;
 757:Lib/Camera_Middleware/cmw_camera.c ****   }
 758:Lib/Camera_Middleware/cmw_camera.c **** 
 759:Lib/Camera_Middleware/cmw_camera.c ****   Camera_Ctx.ExposureMode = exposureMode;
 760:Lib/Camera_Middleware/cmw_camera.c ****   return CMW_ERROR_NONE;
 761:Lib/Camera_Middleware/cmw_camera.c **** }
 762:Lib/Camera_Middleware/cmw_camera.c **** 
 763:Lib/Camera_Middleware/cmw_camera.c **** /**
 764:Lib/Camera_Middleware/cmw_camera.c ****   * @brief  Get the camera exposure mode.
 765:Lib/Camera_Middleware/cmw_camera.c ****   * @param  exposureMode Exposure mode CAMERA_EXPOSURE_AUTO, CAMERA_EXPOSURE_AUTOFREEZE, CAMERA_EXP
 766:Lib/Camera_Middleware/cmw_camera.c ****   * @retval CMW status
ARM GAS  C:\Users\DJESSOU\AppData\Local\Temp\cc3dm0Vf.s 			page 15


 767:Lib/Camera_Middleware/cmw_camera.c ****   */
 768:Lib/Camera_Middleware/cmw_camera.c **** int32_t CMW_CAMERA_GetExposureMode(int32_t *exposureMode)
 769:Lib/Camera_Middleware/cmw_camera.c **** {
 770:Lib/Camera_Middleware/cmw_camera.c ****   *exposureMode = Camera_Ctx.ExposureMode;
 771:Lib/Camera_Middleware/cmw_camera.c ****   return CMW_ERROR_NONE;
 772:Lib/Camera_Middleware/cmw_camera.c **** }
 773:Lib/Camera_Middleware/cmw_camera.c **** 
 774:Lib/Camera_Middleware/cmw_camera.c **** /**
 775:Lib/Camera_Middleware/cmw_camera.c ****   * @brief  Set (Enable/Disable and Configure) the camera test pattern
 776:Lib/Camera_Middleware/cmw_camera.c ****   * @param  mode Pattern mode (sensor specific value) to be configured. '-1' means disable.
 777:Lib/Camera_Middleware/cmw_camera.c ****   * @retval CMW status
 778:Lib/Camera_Middleware/cmw_camera.c ****   */
 779:Lib/Camera_Middleware/cmw_camera.c **** int32_t CMW_CAMERA_SetTestPattern(int32_t mode)
 780:Lib/Camera_Middleware/cmw_camera.c **** {
 781:Lib/Camera_Middleware/cmw_camera.c ****   int32_t ret;
 782:Lib/Camera_Middleware/cmw_camera.c **** 
 783:Lib/Camera_Middleware/cmw_camera.c ****   if(Camera_Drv.SetTestPattern == NULL)
 784:Lib/Camera_Middleware/cmw_camera.c ****   {
 785:Lib/Camera_Middleware/cmw_camera.c ****     return CMW_ERROR_FEATURE_NOT_SUPPORTED;
 786:Lib/Camera_Middleware/cmw_camera.c ****   }
 787:Lib/Camera_Middleware/cmw_camera.c **** 
 788:Lib/Camera_Middleware/cmw_camera.c ****   ret = Camera_Drv.SetTestPattern(&camera_bsp, mode);
 789:Lib/Camera_Middleware/cmw_camera.c ****   if (ret != CMW_ERROR_NONE)
 790:Lib/Camera_Middleware/cmw_camera.c ****   {
 791:Lib/Camera_Middleware/cmw_camera.c ****     return CMW_ERROR_COMPONENT_FAILURE;
 792:Lib/Camera_Middleware/cmw_camera.c ****   }
 793:Lib/Camera_Middleware/cmw_camera.c **** 
 794:Lib/Camera_Middleware/cmw_camera.c ****   Camera_Ctx.TestPattern = mode;
 795:Lib/Camera_Middleware/cmw_camera.c ****   return CMW_ERROR_NONE;
 796:Lib/Camera_Middleware/cmw_camera.c **** }
 797:Lib/Camera_Middleware/cmw_camera.c **** 
 798:Lib/Camera_Middleware/cmw_camera.c **** /**
 799:Lib/Camera_Middleware/cmw_camera.c ****   * @brief  Get the camera test pattern
 800:Lib/Camera_Middleware/cmw_camera.c ****   * @param  mode Pattern mode (sensor specific value) to be returned. '-1' means disable.
 801:Lib/Camera_Middleware/cmw_camera.c ****   * @retval CMW status
 802:Lib/Camera_Middleware/cmw_camera.c ****   */
 803:Lib/Camera_Middleware/cmw_camera.c **** int32_t CMW_CAMERA_GetTestPattern(int32_t *mode)
 804:Lib/Camera_Middleware/cmw_camera.c **** {
 805:Lib/Camera_Middleware/cmw_camera.c ****   *mode = Camera_Ctx.TestPattern;
 806:Lib/Camera_Middleware/cmw_camera.c ****   return CMW_ERROR_NONE;
 807:Lib/Camera_Middleware/cmw_camera.c **** }
 808:Lib/Camera_Middleware/cmw_camera.c **** 
 809:Lib/Camera_Middleware/cmw_camera.c **** /**
 810:Lib/Camera_Middleware/cmw_camera.c ****   * @brief  Get the Camera Sensor info.
 811:Lib/Camera_Middleware/cmw_camera.c ****   * @param  info  pointer to sensor info
 812:Lib/Camera_Middleware/cmw_camera.c ****   * @note   This function should be called after the init. This to get Capabilities
 813:Lib/Camera_Middleware/cmw_camera.c ****   *         from the camera sensor
 814:Lib/Camera_Middleware/cmw_camera.c ****   * @retval Component status
 815:Lib/Camera_Middleware/cmw_camera.c ****   */
 816:Lib/Camera_Middleware/cmw_camera.c **** int32_t CMW_CAMERA_GetSensorInfo(ISP_SensorInfoTypeDef *info)
 817:Lib/Camera_Middleware/cmw_camera.c **** {
 818:Lib/Camera_Middleware/cmw_camera.c **** 
 819:Lib/Camera_Middleware/cmw_camera.c ****   int32_t ret;
 820:Lib/Camera_Middleware/cmw_camera.c **** 
 821:Lib/Camera_Middleware/cmw_camera.c ****   if(Camera_Drv.GetSensorInfo == NULL)
 822:Lib/Camera_Middleware/cmw_camera.c ****   {
 823:Lib/Camera_Middleware/cmw_camera.c ****     return CMW_ERROR_FEATURE_NOT_SUPPORTED;
ARM GAS  C:\Users\DJESSOU\AppData\Local\Temp\cc3dm0Vf.s 			page 16


 824:Lib/Camera_Middleware/cmw_camera.c ****   }
 825:Lib/Camera_Middleware/cmw_camera.c **** 
 826:Lib/Camera_Middleware/cmw_camera.c ****   ret = Camera_Drv.GetSensorInfo(&camera_bsp, info);
 827:Lib/Camera_Middleware/cmw_camera.c ****   if (ret != CMW_ERROR_NONE)
 828:Lib/Camera_Middleware/cmw_camera.c ****   {
 829:Lib/Camera_Middleware/cmw_camera.c ****     return CMW_ERROR_COMPONENT_FAILURE;
 830:Lib/Camera_Middleware/cmw_camera.c ****   }
 831:Lib/Camera_Middleware/cmw_camera.c **** 
 832:Lib/Camera_Middleware/cmw_camera.c ****   return CMW_ERROR_NONE;
 833:Lib/Camera_Middleware/cmw_camera.c **** }
 834:Lib/Camera_Middleware/cmw_camera.c **** 
 835:Lib/Camera_Middleware/cmw_camera.c **** 
 836:Lib/Camera_Middleware/cmw_camera.c **** 
 837:Lib/Camera_Middleware/cmw_camera.c **** int32_t CMW_CAMERA_Run()
 838:Lib/Camera_Middleware/cmw_camera.c **** {
 839:Lib/Camera_Middleware/cmw_camera.c ****   if(Camera_Drv.Run != NULL)
 840:Lib/Camera_Middleware/cmw_camera.c ****   {
 841:Lib/Camera_Middleware/cmw_camera.c ****       return Camera_Drv.Run(&camera_bsp);
 842:Lib/Camera_Middleware/cmw_camera.c ****   }
 843:Lib/Camera_Middleware/cmw_camera.c ****   return CMW_ERROR_NONE;
 844:Lib/Camera_Middleware/cmw_camera.c **** }
 845:Lib/Camera_Middleware/cmw_camera.c **** 
 846:Lib/Camera_Middleware/cmw_camera.c **** /**
 847:Lib/Camera_Middleware/cmw_camera.c ****  * @brief  Vsync Event callback on pipe
 848:Lib/Camera_Middleware/cmw_camera.c ****  * @param  Pipe  Pipe receiving the callback
 849:Lib/Camera_Middleware/cmw_camera.c ****  * @retval None
 850:Lib/Camera_Middleware/cmw_camera.c ****  */
 851:Lib/Camera_Middleware/cmw_camera.c **** __weak int CMW_CAMERA_PIPE_VsyncEventCallback(uint32_t pipe)
 852:Lib/Camera_Middleware/cmw_camera.c **** {
 853:Lib/Camera_Middleware/cmw_camera.c ****   UNUSED(pipe);
 854:Lib/Camera_Middleware/cmw_camera.c **** 
 855:Lib/Camera_Middleware/cmw_camera.c ****   return CMW_ERROR_NONE;
 856:Lib/Camera_Middleware/cmw_camera.c **** }
 857:Lib/Camera_Middleware/cmw_camera.c **** 
 858:Lib/Camera_Middleware/cmw_camera.c **** /**
 859:Lib/Camera_Middleware/cmw_camera.c ****  * @brief  Frame Event callback on pipe
 860:Lib/Camera_Middleware/cmw_camera.c ****  * @param  Pipe  Pipe receiving the callback
 861:Lib/Camera_Middleware/cmw_camera.c ****  * @retval None
 862:Lib/Camera_Middleware/cmw_camera.c ****  */
 863:Lib/Camera_Middleware/cmw_camera.c **** __weak int CMW_CAMERA_PIPE_FrameEventCallback(uint32_t pipe)
 864:Lib/Camera_Middleware/cmw_camera.c **** {
 865:Lib/Camera_Middleware/cmw_camera.c ****   UNUSED(pipe);
 866:Lib/Camera_Middleware/cmw_camera.c **** 
 867:Lib/Camera_Middleware/cmw_camera.c ****   return CMW_ERROR_NONE;
 868:Lib/Camera_Middleware/cmw_camera.c **** }
 869:Lib/Camera_Middleware/cmw_camera.c **** 
 870:Lib/Camera_Middleware/cmw_camera.c **** /**
 871:Lib/Camera_Middleware/cmw_camera.c ****  * @brief  Error callback on pipe
 872:Lib/Camera_Middleware/cmw_camera.c ****  * @param  Pipe  Pipe receiving the callback
 873:Lib/Camera_Middleware/cmw_camera.c ****  * @retval None
 874:Lib/Camera_Middleware/cmw_camera.c ****  */
 875:Lib/Camera_Middleware/cmw_camera.c **** __weak void CMW_CAMERA_PIPE_ErrorCallback(uint32_t pipe)
 876:Lib/Camera_Middleware/cmw_camera.c **** {
 877:Lib/Camera_Middleware/cmw_camera.c ****   assert(0);
 878:Lib/Camera_Middleware/cmw_camera.c **** }
 879:Lib/Camera_Middleware/cmw_camera.c **** 
 880:Lib/Camera_Middleware/cmw_camera.c **** /**
ARM GAS  C:\Users\DJESSOU\AppData\Local\Temp\cc3dm0Vf.s 			page 17


 881:Lib/Camera_Middleware/cmw_camera.c ****  * @brief  Vsync Event callback on pipe
 882:Lib/Camera_Middleware/cmw_camera.c ****  * @param  hdcmipp DCMIPP device handle
 883:Lib/Camera_Middleware/cmw_camera.c ****  *         Pipe    Pipe receiving the callback
 884:Lib/Camera_Middleware/cmw_camera.c ****  * @retval None
 885:Lib/Camera_Middleware/cmw_camera.c ****  */
 886:Lib/Camera_Middleware/cmw_camera.c **** void HAL_DCMIPP_PIPE_VsyncEventCallback(DCMIPP_HandleTypeDef *hdcmipp, uint32_t Pipe)
 887:Lib/Camera_Middleware/cmw_camera.c **** {
 888:Lib/Camera_Middleware/cmw_camera.c ****   UNUSED(hdcmipp);
 889:Lib/Camera_Middleware/cmw_camera.c ****   if(Camera_Drv.VsyncEventCallback != NULL)
 890:Lib/Camera_Middleware/cmw_camera.c ****   {
 891:Lib/Camera_Middleware/cmw_camera.c ****       Camera_Drv.VsyncEventCallback(&camera_bsp, Pipe);
 892:Lib/Camera_Middleware/cmw_camera.c ****   }
 893:Lib/Camera_Middleware/cmw_camera.c ****   CMW_CAMERA_PIPE_VsyncEventCallback(Pipe);
 894:Lib/Camera_Middleware/cmw_camera.c **** }
 895:Lib/Camera_Middleware/cmw_camera.c **** 
 896:Lib/Camera_Middleware/cmw_camera.c **** /**
 897:Lib/Camera_Middleware/cmw_camera.c ****  * @brief  Frame Event callback on pipe
 898:Lib/Camera_Middleware/cmw_camera.c ****  * @param  hdcmipp DCMIPP device handle
 899:Lib/Camera_Middleware/cmw_camera.c ****  *         Pipe    Pipe receiving the callback
 900:Lib/Camera_Middleware/cmw_camera.c ****  * @retval None
 901:Lib/Camera_Middleware/cmw_camera.c ****  */
 902:Lib/Camera_Middleware/cmw_camera.c **** void HAL_DCMIPP_PIPE_FrameEventCallback(DCMIPP_HandleTypeDef *hdcmipp, uint32_t Pipe)
 903:Lib/Camera_Middleware/cmw_camera.c **** {
 904:Lib/Camera_Middleware/cmw_camera.c ****   UNUSED(hdcmipp);
 905:Lib/Camera_Middleware/cmw_camera.c ****   if(Camera_Drv.FrameEventCallback != NULL)
 906:Lib/Camera_Middleware/cmw_camera.c ****   {
 907:Lib/Camera_Middleware/cmw_camera.c ****       Camera_Drv.FrameEventCallback(&camera_bsp, Pipe);
 908:Lib/Camera_Middleware/cmw_camera.c ****   }
 909:Lib/Camera_Middleware/cmw_camera.c ****   CMW_CAMERA_PIPE_FrameEventCallback(Pipe);
 910:Lib/Camera_Middleware/cmw_camera.c **** }
 911:Lib/Camera_Middleware/cmw_camera.c **** 
 912:Lib/Camera_Middleware/cmw_camera.c **** /**
 913:Lib/Camera_Middleware/cmw_camera.c ****   * @brief  Initializes the DCMIPP MSP.
 914:Lib/Camera_Middleware/cmw_camera.c ****   * @param  hdcmipp  DCMIPP handle
 915:Lib/Camera_Middleware/cmw_camera.c ****   * @retval None
 916:Lib/Camera_Middleware/cmw_camera.c ****   */
 917:Lib/Camera_Middleware/cmw_camera.c **** void HAL_DCMIPP_MspInit(DCMIPP_HandleTypeDef *hdcmipp)
 918:Lib/Camera_Middleware/cmw_camera.c **** {
 919:Lib/Camera_Middleware/cmw_camera.c ****   UNUSED(hdcmipp);
 920:Lib/Camera_Middleware/cmw_camera.c **** 
 921:Lib/Camera_Middleware/cmw_camera.c ****   /*** Enable peripheral clock ***/
 922:Lib/Camera_Middleware/cmw_camera.c ****   /* Enable DCMIPP clock */
 923:Lib/Camera_Middleware/cmw_camera.c ****   __HAL_RCC_DCMIPP_CLK_ENABLE();
 924:Lib/Camera_Middleware/cmw_camera.c ****   __HAL_RCC_DCMIPP_CLK_SLEEP_ENABLE();
 925:Lib/Camera_Middleware/cmw_camera.c ****   __HAL_RCC_DCMIPP_FORCE_RESET();
 926:Lib/Camera_Middleware/cmw_camera.c ****   __HAL_RCC_DCMIPP_RELEASE_RESET();
 927:Lib/Camera_Middleware/cmw_camera.c **** 
 928:Lib/Camera_Middleware/cmw_camera.c ****   /*** Configure the NVIC for DCMIPP ***/
 929:Lib/Camera_Middleware/cmw_camera.c ****   /* NVIC configuration for DCMIPP transfer complete interrupt */
 930:Lib/Camera_Middleware/cmw_camera.c ****   HAL_NVIC_SetPriority(DCMIPP_IRQn, 0x07, 0);
 931:Lib/Camera_Middleware/cmw_camera.c ****   HAL_NVIC_EnableIRQ(DCMIPP_IRQn);
 932:Lib/Camera_Middleware/cmw_camera.c **** 
 933:Lib/Camera_Middleware/cmw_camera.c ****   /*** Enable peripheral clock ***/
 934:Lib/Camera_Middleware/cmw_camera.c ****   /* Enable CSI clock */
 935:Lib/Camera_Middleware/cmw_camera.c ****   __HAL_RCC_CSI_CLK_ENABLE();
 936:Lib/Camera_Middleware/cmw_camera.c ****   __HAL_RCC_CSI_CLK_SLEEP_ENABLE();
 937:Lib/Camera_Middleware/cmw_camera.c ****   __HAL_RCC_CSI_FORCE_RESET();
ARM GAS  C:\Users\DJESSOU\AppData\Local\Temp\cc3dm0Vf.s 			page 18


 938:Lib/Camera_Middleware/cmw_camera.c ****   __HAL_RCC_CSI_RELEASE_RESET();
 939:Lib/Camera_Middleware/cmw_camera.c **** 
 940:Lib/Camera_Middleware/cmw_camera.c ****   /*** Configure the NVIC for CSI ***/
 941:Lib/Camera_Middleware/cmw_camera.c ****   /* NVIC configuration for CSI transfer complete interrupt */
 942:Lib/Camera_Middleware/cmw_camera.c ****   HAL_NVIC_SetPriority(CSI_IRQn, 0x07, 0);
 943:Lib/Camera_Middleware/cmw_camera.c ****   HAL_NVIC_EnableIRQ(CSI_IRQn);
 944:Lib/Camera_Middleware/cmw_camera.c **** 
 945:Lib/Camera_Middleware/cmw_camera.c **** }
 946:Lib/Camera_Middleware/cmw_camera.c **** 
 947:Lib/Camera_Middleware/cmw_camera.c **** /**
 948:Lib/Camera_Middleware/cmw_camera.c ****   * @brief  DeInitializes the DCMIPP MSP.
 949:Lib/Camera_Middleware/cmw_camera.c ****   * @param  hdcmipp  DCMIPP handle
 950:Lib/Camera_Middleware/cmw_camera.c ****   * @retval None
 951:Lib/Camera_Middleware/cmw_camera.c ****   */
 952:Lib/Camera_Middleware/cmw_camera.c **** void HAL_DCMIPP_MspDeInit(DCMIPP_HandleTypeDef *hdcmipp)
 953:Lib/Camera_Middleware/cmw_camera.c **** {
 954:Lib/Camera_Middleware/cmw_camera.c ****   UNUSED(hdcmipp);
 955:Lib/Camera_Middleware/cmw_camera.c **** 
 956:Lib/Camera_Middleware/cmw_camera.c ****   __HAL_RCC_DCMIPP_FORCE_RESET();
 957:Lib/Camera_Middleware/cmw_camera.c ****   __HAL_RCC_DCMIPP_RELEASE_RESET();
 958:Lib/Camera_Middleware/cmw_camera.c **** 
 959:Lib/Camera_Middleware/cmw_camera.c ****   /* Disable NVIC  for DCMIPP transfer complete interrupt */
 960:Lib/Camera_Middleware/cmw_camera.c ****   HAL_NVIC_DisableIRQ(DCMIPP_IRQn);
 961:Lib/Camera_Middleware/cmw_camera.c **** 
 962:Lib/Camera_Middleware/cmw_camera.c ****   /* Disable DCMIPP clock */
 963:Lib/Camera_Middleware/cmw_camera.c ****   __HAL_RCC_DCMIPP_CLK_DISABLE();
 964:Lib/Camera_Middleware/cmw_camera.c **** 
 965:Lib/Camera_Middleware/cmw_camera.c ****   __HAL_RCC_CSI_FORCE_RESET();
 966:Lib/Camera_Middleware/cmw_camera.c ****   __HAL_RCC_CSI_RELEASE_RESET();
 967:Lib/Camera_Middleware/cmw_camera.c **** 
 968:Lib/Camera_Middleware/cmw_camera.c ****   /* Disable NVIC  for DCMIPP transfer complete interrupt */
 969:Lib/Camera_Middleware/cmw_camera.c ****   HAL_NVIC_DisableIRQ(CSI_IRQn);
 970:Lib/Camera_Middleware/cmw_camera.c **** 
 971:Lib/Camera_Middleware/cmw_camera.c ****   /* Disable DCMIPP clock */
 972:Lib/Camera_Middleware/cmw_camera.c ****   __HAL_RCC_CSI_CLK_DISABLE();
 973:Lib/Camera_Middleware/cmw_camera.c **** }
 974:Lib/Camera_Middleware/cmw_camera.c **** 
 975:Lib/Camera_Middleware/cmw_camera.c **** /**
 976:Lib/Camera_Middleware/cmw_camera.c ****   * @brief  CAMERA hardware reset
 977:Lib/Camera_Middleware/cmw_camera.c ****   * @retval CMW status
 978:Lib/Camera_Middleware/cmw_camera.c ****   */
 979:Lib/Camera_Middleware/cmw_camera.c **** static void CMW_CAMERA_EnableGPIOs(void)
 980:Lib/Camera_Middleware/cmw_camera.c **** {
 981:Lib/Camera_Middleware/cmw_camera.c ****   GPIO_InitTypeDef gpio_init_structure = {0};
 982:Lib/Camera_Middleware/cmw_camera.c **** 
 983:Lib/Camera_Middleware/cmw_camera.c ****   /* Enable GPIO clocks */
 984:Lib/Camera_Middleware/cmw_camera.c ****   EN_CAM_GPIO_ENABLE_VDDIO();
 985:Lib/Camera_Middleware/cmw_camera.c ****   EN_CAM_GPIO_CLK_ENABLE();
 986:Lib/Camera_Middleware/cmw_camera.c ****   NRST_CAM_GPIO_ENABLE_VDDIO();
 987:Lib/Camera_Middleware/cmw_camera.c ****   NRST_CAM_GPIO_CLK_ENABLE();
 988:Lib/Camera_Middleware/cmw_camera.c **** 
 989:Lib/Camera_Middleware/cmw_camera.c ****   gpio_init_structure.Pin       = EN_CAM_PIN;
 990:Lib/Camera_Middleware/cmw_camera.c ****   gpio_init_structure.Pull      = GPIO_NOPULL;
 991:Lib/Camera_Middleware/cmw_camera.c ****   gpio_init_structure.Mode      = GPIO_MODE_OUTPUT_PP;
 992:Lib/Camera_Middleware/cmw_camera.c ****   gpio_init_structure.Speed     = GPIO_SPEED_FREQ_VERY_HIGH;
 993:Lib/Camera_Middleware/cmw_camera.c ****   HAL_GPIO_Init(EN_CAM_PORT, &gpio_init_structure);
 994:Lib/Camera_Middleware/cmw_camera.c **** 
ARM GAS  C:\Users\DJESSOU\AppData\Local\Temp\cc3dm0Vf.s 			page 19


 995:Lib/Camera_Middleware/cmw_camera.c ****   gpio_init_structure.Pin       = NRST_CAM_PIN;
 996:Lib/Camera_Middleware/cmw_camera.c ****   gpio_init_structure.Pull      = GPIO_NOPULL;
 997:Lib/Camera_Middleware/cmw_camera.c ****   gpio_init_structure.Mode      = GPIO_MODE_OUTPUT_PP;
 998:Lib/Camera_Middleware/cmw_camera.c ****   gpio_init_structure.Speed     = GPIO_SPEED_FREQ_VERY_HIGH;
 999:Lib/Camera_Middleware/cmw_camera.c ****   HAL_GPIO_Init(NRST_CAM_PORT, &gpio_init_structure);
1000:Lib/Camera_Middleware/cmw_camera.c **** }
1001:Lib/Camera_Middleware/cmw_camera.c **** 
1002:Lib/Camera_Middleware/cmw_camera.c **** /**
1003:Lib/Camera_Middleware/cmw_camera.c ****   * @brief  CAMERA power down
1004:Lib/Camera_Middleware/cmw_camera.c ****   * @retval CMW status
1005:Lib/Camera_Middleware/cmw_camera.c ****   */
1006:Lib/Camera_Middleware/cmw_camera.c **** static void CMW_CAMERA_PwrDown(void)
1007:Lib/Camera_Middleware/cmw_camera.c **** {
1008:Lib/Camera_Middleware/cmw_camera.c ****   GPIO_InitTypeDef gpio_init_structure = {0};
1009:Lib/Camera_Middleware/cmw_camera.c **** 
1010:Lib/Camera_Middleware/cmw_camera.c ****   gpio_init_structure.Pin       = EN_CAM_PIN;
1011:Lib/Camera_Middleware/cmw_camera.c ****   gpio_init_structure.Pull      = GPIO_NOPULL;
1012:Lib/Camera_Middleware/cmw_camera.c ****   gpio_init_structure.Mode      = GPIO_MODE_OUTPUT_PP;
1013:Lib/Camera_Middleware/cmw_camera.c ****   HAL_GPIO_Init(EN_CAM_PORT, &gpio_init_structure);
1014:Lib/Camera_Middleware/cmw_camera.c **** 
1015:Lib/Camera_Middleware/cmw_camera.c ****   gpio_init_structure.Pin       = NRST_CAM_PIN;
1016:Lib/Camera_Middleware/cmw_camera.c ****   gpio_init_structure.Pull      = GPIO_NOPULL;
1017:Lib/Camera_Middleware/cmw_camera.c ****   gpio_init_structure.Mode      = GPIO_MODE_OUTPUT_PP;
1018:Lib/Camera_Middleware/cmw_camera.c ****   HAL_GPIO_Init(NRST_CAM_PORT, &gpio_init_structure);
1019:Lib/Camera_Middleware/cmw_camera.c **** 
1020:Lib/Camera_Middleware/cmw_camera.c ****   /* Camera power down sequence */
1021:Lib/Camera_Middleware/cmw_camera.c ****   /* Assert the camera Enable pin (active high) */
1022:Lib/Camera_Middleware/cmw_camera.c ****   HAL_GPIO_WritePin(EN_CAM_PORT, EN_CAM_PIN, GPIO_PIN_RESET);
1023:Lib/Camera_Middleware/cmw_camera.c **** 
1024:Lib/Camera_Middleware/cmw_camera.c ****   /* De-assert the camera NRST pin (active low) */
1025:Lib/Camera_Middleware/cmw_camera.c ****   HAL_GPIO_WritePin(NRST_CAM_PORT, NRST_CAM_PIN, GPIO_PIN_RESET);
1026:Lib/Camera_Middleware/cmw_camera.c **** 
1027:Lib/Camera_Middleware/cmw_camera.c **** }
1028:Lib/Camera_Middleware/cmw_camera.c **** 
1029:Lib/Camera_Middleware/cmw_camera.c **** static void CMW_CAMERA_ShutdownPin(int value)
1030:Lib/Camera_Middleware/cmw_camera.c **** {
1031:Lib/Camera_Middleware/cmw_camera.c ****   HAL_GPIO_WritePin(NRST_CAM_PORT, NRST_CAM_PIN, value ? GPIO_PIN_SET : GPIO_PIN_RESET);
1032:Lib/Camera_Middleware/cmw_camera.c **** }
1033:Lib/Camera_Middleware/cmw_camera.c **** 
1034:Lib/Camera_Middleware/cmw_camera.c **** static void CMW_CAMERA_EnablePin(int value)
1035:Lib/Camera_Middleware/cmw_camera.c **** {
1036:Lib/Camera_Middleware/cmw_camera.c ****   HAL_GPIO_WritePin(EN_CAM_PORT, EN_CAM_PIN, value ? GPIO_PIN_SET : GPIO_PIN_RESET);
1037:Lib/Camera_Middleware/cmw_camera.c **** }
1038:Lib/Camera_Middleware/cmw_camera.c **** 
1039:Lib/Camera_Middleware/cmw_camera.c **** #if defined(USE_VD66GY_SENSOR) || defined(USE_IMX335_SENSOR) || defined(USE_VD5943_SENSOR) || defin
1040:Lib/Camera_Middleware/cmw_camera.c **** static ISP_StatusTypeDef CB_ISP_SetSensorGain(uint32_t camera_instance, int32_t gain)
1041:Lib/Camera_Middleware/cmw_camera.c **** {
1042:Lib/Camera_Middleware/cmw_camera.c ****   if (CMW_CAMERA_SetGain(gain) != CMW_ERROR_NONE)
1043:Lib/Camera_Middleware/cmw_camera.c ****     return ISP_ERR_SENSORGAIN;
1044:Lib/Camera_Middleware/cmw_camera.c **** 
1045:Lib/Camera_Middleware/cmw_camera.c ****   return ISP_OK;
1046:Lib/Camera_Middleware/cmw_camera.c **** }
1047:Lib/Camera_Middleware/cmw_camera.c **** 
1048:Lib/Camera_Middleware/cmw_camera.c **** static ISP_StatusTypeDef CB_ISP_GetSensorGain(uint32_t camera_instance, int32_t *gain)
1049:Lib/Camera_Middleware/cmw_camera.c **** {
  34              		.loc 1 1049 1 view -0
  35              		.cfi_startproc
ARM GAS  C:\Users\DJESSOU\AppData\Local\Temp\cc3dm0Vf.s 			page 20


  36              		@ args = 0, pretend = 0, frame = 0
  37              		@ frame_needed = 0, uses_anonymous_args = 0
  38              		@ link register save eliminated.
1050:Lib/Camera_Middleware/cmw_camera.c ****   if (CMW_CAMERA_GetGain(gain) != CMW_ERROR_NONE)
  39              		.loc 1 1050 3 view .LVU1
  40              	.LBB26:
  41              	.LBI26:
 698:Lib/Camera_Middleware/cmw_camera.c **** {
  42              		.loc 1 698 5 view .LVU2
  43              	.LBB27:
 700:Lib/Camera_Middleware/cmw_camera.c ****   return CMW_ERROR_NONE;
  44              		.loc 1 700 3 view .LVU3
 700:Lib/Camera_Middleware/cmw_camera.c ****   return CMW_ERROR_NONE;
  45              		.loc 1 700 21 is_stmt 0 view .LVU4
  46 0000 024B     		ldr	r3, .L2
  47              	.LBE27:
  48              	.LBE26:
1051:Lib/Camera_Middleware/cmw_camera.c ****     return ISP_ERR_SENSORGAIN;
1052:Lib/Camera_Middleware/cmw_camera.c **** 
1053:Lib/Camera_Middleware/cmw_camera.c ****   return ISP_OK;
1054:Lib/Camera_Middleware/cmw_camera.c **** }
  49              		.loc 1 1054 1 view .LVU5
  50 0002 0020     		movs	r0, #0
  51              	.LVL1:
  52              	.LBB29:
  53              	.LBB28:
 700:Lib/Camera_Middleware/cmw_camera.c ****   return CMW_ERROR_NONE;
  54              		.loc 1 700 21 view .LVU6
  55 0004 1B6A     		ldr	r3, [r3, #32]
 700:Lib/Camera_Middleware/cmw_camera.c ****   return CMW_ERROR_NONE;
  56              		.loc 1 700 9 view .LVU7
  57 0006 0B60     		str	r3, [r1]
 701:Lib/Camera_Middleware/cmw_camera.c **** }
  58              		.loc 1 701 3 is_stmt 1 view .LVU8
  59              	.LVL2:
 701:Lib/Camera_Middleware/cmw_camera.c **** }
  60              		.loc 1 701 3 is_stmt 0 view .LVU9
  61              	.LBE28:
  62              	.LBE29:
1053:Lib/Camera_Middleware/cmw_camera.c **** }
  63              		.loc 1 1053 3 is_stmt 1 view .LVU10
  64              		.loc 1 1054 1 is_stmt 0 view .LVU11
  65 0008 7047     		bx	lr
  66              	.L3:
  67 000a 00BF     		.align	2
  68              	.L2:
  69 000c 00000000 		.word	Camera_Ctx
  70              		.cfi_endproc
  71              	.LFE904:
  73              		.section	.text.CB_ISP_GetSensorExposure,"ax",%progbits
  74              		.align	1
  75              		.syntax unified
  76              		.thumb
  77              		.thumb_func
  79              	CB_ISP_GetSensorExposure:
  80              	.LVL3:
  81              	.LFB906:
ARM GAS  C:\Users\DJESSOU\AppData\Local\Temp\cc3dm0Vf.s 			page 21


1055:Lib/Camera_Middleware/cmw_camera.c **** 
1056:Lib/Camera_Middleware/cmw_camera.c **** static ISP_StatusTypeDef CB_ISP_SetSensorExposure(uint32_t camera_instance, int32_t exposure)
1057:Lib/Camera_Middleware/cmw_camera.c **** {
1058:Lib/Camera_Middleware/cmw_camera.c ****   if (CMW_CAMERA_SetExposure(exposure) != CMW_ERROR_NONE)
1059:Lib/Camera_Middleware/cmw_camera.c ****     return ISP_ERR_SENSOREXPOSURE;
1060:Lib/Camera_Middleware/cmw_camera.c **** 
1061:Lib/Camera_Middleware/cmw_camera.c ****   return ISP_OK;
1062:Lib/Camera_Middleware/cmw_camera.c **** }
1063:Lib/Camera_Middleware/cmw_camera.c **** 
1064:Lib/Camera_Middleware/cmw_camera.c **** static ISP_StatusTypeDef CB_ISP_GetSensorExposure(uint32_t camera_instance, int32_t *exposure)
1065:Lib/Camera_Middleware/cmw_camera.c **** {
  82              		.loc 1 1065 1 is_stmt 1 view -0
  83              		.cfi_startproc
  84              		@ args = 0, pretend = 0, frame = 0
  85              		@ frame_needed = 0, uses_anonymous_args = 0
  86              		@ link register save eliminated.
1066:Lib/Camera_Middleware/cmw_camera.c ****   if (CMW_CAMERA_GetExposure(exposure) != CMW_ERROR_NONE)
  87              		.loc 1 1066 3 view .LVU13
  88              	.LBB30:
  89              	.LBI30:
 733:Lib/Camera_Middleware/cmw_camera.c **** {
  90              		.loc 1 733 5 view .LVU14
  91              	.LBB31:
 735:Lib/Camera_Middleware/cmw_camera.c ****   return CMW_ERROR_NONE;
  92              		.loc 1 735 3 view .LVU15
 735:Lib/Camera_Middleware/cmw_camera.c ****   return CMW_ERROR_NONE;
  93              		.loc 1 735 25 is_stmt 0 view .LVU16
  94 0000 024B     		ldr	r3, .L5
  95              	.LBE31:
  96              	.LBE30:
1067:Lib/Camera_Middleware/cmw_camera.c ****     return ISP_ERR_SENSOREXPOSURE;
1068:Lib/Camera_Middleware/cmw_camera.c **** 
1069:Lib/Camera_Middleware/cmw_camera.c ****   return ISP_OK;
1070:Lib/Camera_Middleware/cmw_camera.c **** }
  97              		.loc 1 1070 1 view .LVU17
  98 0002 0020     		movs	r0, #0
  99              	.LVL4:
 100              	.LBB33:
 101              	.LBB32:
 735:Lib/Camera_Middleware/cmw_camera.c ****   return CMW_ERROR_NONE;
 102              		.loc 1 735 25 view .LVU18
 103 0004 5B6A     		ldr	r3, [r3, #36]
 735:Lib/Camera_Middleware/cmw_camera.c ****   return CMW_ERROR_NONE;
 104              		.loc 1 735 13 view .LVU19
 105 0006 0B60     		str	r3, [r1]
 736:Lib/Camera_Middleware/cmw_camera.c **** }
 106              		.loc 1 736 3 is_stmt 1 view .LVU20
 107              	.LVL5:
 736:Lib/Camera_Middleware/cmw_camera.c **** }
 108              		.loc 1 736 3 is_stmt 0 view .LVU21
 109              	.LBE32:
 110              	.LBE33:
1069:Lib/Camera_Middleware/cmw_camera.c **** }
 111              		.loc 1 1069 3 is_stmt 1 view .LVU22
 112              		.loc 1 1070 1 is_stmt 0 view .LVU23
 113 0008 7047     		bx	lr
 114              	.L6:
ARM GAS  C:\Users\DJESSOU\AppData\Local\Temp\cc3dm0Vf.s 			page 22


 115 000a 00BF     		.align	2
 116              	.L5:
 117 000c 00000000 		.word	Camera_Ctx
 118              		.cfi_endproc
 119              	.LFE906:
 121              		.section	.text.CB_ISP_GetSensorInfo,"ax",%progbits
 122              		.align	1
 123              		.syntax unified
 124              		.thumb
 125              		.thumb_func
 127              	CB_ISP_GetSensorInfo:
 128              	.LVL6:
 129              	.LFB907:
1071:Lib/Camera_Middleware/cmw_camera.c **** 
1072:Lib/Camera_Middleware/cmw_camera.c **** static ISP_StatusTypeDef CB_ISP_GetSensorInfo(uint32_t camera_instance, ISP_SensorInfoTypeDef *Info
1073:Lib/Camera_Middleware/cmw_camera.c **** {
 130              		.loc 1 1073 1 is_stmt 1 view -0
 131              		.cfi_startproc
 132              		@ args = 0, pretend = 0, frame = 0
 133              		@ frame_needed = 0, uses_anonymous_args = 0
1074:Lib/Camera_Middleware/cmw_camera.c ****   if(Camera_Drv.GetSensorInfo != NULL)
 134              		.loc 1 1074 3 view .LVU25
1073:Lib/Camera_Middleware/cmw_camera.c ****   if(Camera_Drv.GetSensorInfo != NULL)
 135              		.loc 1 1073 1 is_stmt 0 view .LVU26
 136 0000 08B5     		push	{r3, lr}
 137              		.cfi_def_cfa_offset 8
 138              		.cfi_offset 3, -8
 139              		.cfi_offset 14, -4
 140              		.loc 1 1074 16 view .LVU27
 141 0002 054B     		ldr	r3, .L14
 142 0004 1B6E     		ldr	r3, [r3, #96]
 143              		.loc 1 1074 5 view .LVU28
 144 0006 13B1     		cbz	r3, .L8
1075:Lib/Camera_Middleware/cmw_camera.c ****   {
1076:Lib/Camera_Middleware/cmw_camera.c ****     if (Camera_Drv.GetSensorInfo(&camera_bsp, Info) != CMW_ERROR_NONE)
 145              		.loc 1 1076 5 is_stmt 1 view .LVU29
 146              		.loc 1 1076 9 is_stmt 0 view .LVU30
 147 0008 0448     		ldr	r0, .L14+4
 148              	.LVL7:
 149              		.loc 1 1076 9 view .LVU31
 150 000a 9847     		blx	r3
 151              	.LVL8:
 152              		.loc 1 1076 8 discriminator 1 view .LVU32
 153 000c 08B9     		cbnz	r0, .L10
 154              	.L8:
1077:Lib/Camera_Middleware/cmw_camera.c ****       return ISP_ERR_SENSOREXPOSURE;
1078:Lib/Camera_Middleware/cmw_camera.c ****   }
1079:Lib/Camera_Middleware/cmw_camera.c ****   return ISP_OK;
 155              		.loc 1 1079 10 view .LVU33
 156 000e 0020     		movs	r0, #0
 157              	.L9:
1080:Lib/Camera_Middleware/cmw_camera.c **** }
 158              		.loc 1 1080 1 view .LVU34
 159 0010 08BD     		pop	{r3, pc}
 160              	.L10:
1077:Lib/Camera_Middleware/cmw_camera.c ****       return ISP_ERR_SENSOREXPOSURE;
 161              		.loc 1 1077 14 view .LVU35
ARM GAS  C:\Users\DJESSOU\AppData\Local\Temp\cc3dm0Vf.s 			page 23


 162 0012 8320     		movs	r0, #131
 163 0014 FCE7     		b	.L9
 164              	.L15:
 165 0016 00BF     		.align	2
 166              	.L14:
 167 0018 00000000 		.word	Camera_Drv
 168 001c 00000000 		.word	camera_bsp
 169              		.cfi_endproc
 170              	.LFE907:
 172              		.section	.text.CMW_CAMERA_EnablePin,"ax",%progbits
 173              		.align	1
 174              		.syntax unified
 175              		.thumb
 176              		.thumb_func
 178              	CMW_CAMERA_EnablePin:
 179              	.LVL9:
 180              	.LFB902:
1035:Lib/Camera_Middleware/cmw_camera.c ****   HAL_GPIO_WritePin(EN_CAM_PORT, EN_CAM_PIN, value ? GPIO_PIN_SET : GPIO_PIN_RESET);
 181              		.loc 1 1035 1 is_stmt 1 view -0
 182              		.cfi_startproc
 183              		@ args = 0, pretend = 0, frame = 0
 184              		@ frame_needed = 0, uses_anonymous_args = 0
 185              		@ link register save eliminated.
1036:Lib/Camera_Middleware/cmw_camera.c **** }
 186              		.loc 1 1036 3 view .LVU37
 187 0000 021E     		subs	r2, r0, #0
 188 0002 18BF     		it	ne
 189 0004 0122     		movne	r2, #1
 190 0006 0421     		movs	r1, #4
 191 0008 0148     		ldr	r0, .L17
 192              	.LVL10:
1036:Lib/Camera_Middleware/cmw_camera.c **** }
 193              		.loc 1 1036 3 is_stmt 0 view .LVU38
 194 000a FFF7FEBF 		b	HAL_GPIO_WritePin
 195              	.LVL11:
 196              	.L18:
 197 000e 00BF     		.align	2
 198              	.L17:
 199 0010 000C0256 		.word	1442974720
 200              		.cfi_endproc
 201              	.LFE902:
 203              		.section	.text.CMW_CAMERA_ShutdownPin,"ax",%progbits
 204              		.align	1
 205              		.syntax unified
 206              		.thumb
 207              		.thumb_func
 209              	CMW_CAMERA_ShutdownPin:
 210              	.LVL12:
 211              	.LFB901:
1030:Lib/Camera_Middleware/cmw_camera.c ****   HAL_GPIO_WritePin(NRST_CAM_PORT, NRST_CAM_PIN, value ? GPIO_PIN_SET : GPIO_PIN_RESET);
 212              		.loc 1 1030 1 is_stmt 1 view -0
 213              		.cfi_startproc
 214              		@ args = 0, pretend = 0, frame = 0
 215              		@ frame_needed = 0, uses_anonymous_args = 0
 216              		@ link register save eliminated.
1031:Lib/Camera_Middleware/cmw_camera.c **** }
 217              		.loc 1 1031 3 view .LVU40
ARM GAS  C:\Users\DJESSOU\AppData\Local\Temp\cc3dm0Vf.s 			page 24


 218 0000 021E     		subs	r2, r0, #0
 219 0002 18BF     		it	ne
 220 0004 0122     		movne	r2, #1
 221 0006 4FF48071 		mov	r1, #256
 222 000a 0148     		ldr	r0, .L20
 223              	.LVL13:
1031:Lib/Camera_Middleware/cmw_camera.c **** }
 224              		.loc 1 1031 3 is_stmt 0 view .LVU41
 225 000c FFF7FEBF 		b	HAL_GPIO_WritePin
 226              	.LVL14:
 227              	.L21:
 228              		.align	2
 229              	.L20:
 230 0010 00080256 		.word	1442973696
 231              		.cfi_endproc
 232              	.LFE901:
 234              		.section	.text.CMW_CAMERA_Probe_Sensor.constprop.0,"ax",%progbits
 235              		.align	1
 236              		.syntax unified
 237              		.thumb
 238              		.thumb_func
 240              	CMW_CAMERA_Probe_Sensor.constprop.0:
 241              	.LVL15:
 242              	.LFB918:
 247:Lib/Camera_Middleware/cmw_camera.c **** {
 243              		.loc 1 247 12 is_stmt 1 view -0
 244              		.cfi_startproc
 245              		@ args = 0, pretend = 0, frame = 96
 246              		@ frame_needed = 0, uses_anonymous_args = 0
 249:Lib/Camera_Middleware/cmw_camera.c **** #if defined(USE_OV5640_SENSOR)
 247              		.loc 1 249 3 view .LVU43
 251:Lib/Camera_Middleware/cmw_camera.c ****   if (ret == CMW_ERROR_NONE)
 248              		.loc 1 251 3 view .LVU44
 249              	.LBB52:
 250              	.LBB53:
1081:Lib/Camera_Middleware/cmw_camera.c **** #endif
1082:Lib/Camera_Middleware/cmw_camera.c **** 
1083:Lib/Camera_Middleware/cmw_camera.c **** #if defined(USE_VD55G1_SENSOR)
1084:Lib/Camera_Middleware/cmw_camera.c **** static int32_t CMW_CAMERA_VD55G1_Init( CMW_Sensor_Init_t *initSensors_params)
1085:Lib/Camera_Middleware/cmw_camera.c **** {
1086:Lib/Camera_Middleware/cmw_camera.c ****   int32_t ret = CMW_ERROR_NONE;
1087:Lib/Camera_Middleware/cmw_camera.c ****   DCMIPP_CSI_ConfTypeDef csi_conf = { 0 };
1088:Lib/Camera_Middleware/cmw_camera.c ****   DCMIPP_CSI_PIPE_ConfTypeDef csi_pipe_conf = { 0 };
1089:Lib/Camera_Middleware/cmw_camera.c ****   uint32_t dt_format = 0;
1090:Lib/Camera_Middleware/cmw_camera.c ****   uint32_t dt = 0;
1091:Lib/Camera_Middleware/cmw_camera.c ****   CMW_VD55G1_config_t default_sensor_config;
1092:Lib/Camera_Middleware/cmw_camera.c ****   CMW_VD55G1_config_t *sensor_config;
1093:Lib/Camera_Middleware/cmw_camera.c **** 
1094:Lib/Camera_Middleware/cmw_camera.c ****   memset(&camera_bsp, 0, sizeof(camera_bsp));
1095:Lib/Camera_Middleware/cmw_camera.c ****   camera_bsp.vd55g1_bsp.Address     = CAMERA_VD55G1_ADDRESS;
1096:Lib/Camera_Middleware/cmw_camera.c ****   camera_bsp.vd55g1_bsp.Init        = CMW_I2C_INIT;
1097:Lib/Camera_Middleware/cmw_camera.c ****   camera_bsp.vd55g1_bsp.DeInit      = CMW_I2C_DEINIT;
1098:Lib/Camera_Middleware/cmw_camera.c ****   camera_bsp.vd55g1_bsp.WriteReg    = CMW_I2C_WRITEREG16;
1099:Lib/Camera_Middleware/cmw_camera.c ****   camera_bsp.vd55g1_bsp.ReadReg     = CMW_I2C_READREG16;
1100:Lib/Camera_Middleware/cmw_camera.c ****   camera_bsp.vd55g1_bsp.Delay       = HAL_Delay;
1101:Lib/Camera_Middleware/cmw_camera.c ****   camera_bsp.vd55g1_bsp.ShutdownPin = CMW_CAMERA_ShutdownPin;
1102:Lib/Camera_Middleware/cmw_camera.c ****   camera_bsp.vd55g1_bsp.EnablePin   = CMW_CAMERA_EnablePin;
ARM GAS  C:\Users\DJESSOU\AppData\Local\Temp\cc3dm0Vf.s 			page 25


1103:Lib/Camera_Middleware/cmw_camera.c **** 
1104:Lib/Camera_Middleware/cmw_camera.c ****   ret = CMW_VD55G1_Probe(&camera_bsp.vd55g1_bsp, &Camera_Drv);
1105:Lib/Camera_Middleware/cmw_camera.c ****   if (ret != CMW_ERROR_NONE)
1106:Lib/Camera_Middleware/cmw_camera.c ****   {
1107:Lib/Camera_Middleware/cmw_camera.c ****     return CMW_ERROR_COMPONENT_FAILURE;
1108:Lib/Camera_Middleware/cmw_camera.c ****   }
1109:Lib/Camera_Middleware/cmw_camera.c **** 
1110:Lib/Camera_Middleware/cmw_camera.c ****   if ((connected_sensor != CMW_VD55G1_Sensor) && (connected_sensor != CMW_UNKNOWN_Sensor))
1111:Lib/Camera_Middleware/cmw_camera.c ****   {
1112:Lib/Camera_Middleware/cmw_camera.c ****     /* If the selected sensor in the application side has selected a different sensors than VD55G1 
1113:Lib/Camera_Middleware/cmw_camera.c ****     return CMW_ERROR_COMPONENT_FAILURE;
1114:Lib/Camera_Middleware/cmw_camera.c ****   }
1115:Lib/Camera_Middleware/cmw_camera.c **** 
1116:Lib/Camera_Middleware/cmw_camera.c ****   /* Special case: when resolution is not specified take the full sensor resolution */
1117:Lib/Camera_Middleware/cmw_camera.c ****   if ((initSensors_params->width == 0) || (initSensors_params->height == 0))
1118:Lib/Camera_Middleware/cmw_camera.c ****   {
1119:Lib/Camera_Middleware/cmw_camera.c ****     initSensors_params->width = VD55G1_MAX_WIDTH;
1120:Lib/Camera_Middleware/cmw_camera.c ****     initSensors_params->height = VD55G1_MAX_HEIGHT;
1121:Lib/Camera_Middleware/cmw_camera.c ****   }
1122:Lib/Camera_Middleware/cmw_camera.c **** 
1123:Lib/Camera_Middleware/cmw_camera.c ****   CMW_VD55G1_SetDefaultSensorValues(&default_sensor_config);
1124:Lib/Camera_Middleware/cmw_camera.c ****   initSensors_params->sensor_config = initSensors_params->sensor_config ? initSensors_params->senso
1125:Lib/Camera_Middleware/cmw_camera.c ****   sensor_config = (CMW_VD55G1_config_t*) (initSensors_params->sensor_config);
1126:Lib/Camera_Middleware/cmw_camera.c **** 
1127:Lib/Camera_Middleware/cmw_camera.c ****   ret = Camera_Drv.Init(&camera_bsp, initSensors_params);
1128:Lib/Camera_Middleware/cmw_camera.c ****   if (ret != CMW_ERROR_NONE)
1129:Lib/Camera_Middleware/cmw_camera.c ****   {
1130:Lib/Camera_Middleware/cmw_camera.c ****     return CMW_ERROR_COMPONENT_FAILURE;
1131:Lib/Camera_Middleware/cmw_camera.c ****   }
1132:Lib/Camera_Middleware/cmw_camera.c **** 
1133:Lib/Camera_Middleware/cmw_camera.c ****   csi_conf.NumberOfLanes = DCMIPP_CSI_ONE_DATA_LANE;
1134:Lib/Camera_Middleware/cmw_camera.c ****   csi_conf.DataLaneMapping = DCMIPP_CSI_PHYSICAL_DATA_LANES;
1135:Lib/Camera_Middleware/cmw_camera.c ****   csi_conf.PHYBitrate = DCMIPP_CSI_PHY_BT_800;
1136:Lib/Camera_Middleware/cmw_camera.c ****   ret = HAL_DCMIPP_CSI_SetConfig(&hcamera_dcmipp, &csi_conf);
1137:Lib/Camera_Middleware/cmw_camera.c ****   if (ret != HAL_OK)
1138:Lib/Camera_Middleware/cmw_camera.c ****   {
1139:Lib/Camera_Middleware/cmw_camera.c ****     return CMW_ERROR_PERIPH_FAILURE;
1140:Lib/Camera_Middleware/cmw_camera.c ****   }
1141:Lib/Camera_Middleware/cmw_camera.c **** 
1142:Lib/Camera_Middleware/cmw_camera.c ****   switch (sensor_config->pixel_format)
1143:Lib/Camera_Middleware/cmw_camera.c ****   {
1144:Lib/Camera_Middleware/cmw_camera.c ****     case CMW_PIXEL_FORMAT_RAW8:
1145:Lib/Camera_Middleware/cmw_camera.c ****     {
1146:Lib/Camera_Middleware/cmw_camera.c ****       dt_format = DCMIPP_CSI_DT_BPP8;
1147:Lib/Camera_Middleware/cmw_camera.c ****       dt = DCMIPP_DT_RAW8;
1148:Lib/Camera_Middleware/cmw_camera.c ****       break;
1149:Lib/Camera_Middleware/cmw_camera.c ****     }
1150:Lib/Camera_Middleware/cmw_camera.c ****     case CMW_PIXEL_FORMAT_RAW10:
1151:Lib/Camera_Middleware/cmw_camera.c ****     case CMW_PIXEL_FORMAT_DEFAULT:
1152:Lib/Camera_Middleware/cmw_camera.c ****     {
1153:Lib/Camera_Middleware/cmw_camera.c ****       dt_format = DCMIPP_CSI_DT_BPP10;
1154:Lib/Camera_Middleware/cmw_camera.c ****       dt = DCMIPP_DT_RAW10;
1155:Lib/Camera_Middleware/cmw_camera.c ****       break;
1156:Lib/Camera_Middleware/cmw_camera.c ****     }
1157:Lib/Camera_Middleware/cmw_camera.c ****     default:
1158:Lib/Camera_Middleware/cmw_camera.c ****       return CMW_ERROR_COMPONENT_FAILURE;
1159:Lib/Camera_Middleware/cmw_camera.c ****   }
ARM GAS  C:\Users\DJESSOU\AppData\Local\Temp\cc3dm0Vf.s 			page 26


1160:Lib/Camera_Middleware/cmw_camera.c **** 
1161:Lib/Camera_Middleware/cmw_camera.c ****   ret = HAL_DCMIPP_CSI_SetVCConfig(&hcamera_dcmipp, DCMIPP_VIRTUAL_CHANNEL0, dt_format);
1162:Lib/Camera_Middleware/cmw_camera.c ****   if (ret != HAL_OK)
1163:Lib/Camera_Middleware/cmw_camera.c ****   {
1164:Lib/Camera_Middleware/cmw_camera.c ****     return CMW_ERROR_PERIPH_FAILURE;
1165:Lib/Camera_Middleware/cmw_camera.c ****   }
1166:Lib/Camera_Middleware/cmw_camera.c **** 
1167:Lib/Camera_Middleware/cmw_camera.c ****   csi_pipe_conf.DataTypeMode = DCMIPP_DTMODE_DTIDA;
1168:Lib/Camera_Middleware/cmw_camera.c ****   csi_pipe_conf.DataTypeIDA = dt;
1169:Lib/Camera_Middleware/cmw_camera.c ****   csi_pipe_conf.DataTypeIDB = 0;
1170:Lib/Camera_Middleware/cmw_camera.c ****   /* Pre-initialize CSI config for all the pipes */
1171:Lib/Camera_Middleware/cmw_camera.c ****   for (uint32_t i = DCMIPP_PIPE0; i <= DCMIPP_PIPE2; i++)
1172:Lib/Camera_Middleware/cmw_camera.c ****   {
1173:Lib/Camera_Middleware/cmw_camera.c ****     ret = HAL_DCMIPP_CSI_PIPE_SetConfig(&hcamera_dcmipp, i, &csi_pipe_conf);
1174:Lib/Camera_Middleware/cmw_camera.c ****     if (ret != HAL_OK)
1175:Lib/Camera_Middleware/cmw_camera.c ****     {
1176:Lib/Camera_Middleware/cmw_camera.c ****       return CMW_ERROR_PERIPH_FAILURE;
1177:Lib/Camera_Middleware/cmw_camera.c ****     }
1178:Lib/Camera_Middleware/cmw_camera.c ****   }
1179:Lib/Camera_Middleware/cmw_camera.c **** 
1180:Lib/Camera_Middleware/cmw_camera.c ****   return CMW_ERROR_NONE;
1181:Lib/Camera_Middleware/cmw_camera.c **** }
1182:Lib/Camera_Middleware/cmw_camera.c **** #endif
1183:Lib/Camera_Middleware/cmw_camera.c **** 
1184:Lib/Camera_Middleware/cmw_camera.c **** #if defined(USE_VD65G4_SENSOR)
1185:Lib/Camera_Middleware/cmw_camera.c **** static int32_t CMW_CAMERA_VD65G4_Init( CMW_Sensor_Init_t *initSensors_params)
1186:Lib/Camera_Middleware/cmw_camera.c **** {
1187:Lib/Camera_Middleware/cmw_camera.c ****   int32_t ret = CMW_ERROR_NONE;
1188:Lib/Camera_Middleware/cmw_camera.c ****   DCMIPP_CSI_ConfTypeDef csi_conf = { 0 };
1189:Lib/Camera_Middleware/cmw_camera.c ****   DCMIPP_CSI_PIPE_ConfTypeDef csi_pipe_conf = { 0 };
1190:Lib/Camera_Middleware/cmw_camera.c ****   uint32_t dt_format = 0;
1191:Lib/Camera_Middleware/cmw_camera.c ****   uint32_t dt = 0;
1192:Lib/Camera_Middleware/cmw_camera.c ****   CMW_VD65G4_config_t default_sensor_config;
1193:Lib/Camera_Middleware/cmw_camera.c ****   CMW_VD65G4_config_t *sensor_config;
1194:Lib/Camera_Middleware/cmw_camera.c **** 
1195:Lib/Camera_Middleware/cmw_camera.c ****   memset(&camera_bsp, 0, sizeof(camera_bsp));
1196:Lib/Camera_Middleware/cmw_camera.c ****   camera_bsp.vd65g4_bsp.Address     = CAMERA_VD65G4_ADDRESS;
1197:Lib/Camera_Middleware/cmw_camera.c ****   camera_bsp.vd65g4_bsp.Init        = CMW_I2C_INIT;
1198:Lib/Camera_Middleware/cmw_camera.c ****   camera_bsp.vd65g4_bsp.DeInit      = CMW_I2C_DEINIT;
1199:Lib/Camera_Middleware/cmw_camera.c ****   camera_bsp.vd65g4_bsp.WriteReg    = CMW_I2C_WRITEREG16;
1200:Lib/Camera_Middleware/cmw_camera.c ****   camera_bsp.vd65g4_bsp.ReadReg     = CMW_I2C_READREG16;
1201:Lib/Camera_Middleware/cmw_camera.c ****   camera_bsp.vd65g4_bsp.Delay       = HAL_Delay;
1202:Lib/Camera_Middleware/cmw_camera.c ****   camera_bsp.vd65g4_bsp.ShutdownPin = CMW_CAMERA_ShutdownPin;
1203:Lib/Camera_Middleware/cmw_camera.c ****   camera_bsp.vd65g4_bsp.EnablePin   = CMW_CAMERA_EnablePin;
1204:Lib/Camera_Middleware/cmw_camera.c **** 
1205:Lib/Camera_Middleware/cmw_camera.c ****   ret = CMW_VD65G4_Probe(&camera_bsp.vd65g4_bsp, &Camera_Drv);
1206:Lib/Camera_Middleware/cmw_camera.c ****   if (ret != CMW_ERROR_NONE)
1207:Lib/Camera_Middleware/cmw_camera.c ****   {
1208:Lib/Camera_Middleware/cmw_camera.c ****     return CMW_ERROR_COMPONENT_FAILURE;
1209:Lib/Camera_Middleware/cmw_camera.c ****   }
1210:Lib/Camera_Middleware/cmw_camera.c **** 
1211:Lib/Camera_Middleware/cmw_camera.c ****   if ((connected_sensor != CMW_VD65G4_Sensor) && (connected_sensor != CMW_UNKNOWN_Sensor))
1212:Lib/Camera_Middleware/cmw_camera.c ****   {
1213:Lib/Camera_Middleware/cmw_camera.c ****     /* If the selected sensor in the application side has selected a different sensors than VD65G4 
1214:Lib/Camera_Middleware/cmw_camera.c ****     return CMW_ERROR_COMPONENT_FAILURE;
1215:Lib/Camera_Middleware/cmw_camera.c ****   }
1216:Lib/Camera_Middleware/cmw_camera.c **** 
ARM GAS  C:\Users\DJESSOU\AppData\Local\Temp\cc3dm0Vf.s 			page 27


1217:Lib/Camera_Middleware/cmw_camera.c ****   /* Special case: when resolution is not specified take the full sensor resolution */
1218:Lib/Camera_Middleware/cmw_camera.c ****   if ((initSensors_params->width == 0U) || (initSensors_params->height == 0U))
1219:Lib/Camera_Middleware/cmw_camera.c ****   {
1220:Lib/Camera_Middleware/cmw_camera.c ****     initSensors_params->width = VD55G1_MAX_WIDTH;
1221:Lib/Camera_Middleware/cmw_camera.c ****     initSensors_params->height = VD55G1_MAX_HEIGHT;
1222:Lib/Camera_Middleware/cmw_camera.c ****   }
1223:Lib/Camera_Middleware/cmw_camera.c **** 
1224:Lib/Camera_Middleware/cmw_camera.c ****   CMW_VD65G4_SetDefaultSensorValues(&default_sensor_config);
1225:Lib/Camera_Middleware/cmw_camera.c ****   initSensors_params->sensor_config = initSensors_params->sensor_config ? initSensors_params->senso
1226:Lib/Camera_Middleware/cmw_camera.c ****   sensor_config = (CMW_VD65G4_config_t*)(initSensors_params->sensor_config);
1227:Lib/Camera_Middleware/cmw_camera.c **** 
1228:Lib/Camera_Middleware/cmw_camera.c ****   ret = Camera_Drv.Init(&camera_bsp, initSensors_params);
1229:Lib/Camera_Middleware/cmw_camera.c ****   if (ret != CMW_ERROR_NONE)
1230:Lib/Camera_Middleware/cmw_camera.c ****   {
1231:Lib/Camera_Middleware/cmw_camera.c ****     return CMW_ERROR_COMPONENT_FAILURE;
1232:Lib/Camera_Middleware/cmw_camera.c ****   }
1233:Lib/Camera_Middleware/cmw_camera.c **** 
1234:Lib/Camera_Middleware/cmw_camera.c ****   csi_conf.NumberOfLanes = DCMIPP_CSI_ONE_DATA_LANE;
1235:Lib/Camera_Middleware/cmw_camera.c ****   csi_conf.DataLaneMapping = DCMIPP_CSI_PHYSICAL_DATA_LANES;
1236:Lib/Camera_Middleware/cmw_camera.c ****   csi_conf.PHYBitrate = DCMIPP_CSI_PHY_BT_800;
1237:Lib/Camera_Middleware/cmw_camera.c ****   ret = HAL_DCMIPP_CSI_SetConfig(&hcamera_dcmipp, &csi_conf);
1238:Lib/Camera_Middleware/cmw_camera.c ****   if (ret != HAL_OK)
1239:Lib/Camera_Middleware/cmw_camera.c ****   {
1240:Lib/Camera_Middleware/cmw_camera.c ****     return CMW_ERROR_PERIPH_FAILURE;
1241:Lib/Camera_Middleware/cmw_camera.c ****   }
1242:Lib/Camera_Middleware/cmw_camera.c **** 
1243:Lib/Camera_Middleware/cmw_camera.c ****   switch (sensor_config->pixel_format)
1244:Lib/Camera_Middleware/cmw_camera.c ****   {
1245:Lib/Camera_Middleware/cmw_camera.c ****     case CMW_PIXEL_FORMAT_RAW8:
1246:Lib/Camera_Middleware/cmw_camera.c ****     {
1247:Lib/Camera_Middleware/cmw_camera.c ****       dt_format = DCMIPP_CSI_DT_BPP8;
1248:Lib/Camera_Middleware/cmw_camera.c ****       dt = DCMIPP_DT_RAW8;
1249:Lib/Camera_Middleware/cmw_camera.c ****       break;
1250:Lib/Camera_Middleware/cmw_camera.c ****     }
1251:Lib/Camera_Middleware/cmw_camera.c ****     case CMW_PIXEL_FORMAT_RAW10:
1252:Lib/Camera_Middleware/cmw_camera.c ****     case CMW_PIXEL_FORMAT_DEFAULT:
1253:Lib/Camera_Middleware/cmw_camera.c ****     {
1254:Lib/Camera_Middleware/cmw_camera.c ****       dt_format = DCMIPP_CSI_DT_BPP10;
1255:Lib/Camera_Middleware/cmw_camera.c ****       dt = DCMIPP_DT_RAW10;
1256:Lib/Camera_Middleware/cmw_camera.c ****       break;
1257:Lib/Camera_Middleware/cmw_camera.c ****     }
1258:Lib/Camera_Middleware/cmw_camera.c ****     default:
1259:Lib/Camera_Middleware/cmw_camera.c ****       return CMW_ERROR_COMPONENT_FAILURE;
1260:Lib/Camera_Middleware/cmw_camera.c ****   }
1261:Lib/Camera_Middleware/cmw_camera.c **** 
1262:Lib/Camera_Middleware/cmw_camera.c ****   ret = HAL_DCMIPP_CSI_SetVCConfig(&hcamera_dcmipp, DCMIPP_VIRTUAL_CHANNEL0, dt_format);
1263:Lib/Camera_Middleware/cmw_camera.c ****   if (ret != HAL_OK)
1264:Lib/Camera_Middleware/cmw_camera.c ****   {
1265:Lib/Camera_Middleware/cmw_camera.c ****     return CMW_ERROR_PERIPH_FAILURE;
1266:Lib/Camera_Middleware/cmw_camera.c ****   }
1267:Lib/Camera_Middleware/cmw_camera.c **** 
1268:Lib/Camera_Middleware/cmw_camera.c ****   csi_pipe_conf.DataTypeMode = DCMIPP_DTMODE_DTIDA;
1269:Lib/Camera_Middleware/cmw_camera.c ****   csi_pipe_conf.DataTypeIDA = dt;
1270:Lib/Camera_Middleware/cmw_camera.c ****   csi_pipe_conf.DataTypeIDB = 0U;
1271:Lib/Camera_Middleware/cmw_camera.c ****   /* Pre-initialize CSI config for all the pipes */
1272:Lib/Camera_Middleware/cmw_camera.c ****   for (uint32_t i = DCMIPP_PIPE0; i <= DCMIPP_PIPE2; i++)
1273:Lib/Camera_Middleware/cmw_camera.c ****   {
ARM GAS  C:\Users\DJESSOU\AppData\Local\Temp\cc3dm0Vf.s 			page 28


1274:Lib/Camera_Middleware/cmw_camera.c ****     ret = HAL_DCMIPP_CSI_PIPE_SetConfig(&hcamera_dcmipp, i, &csi_pipe_conf);
1275:Lib/Camera_Middleware/cmw_camera.c ****     if (ret != HAL_OK)
1276:Lib/Camera_Middleware/cmw_camera.c ****     {
1277:Lib/Camera_Middleware/cmw_camera.c ****       return CMW_ERROR_PERIPH_FAILURE;
1278:Lib/Camera_Middleware/cmw_camera.c ****     }
1279:Lib/Camera_Middleware/cmw_camera.c ****   }
1280:Lib/Camera_Middleware/cmw_camera.c **** 
1281:Lib/Camera_Middleware/cmw_camera.c ****   return CMW_ERROR_NONE;
1282:Lib/Camera_Middleware/cmw_camera.c **** }
1283:Lib/Camera_Middleware/cmw_camera.c **** #endif
1284:Lib/Camera_Middleware/cmw_camera.c **** 
1285:Lib/Camera_Middleware/cmw_camera.c **** #if defined(USE_OV5640_SENSOR)
1286:Lib/Camera_Middleware/cmw_camera.c **** static int32_t CMW_CAMERA_OV5640_Init( CMW_Sensor_Init_t *initSensors_params)
1287:Lib/Camera_Middleware/cmw_camera.c **** {
1288:Lib/Camera_Middleware/cmw_camera.c ****   int32_t ret = CMW_ERROR_NONE;
1289:Lib/Camera_Middleware/cmw_camera.c ****   DCMIPP_CSI_ConfTypeDef csi_conf = { 0 };
 251              		.loc 1 1289 26 is_stmt 0 view .LVU45
 252 0000 0021     		movs	r1, #0
 253              	.LBE53:
 254              	.LBE52:
 247:Lib/Camera_Middleware/cmw_camera.c **** {
 255              		.loc 1 247 12 view .LVU46
 256 0002 2DE9F04F 		push	{r4, r5, r6, r7, r8, r9, r10, fp, lr}
 257              		.cfi_def_cfa_offset 36
 258              		.cfi_offset 4, -36
 259              		.cfi_offset 5, -32
 260              		.cfi_offset 6, -28
 261              		.cfi_offset 7, -24
 262              		.cfi_offset 8, -20
 263              		.cfi_offset 9, -16
 264              		.cfi_offset 10, -12
 265              		.cfi_offset 11, -8
 266              		.cfi_offset 14, -4
 267              	.LBB62:
 268              	.LBB57:
1290:Lib/Camera_Middleware/cmw_camera.c ****   DCMIPP_CSI_PIPE_ConfTypeDef csi_pipe_conf = { 0 };
1291:Lib/Camera_Middleware/cmw_camera.c ****   uint32_t dt_format = 0;
1292:Lib/Camera_Middleware/cmw_camera.c ****   uint32_t dt = 0;
1293:Lib/Camera_Middleware/cmw_camera.c ****  CMW_OV5640_config_t default_sensor_config;
1294:Lib/Camera_Middleware/cmw_camera.c ****  CMW_OV5640_config_t *sensor_config;
1295:Lib/Camera_Middleware/cmw_camera.c **** 
1296:Lib/Camera_Middleware/cmw_camera.c ****   memset(&camera_bsp, 0, sizeof(camera_bsp));
 269              		.loc 1 1296 3 view .LVU47
 270 0006 DFF83C82 		ldr	r8, .L131+32
 271              	.LBE57:
 272              	.LBE62:
 247:Lib/Camera_Middleware/cmw_camera.c **** {
 273              		.loc 1 247 12 view .LVU48
 274 000a 99B0     		sub	sp, sp, #100
 275              		.cfi_def_cfa_offset 136
 276              	.LBB63:
 277              	.LBB58:
1289:Lib/Camera_Middleware/cmw_camera.c ****   DCMIPP_CSI_PIPE_ConfTypeDef csi_pipe_conf = { 0 };
 278              		.loc 1 1289 26 view .LVU49
 279 000c 02AD     		add	r5, sp, #8
 280 000e 0291     		str	r1, [sp, #8]
 281              		.loc 1 1296 3 view .LVU50
ARM GAS  C:\Users\DJESSOU\AppData\Local\Temp\cc3dm0Vf.s 			page 29


 282 0010 4FF4B472 		mov	r2, #360
1289:Lib/Camera_Middleware/cmw_camera.c ****   DCMIPP_CSI_PIPE_ConfTypeDef csi_pipe_conf = { 0 };
 283              		.loc 1 1289 26 view .LVU51
 284 0014 C5E90111 		strd	r1, r1, [r5, #4]
 285              	.LBE58:
 286              	.LBE63:
 247:Lib/Camera_Middleware/cmw_camera.c **** {
 287              		.loc 1 247 12 view .LVU52
 288 0018 0446     		mov	r4, r0
 289              	.LVL16:
 290              	.LBB64:
 291              	.LBI52:
1286:Lib/Camera_Middleware/cmw_camera.c **** {
 292              		.loc 1 1286 16 is_stmt 1 view .LVU53
 293              	.LBB59:
1288:Lib/Camera_Middleware/cmw_camera.c ****   DCMIPP_CSI_ConfTypeDef csi_conf = { 0 };
 294              		.loc 1 1288 3 view .LVU54
1289:Lib/Camera_Middleware/cmw_camera.c ****   DCMIPP_CSI_PIPE_ConfTypeDef csi_pipe_conf = { 0 };
 295              		.loc 1 1289 3 view .LVU55
1290:Lib/Camera_Middleware/cmw_camera.c ****   uint32_t dt_format = 0;
 296              		.loc 1 1290 3 view .LVU56
 297              		.loc 1 1296 3 is_stmt 0 view .LVU57
 298 001a 4046     		mov	r0, r8
 299              	.LVL17:
1290:Lib/Camera_Middleware/cmw_camera.c ****   uint32_t dt_format = 0;
 300              		.loc 1 1290 31 view .LVU58
 301 001c CDE90511 		strd	r1, r1, [sp, #20]
 302 0020 0791     		str	r1, [sp, #28]
1291:Lib/Camera_Middleware/cmw_camera.c ****   uint32_t dt = 0;
 303              		.loc 1 1291 3 is_stmt 1 view .LVU59
 304              	.LVL18:
1292:Lib/Camera_Middleware/cmw_camera.c ****  CMW_OV5640_config_t default_sensor_config;
 305              		.loc 1 1292 3 view .LVU60
1293:Lib/Camera_Middleware/cmw_camera.c ****  CMW_OV5640_config_t *sensor_config;
 306              		.loc 1 1293 2 view .LVU61
1294:Lib/Camera_Middleware/cmw_camera.c **** 
 307              		.loc 1 1294 2 view .LVU62
 308              		.loc 1 1296 3 view .LVU63
 309 0022 FFF7FEFF 		bl	memset
 310              	.LVL19:
1297:Lib/Camera_Middleware/cmw_camera.c ****   camera_bsp.ov5640_bsp.Address     = CAMERA_OV5640_ADDRESS;
 311              		.loc 1 1297 3 view .LVU64
 312              		.loc 1 1297 37 is_stmt 0 view .LVU65
 313 0026 7822     		movs	r2, #120
1298:Lib/Camera_Middleware/cmw_camera.c ****   camera_bsp.ov5640_bsp.Init        = CMW_I2C_INIT;
1299:Lib/Camera_Middleware/cmw_camera.c ****   camera_bsp.ov5640_bsp.DeInit      = CMW_I2C_DEINIT;
1300:Lib/Camera_Middleware/cmw_camera.c ****   camera_bsp.ov5640_bsp.WriteReg    = CMW_I2C_WRITEREG16;
1301:Lib/Camera_Middleware/cmw_camera.c ****   camera_bsp.ov5640_bsp.ReadReg     = CMW_I2C_READREG16;
 314              		.loc 1 1301 37 view .LVU66
 315 0028 7E4B     		ldr	r3, .L131
1298:Lib/Camera_Middleware/cmw_camera.c ****   camera_bsp.ov5640_bsp.Init        = CMW_I2C_INIT;
 316              		.loc 1 1298 37 view .LVU67
 317 002a DFF820A2 		ldr	r10, .L131+40
 318              		.loc 1 1301 37 view .LVU68
 319 002e C8F84430 		str	r3, [r8, #68]
1302:Lib/Camera_Middleware/cmw_camera.c ****   camera_bsp.ov5640_bsp.GetTick     = BSP_GetTick;
 320              		.loc 1 1302 37 view .LVU69
ARM GAS  C:\Users\DJESSOU\AppData\Local\Temp\cc3dm0Vf.s 			page 30


 321 0032 7D4B     		ldr	r3, .L131+4
1299:Lib/Camera_Middleware/cmw_camera.c ****   camera_bsp.ov5640_bsp.WriteReg    = CMW_I2C_WRITEREG16;
 322              		.loc 1 1299 37 view .LVU70
 323 0034 DFF81892 		ldr	r9, .L131+44
1300:Lib/Camera_Middleware/cmw_camera.c ****   camera_bsp.ov5640_bsp.ReadReg     = CMW_I2C_READREG16;
 324              		.loc 1 1300 37 view .LVU71
 325 0038 7C4F     		ldr	r7, .L131+8
1303:Lib/Camera_Middleware/cmw_camera.c ****   camera_bsp.ov5640_bsp.Delay       = HAL_Delay;
 326              		.loc 1 1303 37 view .LVU72
 327 003a 7D4E     		ldr	r6, .L131+12
1297:Lib/Camera_Middleware/cmw_camera.c ****   camera_bsp.ov5640_bsp.Init        = CMW_I2C_INIT;
 328              		.loc 1 1297 37 view .LVU73
 329 003c A8F80020 		strh	r2, [r8]	@ movhi
1298:Lib/Camera_Middleware/cmw_camera.c ****   camera_bsp.ov5640_bsp.DeInit      = CMW_I2C_DEINIT;
 330              		.loc 1 1298 3 is_stmt 1 view .LVU74
1302:Lib/Camera_Middleware/cmw_camera.c ****   camera_bsp.ov5640_bsp.Delay       = HAL_Delay;
 331              		.loc 1 1302 37 is_stmt 0 view .LVU75
 332 0040 C8F84830 		str	r3, [r8, #72]
1304:Lib/Camera_Middleware/cmw_camera.c ****   camera_bsp.ov5640_bsp.ShutdownPin = CMW_CAMERA_ShutdownPin;
1305:Lib/Camera_Middleware/cmw_camera.c ****   camera_bsp.ov5640_bsp.EnablePin   = CMW_CAMERA_EnablePin;
 333              		.loc 1 1305 37 view .LVU76
 334 0044 7B4A     		ldr	r2, .L131+16
1304:Lib/Camera_Middleware/cmw_camera.c ****   camera_bsp.ov5640_bsp.ShutdownPin = CMW_CAMERA_ShutdownPin;
 335              		.loc 1 1304 37 view .LVU77
 336 0046 7C4B     		ldr	r3, .L131+20
1306:Lib/Camera_Middleware/cmw_camera.c **** 
1307:Lib/Camera_Middleware/cmw_camera.c ****   ret = CMW_OV5640_Probe(&camera_bsp.ov5640_bsp, &Camera_Drv);
 337              		.loc 1 1307 9 view .LVU78
 338 0048 4046     		mov	r0, r8
 339 004a 7C49     		ldr	r1, .L131+24
1298:Lib/Camera_Middleware/cmw_camera.c ****   camera_bsp.ov5640_bsp.DeInit      = CMW_I2C_DEINIT;
 340              		.loc 1 1298 37 view .LVU79
 341 004c C8F838A0 		str	r10, [r8, #56]
1299:Lib/Camera_Middleware/cmw_camera.c ****   camera_bsp.ov5640_bsp.WriteReg    = CMW_I2C_WRITEREG16;
 342              		.loc 1 1299 3 is_stmt 1 view .LVU80
1299:Lib/Camera_Middleware/cmw_camera.c ****   camera_bsp.ov5640_bsp.WriteReg    = CMW_I2C_WRITEREG16;
 343              		.loc 1 1299 37 is_stmt 0 view .LVU81
 344 0050 C8F83C90 		str	r9, [r8, #60]
1300:Lib/Camera_Middleware/cmw_camera.c ****   camera_bsp.ov5640_bsp.ReadReg     = CMW_I2C_READREG16;
 345              		.loc 1 1300 3 is_stmt 1 view .LVU82
1300:Lib/Camera_Middleware/cmw_camera.c ****   camera_bsp.ov5640_bsp.ReadReg     = CMW_I2C_READREG16;
 346              		.loc 1 1300 37 is_stmt 0 view .LVU83
 347 0054 C8F84070 		str	r7, [r8, #64]
1301:Lib/Camera_Middleware/cmw_camera.c ****   camera_bsp.ov5640_bsp.GetTick     = BSP_GetTick;
 348              		.loc 1 1301 3 is_stmt 1 view .LVU84
1302:Lib/Camera_Middleware/cmw_camera.c ****   camera_bsp.ov5640_bsp.Delay       = HAL_Delay;
 349              		.loc 1 1302 3 view .LVU85
1303:Lib/Camera_Middleware/cmw_camera.c ****   camera_bsp.ov5640_bsp.ShutdownPin = CMW_CAMERA_ShutdownPin;
 350              		.loc 1 1303 3 view .LVU86
1303:Lib/Camera_Middleware/cmw_camera.c ****   camera_bsp.ov5640_bsp.ShutdownPin = CMW_CAMERA_ShutdownPin;
 351              		.loc 1 1303 37 is_stmt 0 view .LVU87
 352 0058 C8F84C60 		str	r6, [r8, #76]
1304:Lib/Camera_Middleware/cmw_camera.c ****   camera_bsp.ov5640_bsp.EnablePin   = CMW_CAMERA_EnablePin;
 353              		.loc 1 1304 3 is_stmt 1 view .LVU88
1304:Lib/Camera_Middleware/cmw_camera.c ****   camera_bsp.ov5640_bsp.EnablePin   = CMW_CAMERA_EnablePin;
 354              		.loc 1 1304 37 is_stmt 0 view .LVU89
 355 005c C8F85030 		str	r3, [r8, #80]
ARM GAS  C:\Users\DJESSOU\AppData\Local\Temp\cc3dm0Vf.s 			page 31


1305:Lib/Camera_Middleware/cmw_camera.c **** 
 356              		.loc 1 1305 3 is_stmt 1 view .LVU90
1305:Lib/Camera_Middleware/cmw_camera.c **** 
 357              		.loc 1 1305 37 is_stmt 0 view .LVU91
 358 0060 C8F85420 		str	r2, [r8, #84]
 359              		.loc 1 1307 3 is_stmt 1 view .LVU92
 360              		.loc 1 1307 9 is_stmt 0 view .LVU93
 361 0064 FFF7FEFF 		bl	CMW_OV5640_Probe
 362              	.LVL20:
1308:Lib/Camera_Middleware/cmw_camera.c ****   if (ret != CMW_ERROR_NONE)
 363              		.loc 1 1308 3 is_stmt 1 view .LVU94
 364              		.loc 1 1308 6 is_stmt 0 view .LVU95
 365 0068 0028     		cmp	r0, #0
 366 006a 3FD1     		bne	.L24
1309:Lib/Camera_Middleware/cmw_camera.c ****   {
1310:Lib/Camera_Middleware/cmw_camera.c ****     return CMW_ERROR_COMPONENT_FAILURE;
1311:Lib/Camera_Middleware/cmw_camera.c ****   }
1312:Lib/Camera_Middleware/cmw_camera.c **** 
1313:Lib/Camera_Middleware/cmw_camera.c ****   if ((connected_sensor != CMW_OV5640_Sensor) && (connected_sensor != CMW_UNKNOWN_Sensor))
 367              		.loc 1 1313 3 is_stmt 1 view .LVU96
 368              		.loc 1 1313 25 is_stmt 0 view .LVU97
 369 006c 744A     		ldr	r2, .L131+28
 370              		.loc 1 1313 6 view .LVU98
 371 006e 1278     		ldrb	r2, [r2]	@ zero_extendqisi2
 372 0070 12F0FB0F 		tst	r2, #251
 373 0074 3AD1     		bne	.L24
1314:Lib/Camera_Middleware/cmw_camera.c ****   {
1315:Lib/Camera_Middleware/cmw_camera.c ****     /* If the selected sensor in the application side has selected a different sensors than OV5640 
1316:Lib/Camera_Middleware/cmw_camera.c ****     return CMW_ERROR_COMPONENT_FAILURE;
1317:Lib/Camera_Middleware/cmw_camera.c ****   }
1318:Lib/Camera_Middleware/cmw_camera.c **** 
1319:Lib/Camera_Middleware/cmw_camera.c ****   /* Special case: when resolution is not specified take the full sensor resolution */
1320:Lib/Camera_Middleware/cmw_camera.c ****   if ((initSensors_params->width == 0) || (initSensors_params->height == 0))
 374              		.loc 1 1320 3 is_stmt 1 view .LVU99
 375              		.loc 1 1320 6 is_stmt 0 view .LVU100
 376 0076 2268     		ldr	r2, [r4]
 377 0078 0DF1200B 		add	fp, sp, #32
 378 007c 0AB1     		cbz	r2, .L26
 379              		.loc 1 1320 40 discriminator 1 view .LVU101
 380 007e 6268     		ldr	r2, [r4, #4]
 381 0080 42B9     		cbnz	r2, .L27
 382              	.L26:
 383              	.LBB54:
1321:Lib/Camera_Middleware/cmw_camera.c ****   {
1322:Lib/Camera_Middleware/cmw_camera.c ****     ISP_SensorInfoTypeDef sensor_info;
 384              		.loc 1 1322 5 is_stmt 1 view .LVU102
1323:Lib/Camera_Middleware/cmw_camera.c ****     Camera_Drv.GetSensorInfo(&camera_bsp, &sensor_info);
 385              		.loc 1 1323 5 view .LVU103
 386              		.loc 1 1323 15 is_stmt 0 view .LVU104
 387 0082 6E4A     		ldr	r2, .L131+24
 388              		.loc 1 1323 5 view .LVU105
 389 0084 5946     		mov	r1, fp
 390 0086 126E     		ldr	r2, [r2, #96]
 391 0088 6E48     		ldr	r0, .L131+32
 392              	.LVL21:
 393              		.loc 1 1323 5 view .LVU106
 394 008a 9047     		blx	r2
ARM GAS  C:\Users\DJESSOU\AppData\Local\Temp\cc3dm0Vf.s 			page 32


 395              	.LVL22:
1324:Lib/Camera_Middleware/cmw_camera.c ****     initSensors_params->width = sensor_info.width;
 396              		.loc 1 1324 5 is_stmt 1 view .LVU107
 397              		.loc 1 1324 31 is_stmt 0 view .LVU108
 398 008c 119A     		ldr	r2, [sp, #68]
 399 008e 2260     		str	r2, [r4]
1325:Lib/Camera_Middleware/cmw_camera.c ****     initSensors_params->height = sensor_info.height;
 400              		.loc 1 1325 5 is_stmt 1 view .LVU109
 401              		.loc 1 1325 32 is_stmt 0 view .LVU110
 402 0090 129A     		ldr	r2, [sp, #72]
 403 0092 6260     		str	r2, [r4, #4]
 404              	.L27:
 405              		.loc 1 1325 32 view .LVU111
 406              	.LBE54:
1326:Lib/Camera_Middleware/cmw_camera.c ****   }
1327:Lib/Camera_Middleware/cmw_camera.c **** 
1328:Lib/Camera_Middleware/cmw_camera.c ****   CMW_OV5640_SetDefaultSensorValues(&default_sensor_config);
 407              		.loc 1 1328 3 is_stmt 1 view .LVU112
 408 0094 5846     		mov	r0, fp
 409 0096 FFF7FEFF 		bl	CMW_OV5640_SetDefaultSensorValues
 410              	.LVL23:
1329:Lib/Camera_Middleware/cmw_camera.c ****   initSensors_params->sensor_config = initSensors_params->sensor_config ? initSensors_params->senso
 411              		.loc 1 1329 3 view .LVU113
 412              		.loc 1 1329 57 is_stmt 0 view .LVU114
 413 009a 2269     		ldr	r2, [r4, #16]
1330:Lib/Camera_Middleware/cmw_camera.c ****   sensor_config = (CMW_OV5640_config_t*) (initSensors_params->sensor_config);
1331:Lib/Camera_Middleware/cmw_camera.c **** 
1332:Lib/Camera_Middleware/cmw_camera.c ****   ret = Camera_Drv.Init(&camera_bsp, initSensors_params);
 414              		.loc 1 1332 19 view .LVU115
 415 009c 6749     		ldr	r1, .L131+24
1329:Lib/Camera_Middleware/cmw_camera.c ****   initSensors_params->sensor_config = initSensors_params->sensor_config ? initSensors_params->senso
 416              		.loc 1 1329 109 discriminator 2 view .LVU116
 417 009e 002A     		cmp	r2, #0
 418 00a0 08BF     		it	eq
 419 00a2 5A46     		moveq	r2, fp
 420              		.loc 1 1332 9 view .LVU117
 421 00a4 0B68     		ldr	r3, [r1]
 422 00a6 6748     		ldr	r0, .L131+32
 423 00a8 2146     		mov	r1, r4
1329:Lib/Camera_Middleware/cmw_camera.c ****   initSensors_params->sensor_config = initSensors_params->sensor_config ? initSensors_params->senso
 424              		.loc 1 1329 37 discriminator 4 view .LVU118
 425 00aa 2261     		str	r2, [r4, #16]
 426 00ac 0192     		str	r2, [sp, #4]
1330:Lib/Camera_Middleware/cmw_camera.c ****   sensor_config = (CMW_OV5640_config_t*) (initSensors_params->sensor_config);
 427              		.loc 1 1330 3 is_stmt 1 view .LVU119
 428              	.LVL24:
 429              		.loc 1 1332 3 view .LVU120
 430              		.loc 1 1332 9 is_stmt 0 view .LVU121
 431 00ae 9847     		blx	r3
 432              	.LVL25:
1333:Lib/Camera_Middleware/cmw_camera.c ****   if (ret != CMW_ERROR_NONE)
 433              		.loc 1 1333 3 is_stmt 1 view .LVU122
 434              		.loc 1 1333 6 is_stmt 0 view .LVU123
 435 00b0 E0B9     		cbnz	r0, .L24
1334:Lib/Camera_Middleware/cmw_camera.c ****   {
1335:Lib/Camera_Middleware/cmw_camera.c ****     return CMW_ERROR_COMPONENT_FAILURE;
1336:Lib/Camera_Middleware/cmw_camera.c ****   }
ARM GAS  C:\Users\DJESSOU\AppData\Local\Temp\cc3dm0Vf.s 			page 33


1337:Lib/Camera_Middleware/cmw_camera.c **** 
1338:Lib/Camera_Middleware/cmw_camera.c ****   csi_conf.NumberOfLanes = DCMIPP_CSI_TWO_DATA_LANES;
 436              		.loc 1 1338 3 is_stmt 1 view .LVU124
1339:Lib/Camera_Middleware/cmw_camera.c ****   csi_conf.DataLaneMapping = DCMIPP_CSI_PHYSICAL_DATA_LANES;
 437              		.loc 1 1339 28 is_stmt 0 view .LVU125
 438 00b2 0121     		movs	r1, #1
 439 00b4 4FF40073 		mov	r3, #512
 440 00b8 CDE90231 		strd	r3, r1, [sp, #8]
1340:Lib/Camera_Middleware/cmw_camera.c ****   csi_conf.PHYBitrate = DCMIPP_CSI_PHY_BT_250;
 441              		.loc 1 1340 3 is_stmt 1 view .LVU126
 442              		.loc 1 1340 23 is_stmt 0 view .LVU127
 443 00bc 0F21     		movs	r1, #15
1341:Lib/Camera_Middleware/cmw_camera.c ****   ret = HAL_DCMIPP_CSI_SetConfig(&hcamera_dcmipp, &csi_conf);
 444              		.loc 1 1341 9 view .LVU128
 445 00be 6248     		ldr	r0, .L131+36
 446              	.LVL26:
1340:Lib/Camera_Middleware/cmw_camera.c ****   csi_conf.PHYBitrate = DCMIPP_CSI_PHY_BT_250;
 447              		.loc 1 1340 23 view .LVU129
 448 00c0 0491     		str	r1, [sp, #16]
 449              		.loc 1 1341 3 is_stmt 1 view .LVU130
 450              		.loc 1 1341 9 is_stmt 0 view .LVU131
 451 00c2 2946     		mov	r1, r5
 452 00c4 FFF7FEFF 		bl	HAL_DCMIPP_CSI_SetConfig
 453              	.LVL27:
1342:Lib/Camera_Middleware/cmw_camera.c ****   if (ret != HAL_OK)
 454              		.loc 1 1342 3 is_stmt 1 view .LVU132
 455              		.loc 1 1342 6 is_stmt 0 view .LVU133
 456 00c8 80B9     		cbnz	r0, .L24
1343:Lib/Camera_Middleware/cmw_camera.c ****   {
1344:Lib/Camera_Middleware/cmw_camera.c ****     return CMW_ERROR_PERIPH_FAILURE;
1345:Lib/Camera_Middleware/cmw_camera.c ****   }
1346:Lib/Camera_Middleware/cmw_camera.c **** 
1347:Lib/Camera_Middleware/cmw_camera.c ****   switch (sensor_config->pixel_format)
 457              		.loc 1 1347 3 is_stmt 1 view .LVU134
 458              		.loc 1 1347 24 is_stmt 0 view .LVU135
 459 00ca 019A     		ldr	r2, [sp, #4]
 460 00cc D2F800B0 		ldr	fp, [r2]
 461              		.loc 1 1347 3 view .LVU136
 462 00d0 BBF1240F 		cmp	fp, #36
 463 00d4 71D0     		beq	.L29
 464 00d6 6DD8     		bhi	.L30
 465 00d8 BBF11E0F 		cmp	fp, #30
 466 00dc 6DD0     		beq	.L29
 467 00de BBF1220F 		cmp	fp, #34
 468 00e2 6AD0     		beq	.L29
 469 00e4 BBF1000F 		cmp	fp, #0
 470 00e8 00F08180 		beq	.L75
 471              	.LVL28:
 472              	.L24:
 473              		.loc 1 1347 3 view .LVU137
 474              	.LBE59:
 475              	.LBE64:
 259:Lib/Camera_Middleware/cmw_camera.c ****   if (ret == CMW_ERROR_NONE)
 476              		.loc 1 259 3 is_stmt 1 view .LVU138
 477              	.LBB65:
 478              	.LBI65:
1084:Lib/Camera_Middleware/cmw_camera.c **** {
ARM GAS  C:\Users\DJESSOU\AppData\Local\Temp\cc3dm0Vf.s 			page 34


 479              		.loc 1 1084 16 view .LVU139
 480              	.LBB66:
1086:Lib/Camera_Middleware/cmw_camera.c ****   DCMIPP_CSI_ConfTypeDef csi_conf = { 0 };
 481              		.loc 1 1086 3 view .LVU140
1087:Lib/Camera_Middleware/cmw_camera.c ****   DCMIPP_CSI_PIPE_ConfTypeDef csi_pipe_conf = { 0 };
 482              		.loc 1 1087 3 view .LVU141
1087:Lib/Camera_Middleware/cmw_camera.c ****   DCMIPP_CSI_PIPE_ConfTypeDef csi_pipe_conf = { 0 };
 483              		.loc 1 1087 26 is_stmt 0 view .LVU142
 484 00ec 0021     		movs	r1, #0
1094:Lib/Camera_Middleware/cmw_camera.c ****   camera_bsp.vd55g1_bsp.Address     = CAMERA_VD55G1_ADDRESS;
 485              		.loc 1 1094 3 view .LVU143
 486 00ee 4FF4B472 		mov	r2, #360
 487 00f2 5448     		ldr	r0, .L131+32
1087:Lib/Camera_Middleware/cmw_camera.c ****   DCMIPP_CSI_PIPE_ConfTypeDef csi_pipe_conf = { 0 };
 488              		.loc 1 1087 26 view .LVU144
 489 00f4 CDE90511 		strd	r1, r1, [sp, #20]
1088:Lib/Camera_Middleware/cmw_camera.c ****   uint32_t dt_format = 0;
 490              		.loc 1 1088 31 view .LVU145
 491 00f8 CDE90711 		strd	r1, r1, [sp, #28]
 492 00fc CDE90911 		strd	r1, r1, [sp, #36]
1089:Lib/Camera_Middleware/cmw_camera.c ****   uint32_t dt = 0;
 493              		.loc 1 1089 3 is_stmt 1 view .LVU146
 494              	.LVL29:
1090:Lib/Camera_Middleware/cmw_camera.c ****   CMW_VD55G1_config_t default_sensor_config;
 495              		.loc 1 1090 3 view .LVU147
1091:Lib/Camera_Middleware/cmw_camera.c ****   CMW_VD55G1_config_t *sensor_config;
 496              		.loc 1 1091 3 view .LVU148
1092:Lib/Camera_Middleware/cmw_camera.c **** 
 497              		.loc 1 1092 3 view .LVU149
1094:Lib/Camera_Middleware/cmw_camera.c ****   camera_bsp.vd55g1_bsp.Address     = CAMERA_VD55G1_ADDRESS;
 498              		.loc 1 1094 3 view .LVU150
 499 0100 FFF7FEFF 		bl	memset
 500              	.LVL30:
1095:Lib/Camera_Middleware/cmw_camera.c ****   camera_bsp.vd55g1_bsp.Init        = CMW_I2C_INIT;
 501              		.loc 1 1095 3 view .LVU151
1095:Lib/Camera_Middleware/cmw_camera.c ****   camera_bsp.vd55g1_bsp.Init        = CMW_I2C_INIT;
 502              		.loc 1 1095 37 is_stmt 0 view .LVU152
 503 0104 2022     		movs	r2, #32
1099:Lib/Camera_Middleware/cmw_camera.c ****   camera_bsp.vd55g1_bsp.Delay       = HAL_Delay;
 504              		.loc 1 1099 37 view .LVU153
 505 0106 474B     		ldr	r3, .L131
1095:Lib/Camera_Middleware/cmw_camera.c ****   camera_bsp.vd55g1_bsp.Init        = CMW_I2C_INIT;
 506              		.loc 1 1095 37 view .LVU154
 507 0108 A8F80020 		strh	r2, [r8]	@ movhi
1096:Lib/Camera_Middleware/cmw_camera.c ****   camera_bsp.vd55g1_bsp.DeInit      = CMW_I2C_DEINIT;
 508              		.loc 1 1096 3 is_stmt 1 view .LVU155
1099:Lib/Camera_Middleware/cmw_camera.c ****   camera_bsp.vd55g1_bsp.Delay       = HAL_Delay;
 509              		.loc 1 1099 37 is_stmt 0 view .LVU156
 510 010c C8F88C30 		str	r3, [r8, #140]
1102:Lib/Camera_Middleware/cmw_camera.c **** 
 511              		.loc 1 1102 37 view .LVU157
 512 0110 484A     		ldr	r2, .L131+16
1101:Lib/Camera_Middleware/cmw_camera.c ****   camera_bsp.vd55g1_bsp.EnablePin   = CMW_CAMERA_EnablePin;
 513              		.loc 1 1101 37 view .LVU158
 514 0112 494B     		ldr	r3, .L131+20
1104:Lib/Camera_Middleware/cmw_camera.c ****   if (ret != CMW_ERROR_NONE)
 515              		.loc 1 1104 9 view .LVU159
ARM GAS  C:\Users\DJESSOU\AppData\Local\Temp\cc3dm0Vf.s 			page 35


 516 0114 4949     		ldr	r1, .L131+24
 517 0116 4B48     		ldr	r0, .L131+32
1097:Lib/Camera_Middleware/cmw_camera.c ****   camera_bsp.vd55g1_bsp.WriteReg    = CMW_I2C_WRITEREG16;
 518              		.loc 1 1097 37 view .LVU160
 519 0118 C8E920A9 		strd	r10, r9, [r8, #128]
1098:Lib/Camera_Middleware/cmw_camera.c ****   camera_bsp.vd55g1_bsp.ReadReg     = CMW_I2C_READREG16;
 520              		.loc 1 1098 3 is_stmt 1 view .LVU161
1098:Lib/Camera_Middleware/cmw_camera.c ****   camera_bsp.vd55g1_bsp.ReadReg     = CMW_I2C_READREG16;
 521              		.loc 1 1098 37 is_stmt 0 view .LVU162
 522 011c C8F88870 		str	r7, [r8, #136]
1099:Lib/Camera_Middleware/cmw_camera.c ****   camera_bsp.vd55g1_bsp.Delay       = HAL_Delay;
 523              		.loc 1 1099 3 is_stmt 1 view .LVU163
1100:Lib/Camera_Middleware/cmw_camera.c ****   camera_bsp.vd55g1_bsp.ShutdownPin = CMW_CAMERA_ShutdownPin;
 524              		.loc 1 1100 3 view .LVU164
1100:Lib/Camera_Middleware/cmw_camera.c ****   camera_bsp.vd55g1_bsp.ShutdownPin = CMW_CAMERA_ShutdownPin;
 525              		.loc 1 1100 37 is_stmt 0 view .LVU165
 526 0120 C8F89460 		str	r6, [r8, #148]
1101:Lib/Camera_Middleware/cmw_camera.c ****   camera_bsp.vd55g1_bsp.EnablePin   = CMW_CAMERA_EnablePin;
 527              		.loc 1 1101 3 is_stmt 1 view .LVU166
1101:Lib/Camera_Middleware/cmw_camera.c ****   camera_bsp.vd55g1_bsp.EnablePin   = CMW_CAMERA_EnablePin;
 528              		.loc 1 1101 37 is_stmt 0 view .LVU167
 529 0124 C8F89830 		str	r3, [r8, #152]
1102:Lib/Camera_Middleware/cmw_camera.c **** 
 530              		.loc 1 1102 3 is_stmt 1 view .LVU168
1102:Lib/Camera_Middleware/cmw_camera.c **** 
 531              		.loc 1 1102 37 is_stmt 0 view .LVU169
 532 0128 C8F89C20 		str	r2, [r8, #156]
1104:Lib/Camera_Middleware/cmw_camera.c ****   if (ret != CMW_ERROR_NONE)
 533              		.loc 1 1104 3 is_stmt 1 view .LVU170
1104:Lib/Camera_Middleware/cmw_camera.c ****   if (ret != CMW_ERROR_NONE)
 534              		.loc 1 1104 9 is_stmt 0 view .LVU171
 535 012c FFF7FEFF 		bl	CMW_VD55G1_Probe
 536              	.LVL31:
1105:Lib/Camera_Middleware/cmw_camera.c ****   {
 537              		.loc 1 1105 3 is_stmt 1 view .LVU172
1105:Lib/Camera_Middleware/cmw_camera.c ****   {
 538              		.loc 1 1105 6 is_stmt 0 view .LVU173
 539 0130 0028     		cmp	r0, #0
 540 0132 40F08F80 		bne	.L34
1110:Lib/Camera_Middleware/cmw_camera.c ****   {
 541              		.loc 1 1110 3 is_stmt 1 view .LVU174
1110:Lib/Camera_Middleware/cmw_camera.c ****   {
 542              		.loc 1 1110 25 is_stmt 0 view .LVU175
 543 0136 424A     		ldr	r2, .L131+28
 544 0138 1278     		ldrb	r2, [r2]	@ zero_extendqisi2
1110:Lib/Camera_Middleware/cmw_camera.c ****   {
 545              		.loc 1 1110 6 view .LVU176
 546 013a 052A     		cmp	r2, #5
 547 013c 02D0     		beq	.L35
1110:Lib/Camera_Middleware/cmw_camera.c ****   {
 548              		.loc 1 1110 47 discriminator 1 view .LVU177
 549 013e 002A     		cmp	r2, #0
 550 0140 40F08880 		bne	.L34
 551              	.L35:
1117:Lib/Camera_Middleware/cmw_camera.c ****   {
 552              		.loc 1 1117 3 is_stmt 1 view .LVU178
1117:Lib/Camera_Middleware/cmw_camera.c ****   {
ARM GAS  C:\Users\DJESSOU\AppData\Local\Temp\cc3dm0Vf.s 			page 36


 553              		.loc 1 1117 6 is_stmt 0 view .LVU179
 554 0144 2268     		ldr	r2, [r4]
 555 0146 0AB1     		cbz	r2, .L37
1117:Lib/Camera_Middleware/cmw_camera.c ****   {
 556              		.loc 1 1117 40 discriminator 1 view .LVU180
 557 0148 6268     		ldr	r2, [r4, #4]
 558 014a 2AB9     		cbnz	r2, .L38
 559              	.L37:
1119:Lib/Camera_Middleware/cmw_camera.c ****     initSensors_params->height = VD55G1_MAX_HEIGHT;
 560              		.loc 1 1119 5 is_stmt 1 view .LVU181
1120:Lib/Camera_Middleware/cmw_camera.c ****   }
 561              		.loc 1 1120 32 is_stmt 0 view .LVU182
 562 014c 4FF4497B 		mov	fp, #804
 563 0150 4FF43072 		mov	r2, #704
 564 0154 C4E900B2 		strd	fp, r2, [r4]
 565              	.L38:
1123:Lib/Camera_Middleware/cmw_camera.c ****   initSensors_params->sensor_config = initSensors_params->sensor_config ? initSensors_params->senso
 566              		.loc 1 1123 3 is_stmt 1 view .LVU183
 567 0158 2846     		mov	r0, r5
 568              	.LVL32:
1123:Lib/Camera_Middleware/cmw_camera.c ****   initSensors_params->sensor_config = initSensors_params->sensor_config ? initSensors_params->senso
 569              		.loc 1 1123 3 is_stmt 0 view .LVU184
 570 015a FFF7FEFF 		bl	CMW_VD55G1_SetDefaultSensorValues
 571              	.LVL33:
1124:Lib/Camera_Middleware/cmw_camera.c ****   sensor_config = (CMW_VD55G1_config_t*) (initSensors_params->sensor_config);
 572              		.loc 1 1124 3 is_stmt 1 view .LVU185
1124:Lib/Camera_Middleware/cmw_camera.c ****   sensor_config = (CMW_VD55G1_config_t*) (initSensors_params->sensor_config);
 573              		.loc 1 1124 57 is_stmt 0 view .LVU186
 574 015e D4F810B0 		ldr	fp, [r4, #16]
1127:Lib/Camera_Middleware/cmw_camera.c ****   if (ret != CMW_ERROR_NONE)
 575              		.loc 1 1127 19 view .LVU187
 576 0162 364A     		ldr	r2, .L131+24
1124:Lib/Camera_Middleware/cmw_camera.c ****   sensor_config = (CMW_VD55G1_config_t*) (initSensors_params->sensor_config);
 577              		.loc 1 1124 109 discriminator 2 view .LVU188
 578 0164 BBF1000F 		cmp	fp, #0
 579 0168 08BF     		it	eq
 580 016a AB46     		moveq	fp, r5
1127:Lib/Camera_Middleware/cmw_camera.c ****   if (ret != CMW_ERROR_NONE)
 581              		.loc 1 1127 9 view .LVU189
 582 016c 2146     		mov	r1, r4
 583 016e 1268     		ldr	r2, [r2]
 584 0170 3448     		ldr	r0, .L131+32
1124:Lib/Camera_Middleware/cmw_camera.c ****   sensor_config = (CMW_VD55G1_config_t*) (initSensors_params->sensor_config);
 585              		.loc 1 1124 37 discriminator 4 view .LVU190
 586 0172 C4F810B0 		str	fp, [r4, #16]
1125:Lib/Camera_Middleware/cmw_camera.c **** 
 587              		.loc 1 1125 3 is_stmt 1 view .LVU191
 588              	.LVL34:
1127:Lib/Camera_Middleware/cmw_camera.c ****   if (ret != CMW_ERROR_NONE)
 589              		.loc 1 1127 3 view .LVU192
1127:Lib/Camera_Middleware/cmw_camera.c ****   if (ret != CMW_ERROR_NONE)
 590              		.loc 1 1127 9 is_stmt 0 view .LVU193
 591 0176 9047     		blx	r2
 592              	.LVL35:
1128:Lib/Camera_Middleware/cmw_camera.c ****   {
 593              		.loc 1 1128 3 is_stmt 1 view .LVU194
1128:Lib/Camera_Middleware/cmw_camera.c ****   {
ARM GAS  C:\Users\DJESSOU\AppData\Local\Temp\cc3dm0Vf.s 			page 37


 594              		.loc 1 1128 6 is_stmt 0 view .LVU195
 595 0178 0028     		cmp	r0, #0
 596 017a 6BD1     		bne	.L34
1133:Lib/Camera_Middleware/cmw_camera.c ****   csi_conf.DataLaneMapping = DCMIPP_CSI_PHYSICAL_DATA_LANES;
 597              		.loc 1 1133 3 is_stmt 1 view .LVU196
1134:Lib/Camera_Middleware/cmw_camera.c ****   csi_conf.PHYBitrate = DCMIPP_CSI_PHY_BT_800;
 598              		.loc 1 1134 28 is_stmt 0 view .LVU197
 599 017c 0122     		movs	r2, #1
 600 017e 4FF4807E 		mov	lr, #256
 601 0182 CDE905E2 		strd	lr, r2, [sp, #20]
1135:Lib/Camera_Middleware/cmw_camera.c ****   ret = HAL_DCMIPP_CSI_SetConfig(&hcamera_dcmipp, &csi_conf);
 602              		.loc 1 1135 3 is_stmt 1 view .LVU198
1135:Lib/Camera_Middleware/cmw_camera.c ****   ret = HAL_DCMIPP_CSI_SetConfig(&hcamera_dcmipp, &csi_conf);
 603              		.loc 1 1135 23 is_stmt 0 view .LVU199
 604 0186 1C22     		movs	r2, #28
1136:Lib/Camera_Middleware/cmw_camera.c ****   if (ret != HAL_OK)
 605              		.loc 1 1136 9 view .LVU200
 606 0188 2F48     		ldr	r0, .L131+36
 607              	.LVL36:
1136:Lib/Camera_Middleware/cmw_camera.c ****   if (ret != HAL_OK)
 608              		.loc 1 1136 9 view .LVU201
 609 018a 05A9     		add	r1, sp, #20
1135:Lib/Camera_Middleware/cmw_camera.c ****   ret = HAL_DCMIPP_CSI_SetConfig(&hcamera_dcmipp, &csi_conf);
 610              		.loc 1 1135 23 view .LVU202
 611 018c 0792     		str	r2, [sp, #28]
1136:Lib/Camera_Middleware/cmw_camera.c ****   if (ret != HAL_OK)
 612              		.loc 1 1136 3 is_stmt 1 view .LVU203
1136:Lib/Camera_Middleware/cmw_camera.c ****   if (ret != HAL_OK)
 613              		.loc 1 1136 9 is_stmt 0 view .LVU204
 614 018e FFF7FEFF 		bl	HAL_DCMIPP_CSI_SetConfig
 615              	.LVL37:
1137:Lib/Camera_Middleware/cmw_camera.c ****   {
 616              		.loc 1 1137 3 is_stmt 1 view .LVU205
1137:Lib/Camera_Middleware/cmw_camera.c ****   {
 617              		.loc 1 1137 6 is_stmt 0 view .LVU206
 618 0192 0028     		cmp	r0, #0
 619 0194 5ED1     		bne	.L34
1142:Lib/Camera_Middleware/cmw_camera.c ****   {
 620              		.loc 1 1142 3 is_stmt 1 view .LVU207
1142:Lib/Camera_Middleware/cmw_camera.c ****   {
 621              		.loc 1 1142 24 is_stmt 0 view .LVU208
 622 0196 DBF800B0 		ldr	fp, [fp]
 623              	.LVL38:
1142:Lib/Camera_Middleware/cmw_camera.c ****   {
 624              		.loc 1 1142 3 view .LVU209
 625 019a BBF12A0F 		cmp	fp, #42
 626 019e 29D0     		beq	.L76
 627 01a0 BBF12B0F 		cmp	fp, #43
 628 01a4 04D0     		beq	.L77
 629 01a6 BBF1000F 		cmp	fp, #0
 630 01aa 53D1     		bne	.L34
 631 01ac 4FF02B0B 		mov	fp, #43
 632              	.L77:
 633 01b0 0322     		movs	r2, #3
 634 01b2 20E0     		b	.L40
 635              	.LVL39:
 636              	.L30:
ARM GAS  C:\Users\DJESSOU\AppData\Local\Temp\cc3dm0Vf.s 			page 38


1142:Lib/Camera_Middleware/cmw_camera.c ****   {
 637              		.loc 1 1142 3 view .LVU210
 638              	.LBE66:
 639              	.LBE65:
 640              	.LBB70:
 641              	.LBB60:
 642              		.loc 1 1347 3 view .LVU211
 643 01b4 BBF12A0F 		cmp	fp, #42
 644 01b8 98D1     		bne	.L24
 645              	.L29:
 646              	.LVL40:
1348:Lib/Camera_Middleware/cmw_camera.c ****   {
1349:Lib/Camera_Middleware/cmw_camera.c **** 
1350:Lib/Camera_Middleware/cmw_camera.c ****     case CMW_PIXEL_FORMAT_YUV422_8:
1351:Lib/Camera_Middleware/cmw_camera.c ****     {
1352:Lib/Camera_Middleware/cmw_camera.c ****       dt_format = DCMIPP_CSI_DT_BPP8;
1353:Lib/Camera_Middleware/cmw_camera.c ****       dt = DCMIPP_DT_YUV422_8;
1354:Lib/Camera_Middleware/cmw_camera.c ****       break;
1355:Lib/Camera_Middleware/cmw_camera.c ****     }
1356:Lib/Camera_Middleware/cmw_camera.c ****     case CMW_PIXEL_FORMAT_DEFAULT:
1357:Lib/Camera_Middleware/cmw_camera.c ****     case CMW_PIXEL_FORMAT_RGB565:
1358:Lib/Camera_Middleware/cmw_camera.c ****     {
1359:Lib/Camera_Middleware/cmw_camera.c ****       dt_format = DCMIPP_CSI_DT_BPP8;
1360:Lib/Camera_Middleware/cmw_camera.c ****       dt = DCMIPP_DT_RGB565;
1361:Lib/Camera_Middleware/cmw_camera.c ****       break;
1362:Lib/Camera_Middleware/cmw_camera.c ****     }
1363:Lib/Camera_Middleware/cmw_camera.c ****     case CMW_PIXEL_FORMAT_RGB888:
1364:Lib/Camera_Middleware/cmw_camera.c ****     {
1365:Lib/Camera_Middleware/cmw_camera.c ****       dt_format = DCMIPP_CSI_DT_BPP8;
1366:Lib/Camera_Middleware/cmw_camera.c ****       dt = DCMIPP_DT_RGB888;
1367:Lib/Camera_Middleware/cmw_camera.c ****       break;
1368:Lib/Camera_Middleware/cmw_camera.c ****     }
1369:Lib/Camera_Middleware/cmw_camera.c ****     case CMW_PIXEL_FORMAT_RAW8:
1370:Lib/Camera_Middleware/cmw_camera.c ****     {
1371:Lib/Camera_Middleware/cmw_camera.c ****       dt_format = DCMIPP_CSI_DT_BPP8;
1372:Lib/Camera_Middleware/cmw_camera.c ****       dt = DCMIPP_DT_RAW8;
1373:Lib/Camera_Middleware/cmw_camera.c ****       break;
1374:Lib/Camera_Middleware/cmw_camera.c ****     }
1375:Lib/Camera_Middleware/cmw_camera.c ****     default:
1376:Lib/Camera_Middleware/cmw_camera.c ****       return CMW_ERROR_COMPONENT_FAILURE;
1377:Lib/Camera_Middleware/cmw_camera.c ****       break;
 647              		.loc 1 1377 7 is_stmt 1 view .LVU212
1378:Lib/Camera_Middleware/cmw_camera.c ****   }
1379:Lib/Camera_Middleware/cmw_camera.c **** 
1380:Lib/Camera_Middleware/cmw_camera.c ****   ret = HAL_DCMIPP_CSI_SetVCConfig(&hcamera_dcmipp, DCMIPP_VIRTUAL_CHANNEL0, dt_format);
 648              		.loc 1 1380 3 view .LVU213
 649              		.loc 1 1380 9 is_stmt 0 view .LVU214
 650 01ba 0021     		movs	r1, #0
 651 01bc 0222     		movs	r2, #2
 652 01be 2248     		ldr	r0, .L131+36
 653              	.LVL41:
 654              		.loc 1 1380 9 view .LVU215
 655 01c0 FFF7FEFF 		bl	HAL_DCMIPP_CSI_SetVCConfig
 656              	.LVL42:
1381:Lib/Camera_Middleware/cmw_camera.c ****   if (ret != HAL_OK)
 657              		.loc 1 1381 3 is_stmt 1 view .LVU216
 658              		.loc 1 1381 6 is_stmt 0 view .LVU217
ARM GAS  C:\Users\DJESSOU\AppData\Local\Temp\cc3dm0Vf.s 			page 39


 659 01c4 0146     		mov	r1, r0
 660 01c6 0028     		cmp	r0, #0
 661 01c8 90D1     		bne	.L24
1382:Lib/Camera_Middleware/cmw_camera.c ****   {
1383:Lib/Camera_Middleware/cmw_camera.c ****     return CMW_ERROR_PERIPH_FAILURE;
1384:Lib/Camera_Middleware/cmw_camera.c ****   }
1385:Lib/Camera_Middleware/cmw_camera.c **** 
1386:Lib/Camera_Middleware/cmw_camera.c ****   csi_pipe_conf.DataTypeMode = DCMIPP_DTMODE_DTIDA;
 662              		.loc 1 1386 3 is_stmt 1 view .LVU218
1387:Lib/Camera_Middleware/cmw_camera.c ****   csi_pipe_conf.DataTypeIDA = dt;
 663              		.loc 1 1387 29 is_stmt 0 view .LVU219
 664 01ca CDE9050B 		strd	r0, fp, [sp, #20]
1388:Lib/Camera_Middleware/cmw_camera.c ****   csi_pipe_conf.DataTypeIDB = 0;
 665              		.loc 1 1388 3 is_stmt 1 view .LVU220
 666              	.LBB55:
1389:Lib/Camera_Middleware/cmw_camera.c ****   /* Pre-initialize CSI config for all the pipes */
1390:Lib/Camera_Middleware/cmw_camera.c ****   for (uint32_t i = DCMIPP_PIPE0; i <= DCMIPP_PIPE2; i++)
1391:Lib/Camera_Middleware/cmw_camera.c ****   {
1392:Lib/Camera_Middleware/cmw_camera.c ****     ret = HAL_DCMIPP_CSI_PIPE_SetConfig(&hcamera_dcmipp, i, &csi_pipe_conf);
 667              		.loc 1 1392 11 is_stmt 0 view .LVU221
 668 01ce DFF878B0 		ldr	fp, .L131+36
 669              	.LVL43:
 670              		.loc 1 1392 11 view .LVU222
 671              	.LBE55:
1388:Lib/Camera_Middleware/cmw_camera.c ****   csi_pipe_conf.DataTypeIDB = 0;
 672              		.loc 1 1388 29 view .LVU223
 673 01d2 0790     		str	r0, [sp, #28]
1390:Lib/Camera_Middleware/cmw_camera.c ****   {
 674              		.loc 1 1390 3 is_stmt 1 view .LVU224
 675              	.LBB56:
1390:Lib/Camera_Middleware/cmw_camera.c ****   {
 676              		.loc 1 1390 8 view .LVU225
 677              	.LVL44:
1390:Lib/Camera_Middleware/cmw_camera.c ****   {
 678              		.loc 1 1390 37 discriminator 1 view .LVU226
 679              	.L31:
 680              		.loc 1 1392 5 view .LVU227
 681              		.loc 1 1392 11 is_stmt 0 view .LVU228
 682 01d4 5846     		mov	r0, fp
 683 01d6 05AA     		add	r2, sp, #20
 684 01d8 0191     		str	r1, [sp, #4]
 685 01da FFF7FEFF 		bl	HAL_DCMIPP_CSI_PIPE_SetConfig
 686              	.LVL45:
1393:Lib/Camera_Middleware/cmw_camera.c ****     if (ret != HAL_OK)
 687              		.loc 1 1393 5 is_stmt 1 view .LVU229
 688              		.loc 1 1393 8 is_stmt 0 view .LVU230
 689 01de 0028     		cmp	r0, #0
 690 01e0 84D1     		bne	.L24
1390:Lib/Camera_Middleware/cmw_camera.c ****   {
 691              		.loc 1 1390 55 is_stmt 1 discriminator 2 view .LVU231
 692 01e2 0199     		ldr	r1, [sp, #4]
 693 01e4 0131     		adds	r1, r1, #1
 694              	.LVL46:
1390:Lib/Camera_Middleware/cmw_camera.c ****   {
 695              		.loc 1 1390 37 discriminator 1 view .LVU232
 696 01e6 0329     		cmp	r1, #3
 697 01e8 F4D1     		bne	.L31
ARM GAS  C:\Users\DJESSOU\AppData\Local\Temp\cc3dm0Vf.s 			page 40


 698              	.LVL47:
1390:Lib/Camera_Middleware/cmw_camera.c ****   {
 699              		.loc 1 1390 37 is_stmt 0 discriminator 1 view .LVU233
 700              	.LBE56:
 701              	.LBE60:
 702              	.LBE70:
 252:Lib/Camera_Middleware/cmw_camera.c ****   {
 703              		.loc 1 252 3 is_stmt 1 view .LVU234
 254:Lib/Camera_Middleware/cmw_camera.c ****     return ret;
 704              		.loc 1 254 5 view .LVU235
 255:Lib/Camera_Middleware/cmw_camera.c ****   }
 705              		.loc 1 255 5 view .LVU236
 255:Lib/Camera_Middleware/cmw_camera.c ****   }
 706              		.loc 1 255 12 is_stmt 0 view .LVU237
 707 01ea 0424     		movs	r4, #4
 708              	.LVL48:
 255:Lib/Camera_Middleware/cmw_camera.c ****   }
 709              		.loc 1 255 12 view .LVU238
 710 01ec D0E1     		b	.L74
 711              	.LVL49:
 712              	.L75:
 713              	.LBB71:
 714              	.LBB61:
1347:Lib/Camera_Middleware/cmw_camera.c ****   {
 715              		.loc 1 1347 3 view .LVU239
 716 01ee 4FF0220B 		mov	fp, #34
 717 01f2 E2E7     		b	.L29
 718              	.LVL50:
 719              	.L76:
1347:Lib/Camera_Middleware/cmw_camera.c ****   {
 720              		.loc 1 1347 3 view .LVU240
 721              	.LBE61:
 722              	.LBE71:
 723              	.LBB72:
 724              	.LBB69:
1146:Lib/Camera_Middleware/cmw_camera.c ****       dt = DCMIPP_DT_RAW8;
 725              		.loc 1 1146 17 view .LVU241
 726 01f4 0222     		movs	r2, #2
 727              	.L40:
 728              	.LVL51:
1161:Lib/Camera_Middleware/cmw_camera.c ****   if (ret != HAL_OK)
 729              		.loc 1 1161 3 is_stmt 1 view .LVU242
1161:Lib/Camera_Middleware/cmw_camera.c ****   if (ret != HAL_OK)
 730              		.loc 1 1161 9 is_stmt 0 view .LVU243
 731 01f6 0021     		movs	r1, #0
 732 01f8 1348     		ldr	r0, .L131+36
 733              	.LVL52:
1161:Lib/Camera_Middleware/cmw_camera.c ****   if (ret != HAL_OK)
 734              		.loc 1 1161 9 view .LVU244
 735 01fa FFF7FEFF 		bl	HAL_DCMIPP_CSI_SetVCConfig
 736              	.LVL53:
1162:Lib/Camera_Middleware/cmw_camera.c ****   {
 737              		.loc 1 1162 3 is_stmt 1 view .LVU245
1162:Lib/Camera_Middleware/cmw_camera.c ****   {
 738              		.loc 1 1162 6 is_stmt 0 view .LVU246
 739 01fe 0146     		mov	r1, r0
 740 0200 40BB     		cbnz	r0, .L34
ARM GAS  C:\Users\DJESSOU\AppData\Local\Temp\cc3dm0Vf.s 			page 41


1167:Lib/Camera_Middleware/cmw_camera.c ****   csi_pipe_conf.DataTypeIDA = dt;
 741              		.loc 1 1167 3 is_stmt 1 view .LVU247
1168:Lib/Camera_Middleware/cmw_camera.c ****   csi_pipe_conf.DataTypeIDB = 0;
 742              		.loc 1 1168 29 is_stmt 0 view .LVU248
 743 0202 CDE9080B 		strd	r0, fp, [sp, #32]
1169:Lib/Camera_Middleware/cmw_camera.c ****   /* Pre-initialize CSI config for all the pipes */
 744              		.loc 1 1169 3 is_stmt 1 view .LVU249
 745              	.LBB67:
1173:Lib/Camera_Middleware/cmw_camera.c ****     if (ret != HAL_OK)
 746              		.loc 1 1173 11 is_stmt 0 view .LVU250
 747 0206 DFF840B0 		ldr	fp, .L131+36
 748              	.LVL54:
1173:Lib/Camera_Middleware/cmw_camera.c ****     if (ret != HAL_OK)
 749              		.loc 1 1173 11 view .LVU251
 750              	.LBE67:
1169:Lib/Camera_Middleware/cmw_camera.c ****   /* Pre-initialize CSI config for all the pipes */
 751              		.loc 1 1169 29 view .LVU252
 752 020a 0A90     		str	r0, [sp, #40]
1171:Lib/Camera_Middleware/cmw_camera.c ****   {
 753              		.loc 1 1171 3 is_stmt 1 view .LVU253
 754              	.LBB68:
1171:Lib/Camera_Middleware/cmw_camera.c ****   {
 755              		.loc 1 1171 8 view .LVU254
 756              	.LVL55:
1171:Lib/Camera_Middleware/cmw_camera.c ****   {
 757              		.loc 1 1171 37 discriminator 1 view .LVU255
 758              	.L41:
1173:Lib/Camera_Middleware/cmw_camera.c ****     if (ret != HAL_OK)
 759              		.loc 1 1173 5 view .LVU256
1173:Lib/Camera_Middleware/cmw_camera.c ****     if (ret != HAL_OK)
 760              		.loc 1 1173 11 is_stmt 0 view .LVU257
 761 020c 5846     		mov	r0, fp
 762 020e 08AA     		add	r2, sp, #32
 763 0210 0191     		str	r1, [sp, #4]
 764 0212 FFF7FEFF 		bl	HAL_DCMIPP_CSI_PIPE_SetConfig
 765              	.LVL56:
1174:Lib/Camera_Middleware/cmw_camera.c ****     {
 766              		.loc 1 1174 5 is_stmt 1 view .LVU258
1174:Lib/Camera_Middleware/cmw_camera.c ****     {
 767              		.loc 1 1174 8 is_stmt 0 view .LVU259
 768 0216 E8B9     		cbnz	r0, .L34
1171:Lib/Camera_Middleware/cmw_camera.c ****   {
 769              		.loc 1 1171 55 is_stmt 1 discriminator 2 view .LVU260
 770 0218 0199     		ldr	r1, [sp, #4]
 771 021a 0131     		adds	r1, r1, #1
 772              	.LVL57:
1171:Lib/Camera_Middleware/cmw_camera.c ****   {
 773              		.loc 1 1171 37 discriminator 1 view .LVU261
 774 021c 0329     		cmp	r1, #3
 775 021e F5D1     		bne	.L41
 776              	.LVL58:
1171:Lib/Camera_Middleware/cmw_camera.c ****   {
 777              		.loc 1 1171 37 is_stmt 0 discriminator 1 view .LVU262
 778              	.LBE68:
 779              	.LBE69:
 780              	.LBE72:
 260:Lib/Camera_Middleware/cmw_camera.c ****   {
ARM GAS  C:\Users\DJESSOU\AppData\Local\Temp\cc3dm0Vf.s 			page 42


 781              		.loc 1 260 3 is_stmt 1 view .LVU263
 262:Lib/Camera_Middleware/cmw_camera.c ****     return ret;
 782              		.loc 1 262 5 view .LVU264
 263:Lib/Camera_Middleware/cmw_camera.c ****   }
 783              		.loc 1 263 5 view .LVU265
 263:Lib/Camera_Middleware/cmw_camera.c ****   }
 784              		.loc 1 263 12 is_stmt 0 view .LVU266
 785 0220 0524     		movs	r4, #5
 786              	.LVL59:
 263:Lib/Camera_Middleware/cmw_camera.c ****   }
 787              		.loc 1 263 12 view .LVU267
 788 0222 B5E1     		b	.L74
 789              	.L132:
 790              		.align	2
 791              	.L131:
 792 0224 00000000 		.word	BSP_I2C1_ReadReg16
 793 0228 00000000 		.word	BSP_GetTick
 794 022c 00000000 		.word	BSP_I2C1_WriteReg16
 795 0230 00000000 		.word	HAL_Delay
 796 0234 00000000 		.word	CMW_CAMERA_EnablePin
 797 0238 00000000 		.word	CMW_CAMERA_ShutdownPin
 798 023c 00000000 		.word	Camera_Drv
 799 0240 00000000 		.word	connected_sensor
 800 0244 00000000 		.word	camera_bsp
 801 0248 00000000 		.word	hcamera_dcmipp
 802 024c 00000000 		.word	BSP_I2C1_Init
 803 0250 00000000 		.word	BSP_I2C1_DeInit
 804              	.LVL60:
 805              	.L34:
 275:Lib/Camera_Middleware/cmw_camera.c ****   if (ret == CMW_ERROR_NONE)
 806              		.loc 1 275 3 is_stmt 1 view .LVU268
 807              	.LBB73:
 808              	.LBI73:
1394:Lib/Camera_Middleware/cmw_camera.c ****     {
1395:Lib/Camera_Middleware/cmw_camera.c ****       return CMW_ERROR_PERIPH_FAILURE;
1396:Lib/Camera_Middleware/cmw_camera.c ****     }
1397:Lib/Camera_Middleware/cmw_camera.c ****   }
1398:Lib/Camera_Middleware/cmw_camera.c **** 
1399:Lib/Camera_Middleware/cmw_camera.c ****   return CMW_ERROR_NONE;
1400:Lib/Camera_Middleware/cmw_camera.c **** }
1401:Lib/Camera_Middleware/cmw_camera.c **** #endif
1402:Lib/Camera_Middleware/cmw_camera.c **** 
1403:Lib/Camera_Middleware/cmw_camera.c **** #if defined(USE_VD66GY_SENSOR)
1404:Lib/Camera_Middleware/cmw_camera.c **** static int32_t CMW_CAMERA_VD66GY_Init( CMW_Sensor_Init_t *initSensors_params)
 809              		.loc 1 1404 16 view .LVU269
 810              	.LBB74:
1405:Lib/Camera_Middleware/cmw_camera.c **** {
1406:Lib/Camera_Middleware/cmw_camera.c ****   int32_t ret = CMW_ERROR_NONE;
 811              		.loc 1 1406 3 view .LVU270
1407:Lib/Camera_Middleware/cmw_camera.c ****   DCMIPP_CSI_ConfTypeDef csi_conf = { 0 };
 812              		.loc 1 1407 3 view .LVU271
 813              		.loc 1 1407 26 is_stmt 0 view .LVU272
 814 0254 0021     		movs	r1, #0
1408:Lib/Camera_Middleware/cmw_camera.c ****   DCMIPP_CSI_PIPE_ConfTypeDef csi_pipe_conf = { 0 };
1409:Lib/Camera_Middleware/cmw_camera.c ****   uint32_t dt_format = 0;
1410:Lib/Camera_Middleware/cmw_camera.c ****   uint32_t dt = 0;
1411:Lib/Camera_Middleware/cmw_camera.c ****   CMW_VD66GY_config_t default_sensor_config;
ARM GAS  C:\Users\DJESSOU\AppData\Local\Temp\cc3dm0Vf.s 			page 43


1412:Lib/Camera_Middleware/cmw_camera.c ****   CMW_VD66GY_config_t *sensor_config;
1413:Lib/Camera_Middleware/cmw_camera.c **** 
1414:Lib/Camera_Middleware/cmw_camera.c ****   memset(&camera_bsp, 0, sizeof(camera_bsp));
 815              		.loc 1 1414 3 view .LVU273
 816 0256 4FF4B472 		mov	r2, #360
1407:Lib/Camera_Middleware/cmw_camera.c ****   DCMIPP_CSI_ConfTypeDef csi_conf = { 0 };
 817              		.loc 1 1407 26 view .LVU274
 818 025a 0291     		str	r1, [sp, #8]
 819              		.loc 1 1414 3 view .LVU275
 820 025c 3E48     		ldr	r0, .L133
1407:Lib/Camera_Middleware/cmw_camera.c ****   DCMIPP_CSI_ConfTypeDef csi_conf = { 0 };
 821              		.loc 1 1407 26 view .LVU276
 822 025e C5E90111 		strd	r1, r1, [r5, #4]
1408:Lib/Camera_Middleware/cmw_camera.c ****   DCMIPP_CSI_PIPE_ConfTypeDef csi_pipe_conf = { 0 };
 823              		.loc 1 1408 3 is_stmt 1 view .LVU277
1408:Lib/Camera_Middleware/cmw_camera.c ****   DCMIPP_CSI_PIPE_ConfTypeDef csi_pipe_conf = { 0 };
 824              		.loc 1 1408 31 is_stmt 0 view .LVU278
 825 0262 CDE90511 		strd	r1, r1, [sp, #20]
 826 0266 0791     		str	r1, [sp, #28]
1409:Lib/Camera_Middleware/cmw_camera.c ****   uint32_t dt = 0;
 827              		.loc 1 1409 3 is_stmt 1 view .LVU279
 828              	.LVL61:
1410:Lib/Camera_Middleware/cmw_camera.c ****   CMW_VD66GY_config_t default_sensor_config;
 829              		.loc 1 1410 3 view .LVU280
1411:Lib/Camera_Middleware/cmw_camera.c ****   CMW_VD66GY_config_t *sensor_config;
 830              		.loc 1 1411 3 view .LVU281
1412:Lib/Camera_Middleware/cmw_camera.c **** 
 831              		.loc 1 1412 3 view .LVU282
 832              		.loc 1 1414 3 view .LVU283
 833 0268 FFF7FEFF 		bl	memset
 834              	.LVL62:
1415:Lib/Camera_Middleware/cmw_camera.c ****   camera_bsp.vd66gy_bsp.Address     = CAMERA_VD66GY_ADDRESS;
 835              		.loc 1 1415 3 view .LVU284
 836              		.loc 1 1415 37 is_stmt 0 view .LVU285
 837 026c 2022     		movs	r2, #32
 838 026e A8F80020 		strh	r2, [r8]	@ movhi
1416:Lib/Camera_Middleware/cmw_camera.c ****   camera_bsp.vd66gy_bsp.Init        = CMW_I2C_INIT;
 839              		.loc 1 1416 3 is_stmt 1 view .LVU286
1417:Lib/Camera_Middleware/cmw_camera.c ****   camera_bsp.vd66gy_bsp.DeInit      = CMW_I2C_DEINIT;
1418:Lib/Camera_Middleware/cmw_camera.c ****   camera_bsp.vd66gy_bsp.ReadReg     = CMW_I2C_READREG16;
1419:Lib/Camera_Middleware/cmw_camera.c ****   camera_bsp.vd66gy_bsp.WriteReg    = CMW_I2C_WRITEREG16;
1420:Lib/Camera_Middleware/cmw_camera.c ****   camera_bsp.vd66gy_bsp.Delay       = HAL_Delay;
1421:Lib/Camera_Middleware/cmw_camera.c ****   camera_bsp.vd66gy_bsp.ShutdownPin = CMW_CAMERA_ShutdownPin;
1422:Lib/Camera_Middleware/cmw_camera.c ****   camera_bsp.vd66gy_bsp.EnablePin   = CMW_CAMERA_EnablePin;
 840              		.loc 1 1422 37 is_stmt 0 view .LVU287
 841 0272 3A4A     		ldr	r2, .L133+4
1418:Lib/Camera_Middleware/cmw_camera.c ****   camera_bsp.vd66gy_bsp.WriteReg    = CMW_I2C_WRITEREG16;
 842              		.loc 1 1418 37 view .LVU288
 843 0274 3A4B     		ldr	r3, .L133+8
 844              		.loc 1 1422 37 view .LVU289
 845 0276 C8F84021 		str	r2, [r8, #320]
1423:Lib/Camera_Middleware/cmw_camera.c ****   camera_bsp.vd66gy_bsp.hdcmipp     = &hcamera_dcmipp;
 846              		.loc 1 1423 37 view .LVU290
 847 027a 3A4A     		ldr	r2, .L133+12
1419:Lib/Camera_Middleware/cmw_camera.c ****   camera_bsp.vd66gy_bsp.Delay       = HAL_Delay;
 848              		.loc 1 1419 37 view .LVU291
 849 027c C8E94B73 		strd	r7, r3, [r8, #300]
ARM GAS  C:\Users\DJESSOU\AppData\Local\Temp\cc3dm0Vf.s 			page 44


 850              		.loc 1 1423 37 view .LVU292
 851 0280 C8F81C21 		str	r2, [r8, #284]
1424:Lib/Camera_Middleware/cmw_camera.c ****   camera_bsp.vd66gy_bsp.appliHelpers.SetSensorGain = CB_ISP_SetSensorGain;
 852              		.loc 1 1424 52 view .LVU293
 853 0284 384A     		ldr	r2, .L133+16
1421:Lib/Camera_Middleware/cmw_camera.c ****   camera_bsp.vd66gy_bsp.EnablePin   = CMW_CAMERA_EnablePin;
 854              		.loc 1 1421 37 view .LVU294
 855 0286 394B     		ldr	r3, .L133+20
 856              		.loc 1 1424 52 view .LVU295
 857 0288 C8F80821 		str	r2, [r8, #264]
1425:Lib/Camera_Middleware/cmw_camera.c ****   camera_bsp.vd66gy_bsp.appliHelpers.GetSensorGain = CB_ISP_GetSensorGain;
 858              		.loc 1 1425 52 view .LVU296
 859 028c 384A     		ldr	r2, .L133+24
1426:Lib/Camera_Middleware/cmw_camera.c ****   camera_bsp.vd66gy_bsp.appliHelpers.SetSensorExposure = CB_ISP_SetSensorExposure;
1427:Lib/Camera_Middleware/cmw_camera.c ****   camera_bsp.vd66gy_bsp.appliHelpers.GetSensorExposure = CB_ISP_GetSensorExposure;
1428:Lib/Camera_Middleware/cmw_camera.c ****   camera_bsp.vd66gy_bsp.appliHelpers.GetSensorInfo = CB_ISP_GetSensorInfo;
1429:Lib/Camera_Middleware/cmw_camera.c **** 
1430:Lib/Camera_Middleware/cmw_camera.c ****   ret = CMW_VD66GY_Probe(&camera_bsp.vd66gy_bsp, &Camera_Drv);
 860              		.loc 1 1430 9 view .LVU297
 861 028e 3949     		ldr	r1, .L133+28
1425:Lib/Camera_Middleware/cmw_camera.c ****   camera_bsp.vd66gy_bsp.appliHelpers.GetSensorGain = CB_ISP_GetSensorGain;
 862              		.loc 1 1425 52 view .LVU298
 863 0290 C8F80C21 		str	r2, [r8, #268]
1426:Lib/Camera_Middleware/cmw_camera.c ****   camera_bsp.vd66gy_bsp.appliHelpers.SetSensorExposure = CB_ISP_SetSensorExposure;
 864              		.loc 1 1426 56 view .LVU299
 865 0294 384A     		ldr	r2, .L133+32
 866              		.loc 1 1430 9 view .LVU300
 867 0296 3048     		ldr	r0, .L133
1426:Lib/Camera_Middleware/cmw_camera.c ****   camera_bsp.vd66gy_bsp.appliHelpers.SetSensorExposure = CB_ISP_SetSensorExposure;
 868              		.loc 1 1426 56 view .LVU301
 869 0298 C8F81021 		str	r2, [r8, #272]
1427:Lib/Camera_Middleware/cmw_camera.c ****   camera_bsp.vd66gy_bsp.appliHelpers.GetSensorInfo = CB_ISP_GetSensorInfo;
 870              		.loc 1 1427 56 view .LVU302
 871 029c 374A     		ldr	r2, .L133+36
1417:Lib/Camera_Middleware/cmw_camera.c ****   camera_bsp.vd66gy_bsp.ReadReg     = CMW_I2C_READREG16;
 872              		.loc 1 1417 37 view .LVU303
 873 029e C8E949A9 		strd	r10, r9, [r8, #292]
1418:Lib/Camera_Middleware/cmw_camera.c ****   camera_bsp.vd66gy_bsp.WriteReg    = CMW_I2C_WRITEREG16;
 874              		.loc 1 1418 3 is_stmt 1 view .LVU304
1420:Lib/Camera_Middleware/cmw_camera.c ****   camera_bsp.vd66gy_bsp.ShutdownPin = CMW_CAMERA_ShutdownPin;
 875              		.loc 1 1420 3 view .LVU305
1427:Lib/Camera_Middleware/cmw_camera.c ****   camera_bsp.vd66gy_bsp.appliHelpers.GetSensorInfo = CB_ISP_GetSensorInfo;
 876              		.loc 1 1427 56 is_stmt 0 view .LVU306
 877 02a2 C8F81421 		str	r2, [r8, #276]
1428:Lib/Camera_Middleware/cmw_camera.c **** 
 878              		.loc 1 1428 52 view .LVU307
 879 02a6 364A     		ldr	r2, .L133+40
1420:Lib/Camera_Middleware/cmw_camera.c ****   camera_bsp.vd66gy_bsp.ShutdownPin = CMW_CAMERA_ShutdownPin;
 880              		.loc 1 1420 37 view .LVU308
 881 02a8 C8F83861 		str	r6, [r8, #312]
1421:Lib/Camera_Middleware/cmw_camera.c ****   camera_bsp.vd66gy_bsp.EnablePin   = CMW_CAMERA_EnablePin;
 882              		.loc 1 1421 3 is_stmt 1 view .LVU309
1421:Lib/Camera_Middleware/cmw_camera.c ****   camera_bsp.vd66gy_bsp.EnablePin   = CMW_CAMERA_EnablePin;
 883              		.loc 1 1421 37 is_stmt 0 view .LVU310
 884 02ac C8F83C31 		str	r3, [r8, #316]
1422:Lib/Camera_Middleware/cmw_camera.c ****   camera_bsp.vd66gy_bsp.hdcmipp     = &hcamera_dcmipp;
 885              		.loc 1 1422 3 is_stmt 1 view .LVU311
ARM GAS  C:\Users\DJESSOU\AppData\Local\Temp\cc3dm0Vf.s 			page 45


1423:Lib/Camera_Middleware/cmw_camera.c ****   camera_bsp.vd66gy_bsp.appliHelpers.SetSensorGain = CB_ISP_SetSensorGain;
 886              		.loc 1 1423 3 view .LVU312
1424:Lib/Camera_Middleware/cmw_camera.c ****   camera_bsp.vd66gy_bsp.appliHelpers.GetSensorGain = CB_ISP_GetSensorGain;
 887              		.loc 1 1424 3 view .LVU313
1425:Lib/Camera_Middleware/cmw_camera.c ****   camera_bsp.vd66gy_bsp.appliHelpers.SetSensorExposure = CB_ISP_SetSensorExposure;
 888              		.loc 1 1425 3 view .LVU314
1426:Lib/Camera_Middleware/cmw_camera.c ****   camera_bsp.vd66gy_bsp.appliHelpers.GetSensorExposure = CB_ISP_GetSensorExposure;
 889              		.loc 1 1426 3 view .LVU315
1427:Lib/Camera_Middleware/cmw_camera.c ****   camera_bsp.vd66gy_bsp.appliHelpers.GetSensorInfo = CB_ISP_GetSensorInfo;
 890              		.loc 1 1427 3 view .LVU316
1428:Lib/Camera_Middleware/cmw_camera.c **** 
 891              		.loc 1 1428 3 view .LVU317
1428:Lib/Camera_Middleware/cmw_camera.c **** 
 892              		.loc 1 1428 52 is_stmt 0 view .LVU318
 893 02b0 C8F80421 		str	r2, [r8, #260]
 894              		.loc 1 1430 3 is_stmt 1 view .LVU319
 895              		.loc 1 1430 9 is_stmt 0 view .LVU320
 896 02b4 FFF7FEFF 		bl	CMW_VD66GY_Probe
 897              	.LVL63:
1431:Lib/Camera_Middleware/cmw_camera.c ****   if (ret != CMW_ERROR_NONE)
 898              		.loc 1 1431 3 is_stmt 1 view .LVU321
 899              		.loc 1 1431 6 is_stmt 0 view .LVU322
 900 02b8 0028     		cmp	r0, #0
 901 02ba 65D1     		bne	.L45
1432:Lib/Camera_Middleware/cmw_camera.c ****   {
1433:Lib/Camera_Middleware/cmw_camera.c ****     return CMW_ERROR_COMPONENT_FAILURE;
1434:Lib/Camera_Middleware/cmw_camera.c ****   }
1435:Lib/Camera_Middleware/cmw_camera.c **** 
1436:Lib/Camera_Middleware/cmw_camera.c ****   if ((connected_sensor != CMW_VD66GY_Sensor) && (connected_sensor != CMW_UNKNOWN_Sensor))
 902              		.loc 1 1436 3 is_stmt 1 view .LVU323
 903              		.loc 1 1436 47 is_stmt 0 view .LVU324
 904 02bc 314A     		ldr	r2, .L133+44
 905              		.loc 1 1436 6 view .LVU325
 906 02be 1278     		ldrb	r2, [r2]	@ zero_extendqisi2
 907 02c0 012A     		cmp	r2, #1
 908 02c2 61D8     		bhi	.L45
1437:Lib/Camera_Middleware/cmw_camera.c ****   {
1438:Lib/Camera_Middleware/cmw_camera.c ****     /* If the selected sensor in the application side has selected a different sensors than VD66GY 
1439:Lib/Camera_Middleware/cmw_camera.c ****     return CMW_ERROR_COMPONENT_FAILURE;
1440:Lib/Camera_Middleware/cmw_camera.c ****   }
1441:Lib/Camera_Middleware/cmw_camera.c **** 
1442:Lib/Camera_Middleware/cmw_camera.c ****   /* Special case: when resolution is not specified take the full sensor resolution */
1443:Lib/Camera_Middleware/cmw_camera.c ****   if ((initSensors_params->width == 0) || (initSensors_params->height == 0))
 909              		.loc 1 1443 3 is_stmt 1 view .LVU326
 910              		.loc 1 1443 6 is_stmt 0 view .LVU327
 911 02c4 2268     		ldr	r2, [r4]
 912 02c6 0DF1200B 		add	fp, sp, #32
 913 02ca 0AB1     		cbz	r2, .L47
 914              		.loc 1 1443 40 discriminator 1 view .LVU328
 915 02cc 6268     		ldr	r2, [r4, #4]
 916 02ce 42B9     		cbnz	r2, .L48
 917              	.L47:
 918              	.LBB75:
1444:Lib/Camera_Middleware/cmw_camera.c ****   {
1445:Lib/Camera_Middleware/cmw_camera.c ****     ISP_SensorInfoTypeDef sensor_info;
 919              		.loc 1 1445 5 is_stmt 1 view .LVU329
1446:Lib/Camera_Middleware/cmw_camera.c ****     Camera_Drv.GetSensorInfo(&camera_bsp, &sensor_info);
ARM GAS  C:\Users\DJESSOU\AppData\Local\Temp\cc3dm0Vf.s 			page 46


 920              		.loc 1 1446 5 view .LVU330
 921              		.loc 1 1446 15 is_stmt 0 view .LVU331
 922 02d0 284A     		ldr	r2, .L133+28
 923              		.loc 1 1446 5 view .LVU332
 924 02d2 5946     		mov	r1, fp
 925 02d4 126E     		ldr	r2, [r2, #96]
 926 02d6 2048     		ldr	r0, .L133
 927              	.LVL64:
 928              		.loc 1 1446 5 view .LVU333
 929 02d8 9047     		blx	r2
 930              	.LVL65:
1447:Lib/Camera_Middleware/cmw_camera.c ****     initSensors_params->width = sensor_info.width;
 931              		.loc 1 1447 5 is_stmt 1 view .LVU334
 932              		.loc 1 1447 31 is_stmt 0 view .LVU335
 933 02da 119A     		ldr	r2, [sp, #68]
 934 02dc 2260     		str	r2, [r4]
1448:Lib/Camera_Middleware/cmw_camera.c ****     initSensors_params->height = sensor_info.height;
 935              		.loc 1 1448 5 is_stmt 1 view .LVU336
 936              		.loc 1 1448 32 is_stmt 0 view .LVU337
 937 02de 129A     		ldr	r2, [sp, #72]
 938 02e0 6260     		str	r2, [r4, #4]
 939              	.L48:
 940              		.loc 1 1448 32 view .LVU338
 941              	.LBE75:
1449:Lib/Camera_Middleware/cmw_camera.c ****   }
1450:Lib/Camera_Middleware/cmw_camera.c **** 
1451:Lib/Camera_Middleware/cmw_camera.c ****   CMW_VD66GY_SetDefaultSensorValues(&default_sensor_config);
 942              		.loc 1 1451 3 is_stmt 1 view .LVU339
 943 02e2 5846     		mov	r0, fp
 944 02e4 FFF7FEFF 		bl	CMW_VD66GY_SetDefaultSensorValues
 945              	.LVL66:
1452:Lib/Camera_Middleware/cmw_camera.c ****   initSensors_params->sensor_config = initSensors_params->sensor_config ? initSensors_params->senso
 946              		.loc 1 1452 3 view .LVU340
 947              		.loc 1 1452 57 is_stmt 0 view .LVU341
 948 02e8 2269     		ldr	r2, [r4, #16]
1453:Lib/Camera_Middleware/cmw_camera.c ****   sensor_config = (CMW_VD66GY_config_t*) (initSensors_params->sensor_config);
1454:Lib/Camera_Middleware/cmw_camera.c **** 
1455:Lib/Camera_Middleware/cmw_camera.c ****   ret = Camera_Drv.Init(&camera_bsp, initSensors_params);
 949              		.loc 1 1455 19 view .LVU342
 950 02ea 2249     		ldr	r1, .L133+28
1452:Lib/Camera_Middleware/cmw_camera.c ****   initSensors_params->sensor_config = initSensors_params->sensor_config ? initSensors_params->senso
 951              		.loc 1 1452 109 discriminator 2 view .LVU343
 952 02ec 002A     		cmp	r2, #0
 953 02ee 08BF     		it	eq
 954 02f0 5A46     		moveq	r2, fp
 955              		.loc 1 1455 9 view .LVU344
 956 02f2 0B68     		ldr	r3, [r1]
 957 02f4 1848     		ldr	r0, .L133
 958 02f6 2146     		mov	r1, r4
1452:Lib/Camera_Middleware/cmw_camera.c ****   initSensors_params->sensor_config = initSensors_params->sensor_config ? initSensors_params->senso
 959              		.loc 1 1452 37 discriminator 4 view .LVU345
 960 02f8 2261     		str	r2, [r4, #16]
 961 02fa 0192     		str	r2, [sp, #4]
1453:Lib/Camera_Middleware/cmw_camera.c ****   sensor_config = (CMW_VD66GY_config_t*) (initSensors_params->sensor_config);
 962              		.loc 1 1453 3 is_stmt 1 view .LVU346
 963              	.LVL67:
 964              		.loc 1 1455 3 view .LVU347
ARM GAS  C:\Users\DJESSOU\AppData\Local\Temp\cc3dm0Vf.s 			page 47


 965              		.loc 1 1455 9 is_stmt 0 view .LVU348
 966 02fc 9847     		blx	r3
 967              	.LVL68:
1456:Lib/Camera_Middleware/cmw_camera.c ****   if (ret != CMW_ERROR_NONE)
 968              		.loc 1 1456 3 is_stmt 1 view .LVU349
 969              		.loc 1 1456 6 is_stmt 0 view .LVU350
 970 02fe 0028     		cmp	r0, #0
 971 0300 42D1     		bne	.L45
1457:Lib/Camera_Middleware/cmw_camera.c ****   {
1458:Lib/Camera_Middleware/cmw_camera.c ****     return CMW_ERROR_COMPONENT_FAILURE;
1459:Lib/Camera_Middleware/cmw_camera.c ****   }
1460:Lib/Camera_Middleware/cmw_camera.c **** 
1461:Lib/Camera_Middleware/cmw_camera.c ****   csi_conf.NumberOfLanes = DCMIPP_CSI_TWO_DATA_LANES;
 972              		.loc 1 1461 3 is_stmt 1 view .LVU351
1462:Lib/Camera_Middleware/cmw_camera.c ****   csi_conf.DataLaneMapping = DCMIPP_CSI_PHYSICAL_DATA_LANES;
 973              		.loc 1 1462 28 is_stmt 0 view .LVU352
 974 0302 0121     		movs	r1, #1
 975 0304 4FF4007C 		mov	ip, #512
 976 0308 CDE902C1 		strd	ip, r1, [sp, #8]
1463:Lib/Camera_Middleware/cmw_camera.c ****   csi_conf.PHYBitrate = DCMIPP_CSI_PHY_BT_800;
 977              		.loc 1 1463 3 is_stmt 1 view .LVU353
 978              		.loc 1 1463 23 is_stmt 0 view .LVU354
 979 030c 1C21     		movs	r1, #28
1464:Lib/Camera_Middleware/cmw_camera.c ****   ret = HAL_DCMIPP_CSI_SetConfig(&hcamera_dcmipp, &csi_conf);
 980              		.loc 1 1464 9 view .LVU355
 981 030e 1548     		ldr	r0, .L133+12
 982              	.LVL69:
1463:Lib/Camera_Middleware/cmw_camera.c ****   csi_conf.PHYBitrate = DCMIPP_CSI_PHY_BT_800;
 983              		.loc 1 1463 23 view .LVU356
 984 0310 0491     		str	r1, [sp, #16]
 985              		.loc 1 1464 3 is_stmt 1 view .LVU357
 986              		.loc 1 1464 9 is_stmt 0 view .LVU358
 987 0312 2946     		mov	r1, r5
 988 0314 FFF7FEFF 		bl	HAL_DCMIPP_CSI_SetConfig
 989              	.LVL70:
1465:Lib/Camera_Middleware/cmw_camera.c ****   if (ret != HAL_OK)
 990              		.loc 1 1465 3 is_stmt 1 view .LVU359
 991              		.loc 1 1465 6 is_stmt 0 view .LVU360
 992 0318 0028     		cmp	r0, #0
 993 031a 35D1     		bne	.L45
1466:Lib/Camera_Middleware/cmw_camera.c ****   {
1467:Lib/Camera_Middleware/cmw_camera.c ****     return CMW_ERROR_PERIPH_FAILURE;
1468:Lib/Camera_Middleware/cmw_camera.c ****   }
1469:Lib/Camera_Middleware/cmw_camera.c **** 
1470:Lib/Camera_Middleware/cmw_camera.c ****   switch (sensor_config->pixel_format)
 994              		.loc 1 1470 3 is_stmt 1 view .LVU361
 995              		.loc 1 1470 24 is_stmt 0 view .LVU362
 996 031c 019A     		ldr	r2, [sp, #4]
 997 031e 1268     		ldr	r2, [r2]
 998              		.loc 1 1470 3 view .LVU363
 999 0320 0AB1     		cbz	r2, .L50
 1000 0322 2A2A     		cmp	r2, #42
 1001 0324 30D1     		bne	.L45
 1002              	.L50:
1471:Lib/Camera_Middleware/cmw_camera.c ****   {
1472:Lib/Camera_Middleware/cmw_camera.c ****     case CMW_PIXEL_FORMAT_RAW8:
1473:Lib/Camera_Middleware/cmw_camera.c ****     case CMW_PIXEL_FORMAT_DEFAULT:
ARM GAS  C:\Users\DJESSOU\AppData\Local\Temp\cc3dm0Vf.s 			page 48


1474:Lib/Camera_Middleware/cmw_camera.c ****     {
1475:Lib/Camera_Middleware/cmw_camera.c ****       dt_format = DCMIPP_CSI_DT_BPP8;
 1003              		.loc 1 1475 7 is_stmt 1 view .LVU364
 1004              	.LVL71:
1476:Lib/Camera_Middleware/cmw_camera.c ****       dt = DCMIPP_DT_RAW8;
 1005              		.loc 1 1476 7 view .LVU365
1477:Lib/Camera_Middleware/cmw_camera.c ****       break;
 1006              		.loc 1 1477 7 view .LVU366
1478:Lib/Camera_Middleware/cmw_camera.c ****     }
1479:Lib/Camera_Middleware/cmw_camera.c ****     default:
1480:Lib/Camera_Middleware/cmw_camera.c ****       return CMW_ERROR_COMPONENT_FAILURE;
1481:Lib/Camera_Middleware/cmw_camera.c ****   }
1482:Lib/Camera_Middleware/cmw_camera.c **** 
1483:Lib/Camera_Middleware/cmw_camera.c ****   ret = HAL_DCMIPP_CSI_SetVCConfig(&hcamera_dcmipp, DCMIPP_VIRTUAL_CHANNEL0, dt_format);
 1007              		.loc 1 1483 3 view .LVU367
 1008              		.loc 1 1483 9 is_stmt 0 view .LVU368
 1009 0326 0021     		movs	r1, #0
 1010 0328 0222     		movs	r2, #2
 1011 032a 0E48     		ldr	r0, .L133+12
 1012              	.LVL72:
 1013              		.loc 1 1483 9 view .LVU369
 1014 032c FFF7FEFF 		bl	HAL_DCMIPP_CSI_SetVCConfig
 1015              	.LVL73:
1484:Lib/Camera_Middleware/cmw_camera.c ****   if (ret != HAL_OK)
 1016              		.loc 1 1484 3 is_stmt 1 view .LVU370
 1017              		.loc 1 1484 6 is_stmt 0 view .LVU371
 1018 0330 0146     		mov	r1, r0
 1019 0332 48BB     		cbnz	r0, .L45
1485:Lib/Camera_Middleware/cmw_camera.c ****   {
1486:Lib/Camera_Middleware/cmw_camera.c ****     return CMW_ERROR_PERIPH_FAILURE;
1487:Lib/Camera_Middleware/cmw_camera.c ****   }
1488:Lib/Camera_Middleware/cmw_camera.c **** 
1489:Lib/Camera_Middleware/cmw_camera.c ****   csi_pipe_conf.DataTypeMode = DCMIPP_DTMODE_DTIDA;
 1020              		.loc 1 1489 3 is_stmt 1 view .LVU372
1490:Lib/Camera_Middleware/cmw_camera.c ****   csi_pipe_conf.DataTypeIDA = dt;
 1021              		.loc 1 1490 29 is_stmt 0 view .LVU373
 1022 0334 2A22     		movs	r2, #42
1491:Lib/Camera_Middleware/cmw_camera.c ****   csi_pipe_conf.DataTypeIDB = 0;
 1023              		.loc 1 1491 29 view .LVU374
 1024 0336 CDE90620 		strd	r2, r0, [sp, #24]
 1025              	.LBB76:
1492:Lib/Camera_Middleware/cmw_camera.c ****   /* Pre-initialize CSI config for all the pipes */
1493:Lib/Camera_Middleware/cmw_camera.c ****   for (uint32_t i = DCMIPP_PIPE0; i <= DCMIPP_PIPE2; i++)
1494:Lib/Camera_Middleware/cmw_camera.c ****   {
1495:Lib/Camera_Middleware/cmw_camera.c ****     ret = HAL_DCMIPP_CSI_PIPE_SetConfig(&hcamera_dcmipp, i, &csi_pipe_conf);
 1026              		.loc 1 1495 11 view .LVU375
 1027 033a DFF828B0 		ldr	fp, .L133+12
 1028              	.LBE76:
1489:Lib/Camera_Middleware/cmw_camera.c ****   csi_pipe_conf.DataTypeIDA = dt;
 1029              		.loc 1 1489 30 view .LVU376
 1030 033e 0590     		str	r0, [sp, #20]
1490:Lib/Camera_Middleware/cmw_camera.c ****   csi_pipe_conf.DataTypeIDB = 0;
 1031              		.loc 1 1490 3 is_stmt 1 view .LVU377
1493:Lib/Camera_Middleware/cmw_camera.c ****   {
 1032              		.loc 1 1493 3 view .LVU378
 1033              	.LBB77:
1493:Lib/Camera_Middleware/cmw_camera.c ****   {
ARM GAS  C:\Users\DJESSOU\AppData\Local\Temp\cc3dm0Vf.s 			page 49


 1034              		.loc 1 1493 8 view .LVU379
 1035              	.LVL74:
1493:Lib/Camera_Middleware/cmw_camera.c ****   {
 1036              		.loc 1 1493 37 discriminator 1 view .LVU380
 1037              	.L51:
 1038              		.loc 1 1495 5 view .LVU381
 1039              		.loc 1 1495 11 is_stmt 0 view .LVU382
 1040 0340 5846     		mov	r0, fp
 1041 0342 05AA     		add	r2, sp, #20
 1042 0344 0191     		str	r1, [sp, #4]
 1043 0346 FFF7FEFF 		bl	HAL_DCMIPP_CSI_PIPE_SetConfig
 1044              	.LVL75:
1496:Lib/Camera_Middleware/cmw_camera.c ****     if (ret != HAL_OK)
 1045              		.loc 1 1496 5 is_stmt 1 view .LVU383
 1046              		.loc 1 1496 8 is_stmt 0 view .LVU384
 1047 034a E8B9     		cbnz	r0, .L45
1493:Lib/Camera_Middleware/cmw_camera.c ****   {
 1048              		.loc 1 1493 55 is_stmt 1 discriminator 2 view .LVU385
 1049 034c 0199     		ldr	r1, [sp, #4]
 1050 034e 0131     		adds	r1, r1, #1
 1051              	.LVL76:
1493:Lib/Camera_Middleware/cmw_camera.c ****   {
 1052              		.loc 1 1493 37 discriminator 1 view .LVU386
 1053 0350 0329     		cmp	r1, #3
 1054 0352 F5D1     		bne	.L51
 1055              	.LVL77:
1493:Lib/Camera_Middleware/cmw_camera.c ****   {
 1056              		.loc 1 1493 37 is_stmt 0 discriminator 1 view .LVU387
 1057              	.LBE77:
 1058              	.LBE74:
 1059              	.LBE73:
 276:Lib/Camera_Middleware/cmw_camera.c ****   {
 1060              		.loc 1 276 3 is_stmt 1 view .LVU388
 278:Lib/Camera_Middleware/cmw_camera.c ****     return ret;
 1061              		.loc 1 278 5 view .LVU389
 279:Lib/Camera_Middleware/cmw_camera.c ****   }
 1062              		.loc 1 279 5 view .LVU390
 279:Lib/Camera_Middleware/cmw_camera.c ****   }
 1063              		.loc 1 279 12 is_stmt 0 view .LVU391
 1064 0354 0124     		movs	r4, #1
 1065              	.LVL78:
 279:Lib/Camera_Middleware/cmw_camera.c ****   }
 1066              		.loc 1 279 12 view .LVU392
 1067 0356 1BE1     		b	.L74
 1068              	.L134:
 1069              		.align	2
 1070              	.L133:
 1071 0358 00000000 		.word	camera_bsp
 1072 035c 00000000 		.word	CMW_CAMERA_EnablePin
 1073 0360 00000000 		.word	BSP_I2C1_ReadReg16
 1074 0364 00000000 		.word	hcamera_dcmipp
 1075 0368 00000000 		.word	CB_ISP_SetSensorGain
 1076 036c 00000000 		.word	CMW_CAMERA_ShutdownPin
 1077 0370 00000000 		.word	CB_ISP_GetSensorGain
 1078 0374 00000000 		.word	Camera_Drv
 1079 0378 00000000 		.word	CB_ISP_SetSensorExposure
 1080 037c 00000000 		.word	CB_ISP_GetSensorExposure
ARM GAS  C:\Users\DJESSOU\AppData\Local\Temp\cc3dm0Vf.s 			page 50


 1081 0380 00000000 		.word	CB_ISP_GetSensorInfo
 1082 0384 00000000 		.word	connected_sensor
 1083              	.LVL79:
 1084              	.L45:
 291:Lib/Camera_Middleware/cmw_camera.c ****   if (ret == CMW_ERROR_NONE)
 1085              		.loc 1 291 3 is_stmt 1 view .LVU393
 1086              	.LBB78:
 1087              	.LBI78:
1497:Lib/Camera_Middleware/cmw_camera.c ****     {
1498:Lib/Camera_Middleware/cmw_camera.c ****       return CMW_ERROR_PERIPH_FAILURE;
1499:Lib/Camera_Middleware/cmw_camera.c ****     }
1500:Lib/Camera_Middleware/cmw_camera.c ****   }
1501:Lib/Camera_Middleware/cmw_camera.c **** 
1502:Lib/Camera_Middleware/cmw_camera.c ****   return CMW_ERROR_NONE;
1503:Lib/Camera_Middleware/cmw_camera.c **** }
1504:Lib/Camera_Middleware/cmw_camera.c **** #endif
1505:Lib/Camera_Middleware/cmw_camera.c **** 
1506:Lib/Camera_Middleware/cmw_camera.c **** #if defined(USE_VD56G3_SENSOR)
1507:Lib/Camera_Middleware/cmw_camera.c **** static int32_t CMW_CAMERA_VD56G3_Init( CMW_Sensor_Init_t *initSensors_params)
1508:Lib/Camera_Middleware/cmw_camera.c **** {
1509:Lib/Camera_Middleware/cmw_camera.c ****   int32_t ret = CMW_ERROR_NONE;
1510:Lib/Camera_Middleware/cmw_camera.c ****   DCMIPP_CSI_ConfTypeDef csi_conf = { 0 };
1511:Lib/Camera_Middleware/cmw_camera.c ****   DCMIPP_CSI_PIPE_ConfTypeDef csi_pipe_conf = { 0 };
1512:Lib/Camera_Middleware/cmw_camera.c ****   uint32_t dt_format = 0;
1513:Lib/Camera_Middleware/cmw_camera.c ****   uint32_t dt = 0;
1514:Lib/Camera_Middleware/cmw_camera.c ****   CMW_VD56G3_config_t default_sensor_config;
1515:Lib/Camera_Middleware/cmw_camera.c ****   CMW_VD56G3_config_t *sensor_config;
1516:Lib/Camera_Middleware/cmw_camera.c **** 
1517:Lib/Camera_Middleware/cmw_camera.c ****   memset(&camera_bsp, 0, sizeof(camera_bsp));
1518:Lib/Camera_Middleware/cmw_camera.c ****   camera_bsp.vd56g3_bsp.Address     = CAMERA_VD56G3_ADDRESS;
1519:Lib/Camera_Middleware/cmw_camera.c ****   camera_bsp.vd56g3_bsp.Init        = CMW_I2C_INIT;
1520:Lib/Camera_Middleware/cmw_camera.c ****   camera_bsp.vd56g3_bsp.DeInit      = CMW_I2C_DEINIT;
1521:Lib/Camera_Middleware/cmw_camera.c ****   camera_bsp.vd56g3_bsp.WriteReg    = CMW_I2C_WRITEREG16;
1522:Lib/Camera_Middleware/cmw_camera.c ****   camera_bsp.vd56g3_bsp.ReadReg     = CMW_I2C_READREG16;
1523:Lib/Camera_Middleware/cmw_camera.c ****   camera_bsp.vd56g3_bsp.Delay       = HAL_Delay;
1524:Lib/Camera_Middleware/cmw_camera.c ****   camera_bsp.vd56g3_bsp.ShutdownPin = CMW_CAMERA_ShutdownPin;
1525:Lib/Camera_Middleware/cmw_camera.c ****   camera_bsp.vd56g3_bsp.EnablePin   = CMW_CAMERA_EnablePin;
1526:Lib/Camera_Middleware/cmw_camera.c **** 
1527:Lib/Camera_Middleware/cmw_camera.c ****   ret = CMW_VD56G3_Probe(&camera_bsp.vd56g3_bsp, &Camera_Drv);
1528:Lib/Camera_Middleware/cmw_camera.c ****   if (ret != CMW_ERROR_NONE)
1529:Lib/Camera_Middleware/cmw_camera.c ****   {
1530:Lib/Camera_Middleware/cmw_camera.c ****     return CMW_ERROR_COMPONENT_FAILURE;
1531:Lib/Camera_Middleware/cmw_camera.c ****   }
1532:Lib/Camera_Middleware/cmw_camera.c **** 
1533:Lib/Camera_Middleware/cmw_camera.c ****   if ((connected_sensor != CMW_VD56G3_Sensor) && (connected_sensor != CMW_UNKNOWN_Sensor))
1534:Lib/Camera_Middleware/cmw_camera.c ****   {
1535:Lib/Camera_Middleware/cmw_camera.c ****     return CMW_ERROR_COMPONENT_FAILURE;
1536:Lib/Camera_Middleware/cmw_camera.c ****   }
1537:Lib/Camera_Middleware/cmw_camera.c **** 
1538:Lib/Camera_Middleware/cmw_camera.c ****   if ((initSensors_params->width == 0) || (initSensors_params->height == 0))
1539:Lib/Camera_Middleware/cmw_camera.c ****   {
1540:Lib/Camera_Middleware/cmw_camera.c ****     ISP_SensorInfoTypeDef sensor_info;
1541:Lib/Camera_Middleware/cmw_camera.c ****     Camera_Drv.GetSensorInfo(&camera_bsp, &sensor_info);
1542:Lib/Camera_Middleware/cmw_camera.c ****     initSensors_params->width = sensor_info.width;
1543:Lib/Camera_Middleware/cmw_camera.c ****     initSensors_params->height = sensor_info.height;
1544:Lib/Camera_Middleware/cmw_camera.c ****   }
1545:Lib/Camera_Middleware/cmw_camera.c **** 
ARM GAS  C:\Users\DJESSOU\AppData\Local\Temp\cc3dm0Vf.s 			page 51


1546:Lib/Camera_Middleware/cmw_camera.c ****   CMW_VD56G3_SetDefaultSensorValues(&default_sensor_config);
1547:Lib/Camera_Middleware/cmw_camera.c ****   initSensors_params->sensor_config = initSensors_params->sensor_config ? initSensors_params->senso
1548:Lib/Camera_Middleware/cmw_camera.c ****   sensor_config = (CMW_VD56G3_config_t*) (initSensors_params->sensor_config);
1549:Lib/Camera_Middleware/cmw_camera.c **** 
1550:Lib/Camera_Middleware/cmw_camera.c ****   ret = Camera_Drv.Init(&camera_bsp, initSensors_params);
1551:Lib/Camera_Middleware/cmw_camera.c ****   if (ret != CMW_ERROR_NONE)
1552:Lib/Camera_Middleware/cmw_camera.c ****   {
1553:Lib/Camera_Middleware/cmw_camera.c ****     return CMW_ERROR_COMPONENT_FAILURE;
1554:Lib/Camera_Middleware/cmw_camera.c ****   }
1555:Lib/Camera_Middleware/cmw_camera.c **** 
1556:Lib/Camera_Middleware/cmw_camera.c ****   csi_conf.NumberOfLanes = DCMIPP_CSI_TWO_DATA_LANES;
1557:Lib/Camera_Middleware/cmw_camera.c ****   csi_conf.DataLaneMapping = DCMIPP_CSI_PHYSICAL_DATA_LANES;
1558:Lib/Camera_Middleware/cmw_camera.c ****   csi_conf.PHYBitrate = DCMIPP_CSI_PHY_BT_800;
1559:Lib/Camera_Middleware/cmw_camera.c ****   ret = HAL_DCMIPP_CSI_SetConfig(&hcamera_dcmipp, &csi_conf);
1560:Lib/Camera_Middleware/cmw_camera.c ****   if (ret != HAL_OK)
1561:Lib/Camera_Middleware/cmw_camera.c ****   {
1562:Lib/Camera_Middleware/cmw_camera.c ****     return CMW_ERROR_PERIPH_FAILURE;
1563:Lib/Camera_Middleware/cmw_camera.c ****   }
1564:Lib/Camera_Middleware/cmw_camera.c **** 
1565:Lib/Camera_Middleware/cmw_camera.c ****   switch (sensor_config->pixel_format)
1566:Lib/Camera_Middleware/cmw_camera.c ****   {
1567:Lib/Camera_Middleware/cmw_camera.c ****     case CMW_PIXEL_FORMAT_RAW8:
1568:Lib/Camera_Middleware/cmw_camera.c ****     case CMW_PIXEL_FORMAT_DEFAULT:
1569:Lib/Camera_Middleware/cmw_camera.c ****     {
1570:Lib/Camera_Middleware/cmw_camera.c ****       dt_format = DCMIPP_CSI_DT_BPP8;
1571:Lib/Camera_Middleware/cmw_camera.c ****       dt = DCMIPP_DT_RAW8;
1572:Lib/Camera_Middleware/cmw_camera.c ****       break;
1573:Lib/Camera_Middleware/cmw_camera.c ****     }
1574:Lib/Camera_Middleware/cmw_camera.c ****     default:
1575:Lib/Camera_Middleware/cmw_camera.c ****       return CMW_ERROR_COMPONENT_FAILURE;
1576:Lib/Camera_Middleware/cmw_camera.c ****   }
1577:Lib/Camera_Middleware/cmw_camera.c **** 
1578:Lib/Camera_Middleware/cmw_camera.c ****   ret = HAL_DCMIPP_CSI_SetVCConfig(&hcamera_dcmipp, DCMIPP_VIRTUAL_CHANNEL0, dt_format);
1579:Lib/Camera_Middleware/cmw_camera.c ****   if (ret != HAL_OK)
1580:Lib/Camera_Middleware/cmw_camera.c ****   {
1581:Lib/Camera_Middleware/cmw_camera.c ****     return CMW_ERROR_PERIPH_FAILURE;
1582:Lib/Camera_Middleware/cmw_camera.c ****   }
1583:Lib/Camera_Middleware/cmw_camera.c **** 
1584:Lib/Camera_Middleware/cmw_camera.c ****   csi_pipe_conf.DataTypeMode = DCMIPP_DTMODE_DTIDA;
1585:Lib/Camera_Middleware/cmw_camera.c ****   csi_pipe_conf.DataTypeIDA = dt;
1586:Lib/Camera_Middleware/cmw_camera.c ****   csi_pipe_conf.DataTypeIDB = 0;
1587:Lib/Camera_Middleware/cmw_camera.c ****   for (uint32_t i = DCMIPP_PIPE0; i <= DCMIPP_PIPE2; i++)
1588:Lib/Camera_Middleware/cmw_camera.c ****   {
1589:Lib/Camera_Middleware/cmw_camera.c ****     ret = HAL_DCMIPP_CSI_PIPE_SetConfig(&hcamera_dcmipp, i, &csi_pipe_conf);
1590:Lib/Camera_Middleware/cmw_camera.c ****     if (ret != HAL_OK)
1591:Lib/Camera_Middleware/cmw_camera.c ****     {
1592:Lib/Camera_Middleware/cmw_camera.c ****       return CMW_ERROR_PERIPH_FAILURE;
1593:Lib/Camera_Middleware/cmw_camera.c ****     }
1594:Lib/Camera_Middleware/cmw_camera.c ****   }
1595:Lib/Camera_Middleware/cmw_camera.c **** 
1596:Lib/Camera_Middleware/cmw_camera.c ****   return CMW_ERROR_NONE;
1597:Lib/Camera_Middleware/cmw_camera.c **** }
1598:Lib/Camera_Middleware/cmw_camera.c **** #endif
1599:Lib/Camera_Middleware/cmw_camera.c **** 
1600:Lib/Camera_Middleware/cmw_camera.c **** #if defined(USE_VD1943_SENSOR)
1601:Lib/Camera_Middleware/cmw_camera.c **** static int32_t CMW_CAMERA_VD1943_Init( CMW_Sensor_Init_t *initSensors_params)
 1088              		.loc 1 1601 16 view .LVU394
ARM GAS  C:\Users\DJESSOU\AppData\Local\Temp\cc3dm0Vf.s 			page 52


 1089              	.LBB79:
1602:Lib/Camera_Middleware/cmw_camera.c **** {
1603:Lib/Camera_Middleware/cmw_camera.c ****   int32_t ret = CMW_ERROR_NONE;
 1090              		.loc 1 1603 3 view .LVU395
1604:Lib/Camera_Middleware/cmw_camera.c ****   DCMIPP_CSI_ConfTypeDef csi_conf = { 0 };
 1091              		.loc 1 1604 3 view .LVU396
 1092              		.loc 1 1604 26 is_stmt 0 view .LVU397
 1093 0388 0021     		movs	r1, #0
1605:Lib/Camera_Middleware/cmw_camera.c ****   DCMIPP_CSI_PIPE_ConfTypeDef csi_pipe_conf = { 0 };
1606:Lib/Camera_Middleware/cmw_camera.c ****   uint32_t dt_format = 0;
1607:Lib/Camera_Middleware/cmw_camera.c ****   uint32_t dt = 0;
1608:Lib/Camera_Middleware/cmw_camera.c ****   CMW_VD1943_config_t default_sensor_config;
1609:Lib/Camera_Middleware/cmw_camera.c ****   int32_t csi_phybitrate_i = -1;
1610:Lib/Camera_Middleware/cmw_camera.c ****   CMW_VD1943_config_t *sensor_config;
1611:Lib/Camera_Middleware/cmw_camera.c **** 
1612:Lib/Camera_Middleware/cmw_camera.c ****   memset(&camera_bsp, 0, sizeof(camera_bsp));
 1094              		.loc 1 1612 3 view .LVU398
 1095 038a 4FF4B472 		mov	r2, #360
 1096 038e 9848     		ldr	r0, .L135
1604:Lib/Camera_Middleware/cmw_camera.c ****   DCMIPP_CSI_ConfTypeDef csi_conf = { 0 };
 1097              		.loc 1 1604 26 view .LVU399
 1098 0390 CDE90511 		strd	r1, r1, [sp, #20]
1605:Lib/Camera_Middleware/cmw_camera.c ****   DCMIPP_CSI_PIPE_ConfTypeDef csi_pipe_conf = { 0 };
 1099              		.loc 1 1605 31 view .LVU400
 1100 0394 CDE90711 		strd	r1, r1, [sp, #28]
 1101 0398 CDE90911 		strd	r1, r1, [sp, #36]
1606:Lib/Camera_Middleware/cmw_camera.c ****   uint32_t dt = 0;
 1102              		.loc 1 1606 3 is_stmt 1 view .LVU401
 1103              	.LVL80:
1607:Lib/Camera_Middleware/cmw_camera.c ****   CMW_VD1943_config_t default_sensor_config;
 1104              		.loc 1 1607 3 view .LVU402
1608:Lib/Camera_Middleware/cmw_camera.c ****   int32_t csi_phybitrate_i = -1;
 1105              		.loc 1 1608 3 view .LVU403
1609:Lib/Camera_Middleware/cmw_camera.c ****   CMW_VD1943_config_t *sensor_config;
 1106              		.loc 1 1609 3 view .LVU404
1610:Lib/Camera_Middleware/cmw_camera.c **** 
 1107              		.loc 1 1610 3 view .LVU405
 1108              		.loc 1 1612 3 view .LVU406
 1109 039c FFF7FEFF 		bl	memset
 1110              	.LVL81:
1613:Lib/Camera_Middleware/cmw_camera.c ****   camera_bsp.vd1943_bsp.Address     = CAMERA_VD1943_ADDRESS;
 1111              		.loc 1 1613 3 view .LVU407
 1112              		.loc 1 1613 37 is_stmt 0 view .LVU408
 1113 03a0 2022     		movs	r2, #32
 1114 03a2 A8F80020 		strh	r2, [r8]	@ movhi
1614:Lib/Camera_Middleware/cmw_camera.c ****   camera_bsp.vd1943_bsp.Init        = CMW_I2C_INIT;
 1115              		.loc 1 1614 3 is_stmt 1 view .LVU409
1615:Lib/Camera_Middleware/cmw_camera.c ****   camera_bsp.vd1943_bsp.DeInit      = CMW_I2C_DEINIT;
1616:Lib/Camera_Middleware/cmw_camera.c ****   camera_bsp.vd1943_bsp.WriteReg    = CMW_I2C_WRITEREG16;
1617:Lib/Camera_Middleware/cmw_camera.c ****   camera_bsp.vd1943_bsp.ReadReg     = CMW_I2C_READREG16;
1618:Lib/Camera_Middleware/cmw_camera.c ****   camera_bsp.vd1943_bsp.Delay       = HAL_Delay;
1619:Lib/Camera_Middleware/cmw_camera.c ****   camera_bsp.vd1943_bsp.ShutdownPin = CMW_CAMERA_ShutdownPin;
1620:Lib/Camera_Middleware/cmw_camera.c ****   camera_bsp.vd1943_bsp.EnablePin   = CMW_CAMERA_EnablePin;
 1116              		.loc 1 1620 37 is_stmt 0 view .LVU410
 1117 03a6 934A     		ldr	r2, .L135+4
1617:Lib/Camera_Middleware/cmw_camera.c ****   camera_bsp.vd1943_bsp.Delay       = HAL_Delay;
 1118              		.loc 1 1617 37 view .LVU411
ARM GAS  C:\Users\DJESSOU\AppData\Local\Temp\cc3dm0Vf.s 			page 53


 1119 03a8 934B     		ldr	r3, .L135+8
 1120              		.loc 1 1620 37 view .LVU412
 1121 03aa C8F86421 		str	r2, [r8, #356]
1621:Lib/Camera_Middleware/cmw_camera.c ****   camera_bsp.vd1943_bsp.hdcmipp     = &hcamera_dcmipp;
 1122              		.loc 1 1621 37 view .LVU413
 1123 03ae 934A     		ldr	r2, .L135+12
1617:Lib/Camera_Middleware/cmw_camera.c ****   camera_bsp.vd1943_bsp.Delay       = HAL_Delay;
 1124              		.loc 1 1617 37 view .LVU414
 1125 03b0 C8F85431 		str	r3, [r8, #340]
 1126              		.loc 1 1621 37 view .LVU415
 1127 03b4 C8F84021 		str	r2, [r8, #320]
1622:Lib/Camera_Middleware/cmw_camera.c ****   camera_bsp.vd1943_bsp.appliHelpers.SetSensorGain = CB_ISP_SetSensorGain;
 1128              		.loc 1 1622 52 view .LVU416
 1129 03b8 914A     		ldr	r2, .L135+16
1619:Lib/Camera_Middleware/cmw_camera.c ****   camera_bsp.vd1943_bsp.EnablePin   = CMW_CAMERA_EnablePin;
 1130              		.loc 1 1619 37 view .LVU417
 1131 03ba 924B     		ldr	r3, .L135+20
 1132              		.loc 1 1622 52 view .LVU418
 1133 03bc C8F82C21 		str	r2, [r8, #300]
1623:Lib/Camera_Middleware/cmw_camera.c ****   camera_bsp.vd1943_bsp.appliHelpers.GetSensorGain = CB_ISP_GetSensorGain;
 1134              		.loc 1 1623 52 view .LVU419
 1135 03c0 914A     		ldr	r2, .L135+24
1624:Lib/Camera_Middleware/cmw_camera.c ****   camera_bsp.vd1943_bsp.appliHelpers.SetSensorExposure = CB_ISP_SetSensorExposure;
1625:Lib/Camera_Middleware/cmw_camera.c ****   camera_bsp.vd1943_bsp.appliHelpers.GetSensorExposure = CB_ISP_GetSensorExposure;
1626:Lib/Camera_Middleware/cmw_camera.c ****   camera_bsp.vd1943_bsp.appliHelpers.GetSensorInfo = CB_ISP_GetSensorInfo;
1627:Lib/Camera_Middleware/cmw_camera.c **** 
1628:Lib/Camera_Middleware/cmw_camera.c ****   ret = CMW_VD1943_Probe(&camera_bsp.vd1943_bsp, &Camera_Drv);
 1136              		.loc 1 1628 9 view .LVU420
 1137 03c2 9249     		ldr	r1, .L135+28
1623:Lib/Camera_Middleware/cmw_camera.c ****   camera_bsp.vd1943_bsp.appliHelpers.GetSensorGain = CB_ISP_GetSensorGain;
 1138              		.loc 1 1623 52 view .LVU421
 1139 03c4 C8F83021 		str	r2, [r8, #304]
1624:Lib/Camera_Middleware/cmw_camera.c ****   camera_bsp.vd1943_bsp.appliHelpers.SetSensorExposure = CB_ISP_SetSensorExposure;
 1140              		.loc 1 1624 56 view .LVU422
 1141 03c8 914A     		ldr	r2, .L135+32
 1142              		.loc 1 1628 9 view .LVU423
 1143 03ca 8948     		ldr	r0, .L135
1624:Lib/Camera_Middleware/cmw_camera.c ****   camera_bsp.vd1943_bsp.appliHelpers.SetSensorExposure = CB_ISP_SetSensorExposure;
 1144              		.loc 1 1624 56 view .LVU424
 1145 03cc C8F83421 		str	r2, [r8, #308]
1625:Lib/Camera_Middleware/cmw_camera.c ****   camera_bsp.vd1943_bsp.appliHelpers.GetSensorInfo = CB_ISP_GetSensorInfo;
 1146              		.loc 1 1625 56 view .LVU425
 1147 03d0 904A     		ldr	r2, .L135+36
1615:Lib/Camera_Middleware/cmw_camera.c ****   camera_bsp.vd1943_bsp.WriteReg    = CMW_I2C_WRITEREG16;
 1148              		.loc 1 1615 37 view .LVU426
 1149 03d2 C8E952A9 		strd	r10, r9, [r8, #328]
1616:Lib/Camera_Middleware/cmw_camera.c ****   camera_bsp.vd1943_bsp.ReadReg     = CMW_I2C_READREG16;
 1150              		.loc 1 1616 3 is_stmt 1 view .LVU427
1625:Lib/Camera_Middleware/cmw_camera.c ****   camera_bsp.vd1943_bsp.appliHelpers.GetSensorInfo = CB_ISP_GetSensorInfo;
 1151              		.loc 1 1625 56 is_stmt 0 view .LVU428
 1152 03d6 C8F83821 		str	r2, [r8, #312]
1626:Lib/Camera_Middleware/cmw_camera.c **** 
 1153              		.loc 1 1626 52 view .LVU429
 1154 03da 8F4A     		ldr	r2, .L135+40
1616:Lib/Camera_Middleware/cmw_camera.c ****   camera_bsp.vd1943_bsp.ReadReg     = CMW_I2C_READREG16;
 1155              		.loc 1 1616 37 view .LVU430
 1156 03dc C8F85071 		str	r7, [r8, #336]
ARM GAS  C:\Users\DJESSOU\AppData\Local\Temp\cc3dm0Vf.s 			page 54


1617:Lib/Camera_Middleware/cmw_camera.c ****   camera_bsp.vd1943_bsp.Delay       = HAL_Delay;
 1157              		.loc 1 1617 3 is_stmt 1 view .LVU431
1618:Lib/Camera_Middleware/cmw_camera.c ****   camera_bsp.vd1943_bsp.ShutdownPin = CMW_CAMERA_ShutdownPin;
 1158              		.loc 1 1618 3 view .LVU432
1618:Lib/Camera_Middleware/cmw_camera.c ****   camera_bsp.vd1943_bsp.ShutdownPin = CMW_CAMERA_ShutdownPin;
 1159              		.loc 1 1618 37 is_stmt 0 view .LVU433
 1160 03e0 C8F85C61 		str	r6, [r8, #348]
1619:Lib/Camera_Middleware/cmw_camera.c ****   camera_bsp.vd1943_bsp.EnablePin   = CMW_CAMERA_EnablePin;
 1161              		.loc 1 1619 3 is_stmt 1 view .LVU434
1619:Lib/Camera_Middleware/cmw_camera.c ****   camera_bsp.vd1943_bsp.EnablePin   = CMW_CAMERA_EnablePin;
 1162              		.loc 1 1619 37 is_stmt 0 view .LVU435
 1163 03e4 C8F86031 		str	r3, [r8, #352]
1620:Lib/Camera_Middleware/cmw_camera.c ****   camera_bsp.vd1943_bsp.hdcmipp     = &hcamera_dcmipp;
 1164              		.loc 1 1620 3 is_stmt 1 view .LVU436
1621:Lib/Camera_Middleware/cmw_camera.c ****   camera_bsp.vd1943_bsp.appliHelpers.SetSensorGain = CB_ISP_SetSensorGain;
 1165              		.loc 1 1621 3 view .LVU437
1622:Lib/Camera_Middleware/cmw_camera.c ****   camera_bsp.vd1943_bsp.appliHelpers.GetSensorGain = CB_ISP_GetSensorGain;
 1166              		.loc 1 1622 3 view .LVU438
1623:Lib/Camera_Middleware/cmw_camera.c ****   camera_bsp.vd1943_bsp.appliHelpers.SetSensorExposure = CB_ISP_SetSensorExposure;
 1167              		.loc 1 1623 3 view .LVU439
1624:Lib/Camera_Middleware/cmw_camera.c ****   camera_bsp.vd1943_bsp.appliHelpers.GetSensorExposure = CB_ISP_GetSensorExposure;
 1168              		.loc 1 1624 3 view .LVU440
1625:Lib/Camera_Middleware/cmw_camera.c ****   camera_bsp.vd1943_bsp.appliHelpers.GetSensorInfo = CB_ISP_GetSensorInfo;
 1169              		.loc 1 1625 3 view .LVU441
1626:Lib/Camera_Middleware/cmw_camera.c **** 
 1170              		.loc 1 1626 3 view .LVU442
1626:Lib/Camera_Middleware/cmw_camera.c **** 
 1171              		.loc 1 1626 52 is_stmt 0 view .LVU443
 1172 03e8 C8F82821 		str	r2, [r8, #296]
 1173              		.loc 1 1628 3 is_stmt 1 view .LVU444
 1174              		.loc 1 1628 9 is_stmt 0 view .LVU445
 1175 03ec FFF7FEFF 		bl	CMW_VD1943_Probe
 1176              	.LVL82:
1629:Lib/Camera_Middleware/cmw_camera.c ****   if (ret != CMW_ERROR_NONE)
 1177              		.loc 1 1629 3 is_stmt 1 view .LVU446
 1178              		.loc 1 1629 6 is_stmt 0 view .LVU447
 1179 03f0 0028     		cmp	r0, #0
 1180 03f2 41D1     		bne	.L54
1630:Lib/Camera_Middleware/cmw_camera.c ****   {
1631:Lib/Camera_Middleware/cmw_camera.c ****     return CMW_ERROR_COMPONENT_FAILURE;
1632:Lib/Camera_Middleware/cmw_camera.c ****   }
1633:Lib/Camera_Middleware/cmw_camera.c **** 
1634:Lib/Camera_Middleware/cmw_camera.c ****   if ((connected_sensor != CMW_VD1943_Sensor) && (connected_sensor != CMW_UNKNOWN_Sensor))
 1181              		.loc 1 1634 3 is_stmt 1 view .LVU448
 1182              		.loc 1 1634 25 is_stmt 0 view .LVU449
 1183 03f4 894A     		ldr	r2, .L135+44
 1184 03f6 1278     		ldrb	r2, [r2]	@ zero_extendqisi2
 1185              		.loc 1 1634 6 view .LVU450
 1186 03f8 072A     		cmp	r2, #7
 1187 03fa 01D0     		beq	.L55
 1188              		.loc 1 1634 47 discriminator 1 view .LVU451
 1189 03fc 002A     		cmp	r2, #0
 1190 03fe 3BD1     		bne	.L54
 1191              	.L55:
1635:Lib/Camera_Middleware/cmw_camera.c ****   {
1636:Lib/Camera_Middleware/cmw_camera.c ****     /* If the selected sensor in the application side has selected a different sensors than VD1943 
1637:Lib/Camera_Middleware/cmw_camera.c ****     return CMW_ERROR_COMPONENT_FAILURE;
ARM GAS  C:\Users\DJESSOU\AppData\Local\Temp\cc3dm0Vf.s 			page 55


1638:Lib/Camera_Middleware/cmw_camera.c ****   }
1639:Lib/Camera_Middleware/cmw_camera.c **** 
1640:Lib/Camera_Middleware/cmw_camera.c ****   /* Special case: when resolution is not specified take the full sensor resolution */
1641:Lib/Camera_Middleware/cmw_camera.c ****   if ((initSensors_params->width == 0) || (initSensors_params->height == 0))
 1192              		.loc 1 1641 3 is_stmt 1 view .LVU452
 1193              		.loc 1 1641 6 is_stmt 0 view .LVU453
 1194 0400 2268     		ldr	r2, [r4]
 1195 0402 0AB1     		cbz	r2, .L57
 1196              		.loc 1 1641 40 discriminator 1 view .LVU454
 1197 0404 6268     		ldr	r2, [r4, #4]
 1198 0406 2AB9     		cbnz	r2, .L58
 1199              	.L57:
1642:Lib/Camera_Middleware/cmw_camera.c ****   {
1643:Lib/Camera_Middleware/cmw_camera.c ****     initSensors_params->width = VD1943_MAX_WIDTH;
 1200              		.loc 1 1643 5 is_stmt 1 view .LVU455
1644:Lib/Camera_Middleware/cmw_camera.c ****     initSensors_params->height = VD1943_MAX_HEIGHT;
 1201              		.loc 1 1644 32 is_stmt 0 view .LVU456
 1202 0408 4FF42060 		mov	r0, #2560
 1203              	.LVL83:
 1204              		.loc 1 1644 32 view .LVU457
 1205 040c 4FF4F862 		mov	r2, #1984
 1206 0410 C4E90002 		strd	r0, r2, [r4]
 1207              	.L58:
1645:Lib/Camera_Middleware/cmw_camera.c ****   }
1646:Lib/Camera_Middleware/cmw_camera.c **** 
1647:Lib/Camera_Middleware/cmw_camera.c ****   CMW_VD1943_SetDefaultSensorValues(&default_sensor_config);
 1208              		.loc 1 1647 3 is_stmt 1 view .LVU458
 1209 0414 2846     		mov	r0, r5
 1210 0416 FFF7FEFF 		bl	CMW_VD1943_SetDefaultSensorValues
 1211              	.LVL84:
1648:Lib/Camera_Middleware/cmw_camera.c ****   initSensors_params->sensor_config = initSensors_params->sensor_config ? initSensors_params->senso
 1212              		.loc 1 1648 3 view .LVU459
 1213              		.loc 1 1648 57 is_stmt 0 view .LVU460
 1214 041a D4F810B0 		ldr	fp, [r4, #16]
1649:Lib/Camera_Middleware/cmw_camera.c ****   sensor_config = (CMW_VD1943_config_t*) (initSensors_params->sensor_config);
1650:Lib/Camera_Middleware/cmw_camera.c **** 
1651:Lib/Camera_Middleware/cmw_camera.c ****   ret = Camera_Drv.Init(&camera_bsp, initSensors_params);
 1215              		.loc 1 1651 19 view .LVU461
 1216 041e 7B4A     		ldr	r2, .L135+28
1648:Lib/Camera_Middleware/cmw_camera.c ****   initSensors_params->sensor_config = initSensors_params->sensor_config ? initSensors_params->senso
 1217              		.loc 1 1648 109 discriminator 2 view .LVU462
 1218 0420 BBF1000F 		cmp	fp, #0
 1219 0424 08BF     		it	eq
 1220 0426 AB46     		moveq	fp, r5
 1221              		.loc 1 1651 9 view .LVU463
 1222 0428 2146     		mov	r1, r4
 1223 042a 1268     		ldr	r2, [r2]
 1224 042c 7048     		ldr	r0, .L135
1648:Lib/Camera_Middleware/cmw_camera.c ****   initSensors_params->sensor_config = initSensors_params->sensor_config ? initSensors_params->senso
 1225              		.loc 1 1648 37 discriminator 4 view .LVU464
 1226 042e C4F810B0 		str	fp, [r4, #16]
1649:Lib/Camera_Middleware/cmw_camera.c ****   sensor_config = (CMW_VD1943_config_t*) (initSensors_params->sensor_config);
 1227              		.loc 1 1649 3 is_stmt 1 view .LVU465
 1228              	.LVL85:
 1229              		.loc 1 1651 3 view .LVU466
 1230              		.loc 1 1651 9 is_stmt 0 view .LVU467
 1231 0432 9047     		blx	r2
ARM GAS  C:\Users\DJESSOU\AppData\Local\Temp\cc3dm0Vf.s 			page 56


 1232              	.LVL86:
1652:Lib/Camera_Middleware/cmw_camera.c ****   if (ret != CMW_ERROR_NONE)
 1233              		.loc 1 1652 3 is_stmt 1 view .LVU468
 1234              		.loc 1 1652 6 is_stmt 0 view .LVU469
 1235 0434 00BB     		cbnz	r0, .L54
1653:Lib/Camera_Middleware/cmw_camera.c ****   {
1654:Lib/Camera_Middleware/cmw_camera.c ****     return CMW_ERROR_COMPONENT_FAILURE;
1655:Lib/Camera_Middleware/cmw_camera.c ****   }
1656:Lib/Camera_Middleware/cmw_camera.c **** 
1657:Lib/Camera_Middleware/cmw_camera.c ****   csi_phybitrate_i = CMW_UTILS_getClosest_HAL_PHYBitrate(sensor_config->CSI_PHYBitrate);
 1236              		.loc 1 1657 3 is_stmt 1 view .LVU470
 1237              		.loc 1 1657 22 is_stmt 0 view .LVU471
 1238 0436 DBF80400 		ldr	r0, [fp, #4]
 1239              	.LVL87:
 1240              		.loc 1 1657 22 view .LVU472
 1241 043a FFF7FEFF 		bl	CMW_UTILS_getClosest_HAL_PHYBitrate
 1242              	.LVL88:
1658:Lib/Camera_Middleware/cmw_camera.c ****   if (csi_phybitrate_i < 0)
 1243              		.loc 1 1658 3 is_stmt 1 view .LVU473
 1244              		.loc 1 1658 6 is_stmt 0 view .LVU474
 1245 043e 0028     		cmp	r0, #0
 1246              		.loc 1 1658 6 view .LVU475
 1247 0440 1ADB     		blt	.L54
1659:Lib/Camera_Middleware/cmw_camera.c ****   {
1660:Lib/Camera_Middleware/cmw_camera.c ****     return CMW_ERROR_WRONG_PARAM;
1661:Lib/Camera_Middleware/cmw_camera.c ****   }
1662:Lib/Camera_Middleware/cmw_camera.c **** 
1663:Lib/Camera_Middleware/cmw_camera.c ****   csi_conf.NumberOfLanes = DCMIPP_CSI_TWO_DATA_LANES;
 1248              		.loc 1 1663 3 is_stmt 1 view .LVU476
1664:Lib/Camera_Middleware/cmw_camera.c ****   csi_conf.DataLaneMapping = DCMIPP_CSI_PHYSICAL_DATA_LANES;
 1249              		.loc 1 1664 28 is_stmt 0 view .LVU477
 1250 0442 4FF40071 		mov	r1, #512
 1251 0446 0122     		movs	r2, #1
1665:Lib/Camera_Middleware/cmw_camera.c ****   csi_conf.PHYBitrate = csi_phybitrate_i;
 1252              		.loc 1 1665 23 view .LVU478
 1253 0448 0790     		str	r0, [sp, #28]
1664:Lib/Camera_Middleware/cmw_camera.c ****   csi_conf.DataLaneMapping = DCMIPP_CSI_PHYSICAL_DATA_LANES;
 1254              		.loc 1 1664 28 view .LVU479
 1255 044a CDE90512 		strd	r1, r2, [sp, #20]
 1256              		.loc 1 1665 3 is_stmt 1 view .LVU480
1666:Lib/Camera_Middleware/cmw_camera.c ****   ret = HAL_DCMIPP_CSI_SetConfig(&hcamera_dcmipp, &csi_conf);
 1257              		.loc 1 1666 3 view .LVU481
 1258              		.loc 1 1666 9 is_stmt 0 view .LVU482
 1259 044e 6B48     		ldr	r0, .L135+12
 1260              	.LVL89:
 1261              		.loc 1 1666 9 view .LVU483
 1262 0450 05A9     		add	r1, sp, #20
 1263 0452 FFF7FEFF 		bl	HAL_DCMIPP_CSI_SetConfig
 1264              	.LVL90:
1667:Lib/Camera_Middleware/cmw_camera.c ****   if (ret != HAL_OK)
 1265              		.loc 1 1667 3 is_stmt 1 view .LVU484
 1266              		.loc 1 1667 6 is_stmt 0 view .LVU485
 1267 0456 78B9     		cbnz	r0, .L54
1668:Lib/Camera_Middleware/cmw_camera.c ****   {
1669:Lib/Camera_Middleware/cmw_camera.c ****     return CMW_ERROR_PERIPH_FAILURE;
1670:Lib/Camera_Middleware/cmw_camera.c ****   }
1671:Lib/Camera_Middleware/cmw_camera.c **** 
ARM GAS  C:\Users\DJESSOU\AppData\Local\Temp\cc3dm0Vf.s 			page 57


1672:Lib/Camera_Middleware/cmw_camera.c ****   switch (sensor_config->pixel_format)
 1268              		.loc 1 1672 3 is_stmt 1 view .LVU486
 1269              		.loc 1 1672 24 is_stmt 0 view .LVU487
 1270 0458 DBF800B0 		ldr	fp, [fp]
 1271              	.LVL91:
 1272              		.loc 1 1672 3 view .LVU488
 1273 045c BBF12B0F 		cmp	fp, #43
 1274 0460 00F0A280 		beq	.L78
 1275 0464 00F29A80 		bhi	.L61
 1276 0468 BBF1000F 		cmp	fp, #0
 1277 046c 00F0B880 		beq	.L79
 1278 0470 BBF12A0F 		cmp	fp, #42
 1279 0474 00F0B780 		beq	.L80
 1280              	.LVL92:
 1281              	.L54:
 1282              		.loc 1 1672 3 view .LVU489
 1283              	.LBE79:
 1284              	.LBE78:
 307:Lib/Camera_Middleware/cmw_camera.c ****   if (ret == CMW_ERROR_NONE)
 1285              		.loc 1 307 3 is_stmt 1 view .LVU490
 1286              	.LBB84:
 1287              	.LBI84:
1673:Lib/Camera_Middleware/cmw_camera.c ****   {
1674:Lib/Camera_Middleware/cmw_camera.c ****     case CMW_PIXEL_FORMAT_RAW8:
1675:Lib/Camera_Middleware/cmw_camera.c ****     {
1676:Lib/Camera_Middleware/cmw_camera.c ****       dt_format = DCMIPP_CSI_DT_BPP8;
1677:Lib/Camera_Middleware/cmw_camera.c ****       dt = DCMIPP_DT_RAW8;
1678:Lib/Camera_Middleware/cmw_camera.c ****       break;
1679:Lib/Camera_Middleware/cmw_camera.c ****     }
1680:Lib/Camera_Middleware/cmw_camera.c ****     case CMW_PIXEL_FORMAT_RAW10:
1681:Lib/Camera_Middleware/cmw_camera.c ****     {
1682:Lib/Camera_Middleware/cmw_camera.c ****       dt_format = DCMIPP_CSI_DT_BPP10;
1683:Lib/Camera_Middleware/cmw_camera.c ****       dt = DCMIPP_DT_RAW10;
1684:Lib/Camera_Middleware/cmw_camera.c ****       break;
1685:Lib/Camera_Middleware/cmw_camera.c ****     }
1686:Lib/Camera_Middleware/cmw_camera.c ****     case CMW_PIXEL_FORMAT_RAW12:
1687:Lib/Camera_Middleware/cmw_camera.c ****     case CMW_PIXEL_FORMAT_DEFAULT:
1688:Lib/Camera_Middleware/cmw_camera.c ****     {
1689:Lib/Camera_Middleware/cmw_camera.c ****       dt_format = DCMIPP_CSI_DT_BPP12;
1690:Lib/Camera_Middleware/cmw_camera.c ****       dt = DCMIPP_DT_RAW12;
1691:Lib/Camera_Middleware/cmw_camera.c ****       break;
1692:Lib/Camera_Middleware/cmw_camera.c ****     }
1693:Lib/Camera_Middleware/cmw_camera.c ****     default:
1694:Lib/Camera_Middleware/cmw_camera.c ****       return CMW_ERROR_COMPONENT_FAILURE;
1695:Lib/Camera_Middleware/cmw_camera.c ****   }
1696:Lib/Camera_Middleware/cmw_camera.c **** 
1697:Lib/Camera_Middleware/cmw_camera.c ****   ret = HAL_DCMIPP_CSI_SetVCConfig(&hcamera_dcmipp, DCMIPP_VIRTUAL_CHANNEL0, dt_format);
1698:Lib/Camera_Middleware/cmw_camera.c ****   if (ret != HAL_OK)
1699:Lib/Camera_Middleware/cmw_camera.c ****   {
1700:Lib/Camera_Middleware/cmw_camera.c ****     return CMW_ERROR_PERIPH_FAILURE;
1701:Lib/Camera_Middleware/cmw_camera.c ****   }
1702:Lib/Camera_Middleware/cmw_camera.c **** 
1703:Lib/Camera_Middleware/cmw_camera.c ****   csi_pipe_conf.DataTypeMode = DCMIPP_DTMODE_DTIDA;
1704:Lib/Camera_Middleware/cmw_camera.c ****   csi_pipe_conf.DataTypeIDA = dt;
1705:Lib/Camera_Middleware/cmw_camera.c ****   csi_pipe_conf.DataTypeIDB = 0;
1706:Lib/Camera_Middleware/cmw_camera.c ****   /* Pre-initialize CSI config for all the pipes */
1707:Lib/Camera_Middleware/cmw_camera.c ****   for (uint32_t i = DCMIPP_PIPE0; i <= DCMIPP_PIPE2; i++)
ARM GAS  C:\Users\DJESSOU\AppData\Local\Temp\cc3dm0Vf.s 			page 58


1708:Lib/Camera_Middleware/cmw_camera.c ****   {
1709:Lib/Camera_Middleware/cmw_camera.c ****     ret = HAL_DCMIPP_CSI_PIPE_SetConfig(&hcamera_dcmipp, i, &csi_pipe_conf);
1710:Lib/Camera_Middleware/cmw_camera.c ****     if (ret != HAL_OK)
1711:Lib/Camera_Middleware/cmw_camera.c ****     {
1712:Lib/Camera_Middleware/cmw_camera.c ****       return CMW_ERROR_PERIPH_FAILURE;
1713:Lib/Camera_Middleware/cmw_camera.c ****     }
1714:Lib/Camera_Middleware/cmw_camera.c ****   }
1715:Lib/Camera_Middleware/cmw_camera.c **** 
1716:Lib/Camera_Middleware/cmw_camera.c ****   return CMW_ERROR_NONE;
1717:Lib/Camera_Middleware/cmw_camera.c **** }
1718:Lib/Camera_Middleware/cmw_camera.c **** #endif
1719:Lib/Camera_Middleware/cmw_camera.c **** 
1720:Lib/Camera_Middleware/cmw_camera.c **** #if defined(USE_VD5943_SENSOR)
1721:Lib/Camera_Middleware/cmw_camera.c **** static int32_t CMW_CAMERA_VD5943_Init( CMW_Sensor_Init_t *initSensors_params)
1722:Lib/Camera_Middleware/cmw_camera.c **** {
1723:Lib/Camera_Middleware/cmw_camera.c ****   int32_t ret = CMW_ERROR_NONE;
1724:Lib/Camera_Middleware/cmw_camera.c ****   DCMIPP_CSI_ConfTypeDef csi_conf = { 0 };
1725:Lib/Camera_Middleware/cmw_camera.c ****   DCMIPP_CSI_PIPE_ConfTypeDef csi_pipe_conf = { 0 };
1726:Lib/Camera_Middleware/cmw_camera.c ****   uint32_t dt_format = 0;
1727:Lib/Camera_Middleware/cmw_camera.c ****   uint32_t dt = 0;
1728:Lib/Camera_Middleware/cmw_camera.c ****   CMW_VD5943_config_t default_sensor_config;
1729:Lib/Camera_Middleware/cmw_camera.c ****   int32_t csi_phybitrate_i = -1;
1730:Lib/Camera_Middleware/cmw_camera.c ****   CMW_VD5943_config_t *sensor_config;
1731:Lib/Camera_Middleware/cmw_camera.c **** 
1732:Lib/Camera_Middleware/cmw_camera.c ****   memset(&camera_bsp, 0, sizeof(camera_bsp));
1733:Lib/Camera_Middleware/cmw_camera.c ****   camera_bsp.vd5943_bsp.Address     = CAMERA_VD1943_ADDRESS;
1734:Lib/Camera_Middleware/cmw_camera.c ****   camera_bsp.vd5943_bsp.Init        = CMW_I2C_INIT;
1735:Lib/Camera_Middleware/cmw_camera.c ****   camera_bsp.vd5943_bsp.DeInit      = CMW_I2C_DEINIT;
1736:Lib/Camera_Middleware/cmw_camera.c ****   camera_bsp.vd5943_bsp.WriteReg    = CMW_I2C_WRITEREG16;
1737:Lib/Camera_Middleware/cmw_camera.c ****   camera_bsp.vd5943_bsp.ReadReg     = CMW_I2C_READREG16;
1738:Lib/Camera_Middleware/cmw_camera.c ****   camera_bsp.vd5943_bsp.Delay       = HAL_Delay;
1739:Lib/Camera_Middleware/cmw_camera.c ****   camera_bsp.vd5943_bsp.ShutdownPin = CMW_CAMERA_ShutdownPin;
1740:Lib/Camera_Middleware/cmw_camera.c ****   camera_bsp.vd5943_bsp.EnablePin   = CMW_CAMERA_EnablePin;
1741:Lib/Camera_Middleware/cmw_camera.c ****   camera_bsp.vd5943_bsp.hdcmipp     = &hcamera_dcmipp;
1742:Lib/Camera_Middleware/cmw_camera.c ****   camera_bsp.vd5943_bsp.appliHelpers.SetSensorGain = CB_ISP_SetSensorGain;
1743:Lib/Camera_Middleware/cmw_camera.c ****   camera_bsp.vd5943_bsp.appliHelpers.GetSensorGain = CB_ISP_GetSensorGain;
1744:Lib/Camera_Middleware/cmw_camera.c ****   camera_bsp.vd5943_bsp.appliHelpers.SetSensorExposure = CB_ISP_SetSensorExposure;
1745:Lib/Camera_Middleware/cmw_camera.c ****   camera_bsp.vd5943_bsp.appliHelpers.GetSensorExposure = CB_ISP_GetSensorExposure;
1746:Lib/Camera_Middleware/cmw_camera.c ****   camera_bsp.vd5943_bsp.appliHelpers.GetSensorInfo = CB_ISP_GetSensorInfo;
1747:Lib/Camera_Middleware/cmw_camera.c **** 
1748:Lib/Camera_Middleware/cmw_camera.c ****   ret = CMW_VD5943_Probe(&camera_bsp.vd5943_bsp, &Camera_Drv);
1749:Lib/Camera_Middleware/cmw_camera.c ****   if (ret != CMW_ERROR_NONE)
1750:Lib/Camera_Middleware/cmw_camera.c ****   {
1751:Lib/Camera_Middleware/cmw_camera.c ****     return CMW_ERROR_COMPONENT_FAILURE;
1752:Lib/Camera_Middleware/cmw_camera.c ****   }
1753:Lib/Camera_Middleware/cmw_camera.c **** 
1754:Lib/Camera_Middleware/cmw_camera.c ****   if ((connected_sensor != CMW_VD5943_Sensor) && (connected_sensor != CMW_UNKNOWN_Sensor))
1755:Lib/Camera_Middleware/cmw_camera.c ****   {
1756:Lib/Camera_Middleware/cmw_camera.c ****     /* If the selected sensor in the application side has selected a different sensors than VD5943 
1757:Lib/Camera_Middleware/cmw_camera.c ****     return CMW_ERROR_COMPONENT_FAILURE;
1758:Lib/Camera_Middleware/cmw_camera.c ****   }
1759:Lib/Camera_Middleware/cmw_camera.c **** 
1760:Lib/Camera_Middleware/cmw_camera.c ****   /* Special case: when resolution is not specified take the full sensor resolution */
1761:Lib/Camera_Middleware/cmw_camera.c ****   if ((initSensors_params->width == 0) || (initSensors_params->height == 0))
1762:Lib/Camera_Middleware/cmw_camera.c ****   {
1763:Lib/Camera_Middleware/cmw_camera.c ****     ISP_SensorInfoTypeDef sensor_info;
1764:Lib/Camera_Middleware/cmw_camera.c ****     Camera_Drv.GetSensorInfo(&camera_bsp, &sensor_info);
ARM GAS  C:\Users\DJESSOU\AppData\Local\Temp\cc3dm0Vf.s 			page 59


1765:Lib/Camera_Middleware/cmw_camera.c ****     initSensors_params->width = sensor_info.width;
1766:Lib/Camera_Middleware/cmw_camera.c ****     initSensors_params->height = sensor_info.height;
1767:Lib/Camera_Middleware/cmw_camera.c ****   }
1768:Lib/Camera_Middleware/cmw_camera.c **** 
1769:Lib/Camera_Middleware/cmw_camera.c ****   CMW_VD5943_SetDefaultSensorValues(&default_sensor_config);
1770:Lib/Camera_Middleware/cmw_camera.c ****   initSensors_params->sensor_config = initSensors_params->sensor_config ? initSensors_params->senso
1771:Lib/Camera_Middleware/cmw_camera.c ****   sensor_config = (CMW_VD5943_config_t*) (initSensors_params->sensor_config);
1772:Lib/Camera_Middleware/cmw_camera.c **** 
1773:Lib/Camera_Middleware/cmw_camera.c ****   ret = Camera_Drv.Init(&camera_bsp, initSensors_params);
1774:Lib/Camera_Middleware/cmw_camera.c ****   if (ret != CMW_ERROR_NONE)
1775:Lib/Camera_Middleware/cmw_camera.c ****   {
1776:Lib/Camera_Middleware/cmw_camera.c ****     return CMW_ERROR_COMPONENT_FAILURE;
1777:Lib/Camera_Middleware/cmw_camera.c ****   }
1778:Lib/Camera_Middleware/cmw_camera.c **** 
1779:Lib/Camera_Middleware/cmw_camera.c ****   csi_phybitrate_i = CMW_UTILS_getClosest_HAL_PHYBitrate(sensor_config->CSI_PHYBitrate);
1780:Lib/Camera_Middleware/cmw_camera.c ****   if (csi_phybitrate_i < 0)
1781:Lib/Camera_Middleware/cmw_camera.c ****   {
1782:Lib/Camera_Middleware/cmw_camera.c ****     return CMW_ERROR_WRONG_PARAM;
1783:Lib/Camera_Middleware/cmw_camera.c ****   }
1784:Lib/Camera_Middleware/cmw_camera.c **** 
1785:Lib/Camera_Middleware/cmw_camera.c ****   csi_conf.NumberOfLanes = DCMIPP_CSI_TWO_DATA_LANES;
1786:Lib/Camera_Middleware/cmw_camera.c ****   csi_conf.DataLaneMapping = DCMIPP_CSI_PHYSICAL_DATA_LANES;
1787:Lib/Camera_Middleware/cmw_camera.c ****   csi_conf.PHYBitrate = CMW_UTILS_getClosest_HAL_PHYBitrate(sensor_config->CSI_PHYBitrate);
1788:Lib/Camera_Middleware/cmw_camera.c ****   ret = HAL_DCMIPP_CSI_SetConfig(&hcamera_dcmipp, &csi_conf);
1789:Lib/Camera_Middleware/cmw_camera.c ****   if (ret != HAL_OK)
1790:Lib/Camera_Middleware/cmw_camera.c ****   {
1791:Lib/Camera_Middleware/cmw_camera.c ****     return CMW_ERROR_PERIPH_FAILURE;
1792:Lib/Camera_Middleware/cmw_camera.c ****   }
1793:Lib/Camera_Middleware/cmw_camera.c **** 
1794:Lib/Camera_Middleware/cmw_camera.c ****   switch (sensor_config->pixel_format)
1795:Lib/Camera_Middleware/cmw_camera.c ****   {
1796:Lib/Camera_Middleware/cmw_camera.c ****     case CMW_PIXEL_FORMAT_RAW10:
1797:Lib/Camera_Middleware/cmw_camera.c ****     {
1798:Lib/Camera_Middleware/cmw_camera.c ****       dt_format = DCMIPP_CSI_DT_BPP10;
1799:Lib/Camera_Middleware/cmw_camera.c ****       dt = DCMIPP_DT_RAW10;
1800:Lib/Camera_Middleware/cmw_camera.c ****       break;
1801:Lib/Camera_Middleware/cmw_camera.c ****     }
1802:Lib/Camera_Middleware/cmw_camera.c ****     case CMW_PIXEL_FORMAT_RAW8:
1803:Lib/Camera_Middleware/cmw_camera.c ****     case CMW_PIXEL_FORMAT_DEFAULT:
1804:Lib/Camera_Middleware/cmw_camera.c ****     {
1805:Lib/Camera_Middleware/cmw_camera.c ****       dt_format = DCMIPP_CSI_DT_BPP8;
1806:Lib/Camera_Middleware/cmw_camera.c ****       dt = DCMIPP_DT_RAW8;
1807:Lib/Camera_Middleware/cmw_camera.c ****       break;
1808:Lib/Camera_Middleware/cmw_camera.c ****     }
1809:Lib/Camera_Middleware/cmw_camera.c ****     default:
1810:Lib/Camera_Middleware/cmw_camera.c ****       return CMW_ERROR_COMPONENT_FAILURE;
1811:Lib/Camera_Middleware/cmw_camera.c ****   }
1812:Lib/Camera_Middleware/cmw_camera.c **** 
1813:Lib/Camera_Middleware/cmw_camera.c ****   ret = HAL_DCMIPP_CSI_SetVCConfig(&hcamera_dcmipp, DCMIPP_VIRTUAL_CHANNEL0, dt_format);
1814:Lib/Camera_Middleware/cmw_camera.c ****   if (ret != HAL_OK)
1815:Lib/Camera_Middleware/cmw_camera.c ****   {
1816:Lib/Camera_Middleware/cmw_camera.c ****     return CMW_ERROR_PERIPH_FAILURE;
1817:Lib/Camera_Middleware/cmw_camera.c ****   }
1818:Lib/Camera_Middleware/cmw_camera.c **** 
1819:Lib/Camera_Middleware/cmw_camera.c ****   csi_pipe_conf.DataTypeMode = DCMIPP_DTMODE_DTIDA;
1820:Lib/Camera_Middleware/cmw_camera.c ****   csi_pipe_conf.DataTypeIDA = dt;
1821:Lib/Camera_Middleware/cmw_camera.c ****   csi_pipe_conf.DataTypeIDB = 0;
ARM GAS  C:\Users\DJESSOU\AppData\Local\Temp\cc3dm0Vf.s 			page 60


1822:Lib/Camera_Middleware/cmw_camera.c ****   /* Pre-initialize CSI config for all the pipes */
1823:Lib/Camera_Middleware/cmw_camera.c ****   for (uint32_t i = DCMIPP_PIPE0; i <= DCMIPP_PIPE2; i++)
1824:Lib/Camera_Middleware/cmw_camera.c ****   {
1825:Lib/Camera_Middleware/cmw_camera.c ****     ret = HAL_DCMIPP_CSI_PIPE_SetConfig(&hcamera_dcmipp, i, &csi_pipe_conf);
1826:Lib/Camera_Middleware/cmw_camera.c ****     if (ret != HAL_OK)
1827:Lib/Camera_Middleware/cmw_camera.c ****     {
1828:Lib/Camera_Middleware/cmw_camera.c ****       return CMW_ERROR_PERIPH_FAILURE;
1829:Lib/Camera_Middleware/cmw_camera.c ****     }
1830:Lib/Camera_Middleware/cmw_camera.c ****   }
1831:Lib/Camera_Middleware/cmw_camera.c **** 
1832:Lib/Camera_Middleware/cmw_camera.c ****   return CMW_ERROR_NONE;
1833:Lib/Camera_Middleware/cmw_camera.c **** }
1834:Lib/Camera_Middleware/cmw_camera.c **** #endif
1835:Lib/Camera_Middleware/cmw_camera.c **** 
1836:Lib/Camera_Middleware/cmw_camera.c **** #if defined(USE_IMX335_SENSOR)
1837:Lib/Camera_Middleware/cmw_camera.c **** static int32_t CMW_CAMERA_IMX335_Init(CMW_Sensor_Init_t *initSensors_params)
 1288              		.loc 1 1837 16 view .LVU491
 1289              	.LBB85:
1838:Lib/Camera_Middleware/cmw_camera.c **** {
1839:Lib/Camera_Middleware/cmw_camera.c ****   int32_t ret = CMW_ERROR_NONE;
 1290              		.loc 1 1839 3 view .LVU492
1840:Lib/Camera_Middleware/cmw_camera.c ****   DCMIPP_CSI_ConfTypeDef csi_conf = { 0 };
 1291              		.loc 1 1840 3 view .LVU493
 1292              		.loc 1 1840 26 is_stmt 0 view .LVU494
 1293 0478 0021     		movs	r1, #0
1841:Lib/Camera_Middleware/cmw_camera.c ****   DCMIPP_CSI_PIPE_ConfTypeDef csi_pipe_conf = { 0 };
1842:Lib/Camera_Middleware/cmw_camera.c ****   uint32_t dt_format = 0;
1843:Lib/Camera_Middleware/cmw_camera.c ****   uint32_t dt = 0;
1844:Lib/Camera_Middleware/cmw_camera.c ****   CMW_IMX335_config_t default_sensor_config;
1845:Lib/Camera_Middleware/cmw_camera.c ****   CMW_IMX335_config_t *sensor_config;
1846:Lib/Camera_Middleware/cmw_camera.c **** 
1847:Lib/Camera_Middleware/cmw_camera.c ****   memset(&camera_bsp, 0, sizeof(camera_bsp));
 1294              		.loc 1 1847 3 view .LVU495
 1295 047a 4FF4B472 		mov	r2, #360
1840:Lib/Camera_Middleware/cmw_camera.c ****   DCMIPP_CSI_ConfTypeDef csi_conf = { 0 };
 1296              		.loc 1 1840 26 view .LVU496
 1297 047e 0291     		str	r1, [sp, #8]
 1298              		.loc 1 1847 3 view .LVU497
 1299 0480 5B48     		ldr	r0, .L135
1840:Lib/Camera_Middleware/cmw_camera.c ****   DCMIPP_CSI_ConfTypeDef csi_conf = { 0 };
 1300              		.loc 1 1840 26 view .LVU498
 1301 0482 C5E90111 		strd	r1, r1, [r5, #4]
1841:Lib/Camera_Middleware/cmw_camera.c ****   DCMIPP_CSI_PIPE_ConfTypeDef csi_pipe_conf = { 0 };
 1302              		.loc 1 1841 3 is_stmt 1 view .LVU499
1841:Lib/Camera_Middleware/cmw_camera.c ****   DCMIPP_CSI_PIPE_ConfTypeDef csi_pipe_conf = { 0 };
 1303              		.loc 1 1841 31 is_stmt 0 view .LVU500
 1304 0486 CDE90511 		strd	r1, r1, [sp, #20]
 1305 048a 0791     		str	r1, [sp, #28]
1842:Lib/Camera_Middleware/cmw_camera.c ****   uint32_t dt = 0;
 1306              		.loc 1 1842 3 is_stmt 1 view .LVU501
 1307              	.LVL93:
1843:Lib/Camera_Middleware/cmw_camera.c ****   CMW_IMX335_config_t default_sensor_config;
 1308              		.loc 1 1843 3 view .LVU502
1844:Lib/Camera_Middleware/cmw_camera.c ****   CMW_IMX335_config_t *sensor_config;
 1309              		.loc 1 1844 3 view .LVU503
1845:Lib/Camera_Middleware/cmw_camera.c **** 
 1310              		.loc 1 1845 3 view .LVU504
ARM GAS  C:\Users\DJESSOU\AppData\Local\Temp\cc3dm0Vf.s 			page 61


 1311              		.loc 1 1847 3 view .LVU505
 1312 048c FFF7FEFF 		bl	memset
 1313              	.LVL94:
1848:Lib/Camera_Middleware/cmw_camera.c ****   camera_bsp.imx335_bsp.Address     = CAMERA_IMX335_ADDRESS;
 1314              		.loc 1 1848 3 view .LVU506
 1315              		.loc 1 1848 37 is_stmt 0 view .LVU507
 1316 0490 3422     		movs	r2, #52
 1317 0492 A8F80020 		strh	r2, [r8]	@ movhi
1849:Lib/Camera_Middleware/cmw_camera.c ****   camera_bsp.imx335_bsp.Init        = CMW_I2C_INIT;
 1318              		.loc 1 1849 3 is_stmt 1 view .LVU508
1850:Lib/Camera_Middleware/cmw_camera.c ****   camera_bsp.imx335_bsp.DeInit      = CMW_I2C_DEINIT;
1851:Lib/Camera_Middleware/cmw_camera.c ****   camera_bsp.imx335_bsp.ReadReg     = CMW_I2C_READREG16;
1852:Lib/Camera_Middleware/cmw_camera.c ****   camera_bsp.imx335_bsp.WriteReg    = CMW_I2C_WRITEREG16;
1853:Lib/Camera_Middleware/cmw_camera.c ****   camera_bsp.imx335_bsp.GetTick     = BSP_GetTick;
1854:Lib/Camera_Middleware/cmw_camera.c ****   camera_bsp.imx335_bsp.Delay       = HAL_Delay;
1855:Lib/Camera_Middleware/cmw_camera.c ****   camera_bsp.imx335_bsp.ShutdownPin = CMW_CAMERA_ShutdownPin;
1856:Lib/Camera_Middleware/cmw_camera.c ****   camera_bsp.imx335_bsp.EnablePin   = CMW_CAMERA_EnablePin;
 1319              		.loc 1 1856 37 is_stmt 0 view .LVU509
 1320 0496 574A     		ldr	r2, .L135+4
1851:Lib/Camera_Middleware/cmw_camera.c ****   camera_bsp.imx335_bsp.WriteReg    = CMW_I2C_WRITEREG16;
 1321              		.loc 1 1851 37 view .LVU510
 1322 0498 574B     		ldr	r3, .L135+8
 1323              		.loc 1 1856 37 view .LVU511
 1324 049a C8F80421 		str	r2, [r8, #260]
1857:Lib/Camera_Middleware/cmw_camera.c ****   camera_bsp.imx335_bsp.hdcmipp     = &hcamera_dcmipp;
 1325              		.loc 1 1857 37 view .LVU512
 1326 049e 574A     		ldr	r2, .L135+12
1852:Lib/Camera_Middleware/cmw_camera.c ****   camera_bsp.imx335_bsp.GetTick     = BSP_GetTick;
 1327              		.loc 1 1852 37 view .LVU513
 1328 04a0 C8E93C73 		strd	r7, r3, [r8, #240]
 1329              		.loc 1 1857 37 view .LVU514
 1330 04a4 C8F8E020 		str	r2, [r8, #224]
1858:Lib/Camera_Middleware/cmw_camera.c ****   camera_bsp.imx335_bsp.appliHelpers.SetSensorGain = CB_ISP_SetSensorGain;
 1331              		.loc 1 1858 52 view .LVU515
 1332 04a8 554A     		ldr	r2, .L135+16
1853:Lib/Camera_Middleware/cmw_camera.c ****   camera_bsp.imx335_bsp.Delay       = HAL_Delay;
 1333              		.loc 1 1853 37 view .LVU516
 1334 04aa 5D4B     		ldr	r3, .L135+48
 1335              		.loc 1 1858 52 view .LVU517
 1336 04ac C8F8CC20 		str	r2, [r8, #204]
1859:Lib/Camera_Middleware/cmw_camera.c ****   camera_bsp.imx335_bsp.appliHelpers.GetSensorGain = CB_ISP_GetSensorGain;
 1337              		.loc 1 1859 52 view .LVU518
 1338 04b0 554A     		ldr	r2, .L135+24
1854:Lib/Camera_Middleware/cmw_camera.c ****   camera_bsp.imx335_bsp.ShutdownPin = CMW_CAMERA_ShutdownPin;
 1339              		.loc 1 1854 37 view .LVU519
 1340 04b2 C8E93E36 		strd	r3, r6, [r8, #248]
 1341              		.loc 1 1859 52 view .LVU520
 1342 04b6 C8F8D020 		str	r2, [r8, #208]
1860:Lib/Camera_Middleware/cmw_camera.c ****   camera_bsp.imx335_bsp.appliHelpers.SetSensorExposure = CB_ISP_SetSensorExposure;
 1343              		.loc 1 1860 56 view .LVU521
 1344 04ba 554A     		ldr	r2, .L135+32
1855:Lib/Camera_Middleware/cmw_camera.c ****   camera_bsp.imx335_bsp.EnablePin   = CMW_CAMERA_EnablePin;
 1345              		.loc 1 1855 37 view .LVU522
 1346 04bc 514B     		ldr	r3, .L135+20
 1347              		.loc 1 1860 56 view .LVU523
 1348 04be C8F8D420 		str	r2, [r8, #212]
1861:Lib/Camera_Middleware/cmw_camera.c ****   camera_bsp.imx335_bsp.appliHelpers.GetSensorExposure = CB_ISP_GetSensorExposure;
ARM GAS  C:\Users\DJESSOU\AppData\Local\Temp\cc3dm0Vf.s 			page 62


 1349              		.loc 1 1861 56 view .LVU524
 1350 04c2 544A     		ldr	r2, .L135+36
1862:Lib/Camera_Middleware/cmw_camera.c ****   camera_bsp.imx335_bsp.appliHelpers.GetSensorInfo = CB_ISP_GetSensorInfo;
1863:Lib/Camera_Middleware/cmw_camera.c **** 
1864:Lib/Camera_Middleware/cmw_camera.c ****   ret = CMW_IMX335_Probe(&camera_bsp.imx335_bsp, &Camera_Drv);
 1351              		.loc 1 1864 9 view .LVU525
 1352 04c4 5149     		ldr	r1, .L135+28
1861:Lib/Camera_Middleware/cmw_camera.c ****   camera_bsp.imx335_bsp.appliHelpers.GetSensorExposure = CB_ISP_GetSensorExposure;
 1353              		.loc 1 1861 56 view .LVU526
 1354 04c6 C8F8D820 		str	r2, [r8, #216]
1862:Lib/Camera_Middleware/cmw_camera.c ****   camera_bsp.imx335_bsp.appliHelpers.GetSensorInfo = CB_ISP_GetSensorInfo;
 1355              		.loc 1 1862 52 view .LVU527
 1356 04ca 534A     		ldr	r2, .L135+40
 1357              		.loc 1 1864 9 view .LVU528
 1358 04cc 4848     		ldr	r0, .L135
1850:Lib/Camera_Middleware/cmw_camera.c ****   camera_bsp.imx335_bsp.ReadReg     = CMW_I2C_READREG16;
 1359              		.loc 1 1850 37 view .LVU529
 1360 04ce C8E93AA9 		strd	r10, r9, [r8, #232]
1851:Lib/Camera_Middleware/cmw_camera.c ****   camera_bsp.imx335_bsp.WriteReg    = CMW_I2C_WRITEREG16;
 1361              		.loc 1 1851 3 is_stmt 1 view .LVU530
1853:Lib/Camera_Middleware/cmw_camera.c ****   camera_bsp.imx335_bsp.Delay       = HAL_Delay;
 1362              		.loc 1 1853 3 view .LVU531
1855:Lib/Camera_Middleware/cmw_camera.c ****   camera_bsp.imx335_bsp.EnablePin   = CMW_CAMERA_EnablePin;
 1363              		.loc 1 1855 3 view .LVU532
1855:Lib/Camera_Middleware/cmw_camera.c ****   camera_bsp.imx335_bsp.EnablePin   = CMW_CAMERA_EnablePin;
 1364              		.loc 1 1855 37 is_stmt 0 view .LVU533
 1365 04d2 C8F80031 		str	r3, [r8, #256]
1856:Lib/Camera_Middleware/cmw_camera.c ****   camera_bsp.imx335_bsp.hdcmipp     = &hcamera_dcmipp;
 1366              		.loc 1 1856 3 is_stmt 1 view .LVU534
1857:Lib/Camera_Middleware/cmw_camera.c ****   camera_bsp.imx335_bsp.appliHelpers.SetSensorGain = CB_ISP_SetSensorGain;
 1367              		.loc 1 1857 3 view .LVU535
1858:Lib/Camera_Middleware/cmw_camera.c ****   camera_bsp.imx335_bsp.appliHelpers.GetSensorGain = CB_ISP_GetSensorGain;
 1368              		.loc 1 1858 3 view .LVU536
1859:Lib/Camera_Middleware/cmw_camera.c ****   camera_bsp.imx335_bsp.appliHelpers.SetSensorExposure = CB_ISP_SetSensorExposure;
 1369              		.loc 1 1859 3 view .LVU537
1860:Lib/Camera_Middleware/cmw_camera.c ****   camera_bsp.imx335_bsp.appliHelpers.GetSensorExposure = CB_ISP_GetSensorExposure;
 1370              		.loc 1 1860 3 view .LVU538
1861:Lib/Camera_Middleware/cmw_camera.c ****   camera_bsp.imx335_bsp.appliHelpers.GetSensorInfo = CB_ISP_GetSensorInfo;
 1371              		.loc 1 1861 3 view .LVU539
1862:Lib/Camera_Middleware/cmw_camera.c **** 
 1372              		.loc 1 1862 3 view .LVU540
1862:Lib/Camera_Middleware/cmw_camera.c **** 
 1373              		.loc 1 1862 52 is_stmt 0 view .LVU541
 1374 04d6 C8F8C820 		str	r2, [r8, #200]
 1375              		.loc 1 1864 3 is_stmt 1 view .LVU542
 1376              		.loc 1 1864 9 is_stmt 0 view .LVU543
 1377 04da FFF7FEFF 		bl	CMW_IMX335_Probe
 1378              	.LVL95:
1865:Lib/Camera_Middleware/cmw_camera.c ****   if (ret != CMW_ERROR_NONE)
 1379              		.loc 1 1865 3 is_stmt 1 view .LVU544
 1380              		.loc 1 1865 6 is_stmt 0 view .LVU545
 1381 04de 0028     		cmp	r0, #0
 1382 04e0 40F08380 		bne	.L65
1866:Lib/Camera_Middleware/cmw_camera.c ****   {
1867:Lib/Camera_Middleware/cmw_camera.c ****     return CMW_ERROR_COMPONENT_FAILURE;
1868:Lib/Camera_Middleware/cmw_camera.c ****   }
1869:Lib/Camera_Middleware/cmw_camera.c **** 
ARM GAS  C:\Users\DJESSOU\AppData\Local\Temp\cc3dm0Vf.s 			page 63


1870:Lib/Camera_Middleware/cmw_camera.c ****   if ((connected_sensor != CMW_IMX335_Sensor) && (connected_sensor != CMW_UNKNOWN_Sensor))
 1383              		.loc 1 1870 3 is_stmt 1 view .LVU546
 1384              		.loc 1 1870 25 is_stmt 0 view .LVU547
 1385 04e4 4D4B     		ldr	r3, .L135+44
 1386 04e6 1B78     		ldrb	r3, [r3]	@ zero_extendqisi2
 1387              		.loc 1 1870 6 view .LVU548
 1388 04e8 032B     		cmp	r3, #3
 1389 04ea 01D0     		beq	.L66
 1390              		.loc 1 1870 47 discriminator 1 view .LVU549
 1391 04ec 002B     		cmp	r3, #0
 1392 04ee 7CD1     		bne	.L65
 1393              	.L66:
1871:Lib/Camera_Middleware/cmw_camera.c ****   {
1872:Lib/Camera_Middleware/cmw_camera.c ****     /* If the selected sensor in the application side has selected a different sensors than IMX335 
1873:Lib/Camera_Middleware/cmw_camera.c ****     return CMW_ERROR_COMPONENT_FAILURE;
1874:Lib/Camera_Middleware/cmw_camera.c ****   }
1875:Lib/Camera_Middleware/cmw_camera.c **** 
1876:Lib/Camera_Middleware/cmw_camera.c ****   /* Special case: when resolution is not specified take the full sensor resolution */
1877:Lib/Camera_Middleware/cmw_camera.c ****   if ((initSensors_params->width == 0) || (initSensors_params->height == 0))
 1394              		.loc 1 1877 3 is_stmt 1 view .LVU550
 1395              		.loc 1 1877 6 is_stmt 0 view .LVU551
 1396 04f0 2368     		ldr	r3, [r4]
 1397 04f2 464F     		ldr	r7, .L135+28
 1398 04f4 0DF12008 		add	r8, sp, #32
 1399 04f8 0BB1     		cbz	r3, .L68
 1400              		.loc 1 1877 40 discriminator 1 view .LVU552
 1401 04fa 6368     		ldr	r3, [r4, #4]
 1402 04fc 3BB9     		cbnz	r3, .L69
 1403              	.L68:
 1404              	.LBB86:
1878:Lib/Camera_Middleware/cmw_camera.c ****   {
1879:Lib/Camera_Middleware/cmw_camera.c ****     ISP_SensorInfoTypeDef sensor_info;
 1405              		.loc 1 1879 5 is_stmt 1 view .LVU553
1880:Lib/Camera_Middleware/cmw_camera.c ****     Camera_Drv.GetSensorInfo(&camera_bsp, &sensor_info);
 1406              		.loc 1 1880 5 view .LVU554
 1407 04fe 3B6E     		ldr	r3, [r7, #96]
 1408 0500 4146     		mov	r1, r8
 1409 0502 3B48     		ldr	r0, .L135
 1410              	.LVL96:
 1411              		.loc 1 1880 5 is_stmt 0 view .LVU555
 1412 0504 9847     		blx	r3
 1413              	.LVL97:
1881:Lib/Camera_Middleware/cmw_camera.c ****     initSensors_params->width = sensor_info.width;
 1414              		.loc 1 1881 5 is_stmt 1 view .LVU556
 1415              		.loc 1 1881 31 is_stmt 0 view .LVU557
 1416 0506 119B     		ldr	r3, [sp, #68]
 1417 0508 2360     		str	r3, [r4]
1882:Lib/Camera_Middleware/cmw_camera.c ****     initSensors_params->height = sensor_info.height;
 1418              		.loc 1 1882 5 is_stmt 1 view .LVU558
 1419              		.loc 1 1882 32 is_stmt 0 view .LVU559
 1420 050a 129B     		ldr	r3, [sp, #72]
 1421 050c 6360     		str	r3, [r4, #4]
 1422              	.L69:
 1423              		.loc 1 1882 32 view .LVU560
 1424              	.LBE86:
1883:Lib/Camera_Middleware/cmw_camera.c ****   }
1884:Lib/Camera_Middleware/cmw_camera.c **** 
ARM GAS  C:\Users\DJESSOU\AppData\Local\Temp\cc3dm0Vf.s 			page 64


1885:Lib/Camera_Middleware/cmw_camera.c ****   CMW_IMX335_SetDefaultSensorValues(&default_sensor_config);
 1425              		.loc 1 1885 3 is_stmt 1 view .LVU561
 1426 050e 4046     		mov	r0, r8
 1427 0510 FFF7FEFF 		bl	CMW_IMX335_SetDefaultSensorValues
 1428              	.LVL98:
1886:Lib/Camera_Middleware/cmw_camera.c ****   initSensors_params->sensor_config = initSensors_params->sensor_config ? initSensors_params->senso
 1429              		.loc 1 1886 3 view .LVU562
 1430              		.loc 1 1886 57 is_stmt 0 view .LVU563
 1431 0514 2669     		ldr	r6, [r4, #16]
1887:Lib/Camera_Middleware/cmw_camera.c ****   sensor_config = (CMW_IMX335_config_t*) (initSensors_params->sensor_config);
1888:Lib/Camera_Middleware/cmw_camera.c **** 
1889:Lib/Camera_Middleware/cmw_camera.c ****   ret = Camera_Drv.Init(&camera_bsp, initSensors_params);
 1432              		.loc 1 1889 9 view .LVU564
 1433 0516 2146     		mov	r1, r4
1886:Lib/Camera_Middleware/cmw_camera.c ****   initSensors_params->sensor_config = initSensors_params->sensor_config ? initSensors_params->senso
 1434              		.loc 1 1886 109 discriminator 2 view .LVU565
 1435 0518 002E     		cmp	r6, #0
 1436 051a 08BF     		it	eq
 1437 051c 4646     		moveq	r6, r8
 1438              		.loc 1 1889 9 view .LVU566
 1439 051e 3B68     		ldr	r3, [r7]
 1440 0520 3348     		ldr	r0, .L135
1886:Lib/Camera_Middleware/cmw_camera.c ****   initSensors_params->sensor_config = initSensors_params->sensor_config ? initSensors_params->senso
 1441              		.loc 1 1886 37 discriminator 4 view .LVU567
 1442 0522 2661     		str	r6, [r4, #16]
1887:Lib/Camera_Middleware/cmw_camera.c ****   sensor_config = (CMW_IMX335_config_t*) (initSensors_params->sensor_config);
 1443              		.loc 1 1887 3 is_stmt 1 view .LVU568
 1444              	.LVL99:
 1445              		.loc 1 1889 3 view .LVU569
 1446              		.loc 1 1889 9 is_stmt 0 view .LVU570
 1447 0524 9847     		blx	r3
 1448              	.LVL100:
1890:Lib/Camera_Middleware/cmw_camera.c ****   if (ret != CMW_ERROR_NONE)
 1449              		.loc 1 1890 3 is_stmt 1 view .LVU571
 1450              		.loc 1 1890 6 is_stmt 0 view .LVU572
 1451 0526 0028     		cmp	r0, #0
 1452 0528 5FD1     		bne	.L65
1891:Lib/Camera_Middleware/cmw_camera.c ****   {
1892:Lib/Camera_Middleware/cmw_camera.c ****     return CMW_ERROR_COMPONENT_FAILURE;
1893:Lib/Camera_Middleware/cmw_camera.c ****   }
1894:Lib/Camera_Middleware/cmw_camera.c **** 
1895:Lib/Camera_Middleware/cmw_camera.c ****   ret = Camera_Drv.SetFrequency(&camera_bsp, IMX335_INCK_24MHZ);
 1453              		.loc 1 1895 3 is_stmt 1 view .LVU573
 1454              		.loc 1 1895 9 is_stmt 0 view .LVU574
 1455 052a 0221     		movs	r1, #2
 1456 052c 3B6C     		ldr	r3, [r7, #64]
 1457 052e 3048     		ldr	r0, .L135
 1458              	.LVL101:
 1459              		.loc 1 1895 9 view .LVU575
 1460 0530 9847     		blx	r3
 1461              	.LVL102:
1896:Lib/Camera_Middleware/cmw_camera.c ****   if (ret != CMW_ERROR_NONE)
 1462              		.loc 1 1896 3 is_stmt 1 view .LVU576
 1463              		.loc 1 1896 6 is_stmt 0 view .LVU577
 1464 0532 0028     		cmp	r0, #0
 1465 0534 59D1     		bne	.L65
1897:Lib/Camera_Middleware/cmw_camera.c ****   {
ARM GAS  C:\Users\DJESSOU\AppData\Local\Temp\cc3dm0Vf.s 			page 65


1898:Lib/Camera_Middleware/cmw_camera.c ****     return CMW_ERROR_COMPONENT_FAILURE;
1899:Lib/Camera_Middleware/cmw_camera.c ****   }
1900:Lib/Camera_Middleware/cmw_camera.c **** 
1901:Lib/Camera_Middleware/cmw_camera.c ****   ret = Camera_Drv.SetFramerate(&camera_bsp, initSensors_params->fps);
 1466              		.loc 1 1901 3 is_stmt 1 view .LVU578
 1467              		.loc 1 1901 9 is_stmt 0 view .LVU579
 1468 0536 7B6C     		ldr	r3, [r7, #68]
 1469 0538 A168     		ldr	r1, [r4, #8]
 1470 053a 2D48     		ldr	r0, .L135
 1471              	.LVL103:
 1472              		.loc 1 1901 9 view .LVU580
 1473 053c 9847     		blx	r3
 1474              	.LVL104:
1902:Lib/Camera_Middleware/cmw_camera.c ****   if (ret != CMW_ERROR_NONE)
 1475              		.loc 1 1902 3 is_stmt 1 view .LVU581
 1476              		.loc 1 1902 6 is_stmt 0 view .LVU582
 1477 053e 0028     		cmp	r0, #0
 1478 0540 53D1     		bne	.L65
1903:Lib/Camera_Middleware/cmw_camera.c ****   {
1904:Lib/Camera_Middleware/cmw_camera.c ****     return CMW_ERROR_COMPONENT_FAILURE;
1905:Lib/Camera_Middleware/cmw_camera.c ****   }
1906:Lib/Camera_Middleware/cmw_camera.c **** 
1907:Lib/Camera_Middleware/cmw_camera.c ****   switch (sensor_config->pixel_format)
 1479              		.loc 1 1907 3 is_stmt 1 view .LVU583
 1480              		.loc 1 1907 24 is_stmt 0 view .LVU584
 1481 0542 3368     		ldr	r3, [r6]
 1482              		.loc 1 1907 3 view .LVU585
 1483 0544 0BB1     		cbz	r3, .L71
 1484 0546 2B2B     		cmp	r3, #43
 1485 0548 4FD1     		bne	.L65
 1486              	.L71:
1908:Lib/Camera_Middleware/cmw_camera.c ****   {
1909:Lib/Camera_Middleware/cmw_camera.c ****     case CMW_PIXEL_FORMAT_DEFAULT:
1910:Lib/Camera_Middleware/cmw_camera.c ****     case CMW_PIXEL_FORMAT_RAW10:
1911:Lib/Camera_Middleware/cmw_camera.c ****     {
1912:Lib/Camera_Middleware/cmw_camera.c ****       dt_format = DCMIPP_CSI_DT_BPP10;
 1487              		.loc 1 1912 7 is_stmt 1 view .LVU586
 1488              	.LVL105:
1913:Lib/Camera_Middleware/cmw_camera.c ****       dt = DCMIPP_DT_RAW10;
 1489              		.loc 1 1913 7 view .LVU587
1914:Lib/Camera_Middleware/cmw_camera.c ****       break;
 1490              		.loc 1 1914 7 view .LVU588
1915:Lib/Camera_Middleware/cmw_camera.c ****     }
1916:Lib/Camera_Middleware/cmw_camera.c ****     default:
1917:Lib/Camera_Middleware/cmw_camera.c ****       return CMW_ERROR_COMPONENT_FAILURE;
1918:Lib/Camera_Middleware/cmw_camera.c ****   }
1919:Lib/Camera_Middleware/cmw_camera.c **** 
1920:Lib/Camera_Middleware/cmw_camera.c ****   csi_conf.NumberOfLanes = DCMIPP_CSI_TWO_DATA_LANES;
 1491              		.loc 1 1920 3 view .LVU589
1921:Lib/Camera_Middleware/cmw_camera.c ****   csi_conf.DataLaneMapping = DCMIPP_CSI_PHYSICAL_DATA_LANES;
 1492              		.loc 1 1921 28 is_stmt 0 view .LVU590
 1493 054a 4FF40072 		mov	r2, #512
 1494 054e 0123     		movs	r3, #1
 1495 0550 CDE90223 		strd	r2, r3, [sp, #8]
1922:Lib/Camera_Middleware/cmw_camera.c ****   csi_conf.PHYBitrate = DCMIPP_CSI_PHY_BT_1600;
 1496              		.loc 1 1922 3 is_stmt 1 view .LVU591
 1497              		.loc 1 1922 23 is_stmt 0 view .LVU592
ARM GAS  C:\Users\DJESSOU\AppData\Local\Temp\cc3dm0Vf.s 			page 66


 1498 0554 2C23     		movs	r3, #44
1923:Lib/Camera_Middleware/cmw_camera.c ****   ret = HAL_DCMIPP_CSI_SetConfig(&hcamera_dcmipp, &csi_conf);
 1499              		.loc 1 1923 9 view .LVU593
 1500 0556 2946     		mov	r1, r5
 1501 0558 2848     		ldr	r0, .L135+12
 1502              	.LVL106:
1922:Lib/Camera_Middleware/cmw_camera.c ****   csi_conf.PHYBitrate = DCMIPP_CSI_PHY_BT_1600;
 1503              		.loc 1 1922 23 view .LVU594
 1504 055a 0493     		str	r3, [sp, #16]
 1505              		.loc 1 1923 3 is_stmt 1 view .LVU595
 1506              		.loc 1 1923 9 is_stmt 0 view .LVU596
 1507 055c FFF7FEFF 		bl	HAL_DCMIPP_CSI_SetConfig
 1508              	.LVL107:
1924:Lib/Camera_Middleware/cmw_camera.c ****   if (ret != HAL_OK)
 1509              		.loc 1 1924 3 is_stmt 1 view .LVU597
 1510              		.loc 1 1924 6 is_stmt 0 view .LVU598
 1511 0560 0146     		mov	r1, r0
 1512 0562 0028     		cmp	r0, #0
 1513 0564 41D1     		bne	.L65
1925:Lib/Camera_Middleware/cmw_camera.c ****   {
1926:Lib/Camera_Middleware/cmw_camera.c ****     return CMW_ERROR_PERIPH_FAILURE;
1927:Lib/Camera_Middleware/cmw_camera.c ****   }
1928:Lib/Camera_Middleware/cmw_camera.c **** 
1929:Lib/Camera_Middleware/cmw_camera.c ****   ret = HAL_DCMIPP_CSI_SetVCConfig(&hcamera_dcmipp, DCMIPP_VIRTUAL_CHANNEL0, dt_format);
 1514              		.loc 1 1929 3 is_stmt 1 view .LVU599
 1515              		.loc 1 1929 9 is_stmt 0 view .LVU600
 1516 0566 0322     		movs	r2, #3
 1517 0568 2448     		ldr	r0, .L135+12
 1518              	.LVL108:
 1519              		.loc 1 1929 9 view .LVU601
 1520 056a FFF7FEFF 		bl	HAL_DCMIPP_CSI_SetVCConfig
 1521              	.LVL109:
1930:Lib/Camera_Middleware/cmw_camera.c ****   if (ret != HAL_OK)
 1522              		.loc 1 1930 3 is_stmt 1 view .LVU602
 1523              		.loc 1 1930 6 is_stmt 0 view .LVU603
 1524 056e 0446     		mov	r4, r0
 1525              	.LVL110:
 1526              		.loc 1 1930 6 view .LVU604
 1527 0570 0028     		cmp	r0, #0
 1528 0572 3AD1     		bne	.L65
1931:Lib/Camera_Middleware/cmw_camera.c ****   {
1932:Lib/Camera_Middleware/cmw_camera.c ****     return CMW_ERROR_PERIPH_FAILURE;
1933:Lib/Camera_Middleware/cmw_camera.c ****   }
1934:Lib/Camera_Middleware/cmw_camera.c **** 
1935:Lib/Camera_Middleware/cmw_camera.c ****   csi_pipe_conf.DataTypeMode = DCMIPP_DTMODE_DTIDA;
 1529              		.loc 1 1935 3 is_stmt 1 view .LVU605
1936:Lib/Camera_Middleware/cmw_camera.c ****   csi_pipe_conf.DataTypeIDA = dt;
 1530              		.loc 1 1936 29 is_stmt 0 view .LVU606
 1531 0574 2B23     		movs	r3, #43
1937:Lib/Camera_Middleware/cmw_camera.c ****   csi_pipe_conf.DataTypeIDB = 0;
 1532              		.loc 1 1937 29 view .LVU607
 1533 0576 CDE90630 		strd	r3, r0, [sp, #24]
 1534              	.LBB87:
1938:Lib/Camera_Middleware/cmw_camera.c ****   /* Pre-initialize CSI config for all the pipes */
1939:Lib/Camera_Middleware/cmw_camera.c ****   for (uint32_t i = DCMIPP_PIPE0; i <= DCMIPP_PIPE2; i++)
1940:Lib/Camera_Middleware/cmw_camera.c ****   {
1941:Lib/Camera_Middleware/cmw_camera.c ****     ret = HAL_DCMIPP_CSI_PIPE_SetConfig(&hcamera_dcmipp, i, &csi_pipe_conf);
ARM GAS  C:\Users\DJESSOU\AppData\Local\Temp\cc3dm0Vf.s 			page 67


 1535              		.loc 1 1941 11 view .LVU608
 1536 057a 204D     		ldr	r5, .L135+12
 1537              	.LBE87:
1935:Lib/Camera_Middleware/cmw_camera.c ****   csi_pipe_conf.DataTypeIDA = dt;
 1538              		.loc 1 1935 30 view .LVU609
 1539 057c 0590     		str	r0, [sp, #20]
1936:Lib/Camera_Middleware/cmw_camera.c ****   csi_pipe_conf.DataTypeIDB = 0;
 1540              		.loc 1 1936 3 is_stmt 1 view .LVU610
1939:Lib/Camera_Middleware/cmw_camera.c ****   {
 1541              		.loc 1 1939 3 view .LVU611
 1542              	.LBB88:
1939:Lib/Camera_Middleware/cmw_camera.c ****   {
 1543              		.loc 1 1939 8 view .LVU612
 1544              	.LVL111:
1939:Lib/Camera_Middleware/cmw_camera.c ****   {
 1545              		.loc 1 1939 37 discriminator 1 view .LVU613
 1546              	.L72:
 1547              		.loc 1 1941 5 view .LVU614
 1548              		.loc 1 1941 11 is_stmt 0 view .LVU615
 1549 057e 2146     		mov	r1, r4
 1550 0580 2846     		mov	r0, r5
 1551 0582 05AA     		add	r2, sp, #20
 1552 0584 FFF7FEFF 		bl	HAL_DCMIPP_CSI_PIPE_SetConfig
 1553              	.LVL112:
1942:Lib/Camera_Middleware/cmw_camera.c ****     if (ret != HAL_OK)
 1554              		.loc 1 1942 5 is_stmt 1 view .LVU616
 1555              		.loc 1 1942 8 is_stmt 0 view .LVU617
 1556 0588 78BB     		cbnz	r0, .L65
1939:Lib/Camera_Middleware/cmw_camera.c ****   {
 1557              		.loc 1 1939 55 is_stmt 1 discriminator 2 view .LVU618
 1558 058a 0134     		adds	r4, r4, #1
 1559              	.LVL113:
1939:Lib/Camera_Middleware/cmw_camera.c ****   {
 1560              		.loc 1 1939 37 discriminator 1 view .LVU619
 1561 058c 032C     		cmp	r4, #3
 1562 058e F6D1     		bne	.L72
 1563              	.LVL114:
 1564              	.L74:
1939:Lib/Camera_Middleware/cmw_camera.c ****   {
 1565              		.loc 1 1939 37 is_stmt 0 discriminator 1 view .LVU620
 1566              	.LBE88:
 1567              	.LBE85:
 1568              	.LBE84:
 255:Lib/Camera_Middleware/cmw_camera.c ****   }
 1569              		.loc 1 255 12 view .LVU621
 1570 0590 0020     		movs	r0, #0
 262:Lib/Camera_Middleware/cmw_camera.c ****     return ret;
 1571              		.loc 1 262 17 view .LVU622
 1572 0592 224B     		ldr	r3, .L135+44
 1573 0594 1C70     		strb	r4, [r3]
 1574              	.L22:
 318:Lib/Camera_Middleware/cmw_camera.c **** 
 1575              		.loc 1 318 1 view .LVU623
 1576 0596 19B0     		add	sp, sp, #100
 1577              		.cfi_remember_state
 1578              		.cfi_def_cfa_offset 36
 1579              		@ sp needed
ARM GAS  C:\Users\DJESSOU\AppData\Local\Temp\cc3dm0Vf.s 			page 68


 1580 0598 BDE8F08F 		pop	{r4, r5, r6, r7, r8, r9, r10, fp, pc}
 1581              	.LVL115:
 1582              	.L61:
 1583              		.cfi_restore_state
 1584              	.LBB89:
 1585              	.LBB82:
1672:Lib/Camera_Middleware/cmw_camera.c ****   {
 1586              		.loc 1 1672 3 view .LVU624
 1587 059c BBF12C0F 		cmp	fp, #44
 1588 05a0 7FF46AAF 		bne	.L54
 1589              	.L130:
1689:Lib/Camera_Middleware/cmw_camera.c ****       dt = DCMIPP_DT_RAW12;
 1590              		.loc 1 1689 17 view .LVU625
 1591 05a4 0422     		movs	r2, #4
 1592 05a6 00E0     		b	.L60
 1593              	.L78:
1672:Lib/Camera_Middleware/cmw_camera.c ****   {
 1594              		.loc 1 1672 3 view .LVU626
 1595 05a8 0322     		movs	r2, #3
 1596              	.L60:
 1597              	.LVL116:
1697:Lib/Camera_Middleware/cmw_camera.c ****   if (ret != HAL_OK)
 1598              		.loc 1 1697 3 is_stmt 1 view .LVU627
1697:Lib/Camera_Middleware/cmw_camera.c ****   if (ret != HAL_OK)
 1599              		.loc 1 1697 9 is_stmt 0 view .LVU628
 1600 05aa 0021     		movs	r1, #0
 1601 05ac 1348     		ldr	r0, .L135+12
 1602              	.LVL117:
1697:Lib/Camera_Middleware/cmw_camera.c ****   if (ret != HAL_OK)
 1603              		.loc 1 1697 9 view .LVU629
 1604 05ae FFF7FEFF 		bl	HAL_DCMIPP_CSI_SetVCConfig
 1605              	.LVL118:
1698:Lib/Camera_Middleware/cmw_camera.c ****   {
 1606              		.loc 1 1698 3 is_stmt 1 view .LVU630
1698:Lib/Camera_Middleware/cmw_camera.c ****   {
 1607              		.loc 1 1698 6 is_stmt 0 view .LVU631
 1608 05b2 0146     		mov	r1, r0
 1609 05b4 0028     		cmp	r0, #0
 1610 05b6 7FF45FAF 		bne	.L54
1703:Lib/Camera_Middleware/cmw_camera.c ****   csi_pipe_conf.DataTypeIDA = dt;
 1611              		.loc 1 1703 3 is_stmt 1 view .LVU632
1704:Lib/Camera_Middleware/cmw_camera.c ****   csi_pipe_conf.DataTypeIDB = 0;
 1612              		.loc 1 1704 29 is_stmt 0 view .LVU633
 1613 05ba CDE9080B 		strd	r0, fp, [sp, #32]
1705:Lib/Camera_Middleware/cmw_camera.c ****   /* Pre-initialize CSI config for all the pipes */
 1614              		.loc 1 1705 3 is_stmt 1 view .LVU634
 1615              	.LBB80:
1709:Lib/Camera_Middleware/cmw_camera.c ****     if (ret != HAL_OK)
 1616              		.loc 1 1709 11 is_stmt 0 view .LVU635
 1617 05be DFF83CB0 		ldr	fp, .L135+12
 1618              	.LVL119:
1709:Lib/Camera_Middleware/cmw_camera.c ****     if (ret != HAL_OK)
 1619              		.loc 1 1709 11 view .LVU636
 1620              	.LBE80:
1705:Lib/Camera_Middleware/cmw_camera.c ****   /* Pre-initialize CSI config for all the pipes */
 1621              		.loc 1 1705 29 view .LVU637
 1622 05c2 0A90     		str	r0, [sp, #40]
ARM GAS  C:\Users\DJESSOU\AppData\Local\Temp\cc3dm0Vf.s 			page 69


1707:Lib/Camera_Middleware/cmw_camera.c ****   {
 1623              		.loc 1 1707 3 is_stmt 1 view .LVU638
 1624              	.LBB81:
1707:Lib/Camera_Middleware/cmw_camera.c ****   {
 1625              		.loc 1 1707 8 view .LVU639
 1626              	.LVL120:
1707:Lib/Camera_Middleware/cmw_camera.c ****   {
 1627              		.loc 1 1707 37 discriminator 1 view .LVU640
 1628              	.L62:
1709:Lib/Camera_Middleware/cmw_camera.c ****     if (ret != HAL_OK)
 1629              		.loc 1 1709 5 view .LVU641
1709:Lib/Camera_Middleware/cmw_camera.c ****     if (ret != HAL_OK)
 1630              		.loc 1 1709 11 is_stmt 0 view .LVU642
 1631 05c4 5846     		mov	r0, fp
 1632 05c6 08AA     		add	r2, sp, #32
 1633 05c8 0191     		str	r1, [sp, #4]
 1634 05ca FFF7FEFF 		bl	HAL_DCMIPP_CSI_PIPE_SetConfig
 1635              	.LVL121:
1710:Lib/Camera_Middleware/cmw_camera.c ****     {
 1636              		.loc 1 1710 5 is_stmt 1 view .LVU643
1710:Lib/Camera_Middleware/cmw_camera.c ****     {
 1637              		.loc 1 1710 8 is_stmt 0 view .LVU644
 1638 05ce 0028     		cmp	r0, #0
 1639 05d0 7FF452AF 		bne	.L54
1707:Lib/Camera_Middleware/cmw_camera.c ****   {
 1640              		.loc 1 1707 55 is_stmt 1 discriminator 2 view .LVU645
 1641 05d4 0199     		ldr	r1, [sp, #4]
 1642 05d6 0131     		adds	r1, r1, #1
 1643              	.LVL122:
1707:Lib/Camera_Middleware/cmw_camera.c ****   {
 1644              		.loc 1 1707 37 discriminator 1 view .LVU646
 1645 05d8 0329     		cmp	r1, #3
 1646 05da F3D1     		bne	.L62
 1647              	.LVL123:
1707:Lib/Camera_Middleware/cmw_camera.c ****   {
 1648              		.loc 1 1707 37 is_stmt 0 discriminator 1 view .LVU647
 1649              	.LBE81:
 1650              	.LBE82:
 1651              	.LBE89:
 292:Lib/Camera_Middleware/cmw_camera.c ****   {
 1652              		.loc 1 292 3 is_stmt 1 view .LVU648
 294:Lib/Camera_Middleware/cmw_camera.c ****     return ret;
 1653              		.loc 1 294 5 view .LVU649
 295:Lib/Camera_Middleware/cmw_camera.c ****   }
 1654              		.loc 1 295 5 view .LVU650
 295:Lib/Camera_Middleware/cmw_camera.c ****   }
 1655              		.loc 1 295 12 is_stmt 0 view .LVU651
 1656 05dc 0724     		movs	r4, #7
 1657              	.LVL124:
 295:Lib/Camera_Middleware/cmw_camera.c ****   }
 1658              		.loc 1 295 12 view .LVU652
 1659 05de D7E7     		b	.L74
 1660              	.LVL125:
 1661              	.L79:
 1662              	.LBB90:
 1663              	.LBB83:
1690:Lib/Camera_Middleware/cmw_camera.c ****       break;
ARM GAS  C:\Users\DJESSOU\AppData\Local\Temp\cc3dm0Vf.s 			page 70


 1664              		.loc 1 1690 10 view .LVU653
 1665 05e0 4FF02C0B 		mov	fp, #44
 1666 05e4 DEE7     		b	.L130
 1667              	.L80:
1676:Lib/Camera_Middleware/cmw_camera.c ****       dt = DCMIPP_DT_RAW8;
 1668              		.loc 1 1676 17 view .LVU654
 1669 05e6 0222     		movs	r2, #2
 1670 05e8 DFE7     		b	.L60
 1671              	.LVL126:
 1672              	.L65:
1676:Lib/Camera_Middleware/cmw_camera.c ****       dt = DCMIPP_DT_RAW8;
 1673              		.loc 1 1676 17 view .LVU655
 1674              	.LBE83:
 1675              	.LBE90:
 316:Lib/Camera_Middleware/cmw_camera.c ****   }
 1676              		.loc 1 316 12 view .LVU656
 1677 05ea 6FF00600 		mvn	r0, #6
 1678 05ee D2E7     		b	.L22
 1679              	.L136:
 1680              		.align	2
 1681              	.L135:
 1682 05f0 00000000 		.word	camera_bsp
 1683 05f4 00000000 		.word	CMW_CAMERA_EnablePin
 1684 05f8 00000000 		.word	BSP_I2C1_ReadReg16
 1685 05fc 00000000 		.word	hcamera_dcmipp
 1686 0600 00000000 		.word	CB_ISP_SetSensorGain
 1687 0604 00000000 		.word	CMW_CAMERA_ShutdownPin
 1688 0608 00000000 		.word	CB_ISP_GetSensorGain
 1689 060c 00000000 		.word	Camera_Drv
 1690 0610 00000000 		.word	CB_ISP_SetSensorExposure
 1691 0614 00000000 		.word	CB_ISP_GetSensorExposure
 1692 0618 00000000 		.word	CB_ISP_GetSensorInfo
 1693 061c 00000000 		.word	connected_sensor
 1694 0620 00000000 		.word	BSP_GetTick
 1695              		.cfi_endproc
 1696              	.LFE918:
 1698              		.section	.text.CMW_CAMERA_EnableGPIOs,"ax",%progbits
 1699              		.align	1
 1700              		.syntax unified
 1701              		.thumb
 1702              		.thumb_func
 1704              	CMW_CAMERA_EnableGPIOs:
 1705              	.LFB899:
 980:Lib/Camera_Middleware/cmw_camera.c ****   GPIO_InitTypeDef gpio_init_structure = {0};
 1706              		.loc 1 980 1 is_stmt 1 view -0
 1707              		.cfi_startproc
 1708              		@ args = 0, pretend = 0, frame = 32
 1709              		@ frame_needed = 0, uses_anonymous_args = 0
 981:Lib/Camera_Middleware/cmw_camera.c **** 
 1710              		.loc 1 981 3 view .LVU658
 980:Lib/Camera_Middleware/cmw_camera.c ****   GPIO_InitTypeDef gpio_init_structure = {0};
 1711              		.loc 1 980 1 is_stmt 0 view .LVU659
 1712 0000 70B5     		push	{r4, r5, r6, lr}
 1713              		.cfi_def_cfa_offset 16
 1714              		.cfi_offset 4, -16
 1715              		.cfi_offset 5, -12
 1716              		.cfi_offset 6, -8
ARM GAS  C:\Users\DJESSOU\AppData\Local\Temp\cc3dm0Vf.s 			page 71


 1717              		.cfi_offset 14, -4
 1718 0002 88B0     		sub	sp, sp, #32
 1719              		.cfi_def_cfa_offset 48
 981:Lib/Camera_Middleware/cmw_camera.c **** 
 1720              		.loc 1 981 20 view .LVU660
 1721 0004 1422     		movs	r2, #20
 1722 0006 0021     		movs	r1, #0
 1723 0008 03A8     		add	r0, sp, #12
 1724 000a FFF7FEFF 		bl	memset
 1725              	.LVL127:
 984:Lib/Camera_Middleware/cmw_camera.c ****   EN_CAM_GPIO_CLK_ENABLE();
 1726              		.loc 1 984 29 is_stmt 1 view .LVU661
 985:Lib/Camera_Middleware/cmw_camera.c ****   NRST_CAM_GPIO_ENABLE_VDDIO();
 1727              		.loc 1 985 3 view .LVU662
 1728              	.LBB95:
 1729              	.LBI95:
 1730              		.file 2 "STM32Cube_FW_N6/Drivers/STM32N6xx_HAL_Driver/Inc/stm32n6xx_ll_bus.h"
   1:STM32Cube_FW_N6/Drivers/STM32N6xx_HAL_Driver/Inc/stm32n6xx_ll_bus.h **** /**
   2:STM32Cube_FW_N6/Drivers/STM32N6xx_HAL_Driver/Inc/stm32n6xx_ll_bus.h ****   ******************************************************************************
   3:STM32Cube_FW_N6/Drivers/STM32N6xx_HAL_Driver/Inc/stm32n6xx_ll_bus.h ****   * @file    stm32n6xx_ll_bus.h
   4:STM32Cube_FW_N6/Drivers/STM32N6xx_HAL_Driver/Inc/stm32n6xx_ll_bus.h ****   * @author  MCD Application Team
   5:STM32Cube_FW_N6/Drivers/STM32N6xx_HAL_Driver/Inc/stm32n6xx_ll_bus.h ****   * @brief   Header file of BUS LL module.
   6:STM32Cube_FW_N6/Drivers/STM32N6xx_HAL_Driver/Inc/stm32n6xx_ll_bus.h ****   ******************************************************************************
   7:STM32Cube_FW_N6/Drivers/STM32N6xx_HAL_Driver/Inc/stm32n6xx_ll_bus.h ****   * @attention
   8:STM32Cube_FW_N6/Drivers/STM32N6xx_HAL_Driver/Inc/stm32n6xx_ll_bus.h ****   *
   9:STM32Cube_FW_N6/Drivers/STM32N6xx_HAL_Driver/Inc/stm32n6xx_ll_bus.h ****   * Copyright (c) 2023 STMicroelectronics.
  10:STM32Cube_FW_N6/Drivers/STM32N6xx_HAL_Driver/Inc/stm32n6xx_ll_bus.h ****   * All rights reserved.
  11:STM32Cube_FW_N6/Drivers/STM32N6xx_HAL_Driver/Inc/stm32n6xx_ll_bus.h ****   *
  12:STM32Cube_FW_N6/Drivers/STM32N6xx_HAL_Driver/Inc/stm32n6xx_ll_bus.h ****   * This software is licensed under terms that can be found in the LICENSE file
  13:STM32Cube_FW_N6/Drivers/STM32N6xx_HAL_Driver/Inc/stm32n6xx_ll_bus.h ****   * in the root directory of this software component.
  14:STM32Cube_FW_N6/Drivers/STM32N6xx_HAL_Driver/Inc/stm32n6xx_ll_bus.h ****   * If no LICENSE file comes with this software, it is provided AS-IS.
  15:STM32Cube_FW_N6/Drivers/STM32N6xx_HAL_Driver/Inc/stm32n6xx_ll_bus.h ****   *
  16:STM32Cube_FW_N6/Drivers/STM32N6xx_HAL_Driver/Inc/stm32n6xx_ll_bus.h ****   ******************************************************************************
  17:STM32Cube_FW_N6/Drivers/STM32N6xx_HAL_Driver/Inc/stm32n6xx_ll_bus.h ****   @verbatim
  18:STM32Cube_FW_N6/Drivers/STM32N6xx_HAL_Driver/Inc/stm32n6xx_ll_bus.h ****                       ##### RCC Limitations #####
  19:STM32Cube_FW_N6/Drivers/STM32N6xx_HAL_Driver/Inc/stm32n6xx_ll_bus.h ****   ==============================================================================
  20:STM32Cube_FW_N6/Drivers/STM32N6xx_HAL_Driver/Inc/stm32n6xx_ll_bus.h ****     [..]
  21:STM32Cube_FW_N6/Drivers/STM32N6xx_HAL_Driver/Inc/stm32n6xx_ll_bus.h ****       A delay between an RCC peripheral clock enable and the effective peripheral
  22:STM32Cube_FW_N6/Drivers/STM32N6xx_HAL_Driver/Inc/stm32n6xx_ll_bus.h ****       enabling should be taken into account in order to manage the peripheral read/write
  23:STM32Cube_FW_N6/Drivers/STM32N6xx_HAL_Driver/Inc/stm32n6xx_ll_bus.h ****       from/to registers.
  24:STM32Cube_FW_N6/Drivers/STM32N6xx_HAL_Driver/Inc/stm32n6xx_ll_bus.h ****       (+) This delay depends on the peripheral mapping.
  25:STM32Cube_FW_N6/Drivers/STM32N6xx_HAL_Driver/Inc/stm32n6xx_ll_bus.h ****         (++) AHB & APB peripherals, 1 dummy read is necessary
  26:STM32Cube_FW_N6/Drivers/STM32N6xx_HAL_Driver/Inc/stm32n6xx_ll_bus.h **** 
  27:STM32Cube_FW_N6/Drivers/STM32N6xx_HAL_Driver/Inc/stm32n6xx_ll_bus.h ****     [..]
  28:STM32Cube_FW_N6/Drivers/STM32N6xx_HAL_Driver/Inc/stm32n6xx_ll_bus.h ****       Workarounds:
  29:STM32Cube_FW_N6/Drivers/STM32N6xx_HAL_Driver/Inc/stm32n6xx_ll_bus.h ****       (#) For AHB & APB peripherals, a dummy read to the peripheral register has been
  30:STM32Cube_FW_N6/Drivers/STM32N6xx_HAL_Driver/Inc/stm32n6xx_ll_bus.h ****           inserted in each LL_{BUS}_GRP{x}_EnableClock() function.
