ARM GAS  C:\Users\DJESSOU\AppData\Local\Temp\cc3dm0Vf.s 			page 1


   1              		.arch armv8.1-m.main
   2              		.fpu fpv5-d16
   3              		.arch_extension dsp
   4              		.arch_extension fp
   5              		.arch_extension fp.dp
   6              		.arch_extension mve
   7              		.arch_extension mve.fp
   8              		.eabi_attribute 5, "cortex-m55"
   9              		.eabi_attribute 28, 1
  10              		.eabi_attribute 20, 1
  11              		.eabi_attribute 21, 1
  12              		.eabi_attribute 23, 3
  13              		.eabi_attribute 24, 1
  14              		.eabi_attribute 25, 1
  15              		.eabi_attribute 26, 1
  16              		.eabi_attribute 30, 4
  17              		.eabi_attribute 34, 1
  18              		.eabi_attribute 38, 1
  19              		.eabi_attribute 18, 4
  20              		.file	"cmw_camera.c"
  21              		.text
  22              	.Ltext0:
  23              		.cfi_sections	.debug_frame
  24              		.file 1 "Lib/Camera_Middleware/cmw_camera.c"
  25              		.section	.text.CB_ISP_GetSensorGain,"ax",%progbits
  26              		.align	1
  27              		.syntax unified
  28              		.thumb
  29              		.thumb_func
  31              	CB_ISP_GetSensorGain:
  32              	.LVL0:
  33              	.LFB904:
   1:Lib/Camera_Middleware/cmw_camera.c ****  /**
   2:Lib/Camera_Middleware/cmw_camera.c ****  ******************************************************************************
   3:Lib/Camera_Middleware/cmw_camera.c ****  * @file    cmw_camera.c
   4:Lib/Camera_Middleware/cmw_camera.c ****  * @author  GPM Application Team
   5:Lib/Camera_Middleware/cmw_camera.c ****  *
   6:Lib/Camera_Middleware/cmw_camera.c ****  ******************************************************************************
   7:Lib/Camera_Middleware/cmw_camera.c ****  * @attention
   8:Lib/Camera_Middleware/cmw_camera.c ****  *
   9:Lib/Camera_Middleware/cmw_camera.c ****  * Copyright (c) 2024 STMicroelectronics.
  10:Lib/Camera_Middleware/cmw_camera.c ****  * All rights reserved.
  11:Lib/Camera_Middleware/cmw_camera.c ****  *
  12:Lib/Camera_Middleware/cmw_camera.c ****  * This software is licensed under terms that can be found in the LICENSE file
  13:Lib/Camera_Middleware/cmw_camera.c ****  * in the root directory of this software component.
  14:Lib/Camera_Middleware/cmw_camera.c ****  * If no LICENSE file comes with this software, it is provided AS-IS.
  15:Lib/Camera_Middleware/cmw_camera.c ****  *
  16:Lib/Camera_Middleware/cmw_camera.c ****  ******************************************************************************
  17:Lib/Camera_Middleware/cmw_camera.c ****  */
  18:Lib/Camera_Middleware/cmw_camera.c **** 
  19:Lib/Camera_Middleware/cmw_camera.c **** 
  20:Lib/Camera_Middleware/cmw_camera.c **** /* Includes ------------------------------------------------------------------*/
  21:Lib/Camera_Middleware/cmw_camera.c **** #include "cmw_camera.h"
  22:Lib/Camera_Middleware/cmw_camera.c **** 
  23:Lib/Camera_Middleware/cmw_camera.c **** #include "isp_api.h"
  24:Lib/Camera_Middleware/cmw_camera.c **** #include "stm32n6xx_hal_dcmipp.h"
  25:Lib/Camera_Middleware/cmw_camera.c **** #include "cmw_utils.h"
ARM GAS  C:\Users\DJESSOU\AppData\Local\Temp\cc3dm0Vf.s 			page 2


  26:Lib/Camera_Middleware/cmw_camera.c **** #include "cmw_io.h"
  27:Lib/Camera_Middleware/cmw_camera.c **** #if defined(USE_VD55G1_SENSOR)
  28:Lib/Camera_Middleware/cmw_camera.c **** #include "cmw_vd55g1.h"
  29:Lib/Camera_Middleware/cmw_camera.c **** #endif
  30:Lib/Camera_Middleware/cmw_camera.c **** #if defined(USE_VD65G4_SENSOR)
  31:Lib/Camera_Middleware/cmw_camera.c **** #include "cmw_vd65g4.h"
  32:Lib/Camera_Middleware/cmw_camera.c **** #endif
  33:Lib/Camera_Middleware/cmw_camera.c **** #if defined(USE_IMX335_SENSOR)
  34:Lib/Camera_Middleware/cmw_camera.c **** #include "cmw_imx335.h"
  35:Lib/Camera_Middleware/cmw_camera.c **** #endif
  36:Lib/Camera_Middleware/cmw_camera.c **** #if defined(USE_OV5640_SENSOR)
  37:Lib/Camera_Middleware/cmw_camera.c **** #include "cmw_ov5640.h"
  38:Lib/Camera_Middleware/cmw_camera.c **** #endif
  39:Lib/Camera_Middleware/cmw_camera.c **** #if defined(USE_VD66GY_SENSOR)
  40:Lib/Camera_Middleware/cmw_camera.c **** #include "cmw_vd66gy.h"
  41:Lib/Camera_Middleware/cmw_camera.c **** #endif
  42:Lib/Camera_Middleware/cmw_camera.c **** #if defined(USE_VD56G3_SENSOR)
  43:Lib/Camera_Middleware/cmw_camera.c **** #include "cmw_vd56g3.h"
  44:Lib/Camera_Middleware/cmw_camera.c **** #endif
  45:Lib/Camera_Middleware/cmw_camera.c **** #if defined(USE_VD1943_SENSOR)
  46:Lib/Camera_Middleware/cmw_camera.c **** #include "cmw_vd1943.h"
  47:Lib/Camera_Middleware/cmw_camera.c **** #endif
  48:Lib/Camera_Middleware/cmw_camera.c **** #if defined (USE_VD5943_SENSOR)
  49:Lib/Camera_Middleware/cmw_camera.c **** #include "cmw_vd5943.h"
  50:Lib/Camera_Middleware/cmw_camera.c **** #endif
  51:Lib/Camera_Middleware/cmw_camera.c **** #include "assert.h"
  52:Lib/Camera_Middleware/cmw_camera.c **** 
  53:Lib/Camera_Middleware/cmw_camera.c **** typedef struct
  54:Lib/Camera_Middleware/cmw_camera.c **** {
  55:Lib/Camera_Middleware/cmw_camera.c ****   uint32_t Resolution;
  56:Lib/Camera_Middleware/cmw_camera.c ****   uint32_t pixel_format;
  57:Lib/Camera_Middleware/cmw_camera.c ****   uint32_t LightMode;
  58:Lib/Camera_Middleware/cmw_camera.c ****   uint32_t ColorEffect;
  59:Lib/Camera_Middleware/cmw_camera.c ****   int32_t  Brightness;
  60:Lib/Camera_Middleware/cmw_camera.c ****   int32_t  Saturation;
  61:Lib/Camera_Middleware/cmw_camera.c ****   int32_t  Contrast;
  62:Lib/Camera_Middleware/cmw_camera.c ****   int32_t  HueDegree;
  63:Lib/Camera_Middleware/cmw_camera.c ****   int32_t  Gain;
  64:Lib/Camera_Middleware/cmw_camera.c ****   int32_t  Exposure;
  65:Lib/Camera_Middleware/cmw_camera.c ****   int32_t  ExposureMode;
  66:Lib/Camera_Middleware/cmw_camera.c ****   uint32_t MirrorFlip;
  67:Lib/Camera_Middleware/cmw_camera.c ****   uint32_t Zoom;
  68:Lib/Camera_Middleware/cmw_camera.c ****   uint32_t NightMode;
  69:Lib/Camera_Middleware/cmw_camera.c ****   uint32_t IsMspCallbacksValid;
  70:Lib/Camera_Middleware/cmw_camera.c ****   uint32_t TestPattern;
  71:Lib/Camera_Middleware/cmw_camera.c **** } CAMERA_Ctx_t;
  72:Lib/Camera_Middleware/cmw_camera.c **** 
  73:Lib/Camera_Middleware/cmw_camera.c **** CMW_CameraInit_t  camera_conf;
  74:Lib/Camera_Middleware/cmw_camera.c **** CMW_Sensor_Name_t connected_sensor;
  75:Lib/Camera_Middleware/cmw_camera.c **** CAMERA_Ctx_t  Camera_Ctx;
  76:Lib/Camera_Middleware/cmw_camera.c **** 
  77:Lib/Camera_Middleware/cmw_camera.c **** DCMIPP_HandleTypeDef hcamera_dcmipp;
  78:Lib/Camera_Middleware/cmw_camera.c **** static CMW_Sensor_if_t Camera_Drv;
  79:Lib/Camera_Middleware/cmw_camera.c **** 
  80:Lib/Camera_Middleware/cmw_camera.c **** static union
  81:Lib/Camera_Middleware/cmw_camera.c **** {
  82:Lib/Camera_Middleware/cmw_camera.c **** #if defined(USE_IMX335_SENSOR)
ARM GAS  C:\Users\DJESSOU\AppData\Local\Temp\cc3dm0Vf.s 			page 3


  83:Lib/Camera_Middleware/cmw_camera.c ****   CMW_IMX335_t imx335_bsp;
  84:Lib/Camera_Middleware/cmw_camera.c **** #endif
  85:Lib/Camera_Middleware/cmw_camera.c **** #if defined(USE_VD55G1_SENSOR)
  86:Lib/Camera_Middleware/cmw_camera.c ****   CMW_VD55G1_t vd55g1_bsp;
  87:Lib/Camera_Middleware/cmw_camera.c **** #endif
  88:Lib/Camera_Middleware/cmw_camera.c **** #if defined(USE_VD65G4_SENSOR)
  89:Lib/Camera_Middleware/cmw_camera.c ****   CMW_VD65G4_t vd65g4_bsp;
  90:Lib/Camera_Middleware/cmw_camera.c **** #endif
  91:Lib/Camera_Middleware/cmw_camera.c **** #if defined(USE_VD66GY_SENSOR)
  92:Lib/Camera_Middleware/cmw_camera.c ****   CMW_VD66GY_t vd66gy_bsp;
  93:Lib/Camera_Middleware/cmw_camera.c **** #endif
  94:Lib/Camera_Middleware/cmw_camera.c **** #if defined(USE_VD56G3_SENSOR)
  95:Lib/Camera_Middleware/cmw_camera.c ****   CMW_VD56G3_t vd56g3_bsp;
  96:Lib/Camera_Middleware/cmw_camera.c **** #endif
  97:Lib/Camera_Middleware/cmw_camera.c **** #if defined(USE_OV5640_SENSOR)
  98:Lib/Camera_Middleware/cmw_camera.c ****   CMW_OV5640_t ov5640_bsp;
  99:Lib/Camera_Middleware/cmw_camera.c **** #endif
 100:Lib/Camera_Middleware/cmw_camera.c **** #if defined(USE_VD1943_SENSOR)
 101:Lib/Camera_Middleware/cmw_camera.c ****   CMW_VD1943_t vd1943_bsp;
 102:Lib/Camera_Middleware/cmw_camera.c **** #endif
 103:Lib/Camera_Middleware/cmw_camera.c **** #if defined(USE_VD5943_SENSOR)
 104:Lib/Camera_Middleware/cmw_camera.c ****   CMW_VD5943_t vd5943_bsp;
 105:Lib/Camera_Middleware/cmw_camera.c **** #endif
 106:Lib/Camera_Middleware/cmw_camera.c **** } camera_bsp;
 107:Lib/Camera_Middleware/cmw_camera.c **** 
 108:Lib/Camera_Middleware/cmw_camera.c **** int is_camera_init = 0;
 109:Lib/Camera_Middleware/cmw_camera.c **** int is_camera_started = 0;
 110:Lib/Camera_Middleware/cmw_camera.c **** int is_pipe1_2_shared = 0;
 111:Lib/Camera_Middleware/cmw_camera.c **** 
 112:Lib/Camera_Middleware/cmw_camera.c **** #if defined(USE_IMX335_SENSOR)
 113:Lib/Camera_Middleware/cmw_camera.c **** static int32_t CMW_CAMERA_IMX335_Init( CMW_Sensor_Init_t *initSensors_params);
 114:Lib/Camera_Middleware/cmw_camera.c **** #endif
 115:Lib/Camera_Middleware/cmw_camera.c **** #if defined(USE_VD55G1_SENSOR)
 116:Lib/Camera_Middleware/cmw_camera.c **** static int32_t CMW_CAMERA_VD55G1_Init( CMW_Sensor_Init_t *initSensors_params);
 117:Lib/Camera_Middleware/cmw_camera.c **** #endif
 118:Lib/Camera_Middleware/cmw_camera.c **** #if defined(USE_VD65G4_SENSOR)
 119:Lib/Camera_Middleware/cmw_camera.c **** static int32_t CMW_CAMERA_VD65G4_Init( CMW_Sensor_Init_t *initSensors_params);
 120:Lib/Camera_Middleware/cmw_camera.c **** #endif
 121:Lib/Camera_Middleware/cmw_camera.c **** #if defined(USE_OV5640_SENSOR)
 122:Lib/Camera_Middleware/cmw_camera.c **** static int32_t CMW_CAMERA_OV5640_Init( CMW_Sensor_Init_t *initSensors_params);
 123:Lib/Camera_Middleware/cmw_camera.c **** #endif
 124:Lib/Camera_Middleware/cmw_camera.c **** #if defined(USE_VD66GY_SENSOR)
 125:Lib/Camera_Middleware/cmw_camera.c **** static int32_t CMW_CAMERA_VD66GY_Init(CMW_Sensor_Init_t *initValues);
 126:Lib/Camera_Middleware/cmw_camera.c **** #endif
 127:Lib/Camera_Middleware/cmw_camera.c **** #if defined(USE_VD56G3_SENSOR)
 128:Lib/Camera_Middleware/cmw_camera.c **** static int32_t CMW_CAMERA_VD56G3_Init(CMW_Sensor_Init_t *initSensors_params);
 129:Lib/Camera_Middleware/cmw_camera.c **** #endif
 130:Lib/Camera_Middleware/cmw_camera.c **** #if defined(USE_VD1943_SENSOR)
 131:Lib/Camera_Middleware/cmw_camera.c **** static int32_t CMW_CAMERA_VD1943_Init(CMW_Sensor_Init_t *initValues);
 132:Lib/Camera_Middleware/cmw_camera.c **** #endif
 133:Lib/Camera_Middleware/cmw_camera.c **** #if defined(USE_VD5943_SENSOR)
 134:Lib/Camera_Middleware/cmw_camera.c **** static int32_t CMW_CAMERA_VD5943_Init(CMW_Sensor_Init_t *initValues);
 135:Lib/Camera_Middleware/cmw_camera.c **** #endif
 136:Lib/Camera_Middleware/cmw_camera.c **** static void CMW_CAMERA_EnableGPIOs(void);
 137:Lib/Camera_Middleware/cmw_camera.c **** static void CMW_CAMERA_PwrDown(void);
 138:Lib/Camera_Middleware/cmw_camera.c **** static int32_t CMW_CAMERA_SetPipe(DCMIPP_HandleTypeDef *hdcmipp, uint32_t pipe, CMW_DCMIPP_Conf_t *
 139:Lib/Camera_Middleware/cmw_camera.c **** static int CMW_CAMERA_Probe_Sensor(CMW_Sensor_Init_t *initValues, CMW_Sensor_Name_t *sensorName);
ARM GAS  C:\Users\DJESSOU\AppData\Local\Temp\cc3dm0Vf.s 			page 4


 140:Lib/Camera_Middleware/cmw_camera.c **** 
 141:Lib/Camera_Middleware/cmw_camera.c **** DCMIPP_HandleTypeDef* CMW_CAMERA_GetDCMIPPHandle(void)
 142:Lib/Camera_Middleware/cmw_camera.c **** {
 143:Lib/Camera_Middleware/cmw_camera.c ****     return &hcamera_dcmipp;
 144:Lib/Camera_Middleware/cmw_camera.c **** }
 145:Lib/Camera_Middleware/cmw_camera.c **** 
 146:Lib/Camera_Middleware/cmw_camera.c **** int32_t CMW_CAMERA_SetPipeConfig(uint32_t pipe, CMW_DCMIPP_Conf_t *p_conf, uint32_t *pitch)
 147:Lib/Camera_Middleware/cmw_camera.c **** {
 148:Lib/Camera_Middleware/cmw_camera.c ****   return CMW_CAMERA_SetPipe(&hcamera_dcmipp, pipe, p_conf, pitch);
 149:Lib/Camera_Middleware/cmw_camera.c **** }
 150:Lib/Camera_Middleware/cmw_camera.c **** 
 151:Lib/Camera_Middleware/cmw_camera.c **** /**
 152:Lib/Camera_Middleware/cmw_camera.c ****   * @brief  Get Sensor name.
 153:Lib/Camera_Middleware/cmw_camera.c ****   * @param  sensorName  Camera sensor name
 154:Lib/Camera_Middleware/cmw_camera.c ****   * @retval CMW status
 155:Lib/Camera_Middleware/cmw_camera.c ****   */
 156:Lib/Camera_Middleware/cmw_camera.c **** int32_t CMW_CAMERA_GetSensorName(CMW_Sensor_Name_t *sensorName)
 157:Lib/Camera_Middleware/cmw_camera.c **** {
 158:Lib/Camera_Middleware/cmw_camera.c ****   int32_t ret = CMW_ERROR_NONE;
 159:Lib/Camera_Middleware/cmw_camera.c ****   CMW_Sensor_Init_t initValues = {0};
 160:Lib/Camera_Middleware/cmw_camera.c **** 
 161:Lib/Camera_Middleware/cmw_camera.c ****   if (is_camera_init != 0)
 162:Lib/Camera_Middleware/cmw_camera.c ****   {
 163:Lib/Camera_Middleware/cmw_camera.c ****     *sensorName = connected_sensor;
 164:Lib/Camera_Middleware/cmw_camera.c ****     return CMW_ERROR_NONE;
 165:Lib/Camera_Middleware/cmw_camera.c ****   }
 166:Lib/Camera_Middleware/cmw_camera.c **** 
 167:Lib/Camera_Middleware/cmw_camera.c ****   initValues.width = 0;
 168:Lib/Camera_Middleware/cmw_camera.c ****   initValues.height = 0;
 169:Lib/Camera_Middleware/cmw_camera.c ****   initValues.fps = 30;
 170:Lib/Camera_Middleware/cmw_camera.c ****   initValues.mirrorFlip = CMW_MIRRORFLIP_NONE;
 171:Lib/Camera_Middleware/cmw_camera.c ****   initValues.sensor_config = NULL;
 172:Lib/Camera_Middleware/cmw_camera.c **** 
 173:Lib/Camera_Middleware/cmw_camera.c ****   /* Set DCMIPP instance */
 174:Lib/Camera_Middleware/cmw_camera.c ****   hcamera_dcmipp.Instance = DCMIPP;
 175:Lib/Camera_Middleware/cmw_camera.c **** 
 176:Lib/Camera_Middleware/cmw_camera.c ****   /* Configure DCMIPP clock */
 177:Lib/Camera_Middleware/cmw_camera.c ****   ret = MX_DCMIPP_ClockConfig(&hcamera_dcmipp);
 178:Lib/Camera_Middleware/cmw_camera.c ****   if (ret != HAL_OK)
 179:Lib/Camera_Middleware/cmw_camera.c ****   {
 180:Lib/Camera_Middleware/cmw_camera.c ****     return CMW_ERROR_PERIPH_FAILURE;
 181:Lib/Camera_Middleware/cmw_camera.c ****   }
 182:Lib/Camera_Middleware/cmw_camera.c ****   /* Enable DCMIPP clock */
 183:Lib/Camera_Middleware/cmw_camera.c ****   ret = HAL_DCMIPP_Init(&hcamera_dcmipp);
 184:Lib/Camera_Middleware/cmw_camera.c ****   if (ret != HAL_OK)
 185:Lib/Camera_Middleware/cmw_camera.c ****   {
 186:Lib/Camera_Middleware/cmw_camera.c ****     return CMW_ERROR_PERIPH_FAILURE;
 187:Lib/Camera_Middleware/cmw_camera.c ****   }
 188:Lib/Camera_Middleware/cmw_camera.c **** 
 189:Lib/Camera_Middleware/cmw_camera.c ****   CMW_CAMERA_EnableGPIOs();
 190:Lib/Camera_Middleware/cmw_camera.c **** 
 191:Lib/Camera_Middleware/cmw_camera.c ****   ret = CMW_CAMERA_Probe_Sensor(&initValues, &connected_sensor);
 192:Lib/Camera_Middleware/cmw_camera.c ****   if (ret != CMW_ERROR_NONE)
 193:Lib/Camera_Middleware/cmw_camera.c ****   {
 194:Lib/Camera_Middleware/cmw_camera.c ****     return CMW_ERROR_UNKNOWN_COMPONENT;
 195:Lib/Camera_Middleware/cmw_camera.c ****   }
 196:Lib/Camera_Middleware/cmw_camera.c ****   *sensorName = connected_sensor;
ARM GAS  C:\Users\DJESSOU\AppData\Local\Temp\cc3dm0Vf.s 			page 5


 197:Lib/Camera_Middleware/cmw_camera.c ****   return CMW_ERROR_NONE;
 198:Lib/Camera_Middleware/cmw_camera.c **** }
 199:Lib/Camera_Middleware/cmw_camera.c **** 
 200:Lib/Camera_Middleware/cmw_camera.c **** /**
 201:Lib/Camera_Middleware/cmw_camera.c ****   * @brief  Set White Balance mode.
 202:Lib/Camera_Middleware/cmw_camera.c ****   * @param  Automatic  If not null, set automatic white balance mode
 203:Lib/Camera_Middleware/cmw_camera.c ****   * @param  RefColorTemp  If automatic is null, set white balance mode
 204:Lib/Camera_Middleware/cmw_camera.c ****   * @retval CMW status
 205:Lib/Camera_Middleware/cmw_camera.c ****   */
 206:Lib/Camera_Middleware/cmw_camera.c **** int32_t CMW_CAMERA_SetWBRefMode(uint8_t Automatic, uint32_t RefColorTemp)
 207:Lib/Camera_Middleware/cmw_camera.c **** {
 208:Lib/Camera_Middleware/cmw_camera.c ****   int ret;
 209:Lib/Camera_Middleware/cmw_camera.c **** 
 210:Lib/Camera_Middleware/cmw_camera.c ****   ret = Camera_Drv.SetWBRefMode(&camera_bsp, Automatic, RefColorTemp);
 211:Lib/Camera_Middleware/cmw_camera.c ****   if (ret != CMW_ERROR_NONE)
 212:Lib/Camera_Middleware/cmw_camera.c ****   {
 213:Lib/Camera_Middleware/cmw_camera.c ****     return CMW_ERROR_COMPONENT_FAILURE;
 214:Lib/Camera_Middleware/cmw_camera.c ****   }
 215:Lib/Camera_Middleware/cmw_camera.c **** 
 216:Lib/Camera_Middleware/cmw_camera.c ****   ret = CMW_ERROR_NONE;
 217:Lib/Camera_Middleware/cmw_camera.c ****   /* Return CMW status */
 218:Lib/Camera_Middleware/cmw_camera.c ****   return ret;
 219:Lib/Camera_Middleware/cmw_camera.c **** }
 220:Lib/Camera_Middleware/cmw_camera.c **** 
 221:Lib/Camera_Middleware/cmw_camera.c **** /**
 222:Lib/Camera_Middleware/cmw_camera.c ****   * @brief  Get White Balance reference modes list.
 223:Lib/Camera_Middleware/cmw_camera.c ****   * @param  RefColorTemp  White Balance reference modes
 224:Lib/Camera_Middleware/cmw_camera.c ****   * @retval CMW status
 225:Lib/Camera_Middleware/cmw_camera.c ****   */
 226:Lib/Camera_Middleware/cmw_camera.c **** int32_t CMW_CAMERA_ListWBRefModes(uint32_t RefColorTemp[])
 227:Lib/Camera_Middleware/cmw_camera.c **** {
 228:Lib/Camera_Middleware/cmw_camera.c ****   int ret;
 229:Lib/Camera_Middleware/cmw_camera.c **** 
 230:Lib/Camera_Middleware/cmw_camera.c ****   ret = Camera_Drv.ListWBRefModes(&camera_bsp, RefColorTemp);
 231:Lib/Camera_Middleware/cmw_camera.c ****   if (ret != CMW_ERROR_NONE)
 232:Lib/Camera_Middleware/cmw_camera.c ****   {
 233:Lib/Camera_Middleware/cmw_camera.c ****     return CMW_ERROR_COMPONENT_FAILURE;
 234:Lib/Camera_Middleware/cmw_camera.c ****   }
 235:Lib/Camera_Middleware/cmw_camera.c **** 
 236:Lib/Camera_Middleware/cmw_camera.c ****   ret = CMW_ERROR_NONE;
 237:Lib/Camera_Middleware/cmw_camera.c ****   /* Return CMW status */
 238:Lib/Camera_Middleware/cmw_camera.c ****   return ret;
 239:Lib/Camera_Middleware/cmw_camera.c **** }
 240:Lib/Camera_Middleware/cmw_camera.c **** 
 241:Lib/Camera_Middleware/cmw_camera.c **** /**
 242:Lib/Camera_Middleware/cmw_camera.c ****   * @brief  Probe camera sensor.
 243:Lib/Camera_Middleware/cmw_camera.c ****   * @param  initValues  Initialization values for the sensor
 244:Lib/Camera_Middleware/cmw_camera.c ****   * @param  sensorName  Camera sensor name
 245:Lib/Camera_Middleware/cmw_camera.c ****   * @retval CMW status
 246:Lib/Camera_Middleware/cmw_camera.c ****   */
 247:Lib/Camera_Middleware/cmw_camera.c **** static int CMW_CAMERA_Probe_Sensor(CMW_Sensor_Init_t *initValues, CMW_Sensor_Name_t *sensorName)
 248:Lib/Camera_Middleware/cmw_camera.c **** {
 249:Lib/Camera_Middleware/cmw_camera.c ****   int ret;
 250:Lib/Camera_Middleware/cmw_camera.c **** #if defined(USE_OV5640_SENSOR)
 251:Lib/Camera_Middleware/cmw_camera.c ****   ret = CMW_CAMERA_OV5640_Init(initValues);
 252:Lib/Camera_Middleware/cmw_camera.c ****   if (ret == CMW_ERROR_NONE)
 253:Lib/Camera_Middleware/cmw_camera.c ****   {
ARM GAS  C:\Users\DJESSOU\AppData\Local\Temp\cc3dm0Vf.s 			page 6


 254:Lib/Camera_Middleware/cmw_camera.c ****     *sensorName = CMW_OV5640_Sensor;
 255:Lib/Camera_Middleware/cmw_camera.c ****     return ret;
 256:Lib/Camera_Middleware/cmw_camera.c ****   }
 257:Lib/Camera_Middleware/cmw_camera.c **** #endif
 258:Lib/Camera_Middleware/cmw_camera.c **** #if defined(USE_VD55G1_SENSOR)
 259:Lib/Camera_Middleware/cmw_camera.c ****   ret = CMW_CAMERA_VD55G1_Init(initValues);
 260:Lib/Camera_Middleware/cmw_camera.c ****   if (ret == CMW_ERROR_NONE)
 261:Lib/Camera_Middleware/cmw_camera.c ****   {
 262:Lib/Camera_Middleware/cmw_camera.c ****     *sensorName = CMW_VD55G1_Sensor;
 263:Lib/Camera_Middleware/cmw_camera.c ****     return ret;
 264:Lib/Camera_Middleware/cmw_camera.c ****   }
 265:Lib/Camera_Middleware/cmw_camera.c **** #endif
 266:Lib/Camera_Middleware/cmw_camera.c **** #if defined(USE_VD65G4_SENSOR)
 267:Lib/Camera_Middleware/cmw_camera.c ****   ret = CMW_CAMERA_VD65G4_Init(initValues);
 268:Lib/Camera_Middleware/cmw_camera.c ****   if (ret == CMW_ERROR_NONE)
 269:Lib/Camera_Middleware/cmw_camera.c ****   {
 270:Lib/Camera_Middleware/cmw_camera.c ****     *sensorName = CMW_VD65G4_Sensor;
 271:Lib/Camera_Middleware/cmw_camera.c ****     return ret;
 272:Lib/Camera_Middleware/cmw_camera.c ****   }
 273:Lib/Camera_Middleware/cmw_camera.c **** #endif
 274:Lib/Camera_Middleware/cmw_camera.c **** #if defined(USE_VD66GY_SENSOR)
 275:Lib/Camera_Middleware/cmw_camera.c ****   ret = CMW_CAMERA_VD66GY_Init(initValues);
 276:Lib/Camera_Middleware/cmw_camera.c ****   if (ret == CMW_ERROR_NONE)
 277:Lib/Camera_Middleware/cmw_camera.c ****   {
 278:Lib/Camera_Middleware/cmw_camera.c ****     *sensorName = CMW_VD66GY_Sensor;
 279:Lib/Camera_Middleware/cmw_camera.c ****     return ret;
 280:Lib/Camera_Middleware/cmw_camera.c ****   }
 281:Lib/Camera_Middleware/cmw_camera.c **** #endif
 282:Lib/Camera_Middleware/cmw_camera.c **** #if defined(USE_VD56G3_SENSOR)
 283:Lib/Camera_Middleware/cmw_camera.c ****   ret = CMW_CAMERA_VD56G3_Init(initValues);
 284:Lib/Camera_Middleware/cmw_camera.c ****   if (ret == CMW_ERROR_NONE)
 285:Lib/Camera_Middleware/cmw_camera.c ****   {
 286:Lib/Camera_Middleware/cmw_camera.c ****     *sensorName = CMW_VD56G3_Sensor;
 287:Lib/Camera_Middleware/cmw_camera.c ****     return ret;
 288:Lib/Camera_Middleware/cmw_camera.c ****   }
 289:Lib/Camera_Middleware/cmw_camera.c **** #endif
 290:Lib/Camera_Middleware/cmw_camera.c **** #if defined(USE_VD1943_SENSOR)
 291:Lib/Camera_Middleware/cmw_camera.c ****   ret = CMW_CAMERA_VD1943_Init(initValues);
 292:Lib/Camera_Middleware/cmw_camera.c ****   if (ret == CMW_ERROR_NONE)
 293:Lib/Camera_Middleware/cmw_camera.c ****   {
 294:Lib/Camera_Middleware/cmw_camera.c ****     *sensorName = CMW_VD1943_Sensor;
 295:Lib/Camera_Middleware/cmw_camera.c ****     return ret;
 296:Lib/Camera_Middleware/cmw_camera.c ****   }
 297:Lib/Camera_Middleware/cmw_camera.c **** #endif
 298:Lib/Camera_Middleware/cmw_camera.c **** #if defined(USE_VD5943_SENSOR)
 299:Lib/Camera_Middleware/cmw_camera.c ****   ret = CMW_CAMERA_VD5943_Init(initValues);
 300:Lib/Camera_Middleware/cmw_camera.c ****   if (ret == CMW_ERROR_NONE)
 301:Lib/Camera_Middleware/cmw_camera.c ****   {
 302:Lib/Camera_Middleware/cmw_camera.c ****     *sensorName = CMW_VD5943_Sensor;
 303:Lib/Camera_Middleware/cmw_camera.c ****     return ret;
 304:Lib/Camera_Middleware/cmw_camera.c ****   }
 305:Lib/Camera_Middleware/cmw_camera.c **** #endif
 306:Lib/Camera_Middleware/cmw_camera.c **** #if defined(USE_IMX335_SENSOR)
 307:Lib/Camera_Middleware/cmw_camera.c ****   ret = CMW_CAMERA_IMX335_Init(initValues);
 308:Lib/Camera_Middleware/cmw_camera.c ****   if (ret == CMW_ERROR_NONE)
 309:Lib/Camera_Middleware/cmw_camera.c ****   {
 310:Lib/Camera_Middleware/cmw_camera.c ****     *sensorName = CMW_IMX335_Sensor;
ARM GAS  C:\Users\DJESSOU\AppData\Local\Temp\cc3dm0Vf.s 			page 7


 311:Lib/Camera_Middleware/cmw_camera.c ****     return ret;
 312:Lib/Camera_Middleware/cmw_camera.c ****   }
 313:Lib/Camera_Middleware/cmw_camera.c **** #endif
 314:Lib/Camera_Middleware/cmw_camera.c ****   else
 315:Lib/Camera_Middleware/cmw_camera.c ****   {
 316:Lib/Camera_Middleware/cmw_camera.c ****     return CMW_ERROR_UNKNOWN_COMPONENT;
 317:Lib/Camera_Middleware/cmw_camera.c ****   }
 318:Lib/Camera_Middleware/cmw_camera.c **** }
 319:Lib/Camera_Middleware/cmw_camera.c **** 
 320:Lib/Camera_Middleware/cmw_camera.c **** 
 321:Lib/Camera_Middleware/cmw_camera.c **** 
 322:Lib/Camera_Middleware/cmw_camera.c **** /**
 323:Lib/Camera_Middleware/cmw_camera.c ****   * @brief  Initializes the camera.
 324:Lib/Camera_Middleware/cmw_camera.c ****   * @param  initConf  Mandatory: General camera config
 325:Lib/Camera_Middleware/cmw_camera.c ****   * @param  advanced_config  Optional: Sensor specific configuration
 326:Lib/Camera_Middleware/cmw_camera.c ****   * @retval CMW status
 327:Lib/Camera_Middleware/cmw_camera.c ****   */
 328:Lib/Camera_Middleware/cmw_camera.c **** int32_t CMW_CAMERA_Init(CMW_CameraInit_t *initConf, CMW_Advanced_Config_t *advanced_config)
 329:Lib/Camera_Middleware/cmw_camera.c **** {
 330:Lib/Camera_Middleware/cmw_camera.c ****   int32_t ret = CMW_ERROR_NONE;
 331:Lib/Camera_Middleware/cmw_camera.c ****   CMW_Sensor_Init_t initValues = {0};
 332:Lib/Camera_Middleware/cmw_camera.c ****   ISP_SensorInfoTypeDef info = {0};
 333:Lib/Camera_Middleware/cmw_camera.c **** 
 334:Lib/Camera_Middleware/cmw_camera.c ****   initValues.width = initConf->width;
 335:Lib/Camera_Middleware/cmw_camera.c ****   initValues.height = initConf->height;
 336:Lib/Camera_Middleware/cmw_camera.c ****   initValues.fps = initConf->fps;
 337:Lib/Camera_Middleware/cmw_camera.c ****   initValues.mirrorFlip = initConf->mirror_flip;
 338:Lib/Camera_Middleware/cmw_camera.c **** 
 339:Lib/Camera_Middleware/cmw_camera.c ****   if ((advanced_config != NULL) && (advanced_config->selected_sensor != CMW_UNKNOWN_Sensor))
 340:Lib/Camera_Middleware/cmw_camera.c ****   {
 341:Lib/Camera_Middleware/cmw_camera.c ****     /* Assume The sensor is the one selected by the application. Check during probe */
 342:Lib/Camera_Middleware/cmw_camera.c ****     connected_sensor = advanced_config->selected_sensor;
 343:Lib/Camera_Middleware/cmw_camera.c ****     initValues.sensor_config = (void *) &advanced_config->config_sensor;
 344:Lib/Camera_Middleware/cmw_camera.c ****   }
 345:Lib/Camera_Middleware/cmw_camera.c ****   else
 346:Lib/Camera_Middleware/cmw_camera.c ****   {
 347:Lib/Camera_Middleware/cmw_camera.c ****     connected_sensor = CMW_UNKNOWN_Sensor;
 348:Lib/Camera_Middleware/cmw_camera.c ****     initValues.sensor_config = NULL;
 349:Lib/Camera_Middleware/cmw_camera.c ****   }
 350:Lib/Camera_Middleware/cmw_camera.c **** 
 351:Lib/Camera_Middleware/cmw_camera.c ****   /* Set DCMIPP instance */
 352:Lib/Camera_Middleware/cmw_camera.c ****   hcamera_dcmipp.Instance = DCMIPP;
 353:Lib/Camera_Middleware/cmw_camera.c **** 
 354:Lib/Camera_Middleware/cmw_camera.c ****   /* Configure DCMIPP clock */
 355:Lib/Camera_Middleware/cmw_camera.c ****   ret = MX_DCMIPP_ClockConfig(&hcamera_dcmipp);
 356:Lib/Camera_Middleware/cmw_camera.c ****   if (ret != HAL_OK)
 357:Lib/Camera_Middleware/cmw_camera.c ****   {
 358:Lib/Camera_Middleware/cmw_camera.c ****     return CMW_ERROR_PERIPH_FAILURE;
 359:Lib/Camera_Middleware/cmw_camera.c ****   }
 360:Lib/Camera_Middleware/cmw_camera.c ****   /* Enable DCMIPP clock */
 361:Lib/Camera_Middleware/cmw_camera.c ****   ret = HAL_DCMIPP_Init(&hcamera_dcmipp);
 362:Lib/Camera_Middleware/cmw_camera.c ****   if (ret != HAL_OK)
 363:Lib/Camera_Middleware/cmw_camera.c ****   {
 364:Lib/Camera_Middleware/cmw_camera.c ****     return CMW_ERROR_PERIPH_FAILURE;
 365:Lib/Camera_Middleware/cmw_camera.c ****   }
 366:Lib/Camera_Middleware/cmw_camera.c **** 
 367:Lib/Camera_Middleware/cmw_camera.c ****   CMW_CAMERA_EnableGPIOs();
ARM GAS  C:\Users\DJESSOU\AppData\Local\Temp\cc3dm0Vf.s 			page 8


 368:Lib/Camera_Middleware/cmw_camera.c **** 
 369:Lib/Camera_Middleware/cmw_camera.c ****   ret = CMW_CAMERA_Probe_Sensor(&initValues, &connected_sensor);
 370:Lib/Camera_Middleware/cmw_camera.c ****   if (ret != CMW_ERROR_NONE)
 371:Lib/Camera_Middleware/cmw_camera.c ****   {
 372:Lib/Camera_Middleware/cmw_camera.c ****     return CMW_ERROR_UNKNOWN_COMPONENT;
 373:Lib/Camera_Middleware/cmw_camera.c ****   }
 374:Lib/Camera_Middleware/cmw_camera.c **** 
 375:Lib/Camera_Middleware/cmw_camera.c ****   /* Configure exposure and gain for a more suitable quality */
 376:Lib/Camera_Middleware/cmw_camera.c ****   ret = CMW_CAMERA_GetSensorInfo(&info);
 377:Lib/Camera_Middleware/cmw_camera.c ****   if (ret == CMW_ERROR_COMPONENT_FAILURE)
 378:Lib/Camera_Middleware/cmw_camera.c ****   {
 379:Lib/Camera_Middleware/cmw_camera.c ****     return CMW_ERROR_UNKNOWN_COMPONENT;
 380:Lib/Camera_Middleware/cmw_camera.c ****   }
 381:Lib/Camera_Middleware/cmw_camera.c ****   ret = CMW_CAMERA_SetExposure(info.exposure_min);
 382:Lib/Camera_Middleware/cmw_camera.c ****   if (ret == CMW_ERROR_COMPONENT_FAILURE)
 383:Lib/Camera_Middleware/cmw_camera.c ****   {
 384:Lib/Camera_Middleware/cmw_camera.c ****     return CMW_ERROR_UNKNOWN_COMPONENT;
 385:Lib/Camera_Middleware/cmw_camera.c ****   }
 386:Lib/Camera_Middleware/cmw_camera.c ****   ret = CMW_CAMERA_SetGain(info.gain_min);
 387:Lib/Camera_Middleware/cmw_camera.c ****   if (ret == CMW_ERROR_COMPONENT_FAILURE)
 388:Lib/Camera_Middleware/cmw_camera.c ****   {
 389:Lib/Camera_Middleware/cmw_camera.c ****     return CMW_ERROR_UNKNOWN_COMPONENT;
 390:Lib/Camera_Middleware/cmw_camera.c ****   }
 391:Lib/Camera_Middleware/cmw_camera.c **** 
 392:Lib/Camera_Middleware/cmw_camera.c ****   /* Write back the initValue width and height that might be changed */
 393:Lib/Camera_Middleware/cmw_camera.c ****   initConf->width = initValues.width;
 394:Lib/Camera_Middleware/cmw_camera.c ****   initConf->height = initValues.height ;
 395:Lib/Camera_Middleware/cmw_camera.c ****   camera_conf = *initConf;
 396:Lib/Camera_Middleware/cmw_camera.c **** 
 397:Lib/Camera_Middleware/cmw_camera.c ****   is_camera_init++;
 398:Lib/Camera_Middleware/cmw_camera.c ****   /* CMW status */
 399:Lib/Camera_Middleware/cmw_camera.c ****   ret = CMW_ERROR_NONE;
 400:Lib/Camera_Middleware/cmw_camera.c ****   return ret;
 401:Lib/Camera_Middleware/cmw_camera.c **** }
 402:Lib/Camera_Middleware/cmw_camera.c **** 
 403:Lib/Camera_Middleware/cmw_camera.c **** /**
 404:Lib/Camera_Middleware/cmw_camera.c ****   * @brief  Set the camera Mirror/Flip.
 405:Lib/Camera_Middleware/cmw_camera.c ****   * @param  MirrorFlip CMW_MIRRORFLIP_NONE CMW_MIRRORFLIP_FLIP CMW_MIRRORFLIP_MIRROR CMW_MIRRORFLIP
 406:Lib/Camera_Middleware/cmw_camera.c ****   * @retval CMW status
 407:Lib/Camera_Middleware/cmw_camera.c **** */
 408:Lib/Camera_Middleware/cmw_camera.c **** int32_t CMW_CAMERA_SetMirrorFlip(int32_t MirrorFlip)
 409:Lib/Camera_Middleware/cmw_camera.c **** {
 410:Lib/Camera_Middleware/cmw_camera.c ****   int ret;
 411:Lib/Camera_Middleware/cmw_camera.c **** 
 412:Lib/Camera_Middleware/cmw_camera.c ****   if (Camera_Drv.SetMirrorFlip == NULL)
 413:Lib/Camera_Middleware/cmw_camera.c ****   {
 414:Lib/Camera_Middleware/cmw_camera.c ****     return CMW_ERROR_FEATURE_NOT_SUPPORTED;
 415:Lib/Camera_Middleware/cmw_camera.c ****   }
 416:Lib/Camera_Middleware/cmw_camera.c **** 
 417:Lib/Camera_Middleware/cmw_camera.c ****   ret = Camera_Drv.SetMirrorFlip(&camera_bsp, MirrorFlip);
 418:Lib/Camera_Middleware/cmw_camera.c ****   if (ret != CMW_ERROR_NONE)
 419:Lib/Camera_Middleware/cmw_camera.c ****   {
 420:Lib/Camera_Middleware/cmw_camera.c ****     return CMW_ERROR_COMPONENT_FAILURE;
 421:Lib/Camera_Middleware/cmw_camera.c ****   }
 422:Lib/Camera_Middleware/cmw_camera.c **** 
 423:Lib/Camera_Middleware/cmw_camera.c ****   camera_conf.mirror_flip = MirrorFlip;
 424:Lib/Camera_Middleware/cmw_camera.c ****   ret = CMW_ERROR_NONE;
ARM GAS  C:\Users\DJESSOU\AppData\Local\Temp\cc3dm0Vf.s 			page 9


 425:Lib/Camera_Middleware/cmw_camera.c ****   /* Return CMW status */
 426:Lib/Camera_Middleware/cmw_camera.c ****   return ret;
 427:Lib/Camera_Middleware/cmw_camera.c **** }
 428:Lib/Camera_Middleware/cmw_camera.c **** 
 429:Lib/Camera_Middleware/cmw_camera.c **** /**
 430:Lib/Camera_Middleware/cmw_camera.c ****   * @brief  Get the camera Mirror/Flip.
 431:Lib/Camera_Middleware/cmw_camera.c ****   * @param  MirrorFlip CMW_MIRRORFLIP_NONE CMW_MIRRORFLIP_FLIP CMW_MIRRORFLIP_MIRROR CMW_MIRRORFLIP
 432:Lib/Camera_Middleware/cmw_camera.c ****   * @retval CMW status
 433:Lib/Camera_Middleware/cmw_camera.c **** */
 434:Lib/Camera_Middleware/cmw_camera.c **** int32_t CMW_CAMERA_GetMirrorFlip(int32_t *MirrorFlip)
 435:Lib/Camera_Middleware/cmw_camera.c **** {
 436:Lib/Camera_Middleware/cmw_camera.c ****   *MirrorFlip = camera_conf.mirror_flip;
 437:Lib/Camera_Middleware/cmw_camera.c ****   return CMW_ERROR_NONE;
 438:Lib/Camera_Middleware/cmw_camera.c **** }
 439:Lib/Camera_Middleware/cmw_camera.c **** 
 440:Lib/Camera_Middleware/cmw_camera.c **** /**
 441:Lib/Camera_Middleware/cmw_camera.c ****   * @brief  Starts the camera capture in the selected mode.
 442:Lib/Camera_Middleware/cmw_camera.c ****   * @param  pipe  DCMIPP Pipe
 443:Lib/Camera_Middleware/cmw_camera.c ****   * @param  pbuff pointer to the camera output buffer
 444:Lib/Camera_Middleware/cmw_camera.c ****   * @param  mode  CMW_MODE_CONTINUOUS or CMW_MODE_SNAPSHOT
 445:Lib/Camera_Middleware/cmw_camera.c ****   * @retval CMW status
 446:Lib/Camera_Middleware/cmw_camera.c ****   */
 447:Lib/Camera_Middleware/cmw_camera.c **** int32_t CMW_CAMERA_Start(uint32_t pipe, uint8_t *pbuff, uint32_t mode)
 448:Lib/Camera_Middleware/cmw_camera.c **** {
 449:Lib/Camera_Middleware/cmw_camera.c ****   int32_t ret = CMW_ERROR_NONE;
 450:Lib/Camera_Middleware/cmw_camera.c **** 
 451:Lib/Camera_Middleware/cmw_camera.c ****   if (pipe >= DCMIPP_NUM_OF_PIPES)
 452:Lib/Camera_Middleware/cmw_camera.c ****   {
 453:Lib/Camera_Middleware/cmw_camera.c ****     return CMW_ERROR_WRONG_PARAM;
 454:Lib/Camera_Middleware/cmw_camera.c ****   }
 455:Lib/Camera_Middleware/cmw_camera.c **** 
 456:Lib/Camera_Middleware/cmw_camera.c ****   ret = HAL_DCMIPP_CSI_PIPE_Start(&hcamera_dcmipp, pipe, DCMIPP_VIRTUAL_CHANNEL0, (uint32_t)pbuff, 
 457:Lib/Camera_Middleware/cmw_camera.c ****   if (ret != HAL_OK)
 458:Lib/Camera_Middleware/cmw_camera.c ****   {
 459:Lib/Camera_Middleware/cmw_camera.c ****     return CMW_ERROR_PERIPH_FAILURE;
 460:Lib/Camera_Middleware/cmw_camera.c ****   }
 461:Lib/Camera_Middleware/cmw_camera.c **** 
 462:Lib/Camera_Middleware/cmw_camera.c ****   if (!is_camera_started)
 463:Lib/Camera_Middleware/cmw_camera.c ****   {
 464:Lib/Camera_Middleware/cmw_camera.c ****     ret = Camera_Drv.Start(&camera_bsp);
 465:Lib/Camera_Middleware/cmw_camera.c ****     if (ret != CMW_ERROR_NONE)
 466:Lib/Camera_Middleware/cmw_camera.c ****     {
 467:Lib/Camera_Middleware/cmw_camera.c ****       return CMW_ERROR_COMPONENT_FAILURE;
 468:Lib/Camera_Middleware/cmw_camera.c ****     }
 469:Lib/Camera_Middleware/cmw_camera.c ****     is_camera_started++;
 470:Lib/Camera_Middleware/cmw_camera.c ****   }
 471:Lib/Camera_Middleware/cmw_camera.c **** 
 472:Lib/Camera_Middleware/cmw_camera.c ****   /* Return CMW status */
 473:Lib/Camera_Middleware/cmw_camera.c ****   return ret;
 474:Lib/Camera_Middleware/cmw_camera.c **** }
 475:Lib/Camera_Middleware/cmw_camera.c **** 
 476:Lib/Camera_Middleware/cmw_camera.c **** #if defined (STM32N657xx)
 477:Lib/Camera_Middleware/cmw_camera.c **** /**
 478:Lib/Camera_Middleware/cmw_camera.c ****   * @brief  Starts the camera capture in the selected mode.
 479:Lib/Camera_Middleware/cmw_camera.c ****   * @param  pipe  DCMIPP Pipe
 480:Lib/Camera_Middleware/cmw_camera.c ****   * @param  pbuff1 pointer to the first camera output buffer
 481:Lib/Camera_Middleware/cmw_camera.c ****   * @param  pbuff2 pointer to the second camera output buffer
ARM GAS  C:\Users\DJESSOU\AppData\Local\Temp\cc3dm0Vf.s 			page 10


 482:Lib/Camera_Middleware/cmw_camera.c ****   * @param  mode  CMW_MODE_CONTINUOUS or CMW_MODE_SNAPSHOT
 483:Lib/Camera_Middleware/cmw_camera.c ****   * @retval CMW status
 484:Lib/Camera_Middleware/cmw_camera.c ****   */
 485:Lib/Camera_Middleware/cmw_camera.c **** int32_t CMW_CAMERA_DoubleBufferStart(uint32_t pipe, uint8_t *pbuff1, uint8_t *pbuff2, uint32_t Mode
 486:Lib/Camera_Middleware/cmw_camera.c **** {
 487:Lib/Camera_Middleware/cmw_camera.c ****   int32_t ret = CMW_ERROR_NONE;
 488:Lib/Camera_Middleware/cmw_camera.c **** 
 489:Lib/Camera_Middleware/cmw_camera.c ****   if (pipe >= DCMIPP_NUM_OF_PIPES)
 490:Lib/Camera_Middleware/cmw_camera.c ****   {
 491:Lib/Camera_Middleware/cmw_camera.c ****     return CMW_ERROR_WRONG_PARAM;
 492:Lib/Camera_Middleware/cmw_camera.c ****   }
 493:Lib/Camera_Middleware/cmw_camera.c **** 
 494:Lib/Camera_Middleware/cmw_camera.c ****   if (HAL_DCMIPP_CSI_PIPE_DoubleBufferStart(&hcamera_dcmipp, pipe, DCMIPP_VIRTUAL_CHANNEL0, (uint32
 495:Lib/Camera_Middleware/cmw_camera.c ****                                             (uint32_t)pbuff2, Mode) != HAL_OK)
 496:Lib/Camera_Middleware/cmw_camera.c ****   {
 497:Lib/Camera_Middleware/cmw_camera.c ****     return CMW_ERROR_PERIPH_FAILURE;
 498:Lib/Camera_Middleware/cmw_camera.c ****   }
 499:Lib/Camera_Middleware/cmw_camera.c **** 
 500:Lib/Camera_Middleware/cmw_camera.c ****   if (!is_camera_started)
 501:Lib/Camera_Middleware/cmw_camera.c ****   {
 502:Lib/Camera_Middleware/cmw_camera.c ****     ret = Camera_Drv.Start(&camera_bsp);
 503:Lib/Camera_Middleware/cmw_camera.c ****     if (ret != CMW_ERROR_NONE)
 504:Lib/Camera_Middleware/cmw_camera.c ****     {
 505:Lib/Camera_Middleware/cmw_camera.c ****       return CMW_ERROR_COMPONENT_FAILURE;
 506:Lib/Camera_Middleware/cmw_camera.c ****     }
 507:Lib/Camera_Middleware/cmw_camera.c ****     is_camera_started++;
 508:Lib/Camera_Middleware/cmw_camera.c ****   }
 509:Lib/Camera_Middleware/cmw_camera.c **** 
 510:Lib/Camera_Middleware/cmw_camera.c ****   /* Return CMW status */
 511:Lib/Camera_Middleware/cmw_camera.c ****   return ret;
 512:Lib/Camera_Middleware/cmw_camera.c **** }
 513:Lib/Camera_Middleware/cmw_camera.c **** #endif
 514:Lib/Camera_Middleware/cmw_camera.c **** 
 515:Lib/Camera_Middleware/cmw_camera.c **** 
 516:Lib/Camera_Middleware/cmw_camera.c **** 
 517:Lib/Camera_Middleware/cmw_camera.c **** 
 518:Lib/Camera_Middleware/cmw_camera.c **** /**
 519:Lib/Camera_Middleware/cmw_camera.c ****   * @brief  DCMIPP Clock Config for DCMIPP.
 520:Lib/Camera_Middleware/cmw_camera.c ****   * @param  hdcmipp  DCMIPP Handle
 521:Lib/Camera_Middleware/cmw_camera.c ****   *         Being __weak it can be overwritten by the application
 522:Lib/Camera_Middleware/cmw_camera.c ****   * @retval HAL_status
 523:Lib/Camera_Middleware/cmw_camera.c ****   */
 524:Lib/Camera_Middleware/cmw_camera.c **** __weak HAL_StatusTypeDef MX_DCMIPP_ClockConfig(DCMIPP_HandleTypeDef *hdcmipp)
 525:Lib/Camera_Middleware/cmw_camera.c **** {
 526:Lib/Camera_Middleware/cmw_camera.c ****   UNUSED(hdcmipp);
 527:Lib/Camera_Middleware/cmw_camera.c **** 
 528:Lib/Camera_Middleware/cmw_camera.c ****   return HAL_OK;
 529:Lib/Camera_Middleware/cmw_camera.c **** }
 530:Lib/Camera_Middleware/cmw_camera.c **** 
 531:Lib/Camera_Middleware/cmw_camera.c **** /**
 532:Lib/Camera_Middleware/cmw_camera.c ****   * @brief  DeInitializes the camera.
 533:Lib/Camera_Middleware/cmw_camera.c ****   * @retval CMW status
 534:Lib/Camera_Middleware/cmw_camera.c ****   */
 535:Lib/Camera_Middleware/cmw_camera.c **** int32_t CMW_CAMERA_DeInit(void)
 536:Lib/Camera_Middleware/cmw_camera.c **** {
 537:Lib/Camera_Middleware/cmw_camera.c ****   int32_t ret = CMW_ERROR_NONE;
 538:Lib/Camera_Middleware/cmw_camera.c **** 
ARM GAS  C:\Users\DJESSOU\AppData\Local\Temp\cc3dm0Vf.s 			page 11


 539:Lib/Camera_Middleware/cmw_camera.c ****   if (HAL_DCMIPP_PIPE_GetState(&hcamera_dcmipp, DCMIPP_PIPE1) != HAL_DCMIPP_PIPE_STATE_RESET)
 540:Lib/Camera_Middleware/cmw_camera.c ****   {
 541:Lib/Camera_Middleware/cmw_camera.c ****     ret = HAL_DCMIPP_CSI_PIPE_Stop(&hcamera_dcmipp, DCMIPP_PIPE1, DCMIPP_VIRTUAL_CHANNEL0);
 542:Lib/Camera_Middleware/cmw_camera.c ****     if (ret != HAL_OK)
 543:Lib/Camera_Middleware/cmw_camera.c ****     {
 544:Lib/Camera_Middleware/cmw_camera.c ****       return CMW_ERROR_PERIPH_FAILURE;
 545:Lib/Camera_Middleware/cmw_camera.c ****     }
 546:Lib/Camera_Middleware/cmw_camera.c ****   }
 547:Lib/Camera_Middleware/cmw_camera.c **** 
 548:Lib/Camera_Middleware/cmw_camera.c ****   if (HAL_DCMIPP_PIPE_GetState(&hcamera_dcmipp, DCMIPP_PIPE2) != HAL_DCMIPP_PIPE_STATE_RESET)
 549:Lib/Camera_Middleware/cmw_camera.c ****   {
 550:Lib/Camera_Middleware/cmw_camera.c ****     ret = HAL_DCMIPP_CSI_PIPE_Stop(&hcamera_dcmipp, DCMIPP_PIPE2, DCMIPP_VIRTUAL_CHANNEL0);
 551:Lib/Camera_Middleware/cmw_camera.c ****     if (ret != HAL_OK)
 552:Lib/Camera_Middleware/cmw_camera.c ****     {
 553:Lib/Camera_Middleware/cmw_camera.c ****       return CMW_ERROR_PERIPH_FAILURE;
 554:Lib/Camera_Middleware/cmw_camera.c ****     }
 555:Lib/Camera_Middleware/cmw_camera.c ****   }
 556:Lib/Camera_Middleware/cmw_camera.c **** 
 557:Lib/Camera_Middleware/cmw_camera.c ****   ret = HAL_DCMIPP_DeInit(&hcamera_dcmipp);
 558:Lib/Camera_Middleware/cmw_camera.c ****   if (ret != HAL_OK)
 559:Lib/Camera_Middleware/cmw_camera.c ****   {
 560:Lib/Camera_Middleware/cmw_camera.c ****     return CMW_ERROR_PERIPH_FAILURE;
 561:Lib/Camera_Middleware/cmw_camera.c ****   }
 562:Lib/Camera_Middleware/cmw_camera.c **** 
 563:Lib/Camera_Middleware/cmw_camera.c ****   if (is_camera_init <= 0)
 564:Lib/Camera_Middleware/cmw_camera.c ****   {
 565:Lib/Camera_Middleware/cmw_camera.c ****     return CMW_ERROR_NONE;
 566:Lib/Camera_Middleware/cmw_camera.c ****   }
 567:Lib/Camera_Middleware/cmw_camera.c **** 
 568:Lib/Camera_Middleware/cmw_camera.c ****   /* De-initialize the camera module */
 569:Lib/Camera_Middleware/cmw_camera.c ****   ret = Camera_Drv.DeInit(&camera_bsp);
 570:Lib/Camera_Middleware/cmw_camera.c ****   if (ret != CMW_ERROR_NONE)
 571:Lib/Camera_Middleware/cmw_camera.c ****   {
 572:Lib/Camera_Middleware/cmw_camera.c ****     return CMW_ERROR_COMPONENT_FAILURE;
 573:Lib/Camera_Middleware/cmw_camera.c ****   }
 574:Lib/Camera_Middleware/cmw_camera.c ****   /* Set Camera in Power Down */
 575:Lib/Camera_Middleware/cmw_camera.c ****   CMW_CAMERA_PwrDown();
 576:Lib/Camera_Middleware/cmw_camera.c **** 
 577:Lib/Camera_Middleware/cmw_camera.c ****   /* Update DCMIPPInit counter */
 578:Lib/Camera_Middleware/cmw_camera.c ****   is_camera_init--;
 579:Lib/Camera_Middleware/cmw_camera.c ****   is_camera_started--;
 580:Lib/Camera_Middleware/cmw_camera.c ****   is_pipe1_2_shared--;
 581:Lib/Camera_Middleware/cmw_camera.c **** 
 582:Lib/Camera_Middleware/cmw_camera.c ****   /* Return CMW status */
 583:Lib/Camera_Middleware/cmw_camera.c ****   ret = CMW_ERROR_NONE;
 584:Lib/Camera_Middleware/cmw_camera.c ****   return ret;
 585:Lib/Camera_Middleware/cmw_camera.c **** }
 586:Lib/Camera_Middleware/cmw_camera.c **** 
 587:Lib/Camera_Middleware/cmw_camera.c **** /**
 588:Lib/Camera_Middleware/cmw_camera.c ****   * @brief  Suspend the CAMERA capture on selected pipe
 589:Lib/Camera_Middleware/cmw_camera.c ****   * @param  pipe Dcmipp pipe.
 590:Lib/Camera_Middleware/cmw_camera.c ****   * @retval CMW status
 591:Lib/Camera_Middleware/cmw_camera.c ****   */
 592:Lib/Camera_Middleware/cmw_camera.c **** int32_t CMW_CAMERA_Suspend(uint32_t pipe)
 593:Lib/Camera_Middleware/cmw_camera.c **** {
 594:Lib/Camera_Middleware/cmw_camera.c ****   HAL_DCMIPP_PipeStateTypeDef state = hcamera_dcmipp.PipeState[pipe];
 595:Lib/Camera_Middleware/cmw_camera.c **** 
ARM GAS  C:\Users\DJESSOU\AppData\Local\Temp\cc3dm0Vf.s 			page 12


 596:Lib/Camera_Middleware/cmw_camera.c ****   if (state == HAL_DCMIPP_PIPE_STATE_SUSPEND)
 597:Lib/Camera_Middleware/cmw_camera.c ****   {
 598:Lib/Camera_Middleware/cmw_camera.c ****     return CMW_ERROR_NONE;
 599:Lib/Camera_Middleware/cmw_camera.c ****   }
 600:Lib/Camera_Middleware/cmw_camera.c ****   else if (state > HAL_DCMIPP_PIPE_STATE_READY)
 601:Lib/Camera_Middleware/cmw_camera.c ****   {
 602:Lib/Camera_Middleware/cmw_camera.c ****     if (HAL_DCMIPP_PIPE_Suspend(&hcamera_dcmipp, pipe) != HAL_OK)
 603:Lib/Camera_Middleware/cmw_camera.c ****     {
 604:Lib/Camera_Middleware/cmw_camera.c ****       return CMW_ERROR_PERIPH_FAILURE;
 605:Lib/Camera_Middleware/cmw_camera.c ****     }
 606:Lib/Camera_Middleware/cmw_camera.c ****   }
 607:Lib/Camera_Middleware/cmw_camera.c **** 
 608:Lib/Camera_Middleware/cmw_camera.c ****   /* Return CMW status */
 609:Lib/Camera_Middleware/cmw_camera.c ****   return CMW_ERROR_NONE;
 610:Lib/Camera_Middleware/cmw_camera.c **** }
 611:Lib/Camera_Middleware/cmw_camera.c **** 
 612:Lib/Camera_Middleware/cmw_camera.c **** /**
 613:Lib/Camera_Middleware/cmw_camera.c ****   * @brief  Resume the CAMERA capture on selected pipe
 614:Lib/Camera_Middleware/cmw_camera.c ****   * @param  pipe Dcmipp pipe.
 615:Lib/Camera_Middleware/cmw_camera.c ****   * @retval CMW status
 616:Lib/Camera_Middleware/cmw_camera.c ****   */
 617:Lib/Camera_Middleware/cmw_camera.c **** int32_t CMW_CAMERA_Resume(uint32_t pipe)
 618:Lib/Camera_Middleware/cmw_camera.c **** {
 619:Lib/Camera_Middleware/cmw_camera.c ****   HAL_DCMIPP_PipeStateTypeDef state = hcamera_dcmipp.PipeState[pipe];
 620:Lib/Camera_Middleware/cmw_camera.c **** 
 621:Lib/Camera_Middleware/cmw_camera.c ****   if (state == HAL_DCMIPP_PIPE_STATE_BUSY)
 622:Lib/Camera_Middleware/cmw_camera.c ****   {
 623:Lib/Camera_Middleware/cmw_camera.c ****     return CMW_ERROR_NONE;
 624:Lib/Camera_Middleware/cmw_camera.c ****   }
 625:Lib/Camera_Middleware/cmw_camera.c ****   else if (state > HAL_DCMIPP_PIPE_STATE_BUSY)
 626:Lib/Camera_Middleware/cmw_camera.c ****   {
 627:Lib/Camera_Middleware/cmw_camera.c ****     if (HAL_DCMIPP_PIPE_Resume(&hcamera_dcmipp, pipe) != HAL_OK)
 628:Lib/Camera_Middleware/cmw_camera.c ****     {
 629:Lib/Camera_Middleware/cmw_camera.c ****       return CMW_ERROR_PERIPH_FAILURE;
 630:Lib/Camera_Middleware/cmw_camera.c ****     }
 631:Lib/Camera_Middleware/cmw_camera.c ****   }
 632:Lib/Camera_Middleware/cmw_camera.c **** 
 633:Lib/Camera_Middleware/cmw_camera.c ****   /* Return CMW status */
 634:Lib/Camera_Middleware/cmw_camera.c ****   return CMW_ERROR_NONE;
 635:Lib/Camera_Middleware/cmw_camera.c **** }
 636:Lib/Camera_Middleware/cmw_camera.c **** 
 637:Lib/Camera_Middleware/cmw_camera.c **** /**
 638:Lib/Camera_Middleware/cmw_camera.c ****   * @brief  Enable the Restart State. When enabled, at system restart, the ISP middleware configura
 639:Lib/Camera_Middleware/cmw_camera.c ****   *         is restored from the last update before the restart.
 640:Lib/Camera_Middleware/cmw_camera.c ****   * @param  ISP_RestartState pointer to ISP Restart State. To use this mode in a Low Power use case
 641:Lib/Camera_Middleware/cmw_camera.c ****   *         the ISP state is applied at system wake up, this pointer must be in some retention memo
 642:Lib/Camera_Middleware/cmw_camera.c ****   * @retval CMW status
 643:Lib/Camera_Middleware/cmw_camera.c ****   */
 644:Lib/Camera_Middleware/cmw_camera.c **** int32_t CMW_CAMERA_EnableRestartState(ISP_RestartStateTypeDef *ISP_RestartState)
 645:Lib/Camera_Middleware/cmw_camera.c **** {
 646:Lib/Camera_Middleware/cmw_camera.c ****   if (ISP_EnableRestartState(NULL, ISP_RestartState) != ISP_OK)
 647:Lib/Camera_Middleware/cmw_camera.c ****   {
 648:Lib/Camera_Middleware/cmw_camera.c ****     return CMW_ERROR_COMPONENT_FAILURE;
 649:Lib/Camera_Middleware/cmw_camera.c ****   }
 650:Lib/Camera_Middleware/cmw_camera.c **** 
 651:Lib/Camera_Middleware/cmw_camera.c ****   /* Return CMW status */
 652:Lib/Camera_Middleware/cmw_camera.c ****   return CMW_ERROR_NONE;
ARM GAS  C:\Users\DJESSOU\AppData\Local\Temp\cc3dm0Vf.s 			page 13


 653:Lib/Camera_Middleware/cmw_camera.c **** }
 654:Lib/Camera_Middleware/cmw_camera.c **** 
 655:Lib/Camera_Middleware/cmw_camera.c **** /**
 656:Lib/Camera_Middleware/cmw_camera.c ****   * @brief  Disable the Restart State
 657:Lib/Camera_Middleware/cmw_camera.c ****   * @retval CMW status
 658:Lib/Camera_Middleware/cmw_camera.c ****   */
 659:Lib/Camera_Middleware/cmw_camera.c **** int32_t CMW_CAMERA_DisableRestartState()
 660:Lib/Camera_Middleware/cmw_camera.c **** {
 661:Lib/Camera_Middleware/cmw_camera.c ****   if (ISP_DisableRestartState(NULL) != ISP_OK)
 662:Lib/Camera_Middleware/cmw_camera.c ****   {
 663:Lib/Camera_Middleware/cmw_camera.c ****     return CMW_ERROR_COMPONENT_FAILURE;
 664:Lib/Camera_Middleware/cmw_camera.c ****   }
 665:Lib/Camera_Middleware/cmw_camera.c **** 
 666:Lib/Camera_Middleware/cmw_camera.c ****   /* Return CMW status */
 667:Lib/Camera_Middleware/cmw_camera.c ****   return CMW_ERROR_NONE;
 668:Lib/Camera_Middleware/cmw_camera.c **** }
 669:Lib/Camera_Middleware/cmw_camera.c **** 
 670:Lib/Camera_Middleware/cmw_camera.c **** /**
 671:Lib/Camera_Middleware/cmw_camera.c ****   * @brief  Set the camera gain.
 672:Lib/Camera_Middleware/cmw_camera.c ****   * @param  Gain     Gain in mdB
 673:Lib/Camera_Middleware/cmw_camera.c ****   * @retval CMW status
 674:Lib/Camera_Middleware/cmw_camera.c ****   */
 675:Lib/Camera_Middleware/cmw_camera.c **** int CMW_CAMERA_SetGain(int32_t Gain)
 676:Lib/Camera_Middleware/cmw_camera.c **** {
 677:Lib/Camera_Middleware/cmw_camera.c ****   int ret;
 678:Lib/Camera_Middleware/cmw_camera.c ****   if(Camera_Drv.SetGain == NULL)
 679:Lib/Camera_Middleware/cmw_camera.c ****   {
 680:Lib/Camera_Middleware/cmw_camera.c ****     return CMW_ERROR_FEATURE_NOT_SUPPORTED;
 681:Lib/Camera_Middleware/cmw_camera.c ****   }
 682:Lib/Camera_Middleware/cmw_camera.c **** 
 683:Lib/Camera_Middleware/cmw_camera.c ****   ret = Camera_Drv.SetGain(&camera_bsp, Gain);
 684:Lib/Camera_Middleware/cmw_camera.c ****   if (ret != CMW_ERROR_NONE)
 685:Lib/Camera_Middleware/cmw_camera.c ****   {
 686:Lib/Camera_Middleware/cmw_camera.c ****     return CMW_ERROR_COMPONENT_FAILURE;
 687:Lib/Camera_Middleware/cmw_camera.c ****   }
 688:Lib/Camera_Middleware/cmw_camera.c **** 
 689:Lib/Camera_Middleware/cmw_camera.c ****   Camera_Ctx.Gain = Gain;
 690:Lib/Camera_Middleware/cmw_camera.c ****   return CMW_ERROR_NONE;
 691:Lib/Camera_Middleware/cmw_camera.c **** }
 692:Lib/Camera_Middleware/cmw_camera.c **** 
 693:Lib/Camera_Middleware/cmw_camera.c **** /**
 694:Lib/Camera_Middleware/cmw_camera.c ****   * @brief  Get the camera gain.
 695:Lib/Camera_Middleware/cmw_camera.c ****   * @param  Gain     Gain in mdB
 696:Lib/Camera_Middleware/cmw_camera.c ****   * @retval CMW status
 697:Lib/Camera_Middleware/cmw_camera.c ****   */
 698:Lib/Camera_Middleware/cmw_camera.c **** int CMW_CAMERA_GetGain(int32_t *Gain)
 699:Lib/Camera_Middleware/cmw_camera.c **** {
 700:Lib/Camera_Middleware/cmw_camera.c ****   *Gain = Camera_Ctx.Gain;
 701:Lib/Camera_Middleware/cmw_camera.c ****   return CMW_ERROR_NONE;
 702:Lib/Camera_Middleware/cmw_camera.c **** }
 703:Lib/Camera_Middleware/cmw_camera.c **** 
 704:Lib/Camera_Middleware/cmw_camera.c **** /**
 705:Lib/Camera_Middleware/cmw_camera.c ****   * @brief  Set the camera exposure.
 706:Lib/Camera_Middleware/cmw_camera.c ****   * @param  exposure exposure in microseconds
 707:Lib/Camera_Middleware/cmw_camera.c ****   * @retval CMW status
 708:Lib/Camera_Middleware/cmw_camera.c ****   */
 709:Lib/Camera_Middleware/cmw_camera.c **** int CMW_CAMERA_SetExposure(int32_t exposure)
ARM GAS  C:\Users\DJESSOU\AppData\Local\Temp\cc3dm0Vf.s 			page 14


 710:Lib/Camera_Middleware/cmw_camera.c **** {
 711:Lib/Camera_Middleware/cmw_camera.c ****   int ret;
 712:Lib/Camera_Middleware/cmw_camera.c **** 
 713:Lib/Camera_Middleware/cmw_camera.c ****   if(Camera_Drv.SetExposure == NULL)
 714:Lib/Camera_Middleware/cmw_camera.c ****   {
 715:Lib/Camera_Middleware/cmw_camera.c ****     return CMW_ERROR_FEATURE_NOT_SUPPORTED;
 716:Lib/Camera_Middleware/cmw_camera.c ****   }
 717:Lib/Camera_Middleware/cmw_camera.c **** 
 718:Lib/Camera_Middleware/cmw_camera.c ****   ret = Camera_Drv.SetExposure(&camera_bsp, exposure);
 719:Lib/Camera_Middleware/cmw_camera.c ****   if (ret != CMW_ERROR_NONE)
 720:Lib/Camera_Middleware/cmw_camera.c ****   {
 721:Lib/Camera_Middleware/cmw_camera.c ****     return CMW_ERROR_COMPONENT_FAILURE;
 722:Lib/Camera_Middleware/cmw_camera.c ****   }
 723:Lib/Camera_Middleware/cmw_camera.c **** 
 724:Lib/Camera_Middleware/cmw_camera.c ****   Camera_Ctx.Exposure = exposure;
 725:Lib/Camera_Middleware/cmw_camera.c ****   return CMW_ERROR_NONE;
 726:Lib/Camera_Middleware/cmw_camera.c **** }
 727:Lib/Camera_Middleware/cmw_camera.c **** 
 728:Lib/Camera_Middleware/cmw_camera.c **** /**
 729:Lib/Camera_Middleware/cmw_camera.c ****   * @brief  Get the camera exposure.
 730:Lib/Camera_Middleware/cmw_camera.c ****   * @param  exposure exposure in microseconds
 731:Lib/Camera_Middleware/cmw_camera.c ****   * @retval CMW status
 732:Lib/Camera_Middleware/cmw_camera.c ****   */
 733:Lib/Camera_Middleware/cmw_camera.c **** int CMW_CAMERA_GetExposure(int32_t *exposure)
 734:Lib/Camera_Middleware/cmw_camera.c **** {
 735:Lib/Camera_Middleware/cmw_camera.c ****   *exposure = Camera_Ctx.Exposure;
 736:Lib/Camera_Middleware/cmw_camera.c ****   return CMW_ERROR_NONE;
 737:Lib/Camera_Middleware/cmw_camera.c **** }
 738:Lib/Camera_Middleware/cmw_camera.c **** 
 739:Lib/Camera_Middleware/cmw_camera.c **** /**
 740:Lib/Camera_Middleware/cmw_camera.c ****   * @brief  Set the camera exposure mode.
 741:Lib/Camera_Middleware/cmw_camera.c ****   * @param  exposureMode Exposure mode CMW_EXPOSUREMODE_AUTO, CMW_EXPOSUREMODE_AUTOFREEZE, CMW_EXPO
 742:Lib/Camera_Middleware/cmw_camera.c ****   * @retval CMW status
 743:Lib/Camera_Middleware/cmw_camera.c ****   */
 744:Lib/Camera_Middleware/cmw_camera.c **** int32_t CMW_CAMERA_SetExposureMode(int32_t exposureMode)
 745:Lib/Camera_Middleware/cmw_camera.c **** {
 746:Lib/Camera_Middleware/cmw_camera.c ****   int ret;
 747:Lib/Camera_Middleware/cmw_camera.c **** 
 748:Lib/Camera_Middleware/cmw_camera.c ****   if(Camera_Drv.SetExposureMode == NULL)
 749:Lib/Camera_Middleware/cmw_camera.c ****   {
 750:Lib/Camera_Middleware/cmw_camera.c ****     return CMW_ERROR_FEATURE_NOT_SUPPORTED;
 751:Lib/Camera_Middleware/cmw_camera.c ****   }
 752:Lib/Camera_Middleware/cmw_camera.c **** 
 753:Lib/Camera_Middleware/cmw_camera.c ****   ret = Camera_Drv.SetExposureMode(&camera_bsp, exposureMode);
 754:Lib/Camera_Middleware/cmw_camera.c ****   if (ret != CMW_ERROR_NONE)
 755:Lib/Camera_Middleware/cmw_camera.c ****   {
 756:Lib/Camera_Middleware/cmw_camera.c ****     return CMW_ERROR_COMPONENT_FAILURE;
 757:Lib/Camera_Middleware/cmw_camera.c ****   }
 758:Lib/Camera_Middleware/cmw_camera.c **** 
 759:Lib/Camera_Middleware/cmw_camera.c ****   Camera_Ctx.ExposureMode = exposureMode;
 760:Lib/Camera_Middleware/cmw_camera.c ****   return CMW_ERROR_NONE;
 761:Lib/Camera_Middleware/cmw_camera.c **** }
 762:Lib/Camera_Middleware/cmw_camera.c **** 
 763:Lib/Camera_Middleware/cmw_camera.c **** /**
 764:Lib/Camera_Middleware/cmw_camera.c ****   * @brief  Get the camera exposure mode.
 765:Lib/Camera_Middleware/cmw_camera.c ****   * @param  exposureMode Exposure mode CAMERA_EXPOSURE_AUTO, CAMERA_EXPOSURE_AUTOFREEZE, CAMERA_EXP
 766:Lib/Camera_Middleware/cmw_camera.c ****   * @retval CMW status
ARM GAS  C:\Users\DJESSOU\AppData\Local\Temp\cc3dm0Vf.s 			page 15


 767:Lib/Camera_Middleware/cmw_camera.c ****   */
 768:Lib/Camera_Middleware/cmw_camera.c **** int32_t CMW_CAMERA_GetExposureMode(int32_t *exposureMode)
 769:Lib/Camera_Middleware/cmw_camera.c **** {
 770:Lib/Camera_Middleware/cmw_camera.c ****   *exposureMode = Camera_Ctx.ExposureMode;
 771:Lib/Camera_Middleware/cmw_camera.c ****   return CMW_ERROR_NONE;
 772:Lib/Camera_Middleware/cmw_camera.c **** }
 773:Lib/Camera_Middleware/cmw_camera.c **** 
 774:Lib/Camera_Middleware/cmw_camera.c **** /**
 775:Lib/Camera_Middleware/cmw_camera.c ****   * @brief  Set (Enable/Disable and Configure) the camera test pattern
 776:Lib/Camera_Middleware/cmw_camera.c ****   * @param  mode Pattern mode (sensor specific value) to be configured. '-1' means disable.
 777:Lib/Camera_Middleware/cmw_camera.c ****   * @retval CMW status
 778:Lib/Camera_Middleware/cmw_camera.c ****   */
 779:Lib/Camera_Middleware/cmw_camera.c **** int32_t CMW_CAMERA_SetTestPattern(int32_t mode)
 780:Lib/Camera_Middleware/cmw_camera.c **** {
 781:Lib/Camera_Middleware/cmw_camera.c ****   int32_t ret;
 782:Lib/Camera_Middleware/cmw_camera.c **** 
 783:Lib/Camera_Middleware/cmw_camera.c ****   if(Camera_Drv.SetTestPattern == NULL)
 784:Lib/Camera_Middleware/cmw_camera.c ****   {
 785:Lib/Camera_Middleware/cmw_camera.c ****     return CMW_ERROR_FEATURE_NOT_SUPPORTED;
 786:Lib/Camera_Middleware/cmw_camera.c ****   }
 787:Lib/Camera_Middleware/cmw_camera.c **** 
 788:Lib/Camera_Middleware/cmw_camera.c ****   ret = Camera_Drv.SetTestPattern(&camera_bsp, mode);
 789:Lib/Camera_Middleware/cmw_camera.c ****   if (ret != CMW_ERROR_NONE)
 790:Lib/Camera_Middleware/cmw_camera.c ****   {
 791:Lib/Camera_Middleware/cmw_camera.c ****     return CMW_ERROR_COMPONENT_FAILURE;
 792:Lib/Camera_Middleware/cmw_camera.c ****   }
 793:Lib/Camera_Middleware/cmw_camera.c **** 
 794:Lib/Camera_Middleware/cmw_camera.c ****   Camera_Ctx.TestPattern = mode;
 795:Lib/Camera_Middleware/cmw_camera.c ****   return CMW_ERROR_NONE;
 796:Lib/Camera_Middleware/cmw_camera.c **** }
 797:Lib/Camera_Middleware/cmw_camera.c **** 
 798:Lib/Camera_Middleware/cmw_camera.c **** /**
 799:Lib/Camera_Middleware/cmw_camera.c ****   * @brief  Get the camera test pattern
 800:Lib/Camera_Middleware/cmw_camera.c ****   * @param  mode Pattern mode (sensor specific value) to be returned. '-1' means disable.
 801:Lib/Camera_Middleware/cmw_camera.c ****   * @retval CMW status
 802:Lib/Camera_Middleware/cmw_camera.c ****   */
 803:Lib/Camera_Middleware/cmw_camera.c **** int32_t CMW_CAMERA_GetTestPattern(int32_t *mode)
 804:Lib/Camera_Middleware/cmw_camera.c **** {
 805:Lib/Camera_Middleware/cmw_camera.c ****   *mode = Camera_Ctx.TestPattern;
 806:Lib/Camera_Middleware/cmw_camera.c ****   return CMW_ERROR_NONE;
 807:Lib/Camera_Middleware/cmw_camera.c **** }
 808:Lib/Camera_Middleware/cmw_camera.c **** 
 809:Lib/Camera_Middleware/cmw_camera.c **** /**
 810:Lib/Camera_Middleware/cmw_camera.c ****   * @brief  Get the Camera Sensor info.
 811:Lib/Camera_Middleware/cmw_camera.c ****   * @param  info  pointer to sensor info
 812:Lib/Camera_Middleware/cmw_camera.c ****   * @note   This function should be called after the init. This to get Capabilities
 813:Lib/Camera_Middleware/cmw_camera.c ****   *         from the camera sensor
 814:Lib/Camera_Middleware/cmw_camera.c ****   * @retval Component status
 815:Lib/Camera_Middleware/cmw_camera.c ****   */
 816:Lib/Camera_Middleware/cmw_camera.c **** int32_t CMW_CAMERA_GetSensorInfo(ISP_SensorInfoTypeDef *info)
 817:Lib/Camera_Middleware/cmw_camera.c **** {
 818:Lib/Camera_Middleware/cmw_camera.c **** 
 819:Lib/Camera_Middleware/cmw_camera.c ****   int32_t ret;
 820:Lib/Camera_Middleware/cmw_camera.c **** 
 821:Lib/Camera_Middleware/cmw_camera.c ****   if(Camera_Drv.GetSensorInfo == NULL)
 822:Lib/Camera_Middleware/cmw_camera.c ****   {
 823:Lib/Camera_Middleware/cmw_camera.c ****     return CMW_ERROR_FEATURE_NOT_SUPPORTED;
ARM GAS  C:\Users\DJESSOU\AppData\Local\Temp\cc3dm0Vf.s 			page 16


 824:Lib/Camera_Middleware/cmw_camera.c ****   }
 825:Lib/Camera_Middleware/cmw_camera.c **** 
 826:Lib/Camera_Middleware/cmw_camera.c ****   ret = Camera_Drv.GetSensorInfo(&camera_bsp, info);
 827:Lib/Camera_Middleware/cmw_camera.c ****   if (ret != CMW_ERROR_NONE)
 828:Lib/Camera_Middleware/cmw_camera.c ****   {
 829:Lib/Camera_Middleware/cmw_camera.c ****     return CMW_ERROR_COMPONENT_FAILURE;
 830:Lib/Camera_Middleware/cmw_camera.c ****   }
 831:Lib/Camera_Middleware/cmw_camera.c **** 
 832:Lib/Camera_Middleware/cmw_camera.c ****   return CMW_ERROR_NONE;
 833:Lib/Camera_Middleware/cmw_camera.c **** }
 834:Lib/Camera_Middleware/cmw_camera.c **** 
 835:Lib/Camera_Middleware/cmw_camera.c **** 
 836:Lib/Camera_Middleware/cmw_camera.c **** 
 837:Lib/Camera_Middleware/cmw_camera.c **** int32_t CMW_CAMERA_Run()
 838:Lib/Camera_Middleware/cmw_camera.c **** {
 839:Lib/Camera_Middleware/cmw_camera.c ****   if(Camera_Drv.Run != NULL)
 840:Lib/Camera_Middleware/cmw_camera.c ****   {
 841:Lib/Camera_Middleware/cmw_camera.c ****       return Camera_Drv.Run(&camera_bsp);
 842:Lib/Camera_Middleware/cmw_camera.c ****   }
 843:Lib/Camera_Middleware/cmw_camera.c ****   return CMW_ERROR_NONE;
 844:Lib/Camera_Middleware/cmw_camera.c **** }
 845:Lib/Camera_Middleware/cmw_camera.c **** 
 846:Lib/Camera_Middleware/cmw_camera.c **** /**
 847:Lib/Camera_Middleware/cmw_camera.c ****  * @brief  Vsync Event callback on pipe
 848:Lib/Camera_Middleware/cmw_camera.c ****  * @param  Pipe  Pipe receiving the callback
 849:Lib/Camera_Middleware/cmw_camera.c ****  * @retval None
 850:Lib/Camera_Middleware/cmw_camera.c ****  */
 851:Lib/Camera_Middleware/cmw_camera.c **** __weak int CMW_CAMERA_PIPE_VsyncEventCallback(uint32_t pipe)
 852:Lib/Camera_Middleware/cmw_camera.c **** {
 853:Lib/Camera_Middleware/cmw_camera.c ****   UNUSED(pipe);
 854:Lib/Camera_Middleware/cmw_camera.c **** 
 855:Lib/Camera_Middleware/cmw_camera.c ****   return CMW_ERROR_NONE;
 856:Lib/Camera_Middleware/cmw_camera.c **** }
 857:Lib/Camera_Middleware/cmw_camera.c **** 
 858:Lib/Camera_Middleware/cmw_camera.c **** /**
 859:Lib/Camera_Middleware/cmw_camera.c ****  * @brief  Frame Event callback on pipe
 860:Lib/Camera_Middleware/cmw_camera.c ****  * @param  Pipe  Pipe receiving the callback
 861:Lib/Camera_Middleware/cmw_camera.c ****  * @retval None
 862:Lib/Camera_Middleware/cmw_camera.c ****  */
 863:Lib/Camera_Middleware/cmw_camera.c **** __weak int CMW_CAMERA_PIPE_FrameEventCallback(uint32_t pipe)
 864:Lib/Camera_Middleware/cmw_camera.c **** {
 865:Lib/Camera_Middleware/cmw_camera.c ****   UNUSED(pipe);
 866:Lib/Camera_Middleware/cmw_camera.c **** 
 867:Lib/Camera_Middleware/cmw_camera.c ****   return CMW_ERROR_NONE;
 868:Lib/Camera_Middleware/cmw_camera.c **** }
 869:Lib/Camera_Middleware/cmw_camera.c **** 
 870:Lib/Camera_Middleware/cmw_camera.c **** /**
 871:Lib/Camera_Middleware/cmw_camera.c ****  * @brief  Error callback on pipe
 872:Lib/Camera_Middleware/cmw_camera.c ****  * @param  Pipe  Pipe receiving the callback
 873:Lib/Camera_Middleware/cmw_camera.c ****  * @retval None
 874:Lib/Camera_Middleware/cmw_camera.c ****  */
 875:Lib/Camera_Middleware/cmw_camera.c **** __weak void CMW_CAMERA_PIPE_ErrorCallback(uint32_t pipe)
 876:Lib/Camera_Middleware/cmw_camera.c **** {
 877:Lib/Camera_Middleware/cmw_camera.c ****   assert(0);
 878:Lib/Camera_Middleware/cmw_camera.c **** }
 879:Lib/Camera_Middleware/cmw_camera.c **** 
 880:Lib/Camera_Middleware/cmw_camera.c **** /**
ARM GAS  C:\Users\DJESSOU\AppData\Local\Temp\cc3dm0Vf.s 			page 17


 881:Lib/Camera_Middleware/cmw_camera.c ****  * @brief  Vsync Event callback on pipe
 882:Lib/Camera_Middleware/cmw_camera.c ****  * @param  hdcmipp DCMIPP device handle
 883:Lib/Camera_Middleware/cmw_camera.c ****  *         Pipe    Pipe receiving the callback
 884:Lib/Camera_Middleware/cmw_camera.c ****  * @retval None
 885:Lib/Camera_Middleware/cmw_camera.c ****  */
 886:Lib/Camera_Middleware/cmw_camera.c **** void HAL_DCMIPP_PIPE_VsyncEventCallback(DCMIPP_HandleTypeDef *hdcmipp, uint32_t Pipe)
 887:Lib/Camera_Middleware/cmw_camera.c **** {
 888:Lib/Camera_Middleware/cmw_camera.c ****   UNUSED(hdcmipp);
 889:Lib/Camera_Middleware/cmw_camera.c ****   if(Camera_Drv.VsyncEventCallback != NULL)
 890:Lib/Camera_Middleware/cmw_camera.c ****   {
 891:Lib/Camera_Middleware/cmw_camera.c ****       Camera_Drv.VsyncEventCallback(&camera_bsp, Pipe);
 892:Lib/Camera_Middleware/cmw_camera.c ****   }
 893:Lib/Camera_Middleware/cmw_camera.c ****   CMW_CAMERA_PIPE_VsyncEventCallback(Pipe);
 894:Lib/Camera_Middleware/cmw_camera.c **** }
 895:Lib/Camera_Middleware/cmw_camera.c **** 
 896:Lib/Camera_Middleware/cmw_camera.c **** /**
 897:Lib/Camera_Middleware/cmw_camera.c ****  * @brief  Frame Event callback on pipe
 898:Lib/Camera_Middleware/cmw_camera.c ****  * @param  hdcmipp DCMIPP device handle
 899:Lib/Camera_Middleware/cmw_camera.c ****  *         Pipe    Pipe receiving the callback
 900:Lib/Camera_Middleware/cmw_camera.c ****  * @retval None
 901:Lib/Camera_Middleware/cmw_camera.c ****  */
 902:Lib/Camera_Middleware/cmw_camera.c **** void HAL_DCMIPP_PIPE_FrameEventCallback(DCMIPP_HandleTypeDef *hdcmipp, uint32_t Pipe)
 903:Lib/Camera_Middleware/cmw_camera.c **** {
 904:Lib/Camera_Middleware/cmw_camera.c ****   UNUSED(hdcmipp);
 905:Lib/Camera_Middleware/cmw_camera.c ****   if(Camera_Drv.FrameEventCallback != NULL)
 906:Lib/Camera_Middleware/cmw_camera.c ****   {
 907:Lib/Camera_Middleware/cmw_camera.c ****       Camera_Drv.FrameEventCallback(&camera_bsp, Pipe);
 908:Lib/Camera_Middleware/cmw_camera.c ****   }
 909:Lib/Camera_Middleware/cmw_camera.c ****   CMW_CAMERA_PIPE_FrameEventCallback(Pipe);
 910:Lib/Camera_Middleware/cmw_camera.c **** }
 911:Lib/Camera_Middleware/cmw_camera.c **** 
 912:Lib/Camera_Middleware/cmw_camera.c **** /**
 913:Lib/Camera_Middleware/cmw_camera.c ****   * @brief  Initializes the DCMIPP MSP.
 914:Lib/Camera_Middleware/cmw_camera.c ****   * @param  hdcmipp  DCMIPP handle
 915:Lib/Camera_Middleware/cmw_camera.c ****   * @retval None
 916:Lib/Camera_Middleware/cmw_camera.c ****   */
 917:Lib/Camera_Middleware/cmw_camera.c **** void HAL_DCMIPP_MspInit(DCMIPP_HandleTypeDef *hdcmipp)
 918:Lib/Camera_Middleware/cmw_camera.c **** {
 919:Lib/Camera_Middleware/cmw_camera.c ****   UNUSED(hdcmipp);
 920:Lib/Camera_Middleware/cmw_camera.c **** 
 921:Lib/Camera_Middleware/cmw_camera.c ****   /*** Enable peripheral clock ***/
 922:Lib/Camera_Middleware/cmw_camera.c ****   /* Enable DCMIPP clock */
 923:Lib/Camera_Middleware/cmw_camera.c ****   __HAL_RCC_DCMIPP_CLK_ENABLE();
 924:Lib/Camera_Middleware/cmw_camera.c ****   __HAL_RCC_DCMIPP_CLK_SLEEP_ENABLE();
 925:Lib/Camera_Middleware/cmw_camera.c ****   __HAL_RCC_DCMIPP_FORCE_RESET();
 926:Lib/Camera_Middleware/cmw_camera.c ****   __HAL_RCC_DCMIPP_RELEASE_RESET();
 927:Lib/Camera_Middleware/cmw_camera.c **** 
 928:Lib/Camera_Middleware/cmw_camera.c ****   /*** Configure the NVIC for DCMIPP ***/
 929:Lib/Camera_Middleware/cmw_camera.c ****   /* NVIC configuration for DCMIPP transfer complete interrupt */
 930:Lib/Camera_Middleware/cmw_camera.c ****   HAL_NVIC_SetPriority(DCMIPP_IRQn, 0x07, 0);
 931:Lib/Camera_Middleware/cmw_camera.c ****   HAL_NVIC_EnableIRQ(DCMIPP_IRQn);
 932:Lib/Camera_Middleware/cmw_camera.c **** 
 933:Lib/Camera_Middleware/cmw_camera.c ****   /*** Enable peripheral clock ***/
 934:Lib/Camera_Middleware/cmw_camera.c ****   /* Enable CSI clock */
 935:Lib/Camera_Middleware/cmw_camera.c ****   __HAL_RCC_CSI_CLK_ENABLE();
 936:Lib/Camera_Middleware/cmw_camera.c ****   __HAL_RCC_CSI_CLK_SLEEP_ENABLE();
 937:Lib/Camera_Middleware/cmw_camera.c ****   __HAL_RCC_CSI_FORCE_RESET();
ARM GAS  C:\Users\DJESSOU\AppData\Local\Temp\cc3dm0Vf.s 			page 18


 938:Lib/Camera_Middleware/cmw_camera.c ****   __HAL_RCC_CSI_RELEASE_RESET();
 939:Lib/Camera_Middleware/cmw_camera.c **** 
 940:Lib/Camera_Middleware/cmw_camera.c ****   /*** Configure the NVIC for CSI ***/
 941:Lib/Camera_Middleware/cmw_camera.c ****   /* NVIC configuration for CSI transfer complete interrupt */
 942:Lib/Camera_Middleware/cmw_camera.c ****   HAL_NVIC_SetPriority(CSI_IRQn, 0x07, 0);
 943:Lib/Camera_Middleware/cmw_camera.c ****   HAL_NVIC_EnableIRQ(CSI_IRQn);
 944:Lib/Camera_Middleware/cmw_camera.c **** 
 945:Lib/Camera_Middleware/cmw_camera.c **** }
 946:Lib/Camera_Middleware/cmw_camera.c **** 
 947:Lib/Camera_Middleware/cmw_camera.c **** /**
 948:Lib/Camera_Middleware/cmw_camera.c ****   * @brief  DeInitializes the DCMIPP MSP.
 949:Lib/Camera_Middleware/cmw_camera.c ****   * @param  hdcmipp  DCMIPP handle
 950:Lib/Camera_Middleware/cmw_camera.c ****   * @retval None
 951:Lib/Camera_Middleware/cmw_camera.c ****   */
 952:Lib/Camera_Middleware/cmw_camera.c **** void HAL_DCMIPP_MspDeInit(DCMIPP_HandleTypeDef *hdcmipp)
 953:Lib/Camera_Middleware/cmw_camera.c **** {
 954:Lib/Camera_Middleware/cmw_camera.c ****   UNUSED(hdcmipp);
 955:Lib/Camera_Middleware/cmw_camera.c **** 
 956:Lib/Camera_Middleware/cmw_camera.c ****   __HAL_RCC_DCMIPP_FORCE_RESET();
 957:Lib/Camera_Middleware/cmw_camera.c ****   __HAL_RCC_DCMIPP_RELEASE_RESET();
 958:Lib/Camera_Middleware/cmw_camera.c **** 
 959:Lib/Camera_Middleware/cmw_camera.c ****   /* Disable NVIC  for DCMIPP transfer complete interrupt */
 960:Lib/Camera_Middleware/cmw_camera.c ****   HAL_NVIC_DisableIRQ(DCMIPP_IRQn);
 961:Lib/Camera_Middleware/cmw_camera.c **** 
 962:Lib/Camera_Middleware/cmw_camera.c ****   /* Disable DCMIPP clock */
 963:Lib/Camera_Middleware/cmw_camera.c ****   __HAL_RCC_DCMIPP_CLK_DISABLE();
 964:Lib/Camera_Middleware/cmw_camera.c **** 
 965:Lib/Camera_Middleware/cmw_camera.c ****   __HAL_RCC_CSI_FORCE_RESET();
 966:Lib/Camera_Middleware/cmw_camera.c ****   __HAL_RCC_CSI_RELEASE_RESET();
 967:Lib/Camera_Middleware/cmw_camera.c **** 
 968:Lib/Camera_Middleware/cmw_camera.c ****   /* Disable NVIC  for DCMIPP transfer complete interrupt */
 969:Lib/Camera_Middleware/cmw_camera.c ****   HAL_NVIC_DisableIRQ(CSI_IRQn);
 970:Lib/Camera_Middleware/cmw_camera.c **** 
 971:Lib/Camera_Middleware/cmw_camera.c ****   /* Disable DCMIPP clock */
 972:Lib/Camera_Middleware/cmw_camera.c ****   __HAL_RCC_CSI_CLK_DISABLE();
 973:Lib/Camera_Middleware/cmw_camera.c **** }
 974:Lib/Camera_Middleware/cmw_camera.c **** 
 975:Lib/Camera_Middleware/cmw_camera.c **** /**
 976:Lib/Camera_Middleware/cmw_camera.c ****   * @brief  CAMERA hardware reset
 977:Lib/Camera_Middleware/cmw_camera.c ****   * @retval CMW status
 978:Lib/Camera_Middleware/cmw_camera.c ****   */
 979:Lib/Camera_Middleware/cmw_camera.c **** static void CMW_CAMERA_EnableGPIOs(void)
 980:Lib/Camera_Middleware/cmw_camera.c **** {
 981:Lib/Camera_Middleware/cmw_camera.c ****   GPIO_InitTypeDef gpio_init_structure = {0};
 982:Lib/Camera_Middleware/cmw_camera.c **** 
 983:Lib/Camera_Middleware/cmw_camera.c ****   /* Enable GPIO clocks */
 984:Lib/Camera_Middleware/cmw_camera.c ****   EN_CAM_GPIO_ENABLE_VDDIO();
 985:Lib/Camera_Middleware/cmw_camera.c ****   EN_CAM_GPIO_CLK_ENABLE();
 986:Lib/Camera_Middleware/cmw_camera.c ****   NRST_CAM_GPIO_ENABLE_VDDIO();
 987:Lib/Camera_Middleware/cmw_camera.c ****   NRST_CAM_GPIO_CLK_ENABLE();
 988:Lib/Camera_Middleware/cmw_camera.c **** 
 989:Lib/Camera_Middleware/cmw_camera.c ****   gpio_init_structure.Pin       = EN_CAM_PIN;
 990:Lib/Camera_Middleware/cmw_camera.c ****   gpio_init_structure.Pull      = GPIO_NOPULL;
 991:Lib/Camera_Middleware/cmw_camera.c ****   gpio_init_structure.Mode      = GPIO_MODE_OUTPUT_PP;
 992:Lib/Camera_Middleware/cmw_camera.c ****   gpio_init_structure.Speed     = GPIO_SPEED_FREQ_VERY_HIGH;
 993:Lib/Camera_Middleware/cmw_camera.c ****   HAL_GPIO_Init(EN_CAM_PORT, &gpio_init_structure);
 994:Lib/Camera_Middleware/cmw_camera.c **** 
ARM GAS  C:\Users\DJESSOU\AppData\Local\Temp\cc3dm0Vf.s 			page 19


 995:Lib/Camera_Middleware/cmw_camera.c ****   gpio_init_structure.Pin       = NRST_CAM_PIN;
 996:Lib/Camera_Middleware/cmw_camera.c ****   gpio_init_structure.Pull      = GPIO_NOPULL;
 997:Lib/Camera_Middleware/cmw_camera.c ****   gpio_init_structure.Mode      = GPIO_MODE_OUTPUT_PP;
 998:Lib/Camera_Middleware/cmw_camera.c ****   gpio_init_structure.Speed     = GPIO_SPEED_FREQ_VERY_HIGH;
 999:Lib/Camera_Middleware/cmw_camera.c ****   HAL_GPIO_Init(NRST_CAM_PORT, &gpio_init_structure);
1000:Lib/Camera_Middleware/cmw_camera.c **** }
1001:Lib/Camera_Middleware/cmw_camera.c **** 
1002:Lib/Camera_Middleware/cmw_camera.c **** /**
1003:Lib/Camera_Middleware/cmw_camera.c ****   * @brief  CAMERA power down
1004:Lib/Camera_Middleware/cmw_camera.c ****   * @retval CMW status
1005:Lib/Camera_Middleware/cmw_camera.c ****   */
1006:Lib/Camera_Middleware/cmw_camera.c **** static void CMW_CAMERA_PwrDown(void)
1007:Lib/Camera_Middleware/cmw_camera.c **** {
1008:Lib/Camera_Middleware/cmw_camera.c ****   GPIO_InitTypeDef gpio_init_structure = {0};
1009:Lib/Camera_Middleware/cmw_camera.c **** 
1010:Lib/Camera_Middleware/cmw_camera.c ****   gpio_init_structure.Pin       = EN_CAM_PIN;
1011:Lib/Camera_Middleware/cmw_camera.c ****   gpio_init_structure.Pull      = GPIO_NOPULL;
1012:Lib/Camera_Middleware/cmw_camera.c ****   gpio_init_structure.Mode      = GPIO_MODE_OUTPUT_PP;
1013:Lib/Camera_Middleware/cmw_camera.c ****   HAL_GPIO_Init(EN_CAM_PORT, &gpio_init_structure);
1014:Lib/Camera_Middleware/cmw_camera.c **** 
1015:Lib/Camera_Middleware/cmw_camera.c ****   gpio_init_structure.Pin       = NRST_CAM_PIN;
1016:Lib/Camera_Middleware/cmw_camera.c ****   gpio_init_structure.Pull      = GPIO_NOPULL;
1017:Lib/Camera_Middleware/cmw_camera.c ****   gpio_init_structure.Mode      = GPIO_MODE_OUTPUT_PP;
1018:Lib/Camera_Middleware/cmw_camera.c ****   HAL_GPIO_Init(NRST_CAM_PORT, &gpio_init_structure);
1019:Lib/Camera_Middleware/cmw_camera.c **** 
1020:Lib/Camera_Middleware/cmw_camera.c ****   /* Camera power down sequence */
1021:Lib/Camera_Middleware/cmw_camera.c ****   /* Assert the camera Enable pin (active high) */
1022:Lib/Camera_Middleware/cmw_camera.c ****   HAL_GPIO_WritePin(EN_CAM_PORT, EN_CAM_PIN, GPIO_PIN_RESET);
1023:Lib/Camera_Middleware/cmw_camera.c **** 
1024:Lib/Camera_Middleware/cmw_camera.c ****   /* De-assert the camera NRST pin (active low) */
1025:Lib/Camera_Middleware/cmw_camera.c ****   HAL_GPIO_WritePin(NRST_CAM_PORT, NRST_CAM_PIN, GPIO_PIN_RESET);
1026:Lib/Camera_Middleware/cmw_camera.c **** 
1027:Lib/Camera_Middleware/cmw_camera.c **** }
1028:Lib/Camera_Middleware/cmw_camera.c **** 
1029:Lib/Camera_Middleware/cmw_camera.c **** static void CMW_CAMERA_ShutdownPin(int value)
1030:Lib/Camera_Middleware/cmw_camera.c **** {
1031:Lib/Camera_Middleware/cmw_camera.c ****   HAL_GPIO_WritePin(NRST_CAM_PORT, NRST_CAM_PIN, value ? GPIO_PIN_SET : GPIO_PIN_RESET);
1032:Lib/Camera_Middleware/cmw_camera.c **** }
1033:Lib/Camera_Middleware/cmw_camera.c **** 
1034:Lib/Camera_Middleware/cmw_camera.c **** static void CMW_CAMERA_EnablePin(int value)
1035:Lib/Camera_Middleware/cmw_camera.c **** {
1036:Lib/Camera_Middleware/cmw_camera.c ****   HAL_GPIO_WritePin(EN_CAM_PORT, EN_CAM_PIN, value ? GPIO_PIN_SET : GPIO_PIN_RESET);
1037:Lib/Camera_Middleware/cmw_camera.c **** }
1038:Lib/Camera_Middleware/cmw_camera.c **** 
1039:Lib/Camera_Middleware/cmw_camera.c **** #if defined(USE_VD66GY_SENSOR) || defined(USE_IMX335_SENSOR) || defined(USE_VD5943_SENSOR) || defin
1040:Lib/Camera_Middleware/cmw_camera.c **** static ISP_StatusTypeDef CB_ISP_SetSensorGain(uint32_t camera_instance, int32_t gain)
1041:Lib/Camera_Middleware/cmw_camera.c **** {
1042:Lib/Camera_Middleware/cmw_camera.c ****   if (CMW_CAMERA_SetGain(gain) != CMW_ERROR_NONE)
1043:Lib/Camera_Middleware/cmw_camera.c ****     return ISP_ERR_SENSORGAIN;
1044:Lib/Camera_Middleware/cmw_camera.c **** 
1045:Lib/Camera_Middleware/cmw_camera.c ****   return ISP_OK;
1046:Lib/Camera_Middleware/cmw_camera.c **** }
1047:Lib/Camera_Middleware/cmw_camera.c **** 
1048:Lib/Camera_Middleware/cmw_camera.c **** static ISP_StatusTypeDef CB_ISP_GetSensorGain(uint32_t camera_instance, int32_t *gain)
1049:Lib/Camera_Middleware/cmw_camera.c **** {
  34              		.loc 1 1049 1 view -0
  35              		.cfi_startproc
ARM GAS  C:\Users\DJESSOU\AppData\Local\Temp\cc3dm0Vf.s 			page 20


  36              		@ args = 0, pretend = 0, frame = 0
  37              		@ frame_needed = 0, uses_anonymous_args = 0
  38              		@ link register save eliminated.
1050:Lib/Camera_Middleware/cmw_camera.c ****   if (CMW_CAMERA_GetGain(gain) != CMW_ERROR_NONE)
  39              		.loc 1 1050 3 view .LVU1
  40              	.LBB26:
  41              	.LBI26:
 698:Lib/Camera_Middleware/cmw_camera.c **** {
  42              		.loc 1 698 5 view .LVU2
  43              	.LBB27:
 700:Lib/Camera_Middleware/cmw_camera.c ****   return CMW_ERROR_NONE;
  44              		.loc 1 700 3 view .LVU3
 700:Lib/Camera_Middleware/cmw_camera.c ****   return CMW_ERROR_NONE;
  45              		.loc 1 700 21 is_stmt 0 view .LVU4
  46 0000 024B     		ldr	r3, .L2
  47              	.LBE27:
  48              	.LBE26:
1051:Lib/Camera_Middleware/cmw_camera.c ****     return ISP_ERR_SENSORGAIN;
1052:Lib/Camera_Middleware/cmw_camera.c **** 
1053:Lib/Camera_Middleware/cmw_camera.c ****   return ISP_OK;
1054:Lib/Camera_Middleware/cmw_camera.c **** }
  49              		.loc 1 1054 1 view .LVU5
  50 0002 0020     		movs	r0, #0
  51              	.LVL1:
  52              	.LBB29:
  53              	.LBB28:
 700:Lib/Camera_Middleware/cmw_camera.c ****   return CMW_ERROR_NONE;
  54              		.loc 1 700 21 view .LVU6
  55 0004 1B6A     		ldr	r3, [r3, #32]
 700:Lib/Camera_Middleware/cmw_camera.c ****   return CMW_ERROR_NONE;
  56              		.loc 1 700 9 view .LVU7
  57 0006 0B60     		str	r3, [r1]
 701:Lib/Camera_Middleware/cmw_camera.c **** }
  58              		.loc 1 701 3 is_stmt 1 view .LVU8
  59              	.LVL2:
 701:Lib/Camera_Middleware/cmw_camera.c **** }
  60              		.loc 1 701 3 is_stmt 0 view .LVU9
  61              	.LBE28:
  62              	.LBE29:
1053:Lib/Camera_Middleware/cmw_camera.c **** }
  63              		.loc 1 1053 3 is_stmt 1 view .LVU10
  64              		.loc 1 1054 1 is_stmt 0 view .LVU11
  65 0008 7047     		bx	lr
  66              	.L3:
  67 000a 00BF     		.align	2
  68              	.L2:
  69 000c 00000000 		.word	Camera_Ctx
  70              		.cfi_endproc
  71              	.LFE904:
  73              		.section	.text.CB_ISP_GetSensorExposure,"ax",%progbits
  74              		.align	1
  75              		.syntax unified
  76              		.thumb
  77              		.thumb_func
  79              	CB_ISP_GetSensorExposure:
  80              	.LVL3:
  81              	.LFB906:
ARM GAS  C:\Users\DJESSOU\AppData\Local\Temp\cc3dm0Vf.s 			page 21


1055:Lib/Camera_Middleware/cmw_camera.c **** 
1056:Lib/Camera_Middleware/cmw_camera.c **** static ISP_StatusTypeDef CB_ISP_SetSensorExposure(uint32_t camera_instance, int32_t exposure)
1057:Lib/Camera_Middleware/cmw_camera.c **** {
1058:Lib/Camera_Middleware/cmw_camera.c ****   if (CMW_CAMERA_SetExposure(exposure) != CMW_ERROR_NONE)
1059:Lib/Camera_Middleware/cmw_camera.c ****     return ISP_ERR_SENSOREXPOSURE;
1060:Lib/Camera_Middleware/cmw_camera.c **** 
1061:Lib/Camera_Middleware/cmw_camera.c ****   return ISP_OK;
1062:Lib/Camera_Middleware/cmw_camera.c **** }
1063:Lib/Camera_Middleware/cmw_camera.c **** 
1064:Lib/Camera_Middleware/cmw_camera.c **** static ISP_StatusTypeDef CB_ISP_GetSensorExposure(uint32_t camera_instance, int32_t *exposure)
1065:Lib/Camera_Middleware/cmw_camera.c **** {
  82              		.loc 1 1065 1 is_stmt 1 view -0
  83              		.cfi_startproc
  84              		@ args = 0, pretend = 0, frame = 0
  85              		@ frame_needed = 0, uses_anonymous_args = 0
  86              		@ link register save eliminated.
1066:Lib/Camera_Middleware/cmw_camera.c ****   if (CMW_CAMERA_GetExposure(exposure) != CMW_ERROR_NONE)
  87              		.loc 1 1066 3 view .LVU13
  88              	.LBB30:
  89              	.LBI30:
 733:Lib/Camera_Middleware/cmw_camera.c **** {
  90              		.loc 1 733 5 view .LVU14
  91              	.LBB31:
 735:Lib/Camera_Middleware/cmw_camera.c ****   return CMW_ERROR_NONE;
  92              		.loc 1 735 3 view .LVU15
 735:Lib/Camera_Middleware/cmw_camera.c ****   return CMW_ERROR_NONE;
  93              		.loc 1 735 25 is_stmt 0 view .LVU16
  94 0000 024B     		ldr	r3, .L5
  95              	.LBE31:
  96              	.LBE30:
1067:Lib/Camera_Middleware/cmw_camera.c ****     return ISP_ERR_SENSOREXPOSURE;
1068:Lib/Camera_Middleware/cmw_camera.c **** 
1069:Lib/Camera_Middleware/cmw_camera.c ****   return ISP_OK;
1070:Lib/Camera_Middleware/cmw_camera.c **** }
  97              		.loc 1 1070 1 view .LVU17
  98 0002 0020     		movs	r0, #0
  99              	.LVL4:
 100              	.LBB33:
 101              	.LBB32:
 735:Lib/Camera_Middleware/cmw_camera.c ****   return CMW_ERROR_NONE;
 102              		.loc 1 735 25 view .LVU18
 103 0004 5B6A     		ldr	r3, [r3, #36]
 735:Lib/Camera_Middleware/cmw_camera.c ****   return CMW_ERROR_NONE;
 104              		.loc 1 735 13 view .LVU19
 105 0006 0B60     		str	r3, [r1]
 736:Lib/Camera_Middleware/cmw_camera.c **** }
 106              		.loc 1 736 3 is_stmt 1 view .LVU20
 107              	.LVL5:
 736:Lib/Camera_Middleware/cmw_camera.c **** }
 108              		.loc 1 736 3 is_stmt 0 view .LVU21
 109              	.LBE32:
 110              	.LBE33:
1069:Lib/Camera_Middleware/cmw_camera.c **** }
 111              		.loc 1 1069 3 is_stmt 1 view .LVU22
 112              		.loc 1 1070 1 is_stmt 0 view .LVU23
 113 0008 7047     		bx	lr
 114              	.L6:
ARM GAS  C:\Users\DJESSOU\AppData\Local\Temp\cc3dm0Vf.s 			page 22


 115 000a 00BF     		.align	2
 116              	.L5:
 117 000c 00000000 		.word	Camera_Ctx
 118              		.cfi_endproc
 119              	.LFE906:
 121              		.section	.text.CB_ISP_GetSensorInfo,"ax",%progbits
 122              		.align	1
 123              		.syntax unified
 124              		.thumb
 125              		.thumb_func
 127              	CB_ISP_GetSensorInfo:
 128              	.LVL6:
 129              	.LFB907:
1071:Lib/Camera_Middleware/cmw_camera.c **** 
1072:Lib/Camera_Middleware/cmw_camera.c **** static ISP_StatusTypeDef CB_ISP_GetSensorInfo(uint32_t camera_instance, ISP_SensorInfoTypeDef *Info
1073:Lib/Camera_Middleware/cmw_camera.c **** {
 130              		.loc 1 1073 1 is_stmt 1 view -0
 131              		.cfi_startproc
 132              		@ args = 0, pretend = 0, frame = 0
 133              		@ frame_needed = 0, uses_anonymous_args = 0
1074:Lib/Camera_Middleware/cmw_camera.c ****   if(Camera_Drv.GetSensorInfo != NULL)
 134              		.loc 1 1074 3 view .LVU25
1073:Lib/Camera_Middleware/cmw_camera.c ****   if(Camera_Drv.GetSensorInfo != NULL)
 135              		.loc 1 1073 1 is_stmt 0 view .LVU26
 136 0000 08B5     		push	{r3, lr}
 137              		.cfi_def_cfa_offset 8
 138              		.cfi_offset 3, -8
 139              		.cfi_offset 14, -4
 140              		.loc 1 1074 16 view .LVU27
 141 0002 054B     		ldr	r3, .L14
 142 0004 1B6E     		ldr	r3, [r3, #96]
 143              		.loc 1 1074 5 view .LVU28
 144 0006 13B1     		cbz	r3, .L8
1075:Lib/Camera_Middleware/cmw_camera.c ****   {
1076:Lib/Camera_Middleware/cmw_camera.c ****     if (Camera_Drv.GetSensorInfo(&camera_bsp, Info) != CMW_ERROR_NONE)
 145              		.loc 1 1076 5 is_stmt 1 view .LVU29
 146              		.loc 1 1076 9 is_stmt 0 view .LVU30
 147 0008 0448     		ldr	r0, .L14+4
 148              	.LVL7:
 149              		.loc 1 1076 9 view .LVU31
 150 000a 9847     		blx	r3
 151              	.LVL8:
 152              		.loc 1 1076 8 discriminator 1 view .LVU32
 153 000c 08B9     		cbnz	r0, .L10
 154              	.L8:
1077:Lib/Camera_Middleware/cmw_camera.c ****       return ISP_ERR_SENSOREXPOSURE;
1078:Lib/Camera_Middleware/cmw_camera.c ****   }
1079:Lib/Camera_Middleware/cmw_camera.c ****   return ISP_OK;
 155              		.loc 1 1079 10 view .LVU33
 156 000e 0020     		movs	r0, #0
 157              	.L9:
1080:Lib/Camera_Middleware/cmw_camera.c **** }
 158              		.loc 1 1080 1 view .LVU34
 159 0010 08BD     		pop	{r3, pc}
 160              	.L10:
1077:Lib/Camera_Middleware/cmw_camera.c ****       return ISP_ERR_SENSOREXPOSURE;
 161              		.loc 1 1077 14 view .LVU35
ARM GAS  C:\Users\DJESSOU\AppData\Local\Temp\cc3dm0Vf.s 			page 23


 162 0012 8320     		movs	r0, #131
 163 0014 FCE7     		b	.L9
 164              	.L15:
 165 0016 00BF     		.align	2
 166              	.L14:
 167 0018 00000000 		.word	Camera_Drv
 168 001c 00000000 		.word	camera_bsp
 169              		.cfi_endproc
 170              	.LFE907:
 172              		.section	.text.CMW_CAMERA_EnablePin,"ax",%progbits
 173              		.align	1
 174              		.syntax unified
 175              		.thumb
 176              		.thumb_func
 178              	CMW_CAMERA_EnablePin:
 179              	.LVL9:
 180              	.LFB902:
1035:Lib/Camera_Middleware/cmw_camera.c ****   HAL_GPIO_WritePin(EN_CAM_PORT, EN_CAM_PIN, value ? GPIO_PIN_SET : GPIO_PIN_RESET);
 181              		.loc 1 1035 1 is_stmt 1 view -0
 182              		.cfi_startproc
 183              		@ args = 0, pretend = 0, frame = 0
 184              		@ frame_needed = 0, uses_anonymous_args = 0
 185              		@ link register save eliminated.
1036:Lib/Camera_Middleware/cmw_camera.c **** }
 186              		.loc 1 1036 3 view .LVU37
 187 0000 021E     		subs	r2, r0, #0
 188 0002 18BF     		it	ne
 189 0004 0122     		movne	r2, #1
 190 0006 0421     		movs	r1, #4
 191 0008 0148     		ldr	r0, .L17
 192              	.LVL10:
1036:Lib/Camera_Middleware/cmw_camera.c **** }
 193              		.loc 1 1036 3 is_stmt 0 view .LVU38
 194 000a FFF7FEBF 		b	HAL_GPIO_WritePin
 195              	.LVL11:
 196              	.L18:
 197 000e 00BF     		.align	2
 198              	.L17:
 199 0010 000C0256 		.word	1442974720
 200              		.cfi_endproc
 201              	.LFE902:
 203              		.section	.text.CMW_CAMERA_ShutdownPin,"ax",%progbits
 204              		.align	1
 205              		.syntax unified
 206              		.thumb
 207              		.thumb_func
 209              	CMW_CAMERA_ShutdownPin:
 210              	.LVL12:
 211              	.LFB901:
1030:Lib/Camera_Middleware/cmw_camera.c ****   HAL_GPIO_WritePin(NRST_CAM_PORT, NRST_CAM_PIN, value ? GPIO_PIN_SET : GPIO_PIN_RESET);
 212              		.loc 1 1030 1 is_stmt 1 view -0
 213              		.cfi_startproc
 214              		@ args = 0, pretend = 0, frame = 0
 215              		@ frame_needed = 0, uses_anonymous_args = 0
 216              		@ link register save eliminated.
1031:Lib/Camera_Middleware/cmw_camera.c **** }
 217              		.loc 1 1031 3 view .LVU40
ARM GAS  C:\Users\DJESSOU\AppData\Local\Temp\cc3dm0Vf.s 			page 24


 218 0000 021E     		subs	r2, r0, #0
 219 0002 18BF     		it	ne
 220 0004 0122     		movne	r2, #1
 221 0006 4FF48071 		mov	r1, #256
 222 000a 0148     		ldr	r0, .L20
 223              	.LVL13:
1031:Lib/Camera_Middleware/cmw_camera.c **** }
 224              		.loc 1 1031 3 is_stmt 0 view .LVU41
 225 000c FFF7FEBF 		b	HAL_GPIO_WritePin
 226              	.LVL14:
 227              	.L21:
 228              		.align	2
 229              	.L20:
 230 0010 00080256 		.word	1442973696
 231              		.cfi_endproc
 232              	.LFE901:
 234              		.section	.text.CMW_CAMERA_Probe_Sensor.constprop.0,"ax",%progbits
 235              		.align	1
 236              		.syntax unified
 237              		.thumb
 238              		.thumb_func
 240              	CMW_CAMERA_Probe_Sensor.constprop.0:
 241              	.LVL15:
 242              	.LFB918:
 247:Lib/Camera_Middleware/cmw_camera.c **** {
 243              		.loc 1 247 12 is_stmt 1 view -0
 244              		.cfi_startproc
 245              		@ args = 0, pretend = 0, frame = 96
 246              		@ frame_needed = 0, uses_anonymous_args = 0
 249:Lib/Camera_Middleware/cmw_camera.c **** #if defined(USE_OV5640_SENSOR)
 247              		.loc 1 249 3 view .LVU43
 251:Lib/Camera_Middleware/cmw_camera.c ****   if (ret == CMW_ERROR_NONE)
 248              		.loc 1 251 3 view .LVU44
 249              	.LBB52:
 250              	.LBB53:
1081:Lib/Camera_Middleware/cmw_camera.c **** #endif
1082:Lib/Camera_Middleware/cmw_camera.c **** 
1083:Lib/Camera_Middleware/cmw_camera.c **** #if defined(USE_VD55G1_SENSOR)
1084:Lib/Camera_Middleware/cmw_camera.c **** static int32_t CMW_CAMERA_VD55G1_Init( CMW_Sensor_Init_t *initSensors_params)
1085:Lib/Camera_Middleware/cmw_camera.c **** {
1086:Lib/Camera_Middleware/cmw_camera.c ****   int32_t ret = CMW_ERROR_NONE;
1087:Lib/Camera_Middleware/cmw_camera.c ****   DCMIPP_CSI_ConfTypeDef csi_conf = { 0 };
1088:Lib/Camera_Middleware/cmw_camera.c ****   DCMIPP_CSI_PIPE_ConfTypeDef csi_pipe_conf = { 0 };
1089:Lib/Camera_Middleware/cmw_camera.c ****   uint32_t dt_format = 0;
1090:Lib/Camera_Middleware/cmw_camera.c ****   uint32_t dt = 0;
1091:Lib/Camera_Middleware/cmw_camera.c ****   CMW_VD55G1_config_t default_sensor_config;
1092:Lib/Camera_Middleware/cmw_camera.c ****   CMW_VD55G1_config_t *sensor_config;
1093:Lib/Camera_Middleware/cmw_camera.c **** 
1094:Lib/Camera_Middleware/cmw_camera.c ****   memset(&camera_bsp, 0, sizeof(camera_bsp));
1095:Lib/Camera_Middleware/cmw_camera.c ****   camera_bsp.vd55g1_bsp.Address     = CAMERA_VD55G1_ADDRESS;
1096:Lib/Camera_Middleware/cmw_camera.c ****   camera_bsp.vd55g1_bsp.Init        = CMW_I2C_INIT;
1097:Lib/Camera_Middleware/cmw_camera.c ****   camera_bsp.vd55g1_bsp.DeInit      = CMW_I2C_DEINIT;
1098:Lib/Camera_Middleware/cmw_camera.c ****   camera_bsp.vd55g1_bsp.WriteReg    = CMW_I2C_WRITEREG16;
1099:Lib/Camera_Middleware/cmw_camera.c ****   camera_bsp.vd55g1_bsp.ReadReg     = CMW_I2C_READREG16;
1100:Lib/Camera_Middleware/cmw_camera.c ****   camera_bsp.vd55g1_bsp.Delay       = HAL_Delay;
1101:Lib/Camera_Middleware/cmw_camera.c ****   camera_bsp.vd55g1_bsp.ShutdownPin = CMW_CAMERA_ShutdownPin;
1102:Lib/Camera_Middleware/cmw_camera.c ****   camera_bsp.vd55g1_bsp.EnablePin   = CMW_CAMERA_EnablePin;
ARM GAS  C:\Users\DJESSOU\AppData\Local\Temp\cc3dm0Vf.s 			page 25


1103:Lib/Camera_Middleware/cmw_camera.c **** 
1104:Lib/Camera_Middleware/cmw_camera.c ****   ret = CMW_VD55G1_Probe(&camera_bsp.vd55g1_bsp, &Camera_Drv);
1105:Lib/Camera_Middleware/cmw_camera.c ****   if (ret != CMW_ERROR_NONE)
1106:Lib/Camera_Middleware/cmw_camera.c ****   {
1107:Lib/Camera_Middleware/cmw_camera.c ****     return CMW_ERROR_COMPONENT_FAILURE;
1108:Lib/Camera_Middleware/cmw_camera.c ****   }
1109:Lib/Camera_Middleware/cmw_camera.c **** 
1110:Lib/Camera_Middleware/cmw_camera.c ****   if ((connected_sensor != CMW_VD55G1_Sensor) && (connected_sensor != CMW_UNKNOWN_Sensor))
1111:Lib/Camera_Middleware/cmw_camera.c ****   {
1112:Lib/Camera_Middleware/cmw_camera.c ****     /* If the selected sensor in the application side has selected a different sensors than VD55G1 
1113:Lib/Camera_Middleware/cmw_camera.c ****     return CMW_ERROR_COMPONENT_FAILURE;
1114:Lib/Camera_Middleware/cmw_camera.c ****   }
1115:Lib/Camera_Middleware/cmw_camera.c **** 
1116:Lib/Camera_Middleware/cmw_camera.c ****   /* Special case: when resolution is not specified take the full sensor resolution */
1117:Lib/Camera_Middleware/cmw_camera.c ****   if ((initSensors_params->width == 0) || (initSensors_params->height == 0))
1118:Lib/Camera_Middleware/cmw_camera.c ****   {
1119:Lib/Camera_Middleware/cmw_camera.c ****     initSensors_params->width = VD55G1_MAX_WIDTH;
1120:Lib/Camera_Middleware/cmw_camera.c ****     initSensors_params->height = VD55G1_MAX_HEIGHT;
1121:Lib/Camera_Middleware/cmw_camera.c ****   }
1122:Lib/Camera_Middleware/cmw_camera.c **** 
1123:Lib/Camera_Middleware/cmw_camera.c ****   CMW_VD55G1_SetDefaultSensorValues(&default_sensor_config);
1124:Lib/Camera_Middleware/cmw_camera.c ****   initSensors_params->sensor_config = initSensors_params->sensor_config ? initSensors_params->senso
1125:Lib/Camera_Middleware/cmw_camera.c ****   sensor_config = (CMW_VD55G1_config_t*) (initSensors_params->sensor_config);
1126:Lib/Camera_Middleware/cmw_camera.c **** 
1127:Lib/Camera_Middleware/cmw_camera.c ****   ret = Camera_Drv.Init(&camera_bsp, initSensors_params);
1128:Lib/Camera_Middleware/cmw_camera.c ****   if (ret != CMW_ERROR_NONE)
1129:Lib/Camera_Middleware/cmw_camera.c ****   {
1130:Lib/Camera_Middleware/cmw_camera.c ****     return CMW_ERROR_COMPONENT_FAILURE;
1131:Lib/Camera_Middleware/cmw_camera.c ****   }
1132:Lib/Camera_Middleware/cmw_camera.c **** 
1133:Lib/Camera_Middleware/cmw_camera.c ****   csi_conf.NumberOfLanes = DCMIPP_CSI_ONE_DATA_LANE;
1134:Lib/Camera_Middleware/cmw_camera.c ****   csi_conf.DataLaneMapping = DCMIPP_CSI_PHYSICAL_DATA_LANES;
1135:Lib/Camera_Middleware/cmw_camera.c ****   csi_conf.PHYBitrate = DCMIPP_CSI_PHY_BT_800;
1136:Lib/Camera_Middleware/cmw_camera.c ****   ret = HAL_DCMIPP_CSI_SetConfig(&hcamera_dcmipp, &csi_conf);
1137:Lib/Camera_Middleware/cmw_camera.c ****   if (ret != HAL_OK)
1138:Lib/Camera_Middleware/cmw_camera.c ****   {
1139:Lib/Camera_Middleware/cmw_camera.c ****     return CMW_ERROR_PERIPH_FAILURE;
1140:Lib/Camera_Middleware/cmw_camera.c ****   }
1141:Lib/Camera_Middleware/cmw_camera.c **** 
1142:Lib/Camera_Middleware/cmw_camera.c ****   switch (sensor_config->pixel_format)
1143:Lib/Camera_Middleware/cmw_camera.c ****   {
1144:Lib/Camera_Middleware/cmw_camera.c ****     case CMW_PIXEL_FORMAT_RAW8:
1145:Lib/Camera_Middleware/cmw_camera.c ****     {
1146:Lib/Camera_Middleware/cmw_camera.c ****       dt_format = DCMIPP_CSI_DT_BPP8;
1147:Lib/Camera_Middleware/cmw_camera.c ****       dt = DCMIPP_DT_RAW8;
1148:Lib/Camera_Middleware/cmw_camera.c ****       break;
1149:Lib/Camera_Middleware/cmw_camera.c ****     }
1150:Lib/Camera_Middleware/cmw_camera.c ****     case CMW_PIXEL_FORMAT_RAW10:
1151:Lib/Camera_Middleware/cmw_camera.c ****     case CMW_PIXEL_FORMAT_DEFAULT:
1152:Lib/Camera_Middleware/cmw_camera.c ****     {
1153:Lib/Camera_Middleware/cmw_camera.c ****       dt_format = DCMIPP_CSI_DT_BPP10;
1154:Lib/Camera_Middleware/cmw_camera.c ****       dt = DCMIPP_DT_RAW10;
1155:Lib/Camera_Middleware/cmw_camera.c ****       break;
1156:Lib/Camera_Middleware/cmw_camera.c ****     }
1157:Lib/Camera_Middleware/cmw_camera.c ****     default:
1158:Lib/Camera_Middleware/cmw_camera.c ****       return CMW_ERROR_COMPONENT_FAILURE;
1159:Lib/Camera_Middleware/cmw_camera.c ****   }
ARM GAS  C:\Users\DJESSOU\AppData\Local\Temp\cc3dm0Vf.s 			page 26


1160:Lib/Camera_Middleware/cmw_camera.c **** 
1161:Lib/Camera_Middleware/cmw_camera.c ****   ret = HAL_DCMIPP_CSI_SetVCConfig(&hcamera_dcmipp, DCMIPP_VIRTUAL_CHANNEL0, dt_format);
1162:Lib/Camera_Middleware/cmw_camera.c ****   if (ret != HAL_OK)
1163:Lib/Camera_Middleware/cmw_camera.c ****   {
1164:Lib/Camera_Middleware/cmw_camera.c ****     return CMW_ERROR_PERIPH_FAILURE;
1165:Lib/Camera_Middleware/cmw_camera.c ****   }
1166:Lib/Camera_Middleware/cmw_camera.c **** 
1167:Lib/Camera_Middleware/cmw_camera.c ****   csi_pipe_conf.DataTypeMode = DCMIPP_DTMODE_DTIDA;
1168:Lib/Camera_Middleware/cmw_camera.c ****   csi_pipe_conf.DataTypeIDA = dt;
1169:Lib/Camera_Middleware/cmw_camera.c ****   csi_pipe_conf.DataTypeIDB = 0;
1170:Lib/Camera_Middleware/cmw_camera.c ****   /* Pre-initialize CSI config for all the pipes */
1171:Lib/Camera_Middleware/cmw_camera.c ****   for (uint32_t i = DCMIPP_PIPE0; i <= DCMIPP_PIPE2; i++)
1172:Lib/Camera_Middleware/cmw_camera.c ****   {
1173:Lib/Camera_Middleware/cmw_camera.c ****     ret = HAL_DCMIPP_CSI_PIPE_SetConfig(&hcamera_dcmipp, i, &csi_pipe_conf);
1174:Lib/Camera_Middleware/cmw_camera.c ****     if (ret != HAL_OK)
1175:Lib/Camera_Middleware/cmw_camera.c ****     {
1176:Lib/Camera_Middleware/cmw_camera.c ****       return CMW_ERROR_PERIPH_FAILURE;
1177:Lib/Camera_Middleware/cmw_camera.c ****     }
1178:Lib/Camera_Middleware/cmw_camera.c ****   }
1179:Lib/Camera_Middleware/cmw_camera.c **** 
1180:Lib/Camera_Middleware/cmw_camera.c ****   return CMW_ERROR_NONE;
1181:Lib/Camera_Middleware/cmw_camera.c **** }
1182:Lib/Camera_Middleware/cmw_camera.c **** #endif
1183:Lib/Camera_Middleware/cmw_camera.c **** 
1184:Lib/Camera_Middleware/cmw_camera.c **** #if defined(USE_VD65G4_SENSOR)
1185:Lib/Camera_Middleware/cmw_camera.c **** static int32_t CMW_CAMERA_VD65G4_Init( CMW_Sensor_Init_t *initSensors_params)
1186:Lib/Camera_Middleware/cmw_camera.c **** {
1187:Lib/Camera_Middleware/cmw_camera.c ****   int32_t ret = CMW_ERROR_NONE;
1188:Lib/Camera_Middleware/cmw_camera.c ****   DCMIPP_CSI_ConfTypeDef csi_conf = { 0 };
1189:Lib/Camera_Middleware/cmw_camera.c ****   DCMIPP_CSI_PIPE_ConfTypeDef csi_pipe_conf = { 0 };
1190:Lib/Camera_Middleware/cmw_camera.c ****   uint32_t dt_format = 0;
1191:Lib/Camera_Middleware/cmw_camera.c ****   uint32_t dt = 0;
1192:Lib/Camera_Middleware/cmw_camera.c ****   CMW_VD65G4_config_t default_sensor_config;
1193:Lib/Camera_Middleware/cmw_camera.c ****   CMW_VD65G4_config_t *sensor_config;
1194:Lib/Camera_Middleware/cmw_camera.c **** 
1195:Lib/Camera_Middleware/cmw_camera.c ****   memset(&camera_bsp, 0, sizeof(camera_bsp));
1196:Lib/Camera_Middleware/cmw_camera.c ****   camera_bsp.vd65g4_bsp.Address     = CAMERA_VD65G4_ADDRESS;
1197:Lib/Camera_Middleware/cmw_camera.c ****   camera_bsp.vd65g4_bsp.Init        = CMW_I2C_INIT;
1198:Lib/Camera_Middleware/cmw_camera.c ****   camera_bsp.vd65g4_bsp.DeInit      = CMW_I2C_DEINIT;
1199:Lib/Camera_Middleware/cmw_camera.c ****   camera_bsp.vd65g4_bsp.WriteReg    = CMW_I2C_WRITEREG16;
1200:Lib/Camera_Middleware/cmw_camera.c ****   camera_bsp.vd65g4_bsp.ReadReg     = CMW_I2C_READREG16;
1201:Lib/Camera_Middleware/cmw_camera.c ****   camera_bsp.vd65g4_bsp.Delay       = HAL_Delay;
1202:Lib/Camera_Middleware/cmw_camera.c ****   camera_bsp.vd65g4_bsp.ShutdownPin = CMW_CAMERA_ShutdownPin;
1203:Lib/Camera_Middleware/cmw_camera.c ****   camera_bsp.vd65g4_bsp.EnablePin   = CMW_CAMERA_EnablePin;
1204:Lib/Camera_Middleware/cmw_camera.c **** 
1205:Lib/Camera_Middleware/cmw_camera.c ****   ret = CMW_VD65G4_Probe(&camera_bsp.vd65g4_bsp, &Camera_Drv);
1206:Lib/Camera_Middleware/cmw_camera.c ****   if (ret != CMW_ERROR_NONE)
1207:Lib/Camera_Middleware/cmw_camera.c ****   {
1208:Lib/Camera_Middleware/cmw_camera.c ****     return CMW_ERROR_COMPONENT_FAILURE;
1209:Lib/Camera_Middleware/cmw_camera.c ****   }
1210:Lib/Camera_Middleware/cmw_camera.c **** 
1211:Lib/Camera_Middleware/cmw_camera.c ****   if ((connected_sensor != CMW_VD65G4_Sensor) && (connected_sensor != CMW_UNKNOWN_Sensor))
1212:Lib/Camera_Middleware/cmw_camera.c ****   {
1213:Lib/Camera_Middleware/cmw_camera.c ****     /* If the selected sensor in the application side has selected a different sensors than VD65G4 
1214:Lib/Camera_Middleware/cmw_camera.c ****     return CMW_ERROR_COMPONENT_FAILURE;
1215:Lib/Camera_Middleware/cmw_camera.c ****   }
1216:Lib/Camera_Middleware/cmw_camera.c **** 
ARM GAS  C:\Users\DJESSOU\AppData\Local\Temp\cc3dm0Vf.s 			page 27


1217:Lib/Camera_Middleware/cmw_camera.c ****   /* Special case: when resolution is not specified take the full sensor resolution */
1218:Lib/Camera_Middleware/cmw_camera.c ****   if ((initSensors_params->width == 0U) || (initSensors_params->height == 0U))
1219:Lib/Camera_Middleware/cmw_camera.c ****   {
1220:Lib/Camera_Middleware/cmw_camera.c ****     initSensors_params->width = VD55G1_MAX_WIDTH;
1221:Lib/Camera_Middleware/cmw_camera.c ****     initSensors_params->height = VD55G1_MAX_HEIGHT;
1222:Lib/Camera_Middleware/cmw_camera.c ****   }
1223:Lib/Camera_Middleware/cmw_camera.c **** 
1224:Lib/Camera_Middleware/cmw_camera.c ****   CMW_VD65G4_SetDefaultSensorValues(&default_sensor_config);
1225:Lib/Camera_Middleware/cmw_camera.c ****   initSensors_params->sensor_config = initSensors_params->sensor_config ? initSensors_params->senso
1226:Lib/Camera_Middleware/cmw_camera.c ****   sensor_config = (CMW_VD65G4_config_t*)(initSensors_params->sensor_config);
1227:Lib/Camera_Middleware/cmw_camera.c **** 
1228:Lib/Camera_Middleware/cmw_camera.c ****   ret = Camera_Drv.Init(&camera_bsp, initSensors_params);
1229:Lib/Camera_Middleware/cmw_camera.c ****   if (ret != CMW_ERROR_NONE)
1230:Lib/Camera_Middleware/cmw_camera.c ****   {
1231:Lib/Camera_Middleware/cmw_camera.c ****     return CMW_ERROR_COMPONENT_FAILURE;
1232:Lib/Camera_Middleware/cmw_camera.c ****   }
1233:Lib/Camera_Middleware/cmw_camera.c **** 
1234:Lib/Camera_Middleware/cmw_camera.c ****   csi_conf.NumberOfLanes = DCMIPP_CSI_ONE_DATA_LANE;
1235:Lib/Camera_Middleware/cmw_camera.c ****   csi_conf.DataLaneMapping = DCMIPP_CSI_PHYSICAL_DATA_LANES;
1236:Lib/Camera_Middleware/cmw_camera.c ****   csi_conf.PHYBitrate = DCMIPP_CSI_PHY_BT_800;
1237:Lib/Camera_Middleware/cmw_camera.c ****   ret = HAL_DCMIPP_CSI_SetConfig(&hcamera_dcmipp, &csi_conf);
1238:Lib/Camera_Middleware/cmw_camera.c ****   if (ret != HAL_OK)
1239:Lib/Camera_Middleware/cmw_camera.c ****   {
1240:Lib/Camera_Middleware/cmw_camera.c ****     return CMW_ERROR_PERIPH_FAILURE;
1241:Lib/Camera_Middleware/cmw_camera.c ****   }
1242:Lib/Camera_Middleware/cmw_camera.c **** 
1243:Lib/Camera_Middleware/cmw_camera.c ****   switch (sensor_config->pixel_format)
1244:Lib/Camera_Middleware/cmw_camera.c ****   {
1245:Lib/Camera_Middleware/cmw_camera.c ****     case CMW_PIXEL_FORMAT_RAW8:
1246:Lib/Camera_Middleware/cmw_camera.c ****     {
1247:Lib/Camera_Middleware/cmw_camera.c ****       dt_format = DCMIPP_CSI_DT_BPP8;
1248:Lib/Camera_Middleware/cmw_camera.c ****       dt = DCMIPP_DT_RAW8;
1249:Lib/Camera_Middleware/cmw_camera.c ****       break;
1250:Lib/Camera_Middleware/cmw_camera.c ****     }
1251:Lib/Camera_Middleware/cmw_camera.c ****     case CMW_PIXEL_FORMAT_RAW10:
1252:Lib/Camera_Middleware/cmw_camera.c ****     case CMW_PIXEL_FORMAT_DEFAULT:
1253:Lib/Camera_Middleware/cmw_camera.c ****     {
1254:Lib/Camera_Middleware/cmw_camera.c ****       dt_format = DCMIPP_CSI_DT_BPP10;
1255:Lib/Camera_Middleware/cmw_camera.c ****       dt = DCMIPP_DT_RAW10;
1256:Lib/Camera_Middleware/cmw_camera.c ****       break;
1257:Lib/Camera_Middleware/cmw_camera.c ****     }
1258:Lib/Camera_Middleware/cmw_camera.c ****     default:
1259:Lib/Camera_Middleware/cmw_camera.c ****       return CMW_ERROR_COMPONENT_FAILURE;
1260:Lib/Camera_Middleware/cmw_camera.c ****   }
1261:Lib/Camera_Middleware/cmw_camera.c **** 
1262:Lib/Camera_Middleware/cmw_camera.c ****   ret = HAL_DCMIPP_CSI_SetVCConfig(&hcamera_dcmipp, DCMIPP_VIRTUAL_CHANNEL0, dt_format);
1263:Lib/Camera_Middleware/cmw_camera.c ****   if (ret != HAL_OK)
1264:Lib/Camera_Middleware/cmw_camera.c ****   {
1265:Lib/Camera_Middleware/cmw_camera.c ****     return CMW_ERROR_PERIPH_FAILURE;
1266:Lib/Camera_Middleware/cmw_camera.c ****   }
1267:Lib/Camera_Middleware/cmw_camera.c **** 
1268:Lib/Camera_Middleware/cmw_camera.c ****   csi_pipe_conf.DataTypeMode = DCMIPP_DTMODE_DTIDA;
1269:Lib/Camera_Middleware/cmw_camera.c ****   csi_pipe_conf.DataTypeIDA = dt;
1270:Lib/Camera_Middleware/cmw_camera.c ****   csi_pipe_conf.DataTypeIDB = 0U;
1271:Lib/Camera_Middleware/cmw_camera.c ****   /* Pre-initialize CSI config for all the pipes */
1272:Lib/Camera_Middleware/cmw_camera.c ****   for (uint32_t i = DCMIPP_PIPE0; i <= DCMIPP_PIPE2; i++)
1273:Lib/Camera_Middleware/cmw_camera.c ****   {
ARM GAS  C:\Users\DJESSOU\AppData\Local\Temp\cc3dm0Vf.s 			page 28


1274:Lib/Camera_Middleware/cmw_camera.c ****     ret = HAL_DCMIPP_CSI_PIPE_SetConfig(&hcamera_dcmipp, i, &csi_pipe_conf);
1275:Lib/Camera_Middleware/cmw_camera.c ****     if (ret != HAL_OK)
1276:Lib/Camera_Middleware/cmw_camera.c ****     {
1277:Lib/Camera_Middleware/cmw_camera.c ****       return CMW_ERROR_PERIPH_FAILURE;
1278:Lib/Camera_Middleware/cmw_camera.c ****     }
1279:Lib/Camera_Middleware/cmw_camera.c ****   }
1280:Lib/Camera_Middleware/cmw_camera.c **** 
1281:Lib/Camera_Middleware/cmw_camera.c ****   return CMW_ERROR_NONE;
1282:Lib/Camera_Middleware/cmw_camera.c **** }
1283:Lib/Camera_Middleware/cmw_camera.c **** #endif
1284:Lib/Camera_Middleware/cmw_camera.c **** 
1285:Lib/Camera_Middleware/cmw_camera.c **** #if defined(USE_OV5640_SENSOR)
1286:Lib/Camera_Middleware/cmw_camera.c **** static int32_t CMW_CAMERA_OV5640_Init( CMW_Sensor_Init_t *initSensors_params)
1287:Lib/Camera_Middleware/cmw_camera.c **** {
1288:Lib/Camera_Middleware/cmw_camera.c ****   int32_t ret = CMW_ERROR_NONE;
1289:Lib/Camera_Middleware/cmw_camera.c ****   DCMIPP_CSI_ConfTypeDef csi_conf = { 0 };
 251              		.loc 1 1289 26 is_stmt 0 view .LVU45
 252 0000 0021     		movs	r1, #0
 253              	.LBE53:
 254              	.LBE52:
 247:Lib/Camera_Middleware/cmw_camera.c **** {
 255              		.loc 1 247 12 view .LVU46
 256 0002 2DE9F04F 		push	{r4, r5, r6, r7, r8, r9, r10, fp, lr}
 257              		.cfi_def_cfa_offset 36
 258              		.cfi_offset 4, -36
 259              		.cfi_offset 5, -32
 260              		.cfi_offset 6, -28
 261              		.cfi_offset 7, -24
 262              		.cfi_offset 8, -20
 263              		.cfi_offset 9, -16
 264              		.cfi_offset 10, -12
 265              		.cfi_offset 11, -8
 266              		.cfi_offset 14, -4
 267              	.LBB62:
 268              	.LBB57:
1290:Lib/Camera_Middleware/cmw_camera.c ****   DCMIPP_CSI_PIPE_ConfTypeDef csi_pipe_conf = { 0 };
1291:Lib/Camera_Middleware/cmw_camera.c ****   uint32_t dt_format = 0;
1292:Lib/Camera_Middleware/cmw_camera.c ****   uint32_t dt = 0;
1293:Lib/Camera_Middleware/cmw_camera.c ****  CMW_OV5640_config_t default_sensor_config;
1294:Lib/Camera_Middleware/cmw_camera.c ****  CMW_OV5640_config_t *sensor_config;
1295:Lib/Camera_Middleware/cmw_camera.c **** 
1296:Lib/Camera_Middleware/cmw_camera.c ****   memset(&camera_bsp, 0, sizeof(camera_bsp));
 269              		.loc 1 1296 3 view .LVU47
 270 0006 DFF83C82 		ldr	r8, .L131+32
 271              	.LBE57:
 272              	.LBE62:
 247:Lib/Camera_Middleware/cmw_camera.c **** {
 273              		.loc 1 247 12 view .LVU48
 274 000a 99B0     		sub	sp, sp, #100
 275              		.cfi_def_cfa_offset 136
 276              	.LBB63:
 277              	.LBB58:
1289:Lib/Camera_Middleware/cmw_camera.c ****   DCMIPP_CSI_PIPE_ConfTypeDef csi_pipe_conf = { 0 };
 278              		.loc 1 1289 26 view .LVU49
 279 000c 02AD     		add	r5, sp, #8
 280 000e 0291     		str	r1, [sp, #8]
 281              		.loc 1 1296 3 view .LVU50
ARM GAS  C:\Users\DJESSOU\AppData\Local\Temp\cc3dm0Vf.s 			page 29


 282 0010 4FF4B472 		mov	r2, #360
1289:Lib/Camera_Middleware/cmw_camera.c ****   DCMIPP_CSI_PIPE_ConfTypeDef csi_pipe_conf = { 0 };
 283              		.loc 1 1289 26 view .LVU51
 284 0014 C5E90111 		strd	r1, r1, [r5, #4]
 285              	.LBE58:
 286              	.LBE63:
 247:Lib/Camera_Middleware/cmw_camera.c **** {
 287              		.loc 1 247 12 view .LVU52
 288 0018 0446     		mov	r4, r0
 289              	.LVL16:
 290              	.LBB64:
 291              	.LBI52:
1286:Lib/Camera_Middleware/cmw_camera.c **** {
 292              		.loc 1 1286 16 is_stmt 1 view .LVU53
 293              	.LBB59:
1288:Lib/Camera_Middleware/cmw_camera.c ****   DCMIPP_CSI_ConfTypeDef csi_conf = { 0 };
 294              		.loc 1 1288 3 view .LVU54
1289:Lib/Camera_Middleware/cmw_camera.c ****   DCMIPP_CSI_PIPE_ConfTypeDef csi_pipe_conf = { 0 };
 295              		.loc 1 1289 3 view .LVU55
1290:Lib/Camera_Middleware/cmw_camera.c ****   uint32_t dt_format = 0;
 296              		.loc 1 1290 3 view .LVU56
 297              		.loc 1 1296 3 is_stmt 0 view .LVU57
 298 001a 4046     		mov	r0, r8
 299              	.LVL17:
1290:Lib/Camera_Middleware/cmw_camera.c ****   uint32_t dt_format = 0;
 300              		.loc 1 1290 31 view .LVU58
 301 001c CDE90511 		strd	r1, r1, [sp, #20]
 302 0020 0791     		str	r1, [sp, #28]
1291:Lib/Camera_Middleware/cmw_camera.c ****   uint32_t dt = 0;
 303              		.loc 1 1291 3 is_stmt 1 view .LVU59
 304              	.LVL18:
1292:Lib/Camera_Middleware/cmw_camera.c ****  CMW_OV5640_config_t default_sensor_config;
 305              		.loc 1 1292 3 view .LVU60
1293:Lib/Camera_Middleware/cmw_camera.c ****  CMW_OV5640_config_t *sensor_config;
 306              		.loc 1 1293 2 view .LVU61
1294:Lib/Camera_Middleware/cmw_camera.c **** 
 307              		.loc 1 1294 2 view .LVU62
 308              		.loc 1 1296 3 view .LVU63
 309 0022 FFF7FEFF 		bl	memset
 310              	.LVL19:
1297:Lib/Camera_Middleware/cmw_camera.c ****   camera_bsp.ov5640_bsp.Address     = CAMERA_OV5640_ADDRESS;
 311              		.loc 1 1297 3 view .LVU64
 312              		.loc 1 1297 37 is_stmt 0 view .LVU65
 313 0026 7822     		movs	r2, #120
1298:Lib/Camera_Middleware/cmw_camera.c ****   camera_bsp.ov5640_bsp.Init        = CMW_I2C_INIT;
1299:Lib/Camera_Middleware/cmw_camera.c ****   camera_bsp.ov5640_bsp.DeInit      = CMW_I2C_DEINIT;
1300:Lib/Camera_Middleware/cmw_camera.c ****   camera_bsp.ov5640_bsp.WriteReg    = CMW_I2C_WRITEREG16;
1301:Lib/Camera_Middleware/cmw_camera.c ****   camera_bsp.ov5640_bsp.ReadReg     = CMW_I2C_READREG16;
 314              		.loc 1 1301 37 view .LVU66
 315 0028 7E4B     		ldr	r3, .L131
1298:Lib/Camera_Middleware/cmw_camera.c ****   camera_bsp.ov5640_bsp.Init        = CMW_I2C_INIT;
 316              		.loc 1 1298 37 view .LVU67
 317 002a DFF820A2 		ldr	r10, .L131+40
 318              		.loc 1 1301 37 view .LVU68
 319 002e C8F84430 		str	r3, [r8, #68]
1302:Lib/Camera_Middleware/cmw_camera.c ****   camera_bsp.ov5640_bsp.GetTick     = BSP_GetTick;
 320              		.loc 1 1302 37 view .LVU69
ARM GAS  C:\Users\DJESSOU\AppData\Local\Temp\cc3dm0Vf.s 			page 30


 321 0032 7D4B     		ldr	r3, .L131+4
1299:Lib/Camera_Middleware/cmw_camera.c ****   camera_bsp.ov5640_bsp.WriteReg    = CMW_I2C_WRITEREG16;
 322              		.loc 1 1299 37 view .LVU70
 323 0034 DFF81892 		ldr	r9, .L131+44
1300:Lib/Camera_Middleware/cmw_camera.c ****   camera_bsp.ov5640_bsp.ReadReg     = CMW_I2C_READREG16;
 324              		.loc 1 1300 37 view .LVU71
 325 0038 7C4F     		ldr	r7, .L131+8
1303:Lib/Camera_Middleware/cmw_camera.c ****   camera_bsp.ov5640_bsp.Delay       = HAL_Delay;
 326              		.loc 1 1303 37 view .LVU72
 327 003a 7D4E     		ldr	r6, .L131+12
1297:Lib/Camera_Middleware/cmw_camera.c ****   camera_bsp.ov5640_bsp.Init        = CMW_I2C_INIT;
 328              		.loc 1 1297 37 view .LVU73
 329 003c A8F80020 		strh	r2, [r8]	@ movhi
1298:Lib/Camera_Middleware/cmw_camera.c ****   camera_bsp.ov5640_bsp.DeInit      = CMW_I2C_DEINIT;
 330              		.loc 1 1298 3 is_stmt 1 view .LVU74
1302:Lib/Camera_Middleware/cmw_camera.c ****   camera_bsp.ov5640_bsp.Delay       = HAL_Delay;
 331              		.loc 1 1302 37 is_stmt 0 view .LVU75
 332 0040 C8F84830 		str	r3, [r8, #72]
1304:Lib/Camera_Middleware/cmw_camera.c ****   camera_bsp.ov5640_bsp.ShutdownPin = CMW_CAMERA_ShutdownPin;
1305:Lib/Camera_Middleware/cmw_camera.c ****   camera_bsp.ov5640_bsp.EnablePin   = CMW_CAMERA_EnablePin;
 333              		.loc 1 1305 37 view .LVU76
 334 0044 7B4A     		ldr	r2, .L131+16
1304:Lib/Camera_Middleware/cmw_camera.c ****   camera_bsp.ov5640_bsp.ShutdownPin = CMW_CAMERA_ShutdownPin;
 335              		.loc 1 1304 37 view .LVU77
 336 0046 7C4B     		ldr	r3, .L131+20
1306:Lib/Camera_Middleware/cmw_camera.c **** 
1307:Lib/Camera_Middleware/cmw_camera.c ****   ret = CMW_OV5640_Probe(&camera_bsp.ov5640_bsp, &Camera_Drv);
 337              		.loc 1 1307 9 view .LVU78
 338 0048 4046     		mov	r0, r8
 339 004a 7C49     		ldr	r1, .L131+24
1298:Lib/Camera_Middleware/cmw_camera.c ****   camera_bsp.ov5640_bsp.DeInit      = CMW_I2C_DEINIT;
 340              		.loc 1 1298 37 view .LVU79
 341 004c C8F838A0 		str	r10, [r8, #56]
1299:Lib/Camera_Middleware/cmw_camera.c ****   camera_bsp.ov5640_bsp.WriteReg    = CMW_I2C_WRITEREG16;
 342              		.loc 1 1299 3 is_stmt 1 view .LVU80
1299:Lib/Camera_Middleware/cmw_camera.c ****   camera_bsp.ov5640_bsp.WriteReg    = CMW_I2C_WRITEREG16;
 343              		.loc 1 1299 37 is_stmt 0 view .LVU81
 344 0050 C8F83C90 		str	r9, [r8, #60]
1300:Lib/Camera_Middleware/cmw_camera.c ****   camera_bsp.ov5640_bsp.ReadReg     = CMW_I2C_READREG16;
 345              		.loc 1 1300 3 is_stmt 1 view .LVU82
1300:Lib/Camera_Middleware/cmw_camera.c ****   camera_bsp.ov5640_bsp.ReadReg     = CMW_I2C_READREG16;
 346              		.loc 1 1300 37 is_stmt 0 view .LVU83
 347 0054 C8F84070 		str	r7, [r8, #64]
1301:Lib/Camera_Middleware/cmw_camera.c ****   camera_bsp.ov5640_bsp.GetTick     = BSP_GetTick;
 348              		.loc 1 1301 3 is_stmt 1 view .LVU84
1302:Lib/Camera_Middleware/cmw_camera.c ****   camera_bsp.ov5640_bsp.Delay       = HAL_Delay;
 349              		.loc 1 1302 3 view .LVU85
1303:Lib/Camera_Middleware/cmw_camera.c ****   camera_bsp.ov5640_bsp.ShutdownPin = CMW_CAMERA_ShutdownPin;
 350              		.loc 1 1303 3 view .LVU86
1303:Lib/Camera_Middleware/cmw_camera.c ****   camera_bsp.ov5640_bsp.ShutdownPin = CMW_CAMERA_ShutdownPin;
 351              		.loc 1 1303 37 is_stmt 0 view .LVU87
 352 0058 C8F84C60 		str	r6, [r8, #76]
1304:Lib/Camera_Middleware/cmw_camera.c ****   camera_bsp.ov5640_bsp.EnablePin   = CMW_CAMERA_EnablePin;
 353              		.loc 1 1304 3 is_stmt 1 view .LVU88
1304:Lib/Camera_Middleware/cmw_camera.c ****   camera_bsp.ov5640_bsp.EnablePin   = CMW_CAMERA_EnablePin;
 354              		.loc 1 1304 37 is_stmt 0 view .LVU89
 355 005c C8F85030 		str	r3, [r8, #80]
ARM GAS  C:\Users\DJESSOU\AppData\Local\Temp\cc3dm0Vf.s 			page 31


1305:Lib/Camera_Middleware/cmw_camera.c **** 
 356              		.loc 1 1305 3 is_stmt 1 view .LVU90
1305:Lib/Camera_Middleware/cmw_camera.c **** 
 357              		.loc 1 1305 37 is_stmt 0 view .LVU91
 358 0060 C8F85420 		str	r2, [r8, #84]
 359              		.loc 1 1307 3 is_stmt 1 view .LVU92
 360              		.loc 1 1307 9 is_stmt 0 view .LVU93
 361 0064 FFF7FEFF 		bl	CMW_OV5640_Probe
 362              	.LVL20:
1308:Lib/Camera_Middleware/cmw_camera.c ****   if (ret != CMW_ERROR_NONE)
 363              		.loc 1 1308 3 is_stmt 1 view .LVU94
 364              		.loc 1 1308 6 is_stmt 0 view .LVU95
 365 0068 0028     		cmp	r0, #0
 366 006a 3FD1     		bne	.L24
1309:Lib/Camera_Middleware/cmw_camera.c ****   {
1310:Lib/Camera_Middleware/cmw_camera.c ****     return CMW_ERROR_COMPONENT_FAILURE;
1311:Lib/Camera_Middleware/cmw_camera.c ****   }
1312:Lib/Camera_Middleware/cmw_camera.c **** 
1313:Lib/Camera_Middleware/cmw_camera.c ****   if ((connected_sensor != CMW_OV5640_Sensor) && (connected_sensor != CMW_UNKNOWN_Sensor))
 367              		.loc 1 1313 3 is_stmt 1 view .LVU96
 368              		.loc 1 1313 25 is_stmt 0 view .LVU97
 369 006c 744A     		ldr	r2, .L131+28
 370              		.loc 1 1313 6 view .LVU98
 371 006e 1278     		ldrb	r2, [r2]	@ zero_extendqisi2
 372 0070 12F0FB0F 		tst	r2, #251
 373 0074 3AD1     		bne	.L24
1314:Lib/Camera_Middleware/cmw_camera.c ****   {
1315:Lib/Camera_Middleware/cmw_camera.c ****     /* If the selected sensor in the application side has selected a different sensors than OV5640 
1316:Lib/Camera_Middleware/cmw_camera.c ****     return CMW_ERROR_COMPONENT_FAILURE;
1317:Lib/Camera_Middleware/cmw_camera.c ****   }
1318:Lib/Camera_Middleware/cmw_camera.c **** 
1319:Lib/Camera_Middleware/cmw_camera.c ****   /* Special case: when resolution is not specified take the full sensor resolution */
1320:Lib/Camera_Middleware/cmw_camera.c ****   if ((initSensors_params->width == 0) || (initSensors_params->height == 0))
 374              		.loc 1 1320 3 is_stmt 1 view .LVU99
 375              		.loc 1 1320 6 is_stmt 0 view .LVU100
 376 0076 2268     		ldr	r2, [r4]
 377 0078 0DF1200B 		add	fp, sp, #32
 378 007c 0AB1     		cbz	r2, .L26
 379              		.loc 1 1320 40 discriminator 1 view .LVU101
 380 007e 6268     		ldr	r2, [r4, #4]
 381 0080 42B9     		cbnz	r2, .L27
 382              	.L26:
 383              	.LBB54:
1321:Lib/Camera_Middleware/cmw_camera.c ****   {
1322:Lib/Camera_Middleware/cmw_camera.c ****     ISP_SensorInfoTypeDef sensor_info;
 384              		.loc 1 1322 5 is_stmt 1 view .LVU102
1323:Lib/Camera_Middleware/cmw_camera.c ****     Camera_Drv.GetSensorInfo(&camera_bsp, &sensor_info);
 385              		.loc 1 1323 5 view .LVU103
 386              		.loc 1 1323 15 is_stmt 0 view .LVU104
 387 0082 6E4A     		ldr	r2, .L131+24
 388              		.loc 1 1323 5 view .LVU105
 389 0084 5946     		mov	r1, fp
 390 0086 126E     		ldr	r2, [r2, #96]
 391 0088 6E48     		ldr	r0, .L131+32
 392              	.LVL21:
 393              		.loc 1 1323 5 view .LVU106
 394 008a 9047     		blx	r2
ARM GAS  C:\Users\DJESSOU\AppData\Local\Temp\cc3dm0Vf.s 			page 32


 395              	.LVL22:
1324:Lib/Camera_Middleware/cmw_camera.c ****     initSensors_params->width = sensor_info.width;
 396              		.loc 1 1324 5 is_stmt 1 view .LVU107
 397              		.loc 1 1324 31 is_stmt 0 view .LVU108
 398 008c 119A     		ldr	r2, [sp, #68]
 399 008e 2260     		str	r2, [r4]
1325:Lib/Camera_Middleware/cmw_camera.c ****     initSensors_params->height = sensor_info.height;
 400              		.loc 1 1325 5 is_stmt 1 view .LVU109
 401              		.loc 1 1325 32 is_stmt 0 view .LVU110
 402 0090 129A     		ldr	r2, [sp, #72]
 403 0092 6260     		str	r2, [r4, #4]
 404              	.L27:
 405              		.loc 1 1325 32 view .LVU111
 406              	.LBE54:
1326:Lib/Camera_Middleware/cmw_camera.c ****   }
1327:Lib/Camera_Middleware/cmw_camera.c **** 
1328:Lib/Camera_Middleware/cmw_camera.c ****   CMW_OV5640_SetDefaultSensorValues(&default_sensor_config);
 407              		.loc 1 1328 3 is_stmt 1 view .LVU112
 408 0094 5846     		mov	r0, fp
 409 0096 FFF7FEFF 		bl	CMW_OV5640_SetDefaultSensorValues
 410              	.LVL23:
1329:Lib/Camera_Middleware/cmw_camera.c ****   initSensors_params->sensor_config = initSensors_params->sensor_config ? initSensors_params->senso
 411              		.loc 1 1329 3 view .LVU113
 412              		.loc 1 1329 57 is_stmt 0 view .LVU114
 413 009a 2269     		ldr	r2, [r4, #16]
1330:Lib/Camera_Middleware/cmw_camera.c ****   sensor_config = (CMW_OV5640_config_t*) (initSensors_params->sensor_config);
1331:Lib/Camera_Middleware/cmw_camera.c **** 
1332:Lib/Camera_Middleware/cmw_camera.c ****   ret = Camera_Drv.Init(&camera_bsp, initSensors_params);
 414              		.loc 1 1332 19 view .LVU115
 415 009c 6749     		ldr	r1, .L131+24
1329:Lib/Camera_Middleware/cmw_camera.c ****   initSensors_params->sensor_config = initSensors_params->sensor_config ? initSensors_params->senso
 416              		.loc 1 1329 109 discriminator 2 view .LVU116
 417 009e 002A     		cmp	r2, #0
 418 00a0 08BF     		it	eq
 419 00a2 5A46     		moveq	r2, fp
 420              		.loc 1 1332 9 view .LVU117
 421 00a4 0B68     		ldr	r3, [r1]
 422 00a6 6748     		ldr	r0, .L131+32
 423 00a8 2146     		mov	r1, r4
1329:Lib/Camera_Middleware/cmw_camera.c ****   initSensors_params->sensor_config = initSensors_params->sensor_config ? initSensors_params->senso
 424              		.loc 1 1329 37 discriminator 4 view .LVU118
 425 00aa 2261     		str	r2, [r4, #16]
 426 00ac 0192     		str	r2, [sp, #4]
1330:Lib/Camera_Middleware/cmw_camera.c ****   sensor_config = (CMW_OV5640_config_t*) (initSensors_params->sensor_config);
 427              		.loc 1 1330 3 is_stmt 1 view .LVU119
 428              	.LVL24:
 429              		.loc 1 1332 3 view .LVU120
 430              		.loc 1 1332 9 is_stmt 0 view .LVU121
 431 00ae 9847     		blx	r3
 432              	.LVL25:
1333:Lib/Camera_Middleware/cmw_camera.c ****   if (ret != CMW_ERROR_NONE)
 433              		.loc 1 1333 3 is_stmt 1 view .LVU122
 434              		.loc 1 1333 6 is_stmt 0 view .LVU123
 435 00b0 E0B9     		cbnz	r0, .L24
1334:Lib/Camera_Middleware/cmw_camera.c ****   {
1335:Lib/Camera_Middleware/cmw_camera.c ****     return CMW_ERROR_COMPONENT_FAILURE;
1336:Lib/Camera_Middleware/cmw_camera.c ****   }
ARM GAS  C:\Users\DJESSOU\AppData\Local\Temp\cc3dm0Vf.s 			page 33


1337:Lib/Camera_Middleware/cmw_camera.c **** 
1338:Lib/Camera_Middleware/cmw_camera.c ****   csi_conf.NumberOfLanes = DCMIPP_CSI_TWO_DATA_LANES;
 436              		.loc 1 1338 3 is_stmt 1 view .LVU124
1339:Lib/Camera_Middleware/cmw_camera.c ****   csi_conf.DataLaneMapping = DCMIPP_CSI_PHYSICAL_DATA_LANES;
 437              		.loc 1 1339 28 is_stmt 0 view .LVU125
 438 00b2 0121     		movs	r1, #1
 439 00b4 4FF40073 		mov	r3, #512
 440 00b8 CDE90231 		strd	r3, r1, [sp, #8]
1340:Lib/Camera_Middleware/cmw_camera.c ****   csi_conf.PHYBitrate = DCMIPP_CSI_PHY_BT_250;
 441              		.loc 1 1340 3 is_stmt 1 view .LVU126
 442              		.loc 1 1340 23 is_stmt 0 view .LVU127
 443 00bc 0F21     		movs	r1, #15
1341:Lib/Camera_Middleware/cmw_camera.c ****   ret = HAL_DCMIPP_CSI_SetConfig(&hcamera_dcmipp, &csi_conf);
 444              		.loc 1 1341 9 view .LVU128
 445 00be 6248     		ldr	r0, .L131+36
 446              	.LVL26:
1340:Lib/Camera_Middleware/cmw_camera.c ****   csi_conf.PHYBitrate = DCMIPP_CSI_PHY_BT_250;
 447              		.loc 1 1340 23 view .LVU129
 448 00c0 0491     		str	r1, [sp, #16]
 449              		.loc 1 1341 3 is_stmt 1 view .LVU130
 450              		.loc 1 1341 9 is_stmt 0 view .LVU131
 451 00c2 2946     		mov	r1, r5
 452 00c4 FFF7FEFF 		bl	HAL_DCMIPP_CSI_SetConfig
 453              	.LVL27:
1342:Lib/Camera_Middleware/cmw_camera.c ****   if (ret != HAL_OK)
 454              		.loc 1 1342 3 is_stmt 1 view .LVU132
 455              		.loc 1 1342 6 is_stmt 0 view .LVU133
 456 00c8 80B9     		cbnz	r0, .L24
1343:Lib/Camera_Middleware/cmw_camera.c ****   {
1344:Lib/Camera_Middleware/cmw_camera.c ****     return CMW_ERROR_PERIPH_FAILURE;
1345:Lib/Camera_Middleware/cmw_camera.c ****   }
1346:Lib/Camera_Middleware/cmw_camera.c **** 
1347:Lib/Camera_Middleware/cmw_camera.c ****   switch (sensor_config->pixel_format)
 457              		.loc 1 1347 3 is_stmt 1 view .LVU134
 458              		.loc 1 1347 24 is_stmt 0 view .LVU135
 459 00ca 019A     		ldr	r2, [sp, #4]
 460 00cc D2F800B0 		ldr	fp, [r2]
 461              		.loc 1 1347 3 view .LVU136
 462 00d0 BBF1240F 		cmp	fp, #36
 463 00d4 71D0     		beq	.L29
 464 00d6 6DD8     		bhi	.L30
 465 00d8 BBF11E0F 		cmp	fp, #30
 466 00dc 6DD0     		beq	.L29
 467 00de BBF1220F 		cmp	fp, #34
 468 00e2 6AD0     		beq	.L29
 469 00e4 BBF1000F 		cmp	fp, #0
 470 00e8 00F08180 		beq	.L75
 471              	.LVL28:
 472              	.L24:
 473              		.loc 1 1347 3 view .LVU137
 474              	.LBE59:
 475              	.LBE64:
 259:Lib/Camera_Middleware/cmw_camera.c ****   if (ret == CMW_ERROR_NONE)
 476              		.loc 1 259 3 is_stmt 1 view .LVU138
 477              	.LBB65:
 478              	.LBI65:
1084:Lib/Camera_Middleware/cmw_camera.c **** {
ARM GAS  C:\Users\DJESSOU\AppData\Local\Temp\cc3dm0Vf.s 			page 34


 479              		.loc 1 1084 16 view .LVU139
 480              	.LBB66:
1086:Lib/Camera_Middleware/cmw_camera.c ****   DCMIPP_CSI_ConfTypeDef csi_conf = { 0 };
 481              		.loc 1 1086 3 view .LVU140
1087:Lib/Camera_Middleware/cmw_camera.c ****   DCMIPP_CSI_PIPE_ConfTypeDef csi_pipe_conf = { 0 };
 482              		.loc 1 1087 3 view .LVU141
1087:Lib/Camera_Middleware/cmw_camera.c ****   DCMIPP_CSI_PIPE_ConfTypeDef csi_pipe_conf = { 0 };
 483              		.loc 1 1087 26 is_stmt 0 view .LVU142
 484 00ec 0021     		movs	r1, #0
1094:Lib/Camera_Middleware/cmw_camera.c ****   camera_bsp.vd55g1_bsp.Address     = CAMERA_VD55G1_ADDRESS;
 485              		.loc 1 1094 3 view .LVU143
 486 00ee 4FF4B472 		mov	r2, #360
 487 00f2 5448     		ldr	r0, .L131+32
1087:Lib/Camera_Middleware/cmw_camera.c ****   DCMIPP_CSI_PIPE_ConfTypeDef csi_pipe_conf = { 0 };
 488              		.loc 1 1087 26 view .LVU144
 489 00f4 CDE90511 		strd	r1, r1, [sp, #20]
1088:Lib/Camera_Middleware/cmw_camera.c ****   uint32_t dt_format = 0;
 490              		.loc 1 1088 31 view .LVU145
 491 00f8 CDE90711 		strd	r1, r1, [sp, #28]
 492 00fc CDE90911 		strd	r1, r1, [sp, #36]
1089:Lib/Camera_Middleware/cmw_camera.c ****   uint32_t dt = 0;
 493              		.loc 1 1089 3 is_stmt 1 view .LVU146
 494              	.LVL29:
1090:Lib/Camera_Middleware/cmw_camera.c ****   CMW_VD55G1_config_t default_sensor_config;
 495              		.loc 1 1090 3 view .LVU147
1091:Lib/Camera_Middleware/cmw_camera.c ****   CMW_VD55G1_config_t *sensor_config;
 496              		.loc 1 1091 3 view .LVU148
1092:Lib/Camera_Middleware/cmw_camera.c **** 
 497              		.loc 1 1092 3 view .LVU149
1094:Lib/Camera_Middleware/cmw_camera.c ****   camera_bsp.vd55g1_bsp.Address     = CAMERA_VD55G1_ADDRESS;
 498              		.loc 1 1094 3 view .LVU150
 499 0100 FFF7FEFF 		bl	memset
 500              	.LVL30:
1095:Lib/Camera_Middleware/cmw_camera.c ****   camera_bsp.vd55g1_bsp.Init        = CMW_I2C_INIT;
 501              		.loc 1 1095 3 view .LVU151
1095:Lib/Camera_Middleware/cmw_camera.c ****   camera_bsp.vd55g1_bsp.Init        = CMW_I2C_INIT;
 502              		.loc 1 1095 37 is_stmt 0 view .LVU152
 503 0104 2022     		movs	r2, #32
1099:Lib/Camera_Middleware/cmw_camera.c ****   camera_bsp.vd55g1_bsp.Delay       = HAL_Delay;
 504              		.loc 1 1099 37 view .LVU153
 505 0106 474B     		ldr	r3, .L131
1095:Lib/Camera_Middleware/cmw_camera.c ****   camera_bsp.vd55g1_bsp.Init        = CMW_I2C_INIT;
 506              		.loc 1 1095 37 view .LVU154
 507 0108 A8F80020 		strh	r2, [r8]	@ movhi
1096:Lib/Camera_Middleware/cmw_camera.c ****   camera_bsp.vd55g1_bsp.DeInit      = CMW_I2C_DEINIT;
 508              		.loc 1 1096 3 is_stmt 1 view .LVU155
1099:Lib/Camera_Middleware/cmw_camera.c ****   camera_bsp.vd55g1_bsp.Delay       = HAL_Delay;
 509              		.loc 1 1099 37 is_stmt 0 view .LVU156
 510 010c C8F88C30 		str	r3, [r8, #140]
1102:Lib/Camera_Middleware/cmw_camera.c **** 
 511              		.loc 1 1102 37 view .LVU157
 512 0110 484A     		ldr	r2, .L131+16
1101:Lib/Camera_Middleware/cmw_camera.c ****   camera_bsp.vd55g1_bsp.EnablePin   = CMW_CAMERA_EnablePin;
 513              		.loc 1 1101 37 view .LVU158
 514 0112 494B     		ldr	r3, .L131+20
1104:Lib/Camera_Middleware/cmw_camera.c ****   if (ret != CMW_ERROR_NONE)
 515              		.loc 1 1104 9 view .LVU159
ARM GAS  C:\Users\DJESSOU\AppData\Local\Temp\cc3dm0Vf.s 			page 35


 516 0114 4949     		ldr	r1, .L131+24
 517 0116 4B48     		ldr	r0, .L131+32
1097:Lib/Camera_Middleware/cmw_camera.c ****   camera_bsp.vd55g1_bsp.WriteReg    = CMW_I2C_WRITEREG16;
 518              		.loc 1 1097 37 view .LVU160
 519 0118 C8E920A9 		strd	r10, r9, [r8, #128]
1098:Lib/Camera_Middleware/cmw_camera.c ****   camera_bsp.vd55g1_bsp.ReadReg     = CMW_I2C_READREG16;
 520              		.loc 1 1098 3 is_stmt 1 view .LVU161
1098:Lib/Camera_Middleware/cmw_camera.c ****   camera_bsp.vd55g1_bsp.ReadReg     = CMW_I2C_READREG16;
 521              		.loc 1 1098 37 is_stmt 0 view .LVU162
 522 011c C8F88870 		str	r7, [r8, #136]
1099:Lib/Camera_Middleware/cmw_camera.c ****   camera_bsp.vd55g1_bsp.Delay       = HAL_Delay;
 523              		.loc 1 1099 3 is_stmt 1 view .LVU163
1100:Lib/Camera_Middleware/cmw_camera.c ****   camera_bsp.vd55g1_bsp.ShutdownPin = CMW_CAMERA_ShutdownPin;
 524              		.loc 1 1100 3 view .LVU164
1100:Lib/Camera_Middleware/cmw_camera.c ****   camera_bsp.vd55g1_bsp.ShutdownPin = CMW_CAMERA_ShutdownPin;
 525              		.loc 1 1100 37 is_stmt 0 view .LVU165
 526 0120 C8F89460 		str	r6, [r8, #148]
1101:Lib/Camera_Middleware/cmw_camera.c ****   camera_bsp.vd55g1_bsp.EnablePin   = CMW_CAMERA_EnablePin;
 527              		.loc 1 1101 3 is_stmt 1 view .LVU166
1101:Lib/Camera_Middleware/cmw_camera.c ****   camera_bsp.vd55g1_bsp.EnablePin   = CMW_CAMERA_EnablePin;
 528              		.loc 1 1101 37 is_stmt 0 view .LVU167
 529 0124 C8F89830 		str	r3, [r8, #152]
1102:Lib/Camera_Middleware/cmw_camera.c **** 
 530              		.loc 1 1102 3 is_stmt 1 view .LVU168
1102:Lib/Camera_Middleware/cmw_camera.c **** 
 531              		.loc 1 1102 37 is_stmt 0 view .LVU169
 532 0128 C8F89C20 		str	r2, [r8, #156]
1104:Lib/Camera_Middleware/cmw_camera.c ****   if (ret != CMW_ERROR_NONE)
 533              		.loc 1 1104 3 is_stmt 1 view .LVU170
1104:Lib/Camera_Middleware/cmw_camera.c ****   if (ret != CMW_ERROR_NONE)
 534              		.loc 1 1104 9 is_stmt 0 view .LVU171
 535 012c FFF7FEFF 		bl	CMW_VD55G1_Probe
 536              	.LVL31:
1105:Lib/Camera_Middleware/cmw_camera.c ****   {
 537              		.loc 1 1105 3 is_stmt 1 view .LVU172
1105:Lib/Camera_Middleware/cmw_camera.c ****   {
 538              		.loc 1 1105 6 is_stmt 0 view .LVU173
 539 0130 0028     		cmp	r0, #0
 540 0132 40F08F80 		bne	.L34
1110:Lib/Camera_Middleware/cmw_camera.c ****   {
 541              		.loc 1 1110 3 is_stmt 1 view .LVU174
1110:Lib/Camera_Middleware/cmw_camera.c ****   {
 542              		.loc 1 1110 25 is_stmt 0 view .LVU175
 543 0136 424A     		ldr	r2, .L131+28
 544 0138 1278     		ldrb	r2, [r2]	@ zero_extendqisi2
1110:Lib/Camera_Middleware/cmw_camera.c ****   {
 545              		.loc 1 1110 6 view .LVU176
 546 013a 052A     		cmp	r2, #5
 547 013c 02D0     		beq	.L35
1110:Lib/Camera_Middleware/cmw_camera.c ****   {
 548              		.loc 1 1110 47 discriminator 1 view .LVU177
 549 013e 002A     		cmp	r2, #0
 550 0140 40F08880 		bne	.L34
 551              	.L35:
1117:Lib/Camera_Middleware/cmw_camera.c ****   {
 552              		.loc 1 1117 3 is_stmt 1 view .LVU178
1117:Lib/Camera_Middleware/cmw_camera.c ****   {
ARM GAS  C:\Users\DJESSOU\AppData\Local\Temp\cc3dm0Vf.s 			page 36


 553              		.loc 1 1117 6 is_stmt 0 view .LVU179
 554 0144 2268     		ldr	r2, [r4]
 555 0146 0AB1     		cbz	r2, .L37
1117:Lib/Camera_Middleware/cmw_camera.c ****   {
 556              		.loc 1 1117 40 discriminator 1 view .LVU180
 557 0148 6268     		ldr	r2, [r4, #4]
 558 014a 2AB9     		cbnz	r2, .L38
 559              	.L37:
1119:Lib/Camera_Middleware/cmw_camera.c ****     initSensors_params->height = VD55G1_MAX_HEIGHT;
 560              		.loc 1 1119 5 is_stmt 1 view .LVU181
1120:Lib/Camera_Middleware/cmw_camera.c ****   }
 561              		.loc 1 1120 32 is_stmt 0 view .LVU182
 562 014c 4FF4497B 		mov	fp, #804
 563 0150 4FF43072 		mov	r2, #704
 564 0154 C4E900B2 		strd	fp, r2, [r4]
 565              	.L38:
1123:Lib/Camera_Middleware/cmw_camera.c ****   initSensors_params->sensor_config = initSensors_params->sensor_config ? initSensors_params->senso
 566              		.loc 1 1123 3 is_stmt 1 view .LVU183
 567 0158 2846     		mov	r0, r5
 568              	.LVL32:
1123:Lib/Camera_Middleware/cmw_camera.c ****   initSensors_params->sensor_config = initSensors_params->sensor_config ? initSensors_params->senso
 569              		.loc 1 1123 3 is_stmt 0 view .LVU184
 570 015a FFF7FEFF 		bl	CMW_VD55G1_SetDefaultSensorValues
 571              	.LVL33:
1124:Lib/Camera_Middleware/cmw_camera.c ****   sensor_config = (CMW_VD55G1_config_t*) (initSensors_params->sensor_config);
 572              		.loc 1 1124 3 is_stmt 1 view .LVU185
1124:Lib/Camera_Middleware/cmw_camera.c ****   sensor_config = (CMW_VD55G1_config_t*) (initSensors_params->sensor_config);
 573              		.loc 1 1124 57 is_stmt 0 view .LVU186
 574 015e D4F810B0 		ldr	fp, [r4, #16]
1127:Lib/Camera_Middleware/cmw_camera.c ****   if (ret != CMW_ERROR_NONE)
 575              		.loc 1 1127 19 view .LVU187
 576 0162 364A     		ldr	r2, .L131+24
1124:Lib/Camera_Middleware/cmw_camera.c ****   sensor_config = (CMW_VD55G1_config_t*) (initSensors_params->sensor_config);
 577              		.loc 1 1124 109 discriminator 2 view .LVU188
 578 0164 BBF1000F 		cmp	fp, #0
 579 0168 08BF     		it	eq
 580 016a AB46     		moveq	fp, r5
1127:Lib/Camera_Middleware/cmw_camera.c ****   if (ret != CMW_ERROR_NONE)
 581              		.loc 1 1127 9 view .LVU189
 582 016c 2146     		mov	r1, r4
 583 016e 1268     		ldr	r2, [r2]
 584 0170 3448     		ldr	r0, .L131+32
1124:Lib/Camera_Middleware/cmw_camera.c ****   sensor_config = (CMW_VD55G1_config_t*) (initSensors_params->sensor_config);
 585              		.loc 1 1124 37 discriminator 4 view .LVU190
 586 0172 C4F810B0 		str	fp, [r4, #16]
1125:Lib/Camera_Middleware/cmw_camera.c **** 
 587              		.loc 1 1125 3 is_stmt 1 view .LVU191
 588              	.LVL34:
1127:Lib/Camera_Middleware/cmw_camera.c ****   if (ret != CMW_ERROR_NONE)
 589              		.loc 1 1127 3 view .LVU192
1127:Lib/Camera_Middleware/cmw_camera.c ****   if (ret != CMW_ERROR_NONE)
 590              		.loc 1 1127 9 is_stmt 0 view .LVU193
 591 0176 9047     		blx	r2
 592              	.LVL35:
1128:Lib/Camera_Middleware/cmw_camera.c ****   {
 593              		.loc 1 1128 3 is_stmt 1 view .LVU194
1128:Lib/Camera_Middleware/cmw_camera.c ****   {
ARM GAS  C:\Users\DJESSOU\AppData\Local\Temp\cc3dm0Vf.s 			page 37


 594              		.loc 1 1128 6 is_stmt 0 view .LVU195
 595 0178 0028     		cmp	r0, #0
 596 017a 6BD1     		bne	.L34
1133:Lib/Camera_Middleware/cmw_camera.c ****   csi_conf.DataLaneMapping = DCMIPP_CSI_PHYSICAL_DATA_LANES;
 597              		.loc 1 1133 3 is_stmt 1 view .LVU196
1134:Lib/Camera_Middleware/cmw_camera.c ****   csi_conf.PHYBitrate = DCMIPP_CSI_PHY_BT_800;
 598              		.loc 1 1134 28 is_stmt 0 view .LVU197
 599 017c 0122     		movs	r2, #1
 600 017e 4FF4807E 		mov	lr, #256
 601 0182 CDE905E2 		strd	lr, r2, [sp, #20]
1135:Lib/Camera_Middleware/cmw_camera.c ****   ret = HAL_DCMIPP_CSI_SetConfig(&hcamera_dcmipp, &csi_conf);
 602              		.loc 1 1135 3 is_stmt 1 view .LVU198
1135:Lib/Camera_Middleware/cmw_camera.c ****   ret = HAL_DCMIPP_CSI_SetConfig(&hcamera_dcmipp, &csi_conf);
 603              		.loc 1 1135 23 is_stmt 0 view .LVU199
 604 0186 1C22     		movs	r2, #28
1136:Lib/Camera_Middleware/cmw_camera.c ****   if (ret != HAL_OK)
 605              		.loc 1 1136 9 view .LVU200
 606 0188 2F48     		ldr	r0, .L131+36
 607              	.LVL36:
1136:Lib/Camera_Middleware/cmw_camera.c ****   if (ret != HAL_OK)
 608              		.loc 1 1136 9 view .LVU201
 609 018a 05A9     		add	r1, sp, #20
1135:Lib/Camera_Middleware/cmw_camera.c ****   ret = HAL_DCMIPP_CSI_SetConfig(&hcamera_dcmipp, &csi_conf);
 610              		.loc 1 1135 23 view .LVU202
 611 018c 0792     		str	r2, [sp, #28]
1136:Lib/Camera_Middleware/cmw_camera.c ****   if (ret != HAL_OK)
 612              		.loc 1 1136 3 is_stmt 1 view .LVU203
1136:Lib/Camera_Middleware/cmw_camera.c ****   if (ret != HAL_OK)
 613              		.loc 1 1136 9 is_stmt 0 view .LVU204
 614 018e FFF7FEFF 		bl	HAL_DCMIPP_CSI_SetConfig
 615              	.LVL37:
1137:Lib/Camera_Middleware/cmw_camera.c ****   {
 616              		.loc 1 1137 3 is_stmt 1 view .LVU205
1137:Lib/Camera_Middleware/cmw_camera.c ****   {
 617              		.loc 1 1137 6 is_stmt 0 view .LVU206
 618 0192 0028     		cmp	r0, #0
 619 0194 5ED1     		bne	.L34
1142:Lib/Camera_Middleware/cmw_camera.c ****   {
 620              		.loc 1 1142 3 is_stmt 1 view .LVU207
1142:Lib/Camera_Middleware/cmw_camera.c ****   {
 621              		.loc 1 1142 24 is_stmt 0 view .LVU208
 622 0196 DBF800B0 		ldr	fp, [fp]
 623              	.LVL38:
1142:Lib/Camera_Middleware/cmw_camera.c ****   {
 624              		.loc 1 1142 3 view .LVU209
 625 019a BBF12A0F 		cmp	fp, #42
 626 019e 29D0     		beq	.L76
 627 01a0 BBF12B0F 		cmp	fp, #43
 628 01a4 04D0     		beq	.L77
 629 01a6 BBF1000F 		cmp	fp, #0
 630 01aa 53D1     		bne	.L34
 631 01ac 4FF02B0B 		mov	fp, #43
 632              	.L77:
 633 01b0 0322     		movs	r2, #3
 634 01b2 20E0     		b	.L40
 635              	.LVL39:
 636              	.L30:
ARM GAS  C:\Users\DJESSOU\AppData\Local\Temp\cc3dm0Vf.s 			page 38


1142:Lib/Camera_Middleware/cmw_camera.c ****   {
 637              		.loc 1 1142 3 view .LVU210
 638              	.LBE66:
 639              	.LBE65:
 640              	.LBB70:
 641              	.LBB60:
 642              		.loc 1 1347 3 view .LVU211
 643 01b4 BBF12A0F 		cmp	fp, #42
 644 01b8 98D1     		bne	.L24
 645              	.L29:
 646              	.LVL40:
1348:Lib/Camera_Middleware/cmw_camera.c ****   {
1349:Lib/Camera_Middleware/cmw_camera.c **** 
1350:Lib/Camera_Middleware/cmw_camera.c ****     case CMW_PIXEL_FORMAT_YUV422_8:
1351:Lib/Camera_Middleware/cmw_camera.c ****     {
1352:Lib/Camera_Middleware/cmw_camera.c ****       dt_format = DCMIPP_CSI_DT_BPP8;
1353:Lib/Camera_Middleware/cmw_camera.c ****       dt = DCMIPP_DT_YUV422_8;
1354:Lib/Camera_Middleware/cmw_camera.c ****       break;
1355:Lib/Camera_Middleware/cmw_camera.c ****     }
1356:Lib/Camera_Middleware/cmw_camera.c ****     case CMW_PIXEL_FORMAT_DEFAULT:
1357:Lib/Camera_Middleware/cmw_camera.c ****     case CMW_PIXEL_FORMAT_RGB565:
1358:Lib/Camera_Middleware/cmw_camera.c ****     {
1359:Lib/Camera_Middleware/cmw_camera.c ****       dt_format = DCMIPP_CSI_DT_BPP8;
1360:Lib/Camera_Middleware/cmw_camera.c ****       dt = DCMIPP_DT_RGB565;
1361:Lib/Camera_Middleware/cmw_camera.c ****       break;
1362:Lib/Camera_Middleware/cmw_camera.c ****     }
1363:Lib/Camera_Middleware/cmw_camera.c ****     case CMW_PIXEL_FORMAT_RGB888:
1364:Lib/Camera_Middleware/cmw_camera.c ****     {
1365:Lib/Camera_Middleware/cmw_camera.c ****       dt_format = DCMIPP_CSI_DT_BPP8;
1366:Lib/Camera_Middleware/cmw_camera.c ****       dt = DCMIPP_DT_RGB888;
1367:Lib/Camera_Middleware/cmw_camera.c ****       break;
1368:Lib/Camera_Middleware/cmw_camera.c ****     }
1369:Lib/Camera_Middleware/cmw_camera.c ****     case CMW_PIXEL_FORMAT_RAW8:
1370:Lib/Camera_Middleware/cmw_camera.c ****     {
1371:Lib/Camera_Middleware/cmw_camera.c ****       dt_format = DCMIPP_CSI_DT_BPP8;
1372:Lib/Camera_Middleware/cmw_camera.c ****       dt = DCMIPP_DT_RAW8;
1373:Lib/Camera_Middleware/cmw_camera.c ****       break;
1374:Lib/Camera_Middleware/cmw_camera.c ****     }
1375:Lib/Camera_Middleware/cmw_camera.c ****     default:
1376:Lib/Camera_Middleware/cmw_camera.c ****       return CMW_ERROR_COMPONENT_FAILURE;
1377:Lib/Camera_Middleware/cmw_camera.c ****       break;
 647              		.loc 1 1377 7 is_stmt 1 view .LVU212
1378:Lib/Camera_Middleware/cmw_camera.c ****   }
1379:Lib/Camera_Middleware/cmw_camera.c **** 
1380:Lib/Camera_Middleware/cmw_camera.c ****   ret = HAL_DCMIPP_CSI_SetVCConfig(&hcamera_dcmipp, DCMIPP_VIRTUAL_CHANNEL0, dt_format);
 648              		.loc 1 1380 3 view .LVU213
 649              		.loc 1 1380 9 is_stmt 0 view .LVU214
 650 01ba 0021     		movs	r1, #0
 651 01bc 0222     		movs	r2, #2
 652 01be 2248     		ldr	r0, .L131+36
 653              	.LVL41:
 654              		.loc 1 1380 9 view .LVU215
 655 01c0 FFF7FEFF 		bl	HAL_DCMIPP_CSI_SetVCConfig
 656              	.LVL42:
1381:Lib/Camera_Middleware/cmw_camera.c ****   if (ret != HAL_OK)
 657              		.loc 1 1381 3 is_stmt 1 view .LVU216
 658              		.loc 1 1381 6 is_stmt 0 view .LVU217
ARM GAS  C:\Users\DJESSOU\AppData\Local\Temp\cc3dm0Vf.s 			page 39


 659 01c4 0146     		mov	r1, r0
 660 01c6 0028     		cmp	r0, #0
 661 01c8 90D1     		bne	.L24
1382:Lib/Camera_Middleware/cmw_camera.c ****   {
1383:Lib/Camera_Middleware/cmw_camera.c ****     return CMW_ERROR_PERIPH_FAILURE;
1384:Lib/Camera_Middleware/cmw_camera.c ****   }
1385:Lib/Camera_Middleware/cmw_camera.c **** 
1386:Lib/Camera_Middleware/cmw_camera.c ****   csi_pipe_conf.DataTypeMode = DCMIPP_DTMODE_DTIDA;
 662              		.loc 1 1386 3 is_stmt 1 view .LVU218
1387:Lib/Camera_Middleware/cmw_camera.c ****   csi_pipe_conf.DataTypeIDA = dt;
 663              		.loc 1 1387 29 is_stmt 0 view .LVU219
 664 01ca CDE9050B 		strd	r0, fp, [sp, #20]
1388:Lib/Camera_Middleware/cmw_camera.c ****   csi_pipe_conf.DataTypeIDB = 0;
 665              		.loc 1 1388 3 is_stmt 1 view .LVU220
 666              	.LBB55:
1389:Lib/Camera_Middleware/cmw_camera.c ****   /* Pre-initialize CSI config for all the pipes */
1390:Lib/Camera_Middleware/cmw_camera.c ****   for (uint32_t i = DCMIPP_PIPE0; i <= DCMIPP_PIPE2; i++)
1391:Lib/Camera_Middleware/cmw_camera.c ****   {
1392:Lib/Camera_Middleware/cmw_camera.c ****     ret = HAL_DCMIPP_CSI_PIPE_SetConfig(&hcamera_dcmipp, i, &csi_pipe_conf);
 667              		.loc 1 1392 11 is_stmt 0 view .LVU221
 668 01ce DFF878B0 		ldr	fp, .L131+36
 669              	.LVL43:
 670              		.loc 1 1392 11 view .LVU222
 671              	.LBE55:
1388:Lib/Camera_Middleware/cmw_camera.c ****   csi_pipe_conf.DataTypeIDB = 0;
 672              		.loc 1 1388 29 view .LVU223
 673 01d2 0790     		str	r0, [sp, #28]
1390:Lib/Camera_Middleware/cmw_camera.c ****   {
 674              		.loc 1 1390 3 is_stmt 1 view .LVU224
 675              	.LBB56:
1390:Lib/Camera_Middleware/cmw_camera.c ****   {
 676              		.loc 1 1390 8 view .LVU225
 677              	.LVL44:
1390:Lib/Camera_Middleware/cmw_camera.c ****   {
 678              		.loc 1 1390 37 discriminator 1 view .LVU226
 679              	.L31:
 680              		.loc 1 1392 5 view .LVU227
 681              		.loc 1 1392 11 is_stmt 0 view .LVU228
 682 01d4 5846     		mov	r0, fp
 683 01d6 05AA     		add	r2, sp, #20
 684 01d8 0191     		str	r1, [sp, #4]
 685 01da FFF7FEFF 		bl	HAL_DCMIPP_CSI_PIPE_SetConfig
 686              	.LVL45:
1393:Lib/Camera_Middleware/cmw_camera.c ****     if (ret != HAL_OK)
 687              		.loc 1 1393 5 is_stmt 1 view .LVU229
 688              		.loc 1 1393 8 is_stmt 0 view .LVU230
 689 01de 0028     		cmp	r0, #0
 690 01e0 84D1     		bne	.L24
1390:Lib/Camera_Middleware/cmw_camera.c ****   {
 691              		.loc 1 1390 55 is_stmt 1 discriminator 2 view .LVU231
 692 01e2 0199     		ldr	r1, [sp, #4]
 693 01e4 0131     		adds	r1, r1, #1
 694              	.LVL46:
1390:Lib/Camera_Middleware/cmw_camera.c ****   {
 695              		.loc 1 1390 37 discriminator 1 view .LVU232
 696 01e6 0329     		cmp	r1, #3
 697 01e8 F4D1     		bne	.L31
ARM GAS  C:\Users\DJESSOU\AppData\Local\Temp\cc3dm0Vf.s 			page 40


 698              	.LVL47:
1390:Lib/Camera_Middleware/cmw_camera.c ****   {
 699              		.loc 1 1390 37 is_stmt 0 discriminator 1 view .LVU233
 700              	.LBE56:
 701              	.LBE60:
 702              	.LBE70:
 252:Lib/Camera_Middleware/cmw_camera.c ****   {
 703              		.loc 1 252 3 is_stmt 1 view .LVU234
 254:Lib/Camera_Middleware/cmw_camera.c ****     return ret;
 704              		.loc 1 254 5 view .LVU235
 255:Lib/Camera_Middleware/cmw_camera.c ****   }
 705              		.loc 1 255 5 view .LVU236
 255:Lib/Camera_Middleware/cmw_camera.c ****   }
 706              		.loc 1 255 12 is_stmt 0 view .LVU237
 707 01ea 0424     		movs	r4, #4
 708              	.LVL48:
 255:Lib/Camera_Middleware/cmw_camera.c ****   }
 709              		.loc 1 255 12 view .LVU238
 710 01ec D0E1     		b	.L74
 711              	.LVL49:
 712              	.L75:
 713              	.LBB71:
 714              	.LBB61:
1347:Lib/Camera_Middleware/cmw_camera.c ****   {
 715              		.loc 1 1347 3 view .LVU239
 716 01ee 4FF0220B 		mov	fp, #34
 717 01f2 E2E7     		b	.L29
 718              	.LVL50:
 719              	.L76:
1347:Lib/Camera_Middleware/cmw_camera.c ****   {
 720              		.loc 1 1347 3 view .LVU240
 721              	.LBE61:
 722              	.LBE71:
 723              	.LBB72:
 724              	.LBB69:
1146:Lib/Camera_Middleware/cmw_camera.c ****       dt = DCMIPP_DT_RAW8;
 725              		.loc 1 1146 17 view .LVU241
 726 01f4 0222     		movs	r2, #2
 727              	.L40:
 728              	.LVL51:
1161:Lib/Camera_Middleware/cmw_camera.c ****   if (ret != HAL_OK)
 729              		.loc 1 1161 3 is_stmt 1 view .LVU242
1161:Lib/Camera_Middleware/cmw_camera.c ****   if (ret != HAL_OK)
 730              		.loc 1 1161 9 is_stmt 0 view .LVU243
 731 01f6 0021     		movs	r1, #0
 732 01f8 1348     		ldr	r0, .L131+36
 733              	.LVL52:
1161:Lib/Camera_Middleware/cmw_camera.c ****   if (ret != HAL_OK)
 734              		.loc 1 1161 9 view .LVU244
 735 01fa FFF7FEFF 		bl	HAL_DCMIPP_CSI_SetVCConfig
 736              	.LVL53:
1162:Lib/Camera_Middleware/cmw_camera.c ****   {
 737              		.loc 1 1162 3 is_stmt 1 view .LVU245
1162:Lib/Camera_Middleware/cmw_camera.c ****   {
 738              		.loc 1 1162 6 is_stmt 0 view .LVU246
 739 01fe 0146     		mov	r1, r0
 740 0200 40BB     		cbnz	r0, .L34
ARM GAS  C:\Users\DJESSOU\AppData\Local\Temp\cc3dm0Vf.s 			page 41


1167:Lib/Camera_Middleware/cmw_camera.c ****   csi_pipe_conf.DataTypeIDA = dt;
 741              		.loc 1 1167 3 is_stmt 1 view .LVU247
1168:Lib/Camera_Middleware/cmw_camera.c ****   csi_pipe_conf.DataTypeIDB = 0;
 742              		.loc 1 1168 29 is_stmt 0 view .LVU248
 743 0202 CDE9080B 		strd	r0, fp, [sp, #32]
1169:Lib/Camera_Middleware/cmw_camera.c ****   /* Pre-initialize CSI config for all the pipes */
 744              		.loc 1 1169 3 is_stmt 1 view .LVU249
 745              	.LBB67:
1173:Lib/Camera_Middleware/cmw_camera.c ****     if (ret != HAL_OK)
 746              		.loc 1 1173 11 is_stmt 0 view .LVU250
 747 0206 DFF840B0 		ldr	fp, .L131+36
 748              	.LVL54:
1173:Lib/Camera_Middleware/cmw_camera.c ****     if (ret != HAL_OK)
 749              		.loc 1 1173 11 view .LVU251
 750              	.LBE67:
1169:Lib/Camera_Middleware/cmw_camera.c ****   /* Pre-initialize CSI config for all the pipes */
 751              		.loc 1 1169 29 view .LVU252
 752 020a 0A90     		str	r0, [sp, #40]
1171:Lib/Camera_Middleware/cmw_camera.c ****   {
 753              		.loc 1 1171 3 is_stmt 1 view .LVU253
 754              	.LBB68:
1171:Lib/Camera_Middleware/cmw_camera.c ****   {
 755              		.loc 1 1171 8 view .LVU254
 756              	.LVL55:
1171:Lib/Camera_Middleware/cmw_camera.c ****   {
 757              		.loc 1 1171 37 discriminator 1 view .LVU255
 758              	.L41:
1173:Lib/Camera_Middleware/cmw_camera.c ****     if (ret != HAL_OK)
 759              		.loc 1 1173 5 view .LVU256
1173:Lib/Camera_Middleware/cmw_camera.c ****     if (ret != HAL_OK)
 760              		.loc 1 1173 11 is_stmt 0 view .LVU257
 761 020c 5846     		mov	r0, fp
 762 020e 08AA     		add	r2, sp, #32
 763 0210 0191     		str	r1, [sp, #4]
 764 0212 FFF7FEFF 		bl	HAL_DCMIPP_CSI_PIPE_SetConfig
 765              	.LVL56:
1174:Lib/Camera_Middleware/cmw_camera.c ****     {
 766              		.loc 1 1174 5 is_stmt 1 view .LVU258
1174:Lib/Camera_Middleware/cmw_camera.c ****     {
 767              		.loc 1 1174 8 is_stmt 0 view .LVU259
 768 0216 E8B9     		cbnz	r0, .L34
1171:Lib/Camera_Middleware/cmw_camera.c ****   {
 769              		.loc 1 1171 55 is_stmt 1 discriminator 2 view .LVU260
 770 0218 0199     		ldr	r1, [sp, #4]
 771 021a 0131     		adds	r1, r1, #1
 772              	.LVL57:
1171:Lib/Camera_Middleware/cmw_camera.c ****   {
 773              		.loc 1 1171 37 discriminator 1 view .LVU261
 774 021c 0329     		cmp	r1, #3
 775 021e F5D1     		bne	.L41
 776              	.LVL58:
1171:Lib/Camera_Middleware/cmw_camera.c ****   {
 777              		.loc 1 1171 37 is_stmt 0 discriminator 1 view .LVU262
 778              	.LBE68:
 779              	.LBE69:
 780              	.LBE72:
 260:Lib/Camera_Middleware/cmw_camera.c ****   {
ARM GAS  C:\Users\DJESSOU\AppData\Local\Temp\cc3dm0Vf.s 			page 42


 781              		.loc 1 260 3 is_stmt 1 view .LVU263
 262:Lib/Camera_Middleware/cmw_camera.c ****     return ret;
 782              		.loc 1 262 5 view .LVU264
 263:Lib/Camera_Middleware/cmw_camera.c ****   }
 783              		.loc 1 263 5 view .LVU265
 263:Lib/Camera_Middleware/cmw_camera.c ****   }
 784              		.loc 1 263 12 is_stmt 0 view .LVU266
 785 0220 0524     		movs	r4, #5
 786              	.LVL59:
 263:Lib/Camera_Middleware/cmw_camera.c ****   }
 787              		.loc 1 263 12 view .LVU267
 788 0222 B5E1     		b	.L74
 789              	.L132:
 790              		.align	2
 791              	.L131:
 792 0224 00000000 		.word	BSP_I2C1_ReadReg16
 793 0228 00000000 		.word	BSP_GetTick
 794 022c 00000000 		.word	BSP_I2C1_WriteReg16
 795 0230 00000000 		.word	HAL_Delay
 796 0234 00000000 		.word	CMW_CAMERA_EnablePin
 797 0238 00000000 		.word	CMW_CAMERA_ShutdownPin
 798 023c 00000000 		.word	Camera_Drv
 799 0240 00000000 		.word	connected_sensor
 800 0244 00000000 		.word	camera_bsp
 801 0248 00000000 		.word	hcamera_dcmipp
 802 024c 00000000 		.word	BSP_I2C1_Init
 803 0250 00000000 		.word	BSP_I2C1_DeInit
 804              	.LVL60:
 805              	.L34:
 275:Lib/Camera_Middleware/cmw_camera.c ****   if (ret == CMW_ERROR_NONE)
 806              		.loc 1 275 3 is_stmt 1 view .LVU268
 807              	.LBB73:
 808              	.LBI73:
1394:Lib/Camera_Middleware/cmw_camera.c ****     {
1395:Lib/Camera_Middleware/cmw_camera.c ****       return CMW_ERROR_PERIPH_FAILURE;
1396:Lib/Camera_Middleware/cmw_camera.c ****     }
1397:Lib/Camera_Middleware/cmw_camera.c ****   }
1398:Lib/Camera_Middleware/cmw_camera.c **** 
1399:Lib/Camera_Middleware/cmw_camera.c ****   return CMW_ERROR_NONE;
1400:Lib/Camera_Middleware/cmw_camera.c **** }
1401:Lib/Camera_Middleware/cmw_camera.c **** #endif
1402:Lib/Camera_Middleware/cmw_camera.c **** 
1403:Lib/Camera_Middleware/cmw_camera.c **** #if defined(USE_VD66GY_SENSOR)
1404:Lib/Camera_Middleware/cmw_camera.c **** static int32_t CMW_CAMERA_VD66GY_Init( CMW_Sensor_Init_t *initSensors_params)
 809              		.loc 1 1404 16 view .LVU269
 810              	.LBB74:
1405:Lib/Camera_Middleware/cmw_camera.c **** {
1406:Lib/Camera_Middleware/cmw_camera.c ****   int32_t ret = CMW_ERROR_NONE;
 811              		.loc 1 1406 3 view .LVU270
1407:Lib/Camera_Middleware/cmw_camera.c ****   DCMIPP_CSI_ConfTypeDef csi_conf = { 0 };
 812              		.loc 1 1407 3 view .LVU271
 813              		.loc 1 1407 26 is_stmt 0 view .LVU272
 814 0254 0021     		movs	r1, #0
1408:Lib/Camera_Middleware/cmw_camera.c ****   DCMIPP_CSI_PIPE_ConfTypeDef csi_pipe_conf = { 0 };
1409:Lib/Camera_Middleware/cmw_camera.c ****   uint32_t dt_format = 0;
1410:Lib/Camera_Middleware/cmw_camera.c ****   uint32_t dt = 0;
1411:Lib/Camera_Middleware/cmw_camera.c ****   CMW_VD66GY_config_t default_sensor_config;
ARM GAS  C:\Users\DJESSOU\AppData\Local\Temp\cc3dm0Vf.s 			page 43


1412:Lib/Camera_Middleware/cmw_camera.c ****   CMW_VD66GY_config_t *sensor_config;
1413:Lib/Camera_Middleware/cmw_camera.c **** 
1414:Lib/Camera_Middleware/cmw_camera.c ****   memset(&camera_bsp, 0, sizeof(camera_bsp));
 815              		.loc 1 1414 3 view .LVU273
 816 0256 4FF4B472 		mov	r2, #360
1407:Lib/Camera_Middleware/cmw_camera.c ****   DCMIPP_CSI_ConfTypeDef csi_conf = { 0 };
 817              		.loc 1 1407 26 view .LVU274
 818 025a 0291     		str	r1, [sp, #8]
 819              		.loc 1 1414 3 view .LVU275
 820 025c 3E48     		ldr	r0, .L133
1407:Lib/Camera_Middleware/cmw_camera.c ****   DCMIPP_CSI_ConfTypeDef csi_conf = { 0 };
 821              		.loc 1 1407 26 view .LVU276
 822 025e C5E90111 		strd	r1, r1, [r5, #4]
1408:Lib/Camera_Middleware/cmw_camera.c ****   DCMIPP_CSI_PIPE_ConfTypeDef csi_pipe_conf = { 0 };
 823              		.loc 1 1408 3 is_stmt 1 view .LVU277
1408:Lib/Camera_Middleware/cmw_camera.c ****   DCMIPP_CSI_PIPE_ConfTypeDef csi_pipe_conf = { 0 };
 824              		.loc 1 1408 31 is_stmt 0 view .LVU278
 825 0262 CDE90511 		strd	r1, r1, [sp, #20]
 826 0266 0791     		str	r1, [sp, #28]
1409:Lib/Camera_Middleware/cmw_camera.c ****   uint32_t dt = 0;
 827              		.loc 1 1409 3 is_stmt 1 view .LVU279
 828              	.LVL61:
1410:Lib/Camera_Middleware/cmw_camera.c ****   CMW_VD66GY_config_t default_sensor_config;
 829              		.loc 1 1410 3 view .LVU280
1411:Lib/Camera_Middleware/cmw_camera.c ****   CMW_VD66GY_config_t *sensor_config;
 830              		.loc 1 1411 3 view .LVU281
1412:Lib/Camera_Middleware/cmw_camera.c **** 
 831              		.loc 1 1412 3 view .LVU282
 832              		.loc 1 1414 3 view .LVU283
 833 0268 FFF7FEFF 		bl	memset
 834              	.LVL62:
1415:Lib/Camera_Middleware/cmw_camera.c ****   camera_bsp.vd66gy_bsp.Address     = CAMERA_VD66GY_ADDRESS;
 835              		.loc 1 1415 3 view .LVU284
 836              		.loc 1 1415 37 is_stmt 0 view .LVU285
 837 026c 2022     		movs	r2, #32
 838 026e A8F80020 		strh	r2, [r8]	@ movhi
1416:Lib/Camera_Middleware/cmw_camera.c ****   camera_bsp.vd66gy_bsp.Init        = CMW_I2C_INIT;
 839              		.loc 1 1416 3 is_stmt 1 view .LVU286
1417:Lib/Camera_Middleware/cmw_camera.c ****   camera_bsp.vd66gy_bsp.DeInit      = CMW_I2C_DEINIT;
1418:Lib/Camera_Middleware/cmw_camera.c ****   camera_bsp.vd66gy_bsp.ReadReg     = CMW_I2C_READREG16;
1419:Lib/Camera_Middleware/cmw_camera.c ****   camera_bsp.vd66gy_bsp.WriteReg    = CMW_I2C_WRITEREG16;
1420:Lib/Camera_Middleware/cmw_camera.c ****   camera_bsp.vd66gy_bsp.Delay       = HAL_Delay;
1421:Lib/Camera_Middleware/cmw_camera.c ****   camera_bsp.vd66gy_bsp.ShutdownPin = CMW_CAMERA_ShutdownPin;
1422:Lib/Camera_Middleware/cmw_camera.c ****   camera_bsp.vd66gy_bsp.EnablePin   = CMW_CAMERA_EnablePin;
 840              		.loc 1 1422 37 is_stmt 0 view .LVU287
 841 0272 3A4A     		ldr	r2, .L133+4
1418:Lib/Camera_Middleware/cmw_camera.c ****   camera_bsp.vd66gy_bsp.WriteReg    = CMW_I2C_WRITEREG16;
 842              		.loc 1 1418 37 view .LVU288
 843 0274 3A4B     		ldr	r3, .L133+8
 844              		.loc 1 1422 37 view .LVU289
 845 0276 C8F84021 		str	r2, [r8, #320]
1423:Lib/Camera_Middleware/cmw_camera.c ****   camera_bsp.vd66gy_bsp.hdcmipp     = &hcamera_dcmipp;
 846              		.loc 1 1423 37 view .LVU290
 847 027a 3A4A     		ldr	r2, .L133+12
1419:Lib/Camera_Middleware/cmw_camera.c ****   camera_bsp.vd66gy_bsp.Delay       = HAL_Delay;
 848              		.loc 1 1419 37 view .LVU291
 849 027c C8E94B73 		strd	r7, r3, [r8, #300]
ARM GAS  C:\Users\DJESSOU\AppData\Local\Temp\cc3dm0Vf.s 			page 44


 850              		.loc 1 1423 37 view .LVU292
 851 0280 C8F81C21 		str	r2, [r8, #284]
1424:Lib/Camera_Middleware/cmw_camera.c ****   camera_bsp.vd66gy_bsp.appliHelpers.SetSensorGain = CB_ISP_SetSensorGain;
 852              		.loc 1 1424 52 view .LVU293
 853 0284 384A     		ldr	r2, .L133+16
1421:Lib/Camera_Middleware/cmw_camera.c ****   camera_bsp.vd66gy_bsp.EnablePin   = CMW_CAMERA_EnablePin;
 854              		.loc 1 1421 37 view .LVU294
 855 0286 394B     		ldr	r3, .L133+20
 856              		.loc 1 1424 52 view .LVU295
 857 0288 C8F80821 		str	r2, [r8, #264]
1425:Lib/Camera_Middleware/cmw_camera.c ****   camera_bsp.vd66gy_bsp.appliHelpers.GetSensorGain = CB_ISP_GetSensorGain;
 858              		.loc 1 1425 52 view .LVU296
 859 028c 384A     		ldr	r2, .L133+24
1426:Lib/Camera_Middleware/cmw_camera.c ****   camera_bsp.vd66gy_bsp.appliHelpers.SetSensorExposure = CB_ISP_SetSensorExposure;
1427:Lib/Camera_Middleware/cmw_camera.c ****   camera_bsp.vd66gy_bsp.appliHelpers.GetSensorExposure = CB_ISP_GetSensorExposure;
1428:Lib/Camera_Middleware/cmw_camera.c ****   camera_bsp.vd66gy_bsp.appliHelpers.GetSensorInfo = CB_ISP_GetSensorInfo;
1429:Lib/Camera_Middleware/cmw_camera.c **** 
1430:Lib/Camera_Middleware/cmw_camera.c ****   ret = CMW_VD66GY_Probe(&camera_bsp.vd66gy_bsp, &Camera_Drv);
 860              		.loc 1 1430 9 view .LVU297
 861 028e 3949     		ldr	r1, .L133+28
1425:Lib/Camera_Middleware/cmw_camera.c ****   camera_bsp.vd66gy_bsp.appliHelpers.GetSensorGain = CB_ISP_GetSensorGain;
 862              		.loc 1 1425 52 view .LVU298
 863 0290 C8F80C21 		str	r2, [r8, #268]
1426:Lib/Camera_Middleware/cmw_camera.c ****   camera_bsp.vd66gy_bsp.appliHelpers.SetSensorExposure = CB_ISP_SetSensorExposure;
 864              		.loc 1 1426 56 view .LVU299
 865 0294 384A     		ldr	r2, .L133+32
 866              		.loc 1 1430 9 view .LVU300
 867 0296 3048     		ldr	r0, .L133
1426:Lib/Camera_Middleware/cmw_camera.c ****   camera_bsp.vd66gy_bsp.appliHelpers.SetSensorExposure = CB_ISP_SetSensorExposure;
 868              		.loc 1 1426 56 view .LVU301
 869 0298 C8F81021 		str	r2, [r8, #272]
1427:Lib/Camera_Middleware/cmw_camera.c ****   camera_bsp.vd66gy_bsp.appliHelpers.GetSensorInfo = CB_ISP_GetSensorInfo;
 870              		.loc 1 1427 56 view .LVU302
 871 029c 374A     		ldr	r2, .L133+36
1417:Lib/Camera_Middleware/cmw_camera.c ****   camera_bsp.vd66gy_bsp.ReadReg     = CMW_I2C_READREG16;
 872              		.loc 1 1417 37 view .LVU303
 873 029e C8E949A9 		strd	r10, r9, [r8, #292]
1418:Lib/Camera_Middleware/cmw_camera.c ****   camera_bsp.vd66gy_bsp.WriteReg    = CMW_I2C_WRITEREG16;
 874              		.loc 1 1418 3 is_stmt 1 view .LVU304
1420:Lib/Camera_Middleware/cmw_camera.c ****   camera_bsp.vd66gy_bsp.ShutdownPin = CMW_CAMERA_ShutdownPin;
 875              		.loc 1 1420 3 view .LVU305
1427:Lib/Camera_Middleware/cmw_camera.c ****   camera_bsp.vd66gy_bsp.appliHelpers.GetSensorInfo = CB_ISP_GetSensorInfo;
 876              		.loc 1 1427 56 is_stmt 0 view .LVU306
 877 02a2 C8F81421 		str	r2, [r8, #276]
1428:Lib/Camera_Middleware/cmw_camera.c **** 
 878              		.loc 1 1428 52 view .LVU307
 879 02a6 364A     		ldr	r2, .L133+40
1420:Lib/Camera_Middleware/cmw_camera.c ****   camera_bsp.vd66gy_bsp.ShutdownPin = CMW_CAMERA_ShutdownPin;
 880              		.loc 1 1420 37 view .LVU308
 881 02a8 C8F83861 		str	r6, [r8, #312]
1421:Lib/Camera_Middleware/cmw_camera.c ****   camera_bsp.vd66gy_bsp.EnablePin   = CMW_CAMERA_EnablePin;
 882              		.loc 1 1421 3 is_stmt 1 view .LVU309
1421:Lib/Camera_Middleware/cmw_camera.c ****   camera_bsp.vd66gy_bsp.EnablePin   = CMW_CAMERA_EnablePin;
 883              		.loc 1 1421 37 is_stmt 0 view .LVU310
 884 02ac C8F83C31 		str	r3, [r8, #316]
1422:Lib/Camera_Middleware/cmw_camera.c ****   camera_bsp.vd66gy_bsp.hdcmipp     = &hcamera_dcmipp;
 885              		.loc 1 1422 3 is_stmt 1 view .LVU311
ARM GAS  C:\Users\DJESSOU\AppData\Local\Temp\cc3dm0Vf.s 			page 45


1423:Lib/Camera_Middleware/cmw_camera.c ****   camera_bsp.vd66gy_bsp.appliHelpers.SetSensorGain = CB_ISP_SetSensorGain;
 886              		.loc 1 1423 3 view .LVU312
1424:Lib/Camera_Middleware/cmw_camera.c ****   camera_bsp.vd66gy_bsp.appliHelpers.GetSensorGain = CB_ISP_GetSensorGain;
 887              		.loc 1 1424 3 view .LVU313
1425:Lib/Camera_Middleware/cmw_camera.c ****   camera_bsp.vd66gy_bsp.appliHelpers.SetSensorExposure = CB_ISP_SetSensorExposure;
 888              		.loc 1 1425 3 view .LVU314
1426:Lib/Camera_Middleware/cmw_camera.c ****   camera_bsp.vd66gy_bsp.appliHelpers.GetSensorExposure = CB_ISP_GetSensorExposure;
 889              		.loc 1 1426 3 view .LVU315
1427:Lib/Camera_Middleware/cmw_camera.c ****   camera_bsp.vd66gy_bsp.appliHelpers.GetSensorInfo = CB_ISP_GetSensorInfo;
 890              		.loc 1 1427 3 view .LVU316
1428:Lib/Camera_Middleware/cmw_camera.c **** 
 891              		.loc 1 1428 3 view .LVU317
1428:Lib/Camera_Middleware/cmw_camera.c **** 
 892              		.loc 1 1428 52 is_stmt 0 view .LVU318
 893 02b0 C8F80421 		str	r2, [r8, #260]
 894              		.loc 1 1430 3 is_stmt 1 view .LVU319
 895              		.loc 1 1430 9 is_stmt 0 view .LVU320
 896 02b4 FFF7FEFF 		bl	CMW_VD66GY_Probe
 897              	.LVL63:
1431:Lib/Camera_Middleware/cmw_camera.c ****   if (ret != CMW_ERROR_NONE)
 898              		.loc 1 1431 3 is_stmt 1 view .LVU321
 899              		.loc 1 1431 6 is_stmt 0 view .LVU322
 900 02b8 0028     		cmp	r0, #0
 901 02ba 65D1     		bne	.L45
1432:Lib/Camera_Middleware/cmw_camera.c ****   {
1433:Lib/Camera_Middleware/cmw_camera.c ****     return CMW_ERROR_COMPONENT_FAILURE;
1434:Lib/Camera_Middleware/cmw_camera.c ****   }
1435:Lib/Camera_Middleware/cmw_camera.c **** 
1436:Lib/Camera_Middleware/cmw_camera.c ****   if ((connected_sensor != CMW_VD66GY_Sensor) && (connected_sensor != CMW_UNKNOWN_Sensor))
 902              		.loc 1 1436 3 is_stmt 1 view .LVU323
 903              		.loc 1 1436 47 is_stmt 0 view .LVU324
 904 02bc 314A     		ldr	r2, .L133+44
 905              		.loc 1 1436 6 view .LVU325
 906 02be 1278     		ldrb	r2, [r2]	@ zero_extendqisi2
 907 02c0 012A     		cmp	r2, #1
 908 02c2 61D8     		bhi	.L45
1437:Lib/Camera_Middleware/cmw_camera.c ****   {
1438:Lib/Camera_Middleware/cmw_camera.c ****     /* If the selected sensor in the application side has selected a different sensors than VD66GY 
1439:Lib/Camera_Middleware/cmw_camera.c ****     return CMW_ERROR_COMPONENT_FAILURE;
1440:Lib/Camera_Middleware/cmw_camera.c ****   }
1441:Lib/Camera_Middleware/cmw_camera.c **** 
1442:Lib/Camera_Middleware/cmw_camera.c ****   /* Special case: when resolution is not specified take the full sensor resolution */
1443:Lib/Camera_Middleware/cmw_camera.c ****   if ((initSensors_params->width == 0) || (initSensors_params->height == 0))
 909              		.loc 1 1443 3 is_stmt 1 view .LVU326
 910              		.loc 1 1443 6 is_stmt 0 view .LVU327
 911 02c4 2268     		ldr	r2, [r4]
 912 02c6 0DF1200B 		add	fp, sp, #32
 913 02ca 0AB1     		cbz	r2, .L47
 914              		.loc 1 1443 40 discriminator 1 view .LVU328
 915 02cc 6268     		ldr	r2, [r4, #4]
 916 02ce 42B9     		cbnz	r2, .L48
 917              	.L47:
 918              	.LBB75:
1444:Lib/Camera_Middleware/cmw_camera.c ****   {
1445:Lib/Camera_Middleware/cmw_camera.c ****     ISP_SensorInfoTypeDef sensor_info;
 919              		.loc 1 1445 5 is_stmt 1 view .LVU329
1446:Lib/Camera_Middleware/cmw_camera.c ****     Camera_Drv.GetSensorInfo(&camera_bsp, &sensor_info);
ARM GAS  C:\Users\DJESSOU\AppData\Local\Temp\cc3dm0Vf.s 			page 46


 920              		.loc 1 1446 5 view .LVU330
 921              		.loc 1 1446 15 is_stmt 0 view .LVU331
 922 02d0 284A     		ldr	r2, .L133+28
 923              		.loc 1 1446 5 view .LVU332
 924 02d2 5946     		mov	r1, fp
 925 02d4 126E     		ldr	r2, [r2, #96]
 926 02d6 2048     		ldr	r0, .L133
 927              	.LVL64:
 928              		.loc 1 1446 5 view .LVU333
 929 02d8 9047     		blx	r2
 930              	.LVL65:
1447:Lib/Camera_Middleware/cmw_camera.c ****     initSensors_params->width = sensor_info.width;
 931              		.loc 1 1447 5 is_stmt 1 view .LVU334
 932              		.loc 1 1447 31 is_stmt 0 view .LVU335
 933 02da 119A     		ldr	r2, [sp, #68]
 934 02dc 2260     		str	r2, [r4]
1448:Lib/Camera_Middleware/cmw_camera.c ****     initSensors_params->height = sensor_info.height;
 935              		.loc 1 1448 5 is_stmt 1 view .LVU336
 936              		.loc 1 1448 32 is_stmt 0 view .LVU337
 937 02de 129A     		ldr	r2, [sp, #72]
 938 02e0 6260     		str	r2, [r4, #4]
 939              	.L48:
 940              		.loc 1 1448 32 view .LVU338
 941              	.LBE75:
1449:Lib/Camera_Middleware/cmw_camera.c ****   }
1450:Lib/Camera_Middleware/cmw_camera.c **** 
1451:Lib/Camera_Middleware/cmw_camera.c ****   CMW_VD66GY_SetDefaultSensorValues(&default_sensor_config);
 942              		.loc 1 1451 3 is_stmt 1 view .LVU339
 943 02e2 5846     		mov	r0, fp
 944 02e4 FFF7FEFF 		bl	CMW_VD66GY_SetDefaultSensorValues
 945              	.LVL66:
1452:Lib/Camera_Middleware/cmw_camera.c ****   initSensors_params->sensor_config = initSensors_params->sensor_config ? initSensors_params->senso
 946              		.loc 1 1452 3 view .LVU340
 947              		.loc 1 1452 57 is_stmt 0 view .LVU341
 948 02e8 2269     		ldr	r2, [r4, #16]
1453:Lib/Camera_Middleware/cmw_camera.c ****   sensor_config = (CMW_VD66GY_config_t*) (initSensors_params->sensor_config);
1454:Lib/Camera_Middleware/cmw_camera.c **** 
1455:Lib/Camera_Middleware/cmw_camera.c ****   ret = Camera_Drv.Init(&camera_bsp, initSensors_params);
 949              		.loc 1 1455 19 view .LVU342
 950 02ea 2249     		ldr	r1, .L133+28
1452:Lib/Camera_Middleware/cmw_camera.c ****   initSensors_params->sensor_config = initSensors_params->sensor_config ? initSensors_params->senso
 951              		.loc 1 1452 109 discriminator 2 view .LVU343
 952 02ec 002A     		cmp	r2, #0
 953 02ee 08BF     		it	eq
 954 02f0 5A46     		moveq	r2, fp
 955              		.loc 1 1455 9 view .LVU344
 956 02f2 0B68     		ldr	r3, [r1]
 957 02f4 1848     		ldr	r0, .L133
 958 02f6 2146     		mov	r1, r4
1452:Lib/Camera_Middleware/cmw_camera.c ****   initSensors_params->sensor_config = initSensors_params->sensor_config ? initSensors_params->senso
 959              		.loc 1 1452 37 discriminator 4 view .LVU345
 960 02f8 2261     		str	r2, [r4, #16]
 961 02fa 0192     		str	r2, [sp, #4]
1453:Lib/Camera_Middleware/cmw_camera.c ****   sensor_config = (CMW_VD66GY_config_t*) (initSensors_params->sensor_config);
 962              		.loc 1 1453 3 is_stmt 1 view .LVU346
 963              	.LVL67:
 964              		.loc 1 1455 3 view .LVU347
ARM GAS  C:\Users\DJESSOU\AppData\Local\Temp\cc3dm0Vf.s 			page 47


 965              		.loc 1 1455 9 is_stmt 0 view .LVU348
 966 02fc 9847     		blx	r3
 967              	.LVL68:
1456:Lib/Camera_Middleware/cmw_camera.c ****   if (ret != CMW_ERROR_NONE)
 968              		.loc 1 1456 3 is_stmt 1 view .LVU349
 969              		.loc 1 1456 6 is_stmt 0 view .LVU350
 970 02fe 0028     		cmp	r0, #0
 971 0300 42D1     		bne	.L45
1457:Lib/Camera_Middleware/cmw_camera.c ****   {
1458:Lib/Camera_Middleware/cmw_camera.c ****     return CMW_ERROR_COMPONENT_FAILURE;
1459:Lib/Camera_Middleware/cmw_camera.c ****   }
1460:Lib/Camera_Middleware/cmw_camera.c **** 
1461:Lib/Camera_Middleware/cmw_camera.c ****   csi_conf.NumberOfLanes = DCMIPP_CSI_TWO_DATA_LANES;
 972              		.loc 1 1461 3 is_stmt 1 view .LVU351
1462:Lib/Camera_Middleware/cmw_camera.c ****   csi_conf.DataLaneMapping = DCMIPP_CSI_PHYSICAL_DATA_LANES;
 973              		.loc 1 1462 28 is_stmt 0 view .LVU352
 974 0302 0121     		movs	r1, #1
 975 0304 4FF4007C 		mov	ip, #512
 976 0308 CDE902C1 		strd	ip, r1, [sp, #8]
1463:Lib/Camera_Middleware/cmw_camera.c ****   csi_conf.PHYBitrate = DCMIPP_CSI_PHY_BT_800;
 977              		.loc 1 1463 3 is_stmt 1 view .LVU353
 978              		.loc 1 1463 23 is_stmt 0 view .LVU354
 979 030c 1C21     		movs	r1, #28
1464:Lib/Camera_Middleware/cmw_camera.c ****   ret = HAL_DCMIPP_CSI_SetConfig(&hcamera_dcmipp, &csi_conf);
 980              		.loc 1 1464 9 view .LVU355
 981 030e 1548     		ldr	r0, .L133+12
 982              	.LVL69:
1463:Lib/Camera_Middleware/cmw_camera.c ****   csi_conf.PHYBitrate = DCMIPP_CSI_PHY_BT_800;
 983              		.loc 1 1463 23 view .LVU356
 984 0310 0491     		str	r1, [sp, #16]
 985              		.loc 1 1464 3 is_stmt 1 view .LVU357
 986              		.loc 1 1464 9 is_stmt 0 view .LVU358
 987 0312 2946     		mov	r1, r5
 988 0314 FFF7FEFF 		bl	HAL_DCMIPP_CSI_SetConfig
 989              	.LVL70:
1465:Lib/Camera_Middleware/cmw_camera.c ****   if (ret != HAL_OK)
 990              		.loc 1 1465 3 is_stmt 1 view .LVU359
 991              		.loc 1 1465 6 is_stmt 0 view .LVU360
 992 0318 0028     		cmp	r0, #0
 993 031a 35D1     		bne	.L45
1466:Lib/Camera_Middleware/cmw_camera.c ****   {
1467:Lib/Camera_Middleware/cmw_camera.c ****     return CMW_ERROR_PERIPH_FAILURE;
1468:Lib/Camera_Middleware/cmw_camera.c ****   }
1469:Lib/Camera_Middleware/cmw_camera.c **** 
1470:Lib/Camera_Middleware/cmw_camera.c ****   switch (sensor_config->pixel_format)
 994              		.loc 1 1470 3 is_stmt 1 view .LVU361
 995              		.loc 1 1470 24 is_stmt 0 view .LVU362
 996 031c 019A     		ldr	r2, [sp, #4]
 997 031e 1268     		ldr	r2, [r2]
 998              		.loc 1 1470 3 view .LVU363
 999 0320 0AB1     		cbz	r2, .L50
 1000 0322 2A2A     		cmp	r2, #42
 1001 0324 30D1     		bne	.L45
 1002              	.L50:
1471:Lib/Camera_Middleware/cmw_camera.c ****   {
1472:Lib/Camera_Middleware/cmw_camera.c ****     case CMW_PIXEL_FORMAT_RAW8:
1473:Lib/Camera_Middleware/cmw_camera.c ****     case CMW_PIXEL_FORMAT_DEFAULT:
ARM GAS  C:\Users\DJESSOU\AppData\Local\Temp\cc3dm0Vf.s 			page 48


1474:Lib/Camera_Middleware/cmw_camera.c ****     {
1475:Lib/Camera_Middleware/cmw_camera.c ****       dt_format = DCMIPP_CSI_DT_BPP8;
 1003              		.loc 1 1475 7 is_stmt 1 view .LVU364
 1004              	.LVL71:
1476:Lib/Camera_Middleware/cmw_camera.c ****       dt = DCMIPP_DT_RAW8;
 1005              		.loc 1 1476 7 view .LVU365
1477:Lib/Camera_Middleware/cmw_camera.c ****       break;
 1006              		.loc 1 1477 7 view .LVU366
1478:Lib/Camera_Middleware/cmw_camera.c ****     }
1479:Lib/Camera_Middleware/cmw_camera.c ****     default:
1480:Lib/Camera_Middleware/cmw_camera.c ****       return CMW_ERROR_COMPONENT_FAILURE;
1481:Lib/Camera_Middleware/cmw_camera.c ****   }
1482:Lib/Camera_Middleware/cmw_camera.c **** 
1483:Lib/Camera_Middleware/cmw_camera.c ****   ret = HAL_DCMIPP_CSI_SetVCConfig(&hcamera_dcmipp, DCMIPP_VIRTUAL_CHANNEL0, dt_format);
 1007              		.loc 1 1483 3 view .LVU367
 1008              		.loc 1 1483 9 is_stmt 0 view .LVU368
 1009 0326 0021     		movs	r1, #0
 1010 0328 0222     		movs	r2, #2
 1011 032a 0E48     		ldr	r0, .L133+12
 1012              	.LVL72:
 1013              		.loc 1 1483 9 view .LVU369
 1014 032c FFF7FEFF 		bl	HAL_DCMIPP_CSI_SetVCConfig
 1015              	.LVL73:
1484:Lib/Camera_Middleware/cmw_camera.c ****   if (ret != HAL_OK)
 1016              		.loc 1 1484 3 is_stmt 1 view .LVU370
 1017              		.loc 1 1484 6 is_stmt 0 view .LVU371
 1018 0330 0146     		mov	r1, r0
 1019 0332 48BB     		cbnz	r0, .L45
1485:Lib/Camera_Middleware/cmw_camera.c ****   {
1486:Lib/Camera_Middleware/cmw_camera.c ****     return CMW_ERROR_PERIPH_FAILURE;
1487:Lib/Camera_Middleware/cmw_camera.c ****   }
1488:Lib/Camera_Middleware/cmw_camera.c **** 
1489:Lib/Camera_Middleware/cmw_camera.c ****   csi_pipe_conf.DataTypeMode = DCMIPP_DTMODE_DTIDA;
 1020              		.loc 1 1489 3 is_stmt 1 view .LVU372
1490:Lib/Camera_Middleware/cmw_camera.c ****   csi_pipe_conf.DataTypeIDA = dt;
 1021              		.loc 1 1490 29 is_stmt 0 view .LVU373
 1022 0334 2A22     		movs	r2, #42
1491:Lib/Camera_Middleware/cmw_camera.c ****   csi_pipe_conf.DataTypeIDB = 0;
 1023              		.loc 1 1491 29 view .LVU374
 1024 0336 CDE90620 		strd	r2, r0, [sp, #24]
 1025              	.LBB76:
1492:Lib/Camera_Middleware/cmw_camera.c ****   /* Pre-initialize CSI config for all the pipes */
1493:Lib/Camera_Middleware/cmw_camera.c ****   for (uint32_t i = DCMIPP_PIPE0; i <= DCMIPP_PIPE2; i++)
1494:Lib/Camera_Middleware/cmw_camera.c ****   {
1495:Lib/Camera_Middleware/cmw_camera.c ****     ret = HAL_DCMIPP_CSI_PIPE_SetConfig(&hcamera_dcmipp, i, &csi_pipe_conf);
 1026              		.loc 1 1495 11 view .LVU375
 1027 033a DFF828B0 		ldr	fp, .L133+12
 1028              	.LBE76:
1489:Lib/Camera_Middleware/cmw_camera.c ****   csi_pipe_conf.DataTypeIDA = dt;
 1029              		.loc 1 1489 30 view .LVU376
 1030 033e 0590     		str	r0, [sp, #20]
1490:Lib/Camera_Middleware/cmw_camera.c ****   csi_pipe_conf.DataTypeIDB = 0;
 1031              		.loc 1 1490 3 is_stmt 1 view .LVU377
1493:Lib/Camera_Middleware/cmw_camera.c ****   {
 1032              		.loc 1 1493 3 view .LVU378
 1033              	.LBB77:
1493:Lib/Camera_Middleware/cmw_camera.c ****   {
ARM GAS  C:\Users\DJESSOU\AppData\Local\Temp\cc3dm0Vf.s 			page 49


 1034              		.loc 1 1493 8 view .LVU379
 1035              	.LVL74:
1493:Lib/Camera_Middleware/cmw_camera.c ****   {
 1036              		.loc 1 1493 37 discriminator 1 view .LVU380
 1037              	.L51:
 1038              		.loc 1 1495 5 view .LVU381
 1039              		.loc 1 1495 11 is_stmt 0 view .LVU382
 1040 0340 5846     		mov	r0, fp
 1041 0342 05AA     		add	r2, sp, #20
 1042 0344 0191     		str	r1, [sp, #4]
 1043 0346 FFF7FEFF 		bl	HAL_DCMIPP_CSI_PIPE_SetConfig
 1044              	.LVL75:
1496:Lib/Camera_Middleware/cmw_camera.c ****     if (ret != HAL_OK)
 1045              		.loc 1 1496 5 is_stmt 1 view .LVU383
 1046              		.loc 1 1496 8 is_stmt 0 view .LVU384
 1047 034a E8B9     		cbnz	r0, .L45
1493:Lib/Camera_Middleware/cmw_camera.c ****   {
 1048              		.loc 1 1493 55 is_stmt 1 discriminator 2 view .LVU385
 1049 034c 0199     		ldr	r1, [sp, #4]
 1050 034e 0131     		adds	r1, r1, #1
 1051              	.LVL76:
1493:Lib/Camera_Middleware/cmw_camera.c ****   {
 1052              		.loc 1 1493 37 discriminator 1 view .LVU386
 1053 0350 0329     		cmp	r1, #3
 1054 0352 F5D1     		bne	.L51
 1055              	.LVL77:
1493:Lib/Camera_Middleware/cmw_camera.c ****   {
 1056              		.loc 1 1493 37 is_stmt 0 discriminator 1 view .LVU387
 1057              	.LBE77:
 1058              	.LBE74:
 1059              	.LBE73:
 276:Lib/Camera_Middleware/cmw_camera.c ****   {
 1060              		.loc 1 276 3 is_stmt 1 view .LVU388
 278:Lib/Camera_Middleware/cmw_camera.c ****     return ret;
 1061              		.loc 1 278 5 view .LVU389
 279:Lib/Camera_Middleware/cmw_camera.c ****   }
 1062              		.loc 1 279 5 view .LVU390
 279:Lib/Camera_Middleware/cmw_camera.c ****   }
 1063              		.loc 1 279 12 is_stmt 0 view .LVU391
 1064 0354 0124     		movs	r4, #1
 1065              	.LVL78:
 279:Lib/Camera_Middleware/cmw_camera.c ****   }
 1066              		.loc 1 279 12 view .LVU392
 1067 0356 1BE1     		b	.L74
 1068              	.L134:
 1069              		.align	2
 1070              	.L133:
 1071 0358 00000000 		.word	camera_bsp
 1072 035c 00000000 		.word	CMW_CAMERA_EnablePin
 1073 0360 00000000 		.word	BSP_I2C1_ReadReg16
 1074 0364 00000000 		.word	hcamera_dcmipp
 1075 0368 00000000 		.word	CB_ISP_SetSensorGain
 1076 036c 00000000 		.word	CMW_CAMERA_ShutdownPin
 1077 0370 00000000 		.word	CB_ISP_GetSensorGain
 1078 0374 00000000 		.word	Camera_Drv
 1079 0378 00000000 		.word	CB_ISP_SetSensorExposure
 1080 037c 00000000 		.word	CB_ISP_GetSensorExposure
ARM GAS  C:\Users\DJESSOU\AppData\Local\Temp\cc3dm0Vf.s 			page 50


 1081 0380 00000000 		.word	CB_ISP_GetSensorInfo
 1082 0384 00000000 		.word	connected_sensor
 1083              	.LVL79:
 1084              	.L45:
 291:Lib/Camera_Middleware/cmw_camera.c ****   if (ret == CMW_ERROR_NONE)
 1085              		.loc 1 291 3 is_stmt 1 view .LVU393
 1086              	.LBB78:
 1087              	.LBI78:
1497:Lib/Camera_Middleware/cmw_camera.c ****     {
1498:Lib/Camera_Middleware/cmw_camera.c ****       return CMW_ERROR_PERIPH_FAILURE;
1499:Lib/Camera_Middleware/cmw_camera.c ****     }
1500:Lib/Camera_Middleware/cmw_camera.c ****   }
1501:Lib/Camera_Middleware/cmw_camera.c **** 
1502:Lib/Camera_Middleware/cmw_camera.c ****   return CMW_ERROR_NONE;
1503:Lib/Camera_Middleware/cmw_camera.c **** }
1504:Lib/Camera_Middleware/cmw_camera.c **** #endif
1505:Lib/Camera_Middleware/cmw_camera.c **** 
1506:Lib/Camera_Middleware/cmw_camera.c **** #if defined(USE_VD56G3_SENSOR)
1507:Lib/Camera_Middleware/cmw_camera.c **** static int32_t CMW_CAMERA_VD56G3_Init( CMW_Sensor_Init_t *initSensors_params)
1508:Lib/Camera_Middleware/cmw_camera.c **** {
1509:Lib/Camera_Middleware/cmw_camera.c ****   int32_t ret = CMW_ERROR_NONE;
1510:Lib/Camera_Middleware/cmw_camera.c ****   DCMIPP_CSI_ConfTypeDef csi_conf = { 0 };
1511:Lib/Camera_Middleware/cmw_camera.c ****   DCMIPP_CSI_PIPE_ConfTypeDef csi_pipe_conf = { 0 };
1512:Lib/Camera_Middleware/cmw_camera.c ****   uint32_t dt_format = 0;
1513:Lib/Camera_Middleware/cmw_camera.c ****   uint32_t dt = 0;
1514:Lib/Camera_Middleware/cmw_camera.c ****   CMW_VD56G3_config_t default_sensor_config;
1515:Lib/Camera_Middleware/cmw_camera.c ****   CMW_VD56G3_config_t *sensor_config;
1516:Lib/Camera_Middleware/cmw_camera.c **** 
1517:Lib/Camera_Middleware/cmw_camera.c ****   memset(&camera_bsp, 0, sizeof(camera_bsp));
1518:Lib/Camera_Middleware/cmw_camera.c ****   camera_bsp.vd56g3_bsp.Address     = CAMERA_VD56G3_ADDRESS;
1519:Lib/Camera_Middleware/cmw_camera.c ****   camera_bsp.vd56g3_bsp.Init        = CMW_I2C_INIT;
1520:Lib/Camera_Middleware/cmw_camera.c ****   camera_bsp.vd56g3_bsp.DeInit      = CMW_I2C_DEINIT;
1521:Lib/Camera_Middleware/cmw_camera.c ****   camera_bsp.vd56g3_bsp.WriteReg    = CMW_I2C_WRITEREG16;
1522:Lib/Camera_Middleware/cmw_camera.c ****   camera_bsp.vd56g3_bsp.ReadReg     = CMW_I2C_READREG16;
1523:Lib/Camera_Middleware/cmw_camera.c ****   camera_bsp.vd56g3_bsp.Delay       = HAL_Delay;
1524:Lib/Camera_Middleware/cmw_camera.c ****   camera_bsp.vd56g3_bsp.ShutdownPin = CMW_CAMERA_ShutdownPin;
1525:Lib/Camera_Middleware/cmw_camera.c ****   camera_bsp.vd56g3_bsp.EnablePin   = CMW_CAMERA_EnablePin;
1526:Lib/Camera_Middleware/cmw_camera.c **** 
1527:Lib/Camera_Middleware/cmw_camera.c ****   ret = CMW_VD56G3_Probe(&camera_bsp.vd56g3_bsp, &Camera_Drv);
1528:Lib/Camera_Middleware/cmw_camera.c ****   if (ret != CMW_ERROR_NONE)
1529:Lib/Camera_Middleware/cmw_camera.c ****   {
1530:Lib/Camera_Middleware/cmw_camera.c ****     return CMW_ERROR_COMPONENT_FAILURE;
1531:Lib/Camera_Middleware/cmw_camera.c ****   }
1532:Lib/Camera_Middleware/cmw_camera.c **** 
1533:Lib/Camera_Middleware/cmw_camera.c ****   if ((connected_sensor != CMW_VD56G3_Sensor) && (connected_sensor != CMW_UNKNOWN_Sensor))
1534:Lib/Camera_Middleware/cmw_camera.c ****   {
1535:Lib/Camera_Middleware/cmw_camera.c ****     return CMW_ERROR_COMPONENT_FAILURE;
1536:Lib/Camera_Middleware/cmw_camera.c ****   }
1537:Lib/Camera_Middleware/cmw_camera.c **** 
1538:Lib/Camera_Middleware/cmw_camera.c ****   if ((initSensors_params->width == 0) || (initSensors_params->height == 0))
1539:Lib/Camera_Middleware/cmw_camera.c ****   {
1540:Lib/Camera_Middleware/cmw_camera.c ****     ISP_SensorInfoTypeDef sensor_info;
1541:Lib/Camera_Middleware/cmw_camera.c ****     Camera_Drv.GetSensorInfo(&camera_bsp, &sensor_info);
1542:Lib/Camera_Middleware/cmw_camera.c ****     initSensors_params->width = sensor_info.width;
1543:Lib/Camera_Middleware/cmw_camera.c ****     initSensors_params->height = sensor_info.height;
1544:Lib/Camera_Middleware/cmw_camera.c ****   }
1545:Lib/Camera_Middleware/cmw_camera.c **** 
ARM GAS  C:\Users\DJESSOU\AppData\Local\Temp\cc3dm0Vf.s 			page 51


1546:Lib/Camera_Middleware/cmw_camera.c ****   CMW_VD56G3_SetDefaultSensorValues(&default_sensor_config);
1547:Lib/Camera_Middleware/cmw_camera.c ****   initSensors_params->sensor_config = initSensors_params->sensor_config ? initSensors_params->senso
1548:Lib/Camera_Middleware/cmw_camera.c ****   sensor_config = (CMW_VD56G3_config_t*) (initSensors_params->sensor_config);
1549:Lib/Camera_Middleware/cmw_camera.c **** 
1550:Lib/Camera_Middleware/cmw_camera.c ****   ret = Camera_Drv.Init(&camera_bsp, initSensors_params);
1551:Lib/Camera_Middleware/cmw_camera.c ****   if (ret != CMW_ERROR_NONE)
1552:Lib/Camera_Middleware/cmw_camera.c ****   {
1553:Lib/Camera_Middleware/cmw_camera.c ****     return CMW_ERROR_COMPONENT_FAILURE;
1554:Lib/Camera_Middleware/cmw_camera.c ****   }
1555:Lib/Camera_Middleware/cmw_camera.c **** 
1556:Lib/Camera_Middleware/cmw_camera.c ****   csi_conf.NumberOfLanes = DCMIPP_CSI_TWO_DATA_LANES;
1557:Lib/Camera_Middleware/cmw_camera.c ****   csi_conf.DataLaneMapping = DCMIPP_CSI_PHYSICAL_DATA_LANES;
1558:Lib/Camera_Middleware/cmw_camera.c ****   csi_conf.PHYBitrate = DCMIPP_CSI_PHY_BT_800;
1559:Lib/Camera_Middleware/cmw_camera.c ****   ret = HAL_DCMIPP_CSI_SetConfig(&hcamera_dcmipp, &csi_conf);
1560:Lib/Camera_Middleware/cmw_camera.c ****   if (ret != HAL_OK)
1561:Lib/Camera_Middleware/cmw_camera.c ****   {
1562:Lib/Camera_Middleware/cmw_camera.c ****     return CMW_ERROR_PERIPH_FAILURE;
1563:Lib/Camera_Middleware/cmw_camera.c ****   }
1564:Lib/Camera_Middleware/cmw_camera.c **** 
1565:Lib/Camera_Middleware/cmw_camera.c ****   switch (sensor_config->pixel_format)
1566:Lib/Camera_Middleware/cmw_camera.c ****   {
1567:Lib/Camera_Middleware/cmw_camera.c ****     case CMW_PIXEL_FORMAT_RAW8:
1568:Lib/Camera_Middleware/cmw_camera.c ****     case CMW_PIXEL_FORMAT_DEFAULT:
1569:Lib/Camera_Middleware/cmw_camera.c ****     {
1570:Lib/Camera_Middleware/cmw_camera.c ****       dt_format = DCMIPP_CSI_DT_BPP8;
1571:Lib/Camera_Middleware/cmw_camera.c ****       dt = DCMIPP_DT_RAW8;
1572:Lib/Camera_Middleware/cmw_camera.c ****       break;
1573:Lib/Camera_Middleware/cmw_camera.c ****     }
1574:Lib/Camera_Middleware/cmw_camera.c ****     default:
1575:Lib/Camera_Middleware/cmw_camera.c ****       return CMW_ERROR_COMPONENT_FAILURE;
1576:Lib/Camera_Middleware/cmw_camera.c ****   }
1577:Lib/Camera_Middleware/cmw_camera.c **** 
1578:Lib/Camera_Middleware/cmw_camera.c ****   ret = HAL_DCMIPP_CSI_SetVCConfig(&hcamera_dcmipp, DCMIPP_VIRTUAL_CHANNEL0, dt_format);
1579:Lib/Camera_Middleware/cmw_camera.c ****   if (ret != HAL_OK)
1580:Lib/Camera_Middleware/cmw_camera.c ****   {
1581:Lib/Camera_Middleware/cmw_camera.c ****     return CMW_ERROR_PERIPH_FAILURE;
1582:Lib/Camera_Middleware/cmw_camera.c ****   }
1583:Lib/Camera_Middleware/cmw_camera.c **** 
1584:Lib/Camera_Middleware/cmw_camera.c ****   csi_pipe_conf.DataTypeMode = DCMIPP_DTMODE_DTIDA;
1585:Lib/Camera_Middleware/cmw_camera.c ****   csi_pipe_conf.DataTypeIDA = dt;
1586:Lib/Camera_Middleware/cmw_camera.c ****   csi_pipe_conf.DataTypeIDB = 0;
1587:Lib/Camera_Middleware/cmw_camera.c ****   for (uint32_t i = DCMIPP_PIPE0; i <= DCMIPP_PIPE2; i++)
1588:Lib/Camera_Middleware/cmw_camera.c ****   {
1589:Lib/Camera_Middleware/cmw_camera.c ****     ret = HAL_DCMIPP_CSI_PIPE_SetConfig(&hcamera_dcmipp, i, &csi_pipe_conf);
1590:Lib/Camera_Middleware/cmw_camera.c ****     if (ret != HAL_OK)
1591:Lib/Camera_Middleware/cmw_camera.c ****     {
1592:Lib/Camera_Middleware/cmw_camera.c ****       return CMW_ERROR_PERIPH_FAILURE;
1593:Lib/Camera_Middleware/cmw_camera.c ****     }
1594:Lib/Camera_Middleware/cmw_camera.c ****   }
1595:Lib/Camera_Middleware/cmw_camera.c **** 
1596:Lib/Camera_Middleware/cmw_camera.c ****   return CMW_ERROR_NONE;
1597:Lib/Camera_Middleware/cmw_camera.c **** }
1598:Lib/Camera_Middleware/cmw_camera.c **** #endif
1599:Lib/Camera_Middleware/cmw_camera.c **** 
1600:Lib/Camera_Middleware/cmw_camera.c **** #if defined(USE_VD1943_SENSOR)
1601:Lib/Camera_Middleware/cmw_camera.c **** static int32_t CMW_CAMERA_VD1943_Init( CMW_Sensor_Init_t *initSensors_params)
 1088              		.loc 1 1601 16 view .LVU394
ARM GAS  C:\Users\DJESSOU\AppData\Local\Temp\cc3dm0Vf.s 			page 52


 1089              	.LBB79:
1602:Lib/Camera_Middleware/cmw_camera.c **** {
1603:Lib/Camera_Middleware/cmw_camera.c ****   int32_t ret = CMW_ERROR_NONE;
 1090              		.loc 1 1603 3 view .LVU395
1604:Lib/Camera_Middleware/cmw_camera.c ****   DCMIPP_CSI_ConfTypeDef csi_conf = { 0 };
 1091              		.loc 1 1604 3 view .LVU396
 1092              		.loc 1 1604 26 is_stmt 0 view .LVU397
 1093 0388 0021     		movs	r1, #0
1605:Lib/Camera_Middleware/cmw_camera.c ****   DCMIPP_CSI_PIPE_ConfTypeDef csi_pipe_conf = { 0 };
1606:Lib/Camera_Middleware/cmw_camera.c ****   uint32_t dt_format = 0;
1607:Lib/Camera_Middleware/cmw_camera.c ****   uint32_t dt = 0;
1608:Lib/Camera_Middleware/cmw_camera.c ****   CMW_VD1943_config_t default_sensor_config;
1609:Lib/Camera_Middleware/cmw_camera.c ****   int32_t csi_phybitrate_i = -1;
1610:Lib/Camera_Middleware/cmw_camera.c ****   CMW_VD1943_config_t *sensor_config;
1611:Lib/Camera_Middleware/cmw_camera.c **** 
1612:Lib/Camera_Middleware/cmw_camera.c ****   memset(&camera_bsp, 0, sizeof(camera_bsp));
 1094              		.loc 1 1612 3 view .LVU398
 1095 038a 4FF4B472 		mov	r2, #360
 1096 038e 9848     		ldr	r0, .L135
1604:Lib/Camera_Middleware/cmw_camera.c ****   DCMIPP_CSI_ConfTypeDef csi_conf = { 0 };
 1097              		.loc 1 1604 26 view .LVU399
 1098 0390 CDE90511 		strd	r1, r1, [sp, #20]
1605:Lib/Camera_Middleware/cmw_camera.c ****   DCMIPP_CSI_PIPE_ConfTypeDef csi_pipe_conf = { 0 };
 1099              		.loc 1 1605 31 view .LVU400
 1100 0394 CDE90711 		strd	r1, r1, [sp, #28]
 1101 0398 CDE90911 		strd	r1, r1, [sp, #36]
1606:Lib/Camera_Middleware/cmw_camera.c ****   uint32_t dt = 0;
 1102              		.loc 1 1606 3 is_stmt 1 view .LVU401
 1103              	.LVL80:
1607:Lib/Camera_Middleware/cmw_camera.c ****   CMW_VD1943_config_t default_sensor_config;
 1104              		.loc 1 1607 3 view .LVU402
1608:Lib/Camera_Middleware/cmw_camera.c ****   int32_t csi_phybitrate_i = -1;
 1105              		.loc 1 1608 3 view .LVU403
1609:Lib/Camera_Middleware/cmw_camera.c ****   CMW_VD1943_config_t *sensor_config;
 1106              		.loc 1 1609 3 view .LVU404
1610:Lib/Camera_Middleware/cmw_camera.c **** 
 1107              		.loc 1 1610 3 view .LVU405
 1108              		.loc 1 1612 3 view .LVU406
 1109 039c FFF7FEFF 		bl	memset
 1110              	.LVL81:
1613:Lib/Camera_Middleware/cmw_camera.c ****   camera_bsp.vd1943_bsp.Address     = CAMERA_VD1943_ADDRESS;
 1111              		.loc 1 1613 3 view .LVU407
 1112              		.loc 1 1613 37 is_stmt 0 view .LVU408
 1113 03a0 2022     		movs	r2, #32
 1114 03a2 A8F80020 		strh	r2, [r8]	@ movhi
1614:Lib/Camera_Middleware/cmw_camera.c ****   camera_bsp.vd1943_bsp.Init        = CMW_I2C_INIT;
 1115              		.loc 1 1614 3 is_stmt 1 view .LVU409
1615:Lib/Camera_Middleware/cmw_camera.c ****   camera_bsp.vd1943_bsp.DeInit      = CMW_I2C_DEINIT;
1616:Lib/Camera_Middleware/cmw_camera.c ****   camera_bsp.vd1943_bsp.WriteReg    = CMW_I2C_WRITEREG16;
1617:Lib/Camera_Middleware/cmw_camera.c ****   camera_bsp.vd1943_bsp.ReadReg     = CMW_I2C_READREG16;
1618:Lib/Camera_Middleware/cmw_camera.c ****   camera_bsp.vd1943_bsp.Delay       = HAL_Delay;
1619:Lib/Camera_Middleware/cmw_camera.c ****   camera_bsp.vd1943_bsp.ShutdownPin = CMW_CAMERA_ShutdownPin;
1620:Lib/Camera_Middleware/cmw_camera.c ****   camera_bsp.vd1943_bsp.EnablePin   = CMW_CAMERA_EnablePin;
 1116              		.loc 1 1620 37 is_stmt 0 view .LVU410
 1117 03a6 934A     		ldr	r2, .L135+4
1617:Lib/Camera_Middleware/cmw_camera.c ****   camera_bsp.vd1943_bsp.Delay       = HAL_Delay;
 1118              		.loc 1 1617 37 view .LVU411
ARM GAS  C:\Users\DJESSOU\AppData\Local\Temp\cc3dm0Vf.s 			page 53


 1119 03a8 934B     		ldr	r3, .L135+8
 1120              		.loc 1 1620 37 view .LVU412
 1121 03aa C8F86421 		str	r2, [r8, #356]
1621:Lib/Camera_Middleware/cmw_camera.c ****   camera_bsp.vd1943_bsp.hdcmipp     = &hcamera_dcmipp;
 1122              		.loc 1 1621 37 view .LVU413
 1123 03ae 934A     		ldr	r2, .L135+12
1617:Lib/Camera_Middleware/cmw_camera.c ****   camera_bsp.vd1943_bsp.Delay       = HAL_Delay;
 1124              		.loc 1 1617 37 view .LVU414
 1125 03b0 C8F85431 		str	r3, [r8, #340]
 1126              		.loc 1 1621 37 view .LVU415
 1127 03b4 C8F84021 		str	r2, [r8, #320]
1622:Lib/Camera_Middleware/cmw_camera.c ****   camera_bsp.vd1943_bsp.appliHelpers.SetSensorGain = CB_ISP_SetSensorGain;
 1128              		.loc 1 1622 52 view .LVU416
 1129 03b8 914A     		ldr	r2, .L135+16
1619:Lib/Camera_Middleware/cmw_camera.c ****   camera_bsp.vd1943_bsp.EnablePin   = CMW_CAMERA_EnablePin;
 1130              		.loc 1 1619 37 view .LVU417
 1131 03ba 924B     		ldr	r3, .L135+20
 1132              		.loc 1 1622 52 view .LVU418
 1133 03bc C8F82C21 		str	r2, [r8, #300]
1623:Lib/Camera_Middleware/cmw_camera.c ****   camera_bsp.vd1943_bsp.appliHelpers.GetSensorGain = CB_ISP_GetSensorGain;
 1134              		.loc 1 1623 52 view .LVU419
 1135 03c0 914A     		ldr	r2, .L135+24
1624:Lib/Camera_Middleware/cmw_camera.c ****   camera_bsp.vd1943_bsp.appliHelpers.SetSensorExposure = CB_ISP_SetSensorExposure;
1625:Lib/Camera_Middleware/cmw_camera.c ****   camera_bsp.vd1943_bsp.appliHelpers.GetSensorExposure = CB_ISP_GetSensorExposure;
1626:Lib/Camera_Middleware/cmw_camera.c ****   camera_bsp.vd1943_bsp.appliHelpers.GetSensorInfo = CB_ISP_GetSensorInfo;
1627:Lib/Camera_Middleware/cmw_camera.c **** 
1628:Lib/Camera_Middleware/cmw_camera.c ****   ret = CMW_VD1943_Probe(&camera_bsp.vd1943_bsp, &Camera_Drv);
 1136              		.loc 1 1628 9 view .LVU420
 1137 03c2 9249     		ldr	r1, .L135+28
1623:Lib/Camera_Middleware/cmw_camera.c ****   camera_bsp.vd1943_bsp.appliHelpers.GetSensorGain = CB_ISP_GetSensorGain;
 1138              		.loc 1 1623 52 view .LVU421
 1139 03c4 C8F83021 		str	r2, [r8, #304]
1624:Lib/Camera_Middleware/cmw_camera.c ****   camera_bsp.vd1943_bsp.appliHelpers.SetSensorExposure = CB_ISP_SetSensorExposure;
 1140              		.loc 1 1624 56 view .LVU422
 1141 03c8 914A     		ldr	r2, .L135+32
 1142              		.loc 1 1628 9 view .LVU423
 1143 03ca 8948     		ldr	r0, .L135
1624:Lib/Camera_Middleware/cmw_camera.c ****   camera_bsp.vd1943_bsp.appliHelpers.SetSensorExposure = CB_ISP_SetSensorExposure;
 1144              		.loc 1 1624 56 view .LVU424
 1145 03cc C8F83421 		str	r2, [r8, #308]
1625:Lib/Camera_Middleware/cmw_camera.c ****   camera_bsp.vd1943_bsp.appliHelpers.GetSensorInfo = CB_ISP_GetSensorInfo;
 1146              		.loc 1 1625 56 view .LVU425
 1147 03d0 904A     		ldr	r2, .L135+36
1615:Lib/Camera_Middleware/cmw_camera.c ****   camera_bsp.vd1943_bsp.WriteReg    = CMW_I2C_WRITEREG16;
 1148              		.loc 1 1615 37 view .LVU426
 1149 03d2 C8E952A9 		strd	r10, r9, [r8, #328]
1616:Lib/Camera_Middleware/cmw_camera.c ****   camera_bsp.vd1943_bsp.ReadReg     = CMW_I2C_READREG16;
 1150              		.loc 1 1616 3 is_stmt 1 view .LVU427
1625:Lib/Camera_Middleware/cmw_camera.c ****   camera_bsp.vd1943_bsp.appliHelpers.GetSensorInfo = CB_ISP_GetSensorInfo;
 1151              		.loc 1 1625 56 is_stmt 0 view .LVU428
 1152 03d6 C8F83821 		str	r2, [r8, #312]
1626:Lib/Camera_Middleware/cmw_camera.c **** 
 1153              		.loc 1 1626 52 view .LVU429
 1154 03da 8F4A     		ldr	r2, .L135+40
1616:Lib/Camera_Middleware/cmw_camera.c ****   camera_bsp.vd1943_bsp.ReadReg     = CMW_I2C_READREG16;
 1155              		.loc 1 1616 37 view .LVU430
 1156 03dc C8F85071 		str	r7, [r8, #336]
ARM GAS  C:\Users\DJESSOU\AppData\Local\Temp\cc3dm0Vf.s 			page 54


1617:Lib/Camera_Middleware/cmw_camera.c ****   camera_bsp.vd1943_bsp.Delay       = HAL_Delay;
 1157              		.loc 1 1617 3 is_stmt 1 view .LVU431
1618:Lib/Camera_Middleware/cmw_camera.c ****   camera_bsp.vd1943_bsp.ShutdownPin = CMW_CAMERA_ShutdownPin;
 1158              		.loc 1 1618 3 view .LVU432
1618:Lib/Camera_Middleware/cmw_camera.c ****   camera_bsp.vd1943_bsp.ShutdownPin = CMW_CAMERA_ShutdownPin;
 1159              		.loc 1 1618 37 is_stmt 0 view .LVU433
 1160 03e0 C8F85C61 		str	r6, [r8, #348]
1619:Lib/Camera_Middleware/cmw_camera.c ****   camera_bsp.vd1943_bsp.EnablePin   = CMW_CAMERA_EnablePin;
 1161              		.loc 1 1619 3 is_stmt 1 view .LVU434
1619:Lib/Camera_Middleware/cmw_camera.c ****   camera_bsp.vd1943_bsp.EnablePin   = CMW_CAMERA_EnablePin;
 1162              		.loc 1 1619 37 is_stmt 0 view .LVU435
 1163 03e4 C8F86031 		str	r3, [r8, #352]
1620:Lib/Camera_Middleware/cmw_camera.c ****   camera_bsp.vd1943_bsp.hdcmipp     = &hcamera_dcmipp;
 1164              		.loc 1 1620 3 is_stmt 1 view .LVU436
1621:Lib/Camera_Middleware/cmw_camera.c ****   camera_bsp.vd1943_bsp.appliHelpers.SetSensorGain = CB_ISP_SetSensorGain;
 1165              		.loc 1 1621 3 view .LVU437
1622:Lib/Camera_Middleware/cmw_camera.c ****   camera_bsp.vd1943_bsp.appliHelpers.GetSensorGain = CB_ISP_GetSensorGain;
 1166              		.loc 1 1622 3 view .LVU438
1623:Lib/Camera_Middleware/cmw_camera.c ****   camera_bsp.vd1943_bsp.appliHelpers.SetSensorExposure = CB_ISP_SetSensorExposure;
 1167              		.loc 1 1623 3 view .LVU439
1624:Lib/Camera_Middleware/cmw_camera.c ****   camera_bsp.vd1943_bsp.appliHelpers.GetSensorExposure = CB_ISP_GetSensorExposure;
 1168              		.loc 1 1624 3 view .LVU440
1625:Lib/Camera_Middleware/cmw_camera.c ****   camera_bsp.vd1943_bsp.appliHelpers.GetSensorInfo = CB_ISP_GetSensorInfo;
 1169              		.loc 1 1625 3 view .LVU441
1626:Lib/Camera_Middleware/cmw_camera.c **** 
 1170              		.loc 1 1626 3 view .LVU442
1626:Lib/Camera_Middleware/cmw_camera.c **** 
 1171              		.loc 1 1626 52 is_stmt 0 view .LVU443
 1172 03e8 C8F82821 		str	r2, [r8, #296]
 1173              		.loc 1 1628 3 is_stmt 1 view .LVU444
 1174              		.loc 1 1628 9 is_stmt 0 view .LVU445
 1175 03ec FFF7FEFF 		bl	CMW_VD1943_Probe
 1176              	.LVL82:
1629:Lib/Camera_Middleware/cmw_camera.c ****   if (ret != CMW_ERROR_NONE)
 1177              		.loc 1 1629 3 is_stmt 1 view .LVU446
 1178              		.loc 1 1629 6 is_stmt 0 view .LVU447
 1179 03f0 0028     		cmp	r0, #0
 1180 03f2 41D1     		bne	.L54
1630:Lib/Camera_Middleware/cmw_camera.c ****   {
1631:Lib/Camera_Middleware/cmw_camera.c ****     return CMW_ERROR_COMPONENT_FAILURE;
1632:Lib/Camera_Middleware/cmw_camera.c ****   }
1633:Lib/Camera_Middleware/cmw_camera.c **** 
1634:Lib/Camera_Middleware/cmw_camera.c ****   if ((connected_sensor != CMW_VD1943_Sensor) && (connected_sensor != CMW_UNKNOWN_Sensor))
 1181              		.loc 1 1634 3 is_stmt 1 view .LVU448
 1182              		.loc 1 1634 25 is_stmt 0 view .LVU449
 1183 03f4 894A     		ldr	r2, .L135+44
 1184 03f6 1278     		ldrb	r2, [r2]	@ zero_extendqisi2
 1185              		.loc 1 1634 6 view .LVU450
 1186 03f8 072A     		cmp	r2, #7
 1187 03fa 01D0     		beq	.L55
 1188              		.loc 1 1634 47 discriminator 1 view .LVU451
 1189 03fc 002A     		cmp	r2, #0
 1190 03fe 3BD1     		bne	.L54
 1191              	.L55:
1635:Lib/Camera_Middleware/cmw_camera.c ****   {
1636:Lib/Camera_Middleware/cmw_camera.c ****     /* If the selected sensor in the application side has selected a different sensors than VD1943 
1637:Lib/Camera_Middleware/cmw_camera.c ****     return CMW_ERROR_COMPONENT_FAILURE;
ARM GAS  C:\Users\DJESSOU\AppData\Local\Temp\cc3dm0Vf.s 			page 55


1638:Lib/Camera_Middleware/cmw_camera.c ****   }
1639:Lib/Camera_Middleware/cmw_camera.c **** 
1640:Lib/Camera_Middleware/cmw_camera.c ****   /* Special case: when resolution is not specified take the full sensor resolution */
1641:Lib/Camera_Middleware/cmw_camera.c ****   if ((initSensors_params->width == 0) || (initSensors_params->height == 0))
 1192              		.loc 1 1641 3 is_stmt 1 view .LVU452
 1193              		.loc 1 1641 6 is_stmt 0 view .LVU453
 1194 0400 2268     		ldr	r2, [r4]
 1195 0402 0AB1     		cbz	r2, .L57
 1196              		.loc 1 1641 40 discriminator 1 view .LVU454
 1197 0404 6268     		ldr	r2, [r4, #4]
 1198 0406 2AB9     		cbnz	r2, .L58
 1199              	.L57:
1642:Lib/Camera_Middleware/cmw_camera.c ****   {
1643:Lib/Camera_Middleware/cmw_camera.c ****     initSensors_params->width = VD1943_MAX_WIDTH;
 1200              		.loc 1 1643 5 is_stmt 1 view .LVU455
1644:Lib/Camera_Middleware/cmw_camera.c ****     initSensors_params->height = VD1943_MAX_HEIGHT;
 1201              		.loc 1 1644 32 is_stmt 0 view .LVU456
 1202 0408 4FF42060 		mov	r0, #2560
 1203              	.LVL83:
 1204              		.loc 1 1644 32 view .LVU457
 1205 040c 4FF4F862 		mov	r2, #1984
 1206 0410 C4E90002 		strd	r0, r2, [r4]
 1207              	.L58:
1645:Lib/Camera_Middleware/cmw_camera.c ****   }
1646:Lib/Camera_Middleware/cmw_camera.c **** 
1647:Lib/Camera_Middleware/cmw_camera.c ****   CMW_VD1943_SetDefaultSensorValues(&default_sensor_config);
 1208              		.loc 1 1647 3 is_stmt 1 view .LVU458
 1209 0414 2846     		mov	r0, r5
 1210 0416 FFF7FEFF 		bl	CMW_VD1943_SetDefaultSensorValues
 1211              	.LVL84:
1648:Lib/Camera_Middleware/cmw_camera.c ****   initSensors_params->sensor_config = initSensors_params->sensor_config ? initSensors_params->senso
 1212              		.loc 1 1648 3 view .LVU459
 1213              		.loc 1 1648 57 is_stmt 0 view .LVU460
 1214 041a D4F810B0 		ldr	fp, [r4, #16]
1649:Lib/Camera_Middleware/cmw_camera.c ****   sensor_config = (CMW_VD1943_config_t*) (initSensors_params->sensor_config);
1650:Lib/Camera_Middleware/cmw_camera.c **** 
1651:Lib/Camera_Middleware/cmw_camera.c ****   ret = Camera_Drv.Init(&camera_bsp, initSensors_params);
 1215              		.loc 1 1651 19 view .LVU461
 1216 041e 7B4A     		ldr	r2, .L135+28
1648:Lib/Camera_Middleware/cmw_camera.c ****   initSensors_params->sensor_config = initSensors_params->sensor_config ? initSensors_params->senso
 1217              		.loc 1 1648 109 discriminator 2 view .LVU462
 1218 0420 BBF1000F 		cmp	fp, #0
 1219 0424 08BF     		it	eq
 1220 0426 AB46     		moveq	fp, r5
 1221              		.loc 1 1651 9 view .LVU463
 1222 0428 2146     		mov	r1, r4
 1223 042a 1268     		ldr	r2, [r2]
 1224 042c 7048     		ldr	r0, .L135
1648:Lib/Camera_Middleware/cmw_camera.c ****   initSensors_params->sensor_config = initSensors_params->sensor_config ? initSensors_params->senso
 1225              		.loc 1 1648 37 discriminator 4 view .LVU464
 1226 042e C4F810B0 		str	fp, [r4, #16]
1649:Lib/Camera_Middleware/cmw_camera.c ****   sensor_config = (CMW_VD1943_config_t*) (initSensors_params->sensor_config);
 1227              		.loc 1 1649 3 is_stmt 1 view .LVU465
 1228              	.LVL85:
 1229              		.loc 1 1651 3 view .LVU466
 1230              		.loc 1 1651 9 is_stmt 0 view .LVU467
 1231 0432 9047     		blx	r2
ARM GAS  C:\Users\DJESSOU\AppData\Local\Temp\cc3dm0Vf.s 			page 56


 1232              	.LVL86:
1652:Lib/Camera_Middleware/cmw_camera.c ****   if (ret != CMW_ERROR_NONE)
 1233              		.loc 1 1652 3 is_stmt 1 view .LVU468
 1234              		.loc 1 1652 6 is_stmt 0 view .LVU469
 1235 0434 00BB     		cbnz	r0, .L54
1653:Lib/Camera_Middleware/cmw_camera.c ****   {
1654:Lib/Camera_Middleware/cmw_camera.c ****     return CMW_ERROR_COMPONENT_FAILURE;
1655:Lib/Camera_Middleware/cmw_camera.c ****   }
1656:Lib/Camera_Middleware/cmw_camera.c **** 
1657:Lib/Camera_Middleware/cmw_camera.c ****   csi_phybitrate_i = CMW_UTILS_getClosest_HAL_PHYBitrate(sensor_config->CSI_PHYBitrate);
 1236              		.loc 1 1657 3 is_stmt 1 view .LVU470
 1237              		.loc 1 1657 22 is_stmt 0 view .LVU471
 1238 0436 DBF80400 		ldr	r0, [fp, #4]
 1239              	.LVL87:
 1240              		.loc 1 1657 22 view .LVU472
 1241 043a FFF7FEFF 		bl	CMW_UTILS_getClosest_HAL_PHYBitrate
 1242              	.LVL88:
1658:Lib/Camera_Middleware/cmw_camera.c ****   if (csi_phybitrate_i < 0)
 1243              		.loc 1 1658 3 is_stmt 1 view .LVU473
 1244              		.loc 1 1658 6 is_stmt 0 view .LVU474
 1245 043e 0028     		cmp	r0, #0
 1246              		.loc 1 1658 6 view .LVU475
 1247 0440 1ADB     		blt	.L54
1659:Lib/Camera_Middleware/cmw_camera.c ****   {
1660:Lib/Camera_Middleware/cmw_camera.c ****     return CMW_ERROR_WRONG_PARAM;
1661:Lib/Camera_Middleware/cmw_camera.c ****   }
1662:Lib/Camera_Middleware/cmw_camera.c **** 
1663:Lib/Camera_Middleware/cmw_camera.c ****   csi_conf.NumberOfLanes = DCMIPP_CSI_TWO_DATA_LANES;
 1248              		.loc 1 1663 3 is_stmt 1 view .LVU476
1664:Lib/Camera_Middleware/cmw_camera.c ****   csi_conf.DataLaneMapping = DCMIPP_CSI_PHYSICAL_DATA_LANES;
 1249              		.loc 1 1664 28 is_stmt 0 view .LVU477
 1250 0442 4FF40071 		mov	r1, #512
 1251 0446 0122     		movs	r2, #1
1665:Lib/Camera_Middleware/cmw_camera.c ****   csi_conf.PHYBitrate = csi_phybitrate_i;
 1252              		.loc 1 1665 23 view .LVU478
 1253 0448 0790     		str	r0, [sp, #28]
1664:Lib/Camera_Middleware/cmw_camera.c ****   csi_conf.DataLaneMapping = DCMIPP_CSI_PHYSICAL_DATA_LANES;
 1254              		.loc 1 1664 28 view .LVU479
 1255 044a CDE90512 		strd	r1, r2, [sp, #20]
 1256              		.loc 1 1665 3 is_stmt 1 view .LVU480
1666:Lib/Camera_Middleware/cmw_camera.c ****   ret = HAL_DCMIPP_CSI_SetConfig(&hcamera_dcmipp, &csi_conf);
 1257              		.loc 1 1666 3 view .LVU481
 1258              		.loc 1 1666 9 is_stmt 0 view .LVU482
 1259 044e 6B48     		ldr	r0, .L135+12
 1260              	.LVL89:
 1261              		.loc 1 1666 9 view .LVU483
 1262 0450 05A9     		add	r1, sp, #20
 1263 0452 FFF7FEFF 		bl	HAL_DCMIPP_CSI_SetConfig
 1264              	.LVL90:
1667:Lib/Camera_Middleware/cmw_camera.c ****   if (ret != HAL_OK)
 1265              		.loc 1 1667 3 is_stmt 1 view .LVU484
 1266              		.loc 1 1667 6 is_stmt 0 view .LVU485
 1267 0456 78B9     		cbnz	r0, .L54
1668:Lib/Camera_Middleware/cmw_camera.c ****   {
1669:Lib/Camera_Middleware/cmw_camera.c ****     return CMW_ERROR_PERIPH_FAILURE;
1670:Lib/Camera_Middleware/cmw_camera.c ****   }
1671:Lib/Camera_Middleware/cmw_camera.c **** 
ARM GAS  C:\Users\DJESSOU\AppData\Local\Temp\cc3dm0Vf.s 			page 57


1672:Lib/Camera_Middleware/cmw_camera.c ****   switch (sensor_config->pixel_format)
 1268              		.loc 1 1672 3 is_stmt 1 view .LVU486
 1269              		.loc 1 1672 24 is_stmt 0 view .LVU487
 1270 0458 DBF800B0 		ldr	fp, [fp]
 1271              	.LVL91:
 1272              		.loc 1 1672 3 view .LVU488
 1273 045c BBF12B0F 		cmp	fp, #43
 1274 0460 00F0A280 		beq	.L78
 1275 0464 00F29A80 		bhi	.L61
 1276 0468 BBF1000F 		cmp	fp, #0
 1277 046c 00F0B880 		beq	.L79
 1278 0470 BBF12A0F 		cmp	fp, #42
 1279 0474 00F0B780 		beq	.L80
 1280              	.LVL92:
 1281              	.L54:
 1282              		.loc 1 1672 3 view .LVU489
 1283              	.LBE79:
 1284              	.LBE78:
 307:Lib/Camera_Middleware/cmw_camera.c ****   if (ret == CMW_ERROR_NONE)
 1285              		.loc 1 307 3 is_stmt 1 view .LVU490
 1286              	.LBB84:
 1287              	.LBI84:
1673:Lib/Camera_Middleware/cmw_camera.c ****   {
1674:Lib/Camera_Middleware/cmw_camera.c ****     case CMW_PIXEL_FORMAT_RAW8:
1675:Lib/Camera_Middleware/cmw_camera.c ****     {
1676:Lib/Camera_Middleware/cmw_camera.c ****       dt_format = DCMIPP_CSI_DT_BPP8;
1677:Lib/Camera_Middleware/cmw_camera.c ****       dt = DCMIPP_DT_RAW8;
1678:Lib/Camera_Middleware/cmw_camera.c ****       break;
1679:Lib/Camera_Middleware/cmw_camera.c ****     }
1680:Lib/Camera_Middleware/cmw_camera.c ****     case CMW_PIXEL_FORMAT_RAW10:
1681:Lib/Camera_Middleware/cmw_camera.c ****     {
1682:Lib/Camera_Middleware/cmw_camera.c ****       dt_format = DCMIPP_CSI_DT_BPP10;
1683:Lib/Camera_Middleware/cmw_camera.c ****       dt = DCMIPP_DT_RAW10;
1684:Lib/Camera_Middleware/cmw_camera.c ****       break;
1685:Lib/Camera_Middleware/cmw_camera.c ****     }
1686:Lib/Camera_Middleware/cmw_camera.c ****     case CMW_PIXEL_FORMAT_RAW12:
1687:Lib/Camera_Middleware/cmw_camera.c ****     case CMW_PIXEL_FORMAT_DEFAULT:
1688:Lib/Camera_Middleware/cmw_camera.c ****     {
1689:Lib/Camera_Middleware/cmw_camera.c ****       dt_format = DCMIPP_CSI_DT_BPP12;
1690:Lib/Camera_Middleware/cmw_camera.c ****       dt = DCMIPP_DT_RAW12;
1691:Lib/Camera_Middleware/cmw_camera.c ****       break;
1692:Lib/Camera_Middleware/cmw_camera.c ****     }
1693:Lib/Camera_Middleware/cmw_camera.c ****     default:
1694:Lib/Camera_Middleware/cmw_camera.c ****       return CMW_ERROR_COMPONENT_FAILURE;
1695:Lib/Camera_Middleware/cmw_camera.c ****   }
1696:Lib/Camera_Middleware/cmw_camera.c **** 
1697:Lib/Camera_Middleware/cmw_camera.c ****   ret = HAL_DCMIPP_CSI_SetVCConfig(&hcamera_dcmipp, DCMIPP_VIRTUAL_CHANNEL0, dt_format);
1698:Lib/Camera_Middleware/cmw_camera.c ****   if (ret != HAL_OK)
1699:Lib/Camera_Middleware/cmw_camera.c ****   {
1700:Lib/Camera_Middleware/cmw_camera.c ****     return CMW_ERROR_PERIPH_FAILURE;
1701:Lib/Camera_Middleware/cmw_camera.c ****   }
1702:Lib/Camera_Middleware/cmw_camera.c **** 
1703:Lib/Camera_Middleware/cmw_camera.c ****   csi_pipe_conf.DataTypeMode = DCMIPP_DTMODE_DTIDA;
1704:Lib/Camera_Middleware/cmw_camera.c ****   csi_pipe_conf.DataTypeIDA = dt;
1705:Lib/Camera_Middleware/cmw_camera.c ****   csi_pipe_conf.DataTypeIDB = 0;
1706:Lib/Camera_Middleware/cmw_camera.c ****   /* Pre-initialize CSI config for all the pipes */
1707:Lib/Camera_Middleware/cmw_camera.c ****   for (uint32_t i = DCMIPP_PIPE0; i <= DCMIPP_PIPE2; i++)
ARM GAS  C:\Users\DJESSOU\AppData\Local\Temp\cc3dm0Vf.s 			page 58


1708:Lib/Camera_Middleware/cmw_camera.c ****   {
1709:Lib/Camera_Middleware/cmw_camera.c ****     ret = HAL_DCMIPP_CSI_PIPE_SetConfig(&hcamera_dcmipp, i, &csi_pipe_conf);
1710:Lib/Camera_Middleware/cmw_camera.c ****     if (ret != HAL_OK)
1711:Lib/Camera_Middleware/cmw_camera.c ****     {
1712:Lib/Camera_Middleware/cmw_camera.c ****       return CMW_ERROR_PERIPH_FAILURE;
1713:Lib/Camera_Middleware/cmw_camera.c ****     }
1714:Lib/Camera_Middleware/cmw_camera.c ****   }
1715:Lib/Camera_Middleware/cmw_camera.c **** 
1716:Lib/Camera_Middleware/cmw_camera.c ****   return CMW_ERROR_NONE;
1717:Lib/Camera_Middleware/cmw_camera.c **** }
1718:Lib/Camera_Middleware/cmw_camera.c **** #endif
1719:Lib/Camera_Middleware/cmw_camera.c **** 
1720:Lib/Camera_Middleware/cmw_camera.c **** #if defined(USE_VD5943_SENSOR)
1721:Lib/Camera_Middleware/cmw_camera.c **** static int32_t CMW_CAMERA_VD5943_Init( CMW_Sensor_Init_t *initSensors_params)
1722:Lib/Camera_Middleware/cmw_camera.c **** {
1723:Lib/Camera_Middleware/cmw_camera.c ****   int32_t ret = CMW_ERROR_NONE;
1724:Lib/Camera_Middleware/cmw_camera.c ****   DCMIPP_CSI_ConfTypeDef csi_conf = { 0 };
1725:Lib/Camera_Middleware/cmw_camera.c ****   DCMIPP_CSI_PIPE_ConfTypeDef csi_pipe_conf = { 0 };
1726:Lib/Camera_Middleware/cmw_camera.c ****   uint32_t dt_format = 0;
1727:Lib/Camera_Middleware/cmw_camera.c ****   uint32_t dt = 0;
1728:Lib/Camera_Middleware/cmw_camera.c ****   CMW_VD5943_config_t default_sensor_config;
1729:Lib/Camera_Middleware/cmw_camera.c ****   int32_t csi_phybitrate_i = -1;
1730:Lib/Camera_Middleware/cmw_camera.c ****   CMW_VD5943_config_t *sensor_config;
1731:Lib/Camera_Middleware/cmw_camera.c **** 
1732:Lib/Camera_Middleware/cmw_camera.c ****   memset(&camera_bsp, 0, sizeof(camera_bsp));
1733:Lib/Camera_Middleware/cmw_camera.c ****   camera_bsp.vd5943_bsp.Address     = CAMERA_VD1943_ADDRESS;
1734:Lib/Camera_Middleware/cmw_camera.c ****   camera_bsp.vd5943_bsp.Init        = CMW_I2C_INIT;
1735:Lib/Camera_Middleware/cmw_camera.c ****   camera_bsp.vd5943_bsp.DeInit      = CMW_I2C_DEINIT;
1736:Lib/Camera_Middleware/cmw_camera.c ****   camera_bsp.vd5943_bsp.WriteReg    = CMW_I2C_WRITEREG16;
1737:Lib/Camera_Middleware/cmw_camera.c ****   camera_bsp.vd5943_bsp.ReadReg     = CMW_I2C_READREG16;
1738:Lib/Camera_Middleware/cmw_camera.c ****   camera_bsp.vd5943_bsp.Delay       = HAL_Delay;
1739:Lib/Camera_Middleware/cmw_camera.c ****   camera_bsp.vd5943_bsp.ShutdownPin = CMW_CAMERA_ShutdownPin;
1740:Lib/Camera_Middleware/cmw_camera.c ****   camera_bsp.vd5943_bsp.EnablePin   = CMW_CAMERA_EnablePin;
1741:Lib/Camera_Middleware/cmw_camera.c ****   camera_bsp.vd5943_bsp.hdcmipp     = &hcamera_dcmipp;
1742:Lib/Camera_Middleware/cmw_camera.c ****   camera_bsp.vd5943_bsp.appliHelpers.SetSensorGain = CB_ISP_SetSensorGain;
1743:Lib/Camera_Middleware/cmw_camera.c ****   camera_bsp.vd5943_bsp.appliHelpers.GetSensorGain = CB_ISP_GetSensorGain;
1744:Lib/Camera_Middleware/cmw_camera.c ****   camera_bsp.vd5943_bsp.appliHelpers.SetSensorExposure = CB_ISP_SetSensorExposure;
1745:Lib/Camera_Middleware/cmw_camera.c ****   camera_bsp.vd5943_bsp.appliHelpers.GetSensorExposure = CB_ISP_GetSensorExposure;
1746:Lib/Camera_Middleware/cmw_camera.c ****   camera_bsp.vd5943_bsp.appliHelpers.GetSensorInfo = CB_ISP_GetSensorInfo;
1747:Lib/Camera_Middleware/cmw_camera.c **** 
1748:Lib/Camera_Middleware/cmw_camera.c ****   ret = CMW_VD5943_Probe(&camera_bsp.vd5943_bsp, &Camera_Drv);
1749:Lib/Camera_Middleware/cmw_camera.c ****   if (ret != CMW_ERROR_NONE)
1750:Lib/Camera_Middleware/cmw_camera.c ****   {
1751:Lib/Camera_Middleware/cmw_camera.c ****     return CMW_ERROR_COMPONENT_FAILURE;
1752:Lib/Camera_Middleware/cmw_camera.c ****   }
1753:Lib/Camera_Middleware/cmw_camera.c **** 
1754:Lib/Camera_Middleware/cmw_camera.c ****   if ((connected_sensor != CMW_VD5943_Sensor) && (connected_sensor != CMW_UNKNOWN_Sensor))
1755:Lib/Camera_Middleware/cmw_camera.c ****   {
1756:Lib/Camera_Middleware/cmw_camera.c ****     /* If the selected sensor in the application side has selected a different sensors than VD5943 
1757:Lib/Camera_Middleware/cmw_camera.c ****     return CMW_ERROR_COMPONENT_FAILURE;
1758:Lib/Camera_Middleware/cmw_camera.c ****   }
1759:Lib/Camera_Middleware/cmw_camera.c **** 
1760:Lib/Camera_Middleware/cmw_camera.c ****   /* Special case: when resolution is not specified take the full sensor resolution */
1761:Lib/Camera_Middleware/cmw_camera.c ****   if ((initSensors_params->width == 0) || (initSensors_params->height == 0))
1762:Lib/Camera_Middleware/cmw_camera.c ****   {
1763:Lib/Camera_Middleware/cmw_camera.c ****     ISP_SensorInfoTypeDef sensor_info;
1764:Lib/Camera_Middleware/cmw_camera.c ****     Camera_Drv.GetSensorInfo(&camera_bsp, &sensor_info);
ARM GAS  C:\Users\DJESSOU\AppData\Local\Temp\cc3dm0Vf.s 			page 59


1765:Lib/Camera_Middleware/cmw_camera.c ****     initSensors_params->width = sensor_info.width;
1766:Lib/Camera_Middleware/cmw_camera.c ****     initSensors_params->height = sensor_info.height;
1767:Lib/Camera_Middleware/cmw_camera.c ****   }
1768:Lib/Camera_Middleware/cmw_camera.c **** 
1769:Lib/Camera_Middleware/cmw_camera.c ****   CMW_VD5943_SetDefaultSensorValues(&default_sensor_config);
1770:Lib/Camera_Middleware/cmw_camera.c ****   initSensors_params->sensor_config = initSensors_params->sensor_config ? initSensors_params->senso
1771:Lib/Camera_Middleware/cmw_camera.c ****   sensor_config = (CMW_VD5943_config_t*) (initSensors_params->sensor_config);
1772:Lib/Camera_Middleware/cmw_camera.c **** 
1773:Lib/Camera_Middleware/cmw_camera.c ****   ret = Camera_Drv.Init(&camera_bsp, initSensors_params);
1774:Lib/Camera_Middleware/cmw_camera.c ****   if (ret != CMW_ERROR_NONE)
1775:Lib/Camera_Middleware/cmw_camera.c ****   {
1776:Lib/Camera_Middleware/cmw_camera.c ****     return CMW_ERROR_COMPONENT_FAILURE;
1777:Lib/Camera_Middleware/cmw_camera.c ****   }
1778:Lib/Camera_Middleware/cmw_camera.c **** 
1779:Lib/Camera_Middleware/cmw_camera.c ****   csi_phybitrate_i = CMW_UTILS_getClosest_HAL_PHYBitrate(sensor_config->CSI_PHYBitrate);
1780:Lib/Camera_Middleware/cmw_camera.c ****   if (csi_phybitrate_i < 0)
1781:Lib/Camera_Middleware/cmw_camera.c ****   {
1782:Lib/Camera_Middleware/cmw_camera.c ****     return CMW_ERROR_WRONG_PARAM;
1783:Lib/Camera_Middleware/cmw_camera.c ****   }
1784:Lib/Camera_Middleware/cmw_camera.c **** 
1785:Lib/Camera_Middleware/cmw_camera.c ****   csi_conf.NumberOfLanes = DCMIPP_CSI_TWO_DATA_LANES;
1786:Lib/Camera_Middleware/cmw_camera.c ****   csi_conf.DataLaneMapping = DCMIPP_CSI_PHYSICAL_DATA_LANES;
1787:Lib/Camera_Middleware/cmw_camera.c ****   csi_conf.PHYBitrate = CMW_UTILS_getClosest_HAL_PHYBitrate(sensor_config->CSI_PHYBitrate);
1788:Lib/Camera_Middleware/cmw_camera.c ****   ret = HAL_DCMIPP_CSI_SetConfig(&hcamera_dcmipp, &csi_conf);
1789:Lib/Camera_Middleware/cmw_camera.c ****   if (ret != HAL_OK)
1790:Lib/Camera_Middleware/cmw_camera.c ****   {
1791:Lib/Camera_Middleware/cmw_camera.c ****     return CMW_ERROR_PERIPH_FAILURE;
1792:Lib/Camera_Middleware/cmw_camera.c ****   }
1793:Lib/Camera_Middleware/cmw_camera.c **** 
1794:Lib/Camera_Middleware/cmw_camera.c ****   switch (sensor_config->pixel_format)
1795:Lib/Camera_Middleware/cmw_camera.c ****   {
1796:Lib/Camera_Middleware/cmw_camera.c ****     case CMW_PIXEL_FORMAT_RAW10:
1797:Lib/Camera_Middleware/cmw_camera.c ****     {
1798:Lib/Camera_Middleware/cmw_camera.c ****       dt_format = DCMIPP_CSI_DT_BPP10;
1799:Lib/Camera_Middleware/cmw_camera.c ****       dt = DCMIPP_DT_RAW10;
1800:Lib/Camera_Middleware/cmw_camera.c ****       break;
1801:Lib/Camera_Middleware/cmw_camera.c ****     }
1802:Lib/Camera_Middleware/cmw_camera.c ****     case CMW_PIXEL_FORMAT_RAW8:
1803:Lib/Camera_Middleware/cmw_camera.c ****     case CMW_PIXEL_FORMAT_DEFAULT:
1804:Lib/Camera_Middleware/cmw_camera.c ****     {
1805:Lib/Camera_Middleware/cmw_camera.c ****       dt_format = DCMIPP_CSI_DT_BPP8;
1806:Lib/Camera_Middleware/cmw_camera.c ****       dt = DCMIPP_DT_RAW8;
1807:Lib/Camera_Middleware/cmw_camera.c ****       break;
1808:Lib/Camera_Middleware/cmw_camera.c ****     }
1809:Lib/Camera_Middleware/cmw_camera.c ****     default:
1810:Lib/Camera_Middleware/cmw_camera.c ****       return CMW_ERROR_COMPONENT_FAILURE;
1811:Lib/Camera_Middleware/cmw_camera.c ****   }
1812:Lib/Camera_Middleware/cmw_camera.c **** 
1813:Lib/Camera_Middleware/cmw_camera.c ****   ret = HAL_DCMIPP_CSI_SetVCConfig(&hcamera_dcmipp, DCMIPP_VIRTUAL_CHANNEL0, dt_format);
1814:Lib/Camera_Middleware/cmw_camera.c ****   if (ret != HAL_OK)
1815:Lib/Camera_Middleware/cmw_camera.c ****   {
1816:Lib/Camera_Middleware/cmw_camera.c ****     return CMW_ERROR_PERIPH_FAILURE;
1817:Lib/Camera_Middleware/cmw_camera.c ****   }
1818:Lib/Camera_Middleware/cmw_camera.c **** 
1819:Lib/Camera_Middleware/cmw_camera.c ****   csi_pipe_conf.DataTypeMode = DCMIPP_DTMODE_DTIDA;
1820:Lib/Camera_Middleware/cmw_camera.c ****   csi_pipe_conf.DataTypeIDA = dt;
1821:Lib/Camera_Middleware/cmw_camera.c ****   csi_pipe_conf.DataTypeIDB = 0;
ARM GAS  C:\Users\DJESSOU\AppData\Local\Temp\cc3dm0Vf.s 			page 60


1822:Lib/Camera_Middleware/cmw_camera.c ****   /* Pre-initialize CSI config for all the pipes */
1823:Lib/Camera_Middleware/cmw_camera.c ****   for (uint32_t i = DCMIPP_PIPE0; i <= DCMIPP_PIPE2; i++)
1824:Lib/Camera_Middleware/cmw_camera.c ****   {
1825:Lib/Camera_Middleware/cmw_camera.c ****     ret = HAL_DCMIPP_CSI_PIPE_SetConfig(&hcamera_dcmipp, i, &csi_pipe_conf);
1826:Lib/Camera_Middleware/cmw_camera.c ****     if (ret != HAL_OK)
1827:Lib/Camera_Middleware/cmw_camera.c ****     {
1828:Lib/Camera_Middleware/cmw_camera.c ****       return CMW_ERROR_PERIPH_FAILURE;
1829:Lib/Camera_Middleware/cmw_camera.c ****     }
1830:Lib/Camera_Middleware/cmw_camera.c ****   }
1831:Lib/Camera_Middleware/cmw_camera.c **** 
1832:Lib/Camera_Middleware/cmw_camera.c ****   return CMW_ERROR_NONE;
1833:Lib/Camera_Middleware/cmw_camera.c **** }
1834:Lib/Camera_Middleware/cmw_camera.c **** #endif
1835:Lib/Camera_Middleware/cmw_camera.c **** 
1836:Lib/Camera_Middleware/cmw_camera.c **** #if defined(USE_IMX335_SENSOR)
1837:Lib/Camera_Middleware/cmw_camera.c **** static int32_t CMW_CAMERA_IMX335_Init(CMW_Sensor_Init_t *initSensors_params)
 1288              		.loc 1 1837 16 view .LVU491
 1289              	.LBB85:
1838:Lib/Camera_Middleware/cmw_camera.c **** {
1839:Lib/Camera_Middleware/cmw_camera.c ****   int32_t ret = CMW_ERROR_NONE;
 1290              		.loc 1 1839 3 view .LVU492
1840:Lib/Camera_Middleware/cmw_camera.c ****   DCMIPP_CSI_ConfTypeDef csi_conf = { 0 };
 1291              		.loc 1 1840 3 view .LVU493
 1292              		.loc 1 1840 26 is_stmt 0 view .LVU494
 1293 0478 0021     		movs	r1, #0
1841:Lib/Camera_Middleware/cmw_camera.c ****   DCMIPP_CSI_PIPE_ConfTypeDef csi_pipe_conf = { 0 };
1842:Lib/Camera_Middleware/cmw_camera.c ****   uint32_t dt_format = 0;
1843:Lib/Camera_Middleware/cmw_camera.c ****   uint32_t dt = 0;
1844:Lib/Camera_Middleware/cmw_camera.c ****   CMW_IMX335_config_t default_sensor_config;
1845:Lib/Camera_Middleware/cmw_camera.c ****   CMW_IMX335_config_t *sensor_config;
1846:Lib/Camera_Middleware/cmw_camera.c **** 
1847:Lib/Camera_Middleware/cmw_camera.c ****   memset(&camera_bsp, 0, sizeof(camera_bsp));
 1294              		.loc 1 1847 3 view .LVU495
 1295 047a 4FF4B472 		mov	r2, #360
1840:Lib/Camera_Middleware/cmw_camera.c ****   DCMIPP_CSI_ConfTypeDef csi_conf = { 0 };
 1296              		.loc 1 1840 26 view .LVU496
 1297 047e 0291     		str	r1, [sp, #8]
 1298              		.loc 1 1847 3 view .LVU497
 1299 0480 5B48     		ldr	r0, .L135
1840:Lib/Camera_Middleware/cmw_camera.c ****   DCMIPP_CSI_ConfTypeDef csi_conf = { 0 };
 1300              		.loc 1 1840 26 view .LVU498
 1301 0482 C5E90111 		strd	r1, r1, [r5, #4]
1841:Lib/Camera_Middleware/cmw_camera.c ****   DCMIPP_CSI_PIPE_ConfTypeDef csi_pipe_conf = { 0 };
 1302              		.loc 1 1841 3 is_stmt 1 view .LVU499
1841:Lib/Camera_Middleware/cmw_camera.c ****   DCMIPP_CSI_PIPE_ConfTypeDef csi_pipe_conf = { 0 };
 1303              		.loc 1 1841 31 is_stmt 0 view .LVU500
 1304 0486 CDE90511 		strd	r1, r1, [sp, #20]
 1305 048a 0791     		str	r1, [sp, #28]
1842:Lib/Camera_Middleware/cmw_camera.c ****   uint32_t dt = 0;
 1306              		.loc 1 1842 3 is_stmt 1 view .LVU501
 1307              	.LVL93:
1843:Lib/Camera_Middleware/cmw_camera.c ****   CMW_IMX335_config_t default_sensor_config;
 1308              		.loc 1 1843 3 view .LVU502
1844:Lib/Camera_Middleware/cmw_camera.c ****   CMW_IMX335_config_t *sensor_config;
 1309              		.loc 1 1844 3 view .LVU503
1845:Lib/Camera_Middleware/cmw_camera.c **** 
 1310              		.loc 1 1845 3 view .LVU504
ARM GAS  C:\Users\DJESSOU\AppData\Local\Temp\cc3dm0Vf.s 			page 61


 1311              		.loc 1 1847 3 view .LVU505
 1312 048c FFF7FEFF 		bl	memset
 1313              	.LVL94:
1848:Lib/Camera_Middleware/cmw_camera.c ****   camera_bsp.imx335_bsp.Address     = CAMERA_IMX335_ADDRESS;
 1314              		.loc 1 1848 3 view .LVU506
 1315              		.loc 1 1848 37 is_stmt 0 view .LVU507
 1316 0490 3422     		movs	r2, #52
 1317 0492 A8F80020 		strh	r2, [r8]	@ movhi
1849:Lib/Camera_Middleware/cmw_camera.c ****   camera_bsp.imx335_bsp.Init        = CMW_I2C_INIT;
 1318              		.loc 1 1849 3 is_stmt 1 view .LVU508
1850:Lib/Camera_Middleware/cmw_camera.c ****   camera_bsp.imx335_bsp.DeInit      = CMW_I2C_DEINIT;
1851:Lib/Camera_Middleware/cmw_camera.c ****   camera_bsp.imx335_bsp.ReadReg     = CMW_I2C_READREG16;
1852:Lib/Camera_Middleware/cmw_camera.c ****   camera_bsp.imx335_bsp.WriteReg    = CMW_I2C_WRITEREG16;
1853:Lib/Camera_Middleware/cmw_camera.c ****   camera_bsp.imx335_bsp.GetTick     = BSP_GetTick;
1854:Lib/Camera_Middleware/cmw_camera.c ****   camera_bsp.imx335_bsp.Delay       = HAL_Delay;
1855:Lib/Camera_Middleware/cmw_camera.c ****   camera_bsp.imx335_bsp.ShutdownPin = CMW_CAMERA_ShutdownPin;
1856:Lib/Camera_Middleware/cmw_camera.c ****   camera_bsp.imx335_bsp.EnablePin   = CMW_CAMERA_EnablePin;
 1319              		.loc 1 1856 37 is_stmt 0 view .LVU509
 1320 0496 574A     		ldr	r2, .L135+4
1851:Lib/Camera_Middleware/cmw_camera.c ****   camera_bsp.imx335_bsp.WriteReg    = CMW_I2C_WRITEREG16;
 1321              		.loc 1 1851 37 view .LVU510
 1322 0498 574B     		ldr	r3, .L135+8
 1323              		.loc 1 1856 37 view .LVU511
 1324 049a C8F80421 		str	r2, [r8, #260]
1857:Lib/Camera_Middleware/cmw_camera.c ****   camera_bsp.imx335_bsp.hdcmipp     = &hcamera_dcmipp;
 1325              		.loc 1 1857 37 view .LVU512
 1326 049e 574A     		ldr	r2, .L135+12
1852:Lib/Camera_Middleware/cmw_camera.c ****   camera_bsp.imx335_bsp.GetTick     = BSP_GetTick;
 1327              		.loc 1 1852 37 view .LVU513
 1328 04a0 C8E93C73 		strd	r7, r3, [r8, #240]
 1329              		.loc 1 1857 37 view .LVU514
 1330 04a4 C8F8E020 		str	r2, [r8, #224]
1858:Lib/Camera_Middleware/cmw_camera.c ****   camera_bsp.imx335_bsp.appliHelpers.SetSensorGain = CB_ISP_SetSensorGain;
 1331              		.loc 1 1858 52 view .LVU515
 1332 04a8 554A     		ldr	r2, .L135+16
1853:Lib/Camera_Middleware/cmw_camera.c ****   camera_bsp.imx335_bsp.Delay       = HAL_Delay;
 1333              		.loc 1 1853 37 view .LVU516
 1334 04aa 5D4B     		ldr	r3, .L135+48
 1335              		.loc 1 1858 52 view .LVU517
 1336 04ac C8F8CC20 		str	r2, [r8, #204]
1859:Lib/Camera_Middleware/cmw_camera.c ****   camera_bsp.imx335_bsp.appliHelpers.GetSensorGain = CB_ISP_GetSensorGain;
 1337              		.loc 1 1859 52 view .LVU518
 1338 04b0 554A     		ldr	r2, .L135+24
1854:Lib/Camera_Middleware/cmw_camera.c ****   camera_bsp.imx335_bsp.ShutdownPin = CMW_CAMERA_ShutdownPin;
 1339              		.loc 1 1854 37 view .LVU519
 1340 04b2 C8E93E36 		strd	r3, r6, [r8, #248]
 1341              		.loc 1 1859 52 view .LVU520
 1342 04b6 C8F8D020 		str	r2, [r8, #208]
1860:Lib/Camera_Middleware/cmw_camera.c ****   camera_bsp.imx335_bsp.appliHelpers.SetSensorExposure = CB_ISP_SetSensorExposure;
 1343              		.loc 1 1860 56 view .LVU521
 1344 04ba 554A     		ldr	r2, .L135+32
1855:Lib/Camera_Middleware/cmw_camera.c ****   camera_bsp.imx335_bsp.EnablePin   = CMW_CAMERA_EnablePin;
 1345              		.loc 1 1855 37 view .LVU522
 1346 04bc 514B     		ldr	r3, .L135+20
 1347              		.loc 1 1860 56 view .LVU523
 1348 04be C8F8D420 		str	r2, [r8, #212]
1861:Lib/Camera_Middleware/cmw_camera.c ****   camera_bsp.imx335_bsp.appliHelpers.GetSensorExposure = CB_ISP_GetSensorExposure;
ARM GAS  C:\Users\DJESSOU\AppData\Local\Temp\cc3dm0Vf.s 			page 62


 1349              		.loc 1 1861 56 view .LVU524
 1350 04c2 544A     		ldr	r2, .L135+36
1862:Lib/Camera_Middleware/cmw_camera.c ****   camera_bsp.imx335_bsp.appliHelpers.GetSensorInfo = CB_ISP_GetSensorInfo;
1863:Lib/Camera_Middleware/cmw_camera.c **** 
1864:Lib/Camera_Middleware/cmw_camera.c ****   ret = CMW_IMX335_Probe(&camera_bsp.imx335_bsp, &Camera_Drv);
 1351              		.loc 1 1864 9 view .LVU525
 1352 04c4 5149     		ldr	r1, .L135+28
1861:Lib/Camera_Middleware/cmw_camera.c ****   camera_bsp.imx335_bsp.appliHelpers.GetSensorExposure = CB_ISP_GetSensorExposure;
 1353              		.loc 1 1861 56 view .LVU526
 1354 04c6 C8F8D820 		str	r2, [r8, #216]
1862:Lib/Camera_Middleware/cmw_camera.c ****   camera_bsp.imx335_bsp.appliHelpers.GetSensorInfo = CB_ISP_GetSensorInfo;
 1355              		.loc 1 1862 52 view .LVU527
 1356 04ca 534A     		ldr	r2, .L135+40
 1357              		.loc 1 1864 9 view .LVU528
 1358 04cc 4848     		ldr	r0, .L135
1850:Lib/Camera_Middleware/cmw_camera.c ****   camera_bsp.imx335_bsp.ReadReg     = CMW_I2C_READREG16;
 1359              		.loc 1 1850 37 view .LVU529
 1360 04ce C8E93AA9 		strd	r10, r9, [r8, #232]
1851:Lib/Camera_Middleware/cmw_camera.c ****   camera_bsp.imx335_bsp.WriteReg    = CMW_I2C_WRITEREG16;
 1361              		.loc 1 1851 3 is_stmt 1 view .LVU530
1853:Lib/Camera_Middleware/cmw_camera.c ****   camera_bsp.imx335_bsp.Delay       = HAL_Delay;
 1362              		.loc 1 1853 3 view .LVU531
1855:Lib/Camera_Middleware/cmw_camera.c ****   camera_bsp.imx335_bsp.EnablePin   = CMW_CAMERA_EnablePin;
 1363              		.loc 1 1855 3 view .LVU532
1855:Lib/Camera_Middleware/cmw_camera.c ****   camera_bsp.imx335_bsp.EnablePin   = CMW_CAMERA_EnablePin;
 1364              		.loc 1 1855 37 is_stmt 0 view .LVU533
 1365 04d2 C8F80031 		str	r3, [r8, #256]
1856:Lib/Camera_Middleware/cmw_camera.c ****   camera_bsp.imx335_bsp.hdcmipp     = &hcamera_dcmipp;
 1366              		.loc 1 1856 3 is_stmt 1 view .LVU534
1857:Lib/Camera_Middleware/cmw_camera.c ****   camera_bsp.imx335_bsp.appliHelpers.SetSensorGain = CB_ISP_SetSensorGain;
 1367              		.loc 1 1857 3 view .LVU535
1858:Lib/Camera_Middleware/cmw_camera.c ****   camera_bsp.imx335_bsp.appliHelpers.GetSensorGain = CB_ISP_GetSensorGain;
 1368              		.loc 1 1858 3 view .LVU536
1859:Lib/Camera_Middleware/cmw_camera.c ****   camera_bsp.imx335_bsp.appliHelpers.SetSensorExposure = CB_ISP_SetSensorExposure;
 1369              		.loc 1 1859 3 view .LVU537
1860:Lib/Camera_Middleware/cmw_camera.c ****   camera_bsp.imx335_bsp.appliHelpers.GetSensorExposure = CB_ISP_GetSensorExposure;
 1370              		.loc 1 1860 3 view .LVU538
1861:Lib/Camera_Middleware/cmw_camera.c ****   camera_bsp.imx335_bsp.appliHelpers.GetSensorInfo = CB_ISP_GetSensorInfo;
 1371              		.loc 1 1861 3 view .LVU539
1862:Lib/Camera_Middleware/cmw_camera.c **** 
 1372              		.loc 1 1862 3 view .LVU540
1862:Lib/Camera_Middleware/cmw_camera.c **** 
 1373              		.loc 1 1862 52 is_stmt 0 view .LVU541
 1374 04d6 C8F8C820 		str	r2, [r8, #200]
 1375              		.loc 1 1864 3 is_stmt 1 view .LVU542
 1376              		.loc 1 1864 9 is_stmt 0 view .LVU543
 1377 04da FFF7FEFF 		bl	CMW_IMX335_Probe
 1378              	.LVL95:
1865:Lib/Camera_Middleware/cmw_camera.c ****   if (ret != CMW_ERROR_NONE)
 1379              		.loc 1 1865 3 is_stmt 1 view .LVU544
 1380              		.loc 1 1865 6 is_stmt 0 view .LVU545
 1381 04de 0028     		cmp	r0, #0
 1382 04e0 40F08380 		bne	.L65
1866:Lib/Camera_Middleware/cmw_camera.c ****   {
1867:Lib/Camera_Middleware/cmw_camera.c ****     return CMW_ERROR_COMPONENT_FAILURE;
1868:Lib/Camera_Middleware/cmw_camera.c ****   }
1869:Lib/Camera_Middleware/cmw_camera.c **** 
ARM GAS  C:\Users\DJESSOU\AppData\Local\Temp\cc3dm0Vf.s 			page 63


1870:Lib/Camera_Middleware/cmw_camera.c ****   if ((connected_sensor != CMW_IMX335_Sensor) && (connected_sensor != CMW_UNKNOWN_Sensor))
 1383              		.loc 1 1870 3 is_stmt 1 view .LVU546
 1384              		.loc 1 1870 25 is_stmt 0 view .LVU547
 1385 04e4 4D4B     		ldr	r3, .L135+44
 1386 04e6 1B78     		ldrb	r3, [r3]	@ zero_extendqisi2
 1387              		.loc 1 1870 6 view .LVU548
 1388 04e8 032B     		cmp	r3, #3
 1389 04ea 01D0     		beq	.L66
 1390              		.loc 1 1870 47 discriminator 1 view .LVU549
 1391 04ec 002B     		cmp	r3, #0
 1392 04ee 7CD1     		bne	.L65
 1393              	.L66:
1871:Lib/Camera_Middleware/cmw_camera.c ****   {
1872:Lib/Camera_Middleware/cmw_camera.c ****     /* If the selected sensor in the application side has selected a different sensors than IMX335 
1873:Lib/Camera_Middleware/cmw_camera.c ****     return CMW_ERROR_COMPONENT_FAILURE;
1874:Lib/Camera_Middleware/cmw_camera.c ****   }
1875:Lib/Camera_Middleware/cmw_camera.c **** 
1876:Lib/Camera_Middleware/cmw_camera.c ****   /* Special case: when resolution is not specified take the full sensor resolution */
1877:Lib/Camera_Middleware/cmw_camera.c ****   if ((initSensors_params->width == 0) || (initSensors_params->height == 0))
 1394              		.loc 1 1877 3 is_stmt 1 view .LVU550
 1395              		.loc 1 1877 6 is_stmt 0 view .LVU551
 1396 04f0 2368     		ldr	r3, [r4]
 1397 04f2 464F     		ldr	r7, .L135+28
 1398 04f4 0DF12008 		add	r8, sp, #32
 1399 04f8 0BB1     		cbz	r3, .L68
 1400              		.loc 1 1877 40 discriminator 1 view .LVU552
 1401 04fa 6368     		ldr	r3, [r4, #4]
 1402 04fc 3BB9     		cbnz	r3, .L69
 1403              	.L68:
 1404              	.LBB86:
1878:Lib/Camera_Middleware/cmw_camera.c ****   {
1879:Lib/Camera_Middleware/cmw_camera.c ****     ISP_SensorInfoTypeDef sensor_info;
 1405              		.loc 1 1879 5 is_stmt 1 view .LVU553
1880:Lib/Camera_Middleware/cmw_camera.c ****     Camera_Drv.GetSensorInfo(&camera_bsp, &sensor_info);
 1406              		.loc 1 1880 5 view .LVU554
 1407 04fe 3B6E     		ldr	r3, [r7, #96]
 1408 0500 4146     		mov	r1, r8
 1409 0502 3B48     		ldr	r0, .L135
 1410              	.LVL96:
 1411              		.loc 1 1880 5 is_stmt 0 view .LVU555
 1412 0504 9847     		blx	r3
 1413              	.LVL97:
1881:Lib/Camera_Middleware/cmw_camera.c ****     initSensors_params->width = sensor_info.width;
 1414              		.loc 1 1881 5 is_stmt 1 view .LVU556
 1415              		.loc 1 1881 31 is_stmt 0 view .LVU557
 1416 0506 119B     		ldr	r3, [sp, #68]
 1417 0508 2360     		str	r3, [r4]
1882:Lib/Camera_Middleware/cmw_camera.c ****     initSensors_params->height = sensor_info.height;
 1418              		.loc 1 1882 5 is_stmt 1 view .LVU558
 1419              		.loc 1 1882 32 is_stmt 0 view .LVU559
 1420 050a 129B     		ldr	r3, [sp, #72]
 1421 050c 6360     		str	r3, [r4, #4]
 1422              	.L69:
 1423              		.loc 1 1882 32 view .LVU560
 1424              	.LBE86:
1883:Lib/Camera_Middleware/cmw_camera.c ****   }
1884:Lib/Camera_Middleware/cmw_camera.c **** 
ARM GAS  C:\Users\DJESSOU\AppData\Local\Temp\cc3dm0Vf.s 			page 64


1885:Lib/Camera_Middleware/cmw_camera.c ****   CMW_IMX335_SetDefaultSensorValues(&default_sensor_config);
 1425              		.loc 1 1885 3 is_stmt 1 view .LVU561
 1426 050e 4046     		mov	r0, r8
 1427 0510 FFF7FEFF 		bl	CMW_IMX335_SetDefaultSensorValues
 1428              	.LVL98:
1886:Lib/Camera_Middleware/cmw_camera.c ****   initSensors_params->sensor_config = initSensors_params->sensor_config ? initSensors_params->senso
 1429              		.loc 1 1886 3 view .LVU562
 1430              		.loc 1 1886 57 is_stmt 0 view .LVU563
 1431 0514 2669     		ldr	r6, [r4, #16]
1887:Lib/Camera_Middleware/cmw_camera.c ****   sensor_config = (CMW_IMX335_config_t*) (initSensors_params->sensor_config);
1888:Lib/Camera_Middleware/cmw_camera.c **** 
1889:Lib/Camera_Middleware/cmw_camera.c ****   ret = Camera_Drv.Init(&camera_bsp, initSensors_params);
 1432              		.loc 1 1889 9 view .LVU564
 1433 0516 2146     		mov	r1, r4
1886:Lib/Camera_Middleware/cmw_camera.c ****   initSensors_params->sensor_config = initSensors_params->sensor_config ? initSensors_params->senso
 1434              		.loc 1 1886 109 discriminator 2 view .LVU565
 1435 0518 002E     		cmp	r6, #0
 1436 051a 08BF     		it	eq
 1437 051c 4646     		moveq	r6, r8
 1438              		.loc 1 1889 9 view .LVU566
 1439 051e 3B68     		ldr	r3, [r7]
 1440 0520 3348     		ldr	r0, .L135
1886:Lib/Camera_Middleware/cmw_camera.c ****   initSensors_params->sensor_config = initSensors_params->sensor_config ? initSensors_params->senso
 1441              		.loc 1 1886 37 discriminator 4 view .LVU567
 1442 0522 2661     		str	r6, [r4, #16]
1887:Lib/Camera_Middleware/cmw_camera.c ****   sensor_config = (CMW_IMX335_config_t*) (initSensors_params->sensor_config);
 1443              		.loc 1 1887 3 is_stmt 1 view .LVU568
 1444              	.LVL99:
 1445              		.loc 1 1889 3 view .LVU569
 1446              		.loc 1 1889 9 is_stmt 0 view .LVU570
 1447 0524 9847     		blx	r3
 1448              	.LVL100:
1890:Lib/Camera_Middleware/cmw_camera.c ****   if (ret != CMW_ERROR_NONE)
 1449              		.loc 1 1890 3 is_stmt 1 view .LVU571
 1450              		.loc 1 1890 6 is_stmt 0 view .LVU572
 1451 0526 0028     		cmp	r0, #0
 1452 0528 5FD1     		bne	.L65
1891:Lib/Camera_Middleware/cmw_camera.c ****   {
1892:Lib/Camera_Middleware/cmw_camera.c ****     return CMW_ERROR_COMPONENT_FAILURE;
1893:Lib/Camera_Middleware/cmw_camera.c ****   }
1894:Lib/Camera_Middleware/cmw_camera.c **** 
1895:Lib/Camera_Middleware/cmw_camera.c ****   ret = Camera_Drv.SetFrequency(&camera_bsp, IMX335_INCK_24MHZ);
 1453              		.loc 1 1895 3 is_stmt 1 view .LVU573
 1454              		.loc 1 1895 9 is_stmt 0 view .LVU574
 1455 052a 0221     		movs	r1, #2
 1456 052c 3B6C     		ldr	r3, [r7, #64]
 1457 052e 3048     		ldr	r0, .L135
 1458              	.LVL101:
 1459              		.loc 1 1895 9 view .LVU575
 1460 0530 9847     		blx	r3
 1461              	.LVL102:
1896:Lib/Camera_Middleware/cmw_camera.c ****   if (ret != CMW_ERROR_NONE)
 1462              		.loc 1 1896 3 is_stmt 1 view .LVU576
 1463              		.loc 1 1896 6 is_stmt 0 view .LVU577
 1464 0532 0028     		cmp	r0, #0
 1465 0534 59D1     		bne	.L65
1897:Lib/Camera_Middleware/cmw_camera.c ****   {
ARM GAS  C:\Users\DJESSOU\AppData\Local\Temp\cc3dm0Vf.s 			page 65


1898:Lib/Camera_Middleware/cmw_camera.c ****     return CMW_ERROR_COMPONENT_FAILURE;
1899:Lib/Camera_Middleware/cmw_camera.c ****   }
1900:Lib/Camera_Middleware/cmw_camera.c **** 
1901:Lib/Camera_Middleware/cmw_camera.c ****   ret = Camera_Drv.SetFramerate(&camera_bsp, initSensors_params->fps);
 1466              		.loc 1 1901 3 is_stmt 1 view .LVU578
 1467              		.loc 1 1901 9 is_stmt 0 view .LVU579
 1468 0536 7B6C     		ldr	r3, [r7, #68]
 1469 0538 A168     		ldr	r1, [r4, #8]
 1470 053a 2D48     		ldr	r0, .L135
 1471              	.LVL103:
 1472              		.loc 1 1901 9 view .LVU580
 1473 053c 9847     		blx	r3
 1474              	.LVL104:
1902:Lib/Camera_Middleware/cmw_camera.c ****   if (ret != CMW_ERROR_NONE)
 1475              		.loc 1 1902 3 is_stmt 1 view .LVU581
 1476              		.loc 1 1902 6 is_stmt 0 view .LVU582
 1477 053e 0028     		cmp	r0, #0
 1478 0540 53D1     		bne	.L65
1903:Lib/Camera_Middleware/cmw_camera.c ****   {
1904:Lib/Camera_Middleware/cmw_camera.c ****     return CMW_ERROR_COMPONENT_FAILURE;
1905:Lib/Camera_Middleware/cmw_camera.c ****   }
1906:Lib/Camera_Middleware/cmw_camera.c **** 
1907:Lib/Camera_Middleware/cmw_camera.c ****   switch (sensor_config->pixel_format)
 1479              		.loc 1 1907 3 is_stmt 1 view .LVU583
 1480              		.loc 1 1907 24 is_stmt 0 view .LVU584
 1481 0542 3368     		ldr	r3, [r6]
 1482              		.loc 1 1907 3 view .LVU585
 1483 0544 0BB1     		cbz	r3, .L71
 1484 0546 2B2B     		cmp	r3, #43
 1485 0548 4FD1     		bne	.L65
 1486              	.L71:
1908:Lib/Camera_Middleware/cmw_camera.c ****   {
1909:Lib/Camera_Middleware/cmw_camera.c ****     case CMW_PIXEL_FORMAT_DEFAULT:
1910:Lib/Camera_Middleware/cmw_camera.c ****     case CMW_PIXEL_FORMAT_RAW10:
1911:Lib/Camera_Middleware/cmw_camera.c ****     {
1912:Lib/Camera_Middleware/cmw_camera.c ****       dt_format = DCMIPP_CSI_DT_BPP10;
 1487              		.loc 1 1912 7 is_stmt 1 view .LVU586
 1488              	.LVL105:
1913:Lib/Camera_Middleware/cmw_camera.c ****       dt = DCMIPP_DT_RAW10;
 1489              		.loc 1 1913 7 view .LVU587
1914:Lib/Camera_Middleware/cmw_camera.c ****       break;
 1490              		.loc 1 1914 7 view .LVU588
1915:Lib/Camera_Middleware/cmw_camera.c ****     }
1916:Lib/Camera_Middleware/cmw_camera.c ****     default:
1917:Lib/Camera_Middleware/cmw_camera.c ****       return CMW_ERROR_COMPONENT_FAILURE;
1918:Lib/Camera_Middleware/cmw_camera.c ****   }
1919:Lib/Camera_Middleware/cmw_camera.c **** 
1920:Lib/Camera_Middleware/cmw_camera.c ****   csi_conf.NumberOfLanes = DCMIPP_CSI_TWO_DATA_LANES;
 1491              		.loc 1 1920 3 view .LVU589
1921:Lib/Camera_Middleware/cmw_camera.c ****   csi_conf.DataLaneMapping = DCMIPP_CSI_PHYSICAL_DATA_LANES;
 1492              		.loc 1 1921 28 is_stmt 0 view .LVU590
 1493 054a 4FF40072 		mov	r2, #512
 1494 054e 0123     		movs	r3, #1
 1495 0550 CDE90223 		strd	r2, r3, [sp, #8]
1922:Lib/Camera_Middleware/cmw_camera.c ****   csi_conf.PHYBitrate = DCMIPP_CSI_PHY_BT_1600;
 1496              		.loc 1 1922 3 is_stmt 1 view .LVU591
 1497              		.loc 1 1922 23 is_stmt 0 view .LVU592
ARM GAS  C:\Users\DJESSOU\AppData\Local\Temp\cc3dm0Vf.s 			page 66


 1498 0554 2C23     		movs	r3, #44
1923:Lib/Camera_Middleware/cmw_camera.c ****   ret = HAL_DCMIPP_CSI_SetConfig(&hcamera_dcmipp, &csi_conf);
 1499              		.loc 1 1923 9 view .LVU593
 1500 0556 2946     		mov	r1, r5
 1501 0558 2848     		ldr	r0, .L135+12
 1502              	.LVL106:
1922:Lib/Camera_Middleware/cmw_camera.c ****   csi_conf.PHYBitrate = DCMIPP_CSI_PHY_BT_1600;
 1503              		.loc 1 1922 23 view .LVU594
 1504 055a 0493     		str	r3, [sp, #16]
 1505              		.loc 1 1923 3 is_stmt 1 view .LVU595
 1506              		.loc 1 1923 9 is_stmt 0 view .LVU596
 1507 055c FFF7FEFF 		bl	HAL_DCMIPP_CSI_SetConfig
 1508              	.LVL107:
1924:Lib/Camera_Middleware/cmw_camera.c ****   if (ret != HAL_OK)
 1509              		.loc 1 1924 3 is_stmt 1 view .LVU597
 1510              		.loc 1 1924 6 is_stmt 0 view .LVU598
 1511 0560 0146     		mov	r1, r0
 1512 0562 0028     		cmp	r0, #0
 1513 0564 41D1     		bne	.L65
1925:Lib/Camera_Middleware/cmw_camera.c ****   {
1926:Lib/Camera_Middleware/cmw_camera.c ****     return CMW_ERROR_PERIPH_FAILURE;
1927:Lib/Camera_Middleware/cmw_camera.c ****   }
1928:Lib/Camera_Middleware/cmw_camera.c **** 
1929:Lib/Camera_Middleware/cmw_camera.c ****   ret = HAL_DCMIPP_CSI_SetVCConfig(&hcamera_dcmipp, DCMIPP_VIRTUAL_CHANNEL0, dt_format);
 1514              		.loc 1 1929 3 is_stmt 1 view .LVU599
 1515              		.loc 1 1929 9 is_stmt 0 view .LVU600
 1516 0566 0322     		movs	r2, #3
 1517 0568 2448     		ldr	r0, .L135+12
 1518              	.LVL108:
 1519              		.loc 1 1929 9 view .LVU601
 1520 056a FFF7FEFF 		bl	HAL_DCMIPP_CSI_SetVCConfig
 1521              	.LVL109:
1930:Lib/Camera_Middleware/cmw_camera.c ****   if (ret != HAL_OK)
 1522              		.loc 1 1930 3 is_stmt 1 view .LVU602
 1523              		.loc 1 1930 6 is_stmt 0 view .LVU603
 1524 056e 0446     		mov	r4, r0
 1525              	.LVL110:
 1526              		.loc 1 1930 6 view .LVU604
 1527 0570 0028     		cmp	r0, #0
 1528 0572 3AD1     		bne	.L65
1931:Lib/Camera_Middleware/cmw_camera.c ****   {
1932:Lib/Camera_Middleware/cmw_camera.c ****     return CMW_ERROR_PERIPH_FAILURE;
1933:Lib/Camera_Middleware/cmw_camera.c ****   }
1934:Lib/Camera_Middleware/cmw_camera.c **** 
1935:Lib/Camera_Middleware/cmw_camera.c ****   csi_pipe_conf.DataTypeMode = DCMIPP_DTMODE_DTIDA;
 1529              		.loc 1 1935 3 is_stmt 1 view .LVU605
1936:Lib/Camera_Middleware/cmw_camera.c ****   csi_pipe_conf.DataTypeIDA = dt;
 1530              		.loc 1 1936 29 is_stmt 0 view .LVU606
 1531 0574 2B23     		movs	r3, #43
1937:Lib/Camera_Middleware/cmw_camera.c ****   csi_pipe_conf.DataTypeIDB = 0;
 1532              		.loc 1 1937 29 view .LVU607
 1533 0576 CDE90630 		strd	r3, r0, [sp, #24]
 1534              	.LBB87:
1938:Lib/Camera_Middleware/cmw_camera.c ****   /* Pre-initialize CSI config for all the pipes */
1939:Lib/Camera_Middleware/cmw_camera.c ****   for (uint32_t i = DCMIPP_PIPE0; i <= DCMIPP_PIPE2; i++)
1940:Lib/Camera_Middleware/cmw_camera.c ****   {
1941:Lib/Camera_Middleware/cmw_camera.c ****     ret = HAL_DCMIPP_CSI_PIPE_SetConfig(&hcamera_dcmipp, i, &csi_pipe_conf);
ARM GAS  C:\Users\DJESSOU\AppData\Local\Temp\cc3dm0Vf.s 			page 67


 1535              		.loc 1 1941 11 view .LVU608
 1536 057a 204D     		ldr	r5, .L135+12
 1537              	.LBE87:
1935:Lib/Camera_Middleware/cmw_camera.c ****   csi_pipe_conf.DataTypeIDA = dt;
 1538              		.loc 1 1935 30 view .LVU609
 1539 057c 0590     		str	r0, [sp, #20]
1936:Lib/Camera_Middleware/cmw_camera.c ****   csi_pipe_conf.DataTypeIDB = 0;
 1540              		.loc 1 1936 3 is_stmt 1 view .LVU610
1939:Lib/Camera_Middleware/cmw_camera.c ****   {
 1541              		.loc 1 1939 3 view .LVU611
 1542              	.LBB88:
1939:Lib/Camera_Middleware/cmw_camera.c ****   {
 1543              		.loc 1 1939 8 view .LVU612
 1544              	.LVL111:
1939:Lib/Camera_Middleware/cmw_camera.c ****   {
 1545              		.loc 1 1939 37 discriminator 1 view .LVU613
 1546              	.L72:
 1547              		.loc 1 1941 5 view .LVU614
 1548              		.loc 1 1941 11 is_stmt 0 view .LVU615
 1549 057e 2146     		mov	r1, r4
 1550 0580 2846     		mov	r0, r5
 1551 0582 05AA     		add	r2, sp, #20
 1552 0584 FFF7FEFF 		bl	HAL_DCMIPP_CSI_PIPE_SetConfig
 1553              	.LVL112:
1942:Lib/Camera_Middleware/cmw_camera.c ****     if (ret != HAL_OK)
 1554              		.loc 1 1942 5 is_stmt 1 view .LVU616
 1555              		.loc 1 1942 8 is_stmt 0 view .LVU617
 1556 0588 78BB     		cbnz	r0, .L65
1939:Lib/Camera_Middleware/cmw_camera.c ****   {
 1557              		.loc 1 1939 55 is_stmt 1 discriminator 2 view .LVU618
 1558 058a 0134     		adds	r4, r4, #1
 1559              	.LVL113:
1939:Lib/Camera_Middleware/cmw_camera.c ****   {
 1560              		.loc 1 1939 37 discriminator 1 view .LVU619
 1561 058c 032C     		cmp	r4, #3
 1562 058e F6D1     		bne	.L72
 1563              	.LVL114:
 1564              	.L74:
1939:Lib/Camera_Middleware/cmw_camera.c ****   {
 1565              		.loc 1 1939 37 is_stmt 0 discriminator 1 view .LVU620
 1566              	.LBE88:
 1567              	.LBE85:
 1568              	.LBE84:
 255:Lib/Camera_Middleware/cmw_camera.c ****   }
 1569              		.loc 1 255 12 view .LVU621
 1570 0590 0020     		movs	r0, #0
 262:Lib/Camera_Middleware/cmw_camera.c ****     return ret;
 1571              		.loc 1 262 17 view .LVU622
 1572 0592 224B     		ldr	r3, .L135+44
 1573 0594 1C70     		strb	r4, [r3]
 1574              	.L22:
 318:Lib/Camera_Middleware/cmw_camera.c **** 
 1575              		.loc 1 318 1 view .LVU623
 1576 0596 19B0     		add	sp, sp, #100
 1577              		.cfi_remember_state
 1578              		.cfi_def_cfa_offset 36
 1579              		@ sp needed
ARM GAS  C:\Users\DJESSOU\AppData\Local\Temp\cc3dm0Vf.s 			page 68


 1580 0598 BDE8F08F 		pop	{r4, r5, r6, r7, r8, r9, r10, fp, pc}
 1581              	.LVL115:
 1582              	.L61:
 1583              		.cfi_restore_state
 1584              	.LBB89:
 1585              	.LBB82:
1672:Lib/Camera_Middleware/cmw_camera.c ****   {
 1586              		.loc 1 1672 3 view .LVU624
 1587 059c BBF12C0F 		cmp	fp, #44
 1588 05a0 7FF46AAF 		bne	.L54
 1589              	.L130:
1689:Lib/Camera_Middleware/cmw_camera.c ****       dt = DCMIPP_DT_RAW12;
 1590              		.loc 1 1689 17 view .LVU625
 1591 05a4 0422     		movs	r2, #4
 1592 05a6 00E0     		b	.L60
 1593              	.L78:
1672:Lib/Camera_Middleware/cmw_camera.c ****   {
 1594              		.loc 1 1672 3 view .LVU626
 1595 05a8 0322     		movs	r2, #3
 1596              	.L60:
 1597              	.LVL116:
1697:Lib/Camera_Middleware/cmw_camera.c ****   if (ret != HAL_OK)
 1598              		.loc 1 1697 3 is_stmt 1 view .LVU627
1697:Lib/Camera_Middleware/cmw_camera.c ****   if (ret != HAL_OK)
 1599              		.loc 1 1697 9 is_stmt 0 view .LVU628
 1600 05aa 0021     		movs	r1, #0
 1601 05ac 1348     		ldr	r0, .L135+12
 1602              	.LVL117:
1697:Lib/Camera_Middleware/cmw_camera.c ****   if (ret != HAL_OK)
 1603              		.loc 1 1697 9 view .LVU629
 1604 05ae FFF7FEFF 		bl	HAL_DCMIPP_CSI_SetVCConfig
 1605              	.LVL118:
1698:Lib/Camera_Middleware/cmw_camera.c ****   {
 1606              		.loc 1 1698 3 is_stmt 1 view .LVU630
1698:Lib/Camera_Middleware/cmw_camera.c ****   {
 1607              		.loc 1 1698 6 is_stmt 0 view .LVU631
 1608 05b2 0146     		mov	r1, r0
 1609 05b4 0028     		cmp	r0, #0
 1610 05b6 7FF45FAF 		bne	.L54
1703:Lib/Camera_Middleware/cmw_camera.c ****   csi_pipe_conf.DataTypeIDA = dt;
 1611              		.loc 1 1703 3 is_stmt 1 view .LVU632
1704:Lib/Camera_Middleware/cmw_camera.c ****   csi_pipe_conf.DataTypeIDB = 0;
 1612              		.loc 1 1704 29 is_stmt 0 view .LVU633
 1613 05ba CDE9080B 		strd	r0, fp, [sp, #32]
1705:Lib/Camera_Middleware/cmw_camera.c ****   /* Pre-initialize CSI config for all the pipes */
 1614              		.loc 1 1705 3 is_stmt 1 view .LVU634
 1615              	.LBB80:
1709:Lib/Camera_Middleware/cmw_camera.c ****     if (ret != HAL_OK)
 1616              		.loc 1 1709 11 is_stmt 0 view .LVU635
 1617 05be DFF83CB0 		ldr	fp, .L135+12
 1618              	.LVL119:
1709:Lib/Camera_Middleware/cmw_camera.c ****     if (ret != HAL_OK)
 1619              		.loc 1 1709 11 view .LVU636
 1620              	.LBE80:
1705:Lib/Camera_Middleware/cmw_camera.c ****   /* Pre-initialize CSI config for all the pipes */
 1621              		.loc 1 1705 29 view .LVU637
 1622 05c2 0A90     		str	r0, [sp, #40]
ARM GAS  C:\Users\DJESSOU\AppData\Local\Temp\cc3dm0Vf.s 			page 69


1707:Lib/Camera_Middleware/cmw_camera.c ****   {
 1623              		.loc 1 1707 3 is_stmt 1 view .LVU638
 1624              	.LBB81:
1707:Lib/Camera_Middleware/cmw_camera.c ****   {
 1625              		.loc 1 1707 8 view .LVU639
 1626              	.LVL120:
1707:Lib/Camera_Middleware/cmw_camera.c ****   {
 1627              		.loc 1 1707 37 discriminator 1 view .LVU640
 1628              	.L62:
1709:Lib/Camera_Middleware/cmw_camera.c ****     if (ret != HAL_OK)
 1629              		.loc 1 1709 5 view .LVU641
1709:Lib/Camera_Middleware/cmw_camera.c ****     if (ret != HAL_OK)
 1630              		.loc 1 1709 11 is_stmt 0 view .LVU642
 1631 05c4 5846     		mov	r0, fp
 1632 05c6 08AA     		add	r2, sp, #32
 1633 05c8 0191     		str	r1, [sp, #4]
 1634 05ca FFF7FEFF 		bl	HAL_DCMIPP_CSI_PIPE_SetConfig
 1635              	.LVL121:
1710:Lib/Camera_Middleware/cmw_camera.c ****     {
 1636              		.loc 1 1710 5 is_stmt 1 view .LVU643
1710:Lib/Camera_Middleware/cmw_camera.c ****     {
 1637              		.loc 1 1710 8 is_stmt 0 view .LVU644
 1638 05ce 0028     		cmp	r0, #0
 1639 05d0 7FF452AF 		bne	.L54
1707:Lib/Camera_Middleware/cmw_camera.c ****   {
 1640              		.loc 1 1707 55 is_stmt 1 discriminator 2 view .LVU645
 1641 05d4 0199     		ldr	r1, [sp, #4]
 1642 05d6 0131     		adds	r1, r1, #1
 1643              	.LVL122:
1707:Lib/Camera_Middleware/cmw_camera.c ****   {
 1644              		.loc 1 1707 37 discriminator 1 view .LVU646
 1645 05d8 0329     		cmp	r1, #3
 1646 05da F3D1     		bne	.L62
 1647              	.LVL123:
1707:Lib/Camera_Middleware/cmw_camera.c ****   {
 1648              		.loc 1 1707 37 is_stmt 0 discriminator 1 view .LVU647
 1649              	.LBE81:
 1650              	.LBE82:
 1651              	.LBE89:
 292:Lib/Camera_Middleware/cmw_camera.c ****   {
 1652              		.loc 1 292 3 is_stmt 1 view .LVU648
 294:Lib/Camera_Middleware/cmw_camera.c ****     return ret;
 1653              		.loc 1 294 5 view .LVU649
 295:Lib/Camera_Middleware/cmw_camera.c ****   }
 1654              		.loc 1 295 5 view .LVU650
 295:Lib/Camera_Middleware/cmw_camera.c ****   }
 1655              		.loc 1 295 12 is_stmt 0 view .LVU651
 1656 05dc 0724     		movs	r4, #7
 1657              	.LVL124:
 295:Lib/Camera_Middleware/cmw_camera.c ****   }
 1658              		.loc 1 295 12 view .LVU652
 1659 05de D7E7     		b	.L74
 1660              	.LVL125:
 1661              	.L79:
 1662              	.LBB90:
 1663              	.LBB83:
1690:Lib/Camera_Middleware/cmw_camera.c ****       break;
ARM GAS  C:\Users\DJESSOU\AppData\Local\Temp\cc3dm0Vf.s 			page 70


 1664              		.loc 1 1690 10 view .LVU653
 1665 05e0 4FF02C0B 		mov	fp, #44
 1666 05e4 DEE7     		b	.L130
 1667              	.L80:
1676:Lib/Camera_Middleware/cmw_camera.c ****       dt = DCMIPP_DT_RAW8;
 1668              		.loc 1 1676 17 view .LVU654
 1669 05e6 0222     		movs	r2, #2
 1670 05e8 DFE7     		b	.L60
 1671              	.LVL126:
 1672              	.L65:
1676:Lib/Camera_Middleware/cmw_camera.c ****       dt = DCMIPP_DT_RAW8;
 1673              		.loc 1 1676 17 view .LVU655
 1674              	.LBE83:
 1675              	.LBE90:
 316:Lib/Camera_Middleware/cmw_camera.c ****   }
 1676              		.loc 1 316 12 view .LVU656
 1677 05ea 6FF00600 		mvn	r0, #6
 1678 05ee D2E7     		b	.L22
 1679              	.L136:
 1680              		.align	2
 1681              	.L135:
 1682 05f0 00000000 		.word	camera_bsp
 1683 05f4 00000000 		.word	CMW_CAMERA_EnablePin
 1684 05f8 00000000 		.word	BSP_I2C1_ReadReg16
 1685 05fc 00000000 		.word	hcamera_dcmipp
 1686 0600 00000000 		.word	CB_ISP_SetSensorGain
 1687 0604 00000000 		.word	CMW_CAMERA_ShutdownPin
 1688 0608 00000000 		.word	CB_ISP_GetSensorGain
 1689 060c 00000000 		.word	Camera_Drv
 1690 0610 00000000 		.word	CB_ISP_SetSensorExposure
 1691 0614 00000000 		.word	CB_ISP_GetSensorExposure
 1692 0618 00000000 		.word	CB_ISP_GetSensorInfo
 1693 061c 00000000 		.word	connected_sensor
 1694 0620 00000000 		.word	BSP_GetTick
 1695              		.cfi_endproc
 1696              	.LFE918:
 1698              		.section	.text.CMW_CAMERA_EnableGPIOs,"ax",%progbits
 1699              		.align	1
 1700              		.syntax unified
 1701              		.thumb
 1702              		.thumb_func
 1704              	CMW_CAMERA_EnableGPIOs:
 1705              	.LFB899:
 980:Lib/Camera_Middleware/cmw_camera.c ****   GPIO_InitTypeDef gpio_init_structure = {0};
 1706              		.loc 1 980 1 is_stmt 1 view -0
 1707              		.cfi_startproc
 1708              		@ args = 0, pretend = 0, frame = 32
 1709              		@ frame_needed = 0, uses_anonymous_args = 0
 981:Lib/Camera_Middleware/cmw_camera.c **** 
 1710              		.loc 1 981 3 view .LVU658
 980:Lib/Camera_Middleware/cmw_camera.c ****   GPIO_InitTypeDef gpio_init_structure = {0};
 1711              		.loc 1 980 1 is_stmt 0 view .LVU659
 1712 0000 70B5     		push	{r4, r5, r6, lr}
 1713              		.cfi_def_cfa_offset 16
 1714              		.cfi_offset 4, -16
 1715              		.cfi_offset 5, -12
 1716              		.cfi_offset 6, -8
ARM GAS  C:\Users\DJESSOU\AppData\Local\Temp\cc3dm0Vf.s 			page 71


 1717              		.cfi_offset 14, -4
 1718 0002 88B0     		sub	sp, sp, #32
 1719              		.cfi_def_cfa_offset 48
 981:Lib/Camera_Middleware/cmw_camera.c **** 
 1720              		.loc 1 981 20 view .LVU660
 1721 0004 1422     		movs	r2, #20
 1722 0006 0021     		movs	r1, #0
 1723 0008 03A8     		add	r0, sp, #12
 1724 000a FFF7FEFF 		bl	memset
 1725              	.LVL127:
 984:Lib/Camera_Middleware/cmw_camera.c ****   EN_CAM_GPIO_CLK_ENABLE();
 1726              		.loc 1 984 29 is_stmt 1 view .LVU661
 985:Lib/Camera_Middleware/cmw_camera.c ****   NRST_CAM_GPIO_ENABLE_VDDIO();
 1727              		.loc 1 985 3 view .LVU662
 1728              	.LBB95:
 1729              	.LBI95:
 1730              		.file 2 "STM32Cube_FW_N6/Drivers/STM32N6xx_HAL_Driver/Inc/stm32n6xx_ll_bus.h"
   1:STM32Cube_FW_N6/Drivers/STM32N6xx_HAL_Driver/Inc/stm32n6xx_ll_bus.h **** /**
   2:STM32Cube_FW_N6/Drivers/STM32N6xx_HAL_Driver/Inc/stm32n6xx_ll_bus.h ****   ******************************************************************************
   3:STM32Cube_FW_N6/Drivers/STM32N6xx_HAL_Driver/Inc/stm32n6xx_ll_bus.h ****   * @file    stm32n6xx_ll_bus.h
   4:STM32Cube_FW_N6/Drivers/STM32N6xx_HAL_Driver/Inc/stm32n6xx_ll_bus.h ****   * @author  MCD Application Team
   5:STM32Cube_FW_N6/Drivers/STM32N6xx_HAL_Driver/Inc/stm32n6xx_ll_bus.h ****   * @brief   Header file of BUS LL module.
   6:STM32Cube_FW_N6/Drivers/STM32N6xx_HAL_Driver/Inc/stm32n6xx_ll_bus.h ****   ******************************************************************************
   7:STM32Cube_FW_N6/Drivers/STM32N6xx_HAL_Driver/Inc/stm32n6xx_ll_bus.h ****   * @attention
   8:STM32Cube_FW_N6/Drivers/STM32N6xx_HAL_Driver/Inc/stm32n6xx_ll_bus.h ****   *
   9:STM32Cube_FW_N6/Drivers/STM32N6xx_HAL_Driver/Inc/stm32n6xx_ll_bus.h ****   * Copyright (c) 2023 STMicroelectronics.
  10:STM32Cube_FW_N6/Drivers/STM32N6xx_HAL_Driver/Inc/stm32n6xx_ll_bus.h ****   * All rights reserved.
  11:STM32Cube_FW_N6/Drivers/STM32N6xx_HAL_Driver/Inc/stm32n6xx_ll_bus.h ****   *
  12:STM32Cube_FW_N6/Drivers/STM32N6xx_HAL_Driver/Inc/stm32n6xx_ll_bus.h ****   * This software is licensed under terms that can be found in the LICENSE file
  13:STM32Cube_FW_N6/Drivers/STM32N6xx_HAL_Driver/Inc/stm32n6xx_ll_bus.h ****   * in the root directory of this software component.
  14:STM32Cube_FW_N6/Drivers/STM32N6xx_HAL_Driver/Inc/stm32n6xx_ll_bus.h ****   * If no LICENSE file comes with this software, it is provided AS-IS.
  15:STM32Cube_FW_N6/Drivers/STM32N6xx_HAL_Driver/Inc/stm32n6xx_ll_bus.h ****   *
  16:STM32Cube_FW_N6/Drivers/STM32N6xx_HAL_Driver/Inc/stm32n6xx_ll_bus.h ****   ******************************************************************************
  17:STM32Cube_FW_N6/Drivers/STM32N6xx_HAL_Driver/Inc/stm32n6xx_ll_bus.h ****   @verbatim
  18:STM32Cube_FW_N6/Drivers/STM32N6xx_HAL_Driver/Inc/stm32n6xx_ll_bus.h ****                       ##### RCC Limitations #####
  19:STM32Cube_FW_N6/Drivers/STM32N6xx_HAL_Driver/Inc/stm32n6xx_ll_bus.h ****   ==============================================================================
  20:STM32Cube_FW_N6/Drivers/STM32N6xx_HAL_Driver/Inc/stm32n6xx_ll_bus.h ****     [..]
  21:STM32Cube_FW_N6/Drivers/STM32N6xx_HAL_Driver/Inc/stm32n6xx_ll_bus.h ****       A delay between an RCC peripheral clock enable and the effective peripheral
  22:STM32Cube_FW_N6/Drivers/STM32N6xx_HAL_Driver/Inc/stm32n6xx_ll_bus.h ****       enabling should be taken into account in order to manage the peripheral read/write
  23:STM32Cube_FW_N6/Drivers/STM32N6xx_HAL_Driver/Inc/stm32n6xx_ll_bus.h ****       from/to registers.
  24:STM32Cube_FW_N6/Drivers/STM32N6xx_HAL_Driver/Inc/stm32n6xx_ll_bus.h ****       (+) This delay depends on the peripheral mapping.
  25:STM32Cube_FW_N6/Drivers/STM32N6xx_HAL_Driver/Inc/stm32n6xx_ll_bus.h ****         (++) AHB & APB peripherals, 1 dummy read is necessary
  26:STM32Cube_FW_N6/Drivers/STM32N6xx_HAL_Driver/Inc/stm32n6xx_ll_bus.h **** 
  27:STM32Cube_FW_N6/Drivers/STM32N6xx_HAL_Driver/Inc/stm32n6xx_ll_bus.h ****     [..]
  28:STM32Cube_FW_N6/Drivers/STM32N6xx_HAL_Driver/Inc/stm32n6xx_ll_bus.h ****       Workarounds:
  29:STM32Cube_FW_N6/Drivers/STM32N6xx_HAL_Driver/Inc/stm32n6xx_ll_bus.h ****       (#) For AHB & APB peripherals, a dummy read to the peripheral register has been
  30:STM32Cube_FW_N6/Drivers/STM32N6xx_HAL_Driver/Inc/stm32n6xx_ll_bus.h ****           inserted in each LL_{BUS}_GRP{x}_EnableClock() function.
  31:STM32Cube_FW_N6/Drivers/STM32N6xx_HAL_Driver/Inc/stm32n6xx_ll_bus.h **** 
  32:STM32Cube_FW_N6/Drivers/STM32N6xx_HAL_Driver/Inc/stm32n6xx_ll_bus.h ****   @endverbatim
  33:STM32Cube_FW_N6/Drivers/STM32N6xx_HAL_Driver/Inc/stm32n6xx_ll_bus.h ****   ******************************************************************************
  34:STM32Cube_FW_N6/Drivers/STM32N6xx_HAL_Driver/Inc/stm32n6xx_ll_bus.h ****   */
  35:STM32Cube_FW_N6/Drivers/STM32N6xx_HAL_Driver/Inc/stm32n6xx_ll_bus.h **** 
  36:STM32Cube_FW_N6/Drivers/STM32N6xx_HAL_Driver/Inc/stm32n6xx_ll_bus.h **** /* Define to prevent recursive inclusion -------------------------------------*/
  37:STM32Cube_FW_N6/Drivers/STM32N6xx_HAL_Driver/Inc/stm32n6xx_ll_bus.h **** #ifndef STM32N6xx_LL_BUS_H
  38:STM32Cube_FW_N6/Drivers/STM32N6xx_HAL_Driver/Inc/stm32n6xx_ll_bus.h **** #define STM32N6xx_LL_BUS_H
  39:STM32Cube_FW_N6/Drivers/STM32N6xx_HAL_Driver/Inc/stm32n6xx_ll_bus.h **** 
  40:STM32Cube_FW_N6/Drivers/STM32N6xx_HAL_Driver/Inc/stm32n6xx_ll_bus.h **** #ifdef __cplusplus
ARM GAS  C:\Users\DJESSOU\AppData\Local\Temp\cc3dm0Vf.s 			page 72


  41:STM32Cube_FW_N6/Drivers/STM32N6xx_HAL_Driver/Inc/stm32n6xx_ll_bus.h **** extern "C" {
  42:STM32Cube_FW_N6/Drivers/STM32N6xx_HAL_Driver/Inc/stm32n6xx_ll_bus.h **** #endif
  43:STM32Cube_FW_N6/Drivers/STM32N6xx_HAL_Driver/Inc/stm32n6xx_ll_bus.h **** 
  44:STM32Cube_FW_N6/Drivers/STM32N6xx_HAL_Driver/Inc/stm32n6xx_ll_bus.h **** /* Includes ------------------------------------------------------------------*/
  45:STM32Cube_FW_N6/Drivers/STM32N6xx_HAL_Driver/Inc/stm32n6xx_ll_bus.h **** #include "stm32n6xx.h"
  46:STM32Cube_FW_N6/Drivers/STM32N6xx_HAL_Driver/Inc/stm32n6xx_ll_bus.h **** 
  47:STM32Cube_FW_N6/Drivers/STM32N6xx_HAL_Driver/Inc/stm32n6xx_ll_bus.h **** /** @addtogroup STM32N6xx_LL_Driver
  48:STM32Cube_FW_N6/Drivers/STM32N6xx_HAL_Driver/Inc/stm32n6xx_ll_bus.h ****   * @{
  49:STM32Cube_FW_N6/Drivers/STM32N6xx_HAL_Driver/Inc/stm32n6xx_ll_bus.h ****   */
  50:STM32Cube_FW_N6/Drivers/STM32N6xx_HAL_Driver/Inc/stm32n6xx_ll_bus.h **** #if defined(RCC)
  51:STM32Cube_FW_N6/Drivers/STM32N6xx_HAL_Driver/Inc/stm32n6xx_ll_bus.h **** 
  52:STM32Cube_FW_N6/Drivers/STM32N6xx_HAL_Driver/Inc/stm32n6xx_ll_bus.h **** /** @defgroup BUS_LL BUS
  53:STM32Cube_FW_N6/Drivers/STM32N6xx_HAL_Driver/Inc/stm32n6xx_ll_bus.h ****   * @{
  54:STM32Cube_FW_N6/Drivers/STM32N6xx_HAL_Driver/Inc/stm32n6xx_ll_bus.h ****   */
  55:STM32Cube_FW_N6/Drivers/STM32N6xx_HAL_Driver/Inc/stm32n6xx_ll_bus.h **** 
  56:STM32Cube_FW_N6/Drivers/STM32N6xx_HAL_Driver/Inc/stm32n6xx_ll_bus.h **** /* Private variables ---------------------------------------------------------*/
  57:STM32Cube_FW_N6/Drivers/STM32N6xx_HAL_Driver/Inc/stm32n6xx_ll_bus.h **** 
  58:STM32Cube_FW_N6/Drivers/STM32N6xx_HAL_Driver/Inc/stm32n6xx_ll_bus.h **** /* Private constants ---------------------------------------------------------*/
  59:STM32Cube_FW_N6/Drivers/STM32N6xx_HAL_Driver/Inc/stm32n6xx_ll_bus.h **** 
  60:STM32Cube_FW_N6/Drivers/STM32N6xx_HAL_Driver/Inc/stm32n6xx_ll_bus.h **** /* Private macros ------------------------------------------------------------*/
  61:STM32Cube_FW_N6/Drivers/STM32N6xx_HAL_Driver/Inc/stm32n6xx_ll_bus.h **** 
  62:STM32Cube_FW_N6/Drivers/STM32N6xx_HAL_Driver/Inc/stm32n6xx_ll_bus.h **** /* Exported types ------------------------------------------------------------*/
  63:STM32Cube_FW_N6/Drivers/STM32N6xx_HAL_Driver/Inc/stm32n6xx_ll_bus.h **** 
  64:STM32Cube_FW_N6/Drivers/STM32N6xx_HAL_Driver/Inc/stm32n6xx_ll_bus.h **** /* Exported constants --------------------------------------------------------*/
  65:STM32Cube_FW_N6/Drivers/STM32N6xx_HAL_Driver/Inc/stm32n6xx_ll_bus.h **** /** @defgroup BUS_LL_Exported_Constants BUS Exported Constants
  66:STM32Cube_FW_N6/Drivers/STM32N6xx_HAL_Driver/Inc/stm32n6xx_ll_bus.h ****   * @{
  67:STM32Cube_FW_N6/Drivers/STM32N6xx_HAL_Driver/Inc/stm32n6xx_ll_bus.h ****   */
  68:STM32Cube_FW_N6/Drivers/STM32N6xx_HAL_Driver/Inc/stm32n6xx_ll_bus.h **** 
  69:STM32Cube_FW_N6/Drivers/STM32N6xx_HAL_Driver/Inc/stm32n6xx_ll_bus.h **** /** @defgroup BUS_LL_EC_AXI  AXI
  70:STM32Cube_FW_N6/Drivers/STM32N6xx_HAL_Driver/Inc/stm32n6xx_ll_bus.h ****   * @{
  71:STM32Cube_FW_N6/Drivers/STM32N6xx_HAL_Driver/Inc/stm32n6xx_ll_bus.h ****   */
  72:STM32Cube_FW_N6/Drivers/STM32N6xx_HAL_Driver/Inc/stm32n6xx_ll_bus.h **** #define LL_ACLKN                           RCC_BUSENR_ACLKNEN
  73:STM32Cube_FW_N6/Drivers/STM32N6xx_HAL_Driver/Inc/stm32n6xx_ll_bus.h **** #define LL_ACLKNC                          RCC_BUSENR_ACLKNCEN
  74:STM32Cube_FW_N6/Drivers/STM32N6xx_HAL_Driver/Inc/stm32n6xx_ll_bus.h **** #define LL_AHBM                            RCC_BUSENR_AHBMEN
  75:STM32Cube_FW_N6/Drivers/STM32N6xx_HAL_Driver/Inc/stm32n6xx_ll_bus.h **** #define LL_AHB1                            RCC_BUSENR_AHB1EN
  76:STM32Cube_FW_N6/Drivers/STM32N6xx_HAL_Driver/Inc/stm32n6xx_ll_bus.h **** #define LL_AHB2                            RCC_BUSENR_AHB2EN
  77:STM32Cube_FW_N6/Drivers/STM32N6xx_HAL_Driver/Inc/stm32n6xx_ll_bus.h **** #define LL_AHB3                            RCC_BUSENR_AHB3EN
  78:STM32Cube_FW_N6/Drivers/STM32N6xx_HAL_Driver/Inc/stm32n6xx_ll_bus.h **** #define LL_AHB4                            RCC_BUSENR_AHB4EN
  79:STM32Cube_FW_N6/Drivers/STM32N6xx_HAL_Driver/Inc/stm32n6xx_ll_bus.h **** #define LL_AHB5                            RCC_BUSENR_AHB5EN
  80:STM32Cube_FW_N6/Drivers/STM32N6xx_HAL_Driver/Inc/stm32n6xx_ll_bus.h **** #define LL_APB1                            RCC_BUSENR_APB1EN
  81:STM32Cube_FW_N6/Drivers/STM32N6xx_HAL_Driver/Inc/stm32n6xx_ll_bus.h **** #define LL_APB2                            RCC_BUSENR_APB2EN
  82:STM32Cube_FW_N6/Drivers/STM32N6xx_HAL_Driver/Inc/stm32n6xx_ll_bus.h **** #define LL_APB3                            RCC_BUSENR_APB3EN
  83:STM32Cube_FW_N6/Drivers/STM32N6xx_HAL_Driver/Inc/stm32n6xx_ll_bus.h **** #define LL_APB4                            RCC_BUSENR_APB4EN
  84:STM32Cube_FW_N6/Drivers/STM32N6xx_HAL_Driver/Inc/stm32n6xx_ll_bus.h **** #define LL_APB5                            RCC_BUSENR_APB5EN
  85:STM32Cube_FW_N6/Drivers/STM32N6xx_HAL_Driver/Inc/stm32n6xx_ll_bus.h **** /**
  86:STM32Cube_FW_N6/Drivers/STM32N6xx_HAL_Driver/Inc/stm32n6xx_ll_bus.h ****   * @}
  87:STM32Cube_FW_N6/Drivers/STM32N6xx_HAL_Driver/Inc/stm32n6xx_ll_bus.h ****   */
  88:STM32Cube_FW_N6/Drivers/STM32N6xx_HAL_Driver/Inc/stm32n6xx_ll_bus.h **** 
  89:STM32Cube_FW_N6/Drivers/STM32N6xx_HAL_Driver/Inc/stm32n6xx_ll_bus.h **** /** @defgroup BUS_LL_EC_MEM  MEM
  90:STM32Cube_FW_N6/Drivers/STM32N6xx_HAL_Driver/Inc/stm32n6xx_ll_bus.h ****   * @{
  91:STM32Cube_FW_N6/Drivers/STM32N6xx_HAL_Driver/Inc/stm32n6xx_ll_bus.h ****   */
  92:STM32Cube_FW_N6/Drivers/STM32N6xx_HAL_Driver/Inc/stm32n6xx_ll_bus.h **** #define LL_MEM_AXISRAM1                    RCC_MEMENR_AXISRAM1EN
  93:STM32Cube_FW_N6/Drivers/STM32N6xx_HAL_Driver/Inc/stm32n6xx_ll_bus.h **** #define LL_MEM_AXISRAM2                    RCC_MEMENR_AXISRAM2EN
  94:STM32Cube_FW_N6/Drivers/STM32N6xx_HAL_Driver/Inc/stm32n6xx_ll_bus.h **** #define LL_MEM_AXISRAM3                    RCC_MEMENR_AXISRAM3EN
  95:STM32Cube_FW_N6/Drivers/STM32N6xx_HAL_Driver/Inc/stm32n6xx_ll_bus.h **** #define LL_MEM_AXISRAM4                    RCC_MEMENR_AXISRAM4EN
  96:STM32Cube_FW_N6/Drivers/STM32N6xx_HAL_Driver/Inc/stm32n6xx_ll_bus.h **** #define LL_MEM_AXISRAM5                    RCC_MEMENR_AXISRAM5EN
  97:STM32Cube_FW_N6/Drivers/STM32N6xx_HAL_Driver/Inc/stm32n6xx_ll_bus.h **** #define LL_MEM_AXISRAM6                    RCC_MEMENR_AXISRAM6EN
ARM GAS  C:\Users\DJESSOU\AppData\Local\Temp\cc3dm0Vf.s 			page 73


  98:STM32Cube_FW_N6/Drivers/STM32N6xx_HAL_Driver/Inc/stm32n6xx_ll_bus.h **** #define LL_MEM_AHBSRAM1                    RCC_MEMENR_AHBSRAM1EN
  99:STM32Cube_FW_N6/Drivers/STM32N6xx_HAL_Driver/Inc/stm32n6xx_ll_bus.h **** #define LL_MEM_AHBSRAM2                    RCC_MEMENR_AHBSRAM2EN
 100:STM32Cube_FW_N6/Drivers/STM32N6xx_HAL_Driver/Inc/stm32n6xx_ll_bus.h **** #define LL_MEM_BKPSRAM                     RCC_MEMENR_BKPSRAMEN
 101:STM32Cube_FW_N6/Drivers/STM32N6xx_HAL_Driver/Inc/stm32n6xx_ll_bus.h **** #define LL_MEM_FLEXRAM                     RCC_MEMENR_FLEXRAMEN
 102:STM32Cube_FW_N6/Drivers/STM32N6xx_HAL_Driver/Inc/stm32n6xx_ll_bus.h **** #define LL_MEM_CACHEAXIRAM                 RCC_MEMENR_CACHEAXIRAMEN
 103:STM32Cube_FW_N6/Drivers/STM32N6xx_HAL_Driver/Inc/stm32n6xx_ll_bus.h **** #define LL_MEM_VENCRAM                     RCC_MEMENR_VENCRAMEN
 104:STM32Cube_FW_N6/Drivers/STM32N6xx_HAL_Driver/Inc/stm32n6xx_ll_bus.h **** #define LL_MEM_BOOTROM                     RCC_MEMENR_BOOTROMEN
 105:STM32Cube_FW_N6/Drivers/STM32N6xx_HAL_Driver/Inc/stm32n6xx_ll_bus.h **** /**
 106:STM32Cube_FW_N6/Drivers/STM32N6xx_HAL_Driver/Inc/stm32n6xx_ll_bus.h ****   * @}
 107:STM32Cube_FW_N6/Drivers/STM32N6xx_HAL_Driver/Inc/stm32n6xx_ll_bus.h ****   */
 108:STM32Cube_FW_N6/Drivers/STM32N6xx_HAL_Driver/Inc/stm32n6xx_ll_bus.h **** 
 109:STM32Cube_FW_N6/Drivers/STM32N6xx_HAL_Driver/Inc/stm32n6xx_ll_bus.h **** /** @defgroup BUS_LL_EC_AHB1_GRP1_PERIPH  AHB1 GRP1 PERIPH
 110:STM32Cube_FW_N6/Drivers/STM32N6xx_HAL_Driver/Inc/stm32n6xx_ll_bus.h ****   * @{
 111:STM32Cube_FW_N6/Drivers/STM32N6xx_HAL_Driver/Inc/stm32n6xx_ll_bus.h ****   */
 112:STM32Cube_FW_N6/Drivers/STM32N6xx_HAL_Driver/Inc/stm32n6xx_ll_bus.h **** #define LL_AHB1_GRP1_PERIPH_ADC12          RCC_AHB1ENR_ADC12EN
 113:STM32Cube_FW_N6/Drivers/STM32N6xx_HAL_Driver/Inc/stm32n6xx_ll_bus.h **** #define LL_AHB1_GRP1_PERIPH_GPDMA1         RCC_AHB1ENR_GPDMA1EN
 114:STM32Cube_FW_N6/Drivers/STM32N6xx_HAL_Driver/Inc/stm32n6xx_ll_bus.h **** #define LL_AHB1_GRP1_PERIPH_ALL            (LL_AHB1_GRP1_PERIPH_ADC12 | LL_AHB1_GRP1_PERIPH_GPDMA1)
 115:STM32Cube_FW_N6/Drivers/STM32N6xx_HAL_Driver/Inc/stm32n6xx_ll_bus.h **** /**
 116:STM32Cube_FW_N6/Drivers/STM32N6xx_HAL_Driver/Inc/stm32n6xx_ll_bus.h ****   * @}
 117:STM32Cube_FW_N6/Drivers/STM32N6xx_HAL_Driver/Inc/stm32n6xx_ll_bus.h ****   */
 118:STM32Cube_FW_N6/Drivers/STM32N6xx_HAL_Driver/Inc/stm32n6xx_ll_bus.h **** 
 119:STM32Cube_FW_N6/Drivers/STM32N6xx_HAL_Driver/Inc/stm32n6xx_ll_bus.h **** /** @defgroup BUS_LL_EC_AHB2_GRP1_PERIPH  AHB2 GRP1 PERIPH
 120:STM32Cube_FW_N6/Drivers/STM32N6xx_HAL_Driver/Inc/stm32n6xx_ll_bus.h ****   * @{
 121:STM32Cube_FW_N6/Drivers/STM32N6xx_HAL_Driver/Inc/stm32n6xx_ll_bus.h ****   */
 122:STM32Cube_FW_N6/Drivers/STM32N6xx_HAL_Driver/Inc/stm32n6xx_ll_bus.h **** #define LL_AHB2_GRP1_PERIPH_ADF1           RCC_AHB2ENR_ADF1EN
 123:STM32Cube_FW_N6/Drivers/STM32N6xx_HAL_Driver/Inc/stm32n6xx_ll_bus.h **** #define LL_AHB2_GRP1_PERIPH_MDF1           RCC_AHB2ENR_MDF1EN
 124:STM32Cube_FW_N6/Drivers/STM32N6xx_HAL_Driver/Inc/stm32n6xx_ll_bus.h **** #define LL_AHB2_GRP1_PERIPH_RAMCFG         RCC_AHB2ENR_RAMCFGEN
 125:STM32Cube_FW_N6/Drivers/STM32N6xx_HAL_Driver/Inc/stm32n6xx_ll_bus.h **** #define LL_AHB2_GRP1_PERIPH_ALL            (LL_AHB2_GRP1_PERIPH_ADF1 | LL_AHB2_GRP1_PERIPH_MDF1 | \
 126:STM32Cube_FW_N6/Drivers/STM32N6xx_HAL_Driver/Inc/stm32n6xx_ll_bus.h ****                                             LL_AHB2_GRP1_PERIPH_RAMCFG)
 127:STM32Cube_FW_N6/Drivers/STM32N6xx_HAL_Driver/Inc/stm32n6xx_ll_bus.h **** /**
 128:STM32Cube_FW_N6/Drivers/STM32N6xx_HAL_Driver/Inc/stm32n6xx_ll_bus.h ****   * @}
 129:STM32Cube_FW_N6/Drivers/STM32N6xx_HAL_Driver/Inc/stm32n6xx_ll_bus.h ****   */
 130:STM32Cube_FW_N6/Drivers/STM32N6xx_HAL_Driver/Inc/stm32n6xx_ll_bus.h **** 
 131:STM32Cube_FW_N6/Drivers/STM32N6xx_HAL_Driver/Inc/stm32n6xx_ll_bus.h **** /** @defgroup BUS_LL_EC_AHB3_GRP1_PERIPH  AHB3 GRP1 PERIPH
 132:STM32Cube_FW_N6/Drivers/STM32N6xx_HAL_Driver/Inc/stm32n6xx_ll_bus.h ****   * @{
 133:STM32Cube_FW_N6/Drivers/STM32N6xx_HAL_Driver/Inc/stm32n6xx_ll_bus.h ****   */
 134:STM32Cube_FW_N6/Drivers/STM32N6xx_HAL_Driver/Inc/stm32n6xx_ll_bus.h **** #if defined(CRYP)
 135:STM32Cube_FW_N6/Drivers/STM32N6xx_HAL_Driver/Inc/stm32n6xx_ll_bus.h **** #define LL_AHB3_GRP1_PERIPH_CRYP           RCC_AHB3ENR_CRYPEN
 136:STM32Cube_FW_N6/Drivers/STM32N6xx_HAL_Driver/Inc/stm32n6xx_ll_bus.h **** #else
 137:STM32Cube_FW_N6/Drivers/STM32N6xx_HAL_Driver/Inc/stm32n6xx_ll_bus.h **** #define LL_AHB3_GRP1_PERIPH_CRYP
 138:STM32Cube_FW_N6/Drivers/STM32N6xx_HAL_Driver/Inc/stm32n6xx_ll_bus.h **** #endif /* CRYP */
 139:STM32Cube_FW_N6/Drivers/STM32N6xx_HAL_Driver/Inc/stm32n6xx_ll_bus.h **** #define LL_AHB3_GRP1_PERIPH_HASH           RCC_AHB3ENR_HASHEN
 140:STM32Cube_FW_N6/Drivers/STM32N6xx_HAL_Driver/Inc/stm32n6xx_ll_bus.h **** #define LL_AHB3_GRP1_PERIPH_IAC            RCC_AHB3ENR_IACEN
 141:STM32Cube_FW_N6/Drivers/STM32N6xx_HAL_Driver/Inc/stm32n6xx_ll_bus.h **** #if defined(PKA)
 142:STM32Cube_FW_N6/Drivers/STM32N6xx_HAL_Driver/Inc/stm32n6xx_ll_bus.h **** #define LL_AHB3_GRP1_PERIPH_PKA            RCC_AHB3ENR_PKAEN
 143:STM32Cube_FW_N6/Drivers/STM32N6xx_HAL_Driver/Inc/stm32n6xx_ll_bus.h **** #else
 144:STM32Cube_FW_N6/Drivers/STM32N6xx_HAL_Driver/Inc/stm32n6xx_ll_bus.h **** #define LL_AHB3_GRP1_PERIPH_PKA
 145:STM32Cube_FW_N6/Drivers/STM32N6xx_HAL_Driver/Inc/stm32n6xx_ll_bus.h **** #endif /* PKA */
 146:STM32Cube_FW_N6/Drivers/STM32N6xx_HAL_Driver/Inc/stm32n6xx_ll_bus.h **** #define LL_AHB3_GRP1_PERIPH_RIFSC          RCC_AHB3ENR_RIFSCEN
 147:STM32Cube_FW_N6/Drivers/STM32N6xx_HAL_Driver/Inc/stm32n6xx_ll_bus.h **** #define LL_AHB3_GRP1_PERIPH_RISAF          RCC_AHB3ENR_RISAFEN
 148:STM32Cube_FW_N6/Drivers/STM32N6xx_HAL_Driver/Inc/stm32n6xx_ll_bus.h **** #define LL_AHB3_GRP1_PERIPH_RNG            RCC_AHB3ENR_RNGEN
 149:STM32Cube_FW_N6/Drivers/STM32N6xx_HAL_Driver/Inc/stm32n6xx_ll_bus.h **** #if defined(SAES)
 150:STM32Cube_FW_N6/Drivers/STM32N6xx_HAL_Driver/Inc/stm32n6xx_ll_bus.h **** #define LL_AHB3_GRP1_PERIPH_SAES           RCC_AHB3ENR_SAESEN
 151:STM32Cube_FW_N6/Drivers/STM32N6xx_HAL_Driver/Inc/stm32n6xx_ll_bus.h **** #else
 152:STM32Cube_FW_N6/Drivers/STM32N6xx_HAL_Driver/Inc/stm32n6xx_ll_bus.h **** #define LL_AHB3_GRP1_PERIPH_SAES
 153:STM32Cube_FW_N6/Drivers/STM32N6xx_HAL_Driver/Inc/stm32n6xx_ll_bus.h **** #endif /* SAES */
 154:STM32Cube_FW_N6/Drivers/STM32N6xx_HAL_Driver/Inc/stm32n6xx_ll_bus.h **** #define LL_AHB3_GRP1_PERIPH_ALL            (LL_AHB3_GRP1_PERIPH_CRYP  | LL_AHB3_GRP1_PERIPH_HASH  |
ARM GAS  C:\Users\DJESSOU\AppData\Local\Temp\cc3dm0Vf.s 			page 74


 155:STM32Cube_FW_N6/Drivers/STM32N6xx_HAL_Driver/Inc/stm32n6xx_ll_bus.h ****                                             LL_AHB3_GRP1_PERIPH_IAC   | LL_AHB3_GRP1_PERIPH_PKA   |
 156:STM32Cube_FW_N6/Drivers/STM32N6xx_HAL_Driver/Inc/stm32n6xx_ll_bus.h ****                                             LL_AHB3_GRP1_PERIPH_RIFSC | LL_AHB3_GRP1_PERIPH_RISAF |
 157:STM32Cube_FW_N6/Drivers/STM32N6xx_HAL_Driver/Inc/stm32n6xx_ll_bus.h ****                                             LL_AHB3_GRP1_PERIPH_RNG   | LL_AHB3_GRP1_PERIPH_SAES)
 158:STM32Cube_FW_N6/Drivers/STM32N6xx_HAL_Driver/Inc/stm32n6xx_ll_bus.h **** /**
 159:STM32Cube_FW_N6/Drivers/STM32N6xx_HAL_Driver/Inc/stm32n6xx_ll_bus.h ****   * @}
 160:STM32Cube_FW_N6/Drivers/STM32N6xx_HAL_Driver/Inc/stm32n6xx_ll_bus.h ****   */
 161:STM32Cube_FW_N6/Drivers/STM32N6xx_HAL_Driver/Inc/stm32n6xx_ll_bus.h **** 
 162:STM32Cube_FW_N6/Drivers/STM32N6xx_HAL_Driver/Inc/stm32n6xx_ll_bus.h **** /** @defgroup BUS_LL_EC_AHB4_GRP1_PERIPH  AHB4 GRP1 PERIPH
 163:STM32Cube_FW_N6/Drivers/STM32N6xx_HAL_Driver/Inc/stm32n6xx_ll_bus.h ****   * @{
 164:STM32Cube_FW_N6/Drivers/STM32N6xx_HAL_Driver/Inc/stm32n6xx_ll_bus.h ****   */
 165:STM32Cube_FW_N6/Drivers/STM32N6xx_HAL_Driver/Inc/stm32n6xx_ll_bus.h **** #define LL_AHB4_GRP1_PERIPH_CRC            RCC_AHB4ENR_CRCEN
 166:STM32Cube_FW_N6/Drivers/STM32N6xx_HAL_Driver/Inc/stm32n6xx_ll_bus.h **** #define LL_AHB4_GRP1_PERIPH_GPIOA          RCC_AHB4ENR_GPIOAEN
 167:STM32Cube_FW_N6/Drivers/STM32N6xx_HAL_Driver/Inc/stm32n6xx_ll_bus.h **** #define LL_AHB4_GRP1_PERIPH_GPIOB          RCC_AHB4ENR_GPIOBEN
 168:STM32Cube_FW_N6/Drivers/STM32N6xx_HAL_Driver/Inc/stm32n6xx_ll_bus.h **** #define LL_AHB4_GRP1_PERIPH_GPIOC          RCC_AHB4ENR_GPIOCEN
 169:STM32Cube_FW_N6/Drivers/STM32N6xx_HAL_Driver/Inc/stm32n6xx_ll_bus.h **** #define LL_AHB4_GRP1_PERIPH_GPIOD          RCC_AHB4ENR_GPIODEN
 170:STM32Cube_FW_N6/Drivers/STM32N6xx_HAL_Driver/Inc/stm32n6xx_ll_bus.h **** #define LL_AHB4_GRP1_PERIPH_GPIOE          RCC_AHB4ENR_GPIOEEN
 171:STM32Cube_FW_N6/Drivers/STM32N6xx_HAL_Driver/Inc/stm32n6xx_ll_bus.h **** #define LL_AHB4_GRP1_PERIPH_GPIOF          RCC_AHB4ENR_GPIOFEN
 172:STM32Cube_FW_N6/Drivers/STM32N6xx_HAL_Driver/Inc/stm32n6xx_ll_bus.h **** #define LL_AHB4_GRP1_PERIPH_GPIOG          RCC_AHB4ENR_GPIOGEN
 173:STM32Cube_FW_N6/Drivers/STM32N6xx_HAL_Driver/Inc/stm32n6xx_ll_bus.h **** #define LL_AHB4_GRP1_PERIPH_GPIOH          RCC_AHB4ENR_GPIOHEN
 174:STM32Cube_FW_N6/Drivers/STM32N6xx_HAL_Driver/Inc/stm32n6xx_ll_bus.h **** #define LL_AHB4_GRP1_PERIPH_GPION          RCC_AHB4ENR_GPIONEN
 175:STM32Cube_FW_N6/Drivers/STM32N6xx_HAL_Driver/Inc/stm32n6xx_ll_bus.h **** #define LL_AHB4_GRP1_PERIPH_GPIOO          RCC_AHB4ENR_GPIOOEN
 176:STM32Cube_FW_N6/Drivers/STM32N6xx_HAL_Driver/Inc/stm32n6xx_ll_bus.h **** #define LL_AHB4_GRP1_PERIPH_GPIOP          RCC_AHB4ENR_GPIOPEN
 177:STM32Cube_FW_N6/Drivers/STM32N6xx_HAL_Driver/Inc/stm32n6xx_ll_bus.h **** #define LL_AHB4_GRP1_PERIPH_GPIOQ          RCC_AHB4ENR_GPIOQEN
 178:STM32Cube_FW_N6/Drivers/STM32N6xx_HAL_Driver/Inc/stm32n6xx_ll_bus.h **** #define LL_AHB4_GRP1_PERIPH_PWR            RCC_AHB4ENR_PWREN
 179:STM32Cube_FW_N6/Drivers/STM32N6xx_HAL_Driver/Inc/stm32n6xx_ll_bus.h **** #define LL_AHB4_GRP1_PERIPH_ALL            (LL_AHB4_GRP1_PERIPH_CRC   | LL_AHB4_GRP1_PERIPH_GPIOA |
 180:STM32Cube_FW_N6/Drivers/STM32N6xx_HAL_Driver/Inc/stm32n6xx_ll_bus.h ****                                             LL_AHB4_GRP1_PERIPH_GPIOB | LL_AHB4_GRP1_PERIPH_GPIOC |
 181:STM32Cube_FW_N6/Drivers/STM32N6xx_HAL_Driver/Inc/stm32n6xx_ll_bus.h ****                                             LL_AHB4_GRP1_PERIPH_GPIOD | LL_AHB4_GRP1_PERIPH_GPIOE |
 182:STM32Cube_FW_N6/Drivers/STM32N6xx_HAL_Driver/Inc/stm32n6xx_ll_bus.h ****                                             LL_AHB4_GRP1_PERIPH_GPIOF | LL_AHB4_GRP1_PERIPH_GPIOG |
 183:STM32Cube_FW_N6/Drivers/STM32N6xx_HAL_Driver/Inc/stm32n6xx_ll_bus.h ****                                             LL_AHB4_GRP1_PERIPH_GPIOH | LL_AHB4_GRP1_PERIPH_GPION |
 184:STM32Cube_FW_N6/Drivers/STM32N6xx_HAL_Driver/Inc/stm32n6xx_ll_bus.h ****                                             LL_AHB4_GRP1_PERIPH_GPIOO | LL_AHB4_GRP1_PERIPH_GPIOP |
 185:STM32Cube_FW_N6/Drivers/STM32N6xx_HAL_Driver/Inc/stm32n6xx_ll_bus.h ****                                             LL_AHB4_GRP1_PERIPH_GPIOQ | LL_AHB4_GRP1_PERIPH_PWR)
 186:STM32Cube_FW_N6/Drivers/STM32N6xx_HAL_Driver/Inc/stm32n6xx_ll_bus.h **** /**
 187:STM32Cube_FW_N6/Drivers/STM32N6xx_HAL_Driver/Inc/stm32n6xx_ll_bus.h ****   * @}
 188:STM32Cube_FW_N6/Drivers/STM32N6xx_HAL_Driver/Inc/stm32n6xx_ll_bus.h ****   */
 189:STM32Cube_FW_N6/Drivers/STM32N6xx_HAL_Driver/Inc/stm32n6xx_ll_bus.h **** 
 190:STM32Cube_FW_N6/Drivers/STM32N6xx_HAL_Driver/Inc/stm32n6xx_ll_bus.h **** /** @defgroup BUS_LL_EC_AHB5_GRP1_PERIPH  AHB5 GRP1 PERIPH
 191:STM32Cube_FW_N6/Drivers/STM32N6xx_HAL_Driver/Inc/stm32n6xx_ll_bus.h ****   * @{
 192:STM32Cube_FW_N6/Drivers/STM32N6xx_HAL_Driver/Inc/stm32n6xx_ll_bus.h ****   */
 193:STM32Cube_FW_N6/Drivers/STM32N6xx_HAL_Driver/Inc/stm32n6xx_ll_bus.h **** #define LL_AHB5_GRP1_PERIPH_DMA2D             RCC_AHB5ENR_DMA2DEN
 194:STM32Cube_FW_N6/Drivers/STM32N6xx_HAL_Driver/Inc/stm32n6xx_ll_bus.h **** #define LL_AHB5_GRP1_PERIPH_ETH1              RCC_AHB5ENR_ETH1EN
 195:STM32Cube_FW_N6/Drivers/STM32N6xx_HAL_Driver/Inc/stm32n6xx_ll_bus.h **** #define LL_AHB5_GRP1_PERIPH_ETH1MAC           RCC_AHB5ENR_ETH1MACEN
 196:STM32Cube_FW_N6/Drivers/STM32N6xx_HAL_Driver/Inc/stm32n6xx_ll_bus.h **** #define LL_AHB5_GRP1_PERIPH_ETH1TX            RCC_AHB5ENR_ETH1TXEN
 197:STM32Cube_FW_N6/Drivers/STM32N6xx_HAL_Driver/Inc/stm32n6xx_ll_bus.h **** #define LL_AHB5_GRP1_PERIPH_ETH1RX            RCC_AHB5ENR_ETH1RXEN
 198:STM32Cube_FW_N6/Drivers/STM32N6xx_HAL_Driver/Inc/stm32n6xx_ll_bus.h **** #define LL_AHB5_GRP1_PERIPH_FMC               RCC_AHB5ENR_FMCEN
 199:STM32Cube_FW_N6/Drivers/STM32N6xx_HAL_Driver/Inc/stm32n6xx_ll_bus.h **** #define LL_AHB5_GRP1_PERIPH_GFXMMU            RCC_AHB5ENR_GFXMMUEN
 200:STM32Cube_FW_N6/Drivers/STM32N6xx_HAL_Driver/Inc/stm32n6xx_ll_bus.h **** #define LL_AHB5_GRP1_PERIPH_GPU2D             RCC_AHB5ENR_GPU2DEN
 201:STM32Cube_FW_N6/Drivers/STM32N6xx_HAL_Driver/Inc/stm32n6xx_ll_bus.h **** #define LL_AHB5_GRP1_PERIPH_HPDMA1            RCC_AHB5ENR_HPDMA1EN
 202:STM32Cube_FW_N6/Drivers/STM32N6xx_HAL_Driver/Inc/stm32n6xx_ll_bus.h **** #define LL_AHB5_GRP1_PERIPH_XSPI1             RCC_AHB5ENR_XSPI1EN
 203:STM32Cube_FW_N6/Drivers/STM32N6xx_HAL_Driver/Inc/stm32n6xx_ll_bus.h **** #define LL_AHB5_GRP1_PERIPH_XSPI2             RCC_AHB5ENR_XSPI2EN
 204:STM32Cube_FW_N6/Drivers/STM32N6xx_HAL_Driver/Inc/stm32n6xx_ll_bus.h **** #define LL_AHB5_GRP1_PERIPH_XSPI3             RCC_AHB5ENR_XSPI3EN
 205:STM32Cube_FW_N6/Drivers/STM32N6xx_HAL_Driver/Inc/stm32n6xx_ll_bus.h **** #define LL_AHB5_GRP1_PERIPH_XSPIM             RCC_AHB5ENR_XSPIMEN
 206:STM32Cube_FW_N6/Drivers/STM32N6xx_HAL_Driver/Inc/stm32n6xx_ll_bus.h **** #define LL_AHB5_GRP1_PERIPH_JPEG              RCC_AHB5ENR_JPEGEN
 207:STM32Cube_FW_N6/Drivers/STM32N6xx_HAL_Driver/Inc/stm32n6xx_ll_bus.h **** #define LL_AHB5_GRP1_PERIPH_MCE1              RCC_AHB5ENR_MCE1EN
 208:STM32Cube_FW_N6/Drivers/STM32N6xx_HAL_Driver/Inc/stm32n6xx_ll_bus.h **** #define LL_AHB5_GRP1_PERIPH_MCE2              RCC_AHB5ENR_MCE2EN
 209:STM32Cube_FW_N6/Drivers/STM32N6xx_HAL_Driver/Inc/stm32n6xx_ll_bus.h **** #define LL_AHB5_GRP1_PERIPH_MCE3              RCC_AHB5ENR_MCE3EN
 210:STM32Cube_FW_N6/Drivers/STM32N6xx_HAL_Driver/Inc/stm32n6xx_ll_bus.h **** #define LL_AHB5_GRP1_PERIPH_MCE4              RCC_AHB5ENR_MCE4EN
 211:STM32Cube_FW_N6/Drivers/STM32N6xx_HAL_Driver/Inc/stm32n6xx_ll_bus.h **** #define LL_AHB5_GRP1_PERIPH_CACHEAXI          RCC_AHB5ENR_CACHEAXIEN
ARM GAS  C:\Users\DJESSOU\AppData\Local\Temp\cc3dm0Vf.s 			page 75


 212:STM32Cube_FW_N6/Drivers/STM32N6xx_HAL_Driver/Inc/stm32n6xx_ll_bus.h **** #define LL_AHB5_GRP1_PERIPH_NPU               RCC_AHB5ENR_NPUEN
 213:STM32Cube_FW_N6/Drivers/STM32N6xx_HAL_Driver/Inc/stm32n6xx_ll_bus.h **** #define LL_AHB5_GRP1_PERIPH_OTG1              RCC_AHB5ENR_OTG1EN
 214:STM32Cube_FW_N6/Drivers/STM32N6xx_HAL_Driver/Inc/stm32n6xx_ll_bus.h **** #define LL_AHB5_GRP1_PERIPH_OTG2              RCC_AHB5ENR_OTG2EN
 215:STM32Cube_FW_N6/Drivers/STM32N6xx_HAL_Driver/Inc/stm32n6xx_ll_bus.h **** #define LL_AHB5_GRP1_PERIPH_OTGPHY1           RCC_AHB5ENR_OTGPHY1EN
 216:STM32Cube_FW_N6/Drivers/STM32N6xx_HAL_Driver/Inc/stm32n6xx_ll_bus.h **** #define LL_AHB5_GRP1_PERIPH_OTGPHY2           RCC_AHB5ENR_OTGPHY2EN
 217:STM32Cube_FW_N6/Drivers/STM32N6xx_HAL_Driver/Inc/stm32n6xx_ll_bus.h **** #define LL_AHB5_GRP1_PERIPH_OTG1PHYCTL        RCC_AHB5RSTR_OTG1PHYCTLRST
 218:STM32Cube_FW_N6/Drivers/STM32N6xx_HAL_Driver/Inc/stm32n6xx_ll_bus.h **** #define LL_AHB5_GRP1_PERIPH_OTG2PHYCTL        RCC_AHB5RSTR_OTG2PHYCTLRST
 219:STM32Cube_FW_N6/Drivers/STM32N6xx_HAL_Driver/Inc/stm32n6xx_ll_bus.h **** #define LL_AHB5_GRP1_PERIPH_PSSI              RCC_AHB5ENR_PSSIEN
 220:STM32Cube_FW_N6/Drivers/STM32N6xx_HAL_Driver/Inc/stm32n6xx_ll_bus.h **** #define LL_AHB5_GRP1_PERIPH_SDMMC1            RCC_AHB5ENR_SDMMC1EN
 221:STM32Cube_FW_N6/Drivers/STM32N6xx_HAL_Driver/Inc/stm32n6xx_ll_bus.h **** #define LL_AHB5_GRP1_PERIPH_SDMMC2            RCC_AHB5ENR_SDMMC2EN
 222:STM32Cube_FW_N6/Drivers/STM32N6xx_HAL_Driver/Inc/stm32n6xx_ll_bus.h **** #define LL_AHB5_GRP1_PERIPH_ALL            (LL_AHB5_GRP1_PERIPH_DMA2D    | LL_AHB5_GRP1_PERIPH_ETH1
 223:STM32Cube_FW_N6/Drivers/STM32N6xx_HAL_Driver/Inc/stm32n6xx_ll_bus.h ****                                             LL_AHB5_GRP1_PERIPH_ETH1MAC  | LL_AHB5_GRP1_PERIPH_ETH1
 224:STM32Cube_FW_N6/Drivers/STM32N6xx_HAL_Driver/Inc/stm32n6xx_ll_bus.h ****                                             LL_AHB5_GRP1_PERIPH_ETH1RX   | LL_AHB5_GRP1_PERIPH_FMC 
 225:STM32Cube_FW_N6/Drivers/STM32N6xx_HAL_Driver/Inc/stm32n6xx_ll_bus.h ****                                             LL_AHB5_GRP1_PERIPH_GFXMMU   | LL_AHB5_GRP1_PERIPH_GPU2
 226:STM32Cube_FW_N6/Drivers/STM32N6xx_HAL_Driver/Inc/stm32n6xx_ll_bus.h ****                                             LL_AHB5_GRP1_PERIPH_HPDMA1   | LL_AHB5_GRP1_PERIPH_XSPI
 227:STM32Cube_FW_N6/Drivers/STM32N6xx_HAL_Driver/Inc/stm32n6xx_ll_bus.h ****                                             LL_AHB5_GRP1_PERIPH_XSPI2    | LL_AHB5_GRP1_PERIPH_XSPI
 228:STM32Cube_FW_N6/Drivers/STM32N6xx_HAL_Driver/Inc/stm32n6xx_ll_bus.h ****                                             LL_AHB5_GRP1_PERIPH_XSPIM    | LL_AHB5_GRP1_PERIPH_JPEG
 229:STM32Cube_FW_N6/Drivers/STM32N6xx_HAL_Driver/Inc/stm32n6xx_ll_bus.h ****                                             LL_AHB5_GRP1_PERIPH_MCE1     | LL_AHB5_GRP1_PERIPH_MCE2
 230:STM32Cube_FW_N6/Drivers/STM32N6xx_HAL_Driver/Inc/stm32n6xx_ll_bus.h ****                                             LL_AHB5_GRP1_PERIPH_MCE3     | LL_AHB5_GRP1_PERIPH_MCE4
 231:STM32Cube_FW_N6/Drivers/STM32N6xx_HAL_Driver/Inc/stm32n6xx_ll_bus.h ****                                             LL_AHB5_GRP1_PERIPH_CACHEAXI | LL_AHB5_GRP1_PERIPH_NPU 
 232:STM32Cube_FW_N6/Drivers/STM32N6xx_HAL_Driver/Inc/stm32n6xx_ll_bus.h ****                                             LL_AHB5_GRP1_PERIPH_OTG1     | LL_AHB5_GRP1_PERIPH_OTG2
 233:STM32Cube_FW_N6/Drivers/STM32N6xx_HAL_Driver/Inc/stm32n6xx_ll_bus.h ****                                             LL_AHB5_GRP1_PERIPH_OTGPHY1  | LL_AHB5_GRP1_PERIPH_OTGP
 234:STM32Cube_FW_N6/Drivers/STM32N6xx_HAL_Driver/Inc/stm32n6xx_ll_bus.h ****                                             LL_AHB5_GRP1_PERIPH_PSSI     | LL_AHB5_GRP1_PERIPH_SDMM
 235:STM32Cube_FW_N6/Drivers/STM32N6xx_HAL_Driver/Inc/stm32n6xx_ll_bus.h ****                                             LL_AHB5_GRP1_PERIPH_SDMMC2)
 236:STM32Cube_FW_N6/Drivers/STM32N6xx_HAL_Driver/Inc/stm32n6xx_ll_bus.h **** /**
 237:STM32Cube_FW_N6/Drivers/STM32N6xx_HAL_Driver/Inc/stm32n6xx_ll_bus.h ****   * @}
 238:STM32Cube_FW_N6/Drivers/STM32N6xx_HAL_Driver/Inc/stm32n6xx_ll_bus.h ****   */
 239:STM32Cube_FW_N6/Drivers/STM32N6xx_HAL_Driver/Inc/stm32n6xx_ll_bus.h **** 
 240:STM32Cube_FW_N6/Drivers/STM32N6xx_HAL_Driver/Inc/stm32n6xx_ll_bus.h **** /** @defgroup BUS_LL_EC_APB1_GRP1_PERIPH  APB1 GRP1 PERIPH
 241:STM32Cube_FW_N6/Drivers/STM32N6xx_HAL_Driver/Inc/stm32n6xx_ll_bus.h ****   * @{
 242:STM32Cube_FW_N6/Drivers/STM32N6xx_HAL_Driver/Inc/stm32n6xx_ll_bus.h ****   */
 243:STM32Cube_FW_N6/Drivers/STM32N6xx_HAL_Driver/Inc/stm32n6xx_ll_bus.h **** #define LL_APB1_GRP1_PERIPH_I2C1           RCC_APB1ENR1_I2C1EN
 244:STM32Cube_FW_N6/Drivers/STM32N6xx_HAL_Driver/Inc/stm32n6xx_ll_bus.h **** #define LL_APB1_GRP1_PERIPH_I2C2           RCC_APB1ENR1_I2C2EN
 245:STM32Cube_FW_N6/Drivers/STM32N6xx_HAL_Driver/Inc/stm32n6xx_ll_bus.h **** #define LL_APB1_GRP1_PERIPH_I2C3           RCC_APB1ENR1_I2C3EN
 246:STM32Cube_FW_N6/Drivers/STM32N6xx_HAL_Driver/Inc/stm32n6xx_ll_bus.h **** #define LL_APB1_GRP1_PERIPH_I3C1           RCC_APB1ENR1_I3C1EN
 247:STM32Cube_FW_N6/Drivers/STM32N6xx_HAL_Driver/Inc/stm32n6xx_ll_bus.h **** #define LL_APB1_GRP1_PERIPH_I3C2           RCC_APB1ENR1_I3C2EN
 248:STM32Cube_FW_N6/Drivers/STM32N6xx_HAL_Driver/Inc/stm32n6xx_ll_bus.h **** #define LL_APB1_GRP1_PERIPH_LPTIM1         RCC_APB1ENR1_LPTIM1EN
 249:STM32Cube_FW_N6/Drivers/STM32N6xx_HAL_Driver/Inc/stm32n6xx_ll_bus.h **** #define LL_APB1_GRP1_PERIPH_SPDIFRX1       RCC_APB1ENR1_SPDIFRX1EN
 250:STM32Cube_FW_N6/Drivers/STM32N6xx_HAL_Driver/Inc/stm32n6xx_ll_bus.h **** #define LL_APB1_GRP1_PERIPH_SPI2           RCC_APB1ENR1_SPI2EN
 251:STM32Cube_FW_N6/Drivers/STM32N6xx_HAL_Driver/Inc/stm32n6xx_ll_bus.h **** #define LL_APB1_GRP1_PERIPH_SPI3           RCC_APB1ENR1_SPI3EN
 252:STM32Cube_FW_N6/Drivers/STM32N6xx_HAL_Driver/Inc/stm32n6xx_ll_bus.h **** #define LL_APB1_GRP1_PERIPH_TIM2           RCC_APB1ENR1_TIM2EN
 253:STM32Cube_FW_N6/Drivers/STM32N6xx_HAL_Driver/Inc/stm32n6xx_ll_bus.h **** #define LL_APB1_GRP1_PERIPH_TIM3           RCC_APB1ENR1_TIM3EN
 254:STM32Cube_FW_N6/Drivers/STM32N6xx_HAL_Driver/Inc/stm32n6xx_ll_bus.h **** #define LL_APB1_GRP1_PERIPH_TIM4           RCC_APB1ENR1_TIM4EN
 255:STM32Cube_FW_N6/Drivers/STM32N6xx_HAL_Driver/Inc/stm32n6xx_ll_bus.h **** #define LL_APB1_GRP1_PERIPH_TIM5           RCC_APB1ENR1_TIM5EN
 256:STM32Cube_FW_N6/Drivers/STM32N6xx_HAL_Driver/Inc/stm32n6xx_ll_bus.h **** #define LL_APB1_GRP1_PERIPH_TIM6           RCC_APB1ENR1_TIM6EN
 257:STM32Cube_FW_N6/Drivers/STM32N6xx_HAL_Driver/Inc/stm32n6xx_ll_bus.h **** #define LL_APB1_GRP1_PERIPH_TIM7           RCC_APB1ENR1_TIM7EN
 258:STM32Cube_FW_N6/Drivers/STM32N6xx_HAL_Driver/Inc/stm32n6xx_ll_bus.h **** #define LL_APB1_GRP1_PERIPH_TIM10          RCC_APB1ENR1_TIM10EN
 259:STM32Cube_FW_N6/Drivers/STM32N6xx_HAL_Driver/Inc/stm32n6xx_ll_bus.h **** #define LL_APB1_GRP1_PERIPH_TIM11          RCC_APB1ENR1_TIM11EN
 260:STM32Cube_FW_N6/Drivers/STM32N6xx_HAL_Driver/Inc/stm32n6xx_ll_bus.h **** #define LL_APB1_GRP1_PERIPH_TIM12          RCC_APB1ENR1_TIM12EN
 261:STM32Cube_FW_N6/Drivers/STM32N6xx_HAL_Driver/Inc/stm32n6xx_ll_bus.h **** #define LL_APB1_GRP1_PERIPH_TIM13          RCC_APB1ENR1_TIM13EN
 262:STM32Cube_FW_N6/Drivers/STM32N6xx_HAL_Driver/Inc/stm32n6xx_ll_bus.h **** #define LL_APB1_GRP1_PERIPH_TIM14          RCC_APB1ENR1_TIM14EN
 263:STM32Cube_FW_N6/Drivers/STM32N6xx_HAL_Driver/Inc/stm32n6xx_ll_bus.h **** #define LL_APB1_GRP1_PERIPH_USART2         RCC_APB1ENR1_USART2EN
 264:STM32Cube_FW_N6/Drivers/STM32N6xx_HAL_Driver/Inc/stm32n6xx_ll_bus.h **** #define LL_APB1_GRP1_PERIPH_USART3         RCC_APB1ENR1_USART3EN
 265:STM32Cube_FW_N6/Drivers/STM32N6xx_HAL_Driver/Inc/stm32n6xx_ll_bus.h **** #define LL_APB1_GRP1_PERIPH_UART4          RCC_APB1ENR1_UART4EN
 266:STM32Cube_FW_N6/Drivers/STM32N6xx_HAL_Driver/Inc/stm32n6xx_ll_bus.h **** #define LL_APB1_GRP1_PERIPH_UART5          RCC_APB1ENR1_UART5EN
 267:STM32Cube_FW_N6/Drivers/STM32N6xx_HAL_Driver/Inc/stm32n6xx_ll_bus.h **** #define LL_APB1_GRP1_PERIPH_UART7          RCC_APB1ENR1_UART7EN
 268:STM32Cube_FW_N6/Drivers/STM32N6xx_HAL_Driver/Inc/stm32n6xx_ll_bus.h **** #define LL_APB1_GRP1_PERIPH_UART8          RCC_APB1ENR1_UART8EN
ARM GAS  C:\Users\DJESSOU\AppData\Local\Temp\cc3dm0Vf.s 			page 76


 269:STM32Cube_FW_N6/Drivers/STM32N6xx_HAL_Driver/Inc/stm32n6xx_ll_bus.h **** #define LL_APB1_GRP1_PERIPH_WWDG           RCC_APB1ENR1_WWDGEN
 270:STM32Cube_FW_N6/Drivers/STM32N6xx_HAL_Driver/Inc/stm32n6xx_ll_bus.h **** #define LL_APB1_GRP1_PERIPH_ALL            (LL_APB1_GRP1_PERIPH_I2C1     | LL_APB1_GRP1_PERIPH_I2C2
 271:STM32Cube_FW_N6/Drivers/STM32N6xx_HAL_Driver/Inc/stm32n6xx_ll_bus.h ****                                             LL_APB1_GRP1_PERIPH_I2C3     | LL_APB1_GRP1_PERIPH_I3C1
 272:STM32Cube_FW_N6/Drivers/STM32N6xx_HAL_Driver/Inc/stm32n6xx_ll_bus.h ****                                             LL_APB1_GRP1_PERIPH_I3C2     | LL_APB1_GRP1_PERIPH_LPTI
 273:STM32Cube_FW_N6/Drivers/STM32N6xx_HAL_Driver/Inc/stm32n6xx_ll_bus.h ****                                             LL_APB1_GRP1_PERIPH_SPDIFRX1 | LL_APB1_GRP1_PERIPH_SPI2
 274:STM32Cube_FW_N6/Drivers/STM32N6xx_HAL_Driver/Inc/stm32n6xx_ll_bus.h ****                                             LL_APB1_GRP1_PERIPH_SPI3     | LL_APB1_GRP1_PERIPH_TIM2
 275:STM32Cube_FW_N6/Drivers/STM32N6xx_HAL_Driver/Inc/stm32n6xx_ll_bus.h ****                                             LL_APB1_GRP1_PERIPH_TIM3     | LL_APB1_GRP1_PERIPH_TIM4
 276:STM32Cube_FW_N6/Drivers/STM32N6xx_HAL_Driver/Inc/stm32n6xx_ll_bus.h ****                                             LL_APB1_GRP1_PERIPH_TIM5     | LL_APB1_GRP1_PERIPH_TIM6
 277:STM32Cube_FW_N6/Drivers/STM32N6xx_HAL_Driver/Inc/stm32n6xx_ll_bus.h ****                                             LL_APB1_GRP1_PERIPH_TIM7     | LL_APB1_GRP1_PERIPH_TIM1
 278:STM32Cube_FW_N6/Drivers/STM32N6xx_HAL_Driver/Inc/stm32n6xx_ll_bus.h ****                                             LL_APB1_GRP1_PERIPH_TIM11    | LL_APB1_GRP1_PERIPH_TIM1
 279:STM32Cube_FW_N6/Drivers/STM32N6xx_HAL_Driver/Inc/stm32n6xx_ll_bus.h ****                                             LL_APB1_GRP1_PERIPH_TIM13    | LL_APB1_GRP1_PERIPH_TIM1
 280:STM32Cube_FW_N6/Drivers/STM32N6xx_HAL_Driver/Inc/stm32n6xx_ll_bus.h ****                                             LL_APB1_GRP1_PERIPH_USART2   | LL_APB1_GRP1_PERIPH_USAR
 281:STM32Cube_FW_N6/Drivers/STM32N6xx_HAL_Driver/Inc/stm32n6xx_ll_bus.h ****                                             LL_APB1_GRP1_PERIPH_UART4    | LL_APB1_GRP1_PERIPH_UART
 282:STM32Cube_FW_N6/Drivers/STM32N6xx_HAL_Driver/Inc/stm32n6xx_ll_bus.h ****                                             LL_APB1_GRP1_PERIPH_UART7    | LL_APB1_GRP1_PERIPH_UART
 283:STM32Cube_FW_N6/Drivers/STM32N6xx_HAL_Driver/Inc/stm32n6xx_ll_bus.h ****                                             LL_APB1_GRP1_PERIPH_WWDG)
 284:STM32Cube_FW_N6/Drivers/STM32N6xx_HAL_Driver/Inc/stm32n6xx_ll_bus.h **** /**
 285:STM32Cube_FW_N6/Drivers/STM32N6xx_HAL_Driver/Inc/stm32n6xx_ll_bus.h ****   * @}
 286:STM32Cube_FW_N6/Drivers/STM32N6xx_HAL_Driver/Inc/stm32n6xx_ll_bus.h ****   */
 287:STM32Cube_FW_N6/Drivers/STM32N6xx_HAL_Driver/Inc/stm32n6xx_ll_bus.h **** 
 288:STM32Cube_FW_N6/Drivers/STM32N6xx_HAL_Driver/Inc/stm32n6xx_ll_bus.h **** /** @defgroup BUS_LL_EC_APB1_GRP2_PERIPH  APB1 GRP2 PERIPH
 289:STM32Cube_FW_N6/Drivers/STM32N6xx_HAL_Driver/Inc/stm32n6xx_ll_bus.h ****   * @{
 290:STM32Cube_FW_N6/Drivers/STM32N6xx_HAL_Driver/Inc/stm32n6xx_ll_bus.h ****   */
 291:STM32Cube_FW_N6/Drivers/STM32N6xx_HAL_Driver/Inc/stm32n6xx_ll_bus.h **** #define LL_APB1_GRP2_PERIPH_FDCAN          RCC_APB1ENR2_FDCANEN
 292:STM32Cube_FW_N6/Drivers/STM32N6xx_HAL_Driver/Inc/stm32n6xx_ll_bus.h **** #define LL_APB1_GRP2_PERIPH_MDIOS          RCC_APB1ENR2_MDIOSEN
 293:STM32Cube_FW_N6/Drivers/STM32N6xx_HAL_Driver/Inc/stm32n6xx_ll_bus.h **** #define LL_APB1_GRP2_PERIPH_UCPD1          RCC_APB1ENR2_UCPD1EN
 294:STM32Cube_FW_N6/Drivers/STM32N6xx_HAL_Driver/Inc/stm32n6xx_ll_bus.h **** #define LL_APB1_GRP2_PERIPH_ALL            (LL_APB1_GRP2_PERIPH_FDCAN | LL_APB1_GRP2_PERIPH_MDIOS |
 295:STM32Cube_FW_N6/Drivers/STM32N6xx_HAL_Driver/Inc/stm32n6xx_ll_bus.h ****                                             LL_APB1_GRP2_PERIPH_UCPD1)
 296:STM32Cube_FW_N6/Drivers/STM32N6xx_HAL_Driver/Inc/stm32n6xx_ll_bus.h **** /**
 297:STM32Cube_FW_N6/Drivers/STM32N6xx_HAL_Driver/Inc/stm32n6xx_ll_bus.h ****   * @}
 298:STM32Cube_FW_N6/Drivers/STM32N6xx_HAL_Driver/Inc/stm32n6xx_ll_bus.h ****   */
 299:STM32Cube_FW_N6/Drivers/STM32N6xx_HAL_Driver/Inc/stm32n6xx_ll_bus.h **** 
 300:STM32Cube_FW_N6/Drivers/STM32N6xx_HAL_Driver/Inc/stm32n6xx_ll_bus.h **** /** @defgroup BUS_LL_EC_APB2_GRP1_PERIPH  APB2 GRP1 PERIPH
 301:STM32Cube_FW_N6/Drivers/STM32N6xx_HAL_Driver/Inc/stm32n6xx_ll_bus.h ****   * @{
 302:STM32Cube_FW_N6/Drivers/STM32N6xx_HAL_Driver/Inc/stm32n6xx_ll_bus.h ****   */
 303:STM32Cube_FW_N6/Drivers/STM32N6xx_HAL_Driver/Inc/stm32n6xx_ll_bus.h **** #define LL_APB2_GRP1_PERIPH_SAI1           RCC_APB2ENR_SAI1EN
 304:STM32Cube_FW_N6/Drivers/STM32N6xx_HAL_Driver/Inc/stm32n6xx_ll_bus.h **** #define LL_APB2_GRP1_PERIPH_SAI2           RCC_APB2ENR_SAI2EN
 305:STM32Cube_FW_N6/Drivers/STM32N6xx_HAL_Driver/Inc/stm32n6xx_ll_bus.h **** #define LL_APB2_GRP1_PERIPH_SPI1           RCC_APB2ENR_SPI1EN
 306:STM32Cube_FW_N6/Drivers/STM32N6xx_HAL_Driver/Inc/stm32n6xx_ll_bus.h **** #define LL_APB2_GRP1_PERIPH_SPI4           RCC_APB2ENR_SPI4EN
 307:STM32Cube_FW_N6/Drivers/STM32N6xx_HAL_Driver/Inc/stm32n6xx_ll_bus.h **** #define LL_APB2_GRP1_PERIPH_SPI5           RCC_APB2ENR_SPI5EN
 308:STM32Cube_FW_N6/Drivers/STM32N6xx_HAL_Driver/Inc/stm32n6xx_ll_bus.h **** #define LL_APB2_GRP1_PERIPH_TIM1           RCC_APB2ENR_TIM1EN
 309:STM32Cube_FW_N6/Drivers/STM32N6xx_HAL_Driver/Inc/stm32n6xx_ll_bus.h **** #define LL_APB2_GRP1_PERIPH_TIM8           RCC_APB2ENR_TIM8EN
 310:STM32Cube_FW_N6/Drivers/STM32N6xx_HAL_Driver/Inc/stm32n6xx_ll_bus.h **** #define LL_APB2_GRP1_PERIPH_TIM9           RCC_APB2ENR_TIM9EN
 311:STM32Cube_FW_N6/Drivers/STM32N6xx_HAL_Driver/Inc/stm32n6xx_ll_bus.h **** #define LL_APB2_GRP1_PERIPH_TIM15          RCC_APB2ENR_TIM15EN
 312:STM32Cube_FW_N6/Drivers/STM32N6xx_HAL_Driver/Inc/stm32n6xx_ll_bus.h **** #define LL_APB2_GRP1_PERIPH_TIM16          RCC_APB2ENR_TIM16EN
 313:STM32Cube_FW_N6/Drivers/STM32N6xx_HAL_Driver/Inc/stm32n6xx_ll_bus.h **** #define LL_APB2_GRP1_PERIPH_TIM17          RCC_APB2ENR_TIM17EN
 314:STM32Cube_FW_N6/Drivers/STM32N6xx_HAL_Driver/Inc/stm32n6xx_ll_bus.h **** #define LL_APB2_GRP1_PERIPH_TIM18          RCC_APB2ENR_TIM18EN
 315:STM32Cube_FW_N6/Drivers/STM32N6xx_HAL_Driver/Inc/stm32n6xx_ll_bus.h **** #define LL_APB2_GRP1_PERIPH_USART1         RCC_APB2ENR_USART1EN
 316:STM32Cube_FW_N6/Drivers/STM32N6xx_HAL_Driver/Inc/stm32n6xx_ll_bus.h **** #define LL_APB2_GRP1_PERIPH_USART6         RCC_APB2ENR_USART6EN
 317:STM32Cube_FW_N6/Drivers/STM32N6xx_HAL_Driver/Inc/stm32n6xx_ll_bus.h **** #define LL_APB2_GRP1_PERIPH_UART9          RCC_APB2ENR_UART9EN
 318:STM32Cube_FW_N6/Drivers/STM32N6xx_HAL_Driver/Inc/stm32n6xx_ll_bus.h **** #define LL_APB2_GRP1_PERIPH_USART10        RCC_APB2ENR_USART10EN
 319:STM32Cube_FW_N6/Drivers/STM32N6xx_HAL_Driver/Inc/stm32n6xx_ll_bus.h **** #define LL_APB2_GRP1_PERIPH_ALL            (LL_APB2_GRP1_PERIPH_SAI1   | LL_APB2_GRP1_PERIPH_SAI2  
 320:STM32Cube_FW_N6/Drivers/STM32N6xx_HAL_Driver/Inc/stm32n6xx_ll_bus.h ****                                             LL_APB2_GRP1_PERIPH_SPI1   | LL_APB2_GRP1_PERIPH_SPI4  
 321:STM32Cube_FW_N6/Drivers/STM32N6xx_HAL_Driver/Inc/stm32n6xx_ll_bus.h ****                                             LL_APB2_GRP1_PERIPH_SPI5   | LL_APB2_GRP1_PERIPH_TIM1  
 322:STM32Cube_FW_N6/Drivers/STM32N6xx_HAL_Driver/Inc/stm32n6xx_ll_bus.h ****                                             LL_APB2_GRP1_PERIPH_TIM8   | LL_APB2_GRP1_PERIPH_TIM9  
 323:STM32Cube_FW_N6/Drivers/STM32N6xx_HAL_Driver/Inc/stm32n6xx_ll_bus.h ****                                             LL_APB2_GRP1_PERIPH_TIM15  | LL_APB2_GRP1_PERIPH_TIM16 
 324:STM32Cube_FW_N6/Drivers/STM32N6xx_HAL_Driver/Inc/stm32n6xx_ll_bus.h ****                                             LL_APB2_GRP1_PERIPH_TIM17  | LL_APB2_GRP1_PERIPH_TIM18 
 325:STM32Cube_FW_N6/Drivers/STM32N6xx_HAL_Driver/Inc/stm32n6xx_ll_bus.h ****                                             LL_APB2_GRP1_PERIPH_USART1 | LL_APB2_GRP1_PERIPH_USART6
ARM GAS  C:\Users\DJESSOU\AppData\Local\Temp\cc3dm0Vf.s 			page 77


 326:STM32Cube_FW_N6/Drivers/STM32N6xx_HAL_Driver/Inc/stm32n6xx_ll_bus.h ****                                             LL_APB2_GRP1_PERIPH_UART9  | LL_APB2_GRP1_PERIPH_USART1
 327:STM32Cube_FW_N6/Drivers/STM32N6xx_HAL_Driver/Inc/stm32n6xx_ll_bus.h **** /**
 328:STM32Cube_FW_N6/Drivers/STM32N6xx_HAL_Driver/Inc/stm32n6xx_ll_bus.h ****   * @}
 329:STM32Cube_FW_N6/Drivers/STM32N6xx_HAL_Driver/Inc/stm32n6xx_ll_bus.h ****   */
 330:STM32Cube_FW_N6/Drivers/STM32N6xx_HAL_Driver/Inc/stm32n6xx_ll_bus.h **** 
 331:STM32Cube_FW_N6/Drivers/STM32N6xx_HAL_Driver/Inc/stm32n6xx_ll_bus.h **** /** @defgroup BUS_LL_EC_APB4_GRP1_PERIPH  APB4 GRP1 PERIPH
 332:STM32Cube_FW_N6/Drivers/STM32N6xx_HAL_Driver/Inc/stm32n6xx_ll_bus.h ****   * @{
 333:STM32Cube_FW_N6/Drivers/STM32N6xx_HAL_Driver/Inc/stm32n6xx_ll_bus.h ****   */
 334:STM32Cube_FW_N6/Drivers/STM32N6xx_HAL_Driver/Inc/stm32n6xx_ll_bus.h **** #define LL_APB4_GRP1_PERIPH_HDP            RCC_APB4ENR1_HDPEN
 335:STM32Cube_FW_N6/Drivers/STM32N6xx_HAL_Driver/Inc/stm32n6xx_ll_bus.h **** #define LL_APB4_GRP1_PERIPH_I2C4           RCC_APB4ENR1_I2C4EN
 336:STM32Cube_FW_N6/Drivers/STM32N6xx_HAL_Driver/Inc/stm32n6xx_ll_bus.h **** #define LL_APB4_GRP1_PERIPH_LPTIM2         RCC_APB4ENR1_LPTIM2EN
 337:STM32Cube_FW_N6/Drivers/STM32N6xx_HAL_Driver/Inc/stm32n6xx_ll_bus.h **** #define LL_APB4_GRP1_PERIPH_LPTIM3         RCC_APB4ENR1_LPTIM3EN
 338:STM32Cube_FW_N6/Drivers/STM32N6xx_HAL_Driver/Inc/stm32n6xx_ll_bus.h **** #define LL_APB4_GRP1_PERIPH_LPTIM4         RCC_APB4ENR1_LPTIM4EN
 339:STM32Cube_FW_N6/Drivers/STM32N6xx_HAL_Driver/Inc/stm32n6xx_ll_bus.h **** #define LL_APB4_GRP1_PERIPH_LPTIM5         RCC_APB4ENR1_LPTIM5EN
 340:STM32Cube_FW_N6/Drivers/STM32N6xx_HAL_Driver/Inc/stm32n6xx_ll_bus.h **** #define LL_APB4_GRP1_PERIPH_LPUART1        RCC_APB4ENR1_LPUART1EN
 341:STM32Cube_FW_N6/Drivers/STM32N6xx_HAL_Driver/Inc/stm32n6xx_ll_bus.h **** #define LL_APB4_GRP1_PERIPH_RTC            RCC_APB4ENR1_RTCEN
 342:STM32Cube_FW_N6/Drivers/STM32N6xx_HAL_Driver/Inc/stm32n6xx_ll_bus.h **** #define LL_APB4_GRP1_PERIPH_RTCAPB         RCC_APB4ENR1_RTCAPBEN
 343:STM32Cube_FW_N6/Drivers/STM32N6xx_HAL_Driver/Inc/stm32n6xx_ll_bus.h **** #define LL_APB4_GRP1_PERIPH_SPI6           RCC_APB4ENR1_SPI6EN
 344:STM32Cube_FW_N6/Drivers/STM32N6xx_HAL_Driver/Inc/stm32n6xx_ll_bus.h **** #define LL_APB4_GRP1_PERIPH_VREFBUF        RCC_APB4ENR1_VREFBUFEN
 345:STM32Cube_FW_N6/Drivers/STM32N6xx_HAL_Driver/Inc/stm32n6xx_ll_bus.h **** #define LL_APB4_GRP1_PERIPH_ALL            (LL_APB4_GRP1_PERIPH_HDP     | LL_APB4_GRP1_PERIPH_I2C4 
 346:STM32Cube_FW_N6/Drivers/STM32N6xx_HAL_Driver/Inc/stm32n6xx_ll_bus.h ****                                             LL_APB4_GRP1_PERIPH_LPTIM2  | LL_APB4_GRP1_PERIPH_LPTIM
 347:STM32Cube_FW_N6/Drivers/STM32N6xx_HAL_Driver/Inc/stm32n6xx_ll_bus.h ****                                             LL_APB4_GRP1_PERIPH_LPTIM4  | LL_APB4_GRP1_PERIPH_LPTIM
 348:STM32Cube_FW_N6/Drivers/STM32N6xx_HAL_Driver/Inc/stm32n6xx_ll_bus.h ****                                             LL_APB4_GRP1_PERIPH_LPUART1 | LL_APB4_GRP1_PERIPH_RTC  
 349:STM32Cube_FW_N6/Drivers/STM32N6xx_HAL_Driver/Inc/stm32n6xx_ll_bus.h ****                                             LL_APB4_GRP1_PERIPH_RTCAPB  | LL_APB4_GRP1_PERIPH_SPI6 
 350:STM32Cube_FW_N6/Drivers/STM32N6xx_HAL_Driver/Inc/stm32n6xx_ll_bus.h ****                                             LL_APB4_GRP1_PERIPH_VREFBUF)
 351:STM32Cube_FW_N6/Drivers/STM32N6xx_HAL_Driver/Inc/stm32n6xx_ll_bus.h **** /**
 352:STM32Cube_FW_N6/Drivers/STM32N6xx_HAL_Driver/Inc/stm32n6xx_ll_bus.h ****   * @}
 353:STM32Cube_FW_N6/Drivers/STM32N6xx_HAL_Driver/Inc/stm32n6xx_ll_bus.h ****   */
 354:STM32Cube_FW_N6/Drivers/STM32N6xx_HAL_Driver/Inc/stm32n6xx_ll_bus.h **** 
 355:STM32Cube_FW_N6/Drivers/STM32N6xx_HAL_Driver/Inc/stm32n6xx_ll_bus.h **** /** @defgroup BUS_LL_EC_APB4_GRP2_PERIPH  APB4 GRP2 PERIPH
 356:STM32Cube_FW_N6/Drivers/STM32N6xx_HAL_Driver/Inc/stm32n6xx_ll_bus.h ****   * @{
 357:STM32Cube_FW_N6/Drivers/STM32N6xx_HAL_Driver/Inc/stm32n6xx_ll_bus.h ****   */
 358:STM32Cube_FW_N6/Drivers/STM32N6xx_HAL_Driver/Inc/stm32n6xx_ll_bus.h **** #define LL_APB4_GRP2_PERIPH_BSEC           RCC_APB4ENR2_BSECEN
 359:STM32Cube_FW_N6/Drivers/STM32N6xx_HAL_Driver/Inc/stm32n6xx_ll_bus.h **** #define LL_APB4_GRP2_PERIPH_DTS            RCC_APB4ENR2_DTSEN
 360:STM32Cube_FW_N6/Drivers/STM32N6xx_HAL_Driver/Inc/stm32n6xx_ll_bus.h **** #define LL_APB4_GRP2_PERIPH_SYSCFG         RCC_APB4ENR2_SYSCFGEN
 361:STM32Cube_FW_N6/Drivers/STM32N6xx_HAL_Driver/Inc/stm32n6xx_ll_bus.h **** #define LL_APB4_GRP2_PERIPH_ALL            (LL_APB4_GRP2_PERIPH_BSEC | LL_APB4_GRP2_PERIPH_DTS | \
 362:STM32Cube_FW_N6/Drivers/STM32N6xx_HAL_Driver/Inc/stm32n6xx_ll_bus.h ****                                             LL_APB4_GRP2_PERIPH_SYSCFG)
 363:STM32Cube_FW_N6/Drivers/STM32N6xx_HAL_Driver/Inc/stm32n6xx_ll_bus.h **** /**
 364:STM32Cube_FW_N6/Drivers/STM32N6xx_HAL_Driver/Inc/stm32n6xx_ll_bus.h ****   * @}
 365:STM32Cube_FW_N6/Drivers/STM32N6xx_HAL_Driver/Inc/stm32n6xx_ll_bus.h ****   */
 366:STM32Cube_FW_N6/Drivers/STM32N6xx_HAL_Driver/Inc/stm32n6xx_ll_bus.h **** 
 367:STM32Cube_FW_N6/Drivers/STM32N6xx_HAL_Driver/Inc/stm32n6xx_ll_bus.h **** /** @defgroup BUS_LL_EC_APB5_GRP1_PERIPH  APB5 GRP1 PERIPH
 368:STM32Cube_FW_N6/Drivers/STM32N6xx_HAL_Driver/Inc/stm32n6xx_ll_bus.h ****   * @{
 369:STM32Cube_FW_N6/Drivers/STM32N6xx_HAL_Driver/Inc/stm32n6xx_ll_bus.h ****   */
 370:STM32Cube_FW_N6/Drivers/STM32N6xx_HAL_Driver/Inc/stm32n6xx_ll_bus.h **** #define LL_APB5_GRP1_PERIPH_CSI            RCC_APB5ENR_CSIEN
 371:STM32Cube_FW_N6/Drivers/STM32N6xx_HAL_Driver/Inc/stm32n6xx_ll_bus.h **** #define LL_APB5_GRP1_PERIPH_DCMIPP         RCC_APB5ENR_DCMIPPEN
 372:STM32Cube_FW_N6/Drivers/STM32N6xx_HAL_Driver/Inc/stm32n6xx_ll_bus.h **** #define LL_APB5_GRP1_PERIPH_GFXTIM         RCC_APB5ENR_GFXTIMEN
 373:STM32Cube_FW_N6/Drivers/STM32N6xx_HAL_Driver/Inc/stm32n6xx_ll_bus.h **** #define LL_APB5_GRP1_PERIPH_LTDC           RCC_APB5ENR_LTDCEN
 374:STM32Cube_FW_N6/Drivers/STM32N6xx_HAL_Driver/Inc/stm32n6xx_ll_bus.h **** #if defined(VENC)
 375:STM32Cube_FW_N6/Drivers/STM32N6xx_HAL_Driver/Inc/stm32n6xx_ll_bus.h **** #define LL_APB5_GRP1_PERIPH_VENC           RCC_APB5ENR_VENCEN
 376:STM32Cube_FW_N6/Drivers/STM32N6xx_HAL_Driver/Inc/stm32n6xx_ll_bus.h **** #else
 377:STM32Cube_FW_N6/Drivers/STM32N6xx_HAL_Driver/Inc/stm32n6xx_ll_bus.h **** #define LL_APB5_GRP1_PERIPH_VENC
 378:STM32Cube_FW_N6/Drivers/STM32N6xx_HAL_Driver/Inc/stm32n6xx_ll_bus.h **** #endif /* VENC */
 379:STM32Cube_FW_N6/Drivers/STM32N6xx_HAL_Driver/Inc/stm32n6xx_ll_bus.h **** #define LL_APB5_GRP1_PERIPH_ALL            (LL_APB5_GRP1_PERIPH_CSI    | LL_APB5_GRP1_PERIPH_DCMIPP
 380:STM32Cube_FW_N6/Drivers/STM32N6xx_HAL_Driver/Inc/stm32n6xx_ll_bus.h ****                                             LL_APB5_GRP1_PERIPH_GFXTIM | LL_APB5_GRP1_PERIPH_LTDC  
 381:STM32Cube_FW_N6/Drivers/STM32N6xx_HAL_Driver/Inc/stm32n6xx_ll_bus.h ****                                             LL_APB5_GRP1_PERIPH_VENC)
 382:STM32Cube_FW_N6/Drivers/STM32N6xx_HAL_Driver/Inc/stm32n6xx_ll_bus.h **** /**
ARM GAS  C:\Users\DJESSOU\AppData\Local\Temp\cc3dm0Vf.s 			page 78


 383:STM32Cube_FW_N6/Drivers/STM32N6xx_HAL_Driver/Inc/stm32n6xx_ll_bus.h ****   * @}
 384:STM32Cube_FW_N6/Drivers/STM32N6xx_HAL_Driver/Inc/stm32n6xx_ll_bus.h ****   */
 385:STM32Cube_FW_N6/Drivers/STM32N6xx_HAL_Driver/Inc/stm32n6xx_ll_bus.h **** 
 386:STM32Cube_FW_N6/Drivers/STM32N6xx_HAL_Driver/Inc/stm32n6xx_ll_bus.h **** /** @defgroup BUS_LL_EC_MISC  MISC
 387:STM32Cube_FW_N6/Drivers/STM32N6xx_HAL_Driver/Inc/stm32n6xx_ll_bus.h ****   * @{
 388:STM32Cube_FW_N6/Drivers/STM32N6xx_HAL_Driver/Inc/stm32n6xx_ll_bus.h ****   */
 389:STM32Cube_FW_N6/Drivers/STM32N6xx_HAL_Driver/Inc/stm32n6xx_ll_bus.h **** #define LL_DBG                             RCC_MISCENR_DBGEN
 390:STM32Cube_FW_N6/Drivers/STM32N6xx_HAL_Driver/Inc/stm32n6xx_ll_bus.h **** #define LL_MCO1                            RCC_MISCENR_MCO1EN
 391:STM32Cube_FW_N6/Drivers/STM32N6xx_HAL_Driver/Inc/stm32n6xx_ll_bus.h **** #define LL_MCO2                            RCC_MISCENR_MCO2EN
 392:STM32Cube_FW_N6/Drivers/STM32N6xx_HAL_Driver/Inc/stm32n6xx_ll_bus.h **** #define LL_XSPIPHYCOMP                     RCC_MISCENR_XSPIPHYCOMPEN
 393:STM32Cube_FW_N6/Drivers/STM32N6xx_HAL_Driver/Inc/stm32n6xx_ll_bus.h **** #define LL_XSPIPHY1                        RCC_MISCRSTR_XSPIPHY1RST
 394:STM32Cube_FW_N6/Drivers/STM32N6xx_HAL_Driver/Inc/stm32n6xx_ll_bus.h **** #define LL_XSPIPHY2                        RCC_MISCRSTR_XSPIPHY2RST
 395:STM32Cube_FW_N6/Drivers/STM32N6xx_HAL_Driver/Inc/stm32n6xx_ll_bus.h **** #define LL_PER                             RCC_MISCENR_PEREN
 396:STM32Cube_FW_N6/Drivers/STM32N6xx_HAL_Driver/Inc/stm32n6xx_ll_bus.h **** #define LL_SDMMC1DLL                       RCC_MISCRSTR_SDMMC1DLLRST
 397:STM32Cube_FW_N6/Drivers/STM32N6xx_HAL_Driver/Inc/stm32n6xx_ll_bus.h **** #define LL_SDMMC2DLL                       RCC_MISCRSTR_SDMMC2DLLRST
 398:STM32Cube_FW_N6/Drivers/STM32N6xx_HAL_Driver/Inc/stm32n6xx_ll_bus.h **** /**
 399:STM32Cube_FW_N6/Drivers/STM32N6xx_HAL_Driver/Inc/stm32n6xx_ll_bus.h ****   * @}
 400:STM32Cube_FW_N6/Drivers/STM32N6xx_HAL_Driver/Inc/stm32n6xx_ll_bus.h ****   */
 401:STM32Cube_FW_N6/Drivers/STM32N6xx_HAL_Driver/Inc/stm32n6xx_ll_bus.h **** 
 402:STM32Cube_FW_N6/Drivers/STM32N6xx_HAL_Driver/Inc/stm32n6xx_ll_bus.h **** /**
 403:STM32Cube_FW_N6/Drivers/STM32N6xx_HAL_Driver/Inc/stm32n6xx_ll_bus.h ****   * @}
 404:STM32Cube_FW_N6/Drivers/STM32N6xx_HAL_Driver/Inc/stm32n6xx_ll_bus.h ****   */
 405:STM32Cube_FW_N6/Drivers/STM32N6xx_HAL_Driver/Inc/stm32n6xx_ll_bus.h **** 
 406:STM32Cube_FW_N6/Drivers/STM32N6xx_HAL_Driver/Inc/stm32n6xx_ll_bus.h **** /* Exported macros -----------------------------------------------------------*/
 407:STM32Cube_FW_N6/Drivers/STM32N6xx_HAL_Driver/Inc/stm32n6xx_ll_bus.h **** 
 408:STM32Cube_FW_N6/Drivers/STM32N6xx_HAL_Driver/Inc/stm32n6xx_ll_bus.h **** /* Exported functions --------------------------------------------------------*/
 409:STM32Cube_FW_N6/Drivers/STM32N6xx_HAL_Driver/Inc/stm32n6xx_ll_bus.h **** 
 410:STM32Cube_FW_N6/Drivers/STM32N6xx_HAL_Driver/Inc/stm32n6xx_ll_bus.h **** /** @defgroup BUS_LL_Exported_Functions BUS Exported Functions
 411:STM32Cube_FW_N6/Drivers/STM32N6xx_HAL_Driver/Inc/stm32n6xx_ll_bus.h ****   * @{
 412:STM32Cube_FW_N6/Drivers/STM32N6xx_HAL_Driver/Inc/stm32n6xx_ll_bus.h ****   */
 413:STM32Cube_FW_N6/Drivers/STM32N6xx_HAL_Driver/Inc/stm32n6xx_ll_bus.h **** 
 414:STM32Cube_FW_N6/Drivers/STM32N6xx_HAL_Driver/Inc/stm32n6xx_ll_bus.h **** /** @defgroup BUS_LL_EF_BUS BUS
 415:STM32Cube_FW_N6/Drivers/STM32N6xx_HAL_Driver/Inc/stm32n6xx_ll_bus.h ****   * @{
 416:STM32Cube_FW_N6/Drivers/STM32N6xx_HAL_Driver/Inc/stm32n6xx_ll_bus.h ****   */
 417:STM32Cube_FW_N6/Drivers/STM32N6xx_HAL_Driver/Inc/stm32n6xx_ll_bus.h **** 
 418:STM32Cube_FW_N6/Drivers/STM32N6xx_HAL_Driver/Inc/stm32n6xx_ll_bus.h **** /**
 419:STM32Cube_FW_N6/Drivers/STM32N6xx_HAL_Driver/Inc/stm32n6xx_ll_bus.h ****   * @brief  Enable AXI bus clock.
 420:STM32Cube_FW_N6/Drivers/STM32N6xx_HAL_Driver/Inc/stm32n6xx_ll_bus.h ****   * @rmtoll BUSENSR      ACLKNENS      LL_BUS_EnableClock\n
 421:STM32Cube_FW_N6/Drivers/STM32N6xx_HAL_Driver/Inc/stm32n6xx_ll_bus.h ****   *         BUSENSR      ACLKNCENS     LL_BUS_EnableClock\n
 422:STM32Cube_FW_N6/Drivers/STM32N6xx_HAL_Driver/Inc/stm32n6xx_ll_bus.h ****   *         BUSENSR      AHBMENS       LL_BUS_EnableClock\n
 423:STM32Cube_FW_N6/Drivers/STM32N6xx_HAL_Driver/Inc/stm32n6xx_ll_bus.h ****   *         BUSENSR      AHB1ENS       LL_BUS_EnableClock\n
 424:STM32Cube_FW_N6/Drivers/STM32N6xx_HAL_Driver/Inc/stm32n6xx_ll_bus.h ****   *         BUSENSR      AHB2ENS       LL_BUS_EnableClock\n
 425:STM32Cube_FW_N6/Drivers/STM32N6xx_HAL_Driver/Inc/stm32n6xx_ll_bus.h ****   *         BUSENSR      AHB3ENS       LL_BUS_EnableClock\n
 426:STM32Cube_FW_N6/Drivers/STM32N6xx_HAL_Driver/Inc/stm32n6xx_ll_bus.h ****   *         BUSENSR      AHB4ENS       LL_BUS_EnableClock\n
 427:STM32Cube_FW_N6/Drivers/STM32N6xx_HAL_Driver/Inc/stm32n6xx_ll_bus.h ****   *         BUSENSR      AHB5ENS       LL_BUS_EnableClock\n
 428:STM32Cube_FW_N6/Drivers/STM32N6xx_HAL_Driver/Inc/stm32n6xx_ll_bus.h ****   *         BUSENSR      APB1ENS       LL_BUS_EnableClock\n
 429:STM32Cube_FW_N6/Drivers/STM32N6xx_HAL_Driver/Inc/stm32n6xx_ll_bus.h ****   *         BUSENSR      APB2ENS       LL_BUS_EnableClock\n
 430:STM32Cube_FW_N6/Drivers/STM32N6xx_HAL_Driver/Inc/stm32n6xx_ll_bus.h ****   *         BUSENSR      APB3ENS       LL_BUS_EnableClock\n
 431:STM32Cube_FW_N6/Drivers/STM32N6xx_HAL_Driver/Inc/stm32n6xx_ll_bus.h ****   *         BUSENSR      APB4ENS       LL_BUS_EnableClock\n
 432:STM32Cube_FW_N6/Drivers/STM32N6xx_HAL_Driver/Inc/stm32n6xx_ll_bus.h ****   *         BUSENSR      APB5ENS       LL_BUS_EnableClock
 433:STM32Cube_FW_N6/Drivers/STM32N6xx_HAL_Driver/Inc/stm32n6xx_ll_bus.h ****   * @param  Bus This parameter can be a combination of the following values:
 434:STM32Cube_FW_N6/Drivers/STM32N6xx_HAL_Driver/Inc/stm32n6xx_ll_bus.h ****   *         @arg @ref LL_ACLKN
 435:STM32Cube_FW_N6/Drivers/STM32N6xx_HAL_Driver/Inc/stm32n6xx_ll_bus.h ****   *         @arg @ref LL_ACLKNC
 436:STM32Cube_FW_N6/Drivers/STM32N6xx_HAL_Driver/Inc/stm32n6xx_ll_bus.h ****   *         @arg @ref LL_AHBM
 437:STM32Cube_FW_N6/Drivers/STM32N6xx_HAL_Driver/Inc/stm32n6xx_ll_bus.h ****   *         @arg @ref LL_AHB1
 438:STM32Cube_FW_N6/Drivers/STM32N6xx_HAL_Driver/Inc/stm32n6xx_ll_bus.h ****   *         @arg @ref LL_AHB2
 439:STM32Cube_FW_N6/Drivers/STM32N6xx_HAL_Driver/Inc/stm32n6xx_ll_bus.h ****   *         @arg @ref LL_AHB3
ARM GAS  C:\Users\DJESSOU\AppData\Local\Temp\cc3dm0Vf.s 			page 79


 440:STM32Cube_FW_N6/Drivers/STM32N6xx_HAL_Driver/Inc/stm32n6xx_ll_bus.h ****   *         @arg @ref LL_AHB4
 441:STM32Cube_FW_N6/Drivers/STM32N6xx_HAL_Driver/Inc/stm32n6xx_ll_bus.h ****   *         @arg @ref LL_AHB5
 442:STM32Cube_FW_N6/Drivers/STM32N6xx_HAL_Driver/Inc/stm32n6xx_ll_bus.h ****   *         @arg @ref LL_APB1
 443:STM32Cube_FW_N6/Drivers/STM32N6xx_HAL_Driver/Inc/stm32n6xx_ll_bus.h ****   *         @arg @ref LL_APB2
 444:STM32Cube_FW_N6/Drivers/STM32N6xx_HAL_Driver/Inc/stm32n6xx_ll_bus.h ****   *         @arg @ref LL_APB3
 445:STM32Cube_FW_N6/Drivers/STM32N6xx_HAL_Driver/Inc/stm32n6xx_ll_bus.h ****   *         @arg @ref LL_APB4
 446:STM32Cube_FW_N6/Drivers/STM32N6xx_HAL_Driver/Inc/stm32n6xx_ll_bus.h ****   *         @arg @ref LL_APB5
 447:STM32Cube_FW_N6/Drivers/STM32N6xx_HAL_Driver/Inc/stm32n6xx_ll_bus.h ****   * @retval None
 448:STM32Cube_FW_N6/Drivers/STM32N6xx_HAL_Driver/Inc/stm32n6xx_ll_bus.h ****   */
 449:STM32Cube_FW_N6/Drivers/STM32N6xx_HAL_Driver/Inc/stm32n6xx_ll_bus.h **** __STATIC_INLINE void LL_BUS_EnableClock(uint32_t Bus)
 450:STM32Cube_FW_N6/Drivers/STM32N6xx_HAL_Driver/Inc/stm32n6xx_ll_bus.h **** {
 451:STM32Cube_FW_N6/Drivers/STM32N6xx_HAL_Driver/Inc/stm32n6xx_ll_bus.h ****   __IO uint32_t tmpreg;
 452:STM32Cube_FW_N6/Drivers/STM32N6xx_HAL_Driver/Inc/stm32n6xx_ll_bus.h ****   WRITE_REG(RCC->BUSENSR, Bus);
 453:STM32Cube_FW_N6/Drivers/STM32N6xx_HAL_Driver/Inc/stm32n6xx_ll_bus.h ****   /* Delay after an RCC bus clock enabling */
 454:STM32Cube_FW_N6/Drivers/STM32N6xx_HAL_Driver/Inc/stm32n6xx_ll_bus.h ****   tmpreg = READ_REG(RCC->BUSENR);
 455:STM32Cube_FW_N6/Drivers/STM32N6xx_HAL_Driver/Inc/stm32n6xx_ll_bus.h ****   (void)tmpreg;
 456:STM32Cube_FW_N6/Drivers/STM32N6xx_HAL_Driver/Inc/stm32n6xx_ll_bus.h **** }
 457:STM32Cube_FW_N6/Drivers/STM32N6xx_HAL_Driver/Inc/stm32n6xx_ll_bus.h **** 
 458:STM32Cube_FW_N6/Drivers/STM32N6xx_HAL_Driver/Inc/stm32n6xx_ll_bus.h **** /**
 459:STM32Cube_FW_N6/Drivers/STM32N6xx_HAL_Driver/Inc/stm32n6xx_ll_bus.h ****   * @brief  Check if AXI bus clock is enabled or not
 460:STM32Cube_FW_N6/Drivers/STM32N6xx_HAL_Driver/Inc/stm32n6xx_ll_bus.h ****   * @rmtoll BUSENR       ACLKNEN       LL_BUS_IsEnabledClock\n
 461:STM32Cube_FW_N6/Drivers/STM32N6xx_HAL_Driver/Inc/stm32n6xx_ll_bus.h ****   *         BUSENR       ACLKNCEN      LL_BUS_IsEnabledClock\n
 462:STM32Cube_FW_N6/Drivers/STM32N6xx_HAL_Driver/Inc/stm32n6xx_ll_bus.h ****   *         BUSENR       AHBMEN        LL_BUS_IsEnabledClock\n
 463:STM32Cube_FW_N6/Drivers/STM32N6xx_HAL_Driver/Inc/stm32n6xx_ll_bus.h ****   *         BUSENR       AHB1EN        LL_BUS_IsEnabledClock\n
 464:STM32Cube_FW_N6/Drivers/STM32N6xx_HAL_Driver/Inc/stm32n6xx_ll_bus.h ****   *         BUSENR       AHB2EN        LL_BUS_IsEnabledClock\n
 465:STM32Cube_FW_N6/Drivers/STM32N6xx_HAL_Driver/Inc/stm32n6xx_ll_bus.h ****   *         BUSENR       AHB3EN        LL_BUS_IsEnabledClock\n
 466:STM32Cube_FW_N6/Drivers/STM32N6xx_HAL_Driver/Inc/stm32n6xx_ll_bus.h ****   *         BUSENR       AHB4EN        LL_BUS_IsEnabledClock\n
 467:STM32Cube_FW_N6/Drivers/STM32N6xx_HAL_Driver/Inc/stm32n6xx_ll_bus.h ****   *         BUSENR       AHB5EN        LL_BUS_IsEnabledClock\n
 468:STM32Cube_FW_N6/Drivers/STM32N6xx_HAL_Driver/Inc/stm32n6xx_ll_bus.h ****   *         BUSENR       APB1EN        LL_BUS_IsEnabledClock\n
 469:STM32Cube_FW_N6/Drivers/STM32N6xx_HAL_Driver/Inc/stm32n6xx_ll_bus.h ****   *         BUSENR       APB2EN        LL_BUS_IsEnabledClock\n
 470:STM32Cube_FW_N6/Drivers/STM32N6xx_HAL_Driver/Inc/stm32n6xx_ll_bus.h ****   *         BUSENR       APB3EN        LL_BUS_IsEnabledClock\n
 471:STM32Cube_FW_N6/Drivers/STM32N6xx_HAL_Driver/Inc/stm32n6xx_ll_bus.h ****   *         BUSENR       APB4EN        LL_BUS_IsEnabledClock\n
 472:STM32Cube_FW_N6/Drivers/STM32N6xx_HAL_Driver/Inc/stm32n6xx_ll_bus.h ****   *         BUSENR       APB5EN        LL_BUS_IsEnabledClock
 473:STM32Cube_FW_N6/Drivers/STM32N6xx_HAL_Driver/Inc/stm32n6xx_ll_bus.h ****   * @param  Bus This parameter can be a combination of the following values:
 474:STM32Cube_FW_N6/Drivers/STM32N6xx_HAL_Driver/Inc/stm32n6xx_ll_bus.h ****   *         @arg @ref LL_ACLKN
 475:STM32Cube_FW_N6/Drivers/STM32N6xx_HAL_Driver/Inc/stm32n6xx_ll_bus.h ****   *         @arg @ref LL_ACLKNC
 476:STM32Cube_FW_N6/Drivers/STM32N6xx_HAL_Driver/Inc/stm32n6xx_ll_bus.h ****   *         @arg @ref LL_AHBM
 477:STM32Cube_FW_N6/Drivers/STM32N6xx_HAL_Driver/Inc/stm32n6xx_ll_bus.h ****   *         @arg @ref LL_AHB1
 478:STM32Cube_FW_N6/Drivers/STM32N6xx_HAL_Driver/Inc/stm32n6xx_ll_bus.h ****   *         @arg @ref LL_AHB2
 479:STM32Cube_FW_N6/Drivers/STM32N6xx_HAL_Driver/Inc/stm32n6xx_ll_bus.h ****   *         @arg @ref LL_AHB3
 480:STM32Cube_FW_N6/Drivers/STM32N6xx_HAL_Driver/Inc/stm32n6xx_ll_bus.h ****   *         @arg @ref LL_AHB4
 481:STM32Cube_FW_N6/Drivers/STM32N6xx_HAL_Driver/Inc/stm32n6xx_ll_bus.h ****   *         @arg @ref LL_AHB5
 482:STM32Cube_FW_N6/Drivers/STM32N6xx_HAL_Driver/Inc/stm32n6xx_ll_bus.h ****   *         @arg @ref LL_APB1
 483:STM32Cube_FW_N6/Drivers/STM32N6xx_HAL_Driver/Inc/stm32n6xx_ll_bus.h ****   *         @arg @ref LL_APB2
 484:STM32Cube_FW_N6/Drivers/STM32N6xx_HAL_Driver/Inc/stm32n6xx_ll_bus.h ****   *         @arg @ref LL_APB3
 485:STM32Cube_FW_N6/Drivers/STM32N6xx_HAL_Driver/Inc/stm32n6xx_ll_bus.h ****   *         @arg @ref LL_APB4
 486:STM32Cube_FW_N6/Drivers/STM32N6xx_HAL_Driver/Inc/stm32n6xx_ll_bus.h ****   *         @arg @ref LL_APB5
 487:STM32Cube_FW_N6/Drivers/STM32N6xx_HAL_Driver/Inc/stm32n6xx_ll_bus.h ****   * @retval uint32_t
 488:STM32Cube_FW_N6/Drivers/STM32N6xx_HAL_Driver/Inc/stm32n6xx_ll_bus.h ****   */
 489:STM32Cube_FW_N6/Drivers/STM32N6xx_HAL_Driver/Inc/stm32n6xx_ll_bus.h **** __STATIC_INLINE uint32_t LL_BUS_IsEnabledClock(uint32_t Bus)
 490:STM32Cube_FW_N6/Drivers/STM32N6xx_HAL_Driver/Inc/stm32n6xx_ll_bus.h **** {
 491:STM32Cube_FW_N6/Drivers/STM32N6xx_HAL_Driver/Inc/stm32n6xx_ll_bus.h ****   return ((READ_BIT(RCC->BUSENR, Bus) == Bus) ? 1UL : 0UL);
 492:STM32Cube_FW_N6/Drivers/STM32N6xx_HAL_Driver/Inc/stm32n6xx_ll_bus.h **** }
 493:STM32Cube_FW_N6/Drivers/STM32N6xx_HAL_Driver/Inc/stm32n6xx_ll_bus.h **** 
 494:STM32Cube_FW_N6/Drivers/STM32N6xx_HAL_Driver/Inc/stm32n6xx_ll_bus.h **** /**
 495:STM32Cube_FW_N6/Drivers/STM32N6xx_HAL_Driver/Inc/stm32n6xx_ll_bus.h ****   * @brief  Disable AXI bus clock.
 496:STM32Cube_FW_N6/Drivers/STM32N6xx_HAL_Driver/Inc/stm32n6xx_ll_bus.h ****   * @rmtoll BUSENCR      ACLKNENC      LL_BUS_DisableClock\n
ARM GAS  C:\Users\DJESSOU\AppData\Local\Temp\cc3dm0Vf.s 			page 80


 497:STM32Cube_FW_N6/Drivers/STM32N6xx_HAL_Driver/Inc/stm32n6xx_ll_bus.h ****   *         BUSENCR      ACLKNCENC     LL_BUS_DisableClock\n
 498:STM32Cube_FW_N6/Drivers/STM32N6xx_HAL_Driver/Inc/stm32n6xx_ll_bus.h ****   *         BUSENCR      AHBMENC       LL_BUS_DisableClock\n
 499:STM32Cube_FW_N6/Drivers/STM32N6xx_HAL_Driver/Inc/stm32n6xx_ll_bus.h ****   *         BUSENCR      AHB1ENC       LL_BUS_DisableClock\n
 500:STM32Cube_FW_N6/Drivers/STM32N6xx_HAL_Driver/Inc/stm32n6xx_ll_bus.h ****   *         BUSENCR      AHB2ENC       LL_BUS_DisableClock\n
 501:STM32Cube_FW_N6/Drivers/STM32N6xx_HAL_Driver/Inc/stm32n6xx_ll_bus.h ****   *         BUSENCR      AHB3ENC       LL_BUS_DisableClock\n
 502:STM32Cube_FW_N6/Drivers/STM32N6xx_HAL_Driver/Inc/stm32n6xx_ll_bus.h ****   *         BUSENCR      AHB4ENC       LL_BUS_DisableClock\n
 503:STM32Cube_FW_N6/Drivers/STM32N6xx_HAL_Driver/Inc/stm32n6xx_ll_bus.h ****   *         BUSENCR      AHB5ENC       LL_BUS_DisableClock\n
 504:STM32Cube_FW_N6/Drivers/STM32N6xx_HAL_Driver/Inc/stm32n6xx_ll_bus.h ****   *         BUSENCR      APB1ENC       LL_BUS_DisableClock\n
 505:STM32Cube_FW_N6/Drivers/STM32N6xx_HAL_Driver/Inc/stm32n6xx_ll_bus.h ****   *         BUSENCR      APB2ENC       LL_BUS_DisableClock\n
 506:STM32Cube_FW_N6/Drivers/STM32N6xx_HAL_Driver/Inc/stm32n6xx_ll_bus.h ****   *         BUSENCR      APB3ENC       LL_BUS_DisableClock\n
 507:STM32Cube_FW_N6/Drivers/STM32N6xx_HAL_Driver/Inc/stm32n6xx_ll_bus.h ****   *         BUSENCR      APB4ENC       LL_BUS_DisableClock\n
 508:STM32Cube_FW_N6/Drivers/STM32N6xx_HAL_Driver/Inc/stm32n6xx_ll_bus.h ****   *         BUSENCR      APB5ENC       LL_BUS_DisableClock
 509:STM32Cube_FW_N6/Drivers/STM32N6xx_HAL_Driver/Inc/stm32n6xx_ll_bus.h ****   * @param  Bus This parameter can be a combination of the following values:
 510:STM32Cube_FW_N6/Drivers/STM32N6xx_HAL_Driver/Inc/stm32n6xx_ll_bus.h ****   *         @arg @ref LL_ACLKN
 511:STM32Cube_FW_N6/Drivers/STM32N6xx_HAL_Driver/Inc/stm32n6xx_ll_bus.h ****   *         @arg @ref LL_ACLKNC
 512:STM32Cube_FW_N6/Drivers/STM32N6xx_HAL_Driver/Inc/stm32n6xx_ll_bus.h ****   *         @arg @ref LL_AHBM
 513:STM32Cube_FW_N6/Drivers/STM32N6xx_HAL_Driver/Inc/stm32n6xx_ll_bus.h ****   *         @arg @ref LL_AHB1
 514:STM32Cube_FW_N6/Drivers/STM32N6xx_HAL_Driver/Inc/stm32n6xx_ll_bus.h ****   *         @arg @ref LL_AHB2
 515:STM32Cube_FW_N6/Drivers/STM32N6xx_HAL_Driver/Inc/stm32n6xx_ll_bus.h ****   *         @arg @ref LL_AHB3
 516:STM32Cube_FW_N6/Drivers/STM32N6xx_HAL_Driver/Inc/stm32n6xx_ll_bus.h ****   *         @arg @ref LL_AHB4
 517:STM32Cube_FW_N6/Drivers/STM32N6xx_HAL_Driver/Inc/stm32n6xx_ll_bus.h ****   *         @arg @ref LL_AHB5
 518:STM32Cube_FW_N6/Drivers/STM32N6xx_HAL_Driver/Inc/stm32n6xx_ll_bus.h ****   *         @arg @ref LL_APB1
 519:STM32Cube_FW_N6/Drivers/STM32N6xx_HAL_Driver/Inc/stm32n6xx_ll_bus.h ****   *         @arg @ref LL_APB2
 520:STM32Cube_FW_N6/Drivers/STM32N6xx_HAL_Driver/Inc/stm32n6xx_ll_bus.h ****   *         @arg @ref LL_APB3
 521:STM32Cube_FW_N6/Drivers/STM32N6xx_HAL_Driver/Inc/stm32n6xx_ll_bus.h ****   *         @arg @ref LL_APB4
 522:STM32Cube_FW_N6/Drivers/STM32N6xx_HAL_Driver/Inc/stm32n6xx_ll_bus.h ****   *         @arg @ref LL_APB5
 523:STM32Cube_FW_N6/Drivers/STM32N6xx_HAL_Driver/Inc/stm32n6xx_ll_bus.h ****   * @retval None
 524:STM32Cube_FW_N6/Drivers/STM32N6xx_HAL_Driver/Inc/stm32n6xx_ll_bus.h ****   */
 525:STM32Cube_FW_N6/Drivers/STM32N6xx_HAL_Driver/Inc/stm32n6xx_ll_bus.h **** __STATIC_INLINE void LL_BUS_DisableClock(uint32_t Bus)
 526:STM32Cube_FW_N6/Drivers/STM32N6xx_HAL_Driver/Inc/stm32n6xx_ll_bus.h **** {
 527:STM32Cube_FW_N6/Drivers/STM32N6xx_HAL_Driver/Inc/stm32n6xx_ll_bus.h ****   WRITE_REG(RCC->BUSENCR, Bus);
 528:STM32Cube_FW_N6/Drivers/STM32N6xx_HAL_Driver/Inc/stm32n6xx_ll_bus.h **** }
 529:STM32Cube_FW_N6/Drivers/STM32N6xx_HAL_Driver/Inc/stm32n6xx_ll_bus.h **** 
 530:STM32Cube_FW_N6/Drivers/STM32N6xx_HAL_Driver/Inc/stm32n6xx_ll_bus.h **** /**
 531:STM32Cube_FW_N6/Drivers/STM32N6xx_HAL_Driver/Inc/stm32n6xx_ll_bus.h ****   * @brief  Enable AXI bus clock during Low Power mode.
 532:STM32Cube_FW_N6/Drivers/STM32N6xx_HAL_Driver/Inc/stm32n6xx_ll_bus.h ****   * @rmtoll BUSLPENSR    ACLKNLPENS    LL_BUS_EnableClockLowPower\n
 533:STM32Cube_FW_N6/Drivers/STM32N6xx_HAL_Driver/Inc/stm32n6xx_ll_bus.h ****   *         BUSLPENSR    ACLKNCLPENS   LL_BUS_EnableClockLowPower\n
 534:STM32Cube_FW_N6/Drivers/STM32N6xx_HAL_Driver/Inc/stm32n6xx_ll_bus.h ****   *         BUSLPENSR    AHBMLPENS     LL_BUS_EnableClockLowPower\n
 535:STM32Cube_FW_N6/Drivers/STM32N6xx_HAL_Driver/Inc/stm32n6xx_ll_bus.h ****   *         BUSLPENSR    AHB1LPENS     LL_BUS_EnableClockLowPower\n
 536:STM32Cube_FW_N6/Drivers/STM32N6xx_HAL_Driver/Inc/stm32n6xx_ll_bus.h ****   *         BUSLPENSR    AHB2LPENS     LL_BUS_EnableClockLowPower\n
 537:STM32Cube_FW_N6/Drivers/STM32N6xx_HAL_Driver/Inc/stm32n6xx_ll_bus.h ****   *         BUSLPENSR    AHB3LPENS     LL_BUS_EnableClockLowPower\n
 538:STM32Cube_FW_N6/Drivers/STM32N6xx_HAL_Driver/Inc/stm32n6xx_ll_bus.h ****   *         BUSLPENSR    AHB4LPENS     LL_BUS_EnableClockLowPower\n
 539:STM32Cube_FW_N6/Drivers/STM32N6xx_HAL_Driver/Inc/stm32n6xx_ll_bus.h ****   *         BUSLPENSR    AHB5LPENS     LL_BUS_EnableClockLowPower\n
 540:STM32Cube_FW_N6/Drivers/STM32N6xx_HAL_Driver/Inc/stm32n6xx_ll_bus.h ****   *         BUSLPENSR    APB1LPENS     LL_BUS_EnableClockLowPower\n
 541:STM32Cube_FW_N6/Drivers/STM32N6xx_HAL_Driver/Inc/stm32n6xx_ll_bus.h ****   *         BUSLPENSR    APB2LPENS     LL_BUS_EnableClockLowPower\n
 542:STM32Cube_FW_N6/Drivers/STM32N6xx_HAL_Driver/Inc/stm32n6xx_ll_bus.h ****   *         BUSLPENSR    APB3LPENS     LL_BUS_EnableClockLowPower\n
 543:STM32Cube_FW_N6/Drivers/STM32N6xx_HAL_Driver/Inc/stm32n6xx_ll_bus.h ****   *         BUSLPENSR    APB4LPENS     LL_BUS_EnableClockLowPower\n
 544:STM32Cube_FW_N6/Drivers/STM32N6xx_HAL_Driver/Inc/stm32n6xx_ll_bus.h ****   *         BUSLPENSR    APB5LPENS     LL_BUS_EnableClockLowPower
 545:STM32Cube_FW_N6/Drivers/STM32N6xx_HAL_Driver/Inc/stm32n6xx_ll_bus.h ****   * @param  Bus This parameter can be a combination of the following values:
 546:STM32Cube_FW_N6/Drivers/STM32N6xx_HAL_Driver/Inc/stm32n6xx_ll_bus.h ****   *         @arg @ref LL_ACLKN
 547:STM32Cube_FW_N6/Drivers/STM32N6xx_HAL_Driver/Inc/stm32n6xx_ll_bus.h ****   *         @arg @ref LL_ACLKNC
 548:STM32Cube_FW_N6/Drivers/STM32N6xx_HAL_Driver/Inc/stm32n6xx_ll_bus.h ****   *         @arg @ref LL_AHBM
 549:STM32Cube_FW_N6/Drivers/STM32N6xx_HAL_Driver/Inc/stm32n6xx_ll_bus.h ****   *         @arg @ref LL_AHB1
 550:STM32Cube_FW_N6/Drivers/STM32N6xx_HAL_Driver/Inc/stm32n6xx_ll_bus.h ****   *         @arg @ref LL_AHB2
 551:STM32Cube_FW_N6/Drivers/STM32N6xx_HAL_Driver/Inc/stm32n6xx_ll_bus.h ****   *         @arg @ref LL_AHB3
 552:STM32Cube_FW_N6/Drivers/STM32N6xx_HAL_Driver/Inc/stm32n6xx_ll_bus.h ****   *         @arg @ref LL_AHB4
 553:STM32Cube_FW_N6/Drivers/STM32N6xx_HAL_Driver/Inc/stm32n6xx_ll_bus.h ****   *         @arg @ref LL_AHB5
ARM GAS  C:\Users\DJESSOU\AppData\Local\Temp\cc3dm0Vf.s 			page 81


 554:STM32Cube_FW_N6/Drivers/STM32N6xx_HAL_Driver/Inc/stm32n6xx_ll_bus.h ****   *         @arg @ref LL_APB1
 555:STM32Cube_FW_N6/Drivers/STM32N6xx_HAL_Driver/Inc/stm32n6xx_ll_bus.h ****   *         @arg @ref LL_APB2
 556:STM32Cube_FW_N6/Drivers/STM32N6xx_HAL_Driver/Inc/stm32n6xx_ll_bus.h ****   *         @arg @ref LL_APB3
 557:STM32Cube_FW_N6/Drivers/STM32N6xx_HAL_Driver/Inc/stm32n6xx_ll_bus.h ****   *         @arg @ref LL_APB4
 558:STM32Cube_FW_N6/Drivers/STM32N6xx_HAL_Driver/Inc/stm32n6xx_ll_bus.h ****   *         @arg @ref LL_APB5
 559:STM32Cube_FW_N6/Drivers/STM32N6xx_HAL_Driver/Inc/stm32n6xx_ll_bus.h ****   * @retval None
 560:STM32Cube_FW_N6/Drivers/STM32N6xx_HAL_Driver/Inc/stm32n6xx_ll_bus.h ****   */
 561:STM32Cube_FW_N6/Drivers/STM32N6xx_HAL_Driver/Inc/stm32n6xx_ll_bus.h **** __STATIC_INLINE void LL_BUS_EnableClockLowPower(uint32_t Bus)
 562:STM32Cube_FW_N6/Drivers/STM32N6xx_HAL_Driver/Inc/stm32n6xx_ll_bus.h **** {
 563:STM32Cube_FW_N6/Drivers/STM32N6xx_HAL_Driver/Inc/stm32n6xx_ll_bus.h ****   __IO uint32_t tmpreg;
 564:STM32Cube_FW_N6/Drivers/STM32N6xx_HAL_Driver/Inc/stm32n6xx_ll_bus.h ****   WRITE_REG(RCC->BUSLPENSR, Bus);
 565:STM32Cube_FW_N6/Drivers/STM32N6xx_HAL_Driver/Inc/stm32n6xx_ll_bus.h ****   /* Delay after an RCC bus clock enabling */
 566:STM32Cube_FW_N6/Drivers/STM32N6xx_HAL_Driver/Inc/stm32n6xx_ll_bus.h ****   tmpreg = READ_REG(RCC->BUSLPENR);
 567:STM32Cube_FW_N6/Drivers/STM32N6xx_HAL_Driver/Inc/stm32n6xx_ll_bus.h ****   (void)tmpreg;
 568:STM32Cube_FW_N6/Drivers/STM32N6xx_HAL_Driver/Inc/stm32n6xx_ll_bus.h **** }
 569:STM32Cube_FW_N6/Drivers/STM32N6xx_HAL_Driver/Inc/stm32n6xx_ll_bus.h **** 
 570:STM32Cube_FW_N6/Drivers/STM32N6xx_HAL_Driver/Inc/stm32n6xx_ll_bus.h **** /**
 571:STM32Cube_FW_N6/Drivers/STM32N6xx_HAL_Driver/Inc/stm32n6xx_ll_bus.h ****   * @brief  Check if AXI bus clock during Low Power mode is enabled or not
 572:STM32Cube_FW_N6/Drivers/STM32N6xx_HAL_Driver/Inc/stm32n6xx_ll_bus.h ****   * @rmtoll BUSLPENR       ACLKNLPEN       LL_BUS_IsEnabledClockLowPower\n
 573:STM32Cube_FW_N6/Drivers/STM32N6xx_HAL_Driver/Inc/stm32n6xx_ll_bus.h ****   *         BUSLPENR       ACLKNCLPEN      LL_BUS_IsEnabledClockLowPower\n
 574:STM32Cube_FW_N6/Drivers/STM32N6xx_HAL_Driver/Inc/stm32n6xx_ll_bus.h ****   *         BUSLPENR       AHBMLPEN        LL_BUS_IsEnabledClockLowPower\n
 575:STM32Cube_FW_N6/Drivers/STM32N6xx_HAL_Driver/Inc/stm32n6xx_ll_bus.h ****   *         BUSLPENR       AHB1LPEN        LL_BUS_IsEnabledClockLowPower\n
 576:STM32Cube_FW_N6/Drivers/STM32N6xx_HAL_Driver/Inc/stm32n6xx_ll_bus.h ****   *         BUSLPENR       AHB2LPEN        LL_BUS_IsEnabledClockLowPower\n
 577:STM32Cube_FW_N6/Drivers/STM32N6xx_HAL_Driver/Inc/stm32n6xx_ll_bus.h ****   *         BUSLPENR       AHB3LPEN        LL_BUS_IsEnabledClockLowPower\n
 578:STM32Cube_FW_N6/Drivers/STM32N6xx_HAL_Driver/Inc/stm32n6xx_ll_bus.h ****   *         BUSLPENR       AHB4LPEN        LL_BUS_IsEnabledClockLowPower\n
 579:STM32Cube_FW_N6/Drivers/STM32N6xx_HAL_Driver/Inc/stm32n6xx_ll_bus.h ****   *         BUSLPENR       AHB5LPEN        LL_BUS_IsEnabledClockLowPower\n
 580:STM32Cube_FW_N6/Drivers/STM32N6xx_HAL_Driver/Inc/stm32n6xx_ll_bus.h ****   *         BUSLPENR       APB1LPEN        LL_BUS_IsEnabledClockLowPower\n
 581:STM32Cube_FW_N6/Drivers/STM32N6xx_HAL_Driver/Inc/stm32n6xx_ll_bus.h ****   *         BUSLPENR       APB2LPEN        LL_BUS_IsEnabledClockLowPower\n
 582:STM32Cube_FW_N6/Drivers/STM32N6xx_HAL_Driver/Inc/stm32n6xx_ll_bus.h ****   *         BUSLPENR       APB3LPEN        LL_BUS_IsEnabledClockLowPower\n
 583:STM32Cube_FW_N6/Drivers/STM32N6xx_HAL_Driver/Inc/stm32n6xx_ll_bus.h ****   *         BUSLPENR       APB4LPEN        LL_BUS_IsEnabledClockLowPower\n
 584:STM32Cube_FW_N6/Drivers/STM32N6xx_HAL_Driver/Inc/stm32n6xx_ll_bus.h ****   *         BUSLPENR       APB5LPEN        LL_BUS_IsEnabledClockLowPower
 585:STM32Cube_FW_N6/Drivers/STM32N6xx_HAL_Driver/Inc/stm32n6xx_ll_bus.h ****   * @param  Bus This parameter can be a combination of the following values:
 586:STM32Cube_FW_N6/Drivers/STM32N6xx_HAL_Driver/Inc/stm32n6xx_ll_bus.h ****   *         @arg @ref LL_ACLKN
 587:STM32Cube_FW_N6/Drivers/STM32N6xx_HAL_Driver/Inc/stm32n6xx_ll_bus.h ****   *         @arg @ref LL_ACLKNC
 588:STM32Cube_FW_N6/Drivers/STM32N6xx_HAL_Driver/Inc/stm32n6xx_ll_bus.h ****   *         @arg @ref LL_AHBM
 589:STM32Cube_FW_N6/Drivers/STM32N6xx_HAL_Driver/Inc/stm32n6xx_ll_bus.h ****   *         @arg @ref LL_AHB1
 590:STM32Cube_FW_N6/Drivers/STM32N6xx_HAL_Driver/Inc/stm32n6xx_ll_bus.h ****   *         @arg @ref LL_AHB2
 591:STM32Cube_FW_N6/Drivers/STM32N6xx_HAL_Driver/Inc/stm32n6xx_ll_bus.h ****   *         @arg @ref LL_AHB3
 592:STM32Cube_FW_N6/Drivers/STM32N6xx_HAL_Driver/Inc/stm32n6xx_ll_bus.h ****   *         @arg @ref LL_AHB4
 593:STM32Cube_FW_N6/Drivers/STM32N6xx_HAL_Driver/Inc/stm32n6xx_ll_bus.h ****   *         @arg @ref LL_AHB5
 594:STM32Cube_FW_N6/Drivers/STM32N6xx_HAL_Driver/Inc/stm32n6xx_ll_bus.h ****   *         @arg @ref LL_APB1
 595:STM32Cube_FW_N6/Drivers/STM32N6xx_HAL_Driver/Inc/stm32n6xx_ll_bus.h ****   *         @arg @ref LL_APB2
 596:STM32Cube_FW_N6/Drivers/STM32N6xx_HAL_Driver/Inc/stm32n6xx_ll_bus.h ****   *         @arg @ref LL_APB3
 597:STM32Cube_FW_N6/Drivers/STM32N6xx_HAL_Driver/Inc/stm32n6xx_ll_bus.h ****   *         @arg @ref LL_APB4
 598:STM32Cube_FW_N6/Drivers/STM32N6xx_HAL_Driver/Inc/stm32n6xx_ll_bus.h ****   *         @arg @ref LL_APB5
 599:STM32Cube_FW_N6/Drivers/STM32N6xx_HAL_Driver/Inc/stm32n6xx_ll_bus.h ****   * @retval uint32_t
 600:STM32Cube_FW_N6/Drivers/STM32N6xx_HAL_Driver/Inc/stm32n6xx_ll_bus.h ****   */
 601:STM32Cube_FW_N6/Drivers/STM32N6xx_HAL_Driver/Inc/stm32n6xx_ll_bus.h **** __STATIC_INLINE uint32_t LL_BUS_IsEnabledClockLowPower(uint32_t Bus)
 602:STM32Cube_FW_N6/Drivers/STM32N6xx_HAL_Driver/Inc/stm32n6xx_ll_bus.h **** {
 603:STM32Cube_FW_N6/Drivers/STM32N6xx_HAL_Driver/Inc/stm32n6xx_ll_bus.h ****   return ((READ_BIT(RCC->BUSLPENR, Bus) == Bus) ? 1UL : 0UL);
 604:STM32Cube_FW_N6/Drivers/STM32N6xx_HAL_Driver/Inc/stm32n6xx_ll_bus.h **** }
 605:STM32Cube_FW_N6/Drivers/STM32N6xx_HAL_Driver/Inc/stm32n6xx_ll_bus.h **** 
 606:STM32Cube_FW_N6/Drivers/STM32N6xx_HAL_Driver/Inc/stm32n6xx_ll_bus.h **** /**
 607:STM32Cube_FW_N6/Drivers/STM32N6xx_HAL_Driver/Inc/stm32n6xx_ll_bus.h ****   * @brief  Disable AXI bus clock during Low Power mode.
 608:STM32Cube_FW_N6/Drivers/STM32N6xx_HAL_Driver/Inc/stm32n6xx_ll_bus.h ****   * @rmtoll BUSLPENCR    ACLKNLPENC    LL_BUS_DisableClockLowPower\n
 609:STM32Cube_FW_N6/Drivers/STM32N6xx_HAL_Driver/Inc/stm32n6xx_ll_bus.h ****   *         BUSLPENCR    ACLKNCLPENC   LL_BUS_DisableClockLowPower\n
 610:STM32Cube_FW_N6/Drivers/STM32N6xx_HAL_Driver/Inc/stm32n6xx_ll_bus.h ****   *         BUSLPENCR    AHBMLPENC     LL_BUS_DisableClockLowPower\n
ARM GAS  C:\Users\DJESSOU\AppData\Local\Temp\cc3dm0Vf.s 			page 82


 611:STM32Cube_FW_N6/Drivers/STM32N6xx_HAL_Driver/Inc/stm32n6xx_ll_bus.h ****   *         BUSLPENCR    AHB1LPENC     LL_BUS_DisableClockLowPower\n
 612:STM32Cube_FW_N6/Drivers/STM32N6xx_HAL_Driver/Inc/stm32n6xx_ll_bus.h ****   *         BUSLPENCR    AHB2LPENC     LL_BUS_DisableClockLowPower\n
 613:STM32Cube_FW_N6/Drivers/STM32N6xx_HAL_Driver/Inc/stm32n6xx_ll_bus.h ****   *         BUSLPENCR    AHB3LPENC     LL_BUS_DisableClockLowPower\n
 614:STM32Cube_FW_N6/Drivers/STM32N6xx_HAL_Driver/Inc/stm32n6xx_ll_bus.h ****   *         BUSLPENCR    AHB4LPENC     LL_BUS_DisableClockLowPower\n
 615:STM32Cube_FW_N6/Drivers/STM32N6xx_HAL_Driver/Inc/stm32n6xx_ll_bus.h ****   *         BUSLPENCR    AHB5LPENC     LL_BUS_DisableClockLowPower\n
 616:STM32Cube_FW_N6/Drivers/STM32N6xx_HAL_Driver/Inc/stm32n6xx_ll_bus.h ****   *         BUSLPENCR    APB1LPENC     LL_BUS_DisableClockLowPower\n
 617:STM32Cube_FW_N6/Drivers/STM32N6xx_HAL_Driver/Inc/stm32n6xx_ll_bus.h ****   *         BUSLPENCR    APB2LPENC     LL_BUS_DisableClockLowPower\n
 618:STM32Cube_FW_N6/Drivers/STM32N6xx_HAL_Driver/Inc/stm32n6xx_ll_bus.h ****   *         BUSLPENCR    APB3LPENC     LL_BUS_DisableClockLowPower\n
 619:STM32Cube_FW_N6/Drivers/STM32N6xx_HAL_Driver/Inc/stm32n6xx_ll_bus.h ****   *         BUSLPENCR    APB4LPENC     LL_BUS_DisableClockLowPower\n
 620:STM32Cube_FW_N6/Drivers/STM32N6xx_HAL_Driver/Inc/stm32n6xx_ll_bus.h ****   *         BUSLPENCR    APB5LPENC     LL_BUS_DisableClockLowPower
 621:STM32Cube_FW_N6/Drivers/STM32N6xx_HAL_Driver/Inc/stm32n6xx_ll_bus.h ****   * @param  Bus This parameter can be a combination of the following values:
 622:STM32Cube_FW_N6/Drivers/STM32N6xx_HAL_Driver/Inc/stm32n6xx_ll_bus.h ****   *         @arg @ref LL_ACLKN
 623:STM32Cube_FW_N6/Drivers/STM32N6xx_HAL_Driver/Inc/stm32n6xx_ll_bus.h ****   *         @arg @ref LL_ACLKNC
 624:STM32Cube_FW_N6/Drivers/STM32N6xx_HAL_Driver/Inc/stm32n6xx_ll_bus.h ****   *         @arg @ref LL_AHBM
 625:STM32Cube_FW_N6/Drivers/STM32N6xx_HAL_Driver/Inc/stm32n6xx_ll_bus.h ****   *         @arg @ref LL_AHB1
 626:STM32Cube_FW_N6/Drivers/STM32N6xx_HAL_Driver/Inc/stm32n6xx_ll_bus.h ****   *         @arg @ref LL_AHB2
 627:STM32Cube_FW_N6/Drivers/STM32N6xx_HAL_Driver/Inc/stm32n6xx_ll_bus.h ****   *         @arg @ref LL_AHB3
 628:STM32Cube_FW_N6/Drivers/STM32N6xx_HAL_Driver/Inc/stm32n6xx_ll_bus.h ****   *         @arg @ref LL_AHB4
 629:STM32Cube_FW_N6/Drivers/STM32N6xx_HAL_Driver/Inc/stm32n6xx_ll_bus.h ****   *         @arg @ref LL_AHB5
 630:STM32Cube_FW_N6/Drivers/STM32N6xx_HAL_Driver/Inc/stm32n6xx_ll_bus.h ****   *         @arg @ref LL_APB1
 631:STM32Cube_FW_N6/Drivers/STM32N6xx_HAL_Driver/Inc/stm32n6xx_ll_bus.h ****   *         @arg @ref LL_APB2
 632:STM32Cube_FW_N6/Drivers/STM32N6xx_HAL_Driver/Inc/stm32n6xx_ll_bus.h ****   *         @arg @ref LL_APB3
 633:STM32Cube_FW_N6/Drivers/STM32N6xx_HAL_Driver/Inc/stm32n6xx_ll_bus.h ****   *         @arg @ref LL_APB4
 634:STM32Cube_FW_N6/Drivers/STM32N6xx_HAL_Driver/Inc/stm32n6xx_ll_bus.h ****   *         @arg @ref LL_APB5
 635:STM32Cube_FW_N6/Drivers/STM32N6xx_HAL_Driver/Inc/stm32n6xx_ll_bus.h ****   * @retval None
 636:STM32Cube_FW_N6/Drivers/STM32N6xx_HAL_Driver/Inc/stm32n6xx_ll_bus.h ****   */
 637:STM32Cube_FW_N6/Drivers/STM32N6xx_HAL_Driver/Inc/stm32n6xx_ll_bus.h **** __STATIC_INLINE void LL_BUS_DisableClockLowPower(uint32_t Bus)
 638:STM32Cube_FW_N6/Drivers/STM32N6xx_HAL_Driver/Inc/stm32n6xx_ll_bus.h **** {
 639:STM32Cube_FW_N6/Drivers/STM32N6xx_HAL_Driver/Inc/stm32n6xx_ll_bus.h ****   WRITE_REG(RCC->BUSLPENCR, Bus);
 640:STM32Cube_FW_N6/Drivers/STM32N6xx_HAL_Driver/Inc/stm32n6xx_ll_bus.h **** }
 641:STM32Cube_FW_N6/Drivers/STM32N6xx_HAL_Driver/Inc/stm32n6xx_ll_bus.h **** 
 642:STM32Cube_FW_N6/Drivers/STM32N6xx_HAL_Driver/Inc/stm32n6xx_ll_bus.h **** /**
 643:STM32Cube_FW_N6/Drivers/STM32N6xx_HAL_Driver/Inc/stm32n6xx_ll_bus.h ****   * @}
 644:STM32Cube_FW_N6/Drivers/STM32N6xx_HAL_Driver/Inc/stm32n6xx_ll_bus.h ****   */
 645:STM32Cube_FW_N6/Drivers/STM32N6xx_HAL_Driver/Inc/stm32n6xx_ll_bus.h **** 
 646:STM32Cube_FW_N6/Drivers/STM32N6xx_HAL_Driver/Inc/stm32n6xx_ll_bus.h **** /** @defgroup BUS_LL_EF_MEM MEM
 647:STM32Cube_FW_N6/Drivers/STM32N6xx_HAL_Driver/Inc/stm32n6xx_ll_bus.h ****   * @{
 648:STM32Cube_FW_N6/Drivers/STM32N6xx_HAL_Driver/Inc/stm32n6xx_ll_bus.h ****   */
 649:STM32Cube_FW_N6/Drivers/STM32N6xx_HAL_Driver/Inc/stm32n6xx_ll_bus.h **** 
 650:STM32Cube_FW_N6/Drivers/STM32N6xx_HAL_Driver/Inc/stm32n6xx_ll_bus.h **** /**
 651:STM32Cube_FW_N6/Drivers/STM32N6xx_HAL_Driver/Inc/stm32n6xx_ll_bus.h ****   * @brief  Enable memories clock.
 652:STM32Cube_FW_N6/Drivers/STM32N6xx_HAL_Driver/Inc/stm32n6xx_ll_bus.h ****   * @rmtoll MEMENSR      AXISRAM1ENS   LL_MEM_EnableClock\n
 653:STM32Cube_FW_N6/Drivers/STM32N6xx_HAL_Driver/Inc/stm32n6xx_ll_bus.h ****   *         MEMENSR      AXISRAM2ENS   LL_MEM_EnableClock\n
 654:STM32Cube_FW_N6/Drivers/STM32N6xx_HAL_Driver/Inc/stm32n6xx_ll_bus.h ****   *         MEMENSR      AXISRAM3ENS   LL_MEM_EnableClock\n
 655:STM32Cube_FW_N6/Drivers/STM32N6xx_HAL_Driver/Inc/stm32n6xx_ll_bus.h ****   *         MEMENSR      AXISRAM4ENS   LL_MEM_EnableClock\n
 656:STM32Cube_FW_N6/Drivers/STM32N6xx_HAL_Driver/Inc/stm32n6xx_ll_bus.h ****   *         MEMENSR      AXISRAM5ENS   LL_MEM_EnableClock\n
 657:STM32Cube_FW_N6/Drivers/STM32N6xx_HAL_Driver/Inc/stm32n6xx_ll_bus.h ****   *         MEMENSR      AXISRAM6ENS   LL_MEM_EnableClock\n
 658:STM32Cube_FW_N6/Drivers/STM32N6xx_HAL_Driver/Inc/stm32n6xx_ll_bus.h ****   *         MEMENSR      AHBSRAM1ENS   LL_MEM_EnableClock\n
 659:STM32Cube_FW_N6/Drivers/STM32N6xx_HAL_Driver/Inc/stm32n6xx_ll_bus.h ****   *         MEMENSR      AHBSRAM2ENS   LL_MEM_EnableClock\n
 660:STM32Cube_FW_N6/Drivers/STM32N6xx_HAL_Driver/Inc/stm32n6xx_ll_bus.h ****   *         MEMENSR      BKPSRAMENS    LL_MEM_EnableClock\n
 661:STM32Cube_FW_N6/Drivers/STM32N6xx_HAL_Driver/Inc/stm32n6xx_ll_bus.h ****   *         MEMENSR      FLEXRAMENS    LL_MEM_EnableClock\n
 662:STM32Cube_FW_N6/Drivers/STM32N6xx_HAL_Driver/Inc/stm32n6xx_ll_bus.h ****   *         MEMENSR      CACHEAXIRAMENS LL_MEM_EnableClock\n
 663:STM32Cube_FW_N6/Drivers/STM32N6xx_HAL_Driver/Inc/stm32n6xx_ll_bus.h ****   *         MEMENSR      VENCRAMENS    LL_MEM_EnableClock
 664:STM32Cube_FW_N6/Drivers/STM32N6xx_HAL_Driver/Inc/stm32n6xx_ll_bus.h ****   * @param  Memories This parameter can be a combination of the following values:
 665:STM32Cube_FW_N6/Drivers/STM32N6xx_HAL_Driver/Inc/stm32n6xx_ll_bus.h ****   *         @arg @ref LL_MEM_AXISRAM1
 666:STM32Cube_FW_N6/Drivers/STM32N6xx_HAL_Driver/Inc/stm32n6xx_ll_bus.h ****   *         @arg @ref LL_MEM_AXISRAM2
 667:STM32Cube_FW_N6/Drivers/STM32N6xx_HAL_Driver/Inc/stm32n6xx_ll_bus.h ****   *         @arg @ref LL_MEM_AXISRAM3
ARM GAS  C:\Users\DJESSOU\AppData\Local\Temp\cc3dm0Vf.s 			page 83


 668:STM32Cube_FW_N6/Drivers/STM32N6xx_HAL_Driver/Inc/stm32n6xx_ll_bus.h ****   *         @arg @ref LL_MEM_AXISRAM4
 669:STM32Cube_FW_N6/Drivers/STM32N6xx_HAL_Driver/Inc/stm32n6xx_ll_bus.h ****   *         @arg @ref LL_MEM_AXISRAM5
 670:STM32Cube_FW_N6/Drivers/STM32N6xx_HAL_Driver/Inc/stm32n6xx_ll_bus.h ****   *         @arg @ref LL_MEM_AXISRAM6
 671:STM32Cube_FW_N6/Drivers/STM32N6xx_HAL_Driver/Inc/stm32n6xx_ll_bus.h ****   *         @arg @ref LL_MEM_AHBSRAM1
 672:STM32Cube_FW_N6/Drivers/STM32N6xx_HAL_Driver/Inc/stm32n6xx_ll_bus.h ****   *         @arg @ref LL_MEM_AHBSRAM2
 673:STM32Cube_FW_N6/Drivers/STM32N6xx_HAL_Driver/Inc/stm32n6xx_ll_bus.h ****   *         @arg @ref LL_MEM_BKPSRAM
 674:STM32Cube_FW_N6/Drivers/STM32N6xx_HAL_Driver/Inc/stm32n6xx_ll_bus.h ****   *         @arg @ref LL_MEM_FLEXRAM
 675:STM32Cube_FW_N6/Drivers/STM32N6xx_HAL_Driver/Inc/stm32n6xx_ll_bus.h ****   *         @arg @ref LL_MEM_CACHEAXIRAM
 676:STM32Cube_FW_N6/Drivers/STM32N6xx_HAL_Driver/Inc/stm32n6xx_ll_bus.h ****   *         @arg @ref LL_MEM_VENCRAM
 677:STM32Cube_FW_N6/Drivers/STM32N6xx_HAL_Driver/Inc/stm32n6xx_ll_bus.h ****   * @retval None
 678:STM32Cube_FW_N6/Drivers/STM32N6xx_HAL_Driver/Inc/stm32n6xx_ll_bus.h ****   */
 679:STM32Cube_FW_N6/Drivers/STM32N6xx_HAL_Driver/Inc/stm32n6xx_ll_bus.h **** __STATIC_INLINE void LL_MEM_EnableClock(uint32_t Memories)
 680:STM32Cube_FW_N6/Drivers/STM32N6xx_HAL_Driver/Inc/stm32n6xx_ll_bus.h **** {
 681:STM32Cube_FW_N6/Drivers/STM32N6xx_HAL_Driver/Inc/stm32n6xx_ll_bus.h ****   __IO uint32_t tmpreg;
 682:STM32Cube_FW_N6/Drivers/STM32N6xx_HAL_Driver/Inc/stm32n6xx_ll_bus.h ****   WRITE_REG(RCC->MEMENSR, Memories);
 683:STM32Cube_FW_N6/Drivers/STM32N6xx_HAL_Driver/Inc/stm32n6xx_ll_bus.h ****   /* Delay after an RCC memories clock enabling */
 684:STM32Cube_FW_N6/Drivers/STM32N6xx_HAL_Driver/Inc/stm32n6xx_ll_bus.h ****   tmpreg = READ_REG(RCC->MEMENR);
 685:STM32Cube_FW_N6/Drivers/STM32N6xx_HAL_Driver/Inc/stm32n6xx_ll_bus.h ****   (void)tmpreg;
 686:STM32Cube_FW_N6/Drivers/STM32N6xx_HAL_Driver/Inc/stm32n6xx_ll_bus.h **** }
 687:STM32Cube_FW_N6/Drivers/STM32N6xx_HAL_Driver/Inc/stm32n6xx_ll_bus.h **** 
 688:STM32Cube_FW_N6/Drivers/STM32N6xx_HAL_Driver/Inc/stm32n6xx_ll_bus.h **** /**
 689:STM32Cube_FW_N6/Drivers/STM32N6xx_HAL_Driver/Inc/stm32n6xx_ll_bus.h ****   * @brief  Check if memory clock is enabled or not
 690:STM32Cube_FW_N6/Drivers/STM32N6xx_HAL_Driver/Inc/stm32n6xx_ll_bus.h ****   * @rmtoll MEMENR       AXISRAM1EN    LL_MEM_IsEnabledClock\n
 691:STM32Cube_FW_N6/Drivers/STM32N6xx_HAL_Driver/Inc/stm32n6xx_ll_bus.h ****   *         MEMENR       AXISRAM2EN    LL_MEM_IsEnabledClock\n
 692:STM32Cube_FW_N6/Drivers/STM32N6xx_HAL_Driver/Inc/stm32n6xx_ll_bus.h ****   *         MEMENR       AXISRAM3EN    LL_MEM_IsEnabledClock\n
 693:STM32Cube_FW_N6/Drivers/STM32N6xx_HAL_Driver/Inc/stm32n6xx_ll_bus.h ****   *         MEMENR       AXISRAM4EN    LL_MEM_IsEnabledClock\n
 694:STM32Cube_FW_N6/Drivers/STM32N6xx_HAL_Driver/Inc/stm32n6xx_ll_bus.h ****   *         MEMENR       AXISRAM5EN    LL_MEM_IsEnabledClock\n
 695:STM32Cube_FW_N6/Drivers/STM32N6xx_HAL_Driver/Inc/stm32n6xx_ll_bus.h ****   *         MEMENR       AXISRAM6EN    LL_MEM_IsEnabledClock\n
 696:STM32Cube_FW_N6/Drivers/STM32N6xx_HAL_Driver/Inc/stm32n6xx_ll_bus.h ****   *         MEMENR       AHBSRAM1EN    LL_MEM_IsEnabledClock\n
 697:STM32Cube_FW_N6/Drivers/STM32N6xx_HAL_Driver/Inc/stm32n6xx_ll_bus.h ****   *         MEMENR       AHBSRAM2EN    LL_MEM_IsEnabledClock\n
 698:STM32Cube_FW_N6/Drivers/STM32N6xx_HAL_Driver/Inc/stm32n6xx_ll_bus.h ****   *         MEMENR       BKPSRAMEN     LL_MEM_IsEnabledClock\n
 699:STM32Cube_FW_N6/Drivers/STM32N6xx_HAL_Driver/Inc/stm32n6xx_ll_bus.h ****   *         MEMENR       FLEXRAMEN     LL_MEM_IsEnabledClock\n
 700:STM32Cube_FW_N6/Drivers/STM32N6xx_HAL_Driver/Inc/stm32n6xx_ll_bus.h ****   *         MEMENR       CACHEAXIRAMEN LL_MEM_IsEnabledClock\n
 701:STM32Cube_FW_N6/Drivers/STM32N6xx_HAL_Driver/Inc/stm32n6xx_ll_bus.h ****   *         MEMENR       VENCRAMEN     LL_MEM_IsEnabledClock
 702:STM32Cube_FW_N6/Drivers/STM32N6xx_HAL_Driver/Inc/stm32n6xx_ll_bus.h ****   * @param  Memories This parameter can be a combination of the following values:
 703:STM32Cube_FW_N6/Drivers/STM32N6xx_HAL_Driver/Inc/stm32n6xx_ll_bus.h ****   *         @arg @ref LL_MEM_AXISRAM1
 704:STM32Cube_FW_N6/Drivers/STM32N6xx_HAL_Driver/Inc/stm32n6xx_ll_bus.h ****   *         @arg @ref LL_MEM_AXISRAM2
 705:STM32Cube_FW_N6/Drivers/STM32N6xx_HAL_Driver/Inc/stm32n6xx_ll_bus.h ****   *         @arg @ref LL_MEM_AXISRAM3
 706:STM32Cube_FW_N6/Drivers/STM32N6xx_HAL_Driver/Inc/stm32n6xx_ll_bus.h ****   *         @arg @ref LL_MEM_AXISRAM4
 707:STM32Cube_FW_N6/Drivers/STM32N6xx_HAL_Driver/Inc/stm32n6xx_ll_bus.h ****   *         @arg @ref LL_MEM_AXISRAM5
 708:STM32Cube_FW_N6/Drivers/STM32N6xx_HAL_Driver/Inc/stm32n6xx_ll_bus.h ****   *         @arg @ref LL_MEM_AXISRAM6
 709:STM32Cube_FW_N6/Drivers/STM32N6xx_HAL_Driver/Inc/stm32n6xx_ll_bus.h ****   *         @arg @ref LL_MEM_AHBSRAM1
 710:STM32Cube_FW_N6/Drivers/STM32N6xx_HAL_Driver/Inc/stm32n6xx_ll_bus.h ****   *         @arg @ref LL_MEM_AHBSRAM2
 711:STM32Cube_FW_N6/Drivers/STM32N6xx_HAL_Driver/Inc/stm32n6xx_ll_bus.h ****   *         @arg @ref LL_MEM_BKPSRAM
 712:STM32Cube_FW_N6/Drivers/STM32N6xx_HAL_Driver/Inc/stm32n6xx_ll_bus.h ****   *         @arg @ref LL_MEM_FLEXRAM
 713:STM32Cube_FW_N6/Drivers/STM32N6xx_HAL_Driver/Inc/stm32n6xx_ll_bus.h ****   *         @arg @ref LL_MEM_CACHEAXIRAM
 714:STM32Cube_FW_N6/Drivers/STM32N6xx_HAL_Driver/Inc/stm32n6xx_ll_bus.h ****   *         @arg @ref LL_MEM_VENCRAM
 715:STM32Cube_FW_N6/Drivers/STM32N6xx_HAL_Driver/Inc/stm32n6xx_ll_bus.h ****   * @retval uint32_t
 716:STM32Cube_FW_N6/Drivers/STM32N6xx_HAL_Driver/Inc/stm32n6xx_ll_bus.h ****   */
 717:STM32Cube_FW_N6/Drivers/STM32N6xx_HAL_Driver/Inc/stm32n6xx_ll_bus.h **** __STATIC_INLINE uint32_t LL_MEM_IsEnabledClock(uint32_t Memories)
 718:STM32Cube_FW_N6/Drivers/STM32N6xx_HAL_Driver/Inc/stm32n6xx_ll_bus.h **** {
 719:STM32Cube_FW_N6/Drivers/STM32N6xx_HAL_Driver/Inc/stm32n6xx_ll_bus.h ****   return ((READ_BIT(RCC->MEMENR, Memories) == Memories) ? 1UL : 0UL);
 720:STM32Cube_FW_N6/Drivers/STM32N6xx_HAL_Driver/Inc/stm32n6xx_ll_bus.h **** }
 721:STM32Cube_FW_N6/Drivers/STM32N6xx_HAL_Driver/Inc/stm32n6xx_ll_bus.h **** 
 722:STM32Cube_FW_N6/Drivers/STM32N6xx_HAL_Driver/Inc/stm32n6xx_ll_bus.h **** /**
 723:STM32Cube_FW_N6/Drivers/STM32N6xx_HAL_Driver/Inc/stm32n6xx_ll_bus.h ****   * @brief  Disable memories clock.
 724:STM32Cube_FW_N6/Drivers/STM32N6xx_HAL_Driver/Inc/stm32n6xx_ll_bus.h ****   * @rmtoll MEMENCR      AXISRAM1ENC   LL_MEM_DisableClock\n
ARM GAS  C:\Users\DJESSOU\AppData\Local\Temp\cc3dm0Vf.s 			page 84


 725:STM32Cube_FW_N6/Drivers/STM32N6xx_HAL_Driver/Inc/stm32n6xx_ll_bus.h ****   *         MEMENCR      AXISRAM2ENC   LL_MEM_DisableClock\n
 726:STM32Cube_FW_N6/Drivers/STM32N6xx_HAL_Driver/Inc/stm32n6xx_ll_bus.h ****   *         MEMENCR      AXISRAM3ENC   LL_MEM_DisableClock\n
 727:STM32Cube_FW_N6/Drivers/STM32N6xx_HAL_Driver/Inc/stm32n6xx_ll_bus.h ****   *         MEMENCR      AXISRAM4ENC   LL_MEM_DisableClock\n
 728:STM32Cube_FW_N6/Drivers/STM32N6xx_HAL_Driver/Inc/stm32n6xx_ll_bus.h ****   *         MEMENCR      AXISRAM5ENC   LL_MEM_DisableClock\n
 729:STM32Cube_FW_N6/Drivers/STM32N6xx_HAL_Driver/Inc/stm32n6xx_ll_bus.h ****   *         MEMENCR      AXISRAM6ENC   LL_MEM_DisableClock\n
 730:STM32Cube_FW_N6/Drivers/STM32N6xx_HAL_Driver/Inc/stm32n6xx_ll_bus.h ****   *         MEMENCR      AHBSRAM1ENC   LL_MEM_DisableClock\n
 731:STM32Cube_FW_N6/Drivers/STM32N6xx_HAL_Driver/Inc/stm32n6xx_ll_bus.h ****   *         MEMENCR      AHBSRAM2ENC   LL_MEM_DisableClock\n
 732:STM32Cube_FW_N6/Drivers/STM32N6xx_HAL_Driver/Inc/stm32n6xx_ll_bus.h ****   *         MEMENCR      BKPSRAMENC    LL_MEM_DisableClock\n
 733:STM32Cube_FW_N6/Drivers/STM32N6xx_HAL_Driver/Inc/stm32n6xx_ll_bus.h ****   *         MEMENCR      FLEXRAMENC    LL_MEM_DisableClock\n
 734:STM32Cube_FW_N6/Drivers/STM32N6xx_HAL_Driver/Inc/stm32n6xx_ll_bus.h ****   *         MEMENCR      CACHEAXIRAMENC LL_MEM_DisableClock\n
 735:STM32Cube_FW_N6/Drivers/STM32N6xx_HAL_Driver/Inc/stm32n6xx_ll_bus.h ****   *         MEMENCR      VENCRAMENC    LL_MEM_DisableClock
 736:STM32Cube_FW_N6/Drivers/STM32N6xx_HAL_Driver/Inc/stm32n6xx_ll_bus.h ****   * @param  Memories This parameter can be a combination of the following values:
 737:STM32Cube_FW_N6/Drivers/STM32N6xx_HAL_Driver/Inc/stm32n6xx_ll_bus.h ****   *         @arg @ref LL_MEM_AXISRAM1
 738:STM32Cube_FW_N6/Drivers/STM32N6xx_HAL_Driver/Inc/stm32n6xx_ll_bus.h ****   *         @arg @ref LL_MEM_AXISRAM2
 739:STM32Cube_FW_N6/Drivers/STM32N6xx_HAL_Driver/Inc/stm32n6xx_ll_bus.h ****   *         @arg @ref LL_MEM_AXISRAM3
 740:STM32Cube_FW_N6/Drivers/STM32N6xx_HAL_Driver/Inc/stm32n6xx_ll_bus.h ****   *         @arg @ref LL_MEM_AXISRAM4
 741:STM32Cube_FW_N6/Drivers/STM32N6xx_HAL_Driver/Inc/stm32n6xx_ll_bus.h ****   *         @arg @ref LL_MEM_AXISRAM5
 742:STM32Cube_FW_N6/Drivers/STM32N6xx_HAL_Driver/Inc/stm32n6xx_ll_bus.h ****   *         @arg @ref LL_MEM_AXISRAM6
 743:STM32Cube_FW_N6/Drivers/STM32N6xx_HAL_Driver/Inc/stm32n6xx_ll_bus.h ****   *         @arg @ref LL_MEM_AHBSRAM1
 744:STM32Cube_FW_N6/Drivers/STM32N6xx_HAL_Driver/Inc/stm32n6xx_ll_bus.h ****   *         @arg @ref LL_MEM_AHBSRAM2
 745:STM32Cube_FW_N6/Drivers/STM32N6xx_HAL_Driver/Inc/stm32n6xx_ll_bus.h ****   *         @arg @ref LL_MEM_BKPSRAM
 746:STM32Cube_FW_N6/Drivers/STM32N6xx_HAL_Driver/Inc/stm32n6xx_ll_bus.h ****   *         @arg @ref LL_MEM_FLEXRAM
 747:STM32Cube_FW_N6/Drivers/STM32N6xx_HAL_Driver/Inc/stm32n6xx_ll_bus.h ****   *         @arg @ref LL_MEM_CACHEAXIRAM
 748:STM32Cube_FW_N6/Drivers/STM32N6xx_HAL_Driver/Inc/stm32n6xx_ll_bus.h ****   *         @arg @ref LL_MEM_VENCRAM
 749:STM32Cube_FW_N6/Drivers/STM32N6xx_HAL_Driver/Inc/stm32n6xx_ll_bus.h ****   * @retval None
 750:STM32Cube_FW_N6/Drivers/STM32N6xx_HAL_Driver/Inc/stm32n6xx_ll_bus.h ****   */
 751:STM32Cube_FW_N6/Drivers/STM32N6xx_HAL_Driver/Inc/stm32n6xx_ll_bus.h **** __STATIC_INLINE void LL_MEM_DisableClock(uint32_t Memories)
 752:STM32Cube_FW_N6/Drivers/STM32N6xx_HAL_Driver/Inc/stm32n6xx_ll_bus.h **** {
 753:STM32Cube_FW_N6/Drivers/STM32N6xx_HAL_Driver/Inc/stm32n6xx_ll_bus.h ****   WRITE_REG(RCC->MEMENCR, Memories);
 754:STM32Cube_FW_N6/Drivers/STM32N6xx_HAL_Driver/Inc/stm32n6xx_ll_bus.h **** }
 755:STM32Cube_FW_N6/Drivers/STM32N6xx_HAL_Driver/Inc/stm32n6xx_ll_bus.h **** 
 756:STM32Cube_FW_N6/Drivers/STM32N6xx_HAL_Driver/Inc/stm32n6xx_ll_bus.h **** /**
 757:STM32Cube_FW_N6/Drivers/STM32N6xx_HAL_Driver/Inc/stm32n6xx_ll_bus.h ****   * @brief  Enable memories clock during Low Power mode.
 758:STM32Cube_FW_N6/Drivers/STM32N6xx_HAL_Driver/Inc/stm32n6xx_ll_bus.h ****   * @rmtoll MEMLPENSR    AXISRAM1LPENS LL_MEM_EnableClockLowPower\n
 759:STM32Cube_FW_N6/Drivers/STM32N6xx_HAL_Driver/Inc/stm32n6xx_ll_bus.h ****   *         MEMLPENSR    AXISRAM2LPENS LL_MEM_EnableClockLowPower\n
 760:STM32Cube_FW_N6/Drivers/STM32N6xx_HAL_Driver/Inc/stm32n6xx_ll_bus.h ****   *         MEMLPENSR    AXISRAM3LPENS LL_MEM_EnableClockLowPower\n
 761:STM32Cube_FW_N6/Drivers/STM32N6xx_HAL_Driver/Inc/stm32n6xx_ll_bus.h ****   *         MEMLPENSR    AXISRAM4LPENS LL_MEM_EnableClockLowPower\n
 762:STM32Cube_FW_N6/Drivers/STM32N6xx_HAL_Driver/Inc/stm32n6xx_ll_bus.h ****   *         MEMLPENSR    AXISRAM5LPENS LL_MEM_EnableClockLowPower\n
 763:STM32Cube_FW_N6/Drivers/STM32N6xx_HAL_Driver/Inc/stm32n6xx_ll_bus.h ****   *         MEMLPENSR    AXISRAM6LPENS LL_MEM_EnableClockLowPower\n
 764:STM32Cube_FW_N6/Drivers/STM32N6xx_HAL_Driver/Inc/stm32n6xx_ll_bus.h ****   *         MEMLPENSR    AHBSRAM1LPENS LL_MEM_EnableClockLowPower\n
 765:STM32Cube_FW_N6/Drivers/STM32N6xx_HAL_Driver/Inc/stm32n6xx_ll_bus.h ****   *         MEMLPENSR    AHBSRAM2LPENS LL_MEM_EnableClockLowPower\n
 766:STM32Cube_FW_N6/Drivers/STM32N6xx_HAL_Driver/Inc/stm32n6xx_ll_bus.h ****   *         MEMLPENSR    BKPSRAMLPENS  LL_MEM_EnableClockLowPower\n
 767:STM32Cube_FW_N6/Drivers/STM32N6xx_HAL_Driver/Inc/stm32n6xx_ll_bus.h ****   *         MEMLPENSR    FLEXRAMLPENS  LL_MEM_EnableClockLowPower\n
 768:STM32Cube_FW_N6/Drivers/STM32N6xx_HAL_Driver/Inc/stm32n6xx_ll_bus.h ****   *         MEMLPENSR    CACHEAXIRAMLPENS LL_MEM_EnableClockLowPower\n
 769:STM32Cube_FW_N6/Drivers/STM32N6xx_HAL_Driver/Inc/stm32n6xx_ll_bus.h ****   *         MEMLPENSR    VENCRAMLPENS  LL_MEM_EnableClockLowPower
 770:STM32Cube_FW_N6/Drivers/STM32N6xx_HAL_Driver/Inc/stm32n6xx_ll_bus.h ****   * @param  Memories This parameter can be a combination of the following values:
 771:STM32Cube_FW_N6/Drivers/STM32N6xx_HAL_Driver/Inc/stm32n6xx_ll_bus.h ****   *         @arg @ref LL_MEM_AXISRAM1
 772:STM32Cube_FW_N6/Drivers/STM32N6xx_HAL_Driver/Inc/stm32n6xx_ll_bus.h ****   *         @arg @ref LL_MEM_AXISRAM2
 773:STM32Cube_FW_N6/Drivers/STM32N6xx_HAL_Driver/Inc/stm32n6xx_ll_bus.h ****   *         @arg @ref LL_MEM_AXISRAM3
 774:STM32Cube_FW_N6/Drivers/STM32N6xx_HAL_Driver/Inc/stm32n6xx_ll_bus.h ****   *         @arg @ref LL_MEM_AXISRAM4
 775:STM32Cube_FW_N6/Drivers/STM32N6xx_HAL_Driver/Inc/stm32n6xx_ll_bus.h ****   *         @arg @ref LL_MEM_AXISRAM5
 776:STM32Cube_FW_N6/Drivers/STM32N6xx_HAL_Driver/Inc/stm32n6xx_ll_bus.h ****   *         @arg @ref LL_MEM_AXISRAM6
 777:STM32Cube_FW_N6/Drivers/STM32N6xx_HAL_Driver/Inc/stm32n6xx_ll_bus.h ****   *         @arg @ref LL_MEM_AHBSRAM1
 778:STM32Cube_FW_N6/Drivers/STM32N6xx_HAL_Driver/Inc/stm32n6xx_ll_bus.h ****   *         @arg @ref LL_MEM_AHBSRAM2
 779:STM32Cube_FW_N6/Drivers/STM32N6xx_HAL_Driver/Inc/stm32n6xx_ll_bus.h ****   *         @arg @ref LL_MEM_BKPSRAM
 780:STM32Cube_FW_N6/Drivers/STM32N6xx_HAL_Driver/Inc/stm32n6xx_ll_bus.h ****   *         @arg @ref LL_MEM_FLEXRAM
 781:STM32Cube_FW_N6/Drivers/STM32N6xx_HAL_Driver/Inc/stm32n6xx_ll_bus.h ****   *         @arg @ref LL_MEM_CACHEAXIRAM
ARM GAS  C:\Users\DJESSOU\AppData\Local\Temp\cc3dm0Vf.s 			page 85


 782:STM32Cube_FW_N6/Drivers/STM32N6xx_HAL_Driver/Inc/stm32n6xx_ll_bus.h ****   *         @arg @ref LL_MEM_VENCRAM
 783:STM32Cube_FW_N6/Drivers/STM32N6xx_HAL_Driver/Inc/stm32n6xx_ll_bus.h ****   * @retval None
 784:STM32Cube_FW_N6/Drivers/STM32N6xx_HAL_Driver/Inc/stm32n6xx_ll_bus.h ****   */
 785:STM32Cube_FW_N6/Drivers/STM32N6xx_HAL_Driver/Inc/stm32n6xx_ll_bus.h **** __STATIC_INLINE void LL_MEM_EnableClockLowPower(uint32_t Memories)
 786:STM32Cube_FW_N6/Drivers/STM32N6xx_HAL_Driver/Inc/stm32n6xx_ll_bus.h **** {
 787:STM32Cube_FW_N6/Drivers/STM32N6xx_HAL_Driver/Inc/stm32n6xx_ll_bus.h ****   __IO uint32_t tmpreg;
 788:STM32Cube_FW_N6/Drivers/STM32N6xx_HAL_Driver/Inc/stm32n6xx_ll_bus.h ****   WRITE_REG(RCC->MEMLPENSR, Memories);
 789:STM32Cube_FW_N6/Drivers/STM32N6xx_HAL_Driver/Inc/stm32n6xx_ll_bus.h ****   /* Delay after an RCC memories clock enabling */
 790:STM32Cube_FW_N6/Drivers/STM32N6xx_HAL_Driver/Inc/stm32n6xx_ll_bus.h ****   tmpreg = READ_REG(RCC->MEMLPENR);
 791:STM32Cube_FW_N6/Drivers/STM32N6xx_HAL_Driver/Inc/stm32n6xx_ll_bus.h ****   (void)tmpreg;
 792:STM32Cube_FW_N6/Drivers/STM32N6xx_HAL_Driver/Inc/stm32n6xx_ll_bus.h **** }
 793:STM32Cube_FW_N6/Drivers/STM32N6xx_HAL_Driver/Inc/stm32n6xx_ll_bus.h **** 
 794:STM32Cube_FW_N6/Drivers/STM32N6xx_HAL_Driver/Inc/stm32n6xx_ll_bus.h **** /**
 795:STM32Cube_FW_N6/Drivers/STM32N6xx_HAL_Driver/Inc/stm32n6xx_ll_bus.h ****   * @brief  Check if memories clock during Low Power mode is enabled or not .
 796:STM32Cube_FW_N6/Drivers/STM32N6xx_HAL_Driver/Inc/stm32n6xx_ll_bus.h ****   * @rmtoll MEMLPENR      AXISRAM1LPEN    LL_MEM_IsEnabledClockLowPower\n
 797:STM32Cube_FW_N6/Drivers/STM32N6xx_HAL_Driver/Inc/stm32n6xx_ll_bus.h ****   *         MEMLPENR      AXISRAM2LPEN    LL_MEM_IsEnabledClockLowPower\n
 798:STM32Cube_FW_N6/Drivers/STM32N6xx_HAL_Driver/Inc/stm32n6xx_ll_bus.h ****   *         MEMLPENR      AXISRAM3LPEN    LL_MEM_IsEnabledClockLowPower\n
 799:STM32Cube_FW_N6/Drivers/STM32N6xx_HAL_Driver/Inc/stm32n6xx_ll_bus.h ****   *         MEMLPENR      AXISRAM4LPEN    LL_MEM_IsEnabledClockLowPower\n
 800:STM32Cube_FW_N6/Drivers/STM32N6xx_HAL_Driver/Inc/stm32n6xx_ll_bus.h ****   *         MEMLPENR      AXISRAM5LPEN    LL_MEM_IsEnabledClockLowPower\n
 801:STM32Cube_FW_N6/Drivers/STM32N6xx_HAL_Driver/Inc/stm32n6xx_ll_bus.h ****   *         MEMLPENR      AXISRAM6LPEN    LL_MEM_IsEnabledClockLowPower\n
 802:STM32Cube_FW_N6/Drivers/STM32N6xx_HAL_Driver/Inc/stm32n6xx_ll_bus.h ****   *         MEMLPENR      AHBSRAM1LPEN    LL_MEM_IsEnabledClockLowPower\n
 803:STM32Cube_FW_N6/Drivers/STM32N6xx_HAL_Driver/Inc/stm32n6xx_ll_bus.h ****   *         MEMLPENR      AHBSRAM2LPEN    LL_MEM_IsEnabledClockLowPower\n
 804:STM32Cube_FW_N6/Drivers/STM32N6xx_HAL_Driver/Inc/stm32n6xx_ll_bus.h ****   *         MEMLPENR      BKPSRAMLPEN     LL_MEM_IsEnabledClockLowPower\n
 805:STM32Cube_FW_N6/Drivers/STM32N6xx_HAL_Driver/Inc/stm32n6xx_ll_bus.h ****   *         MEMLPENR      FLEXRAMLPEN     LL_MEM_IsEnabledClockLowPower\n
 806:STM32Cube_FW_N6/Drivers/STM32N6xx_HAL_Driver/Inc/stm32n6xx_ll_bus.h ****   *         MEMLPENR      CACHEAXIRAMLPEN LL_MEM_IsEnabledClockLowPower\n
 807:STM32Cube_FW_N6/Drivers/STM32N6xx_HAL_Driver/Inc/stm32n6xx_ll_bus.h ****   *         MEMLPENR      VENCRAMLPEN     LL_MEM_IsEnabledClockLowPower
 808:STM32Cube_FW_N6/Drivers/STM32N6xx_HAL_Driver/Inc/stm32n6xx_ll_bus.h ****   * @param  Memories This parameter can be a combination of the following values:
 809:STM32Cube_FW_N6/Drivers/STM32N6xx_HAL_Driver/Inc/stm32n6xx_ll_bus.h ****   *         @arg @ref LL_MEM_AXISRAM1
 810:STM32Cube_FW_N6/Drivers/STM32N6xx_HAL_Driver/Inc/stm32n6xx_ll_bus.h ****   *         @arg @ref LL_MEM_AXISRAM2
 811:STM32Cube_FW_N6/Drivers/STM32N6xx_HAL_Driver/Inc/stm32n6xx_ll_bus.h ****   *         @arg @ref LL_MEM_AXISRAM3
 812:STM32Cube_FW_N6/Drivers/STM32N6xx_HAL_Driver/Inc/stm32n6xx_ll_bus.h ****   *         @arg @ref LL_MEM_AXISRAM4
 813:STM32Cube_FW_N6/Drivers/STM32N6xx_HAL_Driver/Inc/stm32n6xx_ll_bus.h ****   *         @arg @ref LL_MEM_AXISRAM5
 814:STM32Cube_FW_N6/Drivers/STM32N6xx_HAL_Driver/Inc/stm32n6xx_ll_bus.h ****   *         @arg @ref LL_MEM_AXISRAM6
 815:STM32Cube_FW_N6/Drivers/STM32N6xx_HAL_Driver/Inc/stm32n6xx_ll_bus.h ****   *         @arg @ref LL_MEM_AHBSRAM1
 816:STM32Cube_FW_N6/Drivers/STM32N6xx_HAL_Driver/Inc/stm32n6xx_ll_bus.h ****   *         @arg @ref LL_MEM_AHBSRAM2
 817:STM32Cube_FW_N6/Drivers/STM32N6xx_HAL_Driver/Inc/stm32n6xx_ll_bus.h ****   *         @arg @ref LL_MEM_BKPSRAM
 818:STM32Cube_FW_N6/Drivers/STM32N6xx_HAL_Driver/Inc/stm32n6xx_ll_bus.h ****   *         @arg @ref LL_MEM_FLEXRAM
 819:STM32Cube_FW_N6/Drivers/STM32N6xx_HAL_Driver/Inc/stm32n6xx_ll_bus.h ****   *         @arg @ref LL_MEM_CACHEAXIRAM
 820:STM32Cube_FW_N6/Drivers/STM32N6xx_HAL_Driver/Inc/stm32n6xx_ll_bus.h ****   *         @arg @ref LL_MEM_VENCRAM
 821:STM32Cube_FW_N6/Drivers/STM32N6xx_HAL_Driver/Inc/stm32n6xx_ll_bus.h ****   * @retval None
 822:STM32Cube_FW_N6/Drivers/STM32N6xx_HAL_Driver/Inc/stm32n6xx_ll_bus.h ****   */
 823:STM32Cube_FW_N6/Drivers/STM32N6xx_HAL_Driver/Inc/stm32n6xx_ll_bus.h **** __STATIC_INLINE uint32_t LL_MEM_IsEnabledClockLowPower(uint32_t Memories)
 824:STM32Cube_FW_N6/Drivers/STM32N6xx_HAL_Driver/Inc/stm32n6xx_ll_bus.h **** {
 825:STM32Cube_FW_N6/Drivers/STM32N6xx_HAL_Driver/Inc/stm32n6xx_ll_bus.h ****   return ((READ_BIT(RCC->MEMLPENR, Memories) == Memories) ? 1UL : 0UL);
 826:STM32Cube_FW_N6/Drivers/STM32N6xx_HAL_Driver/Inc/stm32n6xx_ll_bus.h **** }
 827:STM32Cube_FW_N6/Drivers/STM32N6xx_HAL_Driver/Inc/stm32n6xx_ll_bus.h **** 
 828:STM32Cube_FW_N6/Drivers/STM32N6xx_HAL_Driver/Inc/stm32n6xx_ll_bus.h **** /**
 829:STM32Cube_FW_N6/Drivers/STM32N6xx_HAL_Driver/Inc/stm32n6xx_ll_bus.h ****   * @brief  Disable memories clock during Low Power mode.
 830:STM32Cube_FW_N6/Drivers/STM32N6xx_HAL_Driver/Inc/stm32n6xx_ll_bus.h ****   * @rmtoll MEMLPENCR    AXISRAM1LPENC LL_MEM_DisableClockLowPower\n
 831:STM32Cube_FW_N6/Drivers/STM32N6xx_HAL_Driver/Inc/stm32n6xx_ll_bus.h ****   *         MEMLPENCR    AXISRAM2LPENC LL_MEM_DisableClockLowPower\n
 832:STM32Cube_FW_N6/Drivers/STM32N6xx_HAL_Driver/Inc/stm32n6xx_ll_bus.h ****   *         MEMLPENCR    AXISRAM3LPENC LL_MEM_DisableClockLowPower\n
 833:STM32Cube_FW_N6/Drivers/STM32N6xx_HAL_Driver/Inc/stm32n6xx_ll_bus.h ****   *         MEMLPENCR    AXISRAM4LPENC LL_MEM_DisableClockLowPower\n
 834:STM32Cube_FW_N6/Drivers/STM32N6xx_HAL_Driver/Inc/stm32n6xx_ll_bus.h ****   *         MEMLPENCR    AXISRAM5LPENC LL_MEM_DisableClockLowPower\n
 835:STM32Cube_FW_N6/Drivers/STM32N6xx_HAL_Driver/Inc/stm32n6xx_ll_bus.h ****   *         MEMLPENCR    AXISRAM6LPENC LL_MEM_DisableClockLowPower\n
 836:STM32Cube_FW_N6/Drivers/STM32N6xx_HAL_Driver/Inc/stm32n6xx_ll_bus.h ****   *         MEMLPENCR    AHBSRAM1LPENC LL_MEM_DisableClockLowPower\n
 837:STM32Cube_FW_N6/Drivers/STM32N6xx_HAL_Driver/Inc/stm32n6xx_ll_bus.h ****   *         MEMLPENCR    AHBSRAM2LPENC LL_MEM_DisableClockLowPower\n
 838:STM32Cube_FW_N6/Drivers/STM32N6xx_HAL_Driver/Inc/stm32n6xx_ll_bus.h ****   *         MEMLPENCR    BKPSRAMLPENC  LL_MEM_DisableClockLowPower\n
ARM GAS  C:\Users\DJESSOU\AppData\Local\Temp\cc3dm0Vf.s 			page 86


 839:STM32Cube_FW_N6/Drivers/STM32N6xx_HAL_Driver/Inc/stm32n6xx_ll_bus.h ****   *         MEMLPENCR    FLEXRAMLPENC  LL_MEM_DisableClockLowPower\n
 840:STM32Cube_FW_N6/Drivers/STM32N6xx_HAL_Driver/Inc/stm32n6xx_ll_bus.h ****   *         MEMLPENCR    CACHEAXIRAMLPENC LL_MEM_DisableClockLowPower\n
 841:STM32Cube_FW_N6/Drivers/STM32N6xx_HAL_Driver/Inc/stm32n6xx_ll_bus.h ****   *         MEMLPENCR    VENCRAMLPENC  LL_MEM_DisableClockLowPower
 842:STM32Cube_FW_N6/Drivers/STM32N6xx_HAL_Driver/Inc/stm32n6xx_ll_bus.h ****   * @param  Memories This parameter can be a combination of the following values:
 843:STM32Cube_FW_N6/Drivers/STM32N6xx_HAL_Driver/Inc/stm32n6xx_ll_bus.h ****   *         @arg @ref LL_MEM_AXISRAM1
 844:STM32Cube_FW_N6/Drivers/STM32N6xx_HAL_Driver/Inc/stm32n6xx_ll_bus.h ****   *         @arg @ref LL_MEM_AXISRAM2
 845:STM32Cube_FW_N6/Drivers/STM32N6xx_HAL_Driver/Inc/stm32n6xx_ll_bus.h ****   *         @arg @ref LL_MEM_AXISRAM3
 846:STM32Cube_FW_N6/Drivers/STM32N6xx_HAL_Driver/Inc/stm32n6xx_ll_bus.h ****   *         @arg @ref LL_MEM_AXISRAM4
 847:STM32Cube_FW_N6/Drivers/STM32N6xx_HAL_Driver/Inc/stm32n6xx_ll_bus.h ****   *         @arg @ref LL_MEM_AXISRAM5
 848:STM32Cube_FW_N6/Drivers/STM32N6xx_HAL_Driver/Inc/stm32n6xx_ll_bus.h ****   *         @arg @ref LL_MEM_AXISRAM6
 849:STM32Cube_FW_N6/Drivers/STM32N6xx_HAL_Driver/Inc/stm32n6xx_ll_bus.h ****   *         @arg @ref LL_MEM_AHBSRAM1
 850:STM32Cube_FW_N6/Drivers/STM32N6xx_HAL_Driver/Inc/stm32n6xx_ll_bus.h ****   *         @arg @ref LL_MEM_AHBSRAM2
 851:STM32Cube_FW_N6/Drivers/STM32N6xx_HAL_Driver/Inc/stm32n6xx_ll_bus.h ****   *         @arg @ref LL_MEM_BKPSRAM
 852:STM32Cube_FW_N6/Drivers/STM32N6xx_HAL_Driver/Inc/stm32n6xx_ll_bus.h ****   *         @arg @ref LL_MEM_FLEXRAM
 853:STM32Cube_FW_N6/Drivers/STM32N6xx_HAL_Driver/Inc/stm32n6xx_ll_bus.h ****   *         @arg @ref LL_MEM_CACHEAXIRAM
 854:STM32Cube_FW_N6/Drivers/STM32N6xx_HAL_Driver/Inc/stm32n6xx_ll_bus.h ****   *         @arg @ref LL_MEM_VENCRAM
 855:STM32Cube_FW_N6/Drivers/STM32N6xx_HAL_Driver/Inc/stm32n6xx_ll_bus.h ****   * @retval None
 856:STM32Cube_FW_N6/Drivers/STM32N6xx_HAL_Driver/Inc/stm32n6xx_ll_bus.h ****   */
 857:STM32Cube_FW_N6/Drivers/STM32N6xx_HAL_Driver/Inc/stm32n6xx_ll_bus.h **** __STATIC_INLINE void LL_MEM_DisableClockLowPower(uint32_t Memories)
 858:STM32Cube_FW_N6/Drivers/STM32N6xx_HAL_Driver/Inc/stm32n6xx_ll_bus.h **** {
 859:STM32Cube_FW_N6/Drivers/STM32N6xx_HAL_Driver/Inc/stm32n6xx_ll_bus.h ****   WRITE_REG(RCC->MEMLPENCR, Memories);
 860:STM32Cube_FW_N6/Drivers/STM32N6xx_HAL_Driver/Inc/stm32n6xx_ll_bus.h **** }
 861:STM32Cube_FW_N6/Drivers/STM32N6xx_HAL_Driver/Inc/stm32n6xx_ll_bus.h **** 
 862:STM32Cube_FW_N6/Drivers/STM32N6xx_HAL_Driver/Inc/stm32n6xx_ll_bus.h **** /**
 863:STM32Cube_FW_N6/Drivers/STM32N6xx_HAL_Driver/Inc/stm32n6xx_ll_bus.h ****   * @}
 864:STM32Cube_FW_N6/Drivers/STM32N6xx_HAL_Driver/Inc/stm32n6xx_ll_bus.h ****   */
 865:STM32Cube_FW_N6/Drivers/STM32N6xx_HAL_Driver/Inc/stm32n6xx_ll_bus.h **** 
 866:STM32Cube_FW_N6/Drivers/STM32N6xx_HAL_Driver/Inc/stm32n6xx_ll_bus.h **** /** @defgroup BUS_LL_EF_AHB1 AHB1
 867:STM32Cube_FW_N6/Drivers/STM32N6xx_HAL_Driver/Inc/stm32n6xx_ll_bus.h ****   * @{
 868:STM32Cube_FW_N6/Drivers/STM32N6xx_HAL_Driver/Inc/stm32n6xx_ll_bus.h ****   */
 869:STM32Cube_FW_N6/Drivers/STM32N6xx_HAL_Driver/Inc/stm32n6xx_ll_bus.h **** 
 870:STM32Cube_FW_N6/Drivers/STM32N6xx_HAL_Driver/Inc/stm32n6xx_ll_bus.h **** /**
 871:STM32Cube_FW_N6/Drivers/STM32N6xx_HAL_Driver/Inc/stm32n6xx_ll_bus.h ****   * @brief  Enable AHB1 peripherals clock.
 872:STM32Cube_FW_N6/Drivers/STM32N6xx_HAL_Driver/Inc/stm32n6xx_ll_bus.h ****   * @rmtoll AHB1ENSR     GPDMA1ENS     LL_AHB1_GRP1_EnableClock\n
 873:STM32Cube_FW_N6/Drivers/STM32N6xx_HAL_Driver/Inc/stm32n6xx_ll_bus.h ****   *         AHB1ENSR     ADC12ENS      LL_AHB1_GRP1_EnableClock
 874:STM32Cube_FW_N6/Drivers/STM32N6xx_HAL_Driver/Inc/stm32n6xx_ll_bus.h ****   * @param  Periphs This parameter can be a combination of the following values:
 875:STM32Cube_FW_N6/Drivers/STM32N6xx_HAL_Driver/Inc/stm32n6xx_ll_bus.h ****   *         @arg @ref LL_AHB1_GRP1_PERIPH_GPDMA1
 876:STM32Cube_FW_N6/Drivers/STM32N6xx_HAL_Driver/Inc/stm32n6xx_ll_bus.h ****   *         @arg @ref LL_AHB1_GRP1_PERIPH_ADC12
 877:STM32Cube_FW_N6/Drivers/STM32N6xx_HAL_Driver/Inc/stm32n6xx_ll_bus.h ****   * @retval None
 878:STM32Cube_FW_N6/Drivers/STM32N6xx_HAL_Driver/Inc/stm32n6xx_ll_bus.h ****   */
 879:STM32Cube_FW_N6/Drivers/STM32N6xx_HAL_Driver/Inc/stm32n6xx_ll_bus.h **** __STATIC_INLINE void LL_AHB1_GRP1_EnableClock(uint32_t Periphs)
 880:STM32Cube_FW_N6/Drivers/STM32N6xx_HAL_Driver/Inc/stm32n6xx_ll_bus.h **** {
 881:STM32Cube_FW_N6/Drivers/STM32N6xx_HAL_Driver/Inc/stm32n6xx_ll_bus.h ****   __IO uint32_t tmpreg;
 882:STM32Cube_FW_N6/Drivers/STM32N6xx_HAL_Driver/Inc/stm32n6xx_ll_bus.h ****   WRITE_REG(RCC->AHB1ENSR, Periphs);
 883:STM32Cube_FW_N6/Drivers/STM32N6xx_HAL_Driver/Inc/stm32n6xx_ll_bus.h ****   /* Delay after an RCC peripheral clock enabling */
 884:STM32Cube_FW_N6/Drivers/STM32N6xx_HAL_Driver/Inc/stm32n6xx_ll_bus.h ****   tmpreg = READ_REG(RCC->AHB1ENR);
 885:STM32Cube_FW_N6/Drivers/STM32N6xx_HAL_Driver/Inc/stm32n6xx_ll_bus.h ****   (void)tmpreg;
 886:STM32Cube_FW_N6/Drivers/STM32N6xx_HAL_Driver/Inc/stm32n6xx_ll_bus.h **** }
 887:STM32Cube_FW_N6/Drivers/STM32N6xx_HAL_Driver/Inc/stm32n6xx_ll_bus.h **** 
 888:STM32Cube_FW_N6/Drivers/STM32N6xx_HAL_Driver/Inc/stm32n6xx_ll_bus.h **** /**
 889:STM32Cube_FW_N6/Drivers/STM32N6xx_HAL_Driver/Inc/stm32n6xx_ll_bus.h ****   * @brief  Check if AHB1 peripheral clock is enabled or not
 890:STM32Cube_FW_N6/Drivers/STM32N6xx_HAL_Driver/Inc/stm32n6xx_ll_bus.h ****   * @rmtoll AHB1ENR      GPDMA1EN      LL_AHB1_GRP1_IsEnabledClock\n
 891:STM32Cube_FW_N6/Drivers/STM32N6xx_HAL_Driver/Inc/stm32n6xx_ll_bus.h ****   *         AHB1ENR      ADC12EN       LL_AHB1_GRP1_IsEnabledClock
 892:STM32Cube_FW_N6/Drivers/STM32N6xx_HAL_Driver/Inc/stm32n6xx_ll_bus.h ****   * @param  Periphs This parameter can be a combination of the following values:
 893:STM32Cube_FW_N6/Drivers/STM32N6xx_HAL_Driver/Inc/stm32n6xx_ll_bus.h ****   *         @arg @ref LL_AHB1_GRP1_PERIPH_GPDMA1
 894:STM32Cube_FW_N6/Drivers/STM32N6xx_HAL_Driver/Inc/stm32n6xx_ll_bus.h ****   *         @arg @ref LL_AHB1_GRP1_PERIPH_ADC12
 895:STM32Cube_FW_N6/Drivers/STM32N6xx_HAL_Driver/Inc/stm32n6xx_ll_bus.h ****   * @retval uint32_t
ARM GAS  C:\Users\DJESSOU\AppData\Local\Temp\cc3dm0Vf.s 			page 87


 896:STM32Cube_FW_N6/Drivers/STM32N6xx_HAL_Driver/Inc/stm32n6xx_ll_bus.h ****   */
 897:STM32Cube_FW_N6/Drivers/STM32N6xx_HAL_Driver/Inc/stm32n6xx_ll_bus.h **** __STATIC_INLINE uint32_t LL_AHB1_GRP1_IsEnabledClock(uint32_t Periphs)
 898:STM32Cube_FW_N6/Drivers/STM32N6xx_HAL_Driver/Inc/stm32n6xx_ll_bus.h **** {
 899:STM32Cube_FW_N6/Drivers/STM32N6xx_HAL_Driver/Inc/stm32n6xx_ll_bus.h ****   return ((READ_BIT(RCC->AHB1ENR, Periphs) == Periphs) ? 1UL : 0UL);
 900:STM32Cube_FW_N6/Drivers/STM32N6xx_HAL_Driver/Inc/stm32n6xx_ll_bus.h **** }
 901:STM32Cube_FW_N6/Drivers/STM32N6xx_HAL_Driver/Inc/stm32n6xx_ll_bus.h **** 
 902:STM32Cube_FW_N6/Drivers/STM32N6xx_HAL_Driver/Inc/stm32n6xx_ll_bus.h **** /**
 903:STM32Cube_FW_N6/Drivers/STM32N6xx_HAL_Driver/Inc/stm32n6xx_ll_bus.h ****   * @brief  Disable AHB1 peripherals clock.
 904:STM32Cube_FW_N6/Drivers/STM32N6xx_HAL_Driver/Inc/stm32n6xx_ll_bus.h ****   * @rmtoll AHB1ENCR     GPDMA1ENC     LL_AHB1_GRP1_DisableClock\n
 905:STM32Cube_FW_N6/Drivers/STM32N6xx_HAL_Driver/Inc/stm32n6xx_ll_bus.h ****   *         AHB1ENCR     ADC12ENC      LL_AHB1_GRP1_DisableClock
 906:STM32Cube_FW_N6/Drivers/STM32N6xx_HAL_Driver/Inc/stm32n6xx_ll_bus.h ****   * @param  Periphs This parameter can be a combination of the following values:
 907:STM32Cube_FW_N6/Drivers/STM32N6xx_HAL_Driver/Inc/stm32n6xx_ll_bus.h ****   *         @arg @ref LL_AHB1_GRP1_PERIPH_GPDMA1
 908:STM32Cube_FW_N6/Drivers/STM32N6xx_HAL_Driver/Inc/stm32n6xx_ll_bus.h ****   *         @arg @ref LL_AHB1_GRP1_PERIPH_ADC12
 909:STM32Cube_FW_N6/Drivers/STM32N6xx_HAL_Driver/Inc/stm32n6xx_ll_bus.h ****   * @retval None
 910:STM32Cube_FW_N6/Drivers/STM32N6xx_HAL_Driver/Inc/stm32n6xx_ll_bus.h ****   */
 911:STM32Cube_FW_N6/Drivers/STM32N6xx_HAL_Driver/Inc/stm32n6xx_ll_bus.h **** __STATIC_INLINE void LL_AHB1_GRP1_DisableClock(uint32_t Periphs)
 912:STM32Cube_FW_N6/Drivers/STM32N6xx_HAL_Driver/Inc/stm32n6xx_ll_bus.h **** {
 913:STM32Cube_FW_N6/Drivers/STM32N6xx_HAL_Driver/Inc/stm32n6xx_ll_bus.h ****   WRITE_REG(RCC->AHB1ENCR, Periphs);
 914:STM32Cube_FW_N6/Drivers/STM32N6xx_HAL_Driver/Inc/stm32n6xx_ll_bus.h **** }
 915:STM32Cube_FW_N6/Drivers/STM32N6xx_HAL_Driver/Inc/stm32n6xx_ll_bus.h **** 
 916:STM32Cube_FW_N6/Drivers/STM32N6xx_HAL_Driver/Inc/stm32n6xx_ll_bus.h **** /**
 917:STM32Cube_FW_N6/Drivers/STM32N6xx_HAL_Driver/Inc/stm32n6xx_ll_bus.h ****   * @brief  Force AHB1 peripherals reset.
 918:STM32Cube_FW_N6/Drivers/STM32N6xx_HAL_Driver/Inc/stm32n6xx_ll_bus.h ****   * @rmtoll AHB1RSTSR    GPDMA1RSTS    LL_AHB1_GRP1_ForceReset\n
 919:STM32Cube_FW_N6/Drivers/STM32N6xx_HAL_Driver/Inc/stm32n6xx_ll_bus.h ****   *         AHB1RSTSR    ADC12RSTS     LL_AHB1_GRP1_ForceReset
 920:STM32Cube_FW_N6/Drivers/STM32N6xx_HAL_Driver/Inc/stm32n6xx_ll_bus.h ****   * @param  Periphs This parameter can be a combination of the following values:
 921:STM32Cube_FW_N6/Drivers/STM32N6xx_HAL_Driver/Inc/stm32n6xx_ll_bus.h ****   *         @arg @ref LL_AHB1_GRP1_PERIPH_GPDMA1
 922:STM32Cube_FW_N6/Drivers/STM32N6xx_HAL_Driver/Inc/stm32n6xx_ll_bus.h ****   *         @arg @ref LL_AHB1_GRP1_PERIPH_ADC12
 923:STM32Cube_FW_N6/Drivers/STM32N6xx_HAL_Driver/Inc/stm32n6xx_ll_bus.h ****   * @retval None
 924:STM32Cube_FW_N6/Drivers/STM32N6xx_HAL_Driver/Inc/stm32n6xx_ll_bus.h ****   */
 925:STM32Cube_FW_N6/Drivers/STM32N6xx_HAL_Driver/Inc/stm32n6xx_ll_bus.h **** __STATIC_INLINE void LL_AHB1_GRP1_ForceReset(uint32_t Periphs)
 926:STM32Cube_FW_N6/Drivers/STM32N6xx_HAL_Driver/Inc/stm32n6xx_ll_bus.h **** {
 927:STM32Cube_FW_N6/Drivers/STM32N6xx_HAL_Driver/Inc/stm32n6xx_ll_bus.h ****   WRITE_REG(RCC->AHB1RSTSR, Periphs);
 928:STM32Cube_FW_N6/Drivers/STM32N6xx_HAL_Driver/Inc/stm32n6xx_ll_bus.h **** }
 929:STM32Cube_FW_N6/Drivers/STM32N6xx_HAL_Driver/Inc/stm32n6xx_ll_bus.h **** 
 930:STM32Cube_FW_N6/Drivers/STM32N6xx_HAL_Driver/Inc/stm32n6xx_ll_bus.h **** /**
 931:STM32Cube_FW_N6/Drivers/STM32N6xx_HAL_Driver/Inc/stm32n6xx_ll_bus.h ****   * @brief  Release AHB1 peripherals reset.
 932:STM32Cube_FW_N6/Drivers/STM32N6xx_HAL_Driver/Inc/stm32n6xx_ll_bus.h ****   * @rmtoll AHB1RSTCR    GPDMA1RSTC    LL_AHB1_GRP1_ReleaseReset\n
 933:STM32Cube_FW_N6/Drivers/STM32N6xx_HAL_Driver/Inc/stm32n6xx_ll_bus.h ****   *         AHB1RSTCR    ADC12RSTC     LL_AHB1_GRP1_ReleaseReset
 934:STM32Cube_FW_N6/Drivers/STM32N6xx_HAL_Driver/Inc/stm32n6xx_ll_bus.h ****   * @param  Periphs This parameter can be a combination of the following values:
 935:STM32Cube_FW_N6/Drivers/STM32N6xx_HAL_Driver/Inc/stm32n6xx_ll_bus.h ****   *         @arg @ref LL_AHB1_GRP1_PERIPH_GPDMA1
 936:STM32Cube_FW_N6/Drivers/STM32N6xx_HAL_Driver/Inc/stm32n6xx_ll_bus.h ****   *         @arg @ref LL_AHB1_GRP1_PERIPH_ADC12
 937:STM32Cube_FW_N6/Drivers/STM32N6xx_HAL_Driver/Inc/stm32n6xx_ll_bus.h ****   * @retval None
 938:STM32Cube_FW_N6/Drivers/STM32N6xx_HAL_Driver/Inc/stm32n6xx_ll_bus.h ****   */
 939:STM32Cube_FW_N6/Drivers/STM32N6xx_HAL_Driver/Inc/stm32n6xx_ll_bus.h **** __STATIC_INLINE void LL_AHB1_GRP1_ReleaseReset(uint32_t Periphs)
 940:STM32Cube_FW_N6/Drivers/STM32N6xx_HAL_Driver/Inc/stm32n6xx_ll_bus.h **** {
 941:STM32Cube_FW_N6/Drivers/STM32N6xx_HAL_Driver/Inc/stm32n6xx_ll_bus.h ****   WRITE_REG(RCC->AHB1RSTCR, Periphs);
 942:STM32Cube_FW_N6/Drivers/STM32N6xx_HAL_Driver/Inc/stm32n6xx_ll_bus.h **** }
 943:STM32Cube_FW_N6/Drivers/STM32N6xx_HAL_Driver/Inc/stm32n6xx_ll_bus.h **** 
 944:STM32Cube_FW_N6/Drivers/STM32N6xx_HAL_Driver/Inc/stm32n6xx_ll_bus.h **** /**
 945:STM32Cube_FW_N6/Drivers/STM32N6xx_HAL_Driver/Inc/stm32n6xx_ll_bus.h ****   * @brief  Enable AHB1 peripherals clock during Low Power mode.
 946:STM32Cube_FW_N6/Drivers/STM32N6xx_HAL_Driver/Inc/stm32n6xx_ll_bus.h ****   * @rmtoll AHB1LPENSR   GPDMA1LPENS   LL_AHB1_GRP1_EnableClockLowPower\n
 947:STM32Cube_FW_N6/Drivers/STM32N6xx_HAL_Driver/Inc/stm32n6xx_ll_bus.h ****   *         AHB1LPENSR   ADC12LPENS    LL_AHB1_GRP1_EnableClockLowPower
 948:STM32Cube_FW_N6/Drivers/STM32N6xx_HAL_Driver/Inc/stm32n6xx_ll_bus.h ****   * @param  Periphs This parameter can be a combination of the following values:
 949:STM32Cube_FW_N6/Drivers/STM32N6xx_HAL_Driver/Inc/stm32n6xx_ll_bus.h ****   *         @arg @ref LL_AHB1_GRP1_PERIPH_GPDMA1
 950:STM32Cube_FW_N6/Drivers/STM32N6xx_HAL_Driver/Inc/stm32n6xx_ll_bus.h ****   *         @arg @ref LL_AHB1_GRP1_PERIPH_ADC12
 951:STM32Cube_FW_N6/Drivers/STM32N6xx_HAL_Driver/Inc/stm32n6xx_ll_bus.h ****   * @retval None
 952:STM32Cube_FW_N6/Drivers/STM32N6xx_HAL_Driver/Inc/stm32n6xx_ll_bus.h ****   */
ARM GAS  C:\Users\DJESSOU\AppData\Local\Temp\cc3dm0Vf.s 			page 88


 953:STM32Cube_FW_N6/Drivers/STM32N6xx_HAL_Driver/Inc/stm32n6xx_ll_bus.h **** __STATIC_INLINE void LL_AHB1_GRP1_EnableClockLowPower(uint32_t Periphs)
 954:STM32Cube_FW_N6/Drivers/STM32N6xx_HAL_Driver/Inc/stm32n6xx_ll_bus.h **** {
 955:STM32Cube_FW_N6/Drivers/STM32N6xx_HAL_Driver/Inc/stm32n6xx_ll_bus.h ****   __IO uint32_t tmpreg;
 956:STM32Cube_FW_N6/Drivers/STM32N6xx_HAL_Driver/Inc/stm32n6xx_ll_bus.h ****   WRITE_REG(RCC->AHB1LPENSR, Periphs);
 957:STM32Cube_FW_N6/Drivers/STM32N6xx_HAL_Driver/Inc/stm32n6xx_ll_bus.h ****   /* Delay after an RCC peripheral clock enabling */
 958:STM32Cube_FW_N6/Drivers/STM32N6xx_HAL_Driver/Inc/stm32n6xx_ll_bus.h ****   tmpreg = READ_REG(RCC->AHB1LPENR);
 959:STM32Cube_FW_N6/Drivers/STM32N6xx_HAL_Driver/Inc/stm32n6xx_ll_bus.h ****   (void)tmpreg;
 960:STM32Cube_FW_N6/Drivers/STM32N6xx_HAL_Driver/Inc/stm32n6xx_ll_bus.h **** }
 961:STM32Cube_FW_N6/Drivers/STM32N6xx_HAL_Driver/Inc/stm32n6xx_ll_bus.h **** 
 962:STM32Cube_FW_N6/Drivers/STM32N6xx_HAL_Driver/Inc/stm32n6xx_ll_bus.h **** /**
 963:STM32Cube_FW_N6/Drivers/STM32N6xx_HAL_Driver/Inc/stm32n6xx_ll_bus.h ****   * @brief  Check if AHB1 peripheral clock during Low Power mode is enabled or not .
 964:STM32Cube_FW_N6/Drivers/STM32N6xx_HAL_Driver/Inc/stm32n6xx_ll_bus.h ****   * @rmtoll AHB1LPENR    GPDMA1LPEN    LL_AHB1_GRP1_IsEnabledClockLowPower\n
 965:STM32Cube_FW_N6/Drivers/STM32N6xx_HAL_Driver/Inc/stm32n6xx_ll_bus.h ****   *         AHB1LPENR    ADC12LPEN     LL_AHB1_GRP1_IsEnabledClockLowPower
 966:STM32Cube_FW_N6/Drivers/STM32N6xx_HAL_Driver/Inc/stm32n6xx_ll_bus.h ****   * @param  Periphs This parameter can be a combination of the following values:
 967:STM32Cube_FW_N6/Drivers/STM32N6xx_HAL_Driver/Inc/stm32n6xx_ll_bus.h ****   *         @arg @ref LL_AHB1_GRP1_PERIPH_GPDMA1
 968:STM32Cube_FW_N6/Drivers/STM32N6xx_HAL_Driver/Inc/stm32n6xx_ll_bus.h ****   *         @arg @ref LL_AHB1_GRP1_PERIPH_ADC12
 969:STM32Cube_FW_N6/Drivers/STM32N6xx_HAL_Driver/Inc/stm32n6xx_ll_bus.h ****   * @retval uint32_t
 970:STM32Cube_FW_N6/Drivers/STM32N6xx_HAL_Driver/Inc/stm32n6xx_ll_bus.h ****   */
 971:STM32Cube_FW_N6/Drivers/STM32N6xx_HAL_Driver/Inc/stm32n6xx_ll_bus.h **** __STATIC_INLINE uint32_t LL_AHB1_GRP1_IsEnabledClockLowPower(uint32_t Periphs)
 972:STM32Cube_FW_N6/Drivers/STM32N6xx_HAL_Driver/Inc/stm32n6xx_ll_bus.h **** {
 973:STM32Cube_FW_N6/Drivers/STM32N6xx_HAL_Driver/Inc/stm32n6xx_ll_bus.h ****   return ((READ_BIT(RCC->AHB1LPENR, Periphs) == Periphs) ? 1UL : 0UL);
 974:STM32Cube_FW_N6/Drivers/STM32N6xx_HAL_Driver/Inc/stm32n6xx_ll_bus.h **** }
 975:STM32Cube_FW_N6/Drivers/STM32N6xx_HAL_Driver/Inc/stm32n6xx_ll_bus.h **** 
 976:STM32Cube_FW_N6/Drivers/STM32N6xx_HAL_Driver/Inc/stm32n6xx_ll_bus.h **** /**
 977:STM32Cube_FW_N6/Drivers/STM32N6xx_HAL_Driver/Inc/stm32n6xx_ll_bus.h ****   * @brief  Disable AHB1 peripherals clock during Low Power mode.
 978:STM32Cube_FW_N6/Drivers/STM32N6xx_HAL_Driver/Inc/stm32n6xx_ll_bus.h ****   * @rmtoll AHB1LPENCR   GPDMA1LPENC   LL_AHB1_GRP1_DisableClockLowPower\n
 979:STM32Cube_FW_N6/Drivers/STM32N6xx_HAL_Driver/Inc/stm32n6xx_ll_bus.h ****   *         AHB1LPENCR   ADC12LPENC    LL_AHB1_GRP1_DisableClockLowPower
 980:STM32Cube_FW_N6/Drivers/STM32N6xx_HAL_Driver/Inc/stm32n6xx_ll_bus.h ****   * @param  Periphs This parameter can be a combination of the following values:
 981:STM32Cube_FW_N6/Drivers/STM32N6xx_HAL_Driver/Inc/stm32n6xx_ll_bus.h ****   *         @arg @ref LL_AHB1_GRP1_PERIPH_GPDMA1
 982:STM32Cube_FW_N6/Drivers/STM32N6xx_HAL_Driver/Inc/stm32n6xx_ll_bus.h ****   *         @arg @ref LL_AHB1_GRP1_PERIPH_ADC12
 983:STM32Cube_FW_N6/Drivers/STM32N6xx_HAL_Driver/Inc/stm32n6xx_ll_bus.h ****   * @retval None
 984:STM32Cube_FW_N6/Drivers/STM32N6xx_HAL_Driver/Inc/stm32n6xx_ll_bus.h ****   */
 985:STM32Cube_FW_N6/Drivers/STM32N6xx_HAL_Driver/Inc/stm32n6xx_ll_bus.h **** __STATIC_INLINE void LL_AHB1_GRP1_DisableClockLowPower(uint32_t Periphs)
 986:STM32Cube_FW_N6/Drivers/STM32N6xx_HAL_Driver/Inc/stm32n6xx_ll_bus.h **** {
 987:STM32Cube_FW_N6/Drivers/STM32N6xx_HAL_Driver/Inc/stm32n6xx_ll_bus.h ****   WRITE_REG(RCC->AHB1LPENCR, Periphs);
 988:STM32Cube_FW_N6/Drivers/STM32N6xx_HAL_Driver/Inc/stm32n6xx_ll_bus.h **** }
 989:STM32Cube_FW_N6/Drivers/STM32N6xx_HAL_Driver/Inc/stm32n6xx_ll_bus.h **** 
 990:STM32Cube_FW_N6/Drivers/STM32N6xx_HAL_Driver/Inc/stm32n6xx_ll_bus.h **** /**
 991:STM32Cube_FW_N6/Drivers/STM32N6xx_HAL_Driver/Inc/stm32n6xx_ll_bus.h ****   * @}
 992:STM32Cube_FW_N6/Drivers/STM32N6xx_HAL_Driver/Inc/stm32n6xx_ll_bus.h ****   */
 993:STM32Cube_FW_N6/Drivers/STM32N6xx_HAL_Driver/Inc/stm32n6xx_ll_bus.h **** 
 994:STM32Cube_FW_N6/Drivers/STM32N6xx_HAL_Driver/Inc/stm32n6xx_ll_bus.h **** /** @defgroup BUS_LL_EF_AHB2 AHB2
 995:STM32Cube_FW_N6/Drivers/STM32N6xx_HAL_Driver/Inc/stm32n6xx_ll_bus.h ****   * @{
 996:STM32Cube_FW_N6/Drivers/STM32N6xx_HAL_Driver/Inc/stm32n6xx_ll_bus.h ****   */
 997:STM32Cube_FW_N6/Drivers/STM32N6xx_HAL_Driver/Inc/stm32n6xx_ll_bus.h **** 
 998:STM32Cube_FW_N6/Drivers/STM32N6xx_HAL_Driver/Inc/stm32n6xx_ll_bus.h **** /**
 999:STM32Cube_FW_N6/Drivers/STM32N6xx_HAL_Driver/Inc/stm32n6xx_ll_bus.h ****   * @brief  Enable AHB2 peripherals clock.
1000:STM32Cube_FW_N6/Drivers/STM32N6xx_HAL_Driver/Inc/stm32n6xx_ll_bus.h ****   * @rmtoll AHB2ENSR     RAMCFGENS     LL_AHB2_GRP1_EnableClock\n
1001:STM32Cube_FW_N6/Drivers/STM32N6xx_HAL_Driver/Inc/stm32n6xx_ll_bus.h ****   *         AHB2ENSR     MDF1ENS       LL_AHB2_GRP1_EnableClock\n
1002:STM32Cube_FW_N6/Drivers/STM32N6xx_HAL_Driver/Inc/stm32n6xx_ll_bus.h ****   *         AHB2ENSR     ADF1ENS       LL_AHB2_GRP1_EnableClock
1003:STM32Cube_FW_N6/Drivers/STM32N6xx_HAL_Driver/Inc/stm32n6xx_ll_bus.h ****   * @param  Periphs This parameter can be a combination of the following values:
1004:STM32Cube_FW_N6/Drivers/STM32N6xx_HAL_Driver/Inc/stm32n6xx_ll_bus.h ****   *         @arg @ref LL_AHB2_GRP1_PERIPH_RAMCFG
1005:STM32Cube_FW_N6/Drivers/STM32N6xx_HAL_Driver/Inc/stm32n6xx_ll_bus.h ****   *         @arg @ref LL_AHB2_GRP1_PERIPH_MDF1
1006:STM32Cube_FW_N6/Drivers/STM32N6xx_HAL_Driver/Inc/stm32n6xx_ll_bus.h ****   *         @arg @ref LL_AHB2_GRP1_PERIPH_ADF1
1007:STM32Cube_FW_N6/Drivers/STM32N6xx_HAL_Driver/Inc/stm32n6xx_ll_bus.h ****   * @retval None
1008:STM32Cube_FW_N6/Drivers/STM32N6xx_HAL_Driver/Inc/stm32n6xx_ll_bus.h ****   */
1009:STM32Cube_FW_N6/Drivers/STM32N6xx_HAL_Driver/Inc/stm32n6xx_ll_bus.h **** __STATIC_INLINE void LL_AHB2_GRP1_EnableClock(uint32_t Periphs)
ARM GAS  C:\Users\DJESSOU\AppData\Local\Temp\cc3dm0Vf.s 			page 89


1010:STM32Cube_FW_N6/Drivers/STM32N6xx_HAL_Driver/Inc/stm32n6xx_ll_bus.h **** {
1011:STM32Cube_FW_N6/Drivers/STM32N6xx_HAL_Driver/Inc/stm32n6xx_ll_bus.h ****   __IO uint32_t tmpreg;
1012:STM32Cube_FW_N6/Drivers/STM32N6xx_HAL_Driver/Inc/stm32n6xx_ll_bus.h ****   WRITE_REG(RCC->AHB2ENSR, Periphs);
1013:STM32Cube_FW_N6/Drivers/STM32N6xx_HAL_Driver/Inc/stm32n6xx_ll_bus.h ****   /* Delay after an RCC peripheral clock enabling */
1014:STM32Cube_FW_N6/Drivers/STM32N6xx_HAL_Driver/Inc/stm32n6xx_ll_bus.h ****   tmpreg = READ_REG(RCC->AHB2ENR);
1015:STM32Cube_FW_N6/Drivers/STM32N6xx_HAL_Driver/Inc/stm32n6xx_ll_bus.h ****   (void)tmpreg;
1016:STM32Cube_FW_N6/Drivers/STM32N6xx_HAL_Driver/Inc/stm32n6xx_ll_bus.h **** }
1017:STM32Cube_FW_N6/Drivers/STM32N6xx_HAL_Driver/Inc/stm32n6xx_ll_bus.h **** 
1018:STM32Cube_FW_N6/Drivers/STM32N6xx_HAL_Driver/Inc/stm32n6xx_ll_bus.h **** /**
1019:STM32Cube_FW_N6/Drivers/STM32N6xx_HAL_Driver/Inc/stm32n6xx_ll_bus.h ****   * @brief  Check if AHB2 peripheral clock is enabled or not
1020:STM32Cube_FW_N6/Drivers/STM32N6xx_HAL_Driver/Inc/stm32n6xx_ll_bus.h ****   * @rmtoll AHB2ENR      RAMCFGEN      LL_AHB2_GRP1_IsEnabledClock\n
1021:STM32Cube_FW_N6/Drivers/STM32N6xx_HAL_Driver/Inc/stm32n6xx_ll_bus.h ****   *         AHB2ENR      MDF1EN        LL_AHB2_GRP1_IsEnabledClock\n
1022:STM32Cube_FW_N6/Drivers/STM32N6xx_HAL_Driver/Inc/stm32n6xx_ll_bus.h ****   *         AHB2ENR      ADF1EN        LL_AHB2_GRP1_IsEnabledClock
1023:STM32Cube_FW_N6/Drivers/STM32N6xx_HAL_Driver/Inc/stm32n6xx_ll_bus.h ****   * @param  Periphs This parameter can be a combination of the following values:
1024:STM32Cube_FW_N6/Drivers/STM32N6xx_HAL_Driver/Inc/stm32n6xx_ll_bus.h ****   *         @arg @ref LL_AHB2_GRP1_PERIPH_RAMCFG
1025:STM32Cube_FW_N6/Drivers/STM32N6xx_HAL_Driver/Inc/stm32n6xx_ll_bus.h ****   *         @arg @ref LL_AHB2_GRP1_PERIPH_MDF1
1026:STM32Cube_FW_N6/Drivers/STM32N6xx_HAL_Driver/Inc/stm32n6xx_ll_bus.h ****   *         @arg @ref LL_AHB2_GRP1_PERIPH_ADF1
1027:STM32Cube_FW_N6/Drivers/STM32N6xx_HAL_Driver/Inc/stm32n6xx_ll_bus.h ****   * @retval uint32_t
1028:STM32Cube_FW_N6/Drivers/STM32N6xx_HAL_Driver/Inc/stm32n6xx_ll_bus.h ****   */
1029:STM32Cube_FW_N6/Drivers/STM32N6xx_HAL_Driver/Inc/stm32n6xx_ll_bus.h **** __STATIC_INLINE uint32_t LL_AHB2_GRP1_IsEnabledClock(uint32_t Periphs)
1030:STM32Cube_FW_N6/Drivers/STM32N6xx_HAL_Driver/Inc/stm32n6xx_ll_bus.h **** {
1031:STM32Cube_FW_N6/Drivers/STM32N6xx_HAL_Driver/Inc/stm32n6xx_ll_bus.h ****   return ((READ_BIT(RCC->AHB2ENR, Periphs) == Periphs) ? 1UL : 0UL);
1032:STM32Cube_FW_N6/Drivers/STM32N6xx_HAL_Driver/Inc/stm32n6xx_ll_bus.h **** }
1033:STM32Cube_FW_N6/Drivers/STM32N6xx_HAL_Driver/Inc/stm32n6xx_ll_bus.h **** 
1034:STM32Cube_FW_N6/Drivers/STM32N6xx_HAL_Driver/Inc/stm32n6xx_ll_bus.h **** /**
1035:STM32Cube_FW_N6/Drivers/STM32N6xx_HAL_Driver/Inc/stm32n6xx_ll_bus.h ****   * @brief  Disable AHB2 peripherals clock.
1036:STM32Cube_FW_N6/Drivers/STM32N6xx_HAL_Driver/Inc/stm32n6xx_ll_bus.h ****   * @rmtoll AHB2ENCR     RAMCFGENC     LL_AHB2_GRP1_DisableClock\n
1037:STM32Cube_FW_N6/Drivers/STM32N6xx_HAL_Driver/Inc/stm32n6xx_ll_bus.h ****   *         AHB2ENCR     MDF1ENC       LL_AHB2_GRP1_DisableClock\n
1038:STM32Cube_FW_N6/Drivers/STM32N6xx_HAL_Driver/Inc/stm32n6xx_ll_bus.h ****   *         AHB2ENCR     ADF1ENC       LL_AHB2_GRP1_DisableClock
1039:STM32Cube_FW_N6/Drivers/STM32N6xx_HAL_Driver/Inc/stm32n6xx_ll_bus.h ****   * @param  Periphs This parameter can be a combination of the following values:
1040:STM32Cube_FW_N6/Drivers/STM32N6xx_HAL_Driver/Inc/stm32n6xx_ll_bus.h ****   *         @arg @ref LL_AHB2_GRP1_PERIPH_RAMCFG
1041:STM32Cube_FW_N6/Drivers/STM32N6xx_HAL_Driver/Inc/stm32n6xx_ll_bus.h ****   *         @arg @ref LL_AHB2_GRP1_PERIPH_MDF1
1042:STM32Cube_FW_N6/Drivers/STM32N6xx_HAL_Driver/Inc/stm32n6xx_ll_bus.h ****   *         @arg @ref LL_AHB2_GRP1_PERIPH_ADF1
1043:STM32Cube_FW_N6/Drivers/STM32N6xx_HAL_Driver/Inc/stm32n6xx_ll_bus.h ****   * @retval None
1044:STM32Cube_FW_N6/Drivers/STM32N6xx_HAL_Driver/Inc/stm32n6xx_ll_bus.h ****   */
1045:STM32Cube_FW_N6/Drivers/STM32N6xx_HAL_Driver/Inc/stm32n6xx_ll_bus.h **** __STATIC_INLINE void LL_AHB2_GRP1_DisableClock(uint32_t Periphs)
1046:STM32Cube_FW_N6/Drivers/STM32N6xx_HAL_Driver/Inc/stm32n6xx_ll_bus.h **** {
1047:STM32Cube_FW_N6/Drivers/STM32N6xx_HAL_Driver/Inc/stm32n6xx_ll_bus.h ****   WRITE_REG(RCC->AHB2ENCR, Periphs);
1048:STM32Cube_FW_N6/Drivers/STM32N6xx_HAL_Driver/Inc/stm32n6xx_ll_bus.h **** }
1049:STM32Cube_FW_N6/Drivers/STM32N6xx_HAL_Driver/Inc/stm32n6xx_ll_bus.h **** 
1050:STM32Cube_FW_N6/Drivers/STM32N6xx_HAL_Driver/Inc/stm32n6xx_ll_bus.h **** /**
1051:STM32Cube_FW_N6/Drivers/STM32N6xx_HAL_Driver/Inc/stm32n6xx_ll_bus.h ****   * @brief  Force AHB2 peripherals reset.
1052:STM32Cube_FW_N6/Drivers/STM32N6xx_HAL_Driver/Inc/stm32n6xx_ll_bus.h ****   * @rmtoll AHB2RSTSR    RAMCFGRSTS     LL_AHB2_GRP1_ForceReset\n
1053:STM32Cube_FW_N6/Drivers/STM32N6xx_HAL_Driver/Inc/stm32n6xx_ll_bus.h ****   *         AHB2RSTSR    MDF1RSTS       LL_AHB2_GRP1_ForceReset\n
1054:STM32Cube_FW_N6/Drivers/STM32N6xx_HAL_Driver/Inc/stm32n6xx_ll_bus.h ****   *         AHB2RSTSR    ADF1RSTS       LL_AHB2_GRP1_ForceReset
1055:STM32Cube_FW_N6/Drivers/STM32N6xx_HAL_Driver/Inc/stm32n6xx_ll_bus.h ****   * @param  Periphs This parameter can be a combination of the following values:
1056:STM32Cube_FW_N6/Drivers/STM32N6xx_HAL_Driver/Inc/stm32n6xx_ll_bus.h ****   *         @arg @ref LL_AHB2_GRP1_PERIPH_RAMCFG
1057:STM32Cube_FW_N6/Drivers/STM32N6xx_HAL_Driver/Inc/stm32n6xx_ll_bus.h ****   *         @arg @ref LL_AHB2_GRP1_PERIPH_MDF1
1058:STM32Cube_FW_N6/Drivers/STM32N6xx_HAL_Driver/Inc/stm32n6xx_ll_bus.h ****   *         @arg @ref LL_AHB2_GRP1_PERIPH_ADF1
1059:STM32Cube_FW_N6/Drivers/STM32N6xx_HAL_Driver/Inc/stm32n6xx_ll_bus.h ****   * @retval None
1060:STM32Cube_FW_N6/Drivers/STM32N6xx_HAL_Driver/Inc/stm32n6xx_ll_bus.h ****   */
1061:STM32Cube_FW_N6/Drivers/STM32N6xx_HAL_Driver/Inc/stm32n6xx_ll_bus.h **** __STATIC_INLINE void LL_AHB2_GRP1_ForceReset(uint32_t Periphs)
1062:STM32Cube_FW_N6/Drivers/STM32N6xx_HAL_Driver/Inc/stm32n6xx_ll_bus.h **** {
1063:STM32Cube_FW_N6/Drivers/STM32N6xx_HAL_Driver/Inc/stm32n6xx_ll_bus.h ****   WRITE_REG(RCC->AHB2RSTSR, Periphs);
1064:STM32Cube_FW_N6/Drivers/STM32N6xx_HAL_Driver/Inc/stm32n6xx_ll_bus.h **** }
1065:STM32Cube_FW_N6/Drivers/STM32N6xx_HAL_Driver/Inc/stm32n6xx_ll_bus.h **** 
1066:STM32Cube_FW_N6/Drivers/STM32N6xx_HAL_Driver/Inc/stm32n6xx_ll_bus.h **** /**
ARM GAS  C:\Users\DJESSOU\AppData\Local\Temp\cc3dm0Vf.s 			page 90


1067:STM32Cube_FW_N6/Drivers/STM32N6xx_HAL_Driver/Inc/stm32n6xx_ll_bus.h ****   * @brief  Release AHB2 peripherals reset.
1068:STM32Cube_FW_N6/Drivers/STM32N6xx_HAL_Driver/Inc/stm32n6xx_ll_bus.h ****   * @rmtoll AHB2RSTCR     RAMCFGRSTC    LL_AHB2_GRP1_ReleaseReset\n
1069:STM32Cube_FW_N6/Drivers/STM32N6xx_HAL_Driver/Inc/stm32n6xx_ll_bus.h ****   *         AHB2RSTCR     MDF1RSTC      LL_AHB2_GRP1_ReleaseReset\n
1070:STM32Cube_FW_N6/Drivers/STM32N6xx_HAL_Driver/Inc/stm32n6xx_ll_bus.h ****   *         AHB2RSTCR     ADF1RSTC      LL_AHB2_GRP1_ReleaseReset
1071:STM32Cube_FW_N6/Drivers/STM32N6xx_HAL_Driver/Inc/stm32n6xx_ll_bus.h ****   * @param  Periphs This parameter can be a combination of the following values:
1072:STM32Cube_FW_N6/Drivers/STM32N6xx_HAL_Driver/Inc/stm32n6xx_ll_bus.h ****   *         @arg @ref LL_AHB2_GRP1_PERIPH_RAMCFG
1073:STM32Cube_FW_N6/Drivers/STM32N6xx_HAL_Driver/Inc/stm32n6xx_ll_bus.h ****   *         @arg @ref LL_AHB2_GRP1_PERIPH_MDF1
1074:STM32Cube_FW_N6/Drivers/STM32N6xx_HAL_Driver/Inc/stm32n6xx_ll_bus.h ****   *         @arg @ref LL_AHB2_GRP1_PERIPH_ADF1
1075:STM32Cube_FW_N6/Drivers/STM32N6xx_HAL_Driver/Inc/stm32n6xx_ll_bus.h ****   * @retval None
1076:STM32Cube_FW_N6/Drivers/STM32N6xx_HAL_Driver/Inc/stm32n6xx_ll_bus.h ****   */
1077:STM32Cube_FW_N6/Drivers/STM32N6xx_HAL_Driver/Inc/stm32n6xx_ll_bus.h **** __STATIC_INLINE void LL_AHB2_GRP1_ReleaseReset(uint32_t Periphs)
1078:STM32Cube_FW_N6/Drivers/STM32N6xx_HAL_Driver/Inc/stm32n6xx_ll_bus.h **** {
1079:STM32Cube_FW_N6/Drivers/STM32N6xx_HAL_Driver/Inc/stm32n6xx_ll_bus.h ****   WRITE_REG(RCC->AHB2RSTCR, Periphs);
1080:STM32Cube_FW_N6/Drivers/STM32N6xx_HAL_Driver/Inc/stm32n6xx_ll_bus.h **** }
1081:STM32Cube_FW_N6/Drivers/STM32N6xx_HAL_Driver/Inc/stm32n6xx_ll_bus.h **** 
1082:STM32Cube_FW_N6/Drivers/STM32N6xx_HAL_Driver/Inc/stm32n6xx_ll_bus.h **** /**
1083:STM32Cube_FW_N6/Drivers/STM32N6xx_HAL_Driver/Inc/stm32n6xx_ll_bus.h ****   * @brief  Enable AHB2 peripherals clock during Low Power mode.
1084:STM32Cube_FW_N6/Drivers/STM32N6xx_HAL_Driver/Inc/stm32n6xx_ll_bus.h ****   * @rmtoll AHB2LPENSR   RAMCFGLPENC   LL_AHB2_GRP1_EnableClockLowPower\n
1085:STM32Cube_FW_N6/Drivers/STM32N6xx_HAL_Driver/Inc/stm32n6xx_ll_bus.h ****   *         AHB2LPENSR   MDF1LPENC     LL_AHB2_GRP1_EnableClockLowPower\n
1086:STM32Cube_FW_N6/Drivers/STM32N6xx_HAL_Driver/Inc/stm32n6xx_ll_bus.h ****   *         AHB2LPENSR   ADF1LPENC     LL_AHB2_GRP1_EnableClockLowPower
1087:STM32Cube_FW_N6/Drivers/STM32N6xx_HAL_Driver/Inc/stm32n6xx_ll_bus.h ****   * @param  Periphs This parameter can be a combination of the following values:
1088:STM32Cube_FW_N6/Drivers/STM32N6xx_HAL_Driver/Inc/stm32n6xx_ll_bus.h ****   *         @arg @ref LL_AHB2_GRP1_PERIPH_RAMCFG
1089:STM32Cube_FW_N6/Drivers/STM32N6xx_HAL_Driver/Inc/stm32n6xx_ll_bus.h ****   *         @arg @ref LL_AHB2_GRP1_PERIPH_MDF1
1090:STM32Cube_FW_N6/Drivers/STM32N6xx_HAL_Driver/Inc/stm32n6xx_ll_bus.h ****   *         @arg @ref LL_AHB2_GRP1_PERIPH_ADF1
1091:STM32Cube_FW_N6/Drivers/STM32N6xx_HAL_Driver/Inc/stm32n6xx_ll_bus.h ****   * @retval None
1092:STM32Cube_FW_N6/Drivers/STM32N6xx_HAL_Driver/Inc/stm32n6xx_ll_bus.h ****   */
1093:STM32Cube_FW_N6/Drivers/STM32N6xx_HAL_Driver/Inc/stm32n6xx_ll_bus.h **** __STATIC_INLINE void LL_AHB2_GRP1_EnableClockLowPower(uint32_t Periphs)
1094:STM32Cube_FW_N6/Drivers/STM32N6xx_HAL_Driver/Inc/stm32n6xx_ll_bus.h **** {
1095:STM32Cube_FW_N6/Drivers/STM32N6xx_HAL_Driver/Inc/stm32n6xx_ll_bus.h ****   __IO uint32_t tmpreg;
1096:STM32Cube_FW_N6/Drivers/STM32N6xx_HAL_Driver/Inc/stm32n6xx_ll_bus.h ****   WRITE_REG(RCC->AHB2LPENSR, Periphs);
1097:STM32Cube_FW_N6/Drivers/STM32N6xx_HAL_Driver/Inc/stm32n6xx_ll_bus.h ****   /* Delay after an RCC peripheral clock enabling */
1098:STM32Cube_FW_N6/Drivers/STM32N6xx_HAL_Driver/Inc/stm32n6xx_ll_bus.h ****   tmpreg = READ_REG(RCC->AHB2LPENR);
1099:STM32Cube_FW_N6/Drivers/STM32N6xx_HAL_Driver/Inc/stm32n6xx_ll_bus.h ****   (void)tmpreg;
1100:STM32Cube_FW_N6/Drivers/STM32N6xx_HAL_Driver/Inc/stm32n6xx_ll_bus.h **** }
1101:STM32Cube_FW_N6/Drivers/STM32N6xx_HAL_Driver/Inc/stm32n6xx_ll_bus.h **** 
1102:STM32Cube_FW_N6/Drivers/STM32N6xx_HAL_Driver/Inc/stm32n6xx_ll_bus.h **** /**
1103:STM32Cube_FW_N6/Drivers/STM32N6xx_HAL_Driver/Inc/stm32n6xx_ll_bus.h ****   * @brief  Check if AHB2 peripheral clock during Low Power mode is enabled or not .
1104:STM32Cube_FW_N6/Drivers/STM32N6xx_HAL_Driver/Inc/stm32n6xx_ll_bus.h ****   * @rmtoll AHB2LPENR    RAMCFGLPEN    LL_AHB2_GRP1_IsEnabledClockLowPower\n
1105:STM32Cube_FW_N6/Drivers/STM32N6xx_HAL_Driver/Inc/stm32n6xx_ll_bus.h ****   *         AHB2LPENR    MDF1LPEN      LL_AHB2_GRP1_IsEnabledClockLowPower\n
1106:STM32Cube_FW_N6/Drivers/STM32N6xx_HAL_Driver/Inc/stm32n6xx_ll_bus.h ****   *         AHB2LPENR    ADF1LPEN      LL_AHB2_GRP1_IsEnabledClockLowPower
1107:STM32Cube_FW_N6/Drivers/STM32N6xx_HAL_Driver/Inc/stm32n6xx_ll_bus.h ****   * @param  Periphs This parameter can be a combination of the following values:
1108:STM32Cube_FW_N6/Drivers/STM32N6xx_HAL_Driver/Inc/stm32n6xx_ll_bus.h ****   *         @arg @ref LL_AHB2_GRP1_PERIPH_RAMCFG
1109:STM32Cube_FW_N6/Drivers/STM32N6xx_HAL_Driver/Inc/stm32n6xx_ll_bus.h ****   *         @arg @ref LL_AHB2_GRP1_PERIPH_MDF1
1110:STM32Cube_FW_N6/Drivers/STM32N6xx_HAL_Driver/Inc/stm32n6xx_ll_bus.h ****   *         @arg @ref LL_AHB2_GRP1_PERIPH_ADF1
1111:STM32Cube_FW_N6/Drivers/STM32N6xx_HAL_Driver/Inc/stm32n6xx_ll_bus.h ****   * @retval uint32_t
1112:STM32Cube_FW_N6/Drivers/STM32N6xx_HAL_Driver/Inc/stm32n6xx_ll_bus.h ****   */
1113:STM32Cube_FW_N6/Drivers/STM32N6xx_HAL_Driver/Inc/stm32n6xx_ll_bus.h **** __STATIC_INLINE uint32_t LL_AHB2_GRP1_IsEnabledClockLowPower(uint32_t Periphs)
1114:STM32Cube_FW_N6/Drivers/STM32N6xx_HAL_Driver/Inc/stm32n6xx_ll_bus.h **** {
1115:STM32Cube_FW_N6/Drivers/STM32N6xx_HAL_Driver/Inc/stm32n6xx_ll_bus.h ****   return ((READ_BIT(RCC->AHB2LPENR, Periphs) == Periphs) ? 1UL : 0UL);
1116:STM32Cube_FW_N6/Drivers/STM32N6xx_HAL_Driver/Inc/stm32n6xx_ll_bus.h **** }
1117:STM32Cube_FW_N6/Drivers/STM32N6xx_HAL_Driver/Inc/stm32n6xx_ll_bus.h **** 
1118:STM32Cube_FW_N6/Drivers/STM32N6xx_HAL_Driver/Inc/stm32n6xx_ll_bus.h **** /**
1119:STM32Cube_FW_N6/Drivers/STM32N6xx_HAL_Driver/Inc/stm32n6xx_ll_bus.h ****   * @brief  Disable AHB2 peripherals clock during Low Power mode.
1120:STM32Cube_FW_N6/Drivers/STM32N6xx_HAL_Driver/Inc/stm32n6xx_ll_bus.h ****   * @rmtoll AHB2LPENCR   RAMCFGLPENC   LL_AHB2_GRP1_DisableClockLowPower\n
1121:STM32Cube_FW_N6/Drivers/STM32N6xx_HAL_Driver/Inc/stm32n6xx_ll_bus.h ****   *         AHB2LPENCR   MDF1LPENC     LL_AHB2_GRP1_DisableClockLowPower\n
1122:STM32Cube_FW_N6/Drivers/STM32N6xx_HAL_Driver/Inc/stm32n6xx_ll_bus.h ****   *         AHB2LPENCR   ADF1LPENC     LL_AHB2_GRP1_DisableClockLowPower
1123:STM32Cube_FW_N6/Drivers/STM32N6xx_HAL_Driver/Inc/stm32n6xx_ll_bus.h ****   * @param  Periphs This parameter can be a combination of the following values:
ARM GAS  C:\Users\DJESSOU\AppData\Local\Temp\cc3dm0Vf.s 			page 91


1124:STM32Cube_FW_N6/Drivers/STM32N6xx_HAL_Driver/Inc/stm32n6xx_ll_bus.h ****   *         @arg @ref LL_AHB2_GRP1_PERIPH_RAMCFG
1125:STM32Cube_FW_N6/Drivers/STM32N6xx_HAL_Driver/Inc/stm32n6xx_ll_bus.h ****   *         @arg @ref LL_AHB2_GRP1_PERIPH_MDF1
1126:STM32Cube_FW_N6/Drivers/STM32N6xx_HAL_Driver/Inc/stm32n6xx_ll_bus.h ****   *         @arg @ref LL_AHB2_GRP1_PERIPH_ADF1
1127:STM32Cube_FW_N6/Drivers/STM32N6xx_HAL_Driver/Inc/stm32n6xx_ll_bus.h ****   * @retval None
1128:STM32Cube_FW_N6/Drivers/STM32N6xx_HAL_Driver/Inc/stm32n6xx_ll_bus.h ****   */
1129:STM32Cube_FW_N6/Drivers/STM32N6xx_HAL_Driver/Inc/stm32n6xx_ll_bus.h **** __STATIC_INLINE void LL_AHB2_GRP1_DisableClockLowPower(uint32_t Periphs)
1130:STM32Cube_FW_N6/Drivers/STM32N6xx_HAL_Driver/Inc/stm32n6xx_ll_bus.h **** {
1131:STM32Cube_FW_N6/Drivers/STM32N6xx_HAL_Driver/Inc/stm32n6xx_ll_bus.h ****   WRITE_REG(RCC->AHB2LPENCR, Periphs);
1132:STM32Cube_FW_N6/Drivers/STM32N6xx_HAL_Driver/Inc/stm32n6xx_ll_bus.h **** }
1133:STM32Cube_FW_N6/Drivers/STM32N6xx_HAL_Driver/Inc/stm32n6xx_ll_bus.h **** 
1134:STM32Cube_FW_N6/Drivers/STM32N6xx_HAL_Driver/Inc/stm32n6xx_ll_bus.h **** /**
1135:STM32Cube_FW_N6/Drivers/STM32N6xx_HAL_Driver/Inc/stm32n6xx_ll_bus.h ****   * @}
1136:STM32Cube_FW_N6/Drivers/STM32N6xx_HAL_Driver/Inc/stm32n6xx_ll_bus.h ****   */
1137:STM32Cube_FW_N6/Drivers/STM32N6xx_HAL_Driver/Inc/stm32n6xx_ll_bus.h **** 
1138:STM32Cube_FW_N6/Drivers/STM32N6xx_HAL_Driver/Inc/stm32n6xx_ll_bus.h **** /** @defgroup BUS_LL_EF_AHB3 AHB3
1139:STM32Cube_FW_N6/Drivers/STM32N6xx_HAL_Driver/Inc/stm32n6xx_ll_bus.h ****   * @{
1140:STM32Cube_FW_N6/Drivers/STM32N6xx_HAL_Driver/Inc/stm32n6xx_ll_bus.h ****   */
1141:STM32Cube_FW_N6/Drivers/STM32N6xx_HAL_Driver/Inc/stm32n6xx_ll_bus.h **** 
1142:STM32Cube_FW_N6/Drivers/STM32N6xx_HAL_Driver/Inc/stm32n6xx_ll_bus.h **** /**
1143:STM32Cube_FW_N6/Drivers/STM32N6xx_HAL_Driver/Inc/stm32n6xx_ll_bus.h ****   * @brief  Enable AHB3 peripherals clock.
1144:STM32Cube_FW_N6/Drivers/STM32N6xx_HAL_Driver/Inc/stm32n6xx_ll_bus.h ****   * @rmtoll AHB3ENSR     RNGENS        LL_AHB3_GRP1_EnableClock\n
1145:STM32Cube_FW_N6/Drivers/STM32N6xx_HAL_Driver/Inc/stm32n6xx_ll_bus.h ****   *         AHB3ENSR     HASHENS       LL_AHB3_GRP1_EnableClock\n
1146:STM32Cube_FW_N6/Drivers/STM32N6xx_HAL_Driver/Inc/stm32n6xx_ll_bus.h ****   *         AHB3ENSR     CRYPENS       LL_AHB3_GRP1_EnableClock\n  (*)
1147:STM32Cube_FW_N6/Drivers/STM32N6xx_HAL_Driver/Inc/stm32n6xx_ll_bus.h ****   *         AHB3ENSR     SAESENS       LL_AHB3_GRP1_EnableClock\n  (*)
1148:STM32Cube_FW_N6/Drivers/STM32N6xx_HAL_Driver/Inc/stm32n6xx_ll_bus.h ****   *         AHB3ENSR     PKAENS        LL_AHB3_GRP1_EnableClock\n
1149:STM32Cube_FW_N6/Drivers/STM32N6xx_HAL_Driver/Inc/stm32n6xx_ll_bus.h ****   *         AHB3ENSR     RIFSCENS      LL_AHB3_GRP1_EnableClock\n
1150:STM32Cube_FW_N6/Drivers/STM32N6xx_HAL_Driver/Inc/stm32n6xx_ll_bus.h ****   *         AHB3ENSR     RISAFENS      LL_AHB3_GRP1_EnableClock\n
1151:STM32Cube_FW_N6/Drivers/STM32N6xx_HAL_Driver/Inc/stm32n6xx_ll_bus.h ****   *         AHB3ENSR     IACENS        LL_AHB3_GRP1_EnableClock
1152:STM32Cube_FW_N6/Drivers/STM32N6xx_HAL_Driver/Inc/stm32n6xx_ll_bus.h ****   * @param  Periphs This parameter can be a combination of the following values:
1153:STM32Cube_FW_N6/Drivers/STM32N6xx_HAL_Driver/Inc/stm32n6xx_ll_bus.h ****   *         @arg @ref LL_AHB3_GRP1_PERIPH_RNG
1154:STM32Cube_FW_N6/Drivers/STM32N6xx_HAL_Driver/Inc/stm32n6xx_ll_bus.h ****   *         @arg @ref LL_AHB3_GRP1_PERIPH_HASH
1155:STM32Cube_FW_N6/Drivers/STM32N6xx_HAL_Driver/Inc/stm32n6xx_ll_bus.h ****   *         @arg @ref LL_AHB3_GRP1_PERIPH_CRYP (*)
1156:STM32Cube_FW_N6/Drivers/STM32N6xx_HAL_Driver/Inc/stm32n6xx_ll_bus.h ****   *         @arg @ref LL_AHB3_GRP1_PERIPH_SAES (*)
1157:STM32Cube_FW_N6/Drivers/STM32N6xx_HAL_Driver/Inc/stm32n6xx_ll_bus.h ****   *         @arg @ref LL_AHB3_GRP1_PERIPH_PKA
1158:STM32Cube_FW_N6/Drivers/STM32N6xx_HAL_Driver/Inc/stm32n6xx_ll_bus.h ****   *         @arg @ref LL_AHB3_GRP1_PERIPH_RIFSC
1159:STM32Cube_FW_N6/Drivers/STM32N6xx_HAL_Driver/Inc/stm32n6xx_ll_bus.h ****   *         @arg @ref LL_AHB3_GRP1_PERIPH_RISAF
1160:STM32Cube_FW_N6/Drivers/STM32N6xx_HAL_Driver/Inc/stm32n6xx_ll_bus.h ****   *         @arg @ref LL_AHB3_GRP1_PERIPH_IAC
1161:STM32Cube_FW_N6/Drivers/STM32N6xx_HAL_Driver/Inc/stm32n6xx_ll_bus.h ****   *
1162:STM32Cube_FW_N6/Drivers/STM32N6xx_HAL_Driver/Inc/stm32n6xx_ll_bus.h ****   *         (*) value not defined in all devices.
1163:STM32Cube_FW_N6/Drivers/STM32N6xx_HAL_Driver/Inc/stm32n6xx_ll_bus.h ****   * @retval None
1164:STM32Cube_FW_N6/Drivers/STM32N6xx_HAL_Driver/Inc/stm32n6xx_ll_bus.h ****   */
1165:STM32Cube_FW_N6/Drivers/STM32N6xx_HAL_Driver/Inc/stm32n6xx_ll_bus.h **** __STATIC_INLINE void LL_AHB3_GRP1_EnableClock(uint32_t Periphs)
1166:STM32Cube_FW_N6/Drivers/STM32N6xx_HAL_Driver/Inc/stm32n6xx_ll_bus.h **** {
1167:STM32Cube_FW_N6/Drivers/STM32N6xx_HAL_Driver/Inc/stm32n6xx_ll_bus.h ****   __IO uint32_t tmpreg;
1168:STM32Cube_FW_N6/Drivers/STM32N6xx_HAL_Driver/Inc/stm32n6xx_ll_bus.h ****   WRITE_REG(RCC->AHB3ENSR, Periphs);
1169:STM32Cube_FW_N6/Drivers/STM32N6xx_HAL_Driver/Inc/stm32n6xx_ll_bus.h ****   /* Delay after an RCC peripheral clock enabling */
1170:STM32Cube_FW_N6/Drivers/STM32N6xx_HAL_Driver/Inc/stm32n6xx_ll_bus.h ****   tmpreg = READ_REG(RCC->AHB3ENR);
1171:STM32Cube_FW_N6/Drivers/STM32N6xx_HAL_Driver/Inc/stm32n6xx_ll_bus.h ****   (void)tmpreg;
1172:STM32Cube_FW_N6/Drivers/STM32N6xx_HAL_Driver/Inc/stm32n6xx_ll_bus.h **** }
1173:STM32Cube_FW_N6/Drivers/STM32N6xx_HAL_Driver/Inc/stm32n6xx_ll_bus.h **** 
1174:STM32Cube_FW_N6/Drivers/STM32N6xx_HAL_Driver/Inc/stm32n6xx_ll_bus.h **** /**
1175:STM32Cube_FW_N6/Drivers/STM32N6xx_HAL_Driver/Inc/stm32n6xx_ll_bus.h ****   * @brief  Check if AHB3 peripheral clock is enabled or not
1176:STM32Cube_FW_N6/Drivers/STM32N6xx_HAL_Driver/Inc/stm32n6xx_ll_bus.h ****   * @rmtoll AHB3ENR      RNGEN         LL_AHB3_GRP1_IsEnabledClock\n
1177:STM32Cube_FW_N6/Drivers/STM32N6xx_HAL_Driver/Inc/stm32n6xx_ll_bus.h ****   *         AHB3ENR      HASHEN        LL_AHB3_GRP1_IsEnabledClock\n
1178:STM32Cube_FW_N6/Drivers/STM32N6xx_HAL_Driver/Inc/stm32n6xx_ll_bus.h ****   *         AHB3ENR      CRYPEN        LL_AHB3_GRP1_IsEnabledClock\n  (*)
1179:STM32Cube_FW_N6/Drivers/STM32N6xx_HAL_Driver/Inc/stm32n6xx_ll_bus.h ****   *         AHB3ENR      SAESEN        LL_AHB3_GRP1_IsEnabledClock\n  (*)
1180:STM32Cube_FW_N6/Drivers/STM32N6xx_HAL_Driver/Inc/stm32n6xx_ll_bus.h ****   *         AHB3ENR      PKAEN         LL_AHB3_GRP1_IsEnabledClock\n
ARM GAS  C:\Users\DJESSOU\AppData\Local\Temp\cc3dm0Vf.s 			page 92


1181:STM32Cube_FW_N6/Drivers/STM32N6xx_HAL_Driver/Inc/stm32n6xx_ll_bus.h ****   *         AHB3ENR      RIFSCEN       LL_AHB3_GRP1_IsEnabledClock\n
1182:STM32Cube_FW_N6/Drivers/STM32N6xx_HAL_Driver/Inc/stm32n6xx_ll_bus.h ****   *         AHB3ENR      RISAFEN       LL_AHB3_GRP1_IsEnabledClock\n
1183:STM32Cube_FW_N6/Drivers/STM32N6xx_HAL_Driver/Inc/stm32n6xx_ll_bus.h ****   *         AHB3ENR      IACEN         LL_AHB3_GRP1_IsEnabledClock
1184:STM32Cube_FW_N6/Drivers/STM32N6xx_HAL_Driver/Inc/stm32n6xx_ll_bus.h ****   * @param  Periphs This parameter can be a combination of the following values:
1185:STM32Cube_FW_N6/Drivers/STM32N6xx_HAL_Driver/Inc/stm32n6xx_ll_bus.h ****   *         @arg @ref LL_AHB3_GRP1_PERIPH_RNG
1186:STM32Cube_FW_N6/Drivers/STM32N6xx_HAL_Driver/Inc/stm32n6xx_ll_bus.h ****   *         @arg @ref LL_AHB3_GRP1_PERIPH_HASH
1187:STM32Cube_FW_N6/Drivers/STM32N6xx_HAL_Driver/Inc/stm32n6xx_ll_bus.h ****   *         @arg @ref LL_AHB3_GRP1_PERIPH_CRYP (*)
1188:STM32Cube_FW_N6/Drivers/STM32N6xx_HAL_Driver/Inc/stm32n6xx_ll_bus.h ****   *         @arg @ref LL_AHB3_GRP1_PERIPH_SAES (*)
1189:STM32Cube_FW_N6/Drivers/STM32N6xx_HAL_Driver/Inc/stm32n6xx_ll_bus.h ****   *         @arg @ref LL_AHB3_GRP1_PERIPH_PKA
1190:STM32Cube_FW_N6/Drivers/STM32N6xx_HAL_Driver/Inc/stm32n6xx_ll_bus.h ****   *         @arg @ref LL_AHB3_GRP1_PERIPH_RIFSC
1191:STM32Cube_FW_N6/Drivers/STM32N6xx_HAL_Driver/Inc/stm32n6xx_ll_bus.h ****   *         @arg @ref LL_AHB3_GRP1_PERIPH_RISAF
1192:STM32Cube_FW_N6/Drivers/STM32N6xx_HAL_Driver/Inc/stm32n6xx_ll_bus.h ****   *         @arg @ref LL_AHB3_GRP1_PERIPH_IAC
1193:STM32Cube_FW_N6/Drivers/STM32N6xx_HAL_Driver/Inc/stm32n6xx_ll_bus.h ****   *
1194:STM32Cube_FW_N6/Drivers/STM32N6xx_HAL_Driver/Inc/stm32n6xx_ll_bus.h ****   *         (*) value not defined in all devices.
1195:STM32Cube_FW_N6/Drivers/STM32N6xx_HAL_Driver/Inc/stm32n6xx_ll_bus.h ****   * @retval uint32_t
1196:STM32Cube_FW_N6/Drivers/STM32N6xx_HAL_Driver/Inc/stm32n6xx_ll_bus.h ****   */
1197:STM32Cube_FW_N6/Drivers/STM32N6xx_HAL_Driver/Inc/stm32n6xx_ll_bus.h **** __STATIC_INLINE uint32_t LL_AHB3_GRP1_IsEnabledClock(uint32_t Periphs)
1198:STM32Cube_FW_N6/Drivers/STM32N6xx_HAL_Driver/Inc/stm32n6xx_ll_bus.h **** {
1199:STM32Cube_FW_N6/Drivers/STM32N6xx_HAL_Driver/Inc/stm32n6xx_ll_bus.h ****   return ((READ_BIT(RCC->AHB3ENR, Periphs) == Periphs) ? 1UL : 0UL);
1200:STM32Cube_FW_N6/Drivers/STM32N6xx_HAL_Driver/Inc/stm32n6xx_ll_bus.h **** }
1201:STM32Cube_FW_N6/Drivers/STM32N6xx_HAL_Driver/Inc/stm32n6xx_ll_bus.h **** 
1202:STM32Cube_FW_N6/Drivers/STM32N6xx_HAL_Driver/Inc/stm32n6xx_ll_bus.h **** /**
1203:STM32Cube_FW_N6/Drivers/STM32N6xx_HAL_Driver/Inc/stm32n6xx_ll_bus.h ****   * @brief  Disable AHB3 peripherals clock.
1204:STM32Cube_FW_N6/Drivers/STM32N6xx_HAL_Driver/Inc/stm32n6xx_ll_bus.h ****   * @rmtoll AHB3ENCR     RNGENC        LL_AHB3_GRP1_DisableClock\n
1205:STM32Cube_FW_N6/Drivers/STM32N6xx_HAL_Driver/Inc/stm32n6xx_ll_bus.h ****   *         AHB3ENCR     HASHENC       LL_AHB3_GRP1_DisableClock\n
1206:STM32Cube_FW_N6/Drivers/STM32N6xx_HAL_Driver/Inc/stm32n6xx_ll_bus.h ****   *         AHB3ENCR     CRYPENC       LL_AHB3_GRP1_DisableClock\n  (*)
1207:STM32Cube_FW_N6/Drivers/STM32N6xx_HAL_Driver/Inc/stm32n6xx_ll_bus.h ****   *         AHB3ENCR     SAESENC       LL_AHB3_GRP1_DisableClock\n  (*)
1208:STM32Cube_FW_N6/Drivers/STM32N6xx_HAL_Driver/Inc/stm32n6xx_ll_bus.h ****   *         AHB3ENCR     PKAENC        LL_AHB3_GRP1_DisableClock\n
1209:STM32Cube_FW_N6/Drivers/STM32N6xx_HAL_Driver/Inc/stm32n6xx_ll_bus.h ****   *         AHB3ENCR     RIFSCENC      LL_AHB3_GRP1_DisableClock\n
1210:STM32Cube_FW_N6/Drivers/STM32N6xx_HAL_Driver/Inc/stm32n6xx_ll_bus.h ****   *         AHB3ENCR     RISAFENC      LL_AHB3_GRP1_DisableClock\n
1211:STM32Cube_FW_N6/Drivers/STM32N6xx_HAL_Driver/Inc/stm32n6xx_ll_bus.h ****   *         AHB3ENCR     IACENC        LL_AHB3_GRP1_DisableClock
1212:STM32Cube_FW_N6/Drivers/STM32N6xx_HAL_Driver/Inc/stm32n6xx_ll_bus.h ****   * @param  Periphs This parameter can be a combination of the following values:
1213:STM32Cube_FW_N6/Drivers/STM32N6xx_HAL_Driver/Inc/stm32n6xx_ll_bus.h ****   *         @arg @ref LL_AHB3_GRP1_PERIPH_RNG
1214:STM32Cube_FW_N6/Drivers/STM32N6xx_HAL_Driver/Inc/stm32n6xx_ll_bus.h ****   *         @arg @ref LL_AHB3_GRP1_PERIPH_HASH
1215:STM32Cube_FW_N6/Drivers/STM32N6xx_HAL_Driver/Inc/stm32n6xx_ll_bus.h ****   *         @arg @ref LL_AHB3_GRP1_PERIPH_CRYP (*)
1216:STM32Cube_FW_N6/Drivers/STM32N6xx_HAL_Driver/Inc/stm32n6xx_ll_bus.h ****   *         @arg @ref LL_AHB3_GRP1_PERIPH_SAES (*)
1217:STM32Cube_FW_N6/Drivers/STM32N6xx_HAL_Driver/Inc/stm32n6xx_ll_bus.h ****   *         @arg @ref LL_AHB3_GRP1_PERIPH_PKA
1218:STM32Cube_FW_N6/Drivers/STM32N6xx_HAL_Driver/Inc/stm32n6xx_ll_bus.h ****   *         @arg @ref LL_AHB3_GRP1_PERIPH_RIFSC
1219:STM32Cube_FW_N6/Drivers/STM32N6xx_HAL_Driver/Inc/stm32n6xx_ll_bus.h ****   *         @arg @ref LL_AHB3_GRP1_PERIPH_RISAF
1220:STM32Cube_FW_N6/Drivers/STM32N6xx_HAL_Driver/Inc/stm32n6xx_ll_bus.h ****   *         @arg @ref LL_AHB3_GRP1_PERIPH_IAC
1221:STM32Cube_FW_N6/Drivers/STM32N6xx_HAL_Driver/Inc/stm32n6xx_ll_bus.h ****   *
1222:STM32Cube_FW_N6/Drivers/STM32N6xx_HAL_Driver/Inc/stm32n6xx_ll_bus.h ****   *         (*) value not defined in all devices.
1223:STM32Cube_FW_N6/Drivers/STM32N6xx_HAL_Driver/Inc/stm32n6xx_ll_bus.h ****   * @retval None
1224:STM32Cube_FW_N6/Drivers/STM32N6xx_HAL_Driver/Inc/stm32n6xx_ll_bus.h ****   */
1225:STM32Cube_FW_N6/Drivers/STM32N6xx_HAL_Driver/Inc/stm32n6xx_ll_bus.h **** __STATIC_INLINE void LL_AHB3_GRP1_DisableClock(uint32_t Periphs)
1226:STM32Cube_FW_N6/Drivers/STM32N6xx_HAL_Driver/Inc/stm32n6xx_ll_bus.h **** {
1227:STM32Cube_FW_N6/Drivers/STM32N6xx_HAL_Driver/Inc/stm32n6xx_ll_bus.h ****   WRITE_REG(RCC->AHB3ENCR, Periphs);
1228:STM32Cube_FW_N6/Drivers/STM32N6xx_HAL_Driver/Inc/stm32n6xx_ll_bus.h **** }
1229:STM32Cube_FW_N6/Drivers/STM32N6xx_HAL_Driver/Inc/stm32n6xx_ll_bus.h **** 
1230:STM32Cube_FW_N6/Drivers/STM32N6xx_HAL_Driver/Inc/stm32n6xx_ll_bus.h **** /**
1231:STM32Cube_FW_N6/Drivers/STM32N6xx_HAL_Driver/Inc/stm32n6xx_ll_bus.h ****   * @brief  Force AHB3 peripherals reset.
1232:STM32Cube_FW_N6/Drivers/STM32N6xx_HAL_Driver/Inc/stm32n6xx_ll_bus.h ****   * @rmtoll AHB3RSTSR    RNGRSTS       LL_AHB3_GRP1_ForceReset\n
1233:STM32Cube_FW_N6/Drivers/STM32N6xx_HAL_Driver/Inc/stm32n6xx_ll_bus.h ****   *         AHB3RSTSR    HASHRSTS      LL_AHB3_GRP1_ForceReset\n
1234:STM32Cube_FW_N6/Drivers/STM32N6xx_HAL_Driver/Inc/stm32n6xx_ll_bus.h ****   *         AHB3RSTSR    CRYPRSTS      LL_AHB3_GRP1_ForceReset\n  (*)
1235:STM32Cube_FW_N6/Drivers/STM32N6xx_HAL_Driver/Inc/stm32n6xx_ll_bus.h ****   *         AHB3RSTSR    SAESRSTS      LL_AHB3_GRP1_ForceReset\n  (*)
1236:STM32Cube_FW_N6/Drivers/STM32N6xx_HAL_Driver/Inc/stm32n6xx_ll_bus.h ****   *         AHB3RSTSR    PKARSTS       LL_AHB3_GRP1_ForceReset\n
1237:STM32Cube_FW_N6/Drivers/STM32N6xx_HAL_Driver/Inc/stm32n6xx_ll_bus.h ****   *         AHB3RSTSR    IACRSTS       LL_AHB3_GRP1_ForceReset
ARM GAS  C:\Users\DJESSOU\AppData\Local\Temp\cc3dm0Vf.s 			page 93


1238:STM32Cube_FW_N6/Drivers/STM32N6xx_HAL_Driver/Inc/stm32n6xx_ll_bus.h ****   * @param  Periphs This parameter can be a combination of the following values:
1239:STM32Cube_FW_N6/Drivers/STM32N6xx_HAL_Driver/Inc/stm32n6xx_ll_bus.h ****   *         @arg @ref LL_AHB3_GRP1_PERIPH_RNG
1240:STM32Cube_FW_N6/Drivers/STM32N6xx_HAL_Driver/Inc/stm32n6xx_ll_bus.h ****   *         @arg @ref LL_AHB3_GRP1_PERIPH_HASH
1241:STM32Cube_FW_N6/Drivers/STM32N6xx_HAL_Driver/Inc/stm32n6xx_ll_bus.h ****   *         @arg @ref LL_AHB3_GRP1_PERIPH_CRYP (*)
1242:STM32Cube_FW_N6/Drivers/STM32N6xx_HAL_Driver/Inc/stm32n6xx_ll_bus.h ****   *         @arg @ref LL_AHB3_GRP1_PERIPH_SAES (*)
1243:STM32Cube_FW_N6/Drivers/STM32N6xx_HAL_Driver/Inc/stm32n6xx_ll_bus.h ****   *         @arg @ref LL_AHB3_GRP1_PERIPH_PKA
1244:STM32Cube_FW_N6/Drivers/STM32N6xx_HAL_Driver/Inc/stm32n6xx_ll_bus.h ****   *         @arg @ref LL_AHB3_GRP1_PERIPH_IAC
1245:STM32Cube_FW_N6/Drivers/STM32N6xx_HAL_Driver/Inc/stm32n6xx_ll_bus.h ****   *
1246:STM32Cube_FW_N6/Drivers/STM32N6xx_HAL_Driver/Inc/stm32n6xx_ll_bus.h ****   *         (*) value not defined in all devices.
1247:STM32Cube_FW_N6/Drivers/STM32N6xx_HAL_Driver/Inc/stm32n6xx_ll_bus.h ****   * @retval None
1248:STM32Cube_FW_N6/Drivers/STM32N6xx_HAL_Driver/Inc/stm32n6xx_ll_bus.h ****   */
1249:STM32Cube_FW_N6/Drivers/STM32N6xx_HAL_Driver/Inc/stm32n6xx_ll_bus.h **** __STATIC_INLINE void LL_AHB3_GRP1_ForceReset(uint32_t Periphs)
1250:STM32Cube_FW_N6/Drivers/STM32N6xx_HAL_Driver/Inc/stm32n6xx_ll_bus.h **** {
1251:STM32Cube_FW_N6/Drivers/STM32N6xx_HAL_Driver/Inc/stm32n6xx_ll_bus.h ****   WRITE_REG(RCC->AHB3RSTSR, Periphs);
1252:STM32Cube_FW_N6/Drivers/STM32N6xx_HAL_Driver/Inc/stm32n6xx_ll_bus.h **** }
1253:STM32Cube_FW_N6/Drivers/STM32N6xx_HAL_Driver/Inc/stm32n6xx_ll_bus.h **** 
1254:STM32Cube_FW_N6/Drivers/STM32N6xx_HAL_Driver/Inc/stm32n6xx_ll_bus.h **** /**
1255:STM32Cube_FW_N6/Drivers/STM32N6xx_HAL_Driver/Inc/stm32n6xx_ll_bus.h ****   * @brief  Release AHB3 peripherals reset.
1256:STM32Cube_FW_N6/Drivers/STM32N6xx_HAL_Driver/Inc/stm32n6xx_ll_bus.h ****   * @rmtoll AHB3RSTCR    RNGRSTC       LL_AHB3_GRP1_ReleaseReset\n
1257:STM32Cube_FW_N6/Drivers/STM32N6xx_HAL_Driver/Inc/stm32n6xx_ll_bus.h ****   *         AHB3RSTCR    HASHRSTC      LL_AHB3_GRP1_ReleaseReset\n
1258:STM32Cube_FW_N6/Drivers/STM32N6xx_HAL_Driver/Inc/stm32n6xx_ll_bus.h ****   *         AHB3RSTCR    CRYPRSTC      LL_AHB3_GRP1_ReleaseReset\n  (*)
1259:STM32Cube_FW_N6/Drivers/STM32N6xx_HAL_Driver/Inc/stm32n6xx_ll_bus.h ****   *         AHB3RSTCR    SAESRSTC      LL_AHB3_GRP1_ReleaseReset\n  (*)
1260:STM32Cube_FW_N6/Drivers/STM32N6xx_HAL_Driver/Inc/stm32n6xx_ll_bus.h ****   *         AHB3RSTCR    PKARSTC       LL_AHB3_GRP1_ReleaseReset\n
1261:STM32Cube_FW_N6/Drivers/STM32N6xx_HAL_Driver/Inc/stm32n6xx_ll_bus.h ****   *         AHB3RSTCR    IACRSTC       LL_AHB3_GRP1_ReleaseReset
1262:STM32Cube_FW_N6/Drivers/STM32N6xx_HAL_Driver/Inc/stm32n6xx_ll_bus.h ****   * @param  Periphs This parameter can be a combination of the following values:
1263:STM32Cube_FW_N6/Drivers/STM32N6xx_HAL_Driver/Inc/stm32n6xx_ll_bus.h ****   *         @arg @ref LL_AHB3_GRP1_PERIPH_RNG
1264:STM32Cube_FW_N6/Drivers/STM32N6xx_HAL_Driver/Inc/stm32n6xx_ll_bus.h ****   *         @arg @ref LL_AHB3_GRP1_PERIPH_HASH
1265:STM32Cube_FW_N6/Drivers/STM32N6xx_HAL_Driver/Inc/stm32n6xx_ll_bus.h ****   *         @arg @ref LL_AHB3_GRP1_PERIPH_CRYP (*)
1266:STM32Cube_FW_N6/Drivers/STM32N6xx_HAL_Driver/Inc/stm32n6xx_ll_bus.h ****   *         @arg @ref LL_AHB3_GRP1_PERIPH_SAES (*)
1267:STM32Cube_FW_N6/Drivers/STM32N6xx_HAL_Driver/Inc/stm32n6xx_ll_bus.h ****   *         @arg @ref LL_AHB3_GRP1_PERIPH_PKA
1268:STM32Cube_FW_N6/Drivers/STM32N6xx_HAL_Driver/Inc/stm32n6xx_ll_bus.h ****   *         @arg @ref LL_AHB3_GRP1_PERIPH_IAC
1269:STM32Cube_FW_N6/Drivers/STM32N6xx_HAL_Driver/Inc/stm32n6xx_ll_bus.h ****   *
1270:STM32Cube_FW_N6/Drivers/STM32N6xx_HAL_Driver/Inc/stm32n6xx_ll_bus.h ****   *         (*) value not defined in all devices.
1271:STM32Cube_FW_N6/Drivers/STM32N6xx_HAL_Driver/Inc/stm32n6xx_ll_bus.h ****   * @retval None
1272:STM32Cube_FW_N6/Drivers/STM32N6xx_HAL_Driver/Inc/stm32n6xx_ll_bus.h ****   */
1273:STM32Cube_FW_N6/Drivers/STM32N6xx_HAL_Driver/Inc/stm32n6xx_ll_bus.h **** __STATIC_INLINE void LL_AHB3_GRP1_ReleaseReset(uint32_t Periphs)
1274:STM32Cube_FW_N6/Drivers/STM32N6xx_HAL_Driver/Inc/stm32n6xx_ll_bus.h **** {
1275:STM32Cube_FW_N6/Drivers/STM32N6xx_HAL_Driver/Inc/stm32n6xx_ll_bus.h ****   WRITE_REG(RCC->AHB3RSTCR, Periphs);
1276:STM32Cube_FW_N6/Drivers/STM32N6xx_HAL_Driver/Inc/stm32n6xx_ll_bus.h **** }
1277:STM32Cube_FW_N6/Drivers/STM32N6xx_HAL_Driver/Inc/stm32n6xx_ll_bus.h **** 
1278:STM32Cube_FW_N6/Drivers/STM32N6xx_HAL_Driver/Inc/stm32n6xx_ll_bus.h **** /**
1279:STM32Cube_FW_N6/Drivers/STM32N6xx_HAL_Driver/Inc/stm32n6xx_ll_bus.h ****   * @brief  Enable AHB3 peripherals clock during Low Power mode.
1280:STM32Cube_FW_N6/Drivers/STM32N6xx_HAL_Driver/Inc/stm32n6xx_ll_bus.h ****   * @rmtoll AHB3LPENSR   RNGLPENS      LL_AHB3_GRP1_EnableClockLowPower\n
1281:STM32Cube_FW_N6/Drivers/STM32N6xx_HAL_Driver/Inc/stm32n6xx_ll_bus.h ****   *         AHB3LPENSR   HASHLPENS     LL_AHB3_GRP1_EnableClockLowPower\n
1282:STM32Cube_FW_N6/Drivers/STM32N6xx_HAL_Driver/Inc/stm32n6xx_ll_bus.h ****   *         AHB3LPENSR   CRYPLPENS     LL_AHB3_GRP1_EnableClockLowPower\n  (*)
1283:STM32Cube_FW_N6/Drivers/STM32N6xx_HAL_Driver/Inc/stm32n6xx_ll_bus.h ****   *         AHB3LPENSR   SAESLPENS     LL_AHB3_GRP1_EnableClockLowPower\n  (*)
1284:STM32Cube_FW_N6/Drivers/STM32N6xx_HAL_Driver/Inc/stm32n6xx_ll_bus.h ****   *         AHB3LPENSR   PKALPENS      LL_AHB3_GRP1_EnableClockLowPower\n
1285:STM32Cube_FW_N6/Drivers/STM32N6xx_HAL_Driver/Inc/stm32n6xx_ll_bus.h ****   *         AHB3LPENSR   RIFSCLPENS    LL_AHB3_GRP1_EnableClockLowPower\n
1286:STM32Cube_FW_N6/Drivers/STM32N6xx_HAL_Driver/Inc/stm32n6xx_ll_bus.h ****   *         AHB3LPENSR   RISAFLPENS    LL_AHB3_GRP1_EnableClockLowPower\n
1287:STM32Cube_FW_N6/Drivers/STM32N6xx_HAL_Driver/Inc/stm32n6xx_ll_bus.h ****   *         AHB3LPENSR   IACLPENS      LL_AHB3_GRP1_EnableClockLowPower
1288:STM32Cube_FW_N6/Drivers/STM32N6xx_HAL_Driver/Inc/stm32n6xx_ll_bus.h ****   * @param  Periphs This parameter can be a combination of the following values:
1289:STM32Cube_FW_N6/Drivers/STM32N6xx_HAL_Driver/Inc/stm32n6xx_ll_bus.h ****   *         @arg @ref LL_AHB3_GRP1_PERIPH_RNG
1290:STM32Cube_FW_N6/Drivers/STM32N6xx_HAL_Driver/Inc/stm32n6xx_ll_bus.h ****   *         @arg @ref LL_AHB3_GRP1_PERIPH_HASH
1291:STM32Cube_FW_N6/Drivers/STM32N6xx_HAL_Driver/Inc/stm32n6xx_ll_bus.h ****   *         @arg @ref LL_AHB3_GRP1_PERIPH_CRYP (*)
1292:STM32Cube_FW_N6/Drivers/STM32N6xx_HAL_Driver/Inc/stm32n6xx_ll_bus.h ****   *         @arg @ref LL_AHB3_GRP1_PERIPH_SAES (*)
1293:STM32Cube_FW_N6/Drivers/STM32N6xx_HAL_Driver/Inc/stm32n6xx_ll_bus.h ****   *         @arg @ref LL_AHB3_GRP1_PERIPH_PKA
1294:STM32Cube_FW_N6/Drivers/STM32N6xx_HAL_Driver/Inc/stm32n6xx_ll_bus.h ****   *         @arg @ref LL_AHB3_GRP1_PERIPH_RIFSC
ARM GAS  C:\Users\DJESSOU\AppData\Local\Temp\cc3dm0Vf.s 			page 94


1295:STM32Cube_FW_N6/Drivers/STM32N6xx_HAL_Driver/Inc/stm32n6xx_ll_bus.h ****   *         @arg @ref LL_AHB3_GRP1_PERIPH_RISAF
1296:STM32Cube_FW_N6/Drivers/STM32N6xx_HAL_Driver/Inc/stm32n6xx_ll_bus.h ****   *         @arg @ref LL_AHB3_GRP1_PERIPH_IAC
1297:STM32Cube_FW_N6/Drivers/STM32N6xx_HAL_Driver/Inc/stm32n6xx_ll_bus.h ****   *
1298:STM32Cube_FW_N6/Drivers/STM32N6xx_HAL_Driver/Inc/stm32n6xx_ll_bus.h ****   *         (*) value not defined in all devices.
1299:STM32Cube_FW_N6/Drivers/STM32N6xx_HAL_Driver/Inc/stm32n6xx_ll_bus.h ****   * @retval None
1300:STM32Cube_FW_N6/Drivers/STM32N6xx_HAL_Driver/Inc/stm32n6xx_ll_bus.h ****   */
1301:STM32Cube_FW_N6/Drivers/STM32N6xx_HAL_Driver/Inc/stm32n6xx_ll_bus.h **** __STATIC_INLINE void LL_AHB3_GRP1_EnableClockLowPower(uint32_t Periphs)
1302:STM32Cube_FW_N6/Drivers/STM32N6xx_HAL_Driver/Inc/stm32n6xx_ll_bus.h **** {
1303:STM32Cube_FW_N6/Drivers/STM32N6xx_HAL_Driver/Inc/stm32n6xx_ll_bus.h ****   __IO uint32_t tmpreg;
1304:STM32Cube_FW_N6/Drivers/STM32N6xx_HAL_Driver/Inc/stm32n6xx_ll_bus.h ****   WRITE_REG(RCC->AHB3LPENSR, Periphs);
1305:STM32Cube_FW_N6/Drivers/STM32N6xx_HAL_Driver/Inc/stm32n6xx_ll_bus.h ****   /* Delay after an RCC peripheral clock enabling */
1306:STM32Cube_FW_N6/Drivers/STM32N6xx_HAL_Driver/Inc/stm32n6xx_ll_bus.h ****   tmpreg = READ_REG(RCC->AHB3LPENR);
1307:STM32Cube_FW_N6/Drivers/STM32N6xx_HAL_Driver/Inc/stm32n6xx_ll_bus.h ****   (void)tmpreg;
1308:STM32Cube_FW_N6/Drivers/STM32N6xx_HAL_Driver/Inc/stm32n6xx_ll_bus.h **** }
1309:STM32Cube_FW_N6/Drivers/STM32N6xx_HAL_Driver/Inc/stm32n6xx_ll_bus.h **** 
1310:STM32Cube_FW_N6/Drivers/STM32N6xx_HAL_Driver/Inc/stm32n6xx_ll_bus.h **** /**
1311:STM32Cube_FW_N6/Drivers/STM32N6xx_HAL_Driver/Inc/stm32n6xx_ll_bus.h ****   * @brief  Check if AHB3 peripheral clock during Low Power mode is enabled or not .
1312:STM32Cube_FW_N6/Drivers/STM32N6xx_HAL_Driver/Inc/stm32n6xx_ll_bus.h ****   * @rmtoll AHB3LPENR    RNGLPEN       LL_AHB3_GRP1_IsEnabledClockLowPower\n
1313:STM32Cube_FW_N6/Drivers/STM32N6xx_HAL_Driver/Inc/stm32n6xx_ll_bus.h ****   *         AHB3LPENR    HASHLPEN      LL_AHB3_GRP1_IsEnabledClockLowPower\n
1314:STM32Cube_FW_N6/Drivers/STM32N6xx_HAL_Driver/Inc/stm32n6xx_ll_bus.h ****   *         AHB3LPENR    CRYPLPEN      LL_AHB3_GRP1_IsEnabledClockLowPower\n  (*)
1315:STM32Cube_FW_N6/Drivers/STM32N6xx_HAL_Driver/Inc/stm32n6xx_ll_bus.h ****   *         AHB3LPENR    SAESLPEN      LL_AHB3_GRP1_IsEnabledClockLowPower\n  (*)
1316:STM32Cube_FW_N6/Drivers/STM32N6xx_HAL_Driver/Inc/stm32n6xx_ll_bus.h ****   *         AHB3LPENR    PKALPEN       LL_AHB3_GRP1_IsEnabledClockLowPower\n
1317:STM32Cube_FW_N6/Drivers/STM32N6xx_HAL_Driver/Inc/stm32n6xx_ll_bus.h ****   *         AHB3LPENR    RIFSCLPEN     LL_AHB3_GRP1_IsEnabledClockLowPower\n
1318:STM32Cube_FW_N6/Drivers/STM32N6xx_HAL_Driver/Inc/stm32n6xx_ll_bus.h ****   *         AHB3LPENR    RISAFLPEN     LL_AHB3_GRP1_IsEnabledClockLowPower\n
1319:STM32Cube_FW_N6/Drivers/STM32N6xx_HAL_Driver/Inc/stm32n6xx_ll_bus.h ****   *         AHB3LPENR    IACLPEN       LL_AHB3_GRP1_IsEnabledClockLowPower
1320:STM32Cube_FW_N6/Drivers/STM32N6xx_HAL_Driver/Inc/stm32n6xx_ll_bus.h ****   * @param  Periphs This parameter can be a combination of the following values:
1321:STM32Cube_FW_N6/Drivers/STM32N6xx_HAL_Driver/Inc/stm32n6xx_ll_bus.h ****   *         @arg @ref LL_AHB3_GRP1_PERIPH_RNG
1322:STM32Cube_FW_N6/Drivers/STM32N6xx_HAL_Driver/Inc/stm32n6xx_ll_bus.h ****   *         @arg @ref LL_AHB3_GRP1_PERIPH_HASH
1323:STM32Cube_FW_N6/Drivers/STM32N6xx_HAL_Driver/Inc/stm32n6xx_ll_bus.h ****   *         @arg @ref LL_AHB3_GRP1_PERIPH_CRYP (*)
1324:STM32Cube_FW_N6/Drivers/STM32N6xx_HAL_Driver/Inc/stm32n6xx_ll_bus.h ****   *         @arg @ref LL_AHB3_GRP1_PERIPH_SAES (*)
1325:STM32Cube_FW_N6/Drivers/STM32N6xx_HAL_Driver/Inc/stm32n6xx_ll_bus.h ****   *         @arg @ref LL_AHB3_GRP1_PERIPH_PKA
1326:STM32Cube_FW_N6/Drivers/STM32N6xx_HAL_Driver/Inc/stm32n6xx_ll_bus.h ****   *         @arg @ref LL_AHB3_GRP1_PERIPH_RIFSC
1327:STM32Cube_FW_N6/Drivers/STM32N6xx_HAL_Driver/Inc/stm32n6xx_ll_bus.h ****   *         @arg @ref LL_AHB3_GRP1_PERIPH_RISAF
1328:STM32Cube_FW_N6/Drivers/STM32N6xx_HAL_Driver/Inc/stm32n6xx_ll_bus.h ****   *         @arg @ref LL_AHB3_GRP1_PERIPH_IAC
1329:STM32Cube_FW_N6/Drivers/STM32N6xx_HAL_Driver/Inc/stm32n6xx_ll_bus.h ****   *
1330:STM32Cube_FW_N6/Drivers/STM32N6xx_HAL_Driver/Inc/stm32n6xx_ll_bus.h ****   *         (*) value not defined in all devices.
1331:STM32Cube_FW_N6/Drivers/STM32N6xx_HAL_Driver/Inc/stm32n6xx_ll_bus.h ****   * @retval uint32_t
1332:STM32Cube_FW_N6/Drivers/STM32N6xx_HAL_Driver/Inc/stm32n6xx_ll_bus.h ****   */
1333:STM32Cube_FW_N6/Drivers/STM32N6xx_HAL_Driver/Inc/stm32n6xx_ll_bus.h **** __STATIC_INLINE uint32_t LL_AHB3_GRP1_IsEnabledClockLowPower(uint32_t Periphs)
1334:STM32Cube_FW_N6/Drivers/STM32N6xx_HAL_Driver/Inc/stm32n6xx_ll_bus.h **** {
1335:STM32Cube_FW_N6/Drivers/STM32N6xx_HAL_Driver/Inc/stm32n6xx_ll_bus.h ****   return ((READ_BIT(RCC->AHB3LPENR, Periphs) == Periphs) ? 1UL : 0UL);
1336:STM32Cube_FW_N6/Drivers/STM32N6xx_HAL_Driver/Inc/stm32n6xx_ll_bus.h **** }
1337:STM32Cube_FW_N6/Drivers/STM32N6xx_HAL_Driver/Inc/stm32n6xx_ll_bus.h **** 
1338:STM32Cube_FW_N6/Drivers/STM32N6xx_HAL_Driver/Inc/stm32n6xx_ll_bus.h **** /**
1339:STM32Cube_FW_N6/Drivers/STM32N6xx_HAL_Driver/Inc/stm32n6xx_ll_bus.h ****   * @brief  Disable AHB3 peripherals clock during Low Power mode.
1340:STM32Cube_FW_N6/Drivers/STM32N6xx_HAL_Driver/Inc/stm32n6xx_ll_bus.h ****   * @rmtoll AHB3LPENCR   RNGLPENC      LL_AHB3_GRP1_DisableClockLowPower\n
1341:STM32Cube_FW_N6/Drivers/STM32N6xx_HAL_Driver/Inc/stm32n6xx_ll_bus.h ****   *         AHB3LPENCR   HASHLPENC     LL_AHB3_GRP1_DisableClockLowPower\n
1342:STM32Cube_FW_N6/Drivers/STM32N6xx_HAL_Driver/Inc/stm32n6xx_ll_bus.h ****   *         AHB3LPENCR   CRYPLPENC     LL_AHB3_GRP1_DisableClockLowPower\n  (*)
1343:STM32Cube_FW_N6/Drivers/STM32N6xx_HAL_Driver/Inc/stm32n6xx_ll_bus.h ****   *         AHB3LPENCR   SAESLPENC     LL_AHB3_GRP1_DisableClockLowPower\n  (*)
1344:STM32Cube_FW_N6/Drivers/STM32N6xx_HAL_Driver/Inc/stm32n6xx_ll_bus.h ****   *         AHB3LPENCR   PKALPENC      LL_AHB3_GRP1_DisableClockLowPower\n
1345:STM32Cube_FW_N6/Drivers/STM32N6xx_HAL_Driver/Inc/stm32n6xx_ll_bus.h ****   *         AHB3LPENCR   RIFSCLPENC    LL_AHB3_GRP1_DisableClockLowPower\n
1346:STM32Cube_FW_N6/Drivers/STM32N6xx_HAL_Driver/Inc/stm32n6xx_ll_bus.h ****   *         AHB3LPENCR   RISAFLPENC    LL_AHB3_GRP1_DisableClockLowPower\n
1347:STM32Cube_FW_N6/Drivers/STM32N6xx_HAL_Driver/Inc/stm32n6xx_ll_bus.h ****   *         AHB3LPENCR   IACLPENC      LL_AHB3_GRP1_DisableClockLowPower
1348:STM32Cube_FW_N6/Drivers/STM32N6xx_HAL_Driver/Inc/stm32n6xx_ll_bus.h ****   * @param  Periphs This parameter can be a combination of the following values:
1349:STM32Cube_FW_N6/Drivers/STM32N6xx_HAL_Driver/Inc/stm32n6xx_ll_bus.h ****   *         @arg @ref LL_AHB3_GRP1_PERIPH_RNG
1350:STM32Cube_FW_N6/Drivers/STM32N6xx_HAL_Driver/Inc/stm32n6xx_ll_bus.h ****   *         @arg @ref LL_AHB3_GRP1_PERIPH_HASH
1351:STM32Cube_FW_N6/Drivers/STM32N6xx_HAL_Driver/Inc/stm32n6xx_ll_bus.h ****   *         @arg @ref LL_AHB3_GRP1_PERIPH_CRYP (*)
ARM GAS  C:\Users\DJESSOU\AppData\Local\Temp\cc3dm0Vf.s 			page 95


1352:STM32Cube_FW_N6/Drivers/STM32N6xx_HAL_Driver/Inc/stm32n6xx_ll_bus.h ****   *         @arg @ref LL_AHB3_GRP1_PERIPH_SAES (*)
1353:STM32Cube_FW_N6/Drivers/STM32N6xx_HAL_Driver/Inc/stm32n6xx_ll_bus.h ****   *         @arg @ref LL_AHB3_GRP1_PERIPH_PKA
1354:STM32Cube_FW_N6/Drivers/STM32N6xx_HAL_Driver/Inc/stm32n6xx_ll_bus.h ****   *         @arg @ref LL_AHB3_GRP1_PERIPH_RIFSC
1355:STM32Cube_FW_N6/Drivers/STM32N6xx_HAL_Driver/Inc/stm32n6xx_ll_bus.h ****   *         @arg @ref LL_AHB3_GRP1_PERIPH_RISAF
1356:STM32Cube_FW_N6/Drivers/STM32N6xx_HAL_Driver/Inc/stm32n6xx_ll_bus.h ****   *         @arg @ref LL_AHB3_GRP1_PERIPH_IAC
1357:STM32Cube_FW_N6/Drivers/STM32N6xx_HAL_Driver/Inc/stm32n6xx_ll_bus.h ****   *
1358:STM32Cube_FW_N6/Drivers/STM32N6xx_HAL_Driver/Inc/stm32n6xx_ll_bus.h ****   *         (*) value not defined in all devices.
1359:STM32Cube_FW_N6/Drivers/STM32N6xx_HAL_Driver/Inc/stm32n6xx_ll_bus.h ****   * @retval None
1360:STM32Cube_FW_N6/Drivers/STM32N6xx_HAL_Driver/Inc/stm32n6xx_ll_bus.h ****   */
1361:STM32Cube_FW_N6/Drivers/STM32N6xx_HAL_Driver/Inc/stm32n6xx_ll_bus.h **** __STATIC_INLINE void LL_AHB3_GRP1_DisableClockLowPower(uint32_t Periphs)
1362:STM32Cube_FW_N6/Drivers/STM32N6xx_HAL_Driver/Inc/stm32n6xx_ll_bus.h **** {
1363:STM32Cube_FW_N6/Drivers/STM32N6xx_HAL_Driver/Inc/stm32n6xx_ll_bus.h ****   WRITE_REG(RCC->AHB3LPENCR, Periphs);
1364:STM32Cube_FW_N6/Drivers/STM32N6xx_HAL_Driver/Inc/stm32n6xx_ll_bus.h **** }
1365:STM32Cube_FW_N6/Drivers/STM32N6xx_HAL_Driver/Inc/stm32n6xx_ll_bus.h **** 
1366:STM32Cube_FW_N6/Drivers/STM32N6xx_HAL_Driver/Inc/stm32n6xx_ll_bus.h **** /**
1367:STM32Cube_FW_N6/Drivers/STM32N6xx_HAL_Driver/Inc/stm32n6xx_ll_bus.h ****   * @}
1368:STM32Cube_FW_N6/Drivers/STM32N6xx_HAL_Driver/Inc/stm32n6xx_ll_bus.h ****   */
1369:STM32Cube_FW_N6/Drivers/STM32N6xx_HAL_Driver/Inc/stm32n6xx_ll_bus.h **** 
1370:STM32Cube_FW_N6/Drivers/STM32N6xx_HAL_Driver/Inc/stm32n6xx_ll_bus.h **** /** @defgroup BUS_LL_EF_AHB4 AHB4
1371:STM32Cube_FW_N6/Drivers/STM32N6xx_HAL_Driver/Inc/stm32n6xx_ll_bus.h ****   * @{
1372:STM32Cube_FW_N6/Drivers/STM32N6xx_HAL_Driver/Inc/stm32n6xx_ll_bus.h ****   */
1373:STM32Cube_FW_N6/Drivers/STM32N6xx_HAL_Driver/Inc/stm32n6xx_ll_bus.h **** 
1374:STM32Cube_FW_N6/Drivers/STM32N6xx_HAL_Driver/Inc/stm32n6xx_ll_bus.h **** /**
1375:STM32Cube_FW_N6/Drivers/STM32N6xx_HAL_Driver/Inc/stm32n6xx_ll_bus.h ****   * @brief  Enable AHB4 peripherals clock.
1376:STM32Cube_FW_N6/Drivers/STM32N6xx_HAL_Driver/Inc/stm32n6xx_ll_bus.h ****   * @rmtoll AHB4ENSR     GPIOAENS      LL_AHB4_GRP1_EnableClock\n
1377:STM32Cube_FW_N6/Drivers/STM32N6xx_HAL_Driver/Inc/stm32n6xx_ll_bus.h ****   *         AHB4ENSR     GPIOBENS      LL_AHB4_GRP1_EnableClock\n
1378:STM32Cube_FW_N6/Drivers/STM32N6xx_HAL_Driver/Inc/stm32n6xx_ll_bus.h ****   *         AHB4ENSR     GPIOCENS      LL_AHB4_GRP1_EnableClock\n
1379:STM32Cube_FW_N6/Drivers/STM32N6xx_HAL_Driver/Inc/stm32n6xx_ll_bus.h ****   *         AHB4ENSR     GPIODENS      LL_AHB4_GRP1_EnableClock\n
1380:STM32Cube_FW_N6/Drivers/STM32N6xx_HAL_Driver/Inc/stm32n6xx_ll_bus.h ****   *         AHB4ENSR     GPIOEENS      LL_AHB4_GRP1_EnableClock\n
1381:STM32Cube_FW_N6/Drivers/STM32N6xx_HAL_Driver/Inc/stm32n6xx_ll_bus.h ****   *         AHB4ENSR     GPIOFENS      LL_AHB4_GRP1_EnableClock\n
1382:STM32Cube_FW_N6/Drivers/STM32N6xx_HAL_Driver/Inc/stm32n6xx_ll_bus.h ****   *         AHB4ENSR     GPIOGENS      LL_AHB4_GRP1_EnableClock\n
1383:STM32Cube_FW_N6/Drivers/STM32N6xx_HAL_Driver/Inc/stm32n6xx_ll_bus.h ****   *         AHB4ENSR     GPIOHENS      LL_AHB4_GRP1_EnableClock\n
1384:STM32Cube_FW_N6/Drivers/STM32N6xx_HAL_Driver/Inc/stm32n6xx_ll_bus.h ****   *         AHB4ENSR     GPIONENS      LL_AHB4_GRP1_EnableClock\n
1385:STM32Cube_FW_N6/Drivers/STM32N6xx_HAL_Driver/Inc/stm32n6xx_ll_bus.h ****   *         AHB4ENSR     GPIOOENS      LL_AHB4_GRP1_EnableClock\n
1386:STM32Cube_FW_N6/Drivers/STM32N6xx_HAL_Driver/Inc/stm32n6xx_ll_bus.h ****   *         AHB4ENSR     GPIOPENS      LL_AHB4_GRP1_EnableClock\n
1387:STM32Cube_FW_N6/Drivers/STM32N6xx_HAL_Driver/Inc/stm32n6xx_ll_bus.h ****   *         AHB4ENSR     GPIOQENS      LL_AHB4_GRP1_EnableClock\n
1388:STM32Cube_FW_N6/Drivers/STM32N6xx_HAL_Driver/Inc/stm32n6xx_ll_bus.h ****   *         AHB4ENSR     PWRENS        LL_AHB4_GRP1_EnableClock\n
1389:STM32Cube_FW_N6/Drivers/STM32N6xx_HAL_Driver/Inc/stm32n6xx_ll_bus.h ****   *         AHB4ENSR     CRCENS        LL_AHB4_GRP1_EnableClock
1390:STM32Cube_FW_N6/Drivers/STM32N6xx_HAL_Driver/Inc/stm32n6xx_ll_bus.h ****   * @param  Periphs This parameter can be a combination of the following values:
1391:STM32Cube_FW_N6/Drivers/STM32N6xx_HAL_Driver/Inc/stm32n6xx_ll_bus.h ****   *         @arg @ref LL_AHB4_GRP1_PERIPH_GPIOA
1392:STM32Cube_FW_N6/Drivers/STM32N6xx_HAL_Driver/Inc/stm32n6xx_ll_bus.h ****   *         @arg @ref LL_AHB4_GRP1_PERIPH_GPIOB
1393:STM32Cube_FW_N6/Drivers/STM32N6xx_HAL_Driver/Inc/stm32n6xx_ll_bus.h ****   *         @arg @ref LL_AHB4_GRP1_PERIPH_GPIOC
1394:STM32Cube_FW_N6/Drivers/STM32N6xx_HAL_Driver/Inc/stm32n6xx_ll_bus.h ****   *         @arg @ref LL_AHB4_GRP1_PERIPH_GPIOD
1395:STM32Cube_FW_N6/Drivers/STM32N6xx_HAL_Driver/Inc/stm32n6xx_ll_bus.h ****   *         @arg @ref LL_AHB4_GRP1_PERIPH_GPIOE
1396:STM32Cube_FW_N6/Drivers/STM32N6xx_HAL_Driver/Inc/stm32n6xx_ll_bus.h ****   *         @arg @ref LL_AHB4_GRP1_PERIPH_GPIOF
1397:STM32Cube_FW_N6/Drivers/STM32N6xx_HAL_Driver/Inc/stm32n6xx_ll_bus.h ****   *         @arg @ref LL_AHB4_GRP1_PERIPH_GPIOG
1398:STM32Cube_FW_N6/Drivers/STM32N6xx_HAL_Driver/Inc/stm32n6xx_ll_bus.h ****   *         @arg @ref LL_AHB4_GRP1_PERIPH_GPIOH
1399:STM32Cube_FW_N6/Drivers/STM32N6xx_HAL_Driver/Inc/stm32n6xx_ll_bus.h ****   *         @arg @ref LL_AHB4_GRP1_PERIPH_GPION
1400:STM32Cube_FW_N6/Drivers/STM32N6xx_HAL_Driver/Inc/stm32n6xx_ll_bus.h ****   *         @arg @ref LL_AHB4_GRP1_PERIPH_GPIOO
1401:STM32Cube_FW_N6/Drivers/STM32N6xx_HAL_Driver/Inc/stm32n6xx_ll_bus.h ****   *         @arg @ref LL_AHB4_GRP1_PERIPH_GPIOP
1402:STM32Cube_FW_N6/Drivers/STM32N6xx_HAL_Driver/Inc/stm32n6xx_ll_bus.h ****   *         @arg @ref LL_AHB4_GRP1_PERIPH_GPIOQ
1403:STM32Cube_FW_N6/Drivers/STM32N6xx_HAL_Driver/Inc/stm32n6xx_ll_bus.h ****   *         @arg @ref LL_AHB4_GRP1_PERIPH_PWR
1404:STM32Cube_FW_N6/Drivers/STM32N6xx_HAL_Driver/Inc/stm32n6xx_ll_bus.h ****   *         @arg @ref LL_AHB4_GRP1_PERIPH_CRC
1405:STM32Cube_FW_N6/Drivers/STM32N6xx_HAL_Driver/Inc/stm32n6xx_ll_bus.h ****   * @retval None
1406:STM32Cube_FW_N6/Drivers/STM32N6xx_HAL_Driver/Inc/stm32n6xx_ll_bus.h ****   */
1407:STM32Cube_FW_N6/Drivers/STM32N6xx_HAL_Driver/Inc/stm32n6xx_ll_bus.h **** __STATIC_INLINE void LL_AHB4_GRP1_EnableClock(uint32_t Periphs)
 1731              		.loc 2 1407 22 view .LVU663
ARM GAS  C:\Users\DJESSOU\AppData\Local\Temp\cc3dm0Vf.s 			page 96


 1732              	.LBB96:
1408:STM32Cube_FW_N6/Drivers/STM32N6xx_HAL_Driver/Inc/stm32n6xx_ll_bus.h **** {
1409:STM32Cube_FW_N6/Drivers/STM32N6xx_HAL_Driver/Inc/stm32n6xx_ll_bus.h ****   __IO uint32_t tmpreg;
 1733              		.loc 2 1409 3 view .LVU664
1410:STM32Cube_FW_N6/Drivers/STM32N6xx_HAL_Driver/Inc/stm32n6xx_ll_bus.h ****   WRITE_REG(RCC->AHB4ENSR, Periphs);
 1734              		.loc 2 1410 3 view .LVU665
 1735 000e 0823     		movs	r3, #8
 1736 0010 134C     		ldr	r4, .L138
 1737              	.LBE96:
 1738              	.LBE95:
 991:Lib/Camera_Middleware/cmw_camera.c ****   gpio_init_structure.Speed     = GPIO_SPEED_FREQ_VERY_HIGH;
 1739              		.loc 1 991 33 is_stmt 0 view .LVU666
 1740 0012 0125     		movs	r5, #1
 1741              	.LBB99:
 1742              	.LBB97:
 1743              		.loc 2 1410 3 view .LVU667
 1744 0014 C4F85C3A 		str	r3, [r4, #2652]
1411:STM32Cube_FW_N6/Drivers/STM32N6xx_HAL_Driver/Inc/stm32n6xx_ll_bus.h ****   /* Delay after an RCC peripheral clock enabling */
1412:STM32Cube_FW_N6/Drivers/STM32N6xx_HAL_Driver/Inc/stm32n6xx_ll_bus.h ****   tmpreg = READ_REG(RCC->AHB4ENR);
 1745              		.loc 2 1412 3 is_stmt 1 view .LVU668
 1746              		.loc 2 1412 12 is_stmt 0 view .LVU669
 1747 0018 D4F85C32 		ldr	r3, [r4, #604]
 1748              	.LBE97:
 1749              	.LBE99:
 991:Lib/Camera_Middleware/cmw_camera.c ****   gpio_init_structure.Speed     = GPIO_SPEED_FREQ_VERY_HIGH;
 1750              		.loc 1 991 33 view .LVU670
 1751 001c 0026     		movs	r6, #0
 1752              	.LBB100:
 1753              	.LBB98:
 1754              		.loc 2 1412 10 view .LVU671
 1755 001e 0293     		str	r3, [sp, #8]
1413:STM32Cube_FW_N6/Drivers/STM32N6xx_HAL_Driver/Inc/stm32n6xx_ll_bus.h ****   (void)tmpreg;
 1756              		.loc 2 1413 3 is_stmt 1 view .LVU672
 1757 0020 029B     		ldr	r3, [sp, #8]
 1758              	.LVL128:
 1759              		.loc 2 1413 3 is_stmt 0 view .LVU673
 1760              	.LBE98:
 1761              	.LBE100:
 986:Lib/Camera_Middleware/cmw_camera.c ****   NRST_CAM_GPIO_CLK_ENABLE();
 1762              		.loc 1 986 3 is_stmt 1 view .LVU674
 1763 0022 FFF7FEFF 		bl	HAL_PWREx_EnableVddIO4
 1764              	.LVL129:
 986:Lib/Camera_Middleware/cmw_camera.c ****   NRST_CAM_GPIO_CLK_ENABLE();
 1765              		.loc 1 986 31 discriminator 1 view .LVU675
 987:Lib/Camera_Middleware/cmw_camera.c **** 
 1766              		.loc 1 987 3 view .LVU676
 1767              	.LBB101:
 1768              	.LBI101:
1407:STM32Cube_FW_N6/Drivers/STM32N6xx_HAL_Driver/Inc/stm32n6xx_ll_bus.h **** {
 1769              		.loc 2 1407 22 view .LVU677
 1770              	.LBB102:
1409:STM32Cube_FW_N6/Drivers/STM32N6xx_HAL_Driver/Inc/stm32n6xx_ll_bus.h ****   WRITE_REG(RCC->AHB4ENSR, Periphs);
 1771              		.loc 2 1409 3 view .LVU678
1410:STM32Cube_FW_N6/Drivers/STM32N6xx_HAL_Driver/Inc/stm32n6xx_ll_bus.h ****   /* Delay after an RCC peripheral clock enabling */
 1772              		.loc 2 1410 3 view .LVU679
 1773 0026 0423     		movs	r3, #4
 1774 0028 C4F85C3A 		str	r3, [r4, #2652]
ARM GAS  C:\Users\DJESSOU\AppData\Local\Temp\cc3dm0Vf.s 			page 97


1412:STM32Cube_FW_N6/Drivers/STM32N6xx_HAL_Driver/Inc/stm32n6xx_ll_bus.h ****   (void)tmpreg;
 1775              		.loc 2 1412 3 view .LVU680
1412:STM32Cube_FW_N6/Drivers/STM32N6xx_HAL_Driver/Inc/stm32n6xx_ll_bus.h ****   (void)tmpreg;
 1776              		.loc 2 1412 12 is_stmt 0 view .LVU681
 1777 002c D4F85C22 		ldr	r2, [r4, #604]
 1778              	.LBE102:
 1779              	.LBE101:
 992:Lib/Camera_Middleware/cmw_camera.c ****   HAL_GPIO_Init(EN_CAM_PORT, &gpio_init_structure);
 1780              		.loc 1 992 33 view .LVU682
 1781 0030 0324     		movs	r4, #3
 1782              	.LBB105:
 1783              	.LBB103:
1412:STM32Cube_FW_N6/Drivers/STM32N6xx_HAL_Driver/Inc/stm32n6xx_ll_bus.h ****   (void)tmpreg;
 1784              		.loc 2 1412 10 view .LVU683
 1785 0032 0192     		str	r2, [sp, #4]
 1786              		.loc 2 1413 3 is_stmt 1 view .LVU684
 1787              	.LBE103:
 1788              	.LBE105:
 993:Lib/Camera_Middleware/cmw_camera.c **** 
 1789              		.loc 1 993 3 is_stmt 0 view .LVU685
 1790 0034 03A9     		add	r1, sp, #12
 1791 0036 0B48     		ldr	r0, .L138+4
 1792              	.LBB106:
 1793              	.LBB104:
 1794              		.loc 2 1413 3 view .LVU686
 1795 0038 019A     		ldr	r2, [sp, #4]
 1796              	.LVL130:
 1797              		.loc 2 1413 3 view .LVU687
 1798              	.LBE104:
 1799              	.LBE106:
 987:Lib/Camera_Middleware/cmw_camera.c **** 
 1800              		.loc 1 987 29 is_stmt 1 discriminator 1 view .LVU688
 989:Lib/Camera_Middleware/cmw_camera.c ****   gpio_init_structure.Pull      = GPIO_NOPULL;
 1801              		.loc 1 989 3 view .LVU689
 989:Lib/Camera_Middleware/cmw_camera.c ****   gpio_init_structure.Pull      = GPIO_NOPULL;
 1802              		.loc 1 989 33 is_stmt 0 view .LVU690
 1803 003a 0393     		str	r3, [sp, #12]
 990:Lib/Camera_Middleware/cmw_camera.c ****   gpio_init_structure.Mode      = GPIO_MODE_OUTPUT_PP;
 1804              		.loc 1 990 3 is_stmt 1 view .LVU691
 991:Lib/Camera_Middleware/cmw_camera.c ****   gpio_init_structure.Speed     = GPIO_SPEED_FREQ_VERY_HIGH;
 1805              		.loc 1 991 33 is_stmt 0 view .LVU692
 1806 003c CDE90456 		strd	r5, r6, [sp, #16]
 992:Lib/Camera_Middleware/cmw_camera.c ****   HAL_GPIO_Init(EN_CAM_PORT, &gpio_init_structure);
 1807              		.loc 1 992 3 is_stmt 1 view .LVU693
 992:Lib/Camera_Middleware/cmw_camera.c ****   HAL_GPIO_Init(EN_CAM_PORT, &gpio_init_structure);
 1808              		.loc 1 992 33 is_stmt 0 view .LVU694
 1809 0040 0694     		str	r4, [sp, #24]
 993:Lib/Camera_Middleware/cmw_camera.c **** 
 1810              		.loc 1 993 3 is_stmt 1 view .LVU695
 1811 0042 FFF7FEFF 		bl	HAL_GPIO_Init
 1812              	.LVL131:
 995:Lib/Camera_Middleware/cmw_camera.c ****   gpio_init_structure.Pull      = GPIO_NOPULL;
 1813              		.loc 1 995 3 view .LVU696
 995:Lib/Camera_Middleware/cmw_camera.c ****   gpio_init_structure.Pull      = GPIO_NOPULL;
 1814              		.loc 1 995 33 is_stmt 0 view .LVU697
 1815 0046 4FF48073 		mov	r3, #256
 999:Lib/Camera_Middleware/cmw_camera.c **** }
ARM GAS  C:\Users\DJESSOU\AppData\Local\Temp\cc3dm0Vf.s 			page 98


 1816              		.loc 1 999 3 view .LVU698
 1817 004a 0748     		ldr	r0, .L138+8
 1818 004c 03A9     		add	r1, sp, #12
 997:Lib/Camera_Middleware/cmw_camera.c ****   gpio_init_structure.Speed     = GPIO_SPEED_FREQ_VERY_HIGH;
 1819              		.loc 1 997 33 view .LVU699
 1820 004e CDE90456 		strd	r5, r6, [sp, #16]
 995:Lib/Camera_Middleware/cmw_camera.c ****   gpio_init_structure.Pull      = GPIO_NOPULL;
 1821              		.loc 1 995 33 view .LVU700
 1822 0052 0393     		str	r3, [sp, #12]
 996:Lib/Camera_Middleware/cmw_camera.c ****   gpio_init_structure.Mode      = GPIO_MODE_OUTPUT_PP;
 1823              		.loc 1 996 3 is_stmt 1 view .LVU701
 998:Lib/Camera_Middleware/cmw_camera.c ****   HAL_GPIO_Init(NRST_CAM_PORT, &gpio_init_structure);
 1824              		.loc 1 998 3 view .LVU702
 998:Lib/Camera_Middleware/cmw_camera.c ****   HAL_GPIO_Init(NRST_CAM_PORT, &gpio_init_structure);
 1825              		.loc 1 998 33 is_stmt 0 view .LVU703
 1826 0054 0694     		str	r4, [sp, #24]
 999:Lib/Camera_Middleware/cmw_camera.c **** }
 1827              		.loc 1 999 3 is_stmt 1 view .LVU704
 1828 0056 FFF7FEFF 		bl	HAL_GPIO_Init
 1829              	.LVL132:
1000:Lib/Camera_Middleware/cmw_camera.c **** 
 1830              		.loc 1 1000 1 is_stmt 0 view .LVU705
 1831 005a 08B0     		add	sp, sp, #32
 1832              		.cfi_def_cfa_offset 16
 1833              		@ sp needed
 1834 005c 70BD     		pop	{r4, r5, r6, pc}
 1835              	.L139:
 1836 005e 00BF     		.align	2
 1837              	.L138:
 1838 0060 00800256 		.word	1443004416
 1839 0064 000C0256 		.word	1442974720
 1840 0068 00080256 		.word	1442973696
 1841              		.cfi_endproc
 1842              	.LFE899:
 1844              		.section	.text.CMW_CAMERA_GetDCMIPPHandle,"ax",%progbits
 1845              		.align	1
 1846              		.global	CMW_CAMERA_GetDCMIPPHandle
 1847              		.syntax unified
 1848              		.thumb
 1849              		.thumb_func
 1851              	CMW_CAMERA_GetDCMIPPHandle:
 1852              	.LFB865:
 142:Lib/Camera_Middleware/cmw_camera.c ****     return &hcamera_dcmipp;
 1853              		.loc 1 142 1 is_stmt 1 view -0
 1854              		.cfi_startproc
 1855              		@ args = 0, pretend = 0, frame = 0
 1856              		@ frame_needed = 0, uses_anonymous_args = 0
 1857              		@ link register save eliminated.
 143:Lib/Camera_Middleware/cmw_camera.c **** }
 1858              		.loc 1 143 5 view .LVU707
 144:Lib/Camera_Middleware/cmw_camera.c **** 
 1859              		.loc 1 144 1 is_stmt 0 view .LVU708
 1860 0000 0048     		ldr	r0, .L141
 1861 0002 7047     		bx	lr
 1862              	.L142:
 1863              		.align	2
 1864              	.L141:
ARM GAS  C:\Users\DJESSOU\AppData\Local\Temp\cc3dm0Vf.s 			page 99


 1865 0004 00000000 		.word	hcamera_dcmipp
 1866              		.cfi_endproc
 1867              	.LFE865:
 1869              		.section	.text.CMW_CAMERA_SetPipeConfig,"ax",%progbits
 1870              		.align	1
 1871              		.global	CMW_CAMERA_SetPipeConfig
 1872              		.syntax unified
 1873              		.thumb
 1874              		.thumb_func
 1876              	CMW_CAMERA_SetPipeConfig:
 1877              	.LVL133:
 1878              	.LFB866:
 147:Lib/Camera_Middleware/cmw_camera.c ****   return CMW_CAMERA_SetPipe(&hcamera_dcmipp, pipe, p_conf, pitch);
 1879              		.loc 1 147 1 is_stmt 1 view -0
 1880              		.cfi_startproc
 1881              		@ args = 0, pretend = 0, frame = 96
 1882              		@ frame_needed = 0, uses_anonymous_args = 0
 148:Lib/Camera_Middleware/cmw_camera.c **** }
 1883              		.loc 1 148 3 view .LVU710
 147:Lib/Camera_Middleware/cmw_camera.c ****   return CMW_CAMERA_SetPipe(&hcamera_dcmipp, pipe, p_conf, pitch);
 1884              		.loc 1 147 1 is_stmt 0 view .LVU711
 1885 0000 2DE9F043 		push	{r4, r5, r6, r7, r8, r9, lr}
 1886              		.cfi_def_cfa_offset 28
 1887              		.cfi_offset 4, -28
 1888              		.cfi_offset 5, -24
 1889              		.cfi_offset 6, -20
 1890              		.cfi_offset 7, -16
 1891              		.cfi_offset 8, -12
 1892              		.cfi_offset 9, -8
 1893              		.cfi_offset 14, -4
 1894              	.LBB111:
 1895              	.LBB112:
1943:Lib/Camera_Middleware/cmw_camera.c ****     {
1944:Lib/Camera_Middleware/cmw_camera.c ****       return CMW_ERROR_PERIPH_FAILURE;
1945:Lib/Camera_Middleware/cmw_camera.c ****     }
1946:Lib/Camera_Middleware/cmw_camera.c ****   }
1947:Lib/Camera_Middleware/cmw_camera.c **** 
1948:Lib/Camera_Middleware/cmw_camera.c **** 
1949:Lib/Camera_Middleware/cmw_camera.c ****   return ret;
1950:Lib/Camera_Middleware/cmw_camera.c **** }
1951:Lib/Camera_Middleware/cmw_camera.c **** #endif
1952:Lib/Camera_Middleware/cmw_camera.c **** 
1953:Lib/Camera_Middleware/cmw_camera.c **** static int32_t CMW_CAMERA_SetPipe(DCMIPP_HandleTypeDef *hdcmipp, uint32_t pipe, CMW_DCMIPP_Conf_t *
1954:Lib/Camera_Middleware/cmw_camera.c **** {
1955:Lib/Camera_Middleware/cmw_camera.c ****   DCMIPP_DecimationConfTypeDef dec_conf = { 0 };
 1896              		.loc 1 1955 32 view .LVU712
 1897 0004 0026     		movs	r6, #0
 1898              	.LBE112:
 1899              	.LBE111:
 147:Lib/Camera_Middleware/cmw_camera.c ****   return CMW_CAMERA_SetPipe(&hcamera_dcmipp, pipe, p_conf, pitch);
 1900              		.loc 1 147 1 view .LVU713
 1901 0006 0446     		mov	r4, r0
 1902              	.LVL134:
 147:Lib/Camera_Middleware/cmw_camera.c ****   return CMW_CAMERA_SetPipe(&hcamera_dcmipp, pipe, p_conf, pitch);
 1903              		.loc 1 147 1 view .LVU714
 1904 0008 9BB0     		sub	sp, sp, #108
 1905              		.cfi_def_cfa_offset 136
ARM GAS  C:\Users\DJESSOU\AppData\Local\Temp\cc3dm0Vf.s 			page 100


 1906              	.LBB120:
 1907              	.LBB116:
1956:Lib/Camera_Middleware/cmw_camera.c ****   DCMIPP_PipeConfTypeDef pipe_conf = { 0 };
1957:Lib/Camera_Middleware/cmw_camera.c ****   DCMIPP_DownsizeTypeDef down_conf = { 0 };
 1908              		.loc 1 1957 26 view .LVU715
 1909 000a 0DF13408 		add	r8, sp, #52
 1910              	.LBE116:
 1911              	.LBE120:
 147:Lib/Camera_Middleware/cmw_camera.c ****   return CMW_CAMERA_SetPipe(&hcamera_dcmipp, pipe, p_conf, pitch);
 1912              		.loc 1 147 1 view .LVU716
 1913 000e 0D46     		mov	r5, r1
 1914              	.LVL135:
 147:Lib/Camera_Middleware/cmw_camera.c ****   return CMW_CAMERA_SetPipe(&hcamera_dcmipp, pipe, p_conf, pitch);
 1915              		.loc 1 147 1 view .LVU717
 1916 0010 1746     		mov	r7, r2
 1917              	.LVL136:
 1918              	.LBB121:
 1919              	.LBI111:
1953:Lib/Camera_Middleware/cmw_camera.c **** {
 1920              		.loc 1 1953 16 is_stmt 1 view .LVU718
 1921              	.LBB117:
1955:Lib/Camera_Middleware/cmw_camera.c ****   DCMIPP_PipeConfTypeDef pipe_conf = { 0 };
 1922              		.loc 1 1955 3 view .LVU719
 1923              		.loc 1 1957 26 is_stmt 0 view .LVU720
 1924 0012 3146     		mov	r1, r6
 1925              	.LVL137:
 1926              		.loc 1 1957 26 view .LVU721
 1927 0014 1822     		movs	r2, #24
 1928              	.LVL138:
 1929              		.loc 1 1957 26 view .LVU722
 1930 0016 4046     		mov	r0, r8
 1931              	.LVL139:
1956:Lib/Camera_Middleware/cmw_camera.c ****   DCMIPP_PipeConfTypeDef pipe_conf = { 0 };
 1932              		.loc 1 1956 26 view .LVU723
 1933 0018 CDE90566 		strd	r6, r6, [sp, #20]
1955:Lib/Camera_Middleware/cmw_camera.c ****   DCMIPP_PipeConfTypeDef pipe_conf = { 0 };
 1934              		.loc 1 1955 32 view .LVU724
 1935 001c 0396     		str	r6, [sp, #12]
1956:Lib/Camera_Middleware/cmw_camera.c ****   DCMIPP_PipeConfTypeDef pipe_conf = { 0 };
 1936              		.loc 1 1956 26 view .LVU725
 1937 001e 0796     		str	r6, [sp, #28]
1955:Lib/Camera_Middleware/cmw_camera.c ****   DCMIPP_PipeConfTypeDef pipe_conf = { 0 };
 1938              		.loc 1 1955 32 view .LVU726
 1939 0020 0496     		str	r6, [sp, #16]
1956:Lib/Camera_Middleware/cmw_camera.c ****   DCMIPP_PipeConfTypeDef pipe_conf = { 0 };
 1940              		.loc 1 1956 3 is_stmt 1 view .LVU727
 1941              		.loc 1 1957 3 view .LVU728
 1942              		.loc 1 1957 26 is_stmt 0 view .LVU729
 1943 0022 FFF7FEFF 		bl	memset
 1944              	.LVL140:
1958:Lib/Camera_Middleware/cmw_camera.c ****   DCMIPP_CropConfTypeDef crop_conf = { 0 };
 1945              		.loc 1 1958 3 is_stmt 1 view .LVU730
 1946              		.loc 1 1958 26 is_stmt 0 view .LVU731
 1947 0026 1422     		movs	r2, #20
 1948 0028 3146     		mov	r1, r6
 1949 002a 08A8     		add	r0, sp, #32
1955:Lib/Camera_Middleware/cmw_camera.c ****   DCMIPP_PipeConfTypeDef pipe_conf = { 0 };
ARM GAS  C:\Users\DJESSOU\AppData\Local\Temp\cc3dm0Vf.s 			page 101


 1950              		.loc 1 1955 32 view .LVU732
 1951 002c 0DF10C09 		add	r9, sp, #12
 1952              		.loc 1 1958 26 view .LVU733
 1953 0030 FFF7FEFF 		bl	memset
 1954              	.LVL141:
1959:Lib/Camera_Middleware/cmw_camera.c ****   int ret;
 1955              		.loc 1 1959 3 is_stmt 1 view .LVU734
1960:Lib/Camera_Middleware/cmw_camera.c **** 
1961:Lib/Camera_Middleware/cmw_camera.c ****   /* specific case for pipe0 which is only a dump pipe */
1962:Lib/Camera_Middleware/cmw_camera.c ****   if (pipe == DCMIPP_PIPE0)
 1956              		.loc 1 1962 3 view .LVU735
 1957              		.loc 1 1962 6 is_stmt 0 view .LVU736
 1958 0034 64B9     		cbnz	r4, .L144
1963:Lib/Camera_Middleware/cmw_camera.c ****   {
1964:Lib/Camera_Middleware/cmw_camera.c ****     /*  TODO: properly configure the dump pipe with decimation and crop */
1965:Lib/Camera_Middleware/cmw_camera.c ****     pipe_conf.FrameRate = DCMIPP_FRAME_RATE_ALL;
 1959              		.loc 1 1965 5 is_stmt 1 view .LVU737
1966:Lib/Camera_Middleware/cmw_camera.c ****     ret = HAL_DCMIPP_PIPE_SetConfig(hdcmipp, pipe, &pipe_conf);
 1960              		.loc 1 1966 5 view .LVU738
 1961              		.loc 1 1966 11 is_stmt 0 view .LVU739
 1962 0036 2146     		mov	r1, r4
 1963 0038 6448     		ldr	r0, .L181
 1964 003a 05AA     		add	r2, sp, #20
 1965 003c FFF7FEFF 		bl	HAL_DCMIPP_PIPE_SetConfig
 1966              	.LVL142:
1967:Lib/Camera_Middleware/cmw_camera.c ****     if (ret != HAL_OK)
 1967              		.loc 1 1967 5 is_stmt 1 view .LVU740
 1968              		.loc 1 1967 8 is_stmt 0 view .LVU741
 1969 0040 0028     		cmp	r0, #0
 1970 0042 00F0A180 		beq	.L145
 1971              	.LVL143:
 1972              	.L165:
 1973              	.LBB113:
1968:Lib/Camera_Middleware/cmw_camera.c ****     {
1969:Lib/Camera_Middleware/cmw_camera.c ****       return CMW_ERROR_COMPONENT_FAILURE;
1970:Lib/Camera_Middleware/cmw_camera.c ****     }
1971:Lib/Camera_Middleware/cmw_camera.c **** 
1972:Lib/Camera_Middleware/cmw_camera.c ****     return CMW_ERROR_NONE;
1973:Lib/Camera_Middleware/cmw_camera.c ****   }
1974:Lib/Camera_Middleware/cmw_camera.c **** 
1975:Lib/Camera_Middleware/cmw_camera.c ****   CMW_UTILS_GetPipeConfig(camera_conf.width, camera_conf.height, p_conf, &crop_conf, &dec_conf, &do
1976:Lib/Camera_Middleware/cmw_camera.c **** 
1977:Lib/Camera_Middleware/cmw_camera.c ****   if (crop_conf.VSize != 0 || crop_conf.HSize != 0)
1978:Lib/Camera_Middleware/cmw_camera.c ****   {
1979:Lib/Camera_Middleware/cmw_camera.c ****     ret = HAL_DCMIPP_PIPE_SetCropConfig(hdcmipp, pipe, &crop_conf);
1980:Lib/Camera_Middleware/cmw_camera.c ****     if (ret != HAL_OK)
1981:Lib/Camera_Middleware/cmw_camera.c ****     {
1982:Lib/Camera_Middleware/cmw_camera.c ****       return CMW_ERROR_COMPONENT_FAILURE;
1983:Lib/Camera_Middleware/cmw_camera.c ****     }
1984:Lib/Camera_Middleware/cmw_camera.c **** 
1985:Lib/Camera_Middleware/cmw_camera.c ****     ret = HAL_DCMIPP_PIPE_EnableCrop(hdcmipp, pipe);
1986:Lib/Camera_Middleware/cmw_camera.c ****     if (ret != HAL_OK)
1987:Lib/Camera_Middleware/cmw_camera.c ****     {
1988:Lib/Camera_Middleware/cmw_camera.c ****       return CMW_ERROR_COMPONENT_FAILURE;
1989:Lib/Camera_Middleware/cmw_camera.c ****     }
1990:Lib/Camera_Middleware/cmw_camera.c ****   }
1991:Lib/Camera_Middleware/cmw_camera.c ****   else
ARM GAS  C:\Users\DJESSOU\AppData\Local\Temp\cc3dm0Vf.s 			page 102


1992:Lib/Camera_Middleware/cmw_camera.c ****   {
1993:Lib/Camera_Middleware/cmw_camera.c ****     ret = HAL_DCMIPP_PIPE_DisableCrop(hdcmipp, pipe);
1994:Lib/Camera_Middleware/cmw_camera.c ****     if (ret != HAL_OK)
1995:Lib/Camera_Middleware/cmw_camera.c ****     {
1996:Lib/Camera_Middleware/cmw_camera.c ****       return CMW_ERROR_COMPONENT_FAILURE;
1997:Lib/Camera_Middleware/cmw_camera.c ****     }
1998:Lib/Camera_Middleware/cmw_camera.c ****   }
1999:Lib/Camera_Middleware/cmw_camera.c **** 
2000:Lib/Camera_Middleware/cmw_camera.c ****   if (dec_conf.VRatio != 0 || dec_conf.HRatio != 0)
2001:Lib/Camera_Middleware/cmw_camera.c ****   {
2002:Lib/Camera_Middleware/cmw_camera.c ****     ret = HAL_DCMIPP_PIPE_SetDecimationConfig(hdcmipp, pipe, &dec_conf);
2003:Lib/Camera_Middleware/cmw_camera.c ****     if (ret != HAL_OK)
2004:Lib/Camera_Middleware/cmw_camera.c ****     {
2005:Lib/Camera_Middleware/cmw_camera.c ****       return CMW_ERROR_COMPONENT_FAILURE;
2006:Lib/Camera_Middleware/cmw_camera.c ****     }
2007:Lib/Camera_Middleware/cmw_camera.c **** 
2008:Lib/Camera_Middleware/cmw_camera.c ****     ret = HAL_DCMIPP_PIPE_EnableDecimation(hdcmipp, pipe);
2009:Lib/Camera_Middleware/cmw_camera.c ****     if (ret != HAL_OK)
2010:Lib/Camera_Middleware/cmw_camera.c ****     {
2011:Lib/Camera_Middleware/cmw_camera.c ****       return CMW_ERROR_COMPONENT_FAILURE;
2012:Lib/Camera_Middleware/cmw_camera.c ****     }
2013:Lib/Camera_Middleware/cmw_camera.c ****   }
2014:Lib/Camera_Middleware/cmw_camera.c ****   else
2015:Lib/Camera_Middleware/cmw_camera.c ****   {
2016:Lib/Camera_Middleware/cmw_camera.c ****     ret = HAL_DCMIPP_PIPE_DisableDecimation(hdcmipp, pipe);
2017:Lib/Camera_Middleware/cmw_camera.c ****     if (ret != HAL_OK)
2018:Lib/Camera_Middleware/cmw_camera.c ****     {
2019:Lib/Camera_Middleware/cmw_camera.c ****       return CMW_ERROR_COMPONENT_FAILURE;
2020:Lib/Camera_Middleware/cmw_camera.c ****     }
2021:Lib/Camera_Middleware/cmw_camera.c ****   }
2022:Lib/Camera_Middleware/cmw_camera.c **** 
2023:Lib/Camera_Middleware/cmw_camera.c ****   ret = HAL_DCMIPP_PIPE_SetDownsizeConfig(hdcmipp, pipe, &down_conf);
2024:Lib/Camera_Middleware/cmw_camera.c ****   if (ret != HAL_OK)
2025:Lib/Camera_Middleware/cmw_camera.c ****   {
2026:Lib/Camera_Middleware/cmw_camera.c ****     return CMW_ERROR_COMPONENT_FAILURE;
2027:Lib/Camera_Middleware/cmw_camera.c ****   }
2028:Lib/Camera_Middleware/cmw_camera.c **** 
2029:Lib/Camera_Middleware/cmw_camera.c ****   ret = HAL_DCMIPP_PIPE_EnableDownsize(hdcmipp, pipe);
2030:Lib/Camera_Middleware/cmw_camera.c ****   if (ret != HAL_OK)
2031:Lib/Camera_Middleware/cmw_camera.c ****   {
2032:Lib/Camera_Middleware/cmw_camera.c ****     return CMW_ERROR_COMPONENT_FAILURE;
2033:Lib/Camera_Middleware/cmw_camera.c ****   }
2034:Lib/Camera_Middleware/cmw_camera.c **** 
2035:Lib/Camera_Middleware/cmw_camera.c ****   if (p_conf->enable_swap)
2036:Lib/Camera_Middleware/cmw_camera.c ****   {
2037:Lib/Camera_Middleware/cmw_camera.c ****     /* Config pipe */
2038:Lib/Camera_Middleware/cmw_camera.c ****     ret = HAL_DCMIPP_PIPE_EnableRedBlueSwap(hdcmipp, pipe);
2039:Lib/Camera_Middleware/cmw_camera.c ****     if (ret != HAL_OK)
2040:Lib/Camera_Middleware/cmw_camera.c ****     {
2041:Lib/Camera_Middleware/cmw_camera.c ****       return CMW_ERROR_COMPONENT_FAILURE;
2042:Lib/Camera_Middleware/cmw_camera.c ****     }
2043:Lib/Camera_Middleware/cmw_camera.c ****   }
2044:Lib/Camera_Middleware/cmw_camera.c ****   else
2045:Lib/Camera_Middleware/cmw_camera.c ****   {
2046:Lib/Camera_Middleware/cmw_camera.c ****     ret = HAL_DCMIPP_PIPE_DisableRedBlueSwap(hdcmipp, pipe);
2047:Lib/Camera_Middleware/cmw_camera.c ****     if (ret != HAL_OK)
2048:Lib/Camera_Middleware/cmw_camera.c ****     {
ARM GAS  C:\Users\DJESSOU\AppData\Local\Temp\cc3dm0Vf.s 			page 103


2049:Lib/Camera_Middleware/cmw_camera.c ****       return CMW_ERROR_COMPONENT_FAILURE;
2050:Lib/Camera_Middleware/cmw_camera.c ****     }
2051:Lib/Camera_Middleware/cmw_camera.c ****   }
2052:Lib/Camera_Middleware/cmw_camera.c **** 
2053:Lib/Camera_Middleware/cmw_camera.c ****   /* Ignore the configuration of gamma if -1
2054:Lib/Camera_Middleware/cmw_camera.c ****    * Activation is then done by the ISP Library
2055:Lib/Camera_Middleware/cmw_camera.c ****    */
2056:Lib/Camera_Middleware/cmw_camera.c ****   if (p_conf->enable_gamma_conversion > -1)
2057:Lib/Camera_Middleware/cmw_camera.c ****   {
2058:Lib/Camera_Middleware/cmw_camera.c ****     if (p_conf->enable_gamma_conversion)
2059:Lib/Camera_Middleware/cmw_camera.c ****     {
2060:Lib/Camera_Middleware/cmw_camera.c ****       ret = HAL_DCMIPP_PIPE_EnableGammaConversion(hdcmipp, pipe);
2061:Lib/Camera_Middleware/cmw_camera.c ****       if (ret != HAL_OK)
2062:Lib/Camera_Middleware/cmw_camera.c ****       {
2063:Lib/Camera_Middleware/cmw_camera.c ****         return CMW_ERROR_COMPONENT_FAILURE;
2064:Lib/Camera_Middleware/cmw_camera.c ****       }
2065:Lib/Camera_Middleware/cmw_camera.c ****     }
2066:Lib/Camera_Middleware/cmw_camera.c ****     else
2067:Lib/Camera_Middleware/cmw_camera.c ****     {
2068:Lib/Camera_Middleware/cmw_camera.c ****       ret = HAL_DCMIPP_PIPE_DisableGammaConversion(hdcmipp, pipe);
2069:Lib/Camera_Middleware/cmw_camera.c ****       if (ret != HAL_OK)
2070:Lib/Camera_Middleware/cmw_camera.c ****       {
2071:Lib/Camera_Middleware/cmw_camera.c ****         return CMW_ERROR_COMPONENT_FAILURE;
2072:Lib/Camera_Middleware/cmw_camera.c ****       }
2073:Lib/Camera_Middleware/cmw_camera.c ****     }
2074:Lib/Camera_Middleware/cmw_camera.c ****   }
2075:Lib/Camera_Middleware/cmw_camera.c **** 
2076:Lib/Camera_Middleware/cmw_camera.c ****   if (pipe == DCMIPP_PIPE2)
2077:Lib/Camera_Middleware/cmw_camera.c ****   {
2078:Lib/Camera_Middleware/cmw_camera.c ****     if (!is_pipe1_2_shared)
2079:Lib/Camera_Middleware/cmw_camera.c ****     {
2080:Lib/Camera_Middleware/cmw_camera.c ****       ret = HAL_DCMIPP_PIPE_CSI_EnableShare(hdcmipp, pipe);
2081:Lib/Camera_Middleware/cmw_camera.c ****       if (ret != HAL_OK)
2082:Lib/Camera_Middleware/cmw_camera.c ****       {
2083:Lib/Camera_Middleware/cmw_camera.c ****         return CMW_ERROR_COMPONENT_FAILURE;
2084:Lib/Camera_Middleware/cmw_camera.c ****       }
2085:Lib/Camera_Middleware/cmw_camera.c ****       is_pipe1_2_shared++;
2086:Lib/Camera_Middleware/cmw_camera.c ****     }
2087:Lib/Camera_Middleware/cmw_camera.c ****   }
2088:Lib/Camera_Middleware/cmw_camera.c **** 
2089:Lib/Camera_Middleware/cmw_camera.c ****   pipe_conf.FrameRate = DCMIPP_FRAME_RATE_ALL;
2090:Lib/Camera_Middleware/cmw_camera.c ****   pipe_conf.PixelPipePitch = p_conf->output_width * p_conf->output_bpp;
2091:Lib/Camera_Middleware/cmw_camera.c ****   /* Hardware constraint, pitch must be multiple of 16 */
2092:Lib/Camera_Middleware/cmw_camera.c ****   pipe_conf.PixelPipePitch = (pipe_conf.PixelPipePitch + 15) & (uint32_t) ~15;
2093:Lib/Camera_Middleware/cmw_camera.c ****   pipe_conf.PixelPackerFormat = p_conf->output_format;
2094:Lib/Camera_Middleware/cmw_camera.c **** 
2095:Lib/Camera_Middleware/cmw_camera.c ****   /* Support of YUV pixel format */
2096:Lib/Camera_Middleware/cmw_camera.c ****   if (pipe_conf.PixelPackerFormat == DCMIPP_PIXEL_PACKER_FORMAT_YUV422_1)
2097:Lib/Camera_Middleware/cmw_camera.c ****   {
2098:Lib/Camera_Middleware/cmw_camera.c ****     if (pipe != DCMIPP_PIPE1)
2099:Lib/Camera_Middleware/cmw_camera.c ****     {
2100:Lib/Camera_Middleware/cmw_camera.c ****       /* Only pipe 1 support YUV conversion */
2101:Lib/Camera_Middleware/cmw_camera.c ****       return CMW_ERROR_FEATURE_NOT_SUPPORTED;
2102:Lib/Camera_Middleware/cmw_camera.c ****     }
2103:Lib/Camera_Middleware/cmw_camera.c **** 
2104:Lib/Camera_Middleware/cmw_camera.c ****     #define N10(val) (((val) ^ 0x7FF) + 1)
2105:Lib/Camera_Middleware/cmw_camera.c ****     DCMIPP_ColorConversionConfTypeDef yuv_color_conf = {
ARM GAS  C:\Users\DJESSOU\AppData\Local\Temp\cc3dm0Vf.s 			page 104


2106:Lib/Camera_Middleware/cmw_camera.c ****     .ClampOutputSamples = ENABLE,
2107:Lib/Camera_Middleware/cmw_camera.c ****     .OutputSamplesType = 0,
2108:Lib/Camera_Middleware/cmw_camera.c ****     .RR = 131,     .RG = N10(110), .RB = N10(21), .RA = 128,
2109:Lib/Camera_Middleware/cmw_camera.c ****     .GR = 77,      .GG = 150,      .GB = 29,      .GA = 0,
2110:Lib/Camera_Middleware/cmw_camera.c ****     .BR = N10(44), .BG = N10(87),  .BB = 131,     .BA = 128,
2111:Lib/Camera_Middleware/cmw_camera.c ****     };
2112:Lib/Camera_Middleware/cmw_camera.c **** 
2113:Lib/Camera_Middleware/cmw_camera.c ****     ret = HAL_DCMIPP_PIPE_SetYUVConversionConfig(hdcmipp, pipe, &yuv_color_conf);
2114:Lib/Camera_Middleware/cmw_camera.c ****     if (ret != HAL_OK)
2115:Lib/Camera_Middleware/cmw_camera.c ****     {
2116:Lib/Camera_Middleware/cmw_camera.c ****       return CMW_ERROR_COMPONENT_FAILURE;
 1974              		.loc 1 2116 14 view .LVU742
 1975 0046 6FF00400 		mvn	r0, #4
 1976              	.LVL144:
 1977              	.L143:
 1978              		.loc 1 2116 14 view .LVU743
 1979              	.LBE113:
 1980              	.LBE117:
 1981              	.LBE121:
 149:Lib/Camera_Middleware/cmw_camera.c **** 
 1982              		.loc 1 149 1 view .LVU744
 1983 004a 1BB0     		add	sp, sp, #108
 1984              		.cfi_remember_state
 1985              		.cfi_def_cfa_offset 28
 1986              		@ sp needed
 1987 004c BDE8F083 		pop	{r4, r5, r6, r7, r8, r9, pc}
 1988              	.LVL145:
 1989              	.L144:
 1990              		.cfi_restore_state
 1991              	.LBB122:
 1992              	.LBB118:
1975:Lib/Camera_Middleware/cmw_camera.c **** 
 1993              		.loc 1 1975 3 is_stmt 1 view .LVU745
 1994 0050 CDE90098 		strd	r9, r8, [sp]
 1995 0054 5E48     		ldr	r0, .L181+4
 1996 0056 2A46     		mov	r2, r5
 1997 0058 D0E90001 		ldrd	r0, r1, [r0]
 1998 005c 08AB     		add	r3, sp, #32
 1999 005e FFF7FEFF 		bl	CMW_UTILS_GetPipeConfig
 2000              	.LVL146:
1977:Lib/Camera_Middleware/cmw_camera.c ****   {
 2001              		.loc 1 1977 3 view .LVU746
1977:Lib/Camera_Middleware/cmw_camera.c ****   {
 2002              		.loc 1 1977 28 is_stmt 0 discriminator 1 view .LVU747
 2003 0062 DDE90A32 		ldrd	r3, r2, [sp, #40]
 2004 0066 1343     		orrs	r3, r3, r2
 2005 0068 15D0     		beq	.L147
1979:Lib/Camera_Middleware/cmw_camera.c ****     if (ret != HAL_OK)
 2006              		.loc 1 1979 5 is_stmt 1 view .LVU748
1979:Lib/Camera_Middleware/cmw_camera.c ****     if (ret != HAL_OK)
 2007              		.loc 1 1979 11 is_stmt 0 view .LVU749
 2008 006a 2146     		mov	r1, r4
 2009 006c 5748     		ldr	r0, .L181
 2010 006e 08AA     		add	r2, sp, #32
 2011 0070 FFF7FEFF 		bl	HAL_DCMIPP_PIPE_SetCropConfig
 2012              	.LVL147:
1980:Lib/Camera_Middleware/cmw_camera.c ****     {
ARM GAS  C:\Users\DJESSOU\AppData\Local\Temp\cc3dm0Vf.s 			page 105


 2013              		.loc 1 1980 5 is_stmt 1 view .LVU750
1980:Lib/Camera_Middleware/cmw_camera.c ****     {
 2014              		.loc 1 1980 8 is_stmt 0 view .LVU751
 2015 0074 0028     		cmp	r0, #0
 2016 0076 E6D1     		bne	.L165
1985:Lib/Camera_Middleware/cmw_camera.c ****     if (ret != HAL_OK)
 2017              		.loc 1 1985 5 is_stmt 1 view .LVU752
1985:Lib/Camera_Middleware/cmw_camera.c ****     if (ret != HAL_OK)
 2018              		.loc 1 1985 11 is_stmt 0 view .LVU753
 2019 0078 2146     		mov	r1, r4
 2020 007a 5448     		ldr	r0, .L181
 2021              	.LVL148:
1985:Lib/Camera_Middleware/cmw_camera.c ****     if (ret != HAL_OK)
 2022              		.loc 1 1985 11 view .LVU754
 2023 007c FFF7FEFF 		bl	HAL_DCMIPP_PIPE_EnableCrop
 2024              	.LVL149:
 2025              	.L175:
1994:Lib/Camera_Middleware/cmw_camera.c ****     {
 2026              		.loc 1 1994 5 is_stmt 1 view .LVU755
1994:Lib/Camera_Middleware/cmw_camera.c ****     {
 2027              		.loc 1 1994 8 is_stmt 0 view .LVU756
 2028 0080 0028     		cmp	r0, #0
 2029 0082 E0D1     		bne	.L165
2000:Lib/Camera_Middleware/cmw_camera.c ****   {
 2030              		.loc 1 2000 3 is_stmt 1 view .LVU757
2000:Lib/Camera_Middleware/cmw_camera.c ****   {
 2031              		.loc 1 2000 28 is_stmt 0 discriminator 1 view .LVU758
 2032 0084 DDE90332 		ldrd	r3, r2, [sp, #12]
 2033 0088 1343     		orrs	r3, r3, r2
 2034 008a 09D1     		bne	.L149
2016:Lib/Camera_Middleware/cmw_camera.c ****     if (ret != HAL_OK)
 2035              		.loc 1 2016 5 is_stmt 1 view .LVU759
2016:Lib/Camera_Middleware/cmw_camera.c ****     if (ret != HAL_OK)
 2036              		.loc 1 2016 11 is_stmt 0 view .LVU760
 2037 008c 2146     		mov	r1, r4
 2038 008e 4F48     		ldr	r0, .L181
 2039              	.LVL150:
2016:Lib/Camera_Middleware/cmw_camera.c ****     if (ret != HAL_OK)
 2040              		.loc 1 2016 11 view .LVU761
 2041 0090 FFF7FEFF 		bl	HAL_DCMIPP_PIPE_DisableDecimation
 2042              	.LVL151:
 2043 0094 0FE0     		b	.L176
 2044              	.LVL152:
 2045              	.L147:
1993:Lib/Camera_Middleware/cmw_camera.c ****     if (ret != HAL_OK)
 2046              		.loc 1 1993 5 is_stmt 1 view .LVU762
1993:Lib/Camera_Middleware/cmw_camera.c ****     if (ret != HAL_OK)
 2047              		.loc 1 1993 11 is_stmt 0 view .LVU763
 2048 0096 2146     		mov	r1, r4
 2049 0098 4C48     		ldr	r0, .L181
 2050 009a FFF7FEFF 		bl	HAL_DCMIPP_PIPE_DisableCrop
 2051              	.LVL153:
 2052 009e EFE7     		b	.L175
 2053              	.LVL154:
 2054              	.L149:
2002:Lib/Camera_Middleware/cmw_camera.c ****     if (ret != HAL_OK)
 2055              		.loc 1 2002 5 is_stmt 1 view .LVU764
ARM GAS  C:\Users\DJESSOU\AppData\Local\Temp\cc3dm0Vf.s 			page 106


2002:Lib/Camera_Middleware/cmw_camera.c ****     if (ret != HAL_OK)
 2056              		.loc 1 2002 11 is_stmt 0 view .LVU765
 2057 00a0 4A46     		mov	r2, r9
 2058 00a2 2146     		mov	r1, r4
 2059 00a4 4948     		ldr	r0, .L181
 2060              	.LVL155:
2002:Lib/Camera_Middleware/cmw_camera.c ****     if (ret != HAL_OK)
 2061              		.loc 1 2002 11 view .LVU766
 2062 00a6 FFF7FEFF 		bl	HAL_DCMIPP_PIPE_SetDecimationConfig
 2063              	.LVL156:
2003:Lib/Camera_Middleware/cmw_camera.c ****     {
 2064              		.loc 1 2003 5 is_stmt 1 view .LVU767
2003:Lib/Camera_Middleware/cmw_camera.c ****     {
 2065              		.loc 1 2003 8 is_stmt 0 view .LVU768
 2066 00aa 0028     		cmp	r0, #0
 2067 00ac CBD1     		bne	.L165
2008:Lib/Camera_Middleware/cmw_camera.c ****     if (ret != HAL_OK)
 2068              		.loc 1 2008 5 is_stmt 1 view .LVU769
2008:Lib/Camera_Middleware/cmw_camera.c ****     if (ret != HAL_OK)
 2069              		.loc 1 2008 11 is_stmt 0 view .LVU770
 2070 00ae 2146     		mov	r1, r4
 2071 00b0 4648     		ldr	r0, .L181
 2072              	.LVL157:
2008:Lib/Camera_Middleware/cmw_camera.c ****     if (ret != HAL_OK)
 2073              		.loc 1 2008 11 view .LVU771
 2074 00b2 FFF7FEFF 		bl	HAL_DCMIPP_PIPE_EnableDecimation
 2075              	.LVL158:
 2076              	.L176:
2017:Lib/Camera_Middleware/cmw_camera.c ****     {
 2077              		.loc 1 2017 5 is_stmt 1 view .LVU772
2017:Lib/Camera_Middleware/cmw_camera.c ****     {
 2078              		.loc 1 2017 8 is_stmt 0 view .LVU773
 2079 00b6 0028     		cmp	r0, #0
 2080 00b8 C5D1     		bne	.L165
2023:Lib/Camera_Middleware/cmw_camera.c ****   if (ret != HAL_OK)
 2081              		.loc 1 2023 3 is_stmt 1 view .LVU774
2023:Lib/Camera_Middleware/cmw_camera.c ****   if (ret != HAL_OK)
 2082              		.loc 1 2023 9 is_stmt 0 view .LVU775
 2083 00ba 4246     		mov	r2, r8
 2084 00bc 2146     		mov	r1, r4
 2085 00be 4348     		ldr	r0, .L181
 2086              	.LVL159:
2023:Lib/Camera_Middleware/cmw_camera.c ****   if (ret != HAL_OK)
 2087              		.loc 1 2023 9 view .LVU776
 2088 00c0 FFF7FEFF 		bl	HAL_DCMIPP_PIPE_SetDownsizeConfig
 2089              	.LVL160:
2024:Lib/Camera_Middleware/cmw_camera.c ****   {
 2090              		.loc 1 2024 3 is_stmt 1 view .LVU777
 2091 00c4 414E     		ldr	r6, .L181
2024:Lib/Camera_Middleware/cmw_camera.c ****   {
 2092              		.loc 1 2024 6 is_stmt 0 view .LVU778
 2093 00c6 0028     		cmp	r0, #0
 2094 00c8 BDD1     		bne	.L165
2029:Lib/Camera_Middleware/cmw_camera.c ****   if (ret != HAL_OK)
 2095              		.loc 1 2029 3 is_stmt 1 view .LVU779
2029:Lib/Camera_Middleware/cmw_camera.c ****   if (ret != HAL_OK)
 2096              		.loc 1 2029 9 is_stmt 0 view .LVU780
ARM GAS  C:\Users\DJESSOU\AppData\Local\Temp\cc3dm0Vf.s 			page 107


 2097 00ca 2146     		mov	r1, r4
 2098 00cc 3046     		mov	r0, r6
 2099              	.LVL161:
2029:Lib/Camera_Middleware/cmw_camera.c ****   if (ret != HAL_OK)
 2100              		.loc 1 2029 9 view .LVU781
 2101 00ce FFF7FEFF 		bl	HAL_DCMIPP_PIPE_EnableDownsize
 2102              	.LVL162:
2030:Lib/Camera_Middleware/cmw_camera.c ****   {
 2103              		.loc 1 2030 3 is_stmt 1 view .LVU782
2030:Lib/Camera_Middleware/cmw_camera.c ****   {
 2104              		.loc 1 2030 6 is_stmt 0 view .LVU783
 2105 00d2 0028     		cmp	r0, #0
 2106 00d4 B7D1     		bne	.L165
2035:Lib/Camera_Middleware/cmw_camera.c ****   {
 2107              		.loc 1 2035 3 is_stmt 1 view .LVU784
2035:Lib/Camera_Middleware/cmw_camera.c ****   {
 2108              		.loc 1 2035 6 is_stmt 0 view .LVU785
 2109 00d6 2B69     		ldr	r3, [r5, #16]
2038:Lib/Camera_Middleware/cmw_camera.c ****     if (ret != HAL_OK)
 2110              		.loc 1 2038 11 view .LVU786
 2111 00d8 2146     		mov	r1, r4
 2112 00da 3046     		mov	r0, r6
 2113              	.LVL163:
2035:Lib/Camera_Middleware/cmw_camera.c ****   {
 2114              		.loc 1 2035 6 view .LVU787
 2115 00dc 002B     		cmp	r3, #0
 2116 00de 55D0     		beq	.L154
 2117              	.LVL164:
2038:Lib/Camera_Middleware/cmw_camera.c ****     if (ret != HAL_OK)
 2118              		.loc 1 2038 5 is_stmt 1 view .LVU788
2038:Lib/Camera_Middleware/cmw_camera.c ****     if (ret != HAL_OK)
 2119              		.loc 1 2038 11 is_stmt 0 view .LVU789
 2120 00e0 FFF7FEFF 		bl	HAL_DCMIPP_PIPE_EnableRedBlueSwap
 2121              	.LVL165:
 2122              	.L177:
2047:Lib/Camera_Middleware/cmw_camera.c ****     {
 2123              		.loc 1 2047 5 is_stmt 1 view .LVU790
2047:Lib/Camera_Middleware/cmw_camera.c ****     {
 2124              		.loc 1 2047 8 is_stmt 0 view .LVU791
 2125 00e4 0028     		cmp	r0, #0
 2126 00e6 AED1     		bne	.L165
2056:Lib/Camera_Middleware/cmw_camera.c ****   {
 2127              		.loc 1 2056 3 is_stmt 1 view .LVU792
2056:Lib/Camera_Middleware/cmw_camera.c ****   {
 2128              		.loc 1 2056 13 is_stmt 0 view .LVU793
 2129 00e8 6B69     		ldr	r3, [r5, #20]
2056:Lib/Camera_Middleware/cmw_camera.c ****   {
 2130              		.loc 1 2056 6 view .LVU794
 2131 00ea 002B     		cmp	r3, #0
 2132 00ec 51DA     		bge	.L155
 2133              	.LVL166:
 2134              	.L156:
2076:Lib/Camera_Middleware/cmw_camera.c ****   {
 2135              		.loc 1 2076 3 is_stmt 1 view .LVU795
2076:Lib/Camera_Middleware/cmw_camera.c ****   {
 2136              		.loc 1 2076 6 is_stmt 0 view .LVU796
 2137 00ee 022C     		cmp	r4, #2
ARM GAS  C:\Users\DJESSOU\AppData\Local\Temp\cc3dm0Vf.s 			page 108


 2138 00f0 0FD1     		bne	.L159
2078:Lib/Camera_Middleware/cmw_camera.c ****     {
 2139              		.loc 1 2078 5 is_stmt 1 view .LVU797
2078:Lib/Camera_Middleware/cmw_camera.c ****     {
 2140              		.loc 1 2078 9 is_stmt 0 view .LVU798
 2141 00f2 DFF8E480 		ldr	r8, .L181+12
2078:Lib/Camera_Middleware/cmw_camera.c ****     {
 2142              		.loc 1 2078 8 view .LVU799
 2143 00f6 D8F80030 		ldr	r3, [r8]
 2144 00fa 53B9     		cbnz	r3, .L159
2080:Lib/Camera_Middleware/cmw_camera.c ****       if (ret != HAL_OK)
 2145              		.loc 1 2080 7 is_stmt 1 view .LVU800
2080:Lib/Camera_Middleware/cmw_camera.c ****       if (ret != HAL_OK)
 2146              		.loc 1 2080 13 is_stmt 0 view .LVU801
 2147 00fc 2146     		mov	r1, r4
 2148 00fe 3348     		ldr	r0, .L181
 2149 0100 FFF7FEFF 		bl	HAL_DCMIPP_PIPE_CSI_EnableShare
 2150              	.LVL167:
2081:Lib/Camera_Middleware/cmw_camera.c ****       {
 2151              		.loc 1 2081 7 is_stmt 1 view .LVU802
2081:Lib/Camera_Middleware/cmw_camera.c ****       {
 2152              		.loc 1 2081 10 is_stmt 0 view .LVU803
 2153 0104 0028     		cmp	r0, #0
 2154 0106 9ED1     		bne	.L165
2085:Lib/Camera_Middleware/cmw_camera.c ****     }
 2155              		.loc 1 2085 7 is_stmt 1 view .LVU804
2085:Lib/Camera_Middleware/cmw_camera.c ****     }
 2156              		.loc 1 2085 24 is_stmt 0 view .LVU805
 2157 0108 D8F80030 		ldr	r3, [r8]
 2158 010c 0133     		adds	r3, r3, #1
 2159 010e C8F80030 		str	r3, [r8]
 2160              	.LVL168:
 2161              	.L159:
2089:Lib/Camera_Middleware/cmw_camera.c ****   pipe_conf.PixelPipePitch = p_conf->output_width * p_conf->output_bpp;
 2162              		.loc 1 2089 3 is_stmt 1 view .LVU806
2089:Lib/Camera_Middleware/cmw_camera.c ****   pipe_conf.PixelPipePitch = p_conf->output_width * p_conf->output_bpp;
 2163              		.loc 1 2089 23 is_stmt 0 view .LVU807
 2164 0112 0023     		movs	r3, #0
2090:Lib/Camera_Middleware/cmw_camera.c ****   /* Hardware constraint, pitch must be multiple of 16 */
 2165              		.loc 1 2090 51 view .LVU808
 2166 0114 EA68     		ldr	r2, [r5, #12]
2089:Lib/Camera_Middleware/cmw_camera.c ****   pipe_conf.PixelPipePitch = p_conf->output_width * p_conf->output_bpp;
 2167              		.loc 1 2089 23 view .LVU809
 2168 0116 0593     		str	r3, [sp, #20]
2090:Lib/Camera_Middleware/cmw_camera.c ****   /* Hardware constraint, pitch must be multiple of 16 */
 2169              		.loc 1 2090 3 is_stmt 1 view .LVU810
2092:Lib/Camera_Middleware/cmw_camera.c ****   pipe_conf.PixelPackerFormat = p_conf->output_format;
 2170              		.loc 1 2092 3 view .LVU811
2090:Lib/Camera_Middleware/cmw_camera.c ****   /* Hardware constraint, pitch must be multiple of 16 */
 2171              		.loc 1 2090 51 is_stmt 0 view .LVU812
 2172 0118 2B68     		ldr	r3, [r5]
 2173 011a 5343     		muls	r3, r2, r3
2092:Lib/Camera_Middleware/cmw_camera.c ****   pipe_conf.PixelPackerFormat = p_conf->output_format;
 2174              		.loc 1 2092 56 view .LVU813
 2175 011c 0F33     		adds	r3, r3, #15
2092:Lib/Camera_Middleware/cmw_camera.c ****   pipe_conf.PixelPackerFormat = p_conf->output_format;
 2176              		.loc 1 2092 62 view .LVU814
ARM GAS  C:\Users\DJESSOU\AppData\Local\Temp\cc3dm0Vf.s 			page 109


 2177 011e 23F00F03 		bic	r3, r3, #15
2092:Lib/Camera_Middleware/cmw_camera.c ****   pipe_conf.PixelPackerFormat = p_conf->output_format;
 2178              		.loc 1 2092 28 view .LVU815
 2179 0122 0693     		str	r3, [sp, #24]
2093:Lib/Camera_Middleware/cmw_camera.c **** 
 2180              		.loc 1 2093 3 is_stmt 1 view .LVU816
2093:Lib/Camera_Middleware/cmw_camera.c **** 
 2181              		.loc 1 2093 39 is_stmt 0 view .LVU817
 2182 0124 AB68     		ldr	r3, [r5, #8]
2096:Lib/Camera_Middleware/cmw_camera.c ****   {
 2183              		.loc 1 2096 6 view .LVU818
 2184 0126 062B     		cmp	r3, #6
2093:Lib/Camera_Middleware/cmw_camera.c **** 
 2185              		.loc 1 2093 31 view .LVU819
 2186 0128 0793     		str	r3, [sp, #28]
2096:Lib/Camera_Middleware/cmw_camera.c ****   {
 2187              		.loc 1 2096 3 is_stmt 1 view .LVU820
2096:Lib/Camera_Middleware/cmw_camera.c ****   {
 2188              		.loc 1 2096 6 is_stmt 0 view .LVU821
 2189 012a 20D1     		bne	.L161
 2190              	.LBB114:
2098:Lib/Camera_Middleware/cmw_camera.c ****     {
 2191              		.loc 1 2098 5 is_stmt 1 view .LVU822
2098:Lib/Camera_Middleware/cmw_camera.c ****     {
 2192              		.loc 1 2098 8 is_stmt 0 view .LVU823
 2193 012c 012C     		cmp	r4, #1
 2194 012e 3BD1     		bne	.L168
2105:Lib/Camera_Middleware/cmw_camera.c ****     .ClampOutputSamples = ENABLE,
 2195              		.loc 1 2105 5 is_stmt 1 view .LVU824
2105:Lib/Camera_Middleware/cmw_camera.c ****     .ClampOutputSamples = ENABLE,
 2196              		.loc 1 2105 39 is_stmt 0 view .LVU825
 2197 0130 13AD     		add	r5, sp, #76
 2198              	.LVL169:
2105:Lib/Camera_Middleware/cmw_camera.c ****     .ClampOutputSamples = ENABLE,
 2199              		.loc 1 2105 39 view .LVU826
 2200 0132 2A46     		mov	r2, r5
 2201 0134 274B     		ldr	r3, .L181+8
 2202 0136 03F1180E 		add	lr, r3, #24
 2203              	.L163:
 2204 013a AC46     		mov	ip, r5
 2205 013c 1868     		ldr	r0, [r3]	@ unaligned
 2206 013e 5968     		ldr	r1, [r3, #4]	@ unaligned
 2207 0140 0833     		adds	r3, r3, #8
 2208 0142 ACE80300 		stmia	ip!, {r0, r1}
 2209 0146 7345     		cmp	r3, lr
 2210 0148 6546     		mov	r5, ip
 2211 014a F6D1     		bne	.L163
 2212 014c 1B88     		ldrh	r3, [r3]	@ unaligned
2113:Lib/Camera_Middleware/cmw_camera.c ****     if (ret != HAL_OK)
 2213              		.loc 1 2113 11 view .LVU827
 2214 014e 0121     		movs	r1, #1
 2215 0150 1E48     		ldr	r0, .L181
2105:Lib/Camera_Middleware/cmw_camera.c ****     .ClampOutputSamples = ENABLE,
 2216              		.loc 1 2105 39 view .LVU828
 2217 0152 ACF80030 		strh	r3, [ip]	@ unaligned
2113:Lib/Camera_Middleware/cmw_camera.c ****     if (ret != HAL_OK)
 2218              		.loc 1 2113 5 is_stmt 1 view .LVU829
ARM GAS  C:\Users\DJESSOU\AppData\Local\Temp\cc3dm0Vf.s 			page 110


2113:Lib/Camera_Middleware/cmw_camera.c ****     if (ret != HAL_OK)
 2219              		.loc 1 2113 11 is_stmt 0 view .LVU830
 2220 0156 FFF7FEFF 		bl	HAL_DCMIPP_PIPE_SetYUVConversionConfig
 2221              	.LVL170:
2114:Lib/Camera_Middleware/cmw_camera.c ****     {
 2222              		.loc 1 2114 5 is_stmt 1 view .LVU831
2114:Lib/Camera_Middleware/cmw_camera.c ****     {
 2223              		.loc 1 2114 8 is_stmt 0 view .LVU832
 2224 015a 0028     		cmp	r0, #0
 2225 015c 7FF473AF 		bne	.L165
2117:Lib/Camera_Middleware/cmw_camera.c ****     }
2118:Lib/Camera_Middleware/cmw_camera.c ****     ret = HAL_DCMIPP_PIPE_EnableYUVConversion(hdcmipp, pipe);
 2226              		.loc 1 2118 5 is_stmt 1 view .LVU833
 2227              		.loc 1 2118 11 is_stmt 0 view .LVU834
 2228 0160 0121     		movs	r1, #1
 2229 0162 1A48     		ldr	r0, .L181
 2230              	.LVL171:
 2231              		.loc 1 2118 11 view .LVU835
 2232 0164 FFF7FEFF 		bl	HAL_DCMIPP_PIPE_EnableYUVConversion
 2233              	.LVL172:
2119:Lib/Camera_Middleware/cmw_camera.c ****     if (ret != HAL_OK)
 2234              		.loc 1 2119 5 is_stmt 1 view .LVU836
 2235              		.loc 1 2119 8 is_stmt 0 view .LVU837
 2236 0168 0028     		cmp	r0, #0
 2237 016a 7FF46CAF 		bne	.L165
 2238              	.LVL173:
 2239              	.L161:
 2240              		.loc 1 2119 8 view .LVU838
 2241              	.LBE114:
2120:Lib/Camera_Middleware/cmw_camera.c ****     {
2121:Lib/Camera_Middleware/cmw_camera.c ****       return CMW_ERROR_COMPONENT_FAILURE;
2122:Lib/Camera_Middleware/cmw_camera.c ****     }
2123:Lib/Camera_Middleware/cmw_camera.c ****   }
2124:Lib/Camera_Middleware/cmw_camera.c **** 
2125:Lib/Camera_Middleware/cmw_camera.c ****   if (hcamera_dcmipp.PipeState[pipe] == HAL_DCMIPP_PIPE_STATE_RESET)
 2242              		.loc 1 2125 3 is_stmt 1 view .LVU839
 2243              		.loc 1 2125 31 is_stmt 0 view .LVU840
 2244 016e 2644     		add	r6, r6, r4
 2245 0170 7379     		ldrb	r3, [r6, #5]	@ zero_extendqisi2
 2246              		.loc 1 2125 6 view .LVU841
 2247 0172 E3B9     		cbnz	r3, .L166
2126:Lib/Camera_Middleware/cmw_camera.c ****   {
2127:Lib/Camera_Middleware/cmw_camera.c ****     ret = HAL_DCMIPP_PIPE_SetConfig(hdcmipp, pipe, &pipe_conf);
 2248              		.loc 1 2127 5 is_stmt 1 view .LVU842
 2249              		.loc 1 2127 11 is_stmt 0 view .LVU843
 2250 0174 2146     		mov	r1, r4
 2251 0176 1548     		ldr	r0, .L181
 2252 0178 05AA     		add	r2, sp, #20
 2253 017a FFF7FEFF 		bl	HAL_DCMIPP_PIPE_SetConfig
 2254              	.LVL174:
 2255              	.L178:
2128:Lib/Camera_Middleware/cmw_camera.c ****     if (ret != HAL_OK)
2129:Lib/Camera_Middleware/cmw_camera.c ****     {
2130:Lib/Camera_Middleware/cmw_camera.c ****       return CMW_ERROR_COMPONENT_FAILURE;
2131:Lib/Camera_Middleware/cmw_camera.c ****     }
2132:Lib/Camera_Middleware/cmw_camera.c ****   }
2133:Lib/Camera_Middleware/cmw_camera.c ****   else
ARM GAS  C:\Users\DJESSOU\AppData\Local\Temp\cc3dm0Vf.s 			page 111


2134:Lib/Camera_Middleware/cmw_camera.c ****   {
2135:Lib/Camera_Middleware/cmw_camera.c ****     if (HAL_DCMIPP_PIPE_SetPixelPackerFormat(hdcmipp, pipe, pipe_conf.PixelPackerFormat) != HAL_OK)
2136:Lib/Camera_Middleware/cmw_camera.c ****     {
2137:Lib/Camera_Middleware/cmw_camera.c ****       return CMW_ERROR_COMPONENT_FAILURE;
2138:Lib/Camera_Middleware/cmw_camera.c ****     }
2139:Lib/Camera_Middleware/cmw_camera.c **** 
2140:Lib/Camera_Middleware/cmw_camera.c ****     if (HAL_DCMIPP_PIPE_SetPitch(hdcmipp, pipe, pipe_conf.PixelPipePitch) != HAL_OK)
 2256              		.loc 1 2140 8 discriminator 1 view .LVU844
 2257 017e 0028     		cmp	r0, #0
 2258 0180 7FF461AF 		bne	.L165
2141:Lib/Camera_Middleware/cmw_camera.c ****     {
2142:Lib/Camera_Middleware/cmw_camera.c ****       return CMW_ERROR_COMPONENT_FAILURE;
2143:Lib/Camera_Middleware/cmw_camera.c ****     }
2144:Lib/Camera_Middleware/cmw_camera.c ****   }
2145:Lib/Camera_Middleware/cmw_camera.c **** 
2146:Lib/Camera_Middleware/cmw_camera.c ****   /* Update the pitch field so that application can use this information for
2147:Lib/Camera_Middleware/cmw_camera.c ****    * buffer alignement */
2148:Lib/Camera_Middleware/cmw_camera.c ****   *pitch = pipe_conf.PixelPipePitch;
 2259              		.loc 1 2148 3 is_stmt 1 view .LVU845
 2260              		.loc 1 2148 10 is_stmt 0 view .LVU846
 2261 0184 069B     		ldr	r3, [sp, #24]
 2262 0186 3B60     		str	r3, [r7]
2149:Lib/Camera_Middleware/cmw_camera.c **** 
2150:Lib/Camera_Middleware/cmw_camera.c ****   return CMW_ERROR_NONE;
 2263              		.loc 1 2150 3 is_stmt 1 view .LVU847
 2264              	.L145:
1972:Lib/Camera_Middleware/cmw_camera.c ****   }
 2265              		.loc 1 1972 12 is_stmt 0 view .LVU848
 2266 0188 0020     		movs	r0, #0
 2267              	.LVL175:
1972:Lib/Camera_Middleware/cmw_camera.c ****   }
 2268              		.loc 1 1972 12 view .LVU849
 2269              	.LBE118:
 2270              	.LBE122:
 148:Lib/Camera_Middleware/cmw_camera.c **** }
 2271              		.loc 1 148 10 view .LVU850
 2272 018a 5EE7     		b	.L143
 2273              	.LVL176:
 2274              	.L154:
 2275              	.LBB123:
 2276              	.LBB119:
2046:Lib/Camera_Middleware/cmw_camera.c ****     if (ret != HAL_OK)
 2277              		.loc 1 2046 5 is_stmt 1 view .LVU851
2046:Lib/Camera_Middleware/cmw_camera.c ****     if (ret != HAL_OK)
 2278              		.loc 1 2046 11 is_stmt 0 view .LVU852
 2279 018c FFF7FEFF 		bl	HAL_DCMIPP_PIPE_DisableRedBlueSwap
 2280              	.LVL177:
2046:Lib/Camera_Middleware/cmw_camera.c ****     if (ret != HAL_OK)
 2281              		.loc 1 2046 11 view .LVU853
 2282 0190 A8E7     		b	.L177
 2283              	.LVL178:
 2284              	.L155:
2058:Lib/Camera_Middleware/cmw_camera.c ****     {
 2285              		.loc 1 2058 5 is_stmt 1 view .LVU854
2060:Lib/Camera_Middleware/cmw_camera.c ****       if (ret != HAL_OK)
 2286              		.loc 1 2060 13 is_stmt 0 view .LVU855
 2287 0192 2146     		mov	r1, r4
ARM GAS  C:\Users\DJESSOU\AppData\Local\Temp\cc3dm0Vf.s 			page 112


 2288 0194 0D48     		ldr	r0, .L181
 2289              	.LVL179:
2058:Lib/Camera_Middleware/cmw_camera.c ****     {
 2290              		.loc 1 2058 8 view .LVU856
 2291 0196 04D0     		beq	.L160
 2292              	.LVL180:
2060:Lib/Camera_Middleware/cmw_camera.c ****       if (ret != HAL_OK)
 2293              		.loc 1 2060 7 is_stmt 1 view .LVU857
2060:Lib/Camera_Middleware/cmw_camera.c ****       if (ret != HAL_OK)
 2294              		.loc 1 2060 13 is_stmt 0 view .LVU858
 2295 0198 FFF7FEFF 		bl	HAL_DCMIPP_PIPE_EnableGammaConversion
 2296              	.LVL181:
 2297              	.L180:
2069:Lib/Camera_Middleware/cmw_camera.c ****       {
 2298              		.loc 1 2069 7 is_stmt 1 view .LVU859
2069:Lib/Camera_Middleware/cmw_camera.c ****       {
 2299              		.loc 1 2069 10 is_stmt 0 view .LVU860
 2300 019c 0028     		cmp	r0, #0
 2301 019e A6D0     		beq	.L156
 2302 01a0 51E7     		b	.L165
 2303              	.LVL182:
 2304              	.L160:
2068:Lib/Camera_Middleware/cmw_camera.c ****       if (ret != HAL_OK)
 2305              		.loc 1 2068 7 is_stmt 1 view .LVU861
2068:Lib/Camera_Middleware/cmw_camera.c ****       if (ret != HAL_OK)
 2306              		.loc 1 2068 13 is_stmt 0 view .LVU862
 2307 01a2 FFF7FEFF 		bl	HAL_DCMIPP_PIPE_DisableGammaConversion
 2308              	.LVL183:
2068:Lib/Camera_Middleware/cmw_camera.c ****       if (ret != HAL_OK)
 2309              		.loc 1 2068 13 view .LVU863
 2310 01a6 F9E7     		b	.L180
 2311              	.LVL184:
 2312              	.L168:
 2313              	.LBB115:
2101:Lib/Camera_Middleware/cmw_camera.c ****     }
 2314              		.loc 1 2101 14 view .LVU864
 2315 01a8 6FF00A00 		mvn	r0, #10
 2316 01ac 4DE7     		b	.L143
 2317              	.LVL185:
 2318              	.L166:
2101:Lib/Camera_Middleware/cmw_camera.c ****     }
 2319              		.loc 1 2101 14 view .LVU865
 2320              	.LBE115:
2135:Lib/Camera_Middleware/cmw_camera.c ****     {
 2321              		.loc 1 2135 5 is_stmt 1 view .LVU866
2135:Lib/Camera_Middleware/cmw_camera.c ****     {
 2322              		.loc 1 2135 9 is_stmt 0 view .LVU867
 2323 01ae 2146     		mov	r1, r4
 2324 01b0 079A     		ldr	r2, [sp, #28]
 2325 01b2 0648     		ldr	r0, .L181
 2326 01b4 FFF7FEFF 		bl	HAL_DCMIPP_PIPE_SetPixelPackerFormat
 2327              	.LVL186:
2135:Lib/Camera_Middleware/cmw_camera.c ****     {
 2328              		.loc 1 2135 8 discriminator 1 view .LVU868
 2329 01b8 0028     		cmp	r0, #0
 2330 01ba 7FF444AF 		bne	.L165
2140:Lib/Camera_Middleware/cmw_camera.c ****     {
ARM GAS  C:\Users\DJESSOU\AppData\Local\Temp\cc3dm0Vf.s 			page 113


 2331              		.loc 1 2140 5 is_stmt 1 view .LVU869
2140:Lib/Camera_Middleware/cmw_camera.c ****     {
 2332              		.loc 1 2140 9 is_stmt 0 view .LVU870
 2333 01be 2146     		mov	r1, r4
 2334 01c0 069A     		ldr	r2, [sp, #24]
 2335 01c2 0248     		ldr	r0, .L181
 2336 01c4 FFF7FEFF 		bl	HAL_DCMIPP_PIPE_SetPitch
 2337              	.LVL187:
 2338 01c8 D9E7     		b	.L178
 2339              	.L182:
 2340 01ca 00BF     		.align	2
 2341              	.L181:
 2342 01cc 00000000 		.word	hcamera_dcmipp
 2343 01d0 00000000 		.word	camera_conf
 2344 01d4 00000000 		.word	.LANCHOR0
 2345 01d8 00000000 		.word	is_pipe1_2_shared
 2346              	.LBE119:
 2347              	.LBE123:
 2348              		.cfi_endproc
 2349              	.LFE866:
 2351              		.section	.text.CMW_CAMERA_SetWBRefMode,"ax",%progbits
 2352              		.align	1
 2353              		.global	CMW_CAMERA_SetWBRefMode
 2354              		.syntax unified
 2355              		.thumb
 2356              		.thumb_func
 2358              	CMW_CAMERA_SetWBRefMode:
 2359              	.LVL188:
 2360              	.LFB868:
 207:Lib/Camera_Middleware/cmw_camera.c ****   int ret;
 2361              		.loc 1 207 1 is_stmt 1 view -0
 2362              		.cfi_startproc
 2363              		@ args = 0, pretend = 0, frame = 0
 2364              		@ frame_needed = 0, uses_anonymous_args = 0
 208:Lib/Camera_Middleware/cmw_camera.c **** 
 2365              		.loc 1 208 3 view .LVU872
 210:Lib/Camera_Middleware/cmw_camera.c ****   if (ret != CMW_ERROR_NONE)
 2366              		.loc 1 210 3 view .LVU873
 207:Lib/Camera_Middleware/cmw_camera.c ****   int ret;
 2367              		.loc 1 207 1 is_stmt 0 view .LVU874
 2368 0000 08B5     		push	{r3, lr}
 2369              		.cfi_def_cfa_offset 8
 2370              		.cfi_offset 3, -8
 2371              		.cfi_offset 14, -4
 210:Lib/Camera_Middleware/cmw_camera.c ****   if (ret != CMW_ERROR_NONE)
 2372              		.loc 1 210 19 view .LVU875
 2373 0002 054B     		ldr	r3, .L186
 207:Lib/Camera_Middleware/cmw_camera.c ****   int ret;
 2374              		.loc 1 207 1 view .LVU876
 2375 0004 0A46     		mov	r2, r1
 210:Lib/Camera_Middleware/cmw_camera.c ****   if (ret != CMW_ERROR_NONE)
 2376              		.loc 1 210 9 view .LVU877
 2377 0006 5B6D     		ldr	r3, [r3, #84]
 2378 0008 0146     		mov	r1, r0
 2379              	.LVL189:
 210:Lib/Camera_Middleware/cmw_camera.c ****   if (ret != CMW_ERROR_NONE)
 2380              		.loc 1 210 9 view .LVU878
ARM GAS  C:\Users\DJESSOU\AppData\Local\Temp\cc3dm0Vf.s 			page 114


 2381 000a 0448     		ldr	r0, .L186+4
 2382              	.LVL190:
 210:Lib/Camera_Middleware/cmw_camera.c ****   if (ret != CMW_ERROR_NONE)
 2383              		.loc 1 210 9 view .LVU879
 2384 000c 9847     		blx	r3
 2385              	.LVL191:
 211:Lib/Camera_Middleware/cmw_camera.c ****   {
 2386              		.loc 1 211 3 is_stmt 1 view .LVU880
 213:Lib/Camera_Middleware/cmw_camera.c ****   }
 2387              		.loc 1 213 12 is_stmt 0 view .LVU881
 2388 000e 0028     		cmp	r0, #0
 219:Lib/Camera_Middleware/cmw_camera.c **** 
 2389              		.loc 1 219 1 view .LVU882
 2390 0010 18BF     		it	ne
 2391 0012 6FF00400 		mvnne	r0, #4
 2392              	.LVL192:
 219:Lib/Camera_Middleware/cmw_camera.c **** 
 2393              		.loc 1 219 1 view .LVU883
 2394 0016 08BD     		pop	{r3, pc}
 2395              	.L187:
 2396              		.align	2
 2397              	.L186:
 2398 0018 00000000 		.word	Camera_Drv
 2399 001c 00000000 		.word	camera_bsp
 2400              		.cfi_endproc
 2401              	.LFE868:
 2403              		.section	.text.CMW_CAMERA_ListWBRefModes,"ax",%progbits
 2404              		.align	1
 2405              		.global	CMW_CAMERA_ListWBRefModes
 2406              		.syntax unified
 2407              		.thumb
 2408              		.thumb_func
 2410              	CMW_CAMERA_ListWBRefModes:
 2411              	.LVL193:
 2412              	.LFB869:
 227:Lib/Camera_Middleware/cmw_camera.c ****   int ret;
 2413              		.loc 1 227 1 is_stmt 1 view -0
 2414              		.cfi_startproc
 2415              		@ args = 0, pretend = 0, frame = 0
 2416              		@ frame_needed = 0, uses_anonymous_args = 0
 228:Lib/Camera_Middleware/cmw_camera.c **** 
 2417              		.loc 1 228 3 view .LVU885
 230:Lib/Camera_Middleware/cmw_camera.c ****   if (ret != CMW_ERROR_NONE)
 2418              		.loc 1 230 3 view .LVU886
 227:Lib/Camera_Middleware/cmw_camera.c ****   int ret;
 2419              		.loc 1 227 1 is_stmt 0 view .LVU887
 2420 0000 08B5     		push	{r3, lr}
 2421              		.cfi_def_cfa_offset 8
 2422              		.cfi_offset 3, -8
 2423              		.cfi_offset 14, -4
 230:Lib/Camera_Middleware/cmw_camera.c ****   if (ret != CMW_ERROR_NONE)
 2424              		.loc 1 230 19 view .LVU888
 2425 0002 054B     		ldr	r3, .L191
 227:Lib/Camera_Middleware/cmw_camera.c ****   int ret;
 2426              		.loc 1 227 1 view .LVU889
 2427 0004 0146     		mov	r1, r0
 230:Lib/Camera_Middleware/cmw_camera.c ****   if (ret != CMW_ERROR_NONE)
ARM GAS  C:\Users\DJESSOU\AppData\Local\Temp\cc3dm0Vf.s 			page 115


 2428              		.loc 1 230 9 view .LVU890
 2429 0006 9B6D     		ldr	r3, [r3, #88]
 2430 0008 0448     		ldr	r0, .L191+4
 2431              	.LVL194:
 230:Lib/Camera_Middleware/cmw_camera.c ****   if (ret != CMW_ERROR_NONE)
 2432              		.loc 1 230 9 view .LVU891
 2433 000a 9847     		blx	r3
 2434              	.LVL195:
 231:Lib/Camera_Middleware/cmw_camera.c ****   {
 2435              		.loc 1 231 3 is_stmt 1 view .LVU892
 233:Lib/Camera_Middleware/cmw_camera.c ****   }
 2436              		.loc 1 233 12 is_stmt 0 view .LVU893
 2437 000c 0028     		cmp	r0, #0
 239:Lib/Camera_Middleware/cmw_camera.c **** 
 2438              		.loc 1 239 1 view .LVU894
 2439 000e 18BF     		it	ne
 2440 0010 6FF00400 		mvnne	r0, #4
 2441              	.LVL196:
 239:Lib/Camera_Middleware/cmw_camera.c **** 
 2442              		.loc 1 239 1 view .LVU895
 2443 0014 08BD     		pop	{r3, pc}
 2444              	.L192:
 2445 0016 00BF     		.align	2
 2446              	.L191:
 2447 0018 00000000 		.word	Camera_Drv
 2448 001c 00000000 		.word	camera_bsp
 2449              		.cfi_endproc
 2450              	.LFE869:
 2452              		.section	.text.CMW_CAMERA_SetMirrorFlip,"ax",%progbits
 2453              		.align	1
 2454              		.global	CMW_CAMERA_SetMirrorFlip
 2455              		.syntax unified
 2456              		.thumb
 2457              		.thumb_func
 2459              	CMW_CAMERA_SetMirrorFlip:
 2460              	.LVL197:
 2461              	.LFB872:
 409:Lib/Camera_Middleware/cmw_camera.c ****   int ret;
 2462              		.loc 1 409 1 is_stmt 1 view -0
 2463              		.cfi_startproc
 2464              		@ args = 0, pretend = 0, frame = 0
 2465              		@ frame_needed = 0, uses_anonymous_args = 0
 410:Lib/Camera_Middleware/cmw_camera.c **** 
 2466              		.loc 1 410 3 view .LVU897
 412:Lib/Camera_Middleware/cmw_camera.c ****   {
 2467              		.loc 1 412 3 view .LVU898
 412:Lib/Camera_Middleware/cmw_camera.c ****   {
 2468              		.loc 1 412 17 is_stmt 0 view .LVU899
 2469 0000 084B     		ldr	r3, .L197
 409:Lib/Camera_Middleware/cmw_camera.c ****   int ret;
 2470              		.loc 1 409 1 view .LVU900
 2471 0002 10B5     		push	{r4, lr}
 2472              		.cfi_def_cfa_offset 8
 2473              		.cfi_offset 4, -8
 2474              		.cfi_offset 14, -4
 412:Lib/Camera_Middleware/cmw_camera.c ****   {
 2475              		.loc 1 412 17 view .LVU901
ARM GAS  C:\Users\DJESSOU\AppData\Local\Temp\cc3dm0Vf.s 			page 116


 2476 0004 DB6A     		ldr	r3, [r3, #44]
 409:Lib/Camera_Middleware/cmw_camera.c ****   int ret;
 2477              		.loc 1 409 1 view .LVU902
 2478 0006 0446     		mov	r4, r0
 412:Lib/Camera_Middleware/cmw_camera.c ****   {
 2479              		.loc 1 412 6 view .LVU903
 2480 0008 33B1     		cbz	r3, .L195
 417:Lib/Camera_Middleware/cmw_camera.c ****   if (ret != CMW_ERROR_NONE)
 2481              		.loc 1 417 3 is_stmt 1 view .LVU904
 417:Lib/Camera_Middleware/cmw_camera.c ****   if (ret != CMW_ERROR_NONE)
 2482              		.loc 1 417 9 is_stmt 0 view .LVU905
 2483 000a 0146     		mov	r1, r0
 2484 000c 0648     		ldr	r0, .L197+4
 2485              	.LVL198:
 417:Lib/Camera_Middleware/cmw_camera.c ****   if (ret != CMW_ERROR_NONE)
 2486              		.loc 1 417 9 view .LVU906
 2487 000e 9847     		blx	r3
 2488              	.LVL199:
 418:Lib/Camera_Middleware/cmw_camera.c ****   {
 2489              		.loc 1 418 3 is_stmt 1 view .LVU907
 418:Lib/Camera_Middleware/cmw_camera.c ****   {
 2490              		.loc 1 418 6 is_stmt 0 view .LVU908
 2491 0010 28B9     		cbnz	r0, .L196
 423:Lib/Camera_Middleware/cmw_camera.c ****   ret = CMW_ERROR_NONE;
 2492              		.loc 1 423 3 is_stmt 1 view .LVU909
 423:Lib/Camera_Middleware/cmw_camera.c ****   ret = CMW_ERROR_NONE;
 2493              		.loc 1 423 27 is_stmt 0 view .LVU910
 2494 0012 064B     		ldr	r3, .L197+8
 2495 0014 DC60     		str	r4, [r3, #12]
 424:Lib/Camera_Middleware/cmw_camera.c ****   /* Return CMW status */
 2496              		.loc 1 424 3 is_stmt 1 view .LVU911
 2497              	.LVL200:
 426:Lib/Camera_Middleware/cmw_camera.c **** }
 2498              		.loc 1 426 3 view .LVU912
 2499              	.L193:
 427:Lib/Camera_Middleware/cmw_camera.c **** 
 2500              		.loc 1 427 1 is_stmt 0 view .LVU913
 2501 0016 10BD     		pop	{r4, pc}
 2502              	.LVL201:
 2503              	.L195:
 414:Lib/Camera_Middleware/cmw_camera.c ****   }
 2504              		.loc 1 414 12 view .LVU914
 2505 0018 6FF00A00 		mvn	r0, #10
 2506              	.LVL202:
 414:Lib/Camera_Middleware/cmw_camera.c ****   }
 2507              		.loc 1 414 12 view .LVU915
 2508 001c FBE7     		b	.L193
 2509              	.LVL203:
 2510              	.L196:
 420:Lib/Camera_Middleware/cmw_camera.c ****   }
 2511              		.loc 1 420 12 view .LVU916
 2512 001e 6FF00400 		mvn	r0, #4
 2513              	.LVL204:
 420:Lib/Camera_Middleware/cmw_camera.c ****   }
 2514              		.loc 1 420 12 view .LVU917
 2515 0022 F8E7     		b	.L193
 2516              	.L198:
ARM GAS  C:\Users\DJESSOU\AppData\Local\Temp\cc3dm0Vf.s 			page 117


 2517              		.align	2
 2518              	.L197:
 2519 0024 00000000 		.word	Camera_Drv
 2520 0028 00000000 		.word	camera_bsp
 2521 002c 00000000 		.word	camera_conf
 2522              		.cfi_endproc
 2523              	.LFE872:
 2525              		.section	.text.CMW_CAMERA_GetMirrorFlip,"ax",%progbits
 2526              		.align	1
 2527              		.global	CMW_CAMERA_GetMirrorFlip
 2528              		.syntax unified
 2529              		.thumb
 2530              		.thumb_func
 2532              	CMW_CAMERA_GetMirrorFlip:
 2533              	.LVL205:
 2534              	.LFB873:
 435:Lib/Camera_Middleware/cmw_camera.c ****   *MirrorFlip = camera_conf.mirror_flip;
 2535              		.loc 1 435 1 is_stmt 1 view -0
 2536              		.cfi_startproc
 2537              		@ args = 0, pretend = 0, frame = 0
 2538              		@ frame_needed = 0, uses_anonymous_args = 0
 2539              		@ link register save eliminated.
 436:Lib/Camera_Middleware/cmw_camera.c ****   return CMW_ERROR_NONE;
 2540              		.loc 1 436 3 view .LVU919
 436:Lib/Camera_Middleware/cmw_camera.c ****   return CMW_ERROR_NONE;
 2541              		.loc 1 436 28 is_stmt 0 view .LVU920
 2542 0000 024B     		ldr	r3, .L200
 436:Lib/Camera_Middleware/cmw_camera.c ****   return CMW_ERROR_NONE;
 2543              		.loc 1 436 15 view .LVU921
 2544 0002 DB68     		ldr	r3, [r3, #12]
 2545 0004 0360     		str	r3, [r0]
 437:Lib/Camera_Middleware/cmw_camera.c **** }
 2546              		.loc 1 437 3 is_stmt 1 view .LVU922
 438:Lib/Camera_Middleware/cmw_camera.c **** 
 2547              		.loc 1 438 1 is_stmt 0 view .LVU923
 2548 0006 0020     		movs	r0, #0
 2549              	.LVL206:
 438:Lib/Camera_Middleware/cmw_camera.c **** 
 2550              		.loc 1 438 1 view .LVU924
 2551 0008 7047     		bx	lr
 2552              	.L201:
 2553 000a 00BF     		.align	2
 2554              	.L200:
 2555 000c 00000000 		.word	camera_conf
 2556              		.cfi_endproc
 2557              	.LFE873:
 2559              		.section	.text.CMW_CAMERA_Start,"ax",%progbits
 2560              		.align	1
 2561              		.global	CMW_CAMERA_Start
 2562              		.syntax unified
 2563              		.thumb
 2564              		.thumb_func
 2566              	CMW_CAMERA_Start:
 2567              	.LVL207:
 2568              	.LFB874:
 448:Lib/Camera_Middleware/cmw_camera.c ****   int32_t ret = CMW_ERROR_NONE;
 2569              		.loc 1 448 1 is_stmt 1 view -0
ARM GAS  C:\Users\DJESSOU\AppData\Local\Temp\cc3dm0Vf.s 			page 118


 2570              		.cfi_startproc
 2571              		@ args = 0, pretend = 0, frame = 0
 2572              		@ frame_needed = 0, uses_anonymous_args = 0
 449:Lib/Camera_Middleware/cmw_camera.c **** 
 2573              		.loc 1 449 3 view .LVU926
 451:Lib/Camera_Middleware/cmw_camera.c ****   {
 2574              		.loc 1 451 3 view .LVU927
 451:Lib/Camera_Middleware/cmw_camera.c ****   {
 2575              		.loc 1 451 6 is_stmt 0 view .LVU928
 2576 0000 0228     		cmp	r0, #2
 448:Lib/Camera_Middleware/cmw_camera.c ****   int32_t ret = CMW_ERROR_NONE;
 2577              		.loc 1 448 1 view .LVU929
 2578 0002 0B46     		mov	r3, r1
 2579 0004 13B5     		push	{r0, r1, r4, lr}
 2580              		.cfi_def_cfa_offset 16
 2581              		.cfi_offset 4, -8
 2582              		.cfi_offset 14, -4
 451:Lib/Camera_Middleware/cmw_camera.c ****   {
 2583              		.loc 1 451 6 view .LVU930
 2584 0006 15D8     		bhi	.L206
 456:Lib/Camera_Middleware/cmw_camera.c ****   if (ret != HAL_OK)
 2585              		.loc 1 456 3 is_stmt 1 view .LVU931
 456:Lib/Camera_Middleware/cmw_camera.c ****   if (ret != HAL_OK)
 2586              		.loc 1 456 9 is_stmt 0 view .LVU932
 2587 0008 0146     		mov	r1, r0
 2588              	.LVL208:
 456:Lib/Camera_Middleware/cmw_camera.c ****   if (ret != HAL_OK)
 2589              		.loc 1 456 9 view .LVU933
 2590 000a 0092     		str	r2, [sp]
 2591 000c 0E48     		ldr	r0, .L209
 2592              	.LVL209:
 456:Lib/Camera_Middleware/cmw_camera.c ****   if (ret != HAL_OK)
 2593              		.loc 1 456 9 view .LVU934
 2594 000e 0022     		movs	r2, #0
 2595              	.LVL210:
 456:Lib/Camera_Middleware/cmw_camera.c ****   if (ret != HAL_OK)
 2596              		.loc 1 456 9 view .LVU935
 2597 0010 FFF7FEFF 		bl	HAL_DCMIPP_CSI_PIPE_Start
 2598              	.LVL211:
 457:Lib/Camera_Middleware/cmw_camera.c ****   {
 2599              		.loc 1 457 3 is_stmt 1 view .LVU936
 457:Lib/Camera_Middleware/cmw_camera.c ****   {
 2600              		.loc 1 457 6 is_stmt 0 view .LVU937
 2601 0014 88B9     		cbnz	r0, .L207
 462:Lib/Camera_Middleware/cmw_camera.c ****   {
 2602              		.loc 1 462 3 is_stmt 1 view .LVU938
 462:Lib/Camera_Middleware/cmw_camera.c ****   {
 2603              		.loc 1 462 7 is_stmt 0 view .LVU939
 2604 0016 0D4C     		ldr	r4, .L209+4
 462:Lib/Camera_Middleware/cmw_camera.c ****   {
 2605              		.loc 1 462 6 view .LVU940
 2606 0018 2368     		ldr	r3, [r4]
 2607 001a 13B1     		cbz	r3, .L204
 2608              	.LVL212:
 2609              	.L205:
 473:Lib/Camera_Middleware/cmw_camera.c **** }
 2610              		.loc 1 473 10 view .LVU941
ARM GAS  C:\Users\DJESSOU\AppData\Local\Temp\cc3dm0Vf.s 			page 119


 2611 001c 0020     		movs	r0, #0
 2612              	.L202:
 474:Lib/Camera_Middleware/cmw_camera.c **** 
 2613              		.loc 1 474 1 view .LVU942
 2614 001e 02B0     		add	sp, sp, #8
 2615              		.cfi_remember_state
 2616              		.cfi_def_cfa_offset 8
 2617              		@ sp needed
 2618 0020 10BD     		pop	{r4, pc}
 2619              	.LVL213:
 2620              	.L204:
 2621              		.cfi_restore_state
 464:Lib/Camera_Middleware/cmw_camera.c ****     if (ret != CMW_ERROR_NONE)
 2622              		.loc 1 464 5 is_stmt 1 view .LVU943
 464:Lib/Camera_Middleware/cmw_camera.c ****     if (ret != CMW_ERROR_NONE)
 2623              		.loc 1 464 21 is_stmt 0 view .LVU944
 2624 0022 0B4B     		ldr	r3, .L209+8
 464:Lib/Camera_Middleware/cmw_camera.c ****     if (ret != CMW_ERROR_NONE)
 2625              		.loc 1 464 11 view .LVU945
 2626 0024 0B48     		ldr	r0, .L209+12
 2627              	.LVL214:
 464:Lib/Camera_Middleware/cmw_camera.c ****     if (ret != CMW_ERROR_NONE)
 2628              		.loc 1 464 11 view .LVU946
 2629 0026 9B68     		ldr	r3, [r3, #8]
 2630 0028 9847     		blx	r3
 2631              	.LVL215:
 465:Lib/Camera_Middleware/cmw_camera.c ****     {
 2632              		.loc 1 465 5 is_stmt 1 view .LVU947
 465:Lib/Camera_Middleware/cmw_camera.c ****     {
 2633              		.loc 1 465 8 is_stmt 0 view .LVU948
 2634 002a 48B9     		cbnz	r0, .L208
 469:Lib/Camera_Middleware/cmw_camera.c ****   }
 2635              		.loc 1 469 5 is_stmt 1 view .LVU949
 469:Lib/Camera_Middleware/cmw_camera.c ****   }
 2636              		.loc 1 469 22 is_stmt 0 view .LVU950
 2637 002c 2368     		ldr	r3, [r4]
 2638 002e 0133     		adds	r3, r3, #1
 2639 0030 2360     		str	r3, [r4]
 2640 0032 F3E7     		b	.L205
 2641              	.LVL216:
 2642              	.L206:
 453:Lib/Camera_Middleware/cmw_camera.c ****   }
 2643              		.loc 1 453 12 view .LVU951
 2644 0034 6FF00100 		mvn	r0, #1
 2645              	.LVL217:
 453:Lib/Camera_Middleware/cmw_camera.c ****   }
 2646              		.loc 1 453 12 view .LVU952
 2647 0038 F1E7     		b	.L202
 2648              	.LVL218:
 2649              	.L207:
 459:Lib/Camera_Middleware/cmw_camera.c ****   }
 2650              		.loc 1 459 12 view .LVU953
 2651 003a 6FF00300 		mvn	r0, #3
 2652              	.LVL219:
 459:Lib/Camera_Middleware/cmw_camera.c ****   }
 2653              		.loc 1 459 12 view .LVU954
 2654 003e EEE7     		b	.L202
ARM GAS  C:\Users\DJESSOU\AppData\Local\Temp\cc3dm0Vf.s 			page 120


 2655              	.LVL220:
 2656              	.L208:
 467:Lib/Camera_Middleware/cmw_camera.c ****     }
 2657              		.loc 1 467 14 view .LVU955
 2658 0040 6FF00400 		mvn	r0, #4
 2659              	.LVL221:
 467:Lib/Camera_Middleware/cmw_camera.c ****     }
 2660              		.loc 1 467 14 view .LVU956
 2661 0044 EBE7     		b	.L202
 2662              	.L210:
 2663 0046 00BF     		.align	2
 2664              	.L209:
 2665 0048 00000000 		.word	hcamera_dcmipp
 2666 004c 00000000 		.word	is_camera_started
 2667 0050 00000000 		.word	Camera_Drv
 2668 0054 00000000 		.word	camera_bsp
 2669              		.cfi_endproc
 2670              	.LFE874:
 2672              		.section	.text.CMW_CAMERA_DoubleBufferStart,"ax",%progbits
 2673              		.align	1
 2674              		.global	CMW_CAMERA_DoubleBufferStart
 2675              		.syntax unified
 2676              		.thumb
 2677              		.thumb_func
 2679              	CMW_CAMERA_DoubleBufferStart:
 2680              	.LVL222:
 2681              	.LFB875:
 486:Lib/Camera_Middleware/cmw_camera.c ****   int32_t ret = CMW_ERROR_NONE;
 2682              		.loc 1 486 1 is_stmt 1 view -0
 2683              		.cfi_startproc
 2684              		@ args = 0, pretend = 0, frame = 0
 2685              		@ frame_needed = 0, uses_anonymous_args = 0
 487:Lib/Camera_Middleware/cmw_camera.c **** 
 2686              		.loc 1 487 3 view .LVU958
 489:Lib/Camera_Middleware/cmw_camera.c ****   {
 2687              		.loc 1 489 3 view .LVU959
 489:Lib/Camera_Middleware/cmw_camera.c ****   {
 2688              		.loc 1 489 6 is_stmt 0 view .LVU960
 2689 0000 0228     		cmp	r0, #2
 486:Lib/Camera_Middleware/cmw_camera.c ****   int32_t ret = CMW_ERROR_NONE;
 2690              		.loc 1 486 1 view .LVU961
 2691 0002 13B5     		push	{r0, r1, r4, lr}
 2692              		.cfi_def_cfa_offset 16
 2693              		.cfi_offset 4, -8
 2694              		.cfi_offset 14, -4
 489:Lib/Camera_Middleware/cmw_camera.c ****   {
 2695              		.loc 1 489 6 view .LVU962
 2696 0004 17D8     		bhi	.L215
 494:Lib/Camera_Middleware/cmw_camera.c ****                                             (uint32_t)pbuff2, Mode) != HAL_OK)
 2697              		.loc 1 494 3 is_stmt 1 view .LVU963
 494:Lib/Camera_Middleware/cmw_camera.c ****                                             (uint32_t)pbuff2, Mode) != HAL_OK)
 2698              		.loc 1 494 7 is_stmt 0 view .LVU964
 2699 0006 CDE90023 		strd	r2, r3, [sp]
 2700 000a 0B46     		mov	r3, r1
 2701              	.LVL223:
 494:Lib/Camera_Middleware/cmw_camera.c ****                                             (uint32_t)pbuff2, Mode) != HAL_OK)
 2702              		.loc 1 494 7 view .LVU965
ARM GAS  C:\Users\DJESSOU\AppData\Local\Temp\cc3dm0Vf.s 			page 121


 2703 000c 0022     		movs	r2, #0
 2704              	.LVL224:
 494:Lib/Camera_Middleware/cmw_camera.c ****                                             (uint32_t)pbuff2, Mode) != HAL_OK)
 2705              		.loc 1 494 7 view .LVU966
 2706 000e 0146     		mov	r1, r0
 2707              	.LVL225:
 494:Lib/Camera_Middleware/cmw_camera.c ****                                             (uint32_t)pbuff2, Mode) != HAL_OK)
 2708              		.loc 1 494 7 view .LVU967
 2709 0010 0D48     		ldr	r0, .L218
 2710              	.LVL226:
 494:Lib/Camera_Middleware/cmw_camera.c ****                                             (uint32_t)pbuff2, Mode) != HAL_OK)
 2711              		.loc 1 494 7 view .LVU968
 2712 0012 FFF7FEFF 		bl	HAL_DCMIPP_CSI_PIPE_DoubleBufferStart
 2713              	.LVL227:
 494:Lib/Camera_Middleware/cmw_camera.c ****                                             (uint32_t)pbuff2, Mode) != HAL_OK)
 2714              		.loc 1 494 6 discriminator 1 view .LVU969
 2715 0016 88B9     		cbnz	r0, .L216
 500:Lib/Camera_Middleware/cmw_camera.c ****   {
 2716              		.loc 1 500 3 is_stmt 1 view .LVU970
 500:Lib/Camera_Middleware/cmw_camera.c ****   {
 2717              		.loc 1 500 7 is_stmt 0 view .LVU971
 2718 0018 0C4C     		ldr	r4, .L218+4
 500:Lib/Camera_Middleware/cmw_camera.c ****   {
 2719              		.loc 1 500 6 view .LVU972
 2720 001a 2368     		ldr	r3, [r4]
 2721 001c 13B1     		cbz	r3, .L213
 2722              	.LVL228:
 2723              	.L214:
 511:Lib/Camera_Middleware/cmw_camera.c **** }
 2724              		.loc 1 511 10 view .LVU973
 2725 001e 0020     		movs	r0, #0
 2726              	.L211:
 512:Lib/Camera_Middleware/cmw_camera.c **** #endif
 2727              		.loc 1 512 1 view .LVU974
 2728 0020 02B0     		add	sp, sp, #8
 2729              		.cfi_remember_state
 2730              		.cfi_def_cfa_offset 8
 2731              		@ sp needed
 2732 0022 10BD     		pop	{r4, pc}
 2733              	.LVL229:
 2734              	.L213:
 2735              		.cfi_restore_state
 502:Lib/Camera_Middleware/cmw_camera.c ****     if (ret != CMW_ERROR_NONE)
 2736              		.loc 1 502 5 is_stmt 1 view .LVU975
 502:Lib/Camera_Middleware/cmw_camera.c ****     if (ret != CMW_ERROR_NONE)
 2737              		.loc 1 502 21 is_stmt 0 view .LVU976
 2738 0024 0A4B     		ldr	r3, .L218+8
 502:Lib/Camera_Middleware/cmw_camera.c ****     if (ret != CMW_ERROR_NONE)
 2739              		.loc 1 502 11 view .LVU977
 2740 0026 0B48     		ldr	r0, .L218+12
 2741 0028 9B68     		ldr	r3, [r3, #8]
 2742 002a 9847     		blx	r3
 2743              	.LVL230:
 503:Lib/Camera_Middleware/cmw_camera.c ****     {
 2744              		.loc 1 503 5 is_stmt 1 view .LVU978
 503:Lib/Camera_Middleware/cmw_camera.c ****     {
 2745              		.loc 1 503 8 is_stmt 0 view .LVU979
ARM GAS  C:\Users\DJESSOU\AppData\Local\Temp\cc3dm0Vf.s 			page 122


 2746 002c 48B9     		cbnz	r0, .L217
 507:Lib/Camera_Middleware/cmw_camera.c ****   }
 2747              		.loc 1 507 5 is_stmt 1 view .LVU980
 507:Lib/Camera_Middleware/cmw_camera.c ****   }
 2748              		.loc 1 507 22 is_stmt 0 view .LVU981
 2749 002e 2368     		ldr	r3, [r4]
 2750 0030 0133     		adds	r3, r3, #1
 2751 0032 2360     		str	r3, [r4]
 2752 0034 F3E7     		b	.L214
 2753              	.LVL231:
 2754              	.L215:
 491:Lib/Camera_Middleware/cmw_camera.c ****   }
 2755              		.loc 1 491 12 view .LVU982
 2756 0036 6FF00100 		mvn	r0, #1
 2757              	.LVL232:
 491:Lib/Camera_Middleware/cmw_camera.c ****   }
 2758              		.loc 1 491 12 view .LVU983
 2759 003a F1E7     		b	.L211
 2760              	.LVL233:
 2761              	.L216:
 497:Lib/Camera_Middleware/cmw_camera.c ****   }
 2762              		.loc 1 497 12 view .LVU984
 2763 003c 6FF00300 		mvn	r0, #3
 2764 0040 EEE7     		b	.L211
 2765              	.LVL234:
 2766              	.L217:
 505:Lib/Camera_Middleware/cmw_camera.c ****     }
 2767              		.loc 1 505 14 view .LVU985
 2768 0042 6FF00400 		mvn	r0, #4
 2769              	.LVL235:
 505:Lib/Camera_Middleware/cmw_camera.c ****     }
 2770              		.loc 1 505 14 view .LVU986
 2771 0046 EBE7     		b	.L211
 2772              	.L219:
 2773              		.align	2
 2774              	.L218:
 2775 0048 00000000 		.word	hcamera_dcmipp
 2776 004c 00000000 		.word	is_camera_started
 2777 0050 00000000 		.word	Camera_Drv
 2778 0054 00000000 		.word	camera_bsp
 2779              		.cfi_endproc
 2780              	.LFE875:
 2782              		.section	.text.MX_DCMIPP_ClockConfig,"ax",%progbits
 2783              		.align	1
 2784              		.weak	MX_DCMIPP_ClockConfig
 2785              		.syntax unified
 2786              		.thumb
 2787              		.thumb_func
 2789              	MX_DCMIPP_ClockConfig:
 2790              	.LVL236:
 2791              	.LFB876:
 525:Lib/Camera_Middleware/cmw_camera.c ****   UNUSED(hdcmipp);
 2792              		.loc 1 525 1 is_stmt 1 view -0
 2793              		.cfi_startproc
 2794              		@ args = 0, pretend = 0, frame = 0
 2795              		@ frame_needed = 0, uses_anonymous_args = 0
 2796              		@ link register save eliminated.
ARM GAS  C:\Users\DJESSOU\AppData\Local\Temp\cc3dm0Vf.s 			page 123


 526:Lib/Camera_Middleware/cmw_camera.c **** 
 2797              		.loc 1 526 3 view .LVU988
 528:Lib/Camera_Middleware/cmw_camera.c **** }
 2798              		.loc 1 528 3 view .LVU989
 529:Lib/Camera_Middleware/cmw_camera.c **** 
 2799              		.loc 1 529 1 is_stmt 0 view .LVU990
 2800 0000 0020     		movs	r0, #0
 2801              	.LVL237:
 529:Lib/Camera_Middleware/cmw_camera.c **** 
 2802              		.loc 1 529 1 view .LVU991
 2803 0002 7047     		bx	lr
 2804              		.cfi_endproc
 2805              	.LFE876:
 2807              		.section	.text.CMW_CAMERA_GetSensorName,"ax",%progbits
 2808              		.align	1
 2809              		.global	CMW_CAMERA_GetSensorName
 2810              		.syntax unified
 2811              		.thumb
 2812              		.thumb_func
 2814              	CMW_CAMERA_GetSensorName:
 2815              	.LVL238:
 2816              	.LFB867:
 157:Lib/Camera_Middleware/cmw_camera.c ****   int32_t ret = CMW_ERROR_NONE;
 2817              		.loc 1 157 1 is_stmt 1 view -0
 2818              		.cfi_startproc
 2819              		@ args = 0, pretend = 0, frame = 24
 2820              		@ frame_needed = 0, uses_anonymous_args = 0
 158:Lib/Camera_Middleware/cmw_camera.c ****   CMW_Sensor_Init_t initValues = {0};
 2821              		.loc 1 158 3 view .LVU993
 159:Lib/Camera_Middleware/cmw_camera.c **** 
 2822              		.loc 1 159 3 view .LVU994
 157:Lib/Camera_Middleware/cmw_camera.c ****   int32_t ret = CMW_ERROR_NONE;
 2823              		.loc 1 157 1 is_stmt 0 view .LVU995
 2824 0000 30B5     		push	{r4, r5, lr}
 2825              		.cfi_def_cfa_offset 12
 2826              		.cfi_offset 4, -12
 2827              		.cfi_offset 5, -8
 2828              		.cfi_offset 14, -4
 2829 0002 87B0     		sub	sp, sp, #28
 2830              		.cfi_def_cfa_offset 40
 157:Lib/Camera_Middleware/cmw_camera.c ****   int32_t ret = CMW_ERROR_NONE;
 2831              		.loc 1 157 1 view .LVU996
 2832 0004 0446     		mov	r4, r0
 159:Lib/Camera_Middleware/cmw_camera.c **** 
 2833              		.loc 1 159 21 view .LVU997
 2834 0006 1422     		movs	r2, #20
 2835 0008 0021     		movs	r1, #0
 2836 000a 01A8     		add	r0, sp, #4
 2837              	.LVL239:
 159:Lib/Camera_Middleware/cmw_camera.c **** 
 2838              		.loc 1 159 21 view .LVU998
 2839 000c FFF7FEFF 		bl	memset
 2840              	.LVL240:
 161:Lib/Camera_Middleware/cmw_camera.c ****   {
 2841              		.loc 1 161 3 is_stmt 1 view .LVU999
 161:Lib/Camera_Middleware/cmw_camera.c ****   {
 2842              		.loc 1 161 22 is_stmt 0 view .LVU1000
ARM GAS  C:\Users\DJESSOU\AppData\Local\Temp\cc3dm0Vf.s 			page 124


 2843 0010 114B     		ldr	r3, .L229
 161:Lib/Camera_Middleware/cmw_camera.c ****   {
 2844              		.loc 1 161 6 view .LVU1001
 2845 0012 1B68     		ldr	r3, [r3]
 2846 0014 23B1     		cbz	r3, .L222
 2847              	.LVL241:
 2848              	.L228:
 196:Lib/Camera_Middleware/cmw_camera.c ****   return CMW_ERROR_NONE;
 2849              		.loc 1 196 3 is_stmt 1 view .LVU1002
 196:Lib/Camera_Middleware/cmw_camera.c ****   return CMW_ERROR_NONE;
 2850              		.loc 1 196 15 is_stmt 0 view .LVU1003
 2851 0016 114B     		ldr	r3, .L229+4
 164:Lib/Camera_Middleware/cmw_camera.c ****   }
 2852              		.loc 1 164 12 view .LVU1004
 2853 0018 0020     		movs	r0, #0
 196:Lib/Camera_Middleware/cmw_camera.c ****   return CMW_ERROR_NONE;
 2854              		.loc 1 196 15 view .LVU1005
 2855 001a 1B78     		ldrb	r3, [r3]	@ zero_extendqisi2
 2856 001c 2370     		strb	r3, [r4]
 197:Lib/Camera_Middleware/cmw_camera.c **** }
 2857              		.loc 1 197 3 is_stmt 1 view .LVU1006
 2858 001e 0AE0     		b	.L221
 2859              	.LVL242:
 2860              	.L222:
 167:Lib/Camera_Middleware/cmw_camera.c ****   initValues.height = 0;
 2861              		.loc 1 167 3 view .LVU1007
 168:Lib/Camera_Middleware/cmw_camera.c ****   initValues.fps = 30;
 2862              		.loc 1 168 3 view .LVU1008
 169:Lib/Camera_Middleware/cmw_camera.c ****   initValues.mirrorFlip = CMW_MIRRORFLIP_NONE;
 2863              		.loc 1 169 3 view .LVU1009
 169:Lib/Camera_Middleware/cmw_camera.c ****   initValues.mirrorFlip = CMW_MIRRORFLIP_NONE;
 2864              		.loc 1 169 18 is_stmt 0 view .LVU1010
 2865 0020 1E23     		movs	r3, #30
 174:Lib/Camera_Middleware/cmw_camera.c **** 
 2866              		.loc 1 174 27 view .LVU1011
 2867 0022 0F4D     		ldr	r5, .L229+8
 169:Lib/Camera_Middleware/cmw_camera.c ****   initValues.mirrorFlip = CMW_MIRRORFLIP_NONE;
 2868              		.loc 1 169 18 view .LVU1012
 2869 0024 0393     		str	r3, [sp, #12]
 170:Lib/Camera_Middleware/cmw_camera.c ****   initValues.sensor_config = NULL;
 2870              		.loc 1 170 3 is_stmt 1 view .LVU1013
 171:Lib/Camera_Middleware/cmw_camera.c **** 
 2871              		.loc 1 171 3 view .LVU1014
 174:Lib/Camera_Middleware/cmw_camera.c **** 
 2872              		.loc 1 174 3 view .LVU1015
 174:Lib/Camera_Middleware/cmw_camera.c **** 
 2873              		.loc 1 174 27 is_stmt 0 view .LVU1016
 2874 0026 0F4B     		ldr	r3, .L229+12
 177:Lib/Camera_Middleware/cmw_camera.c ****   if (ret != HAL_OK)
 2875              		.loc 1 177 9 view .LVU1017
 2876 0028 2846     		mov	r0, r5
 174:Lib/Camera_Middleware/cmw_camera.c **** 
 2877              		.loc 1 174 27 view .LVU1018
 2878 002a 2B60     		str	r3, [r5]
 177:Lib/Camera_Middleware/cmw_camera.c ****   if (ret != HAL_OK)
 2879              		.loc 1 177 3 is_stmt 1 view .LVU1019
 177:Lib/Camera_Middleware/cmw_camera.c ****   if (ret != HAL_OK)
ARM GAS  C:\Users\DJESSOU\AppData\Local\Temp\cc3dm0Vf.s 			page 125


 2880              		.loc 1 177 9 is_stmt 0 view .LVU1020
 2881 002c FFF7FEFF 		bl	MX_DCMIPP_ClockConfig
 2882              	.LVL243:
 178:Lib/Camera_Middleware/cmw_camera.c ****   {
 2883              		.loc 1 178 3 is_stmt 1 view .LVU1021
 178:Lib/Camera_Middleware/cmw_camera.c ****   {
 2884              		.loc 1 178 6 is_stmt 0 view .LVU1022
 2885 0030 18B1     		cbz	r0, .L224
 2886              	.LVL244:
 2887              	.L226:
 180:Lib/Camera_Middleware/cmw_camera.c ****   }
 2888              		.loc 1 180 12 view .LVU1023
 2889 0032 6FF00300 		mvn	r0, #3
 2890              	.L221:
 198:Lib/Camera_Middleware/cmw_camera.c **** 
 2891              		.loc 1 198 1 view .LVU1024
 2892 0036 07B0     		add	sp, sp, #28
 2893              		.cfi_remember_state
 2894              		.cfi_def_cfa_offset 12
 2895              		@ sp needed
 2896 0038 30BD     		pop	{r4, r5, pc}
 2897              	.LVL245:
 2898              	.L224:
 2899              		.cfi_restore_state
 183:Lib/Camera_Middleware/cmw_camera.c ****   if (ret != HAL_OK)
 2900              		.loc 1 183 3 is_stmt 1 view .LVU1025
 183:Lib/Camera_Middleware/cmw_camera.c ****   if (ret != HAL_OK)
 2901              		.loc 1 183 9 is_stmt 0 view .LVU1026
 2902 003a 2846     		mov	r0, r5
 2903              	.LVL246:
 183:Lib/Camera_Middleware/cmw_camera.c ****   if (ret != HAL_OK)
 2904              		.loc 1 183 9 view .LVU1027
 2905 003c FFF7FEFF 		bl	HAL_DCMIPP_Init
 2906              	.LVL247:
 184:Lib/Camera_Middleware/cmw_camera.c ****   {
 2907              		.loc 1 184 3 is_stmt 1 view .LVU1028
 184:Lib/Camera_Middleware/cmw_camera.c ****   {
 2908              		.loc 1 184 6 is_stmt 0 view .LVU1029
 2909 0040 0028     		cmp	r0, #0
 2910 0042 F6D1     		bne	.L226
 189:Lib/Camera_Middleware/cmw_camera.c **** 
 2911              		.loc 1 189 3 is_stmt 1 view .LVU1030
 2912 0044 FFF7FEFF 		bl	CMW_CAMERA_EnableGPIOs
 2913              	.LVL248:
 191:Lib/Camera_Middleware/cmw_camera.c ****   if (ret != CMW_ERROR_NONE)
 2914              		.loc 1 191 3 view .LVU1031
 191:Lib/Camera_Middleware/cmw_camera.c ****   if (ret != CMW_ERROR_NONE)
 2915              		.loc 1 191 9 is_stmt 0 view .LVU1032
 2916 0048 01A8     		add	r0, sp, #4
 2917 004a FFF7FEFF 		bl	CMW_CAMERA_Probe_Sensor.constprop.0
 2918              	.LVL249:
 192:Lib/Camera_Middleware/cmw_camera.c ****   {
 2919              		.loc 1 192 3 is_stmt 1 view .LVU1033
 192:Lib/Camera_Middleware/cmw_camera.c ****   {
 2920              		.loc 1 192 6 is_stmt 0 view .LVU1034
 2921 004e 0028     		cmp	r0, #0
 2922 0050 E1D0     		beq	.L228
ARM GAS  C:\Users\DJESSOU\AppData\Local\Temp\cc3dm0Vf.s 			page 126


 194:Lib/Camera_Middleware/cmw_camera.c ****   }
 2923              		.loc 1 194 12 view .LVU1035
 2924 0052 6FF00600 		mvn	r0, #6
 2925              	.LVL250:
 194:Lib/Camera_Middleware/cmw_camera.c ****   }
 2926              		.loc 1 194 12 view .LVU1036
 2927 0056 EEE7     		b	.L221
 2928              	.L230:
 2929              		.align	2
 2930              	.L229:
 2931 0058 00000000 		.word	is_camera_init
 2932 005c 00000000 		.word	connected_sensor
 2933 0060 00000000 		.word	hcamera_dcmipp
 2934 0064 00200058 		.word	1476403200
 2935              		.cfi_endproc
 2936              	.LFE867:
 2938              		.section	.text.CMW_CAMERA_DeInit,"ax",%progbits
 2939              		.align	1
 2940              		.global	CMW_CAMERA_DeInit
 2941              		.syntax unified
 2942              		.thumb
 2943              		.thumb_func
 2945              	CMW_CAMERA_DeInit:
 2946              	.LFB877:
 536:Lib/Camera_Middleware/cmw_camera.c ****   int32_t ret = CMW_ERROR_NONE;
 2947              		.loc 1 536 1 is_stmt 1 view -0
 2948              		.cfi_startproc
 2949              		@ args = 0, pretend = 0, frame = 24
 2950              		@ frame_needed = 0, uses_anonymous_args = 0
 537:Lib/Camera_Middleware/cmw_camera.c **** 
 2951              		.loc 1 537 3 view .LVU1038
 2952              	.LVL251:
 539:Lib/Camera_Middleware/cmw_camera.c ****   {
 2953              		.loc 1 539 3 view .LVU1039
 536:Lib/Camera_Middleware/cmw_camera.c ****   int32_t ret = CMW_ERROR_NONE;
 2954              		.loc 1 536 1 is_stmt 0 view .LVU1040
 2955 0000 2DE9F041 		push	{r4, r5, r6, r7, r8, lr}
 2956              		.cfi_def_cfa_offset 24
 2957              		.cfi_offset 4, -24
 2958              		.cfi_offset 5, -20
 2959              		.cfi_offset 6, -16
 2960              		.cfi_offset 7, -12
 2961              		.cfi_offset 8, -8
 2962              		.cfi_offset 14, -4
 539:Lib/Camera_Middleware/cmw_camera.c ****   {
 2963              		.loc 1 539 7 view .LVU1041
 2964 0004 0121     		movs	r1, #1
 536:Lib/Camera_Middleware/cmw_camera.c ****   int32_t ret = CMW_ERROR_NONE;
 2965              		.loc 1 536 1 view .LVU1042
 2966 0006 86B0     		sub	sp, sp, #24
 2967              		.cfi_def_cfa_offset 48
 539:Lib/Camera_Middleware/cmw_camera.c ****   {
 2968              		.loc 1 539 7 view .LVU1043
 2969 0008 2E48     		ldr	r0, .L246
 2970 000a FFF7FEFF 		bl	HAL_DCMIPP_PIPE_GetState
 2971              	.LVL252:
 539:Lib/Camera_Middleware/cmw_camera.c ****   {
ARM GAS  C:\Users\DJESSOU\AppData\Local\Temp\cc3dm0Vf.s 			page 127


 2972              		.loc 1 539 6 discriminator 1 view .LVU1044
 2973 000e 70B9     		cbnz	r0, .L232
 2974              	.LVL253:
 2975              	.L235:
 548:Lib/Camera_Middleware/cmw_camera.c ****   {
 2976              		.loc 1 548 3 is_stmt 1 view .LVU1045
 548:Lib/Camera_Middleware/cmw_camera.c ****   {
 2977              		.loc 1 548 7 is_stmt 0 view .LVU1046
 2978 0010 0221     		movs	r1, #2
 2979 0012 2C48     		ldr	r0, .L246
 2980 0014 FFF7FEFF 		bl	HAL_DCMIPP_PIPE_GetState
 2981              	.LVL254:
 548:Lib/Camera_Middleware/cmw_camera.c ****   {
 2982              		.loc 1 548 6 discriminator 1 view .LVU1047
 2983 0018 A8B9     		cbnz	r0, .L233
 2984              	.L234:
 557:Lib/Camera_Middleware/cmw_camera.c ****   if (ret != HAL_OK)
 2985              		.loc 1 557 3 is_stmt 1 view .LVU1048
 557:Lib/Camera_Middleware/cmw_camera.c ****   if (ret != HAL_OK)
 2986              		.loc 1 557 9 is_stmt 0 view .LVU1049
 2987 001a 2A48     		ldr	r0, .L246
 2988 001c FFF7FEFF 		bl	HAL_DCMIPP_DeInit
 2989              	.LVL255:
 558:Lib/Camera_Middleware/cmw_camera.c ****   {
 2990              		.loc 1 558 3 is_stmt 1 view .LVU1050
 558:Lib/Camera_Middleware/cmw_camera.c ****   {
 2991              		.loc 1 558 6 is_stmt 0 view .LVU1051
 2992 0020 60B9     		cbnz	r0, .L237
 563:Lib/Camera_Middleware/cmw_camera.c ****   {
 2993              		.loc 1 563 3 is_stmt 1 view .LVU1052
 563:Lib/Camera_Middleware/cmw_camera.c ****   {
 2994              		.loc 1 563 22 is_stmt 0 view .LVU1053
 2995 0022 294D     		ldr	r5, .L246+4
 563:Lib/Camera_Middleware/cmw_camera.c ****   {
 2996              		.loc 1 563 6 view .LVU1054
 2997 0024 2B68     		ldr	r3, [r5]
 2998 0026 002B     		cmp	r3, #0
 2999 0028 15DC     		bgt	.L239
 3000              	.LVL256:
 3001              	.L240:
 565:Lib/Camera_Middleware/cmw_camera.c ****   }
 3002              		.loc 1 565 12 view .LVU1055
 3003 002a 0020     		movs	r0, #0
 3004 002c 08E0     		b	.L231
 3005              	.LVL257:
 3006              	.L232:
 541:Lib/Camera_Middleware/cmw_camera.c ****     if (ret != HAL_OK)
 3007              		.loc 1 541 5 is_stmt 1 view .LVU1056
 541:Lib/Camera_Middleware/cmw_camera.c ****     if (ret != HAL_OK)
 3008              		.loc 1 541 11 is_stmt 0 view .LVU1057
 3009 002e 0022     		movs	r2, #0
 3010 0030 0121     		movs	r1, #1
 3011 0032 2448     		ldr	r0, .L246
 3012 0034 FFF7FEFF 		bl	HAL_DCMIPP_CSI_PIPE_Stop
 3013              	.LVL258:
 542:Lib/Camera_Middleware/cmw_camera.c ****     {
 3014              		.loc 1 542 5 is_stmt 1 view .LVU1058
ARM GAS  C:\Users\DJESSOU\AppData\Local\Temp\cc3dm0Vf.s 			page 128


 542:Lib/Camera_Middleware/cmw_camera.c ****     {
 3015              		.loc 1 542 8 is_stmt 0 view .LVU1059
 3016 0038 0028     		cmp	r0, #0
 3017 003a E9D0     		beq	.L235
 3018              	.LVL259:
 3019              	.L237:
 544:Lib/Camera_Middleware/cmw_camera.c ****     }
 3020              		.loc 1 544 14 view .LVU1060
 3021 003c 6FF00300 		mvn	r0, #3
 3022              	.L231:
 585:Lib/Camera_Middleware/cmw_camera.c **** 
 3023              		.loc 1 585 1 view .LVU1061
 3024 0040 06B0     		add	sp, sp, #24
 3025              		.cfi_remember_state
 3026              		.cfi_def_cfa_offset 24
 3027              		@ sp needed
 3028 0042 BDE8F081 		pop	{r4, r5, r6, r7, r8, pc}
 3029              	.L233:
 3030              		.cfi_restore_state
 550:Lib/Camera_Middleware/cmw_camera.c ****     if (ret != HAL_OK)
 3031              		.loc 1 550 5 is_stmt 1 view .LVU1062
 550:Lib/Camera_Middleware/cmw_camera.c ****     if (ret != HAL_OK)
 3032              		.loc 1 550 11 is_stmt 0 view .LVU1063
 3033 0046 0022     		movs	r2, #0
 3034 0048 0221     		movs	r1, #2
 3035 004a 1E48     		ldr	r0, .L246
 3036 004c FFF7FEFF 		bl	HAL_DCMIPP_CSI_PIPE_Stop
 3037              	.LVL260:
 551:Lib/Camera_Middleware/cmw_camera.c ****     {
 3038              		.loc 1 551 5 is_stmt 1 view .LVU1064
 551:Lib/Camera_Middleware/cmw_camera.c ****     {
 3039              		.loc 1 551 8 is_stmt 0 view .LVU1065
 3040 0050 0028     		cmp	r0, #0
 3041 0052 E2D0     		beq	.L234
 3042 0054 F2E7     		b	.L237
 3043              	.L239:
 569:Lib/Camera_Middleware/cmw_camera.c ****   if (ret != CMW_ERROR_NONE)
 3044              		.loc 1 569 3 is_stmt 1 view .LVU1066
 569:Lib/Camera_Middleware/cmw_camera.c ****   if (ret != CMW_ERROR_NONE)
 3045              		.loc 1 569 19 is_stmt 0 view .LVU1067
 3046 0056 1D4B     		ldr	r3, .L246+8
 569:Lib/Camera_Middleware/cmw_camera.c ****   if (ret != CMW_ERROR_NONE)
 3047              		.loc 1 569 9 view .LVU1068
 3048 0058 1D48     		ldr	r0, .L246+12
 3049              	.LVL261:
 569:Lib/Camera_Middleware/cmw_camera.c ****   if (ret != CMW_ERROR_NONE)
 3050              		.loc 1 569 9 view .LVU1069
 3051 005a 5B68     		ldr	r3, [r3, #4]
 3052 005c 9847     		blx	r3
 3053              	.LVL262:
 570:Lib/Camera_Middleware/cmw_camera.c ****   {
 3054              		.loc 1 570 3 is_stmt 1 view .LVU1070
 570:Lib/Camera_Middleware/cmw_camera.c ****   {
 3055              		.loc 1 570 6 is_stmt 0 view .LVU1071
 3056 005e 0446     		mov	r4, r0
 3057 0060 60BB     		cbnz	r0, .L241
 575:Lib/Camera_Middleware/cmw_camera.c **** 
ARM GAS  C:\Users\DJESSOU\AppData\Local\Temp\cc3dm0Vf.s 			page 129


 3058              		.loc 1 575 3 is_stmt 1 view .LVU1072
 3059              	.LBB126:
 3060              	.LBI126:
1006:Lib/Camera_Middleware/cmw_camera.c **** {
 3061              		.loc 1 1006 13 view .LVU1073
 3062              	.LBB127:
1008:Lib/Camera_Middleware/cmw_camera.c **** 
 3063              		.loc 1 1008 3 view .LVU1074
1012:Lib/Camera_Middleware/cmw_camera.c ****   HAL_GPIO_Init(EN_CAM_PORT, &gpio_init_structure);
 3064              		.loc 1 1012 33 is_stmt 0 view .LVU1075
 3065 0062 0427     		movs	r7, #4
 3066 0064 4FF00108 		mov	r8, #1
1015:Lib/Camera_Middleware/cmw_camera.c ****   gpio_init_structure.Pull      = GPIO_NOPULL;
 3067              		.loc 1 1015 33 view .LVU1076
 3068 0068 4FF48076 		mov	r6, #256
1008:Lib/Camera_Middleware/cmw_camera.c **** 
 3069              		.loc 1 1008 20 view .LVU1077
 3070 006c CDE90300 		strd	r0, r0, [sp, #12]
 3071 0070 0590     		str	r0, [sp, #20]
1010:Lib/Camera_Middleware/cmw_camera.c ****   gpio_init_structure.Pull      = GPIO_NOPULL;
 3072              		.loc 1 1010 3 is_stmt 1 view .LVU1078
1013:Lib/Camera_Middleware/cmw_camera.c **** 
 3073              		.loc 1 1013 3 is_stmt 0 view .LVU1079
 3074 0072 0DEB0701 		add	r1, sp, r7
 3075 0076 1748     		ldr	r0, .L246+16
 3076              	.LVL263:
1012:Lib/Camera_Middleware/cmw_camera.c ****   HAL_GPIO_Init(EN_CAM_PORT, &gpio_init_structure);
 3077              		.loc 1 1012 33 view .LVU1080
 3078 0078 CDE90178 		strd	r7, r8, [sp, #4]
1013:Lib/Camera_Middleware/cmw_camera.c **** 
 3079              		.loc 1 1013 3 is_stmt 1 view .LVU1081
 3080 007c FFF7FEFF 		bl	HAL_GPIO_Init
 3081              	.LVL264:
1015:Lib/Camera_Middleware/cmw_camera.c ****   gpio_init_structure.Pull      = GPIO_NOPULL;
 3082              		.loc 1 1015 3 view .LVU1082
1018:Lib/Camera_Middleware/cmw_camera.c **** 
 3083              		.loc 1 1018 3 is_stmt 0 view .LVU1083
 3084 0080 1548     		ldr	r0, .L246+20
 3085 0082 0DEB0701 		add	r1, sp, r7
1017:Lib/Camera_Middleware/cmw_camera.c ****   HAL_GPIO_Init(NRST_CAM_PORT, &gpio_init_structure);
 3086              		.loc 1 1017 33 view .LVU1084
 3087 0086 CDE90284 		strd	r8, r4, [sp, #8]
1015:Lib/Camera_Middleware/cmw_camera.c ****   gpio_init_structure.Pull      = GPIO_NOPULL;
 3088              		.loc 1 1015 33 view .LVU1085
 3089 008a 0196     		str	r6, [sp, #4]
1016:Lib/Camera_Middleware/cmw_camera.c ****   gpio_init_structure.Mode      = GPIO_MODE_OUTPUT_PP;
 3090              		.loc 1 1016 3 is_stmt 1 view .LVU1086
1018:Lib/Camera_Middleware/cmw_camera.c **** 
 3091              		.loc 1 1018 3 view .LVU1087
 3092 008c FFF7FEFF 		bl	HAL_GPIO_Init
 3093              	.LVL265:
1022:Lib/Camera_Middleware/cmw_camera.c **** 
 3094              		.loc 1 1022 3 view .LVU1088
 3095 0090 2246     		mov	r2, r4
 3096 0092 3946     		mov	r1, r7
 3097 0094 0F48     		ldr	r0, .L246+16
 3098 0096 FFF7FEFF 		bl	HAL_GPIO_WritePin
ARM GAS  C:\Users\DJESSOU\AppData\Local\Temp\cc3dm0Vf.s 			page 130


 3099              	.LVL266:
1025:Lib/Camera_Middleware/cmw_camera.c **** 
 3100              		.loc 1 1025 3 view .LVU1089
 3101 009a 2246     		mov	r2, r4
 3102 009c 3146     		mov	r1, r6
 3103 009e 0E48     		ldr	r0, .L246+20
 3104 00a0 FFF7FEFF 		bl	HAL_GPIO_WritePin
 3105              	.LVL267:
 3106              	.LBE127:
 3107              	.LBE126:
 578:Lib/Camera_Middleware/cmw_camera.c ****   is_camera_started--;
 3108              		.loc 1 578 3 view .LVU1090
 578:Lib/Camera_Middleware/cmw_camera.c ****   is_camera_started--;
 3109              		.loc 1 578 17 is_stmt 0 view .LVU1091
 3110 00a4 2B68     		ldr	r3, [r5]
 579:Lib/Camera_Middleware/cmw_camera.c ****   is_pipe1_2_shared--;
 3111              		.loc 1 579 20 view .LVU1092
 3112 00a6 0D4A     		ldr	r2, .L246+24
 578:Lib/Camera_Middleware/cmw_camera.c ****   is_camera_started--;
 3113              		.loc 1 578 17 view .LVU1093
 3114 00a8 013B     		subs	r3, r3, #1
 3115 00aa 2B60     		str	r3, [r5]
 579:Lib/Camera_Middleware/cmw_camera.c ****   is_pipe1_2_shared--;
 3116              		.loc 1 579 3 is_stmt 1 view .LVU1094
 579:Lib/Camera_Middleware/cmw_camera.c ****   is_pipe1_2_shared--;
 3117              		.loc 1 579 20 is_stmt 0 view .LVU1095
 3118 00ac 1368     		ldr	r3, [r2]
 3119 00ae 013B     		subs	r3, r3, #1
 3120 00b0 1360     		str	r3, [r2]
 580:Lib/Camera_Middleware/cmw_camera.c **** 
 3121              		.loc 1 580 3 is_stmt 1 view .LVU1096
 580:Lib/Camera_Middleware/cmw_camera.c **** 
 3122              		.loc 1 580 20 is_stmt 0 view .LVU1097
 3123 00b2 0B4A     		ldr	r2, .L246+28
 3124 00b4 1368     		ldr	r3, [r2]
 3125 00b6 013B     		subs	r3, r3, #1
 3126 00b8 1360     		str	r3, [r2]
 583:Lib/Camera_Middleware/cmw_camera.c ****   return ret;
 3127              		.loc 1 583 3 is_stmt 1 view .LVU1098
 3128              	.LVL268:
 584:Lib/Camera_Middleware/cmw_camera.c **** }
 3129              		.loc 1 584 3 view .LVU1099
 584:Lib/Camera_Middleware/cmw_camera.c **** }
 3130              		.loc 1 584 10 is_stmt 0 view .LVU1100
 3131 00ba B6E7     		b	.L240
 3132              	.LVL269:
 3133              	.L241:
 572:Lib/Camera_Middleware/cmw_camera.c ****   }
 3134              		.loc 1 572 12 view .LVU1101
 3135 00bc 6FF00400 		mvn	r0, #4
 3136              	.LVL270:
 572:Lib/Camera_Middleware/cmw_camera.c ****   }
 3137              		.loc 1 572 12 view .LVU1102
 3138 00c0 BEE7     		b	.L231
 3139              	.L247:
 3140 00c2 00BF     		.align	2
 3141              	.L246:
ARM GAS  C:\Users\DJESSOU\AppData\Local\Temp\cc3dm0Vf.s 			page 131


 3142 00c4 00000000 		.word	hcamera_dcmipp
 3143 00c8 00000000 		.word	is_camera_init
 3144 00cc 00000000 		.word	Camera_Drv
 3145 00d0 00000000 		.word	camera_bsp
 3146 00d4 000C0256 		.word	1442974720
 3147 00d8 00080256 		.word	1442973696
 3148 00dc 00000000 		.word	is_camera_started
 3149 00e0 00000000 		.word	is_pipe1_2_shared
 3150              		.cfi_endproc
 3151              	.LFE877:
 3153              		.section	.text.CMW_CAMERA_Suspend,"ax",%progbits
 3154              		.align	1
 3155              		.global	CMW_CAMERA_Suspend
 3156              		.syntax unified
 3157              		.thumb
 3158              		.thumb_func
 3160              	CMW_CAMERA_Suspend:
 3161              	.LVL271:
 3162              	.LFB878:
 593:Lib/Camera_Middleware/cmw_camera.c ****   HAL_DCMIPP_PipeStateTypeDef state = hcamera_dcmipp.PipeState[pipe];
 3163              		.loc 1 593 1 is_stmt 1 view -0
 3164              		.cfi_startproc
 3165              		@ args = 0, pretend = 0, frame = 0
 3166              		@ frame_needed = 0, uses_anonymous_args = 0
 594:Lib/Camera_Middleware/cmw_camera.c **** 
 3167              		.loc 1 594 3 view .LVU1104
 593:Lib/Camera_Middleware/cmw_camera.c ****   HAL_DCMIPP_PipeStateTypeDef state = hcamera_dcmipp.PipeState[pipe];
 3168              		.loc 1 593 1 is_stmt 0 view .LVU1105
 3169 0000 0146     		mov	r1, r0
 3170 0002 08B5     		push	{r3, lr}
 3171              		.cfi_def_cfa_offset 8
 3172              		.cfi_offset 3, -8
 3173              		.cfi_offset 14, -4
 594:Lib/Camera_Middleware/cmw_camera.c **** 
 3174              		.loc 1 594 31 view .LVU1106
 3175 0004 0848     		ldr	r0, .L255
 3176              	.LVL272:
 594:Lib/Camera_Middleware/cmw_camera.c **** 
 3177              		.loc 1 594 31 view .LVU1107
 3178 0006 4318     		adds	r3, r0, r1
 3179 0008 5B79     		ldrb	r3, [r3, #5]	@ zero_extendqisi2
 596:Lib/Camera_Middleware/cmw_camera.c ****   {
 3180              		.loc 1 596 6 view .LVU1108
 3181 000a 032B     		cmp	r3, #3
 594:Lib/Camera_Middleware/cmw_camera.c **** 
 3182              		.loc 1 594 31 view .LVU1109
 3183 000c DAB2     		uxtb	r2, r3
 3184              	.LVL273:
 596:Lib/Camera_Middleware/cmw_camera.c ****   {
 3185              		.loc 1 596 3 is_stmt 1 view .LVU1110
 596:Lib/Camera_Middleware/cmw_camera.c ****   {
 3186              		.loc 1 596 6 is_stmt 0 view .LVU1111
 3187 000e 01D1     		bne	.L249
 3188              	.LVL274:
 3189              	.L251:
 598:Lib/Camera_Middleware/cmw_camera.c ****   }
 3190              		.loc 1 598 12 view .LVU1112
ARM GAS  C:\Users\DJESSOU\AppData\Local\Temp\cc3dm0Vf.s 			page 132


 3191 0010 0020     		movs	r0, #0
 3192              	.L248:
 610:Lib/Camera_Middleware/cmw_camera.c **** 
 3193              		.loc 1 610 1 view .LVU1113
 3194 0012 08BD     		pop	{r3, pc}
 3195              	.LVL275:
 3196              	.L249:
 600:Lib/Camera_Middleware/cmw_camera.c ****   {
 3197              		.loc 1 600 8 is_stmt 1 view .LVU1114
 600:Lib/Camera_Middleware/cmw_camera.c ****   {
 3198              		.loc 1 600 11 is_stmt 0 view .LVU1115
 3199 0014 012A     		cmp	r2, #1
 3200 0016 FBD9     		bls	.L251
 602:Lib/Camera_Middleware/cmw_camera.c ****     {
 3201              		.loc 1 602 5 is_stmt 1 view .LVU1116
 602:Lib/Camera_Middleware/cmw_camera.c ****     {
 3202              		.loc 1 602 9 is_stmt 0 view .LVU1117
 3203 0018 FFF7FEFF 		bl	HAL_DCMIPP_PIPE_Suspend
 3204              	.LVL276:
 602:Lib/Camera_Middleware/cmw_camera.c ****     {
 3205              		.loc 1 602 8 discriminator 1 view .LVU1118
 3206 001c 0028     		cmp	r0, #0
 3207 001e F7D0     		beq	.L251
 604:Lib/Camera_Middleware/cmw_camera.c ****     }
 3208              		.loc 1 604 14 view .LVU1119
 3209 0020 6FF00300 		mvn	r0, #3
 3210 0024 F5E7     		b	.L248
 3211              	.L256:
 3212 0026 00BF     		.align	2
 3213              	.L255:
 3214 0028 00000000 		.word	hcamera_dcmipp
 3215              		.cfi_endproc
 3216              	.LFE878:
 3218              		.section	.text.CMW_CAMERA_Resume,"ax",%progbits
 3219              		.align	1
 3220              		.global	CMW_CAMERA_Resume
 3221              		.syntax unified
 3222              		.thumb
 3223              		.thumb_func
 3225              	CMW_CAMERA_Resume:
 3226              	.LVL277:
 3227              	.LFB879:
 618:Lib/Camera_Middleware/cmw_camera.c ****   HAL_DCMIPP_PipeStateTypeDef state = hcamera_dcmipp.PipeState[pipe];
 3228              		.loc 1 618 1 is_stmt 1 view -0
 3229              		.cfi_startproc
 3230              		@ args = 0, pretend = 0, frame = 0
 3231              		@ frame_needed = 0, uses_anonymous_args = 0
 619:Lib/Camera_Middleware/cmw_camera.c **** 
 3232              		.loc 1 619 3 view .LVU1121
 618:Lib/Camera_Middleware/cmw_camera.c ****   HAL_DCMIPP_PipeStateTypeDef state = hcamera_dcmipp.PipeState[pipe];
 3233              		.loc 1 618 1 is_stmt 0 view .LVU1122
 3234 0000 0146     		mov	r1, r0
 3235 0002 08B5     		push	{r3, lr}
 3236              		.cfi_def_cfa_offset 8
 3237              		.cfi_offset 3, -8
 3238              		.cfi_offset 14, -4
 619:Lib/Camera_Middleware/cmw_camera.c **** 
ARM GAS  C:\Users\DJESSOU\AppData\Local\Temp\cc3dm0Vf.s 			page 133


 3239              		.loc 1 619 31 view .LVU1123
 3240 0004 0648     		ldr	r0, .L264
 3241              	.LVL278:
 619:Lib/Camera_Middleware/cmw_camera.c **** 
 3242              		.loc 1 619 31 view .LVU1124
 3243 0006 4318     		adds	r3, r0, r1
 3244 0008 5B79     		ldrb	r3, [r3, #5]	@ zero_extendqisi2
 3245              	.LVL279:
 621:Lib/Camera_Middleware/cmw_camera.c ****   {
 3246              		.loc 1 621 3 is_stmt 1 view .LVU1125
 625:Lib/Camera_Middleware/cmw_camera.c ****   {
 3247              		.loc 1 625 8 view .LVU1126
 625:Lib/Camera_Middleware/cmw_camera.c ****   {
 3248              		.loc 1 625 11 is_stmt 0 view .LVU1127
 3249 000a 022B     		cmp	r3, #2
 3250 000c 01D8     		bhi	.L258
 3251              	.LVL280:
 3252              	.L260:
 623:Lib/Camera_Middleware/cmw_camera.c ****   }
 3253              		.loc 1 623 12 view .LVU1128
 3254 000e 0020     		movs	r0, #0
 3255              	.L257:
 635:Lib/Camera_Middleware/cmw_camera.c **** 
 3256              		.loc 1 635 1 view .LVU1129
 3257 0010 08BD     		pop	{r3, pc}
 3258              	.LVL281:
 3259              	.L258:
 627:Lib/Camera_Middleware/cmw_camera.c ****     {
 3260              		.loc 1 627 5 is_stmt 1 view .LVU1130
 627:Lib/Camera_Middleware/cmw_camera.c ****     {
 3261              		.loc 1 627 9 is_stmt 0 view .LVU1131
 3262 0012 FFF7FEFF 		bl	HAL_DCMIPP_PIPE_Resume
 3263              	.LVL282:
 627:Lib/Camera_Middleware/cmw_camera.c ****     {
 3264              		.loc 1 627 8 discriminator 1 view .LVU1132
 3265 0016 0028     		cmp	r0, #0
 3266 0018 F9D0     		beq	.L260
 629:Lib/Camera_Middleware/cmw_camera.c ****     }
 3267              		.loc 1 629 14 view .LVU1133
 3268 001a 6FF00300 		mvn	r0, #3
 3269 001e F7E7     		b	.L257
 3270              	.L265:
 3271              		.align	2
 3272              	.L264:
 3273 0020 00000000 		.word	hcamera_dcmipp
 3274              		.cfi_endproc
 3275              	.LFE879:
 3277              		.section	.text.CMW_CAMERA_EnableRestartState,"ax",%progbits
 3278              		.align	1
 3279              		.global	CMW_CAMERA_EnableRestartState
 3280              		.syntax unified
 3281              		.thumb
 3282              		.thumb_func
 3284              	CMW_CAMERA_EnableRestartState:
 3285              	.LVL283:
 3286              	.LFB880:
 645:Lib/Camera_Middleware/cmw_camera.c ****   if (ISP_EnableRestartState(NULL, ISP_RestartState) != ISP_OK)
ARM GAS  C:\Users\DJESSOU\AppData\Local\Temp\cc3dm0Vf.s 			page 134


 3287              		.loc 1 645 1 is_stmt 1 view -0
 3288              		.cfi_startproc
 3289              		@ args = 0, pretend = 0, frame = 0
 3290              		@ frame_needed = 0, uses_anonymous_args = 0
 646:Lib/Camera_Middleware/cmw_camera.c ****   {
 3291              		.loc 1 646 3 view .LVU1135
 645:Lib/Camera_Middleware/cmw_camera.c ****   if (ISP_EnableRestartState(NULL, ISP_RestartState) != ISP_OK)
 3292              		.loc 1 645 1 is_stmt 0 view .LVU1136
 3293 0000 0146     		mov	r1, r0
 3294 0002 08B5     		push	{r3, lr}
 3295              		.cfi_def_cfa_offset 8
 3296              		.cfi_offset 3, -8
 3297              		.cfi_offset 14, -4
 646:Lib/Camera_Middleware/cmw_camera.c ****   {
 3298              		.loc 1 646 7 view .LVU1137
 3299 0004 0020     		movs	r0, #0
 3300              	.LVL284:
 646:Lib/Camera_Middleware/cmw_camera.c ****   {
 3301              		.loc 1 646 7 view .LVU1138
 3302 0006 FFF7FEFF 		bl	ISP_EnableRestartState
 3303              	.LVL285:
 652:Lib/Camera_Middleware/cmw_camera.c **** }
 3304              		.loc 1 652 10 view .LVU1139
 3305 000a 0028     		cmp	r0, #0
 653:Lib/Camera_Middleware/cmw_camera.c **** 
 3306              		.loc 1 653 1 view .LVU1140
 3307 000c 14BF     		ite	ne
 3308 000e 6FF00400 		mvnne	r0, #4
 3309 0012 0020     		moveq	r0, #0
 3310 0014 08BD     		pop	{r3, pc}
 3311              		.cfi_endproc
 3312              	.LFE880:
 3314              		.section	.text.CMW_CAMERA_DisableRestartState,"ax",%progbits
 3315              		.align	1
 3316              		.global	CMW_CAMERA_DisableRestartState
 3317              		.syntax unified
 3318              		.thumb
 3319              		.thumb_func
 3321              	CMW_CAMERA_DisableRestartState:
 3322              	.LFB881:
 660:Lib/Camera_Middleware/cmw_camera.c ****   if (ISP_DisableRestartState(NULL) != ISP_OK)
 3323              		.loc 1 660 1 is_stmt 1 view -0
 3324              		.cfi_startproc
 3325              		@ args = 0, pretend = 0, frame = 0
 3326              		@ frame_needed = 0, uses_anonymous_args = 0
 661:Lib/Camera_Middleware/cmw_camera.c ****   {
 3327              		.loc 1 661 3 view .LVU1142
 660:Lib/Camera_Middleware/cmw_camera.c ****   if (ISP_DisableRestartState(NULL) != ISP_OK)
 3328              		.loc 1 660 1 is_stmt 0 view .LVU1143
 3329 0000 08B5     		push	{r3, lr}
 3330              		.cfi_def_cfa_offset 8
 3331              		.cfi_offset 3, -8
 3332              		.cfi_offset 14, -4
 661:Lib/Camera_Middleware/cmw_camera.c ****   {
 3333              		.loc 1 661 7 view .LVU1144
 3334 0002 0020     		movs	r0, #0
 3335 0004 FFF7FEFF 		bl	ISP_DisableRestartState
ARM GAS  C:\Users\DJESSOU\AppData\Local\Temp\cc3dm0Vf.s 			page 135


 3336              	.LVL286:
 667:Lib/Camera_Middleware/cmw_camera.c **** }
 3337              		.loc 1 667 10 view .LVU1145
 3338 0008 0028     		cmp	r0, #0
 668:Lib/Camera_Middleware/cmw_camera.c **** 
 3339              		.loc 1 668 1 view .LVU1146
 3340 000a 14BF     		ite	ne
 3341 000c 6FF00400 		mvnne	r0, #4
 3342 0010 0020     		moveq	r0, #0
 3343 0012 08BD     		pop	{r3, pc}
 3344              		.cfi_endproc
 3345              	.LFE881:
 3347              		.section	.text.CMW_CAMERA_SetGain,"ax",%progbits
 3348              		.align	1
 3349              		.global	CMW_CAMERA_SetGain
 3350              		.syntax unified
 3351              		.thumb
 3352              		.thumb_func
 3354              	CMW_CAMERA_SetGain:
 3355              	.LVL287:
 3356              	.LFB882:
 676:Lib/Camera_Middleware/cmw_camera.c ****   int ret;
 3357              		.loc 1 676 1 is_stmt 1 view -0
 3358              		.cfi_startproc
 3359              		@ args = 0, pretend = 0, frame = 0
 3360              		@ frame_needed = 0, uses_anonymous_args = 0
 677:Lib/Camera_Middleware/cmw_camera.c ****   if(Camera_Drv.SetGain == NULL)
 3361              		.loc 1 677 3 view .LVU1148
 678:Lib/Camera_Middleware/cmw_camera.c ****   {
 3362              		.loc 1 678 3 view .LVU1149
 678:Lib/Camera_Middleware/cmw_camera.c ****   {
 3363              		.loc 1 678 16 is_stmt 0 view .LVU1150
 3364 0000 084B     		ldr	r3, .L276
 676:Lib/Camera_Middleware/cmw_camera.c ****   int ret;
 3365              		.loc 1 676 1 view .LVU1151
 3366 0002 10B5     		push	{r4, lr}
 3367              		.cfi_def_cfa_offset 8
 3368              		.cfi_offset 4, -8
 3369              		.cfi_offset 14, -4
 678:Lib/Camera_Middleware/cmw_camera.c ****   {
 3370              		.loc 1 678 16 view .LVU1152
 3371 0004 9B6C     		ldr	r3, [r3, #72]
 676:Lib/Camera_Middleware/cmw_camera.c ****   int ret;
 3372              		.loc 1 676 1 view .LVU1153
 3373 0006 0446     		mov	r4, r0
 678:Lib/Camera_Middleware/cmw_camera.c ****   {
 3374              		.loc 1 678 5 view .LVU1154
 3375 0008 33B1     		cbz	r3, .L274
 683:Lib/Camera_Middleware/cmw_camera.c ****   if (ret != CMW_ERROR_NONE)
 3376              		.loc 1 683 3 is_stmt 1 view .LVU1155
 683:Lib/Camera_Middleware/cmw_camera.c ****   if (ret != CMW_ERROR_NONE)
 3377              		.loc 1 683 9 is_stmt 0 view .LVU1156
 3378 000a 0146     		mov	r1, r0
 3379 000c 0648     		ldr	r0, .L276+4
 3380              	.LVL288:
 683:Lib/Camera_Middleware/cmw_camera.c ****   if (ret != CMW_ERROR_NONE)
 3381              		.loc 1 683 9 view .LVU1157
ARM GAS  C:\Users\DJESSOU\AppData\Local\Temp\cc3dm0Vf.s 			page 136


 3382 000e 9847     		blx	r3
 3383              	.LVL289:
 684:Lib/Camera_Middleware/cmw_camera.c ****   {
 3384              		.loc 1 684 3 is_stmt 1 view .LVU1158
 684:Lib/Camera_Middleware/cmw_camera.c ****   {
 3385              		.loc 1 684 6 is_stmt 0 view .LVU1159
 3386 0010 28B9     		cbnz	r0, .L275
 689:Lib/Camera_Middleware/cmw_camera.c ****   return CMW_ERROR_NONE;
 3387              		.loc 1 689 3 is_stmt 1 view .LVU1160
 689:Lib/Camera_Middleware/cmw_camera.c ****   return CMW_ERROR_NONE;
 3388              		.loc 1 689 19 is_stmt 0 view .LVU1161
 3389 0012 064B     		ldr	r3, .L276+8
 3390 0014 1C62     		str	r4, [r3, #32]
 690:Lib/Camera_Middleware/cmw_camera.c **** }
 3391              		.loc 1 690 3 is_stmt 1 view .LVU1162
 3392              	.LVL290:
 3393              	.L272:
 691:Lib/Camera_Middleware/cmw_camera.c **** 
 3394              		.loc 1 691 1 is_stmt 0 view .LVU1163
 3395 0016 10BD     		pop	{r4, pc}
 3396              	.LVL291:
 3397              	.L274:
 680:Lib/Camera_Middleware/cmw_camera.c ****   }
 3398              		.loc 1 680 12 view .LVU1164
 3399 0018 6FF00A00 		mvn	r0, #10
 3400              	.LVL292:
 680:Lib/Camera_Middleware/cmw_camera.c ****   }
 3401              		.loc 1 680 12 view .LVU1165
 3402 001c FBE7     		b	.L272
 3403              	.LVL293:
 3404              	.L275:
 686:Lib/Camera_Middleware/cmw_camera.c ****   }
 3405              		.loc 1 686 12 view .LVU1166
 3406 001e 6FF00400 		mvn	r0, #4
 3407              	.LVL294:
 686:Lib/Camera_Middleware/cmw_camera.c ****   }
 3408              		.loc 1 686 12 view .LVU1167
 3409 0022 F8E7     		b	.L272
 3410              	.L277:
 3411              		.align	2
 3412              	.L276:
 3413 0024 00000000 		.word	Camera_Drv
 3414 0028 00000000 		.word	camera_bsp
 3415 002c 00000000 		.word	Camera_Ctx
 3416              		.cfi_endproc
 3417              	.LFE882:
 3419              		.section	.text.CB_ISP_SetSensorGain,"ax",%progbits
 3420              		.align	1
 3421              		.syntax unified
 3422              		.thumb
 3423              		.thumb_func
 3425              	CB_ISP_SetSensorGain:
 3426              	.LVL295:
 3427              	.LFB903:
1041:Lib/Camera_Middleware/cmw_camera.c ****   if (CMW_CAMERA_SetGain(gain) != CMW_ERROR_NONE)
 3428              		.loc 1 1041 1 is_stmt 1 view -0
 3429              		.cfi_startproc
ARM GAS  C:\Users\DJESSOU\AppData\Local\Temp\cc3dm0Vf.s 			page 137


 3430              		@ args = 0, pretend = 0, frame = 0
 3431              		@ frame_needed = 0, uses_anonymous_args = 0
1042:Lib/Camera_Middleware/cmw_camera.c ****     return ISP_ERR_SENSORGAIN;
 3432              		.loc 1 1042 3 view .LVU1169
1042:Lib/Camera_Middleware/cmw_camera.c ****     return ISP_ERR_SENSORGAIN;
 3433              		.loc 1 1042 7 is_stmt 0 view .LVU1170
 3434 0000 0846     		mov	r0, r1
 3435              	.LVL296:
1041:Lib/Camera_Middleware/cmw_camera.c ****   if (CMW_CAMERA_SetGain(gain) != CMW_ERROR_NONE)
 3436              		.loc 1 1041 1 view .LVU1171
 3437 0002 08B5     		push	{r3, lr}
 3438              		.cfi_def_cfa_offset 8
 3439              		.cfi_offset 3, -8
 3440              		.cfi_offset 14, -4
1042:Lib/Camera_Middleware/cmw_camera.c ****     return ISP_ERR_SENSORGAIN;
 3441              		.loc 1 1042 7 view .LVU1172
 3442 0004 FFF7FEFF 		bl	CMW_CAMERA_SetGain
 3443              	.LVL297:
1045:Lib/Camera_Middleware/cmw_camera.c **** }
 3444              		.loc 1 1045 10 view .LVU1173
 3445 0008 0028     		cmp	r0, #0
1046:Lib/Camera_Middleware/cmw_camera.c **** 
 3446              		.loc 1 1046 1 view .LVU1174
 3447 000a 14BF     		ite	ne
 3448 000c 7920     		movne	r0, #121
 3449 000e 0020     		moveq	r0, #0
 3450 0010 08BD     		pop	{r3, pc}
 3451              		.cfi_endproc
 3452              	.LFE903:
 3454              		.section	.text.CMW_CAMERA_GetGain,"ax",%progbits
 3455              		.align	1
 3456              		.global	CMW_CAMERA_GetGain
 3457              		.syntax unified
 3458              		.thumb
 3459              		.thumb_func
 3461              	CMW_CAMERA_GetGain:
 3462              	.LVL298:
 3463              	.LFB883:
 699:Lib/Camera_Middleware/cmw_camera.c ****   *Gain = Camera_Ctx.Gain;
 3464              		.loc 1 699 1 is_stmt 1 view -0
 3465              		.cfi_startproc
 3466              		@ args = 0, pretend = 0, frame = 0
 3467              		@ frame_needed = 0, uses_anonymous_args = 0
 3468              		@ link register save eliminated.
 700:Lib/Camera_Middleware/cmw_camera.c ****   return CMW_ERROR_NONE;
 3469              		.loc 1 700 3 view .LVU1176
 700:Lib/Camera_Middleware/cmw_camera.c ****   return CMW_ERROR_NONE;
 3470              		.loc 1 700 21 is_stmt 0 view .LVU1177
 3471 0000 024B     		ldr	r3, .L282
 3472 0002 1B6A     		ldr	r3, [r3, #32]
 700:Lib/Camera_Middleware/cmw_camera.c ****   return CMW_ERROR_NONE;
 3473              		.loc 1 700 9 view .LVU1178
 3474 0004 0360     		str	r3, [r0]
 701:Lib/Camera_Middleware/cmw_camera.c **** }
 3475              		.loc 1 701 3 is_stmt 1 view .LVU1179
 702:Lib/Camera_Middleware/cmw_camera.c **** 
 3476              		.loc 1 702 1 is_stmt 0 view .LVU1180
ARM GAS  C:\Users\DJESSOU\AppData\Local\Temp\cc3dm0Vf.s 			page 138


 3477 0006 0020     		movs	r0, #0
 3478              	.LVL299:
 702:Lib/Camera_Middleware/cmw_camera.c **** 
 3479              		.loc 1 702 1 view .LVU1181
 3480 0008 7047     		bx	lr
 3481              	.L283:
 3482 000a 00BF     		.align	2
 3483              	.L282:
 3484 000c 00000000 		.word	Camera_Ctx
 3485              		.cfi_endproc
 3486              	.LFE883:
 3488              		.section	.text.CMW_CAMERA_SetExposure,"ax",%progbits
 3489              		.align	1
 3490              		.global	CMW_CAMERA_SetExposure
 3491              		.syntax unified
 3492              		.thumb
 3493              		.thumb_func
 3495              	CMW_CAMERA_SetExposure:
 3496              	.LVL300:
 3497              	.LFB884:
 710:Lib/Camera_Middleware/cmw_camera.c ****   int ret;
 3498              		.loc 1 710 1 is_stmt 1 view -0
 3499              		.cfi_startproc
 3500              		@ args = 0, pretend = 0, frame = 0
 3501              		@ frame_needed = 0, uses_anonymous_args = 0
 711:Lib/Camera_Middleware/cmw_camera.c **** 
 3502              		.loc 1 711 3 view .LVU1183
 713:Lib/Camera_Middleware/cmw_camera.c ****   {
 3503              		.loc 1 713 3 view .LVU1184
 713:Lib/Camera_Middleware/cmw_camera.c ****   {
 3504              		.loc 1 713 16 is_stmt 0 view .LVU1185
 3505 0000 084B     		ldr	r3, .L288
 710:Lib/Camera_Middleware/cmw_camera.c ****   int ret;
 3506              		.loc 1 710 1 view .LVU1186
 3507 0002 10B5     		push	{r4, lr}
 3508              		.cfi_def_cfa_offset 8
 3509              		.cfi_offset 4, -8
 3510              		.cfi_offset 14, -4
 713:Lib/Camera_Middleware/cmw_camera.c ****   {
 3511              		.loc 1 713 16 view .LVU1187
 3512 0004 DB6C     		ldr	r3, [r3, #76]
 710:Lib/Camera_Middleware/cmw_camera.c ****   int ret;
 3513              		.loc 1 710 1 view .LVU1188
 3514 0006 0446     		mov	r4, r0
 713:Lib/Camera_Middleware/cmw_camera.c ****   {
 3515              		.loc 1 713 5 view .LVU1189
 3516 0008 33B1     		cbz	r3, .L286
 718:Lib/Camera_Middleware/cmw_camera.c ****   if (ret != CMW_ERROR_NONE)
 3517              		.loc 1 718 3 is_stmt 1 view .LVU1190
 718:Lib/Camera_Middleware/cmw_camera.c ****   if (ret != CMW_ERROR_NONE)
 3518              		.loc 1 718 9 is_stmt 0 view .LVU1191
 3519 000a 0146     		mov	r1, r0
 3520 000c 0648     		ldr	r0, .L288+4
 3521              	.LVL301:
 718:Lib/Camera_Middleware/cmw_camera.c ****   if (ret != CMW_ERROR_NONE)
 3522              		.loc 1 718 9 view .LVU1192
 3523 000e 9847     		blx	r3
ARM GAS  C:\Users\DJESSOU\AppData\Local\Temp\cc3dm0Vf.s 			page 139


 3524              	.LVL302:
 719:Lib/Camera_Middleware/cmw_camera.c ****   {
 3525              		.loc 1 719 3 is_stmt 1 view .LVU1193
 719:Lib/Camera_Middleware/cmw_camera.c ****   {
 3526              		.loc 1 719 6 is_stmt 0 view .LVU1194
 3527 0010 28B9     		cbnz	r0, .L287
 724:Lib/Camera_Middleware/cmw_camera.c ****   return CMW_ERROR_NONE;
 3528              		.loc 1 724 3 is_stmt 1 view .LVU1195
 724:Lib/Camera_Middleware/cmw_camera.c ****   return CMW_ERROR_NONE;
 3529              		.loc 1 724 23 is_stmt 0 view .LVU1196
 3530 0012 064B     		ldr	r3, .L288+8
 3531 0014 5C62     		str	r4, [r3, #36]
 725:Lib/Camera_Middleware/cmw_camera.c **** }
 3532              		.loc 1 725 3 is_stmt 1 view .LVU1197
 3533              	.LVL303:
 3534              	.L284:
 726:Lib/Camera_Middleware/cmw_camera.c **** 
 3535              		.loc 1 726 1 is_stmt 0 view .LVU1198
 3536 0016 10BD     		pop	{r4, pc}
 3537              	.LVL304:
 3538              	.L286:
 715:Lib/Camera_Middleware/cmw_camera.c ****   }
 3539              		.loc 1 715 12 view .LVU1199
 3540 0018 6FF00A00 		mvn	r0, #10
 3541              	.LVL305:
 715:Lib/Camera_Middleware/cmw_camera.c ****   }
 3542              		.loc 1 715 12 view .LVU1200
 3543 001c FBE7     		b	.L284
 3544              	.LVL306:
 3545              	.L287:
 721:Lib/Camera_Middleware/cmw_camera.c ****   }
 3546              		.loc 1 721 12 view .LVU1201
 3547 001e 6FF00400 		mvn	r0, #4
 3548              	.LVL307:
 721:Lib/Camera_Middleware/cmw_camera.c ****   }
 3549              		.loc 1 721 12 view .LVU1202
 3550 0022 F8E7     		b	.L284
 3551              	.L289:
 3552              		.align	2
 3553              	.L288:
 3554 0024 00000000 		.word	Camera_Drv
 3555 0028 00000000 		.word	camera_bsp
 3556 002c 00000000 		.word	Camera_Ctx
 3557              		.cfi_endproc
 3558              	.LFE884:
 3560              		.section	.text.CB_ISP_SetSensorExposure,"ax",%progbits
 3561              		.align	1
 3562              		.syntax unified
 3563              		.thumb
 3564              		.thumb_func
 3566              	CB_ISP_SetSensorExposure:
 3567              	.LVL308:
 3568              	.LFB905:
1057:Lib/Camera_Middleware/cmw_camera.c ****   if (CMW_CAMERA_SetExposure(exposure) != CMW_ERROR_NONE)
 3569              		.loc 1 1057 1 is_stmt 1 view -0
 3570              		.cfi_startproc
 3571              		@ args = 0, pretend = 0, frame = 0
ARM GAS  C:\Users\DJESSOU\AppData\Local\Temp\cc3dm0Vf.s 			page 140


 3572              		@ frame_needed = 0, uses_anonymous_args = 0
1058:Lib/Camera_Middleware/cmw_camera.c ****     return ISP_ERR_SENSOREXPOSURE;
 3573              		.loc 1 1058 3 view .LVU1204
1058:Lib/Camera_Middleware/cmw_camera.c ****     return ISP_ERR_SENSOREXPOSURE;
 3574              		.loc 1 1058 7 is_stmt 0 view .LVU1205
 3575 0000 0846     		mov	r0, r1
 3576              	.LVL309:
1057:Lib/Camera_Middleware/cmw_camera.c ****   if (CMW_CAMERA_SetExposure(exposure) != CMW_ERROR_NONE)
 3577              		.loc 1 1057 1 view .LVU1206
 3578 0002 08B5     		push	{r3, lr}
 3579              		.cfi_def_cfa_offset 8
 3580              		.cfi_offset 3, -8
 3581              		.cfi_offset 14, -4
1058:Lib/Camera_Middleware/cmw_camera.c ****     return ISP_ERR_SENSOREXPOSURE;
 3582              		.loc 1 1058 7 view .LVU1207
 3583 0004 FFF7FEFF 		bl	CMW_CAMERA_SetExposure
 3584              	.LVL310:
1061:Lib/Camera_Middleware/cmw_camera.c **** }
 3585              		.loc 1 1061 10 view .LVU1208
 3586 0008 0028     		cmp	r0, #0
1062:Lib/Camera_Middleware/cmw_camera.c **** 
 3587              		.loc 1 1062 1 view .LVU1209
 3588 000a 14BF     		ite	ne
 3589 000c 8320     		movne	r0, #131
 3590 000e 0020     		moveq	r0, #0
 3591 0010 08BD     		pop	{r3, pc}
 3592              		.cfi_endproc
 3593              	.LFE905:
 3595              		.section	.text.CMW_CAMERA_GetExposure,"ax",%progbits
 3596              		.align	1
 3597              		.global	CMW_CAMERA_GetExposure
 3598              		.syntax unified
 3599              		.thumb
 3600              		.thumb_func
 3602              	CMW_CAMERA_GetExposure:
 3603              	.LVL311:
 3604              	.LFB885:
 734:Lib/Camera_Middleware/cmw_camera.c ****   *exposure = Camera_Ctx.Exposure;
 3605              		.loc 1 734 1 is_stmt 1 view -0
 3606              		.cfi_startproc
 3607              		@ args = 0, pretend = 0, frame = 0
 3608              		@ frame_needed = 0, uses_anonymous_args = 0
 3609              		@ link register save eliminated.
 735:Lib/Camera_Middleware/cmw_camera.c ****   return CMW_ERROR_NONE;
 3610              		.loc 1 735 3 view .LVU1211
 735:Lib/Camera_Middleware/cmw_camera.c ****   return CMW_ERROR_NONE;
 3611              		.loc 1 735 25 is_stmt 0 view .LVU1212
 3612 0000 024B     		ldr	r3, .L294
 3613 0002 5B6A     		ldr	r3, [r3, #36]
 735:Lib/Camera_Middleware/cmw_camera.c ****   return CMW_ERROR_NONE;
 3614              		.loc 1 735 13 view .LVU1213
 3615 0004 0360     		str	r3, [r0]
 736:Lib/Camera_Middleware/cmw_camera.c **** }
 3616              		.loc 1 736 3 is_stmt 1 view .LVU1214
 737:Lib/Camera_Middleware/cmw_camera.c **** 
 3617              		.loc 1 737 1 is_stmt 0 view .LVU1215
 3618 0006 0020     		movs	r0, #0
ARM GAS  C:\Users\DJESSOU\AppData\Local\Temp\cc3dm0Vf.s 			page 141


 3619              	.LVL312:
 737:Lib/Camera_Middleware/cmw_camera.c **** 
 3620              		.loc 1 737 1 view .LVU1216
 3621 0008 7047     		bx	lr
 3622              	.L295:
 3623 000a 00BF     		.align	2
 3624              	.L294:
 3625 000c 00000000 		.word	Camera_Ctx
 3626              		.cfi_endproc
 3627              	.LFE885:
 3629              		.section	.text.CMW_CAMERA_SetExposureMode,"ax",%progbits
 3630              		.align	1
 3631              		.global	CMW_CAMERA_SetExposureMode
 3632              		.syntax unified
 3633              		.thumb
 3634              		.thumb_func
 3636              	CMW_CAMERA_SetExposureMode:
 3637              	.LVL313:
 3638              	.LFB886:
 745:Lib/Camera_Middleware/cmw_camera.c ****   int ret;
 3639              		.loc 1 745 1 is_stmt 1 view -0
 3640              		.cfi_startproc
 3641              		@ args = 0, pretend = 0, frame = 0
 3642              		@ frame_needed = 0, uses_anonymous_args = 0
 746:Lib/Camera_Middleware/cmw_camera.c **** 
 3643              		.loc 1 746 3 view .LVU1218
 748:Lib/Camera_Middleware/cmw_camera.c ****   {
 3644              		.loc 1 748 3 view .LVU1219
 748:Lib/Camera_Middleware/cmw_camera.c ****   {
 3645              		.loc 1 748 16 is_stmt 0 view .LVU1220
 3646 0000 084B     		ldr	r3, .L300
 745:Lib/Camera_Middleware/cmw_camera.c ****   int ret;
 3647              		.loc 1 745 1 view .LVU1221
 3648 0002 10B5     		push	{r4, lr}
 3649              		.cfi_def_cfa_offset 8
 3650              		.cfi_offset 4, -8
 3651              		.cfi_offset 14, -4
 748:Lib/Camera_Middleware/cmw_camera.c ****   {
 3652              		.loc 1 748 16 view .LVU1222
 3653 0004 1B6D     		ldr	r3, [r3, #80]
 745:Lib/Camera_Middleware/cmw_camera.c ****   int ret;
 3654              		.loc 1 745 1 view .LVU1223
 3655 0006 0446     		mov	r4, r0
 748:Lib/Camera_Middleware/cmw_camera.c ****   {
 3656              		.loc 1 748 5 view .LVU1224
 3657 0008 33B1     		cbz	r3, .L298
 753:Lib/Camera_Middleware/cmw_camera.c ****   if (ret != CMW_ERROR_NONE)
 3658              		.loc 1 753 3 is_stmt 1 view .LVU1225
 753:Lib/Camera_Middleware/cmw_camera.c ****   if (ret != CMW_ERROR_NONE)
 3659              		.loc 1 753 9 is_stmt 0 view .LVU1226
 3660 000a 0146     		mov	r1, r0
 3661 000c 0648     		ldr	r0, .L300+4
 3662              	.LVL314:
 753:Lib/Camera_Middleware/cmw_camera.c ****   if (ret != CMW_ERROR_NONE)
 3663              		.loc 1 753 9 view .LVU1227
 3664 000e 9847     		blx	r3
 3665              	.LVL315:
ARM GAS  C:\Users\DJESSOU\AppData\Local\Temp\cc3dm0Vf.s 			page 142


 754:Lib/Camera_Middleware/cmw_camera.c ****   {
 3666              		.loc 1 754 3 is_stmt 1 view .LVU1228
 754:Lib/Camera_Middleware/cmw_camera.c ****   {
 3667              		.loc 1 754 6 is_stmt 0 view .LVU1229
 3668 0010 28B9     		cbnz	r0, .L299
 759:Lib/Camera_Middleware/cmw_camera.c ****   return CMW_ERROR_NONE;
 3669              		.loc 1 759 3 is_stmt 1 view .LVU1230
 759:Lib/Camera_Middleware/cmw_camera.c ****   return CMW_ERROR_NONE;
 3670              		.loc 1 759 27 is_stmt 0 view .LVU1231
 3671 0012 064B     		ldr	r3, .L300+8
 3672 0014 9C62     		str	r4, [r3, #40]
 760:Lib/Camera_Middleware/cmw_camera.c **** }
 3673              		.loc 1 760 3 is_stmt 1 view .LVU1232
 3674              	.LVL316:
 3675              	.L296:
 761:Lib/Camera_Middleware/cmw_camera.c **** 
 3676              		.loc 1 761 1 is_stmt 0 view .LVU1233
 3677 0016 10BD     		pop	{r4, pc}
 3678              	.LVL317:
 3679              	.L298:
 750:Lib/Camera_Middleware/cmw_camera.c ****   }
 3680              		.loc 1 750 12 view .LVU1234
 3681 0018 6FF00A00 		mvn	r0, #10
 3682              	.LVL318:
 750:Lib/Camera_Middleware/cmw_camera.c ****   }
 3683              		.loc 1 750 12 view .LVU1235
 3684 001c FBE7     		b	.L296
 3685              	.LVL319:
 3686              	.L299:
 756:Lib/Camera_Middleware/cmw_camera.c ****   }
 3687              		.loc 1 756 12 view .LVU1236
 3688 001e 6FF00400 		mvn	r0, #4
 3689              	.LVL320:
 756:Lib/Camera_Middleware/cmw_camera.c ****   }
 3690              		.loc 1 756 12 view .LVU1237
 3691 0022 F8E7     		b	.L296
 3692              	.L301:
 3693              		.align	2
 3694              	.L300:
 3695 0024 00000000 		.word	Camera_Drv
 3696 0028 00000000 		.word	camera_bsp
 3697 002c 00000000 		.word	Camera_Ctx
 3698              		.cfi_endproc
 3699              	.LFE886:
 3701              		.section	.text.CMW_CAMERA_GetExposureMode,"ax",%progbits
 3702              		.align	1
 3703              		.global	CMW_CAMERA_GetExposureMode
 3704              		.syntax unified
 3705              		.thumb
 3706              		.thumb_func
 3708              	CMW_CAMERA_GetExposureMode:
 3709              	.LVL321:
 3710              	.LFB887:
 769:Lib/Camera_Middleware/cmw_camera.c ****   *exposureMode = Camera_Ctx.ExposureMode;
 3711              		.loc 1 769 1 is_stmt 1 view -0
 3712              		.cfi_startproc
 3713              		@ args = 0, pretend = 0, frame = 0
ARM GAS  C:\Users\DJESSOU\AppData\Local\Temp\cc3dm0Vf.s 			page 143


 3714              		@ frame_needed = 0, uses_anonymous_args = 0
 3715              		@ link register save eliminated.
 770:Lib/Camera_Middleware/cmw_camera.c ****   return CMW_ERROR_NONE;
 3716              		.loc 1 770 3 view .LVU1239
 770:Lib/Camera_Middleware/cmw_camera.c ****   return CMW_ERROR_NONE;
 3717              		.loc 1 770 29 is_stmt 0 view .LVU1240
 3718 0000 024B     		ldr	r3, .L303
 3719 0002 9B6A     		ldr	r3, [r3, #40]
 770:Lib/Camera_Middleware/cmw_camera.c ****   return CMW_ERROR_NONE;
 3720              		.loc 1 770 17 view .LVU1241
 3721 0004 0360     		str	r3, [r0]
 771:Lib/Camera_Middleware/cmw_camera.c **** }
 3722              		.loc 1 771 3 is_stmt 1 view .LVU1242
 772:Lib/Camera_Middleware/cmw_camera.c **** 
 3723              		.loc 1 772 1 is_stmt 0 view .LVU1243
 3724 0006 0020     		movs	r0, #0
 3725              	.LVL322:
 772:Lib/Camera_Middleware/cmw_camera.c **** 
 3726              		.loc 1 772 1 view .LVU1244
 3727 0008 7047     		bx	lr
 3728              	.L304:
 3729 000a 00BF     		.align	2
 3730              	.L303:
 3731 000c 00000000 		.word	Camera_Ctx
 3732              		.cfi_endproc
 3733              	.LFE887:
 3735              		.section	.text.CMW_CAMERA_SetTestPattern,"ax",%progbits
 3736              		.align	1
 3737              		.global	CMW_CAMERA_SetTestPattern
 3738              		.syntax unified
 3739              		.thumb
 3740              		.thumb_func
 3742              	CMW_CAMERA_SetTestPattern:
 3743              	.LVL323:
 3744              	.LFB888:
 780:Lib/Camera_Middleware/cmw_camera.c ****   int32_t ret;
 3745              		.loc 1 780 1 is_stmt 1 view -0
 3746              		.cfi_startproc
 3747              		@ args = 0, pretend = 0, frame = 0
 3748              		@ frame_needed = 0, uses_anonymous_args = 0
 781:Lib/Camera_Middleware/cmw_camera.c **** 
 3749              		.loc 1 781 3 view .LVU1246
 783:Lib/Camera_Middleware/cmw_camera.c ****   {
 3750              		.loc 1 783 3 view .LVU1247
 783:Lib/Camera_Middleware/cmw_camera.c ****   {
 3751              		.loc 1 783 16 is_stmt 0 view .LVU1248
 3752 0000 084B     		ldr	r3, .L309
 780:Lib/Camera_Middleware/cmw_camera.c ****   int32_t ret;
 3753              		.loc 1 780 1 view .LVU1249
 3754 0002 10B5     		push	{r4, lr}
 3755              		.cfi_def_cfa_offset 8
 3756              		.cfi_offset 4, -8
 3757              		.cfi_offset 14, -4
 783:Lib/Camera_Middleware/cmw_camera.c ****   {
 3758              		.loc 1 783 16 view .LVU1250
 3759 0004 5B6E     		ldr	r3, [r3, #100]
 780:Lib/Camera_Middleware/cmw_camera.c ****   int32_t ret;
ARM GAS  C:\Users\DJESSOU\AppData\Local\Temp\cc3dm0Vf.s 			page 144


 3760              		.loc 1 780 1 view .LVU1251
 3761 0006 0446     		mov	r4, r0
 783:Lib/Camera_Middleware/cmw_camera.c ****   {
 3762              		.loc 1 783 5 view .LVU1252
 3763 0008 33B1     		cbz	r3, .L307
 788:Lib/Camera_Middleware/cmw_camera.c ****   if (ret != CMW_ERROR_NONE)
 3764              		.loc 1 788 3 is_stmt 1 view .LVU1253
 788:Lib/Camera_Middleware/cmw_camera.c ****   if (ret != CMW_ERROR_NONE)
 3765              		.loc 1 788 9 is_stmt 0 view .LVU1254
 3766 000a 0146     		mov	r1, r0
 3767 000c 0648     		ldr	r0, .L309+4
 3768              	.LVL324:
 788:Lib/Camera_Middleware/cmw_camera.c ****   if (ret != CMW_ERROR_NONE)
 3769              		.loc 1 788 9 view .LVU1255
 3770 000e 9847     		blx	r3
 3771              	.LVL325:
 789:Lib/Camera_Middleware/cmw_camera.c ****   {
 3772              		.loc 1 789 3 is_stmt 1 view .LVU1256
 789:Lib/Camera_Middleware/cmw_camera.c ****   {
 3773              		.loc 1 789 6 is_stmt 0 view .LVU1257
 3774 0010 28B9     		cbnz	r0, .L308
 794:Lib/Camera_Middleware/cmw_camera.c ****   return CMW_ERROR_NONE;
 3775              		.loc 1 794 3 is_stmt 1 view .LVU1258
 794:Lib/Camera_Middleware/cmw_camera.c ****   return CMW_ERROR_NONE;
 3776              		.loc 1 794 26 is_stmt 0 view .LVU1259
 3777 0012 064B     		ldr	r3, .L309+8
 3778 0014 DC63     		str	r4, [r3, #60]
 795:Lib/Camera_Middleware/cmw_camera.c **** }
 3779              		.loc 1 795 3 is_stmt 1 view .LVU1260
 3780              	.LVL326:
 3781              	.L305:
 796:Lib/Camera_Middleware/cmw_camera.c **** 
 3782              		.loc 1 796 1 is_stmt 0 view .LVU1261
 3783 0016 10BD     		pop	{r4, pc}
 3784              	.LVL327:
 3785              	.L307:
 785:Lib/Camera_Middleware/cmw_camera.c ****   }
 3786              		.loc 1 785 12 view .LVU1262
 3787 0018 6FF00A00 		mvn	r0, #10
 3788              	.LVL328:
 785:Lib/Camera_Middleware/cmw_camera.c ****   }
 3789              		.loc 1 785 12 view .LVU1263
 3790 001c FBE7     		b	.L305
 3791              	.LVL329:
 3792              	.L308:
 791:Lib/Camera_Middleware/cmw_camera.c ****   }
 3793              		.loc 1 791 12 view .LVU1264
 3794 001e 6FF00400 		mvn	r0, #4
 3795              	.LVL330:
 791:Lib/Camera_Middleware/cmw_camera.c ****   }
 3796              		.loc 1 791 12 view .LVU1265
 3797 0022 F8E7     		b	.L305
 3798              	.L310:
 3799              		.align	2
 3800              	.L309:
 3801 0024 00000000 		.word	Camera_Drv
 3802 0028 00000000 		.word	camera_bsp
ARM GAS  C:\Users\DJESSOU\AppData\Local\Temp\cc3dm0Vf.s 			page 145


 3803 002c 00000000 		.word	Camera_Ctx
 3804              		.cfi_endproc
 3805              	.LFE888:
 3807              		.section	.text.CMW_CAMERA_GetTestPattern,"ax",%progbits
 3808              		.align	1
 3809              		.global	CMW_CAMERA_GetTestPattern
 3810              		.syntax unified
 3811              		.thumb
 3812              		.thumb_func
 3814              	CMW_CAMERA_GetTestPattern:
 3815              	.LVL331:
 3816              	.LFB889:
 804:Lib/Camera_Middleware/cmw_camera.c ****   *mode = Camera_Ctx.TestPattern;
 3817              		.loc 1 804 1 is_stmt 1 view -0
 3818              		.cfi_startproc
 3819              		@ args = 0, pretend = 0, frame = 0
 3820              		@ frame_needed = 0, uses_anonymous_args = 0
 3821              		@ link register save eliminated.
 805:Lib/Camera_Middleware/cmw_camera.c ****   return CMW_ERROR_NONE;
 3822              		.loc 1 805 3 view .LVU1267
 805:Lib/Camera_Middleware/cmw_camera.c ****   return CMW_ERROR_NONE;
 3823              		.loc 1 805 21 is_stmt 0 view .LVU1268
 3824 0000 024B     		ldr	r3, .L312
 805:Lib/Camera_Middleware/cmw_camera.c ****   return CMW_ERROR_NONE;
 3825              		.loc 1 805 9 view .LVU1269
 3826 0002 DB6B     		ldr	r3, [r3, #60]
 3827 0004 0360     		str	r3, [r0]
 806:Lib/Camera_Middleware/cmw_camera.c **** }
 3828              		.loc 1 806 3 is_stmt 1 view .LVU1270
 807:Lib/Camera_Middleware/cmw_camera.c **** 
 3829              		.loc 1 807 1 is_stmt 0 view .LVU1271
 3830 0006 0020     		movs	r0, #0
 3831              	.LVL332:
 807:Lib/Camera_Middleware/cmw_camera.c **** 
 3832              		.loc 1 807 1 view .LVU1272
 3833 0008 7047     		bx	lr
 3834              	.L313:
 3835 000a 00BF     		.align	2
 3836              	.L312:
 3837 000c 00000000 		.word	Camera_Ctx
 3838              		.cfi_endproc
 3839              	.LFE889:
 3841              		.section	.text.CMW_CAMERA_GetSensorInfo,"ax",%progbits
 3842              		.align	1
 3843              		.global	CMW_CAMERA_GetSensorInfo
 3844              		.syntax unified
 3845              		.thumb
 3846              		.thumb_func
 3848              	CMW_CAMERA_GetSensorInfo:
 3849              	.LVL333:
 3850              	.LFB890:
 817:Lib/Camera_Middleware/cmw_camera.c **** 
 3851              		.loc 1 817 1 is_stmt 1 view -0
 3852              		.cfi_startproc
 3853              		@ args = 0, pretend = 0, frame = 0
 3854              		@ frame_needed = 0, uses_anonymous_args = 0
 819:Lib/Camera_Middleware/cmw_camera.c **** 
ARM GAS  C:\Users\DJESSOU\AppData\Local\Temp\cc3dm0Vf.s 			page 146


 3855              		.loc 1 819 3 view .LVU1274
 821:Lib/Camera_Middleware/cmw_camera.c ****   {
 3856              		.loc 1 821 3 view .LVU1275
 817:Lib/Camera_Middleware/cmw_camera.c **** 
 3857              		.loc 1 817 1 is_stmt 0 view .LVU1276
 3858 0000 08B5     		push	{r3, lr}
 3859              		.cfi_def_cfa_offset 8
 3860              		.cfi_offset 3, -8
 3861              		.cfi_offset 14, -4
 821:Lib/Camera_Middleware/cmw_camera.c ****   {
 3862              		.loc 1 821 16 view .LVU1277
 3863 0002 074B     		ldr	r3, .L318
 817:Lib/Camera_Middleware/cmw_camera.c **** 
 3864              		.loc 1 817 1 view .LVU1278
 3865 0004 0146     		mov	r1, r0
 821:Lib/Camera_Middleware/cmw_camera.c ****   {
 3866              		.loc 1 821 16 view .LVU1279
 3867 0006 1B6E     		ldr	r3, [r3, #96]
 821:Lib/Camera_Middleware/cmw_camera.c ****   {
 3868              		.loc 1 821 5 view .LVU1280
 3869 0008 33B1     		cbz	r3, .L316
 826:Lib/Camera_Middleware/cmw_camera.c ****   if (ret != CMW_ERROR_NONE)
 3870              		.loc 1 826 3 is_stmt 1 view .LVU1281
 826:Lib/Camera_Middleware/cmw_camera.c ****   if (ret != CMW_ERROR_NONE)
 3871              		.loc 1 826 9 is_stmt 0 view .LVU1282
 3872 000a 0648     		ldr	r0, .L318+4
 3873              	.LVL334:
 826:Lib/Camera_Middleware/cmw_camera.c ****   if (ret != CMW_ERROR_NONE)
 3874              		.loc 1 826 9 view .LVU1283
 3875 000c 9847     		blx	r3
 3876              	.LVL335:
 827:Lib/Camera_Middleware/cmw_camera.c ****   {
 3877              		.loc 1 827 3 is_stmt 1 view .LVU1284
 829:Lib/Camera_Middleware/cmw_camera.c ****   }
 3878              		.loc 1 829 12 is_stmt 0 view .LVU1285
 3879 000e 0028     		cmp	r0, #0
 829:Lib/Camera_Middleware/cmw_camera.c ****   }
 3880              		.loc 1 829 12 view .LVU1286
 3881 0010 18BF     		it	ne
 3882 0012 6FF00400 		mvnne	r0, #4
 3883              	.LVL336:
 3884              	.L314:
 833:Lib/Camera_Middleware/cmw_camera.c **** 
 3885              		.loc 1 833 1 view .LVU1287
 3886 0016 08BD     		pop	{r3, pc}
 3887              	.LVL337:
 3888              	.L316:
 823:Lib/Camera_Middleware/cmw_camera.c ****   }
 3889              		.loc 1 823 12 view .LVU1288
 3890 0018 6FF00A00 		mvn	r0, #10
 3891              	.LVL338:
 823:Lib/Camera_Middleware/cmw_camera.c ****   }
 3892              		.loc 1 823 12 view .LVU1289
 3893 001c FBE7     		b	.L314
 3894              	.L319:
 3895 001e 00BF     		.align	2
 3896              	.L318:
ARM GAS  C:\Users\DJESSOU\AppData\Local\Temp\cc3dm0Vf.s 			page 147


 3897 0020 00000000 		.word	Camera_Drv
 3898 0024 00000000 		.word	camera_bsp
 3899              		.cfi_endproc
 3900              	.LFE890:
 3902              		.section	.text.CMW_CAMERA_Init,"ax",%progbits
 3903              		.align	1
 3904              		.global	CMW_CAMERA_Init
 3905              		.syntax unified
 3906              		.thumb
 3907              		.thumb_func
 3909              	CMW_CAMERA_Init:
 3910              	.LVL339:
 3911              	.LFB871:
 329:Lib/Camera_Middleware/cmw_camera.c ****   int32_t ret = CMW_ERROR_NONE;
 3912              		.loc 1 329 1 is_stmt 1 view -0
 3913              		.cfi_startproc
 3914              		@ args = 0, pretend = 0, frame = 88
 3915              		@ frame_needed = 0, uses_anonymous_args = 0
 330:Lib/Camera_Middleware/cmw_camera.c ****   CMW_Sensor_Init_t initValues = {0};
 3916              		.loc 1 330 3 view .LVU1291
 331:Lib/Camera_Middleware/cmw_camera.c ****   ISP_SensorInfoTypeDef info = {0};
 3917              		.loc 1 331 3 view .LVU1292
 329:Lib/Camera_Middleware/cmw_camera.c ****   int32_t ret = CMW_ERROR_NONE;
 3918              		.loc 1 329 1 is_stmt 0 view .LVU1293
 3919 0000 70B5     		push	{r4, r5, r6, lr}
 3920              		.cfi_def_cfa_offset 16
 3921              		.cfi_offset 4, -16
 3922              		.cfi_offset 5, -12
 3923              		.cfi_offset 6, -8
 3924              		.cfi_offset 14, -4
 3925 0002 0446     		mov	r4, r0
 3926 0004 0D46     		mov	r5, r1
 331:Lib/Camera_Middleware/cmw_camera.c ****   ISP_SensorInfoTypeDef info = {0};
 3927              		.loc 1 331 21 view .LVU1294
 3928 0006 0021     		movs	r1, #0
 3929              	.LVL340:
 329:Lib/Camera_Middleware/cmw_camera.c ****   int32_t ret = CMW_ERROR_NONE;
 3930              		.loc 1 329 1 view .LVU1295
 3931 0008 96B0     		sub	sp, sp, #88
 3932              		.cfi_def_cfa_offset 104
 332:Lib/Camera_Middleware/cmw_camera.c **** 
 3933              		.loc 1 332 25 view .LVU1296
 3934 000a 4022     		movs	r2, #64
 3935 000c 06A8     		add	r0, sp, #24
 3936              	.LVL341:
 331:Lib/Camera_Middleware/cmw_camera.c ****   ISP_SensorInfoTypeDef info = {0};
 3937              		.loc 1 331 21 view .LVU1297
 3938 000e 0591     		str	r1, [sp, #20]
 332:Lib/Camera_Middleware/cmw_camera.c **** 
 3939              		.loc 1 332 3 is_stmt 1 view .LVU1298
 332:Lib/Camera_Middleware/cmw_camera.c **** 
 3940              		.loc 1 332 25 is_stmt 0 view .LVU1299
 3941 0010 FFF7FEFF 		bl	memset
 3942              	.LVL342:
 334:Lib/Camera_Middleware/cmw_camera.c ****   initValues.height = initConf->height;
 3943              		.loc 1 334 3 is_stmt 1 view .LVU1300
 334:Lib/Camera_Middleware/cmw_camera.c ****   initValues.height = initConf->height;
ARM GAS  C:\Users\DJESSOU\AppData\Local\Temp\cc3dm0Vf.s 			page 148


 3944              		.loc 1 334 20 is_stmt 0 view .LVU1301
 3945 0014 2368     		ldr	r3, [r4]
 3946 0016 0193     		str	r3, [sp, #4]
 335:Lib/Camera_Middleware/cmw_camera.c ****   initValues.fps = initConf->fps;
 3947              		.loc 1 335 3 is_stmt 1 view .LVU1302
 335:Lib/Camera_Middleware/cmw_camera.c ****   initValues.fps = initConf->fps;
 3948              		.loc 1 335 21 is_stmt 0 view .LVU1303
 3949 0018 6368     		ldr	r3, [r4, #4]
 3950 001a 0293     		str	r3, [sp, #8]
 336:Lib/Camera_Middleware/cmw_camera.c ****   initValues.mirrorFlip = initConf->mirror_flip;
 3951              		.loc 1 336 3 is_stmt 1 view .LVU1304
 336:Lib/Camera_Middleware/cmw_camera.c ****   initValues.mirrorFlip = initConf->mirror_flip;
 3952              		.loc 1 336 18 is_stmt 0 view .LVU1305
 3953 001c A368     		ldr	r3, [r4, #8]
 3954 001e 0393     		str	r3, [sp, #12]
 337:Lib/Camera_Middleware/cmw_camera.c **** 
 3955              		.loc 1 337 3 is_stmt 1 view .LVU1306
 337:Lib/Camera_Middleware/cmw_camera.c **** 
 3956              		.loc 1 337 25 is_stmt 0 view .LVU1307
 3957 0020 E368     		ldr	r3, [r4, #12]
 3958 0022 0493     		str	r3, [sp, #16]
 339:Lib/Camera_Middleware/cmw_camera.c ****   {
 3959              		.loc 1 339 3 is_stmt 1 view .LVU1308
 3960 0024 204B     		ldr	r3, .L343
 339:Lib/Camera_Middleware/cmw_camera.c ****   {
 3961              		.loc 1 339 6 is_stmt 0 view .LVU1309
 3962 0026 85B1     		cbz	r5, .L321
 339:Lib/Camera_Middleware/cmw_camera.c ****   {
 3963              		.loc 1 339 52 discriminator 1 view .LVU1310
 3964 0028 2A78     		ldrb	r2, [r5]	@ zero_extendqisi2
 339:Lib/Camera_Middleware/cmw_camera.c ****   {
 3965              		.loc 1 339 33 discriminator 1 view .LVU1311
 3966 002a 72B1     		cbz	r2, .L321
 342:Lib/Camera_Middleware/cmw_camera.c ****     initValues.sensor_config = (void *) &advanced_config->config_sensor;
 3967              		.loc 1 342 5 is_stmt 1 view .LVU1312
 343:Lib/Camera_Middleware/cmw_camera.c ****   }
 3968              		.loc 1 343 41 is_stmt 0 view .LVU1313
 3969 002c 0435     		adds	r5, r5, #4
 3970              	.LVL343:
 342:Lib/Camera_Middleware/cmw_camera.c ****     initValues.sensor_config = (void *) &advanced_config->config_sensor;
 3971              		.loc 1 342 22 view .LVU1314
 3972 002e 1A70     		strb	r2, [r3]
 343:Lib/Camera_Middleware/cmw_camera.c ****   }
 3973              		.loc 1 343 5 is_stmt 1 view .LVU1315
 343:Lib/Camera_Middleware/cmw_camera.c ****   }
 3974              		.loc 1 343 30 is_stmt 0 view .LVU1316
 3975 0030 0595     		str	r5, [sp, #20]
 3976              	.LVL344:
 3977              	.L322:
 352:Lib/Camera_Middleware/cmw_camera.c **** 
 3978              		.loc 1 352 3 is_stmt 1 view .LVU1317
 352:Lib/Camera_Middleware/cmw_camera.c **** 
 3979              		.loc 1 352 27 is_stmt 0 view .LVU1318
 3980 0032 1E4D     		ldr	r5, .L343+4
 3981 0034 1E4B     		ldr	r3, .L343+8
 355:Lib/Camera_Middleware/cmw_camera.c ****   if (ret != HAL_OK)
 3982              		.loc 1 355 9 view .LVU1319
ARM GAS  C:\Users\DJESSOU\AppData\Local\Temp\cc3dm0Vf.s 			page 149


 3983 0036 2846     		mov	r0, r5
 352:Lib/Camera_Middleware/cmw_camera.c **** 
 3984              		.loc 1 352 27 view .LVU1320
 3985 0038 2B60     		str	r3, [r5]
 355:Lib/Camera_Middleware/cmw_camera.c ****   if (ret != HAL_OK)
 3986              		.loc 1 355 3 is_stmt 1 view .LVU1321
 355:Lib/Camera_Middleware/cmw_camera.c ****   if (ret != HAL_OK)
 3987              		.loc 1 355 9 is_stmt 0 view .LVU1322
 3988 003a FFF7FEFF 		bl	MX_DCMIPP_ClockConfig
 3989              	.LVL345:
 356:Lib/Camera_Middleware/cmw_camera.c ****   {
 3990              		.loc 1 356 3 is_stmt 1 view .LVU1323
 356:Lib/Camera_Middleware/cmw_camera.c ****   {
 3991              		.loc 1 356 6 is_stmt 0 view .LVU1324
 3992 003e 38B1     		cbz	r0, .L323
 3993              	.LVL346:
 3994              	.L325:
 358:Lib/Camera_Middleware/cmw_camera.c ****   }
 3995              		.loc 1 358 12 view .LVU1325
 3996 0040 6FF00305 		mvn	r5, #3
 3997              	.L320:
 401:Lib/Camera_Middleware/cmw_camera.c **** 
 3998              		.loc 1 401 1 view .LVU1326
 3999 0044 2846     		mov	r0, r5
 4000 0046 16B0     		add	sp, sp, #88
 4001              		.cfi_remember_state
 4002              		.cfi_def_cfa_offset 16
 4003              		@ sp needed
 4004 0048 70BD     		pop	{r4, r5, r6, pc}
 4005              	.LVL347:
 4006              	.L321:
 4007              		.cfi_restore_state
 347:Lib/Camera_Middleware/cmw_camera.c ****     initValues.sensor_config = NULL;
 4008              		.loc 1 347 5 is_stmt 1 view .LVU1327
 347:Lib/Camera_Middleware/cmw_camera.c ****     initValues.sensor_config = NULL;
 4009              		.loc 1 347 22 is_stmt 0 view .LVU1328
 4010 004a 0022     		movs	r2, #0
 4011 004c 1A70     		strb	r2, [r3]
 348:Lib/Camera_Middleware/cmw_camera.c ****   }
 4012              		.loc 1 348 5 is_stmt 1 view .LVU1329
 4013 004e F0E7     		b	.L322
 4014              	.LVL348:
 4015              	.L323:
 361:Lib/Camera_Middleware/cmw_camera.c ****   if (ret != HAL_OK)
 4016              		.loc 1 361 3 view .LVU1330
 361:Lib/Camera_Middleware/cmw_camera.c ****   if (ret != HAL_OK)
 4017              		.loc 1 361 9 is_stmt 0 view .LVU1331
 4018 0050 2846     		mov	r0, r5
 4019              	.LVL349:
 361:Lib/Camera_Middleware/cmw_camera.c ****   if (ret != HAL_OK)
 4020              		.loc 1 361 9 view .LVU1332
 4021 0052 FFF7FEFF 		bl	HAL_DCMIPP_Init
 4022              	.LVL350:
 362:Lib/Camera_Middleware/cmw_camera.c ****   {
 4023              		.loc 1 362 3 is_stmt 1 view .LVU1333
 362:Lib/Camera_Middleware/cmw_camera.c ****   {
 4024              		.loc 1 362 6 is_stmt 0 view .LVU1334
ARM GAS  C:\Users\DJESSOU\AppData\Local\Temp\cc3dm0Vf.s 			page 150


 4025 0056 0028     		cmp	r0, #0
 4026 0058 F2D1     		bne	.L325
 367:Lib/Camera_Middleware/cmw_camera.c **** 
 4027              		.loc 1 367 3 is_stmt 1 view .LVU1335
 4028 005a FFF7FEFF 		bl	CMW_CAMERA_EnableGPIOs
 4029              	.LVL351:
 369:Lib/Camera_Middleware/cmw_camera.c ****   if (ret != CMW_ERROR_NONE)
 4030              		.loc 1 369 3 view .LVU1336
 369:Lib/Camera_Middleware/cmw_camera.c ****   if (ret != CMW_ERROR_NONE)
 4031              		.loc 1 369 9 is_stmt 0 view .LVU1337
 4032 005e 01A8     		add	r0, sp, #4
 4033 0060 FFF7FEFF 		bl	CMW_CAMERA_Probe_Sensor.constprop.0
 4034              	.LVL352:
 370:Lib/Camera_Middleware/cmw_camera.c ****   {
 4035              		.loc 1 370 3 is_stmt 1 view .LVU1338
 370:Lib/Camera_Middleware/cmw_camera.c ****   {
 4036              		.loc 1 370 6 is_stmt 0 view .LVU1339
 4037 0064 0546     		mov	r5, r0
 4038 0066 10B1     		cbz	r0, .L326
 4039              	.LVL353:
 4040              	.L327:
 372:Lib/Camera_Middleware/cmw_camera.c ****   }
 4041              		.loc 1 372 12 view .LVU1340
 4042 0068 6FF00605 		mvn	r5, #6
 4043 006c EAE7     		b	.L320
 4044              	.LVL354:
 4045              	.L326:
 376:Lib/Camera_Middleware/cmw_camera.c ****   if (ret == CMW_ERROR_COMPONENT_FAILURE)
 4046              		.loc 1 376 3 is_stmt 1 view .LVU1341
 376:Lib/Camera_Middleware/cmw_camera.c ****   if (ret == CMW_ERROR_COMPONENT_FAILURE)
 4047              		.loc 1 376 9 is_stmt 0 view .LVU1342
 4048 006e 06A8     		add	r0, sp, #24
 4049              	.LVL355:
 376:Lib/Camera_Middleware/cmw_camera.c ****   if (ret == CMW_ERROR_COMPONENT_FAILURE)
 4050              		.loc 1 376 9 view .LVU1343
 4051 0070 FFF7FEFF 		bl	CMW_CAMERA_GetSensorInfo
 4052              	.LVL356:
 377:Lib/Camera_Middleware/cmw_camera.c ****   {
 4053              		.loc 1 377 3 is_stmt 1 view .LVU1344
 377:Lib/Camera_Middleware/cmw_camera.c ****   {
 4054              		.loc 1 377 6 is_stmt 0 view .LVU1345
 4055 0074 0530     		adds	r0, r0, #5
 4056              	.LVL357:
 377:Lib/Camera_Middleware/cmw_camera.c ****   {
 4057              		.loc 1 377 6 view .LVU1346
 4058 0076 F7D0     		beq	.L327
 381:Lib/Camera_Middleware/cmw_camera.c ****   if (ret == CMW_ERROR_COMPONENT_FAILURE)
 4059              		.loc 1 381 3 is_stmt 1 view .LVU1347
 381:Lib/Camera_Middleware/cmw_camera.c ****   if (ret == CMW_ERROR_COMPONENT_FAILURE)
 4060              		.loc 1 381 9 is_stmt 0 view .LVU1348
 4061 0078 1498     		ldr	r0, [sp, #80]
 4062              	.LVL358:
 381:Lib/Camera_Middleware/cmw_camera.c ****   if (ret == CMW_ERROR_COMPONENT_FAILURE)
 4063              		.loc 1 381 9 view .LVU1349
 4064 007a FFF7FEFF 		bl	CMW_CAMERA_SetExposure
 4065              	.LVL359:
 382:Lib/Camera_Middleware/cmw_camera.c ****   {
ARM GAS  C:\Users\DJESSOU\AppData\Local\Temp\cc3dm0Vf.s 			page 151


 4066              		.loc 1 382 3 is_stmt 1 view .LVU1350
 382:Lib/Camera_Middleware/cmw_camera.c ****   {
 4067              		.loc 1 382 6 is_stmt 0 view .LVU1351
 4068 007e 0530     		adds	r0, r0, #5
 4069              	.LVL360:
 382:Lib/Camera_Middleware/cmw_camera.c ****   {
 4070              		.loc 1 382 6 view .LVU1352
 4071 0080 F2D0     		beq	.L327
 386:Lib/Camera_Middleware/cmw_camera.c ****   if (ret == CMW_ERROR_COMPONENT_FAILURE)
 4072              		.loc 1 386 3 is_stmt 1 view .LVU1353
 386:Lib/Camera_Middleware/cmw_camera.c ****   if (ret == CMW_ERROR_COMPONENT_FAILURE)
 4073              		.loc 1 386 9 is_stmt 0 view .LVU1354
 4074 0082 1198     		ldr	r0, [sp, #68]
 4075              	.LVL361:
 386:Lib/Camera_Middleware/cmw_camera.c ****   if (ret == CMW_ERROR_COMPONENT_FAILURE)
 4076              		.loc 1 386 9 view .LVU1355
 4077 0084 FFF7FEFF 		bl	CMW_CAMERA_SetGain
 4078              	.LVL362:
 387:Lib/Camera_Middleware/cmw_camera.c ****   {
 4079              		.loc 1 387 3 is_stmt 1 view .LVU1356
 387:Lib/Camera_Middleware/cmw_camera.c ****   {
 4080              		.loc 1 387 6 is_stmt 0 view .LVU1357
 4081 0088 0530     		adds	r0, r0, #5
 4082              	.LVL363:
 387:Lib/Camera_Middleware/cmw_camera.c ****   {
 4083              		.loc 1 387 6 view .LVU1358
 4084 008a EDD0     		beq	.L327
 393:Lib/Camera_Middleware/cmw_camera.c ****   initConf->height = initValues.height ;
 4085              		.loc 1 393 3 is_stmt 1 view .LVU1359
 393:Lib/Camera_Middleware/cmw_camera.c ****   initConf->height = initValues.height ;
 4086              		.loc 1 393 19 is_stmt 0 view .LVU1360
 4087 008c 019B     		ldr	r3, [sp, #4]
 395:Lib/Camera_Middleware/cmw_camera.c **** 
 4088              		.loc 1 395 15 view .LVU1361
 4089 008e 094E     		ldr	r6, .L343+12
 393:Lib/Camera_Middleware/cmw_camera.c ****   initConf->height = initValues.height ;
 4090              		.loc 1 393 19 view .LVU1362
 4091 0090 2360     		str	r3, [r4]
 394:Lib/Camera_Middleware/cmw_camera.c ****   camera_conf = *initConf;
 4092              		.loc 1 394 3 is_stmt 1 view .LVU1363
 394:Lib/Camera_Middleware/cmw_camera.c ****   camera_conf = *initConf;
 4093              		.loc 1 394 20 is_stmt 0 view .LVU1364
 4094 0092 029B     		ldr	r3, [sp, #8]
 4095 0094 6360     		str	r3, [r4, #4]
 395:Lib/Camera_Middleware/cmw_camera.c **** 
 4096              		.loc 1 395 3 is_stmt 1 view .LVU1365
 395:Lib/Camera_Middleware/cmw_camera.c **** 
 4097              		.loc 1 395 15 is_stmt 0 view .LVU1366
 4098 0096 94E80F00 		ldm	r4, {r0, r1, r2, r3}
 4099              	.LVL364:
 395:Lib/Camera_Middleware/cmw_camera.c **** 
 4100              		.loc 1 395 15 view .LVU1367
 4101 009a 86E80F00 		stm	r6, {r0, r1, r2, r3}
 397:Lib/Camera_Middleware/cmw_camera.c ****   /* CMW status */
 4102              		.loc 1 397 3 is_stmt 1 view .LVU1368
 397:Lib/Camera_Middleware/cmw_camera.c ****   /* CMW status */
 4103              		.loc 1 397 17 is_stmt 0 view .LVU1369
ARM GAS  C:\Users\DJESSOU\AppData\Local\Temp\cc3dm0Vf.s 			page 152


 4104 009e 064A     		ldr	r2, .L343+16
 4105 00a0 1368     		ldr	r3, [r2]
 4106 00a2 0133     		adds	r3, r3, #1
 4107 00a4 1360     		str	r3, [r2]
 399:Lib/Camera_Middleware/cmw_camera.c ****   return ret;
 4108              		.loc 1 399 3 is_stmt 1 view .LVU1370
 4109              	.LVL365:
 400:Lib/Camera_Middleware/cmw_camera.c **** }
 4110              		.loc 1 400 3 view .LVU1371
 400:Lib/Camera_Middleware/cmw_camera.c **** }
 4111              		.loc 1 400 10 is_stmt 0 view .LVU1372
 4112 00a6 CDE7     		b	.L320
 4113              	.L344:
 4114              		.align	2
 4115              	.L343:
 4116 00a8 00000000 		.word	connected_sensor
 4117 00ac 00000000 		.word	hcamera_dcmipp
 4118 00b0 00200058 		.word	1476403200
 4119 00b4 00000000 		.word	camera_conf
 4120 00b8 00000000 		.word	is_camera_init
 4121              		.cfi_endproc
 4122              	.LFE871:
 4124              		.section	.text.CMW_CAMERA_Run,"ax",%progbits
 4125              		.align	1
 4126              		.global	CMW_CAMERA_Run
 4127              		.syntax unified
 4128              		.thumb
 4129              		.thumb_func
 4131              	CMW_CAMERA_Run:
 4132              	.LFB891:
 838:Lib/Camera_Middleware/cmw_camera.c ****   if(Camera_Drv.Run != NULL)
 4133              		.loc 1 838 1 is_stmt 1 view -0
 4134              		.cfi_startproc
 4135              		@ args = 0, pretend = 0, frame = 0
 4136              		@ frame_needed = 0, uses_anonymous_args = 0
 4137              		@ link register save eliminated.
 839:Lib/Camera_Middleware/cmw_camera.c ****   {
 4138              		.loc 1 839 3 view .LVU1374
 839:Lib/Camera_Middleware/cmw_camera.c ****   {
 4139              		.loc 1 839 16 is_stmt 0 view .LVU1375
 4140 0000 034B     		ldr	r3, .L347
 4141 0002 DB68     		ldr	r3, [r3, #12]
 839:Lib/Camera_Middleware/cmw_camera.c ****   {
 4142              		.loc 1 839 5 view .LVU1376
 4143 0004 0BB1     		cbz	r3, .L346
 841:Lib/Camera_Middleware/cmw_camera.c ****   }
 4144              		.loc 1 841 7 is_stmt 1 view .LVU1377
 841:Lib/Camera_Middleware/cmw_camera.c ****   }
 4145              		.loc 1 841 14 is_stmt 0 view .LVU1378
 4146 0006 0348     		ldr	r0, .L347+4
 4147 0008 1847     		bx	r3
 4148              	.LVL366:
 4149              	.L346:
 844:Lib/Camera_Middleware/cmw_camera.c **** 
 4150              		.loc 1 844 1 view .LVU1379
 4151 000a 1846     		mov	r0, r3
 4152 000c 7047     		bx	lr
ARM GAS  C:\Users\DJESSOU\AppData\Local\Temp\cc3dm0Vf.s 			page 153


 4153              	.L348:
 4154 000e 00BF     		.align	2
 4155              	.L347:
 4156 0010 00000000 		.word	Camera_Drv
 4157 0014 00000000 		.word	camera_bsp
 4158              		.cfi_endproc
 4159              	.LFE891:
 4161              		.section	.text.CMW_CAMERA_PIPE_VsyncEventCallback,"ax",%progbits
 4162              		.align	1
 4163              		.weak	CMW_CAMERA_PIPE_VsyncEventCallback
 4164              		.syntax unified
 4165              		.thumb
 4166              		.thumb_func
 4168              	CMW_CAMERA_PIPE_VsyncEventCallback:
 4169              	.LFB917:
 4170              		.cfi_startproc
 851:Lib/Camera_Middleware/cmw_camera.c **** {
 4171              		.loc 1 851 12 is_stmt 1 view -0
 4172              		@ args = 0, pretend = 0, frame = 0
 4173              		@ frame_needed = 0, uses_anonymous_args = 0
 4174              		@ link register save eliminated.
 4175 0000 0020     		movs	r0, #0
 4176 0002 7047     		bx	lr
 4177              		.cfi_endproc
 4178              	.LFE917:
 4180              		.section	.text.CMW_CAMERA_PIPE_FrameEventCallback,"ax",%progbits
 4181              		.align	1
 4182              		.weak	CMW_CAMERA_PIPE_FrameEventCallback
 4183              		.syntax unified
 4184              		.thumb
 4185              		.thumb_func
 4187              	CMW_CAMERA_PIPE_FrameEventCallback:
 4188              	.LVL367:
 4189              	.LFB893:
 864:Lib/Camera_Middleware/cmw_camera.c ****   UNUSED(pipe);
 4190              		.loc 1 864 1 view -0
 4191              		.cfi_startproc
 4192              		@ args = 0, pretend = 0, frame = 0
 4193              		@ frame_needed = 0, uses_anonymous_args = 0
 4194              		@ link register save eliminated.
 865:Lib/Camera_Middleware/cmw_camera.c **** 
 4195              		.loc 1 865 3 view .LVU1382
 867:Lib/Camera_Middleware/cmw_camera.c **** }
 4196              		.loc 1 867 3 view .LVU1383
 868:Lib/Camera_Middleware/cmw_camera.c **** 
 4197              		.loc 1 868 1 is_stmt 0 view .LVU1384
 4198 0000 0020     		movs	r0, #0
 4199              	.LVL368:
 868:Lib/Camera_Middleware/cmw_camera.c **** 
 4200              		.loc 1 868 1 view .LVU1385
 4201 0002 7047     		bx	lr
 4202              		.cfi_endproc
 4203              	.LFE893:
 4205              		.section	.rodata.CMW_CAMERA_PIPE_ErrorCallback.str1.1,"aMS",%progbits,1
 4206              	.LC1:
 4207 0000 3000     		.ascii	"0\000"
 4208              	.LC2:
ARM GAS  C:\Users\DJESSOU\AppData\Local\Temp\cc3dm0Vf.s 			page 154


 4209 0002 4C69622F 		.ascii	"Lib/Camera_Middleware/cmw_camera.c\000"
 4209      43616D65 
 4209      72615F4D 
 4209      6964646C 
 4209      65776172 
 4210              		.section	.text.CMW_CAMERA_PIPE_ErrorCallback,"ax",%progbits
 4211              		.align	1
 4212              		.weak	CMW_CAMERA_PIPE_ErrorCallback
 4213              		.syntax unified
 4214              		.thumb
 4215              		.thumb_func
 4217              	CMW_CAMERA_PIPE_ErrorCallback:
 4218              	.LVL369:
 4219              	.LFB894:
 876:Lib/Camera_Middleware/cmw_camera.c ****   assert(0);
 4220              		.loc 1 876 1 is_stmt 1 view -0
 4221              		.cfi_startproc
 4222              		@ args = 0, pretend = 0, frame = 0
 4223              		@ frame_needed = 0, uses_anonymous_args = 0
 877:Lib/Camera_Middleware/cmw_camera.c **** }
 4224              		.loc 1 877 3 view .LVU1387
 876:Lib/Camera_Middleware/cmw_camera.c ****   assert(0);
 4225              		.loc 1 876 1 is_stmt 0 view .LVU1388
 4226 0000 08B5     		push	{r3, lr}
 4227              		.cfi_def_cfa_offset 8
 4228              		.cfi_offset 3, -8
 4229              		.cfi_offset 14, -4
 877:Lib/Camera_Middleware/cmw_camera.c **** }
 4230              		.loc 1 877 3 view .LVU1389
 4231 0002 40F26D31 		movw	r1, #877
 4232 0006 024B     		ldr	r3, .L352
 4233 0008 024A     		ldr	r2, .L352+4
 4234 000a 0348     		ldr	r0, .L352+8
 4235              	.LVL370:
 877:Lib/Camera_Middleware/cmw_camera.c **** }
 4236              		.loc 1 877 3 view .LVU1390
 4237 000c FFF7FEFF 		bl	__assert_func
 4238              	.LVL371:
 4239              	.L353:
 4240              		.align	2
 4241              	.L352:
 4242 0010 00000000 		.word	.LC1
 4243 0014 00000000 		.word	__func__.0
 4244 0018 02000000 		.word	.LC2
 4245              		.cfi_endproc
 4246              	.LFE894:
 4248              		.section	.text.HAL_DCMIPP_PIPE_VsyncEventCallback,"ax",%progbits
 4249              		.align	1
 4250              		.global	HAL_DCMIPP_PIPE_VsyncEventCallback
 4251              		.syntax unified
 4252              		.thumb
 4253              		.thumb_func
 4255              	HAL_DCMIPP_PIPE_VsyncEventCallback:
 4256              	.LVL372:
 4257              	.LFB895:
 887:Lib/Camera_Middleware/cmw_camera.c ****   UNUSED(hdcmipp);
 4258              		.loc 1 887 1 is_stmt 1 view -0
ARM GAS  C:\Users\DJESSOU\AppData\Local\Temp\cc3dm0Vf.s 			page 155


 4259              		.cfi_startproc
 4260              		@ args = 0, pretend = 0, frame = 0
 4261              		@ frame_needed = 0, uses_anonymous_args = 0
 888:Lib/Camera_Middleware/cmw_camera.c ****   if(Camera_Drv.VsyncEventCallback != NULL)
 4262              		.loc 1 888 3 view .LVU1392
 889:Lib/Camera_Middleware/cmw_camera.c ****   {
 4263              		.loc 1 889 3 view .LVU1393
 889:Lib/Camera_Middleware/cmw_camera.c ****   {
 4264              		.loc 1 889 16 is_stmt 0 view .LVU1394
 4265 0000 054B     		ldr	r3, .L359
 887:Lib/Camera_Middleware/cmw_camera.c ****   UNUSED(hdcmipp);
 4266              		.loc 1 887 1 view .LVU1395
 4267 0002 10B5     		push	{r4, lr}
 4268              		.cfi_def_cfa_offset 8
 4269              		.cfi_offset 4, -8
 4270              		.cfi_offset 14, -4
 889:Lib/Camera_Middleware/cmw_camera.c ****   {
 4271              		.loc 1 889 16 view .LVU1396
 4272 0004 1B69     		ldr	r3, [r3, #16]
 887:Lib/Camera_Middleware/cmw_camera.c ****   UNUSED(hdcmipp);
 4273              		.loc 1 887 1 view .LVU1397
 4274 0006 0C46     		mov	r4, r1
 889:Lib/Camera_Middleware/cmw_camera.c ****   {
 4275              		.loc 1 889 5 view .LVU1398
 4276 0008 0BB1     		cbz	r3, .L355
 891:Lib/Camera_Middleware/cmw_camera.c ****   }
 4277              		.loc 1 891 7 is_stmt 1 view .LVU1399
 4278 000a 0448     		ldr	r0, .L359+4
 4279              	.LVL373:
 891:Lib/Camera_Middleware/cmw_camera.c ****   }
 4280              		.loc 1 891 7 is_stmt 0 view .LVU1400
 4281 000c 9847     		blx	r3
 4282              	.LVL374:
 4283              	.L355:
 893:Lib/Camera_Middleware/cmw_camera.c **** }
 4284              		.loc 1 893 3 is_stmt 1 view .LVU1401
 4285 000e 2046     		mov	r0, r4
 4286 0010 FFF7FEFF 		bl	CMW_CAMERA_PIPE_VsyncEventCallback
 4287              	.LVL375:
 894:Lib/Camera_Middleware/cmw_camera.c **** 
 4288              		.loc 1 894 1 is_stmt 0 view .LVU1402
 4289 0014 10BD     		pop	{r4, pc}
 4290              	.LVL376:
 4291              	.L360:
 894:Lib/Camera_Middleware/cmw_camera.c **** 
 4292              		.loc 1 894 1 view .LVU1403
 4293 0016 00BF     		.align	2
 4294              	.L359:
 4295 0018 00000000 		.word	Camera_Drv
 4296 001c 00000000 		.word	camera_bsp
 4297              		.cfi_endproc
 4298              	.LFE895:
 4300              		.section	.text.HAL_DCMIPP_PIPE_FrameEventCallback,"ax",%progbits
 4301              		.align	1
 4302              		.global	HAL_DCMIPP_PIPE_FrameEventCallback
 4303              		.syntax unified
 4304              		.thumb
ARM GAS  C:\Users\DJESSOU\AppData\Local\Temp\cc3dm0Vf.s 			page 156


 4305              		.thumb_func
 4307              	HAL_DCMIPP_PIPE_FrameEventCallback:
 4308              	.LVL377:
 4309              	.LFB896:
 903:Lib/Camera_Middleware/cmw_camera.c ****   UNUSED(hdcmipp);
 4310              		.loc 1 903 1 is_stmt 1 view -0
 4311              		.cfi_startproc
 4312              		@ args = 0, pretend = 0, frame = 0
 4313              		@ frame_needed = 0, uses_anonymous_args = 0
 904:Lib/Camera_Middleware/cmw_camera.c ****   if(Camera_Drv.FrameEventCallback != NULL)
 4314              		.loc 1 904 3 view .LVU1405
 905:Lib/Camera_Middleware/cmw_camera.c ****   {
 4315              		.loc 1 905 3 view .LVU1406
 905:Lib/Camera_Middleware/cmw_camera.c ****   {
 4316              		.loc 1 905 16 is_stmt 0 view .LVU1407
 4317 0000 054B     		ldr	r3, .L366
 903:Lib/Camera_Middleware/cmw_camera.c ****   UNUSED(hdcmipp);
 4318              		.loc 1 903 1 view .LVU1408
 4319 0002 10B5     		push	{r4, lr}
 4320              		.cfi_def_cfa_offset 8
 4321              		.cfi_offset 4, -8
 4322              		.cfi_offset 14, -4
 905:Lib/Camera_Middleware/cmw_camera.c ****   {
 4323              		.loc 1 905 16 view .LVU1409
 4324 0004 5B69     		ldr	r3, [r3, #20]
 903:Lib/Camera_Middleware/cmw_camera.c ****   UNUSED(hdcmipp);
 4325              		.loc 1 903 1 view .LVU1410
 4326 0006 0C46     		mov	r4, r1
 905:Lib/Camera_Middleware/cmw_camera.c ****   {
 4327              		.loc 1 905 5 view .LVU1411
 4328 0008 0BB1     		cbz	r3, .L362
 907:Lib/Camera_Middleware/cmw_camera.c ****   }
 4329              		.loc 1 907 7 is_stmt 1 view .LVU1412
 4330 000a 0448     		ldr	r0, .L366+4
 4331              	.LVL378:
 907:Lib/Camera_Middleware/cmw_camera.c ****   }
 4332              		.loc 1 907 7 is_stmt 0 view .LVU1413
 4333 000c 9847     		blx	r3
 4334              	.LVL379:
 4335              	.L362:
 909:Lib/Camera_Middleware/cmw_camera.c **** }
 4336              		.loc 1 909 3 is_stmt 1 view .LVU1414
 4337 000e 2046     		mov	r0, r4
 4338 0010 FFF7FEFF 		bl	CMW_CAMERA_PIPE_FrameEventCallback
 4339              	.LVL380:
 910:Lib/Camera_Middleware/cmw_camera.c **** 
 4340              		.loc 1 910 1 is_stmt 0 view .LVU1415
 4341 0014 10BD     		pop	{r4, pc}
 4342              	.LVL381:
 4343              	.L367:
 910:Lib/Camera_Middleware/cmw_camera.c **** 
 4344              		.loc 1 910 1 view .LVU1416
 4345 0016 00BF     		.align	2
 4346              	.L366:
 4347 0018 00000000 		.word	Camera_Drv
 4348 001c 00000000 		.word	camera_bsp
 4349              		.cfi_endproc
ARM GAS  C:\Users\DJESSOU\AppData\Local\Temp\cc3dm0Vf.s 			page 157


 4350              	.LFE896:
 4352              		.section	.text.HAL_DCMIPP_MspInit,"ax",%progbits
 4353              		.align	1
 4354              		.global	HAL_DCMIPP_MspInit
 4355              		.syntax unified
 4356              		.thumb
 4357              		.thumb_func
 4359              	HAL_DCMIPP_MspInit:
 4360              	.LVL382:
 4361              	.LFB897:
 918:Lib/Camera_Middleware/cmw_camera.c ****   UNUSED(hdcmipp);
 4362              		.loc 1 918 1 is_stmt 1 view -0
 4363              		.cfi_startproc
 4364              		@ args = 0, pretend = 0, frame = 16
 4365              		@ frame_needed = 0, uses_anonymous_args = 0
 919:Lib/Camera_Middleware/cmw_camera.c **** 
 4366              		.loc 1 919 3 view .LVU1418
 923:Lib/Camera_Middleware/cmw_camera.c ****   __HAL_RCC_DCMIPP_CLK_SLEEP_ENABLE();
 4367              		.loc 1 923 3 view .LVU1419
 4368              	.LBB144:
 4369              	.LBI144:
1414:STM32Cube_FW_N6/Drivers/STM32N6xx_HAL_Driver/Inc/stm32n6xx_ll_bus.h **** }
1415:STM32Cube_FW_N6/Drivers/STM32N6xx_HAL_Driver/Inc/stm32n6xx_ll_bus.h **** 
1416:STM32Cube_FW_N6/Drivers/STM32N6xx_HAL_Driver/Inc/stm32n6xx_ll_bus.h **** /**
1417:STM32Cube_FW_N6/Drivers/STM32N6xx_HAL_Driver/Inc/stm32n6xx_ll_bus.h ****   * @brief  Check if AHB4 peripheral clock is enabled or not
1418:STM32Cube_FW_N6/Drivers/STM32N6xx_HAL_Driver/Inc/stm32n6xx_ll_bus.h ****   * @rmtoll AHB4ENR      GPIOAEN       LL_AHB4_GRP1_IsEnabledClock\n
1419:STM32Cube_FW_N6/Drivers/STM32N6xx_HAL_Driver/Inc/stm32n6xx_ll_bus.h ****   *         AHB4ENR      GPIOBEN       LL_AHB4_GRP1_IsEnabledClock\n
1420:STM32Cube_FW_N6/Drivers/STM32N6xx_HAL_Driver/Inc/stm32n6xx_ll_bus.h ****   *         AHB4ENR      GPIOCEN       LL_AHB4_GRP1_IsEnabledClock\n
1421:STM32Cube_FW_N6/Drivers/STM32N6xx_HAL_Driver/Inc/stm32n6xx_ll_bus.h ****   *         AHB4ENR      GPIODEN       LL_AHB4_GRP1_IsEnabledClock\n
1422:STM32Cube_FW_N6/Drivers/STM32N6xx_HAL_Driver/Inc/stm32n6xx_ll_bus.h ****   *         AHB4ENR      GPIOEEN       LL_AHB4_GRP1_IsEnabledClock\n
1423:STM32Cube_FW_N6/Drivers/STM32N6xx_HAL_Driver/Inc/stm32n6xx_ll_bus.h ****   *         AHB4ENR      GPIOFEN       LL_AHB4_GRP1_IsEnabledClock\n
1424:STM32Cube_FW_N6/Drivers/STM32N6xx_HAL_Driver/Inc/stm32n6xx_ll_bus.h ****   *         AHB4ENR      GPIOGEN       LL_AHB4_GRP1_IsEnabledClock\n
1425:STM32Cube_FW_N6/Drivers/STM32N6xx_HAL_Driver/Inc/stm32n6xx_ll_bus.h ****   *         AHB4ENR      GPIOHEN       LL_AHB4_GRP1_IsEnabledClock\n
1426:STM32Cube_FW_N6/Drivers/STM32N6xx_HAL_Driver/Inc/stm32n6xx_ll_bus.h ****   *         AHB4ENR      GPIONEN       LL_AHB4_GRP1_IsEnabledClock\n
1427:STM32Cube_FW_N6/Drivers/STM32N6xx_HAL_Driver/Inc/stm32n6xx_ll_bus.h ****   *         AHB4ENR      GPIOOEN       LL_AHB4_GRP1_IsEnabledClock\n
1428:STM32Cube_FW_N6/Drivers/STM32N6xx_HAL_Driver/Inc/stm32n6xx_ll_bus.h ****   *         AHB4ENR      GPIOPEN       LL_AHB4_GRP1_IsEnabledClock\n
1429:STM32Cube_FW_N6/Drivers/STM32N6xx_HAL_Driver/Inc/stm32n6xx_ll_bus.h ****   *         AHB4ENR      GPIOQEN       LL_AHB4_GRP1_IsEnabledClock\n
1430:STM32Cube_FW_N6/Drivers/STM32N6xx_HAL_Driver/Inc/stm32n6xx_ll_bus.h ****   *         AHB4ENR      PWREN         LL_AHB4_GRP1_IsEnabledClock\n
1431:STM32Cube_FW_N6/Drivers/STM32N6xx_HAL_Driver/Inc/stm32n6xx_ll_bus.h ****   *         AHB4ENR      CRCEN         LL_AHB4_GRP1_IsEnabledClock
1432:STM32Cube_FW_N6/Drivers/STM32N6xx_HAL_Driver/Inc/stm32n6xx_ll_bus.h ****   * @param  Periphs This parameter can be a combination of the following values:
1433:STM32Cube_FW_N6/Drivers/STM32N6xx_HAL_Driver/Inc/stm32n6xx_ll_bus.h ****   *         @arg @ref LL_AHB4_GRP1_PERIPH_GPIOA
1434:STM32Cube_FW_N6/Drivers/STM32N6xx_HAL_Driver/Inc/stm32n6xx_ll_bus.h ****   *         @arg @ref LL_AHB4_GRP1_PERIPH_GPIOB
1435:STM32Cube_FW_N6/Drivers/STM32N6xx_HAL_Driver/Inc/stm32n6xx_ll_bus.h ****   *         @arg @ref LL_AHB4_GRP1_PERIPH_GPIOC
1436:STM32Cube_FW_N6/Drivers/STM32N6xx_HAL_Driver/Inc/stm32n6xx_ll_bus.h ****   *         @arg @ref LL_AHB4_GRP1_PERIPH_GPIOD
1437:STM32Cube_FW_N6/Drivers/STM32N6xx_HAL_Driver/Inc/stm32n6xx_ll_bus.h ****   *         @arg @ref LL_AHB4_GRP1_PERIPH_GPIOE
1438:STM32Cube_FW_N6/Drivers/STM32N6xx_HAL_Driver/Inc/stm32n6xx_ll_bus.h ****   *         @arg @ref LL_AHB4_GRP1_PERIPH_GPIOF
1439:STM32Cube_FW_N6/Drivers/STM32N6xx_HAL_Driver/Inc/stm32n6xx_ll_bus.h ****   *         @arg @ref LL_AHB4_GRP1_PERIPH_GPIOG
1440:STM32Cube_FW_N6/Drivers/STM32N6xx_HAL_Driver/Inc/stm32n6xx_ll_bus.h ****   *         @arg @ref LL_AHB4_GRP1_PERIPH_GPIOH
1441:STM32Cube_FW_N6/Drivers/STM32N6xx_HAL_Driver/Inc/stm32n6xx_ll_bus.h ****   *         @arg @ref LL_AHB4_GRP1_PERIPH_GPION
1442:STM32Cube_FW_N6/Drivers/STM32N6xx_HAL_Driver/Inc/stm32n6xx_ll_bus.h ****   *         @arg @ref LL_AHB4_GRP1_PERIPH_GPIOO
1443:STM32Cube_FW_N6/Drivers/STM32N6xx_HAL_Driver/Inc/stm32n6xx_ll_bus.h ****   *         @arg @ref LL_AHB4_GRP1_PERIPH_GPIOP
1444:STM32Cube_FW_N6/Drivers/STM32N6xx_HAL_Driver/Inc/stm32n6xx_ll_bus.h ****   *         @arg @ref LL_AHB4_GRP1_PERIPH_GPIOQ
1445:STM32Cube_FW_N6/Drivers/STM32N6xx_HAL_Driver/Inc/stm32n6xx_ll_bus.h ****   *         @arg @ref LL_AHB4_GRP1_PERIPH_PWR
1446:STM32Cube_FW_N6/Drivers/STM32N6xx_HAL_Driver/Inc/stm32n6xx_ll_bus.h ****   *         @arg @ref LL_AHB4_GRP1_PERIPH_CRC
1447:STM32Cube_FW_N6/Drivers/STM32N6xx_HAL_Driver/Inc/stm32n6xx_ll_bus.h ****   * @retval uint32_t
1448:STM32Cube_FW_N6/Drivers/STM32N6xx_HAL_Driver/Inc/stm32n6xx_ll_bus.h ****   */
1449:STM32Cube_FW_N6/Drivers/STM32N6xx_HAL_Driver/Inc/stm32n6xx_ll_bus.h **** __STATIC_INLINE uint32_t LL_AHB4_GRP1_IsEnabledClock(uint32_t Periphs)
ARM GAS  C:\Users\DJESSOU\AppData\Local\Temp\cc3dm0Vf.s 			page 158


1450:STM32Cube_FW_N6/Drivers/STM32N6xx_HAL_Driver/Inc/stm32n6xx_ll_bus.h **** {
1451:STM32Cube_FW_N6/Drivers/STM32N6xx_HAL_Driver/Inc/stm32n6xx_ll_bus.h ****   return ((READ_BIT(RCC->AHB4ENR, Periphs) == Periphs) ? 1UL : 0UL);
1452:STM32Cube_FW_N6/Drivers/STM32N6xx_HAL_Driver/Inc/stm32n6xx_ll_bus.h **** }
1453:STM32Cube_FW_N6/Drivers/STM32N6xx_HAL_Driver/Inc/stm32n6xx_ll_bus.h **** 
1454:STM32Cube_FW_N6/Drivers/STM32N6xx_HAL_Driver/Inc/stm32n6xx_ll_bus.h **** /**
1455:STM32Cube_FW_N6/Drivers/STM32N6xx_HAL_Driver/Inc/stm32n6xx_ll_bus.h ****   * @brief  Disable AHB4 peripherals clock.
1456:STM32Cube_FW_N6/Drivers/STM32N6xx_HAL_Driver/Inc/stm32n6xx_ll_bus.h ****   * @rmtoll AHB4ENCR     GPIOAENC      LL_AHB4_GRP1_DisableClock\n
1457:STM32Cube_FW_N6/Drivers/STM32N6xx_HAL_Driver/Inc/stm32n6xx_ll_bus.h ****   *         AHB4ENCR     GPIOBENC      LL_AHB4_GRP1_DisableClock\n
1458:STM32Cube_FW_N6/Drivers/STM32N6xx_HAL_Driver/Inc/stm32n6xx_ll_bus.h ****   *         AHB4ENCR     GPIOCENC      LL_AHB4_GRP1_DisableClock\n
1459:STM32Cube_FW_N6/Drivers/STM32N6xx_HAL_Driver/Inc/stm32n6xx_ll_bus.h ****   *         AHB4ENCR     GPIODENC      LL_AHB4_GRP1_DisableClock\n
1460:STM32Cube_FW_N6/Drivers/STM32N6xx_HAL_Driver/Inc/stm32n6xx_ll_bus.h ****   *         AHB4ENCR     GPIOEENC      LL_AHB4_GRP1_DisableClock\n
1461:STM32Cube_FW_N6/Drivers/STM32N6xx_HAL_Driver/Inc/stm32n6xx_ll_bus.h ****   *         AHB4ENCR     GPIOFENC      LL_AHB4_GRP1_DisableClock\n
1462:STM32Cube_FW_N6/Drivers/STM32N6xx_HAL_Driver/Inc/stm32n6xx_ll_bus.h ****   *         AHB4ENCR     GPIOGENC      LL_AHB4_GRP1_DisableClock\n
1463:STM32Cube_FW_N6/Drivers/STM32N6xx_HAL_Driver/Inc/stm32n6xx_ll_bus.h ****   *         AHB4ENCR     GPIOHENC      LL_AHB4_GRP1_DisableClock\n
1464:STM32Cube_FW_N6/Drivers/STM32N6xx_HAL_Driver/Inc/stm32n6xx_ll_bus.h ****   *         AHB4ENCR     GPIONENC      LL_AHB4_GRP1_DisableClock\n
1465:STM32Cube_FW_N6/Drivers/STM32N6xx_HAL_Driver/Inc/stm32n6xx_ll_bus.h ****   *         AHB4ENCR     GPIOOENC      LL_AHB4_GRP1_DisableClock\n
1466:STM32Cube_FW_N6/Drivers/STM32N6xx_HAL_Driver/Inc/stm32n6xx_ll_bus.h ****   *         AHB4ENCR     GPIOPENC      LL_AHB4_GRP1_DisableClock\n
1467:STM32Cube_FW_N6/Drivers/STM32N6xx_HAL_Driver/Inc/stm32n6xx_ll_bus.h ****   *         AHB4ENCR     GPIOQENC      LL_AHB4_GRP1_DisableClock\n
1468:STM32Cube_FW_N6/Drivers/STM32N6xx_HAL_Driver/Inc/stm32n6xx_ll_bus.h ****   *         AHB4ENCR     PWRENC        LL_AHB4_GRP1_DisableClock\n
1469:STM32Cube_FW_N6/Drivers/STM32N6xx_HAL_Driver/Inc/stm32n6xx_ll_bus.h ****   *         AHB4ENCR     CRCENC        LL_AHB4_GRP1_DisableClock
1470:STM32Cube_FW_N6/Drivers/STM32N6xx_HAL_Driver/Inc/stm32n6xx_ll_bus.h ****   * @param  Periphs This parameter can be a combination of the following values:
1471:STM32Cube_FW_N6/Drivers/STM32N6xx_HAL_Driver/Inc/stm32n6xx_ll_bus.h ****   *         @arg @ref LL_AHB4_GRP1_PERIPH_GPIOA
1472:STM32Cube_FW_N6/Drivers/STM32N6xx_HAL_Driver/Inc/stm32n6xx_ll_bus.h ****   *         @arg @ref LL_AHB4_GRP1_PERIPH_GPIOB
1473:STM32Cube_FW_N6/Drivers/STM32N6xx_HAL_Driver/Inc/stm32n6xx_ll_bus.h ****   *         @arg @ref LL_AHB4_GRP1_PERIPH_GPIOC
1474:STM32Cube_FW_N6/Drivers/STM32N6xx_HAL_Driver/Inc/stm32n6xx_ll_bus.h ****   *         @arg @ref LL_AHB4_GRP1_PERIPH_GPIOD
1475:STM32Cube_FW_N6/Drivers/STM32N6xx_HAL_Driver/Inc/stm32n6xx_ll_bus.h ****   *         @arg @ref LL_AHB4_GRP1_PERIPH_GPIOE
1476:STM32Cube_FW_N6/Drivers/STM32N6xx_HAL_Driver/Inc/stm32n6xx_ll_bus.h ****   *         @arg @ref LL_AHB4_GRP1_PERIPH_GPIOF
1477:STM32Cube_FW_N6/Drivers/STM32N6xx_HAL_Driver/Inc/stm32n6xx_ll_bus.h ****   *         @arg @ref LL_AHB4_GRP1_PERIPH_GPIOG
1478:STM32Cube_FW_N6/Drivers/STM32N6xx_HAL_Driver/Inc/stm32n6xx_ll_bus.h ****   *         @arg @ref LL_AHB4_GRP1_PERIPH_GPIOH
1479:STM32Cube_FW_N6/Drivers/STM32N6xx_HAL_Driver/Inc/stm32n6xx_ll_bus.h ****   *         @arg @ref LL_AHB4_GRP1_PERIPH_GPION
1480:STM32Cube_FW_N6/Drivers/STM32N6xx_HAL_Driver/Inc/stm32n6xx_ll_bus.h ****   *         @arg @ref LL_AHB4_GRP1_PERIPH_GPIOO
1481:STM32Cube_FW_N6/Drivers/STM32N6xx_HAL_Driver/Inc/stm32n6xx_ll_bus.h ****   *         @arg @ref LL_AHB4_GRP1_PERIPH_GPIOP
1482:STM32Cube_FW_N6/Drivers/STM32N6xx_HAL_Driver/Inc/stm32n6xx_ll_bus.h ****   *         @arg @ref LL_AHB4_GRP1_PERIPH_GPIOQ
1483:STM32Cube_FW_N6/Drivers/STM32N6xx_HAL_Driver/Inc/stm32n6xx_ll_bus.h ****   *         @arg @ref LL_AHB4_GRP1_PERIPH_PWR
1484:STM32Cube_FW_N6/Drivers/STM32N6xx_HAL_Driver/Inc/stm32n6xx_ll_bus.h ****   *         @arg @ref LL_AHB4_GRP1_PERIPH_CRC
1485:STM32Cube_FW_N6/Drivers/STM32N6xx_HAL_Driver/Inc/stm32n6xx_ll_bus.h ****   * @retval None
1486:STM32Cube_FW_N6/Drivers/STM32N6xx_HAL_Driver/Inc/stm32n6xx_ll_bus.h ****   */
1487:STM32Cube_FW_N6/Drivers/STM32N6xx_HAL_Driver/Inc/stm32n6xx_ll_bus.h **** __STATIC_INLINE void LL_AHB4_GRP1_DisableClock(uint32_t Periphs)
1488:STM32Cube_FW_N6/Drivers/STM32N6xx_HAL_Driver/Inc/stm32n6xx_ll_bus.h **** {
1489:STM32Cube_FW_N6/Drivers/STM32N6xx_HAL_Driver/Inc/stm32n6xx_ll_bus.h ****   WRITE_REG(RCC->AHB4ENCR, Periphs);
1490:STM32Cube_FW_N6/Drivers/STM32N6xx_HAL_Driver/Inc/stm32n6xx_ll_bus.h **** }
1491:STM32Cube_FW_N6/Drivers/STM32N6xx_HAL_Driver/Inc/stm32n6xx_ll_bus.h **** 
1492:STM32Cube_FW_N6/Drivers/STM32N6xx_HAL_Driver/Inc/stm32n6xx_ll_bus.h **** /**
1493:STM32Cube_FW_N6/Drivers/STM32N6xx_HAL_Driver/Inc/stm32n6xx_ll_bus.h ****   * @brief  Force AHB4 peripherals reset.
1494:STM32Cube_FW_N6/Drivers/STM32N6xx_HAL_Driver/Inc/stm32n6xx_ll_bus.h ****   * @rmtoll AHB4RSTSR     GPIOARSTS      LL_AHB4_GRP1_ForceReset\n
1495:STM32Cube_FW_N6/Drivers/STM32N6xx_HAL_Driver/Inc/stm32n6xx_ll_bus.h ****   *         AHB4RSTSR     GPIOBRSTS      LL_AHB4_GRP1_ForceReset\n
1496:STM32Cube_FW_N6/Drivers/STM32N6xx_HAL_Driver/Inc/stm32n6xx_ll_bus.h ****   *         AHB4RSTSR     GPIOCRSTS      LL_AHB4_GRP1_ForceReset\n
1497:STM32Cube_FW_N6/Drivers/STM32N6xx_HAL_Driver/Inc/stm32n6xx_ll_bus.h ****   *         AHB4RSTSR     GPIODRSTS      LL_AHB4_GRP1_ForceReset\n
1498:STM32Cube_FW_N6/Drivers/STM32N6xx_HAL_Driver/Inc/stm32n6xx_ll_bus.h ****   *         AHB4RSTSR     GPIOERSTS      LL_AHB4_GRP1_ForceReset\n
1499:STM32Cube_FW_N6/Drivers/STM32N6xx_HAL_Driver/Inc/stm32n6xx_ll_bus.h ****   *         AHB4RSTSR     GPIOFRSTS      LL_AHB4_GRP1_ForceReset\n
1500:STM32Cube_FW_N6/Drivers/STM32N6xx_HAL_Driver/Inc/stm32n6xx_ll_bus.h ****   *         AHB4RSTSR     GPIOGRSTS      LL_AHB4_GRP1_ForceReset\n
1501:STM32Cube_FW_N6/Drivers/STM32N6xx_HAL_Driver/Inc/stm32n6xx_ll_bus.h ****   *         AHB4RSTSR     GPIOHRSTS      LL_AHB4_GRP1_ForceReset\n
1502:STM32Cube_FW_N6/Drivers/STM32N6xx_HAL_Driver/Inc/stm32n6xx_ll_bus.h ****   *         AHB4RSTSR     GPIONRSTS      LL_AHB4_GRP1_ForceReset\n
1503:STM32Cube_FW_N6/Drivers/STM32N6xx_HAL_Driver/Inc/stm32n6xx_ll_bus.h ****   *         AHB4RSTSR     GPIOORSTS      LL_AHB4_GRP1_ForceReset\n
1504:STM32Cube_FW_N6/Drivers/STM32N6xx_HAL_Driver/Inc/stm32n6xx_ll_bus.h ****   *         AHB4RSTSR     GPIOPRSTS      LL_AHB4_GRP1_ForceReset\n
1505:STM32Cube_FW_N6/Drivers/STM32N6xx_HAL_Driver/Inc/stm32n6xx_ll_bus.h ****   *         AHB4RSTSR     GPIOQRSTS      LL_AHB4_GRP1_ForceReset\n
1506:STM32Cube_FW_N6/Drivers/STM32N6xx_HAL_Driver/Inc/stm32n6xx_ll_bus.h ****   *         AHB4RSTSR     CRCRSTS        LL_AHB4_GRP1_ForceReset\n
ARM GAS  C:\Users\DJESSOU\AppData\Local\Temp\cc3dm0Vf.s 			page 159


1507:STM32Cube_FW_N6/Drivers/STM32N6xx_HAL_Driver/Inc/stm32n6xx_ll_bus.h ****   *         AHB4RSTSR     BKPRAMRSTS     LL_AHB4_GRP1_ForceReset
1508:STM32Cube_FW_N6/Drivers/STM32N6xx_HAL_Driver/Inc/stm32n6xx_ll_bus.h ****   * @param  Periphs This parameter can be a combination of the following values:
1509:STM32Cube_FW_N6/Drivers/STM32N6xx_HAL_Driver/Inc/stm32n6xx_ll_bus.h ****   *         @arg @ref LL_AHB4_GRP1_PERIPH_GPIOA
1510:STM32Cube_FW_N6/Drivers/STM32N6xx_HAL_Driver/Inc/stm32n6xx_ll_bus.h ****   *         @arg @ref LL_AHB4_GRP1_PERIPH_GPIOB
1511:STM32Cube_FW_N6/Drivers/STM32N6xx_HAL_Driver/Inc/stm32n6xx_ll_bus.h ****   *         @arg @ref LL_AHB4_GRP1_PERIPH_GPIOC
1512:STM32Cube_FW_N6/Drivers/STM32N6xx_HAL_Driver/Inc/stm32n6xx_ll_bus.h ****   *         @arg @ref LL_AHB4_GRP1_PERIPH_GPIOD
1513:STM32Cube_FW_N6/Drivers/STM32N6xx_HAL_Driver/Inc/stm32n6xx_ll_bus.h ****   *         @arg @ref LL_AHB4_GRP1_PERIPH_GPIOE
1514:STM32Cube_FW_N6/Drivers/STM32N6xx_HAL_Driver/Inc/stm32n6xx_ll_bus.h ****   *         @arg @ref LL_AHB4_GRP1_PERIPH_GPIOF
1515:STM32Cube_FW_N6/Drivers/STM32N6xx_HAL_Driver/Inc/stm32n6xx_ll_bus.h ****   *         @arg @ref LL_AHB4_GRP1_PERIPH_GPIOG
1516:STM32Cube_FW_N6/Drivers/STM32N6xx_HAL_Driver/Inc/stm32n6xx_ll_bus.h ****   *         @arg @ref LL_AHB4_GRP1_PERIPH_GPIOH
1517:STM32Cube_FW_N6/Drivers/STM32N6xx_HAL_Driver/Inc/stm32n6xx_ll_bus.h ****   *         @arg @ref LL_AHB4_GRP1_PERIPH_GPION
1518:STM32Cube_FW_N6/Drivers/STM32N6xx_HAL_Driver/Inc/stm32n6xx_ll_bus.h ****   *         @arg @ref LL_AHB4_GRP1_PERIPH_GPIOO
1519:STM32Cube_FW_N6/Drivers/STM32N6xx_HAL_Driver/Inc/stm32n6xx_ll_bus.h ****   *         @arg @ref LL_AHB4_GRP1_PERIPH_GPIOP
1520:STM32Cube_FW_N6/Drivers/STM32N6xx_HAL_Driver/Inc/stm32n6xx_ll_bus.h ****   *         @arg @ref LL_AHB4_GRP1_PERIPH_GPIOQ
1521:STM32Cube_FW_N6/Drivers/STM32N6xx_HAL_Driver/Inc/stm32n6xx_ll_bus.h ****   *         @arg @ref LL_AHB4_GRP1_PERIPH_PWR
1522:STM32Cube_FW_N6/Drivers/STM32N6xx_HAL_Driver/Inc/stm32n6xx_ll_bus.h ****   *         @arg @ref LL_AHB4_GRP1_PERIPH_CRC
1523:STM32Cube_FW_N6/Drivers/STM32N6xx_HAL_Driver/Inc/stm32n6xx_ll_bus.h ****   * @retval None
1524:STM32Cube_FW_N6/Drivers/STM32N6xx_HAL_Driver/Inc/stm32n6xx_ll_bus.h ****   */
1525:STM32Cube_FW_N6/Drivers/STM32N6xx_HAL_Driver/Inc/stm32n6xx_ll_bus.h **** __STATIC_INLINE void LL_AHB4_GRP1_ForceReset(uint32_t Periphs)
1526:STM32Cube_FW_N6/Drivers/STM32N6xx_HAL_Driver/Inc/stm32n6xx_ll_bus.h **** {
1527:STM32Cube_FW_N6/Drivers/STM32N6xx_HAL_Driver/Inc/stm32n6xx_ll_bus.h ****   WRITE_REG(RCC->AHB4RSTSR, Periphs);
1528:STM32Cube_FW_N6/Drivers/STM32N6xx_HAL_Driver/Inc/stm32n6xx_ll_bus.h **** }
1529:STM32Cube_FW_N6/Drivers/STM32N6xx_HAL_Driver/Inc/stm32n6xx_ll_bus.h **** 
1530:STM32Cube_FW_N6/Drivers/STM32N6xx_HAL_Driver/Inc/stm32n6xx_ll_bus.h **** /**
1531:STM32Cube_FW_N6/Drivers/STM32N6xx_HAL_Driver/Inc/stm32n6xx_ll_bus.h ****   * @brief  Release AHB4 peripherals reset.
1532:STM32Cube_FW_N6/Drivers/STM32N6xx_HAL_Driver/Inc/stm32n6xx_ll_bus.h ****   * @rmtoll AHB4RSTCR     GPIOARSTC      LL_AHB4_GRP1_ReleaseReset\n
1533:STM32Cube_FW_N6/Drivers/STM32N6xx_HAL_Driver/Inc/stm32n6xx_ll_bus.h ****   *         AHB4RSTCR     GPIOBRSTC      LL_AHB4_GRP1_ReleaseReset\n
1534:STM32Cube_FW_N6/Drivers/STM32N6xx_HAL_Driver/Inc/stm32n6xx_ll_bus.h ****   *         AHB4RSTCR     GPIOCRSTC      LL_AHB4_GRP1_ReleaseReset\n
1535:STM32Cube_FW_N6/Drivers/STM32N6xx_HAL_Driver/Inc/stm32n6xx_ll_bus.h ****   *         AHB4RSTCR     GPIODRSTC      LL_AHB4_GRP1_ReleaseReset\n
1536:STM32Cube_FW_N6/Drivers/STM32N6xx_HAL_Driver/Inc/stm32n6xx_ll_bus.h ****   *         AHB4RSTCR     GPIOERSTC      LL_AHB4_GRP1_ReleaseReset\n
1537:STM32Cube_FW_N6/Drivers/STM32N6xx_HAL_Driver/Inc/stm32n6xx_ll_bus.h ****   *         AHB4RSTCR     GPIOFRSTC      LL_AHB4_GRP1_ReleaseReset\n
1538:STM32Cube_FW_N6/Drivers/STM32N6xx_HAL_Driver/Inc/stm32n6xx_ll_bus.h ****   *         AHB4RSTCR     GPIOGRSTC      LL_AHB4_GRP1_ReleaseReset\n
1539:STM32Cube_FW_N6/Drivers/STM32N6xx_HAL_Driver/Inc/stm32n6xx_ll_bus.h ****   *         AHB4RSTCR     GPIOHRSTC      LL_AHB4_GRP1_ReleaseReset\n
1540:STM32Cube_FW_N6/Drivers/STM32N6xx_HAL_Driver/Inc/stm32n6xx_ll_bus.h ****   *         AHB4RSTCR     GPIONRSTC      LL_AHB4_GRP1_ReleaseReset\n
1541:STM32Cube_FW_N6/Drivers/STM32N6xx_HAL_Driver/Inc/stm32n6xx_ll_bus.h ****   *         AHB4RSTCR     GPIOORSTC      LL_AHB4_GRP1_ReleaseReset\n
1542:STM32Cube_FW_N6/Drivers/STM32N6xx_HAL_Driver/Inc/stm32n6xx_ll_bus.h ****   *         AHB4RSTCR     GPIOPRSTC      LL_AHB4_GRP1_ReleaseReset\n
1543:STM32Cube_FW_N6/Drivers/STM32N6xx_HAL_Driver/Inc/stm32n6xx_ll_bus.h ****   *         AHB4RSTCR     GPIOQRSTC      LL_AHB4_GRP1_ReleaseReset\n
1544:STM32Cube_FW_N6/Drivers/STM32N6xx_HAL_Driver/Inc/stm32n6xx_ll_bus.h ****   *         AHB4RSTCR     CRCRSTC        LL_AHB4_GRP1_ReleaseReset\n
1545:STM32Cube_FW_N6/Drivers/STM32N6xx_HAL_Driver/Inc/stm32n6xx_ll_bus.h ****   *         AHB4RSTCR     BKPRAMRSTC     LL_AHB4_GRP1_ReleaseReset
1546:STM32Cube_FW_N6/Drivers/STM32N6xx_HAL_Driver/Inc/stm32n6xx_ll_bus.h ****   * @param  Periphs This parameter can be a combination of the following values:
1547:STM32Cube_FW_N6/Drivers/STM32N6xx_HAL_Driver/Inc/stm32n6xx_ll_bus.h ****   *         @arg @ref LL_AHB4_GRP1_PERIPH_GPIOA
1548:STM32Cube_FW_N6/Drivers/STM32N6xx_HAL_Driver/Inc/stm32n6xx_ll_bus.h ****   *         @arg @ref LL_AHB4_GRP1_PERIPH_GPIOB
1549:STM32Cube_FW_N6/Drivers/STM32N6xx_HAL_Driver/Inc/stm32n6xx_ll_bus.h ****   *         @arg @ref LL_AHB4_GRP1_PERIPH_GPIOC
1550:STM32Cube_FW_N6/Drivers/STM32N6xx_HAL_Driver/Inc/stm32n6xx_ll_bus.h ****   *         @arg @ref LL_AHB4_GRP1_PERIPH_GPIOD
1551:STM32Cube_FW_N6/Drivers/STM32N6xx_HAL_Driver/Inc/stm32n6xx_ll_bus.h ****   *         @arg @ref LL_AHB4_GRP1_PERIPH_GPIOE
1552:STM32Cube_FW_N6/Drivers/STM32N6xx_HAL_Driver/Inc/stm32n6xx_ll_bus.h ****   *         @arg @ref LL_AHB4_GRP1_PERIPH_GPIOF
1553:STM32Cube_FW_N6/Drivers/STM32N6xx_HAL_Driver/Inc/stm32n6xx_ll_bus.h ****   *         @arg @ref LL_AHB4_GRP1_PERIPH_GPIOG
1554:STM32Cube_FW_N6/Drivers/STM32N6xx_HAL_Driver/Inc/stm32n6xx_ll_bus.h ****   *         @arg @ref LL_AHB4_GRP1_PERIPH_GPIOH
1555:STM32Cube_FW_N6/Drivers/STM32N6xx_HAL_Driver/Inc/stm32n6xx_ll_bus.h ****   *         @arg @ref LL_AHB4_GRP1_PERIPH_GPION
1556:STM32Cube_FW_N6/Drivers/STM32N6xx_HAL_Driver/Inc/stm32n6xx_ll_bus.h ****   *         @arg @ref LL_AHB4_GRP1_PERIPH_GPIOO
1557:STM32Cube_FW_N6/Drivers/STM32N6xx_HAL_Driver/Inc/stm32n6xx_ll_bus.h ****   *         @arg @ref LL_AHB4_GRP1_PERIPH_GPIOP
1558:STM32Cube_FW_N6/Drivers/STM32N6xx_HAL_Driver/Inc/stm32n6xx_ll_bus.h ****   *         @arg @ref LL_AHB4_GRP1_PERIPH_GPIOQ
1559:STM32Cube_FW_N6/Drivers/STM32N6xx_HAL_Driver/Inc/stm32n6xx_ll_bus.h ****   *         @arg @ref LL_AHB4_GRP1_PERIPH_PWR
1560:STM32Cube_FW_N6/Drivers/STM32N6xx_HAL_Driver/Inc/stm32n6xx_ll_bus.h ****   *         @arg @ref LL_AHB4_GRP1_PERIPH_CRC
1561:STM32Cube_FW_N6/Drivers/STM32N6xx_HAL_Driver/Inc/stm32n6xx_ll_bus.h ****   * @retval None
1562:STM32Cube_FW_N6/Drivers/STM32N6xx_HAL_Driver/Inc/stm32n6xx_ll_bus.h ****   */
1563:STM32Cube_FW_N6/Drivers/STM32N6xx_HAL_Driver/Inc/stm32n6xx_ll_bus.h **** __STATIC_INLINE void LL_AHB4_GRP1_ReleaseReset(uint32_t Periphs)
ARM GAS  C:\Users\DJESSOU\AppData\Local\Temp\cc3dm0Vf.s 			page 160


1564:STM32Cube_FW_N6/Drivers/STM32N6xx_HAL_Driver/Inc/stm32n6xx_ll_bus.h **** {
1565:STM32Cube_FW_N6/Drivers/STM32N6xx_HAL_Driver/Inc/stm32n6xx_ll_bus.h ****   WRITE_REG(RCC->AHB4RSTCR, Periphs);
1566:STM32Cube_FW_N6/Drivers/STM32N6xx_HAL_Driver/Inc/stm32n6xx_ll_bus.h **** }
1567:STM32Cube_FW_N6/Drivers/STM32N6xx_HAL_Driver/Inc/stm32n6xx_ll_bus.h **** 
1568:STM32Cube_FW_N6/Drivers/STM32N6xx_HAL_Driver/Inc/stm32n6xx_ll_bus.h **** /**
1569:STM32Cube_FW_N6/Drivers/STM32N6xx_HAL_Driver/Inc/stm32n6xx_ll_bus.h ****   * @brief  Enable AHB4 peripherals clock during Low Power mode.
1570:STM32Cube_FW_N6/Drivers/STM32N6xx_HAL_Driver/Inc/stm32n6xx_ll_bus.h ****   * @rmtoll AHB4LPENSR    GPIOALPENS     LL_AHB4_GRP1_EnableClockLowPower\n
1571:STM32Cube_FW_N6/Drivers/STM32N6xx_HAL_Driver/Inc/stm32n6xx_ll_bus.h ****   *         AHB4LPENSR    GPIOBLPENS     LL_AHB4_GRP1_EnableClockLowPower\n
1572:STM32Cube_FW_N6/Drivers/STM32N6xx_HAL_Driver/Inc/stm32n6xx_ll_bus.h ****   *         AHB4LPENSR    GPIOCLPENS     LL_AHB4_GRP1_EnableClockLowPower\n
1573:STM32Cube_FW_N6/Drivers/STM32N6xx_HAL_Driver/Inc/stm32n6xx_ll_bus.h ****   *         AHB4LPENSR    GPIODLPENS     LL_AHB4_GRP1_EnableClockLowPower\n
1574:STM32Cube_FW_N6/Drivers/STM32N6xx_HAL_Driver/Inc/stm32n6xx_ll_bus.h ****   *         AHB4LPENSR    GPIOELPENS     LL_AHB4_GRP1_EnableClockLowPower\n
1575:STM32Cube_FW_N6/Drivers/STM32N6xx_HAL_Driver/Inc/stm32n6xx_ll_bus.h ****   *         AHB4LPENSR    GPIOFLPENS     LL_AHB4_GRP1_EnableClockLowPower\n
1576:STM32Cube_FW_N6/Drivers/STM32N6xx_HAL_Driver/Inc/stm32n6xx_ll_bus.h ****   *         AHB4LPENSR    GPIOGLPENS     LL_AHB4_GRP1_EnableClockLowPower\n
1577:STM32Cube_FW_N6/Drivers/STM32N6xx_HAL_Driver/Inc/stm32n6xx_ll_bus.h ****   *         AHB4LPENSR    GPIOHLPENS     LL_AHB4_GRP1_EnableClockLowPower\n
1578:STM32Cube_FW_N6/Drivers/STM32N6xx_HAL_Driver/Inc/stm32n6xx_ll_bus.h ****   *         AHB4LPENSR    GPIONLPENS     LL_AHB4_GRP1_EnableClockLowPower\n
1579:STM32Cube_FW_N6/Drivers/STM32N6xx_HAL_Driver/Inc/stm32n6xx_ll_bus.h ****   *         AHB4LPENSR    GPIOOLPENS     LL_AHB4_GRP1_EnableClockLowPower\n
1580:STM32Cube_FW_N6/Drivers/STM32N6xx_HAL_Driver/Inc/stm32n6xx_ll_bus.h ****   *         AHB4LPENSR    GPIOPLPENS     LL_AHB4_GRP1_EnableClockLowPower\n
1581:STM32Cube_FW_N6/Drivers/STM32N6xx_HAL_Driver/Inc/stm32n6xx_ll_bus.h ****   *         AHB4LPENSR    GPIOQLPENS     LL_AHB4_GRP1_EnableClockLowPower\n
1582:STM32Cube_FW_N6/Drivers/STM32N6xx_HAL_Driver/Inc/stm32n6xx_ll_bus.h ****   *         AHB4LPENSR    CRCLPENS       LL_AHB4_GRP1_EnableClockLowPower\n
1583:STM32Cube_FW_N6/Drivers/STM32N6xx_HAL_Driver/Inc/stm32n6xx_ll_bus.h ****   *         AHB4LPENSR    BKPRAMLPENS    LL_AHB4_GRP1_EnableClockLowPower
1584:STM32Cube_FW_N6/Drivers/STM32N6xx_HAL_Driver/Inc/stm32n6xx_ll_bus.h ****   * @param  Periphs This parameter can be a combination of the following values:
1585:STM32Cube_FW_N6/Drivers/STM32N6xx_HAL_Driver/Inc/stm32n6xx_ll_bus.h ****   *         @arg @ref LL_AHB4_GRP1_PERIPH_GPIOA
1586:STM32Cube_FW_N6/Drivers/STM32N6xx_HAL_Driver/Inc/stm32n6xx_ll_bus.h ****   *         @arg @ref LL_AHB4_GRP1_PERIPH_GPIOB
1587:STM32Cube_FW_N6/Drivers/STM32N6xx_HAL_Driver/Inc/stm32n6xx_ll_bus.h ****   *         @arg @ref LL_AHB4_GRP1_PERIPH_GPIOC
1588:STM32Cube_FW_N6/Drivers/STM32N6xx_HAL_Driver/Inc/stm32n6xx_ll_bus.h ****   *         @arg @ref LL_AHB4_GRP1_PERIPH_GPIOD
1589:STM32Cube_FW_N6/Drivers/STM32N6xx_HAL_Driver/Inc/stm32n6xx_ll_bus.h ****   *         @arg @ref LL_AHB4_GRP1_PERIPH_GPIOE
1590:STM32Cube_FW_N6/Drivers/STM32N6xx_HAL_Driver/Inc/stm32n6xx_ll_bus.h ****   *         @arg @ref LL_AHB4_GRP1_PERIPH_GPIOF
1591:STM32Cube_FW_N6/Drivers/STM32N6xx_HAL_Driver/Inc/stm32n6xx_ll_bus.h ****   *         @arg @ref LL_AHB4_GRP1_PERIPH_GPIOG
1592:STM32Cube_FW_N6/Drivers/STM32N6xx_HAL_Driver/Inc/stm32n6xx_ll_bus.h ****   *         @arg @ref LL_AHB4_GRP1_PERIPH_GPIOH
1593:STM32Cube_FW_N6/Drivers/STM32N6xx_HAL_Driver/Inc/stm32n6xx_ll_bus.h ****   *         @arg @ref LL_AHB4_GRP1_PERIPH_GPION
1594:STM32Cube_FW_N6/Drivers/STM32N6xx_HAL_Driver/Inc/stm32n6xx_ll_bus.h ****   *         @arg @ref LL_AHB4_GRP1_PERIPH_GPIOO
1595:STM32Cube_FW_N6/Drivers/STM32N6xx_HAL_Driver/Inc/stm32n6xx_ll_bus.h ****   *         @arg @ref LL_AHB4_GRP1_PERIPH_GPIOP
1596:STM32Cube_FW_N6/Drivers/STM32N6xx_HAL_Driver/Inc/stm32n6xx_ll_bus.h ****   *         @arg @ref LL_AHB4_GRP1_PERIPH_GPIOQ
1597:STM32Cube_FW_N6/Drivers/STM32N6xx_HAL_Driver/Inc/stm32n6xx_ll_bus.h ****   *         @arg @ref LL_AHB4_GRP1_PERIPH_PWR
1598:STM32Cube_FW_N6/Drivers/STM32N6xx_HAL_Driver/Inc/stm32n6xx_ll_bus.h ****   *         @arg @ref LL_AHB4_GRP1_PERIPH_CRC
1599:STM32Cube_FW_N6/Drivers/STM32N6xx_HAL_Driver/Inc/stm32n6xx_ll_bus.h ****   * @retval None
1600:STM32Cube_FW_N6/Drivers/STM32N6xx_HAL_Driver/Inc/stm32n6xx_ll_bus.h ****   */
1601:STM32Cube_FW_N6/Drivers/STM32N6xx_HAL_Driver/Inc/stm32n6xx_ll_bus.h **** __STATIC_INLINE void LL_AHB4_GRP1_EnableClockLowPower(uint32_t Periphs)
1602:STM32Cube_FW_N6/Drivers/STM32N6xx_HAL_Driver/Inc/stm32n6xx_ll_bus.h **** {
1603:STM32Cube_FW_N6/Drivers/STM32N6xx_HAL_Driver/Inc/stm32n6xx_ll_bus.h ****   __IO uint32_t tmpreg;
1604:STM32Cube_FW_N6/Drivers/STM32N6xx_HAL_Driver/Inc/stm32n6xx_ll_bus.h ****   WRITE_REG(RCC->AHB4LPENSR, Periphs);
1605:STM32Cube_FW_N6/Drivers/STM32N6xx_HAL_Driver/Inc/stm32n6xx_ll_bus.h ****   /* Delay after an RCC peripheral clock enabling */
1606:STM32Cube_FW_N6/Drivers/STM32N6xx_HAL_Driver/Inc/stm32n6xx_ll_bus.h ****   tmpreg = READ_REG(RCC->AHB4LPENR);
1607:STM32Cube_FW_N6/Drivers/STM32N6xx_HAL_Driver/Inc/stm32n6xx_ll_bus.h ****   (void)tmpreg;
1608:STM32Cube_FW_N6/Drivers/STM32N6xx_HAL_Driver/Inc/stm32n6xx_ll_bus.h **** }
1609:STM32Cube_FW_N6/Drivers/STM32N6xx_HAL_Driver/Inc/stm32n6xx_ll_bus.h **** 
1610:STM32Cube_FW_N6/Drivers/STM32N6xx_HAL_Driver/Inc/stm32n6xx_ll_bus.h **** /**
1611:STM32Cube_FW_N6/Drivers/STM32N6xx_HAL_Driver/Inc/stm32n6xx_ll_bus.h ****   * @brief  Check if AHB4 peripheral clock during Low Power mode is enabled or not .
1612:STM32Cube_FW_N6/Drivers/STM32N6xx_HAL_Driver/Inc/stm32n6xx_ll_bus.h ****   * @rmtoll AHB4LPENR     GPIOALPEN      LL_AHB4_GRP1_IsEnabledClockLowPower\n
1613:STM32Cube_FW_N6/Drivers/STM32N6xx_HAL_Driver/Inc/stm32n6xx_ll_bus.h ****   *         AHB4LPENR     GPIOBLPEN      LL_AHB4_GRP1_IsEnabledClockLowPower\n
1614:STM32Cube_FW_N6/Drivers/STM32N6xx_HAL_Driver/Inc/stm32n6xx_ll_bus.h ****   *         AHB4LPENR     GPIOCLPEN      LL_AHB4_GRP1_IsEnabledClockLowPower\n
1615:STM32Cube_FW_N6/Drivers/STM32N6xx_HAL_Driver/Inc/stm32n6xx_ll_bus.h ****   *         AHB4LPENR     GPIODLPEN      LL_AHB4_GRP1_IsEnabledClockLowPower\n
1616:STM32Cube_FW_N6/Drivers/STM32N6xx_HAL_Driver/Inc/stm32n6xx_ll_bus.h ****   *         AHB4LPENR     GPIOELPEN      LL_AHB4_GRP1_IsEnabledClockLowPower\n
1617:STM32Cube_FW_N6/Drivers/STM32N6xx_HAL_Driver/Inc/stm32n6xx_ll_bus.h ****   *         AHB4LPENR     GPIOFLPEN      LL_AHB4_GRP1_IsEnabledClockLowPower\n
1618:STM32Cube_FW_N6/Drivers/STM32N6xx_HAL_Driver/Inc/stm32n6xx_ll_bus.h ****   *         AHB4LPENR     GPIOGLPEN      LL_AHB4_GRP1_IsEnabledClockLowPower\n
1619:STM32Cube_FW_N6/Drivers/STM32N6xx_HAL_Driver/Inc/stm32n6xx_ll_bus.h ****   *         AHB4LPENR     GPIOHLPEN      LL_AHB4_GRP1_IsEnabledClockLowPower\n
1620:STM32Cube_FW_N6/Drivers/STM32N6xx_HAL_Driver/Inc/stm32n6xx_ll_bus.h ****   *         AHB4LPENR     GPIONLPEN      LL_AHB4_GRP1_IsEnabledClockLowPower\n
ARM GAS  C:\Users\DJESSOU\AppData\Local\Temp\cc3dm0Vf.s 			page 161


1621:STM32Cube_FW_N6/Drivers/STM32N6xx_HAL_Driver/Inc/stm32n6xx_ll_bus.h ****   *         AHB4LPENR     GPIOOLPEN      LL_AHB4_GRP1_IsEnabledClockLowPower\n
1622:STM32Cube_FW_N6/Drivers/STM32N6xx_HAL_Driver/Inc/stm32n6xx_ll_bus.h ****   *         AHB4LPENR     GPIOPLPEN      LL_AHB4_GRP1_IsEnabledClockLowPower\n
1623:STM32Cube_FW_N6/Drivers/STM32N6xx_HAL_Driver/Inc/stm32n6xx_ll_bus.h ****   *         AHB4LPENR     GPIOQLPEN      LL_AHB4_GRP1_IsEnabledClockLowPower\n
1624:STM32Cube_FW_N6/Drivers/STM32N6xx_HAL_Driver/Inc/stm32n6xx_ll_bus.h ****   *         AHB4LPENR     PWRLPEN        LL_AHB4_GRP1_IsEnabledClockLowPower\n
1625:STM32Cube_FW_N6/Drivers/STM32N6xx_HAL_Driver/Inc/stm32n6xx_ll_bus.h ****   *         AHB4LPENR     CRCLPEN        LL_AHB4_GRP1_IsEnabledClockLowPower
1626:STM32Cube_FW_N6/Drivers/STM32N6xx_HAL_Driver/Inc/stm32n6xx_ll_bus.h ****   * @param  Periphs This parameter can be a combination of the following values:
1627:STM32Cube_FW_N6/Drivers/STM32N6xx_HAL_Driver/Inc/stm32n6xx_ll_bus.h ****   *         @arg @ref LL_AHB4_GRP1_PERIPH_GPIOA
1628:STM32Cube_FW_N6/Drivers/STM32N6xx_HAL_Driver/Inc/stm32n6xx_ll_bus.h ****   *         @arg @ref LL_AHB4_GRP1_PERIPH_GPIOB
1629:STM32Cube_FW_N6/Drivers/STM32N6xx_HAL_Driver/Inc/stm32n6xx_ll_bus.h ****   *         @arg @ref LL_AHB4_GRP1_PERIPH_GPIOC
1630:STM32Cube_FW_N6/Drivers/STM32N6xx_HAL_Driver/Inc/stm32n6xx_ll_bus.h ****   *         @arg @ref LL_AHB4_GRP1_PERIPH_GPIOD
1631:STM32Cube_FW_N6/Drivers/STM32N6xx_HAL_Driver/Inc/stm32n6xx_ll_bus.h ****   *         @arg @ref LL_AHB4_GRP1_PERIPH_GPIOE
1632:STM32Cube_FW_N6/Drivers/STM32N6xx_HAL_Driver/Inc/stm32n6xx_ll_bus.h ****   *         @arg @ref LL_AHB4_GRP1_PERIPH_GPIOF
1633:STM32Cube_FW_N6/Drivers/STM32N6xx_HAL_Driver/Inc/stm32n6xx_ll_bus.h ****   *         @arg @ref LL_AHB4_GRP1_PERIPH_GPIOG
1634:STM32Cube_FW_N6/Drivers/STM32N6xx_HAL_Driver/Inc/stm32n6xx_ll_bus.h ****   *         @arg @ref LL_AHB4_GRP1_PERIPH_GPIOH
1635:STM32Cube_FW_N6/Drivers/STM32N6xx_HAL_Driver/Inc/stm32n6xx_ll_bus.h ****   *         @arg @ref LL_AHB4_GRP1_PERIPH_GPION
1636:STM32Cube_FW_N6/Drivers/STM32N6xx_HAL_Driver/Inc/stm32n6xx_ll_bus.h ****   *         @arg @ref LL_AHB4_GRP1_PERIPH_GPIOO
1637:STM32Cube_FW_N6/Drivers/STM32N6xx_HAL_Driver/Inc/stm32n6xx_ll_bus.h ****   *         @arg @ref LL_AHB4_GRP1_PERIPH_GPIOP
1638:STM32Cube_FW_N6/Drivers/STM32N6xx_HAL_Driver/Inc/stm32n6xx_ll_bus.h ****   *         @arg @ref LL_AHB4_GRP1_PERIPH_GPIOQ
1639:STM32Cube_FW_N6/Drivers/STM32N6xx_HAL_Driver/Inc/stm32n6xx_ll_bus.h ****   *         @arg @ref LL_AHB4_GRP1_PERIPH_PWR
1640:STM32Cube_FW_N6/Drivers/STM32N6xx_HAL_Driver/Inc/stm32n6xx_ll_bus.h ****   *         @arg @ref LL_AHB4_GRP1_PERIPH_CRC
1641:STM32Cube_FW_N6/Drivers/STM32N6xx_HAL_Driver/Inc/stm32n6xx_ll_bus.h ****   * @retval uint32_t
1642:STM32Cube_FW_N6/Drivers/STM32N6xx_HAL_Driver/Inc/stm32n6xx_ll_bus.h ****   */
1643:STM32Cube_FW_N6/Drivers/STM32N6xx_HAL_Driver/Inc/stm32n6xx_ll_bus.h **** __STATIC_INLINE uint32_t LL_AHB4_GRP1_IsEnabledClockLowPower(uint32_t Periphs)
1644:STM32Cube_FW_N6/Drivers/STM32N6xx_HAL_Driver/Inc/stm32n6xx_ll_bus.h **** {
1645:STM32Cube_FW_N6/Drivers/STM32N6xx_HAL_Driver/Inc/stm32n6xx_ll_bus.h ****   return ((READ_BIT(RCC->AHB4LPENR, Periphs) == Periphs) ? 1UL : 0UL);
1646:STM32Cube_FW_N6/Drivers/STM32N6xx_HAL_Driver/Inc/stm32n6xx_ll_bus.h **** }
1647:STM32Cube_FW_N6/Drivers/STM32N6xx_HAL_Driver/Inc/stm32n6xx_ll_bus.h **** 
1648:STM32Cube_FW_N6/Drivers/STM32N6xx_HAL_Driver/Inc/stm32n6xx_ll_bus.h **** /**
1649:STM32Cube_FW_N6/Drivers/STM32N6xx_HAL_Driver/Inc/stm32n6xx_ll_bus.h ****   * @brief  Disable AHB4 peripherals clock during Low Power mode.
1650:STM32Cube_FW_N6/Drivers/STM32N6xx_HAL_Driver/Inc/stm32n6xx_ll_bus.h ****   * @rmtoll AHB4LPENCR    GPIOALPENC     LL_AHB4_GRP1_DisableClockLowPower\n
1651:STM32Cube_FW_N6/Drivers/STM32N6xx_HAL_Driver/Inc/stm32n6xx_ll_bus.h ****   *         AHB4LPENCR    GPIOBLPENC     LL_AHB4_GRP1_DisableClockLowPower\n
1652:STM32Cube_FW_N6/Drivers/STM32N6xx_HAL_Driver/Inc/stm32n6xx_ll_bus.h ****   *         AHB4LPENCR    GPIOCLPENC     LL_AHB4_GRP1_DisableClockLowPower\n
1653:STM32Cube_FW_N6/Drivers/STM32N6xx_HAL_Driver/Inc/stm32n6xx_ll_bus.h ****   *         AHB4LPENCR    GPIODLPENC     LL_AHB4_GRP1_DisableClockLowPower\n
1654:STM32Cube_FW_N6/Drivers/STM32N6xx_HAL_Driver/Inc/stm32n6xx_ll_bus.h ****   *         AHB4LPENCR    GPIOELPENC     LL_AHB4_GRP1_DisableClockLowPower\n
1655:STM32Cube_FW_N6/Drivers/STM32N6xx_HAL_Driver/Inc/stm32n6xx_ll_bus.h ****   *         AHB4LPENCR    GPIOFLPENC     LL_AHB4_GRP1_DisableClockLowPower\n
1656:STM32Cube_FW_N6/Drivers/STM32N6xx_HAL_Driver/Inc/stm32n6xx_ll_bus.h ****   *         AHB4LPENCR    GPIOGLPENC     LL_AHB4_GRP1_DisableClockLowPower\n
1657:STM32Cube_FW_N6/Drivers/STM32N6xx_HAL_Driver/Inc/stm32n6xx_ll_bus.h ****   *         AHB4LPENCR    GPIOHLPENC     LL_AHB4_GRP1_DisableClockLowPower\n
1658:STM32Cube_FW_N6/Drivers/STM32N6xx_HAL_Driver/Inc/stm32n6xx_ll_bus.h ****   *         AHB4LPENCR    GPIONLPENC     LL_AHB4_GRP1_DisableClockLowPower\n
1659:STM32Cube_FW_N6/Drivers/STM32N6xx_HAL_Driver/Inc/stm32n6xx_ll_bus.h ****   *         AHB4LPENCR    GPIOOLPENC     LL_AHB4_GRP1_DisableClockLowPower\n
1660:STM32Cube_FW_N6/Drivers/STM32N6xx_HAL_Driver/Inc/stm32n6xx_ll_bus.h ****   *         AHB4LPENCR    GPIOPLPENC     LL_AHB4_GRP1_DisableClockLowPower\n
1661:STM32Cube_FW_N6/Drivers/STM32N6xx_HAL_Driver/Inc/stm32n6xx_ll_bus.h ****   *         AHB4LPENCR    GPIOQLPENC     LL_AHB4_GRP1_DisableClockLowPower\n
1662:STM32Cube_FW_N6/Drivers/STM32N6xx_HAL_Driver/Inc/stm32n6xx_ll_bus.h ****   *         AHB4LPENCR    PWRLPENC       LL_AHB4_GRP1_DisableClockLowPower\n
1663:STM32Cube_FW_N6/Drivers/STM32N6xx_HAL_Driver/Inc/stm32n6xx_ll_bus.h ****   *         AHB4LPENCR    CRCLPENC       LL_AHB4_GRP1_DisableClockLowPower
1664:STM32Cube_FW_N6/Drivers/STM32N6xx_HAL_Driver/Inc/stm32n6xx_ll_bus.h ****   * @param  Periphs This parameter can be a combination of the following values:
1665:STM32Cube_FW_N6/Drivers/STM32N6xx_HAL_Driver/Inc/stm32n6xx_ll_bus.h ****   *         @arg @ref LL_AHB4_GRP1_PERIPH_GPIOA
1666:STM32Cube_FW_N6/Drivers/STM32N6xx_HAL_Driver/Inc/stm32n6xx_ll_bus.h ****   *         @arg @ref LL_AHB4_GRP1_PERIPH_GPIOB
1667:STM32Cube_FW_N6/Drivers/STM32N6xx_HAL_Driver/Inc/stm32n6xx_ll_bus.h ****   *         @arg @ref LL_AHB4_GRP1_PERIPH_GPIOC
1668:STM32Cube_FW_N6/Drivers/STM32N6xx_HAL_Driver/Inc/stm32n6xx_ll_bus.h ****   *         @arg @ref LL_AHB4_GRP1_PERIPH_GPIOD
1669:STM32Cube_FW_N6/Drivers/STM32N6xx_HAL_Driver/Inc/stm32n6xx_ll_bus.h ****   *         @arg @ref LL_AHB4_GRP1_PERIPH_GPIOE
1670:STM32Cube_FW_N6/Drivers/STM32N6xx_HAL_Driver/Inc/stm32n6xx_ll_bus.h ****   *         @arg @ref LL_AHB4_GRP1_PERIPH_GPIOF
1671:STM32Cube_FW_N6/Drivers/STM32N6xx_HAL_Driver/Inc/stm32n6xx_ll_bus.h ****   *         @arg @ref LL_AHB4_GRP1_PERIPH_GPIOG
1672:STM32Cube_FW_N6/Drivers/STM32N6xx_HAL_Driver/Inc/stm32n6xx_ll_bus.h ****   *         @arg @ref LL_AHB4_GRP1_PERIPH_GPIOH
1673:STM32Cube_FW_N6/Drivers/STM32N6xx_HAL_Driver/Inc/stm32n6xx_ll_bus.h ****   *         @arg @ref LL_AHB4_GRP1_PERIPH_GPION
1674:STM32Cube_FW_N6/Drivers/STM32N6xx_HAL_Driver/Inc/stm32n6xx_ll_bus.h ****   *         @arg @ref LL_AHB4_GRP1_PERIPH_GPIOO
1675:STM32Cube_FW_N6/Drivers/STM32N6xx_HAL_Driver/Inc/stm32n6xx_ll_bus.h ****   *         @arg @ref LL_AHB4_GRP1_PERIPH_GPIOP
1676:STM32Cube_FW_N6/Drivers/STM32N6xx_HAL_Driver/Inc/stm32n6xx_ll_bus.h ****   *         @arg @ref LL_AHB4_GRP1_PERIPH_GPIOQ
1677:STM32Cube_FW_N6/Drivers/STM32N6xx_HAL_Driver/Inc/stm32n6xx_ll_bus.h ****   *         @arg @ref LL_AHB4_GRP1_PERIPH_PWR
ARM GAS  C:\Users\DJESSOU\AppData\Local\Temp\cc3dm0Vf.s 			page 162


1678:STM32Cube_FW_N6/Drivers/STM32N6xx_HAL_Driver/Inc/stm32n6xx_ll_bus.h ****   *         @arg @ref LL_AHB4_GRP1_PERIPH_CRC
1679:STM32Cube_FW_N6/Drivers/STM32N6xx_HAL_Driver/Inc/stm32n6xx_ll_bus.h ****   * @retval None
1680:STM32Cube_FW_N6/Drivers/STM32N6xx_HAL_Driver/Inc/stm32n6xx_ll_bus.h ****   */
1681:STM32Cube_FW_N6/Drivers/STM32N6xx_HAL_Driver/Inc/stm32n6xx_ll_bus.h **** __STATIC_INLINE void LL_AHB4_GRP1_DisableClockLowPower(uint32_t Periphs)
1682:STM32Cube_FW_N6/Drivers/STM32N6xx_HAL_Driver/Inc/stm32n6xx_ll_bus.h **** {
1683:STM32Cube_FW_N6/Drivers/STM32N6xx_HAL_Driver/Inc/stm32n6xx_ll_bus.h ****   WRITE_REG(RCC->AHB4LPENCR, Periphs);
1684:STM32Cube_FW_N6/Drivers/STM32N6xx_HAL_Driver/Inc/stm32n6xx_ll_bus.h **** }
1685:STM32Cube_FW_N6/Drivers/STM32N6xx_HAL_Driver/Inc/stm32n6xx_ll_bus.h **** 
1686:STM32Cube_FW_N6/Drivers/STM32N6xx_HAL_Driver/Inc/stm32n6xx_ll_bus.h **** /**
1687:STM32Cube_FW_N6/Drivers/STM32N6xx_HAL_Driver/Inc/stm32n6xx_ll_bus.h ****   * @}
1688:STM32Cube_FW_N6/Drivers/STM32N6xx_HAL_Driver/Inc/stm32n6xx_ll_bus.h ****   */
1689:STM32Cube_FW_N6/Drivers/STM32N6xx_HAL_Driver/Inc/stm32n6xx_ll_bus.h **** 
1690:STM32Cube_FW_N6/Drivers/STM32N6xx_HAL_Driver/Inc/stm32n6xx_ll_bus.h **** /** @defgroup BUS_LL_EF_AHB5 AHB5
1691:STM32Cube_FW_N6/Drivers/STM32N6xx_HAL_Driver/Inc/stm32n6xx_ll_bus.h ****   * @{
1692:STM32Cube_FW_N6/Drivers/STM32N6xx_HAL_Driver/Inc/stm32n6xx_ll_bus.h ****   */
1693:STM32Cube_FW_N6/Drivers/STM32N6xx_HAL_Driver/Inc/stm32n6xx_ll_bus.h **** 
1694:STM32Cube_FW_N6/Drivers/STM32N6xx_HAL_Driver/Inc/stm32n6xx_ll_bus.h **** /**
1695:STM32Cube_FW_N6/Drivers/STM32N6xx_HAL_Driver/Inc/stm32n6xx_ll_bus.h ****   * @brief  Enable AHB5 peripherals clock.
1696:STM32Cube_FW_N6/Drivers/STM32N6xx_HAL_Driver/Inc/stm32n6xx_ll_bus.h ****   * @rmtoll AHB5ENSR     HPDMA1ENS     LL_AHB5_GRP1_EnableClock\n
1697:STM32Cube_FW_N6/Drivers/STM32N6xx_HAL_Driver/Inc/stm32n6xx_ll_bus.h ****   *         AHB5ENSR     DMA2DENS      LL_AHB5_GRP1_EnableClock\n
1698:STM32Cube_FW_N6/Drivers/STM32N6xx_HAL_Driver/Inc/stm32n6xx_ll_bus.h ****   *         AHB5ENSR     JPEGENS       LL_AHB5_GRP1_EnableClock\n
1699:STM32Cube_FW_N6/Drivers/STM32N6xx_HAL_Driver/Inc/stm32n6xx_ll_bus.h ****   *         AHB5ENSR     FMCENS        LL_AHB5_GRP1_EnableClock\n
1700:STM32Cube_FW_N6/Drivers/STM32N6xx_HAL_Driver/Inc/stm32n6xx_ll_bus.h ****   *         AHB5ENSR     XSPI1ENS      LL_AHB5_GRP1_EnableClock\n
1701:STM32Cube_FW_N6/Drivers/STM32N6xx_HAL_Driver/Inc/stm32n6xx_ll_bus.h ****   *         AHB5ENSR     PSSIENS       LL_AHB5_GRP1_EnableClock\n
1702:STM32Cube_FW_N6/Drivers/STM32N6xx_HAL_Driver/Inc/stm32n6xx_ll_bus.h ****   *         AHB5ENSR     SDMMC2ENS     LL_AHB5_GRP1_EnableClock\n
1703:STM32Cube_FW_N6/Drivers/STM32N6xx_HAL_Driver/Inc/stm32n6xx_ll_bus.h ****   *         AHB5ENSR     SDMMC1ENS     LL_AHB5_GRP1_EnableClock\n
1704:STM32Cube_FW_N6/Drivers/STM32N6xx_HAL_Driver/Inc/stm32n6xx_ll_bus.h ****   *         AHB5ENSR     XSPI2ENS      LL_AHB5_GRP1_EnableClock\n
1705:STM32Cube_FW_N6/Drivers/STM32N6xx_HAL_Driver/Inc/stm32n6xx_ll_bus.h ****   *         AHB5ENSR     XSPIMENS      LL_AHB5_GRP1_EnableClock\n
1706:STM32Cube_FW_N6/Drivers/STM32N6xx_HAL_Driver/Inc/stm32n6xx_ll_bus.h ****   *         AHB5ENSR     MCE1ENS       LL_AHB5_GRP1_EnableClock\n (*)
1707:STM32Cube_FW_N6/Drivers/STM32N6xx_HAL_Driver/Inc/stm32n6xx_ll_bus.h ****   *         AHB5ENSR     MCE2ENS       LL_AHB5_GRP1_EnableClock\n (*)
1708:STM32Cube_FW_N6/Drivers/STM32N6xx_HAL_Driver/Inc/stm32n6xx_ll_bus.h ****   *         AHB5ENSR     MCE3ENS       LL_AHB5_GRP1_EnableClock\n (*)
1709:STM32Cube_FW_N6/Drivers/STM32N6xx_HAL_Driver/Inc/stm32n6xx_ll_bus.h ****   *         AHB5ENSR     XSPI3ENS      LL_AHB5_GRP1_EnableClock\n
1710:STM32Cube_FW_N6/Drivers/STM32N6xx_HAL_Driver/Inc/stm32n6xx_ll_bus.h ****   *         AHB5ENSR     MCE4ENS       LL_AHB5_GRP1_EnableClock\n (*)
1711:STM32Cube_FW_N6/Drivers/STM32N6xx_HAL_Driver/Inc/stm32n6xx_ll_bus.h ****   *         AHB5ENSR     GFXMMUENS     LL_AHB5_GRP1_EnableClock\n
1712:STM32Cube_FW_N6/Drivers/STM32N6xx_HAL_Driver/Inc/stm32n6xx_ll_bus.h ****   *         AHB5ENSR     GPU2DENS      LL_AHB5_GRP1_EnableClock\n
1713:STM32Cube_FW_N6/Drivers/STM32N6xx_HAL_Driver/Inc/stm32n6xx_ll_bus.h ****   *         AHB5ENSR     ETH1MACENS    LL_AHB5_GRP1_EnableClock\n
1714:STM32Cube_FW_N6/Drivers/STM32N6xx_HAL_Driver/Inc/stm32n6xx_ll_bus.h ****   *         AHB5ENSR     ETH1TXENS     LL_AHB5_GRP1_EnableClock\n
1715:STM32Cube_FW_N6/Drivers/STM32N6xx_HAL_Driver/Inc/stm32n6xx_ll_bus.h ****   *         AHB5ENSR     ETH1RXENS     LL_AHB5_GRP1_EnableClock\n
1716:STM32Cube_FW_N6/Drivers/STM32N6xx_HAL_Driver/Inc/stm32n6xx_ll_bus.h ****   *         AHB5ENSR     ETH1ENS       LL_AHB5_GRP1_EnableClock\n
1717:STM32Cube_FW_N6/Drivers/STM32N6xx_HAL_Driver/Inc/stm32n6xx_ll_bus.h ****   *         AHB5ENSR     OTG1ENS       LL_AHB5_GRP1_EnableClock\n
1718:STM32Cube_FW_N6/Drivers/STM32N6xx_HAL_Driver/Inc/stm32n6xx_ll_bus.h ****   *         AHB5ENSR     OTGPHY1ENS    LL_AHB5_GRP1_EnableClock\n
1719:STM32Cube_FW_N6/Drivers/STM32N6xx_HAL_Driver/Inc/stm32n6xx_ll_bus.h ****   *         AHB5ENSR     OTGPHY2ENS    LL_AHB5_GRP1_EnableClock\n
1720:STM32Cube_FW_N6/Drivers/STM32N6xx_HAL_Driver/Inc/stm32n6xx_ll_bus.h ****   *         AHB5ENSR     OTG2ENS       LL_AHB5_GRP1_EnableClock\n
1721:STM32Cube_FW_N6/Drivers/STM32N6xx_HAL_Driver/Inc/stm32n6xx_ll_bus.h ****   *         AHB5ENSR     CACHEAXIENS   LL_AHB5_GRP1_EnableClock\n
1722:STM32Cube_FW_N6/Drivers/STM32N6xx_HAL_Driver/Inc/stm32n6xx_ll_bus.h ****   *         AHB5ENSR     NPUENS        LL_AHB5_GRP1_EnableClock
1723:STM32Cube_FW_N6/Drivers/STM32N6xx_HAL_Driver/Inc/stm32n6xx_ll_bus.h ****   * @param  Periphs This parameter can be a combination of the following values:
1724:STM32Cube_FW_N6/Drivers/STM32N6xx_HAL_Driver/Inc/stm32n6xx_ll_bus.h ****   *         @arg @ref LL_AHB5_GRP1_PERIPH_HPDMA1
1725:STM32Cube_FW_N6/Drivers/STM32N6xx_HAL_Driver/Inc/stm32n6xx_ll_bus.h ****   *         @arg @ref LL_AHB5_GRP1_PERIPH_DMA2D
1726:STM32Cube_FW_N6/Drivers/STM32N6xx_HAL_Driver/Inc/stm32n6xx_ll_bus.h ****   *         @arg @ref LL_AHB5_GRP1_PERIPH_JPEG
1727:STM32Cube_FW_N6/Drivers/STM32N6xx_HAL_Driver/Inc/stm32n6xx_ll_bus.h ****   *         @arg @ref LL_AHB5_GRP1_PERIPH_FMC
1728:STM32Cube_FW_N6/Drivers/STM32N6xx_HAL_Driver/Inc/stm32n6xx_ll_bus.h ****   *         @arg @ref LL_AHB5_GRP1_PERIPH_XSPI1
1729:STM32Cube_FW_N6/Drivers/STM32N6xx_HAL_Driver/Inc/stm32n6xx_ll_bus.h ****   *         @arg @ref LL_AHB5_GRP1_PERIPH_XSPI2
1730:STM32Cube_FW_N6/Drivers/STM32N6xx_HAL_Driver/Inc/stm32n6xx_ll_bus.h ****   *         @arg @ref LL_AHB5_GRP1_PERIPH_XSPI3
1731:STM32Cube_FW_N6/Drivers/STM32N6xx_HAL_Driver/Inc/stm32n6xx_ll_bus.h ****   *         @arg @ref LL_AHB5_GRP1_PERIPH_XSPIM
1732:STM32Cube_FW_N6/Drivers/STM32N6xx_HAL_Driver/Inc/stm32n6xx_ll_bus.h ****   *         @arg @ref LL_AHB5_GRP1_PERIPH_PSSI
1733:STM32Cube_FW_N6/Drivers/STM32N6xx_HAL_Driver/Inc/stm32n6xx_ll_bus.h ****   *         @arg @ref LL_AHB5_GRP1_PERIPH_SDMMC1
1734:STM32Cube_FW_N6/Drivers/STM32N6xx_HAL_Driver/Inc/stm32n6xx_ll_bus.h ****   *         @arg @ref LL_AHB5_GRP1_PERIPH_SDMMC2
ARM GAS  C:\Users\DJESSOU\AppData\Local\Temp\cc3dm0Vf.s 			page 163


1735:STM32Cube_FW_N6/Drivers/STM32N6xx_HAL_Driver/Inc/stm32n6xx_ll_bus.h ****   *         @arg @ref LL_AHB5_GRP1_PERIPH_MCE1 (*)
1736:STM32Cube_FW_N6/Drivers/STM32N6xx_HAL_Driver/Inc/stm32n6xx_ll_bus.h ****   *         @arg @ref LL_AHB5_GRP1_PERIPH_MCE2 (*)
1737:STM32Cube_FW_N6/Drivers/STM32N6xx_HAL_Driver/Inc/stm32n6xx_ll_bus.h ****   *         @arg @ref LL_AHB5_GRP1_PERIPH_MCE3 (*)
1738:STM32Cube_FW_N6/Drivers/STM32N6xx_HAL_Driver/Inc/stm32n6xx_ll_bus.h ****   *         @arg @ref LL_AHB5_GRP1_PERIPH_MCE4 (*)
1739:STM32Cube_FW_N6/Drivers/STM32N6xx_HAL_Driver/Inc/stm32n6xx_ll_bus.h ****   *         @arg @ref LL_AHB5_GRP1_PERIPH_GFXMMU
1740:STM32Cube_FW_N6/Drivers/STM32N6xx_HAL_Driver/Inc/stm32n6xx_ll_bus.h ****   *         @arg @ref LL_AHB5_GRP1_PERIPH_GPU2D
1741:STM32Cube_FW_N6/Drivers/STM32N6xx_HAL_Driver/Inc/stm32n6xx_ll_bus.h ****   *         @arg @ref LL_AHB5_GRP1_PERIPH_ETH1
1742:STM32Cube_FW_N6/Drivers/STM32N6xx_HAL_Driver/Inc/stm32n6xx_ll_bus.h ****   *         @arg @ref LL_AHB5_GRP1_PERIPH_ETH1MAC
1743:STM32Cube_FW_N6/Drivers/STM32N6xx_HAL_Driver/Inc/stm32n6xx_ll_bus.h ****   *         @arg @ref LL_AHB5_GRP1_PERIPH_ETH1TX
1744:STM32Cube_FW_N6/Drivers/STM32N6xx_HAL_Driver/Inc/stm32n6xx_ll_bus.h ****   *         @arg @ref LL_AHB5_GRP1_PERIPH_ETH1RX
1745:STM32Cube_FW_N6/Drivers/STM32N6xx_HAL_Driver/Inc/stm32n6xx_ll_bus.h ****   *         @arg @ref LL_AHB5_GRP1_PERIPH_OTG1
1746:STM32Cube_FW_N6/Drivers/STM32N6xx_HAL_Driver/Inc/stm32n6xx_ll_bus.h ****   *         @arg @ref LL_AHB5_GRP1_PERIPH_OTG2
1747:STM32Cube_FW_N6/Drivers/STM32N6xx_HAL_Driver/Inc/stm32n6xx_ll_bus.h ****   *         @arg @ref LL_AHB5_GRP1_PERIPH_OTGPHY1
1748:STM32Cube_FW_N6/Drivers/STM32N6xx_HAL_Driver/Inc/stm32n6xx_ll_bus.h ****   *         @arg @ref LL_AHB5_GRP1_PERIPH_OTGPHY2
1749:STM32Cube_FW_N6/Drivers/STM32N6xx_HAL_Driver/Inc/stm32n6xx_ll_bus.h ****   *         @arg @ref LL_AHB5_GRP1_PERIPH_CACHEAXI
1750:STM32Cube_FW_N6/Drivers/STM32N6xx_HAL_Driver/Inc/stm32n6xx_ll_bus.h ****   *         @arg @ref LL_AHB5_GRP1_PERIPH_NPU
1751:STM32Cube_FW_N6/Drivers/STM32N6xx_HAL_Driver/Inc/stm32n6xx_ll_bus.h ****   *
1752:STM32Cube_FW_N6/Drivers/STM32N6xx_HAL_Driver/Inc/stm32n6xx_ll_bus.h ****   *         (*) value not defined in all devices.
1753:STM32Cube_FW_N6/Drivers/STM32N6xx_HAL_Driver/Inc/stm32n6xx_ll_bus.h ****   * @retval None
1754:STM32Cube_FW_N6/Drivers/STM32N6xx_HAL_Driver/Inc/stm32n6xx_ll_bus.h ****   */
1755:STM32Cube_FW_N6/Drivers/STM32N6xx_HAL_Driver/Inc/stm32n6xx_ll_bus.h **** __STATIC_INLINE void LL_AHB5_GRP1_EnableClock(uint32_t Periphs)
1756:STM32Cube_FW_N6/Drivers/STM32N6xx_HAL_Driver/Inc/stm32n6xx_ll_bus.h **** {
1757:STM32Cube_FW_N6/Drivers/STM32N6xx_HAL_Driver/Inc/stm32n6xx_ll_bus.h ****   __IO uint32_t tmpreg;
1758:STM32Cube_FW_N6/Drivers/STM32N6xx_HAL_Driver/Inc/stm32n6xx_ll_bus.h ****   WRITE_REG(RCC->AHB5ENSR, Periphs);
1759:STM32Cube_FW_N6/Drivers/STM32N6xx_HAL_Driver/Inc/stm32n6xx_ll_bus.h ****   /* Delay after an RCC peripheral clock enabling */
1760:STM32Cube_FW_N6/Drivers/STM32N6xx_HAL_Driver/Inc/stm32n6xx_ll_bus.h ****   tmpreg = READ_REG(RCC->AHB5ENR);
1761:STM32Cube_FW_N6/Drivers/STM32N6xx_HAL_Driver/Inc/stm32n6xx_ll_bus.h ****   (void)tmpreg;
1762:STM32Cube_FW_N6/Drivers/STM32N6xx_HAL_Driver/Inc/stm32n6xx_ll_bus.h **** }
1763:STM32Cube_FW_N6/Drivers/STM32N6xx_HAL_Driver/Inc/stm32n6xx_ll_bus.h **** 
1764:STM32Cube_FW_N6/Drivers/STM32N6xx_HAL_Driver/Inc/stm32n6xx_ll_bus.h **** /**
1765:STM32Cube_FW_N6/Drivers/STM32N6xx_HAL_Driver/Inc/stm32n6xx_ll_bus.h ****   * @brief  Check if AHB5 peripheral clock is enabled or not
1766:STM32Cube_FW_N6/Drivers/STM32N6xx_HAL_Driver/Inc/stm32n6xx_ll_bus.h ****   * @rmtoll AHB5ENR      HPDMA1EN      LL_AHB5_GRP1_IsEnabledClock\n
1767:STM32Cube_FW_N6/Drivers/STM32N6xx_HAL_Driver/Inc/stm32n6xx_ll_bus.h ****   *         AHB5ENR      DMA2DEN       LL_AHB5_GRP1_IsEnabledClock\n
1768:STM32Cube_FW_N6/Drivers/STM32N6xx_HAL_Driver/Inc/stm32n6xx_ll_bus.h ****   *         AHB5ENR      JPEGEN        LL_AHB5_GRP1_IsEnabledClock\n
1769:STM32Cube_FW_N6/Drivers/STM32N6xx_HAL_Driver/Inc/stm32n6xx_ll_bus.h ****   *         AHB5ENR      FMCEN         LL_AHB5_GRP1_IsEnabledClock\n
1770:STM32Cube_FW_N6/Drivers/STM32N6xx_HAL_Driver/Inc/stm32n6xx_ll_bus.h ****   *         AHB5ENR      XSPI1EN       LL_AHB5_GRP1_IsEnabledClock\n
1771:STM32Cube_FW_N6/Drivers/STM32N6xx_HAL_Driver/Inc/stm32n6xx_ll_bus.h ****   *         AHB5ENR      PSSIEN        LL_AHB5_GRP1_IsEnabledClock\n
1772:STM32Cube_FW_N6/Drivers/STM32N6xx_HAL_Driver/Inc/stm32n6xx_ll_bus.h ****   *         AHB5ENR      SDMMC2EN      LL_AHB5_GRP1_IsEnabledClock\n
1773:STM32Cube_FW_N6/Drivers/STM32N6xx_HAL_Driver/Inc/stm32n6xx_ll_bus.h ****   *         AHB5ENR      SDMMC1EN      LL_AHB5_GRP1_IsEnabledClock\n
1774:STM32Cube_FW_N6/Drivers/STM32N6xx_HAL_Driver/Inc/stm32n6xx_ll_bus.h ****   *         AHB5ENR      XSPI2EN       LL_AHB5_GRP1_IsEnabledClock\n
1775:STM32Cube_FW_N6/Drivers/STM32N6xx_HAL_Driver/Inc/stm32n6xx_ll_bus.h ****   *         AHB5ENR      XSPIMEN       LL_AHB5_GRP1_IsEnabledClock\n
1776:STM32Cube_FW_N6/Drivers/STM32N6xx_HAL_Driver/Inc/stm32n6xx_ll_bus.h ****   *         AHB5ENR      MCE1EN        LL_AHB5_GRP1_IsEnabledClock\n (*)
1777:STM32Cube_FW_N6/Drivers/STM32N6xx_HAL_Driver/Inc/stm32n6xx_ll_bus.h ****   *         AHB5ENR      MCE2EN        LL_AHB5_GRP1_IsEnabledClock\n (*)
1778:STM32Cube_FW_N6/Drivers/STM32N6xx_HAL_Driver/Inc/stm32n6xx_ll_bus.h ****   *         AHB5ENR      MCE3EN        LL_AHB5_GRP1_IsEnabledClock\n (*)
1779:STM32Cube_FW_N6/Drivers/STM32N6xx_HAL_Driver/Inc/stm32n6xx_ll_bus.h ****   *         AHB5ENR      XSPI3EN       LL_AHB5_GRP1_IsEnabledClock\n
1780:STM32Cube_FW_N6/Drivers/STM32N6xx_HAL_Driver/Inc/stm32n6xx_ll_bus.h ****   *         AHB5ENR      MCE4EN        LL_AHB5_GRP1_IsEnabledClock\n (*)
1781:STM32Cube_FW_N6/Drivers/STM32N6xx_HAL_Driver/Inc/stm32n6xx_ll_bus.h ****   *         AHB5ENR      GFXMMUEN      LL_AHB5_GRP1_IsEnabledClock\n
1782:STM32Cube_FW_N6/Drivers/STM32N6xx_HAL_Driver/Inc/stm32n6xx_ll_bus.h ****   *         AHB5ENR      GPU2DEN       LL_AHB5_GRP1_IsEnabledClock\n
1783:STM32Cube_FW_N6/Drivers/STM32N6xx_HAL_Driver/Inc/stm32n6xx_ll_bus.h ****   *         AHB5ENR      ETH1MACEN     LL_AHB5_GRP1_IsEnabledClock\n
1784:STM32Cube_FW_N6/Drivers/STM32N6xx_HAL_Driver/Inc/stm32n6xx_ll_bus.h ****   *         AHB5ENR      ETH1TXEN      LL_AHB5_GRP1_IsEnabledClock\n
1785:STM32Cube_FW_N6/Drivers/STM32N6xx_HAL_Driver/Inc/stm32n6xx_ll_bus.h ****   *         AHB5ENR      ETH1RXEN      LL_AHB5_GRP1_IsEnabledClock\n
1786:STM32Cube_FW_N6/Drivers/STM32N6xx_HAL_Driver/Inc/stm32n6xx_ll_bus.h ****   *         AHB5ENR      ETH1EN        LL_AHB5_GRP1_IsEnabledClock\n
1787:STM32Cube_FW_N6/Drivers/STM32N6xx_HAL_Driver/Inc/stm32n6xx_ll_bus.h ****   *         AHB5ENR      OTG1EN        LL_AHB5_GRP1_IsEnabledClock\n
1788:STM32Cube_FW_N6/Drivers/STM32N6xx_HAL_Driver/Inc/stm32n6xx_ll_bus.h ****   *         AHB5ENR      OTGPHY1EN     LL_AHB5_GRP1_IsEnabledClock\n
1789:STM32Cube_FW_N6/Drivers/STM32N6xx_HAL_Driver/Inc/stm32n6xx_ll_bus.h ****   *         AHB5ENR      OTGPHY2EN     LL_AHB5_GRP1_IsEnabledClock\n
1790:STM32Cube_FW_N6/Drivers/STM32N6xx_HAL_Driver/Inc/stm32n6xx_ll_bus.h ****   *         AHB5ENR      OTG2EN        LL_AHB5_GRP1_IsEnabledClock\n
1791:STM32Cube_FW_N6/Drivers/STM32N6xx_HAL_Driver/Inc/stm32n6xx_ll_bus.h ****   *         AHB5ENR      CACHEAXIEN    LL_AHB5_GRP1_IsEnabledClock\n
ARM GAS  C:\Users\DJESSOU\AppData\Local\Temp\cc3dm0Vf.s 			page 164


1792:STM32Cube_FW_N6/Drivers/STM32N6xx_HAL_Driver/Inc/stm32n6xx_ll_bus.h ****   *         AHB5ENR      NPUEN         LL_AHB5_GRP1_IsEnabledClock
1793:STM32Cube_FW_N6/Drivers/STM32N6xx_HAL_Driver/Inc/stm32n6xx_ll_bus.h ****   * @param  Periphs This parameter can be a combination of the following values:
1794:STM32Cube_FW_N6/Drivers/STM32N6xx_HAL_Driver/Inc/stm32n6xx_ll_bus.h ****   *         @arg @ref LL_AHB5_GRP1_PERIPH_HPDMA1
1795:STM32Cube_FW_N6/Drivers/STM32N6xx_HAL_Driver/Inc/stm32n6xx_ll_bus.h ****   *         @arg @ref LL_AHB5_GRP1_PERIPH_DMA2D
1796:STM32Cube_FW_N6/Drivers/STM32N6xx_HAL_Driver/Inc/stm32n6xx_ll_bus.h ****   *         @arg @ref LL_AHB5_GRP1_PERIPH_JPEG
1797:STM32Cube_FW_N6/Drivers/STM32N6xx_HAL_Driver/Inc/stm32n6xx_ll_bus.h ****   *         @arg @ref LL_AHB5_GRP1_PERIPH_FMC
1798:STM32Cube_FW_N6/Drivers/STM32N6xx_HAL_Driver/Inc/stm32n6xx_ll_bus.h ****   *         @arg @ref LL_AHB5_GRP1_PERIPH_XSPI1
1799:STM32Cube_FW_N6/Drivers/STM32N6xx_HAL_Driver/Inc/stm32n6xx_ll_bus.h ****   *         @arg @ref LL_AHB5_GRP1_PERIPH_XSPI2
1800:STM32Cube_FW_N6/Drivers/STM32N6xx_HAL_Driver/Inc/stm32n6xx_ll_bus.h ****   *         @arg @ref LL_AHB5_GRP1_PERIPH_XSPI3
1801:STM32Cube_FW_N6/Drivers/STM32N6xx_HAL_Driver/Inc/stm32n6xx_ll_bus.h ****   *         @arg @ref LL_AHB5_GRP1_PERIPH_XSPIM
1802:STM32Cube_FW_N6/Drivers/STM32N6xx_HAL_Driver/Inc/stm32n6xx_ll_bus.h ****   *         @arg @ref LL_AHB5_GRP1_PERIPH_PSSI
1803:STM32Cube_FW_N6/Drivers/STM32N6xx_HAL_Driver/Inc/stm32n6xx_ll_bus.h ****   *         @arg @ref LL_AHB5_GRP1_PERIPH_SDMMC1
1804:STM32Cube_FW_N6/Drivers/STM32N6xx_HAL_Driver/Inc/stm32n6xx_ll_bus.h ****   *         @arg @ref LL_AHB5_GRP1_PERIPH_SDMMC2
1805:STM32Cube_FW_N6/Drivers/STM32N6xx_HAL_Driver/Inc/stm32n6xx_ll_bus.h ****   *         @arg @ref LL_AHB5_GRP1_PERIPH_MCE1 (*)
1806:STM32Cube_FW_N6/Drivers/STM32N6xx_HAL_Driver/Inc/stm32n6xx_ll_bus.h ****   *         @arg @ref LL_AHB5_GRP1_PERIPH_MCE2 (*)
1807:STM32Cube_FW_N6/Drivers/STM32N6xx_HAL_Driver/Inc/stm32n6xx_ll_bus.h ****   *         @arg @ref LL_AHB5_GRP1_PERIPH_MCE3 (*)
1808:STM32Cube_FW_N6/Drivers/STM32N6xx_HAL_Driver/Inc/stm32n6xx_ll_bus.h ****   *         @arg @ref LL_AHB5_GRP1_PERIPH_MCE4 (*)
1809:STM32Cube_FW_N6/Drivers/STM32N6xx_HAL_Driver/Inc/stm32n6xx_ll_bus.h ****   *         @arg @ref LL_AHB5_GRP1_PERIPH_GFXMMU
1810:STM32Cube_FW_N6/Drivers/STM32N6xx_HAL_Driver/Inc/stm32n6xx_ll_bus.h ****   *         @arg @ref LL_AHB5_GRP1_PERIPH_GPU2D
1811:STM32Cube_FW_N6/Drivers/STM32N6xx_HAL_Driver/Inc/stm32n6xx_ll_bus.h ****   *         @arg @ref LL_AHB5_GRP1_PERIPH_ETH1
1812:STM32Cube_FW_N6/Drivers/STM32N6xx_HAL_Driver/Inc/stm32n6xx_ll_bus.h ****   *         @arg @ref LL_AHB5_GRP1_PERIPH_ETH1MAC
1813:STM32Cube_FW_N6/Drivers/STM32N6xx_HAL_Driver/Inc/stm32n6xx_ll_bus.h ****   *         @arg @ref LL_AHB5_GRP1_PERIPH_ETH1TX
1814:STM32Cube_FW_N6/Drivers/STM32N6xx_HAL_Driver/Inc/stm32n6xx_ll_bus.h ****   *         @arg @ref LL_AHB5_GRP1_PERIPH_ETH1RX
1815:STM32Cube_FW_N6/Drivers/STM32N6xx_HAL_Driver/Inc/stm32n6xx_ll_bus.h ****   *         @arg @ref LL_AHB5_GRP1_PERIPH_OTG1
1816:STM32Cube_FW_N6/Drivers/STM32N6xx_HAL_Driver/Inc/stm32n6xx_ll_bus.h ****   *         @arg @ref LL_AHB5_GRP1_PERIPH_OTG2
1817:STM32Cube_FW_N6/Drivers/STM32N6xx_HAL_Driver/Inc/stm32n6xx_ll_bus.h ****   *         @arg @ref LL_AHB5_GRP1_PERIPH_OTGPHY1
1818:STM32Cube_FW_N6/Drivers/STM32N6xx_HAL_Driver/Inc/stm32n6xx_ll_bus.h ****   *         @arg @ref LL_AHB5_GRP1_PERIPH_OTGPHY2
1819:STM32Cube_FW_N6/Drivers/STM32N6xx_HAL_Driver/Inc/stm32n6xx_ll_bus.h ****   *         @arg @ref LL_AHB5_GRP1_PERIPH_CACHEAXI
1820:STM32Cube_FW_N6/Drivers/STM32N6xx_HAL_Driver/Inc/stm32n6xx_ll_bus.h ****   *         @arg @ref LL_AHB5_GRP1_PERIPH_NPU
1821:STM32Cube_FW_N6/Drivers/STM32N6xx_HAL_Driver/Inc/stm32n6xx_ll_bus.h ****   *
1822:STM32Cube_FW_N6/Drivers/STM32N6xx_HAL_Driver/Inc/stm32n6xx_ll_bus.h ****   *         (*) value not defined in all devices.
1823:STM32Cube_FW_N6/Drivers/STM32N6xx_HAL_Driver/Inc/stm32n6xx_ll_bus.h ****   * @retval uint32_t
1824:STM32Cube_FW_N6/Drivers/STM32N6xx_HAL_Driver/Inc/stm32n6xx_ll_bus.h ****   */
1825:STM32Cube_FW_N6/Drivers/STM32N6xx_HAL_Driver/Inc/stm32n6xx_ll_bus.h **** __STATIC_INLINE uint32_t LL_AHB5_GRP1_IsEnabledClock(uint32_t Periphs)
1826:STM32Cube_FW_N6/Drivers/STM32N6xx_HAL_Driver/Inc/stm32n6xx_ll_bus.h **** {
1827:STM32Cube_FW_N6/Drivers/STM32N6xx_HAL_Driver/Inc/stm32n6xx_ll_bus.h ****   return ((READ_BIT(RCC->AHB5ENR, Periphs) == Periphs) ? 1UL : 0UL);
1828:STM32Cube_FW_N6/Drivers/STM32N6xx_HAL_Driver/Inc/stm32n6xx_ll_bus.h **** }
1829:STM32Cube_FW_N6/Drivers/STM32N6xx_HAL_Driver/Inc/stm32n6xx_ll_bus.h **** 
1830:STM32Cube_FW_N6/Drivers/STM32N6xx_HAL_Driver/Inc/stm32n6xx_ll_bus.h **** /**
1831:STM32Cube_FW_N6/Drivers/STM32N6xx_HAL_Driver/Inc/stm32n6xx_ll_bus.h ****   * @brief  Disable AHB5 peripherals clock.
1832:STM32Cube_FW_N6/Drivers/STM32N6xx_HAL_Driver/Inc/stm32n6xx_ll_bus.h ****   * @rmtoll AHB5ENCR     HPDMA1ENC     LL_AHB5_GRP1_DisableClock\n
1833:STM32Cube_FW_N6/Drivers/STM32N6xx_HAL_Driver/Inc/stm32n6xx_ll_bus.h ****   *         AHB5ENCR     DMA2DENC      LL_AHB5_GRP1_DisableClock\n
1834:STM32Cube_FW_N6/Drivers/STM32N6xx_HAL_Driver/Inc/stm32n6xx_ll_bus.h ****   *         AHB5ENCR     JPEGENC       LL_AHB5_GRP1_DisableClock\n
1835:STM32Cube_FW_N6/Drivers/STM32N6xx_HAL_Driver/Inc/stm32n6xx_ll_bus.h ****   *         AHB5ENCR     FMCENC        LL_AHB5_GRP1_DisableClock\n
1836:STM32Cube_FW_N6/Drivers/STM32N6xx_HAL_Driver/Inc/stm32n6xx_ll_bus.h ****   *         AHB5ENCR     XSPI1ENC      LL_AHB5_GRP1_DisableClock\n
1837:STM32Cube_FW_N6/Drivers/STM32N6xx_HAL_Driver/Inc/stm32n6xx_ll_bus.h ****   *         AHB5ENCR     PSSIENC       LL_AHB5_GRP1_DisableClock\n
1838:STM32Cube_FW_N6/Drivers/STM32N6xx_HAL_Driver/Inc/stm32n6xx_ll_bus.h ****   *         AHB5ENCR     SDMMC2ENC     LL_AHB5_GRP1_DisableClock\n
1839:STM32Cube_FW_N6/Drivers/STM32N6xx_HAL_Driver/Inc/stm32n6xx_ll_bus.h ****   *         AHB5ENCR     SDMMC1ENC     LL_AHB5_GRP1_DisableClock\n
1840:STM32Cube_FW_N6/Drivers/STM32N6xx_HAL_Driver/Inc/stm32n6xx_ll_bus.h ****   *         AHB5ENCR     XSPI2ENC      LL_AHB5_GRP1_DisableClock\n
1841:STM32Cube_FW_N6/Drivers/STM32N6xx_HAL_Driver/Inc/stm32n6xx_ll_bus.h ****   *         AHB5ENCR     XSPIMENC      LL_AHB5_GRP1_DisableClock\n
1842:STM32Cube_FW_N6/Drivers/STM32N6xx_HAL_Driver/Inc/stm32n6xx_ll_bus.h ****   *         AHB5ENCR     MCE1ENC       LL_AHB5_GRP1_DisableClock\n (*)
1843:STM32Cube_FW_N6/Drivers/STM32N6xx_HAL_Driver/Inc/stm32n6xx_ll_bus.h ****   *         AHB5ENCR     MCE2ENC       LL_AHB5_GRP1_DisableClock\n (*)
1844:STM32Cube_FW_N6/Drivers/STM32N6xx_HAL_Driver/Inc/stm32n6xx_ll_bus.h ****   *         AHB5ENCR     MCE3ENC       LL_AHB5_GRP1_DisableClock\n (*)
1845:STM32Cube_FW_N6/Drivers/STM32N6xx_HAL_Driver/Inc/stm32n6xx_ll_bus.h ****   *         AHB5ENCR     XSPI3ENC      LL_AHB5_GRP1_DisableClock\n
1846:STM32Cube_FW_N6/Drivers/STM32N6xx_HAL_Driver/Inc/stm32n6xx_ll_bus.h ****   *         AHB5ENCR     MCE4ENC       LL_AHB5_GRP1_DisableClock\n (*)
1847:STM32Cube_FW_N6/Drivers/STM32N6xx_HAL_Driver/Inc/stm32n6xx_ll_bus.h ****   *         AHB5ENCR     GFXMMUENC     LL_AHB5_GRP1_DisableClock\n
1848:STM32Cube_FW_N6/Drivers/STM32N6xx_HAL_Driver/Inc/stm32n6xx_ll_bus.h ****   *         AHB5ENCR     GPU2DENC      LL_AHB5_GRP1_DisableClock\n
ARM GAS  C:\Users\DJESSOU\AppData\Local\Temp\cc3dm0Vf.s 			page 165


1849:STM32Cube_FW_N6/Drivers/STM32N6xx_HAL_Driver/Inc/stm32n6xx_ll_bus.h ****   *         AHB5ENCR     ETH1MACENC    LL_AHB5_GRP1_DisableClock\n
1850:STM32Cube_FW_N6/Drivers/STM32N6xx_HAL_Driver/Inc/stm32n6xx_ll_bus.h ****   *         AHB5ENCR     ETH1TXENC     LL_AHB5_GRP1_DisableClock\n
1851:STM32Cube_FW_N6/Drivers/STM32N6xx_HAL_Driver/Inc/stm32n6xx_ll_bus.h ****   *         AHB5ENCR     ETH1RXENC     LL_AHB5_GRP1_DisableClock\n
1852:STM32Cube_FW_N6/Drivers/STM32N6xx_HAL_Driver/Inc/stm32n6xx_ll_bus.h ****   *         AHB5ENCR     ETH1ENC       LL_AHB5_GRP1_DisableClock\n
1853:STM32Cube_FW_N6/Drivers/STM32N6xx_HAL_Driver/Inc/stm32n6xx_ll_bus.h ****   *         AHB5ENCR     OTG1ENC       LL_AHB5_GRP1_DisableClock\n
1854:STM32Cube_FW_N6/Drivers/STM32N6xx_HAL_Driver/Inc/stm32n6xx_ll_bus.h ****   *         AHB5ENCR     OTGPHY1ENC    LL_AHB5_GRP1_DisableClock\n
1855:STM32Cube_FW_N6/Drivers/STM32N6xx_HAL_Driver/Inc/stm32n6xx_ll_bus.h ****   *         AHB5ENCR     OTGPHY2ENC    LL_AHB5_GRP1_DisableClock\n
1856:STM32Cube_FW_N6/Drivers/STM32N6xx_HAL_Driver/Inc/stm32n6xx_ll_bus.h ****   *         AHB5ENCR     OTG2ENC       LL_AHB5_GRP1_DisableClock\n
1857:STM32Cube_FW_N6/Drivers/STM32N6xx_HAL_Driver/Inc/stm32n6xx_ll_bus.h ****   *         AHB5ENCR     CACHEAXIENC   LL_AHB5_GRP1_DisableClock\n
1858:STM32Cube_FW_N6/Drivers/STM32N6xx_HAL_Driver/Inc/stm32n6xx_ll_bus.h ****   *         AHB5ENCR     NPUENC        LL_AHB5_GRP1_DisableClock
1859:STM32Cube_FW_N6/Drivers/STM32N6xx_HAL_Driver/Inc/stm32n6xx_ll_bus.h ****   * @param  Periphs This parameter can be a combination of the following values:
1860:STM32Cube_FW_N6/Drivers/STM32N6xx_HAL_Driver/Inc/stm32n6xx_ll_bus.h ****   *         @arg @ref LL_AHB5_GRP1_PERIPH_HPDMA1
1861:STM32Cube_FW_N6/Drivers/STM32N6xx_HAL_Driver/Inc/stm32n6xx_ll_bus.h ****   *         @arg @ref LL_AHB5_GRP1_PERIPH_DMA2D
1862:STM32Cube_FW_N6/Drivers/STM32N6xx_HAL_Driver/Inc/stm32n6xx_ll_bus.h ****   *         @arg @ref LL_AHB5_GRP1_PERIPH_JPEG
1863:STM32Cube_FW_N6/Drivers/STM32N6xx_HAL_Driver/Inc/stm32n6xx_ll_bus.h ****   *         @arg @ref LL_AHB5_GRP1_PERIPH_FMC
1864:STM32Cube_FW_N6/Drivers/STM32N6xx_HAL_Driver/Inc/stm32n6xx_ll_bus.h ****   *         @arg @ref LL_AHB5_GRP1_PERIPH_XSPI1
1865:STM32Cube_FW_N6/Drivers/STM32N6xx_HAL_Driver/Inc/stm32n6xx_ll_bus.h ****   *         @arg @ref LL_AHB5_GRP1_PERIPH_XSPI2
1866:STM32Cube_FW_N6/Drivers/STM32N6xx_HAL_Driver/Inc/stm32n6xx_ll_bus.h ****   *         @arg @ref LL_AHB5_GRP1_PERIPH_XSPI3
1867:STM32Cube_FW_N6/Drivers/STM32N6xx_HAL_Driver/Inc/stm32n6xx_ll_bus.h ****   *         @arg @ref LL_AHB5_GRP1_PERIPH_XSPIM
1868:STM32Cube_FW_N6/Drivers/STM32N6xx_HAL_Driver/Inc/stm32n6xx_ll_bus.h ****   *         @arg @ref LL_AHB5_GRP1_PERIPH_PSSI
1869:STM32Cube_FW_N6/Drivers/STM32N6xx_HAL_Driver/Inc/stm32n6xx_ll_bus.h ****   *         @arg @ref LL_AHB5_GRP1_PERIPH_SDMMC1
1870:STM32Cube_FW_N6/Drivers/STM32N6xx_HAL_Driver/Inc/stm32n6xx_ll_bus.h ****   *         @arg @ref LL_AHB5_GRP1_PERIPH_SDMMC2
1871:STM32Cube_FW_N6/Drivers/STM32N6xx_HAL_Driver/Inc/stm32n6xx_ll_bus.h ****   *         @arg @ref LL_AHB5_GRP1_PERIPH_MCE1 (*)
1872:STM32Cube_FW_N6/Drivers/STM32N6xx_HAL_Driver/Inc/stm32n6xx_ll_bus.h ****   *         @arg @ref LL_AHB5_GRP1_PERIPH_MCE2 (*)
1873:STM32Cube_FW_N6/Drivers/STM32N6xx_HAL_Driver/Inc/stm32n6xx_ll_bus.h ****   *         @arg @ref LL_AHB5_GRP1_PERIPH_MCE3 (*)
1874:STM32Cube_FW_N6/Drivers/STM32N6xx_HAL_Driver/Inc/stm32n6xx_ll_bus.h ****   *         @arg @ref LL_AHB5_GRP1_PERIPH_MCE4 (*)
1875:STM32Cube_FW_N6/Drivers/STM32N6xx_HAL_Driver/Inc/stm32n6xx_ll_bus.h ****   *         @arg @ref LL_AHB5_GRP1_PERIPH_GFXMMU
1876:STM32Cube_FW_N6/Drivers/STM32N6xx_HAL_Driver/Inc/stm32n6xx_ll_bus.h ****   *         @arg @ref LL_AHB5_GRP1_PERIPH_GPU2D
1877:STM32Cube_FW_N6/Drivers/STM32N6xx_HAL_Driver/Inc/stm32n6xx_ll_bus.h ****   *         @arg @ref LL_AHB5_GRP1_PERIPH_ETH1
1878:STM32Cube_FW_N6/Drivers/STM32N6xx_HAL_Driver/Inc/stm32n6xx_ll_bus.h ****   *         @arg @ref LL_AHB5_GRP1_PERIPH_ETH1MAC
1879:STM32Cube_FW_N6/Drivers/STM32N6xx_HAL_Driver/Inc/stm32n6xx_ll_bus.h ****   *         @arg @ref LL_AHB5_GRP1_PERIPH_ETH1TX
1880:STM32Cube_FW_N6/Drivers/STM32N6xx_HAL_Driver/Inc/stm32n6xx_ll_bus.h ****   *         @arg @ref LL_AHB5_GRP1_PERIPH_ETH1RX
1881:STM32Cube_FW_N6/Drivers/STM32N6xx_HAL_Driver/Inc/stm32n6xx_ll_bus.h ****   *         @arg @ref LL_AHB5_GRP1_PERIPH_OTG1
1882:STM32Cube_FW_N6/Drivers/STM32N6xx_HAL_Driver/Inc/stm32n6xx_ll_bus.h ****   *         @arg @ref LL_AHB5_GRP1_PERIPH_OTG2
1883:STM32Cube_FW_N6/Drivers/STM32N6xx_HAL_Driver/Inc/stm32n6xx_ll_bus.h ****   *         @arg @ref LL_AHB5_GRP1_PERIPH_OTGPHY1
1884:STM32Cube_FW_N6/Drivers/STM32N6xx_HAL_Driver/Inc/stm32n6xx_ll_bus.h ****   *         @arg @ref LL_AHB5_GRP1_PERIPH_OTGPHY2
1885:STM32Cube_FW_N6/Drivers/STM32N6xx_HAL_Driver/Inc/stm32n6xx_ll_bus.h ****   *         @arg @ref LL_AHB5_GRP1_PERIPH_CACHEAXI
1886:STM32Cube_FW_N6/Drivers/STM32N6xx_HAL_Driver/Inc/stm32n6xx_ll_bus.h ****   *         @arg @ref LL_AHB5_GRP1_PERIPH_NPU
1887:STM32Cube_FW_N6/Drivers/STM32N6xx_HAL_Driver/Inc/stm32n6xx_ll_bus.h ****   *
1888:STM32Cube_FW_N6/Drivers/STM32N6xx_HAL_Driver/Inc/stm32n6xx_ll_bus.h ****   *         (*) value not defined in all devices.
1889:STM32Cube_FW_N6/Drivers/STM32N6xx_HAL_Driver/Inc/stm32n6xx_ll_bus.h ****   * @retval None
1890:STM32Cube_FW_N6/Drivers/STM32N6xx_HAL_Driver/Inc/stm32n6xx_ll_bus.h ****   */
1891:STM32Cube_FW_N6/Drivers/STM32N6xx_HAL_Driver/Inc/stm32n6xx_ll_bus.h **** __STATIC_INLINE void LL_AHB5_GRP1_DisableClock(uint32_t Periphs)
1892:STM32Cube_FW_N6/Drivers/STM32N6xx_HAL_Driver/Inc/stm32n6xx_ll_bus.h **** {
1893:STM32Cube_FW_N6/Drivers/STM32N6xx_HAL_Driver/Inc/stm32n6xx_ll_bus.h ****   WRITE_REG(RCC->AHB5ENCR, Periphs);
1894:STM32Cube_FW_N6/Drivers/STM32N6xx_HAL_Driver/Inc/stm32n6xx_ll_bus.h **** }
1895:STM32Cube_FW_N6/Drivers/STM32N6xx_HAL_Driver/Inc/stm32n6xx_ll_bus.h **** 
1896:STM32Cube_FW_N6/Drivers/STM32N6xx_HAL_Driver/Inc/stm32n6xx_ll_bus.h **** /**
1897:STM32Cube_FW_N6/Drivers/STM32N6xx_HAL_Driver/Inc/stm32n6xx_ll_bus.h ****   * @brief  Force AHB5 peripherals reset.
1898:STM32Cube_FW_N6/Drivers/STM32N6xx_HAL_Driver/Inc/stm32n6xx_ll_bus.h ****   * @rmtoll AHB5RSTSR    HPDMA1RSTS      LL_AHB5_GRP1_ForceReset\n
1899:STM32Cube_FW_N6/Drivers/STM32N6xx_HAL_Driver/Inc/stm32n6xx_ll_bus.h ****   *         AHB5RSTSR    DMA2DRSTS       LL_AHB5_GRP1_ForceReset\n
1900:STM32Cube_FW_N6/Drivers/STM32N6xx_HAL_Driver/Inc/stm32n6xx_ll_bus.h ****   *         AHB5RSTSR    JPEGRSTS        LL_AHB5_GRP1_ForceReset\n
1901:STM32Cube_FW_N6/Drivers/STM32N6xx_HAL_Driver/Inc/stm32n6xx_ll_bus.h ****   *         AHB5RSTSR    FMCRSTS         LL_AHB5_GRP1_ForceReset\n
1902:STM32Cube_FW_N6/Drivers/STM32N6xx_HAL_Driver/Inc/stm32n6xx_ll_bus.h ****   *         AHB5RSTSR    XSPI1RSTS       LL_AHB5_GRP1_ForceReset\n
1903:STM32Cube_FW_N6/Drivers/STM32N6xx_HAL_Driver/Inc/stm32n6xx_ll_bus.h ****   *         AHB5RSTSR    PSSIRSTS        LL_AHB5_GRP1_ForceReset\n
1904:STM32Cube_FW_N6/Drivers/STM32N6xx_HAL_Driver/Inc/stm32n6xx_ll_bus.h ****   *         AHB5RSTSR    SDMMC2RSTS      LL_AHB5_GRP1_ForceReset\n
1905:STM32Cube_FW_N6/Drivers/STM32N6xx_HAL_Driver/Inc/stm32n6xx_ll_bus.h ****   *         AHB5RSTSR    SDMMC1RSTS      LL_AHB5_GRP1_ForceReset\n
ARM GAS  C:\Users\DJESSOU\AppData\Local\Temp\cc3dm0Vf.s 			page 166


1906:STM32Cube_FW_N6/Drivers/STM32N6xx_HAL_Driver/Inc/stm32n6xx_ll_bus.h ****   *         AHB5RSTSR    XSPI2RSTS       LL_AHB5_GRP1_ForceReset\n
1907:STM32Cube_FW_N6/Drivers/STM32N6xx_HAL_Driver/Inc/stm32n6xx_ll_bus.h ****   *         AHB5RSTSR    XSPIMRSTS       LL_AHB5_GRP1_ForceReset\n
1908:STM32Cube_FW_N6/Drivers/STM32N6xx_HAL_Driver/Inc/stm32n6xx_ll_bus.h ****   *         AHB5RSTSR    XSPI3RSTS       LL_AHB5_GRP1_ForceReset\n
1909:STM32Cube_FW_N6/Drivers/STM32N6xx_HAL_Driver/Inc/stm32n6xx_ll_bus.h ****   *         AHB5RSTSR    GFXMMURSTS      LL_AHB5_GRP1_ForceReset\n
1910:STM32Cube_FW_N6/Drivers/STM32N6xx_HAL_Driver/Inc/stm32n6xx_ll_bus.h ****   *         AHB5RSTSR    GPU2DRSTS       LL_AHB5_GRP1_ForceReset\n
1911:STM32Cube_FW_N6/Drivers/STM32N6xx_HAL_Driver/Inc/stm32n6xx_ll_bus.h ****   *         AHB5RSTSR    OTG1PHYCTLRSTS  LL_AHB5_GRP1_ForceReset\n
1912:STM32Cube_FW_N6/Drivers/STM32N6xx_HAL_Driver/Inc/stm32n6xx_ll_bus.h ****   *         AHB5RSTSR    OTG2PHYCTLRSTS  LL_AHB5_GRP1_ForceReset\n
1913:STM32Cube_FW_N6/Drivers/STM32N6xx_HAL_Driver/Inc/stm32n6xx_ll_bus.h ****   *         AHB5RSTSR    ETH1RSTS        LL_AHB5_GRP1_ForceReset\n
1914:STM32Cube_FW_N6/Drivers/STM32N6xx_HAL_Driver/Inc/stm32n6xx_ll_bus.h ****   *         AHB5RSTSR    OTG1RSTS        LL_AHB5_GRP1_ForceReset\n
1915:STM32Cube_FW_N6/Drivers/STM32N6xx_HAL_Driver/Inc/stm32n6xx_ll_bus.h ****   *         AHB5RSTSR    OTGPHY1RSTS     LL_AHB5_GRP1_ForceReset\n
1916:STM32Cube_FW_N6/Drivers/STM32N6xx_HAL_Driver/Inc/stm32n6xx_ll_bus.h ****   *         AHB5RSTSR    OTGPHY2RSTS     LL_AHB5_GRP1_ForceReset\n
1917:STM32Cube_FW_N6/Drivers/STM32N6xx_HAL_Driver/Inc/stm32n6xx_ll_bus.h ****   *         AHB5RSTSR    OTG2RSTS        LL_AHB5_GRP1_ForceReset\n
1918:STM32Cube_FW_N6/Drivers/STM32N6xx_HAL_Driver/Inc/stm32n6xx_ll_bus.h ****   *         AHB5RSTSR    CACHEAXIRSTS    LL_AHB5_GRP1_ForceReset\n
1919:STM32Cube_FW_N6/Drivers/STM32N6xx_HAL_Driver/Inc/stm32n6xx_ll_bus.h ****   *         AHB5RSTSR    NPURSTS         LL_AHB5_GRP1_ForceReset
1920:STM32Cube_FW_N6/Drivers/STM32N6xx_HAL_Driver/Inc/stm32n6xx_ll_bus.h ****   * @param  Periphs This parameter can be a combination of the following values:
1921:STM32Cube_FW_N6/Drivers/STM32N6xx_HAL_Driver/Inc/stm32n6xx_ll_bus.h ****   *         @arg @ref LL_AHB5_GRP1_PERIPH_HPDMA1
1922:STM32Cube_FW_N6/Drivers/STM32N6xx_HAL_Driver/Inc/stm32n6xx_ll_bus.h ****   *         @arg @ref LL_AHB5_GRP1_PERIPH_DMA2D
1923:STM32Cube_FW_N6/Drivers/STM32N6xx_HAL_Driver/Inc/stm32n6xx_ll_bus.h ****   *         @arg @ref LL_AHB5_GRP1_PERIPH_JPEG
1924:STM32Cube_FW_N6/Drivers/STM32N6xx_HAL_Driver/Inc/stm32n6xx_ll_bus.h ****   *         @arg @ref LL_AHB5_GRP1_PERIPH_FMC
1925:STM32Cube_FW_N6/Drivers/STM32N6xx_HAL_Driver/Inc/stm32n6xx_ll_bus.h ****   *         @arg @ref LL_AHB5_GRP1_PERIPH_XSPI1
1926:STM32Cube_FW_N6/Drivers/STM32N6xx_HAL_Driver/Inc/stm32n6xx_ll_bus.h ****   *         @arg @ref LL_AHB5_GRP1_PERIPH_XSPI2
1927:STM32Cube_FW_N6/Drivers/STM32N6xx_HAL_Driver/Inc/stm32n6xx_ll_bus.h ****   *         @arg @ref LL_AHB5_GRP1_PERIPH_XSPI3
1928:STM32Cube_FW_N6/Drivers/STM32N6xx_HAL_Driver/Inc/stm32n6xx_ll_bus.h ****   *         @arg @ref LL_AHB5_GRP1_PERIPH_XSPIM
1929:STM32Cube_FW_N6/Drivers/STM32N6xx_HAL_Driver/Inc/stm32n6xx_ll_bus.h ****   *         @arg @ref LL_AHB5_GRP1_PERIPH_PSSI
1930:STM32Cube_FW_N6/Drivers/STM32N6xx_HAL_Driver/Inc/stm32n6xx_ll_bus.h ****   *         @arg @ref LL_AHB5_GRP1_PERIPH_SDMMC1
1931:STM32Cube_FW_N6/Drivers/STM32N6xx_HAL_Driver/Inc/stm32n6xx_ll_bus.h ****   *         @arg @ref LL_AHB5_GRP1_PERIPH_SDMMC2
1932:STM32Cube_FW_N6/Drivers/STM32N6xx_HAL_Driver/Inc/stm32n6xx_ll_bus.h ****   *         @arg @ref LL_AHB5_GRP1_PERIPH_GFXMMU
1933:STM32Cube_FW_N6/Drivers/STM32N6xx_HAL_Driver/Inc/stm32n6xx_ll_bus.h ****   *         @arg @ref LL_AHB5_GRP1_PERIPH_GPU2D
1934:STM32Cube_FW_N6/Drivers/STM32N6xx_HAL_Driver/Inc/stm32n6xx_ll_bus.h ****   *         @arg @ref LL_AHB5_GRP1_PERIPH_OTG1PHYCTL
1935:STM32Cube_FW_N6/Drivers/STM32N6xx_HAL_Driver/Inc/stm32n6xx_ll_bus.h ****   *         @arg @ref LL_AHB5_GRP1_PERIPH_OTG2PHYCTL
1936:STM32Cube_FW_N6/Drivers/STM32N6xx_HAL_Driver/Inc/stm32n6xx_ll_bus.h ****   *         @arg @ref LL_AHB5_GRP1_PERIPH_ETH1
1937:STM32Cube_FW_N6/Drivers/STM32N6xx_HAL_Driver/Inc/stm32n6xx_ll_bus.h ****   *         @arg @ref LL_AHB5_GRP1_PERIPH_OTG1
1938:STM32Cube_FW_N6/Drivers/STM32N6xx_HAL_Driver/Inc/stm32n6xx_ll_bus.h ****   *         @arg @ref LL_AHB5_GRP1_PERIPH_OTG2
1939:STM32Cube_FW_N6/Drivers/STM32N6xx_HAL_Driver/Inc/stm32n6xx_ll_bus.h ****   *         @arg @ref LL_AHB5_GRP1_PERIPH_OTGPHY1
1940:STM32Cube_FW_N6/Drivers/STM32N6xx_HAL_Driver/Inc/stm32n6xx_ll_bus.h ****   *         @arg @ref LL_AHB5_GRP1_PERIPH_OTGPHY2
1941:STM32Cube_FW_N6/Drivers/STM32N6xx_HAL_Driver/Inc/stm32n6xx_ll_bus.h ****   *         @arg @ref LL_AHB5_GRP1_PERIPH_CACHEAXI
1942:STM32Cube_FW_N6/Drivers/STM32N6xx_HAL_Driver/Inc/stm32n6xx_ll_bus.h ****   *         @arg @ref LL_AHB5_GRP1_PERIPH_NPU
1943:STM32Cube_FW_N6/Drivers/STM32N6xx_HAL_Driver/Inc/stm32n6xx_ll_bus.h ****   * @retval None
1944:STM32Cube_FW_N6/Drivers/STM32N6xx_HAL_Driver/Inc/stm32n6xx_ll_bus.h ****   */
1945:STM32Cube_FW_N6/Drivers/STM32N6xx_HAL_Driver/Inc/stm32n6xx_ll_bus.h **** __STATIC_INLINE void LL_AHB5_GRP1_ForceReset(uint32_t Periphs)
1946:STM32Cube_FW_N6/Drivers/STM32N6xx_HAL_Driver/Inc/stm32n6xx_ll_bus.h **** {
1947:STM32Cube_FW_N6/Drivers/STM32N6xx_HAL_Driver/Inc/stm32n6xx_ll_bus.h ****   WRITE_REG(RCC->AHB5RSTSR, Periphs);
1948:STM32Cube_FW_N6/Drivers/STM32N6xx_HAL_Driver/Inc/stm32n6xx_ll_bus.h **** }
1949:STM32Cube_FW_N6/Drivers/STM32N6xx_HAL_Driver/Inc/stm32n6xx_ll_bus.h **** 
1950:STM32Cube_FW_N6/Drivers/STM32N6xx_HAL_Driver/Inc/stm32n6xx_ll_bus.h **** /**
1951:STM32Cube_FW_N6/Drivers/STM32N6xx_HAL_Driver/Inc/stm32n6xx_ll_bus.h ****   * @brief  Release AHB5 peripherals reset.
1952:STM32Cube_FW_N6/Drivers/STM32N6xx_HAL_Driver/Inc/stm32n6xx_ll_bus.h ****   * @rmtoll AHB5RSTCR    HPDMA1RSTC      LL_AHB5_GRP1_ReleaseReset\n
1953:STM32Cube_FW_N6/Drivers/STM32N6xx_HAL_Driver/Inc/stm32n6xx_ll_bus.h ****   *         AHB5RSTCR    DMA2DRSTC       LL_AHB5_GRP1_ReleaseReset\n
1954:STM32Cube_FW_N6/Drivers/STM32N6xx_HAL_Driver/Inc/stm32n6xx_ll_bus.h ****   *         AHB5RSTCR    JPEGRSTC        LL_AHB5_GRP1_ReleaseReset\n
1955:STM32Cube_FW_N6/Drivers/STM32N6xx_HAL_Driver/Inc/stm32n6xx_ll_bus.h ****   *         AHB5RSTCR    FMCRSTC         LL_AHB5_GRP1_ReleaseReset\n
1956:STM32Cube_FW_N6/Drivers/STM32N6xx_HAL_Driver/Inc/stm32n6xx_ll_bus.h ****   *         AHB5RSTCR    XSPI1RSTC       LL_AHB5_GRP1_ReleaseReset\n
1957:STM32Cube_FW_N6/Drivers/STM32N6xx_HAL_Driver/Inc/stm32n6xx_ll_bus.h ****   *         AHB5RSTCR    PSSIRSTC        LL_AHB5_GRP1_ReleaseReset\n
1958:STM32Cube_FW_N6/Drivers/STM32N6xx_HAL_Driver/Inc/stm32n6xx_ll_bus.h ****   *         AHB5RSTCR    SDMMC2RSTC      LL_AHB5_GRP1_ReleaseReset\n
1959:STM32Cube_FW_N6/Drivers/STM32N6xx_HAL_Driver/Inc/stm32n6xx_ll_bus.h ****   *         AHB5RSTCR    SDMMC1RSTC      LL_AHB5_GRP1_ReleaseReset\n
1960:STM32Cube_FW_N6/Drivers/STM32N6xx_HAL_Driver/Inc/stm32n6xx_ll_bus.h ****   *         AHB5RSTCR    XSPI2RSTC       LL_AHB5_GRP1_ReleaseReset\n
1961:STM32Cube_FW_N6/Drivers/STM32N6xx_HAL_Driver/Inc/stm32n6xx_ll_bus.h ****   *         AHB5RSTCR    XSPIMRSTC       LL_AHB5_GRP1_ReleaseReset\n
1962:STM32Cube_FW_N6/Drivers/STM32N6xx_HAL_Driver/Inc/stm32n6xx_ll_bus.h ****   *         AHB5RSTCR    XSPI3RSTC       LL_AHB5_GRP1_ReleaseReset\n
ARM GAS  C:\Users\DJESSOU\AppData\Local\Temp\cc3dm0Vf.s 			page 167


1963:STM32Cube_FW_N6/Drivers/STM32N6xx_HAL_Driver/Inc/stm32n6xx_ll_bus.h ****   *         AHB5RSTCR    GFXMMURSTC      LL_AHB5_GRP1_ReleaseReset\n
1964:STM32Cube_FW_N6/Drivers/STM32N6xx_HAL_Driver/Inc/stm32n6xx_ll_bus.h ****   *         AHB5RSTCR    GPU2DRSTC       LL_AHB5_GRP1_ReleaseReset\n
1965:STM32Cube_FW_N6/Drivers/STM32N6xx_HAL_Driver/Inc/stm32n6xx_ll_bus.h ****   *         AHB5RSTCR    OTG1PHYCTLRSTC  LL_AHB5_GRP1_ReleaseReset\n
1966:STM32Cube_FW_N6/Drivers/STM32N6xx_HAL_Driver/Inc/stm32n6xx_ll_bus.h ****   *         AHB5RSTCR    OTG2PHYCTLRSTC  LL_AHB5_GRP1_ReleaseReset\n
1967:STM32Cube_FW_N6/Drivers/STM32N6xx_HAL_Driver/Inc/stm32n6xx_ll_bus.h ****   *         AHB5RSTCR    ETH1RSTC        LL_AHB5_GRP1_ReleaseReset\n
1968:STM32Cube_FW_N6/Drivers/STM32N6xx_HAL_Driver/Inc/stm32n6xx_ll_bus.h ****   *         AHB5RSTCR    OTG1RSTC        LL_AHB5_GRP1_ReleaseReset\n
1969:STM32Cube_FW_N6/Drivers/STM32N6xx_HAL_Driver/Inc/stm32n6xx_ll_bus.h ****   *         AHB5RSTCR    OTGPHY1RSTC     LL_AHB5_GRP1_ReleaseReset\n
1970:STM32Cube_FW_N6/Drivers/STM32N6xx_HAL_Driver/Inc/stm32n6xx_ll_bus.h ****   *         AHB5RSTCR    OTGPHY2RSTC     LL_AHB5_GRP1_ReleaseReset\n
1971:STM32Cube_FW_N6/Drivers/STM32N6xx_HAL_Driver/Inc/stm32n6xx_ll_bus.h ****   *         AHB5RSTCR    OTG2RSTC        LL_AHB5_GRP1_ReleaseReset\n
1972:STM32Cube_FW_N6/Drivers/STM32N6xx_HAL_Driver/Inc/stm32n6xx_ll_bus.h ****   *         AHB5RSTCR    CACHEAXIRSTC    LL_AHB5_GRP1_ReleaseReset\n
1973:STM32Cube_FW_N6/Drivers/STM32N6xx_HAL_Driver/Inc/stm32n6xx_ll_bus.h ****   *         AHB5RSTCR    NPURSTS         LL_AHB5_GRP1_ReleaseReset
1974:STM32Cube_FW_N6/Drivers/STM32N6xx_HAL_Driver/Inc/stm32n6xx_ll_bus.h ****   * @param  Periphs This parameter can be a combination of the following values:
1975:STM32Cube_FW_N6/Drivers/STM32N6xx_HAL_Driver/Inc/stm32n6xx_ll_bus.h ****   *         @arg @ref LL_AHB5_GRP1_PERIPH_HPDMA1
1976:STM32Cube_FW_N6/Drivers/STM32N6xx_HAL_Driver/Inc/stm32n6xx_ll_bus.h ****   *         @arg @ref LL_AHB5_GRP1_PERIPH_DMA2D
1977:STM32Cube_FW_N6/Drivers/STM32N6xx_HAL_Driver/Inc/stm32n6xx_ll_bus.h ****   *         @arg @ref LL_AHB5_GRP1_PERIPH_JPEG
1978:STM32Cube_FW_N6/Drivers/STM32N6xx_HAL_Driver/Inc/stm32n6xx_ll_bus.h ****   *         @arg @ref LL_AHB5_GRP1_PERIPH_FMC
1979:STM32Cube_FW_N6/Drivers/STM32N6xx_HAL_Driver/Inc/stm32n6xx_ll_bus.h ****   *         @arg @ref LL_AHB5_GRP1_PERIPH_XSPI1
1980:STM32Cube_FW_N6/Drivers/STM32N6xx_HAL_Driver/Inc/stm32n6xx_ll_bus.h ****   *         @arg @ref LL_AHB5_GRP1_PERIPH_XSPI2
1981:STM32Cube_FW_N6/Drivers/STM32N6xx_HAL_Driver/Inc/stm32n6xx_ll_bus.h ****   *         @arg @ref LL_AHB5_GRP1_PERIPH_XSPI3
1982:STM32Cube_FW_N6/Drivers/STM32N6xx_HAL_Driver/Inc/stm32n6xx_ll_bus.h ****   *         @arg @ref LL_AHB5_GRP1_PERIPH_XSPIM
1983:STM32Cube_FW_N6/Drivers/STM32N6xx_HAL_Driver/Inc/stm32n6xx_ll_bus.h ****   *         @arg @ref LL_AHB5_GRP1_PERIPH_PSSI
1984:STM32Cube_FW_N6/Drivers/STM32N6xx_HAL_Driver/Inc/stm32n6xx_ll_bus.h ****   *         @arg @ref LL_AHB5_GRP1_PERIPH_SDMMC1
1985:STM32Cube_FW_N6/Drivers/STM32N6xx_HAL_Driver/Inc/stm32n6xx_ll_bus.h ****   *         @arg @ref LL_AHB5_GRP1_PERIPH_SDMMC2
1986:STM32Cube_FW_N6/Drivers/STM32N6xx_HAL_Driver/Inc/stm32n6xx_ll_bus.h ****   *         @arg @ref LL_AHB5_GRP1_PERIPH_GFXMMU
1987:STM32Cube_FW_N6/Drivers/STM32N6xx_HAL_Driver/Inc/stm32n6xx_ll_bus.h ****   *         @arg @ref LL_AHB5_GRP1_PERIPH_GPU2D
1988:STM32Cube_FW_N6/Drivers/STM32N6xx_HAL_Driver/Inc/stm32n6xx_ll_bus.h ****   *         @arg @ref LL_AHB5_GRP1_PERIPH_OTG1PHYCTL
1989:STM32Cube_FW_N6/Drivers/STM32N6xx_HAL_Driver/Inc/stm32n6xx_ll_bus.h ****   *         @arg @ref LL_AHB5_GRP1_PERIPH_OTG2PHYCTL
1990:STM32Cube_FW_N6/Drivers/STM32N6xx_HAL_Driver/Inc/stm32n6xx_ll_bus.h ****   *         @arg @ref LL_AHB5_GRP1_PERIPH_ETH1
1991:STM32Cube_FW_N6/Drivers/STM32N6xx_HAL_Driver/Inc/stm32n6xx_ll_bus.h ****   *         @arg @ref LL_AHB5_GRP1_PERIPH_OTG1
1992:STM32Cube_FW_N6/Drivers/STM32N6xx_HAL_Driver/Inc/stm32n6xx_ll_bus.h ****   *         @arg @ref LL_AHB5_GRP1_PERIPH_OTG2
1993:STM32Cube_FW_N6/Drivers/STM32N6xx_HAL_Driver/Inc/stm32n6xx_ll_bus.h ****   *         @arg @ref LL_AHB5_GRP1_PERIPH_OTGPHY1
1994:STM32Cube_FW_N6/Drivers/STM32N6xx_HAL_Driver/Inc/stm32n6xx_ll_bus.h ****   *         @arg @ref LL_AHB5_GRP1_PERIPH_OTGPHY2
1995:STM32Cube_FW_N6/Drivers/STM32N6xx_HAL_Driver/Inc/stm32n6xx_ll_bus.h ****   *         @arg @ref LL_AHB5_GRP1_PERIPH_CACHEAXI
1996:STM32Cube_FW_N6/Drivers/STM32N6xx_HAL_Driver/Inc/stm32n6xx_ll_bus.h ****   *         @arg @ref LL_AHB5_GRP1_PERIPH_NPU
1997:STM32Cube_FW_N6/Drivers/STM32N6xx_HAL_Driver/Inc/stm32n6xx_ll_bus.h ****   * @retval None
1998:STM32Cube_FW_N6/Drivers/STM32N6xx_HAL_Driver/Inc/stm32n6xx_ll_bus.h ****   */
1999:STM32Cube_FW_N6/Drivers/STM32N6xx_HAL_Driver/Inc/stm32n6xx_ll_bus.h **** __STATIC_INLINE void LL_AHB5_GRP1_ReleaseReset(uint32_t Periphs)
2000:STM32Cube_FW_N6/Drivers/STM32N6xx_HAL_Driver/Inc/stm32n6xx_ll_bus.h **** {
2001:STM32Cube_FW_N6/Drivers/STM32N6xx_HAL_Driver/Inc/stm32n6xx_ll_bus.h ****   WRITE_REG(RCC->AHB5RSTCR, Periphs);
2002:STM32Cube_FW_N6/Drivers/STM32N6xx_HAL_Driver/Inc/stm32n6xx_ll_bus.h **** }
2003:STM32Cube_FW_N6/Drivers/STM32N6xx_HAL_Driver/Inc/stm32n6xx_ll_bus.h **** 
2004:STM32Cube_FW_N6/Drivers/STM32N6xx_HAL_Driver/Inc/stm32n6xx_ll_bus.h **** /**
2005:STM32Cube_FW_N6/Drivers/STM32N6xx_HAL_Driver/Inc/stm32n6xx_ll_bus.h ****   * @brief  Enable AHB5 peripherals clock during Low Power mode.
2006:STM32Cube_FW_N6/Drivers/STM32N6xx_HAL_Driver/Inc/stm32n6xx_ll_bus.h ****   * @rmtoll AHB5LPENSR   HPDMA1LPENS   LL_AHB5_GRP1_EnableClockLowPower\n
2007:STM32Cube_FW_N6/Drivers/STM32N6xx_HAL_Driver/Inc/stm32n6xx_ll_bus.h ****   *         AHB5LPENSR   DMA2DLPENS    LL_AHB5_GRP1_EnableClockLowPower\n
2008:STM32Cube_FW_N6/Drivers/STM32N6xx_HAL_Driver/Inc/stm32n6xx_ll_bus.h ****   *         AHB5LPENSR   JPEGLPENS     LL_AHB5_GRP1_EnableClockLowPower\n
2009:STM32Cube_FW_N6/Drivers/STM32N6xx_HAL_Driver/Inc/stm32n6xx_ll_bus.h ****   *         AHB5LPENSR   FMCLPENS      LL_AHB5_GRP1_EnableClockLowPower\n
2010:STM32Cube_FW_N6/Drivers/STM32N6xx_HAL_Driver/Inc/stm32n6xx_ll_bus.h ****   *         AHB5LPENSR   XSPI1LPENS    LL_AHB5_GRP1_EnableClockLowPower\n
2011:STM32Cube_FW_N6/Drivers/STM32N6xx_HAL_Driver/Inc/stm32n6xx_ll_bus.h ****   *         AHB5LPENSR   PSSILPENS     LL_AHB5_GRP1_EnableClockLowPower\n
2012:STM32Cube_FW_N6/Drivers/STM32N6xx_HAL_Driver/Inc/stm32n6xx_ll_bus.h ****   *         AHB5LPENSR   SDMMC2LPENS   LL_AHB5_GRP1_EnableClockLowPower\n
2013:STM32Cube_FW_N6/Drivers/STM32N6xx_HAL_Driver/Inc/stm32n6xx_ll_bus.h ****   *         AHB5LPENSR   SDMMC1LPENS   LL_AHB5_GRP1_EnableClockLowPower\n
2014:STM32Cube_FW_N6/Drivers/STM32N6xx_HAL_Driver/Inc/stm32n6xx_ll_bus.h ****   *         AHB5LPENSR   XSPI2LPENS    LL_AHB5_GRP1_EnableClockLowPower\n
2015:STM32Cube_FW_N6/Drivers/STM32N6xx_HAL_Driver/Inc/stm32n6xx_ll_bus.h ****   *         AHB5LPENSR   XSPIMLPENS    LL_AHB5_GRP1_EnableClockLowPower\n
2016:STM32Cube_FW_N6/Drivers/STM32N6xx_HAL_Driver/Inc/stm32n6xx_ll_bus.h ****   *         AHB5LPENSR   MCE1LPENS     LL_AHB5_GRP1_EnableClockLowPower\n (*)
2017:STM32Cube_FW_N6/Drivers/STM32N6xx_HAL_Driver/Inc/stm32n6xx_ll_bus.h ****   *         AHB5LPENSR   MCE2LPENS     LL_AHB5_GRP1_EnableClockLowPower\n (*)
2018:STM32Cube_FW_N6/Drivers/STM32N6xx_HAL_Driver/Inc/stm32n6xx_ll_bus.h ****   *         AHB5LPENSR   MCE3LPENS     LL_AHB5_GRP1_EnableClockLowPower\n (*)
2019:STM32Cube_FW_N6/Drivers/STM32N6xx_HAL_Driver/Inc/stm32n6xx_ll_bus.h ****   *         AHB5LPENSR   XSPI3LPENS    LL_AHB5_GRP1_EnableClockLowPower\n
ARM GAS  C:\Users\DJESSOU\AppData\Local\Temp\cc3dm0Vf.s 			page 168


2020:STM32Cube_FW_N6/Drivers/STM32N6xx_HAL_Driver/Inc/stm32n6xx_ll_bus.h ****   *         AHB5LPENSR   MCE4LPENS     LL_AHB5_GRP1_EnableClockLowPower\n (*)
2021:STM32Cube_FW_N6/Drivers/STM32N6xx_HAL_Driver/Inc/stm32n6xx_ll_bus.h ****   *         AHB5LPENSR   GFXMMULPENS   LL_AHB5_GRP1_EnableClockLowPower\n
2022:STM32Cube_FW_N6/Drivers/STM32N6xx_HAL_Driver/Inc/stm32n6xx_ll_bus.h ****   *         AHB5LPENSR   GPU2DLPENS    LL_AHB5_GRP1_EnableClockLowPower\n
2023:STM32Cube_FW_N6/Drivers/STM32N6xx_HAL_Driver/Inc/stm32n6xx_ll_bus.h ****   *         AHB5LPENSR   ETH1MACLPENS  LL_AHB5_GRP1_EnableClockLowPower\n
2024:STM32Cube_FW_N6/Drivers/STM32N6xx_HAL_Driver/Inc/stm32n6xx_ll_bus.h ****   *         AHB5LPENSR   ETH1TXLPENS   LL_AHB5_GRP1_EnableClockLowPower\n
2025:STM32Cube_FW_N6/Drivers/STM32N6xx_HAL_Driver/Inc/stm32n6xx_ll_bus.h ****   *         AHB5LPENSR   ETH1RXLPENS   LL_AHB5_GRP1_EnableClockLowPower\n
2026:STM32Cube_FW_N6/Drivers/STM32N6xx_HAL_Driver/Inc/stm32n6xx_ll_bus.h ****   *         AHB5LPENSR   ETH1LPENS     LL_AHB5_GRP1_EnableClockLowPower\n
2027:STM32Cube_FW_N6/Drivers/STM32N6xx_HAL_Driver/Inc/stm32n6xx_ll_bus.h ****   *         AHB5LPENSR   OTG1LPENS     LL_AHB5_GRP1_EnableClockLowPower\n
2028:STM32Cube_FW_N6/Drivers/STM32N6xx_HAL_Driver/Inc/stm32n6xx_ll_bus.h ****   *         AHB5LPENSR   OTGPHY1LPENS  LL_AHB5_GRP1_EnableClockLowPower\n
2029:STM32Cube_FW_N6/Drivers/STM32N6xx_HAL_Driver/Inc/stm32n6xx_ll_bus.h ****   *         AHB5LPENSR   OTGPHY2LPENS  LL_AHB5_GRP1_EnableClockLowPower\n
2030:STM32Cube_FW_N6/Drivers/STM32N6xx_HAL_Driver/Inc/stm32n6xx_ll_bus.h ****   *         AHB5LPENSR   OTG2LPENS     LL_AHB5_GRP1_EnableClockLowPower\n
2031:STM32Cube_FW_N6/Drivers/STM32N6xx_HAL_Driver/Inc/stm32n6xx_ll_bus.h ****   *         AHB5LPENSR   CACHEAXILPENS LL_AHB5_GRP1_EnableClockLowPower\n
2032:STM32Cube_FW_N6/Drivers/STM32N6xx_HAL_Driver/Inc/stm32n6xx_ll_bus.h ****   *         AHB5LPENSR   NPULPENS      LL_AHB5_GRP1_EnableClockLowPower
2033:STM32Cube_FW_N6/Drivers/STM32N6xx_HAL_Driver/Inc/stm32n6xx_ll_bus.h ****   * @param  Periphs This parameter can be a combination of the following values:
2034:STM32Cube_FW_N6/Drivers/STM32N6xx_HAL_Driver/Inc/stm32n6xx_ll_bus.h ****   *         @arg @ref LL_AHB5_GRP1_PERIPH_HPDMA1
2035:STM32Cube_FW_N6/Drivers/STM32N6xx_HAL_Driver/Inc/stm32n6xx_ll_bus.h ****   *         @arg @ref LL_AHB5_GRP1_PERIPH_DMA2D
2036:STM32Cube_FW_N6/Drivers/STM32N6xx_HAL_Driver/Inc/stm32n6xx_ll_bus.h ****   *         @arg @ref LL_AHB5_GRP1_PERIPH_JPEG
2037:STM32Cube_FW_N6/Drivers/STM32N6xx_HAL_Driver/Inc/stm32n6xx_ll_bus.h ****   *         @arg @ref LL_AHB5_GRP1_PERIPH_FMC
2038:STM32Cube_FW_N6/Drivers/STM32N6xx_HAL_Driver/Inc/stm32n6xx_ll_bus.h ****   *         @arg @ref LL_AHB5_GRP1_PERIPH_XSPI1
2039:STM32Cube_FW_N6/Drivers/STM32N6xx_HAL_Driver/Inc/stm32n6xx_ll_bus.h ****   *         @arg @ref LL_AHB5_GRP1_PERIPH_XSPI2
2040:STM32Cube_FW_N6/Drivers/STM32N6xx_HAL_Driver/Inc/stm32n6xx_ll_bus.h ****   *         @arg @ref LL_AHB5_GRP1_PERIPH_XSPI3
2041:STM32Cube_FW_N6/Drivers/STM32N6xx_HAL_Driver/Inc/stm32n6xx_ll_bus.h ****   *         @arg @ref LL_AHB5_GRP1_PERIPH_XSPIM
2042:STM32Cube_FW_N6/Drivers/STM32N6xx_HAL_Driver/Inc/stm32n6xx_ll_bus.h ****   *         @arg @ref LL_AHB5_GRP1_PERIPH_PSSI
2043:STM32Cube_FW_N6/Drivers/STM32N6xx_HAL_Driver/Inc/stm32n6xx_ll_bus.h ****   *         @arg @ref LL_AHB5_GRP1_PERIPH_SDMMC1
2044:STM32Cube_FW_N6/Drivers/STM32N6xx_HAL_Driver/Inc/stm32n6xx_ll_bus.h ****   *         @arg @ref LL_AHB5_GRP1_PERIPH_SDMMC2
2045:STM32Cube_FW_N6/Drivers/STM32N6xx_HAL_Driver/Inc/stm32n6xx_ll_bus.h ****   *         @arg @ref LL_AHB5_GRP1_PERIPH_MCE1 (*)
2046:STM32Cube_FW_N6/Drivers/STM32N6xx_HAL_Driver/Inc/stm32n6xx_ll_bus.h ****   *         @arg @ref LL_AHB5_GRP1_PERIPH_MCE2 (*)
2047:STM32Cube_FW_N6/Drivers/STM32N6xx_HAL_Driver/Inc/stm32n6xx_ll_bus.h ****   *         @arg @ref LL_AHB5_GRP1_PERIPH_MCE3 (*)
2048:STM32Cube_FW_N6/Drivers/STM32N6xx_HAL_Driver/Inc/stm32n6xx_ll_bus.h ****   *         @arg @ref LL_AHB5_GRP1_PERIPH_MCE4 (*)
2049:STM32Cube_FW_N6/Drivers/STM32N6xx_HAL_Driver/Inc/stm32n6xx_ll_bus.h ****   *         @arg @ref LL_AHB5_GRP1_PERIPH_GFXMMU
2050:STM32Cube_FW_N6/Drivers/STM32N6xx_HAL_Driver/Inc/stm32n6xx_ll_bus.h ****   *         @arg @ref LL_AHB5_GRP1_PERIPH_GPU2D
2051:STM32Cube_FW_N6/Drivers/STM32N6xx_HAL_Driver/Inc/stm32n6xx_ll_bus.h ****   *         @arg @ref LL_AHB5_GRP1_PERIPH_ETH1
2052:STM32Cube_FW_N6/Drivers/STM32N6xx_HAL_Driver/Inc/stm32n6xx_ll_bus.h ****   *         @arg @ref LL_AHB5_GRP1_PERIPH_ETH1MAC
2053:STM32Cube_FW_N6/Drivers/STM32N6xx_HAL_Driver/Inc/stm32n6xx_ll_bus.h ****   *         @arg @ref LL_AHB5_GRP1_PERIPH_ETH1TX
2054:STM32Cube_FW_N6/Drivers/STM32N6xx_HAL_Driver/Inc/stm32n6xx_ll_bus.h ****   *         @arg @ref LL_AHB5_GRP1_PERIPH_ETH1RX
2055:STM32Cube_FW_N6/Drivers/STM32N6xx_HAL_Driver/Inc/stm32n6xx_ll_bus.h ****   *         @arg @ref LL_AHB5_GRP1_PERIPH_OTG1
2056:STM32Cube_FW_N6/Drivers/STM32N6xx_HAL_Driver/Inc/stm32n6xx_ll_bus.h ****   *         @arg @ref LL_AHB5_GRP1_PERIPH_OTG2
2057:STM32Cube_FW_N6/Drivers/STM32N6xx_HAL_Driver/Inc/stm32n6xx_ll_bus.h ****   *         @arg @ref LL_AHB5_GRP1_PERIPH_OTGPHY1
2058:STM32Cube_FW_N6/Drivers/STM32N6xx_HAL_Driver/Inc/stm32n6xx_ll_bus.h ****   *         @arg @ref LL_AHB5_GRP1_PERIPH_OTGPHY2
2059:STM32Cube_FW_N6/Drivers/STM32N6xx_HAL_Driver/Inc/stm32n6xx_ll_bus.h ****   *         @arg @ref LL_AHB5_GRP1_PERIPH_CACHEAXI
2060:STM32Cube_FW_N6/Drivers/STM32N6xx_HAL_Driver/Inc/stm32n6xx_ll_bus.h ****   *         @arg @ref LL_AHB5_GRP1_PERIPH_NPU
2061:STM32Cube_FW_N6/Drivers/STM32N6xx_HAL_Driver/Inc/stm32n6xx_ll_bus.h ****   *
2062:STM32Cube_FW_N6/Drivers/STM32N6xx_HAL_Driver/Inc/stm32n6xx_ll_bus.h ****   *         (*) value not defined in all devices.
2063:STM32Cube_FW_N6/Drivers/STM32N6xx_HAL_Driver/Inc/stm32n6xx_ll_bus.h ****   * @retval None
2064:STM32Cube_FW_N6/Drivers/STM32N6xx_HAL_Driver/Inc/stm32n6xx_ll_bus.h ****   */
2065:STM32Cube_FW_N6/Drivers/STM32N6xx_HAL_Driver/Inc/stm32n6xx_ll_bus.h **** __STATIC_INLINE void LL_AHB5_GRP1_EnableClockLowPower(uint32_t Periphs)
2066:STM32Cube_FW_N6/Drivers/STM32N6xx_HAL_Driver/Inc/stm32n6xx_ll_bus.h **** {
2067:STM32Cube_FW_N6/Drivers/STM32N6xx_HAL_Driver/Inc/stm32n6xx_ll_bus.h ****   __IO uint32_t tmpreg;
2068:STM32Cube_FW_N6/Drivers/STM32N6xx_HAL_Driver/Inc/stm32n6xx_ll_bus.h ****   WRITE_REG(RCC->AHB5LPENSR, Periphs);
2069:STM32Cube_FW_N6/Drivers/STM32N6xx_HAL_Driver/Inc/stm32n6xx_ll_bus.h ****   /* Delay after an RCC peripheral clock enabling */
2070:STM32Cube_FW_N6/Drivers/STM32N6xx_HAL_Driver/Inc/stm32n6xx_ll_bus.h ****   tmpreg = READ_REG(RCC->AHB5LPENR);
2071:STM32Cube_FW_N6/Drivers/STM32N6xx_HAL_Driver/Inc/stm32n6xx_ll_bus.h ****   (void)tmpreg;
2072:STM32Cube_FW_N6/Drivers/STM32N6xx_HAL_Driver/Inc/stm32n6xx_ll_bus.h **** }
2073:STM32Cube_FW_N6/Drivers/STM32N6xx_HAL_Driver/Inc/stm32n6xx_ll_bus.h **** 
2074:STM32Cube_FW_N6/Drivers/STM32N6xx_HAL_Driver/Inc/stm32n6xx_ll_bus.h **** /**
2075:STM32Cube_FW_N6/Drivers/STM32N6xx_HAL_Driver/Inc/stm32n6xx_ll_bus.h ****   * @brief  Check if AHB5 peripheral clock during Low Power mode is enabled or not .
2076:STM32Cube_FW_N6/Drivers/STM32N6xx_HAL_Driver/Inc/stm32n6xx_ll_bus.h ****   * @rmtoll AHB5LPENR    HPDMA1LPEN    LL_AHB5_GRP1_IsEnabledClockLowPower\n
ARM GAS  C:\Users\DJESSOU\AppData\Local\Temp\cc3dm0Vf.s 			page 169


2077:STM32Cube_FW_N6/Drivers/STM32N6xx_HAL_Driver/Inc/stm32n6xx_ll_bus.h ****   *         AHB5LPENR    DMA2DLPEN     LL_AHB5_GRP1_IsEnabledClockLowPower\n
2078:STM32Cube_FW_N6/Drivers/STM32N6xx_HAL_Driver/Inc/stm32n6xx_ll_bus.h ****   *         AHB5LPENR    JPEGLPEN      LL_AHB5_GRP1_IsEnabledClockLowPower\n
2079:STM32Cube_FW_N6/Drivers/STM32N6xx_HAL_Driver/Inc/stm32n6xx_ll_bus.h ****   *         AHB5LPENR    FMCLPEN       LL_AHB5_GRP1_IsEnabledClockLowPower\n
2080:STM32Cube_FW_N6/Drivers/STM32N6xx_HAL_Driver/Inc/stm32n6xx_ll_bus.h ****   *         AHB5LPENR    XSPI1LPEN     LL_AHB5_GRP1_IsEnabledClockLowPower\n
2081:STM32Cube_FW_N6/Drivers/STM32N6xx_HAL_Driver/Inc/stm32n6xx_ll_bus.h ****   *         AHB5LPENR    PSSILPEN      LL_AHB5_GRP1_IsEnabledClockLowPower\n
2082:STM32Cube_FW_N6/Drivers/STM32N6xx_HAL_Driver/Inc/stm32n6xx_ll_bus.h ****   *         AHB5LPENR    SDMMC2LPEN    LL_AHB5_GRP1_IsEnabledClockLowPower\n
2083:STM32Cube_FW_N6/Drivers/STM32N6xx_HAL_Driver/Inc/stm32n6xx_ll_bus.h ****   *         AHB5LPENR    SDMMC1LPEN    LL_AHB5_GRP1_IsEnabledClockLowPower\n
2084:STM32Cube_FW_N6/Drivers/STM32N6xx_HAL_Driver/Inc/stm32n6xx_ll_bus.h ****   *         AHB5LPENR    XSPI2LPEN     LL_AHB5_GRP1_IsEnabledClockLowPower\n
2085:STM32Cube_FW_N6/Drivers/STM32N6xx_HAL_Driver/Inc/stm32n6xx_ll_bus.h ****   *         AHB5LPENR    XSPIMLPEN     LL_AHB5_GRP1_IsEnabledClockLowPower\n
2086:STM32Cube_FW_N6/Drivers/STM32N6xx_HAL_Driver/Inc/stm32n6xx_ll_bus.h ****   *         AHB5LPENR    MCE1LPEN      LL_AHB5_GRP1_IsEnabledClockLowPower\n (*)
2087:STM32Cube_FW_N6/Drivers/STM32N6xx_HAL_Driver/Inc/stm32n6xx_ll_bus.h ****   *         AHB5LPENR    MCE2LPEN      LL_AHB5_GRP1_IsEnabledClockLowPower\n (*)
2088:STM32Cube_FW_N6/Drivers/STM32N6xx_HAL_Driver/Inc/stm32n6xx_ll_bus.h ****   *         AHB5LPENR    MCE3LPEN      LL_AHB5_GRP1_IsEnabledClockLowPower\n (*)
2089:STM32Cube_FW_N6/Drivers/STM32N6xx_HAL_Driver/Inc/stm32n6xx_ll_bus.h ****   *         AHB5LPENR    XSPI3LPEN     LL_AHB5_GRP1_IsEnabledClockLowPower\n
2090:STM32Cube_FW_N6/Drivers/STM32N6xx_HAL_Driver/Inc/stm32n6xx_ll_bus.h ****   *         AHB5LPENR    MCE4LPEN      LL_AHB5_GRP1_IsEnabledClockLowPower\n (*)
2091:STM32Cube_FW_N6/Drivers/STM32N6xx_HAL_Driver/Inc/stm32n6xx_ll_bus.h ****   *         AHB5LPENR    GFXMMULPEN    LL_AHB5_GRP1_IsEnabledClockLowPower\n
2092:STM32Cube_FW_N6/Drivers/STM32N6xx_HAL_Driver/Inc/stm32n6xx_ll_bus.h ****   *         AHB5LPENR    GPU2DLPEN     LL_AHB5_GRP1_IsEnabledClockLowPower\n
2093:STM32Cube_FW_N6/Drivers/STM32N6xx_HAL_Driver/Inc/stm32n6xx_ll_bus.h ****   *         AHB5LPENR    ETH1MACLPEN   LL_AHB5_GRP1_IsEnabledClockLowPower\n
2094:STM32Cube_FW_N6/Drivers/STM32N6xx_HAL_Driver/Inc/stm32n6xx_ll_bus.h ****   *         AHB5LPENR    ETH1TXLPEN    LL_AHB5_GRP1_IsEnabledClockLowPower\n
2095:STM32Cube_FW_N6/Drivers/STM32N6xx_HAL_Driver/Inc/stm32n6xx_ll_bus.h ****   *         AHB5LPENR    ETH1RXLPEN    LL_AHB5_GRP1_IsEnabledClockLowPower\n
2096:STM32Cube_FW_N6/Drivers/STM32N6xx_HAL_Driver/Inc/stm32n6xx_ll_bus.h ****   *         AHB5LPENR    ETH1LPEN      LL_AHB5_GRP1_IsEnabledClockLowPower\n
2097:STM32Cube_FW_N6/Drivers/STM32N6xx_HAL_Driver/Inc/stm32n6xx_ll_bus.h ****   *         AHB5LPENR    OTG1LPEN      LL_AHB5_GRP1_IsEnabledClockLowPower\n
2098:STM32Cube_FW_N6/Drivers/STM32N6xx_HAL_Driver/Inc/stm32n6xx_ll_bus.h ****   *         AHB5LPENR    OTGPHY1LPEN   LL_AHB5_GRP1_IsEnabledClockLowPower\n
2099:STM32Cube_FW_N6/Drivers/STM32N6xx_HAL_Driver/Inc/stm32n6xx_ll_bus.h ****   *         AHB5LPENR    OTGPHY2LPEN   LL_AHB5_GRP1_IsEnabledClockLowPower\n
2100:STM32Cube_FW_N6/Drivers/STM32N6xx_HAL_Driver/Inc/stm32n6xx_ll_bus.h ****   *         AHB5LPENR    OTG2LPEN      LL_AHB5_GRP1_IsEnabledClockLowPower\n
2101:STM32Cube_FW_N6/Drivers/STM32N6xx_HAL_Driver/Inc/stm32n6xx_ll_bus.h ****   *         AHB5LPENR    CACHEAXILPEN  LL_AHB5_GRP1_IsEnabledClockLowPower\n
2102:STM32Cube_FW_N6/Drivers/STM32N6xx_HAL_Driver/Inc/stm32n6xx_ll_bus.h ****   *         AHB5LPENR    NPULPEN       LL_AHB5_GRP1_IsEnabledClockLowPower
2103:STM32Cube_FW_N6/Drivers/STM32N6xx_HAL_Driver/Inc/stm32n6xx_ll_bus.h ****   * @param  Periphs This parameter can be a combination of the following values:
2104:STM32Cube_FW_N6/Drivers/STM32N6xx_HAL_Driver/Inc/stm32n6xx_ll_bus.h ****   *         @arg @ref LL_AHB5_GRP1_PERIPH_HPDMA1
2105:STM32Cube_FW_N6/Drivers/STM32N6xx_HAL_Driver/Inc/stm32n6xx_ll_bus.h ****   *         @arg @ref LL_AHB5_GRP1_PERIPH_DMA2D
2106:STM32Cube_FW_N6/Drivers/STM32N6xx_HAL_Driver/Inc/stm32n6xx_ll_bus.h ****   *         @arg @ref LL_AHB5_GRP1_PERIPH_JPEG
2107:STM32Cube_FW_N6/Drivers/STM32N6xx_HAL_Driver/Inc/stm32n6xx_ll_bus.h ****   *         @arg @ref LL_AHB5_GRP1_PERIPH_FMC
2108:STM32Cube_FW_N6/Drivers/STM32N6xx_HAL_Driver/Inc/stm32n6xx_ll_bus.h ****   *         @arg @ref LL_AHB5_GRP1_PERIPH_XSPI1
2109:STM32Cube_FW_N6/Drivers/STM32N6xx_HAL_Driver/Inc/stm32n6xx_ll_bus.h ****   *         @arg @ref LL_AHB5_GRP1_PERIPH_XSPI2
2110:STM32Cube_FW_N6/Drivers/STM32N6xx_HAL_Driver/Inc/stm32n6xx_ll_bus.h ****   *         @arg @ref LL_AHB5_GRP1_PERIPH_XSPI3
2111:STM32Cube_FW_N6/Drivers/STM32N6xx_HAL_Driver/Inc/stm32n6xx_ll_bus.h ****   *         @arg @ref LL_AHB5_GRP1_PERIPH_XSPIM
2112:STM32Cube_FW_N6/Drivers/STM32N6xx_HAL_Driver/Inc/stm32n6xx_ll_bus.h ****   *         @arg @ref LL_AHB5_GRP1_PERIPH_PSSI
2113:STM32Cube_FW_N6/Drivers/STM32N6xx_HAL_Driver/Inc/stm32n6xx_ll_bus.h ****   *         @arg @ref LL_AHB5_GRP1_PERIPH_SDMMC1
2114:STM32Cube_FW_N6/Drivers/STM32N6xx_HAL_Driver/Inc/stm32n6xx_ll_bus.h ****   *         @arg @ref LL_AHB5_GRP1_PERIPH_SDMMC2
2115:STM32Cube_FW_N6/Drivers/STM32N6xx_HAL_Driver/Inc/stm32n6xx_ll_bus.h ****   *         @arg @ref LL_AHB5_GRP1_PERIPH_MCE1 (*)
2116:STM32Cube_FW_N6/Drivers/STM32N6xx_HAL_Driver/Inc/stm32n6xx_ll_bus.h ****   *         @arg @ref LL_AHB5_GRP1_PERIPH_MCE2 (*)
2117:STM32Cube_FW_N6/Drivers/STM32N6xx_HAL_Driver/Inc/stm32n6xx_ll_bus.h ****   *         @arg @ref LL_AHB5_GRP1_PERIPH_MCE3 (*)
2118:STM32Cube_FW_N6/Drivers/STM32N6xx_HAL_Driver/Inc/stm32n6xx_ll_bus.h ****   *         @arg @ref LL_AHB5_GRP1_PERIPH_MCE4 (*)
2119:STM32Cube_FW_N6/Drivers/STM32N6xx_HAL_Driver/Inc/stm32n6xx_ll_bus.h ****   *         @arg @ref LL_AHB5_GRP1_PERIPH_GFXMMU
2120:STM32Cube_FW_N6/Drivers/STM32N6xx_HAL_Driver/Inc/stm32n6xx_ll_bus.h ****   *         @arg @ref LL_AHB5_GRP1_PERIPH_GPU2D
2121:STM32Cube_FW_N6/Drivers/STM32N6xx_HAL_Driver/Inc/stm32n6xx_ll_bus.h ****   *         @arg @ref LL_AHB5_GRP1_PERIPH_ETH1
2122:STM32Cube_FW_N6/Drivers/STM32N6xx_HAL_Driver/Inc/stm32n6xx_ll_bus.h ****   *         @arg @ref LL_AHB5_GRP1_PERIPH_ETH1MAC
2123:STM32Cube_FW_N6/Drivers/STM32N6xx_HAL_Driver/Inc/stm32n6xx_ll_bus.h ****   *         @arg @ref LL_AHB5_GRP1_PERIPH_ETH1TX
2124:STM32Cube_FW_N6/Drivers/STM32N6xx_HAL_Driver/Inc/stm32n6xx_ll_bus.h ****   *         @arg @ref LL_AHB5_GRP1_PERIPH_ETH1RX
2125:STM32Cube_FW_N6/Drivers/STM32N6xx_HAL_Driver/Inc/stm32n6xx_ll_bus.h ****   *         @arg @ref LL_AHB5_GRP1_PERIPH_OTG1
2126:STM32Cube_FW_N6/Drivers/STM32N6xx_HAL_Driver/Inc/stm32n6xx_ll_bus.h ****   *         @arg @ref LL_AHB5_GRP1_PERIPH_OTG2
2127:STM32Cube_FW_N6/Drivers/STM32N6xx_HAL_Driver/Inc/stm32n6xx_ll_bus.h ****   *         @arg @ref LL_AHB5_GRP1_PERIPH_OTGPHY1
2128:STM32Cube_FW_N6/Drivers/STM32N6xx_HAL_Driver/Inc/stm32n6xx_ll_bus.h ****   *         @arg @ref LL_AHB5_GRP1_PERIPH_OTGPHY2
2129:STM32Cube_FW_N6/Drivers/STM32N6xx_HAL_Driver/Inc/stm32n6xx_ll_bus.h ****   *         @arg @ref LL_AHB5_GRP1_PERIPH_CACHEAXI
2130:STM32Cube_FW_N6/Drivers/STM32N6xx_HAL_Driver/Inc/stm32n6xx_ll_bus.h ****   *         @arg @ref LL_AHB5_GRP1_PERIPH_NPU
2131:STM32Cube_FW_N6/Drivers/STM32N6xx_HAL_Driver/Inc/stm32n6xx_ll_bus.h ****   *
2132:STM32Cube_FW_N6/Drivers/STM32N6xx_HAL_Driver/Inc/stm32n6xx_ll_bus.h ****   *         (*) value not defined in all devices.
2133:STM32Cube_FW_N6/Drivers/STM32N6xx_HAL_Driver/Inc/stm32n6xx_ll_bus.h ****   * @retval uint32_t
ARM GAS  C:\Users\DJESSOU\AppData\Local\Temp\cc3dm0Vf.s 			page 170


2134:STM32Cube_FW_N6/Drivers/STM32N6xx_HAL_Driver/Inc/stm32n6xx_ll_bus.h ****   */
2135:STM32Cube_FW_N6/Drivers/STM32N6xx_HAL_Driver/Inc/stm32n6xx_ll_bus.h **** __STATIC_INLINE uint32_t LL_AHB5_GRP1_IsEnabledClockLowPower(uint32_t Periphs)
2136:STM32Cube_FW_N6/Drivers/STM32N6xx_HAL_Driver/Inc/stm32n6xx_ll_bus.h **** {
2137:STM32Cube_FW_N6/Drivers/STM32N6xx_HAL_Driver/Inc/stm32n6xx_ll_bus.h ****   return ((READ_BIT(RCC->AHB5LPENR, Periphs) == Periphs) ? 1UL : 0UL);
2138:STM32Cube_FW_N6/Drivers/STM32N6xx_HAL_Driver/Inc/stm32n6xx_ll_bus.h **** }
2139:STM32Cube_FW_N6/Drivers/STM32N6xx_HAL_Driver/Inc/stm32n6xx_ll_bus.h **** 
2140:STM32Cube_FW_N6/Drivers/STM32N6xx_HAL_Driver/Inc/stm32n6xx_ll_bus.h **** /**
2141:STM32Cube_FW_N6/Drivers/STM32N6xx_HAL_Driver/Inc/stm32n6xx_ll_bus.h ****   * @brief  Disable AHB5 peripherals clock during Low Power mode.
2142:STM32Cube_FW_N6/Drivers/STM32N6xx_HAL_Driver/Inc/stm32n6xx_ll_bus.h ****   * @rmtoll AHB5LPENCR   HPDMA1LPENC   LL_AHB5_GRP1_DisableClockLowPower\n
2143:STM32Cube_FW_N6/Drivers/STM32N6xx_HAL_Driver/Inc/stm32n6xx_ll_bus.h ****   *         AHB5LPENCR   DMA2DLPENC    LL_AHB5_GRP1_DisableClockLowPower\n
2144:STM32Cube_FW_N6/Drivers/STM32N6xx_HAL_Driver/Inc/stm32n6xx_ll_bus.h ****   *         AHB5LPENCR   JPEGLPENC     LL_AHB5_GRP1_DisableClockLowPower\n
2145:STM32Cube_FW_N6/Drivers/STM32N6xx_HAL_Driver/Inc/stm32n6xx_ll_bus.h ****   *         AHB5LPENCR   FMCLPENC      LL_AHB5_GRP1_DisableClockLowPower\n
2146:STM32Cube_FW_N6/Drivers/STM32N6xx_HAL_Driver/Inc/stm32n6xx_ll_bus.h ****   *         AHB5LPENCR   XSPI1LPENC    LL_AHB5_GRP1_DisableClockLowPower\n
2147:STM32Cube_FW_N6/Drivers/STM32N6xx_HAL_Driver/Inc/stm32n6xx_ll_bus.h ****   *         AHB5LPENCR   PSSILPENC     LL_AHB5_GRP1_DisableClockLowPower\n
2148:STM32Cube_FW_N6/Drivers/STM32N6xx_HAL_Driver/Inc/stm32n6xx_ll_bus.h ****   *         AHB5LPENCR   SDMMC2LPENC   LL_AHB5_GRP1_DisableClockLowPower\n
2149:STM32Cube_FW_N6/Drivers/STM32N6xx_HAL_Driver/Inc/stm32n6xx_ll_bus.h ****   *         AHB5LPENCR   SDMMC1LPENC   LL_AHB5_GRP1_DisableClockLowPower\n
2150:STM32Cube_FW_N6/Drivers/STM32N6xx_HAL_Driver/Inc/stm32n6xx_ll_bus.h ****   *         AHB5LPENCR   XSPI2LPENC    LL_AHB5_GRP1_DisableClockLowPower\n
2151:STM32Cube_FW_N6/Drivers/STM32N6xx_HAL_Driver/Inc/stm32n6xx_ll_bus.h ****   *         AHB5LPENCR   XSPIMLPENC    LL_AHB5_GRP1_DisableClockLowPower\n
2152:STM32Cube_FW_N6/Drivers/STM32N6xx_HAL_Driver/Inc/stm32n6xx_ll_bus.h ****   *         AHB5LPENCR   MCE1LPENC     LL_AHB5_GRP1_DisableClockLowPower\n (*)
2153:STM32Cube_FW_N6/Drivers/STM32N6xx_HAL_Driver/Inc/stm32n6xx_ll_bus.h ****   *         AHB5LPENCR   MCE2LPENC     LL_AHB5_GRP1_DisableClockLowPower\n (*)
2154:STM32Cube_FW_N6/Drivers/STM32N6xx_HAL_Driver/Inc/stm32n6xx_ll_bus.h ****   *         AHB5LPENCR   MCE3LPENC     LL_AHB5_GRP1_DisableClockLowPower\n (*)
2155:STM32Cube_FW_N6/Drivers/STM32N6xx_HAL_Driver/Inc/stm32n6xx_ll_bus.h ****   *         AHB5LPENCR   XSPI3LPENC    LL_AHB5_GRP1_DisableClockLowPower\n
2156:STM32Cube_FW_N6/Drivers/STM32N6xx_HAL_Driver/Inc/stm32n6xx_ll_bus.h ****   *         AHB5LPENCR   MCE4LPENC     LL_AHB5_GRP1_DisableClockLowPower\n (*)
2157:STM32Cube_FW_N6/Drivers/STM32N6xx_HAL_Driver/Inc/stm32n6xx_ll_bus.h ****   *         AHB5LPENCR   GFXMMULPENC   LL_AHB5_GRP1_DisableClockLowPower\n
2158:STM32Cube_FW_N6/Drivers/STM32N6xx_HAL_Driver/Inc/stm32n6xx_ll_bus.h ****   *         AHB5LPENCR   GPU2DLPENC    LL_AHB5_GRP1_DisableClockLowPower\n
2159:STM32Cube_FW_N6/Drivers/STM32N6xx_HAL_Driver/Inc/stm32n6xx_ll_bus.h ****   *         AHB5LPENCR   ETH1MACLPENC  LL_AHB5_GRP1_DisableClockLowPower\n
2160:STM32Cube_FW_N6/Drivers/STM32N6xx_HAL_Driver/Inc/stm32n6xx_ll_bus.h ****   *         AHB5LPENCR   ETH1TXLPENC   LL_AHB5_GRP1_DisableClockLowPower\n
2161:STM32Cube_FW_N6/Drivers/STM32N6xx_HAL_Driver/Inc/stm32n6xx_ll_bus.h ****   *         AHB5LPENCR   ETH1RXLPENC   LL_AHB5_GRP1_DisableClockLowPower\n
2162:STM32Cube_FW_N6/Drivers/STM32N6xx_HAL_Driver/Inc/stm32n6xx_ll_bus.h ****   *         AHB5LPENCR   ETH1LPENC     LL_AHB5_GRP1_DisableClockLowPower\n
2163:STM32Cube_FW_N6/Drivers/STM32N6xx_HAL_Driver/Inc/stm32n6xx_ll_bus.h ****   *         AHB5LPENCR   OTG1LPENC     LL_AHB5_GRP1_DisableClockLowPower\n
2164:STM32Cube_FW_N6/Drivers/STM32N6xx_HAL_Driver/Inc/stm32n6xx_ll_bus.h ****   *         AHB5LPENCR   OTGPHY1LPENC  LL_AHB5_GRP1_DisableClockLowPower\n
2165:STM32Cube_FW_N6/Drivers/STM32N6xx_HAL_Driver/Inc/stm32n6xx_ll_bus.h ****   *         AHB5LPENCR   OTGPHY2LPENC  LL_AHB5_GRP1_DisableClockLowPower\n
2166:STM32Cube_FW_N6/Drivers/STM32N6xx_HAL_Driver/Inc/stm32n6xx_ll_bus.h ****   *         AHB5LPENCR   OTG2LPENC     LL_AHB5_GRP1_DisableClockLowPower\n
2167:STM32Cube_FW_N6/Drivers/STM32N6xx_HAL_Driver/Inc/stm32n6xx_ll_bus.h ****   *         AHB5LPENCR   CACHEAXILPENC LL_AHB5_GRP1_DisableClockLowPower\n
2168:STM32Cube_FW_N6/Drivers/STM32N6xx_HAL_Driver/Inc/stm32n6xx_ll_bus.h ****   *         AHB5LPENCR   NPULPENC      LL_AHB5_GRP1_DisableClockLowPower
2169:STM32Cube_FW_N6/Drivers/STM32N6xx_HAL_Driver/Inc/stm32n6xx_ll_bus.h ****   * @param  Periphs This parameter can be a combination of the following values:
2170:STM32Cube_FW_N6/Drivers/STM32N6xx_HAL_Driver/Inc/stm32n6xx_ll_bus.h ****   *         @arg @ref LL_AHB5_GRP1_PERIPH_HPDMA1
2171:STM32Cube_FW_N6/Drivers/STM32N6xx_HAL_Driver/Inc/stm32n6xx_ll_bus.h ****   *         @arg @ref LL_AHB5_GRP1_PERIPH_DMA2D
2172:STM32Cube_FW_N6/Drivers/STM32N6xx_HAL_Driver/Inc/stm32n6xx_ll_bus.h ****   *         @arg @ref LL_AHB5_GRP1_PERIPH_JPEG
2173:STM32Cube_FW_N6/Drivers/STM32N6xx_HAL_Driver/Inc/stm32n6xx_ll_bus.h ****   *         @arg @ref LL_AHB5_GRP1_PERIPH_FMC
2174:STM32Cube_FW_N6/Drivers/STM32N6xx_HAL_Driver/Inc/stm32n6xx_ll_bus.h ****   *         @arg @ref LL_AHB5_GRP1_PERIPH_XSPI1
2175:STM32Cube_FW_N6/Drivers/STM32N6xx_HAL_Driver/Inc/stm32n6xx_ll_bus.h ****   *         @arg @ref LL_AHB5_GRP1_PERIPH_XSPI2
2176:STM32Cube_FW_N6/Drivers/STM32N6xx_HAL_Driver/Inc/stm32n6xx_ll_bus.h ****   *         @arg @ref LL_AHB5_GRP1_PERIPH_XSPI3
2177:STM32Cube_FW_N6/Drivers/STM32N6xx_HAL_Driver/Inc/stm32n6xx_ll_bus.h ****   *         @arg @ref LL_AHB5_GRP1_PERIPH_XSPIM
2178:STM32Cube_FW_N6/Drivers/STM32N6xx_HAL_Driver/Inc/stm32n6xx_ll_bus.h ****   *         @arg @ref LL_AHB5_GRP1_PERIPH_PSSI
2179:STM32Cube_FW_N6/Drivers/STM32N6xx_HAL_Driver/Inc/stm32n6xx_ll_bus.h ****   *         @arg @ref LL_AHB5_GRP1_PERIPH_SDMMC1
2180:STM32Cube_FW_N6/Drivers/STM32N6xx_HAL_Driver/Inc/stm32n6xx_ll_bus.h ****   *         @arg @ref LL_AHB5_GRP1_PERIPH_SDMMC2
2181:STM32Cube_FW_N6/Drivers/STM32N6xx_HAL_Driver/Inc/stm32n6xx_ll_bus.h ****   *         @arg @ref LL_AHB5_GRP1_PERIPH_MCE1 (*)
2182:STM32Cube_FW_N6/Drivers/STM32N6xx_HAL_Driver/Inc/stm32n6xx_ll_bus.h ****   *         @arg @ref LL_AHB5_GRP1_PERIPH_MCE2 (*)
2183:STM32Cube_FW_N6/Drivers/STM32N6xx_HAL_Driver/Inc/stm32n6xx_ll_bus.h ****   *         @arg @ref LL_AHB5_GRP1_PERIPH_MCE3 (*)
2184:STM32Cube_FW_N6/Drivers/STM32N6xx_HAL_Driver/Inc/stm32n6xx_ll_bus.h ****   *         @arg @ref LL_AHB5_GRP1_PERIPH_MCE4 (*)
2185:STM32Cube_FW_N6/Drivers/STM32N6xx_HAL_Driver/Inc/stm32n6xx_ll_bus.h ****   *         @arg @ref LL_AHB5_GRP1_PERIPH_GFXMMU
2186:STM32Cube_FW_N6/Drivers/STM32N6xx_HAL_Driver/Inc/stm32n6xx_ll_bus.h ****   *         @arg @ref LL_AHB5_GRP1_PERIPH_GPU2D
2187:STM32Cube_FW_N6/Drivers/STM32N6xx_HAL_Driver/Inc/stm32n6xx_ll_bus.h ****   *         @arg @ref LL_AHB5_GRP1_PERIPH_ETH1
2188:STM32Cube_FW_N6/Drivers/STM32N6xx_HAL_Driver/Inc/stm32n6xx_ll_bus.h ****   *         @arg @ref LL_AHB5_GRP1_PERIPH_ETH1MAC
2189:STM32Cube_FW_N6/Drivers/STM32N6xx_HAL_Driver/Inc/stm32n6xx_ll_bus.h ****   *         @arg @ref LL_AHB5_GRP1_PERIPH_ETH1TX
2190:STM32Cube_FW_N6/Drivers/STM32N6xx_HAL_Driver/Inc/stm32n6xx_ll_bus.h ****   *         @arg @ref LL_AHB5_GRP1_PERIPH_ETH1RX
ARM GAS  C:\Users\DJESSOU\AppData\Local\Temp\cc3dm0Vf.s 			page 171


2191:STM32Cube_FW_N6/Drivers/STM32N6xx_HAL_Driver/Inc/stm32n6xx_ll_bus.h ****   *         @arg @ref LL_AHB5_GRP1_PERIPH_OTG1
2192:STM32Cube_FW_N6/Drivers/STM32N6xx_HAL_Driver/Inc/stm32n6xx_ll_bus.h ****   *         @arg @ref LL_AHB5_GRP1_PERIPH_OTG2
2193:STM32Cube_FW_N6/Drivers/STM32N6xx_HAL_Driver/Inc/stm32n6xx_ll_bus.h ****   *         @arg @ref LL_AHB5_GRP1_PERIPH_OTGPHY1
2194:STM32Cube_FW_N6/Drivers/STM32N6xx_HAL_Driver/Inc/stm32n6xx_ll_bus.h ****   *         @arg @ref LL_AHB5_GRP1_PERIPH_OTGPHY2
2195:STM32Cube_FW_N6/Drivers/STM32N6xx_HAL_Driver/Inc/stm32n6xx_ll_bus.h ****   *         @arg @ref LL_AHB5_GRP1_PERIPH_CACHEAXI
2196:STM32Cube_FW_N6/Drivers/STM32N6xx_HAL_Driver/Inc/stm32n6xx_ll_bus.h ****   *         @arg @ref LL_AHB5_GRP1_PERIPH_NPU
2197:STM32Cube_FW_N6/Drivers/STM32N6xx_HAL_Driver/Inc/stm32n6xx_ll_bus.h ****   *
2198:STM32Cube_FW_N6/Drivers/STM32N6xx_HAL_Driver/Inc/stm32n6xx_ll_bus.h ****   *         (*) value not defined in all devices.
2199:STM32Cube_FW_N6/Drivers/STM32N6xx_HAL_Driver/Inc/stm32n6xx_ll_bus.h ****   * @retval None
2200:STM32Cube_FW_N6/Drivers/STM32N6xx_HAL_Driver/Inc/stm32n6xx_ll_bus.h ****   */
2201:STM32Cube_FW_N6/Drivers/STM32N6xx_HAL_Driver/Inc/stm32n6xx_ll_bus.h **** __STATIC_INLINE void LL_AHB5_GRP1_DisableClockLowPower(uint32_t Periphs)
2202:STM32Cube_FW_N6/Drivers/STM32N6xx_HAL_Driver/Inc/stm32n6xx_ll_bus.h **** {
2203:STM32Cube_FW_N6/Drivers/STM32N6xx_HAL_Driver/Inc/stm32n6xx_ll_bus.h ****   WRITE_REG(RCC->AHB5LPENCR, Periphs);
2204:STM32Cube_FW_N6/Drivers/STM32N6xx_HAL_Driver/Inc/stm32n6xx_ll_bus.h **** }
2205:STM32Cube_FW_N6/Drivers/STM32N6xx_HAL_Driver/Inc/stm32n6xx_ll_bus.h **** 
2206:STM32Cube_FW_N6/Drivers/STM32N6xx_HAL_Driver/Inc/stm32n6xx_ll_bus.h **** /**
2207:STM32Cube_FW_N6/Drivers/STM32N6xx_HAL_Driver/Inc/stm32n6xx_ll_bus.h ****   * @}
2208:STM32Cube_FW_N6/Drivers/STM32N6xx_HAL_Driver/Inc/stm32n6xx_ll_bus.h ****   */
2209:STM32Cube_FW_N6/Drivers/STM32N6xx_HAL_Driver/Inc/stm32n6xx_ll_bus.h **** 
2210:STM32Cube_FW_N6/Drivers/STM32N6xx_HAL_Driver/Inc/stm32n6xx_ll_bus.h **** /** @defgroup BUS_LL_EF_APB1 APB1
2211:STM32Cube_FW_N6/Drivers/STM32N6xx_HAL_Driver/Inc/stm32n6xx_ll_bus.h ****   * @{
2212:STM32Cube_FW_N6/Drivers/STM32N6xx_HAL_Driver/Inc/stm32n6xx_ll_bus.h ****   */
2213:STM32Cube_FW_N6/Drivers/STM32N6xx_HAL_Driver/Inc/stm32n6xx_ll_bus.h **** 
2214:STM32Cube_FW_N6/Drivers/STM32N6xx_HAL_Driver/Inc/stm32n6xx_ll_bus.h **** /**
2215:STM32Cube_FW_N6/Drivers/STM32N6xx_HAL_Driver/Inc/stm32n6xx_ll_bus.h ****   * @brief  Enable APB1 peripherals clock.
2216:STM32Cube_FW_N6/Drivers/STM32N6xx_HAL_Driver/Inc/stm32n6xx_ll_bus.h ****   * @rmtoll APB1ENSR1    TIM2ENS       LL_APB1_GRP1_EnableClock\n
2217:STM32Cube_FW_N6/Drivers/STM32N6xx_HAL_Driver/Inc/stm32n6xx_ll_bus.h ****   *         APB1ENSR1    TIM3ENS       LL_APB1_GRP1_EnableClock\n
2218:STM32Cube_FW_N6/Drivers/STM32N6xx_HAL_Driver/Inc/stm32n6xx_ll_bus.h ****   *         APB1ENSR1    TIM4ENS       LL_APB1_GRP1_EnableClock\n
2219:STM32Cube_FW_N6/Drivers/STM32N6xx_HAL_Driver/Inc/stm32n6xx_ll_bus.h ****   *         APB1ENSR1    TIM5ENS       LL_APB1_GRP1_EnableClock\n
2220:STM32Cube_FW_N6/Drivers/STM32N6xx_HAL_Driver/Inc/stm32n6xx_ll_bus.h ****   *         APB1ENSR1    TIM6ENS       LL_APB1_GRP1_EnableClock\n
2221:STM32Cube_FW_N6/Drivers/STM32N6xx_HAL_Driver/Inc/stm32n6xx_ll_bus.h ****   *         APB1ENSR1    TIM7ENS       LL_APB1_GRP1_EnableClock\n
2222:STM32Cube_FW_N6/Drivers/STM32N6xx_HAL_Driver/Inc/stm32n6xx_ll_bus.h ****   *         APB1ENSR1    TIM12ENS      LL_APB1_GRP1_EnableClock\n
2223:STM32Cube_FW_N6/Drivers/STM32N6xx_HAL_Driver/Inc/stm32n6xx_ll_bus.h ****   *         APB1ENSR1    TIM13ENS      LL_APB1_GRP1_EnableClock\n
2224:STM32Cube_FW_N6/Drivers/STM32N6xx_HAL_Driver/Inc/stm32n6xx_ll_bus.h ****   *         APB1ENSR1    TIM14ENS      LL_APB1_GRP1_EnableClock\n
2225:STM32Cube_FW_N6/Drivers/STM32N6xx_HAL_Driver/Inc/stm32n6xx_ll_bus.h ****   *         APB1ENSR1    LPTIM1ENS     LL_APB1_GRP1_EnableClock\n
2226:STM32Cube_FW_N6/Drivers/STM32N6xx_HAL_Driver/Inc/stm32n6xx_ll_bus.h ****   *         APB1ENSR1    WWDGENS       LL_APB1_GRP1_EnableClock\n
2227:STM32Cube_FW_N6/Drivers/STM32N6xx_HAL_Driver/Inc/stm32n6xx_ll_bus.h ****   *         APB1ENSR1    TIM10ENS      LL_APB1_GRP1_EnableClock\n
2228:STM32Cube_FW_N6/Drivers/STM32N6xx_HAL_Driver/Inc/stm32n6xx_ll_bus.h ****   *         APB1ENSR1    TIM11ENS      LL_APB1_GRP1_EnableClock\n
2229:STM32Cube_FW_N6/Drivers/STM32N6xx_HAL_Driver/Inc/stm32n6xx_ll_bus.h ****   *         APB1ENSR1    SPI2ENS       LL_APB1_GRP1_EnableClock\n
2230:STM32Cube_FW_N6/Drivers/STM32N6xx_HAL_Driver/Inc/stm32n6xx_ll_bus.h ****   *         APB1ENSR1    SPI3ENS       LL_APB1_GRP1_EnableClock\n
2231:STM32Cube_FW_N6/Drivers/STM32N6xx_HAL_Driver/Inc/stm32n6xx_ll_bus.h ****   *         APB1ENSR1    SPDIFRX1ENS   LL_APB1_GRP1_EnableClock\n
2232:STM32Cube_FW_N6/Drivers/STM32N6xx_HAL_Driver/Inc/stm32n6xx_ll_bus.h ****   *         APB1ENSR1    USART2ENS     LL_APB1_GRP1_EnableClock\n
2233:STM32Cube_FW_N6/Drivers/STM32N6xx_HAL_Driver/Inc/stm32n6xx_ll_bus.h ****   *         APB1ENSR1    USART3ENS     LL_APB1_GRP1_EnableClock\n
2234:STM32Cube_FW_N6/Drivers/STM32N6xx_HAL_Driver/Inc/stm32n6xx_ll_bus.h ****   *         APB1ENSR1    UART4ENS      LL_APB1_GRP1_EnableClock\n
2235:STM32Cube_FW_N6/Drivers/STM32N6xx_HAL_Driver/Inc/stm32n6xx_ll_bus.h ****   *         APB1ENSR1    UART5ENS      LL_APB1_GRP1_EnableClock\n
2236:STM32Cube_FW_N6/Drivers/STM32N6xx_HAL_Driver/Inc/stm32n6xx_ll_bus.h ****   *         APB1ENSR1    I2C1ENS       LL_APB1_GRP1_EnableClock\n
2237:STM32Cube_FW_N6/Drivers/STM32N6xx_HAL_Driver/Inc/stm32n6xx_ll_bus.h ****   *         APB1ENSR1    I2C2ENS       LL_APB1_GRP1_EnableClock\n
2238:STM32Cube_FW_N6/Drivers/STM32N6xx_HAL_Driver/Inc/stm32n6xx_ll_bus.h ****   *         APB1ENSR1    I2C3ENS       LL_APB1_GRP1_EnableClock\n
2239:STM32Cube_FW_N6/Drivers/STM32N6xx_HAL_Driver/Inc/stm32n6xx_ll_bus.h ****   *         APB1ENSR1    I3C1ENS       LL_APB1_GRP1_EnableClock\n
2240:STM32Cube_FW_N6/Drivers/STM32N6xx_HAL_Driver/Inc/stm32n6xx_ll_bus.h ****   *         APB1ENSR1    I3C2ENS       LL_APB1_GRP1_EnableClock\n
2241:STM32Cube_FW_N6/Drivers/STM32N6xx_HAL_Driver/Inc/stm32n6xx_ll_bus.h ****   *         APB1ENSR1    UART7ENS      LL_APB1_GRP1_EnableClock\n
2242:STM32Cube_FW_N6/Drivers/STM32N6xx_HAL_Driver/Inc/stm32n6xx_ll_bus.h ****   *         APB1ENSR1    UART8ENS      LL_APB1_GRP1_EnableClock
2243:STM32Cube_FW_N6/Drivers/STM32N6xx_HAL_Driver/Inc/stm32n6xx_ll_bus.h ****   * @param  Periphs This parameter can be a combination of the following values:
2244:STM32Cube_FW_N6/Drivers/STM32N6xx_HAL_Driver/Inc/stm32n6xx_ll_bus.h ****   *         @arg @ref LL_APB1_GRP1_PERIPH_I2C1
2245:STM32Cube_FW_N6/Drivers/STM32N6xx_HAL_Driver/Inc/stm32n6xx_ll_bus.h ****   *         @arg @ref LL_APB1_GRP1_PERIPH_I2C2
2246:STM32Cube_FW_N6/Drivers/STM32N6xx_HAL_Driver/Inc/stm32n6xx_ll_bus.h ****   *         @arg @ref LL_APB1_GRP1_PERIPH_I2C3
2247:STM32Cube_FW_N6/Drivers/STM32N6xx_HAL_Driver/Inc/stm32n6xx_ll_bus.h ****   *         @arg @ref LL_APB1_GRP1_PERIPH_I3C1
ARM GAS  C:\Users\DJESSOU\AppData\Local\Temp\cc3dm0Vf.s 			page 172


2248:STM32Cube_FW_N6/Drivers/STM32N6xx_HAL_Driver/Inc/stm32n6xx_ll_bus.h ****   *         @arg @ref LL_APB1_GRP1_PERIPH_I3C2
2249:STM32Cube_FW_N6/Drivers/STM32N6xx_HAL_Driver/Inc/stm32n6xx_ll_bus.h ****   *         @arg @ref LL_APB1_GRP1_PERIPH_LPTIM1
2250:STM32Cube_FW_N6/Drivers/STM32N6xx_HAL_Driver/Inc/stm32n6xx_ll_bus.h ****   *         @arg @ref LL_APB1_GRP1_PERIPH_SPDIFRX1
2251:STM32Cube_FW_N6/Drivers/STM32N6xx_HAL_Driver/Inc/stm32n6xx_ll_bus.h ****   *         @arg @ref LL_APB1_GRP1_PERIPH_SPI2
2252:STM32Cube_FW_N6/Drivers/STM32N6xx_HAL_Driver/Inc/stm32n6xx_ll_bus.h ****   *         @arg @ref LL_APB1_GRP1_PERIPH_SPI3
2253:STM32Cube_FW_N6/Drivers/STM32N6xx_HAL_Driver/Inc/stm32n6xx_ll_bus.h ****   *         @arg @ref LL_APB1_GRP1_PERIPH_TIM2
2254:STM32Cube_FW_N6/Drivers/STM32N6xx_HAL_Driver/Inc/stm32n6xx_ll_bus.h ****   *         @arg @ref LL_APB1_GRP1_PERIPH_TIM3
2255:STM32Cube_FW_N6/Drivers/STM32N6xx_HAL_Driver/Inc/stm32n6xx_ll_bus.h ****   *         @arg @ref LL_APB1_GRP1_PERIPH_TIM4
2256:STM32Cube_FW_N6/Drivers/STM32N6xx_HAL_Driver/Inc/stm32n6xx_ll_bus.h ****   *         @arg @ref LL_APB1_GRP1_PERIPH_TIM5
2257:STM32Cube_FW_N6/Drivers/STM32N6xx_HAL_Driver/Inc/stm32n6xx_ll_bus.h ****   *         @arg @ref LL_APB1_GRP1_PERIPH_TIM6
2258:STM32Cube_FW_N6/Drivers/STM32N6xx_HAL_Driver/Inc/stm32n6xx_ll_bus.h ****   *         @arg @ref LL_APB1_GRP1_PERIPH_TIM7
2259:STM32Cube_FW_N6/Drivers/STM32N6xx_HAL_Driver/Inc/stm32n6xx_ll_bus.h ****   *         @arg @ref LL_APB1_GRP1_PERIPH_TIM10
2260:STM32Cube_FW_N6/Drivers/STM32N6xx_HAL_Driver/Inc/stm32n6xx_ll_bus.h ****   *         @arg @ref LL_APB1_GRP1_PERIPH_TIM11
2261:STM32Cube_FW_N6/Drivers/STM32N6xx_HAL_Driver/Inc/stm32n6xx_ll_bus.h ****   *         @arg @ref LL_APB1_GRP1_PERIPH_TIM12
2262:STM32Cube_FW_N6/Drivers/STM32N6xx_HAL_Driver/Inc/stm32n6xx_ll_bus.h ****   *         @arg @ref LL_APB1_GRP1_PERIPH_TIM13
2263:STM32Cube_FW_N6/Drivers/STM32N6xx_HAL_Driver/Inc/stm32n6xx_ll_bus.h ****   *         @arg @ref LL_APB1_GRP1_PERIPH_TIM14
2264:STM32Cube_FW_N6/Drivers/STM32N6xx_HAL_Driver/Inc/stm32n6xx_ll_bus.h ****   *         @arg @ref LL_APB1_GRP1_PERIPH_USART2
2265:STM32Cube_FW_N6/Drivers/STM32N6xx_HAL_Driver/Inc/stm32n6xx_ll_bus.h ****   *         @arg @ref LL_APB1_GRP1_PERIPH_USART3
2266:STM32Cube_FW_N6/Drivers/STM32N6xx_HAL_Driver/Inc/stm32n6xx_ll_bus.h ****   *         @arg @ref LL_APB1_GRP1_PERIPH_UART4
2267:STM32Cube_FW_N6/Drivers/STM32N6xx_HAL_Driver/Inc/stm32n6xx_ll_bus.h ****   *         @arg @ref LL_APB1_GRP1_PERIPH_UART5
2268:STM32Cube_FW_N6/Drivers/STM32N6xx_HAL_Driver/Inc/stm32n6xx_ll_bus.h ****   *         @arg @ref LL_APB1_GRP1_PERIPH_UART7
2269:STM32Cube_FW_N6/Drivers/STM32N6xx_HAL_Driver/Inc/stm32n6xx_ll_bus.h ****   *         @arg @ref LL_APB1_GRP1_PERIPH_UART8
2270:STM32Cube_FW_N6/Drivers/STM32N6xx_HAL_Driver/Inc/stm32n6xx_ll_bus.h ****   *         @arg @ref LL_APB1_GRP1_PERIPH_WWDG
2271:STM32Cube_FW_N6/Drivers/STM32N6xx_HAL_Driver/Inc/stm32n6xx_ll_bus.h ****   * @retval None
2272:STM32Cube_FW_N6/Drivers/STM32N6xx_HAL_Driver/Inc/stm32n6xx_ll_bus.h ****   */
2273:STM32Cube_FW_N6/Drivers/STM32N6xx_HAL_Driver/Inc/stm32n6xx_ll_bus.h **** __STATIC_INLINE void LL_APB1_GRP1_EnableClock(uint32_t Periphs)
2274:STM32Cube_FW_N6/Drivers/STM32N6xx_HAL_Driver/Inc/stm32n6xx_ll_bus.h **** {
2275:STM32Cube_FW_N6/Drivers/STM32N6xx_HAL_Driver/Inc/stm32n6xx_ll_bus.h ****   __IO uint32_t tmpreg;
2276:STM32Cube_FW_N6/Drivers/STM32N6xx_HAL_Driver/Inc/stm32n6xx_ll_bus.h ****   WRITE_REG(RCC->APB1ENSR1, Periphs);
2277:STM32Cube_FW_N6/Drivers/STM32N6xx_HAL_Driver/Inc/stm32n6xx_ll_bus.h ****   /* Delay after an RCC peripheral clock enabling */
2278:STM32Cube_FW_N6/Drivers/STM32N6xx_HAL_Driver/Inc/stm32n6xx_ll_bus.h ****   tmpreg = READ_REG(RCC->APB1ENR1);
2279:STM32Cube_FW_N6/Drivers/STM32N6xx_HAL_Driver/Inc/stm32n6xx_ll_bus.h ****   (void)tmpreg;
2280:STM32Cube_FW_N6/Drivers/STM32N6xx_HAL_Driver/Inc/stm32n6xx_ll_bus.h **** }
2281:STM32Cube_FW_N6/Drivers/STM32N6xx_HAL_Driver/Inc/stm32n6xx_ll_bus.h **** 
2282:STM32Cube_FW_N6/Drivers/STM32N6xx_HAL_Driver/Inc/stm32n6xx_ll_bus.h **** /**
2283:STM32Cube_FW_N6/Drivers/STM32N6xx_HAL_Driver/Inc/stm32n6xx_ll_bus.h ****   * @brief  Check if APB1 peripheral clock is enabled or not
2284:STM32Cube_FW_N6/Drivers/STM32N6xx_HAL_Driver/Inc/stm32n6xx_ll_bus.h ****   * @rmtoll APB1ENR1     TIM2EN        LL_APB1_GRP1_IsEnabledClock\n
2285:STM32Cube_FW_N6/Drivers/STM32N6xx_HAL_Driver/Inc/stm32n6xx_ll_bus.h ****   *         APB1ENR1     TIM3EN        LL_APB1_GRP1_IsEnabledClock\n
2286:STM32Cube_FW_N6/Drivers/STM32N6xx_HAL_Driver/Inc/stm32n6xx_ll_bus.h ****   *         APB1ENR1     TIM4EN        LL_APB1_GRP1_IsEnabledClock\n
2287:STM32Cube_FW_N6/Drivers/STM32N6xx_HAL_Driver/Inc/stm32n6xx_ll_bus.h ****   *         APB1ENR1     TIM5EN        LL_APB1_GRP1_IsEnabledClock\n
2288:STM32Cube_FW_N6/Drivers/STM32N6xx_HAL_Driver/Inc/stm32n6xx_ll_bus.h ****   *         APB1ENR1     TIM6EN        LL_APB1_GRP1_IsEnabledClock\n
2289:STM32Cube_FW_N6/Drivers/STM32N6xx_HAL_Driver/Inc/stm32n6xx_ll_bus.h ****   *         APB1ENR1     TIM7EN        LL_APB1_GRP1_IsEnabledClock\n
2290:STM32Cube_FW_N6/Drivers/STM32N6xx_HAL_Driver/Inc/stm32n6xx_ll_bus.h ****   *         APB1ENR1     TIM12EN       LL_APB1_GRP1_IsEnabledClock\n
2291:STM32Cube_FW_N6/Drivers/STM32N6xx_HAL_Driver/Inc/stm32n6xx_ll_bus.h ****   *         APB1ENR1     TIM13EN       LL_APB1_GRP1_IsEnabledClock\n
2292:STM32Cube_FW_N6/Drivers/STM32N6xx_HAL_Driver/Inc/stm32n6xx_ll_bus.h ****   *         APB1ENR1     TIM14EN       LL_APB1_GRP1_IsEnabledClock\n
2293:STM32Cube_FW_N6/Drivers/STM32N6xx_HAL_Driver/Inc/stm32n6xx_ll_bus.h ****   *         APB1ENR1     LPTIM1EN      LL_APB1_GRP1_IsEnabledClock\n
2294:STM32Cube_FW_N6/Drivers/STM32N6xx_HAL_Driver/Inc/stm32n6xx_ll_bus.h ****   *         APB1ENR1     WWDGEN        LL_APB1_GRP1_IsEnabledClock\n
2295:STM32Cube_FW_N6/Drivers/STM32N6xx_HAL_Driver/Inc/stm32n6xx_ll_bus.h ****   *         APB1ENR1     TIM10EN       LL_APB1_GRP1_IsEnabledClock\n
2296:STM32Cube_FW_N6/Drivers/STM32N6xx_HAL_Driver/Inc/stm32n6xx_ll_bus.h ****   *         APB1ENR1     TIM11EN       LL_APB1_GRP1_IsEnabledClock\n
2297:STM32Cube_FW_N6/Drivers/STM32N6xx_HAL_Driver/Inc/stm32n6xx_ll_bus.h ****   *         APB1ENR1     SPI2EN        LL_APB1_GRP1_IsEnabledClock\n
2298:STM32Cube_FW_N6/Drivers/STM32N6xx_HAL_Driver/Inc/stm32n6xx_ll_bus.h ****   *         APB1ENR1     SPI3EN        LL_APB1_GRP1_IsEnabledClock\n
2299:STM32Cube_FW_N6/Drivers/STM32N6xx_HAL_Driver/Inc/stm32n6xx_ll_bus.h ****   *         APB1ENR1     SPDIFRX1EN    LL_APB1_GRP1_IsEnabledClock\n
2300:STM32Cube_FW_N6/Drivers/STM32N6xx_HAL_Driver/Inc/stm32n6xx_ll_bus.h ****   *         APB1ENR1     USART2EN      LL_APB1_GRP1_IsEnabledClock\n
2301:STM32Cube_FW_N6/Drivers/STM32N6xx_HAL_Driver/Inc/stm32n6xx_ll_bus.h ****   *         APB1ENR1     USART3EN      LL_APB1_GRP1_IsEnabledClock\n
2302:STM32Cube_FW_N6/Drivers/STM32N6xx_HAL_Driver/Inc/stm32n6xx_ll_bus.h ****   *         APB1ENR1     UART4EN       LL_APB1_GRP1_IsEnabledClock\n
2303:STM32Cube_FW_N6/Drivers/STM32N6xx_HAL_Driver/Inc/stm32n6xx_ll_bus.h ****   *         APB1ENR1     UART5EN       LL_APB1_GRP1_IsEnabledClock\n
2304:STM32Cube_FW_N6/Drivers/STM32N6xx_HAL_Driver/Inc/stm32n6xx_ll_bus.h ****   *         APB1ENR1     I2C1EN        LL_APB1_GRP1_IsEnabledClock\n
ARM GAS  C:\Users\DJESSOU\AppData\Local\Temp\cc3dm0Vf.s 			page 173


2305:STM32Cube_FW_N6/Drivers/STM32N6xx_HAL_Driver/Inc/stm32n6xx_ll_bus.h ****   *         APB1ENR1     I2C2EN        LL_APB1_GRP1_IsEnabledClock\n
2306:STM32Cube_FW_N6/Drivers/STM32N6xx_HAL_Driver/Inc/stm32n6xx_ll_bus.h ****   *         APB1ENR1     I2C3EN        LL_APB1_GRP1_IsEnabledClock\n
2307:STM32Cube_FW_N6/Drivers/STM32N6xx_HAL_Driver/Inc/stm32n6xx_ll_bus.h ****   *         APB1ENR1     I3C1EN        LL_APB1_GRP1_IsEnabledClock\n
2308:STM32Cube_FW_N6/Drivers/STM32N6xx_HAL_Driver/Inc/stm32n6xx_ll_bus.h ****   *         APB1ENR1     I3C2EN        LL_APB1_GRP1_IsEnabledClock\n
2309:STM32Cube_FW_N6/Drivers/STM32N6xx_HAL_Driver/Inc/stm32n6xx_ll_bus.h ****   *         APB1ENR1     UART7EN       LL_APB1_GRP1_IsEnabledClock\n
2310:STM32Cube_FW_N6/Drivers/STM32N6xx_HAL_Driver/Inc/stm32n6xx_ll_bus.h ****   *         APB1ENR1     UART8EN       LL_APB1_GRP1_IsEnabledClock
2311:STM32Cube_FW_N6/Drivers/STM32N6xx_HAL_Driver/Inc/stm32n6xx_ll_bus.h ****   * @param  Periphs This parameter can be a combination of the following values:
2312:STM32Cube_FW_N6/Drivers/STM32N6xx_HAL_Driver/Inc/stm32n6xx_ll_bus.h ****   *         @arg @ref LL_APB1_GRP1_PERIPH_I2C1
2313:STM32Cube_FW_N6/Drivers/STM32N6xx_HAL_Driver/Inc/stm32n6xx_ll_bus.h ****   *         @arg @ref LL_APB1_GRP1_PERIPH_I2C2
2314:STM32Cube_FW_N6/Drivers/STM32N6xx_HAL_Driver/Inc/stm32n6xx_ll_bus.h ****   *         @arg @ref LL_APB1_GRP1_PERIPH_I2C3
2315:STM32Cube_FW_N6/Drivers/STM32N6xx_HAL_Driver/Inc/stm32n6xx_ll_bus.h ****   *         @arg @ref LL_APB1_GRP1_PERIPH_I3C1
2316:STM32Cube_FW_N6/Drivers/STM32N6xx_HAL_Driver/Inc/stm32n6xx_ll_bus.h ****   *         @arg @ref LL_APB1_GRP1_PERIPH_I3C2
2317:STM32Cube_FW_N6/Drivers/STM32N6xx_HAL_Driver/Inc/stm32n6xx_ll_bus.h ****   *         @arg @ref LL_APB1_GRP1_PERIPH_LPTIM1
2318:STM32Cube_FW_N6/Drivers/STM32N6xx_HAL_Driver/Inc/stm32n6xx_ll_bus.h ****   *         @arg @ref LL_APB1_GRP1_PERIPH_SPDIFRX1
2319:STM32Cube_FW_N6/Drivers/STM32N6xx_HAL_Driver/Inc/stm32n6xx_ll_bus.h ****   *         @arg @ref LL_APB1_GRP1_PERIPH_SPI2
2320:STM32Cube_FW_N6/Drivers/STM32N6xx_HAL_Driver/Inc/stm32n6xx_ll_bus.h ****   *         @arg @ref LL_APB1_GRP1_PERIPH_SPI3
2321:STM32Cube_FW_N6/Drivers/STM32N6xx_HAL_Driver/Inc/stm32n6xx_ll_bus.h ****   *         @arg @ref LL_APB1_GRP1_PERIPH_TIM2
2322:STM32Cube_FW_N6/Drivers/STM32N6xx_HAL_Driver/Inc/stm32n6xx_ll_bus.h ****   *         @arg @ref LL_APB1_GRP1_PERIPH_TIM3
2323:STM32Cube_FW_N6/Drivers/STM32N6xx_HAL_Driver/Inc/stm32n6xx_ll_bus.h ****   *         @arg @ref LL_APB1_GRP1_PERIPH_TIM4
2324:STM32Cube_FW_N6/Drivers/STM32N6xx_HAL_Driver/Inc/stm32n6xx_ll_bus.h ****   *         @arg @ref LL_APB1_GRP1_PERIPH_TIM5
2325:STM32Cube_FW_N6/Drivers/STM32N6xx_HAL_Driver/Inc/stm32n6xx_ll_bus.h ****   *         @arg @ref LL_APB1_GRP1_PERIPH_TIM6
2326:STM32Cube_FW_N6/Drivers/STM32N6xx_HAL_Driver/Inc/stm32n6xx_ll_bus.h ****   *         @arg @ref LL_APB1_GRP1_PERIPH_TIM7
2327:STM32Cube_FW_N6/Drivers/STM32N6xx_HAL_Driver/Inc/stm32n6xx_ll_bus.h ****   *         @arg @ref LL_APB1_GRP1_PERIPH_TIM10
2328:STM32Cube_FW_N6/Drivers/STM32N6xx_HAL_Driver/Inc/stm32n6xx_ll_bus.h ****   *         @arg @ref LL_APB1_GRP1_PERIPH_TIM11
2329:STM32Cube_FW_N6/Drivers/STM32N6xx_HAL_Driver/Inc/stm32n6xx_ll_bus.h ****   *         @arg @ref LL_APB1_GRP1_PERIPH_TIM12
2330:STM32Cube_FW_N6/Drivers/STM32N6xx_HAL_Driver/Inc/stm32n6xx_ll_bus.h ****   *         @arg @ref LL_APB1_GRP1_PERIPH_TIM13
2331:STM32Cube_FW_N6/Drivers/STM32N6xx_HAL_Driver/Inc/stm32n6xx_ll_bus.h ****   *         @arg @ref LL_APB1_GRP1_PERIPH_TIM14
2332:STM32Cube_FW_N6/Drivers/STM32N6xx_HAL_Driver/Inc/stm32n6xx_ll_bus.h ****   *         @arg @ref LL_APB1_GRP1_PERIPH_USART2
2333:STM32Cube_FW_N6/Drivers/STM32N6xx_HAL_Driver/Inc/stm32n6xx_ll_bus.h ****   *         @arg @ref LL_APB1_GRP1_PERIPH_USART3
2334:STM32Cube_FW_N6/Drivers/STM32N6xx_HAL_Driver/Inc/stm32n6xx_ll_bus.h ****   *         @arg @ref LL_APB1_GRP1_PERIPH_UART4
2335:STM32Cube_FW_N6/Drivers/STM32N6xx_HAL_Driver/Inc/stm32n6xx_ll_bus.h ****   *         @arg @ref LL_APB1_GRP1_PERIPH_UART5
2336:STM32Cube_FW_N6/Drivers/STM32N6xx_HAL_Driver/Inc/stm32n6xx_ll_bus.h ****   *         @arg @ref LL_APB1_GRP1_PERIPH_UART7
2337:STM32Cube_FW_N6/Drivers/STM32N6xx_HAL_Driver/Inc/stm32n6xx_ll_bus.h ****   *         @arg @ref LL_APB1_GRP1_PERIPH_UART8
2338:STM32Cube_FW_N6/Drivers/STM32N6xx_HAL_Driver/Inc/stm32n6xx_ll_bus.h ****   *         @arg @ref LL_APB1_GRP1_PERIPH_WWDG
2339:STM32Cube_FW_N6/Drivers/STM32N6xx_HAL_Driver/Inc/stm32n6xx_ll_bus.h ****   * @retval uint32_t
2340:STM32Cube_FW_N6/Drivers/STM32N6xx_HAL_Driver/Inc/stm32n6xx_ll_bus.h ****   */
2341:STM32Cube_FW_N6/Drivers/STM32N6xx_HAL_Driver/Inc/stm32n6xx_ll_bus.h **** __STATIC_INLINE uint32_t LL_APB1_GRP1_IsEnabledClock(uint32_t Periphs)
2342:STM32Cube_FW_N6/Drivers/STM32N6xx_HAL_Driver/Inc/stm32n6xx_ll_bus.h **** {
2343:STM32Cube_FW_N6/Drivers/STM32N6xx_HAL_Driver/Inc/stm32n6xx_ll_bus.h ****   return ((READ_BIT(RCC->APB1ENR1, Periphs) == Periphs) ? 1UL : 0UL);
2344:STM32Cube_FW_N6/Drivers/STM32N6xx_HAL_Driver/Inc/stm32n6xx_ll_bus.h **** }
2345:STM32Cube_FW_N6/Drivers/STM32N6xx_HAL_Driver/Inc/stm32n6xx_ll_bus.h **** 
2346:STM32Cube_FW_N6/Drivers/STM32N6xx_HAL_Driver/Inc/stm32n6xx_ll_bus.h **** /**
2347:STM32Cube_FW_N6/Drivers/STM32N6xx_HAL_Driver/Inc/stm32n6xx_ll_bus.h ****   * @brief  Disable APB1 peripherals clock.
2348:STM32Cube_FW_N6/Drivers/STM32N6xx_HAL_Driver/Inc/stm32n6xx_ll_bus.h ****   * @rmtoll APB1ENCR1    TIM2ENC       LL_APB1_GRP1_DisableClock\n
2349:STM32Cube_FW_N6/Drivers/STM32N6xx_HAL_Driver/Inc/stm32n6xx_ll_bus.h ****   *         APB1ENCR1    TIM3ENC       LL_APB1_GRP1_DisableClock\n
2350:STM32Cube_FW_N6/Drivers/STM32N6xx_HAL_Driver/Inc/stm32n6xx_ll_bus.h ****   *         APB1ENCR1    TIM4ENC       LL_APB1_GRP1_DisableClock\n
2351:STM32Cube_FW_N6/Drivers/STM32N6xx_HAL_Driver/Inc/stm32n6xx_ll_bus.h ****   *         APB1ENCR1    TIM5ENC       LL_APB1_GRP1_DisableClock\n
2352:STM32Cube_FW_N6/Drivers/STM32N6xx_HAL_Driver/Inc/stm32n6xx_ll_bus.h ****   *         APB1ENCR1    TIM6ENC       LL_APB1_GRP1_DisableClock\n
2353:STM32Cube_FW_N6/Drivers/STM32N6xx_HAL_Driver/Inc/stm32n6xx_ll_bus.h ****   *         APB1ENCR1    TIM7ENC       LL_APB1_GRP1_DisableClock\n
2354:STM32Cube_FW_N6/Drivers/STM32N6xx_HAL_Driver/Inc/stm32n6xx_ll_bus.h ****   *         APB1ENCR1    TIM12ENC      LL_APB1_GRP1_DisableClock\n
2355:STM32Cube_FW_N6/Drivers/STM32N6xx_HAL_Driver/Inc/stm32n6xx_ll_bus.h ****   *         APB1ENCR1    TIM13ENC      LL_APB1_GRP1_DisableClock\n
2356:STM32Cube_FW_N6/Drivers/STM32N6xx_HAL_Driver/Inc/stm32n6xx_ll_bus.h ****   *         APB1ENCR1    TIM14ENC      LL_APB1_GRP1_DisableClock\n
2357:STM32Cube_FW_N6/Drivers/STM32N6xx_HAL_Driver/Inc/stm32n6xx_ll_bus.h ****   *         APB1ENCR1    LPTIM1ENC     LL_APB1_GRP1_DisableClock\n
2358:STM32Cube_FW_N6/Drivers/STM32N6xx_HAL_Driver/Inc/stm32n6xx_ll_bus.h ****   *         APB1ENCR1    TIM10ENC      LL_APB1_GRP1_DisableClock\n
2359:STM32Cube_FW_N6/Drivers/STM32N6xx_HAL_Driver/Inc/stm32n6xx_ll_bus.h ****   *         APB1ENCR1    TIM11ENC      LL_APB1_GRP1_DisableClock\n
2360:STM32Cube_FW_N6/Drivers/STM32N6xx_HAL_Driver/Inc/stm32n6xx_ll_bus.h ****   *         APB1ENCR1    SPI2ENC       LL_APB1_GRP1_DisableClock\n
2361:STM32Cube_FW_N6/Drivers/STM32N6xx_HAL_Driver/Inc/stm32n6xx_ll_bus.h ****   *         APB1ENCR1    SPI3ENC       LL_APB1_GRP1_DisableClock\n
ARM GAS  C:\Users\DJESSOU\AppData\Local\Temp\cc3dm0Vf.s 			page 174


2362:STM32Cube_FW_N6/Drivers/STM32N6xx_HAL_Driver/Inc/stm32n6xx_ll_bus.h ****   *         APB1ENCR1    SPDIFRX1ENC   LL_APB1_GRP1_DisableClock\n
2363:STM32Cube_FW_N6/Drivers/STM32N6xx_HAL_Driver/Inc/stm32n6xx_ll_bus.h ****   *         APB1ENCR1    USART2ENC     LL_APB1_GRP1_DisableClock\n
2364:STM32Cube_FW_N6/Drivers/STM32N6xx_HAL_Driver/Inc/stm32n6xx_ll_bus.h ****   *         APB1ENCR1    USART3ENC     LL_APB1_GRP1_DisableClock\n
2365:STM32Cube_FW_N6/Drivers/STM32N6xx_HAL_Driver/Inc/stm32n6xx_ll_bus.h ****   *         APB1ENCR1    UART4ENC      LL_APB1_GRP1_DisableClock\n
2366:STM32Cube_FW_N6/Drivers/STM32N6xx_HAL_Driver/Inc/stm32n6xx_ll_bus.h ****   *         APB1ENCR1    UART5ENC      LL_APB1_GRP1_DisableClock\n
2367:STM32Cube_FW_N6/Drivers/STM32N6xx_HAL_Driver/Inc/stm32n6xx_ll_bus.h ****   *         APB1ENCR1    I2C1ENC       LL_APB1_GRP1_DisableClock\n
2368:STM32Cube_FW_N6/Drivers/STM32N6xx_HAL_Driver/Inc/stm32n6xx_ll_bus.h ****   *         APB1ENCR1    I2C2ENC       LL_APB1_GRP1_DisableClock\n
2369:STM32Cube_FW_N6/Drivers/STM32N6xx_HAL_Driver/Inc/stm32n6xx_ll_bus.h ****   *         APB1ENCR1    I2C3ENC       LL_APB1_GRP1_DisableClock\n
2370:STM32Cube_FW_N6/Drivers/STM32N6xx_HAL_Driver/Inc/stm32n6xx_ll_bus.h ****   *         APB1ENCR1    I3C1ENC       LL_APB1_GRP1_DisableClock\n
2371:STM32Cube_FW_N6/Drivers/STM32N6xx_HAL_Driver/Inc/stm32n6xx_ll_bus.h ****   *         APB1ENCR1    I3C2ENC       LL_APB1_GRP1_DisableClock\n
2372:STM32Cube_FW_N6/Drivers/STM32N6xx_HAL_Driver/Inc/stm32n6xx_ll_bus.h ****   *         APB1ENCR1    UART7ENC      LL_APB1_GRP1_DisableClock\n
2373:STM32Cube_FW_N6/Drivers/STM32N6xx_HAL_Driver/Inc/stm32n6xx_ll_bus.h ****   *         APB1ENCR1    UART8ENC      LL_APB1_GRP1_DisableClock
2374:STM32Cube_FW_N6/Drivers/STM32N6xx_HAL_Driver/Inc/stm32n6xx_ll_bus.h ****   * @param  Periphs This parameter can be a combination of the following values:
2375:STM32Cube_FW_N6/Drivers/STM32N6xx_HAL_Driver/Inc/stm32n6xx_ll_bus.h ****   *         @arg @ref LL_APB1_GRP1_PERIPH_I2C1
2376:STM32Cube_FW_N6/Drivers/STM32N6xx_HAL_Driver/Inc/stm32n6xx_ll_bus.h ****   *         @arg @ref LL_APB1_GRP1_PERIPH_I2C2
2377:STM32Cube_FW_N6/Drivers/STM32N6xx_HAL_Driver/Inc/stm32n6xx_ll_bus.h ****   *         @arg @ref LL_APB1_GRP1_PERIPH_I2C3
2378:STM32Cube_FW_N6/Drivers/STM32N6xx_HAL_Driver/Inc/stm32n6xx_ll_bus.h ****   *         @arg @ref LL_APB1_GRP1_PERIPH_I3C1
2379:STM32Cube_FW_N6/Drivers/STM32N6xx_HAL_Driver/Inc/stm32n6xx_ll_bus.h ****   *         @arg @ref LL_APB1_GRP1_PERIPH_I3C2
2380:STM32Cube_FW_N6/Drivers/STM32N6xx_HAL_Driver/Inc/stm32n6xx_ll_bus.h ****   *         @arg @ref LL_APB1_GRP1_PERIPH_LPTIM1
2381:STM32Cube_FW_N6/Drivers/STM32N6xx_HAL_Driver/Inc/stm32n6xx_ll_bus.h ****   *         @arg @ref LL_APB1_GRP1_PERIPH_SPDIFRX1
2382:STM32Cube_FW_N6/Drivers/STM32N6xx_HAL_Driver/Inc/stm32n6xx_ll_bus.h ****   *         @arg @ref LL_APB1_GRP1_PERIPH_SPI2
2383:STM32Cube_FW_N6/Drivers/STM32N6xx_HAL_Driver/Inc/stm32n6xx_ll_bus.h ****   *         @arg @ref LL_APB1_GRP1_PERIPH_SPI3
2384:STM32Cube_FW_N6/Drivers/STM32N6xx_HAL_Driver/Inc/stm32n6xx_ll_bus.h ****   *         @arg @ref LL_APB1_GRP1_PERIPH_TIM2
2385:STM32Cube_FW_N6/Drivers/STM32N6xx_HAL_Driver/Inc/stm32n6xx_ll_bus.h ****   *         @arg @ref LL_APB1_GRP1_PERIPH_TIM3
2386:STM32Cube_FW_N6/Drivers/STM32N6xx_HAL_Driver/Inc/stm32n6xx_ll_bus.h ****   *         @arg @ref LL_APB1_GRP1_PERIPH_TIM4
2387:STM32Cube_FW_N6/Drivers/STM32N6xx_HAL_Driver/Inc/stm32n6xx_ll_bus.h ****   *         @arg @ref LL_APB1_GRP1_PERIPH_TIM5
2388:STM32Cube_FW_N6/Drivers/STM32N6xx_HAL_Driver/Inc/stm32n6xx_ll_bus.h ****   *         @arg @ref LL_APB1_GRP1_PERIPH_TIM6
2389:STM32Cube_FW_N6/Drivers/STM32N6xx_HAL_Driver/Inc/stm32n6xx_ll_bus.h ****   *         @arg @ref LL_APB1_GRP1_PERIPH_TIM7
2390:STM32Cube_FW_N6/Drivers/STM32N6xx_HAL_Driver/Inc/stm32n6xx_ll_bus.h ****   *         @arg @ref LL_APB1_GRP1_PERIPH_TIM10
2391:STM32Cube_FW_N6/Drivers/STM32N6xx_HAL_Driver/Inc/stm32n6xx_ll_bus.h ****   *         @arg @ref LL_APB1_GRP1_PERIPH_TIM11
2392:STM32Cube_FW_N6/Drivers/STM32N6xx_HAL_Driver/Inc/stm32n6xx_ll_bus.h ****   *         @arg @ref LL_APB1_GRP1_PERIPH_TIM12
2393:STM32Cube_FW_N6/Drivers/STM32N6xx_HAL_Driver/Inc/stm32n6xx_ll_bus.h ****   *         @arg @ref LL_APB1_GRP1_PERIPH_TIM13
2394:STM32Cube_FW_N6/Drivers/STM32N6xx_HAL_Driver/Inc/stm32n6xx_ll_bus.h ****   *         @arg @ref LL_APB1_GRP1_PERIPH_TIM14
2395:STM32Cube_FW_N6/Drivers/STM32N6xx_HAL_Driver/Inc/stm32n6xx_ll_bus.h ****   *         @arg @ref LL_APB1_GRP1_PERIPH_USART2
2396:STM32Cube_FW_N6/Drivers/STM32N6xx_HAL_Driver/Inc/stm32n6xx_ll_bus.h ****   *         @arg @ref LL_APB1_GRP1_PERIPH_USART3
2397:STM32Cube_FW_N6/Drivers/STM32N6xx_HAL_Driver/Inc/stm32n6xx_ll_bus.h ****   *         @arg @ref LL_APB1_GRP1_PERIPH_UART4
2398:STM32Cube_FW_N6/Drivers/STM32N6xx_HAL_Driver/Inc/stm32n6xx_ll_bus.h ****   *         @arg @ref LL_APB1_GRP1_PERIPH_UART5
2399:STM32Cube_FW_N6/Drivers/STM32N6xx_HAL_Driver/Inc/stm32n6xx_ll_bus.h ****   *         @arg @ref LL_APB1_GRP1_PERIPH_UART7
2400:STM32Cube_FW_N6/Drivers/STM32N6xx_HAL_Driver/Inc/stm32n6xx_ll_bus.h ****   *         @arg @ref LL_APB1_GRP1_PERIPH_UART8
2401:STM32Cube_FW_N6/Drivers/STM32N6xx_HAL_Driver/Inc/stm32n6xx_ll_bus.h ****   * @retval None
2402:STM32Cube_FW_N6/Drivers/STM32N6xx_HAL_Driver/Inc/stm32n6xx_ll_bus.h ****   */
2403:STM32Cube_FW_N6/Drivers/STM32N6xx_HAL_Driver/Inc/stm32n6xx_ll_bus.h **** __STATIC_INLINE void LL_APB1_GRP1_DisableClock(uint32_t Periphs)
2404:STM32Cube_FW_N6/Drivers/STM32N6xx_HAL_Driver/Inc/stm32n6xx_ll_bus.h **** {
2405:STM32Cube_FW_N6/Drivers/STM32N6xx_HAL_Driver/Inc/stm32n6xx_ll_bus.h ****   WRITE_REG(RCC->APB1ENCR1, Periphs);
2406:STM32Cube_FW_N6/Drivers/STM32N6xx_HAL_Driver/Inc/stm32n6xx_ll_bus.h **** }
2407:STM32Cube_FW_N6/Drivers/STM32N6xx_HAL_Driver/Inc/stm32n6xx_ll_bus.h **** 
2408:STM32Cube_FW_N6/Drivers/STM32N6xx_HAL_Driver/Inc/stm32n6xx_ll_bus.h **** /**
2409:STM32Cube_FW_N6/Drivers/STM32N6xx_HAL_Driver/Inc/stm32n6xx_ll_bus.h ****   * @brief  Force APB1 peripherals reset.
2410:STM32Cube_FW_N6/Drivers/STM32N6xx_HAL_Driver/Inc/stm32n6xx_ll_bus.h ****   * @rmtoll APB1RSTSR1   TIM2RSTS      LL_APB1_GRP1_ForceReset\n
2411:STM32Cube_FW_N6/Drivers/STM32N6xx_HAL_Driver/Inc/stm32n6xx_ll_bus.h ****   *         APB1RSTSR1   TIM3RSTS      LL_APB1_GRP1_ForceReset\n
2412:STM32Cube_FW_N6/Drivers/STM32N6xx_HAL_Driver/Inc/stm32n6xx_ll_bus.h ****   *         APB1RSTSR1   TIM4RSTS      LL_APB1_GRP1_ForceReset\n
2413:STM32Cube_FW_N6/Drivers/STM32N6xx_HAL_Driver/Inc/stm32n6xx_ll_bus.h ****   *         APB1RSTSR1   TIM5RSTS      LL_APB1_GRP1_ForceReset\n
2414:STM32Cube_FW_N6/Drivers/STM32N6xx_HAL_Driver/Inc/stm32n6xx_ll_bus.h ****   *         APB1RSTSR1   TIM6RSTS      LL_APB1_GRP1_ForceReset\n
2415:STM32Cube_FW_N6/Drivers/STM32N6xx_HAL_Driver/Inc/stm32n6xx_ll_bus.h ****   *         APB1RSTSR1   TIM7RSTS      LL_APB1_GRP1_ForceReset\n
2416:STM32Cube_FW_N6/Drivers/STM32N6xx_HAL_Driver/Inc/stm32n6xx_ll_bus.h ****   *         APB1RSTSR1   TIM12RSTS     LL_APB1_GRP1_ForceReset\n
2417:STM32Cube_FW_N6/Drivers/STM32N6xx_HAL_Driver/Inc/stm32n6xx_ll_bus.h ****   *         APB1RSTSR1   TIM13RSTS     LL_APB1_GRP1_ForceReset\n
2418:STM32Cube_FW_N6/Drivers/STM32N6xx_HAL_Driver/Inc/stm32n6xx_ll_bus.h ****   *         APB1RSTSR1   TIM14RSTS     LL_APB1_GRP1_ForceReset\n
ARM GAS  C:\Users\DJESSOU\AppData\Local\Temp\cc3dm0Vf.s 			page 175


2419:STM32Cube_FW_N6/Drivers/STM32N6xx_HAL_Driver/Inc/stm32n6xx_ll_bus.h ****   *         APB1RSTSR1   LPTIM1RSTS    LL_APB1_GRP1_ForceReset\n
2420:STM32Cube_FW_N6/Drivers/STM32N6xx_HAL_Driver/Inc/stm32n6xx_ll_bus.h ****   *         APB1RSTSR1   TIM10RSTS     LL_APB1_GRP1_ForceReset\n
2421:STM32Cube_FW_N6/Drivers/STM32N6xx_HAL_Driver/Inc/stm32n6xx_ll_bus.h ****   *         APB1RSTSR1   TIM11RSTS     LL_APB1_GRP1_ForceReset\n
2422:STM32Cube_FW_N6/Drivers/STM32N6xx_HAL_Driver/Inc/stm32n6xx_ll_bus.h ****   *         APB1RSTSR1   SPI2RSTS      LL_APB1_GRP1_ForceReset\n
2423:STM32Cube_FW_N6/Drivers/STM32N6xx_HAL_Driver/Inc/stm32n6xx_ll_bus.h ****   *         APB1RSTSR1   SPI3RSTS      LL_APB1_GRP1_ForceReset\n
2424:STM32Cube_FW_N6/Drivers/STM32N6xx_HAL_Driver/Inc/stm32n6xx_ll_bus.h ****   *         APB1RSTSR1   SPDIFRX1RSTS  LL_APB1_GRP1_ForceReset\n
2425:STM32Cube_FW_N6/Drivers/STM32N6xx_HAL_Driver/Inc/stm32n6xx_ll_bus.h ****   *         APB1RSTSR1   USART2RSTS    LL_APB1_GRP1_ForceReset\n
2426:STM32Cube_FW_N6/Drivers/STM32N6xx_HAL_Driver/Inc/stm32n6xx_ll_bus.h ****   *         APB1RSTSR1   USART3RSTS    LL_APB1_GRP1_ForceReset\n
2427:STM32Cube_FW_N6/Drivers/STM32N6xx_HAL_Driver/Inc/stm32n6xx_ll_bus.h ****   *         APB1RSTSR1   UART4RSTS     LL_APB1_GRP1_ForceReset\n
2428:STM32Cube_FW_N6/Drivers/STM32N6xx_HAL_Driver/Inc/stm32n6xx_ll_bus.h ****   *         APB1RSTSR1   UART5RSTS     LL_APB1_GRP1_ForceReset\n
2429:STM32Cube_FW_N6/Drivers/STM32N6xx_HAL_Driver/Inc/stm32n6xx_ll_bus.h ****   *         APB1RSTSR1   I2C1RSTS      LL_APB1_GRP1_ForceReset\n
2430:STM32Cube_FW_N6/Drivers/STM32N6xx_HAL_Driver/Inc/stm32n6xx_ll_bus.h ****   *         APB1RSTSR1   I2C2RSTS      LL_APB1_GRP1_ForceReset\n
2431:STM32Cube_FW_N6/Drivers/STM32N6xx_HAL_Driver/Inc/stm32n6xx_ll_bus.h ****   *         APB1RSTSR1   I2C3RSTS      LL_APB1_GRP1_ForceReset\n
2432:STM32Cube_FW_N6/Drivers/STM32N6xx_HAL_Driver/Inc/stm32n6xx_ll_bus.h ****   *         APB1RSTSR1   I3C1RSTS      LL_APB1_GRP1_ForceReset\n
2433:STM32Cube_FW_N6/Drivers/STM32N6xx_HAL_Driver/Inc/stm32n6xx_ll_bus.h ****   *         APB1RSTSR1   I3C2RSTS      LL_APB1_GRP1_ForceReset\n
2434:STM32Cube_FW_N6/Drivers/STM32N6xx_HAL_Driver/Inc/stm32n6xx_ll_bus.h ****   *         APB1RSTSR1   UART7RSTS     LL_APB1_GRP1_ForceReset\n
2435:STM32Cube_FW_N6/Drivers/STM32N6xx_HAL_Driver/Inc/stm32n6xx_ll_bus.h ****   *         APB1RSTSR1   UART8RSTS     LL_APB1_GRP1_ForceReset
2436:STM32Cube_FW_N6/Drivers/STM32N6xx_HAL_Driver/Inc/stm32n6xx_ll_bus.h ****   * @param  Periphs This parameter can be a combination of the following values:
2437:STM32Cube_FW_N6/Drivers/STM32N6xx_HAL_Driver/Inc/stm32n6xx_ll_bus.h ****   *         @arg @ref LL_APB1_GRP1_PERIPH_I2C1
2438:STM32Cube_FW_N6/Drivers/STM32N6xx_HAL_Driver/Inc/stm32n6xx_ll_bus.h ****   *         @arg @ref LL_APB1_GRP1_PERIPH_I2C2
2439:STM32Cube_FW_N6/Drivers/STM32N6xx_HAL_Driver/Inc/stm32n6xx_ll_bus.h ****   *         @arg @ref LL_APB1_GRP1_PERIPH_I2C3
2440:STM32Cube_FW_N6/Drivers/STM32N6xx_HAL_Driver/Inc/stm32n6xx_ll_bus.h ****   *         @arg @ref LL_APB1_GRP1_PERIPH_I3C1
2441:STM32Cube_FW_N6/Drivers/STM32N6xx_HAL_Driver/Inc/stm32n6xx_ll_bus.h ****   *         @arg @ref LL_APB1_GRP1_PERIPH_I3C2
2442:STM32Cube_FW_N6/Drivers/STM32N6xx_HAL_Driver/Inc/stm32n6xx_ll_bus.h ****   *         @arg @ref LL_APB1_GRP1_PERIPH_LPTIM1
2443:STM32Cube_FW_N6/Drivers/STM32N6xx_HAL_Driver/Inc/stm32n6xx_ll_bus.h ****   *         @arg @ref LL_APB1_GRP1_PERIPH_SPDIFRX1
2444:STM32Cube_FW_N6/Drivers/STM32N6xx_HAL_Driver/Inc/stm32n6xx_ll_bus.h ****   *         @arg @ref LL_APB1_GRP1_PERIPH_SPI2
2445:STM32Cube_FW_N6/Drivers/STM32N6xx_HAL_Driver/Inc/stm32n6xx_ll_bus.h ****   *         @arg @ref LL_APB1_GRP1_PERIPH_SPI3
2446:STM32Cube_FW_N6/Drivers/STM32N6xx_HAL_Driver/Inc/stm32n6xx_ll_bus.h ****   *         @arg @ref LL_APB1_GRP1_PERIPH_TIM2
2447:STM32Cube_FW_N6/Drivers/STM32N6xx_HAL_Driver/Inc/stm32n6xx_ll_bus.h ****   *         @arg @ref LL_APB1_GRP1_PERIPH_TIM3
2448:STM32Cube_FW_N6/Drivers/STM32N6xx_HAL_Driver/Inc/stm32n6xx_ll_bus.h ****   *         @arg @ref LL_APB1_GRP1_PERIPH_TIM4
2449:STM32Cube_FW_N6/Drivers/STM32N6xx_HAL_Driver/Inc/stm32n6xx_ll_bus.h ****   *         @arg @ref LL_APB1_GRP1_PERIPH_TIM5
2450:STM32Cube_FW_N6/Drivers/STM32N6xx_HAL_Driver/Inc/stm32n6xx_ll_bus.h ****   *         @arg @ref LL_APB1_GRP1_PERIPH_TIM6
2451:STM32Cube_FW_N6/Drivers/STM32N6xx_HAL_Driver/Inc/stm32n6xx_ll_bus.h ****   *         @arg @ref LL_APB1_GRP1_PERIPH_TIM7
2452:STM32Cube_FW_N6/Drivers/STM32N6xx_HAL_Driver/Inc/stm32n6xx_ll_bus.h ****   *         @arg @ref LL_APB1_GRP1_PERIPH_TIM10
2453:STM32Cube_FW_N6/Drivers/STM32N6xx_HAL_Driver/Inc/stm32n6xx_ll_bus.h ****   *         @arg @ref LL_APB1_GRP1_PERIPH_TIM11
2454:STM32Cube_FW_N6/Drivers/STM32N6xx_HAL_Driver/Inc/stm32n6xx_ll_bus.h ****   *         @arg @ref LL_APB1_GRP1_PERIPH_TIM12
2455:STM32Cube_FW_N6/Drivers/STM32N6xx_HAL_Driver/Inc/stm32n6xx_ll_bus.h ****   *         @arg @ref LL_APB1_GRP1_PERIPH_TIM13
2456:STM32Cube_FW_N6/Drivers/STM32N6xx_HAL_Driver/Inc/stm32n6xx_ll_bus.h ****   *         @arg @ref LL_APB1_GRP1_PERIPH_TIM14
2457:STM32Cube_FW_N6/Drivers/STM32N6xx_HAL_Driver/Inc/stm32n6xx_ll_bus.h ****   *         @arg @ref LL_APB1_GRP1_PERIPH_USART2
2458:STM32Cube_FW_N6/Drivers/STM32N6xx_HAL_Driver/Inc/stm32n6xx_ll_bus.h ****   *         @arg @ref LL_APB1_GRP1_PERIPH_USART3
2459:STM32Cube_FW_N6/Drivers/STM32N6xx_HAL_Driver/Inc/stm32n6xx_ll_bus.h ****   *         @arg @ref LL_APB1_GRP1_PERIPH_UART4
2460:STM32Cube_FW_N6/Drivers/STM32N6xx_HAL_Driver/Inc/stm32n6xx_ll_bus.h ****   *         @arg @ref LL_APB1_GRP1_PERIPH_UART5
2461:STM32Cube_FW_N6/Drivers/STM32N6xx_HAL_Driver/Inc/stm32n6xx_ll_bus.h ****   *         @arg @ref LL_APB1_GRP1_PERIPH_UART7
2462:STM32Cube_FW_N6/Drivers/STM32N6xx_HAL_Driver/Inc/stm32n6xx_ll_bus.h ****   *         @arg @ref LL_APB1_GRP1_PERIPH_UART8
2463:STM32Cube_FW_N6/Drivers/STM32N6xx_HAL_Driver/Inc/stm32n6xx_ll_bus.h ****   * @retval None
2464:STM32Cube_FW_N6/Drivers/STM32N6xx_HAL_Driver/Inc/stm32n6xx_ll_bus.h ****   */
2465:STM32Cube_FW_N6/Drivers/STM32N6xx_HAL_Driver/Inc/stm32n6xx_ll_bus.h **** __STATIC_INLINE void LL_APB1_GRP1_ForceReset(uint32_t Periphs)
2466:STM32Cube_FW_N6/Drivers/STM32N6xx_HAL_Driver/Inc/stm32n6xx_ll_bus.h **** {
2467:STM32Cube_FW_N6/Drivers/STM32N6xx_HAL_Driver/Inc/stm32n6xx_ll_bus.h ****   WRITE_REG(RCC->APB1RSTSR1, Periphs);
2468:STM32Cube_FW_N6/Drivers/STM32N6xx_HAL_Driver/Inc/stm32n6xx_ll_bus.h **** }
2469:STM32Cube_FW_N6/Drivers/STM32N6xx_HAL_Driver/Inc/stm32n6xx_ll_bus.h **** 
2470:STM32Cube_FW_N6/Drivers/STM32N6xx_HAL_Driver/Inc/stm32n6xx_ll_bus.h **** /**
2471:STM32Cube_FW_N6/Drivers/STM32N6xx_HAL_Driver/Inc/stm32n6xx_ll_bus.h ****   * @brief  Release APB1 peripherals reset.
2472:STM32Cube_FW_N6/Drivers/STM32N6xx_HAL_Driver/Inc/stm32n6xx_ll_bus.h ****   * @rmtoll APB1RSTCR1   TIM2RSTC      LL_APB1_GRP1_ReleaseReset\n
2473:STM32Cube_FW_N6/Drivers/STM32N6xx_HAL_Driver/Inc/stm32n6xx_ll_bus.h ****   *         APB1RSTCR1   TIM3RSTC      LL_APB1_GRP1_ReleaseReset\n
2474:STM32Cube_FW_N6/Drivers/STM32N6xx_HAL_Driver/Inc/stm32n6xx_ll_bus.h ****   *         APB1RSTCR1   TIM4RSTC      LL_APB1_GRP1_ReleaseReset\n
2475:STM32Cube_FW_N6/Drivers/STM32N6xx_HAL_Driver/Inc/stm32n6xx_ll_bus.h ****   *         APB1RSTCR1   TIM5RSTC      LL_APB1_GRP1_ReleaseReset\n
ARM GAS  C:\Users\DJESSOU\AppData\Local\Temp\cc3dm0Vf.s 			page 176


2476:STM32Cube_FW_N6/Drivers/STM32N6xx_HAL_Driver/Inc/stm32n6xx_ll_bus.h ****   *         APB1RSTCR1   TIM6RSTC      LL_APB1_GRP1_ReleaseReset\n
2477:STM32Cube_FW_N6/Drivers/STM32N6xx_HAL_Driver/Inc/stm32n6xx_ll_bus.h ****   *         APB1RSTCR1   TIM7RSTC      LL_APB1_GRP1_ReleaseReset\n
2478:STM32Cube_FW_N6/Drivers/STM32N6xx_HAL_Driver/Inc/stm32n6xx_ll_bus.h ****   *         APB1RSTCR1   TIM12RSTC     LL_APB1_GRP1_ReleaseReset\n
2479:STM32Cube_FW_N6/Drivers/STM32N6xx_HAL_Driver/Inc/stm32n6xx_ll_bus.h ****   *         APB1RSTCR1   TIM13RSTC     LL_APB1_GRP1_ReleaseReset\n
2480:STM32Cube_FW_N6/Drivers/STM32N6xx_HAL_Driver/Inc/stm32n6xx_ll_bus.h ****   *         APB1RSTCR1   TIM14RSTC     LL_APB1_GRP1_ReleaseReset\n
2481:STM32Cube_FW_N6/Drivers/STM32N6xx_HAL_Driver/Inc/stm32n6xx_ll_bus.h ****   *         APB1RSTCR1   LPTIM1RSTC    LL_APB1_GRP1_ReleaseReset\n
2482:STM32Cube_FW_N6/Drivers/STM32N6xx_HAL_Driver/Inc/stm32n6xx_ll_bus.h ****   *         APB1RSTCR1   TIM10RSTC     LL_APB1_GRP1_ReleaseReset\n
2483:STM32Cube_FW_N6/Drivers/STM32N6xx_HAL_Driver/Inc/stm32n6xx_ll_bus.h ****   *         APB1RSTCR1   TIM11RSTC     LL_APB1_GRP1_ReleaseReset\n
2484:STM32Cube_FW_N6/Drivers/STM32N6xx_HAL_Driver/Inc/stm32n6xx_ll_bus.h ****   *         APB1RSTCR1   SPI2RSTC      LL_APB1_GRP1_ReleaseReset\n
2485:STM32Cube_FW_N6/Drivers/STM32N6xx_HAL_Driver/Inc/stm32n6xx_ll_bus.h ****   *         APB1RSTCR1   SPI3RSTC      LL_APB1_GRP1_ReleaseReset\n
2486:STM32Cube_FW_N6/Drivers/STM32N6xx_HAL_Driver/Inc/stm32n6xx_ll_bus.h ****   *         APB1RSTCR1   SPDIFRX1RSTC  LL_APB1_GRP1_ReleaseReset\n
2487:STM32Cube_FW_N6/Drivers/STM32N6xx_HAL_Driver/Inc/stm32n6xx_ll_bus.h ****   *         APB1RSTCR1   USART2RSTC    LL_APB1_GRP1_ReleaseReset\n
2488:STM32Cube_FW_N6/Drivers/STM32N6xx_HAL_Driver/Inc/stm32n6xx_ll_bus.h ****   *         APB1RSTCR1   USART3RSTC    LL_APB1_GRP1_ReleaseReset\n
2489:STM32Cube_FW_N6/Drivers/STM32N6xx_HAL_Driver/Inc/stm32n6xx_ll_bus.h ****   *         APB1RSTCR1   UART4RSTC     LL_APB1_GRP1_ReleaseReset\n
2490:STM32Cube_FW_N6/Drivers/STM32N6xx_HAL_Driver/Inc/stm32n6xx_ll_bus.h ****   *         APB1RSTCR1   UART5RSTC     LL_APB1_GRP1_ReleaseReset\n
2491:STM32Cube_FW_N6/Drivers/STM32N6xx_HAL_Driver/Inc/stm32n6xx_ll_bus.h ****   *         APB1RSTCR1   I2C1RSTC      LL_APB1_GRP1_ReleaseReset\n
2492:STM32Cube_FW_N6/Drivers/STM32N6xx_HAL_Driver/Inc/stm32n6xx_ll_bus.h ****   *         APB1RSTCR1   I2C2RSTC      LL_APB1_GRP1_ReleaseReset\n
2493:STM32Cube_FW_N6/Drivers/STM32N6xx_HAL_Driver/Inc/stm32n6xx_ll_bus.h ****   *         APB1RSTCR1   I2C3RSTC      LL_APB1_GRP1_ReleaseReset\n
2494:STM32Cube_FW_N6/Drivers/STM32N6xx_HAL_Driver/Inc/stm32n6xx_ll_bus.h ****   *         APB1RSTCR1   I3C1RSTC      LL_APB1_GRP1_ReleaseReset\n
2495:STM32Cube_FW_N6/Drivers/STM32N6xx_HAL_Driver/Inc/stm32n6xx_ll_bus.h ****   *         APB1RSTCR1   I3C2RSTC      LL_APB1_GRP1_ReleaseReset\n
2496:STM32Cube_FW_N6/Drivers/STM32N6xx_HAL_Driver/Inc/stm32n6xx_ll_bus.h ****   *         APB1RSTCR1   UART7RSTC     LL_APB1_GRP1_ReleaseReset\n
2497:STM32Cube_FW_N6/Drivers/STM32N6xx_HAL_Driver/Inc/stm32n6xx_ll_bus.h ****   *         APB1RSTCR1   UART8RSTC     LL_APB1_GRP1_ReleaseReset
2498:STM32Cube_FW_N6/Drivers/STM32N6xx_HAL_Driver/Inc/stm32n6xx_ll_bus.h ****   * @param  Periphs This parameter can be a combination of the following values:
2499:STM32Cube_FW_N6/Drivers/STM32N6xx_HAL_Driver/Inc/stm32n6xx_ll_bus.h ****   *         @arg @ref LL_APB1_GRP1_PERIPH_I2C1
2500:STM32Cube_FW_N6/Drivers/STM32N6xx_HAL_Driver/Inc/stm32n6xx_ll_bus.h ****   *         @arg @ref LL_APB1_GRP1_PERIPH_I2C2
2501:STM32Cube_FW_N6/Drivers/STM32N6xx_HAL_Driver/Inc/stm32n6xx_ll_bus.h ****   *         @arg @ref LL_APB1_GRP1_PERIPH_I2C3
2502:STM32Cube_FW_N6/Drivers/STM32N6xx_HAL_Driver/Inc/stm32n6xx_ll_bus.h ****   *         @arg @ref LL_APB1_GRP1_PERIPH_I3C1
2503:STM32Cube_FW_N6/Drivers/STM32N6xx_HAL_Driver/Inc/stm32n6xx_ll_bus.h ****   *         @arg @ref LL_APB1_GRP1_PERIPH_I3C2
2504:STM32Cube_FW_N6/Drivers/STM32N6xx_HAL_Driver/Inc/stm32n6xx_ll_bus.h ****   *         @arg @ref LL_APB1_GRP1_PERIPH_LPTIM1
2505:STM32Cube_FW_N6/Drivers/STM32N6xx_HAL_Driver/Inc/stm32n6xx_ll_bus.h ****   *         @arg @ref LL_APB1_GRP1_PERIPH_SPDIFRX1
2506:STM32Cube_FW_N6/Drivers/STM32N6xx_HAL_Driver/Inc/stm32n6xx_ll_bus.h ****   *         @arg @ref LL_APB1_GRP1_PERIPH_SPI2
2507:STM32Cube_FW_N6/Drivers/STM32N6xx_HAL_Driver/Inc/stm32n6xx_ll_bus.h ****   *         @arg @ref LL_APB1_GRP1_PERIPH_SPI3
2508:STM32Cube_FW_N6/Drivers/STM32N6xx_HAL_Driver/Inc/stm32n6xx_ll_bus.h ****   *         @arg @ref LL_APB1_GRP1_PERIPH_TIM2
2509:STM32Cube_FW_N6/Drivers/STM32N6xx_HAL_Driver/Inc/stm32n6xx_ll_bus.h ****   *         @arg @ref LL_APB1_GRP1_PERIPH_TIM3
2510:STM32Cube_FW_N6/Drivers/STM32N6xx_HAL_Driver/Inc/stm32n6xx_ll_bus.h ****   *         @arg @ref LL_APB1_GRP1_PERIPH_TIM4
2511:STM32Cube_FW_N6/Drivers/STM32N6xx_HAL_Driver/Inc/stm32n6xx_ll_bus.h ****   *         @arg @ref LL_APB1_GRP1_PERIPH_TIM5
2512:STM32Cube_FW_N6/Drivers/STM32N6xx_HAL_Driver/Inc/stm32n6xx_ll_bus.h ****   *         @arg @ref LL_APB1_GRP1_PERIPH_TIM6
2513:STM32Cube_FW_N6/Drivers/STM32N6xx_HAL_Driver/Inc/stm32n6xx_ll_bus.h ****   *         @arg @ref LL_APB1_GRP1_PERIPH_TIM7
2514:STM32Cube_FW_N6/Drivers/STM32N6xx_HAL_Driver/Inc/stm32n6xx_ll_bus.h ****   *         @arg @ref LL_APB1_GRP1_PERIPH_TIM10
2515:STM32Cube_FW_N6/Drivers/STM32N6xx_HAL_Driver/Inc/stm32n6xx_ll_bus.h ****   *         @arg @ref LL_APB1_GRP1_PERIPH_TIM11
2516:STM32Cube_FW_N6/Drivers/STM32N6xx_HAL_Driver/Inc/stm32n6xx_ll_bus.h ****   *         @arg @ref LL_APB1_GRP1_PERIPH_TIM12
2517:STM32Cube_FW_N6/Drivers/STM32N6xx_HAL_Driver/Inc/stm32n6xx_ll_bus.h ****   *         @arg @ref LL_APB1_GRP1_PERIPH_TIM13
2518:STM32Cube_FW_N6/Drivers/STM32N6xx_HAL_Driver/Inc/stm32n6xx_ll_bus.h ****   *         @arg @ref LL_APB1_GRP1_PERIPH_TIM14
2519:STM32Cube_FW_N6/Drivers/STM32N6xx_HAL_Driver/Inc/stm32n6xx_ll_bus.h ****   *         @arg @ref LL_APB1_GRP1_PERIPH_USART2
2520:STM32Cube_FW_N6/Drivers/STM32N6xx_HAL_Driver/Inc/stm32n6xx_ll_bus.h ****   *         @arg @ref LL_APB1_GRP1_PERIPH_USART3
2521:STM32Cube_FW_N6/Drivers/STM32N6xx_HAL_Driver/Inc/stm32n6xx_ll_bus.h ****   *         @arg @ref LL_APB1_GRP1_PERIPH_UART4
2522:STM32Cube_FW_N6/Drivers/STM32N6xx_HAL_Driver/Inc/stm32n6xx_ll_bus.h ****   *         @arg @ref LL_APB1_GRP1_PERIPH_UART5
2523:STM32Cube_FW_N6/Drivers/STM32N6xx_HAL_Driver/Inc/stm32n6xx_ll_bus.h ****   *         @arg @ref LL_APB1_GRP1_PERIPH_UART7
2524:STM32Cube_FW_N6/Drivers/STM32N6xx_HAL_Driver/Inc/stm32n6xx_ll_bus.h ****   *         @arg @ref LL_APB1_GRP1_PERIPH_UART8
2525:STM32Cube_FW_N6/Drivers/STM32N6xx_HAL_Driver/Inc/stm32n6xx_ll_bus.h ****   * @retval None
2526:STM32Cube_FW_N6/Drivers/STM32N6xx_HAL_Driver/Inc/stm32n6xx_ll_bus.h ****   */
2527:STM32Cube_FW_N6/Drivers/STM32N6xx_HAL_Driver/Inc/stm32n6xx_ll_bus.h **** __STATIC_INLINE void LL_APB1_GRP1_ReleaseReset(uint32_t Periphs)
2528:STM32Cube_FW_N6/Drivers/STM32N6xx_HAL_Driver/Inc/stm32n6xx_ll_bus.h **** {
2529:STM32Cube_FW_N6/Drivers/STM32N6xx_HAL_Driver/Inc/stm32n6xx_ll_bus.h ****   WRITE_REG(RCC->APB1RSTCR1, Periphs);
2530:STM32Cube_FW_N6/Drivers/STM32N6xx_HAL_Driver/Inc/stm32n6xx_ll_bus.h **** }
2531:STM32Cube_FW_N6/Drivers/STM32N6xx_HAL_Driver/Inc/stm32n6xx_ll_bus.h **** 
2532:STM32Cube_FW_N6/Drivers/STM32N6xx_HAL_Driver/Inc/stm32n6xx_ll_bus.h **** /**
ARM GAS  C:\Users\DJESSOU\AppData\Local\Temp\cc3dm0Vf.s 			page 177


2533:STM32Cube_FW_N6/Drivers/STM32N6xx_HAL_Driver/Inc/stm32n6xx_ll_bus.h ****   * @brief  Enable APB1 peripherals clock during Low Power mode.
2534:STM32Cube_FW_N6/Drivers/STM32N6xx_HAL_Driver/Inc/stm32n6xx_ll_bus.h ****   * @rmtoll APB1LPENSR1  TIM2LPENS     LL_APB1_GRP1_EnableClockLowPower\n
2535:STM32Cube_FW_N6/Drivers/STM32N6xx_HAL_Driver/Inc/stm32n6xx_ll_bus.h ****   *         APB1LPENSR1  TIM3LPENS     LL_APB1_GRP1_EnableClockLowPower\n
2536:STM32Cube_FW_N6/Drivers/STM32N6xx_HAL_Driver/Inc/stm32n6xx_ll_bus.h ****   *         APB1LPENSR1  TIM4LPENS     LL_APB1_GRP1_EnableClockLowPower\n
2537:STM32Cube_FW_N6/Drivers/STM32N6xx_HAL_Driver/Inc/stm32n6xx_ll_bus.h ****   *         APB1LPENSR1  TIM5LPENS     LL_APB1_GRP1_EnableClockLowPower\n
2538:STM32Cube_FW_N6/Drivers/STM32N6xx_HAL_Driver/Inc/stm32n6xx_ll_bus.h ****   *         APB1LPENSR1  TIM6LPENS     LL_APB1_GRP1_EnableClockLowPower\n
2539:STM32Cube_FW_N6/Drivers/STM32N6xx_HAL_Driver/Inc/stm32n6xx_ll_bus.h ****   *         APB1LPENSR1  TIM7LPENS     LL_APB1_GRP1_EnableClockLowPower\n
2540:STM32Cube_FW_N6/Drivers/STM32N6xx_HAL_Driver/Inc/stm32n6xx_ll_bus.h ****   *         APB1LPENSR1  TIM12LPENS    LL_APB1_GRP1_EnableClockLowPower\n
2541:STM32Cube_FW_N6/Drivers/STM32N6xx_HAL_Driver/Inc/stm32n6xx_ll_bus.h ****   *         APB1LPENSR1  TIM13LPENS    LL_APB1_GRP1_EnableClockLowPower\n
2542:STM32Cube_FW_N6/Drivers/STM32N6xx_HAL_Driver/Inc/stm32n6xx_ll_bus.h ****   *         APB1LPENSR1  TIM14LPENS    LL_APB1_GRP1_EnableClockLowPower\n
2543:STM32Cube_FW_N6/Drivers/STM32N6xx_HAL_Driver/Inc/stm32n6xx_ll_bus.h ****   *         APB1LPENSR1  LPTIM1LPENS   LL_APB1_GRP1_EnableClockLowPower\n
2544:STM32Cube_FW_N6/Drivers/STM32N6xx_HAL_Driver/Inc/stm32n6xx_ll_bus.h ****   *         APB1LPENSR1  WWDGLPENS     LL_APB1_GRP1_EnableClockLowPower\n
2545:STM32Cube_FW_N6/Drivers/STM32N6xx_HAL_Driver/Inc/stm32n6xx_ll_bus.h ****   *         APB1LPENSR1  TIM10LPENS    LL_APB1_GRP1_EnableClockLowPower\n
2546:STM32Cube_FW_N6/Drivers/STM32N6xx_HAL_Driver/Inc/stm32n6xx_ll_bus.h ****   *         APB1LPENSR1  TIM11LPENS    LL_APB1_GRP1_EnableClockLowPower\n
2547:STM32Cube_FW_N6/Drivers/STM32N6xx_HAL_Driver/Inc/stm32n6xx_ll_bus.h ****   *         APB1LPENSR1  SPI2LPENS     LL_APB1_GRP1_EnableClockLowPower\n
2548:STM32Cube_FW_N6/Drivers/STM32N6xx_HAL_Driver/Inc/stm32n6xx_ll_bus.h ****   *         APB1LPENSR1  SPI3LPENS     LL_APB1_GRP1_EnableClockLowPower\n
2549:STM32Cube_FW_N6/Drivers/STM32N6xx_HAL_Driver/Inc/stm32n6xx_ll_bus.h ****   *         APB1LPENSR1  SPDIFRX1LPENS LL_APB1_GRP1_EnableClockLowPower\n
2550:STM32Cube_FW_N6/Drivers/STM32N6xx_HAL_Driver/Inc/stm32n6xx_ll_bus.h ****   *         APB1LPENSR1  USART2LPENS   LL_APB1_GRP1_EnableClockLowPower\n
2551:STM32Cube_FW_N6/Drivers/STM32N6xx_HAL_Driver/Inc/stm32n6xx_ll_bus.h ****   *         APB1LPENSR1  USART3LPENS   LL_APB1_GRP1_EnableClockLowPower\n
2552:STM32Cube_FW_N6/Drivers/STM32N6xx_HAL_Driver/Inc/stm32n6xx_ll_bus.h ****   *         APB1LPENSR1  UART4LPENS    LL_APB1_GRP1_EnableClockLowPower\n
2553:STM32Cube_FW_N6/Drivers/STM32N6xx_HAL_Driver/Inc/stm32n6xx_ll_bus.h ****   *         APB1LPENSR1  UART5LPENS    LL_APB1_GRP1_EnableClockLowPower\n
2554:STM32Cube_FW_N6/Drivers/STM32N6xx_HAL_Driver/Inc/stm32n6xx_ll_bus.h ****   *         APB1LPENSR1  I2C1LPENS     LL_APB1_GRP1_EnableClockLowPower\n
2555:STM32Cube_FW_N6/Drivers/STM32N6xx_HAL_Driver/Inc/stm32n6xx_ll_bus.h ****   *         APB1LPENSR1  I2C2LPENS     LL_APB1_GRP1_EnableClockLowPower\n
2556:STM32Cube_FW_N6/Drivers/STM32N6xx_HAL_Driver/Inc/stm32n6xx_ll_bus.h ****   *         APB1LPENSR1  I2C3LPENS     LL_APB1_GRP1_EnableClockLowPower\n
2557:STM32Cube_FW_N6/Drivers/STM32N6xx_HAL_Driver/Inc/stm32n6xx_ll_bus.h ****   *         APB1LPENSR1  I3C1LPENS     LL_APB1_GRP1_EnableClockLowPower\n
2558:STM32Cube_FW_N6/Drivers/STM32N6xx_HAL_Driver/Inc/stm32n6xx_ll_bus.h ****   *         APB1LPENSR1  I3C2LPENS     LL_APB1_GRP1_EnableClockLowPower\n
2559:STM32Cube_FW_N6/Drivers/STM32N6xx_HAL_Driver/Inc/stm32n6xx_ll_bus.h ****   *         APB1LPENSR1  UART7LPENS    LL_APB1_GRP1_EnableClockLowPower\n
2560:STM32Cube_FW_N6/Drivers/STM32N6xx_HAL_Driver/Inc/stm32n6xx_ll_bus.h ****   *         APB1LPENSR1  UART8LPENS    LL_APB1_GRP1_EnableClockLowPower
2561:STM32Cube_FW_N6/Drivers/STM32N6xx_HAL_Driver/Inc/stm32n6xx_ll_bus.h ****   * @param  Periphs This parameter can be a combination of the following values:
2562:STM32Cube_FW_N6/Drivers/STM32N6xx_HAL_Driver/Inc/stm32n6xx_ll_bus.h ****   *         @arg @ref LL_APB1_GRP1_PERIPH_I2C1
2563:STM32Cube_FW_N6/Drivers/STM32N6xx_HAL_Driver/Inc/stm32n6xx_ll_bus.h ****   *         @arg @ref LL_APB1_GRP1_PERIPH_I2C2
2564:STM32Cube_FW_N6/Drivers/STM32N6xx_HAL_Driver/Inc/stm32n6xx_ll_bus.h ****   *         @arg @ref LL_APB1_GRP1_PERIPH_I2C3
2565:STM32Cube_FW_N6/Drivers/STM32N6xx_HAL_Driver/Inc/stm32n6xx_ll_bus.h ****   *         @arg @ref LL_APB1_GRP1_PERIPH_I3C1
2566:STM32Cube_FW_N6/Drivers/STM32N6xx_HAL_Driver/Inc/stm32n6xx_ll_bus.h ****   *         @arg @ref LL_APB1_GRP1_PERIPH_I3C2
2567:STM32Cube_FW_N6/Drivers/STM32N6xx_HAL_Driver/Inc/stm32n6xx_ll_bus.h ****   *         @arg @ref LL_APB1_GRP1_PERIPH_LPTIM1
2568:STM32Cube_FW_N6/Drivers/STM32N6xx_HAL_Driver/Inc/stm32n6xx_ll_bus.h ****   *         @arg @ref LL_APB1_GRP1_PERIPH_SPDIFRX1
2569:STM32Cube_FW_N6/Drivers/STM32N6xx_HAL_Driver/Inc/stm32n6xx_ll_bus.h ****   *         @arg @ref LL_APB1_GRP1_PERIPH_SPI2
2570:STM32Cube_FW_N6/Drivers/STM32N6xx_HAL_Driver/Inc/stm32n6xx_ll_bus.h ****   *         @arg @ref LL_APB1_GRP1_PERIPH_SPI3
2571:STM32Cube_FW_N6/Drivers/STM32N6xx_HAL_Driver/Inc/stm32n6xx_ll_bus.h ****   *         @arg @ref LL_APB1_GRP1_PERIPH_TIM2
2572:STM32Cube_FW_N6/Drivers/STM32N6xx_HAL_Driver/Inc/stm32n6xx_ll_bus.h ****   *         @arg @ref LL_APB1_GRP1_PERIPH_TIM3
2573:STM32Cube_FW_N6/Drivers/STM32N6xx_HAL_Driver/Inc/stm32n6xx_ll_bus.h ****   *         @arg @ref LL_APB1_GRP1_PERIPH_TIM4
2574:STM32Cube_FW_N6/Drivers/STM32N6xx_HAL_Driver/Inc/stm32n6xx_ll_bus.h ****   *         @arg @ref LL_APB1_GRP1_PERIPH_TIM5
2575:STM32Cube_FW_N6/Drivers/STM32N6xx_HAL_Driver/Inc/stm32n6xx_ll_bus.h ****   *         @arg @ref LL_APB1_GRP1_PERIPH_TIM6
2576:STM32Cube_FW_N6/Drivers/STM32N6xx_HAL_Driver/Inc/stm32n6xx_ll_bus.h ****   *         @arg @ref LL_APB1_GRP1_PERIPH_TIM7
2577:STM32Cube_FW_N6/Drivers/STM32N6xx_HAL_Driver/Inc/stm32n6xx_ll_bus.h ****   *         @arg @ref LL_APB1_GRP1_PERIPH_TIM10
2578:STM32Cube_FW_N6/Drivers/STM32N6xx_HAL_Driver/Inc/stm32n6xx_ll_bus.h ****   *         @arg @ref LL_APB1_GRP1_PERIPH_TIM11
2579:STM32Cube_FW_N6/Drivers/STM32N6xx_HAL_Driver/Inc/stm32n6xx_ll_bus.h ****   *         @arg @ref LL_APB1_GRP1_PERIPH_TIM12
2580:STM32Cube_FW_N6/Drivers/STM32N6xx_HAL_Driver/Inc/stm32n6xx_ll_bus.h ****   *         @arg @ref LL_APB1_GRP1_PERIPH_TIM13
2581:STM32Cube_FW_N6/Drivers/STM32N6xx_HAL_Driver/Inc/stm32n6xx_ll_bus.h ****   *         @arg @ref LL_APB1_GRP1_PERIPH_TIM14
2582:STM32Cube_FW_N6/Drivers/STM32N6xx_HAL_Driver/Inc/stm32n6xx_ll_bus.h ****   *         @arg @ref LL_APB1_GRP1_PERIPH_USART2
2583:STM32Cube_FW_N6/Drivers/STM32N6xx_HAL_Driver/Inc/stm32n6xx_ll_bus.h ****   *         @arg @ref LL_APB1_GRP1_PERIPH_USART3
2584:STM32Cube_FW_N6/Drivers/STM32N6xx_HAL_Driver/Inc/stm32n6xx_ll_bus.h ****   *         @arg @ref LL_APB1_GRP1_PERIPH_UART4
2585:STM32Cube_FW_N6/Drivers/STM32N6xx_HAL_Driver/Inc/stm32n6xx_ll_bus.h ****   *         @arg @ref LL_APB1_GRP1_PERIPH_UART5
2586:STM32Cube_FW_N6/Drivers/STM32N6xx_HAL_Driver/Inc/stm32n6xx_ll_bus.h ****   *         @arg @ref LL_APB1_GRP1_PERIPH_UART7
2587:STM32Cube_FW_N6/Drivers/STM32N6xx_HAL_Driver/Inc/stm32n6xx_ll_bus.h ****   *         @arg @ref LL_APB1_GRP1_PERIPH_UART8
2588:STM32Cube_FW_N6/Drivers/STM32N6xx_HAL_Driver/Inc/stm32n6xx_ll_bus.h ****   *         @arg @ref LL_APB1_GRP1_PERIPH_WWDG
2589:STM32Cube_FW_N6/Drivers/STM32N6xx_HAL_Driver/Inc/stm32n6xx_ll_bus.h ****   * @retval None
ARM GAS  C:\Users\DJESSOU\AppData\Local\Temp\cc3dm0Vf.s 			page 178


2590:STM32Cube_FW_N6/Drivers/STM32N6xx_HAL_Driver/Inc/stm32n6xx_ll_bus.h ****   */
2591:STM32Cube_FW_N6/Drivers/STM32N6xx_HAL_Driver/Inc/stm32n6xx_ll_bus.h **** __STATIC_INLINE void LL_APB1_GRP1_EnableClockLowPower(uint32_t Periphs)
2592:STM32Cube_FW_N6/Drivers/STM32N6xx_HAL_Driver/Inc/stm32n6xx_ll_bus.h **** {
2593:STM32Cube_FW_N6/Drivers/STM32N6xx_HAL_Driver/Inc/stm32n6xx_ll_bus.h ****   __IO uint32_t tmpreg;
2594:STM32Cube_FW_N6/Drivers/STM32N6xx_HAL_Driver/Inc/stm32n6xx_ll_bus.h ****   WRITE_REG(RCC->APB1LPENSR1, Periphs);
2595:STM32Cube_FW_N6/Drivers/STM32N6xx_HAL_Driver/Inc/stm32n6xx_ll_bus.h ****   /* Delay after an RCC peripheral clock enabling */
2596:STM32Cube_FW_N6/Drivers/STM32N6xx_HAL_Driver/Inc/stm32n6xx_ll_bus.h ****   tmpreg = READ_REG(RCC->APB1LPENR1);
2597:STM32Cube_FW_N6/Drivers/STM32N6xx_HAL_Driver/Inc/stm32n6xx_ll_bus.h ****   (void)tmpreg;
2598:STM32Cube_FW_N6/Drivers/STM32N6xx_HAL_Driver/Inc/stm32n6xx_ll_bus.h **** }
2599:STM32Cube_FW_N6/Drivers/STM32N6xx_HAL_Driver/Inc/stm32n6xx_ll_bus.h **** 
2600:STM32Cube_FW_N6/Drivers/STM32N6xx_HAL_Driver/Inc/stm32n6xx_ll_bus.h **** /**
2601:STM32Cube_FW_N6/Drivers/STM32N6xx_HAL_Driver/Inc/stm32n6xx_ll_bus.h ****   * @brief  Check if APB1 peripheral clock during Low Power mode is enabled or not .
2602:STM32Cube_FW_N6/Drivers/STM32N6xx_HAL_Driver/Inc/stm32n6xx_ll_bus.h ****   * @rmtoll APB1LPENR1   TIM2LPEN      LL_APB1_GRP1_IsEnabledClockLowPower\n
2603:STM32Cube_FW_N6/Drivers/STM32N6xx_HAL_Driver/Inc/stm32n6xx_ll_bus.h ****   *         APB1LPENR1   TIM3LPEN      LL_APB1_GRP1_IsEnabledClockLowPower\n
2604:STM32Cube_FW_N6/Drivers/STM32N6xx_HAL_Driver/Inc/stm32n6xx_ll_bus.h ****   *         APB1LPENR1   TIM4LPEN      LL_APB1_GRP1_IsEnabledClockLowPower\n
2605:STM32Cube_FW_N6/Drivers/STM32N6xx_HAL_Driver/Inc/stm32n6xx_ll_bus.h ****   *         APB1LPENR1   TIM5LPEN      LL_APB1_GRP1_IsEnabledClockLowPower\n
2606:STM32Cube_FW_N6/Drivers/STM32N6xx_HAL_Driver/Inc/stm32n6xx_ll_bus.h ****   *         APB1LPENR1   TIM6LPEN      LL_APB1_GRP1_IsEnabledClockLowPower\n
2607:STM32Cube_FW_N6/Drivers/STM32N6xx_HAL_Driver/Inc/stm32n6xx_ll_bus.h ****   *         APB1LPENR1   TIM7LPEN      LL_APB1_GRP1_IsEnabledClockLowPower\n
2608:STM32Cube_FW_N6/Drivers/STM32N6xx_HAL_Driver/Inc/stm32n6xx_ll_bus.h ****   *         APB1LPENR1   TIM12LPEN     LL_APB1_GRP1_IsEnabledClockLowPower\n
2609:STM32Cube_FW_N6/Drivers/STM32N6xx_HAL_Driver/Inc/stm32n6xx_ll_bus.h ****   *         APB1LPENR1   TIM13LPEN     LL_APB1_GRP1_IsEnabledClockLowPower\n
2610:STM32Cube_FW_N6/Drivers/STM32N6xx_HAL_Driver/Inc/stm32n6xx_ll_bus.h ****   *         APB1LPENR1   TIM14LPEN     LL_APB1_GRP1_IsEnabledClockLowPower\n
2611:STM32Cube_FW_N6/Drivers/STM32N6xx_HAL_Driver/Inc/stm32n6xx_ll_bus.h ****   *         APB1LPENR1   LPTIM1LPEN    LL_APB1_GRP1_IsEnabledClockLowPower\n
2612:STM32Cube_FW_N6/Drivers/STM32N6xx_HAL_Driver/Inc/stm32n6xx_ll_bus.h ****   *         APB1LPENR1   WWDGLPEN      LL_APB1_GRP1_IsEnabledClockLowPower\n
2613:STM32Cube_FW_N6/Drivers/STM32N6xx_HAL_Driver/Inc/stm32n6xx_ll_bus.h ****   *         APB1LPENR1   TIM10LPEN     LL_APB1_GRP1_IsEnabledClockLowPower\n
2614:STM32Cube_FW_N6/Drivers/STM32N6xx_HAL_Driver/Inc/stm32n6xx_ll_bus.h ****   *         APB1LPENR1   TIM11LPEN     LL_APB1_GRP1_IsEnabledClockLowPower\n
2615:STM32Cube_FW_N6/Drivers/STM32N6xx_HAL_Driver/Inc/stm32n6xx_ll_bus.h ****   *         APB1LPENR1   SPI2LPEN      LL_APB1_GRP1_IsEnabledClockLowPower\n
2616:STM32Cube_FW_N6/Drivers/STM32N6xx_HAL_Driver/Inc/stm32n6xx_ll_bus.h ****   *         APB1LPENR1   SPI3LPEN      LL_APB1_GRP1_IsEnabledClockLowPower\n
2617:STM32Cube_FW_N6/Drivers/STM32N6xx_HAL_Driver/Inc/stm32n6xx_ll_bus.h ****   *         APB1LPENR1   SPDIFRX1LPEN  LL_APB1_GRP1_IsEnabledClockLowPower\n
2618:STM32Cube_FW_N6/Drivers/STM32N6xx_HAL_Driver/Inc/stm32n6xx_ll_bus.h ****   *         APB1LPENR1   USART2LPEN    LL_APB1_GRP1_IsEnabledClockLowPower\n
2619:STM32Cube_FW_N6/Drivers/STM32N6xx_HAL_Driver/Inc/stm32n6xx_ll_bus.h ****   *         APB1LPENR1   USART3LPEN    LL_APB1_GRP1_IsEnabledClockLowPower\n
2620:STM32Cube_FW_N6/Drivers/STM32N6xx_HAL_Driver/Inc/stm32n6xx_ll_bus.h ****   *         APB1LPENR1   UART4LPEN     LL_APB1_GRP1_IsEnabledClockLowPower\n
2621:STM32Cube_FW_N6/Drivers/STM32N6xx_HAL_Driver/Inc/stm32n6xx_ll_bus.h ****   *         APB1LPENR1   UART5LPEN     LL_APB1_GRP1_IsEnabledClockLowPower\n
2622:STM32Cube_FW_N6/Drivers/STM32N6xx_HAL_Driver/Inc/stm32n6xx_ll_bus.h ****   *         APB1LPENR1   I2C1LPEN      LL_APB1_GRP1_IsEnabledClockLowPower\n
2623:STM32Cube_FW_N6/Drivers/STM32N6xx_HAL_Driver/Inc/stm32n6xx_ll_bus.h ****   *         APB1LPENR1   I2C2LPEN      LL_APB1_GRP1_IsEnabledClockLowPower\n
2624:STM32Cube_FW_N6/Drivers/STM32N6xx_HAL_Driver/Inc/stm32n6xx_ll_bus.h ****   *         APB1LPENR1   I2C3LPEN      LL_APB1_GRP1_IsEnabledClockLowPower\n
2625:STM32Cube_FW_N6/Drivers/STM32N6xx_HAL_Driver/Inc/stm32n6xx_ll_bus.h ****   *         APB1LPENR1   I3C1LPEN      LL_APB1_GRP1_IsEnabledClockLowPower\n
2626:STM32Cube_FW_N6/Drivers/STM32N6xx_HAL_Driver/Inc/stm32n6xx_ll_bus.h ****   *         APB1LPENR1   I3C2LPEN      LL_APB1_GRP1_IsEnabledClockLowPower\n
2627:STM32Cube_FW_N6/Drivers/STM32N6xx_HAL_Driver/Inc/stm32n6xx_ll_bus.h ****   *         APB1LPENR1   UART7LPEN     LL_APB1_GRP1_IsEnabledClockLowPower\n
2628:STM32Cube_FW_N6/Drivers/STM32N6xx_HAL_Driver/Inc/stm32n6xx_ll_bus.h ****   *         APB1LPENR1   UART8LPEN     LL_APB1_GRP1_IsEnabledClockLowPower
2629:STM32Cube_FW_N6/Drivers/STM32N6xx_HAL_Driver/Inc/stm32n6xx_ll_bus.h ****   * @param  Periphs This parameter can be a combination of the following values:
2630:STM32Cube_FW_N6/Drivers/STM32N6xx_HAL_Driver/Inc/stm32n6xx_ll_bus.h ****   *         @arg @ref LL_APB1_GRP1_PERIPH_I2C1
2631:STM32Cube_FW_N6/Drivers/STM32N6xx_HAL_Driver/Inc/stm32n6xx_ll_bus.h ****   *         @arg @ref LL_APB1_GRP1_PERIPH_I2C2
2632:STM32Cube_FW_N6/Drivers/STM32N6xx_HAL_Driver/Inc/stm32n6xx_ll_bus.h ****   *         @arg @ref LL_APB1_GRP1_PERIPH_I2C3
2633:STM32Cube_FW_N6/Drivers/STM32N6xx_HAL_Driver/Inc/stm32n6xx_ll_bus.h ****   *         @arg @ref LL_APB1_GRP1_PERIPH_I3C1
2634:STM32Cube_FW_N6/Drivers/STM32N6xx_HAL_Driver/Inc/stm32n6xx_ll_bus.h ****   *         @arg @ref LL_APB1_GRP1_PERIPH_I3C2
2635:STM32Cube_FW_N6/Drivers/STM32N6xx_HAL_Driver/Inc/stm32n6xx_ll_bus.h ****   *         @arg @ref LL_APB1_GRP1_PERIPH_LPTIM1
2636:STM32Cube_FW_N6/Drivers/STM32N6xx_HAL_Driver/Inc/stm32n6xx_ll_bus.h ****   *         @arg @ref LL_APB1_GRP1_PERIPH_SPDIFRX1
2637:STM32Cube_FW_N6/Drivers/STM32N6xx_HAL_Driver/Inc/stm32n6xx_ll_bus.h ****   *         @arg @ref LL_APB1_GRP1_PERIPH_SPI2
2638:STM32Cube_FW_N6/Drivers/STM32N6xx_HAL_Driver/Inc/stm32n6xx_ll_bus.h ****   *         @arg @ref LL_APB1_GRP1_PERIPH_SPI3
2639:STM32Cube_FW_N6/Drivers/STM32N6xx_HAL_Driver/Inc/stm32n6xx_ll_bus.h ****   *         @arg @ref LL_APB1_GRP1_PERIPH_TIM2
2640:STM32Cube_FW_N6/Drivers/STM32N6xx_HAL_Driver/Inc/stm32n6xx_ll_bus.h ****   *         @arg @ref LL_APB1_GRP1_PERIPH_TIM3
2641:STM32Cube_FW_N6/Drivers/STM32N6xx_HAL_Driver/Inc/stm32n6xx_ll_bus.h ****   *         @arg @ref LL_APB1_GRP1_PERIPH_TIM4
2642:STM32Cube_FW_N6/Drivers/STM32N6xx_HAL_Driver/Inc/stm32n6xx_ll_bus.h ****   *         @arg @ref LL_APB1_GRP1_PERIPH_TIM5
2643:STM32Cube_FW_N6/Drivers/STM32N6xx_HAL_Driver/Inc/stm32n6xx_ll_bus.h ****   *         @arg @ref LL_APB1_GRP1_PERIPH_TIM6
2644:STM32Cube_FW_N6/Drivers/STM32N6xx_HAL_Driver/Inc/stm32n6xx_ll_bus.h ****   *         @arg @ref LL_APB1_GRP1_PERIPH_TIM7
2645:STM32Cube_FW_N6/Drivers/STM32N6xx_HAL_Driver/Inc/stm32n6xx_ll_bus.h ****   *         @arg @ref LL_APB1_GRP1_PERIPH_TIM10
2646:STM32Cube_FW_N6/Drivers/STM32N6xx_HAL_Driver/Inc/stm32n6xx_ll_bus.h ****   *         @arg @ref LL_APB1_GRP1_PERIPH_TIM11
ARM GAS  C:\Users\DJESSOU\AppData\Local\Temp\cc3dm0Vf.s 			page 179


2647:STM32Cube_FW_N6/Drivers/STM32N6xx_HAL_Driver/Inc/stm32n6xx_ll_bus.h ****   *         @arg @ref LL_APB1_GRP1_PERIPH_TIM12
2648:STM32Cube_FW_N6/Drivers/STM32N6xx_HAL_Driver/Inc/stm32n6xx_ll_bus.h ****   *         @arg @ref LL_APB1_GRP1_PERIPH_TIM13
2649:STM32Cube_FW_N6/Drivers/STM32N6xx_HAL_Driver/Inc/stm32n6xx_ll_bus.h ****   *         @arg @ref LL_APB1_GRP1_PERIPH_TIM14
2650:STM32Cube_FW_N6/Drivers/STM32N6xx_HAL_Driver/Inc/stm32n6xx_ll_bus.h ****   *         @arg @ref LL_APB1_GRP1_PERIPH_USART2
2651:STM32Cube_FW_N6/Drivers/STM32N6xx_HAL_Driver/Inc/stm32n6xx_ll_bus.h ****   *         @arg @ref LL_APB1_GRP1_PERIPH_USART3
2652:STM32Cube_FW_N6/Drivers/STM32N6xx_HAL_Driver/Inc/stm32n6xx_ll_bus.h ****   *         @arg @ref LL_APB1_GRP1_PERIPH_UART4
2653:STM32Cube_FW_N6/Drivers/STM32N6xx_HAL_Driver/Inc/stm32n6xx_ll_bus.h ****   *         @arg @ref LL_APB1_GRP1_PERIPH_UART5
2654:STM32Cube_FW_N6/Drivers/STM32N6xx_HAL_Driver/Inc/stm32n6xx_ll_bus.h ****   *         @arg @ref LL_APB1_GRP1_PERIPH_UART7
2655:STM32Cube_FW_N6/Drivers/STM32N6xx_HAL_Driver/Inc/stm32n6xx_ll_bus.h ****   *         @arg @ref LL_APB1_GRP1_PERIPH_UART8
2656:STM32Cube_FW_N6/Drivers/STM32N6xx_HAL_Driver/Inc/stm32n6xx_ll_bus.h ****   *         @arg @ref LL_APB1_GRP1_PERIPH_WWDG
2657:STM32Cube_FW_N6/Drivers/STM32N6xx_HAL_Driver/Inc/stm32n6xx_ll_bus.h ****   * @retval uint32_t
2658:STM32Cube_FW_N6/Drivers/STM32N6xx_HAL_Driver/Inc/stm32n6xx_ll_bus.h ****   */
2659:STM32Cube_FW_N6/Drivers/STM32N6xx_HAL_Driver/Inc/stm32n6xx_ll_bus.h **** __STATIC_INLINE uint32_t LL_APB1_GRP1_IsEnabledClockLowPower(uint32_t Periphs)
2660:STM32Cube_FW_N6/Drivers/STM32N6xx_HAL_Driver/Inc/stm32n6xx_ll_bus.h **** {
2661:STM32Cube_FW_N6/Drivers/STM32N6xx_HAL_Driver/Inc/stm32n6xx_ll_bus.h ****   return ((READ_BIT(RCC->APB1LPENR1, Periphs) == Periphs) ? 1UL : 0UL);
2662:STM32Cube_FW_N6/Drivers/STM32N6xx_HAL_Driver/Inc/stm32n6xx_ll_bus.h **** }
2663:STM32Cube_FW_N6/Drivers/STM32N6xx_HAL_Driver/Inc/stm32n6xx_ll_bus.h **** 
2664:STM32Cube_FW_N6/Drivers/STM32N6xx_HAL_Driver/Inc/stm32n6xx_ll_bus.h **** /**
2665:STM32Cube_FW_N6/Drivers/STM32N6xx_HAL_Driver/Inc/stm32n6xx_ll_bus.h ****   * @brief  Disable APB1 peripherals clock during Low Power mode.
2666:STM32Cube_FW_N6/Drivers/STM32N6xx_HAL_Driver/Inc/stm32n6xx_ll_bus.h ****   * @rmtoll APB1LPENCR1  TIM2LPENC     LL_APB1_GRP1_DisableClockLowPower\n
2667:STM32Cube_FW_N6/Drivers/STM32N6xx_HAL_Driver/Inc/stm32n6xx_ll_bus.h ****   *         APB1LPENCR1  TIM3LPENC     LL_APB1_GRP1_DisableClockLowPower\n
2668:STM32Cube_FW_N6/Drivers/STM32N6xx_HAL_Driver/Inc/stm32n6xx_ll_bus.h ****   *         APB1LPENCR1  TIM4LPENC     LL_APB1_GRP1_DisableClockLowPower\n
2669:STM32Cube_FW_N6/Drivers/STM32N6xx_HAL_Driver/Inc/stm32n6xx_ll_bus.h ****   *         APB1LPENCR1  TIM5LPENC     LL_APB1_GRP1_DisableClockLowPower\n
2670:STM32Cube_FW_N6/Drivers/STM32N6xx_HAL_Driver/Inc/stm32n6xx_ll_bus.h ****   *         APB1LPENCR1  TIM6LPENC     LL_APB1_GRP1_DisableClockLowPower\n
2671:STM32Cube_FW_N6/Drivers/STM32N6xx_HAL_Driver/Inc/stm32n6xx_ll_bus.h ****   *         APB1LPENCR1  TIM7LPENC     LL_APB1_GRP1_DisableClockLowPower\n
2672:STM32Cube_FW_N6/Drivers/STM32N6xx_HAL_Driver/Inc/stm32n6xx_ll_bus.h ****   *         APB1LPENCR1  TIM12LPENC    LL_APB1_GRP1_DisableClockLowPower\n
2673:STM32Cube_FW_N6/Drivers/STM32N6xx_HAL_Driver/Inc/stm32n6xx_ll_bus.h ****   *         APB1LPENCR1  TIM13LPENC    LL_APB1_GRP1_DisableClockLowPower\n
2674:STM32Cube_FW_N6/Drivers/STM32N6xx_HAL_Driver/Inc/stm32n6xx_ll_bus.h ****   *         APB1LPENCR1  TIM14LPENC    LL_APB1_GRP1_DisableClockLowPower\n
2675:STM32Cube_FW_N6/Drivers/STM32N6xx_HAL_Driver/Inc/stm32n6xx_ll_bus.h ****   *         APB1LPENCR1  LPTIM1LPENC   LL_APB1_GRP1_DisableClockLowPower\n
2676:STM32Cube_FW_N6/Drivers/STM32N6xx_HAL_Driver/Inc/stm32n6xx_ll_bus.h ****   *         APB1LPENCR1  WWDGLPENC     LL_APB1_GRP1_DisableClockLowPower\n
2677:STM32Cube_FW_N6/Drivers/STM32N6xx_HAL_Driver/Inc/stm32n6xx_ll_bus.h ****   *         APB1LPENCR1  TIM10LPENC    LL_APB1_GRP1_DisableClockLowPower\n
2678:STM32Cube_FW_N6/Drivers/STM32N6xx_HAL_Driver/Inc/stm32n6xx_ll_bus.h ****   *         APB1LPENCR1  TIM11LPENC    LL_APB1_GRP1_DisableClockLowPower\n
2679:STM32Cube_FW_N6/Drivers/STM32N6xx_HAL_Driver/Inc/stm32n6xx_ll_bus.h ****   *         APB1LPENCR1  SPI2LPENC     LL_APB1_GRP1_DisableClockLowPower\n
2680:STM32Cube_FW_N6/Drivers/STM32N6xx_HAL_Driver/Inc/stm32n6xx_ll_bus.h ****   *         APB1LPENCR1  SPI3LPENC     LL_APB1_GRP1_DisableClockLowPower\n
2681:STM32Cube_FW_N6/Drivers/STM32N6xx_HAL_Driver/Inc/stm32n6xx_ll_bus.h ****   *         APB1LPENCR1  SPDIFRX1LPENC LL_APB1_GRP1_DisableClockLowPower\n
2682:STM32Cube_FW_N6/Drivers/STM32N6xx_HAL_Driver/Inc/stm32n6xx_ll_bus.h ****   *         APB1LPENCR1  USART2LPENC   LL_APB1_GRP1_DisableClockLowPower\n
2683:STM32Cube_FW_N6/Drivers/STM32N6xx_HAL_Driver/Inc/stm32n6xx_ll_bus.h ****   *         APB1LPENCR1  USART3LPENC   LL_APB1_GRP1_DisableClockLowPower\n
2684:STM32Cube_FW_N6/Drivers/STM32N6xx_HAL_Driver/Inc/stm32n6xx_ll_bus.h ****   *         APB1LPENCR1  UART4LPENC    LL_APB1_GRP1_DisableClockLowPower\n
2685:STM32Cube_FW_N6/Drivers/STM32N6xx_HAL_Driver/Inc/stm32n6xx_ll_bus.h ****   *         APB1LPENCR1  UART5LPENC    LL_APB1_GRP1_DisableClockLowPower\n
2686:STM32Cube_FW_N6/Drivers/STM32N6xx_HAL_Driver/Inc/stm32n6xx_ll_bus.h ****   *         APB1LPENCR1  I2C1LPENC     LL_APB1_GRP1_DisableClockLowPower\n
2687:STM32Cube_FW_N6/Drivers/STM32N6xx_HAL_Driver/Inc/stm32n6xx_ll_bus.h ****   *         APB1LPENCR1  I2C2LPENC     LL_APB1_GRP1_DisableClockLowPower\n
2688:STM32Cube_FW_N6/Drivers/STM32N6xx_HAL_Driver/Inc/stm32n6xx_ll_bus.h ****   *         APB1LPENCR1  I2C3LPENC     LL_APB1_GRP1_DisableClockLowPower\n
2689:STM32Cube_FW_N6/Drivers/STM32N6xx_HAL_Driver/Inc/stm32n6xx_ll_bus.h ****   *         APB1LPENCR1  I3C1LPENC     LL_APB1_GRP1_DisableClockLowPower\n
2690:STM32Cube_FW_N6/Drivers/STM32N6xx_HAL_Driver/Inc/stm32n6xx_ll_bus.h ****   *         APB1LPENCR1  I3C2LPENC     LL_APB1_GRP1_DisableClockLowPower\n
2691:STM32Cube_FW_N6/Drivers/STM32N6xx_HAL_Driver/Inc/stm32n6xx_ll_bus.h ****   *         APB1LPENCR1  UART7LPENC    LL_APB1_GRP1_DisableClockLowPower\n
2692:STM32Cube_FW_N6/Drivers/STM32N6xx_HAL_Driver/Inc/stm32n6xx_ll_bus.h ****   *         APB1LPENCR1  UART8LPENC    LL_APB1_GRP1_DisableClockLowPower
2693:STM32Cube_FW_N6/Drivers/STM32N6xx_HAL_Driver/Inc/stm32n6xx_ll_bus.h ****   * @param  Periphs This parameter can be a combination of the following values:
2694:STM32Cube_FW_N6/Drivers/STM32N6xx_HAL_Driver/Inc/stm32n6xx_ll_bus.h ****   *         @arg @ref LL_APB1_GRP1_PERIPH_I2C1
2695:STM32Cube_FW_N6/Drivers/STM32N6xx_HAL_Driver/Inc/stm32n6xx_ll_bus.h ****   *         @arg @ref LL_APB1_GRP1_PERIPH_I2C2
2696:STM32Cube_FW_N6/Drivers/STM32N6xx_HAL_Driver/Inc/stm32n6xx_ll_bus.h ****   *         @arg @ref LL_APB1_GRP1_PERIPH_I2C3
2697:STM32Cube_FW_N6/Drivers/STM32N6xx_HAL_Driver/Inc/stm32n6xx_ll_bus.h ****   *         @arg @ref LL_APB1_GRP1_PERIPH_I3C1
2698:STM32Cube_FW_N6/Drivers/STM32N6xx_HAL_Driver/Inc/stm32n6xx_ll_bus.h ****   *         @arg @ref LL_APB1_GRP1_PERIPH_I3C2
2699:STM32Cube_FW_N6/Drivers/STM32N6xx_HAL_Driver/Inc/stm32n6xx_ll_bus.h ****   *         @arg @ref LL_APB1_GRP1_PERIPH_LPTIM1
2700:STM32Cube_FW_N6/Drivers/STM32N6xx_HAL_Driver/Inc/stm32n6xx_ll_bus.h ****   *         @arg @ref LL_APB1_GRP1_PERIPH_SPDIFRX1
2701:STM32Cube_FW_N6/Drivers/STM32N6xx_HAL_Driver/Inc/stm32n6xx_ll_bus.h ****   *         @arg @ref LL_APB1_GRP1_PERIPH_SPI2
2702:STM32Cube_FW_N6/Drivers/STM32N6xx_HAL_Driver/Inc/stm32n6xx_ll_bus.h ****   *         @arg @ref LL_APB1_GRP1_PERIPH_SPI3
2703:STM32Cube_FW_N6/Drivers/STM32N6xx_HAL_Driver/Inc/stm32n6xx_ll_bus.h ****   *         @arg @ref LL_APB1_GRP1_PERIPH_TIM2
ARM GAS  C:\Users\DJESSOU\AppData\Local\Temp\cc3dm0Vf.s 			page 180


2704:STM32Cube_FW_N6/Drivers/STM32N6xx_HAL_Driver/Inc/stm32n6xx_ll_bus.h ****   *         @arg @ref LL_APB1_GRP1_PERIPH_TIM3
2705:STM32Cube_FW_N6/Drivers/STM32N6xx_HAL_Driver/Inc/stm32n6xx_ll_bus.h ****   *         @arg @ref LL_APB1_GRP1_PERIPH_TIM4
2706:STM32Cube_FW_N6/Drivers/STM32N6xx_HAL_Driver/Inc/stm32n6xx_ll_bus.h ****   *         @arg @ref LL_APB1_GRP1_PERIPH_TIM5
2707:STM32Cube_FW_N6/Drivers/STM32N6xx_HAL_Driver/Inc/stm32n6xx_ll_bus.h ****   *         @arg @ref LL_APB1_GRP1_PERIPH_TIM6
2708:STM32Cube_FW_N6/Drivers/STM32N6xx_HAL_Driver/Inc/stm32n6xx_ll_bus.h ****   *         @arg @ref LL_APB1_GRP1_PERIPH_TIM7
2709:STM32Cube_FW_N6/Drivers/STM32N6xx_HAL_Driver/Inc/stm32n6xx_ll_bus.h ****   *         @arg @ref LL_APB1_GRP1_PERIPH_TIM10
2710:STM32Cube_FW_N6/Drivers/STM32N6xx_HAL_Driver/Inc/stm32n6xx_ll_bus.h ****   *         @arg @ref LL_APB1_GRP1_PERIPH_TIM11
2711:STM32Cube_FW_N6/Drivers/STM32N6xx_HAL_Driver/Inc/stm32n6xx_ll_bus.h ****   *         @arg @ref LL_APB1_GRP1_PERIPH_TIM12
2712:STM32Cube_FW_N6/Drivers/STM32N6xx_HAL_Driver/Inc/stm32n6xx_ll_bus.h ****   *         @arg @ref LL_APB1_GRP1_PERIPH_TIM13
2713:STM32Cube_FW_N6/Drivers/STM32N6xx_HAL_Driver/Inc/stm32n6xx_ll_bus.h ****   *         @arg @ref LL_APB1_GRP1_PERIPH_TIM14
2714:STM32Cube_FW_N6/Drivers/STM32N6xx_HAL_Driver/Inc/stm32n6xx_ll_bus.h ****   *         @arg @ref LL_APB1_GRP1_PERIPH_USART2
2715:STM32Cube_FW_N6/Drivers/STM32N6xx_HAL_Driver/Inc/stm32n6xx_ll_bus.h ****   *         @arg @ref LL_APB1_GRP1_PERIPH_USART3
2716:STM32Cube_FW_N6/Drivers/STM32N6xx_HAL_Driver/Inc/stm32n6xx_ll_bus.h ****   *         @arg @ref LL_APB1_GRP1_PERIPH_UART4
2717:STM32Cube_FW_N6/Drivers/STM32N6xx_HAL_Driver/Inc/stm32n6xx_ll_bus.h ****   *         @arg @ref LL_APB1_GRP1_PERIPH_UART5
2718:STM32Cube_FW_N6/Drivers/STM32N6xx_HAL_Driver/Inc/stm32n6xx_ll_bus.h ****   *         @arg @ref LL_APB1_GRP1_PERIPH_UART7
2719:STM32Cube_FW_N6/Drivers/STM32N6xx_HAL_Driver/Inc/stm32n6xx_ll_bus.h ****   *         @arg @ref LL_APB1_GRP1_PERIPH_UART8
2720:STM32Cube_FW_N6/Drivers/STM32N6xx_HAL_Driver/Inc/stm32n6xx_ll_bus.h ****   *         @arg @ref LL_APB1_GRP1_PERIPH_WWDG
2721:STM32Cube_FW_N6/Drivers/STM32N6xx_HAL_Driver/Inc/stm32n6xx_ll_bus.h ****   * @retval None
2722:STM32Cube_FW_N6/Drivers/STM32N6xx_HAL_Driver/Inc/stm32n6xx_ll_bus.h ****   */
2723:STM32Cube_FW_N6/Drivers/STM32N6xx_HAL_Driver/Inc/stm32n6xx_ll_bus.h **** __STATIC_INLINE void LL_APB1_GRP1_DisableClockLowPower(uint32_t Periphs)
2724:STM32Cube_FW_N6/Drivers/STM32N6xx_HAL_Driver/Inc/stm32n6xx_ll_bus.h **** {
2725:STM32Cube_FW_N6/Drivers/STM32N6xx_HAL_Driver/Inc/stm32n6xx_ll_bus.h ****   WRITE_REG(RCC->APB1LPENCR1, Periphs);
2726:STM32Cube_FW_N6/Drivers/STM32N6xx_HAL_Driver/Inc/stm32n6xx_ll_bus.h **** }
2727:STM32Cube_FW_N6/Drivers/STM32N6xx_HAL_Driver/Inc/stm32n6xx_ll_bus.h **** 
2728:STM32Cube_FW_N6/Drivers/STM32N6xx_HAL_Driver/Inc/stm32n6xx_ll_bus.h **** /**
2729:STM32Cube_FW_N6/Drivers/STM32N6xx_HAL_Driver/Inc/stm32n6xx_ll_bus.h ****   * @brief  Enable APB1 peripherals clock.
2730:STM32Cube_FW_N6/Drivers/STM32N6xx_HAL_Driver/Inc/stm32n6xx_ll_bus.h ****   * @rmtoll APB1ENSR2    MDIOSENS      LL_APB1_GRP2_EnableClock\n
2731:STM32Cube_FW_N6/Drivers/STM32N6xx_HAL_Driver/Inc/stm32n6xx_ll_bus.h ****   *         APB1ENSR2    FDCANENS      LL_APB1_GRP2_EnableClock\n
2732:STM32Cube_FW_N6/Drivers/STM32N6xx_HAL_Driver/Inc/stm32n6xx_ll_bus.h ****   *         APB1ENSR2    UCPD1ENS      LL_APB1_GRP2_EnableClock
2733:STM32Cube_FW_N6/Drivers/STM32N6xx_HAL_Driver/Inc/stm32n6xx_ll_bus.h ****   * @param  Periphs This parameter can be a combination of the following values:
2734:STM32Cube_FW_N6/Drivers/STM32N6xx_HAL_Driver/Inc/stm32n6xx_ll_bus.h ****   *         @arg @ref LL_APB1_GRP2_PERIPH_FDCAN
2735:STM32Cube_FW_N6/Drivers/STM32N6xx_HAL_Driver/Inc/stm32n6xx_ll_bus.h ****   *         @arg @ref LL_APB1_GRP2_PERIPH_MDIOS
2736:STM32Cube_FW_N6/Drivers/STM32N6xx_HAL_Driver/Inc/stm32n6xx_ll_bus.h ****   *         @arg @ref LL_APB1_GRP2_PERIPH_UCPD1
2737:STM32Cube_FW_N6/Drivers/STM32N6xx_HAL_Driver/Inc/stm32n6xx_ll_bus.h ****   * @retval None
2738:STM32Cube_FW_N6/Drivers/STM32N6xx_HAL_Driver/Inc/stm32n6xx_ll_bus.h ****   */
2739:STM32Cube_FW_N6/Drivers/STM32N6xx_HAL_Driver/Inc/stm32n6xx_ll_bus.h **** __STATIC_INLINE void LL_APB1_GRP2_EnableClock(uint32_t Periphs)
2740:STM32Cube_FW_N6/Drivers/STM32N6xx_HAL_Driver/Inc/stm32n6xx_ll_bus.h **** {
2741:STM32Cube_FW_N6/Drivers/STM32N6xx_HAL_Driver/Inc/stm32n6xx_ll_bus.h ****   __IO uint32_t tmpreg;
2742:STM32Cube_FW_N6/Drivers/STM32N6xx_HAL_Driver/Inc/stm32n6xx_ll_bus.h ****   WRITE_REG(RCC->APB1ENSR2, Periphs);
2743:STM32Cube_FW_N6/Drivers/STM32N6xx_HAL_Driver/Inc/stm32n6xx_ll_bus.h ****   /* Delay after an RCC peripheral clock enabling */
2744:STM32Cube_FW_N6/Drivers/STM32N6xx_HAL_Driver/Inc/stm32n6xx_ll_bus.h ****   tmpreg = READ_REG(RCC->APB1ENR2);
2745:STM32Cube_FW_N6/Drivers/STM32N6xx_HAL_Driver/Inc/stm32n6xx_ll_bus.h ****   (void)tmpreg;
2746:STM32Cube_FW_N6/Drivers/STM32N6xx_HAL_Driver/Inc/stm32n6xx_ll_bus.h **** }
2747:STM32Cube_FW_N6/Drivers/STM32N6xx_HAL_Driver/Inc/stm32n6xx_ll_bus.h **** 
2748:STM32Cube_FW_N6/Drivers/STM32N6xx_HAL_Driver/Inc/stm32n6xx_ll_bus.h **** /**
2749:STM32Cube_FW_N6/Drivers/STM32N6xx_HAL_Driver/Inc/stm32n6xx_ll_bus.h ****   * @brief  Check if APB1 peripheral clock is enabled or not
2750:STM32Cube_FW_N6/Drivers/STM32N6xx_HAL_Driver/Inc/stm32n6xx_ll_bus.h ****   * @rmtoll APB1ENR2     MDIOSEN       LL_APB1_GRP2_IsEnabledClock\n
2751:STM32Cube_FW_N6/Drivers/STM32N6xx_HAL_Driver/Inc/stm32n6xx_ll_bus.h ****   *         APB1ENR2     FDCANEN       LL_APB1_GRP2_IsEnabledClock\n
2752:STM32Cube_FW_N6/Drivers/STM32N6xx_HAL_Driver/Inc/stm32n6xx_ll_bus.h ****   *         APB1ENR2     UCPD1EN       LL_APB1_GRP2_IsEnabledClock
2753:STM32Cube_FW_N6/Drivers/STM32N6xx_HAL_Driver/Inc/stm32n6xx_ll_bus.h ****   * @param  Periphs This parameter can be a combination of the following values:
2754:STM32Cube_FW_N6/Drivers/STM32N6xx_HAL_Driver/Inc/stm32n6xx_ll_bus.h ****   *         @arg @ref LL_APB1_GRP2_PERIPH_FDCAN
2755:STM32Cube_FW_N6/Drivers/STM32N6xx_HAL_Driver/Inc/stm32n6xx_ll_bus.h ****   *         @arg @ref LL_APB1_GRP2_PERIPH_MDIOS
2756:STM32Cube_FW_N6/Drivers/STM32N6xx_HAL_Driver/Inc/stm32n6xx_ll_bus.h ****   *         @arg @ref LL_APB1_GRP2_PERIPH_UCPD1
2757:STM32Cube_FW_N6/Drivers/STM32N6xx_HAL_Driver/Inc/stm32n6xx_ll_bus.h ****   * @retval uint32_t
2758:STM32Cube_FW_N6/Drivers/STM32N6xx_HAL_Driver/Inc/stm32n6xx_ll_bus.h ****   */
2759:STM32Cube_FW_N6/Drivers/STM32N6xx_HAL_Driver/Inc/stm32n6xx_ll_bus.h **** __STATIC_INLINE uint32_t LL_APB1_GRP2_IsEnabledClock(uint32_t Periphs)
2760:STM32Cube_FW_N6/Drivers/STM32N6xx_HAL_Driver/Inc/stm32n6xx_ll_bus.h **** {
ARM GAS  C:\Users\DJESSOU\AppData\Local\Temp\cc3dm0Vf.s 			page 181


2761:STM32Cube_FW_N6/Drivers/STM32N6xx_HAL_Driver/Inc/stm32n6xx_ll_bus.h ****   return ((READ_BIT(RCC->APB1ENR2, Periphs) == Periphs) ? 1UL : 0UL);
2762:STM32Cube_FW_N6/Drivers/STM32N6xx_HAL_Driver/Inc/stm32n6xx_ll_bus.h **** }
2763:STM32Cube_FW_N6/Drivers/STM32N6xx_HAL_Driver/Inc/stm32n6xx_ll_bus.h **** 
2764:STM32Cube_FW_N6/Drivers/STM32N6xx_HAL_Driver/Inc/stm32n6xx_ll_bus.h **** /**
2765:STM32Cube_FW_N6/Drivers/STM32N6xx_HAL_Driver/Inc/stm32n6xx_ll_bus.h ****   * @brief  Disable APB1 peripherals clock.
2766:STM32Cube_FW_N6/Drivers/STM32N6xx_HAL_Driver/Inc/stm32n6xx_ll_bus.h ****   * @rmtoll APB1ENCR2    MDIOSENC      LL_APB1_GRP2_DisableClock\n
2767:STM32Cube_FW_N6/Drivers/STM32N6xx_HAL_Driver/Inc/stm32n6xx_ll_bus.h ****   *         APB1ENCR2    FDCANENC      LL_APB1_GRP2_DisableClock\n
2768:STM32Cube_FW_N6/Drivers/STM32N6xx_HAL_Driver/Inc/stm32n6xx_ll_bus.h ****   *         APB1ENCR2    UCPD1ENC      LL_APB1_GRP2_DisableClock
2769:STM32Cube_FW_N6/Drivers/STM32N6xx_HAL_Driver/Inc/stm32n6xx_ll_bus.h ****   * @param  Periphs This parameter can be a combination of the following values:
2770:STM32Cube_FW_N6/Drivers/STM32N6xx_HAL_Driver/Inc/stm32n6xx_ll_bus.h ****   *         @arg @ref LL_APB1_GRP2_PERIPH_FDCAN
2771:STM32Cube_FW_N6/Drivers/STM32N6xx_HAL_Driver/Inc/stm32n6xx_ll_bus.h ****   *         @arg @ref LL_APB1_GRP2_PERIPH_MDIOS
2772:STM32Cube_FW_N6/Drivers/STM32N6xx_HAL_Driver/Inc/stm32n6xx_ll_bus.h ****   *         @arg @ref LL_APB1_GRP2_PERIPH_UCPD1
2773:STM32Cube_FW_N6/Drivers/STM32N6xx_HAL_Driver/Inc/stm32n6xx_ll_bus.h ****   * @retval None
2774:STM32Cube_FW_N6/Drivers/STM32N6xx_HAL_Driver/Inc/stm32n6xx_ll_bus.h ****   */
2775:STM32Cube_FW_N6/Drivers/STM32N6xx_HAL_Driver/Inc/stm32n6xx_ll_bus.h **** __STATIC_INLINE void LL_APB1_GRP2_DisableClock(uint32_t Periphs)
2776:STM32Cube_FW_N6/Drivers/STM32N6xx_HAL_Driver/Inc/stm32n6xx_ll_bus.h **** {
2777:STM32Cube_FW_N6/Drivers/STM32N6xx_HAL_Driver/Inc/stm32n6xx_ll_bus.h ****   WRITE_REG(RCC->APB1ENCR2, Periphs);
2778:STM32Cube_FW_N6/Drivers/STM32N6xx_HAL_Driver/Inc/stm32n6xx_ll_bus.h **** }
2779:STM32Cube_FW_N6/Drivers/STM32N6xx_HAL_Driver/Inc/stm32n6xx_ll_bus.h **** 
2780:STM32Cube_FW_N6/Drivers/STM32N6xx_HAL_Driver/Inc/stm32n6xx_ll_bus.h **** /**
2781:STM32Cube_FW_N6/Drivers/STM32N6xx_HAL_Driver/Inc/stm32n6xx_ll_bus.h ****   * @brief  Force APB1 peripherals reset.
2782:STM32Cube_FW_N6/Drivers/STM32N6xx_HAL_Driver/Inc/stm32n6xx_ll_bus.h ****   * @rmtoll APB1RSTSR2   MDIOSRSTS     LL_APB1_GRP2_ForceReset\n
2783:STM32Cube_FW_N6/Drivers/STM32N6xx_HAL_Driver/Inc/stm32n6xx_ll_bus.h ****   *         APB1RSTSR2   FDCANRSTS     LL_APB1_GRP2_ForceReset\n
2784:STM32Cube_FW_N6/Drivers/STM32N6xx_HAL_Driver/Inc/stm32n6xx_ll_bus.h ****   *         APB1RSTSR2   UCPD1RSTS     LL_APB1_GRP2_ForceReset
2785:STM32Cube_FW_N6/Drivers/STM32N6xx_HAL_Driver/Inc/stm32n6xx_ll_bus.h ****   * @param  Periphs This parameter can be a combination of the following values:
2786:STM32Cube_FW_N6/Drivers/STM32N6xx_HAL_Driver/Inc/stm32n6xx_ll_bus.h ****   *         @arg @ref LL_APB1_GRP2_PERIPH_FDCAN
2787:STM32Cube_FW_N6/Drivers/STM32N6xx_HAL_Driver/Inc/stm32n6xx_ll_bus.h ****   *         @arg @ref LL_APB1_GRP2_PERIPH_MDIOS
2788:STM32Cube_FW_N6/Drivers/STM32N6xx_HAL_Driver/Inc/stm32n6xx_ll_bus.h ****   *         @arg @ref LL_APB1_GRP2_PERIPH_UCPD1
2789:STM32Cube_FW_N6/Drivers/STM32N6xx_HAL_Driver/Inc/stm32n6xx_ll_bus.h ****   * @retval None
2790:STM32Cube_FW_N6/Drivers/STM32N6xx_HAL_Driver/Inc/stm32n6xx_ll_bus.h ****   */
2791:STM32Cube_FW_N6/Drivers/STM32N6xx_HAL_Driver/Inc/stm32n6xx_ll_bus.h **** __STATIC_INLINE void LL_APB1_GRP2_ForceReset(uint32_t Periphs)
2792:STM32Cube_FW_N6/Drivers/STM32N6xx_HAL_Driver/Inc/stm32n6xx_ll_bus.h **** {
2793:STM32Cube_FW_N6/Drivers/STM32N6xx_HAL_Driver/Inc/stm32n6xx_ll_bus.h ****   WRITE_REG(RCC->APB1RSTSR2, Periphs);
2794:STM32Cube_FW_N6/Drivers/STM32N6xx_HAL_Driver/Inc/stm32n6xx_ll_bus.h **** }
2795:STM32Cube_FW_N6/Drivers/STM32N6xx_HAL_Driver/Inc/stm32n6xx_ll_bus.h **** 
2796:STM32Cube_FW_N6/Drivers/STM32N6xx_HAL_Driver/Inc/stm32n6xx_ll_bus.h **** /**
2797:STM32Cube_FW_N6/Drivers/STM32N6xx_HAL_Driver/Inc/stm32n6xx_ll_bus.h ****   * @brief  Release APB1 peripherals reset.
2798:STM32Cube_FW_N6/Drivers/STM32N6xx_HAL_Driver/Inc/stm32n6xx_ll_bus.h ****   * @rmtoll APB1RSTCR2   MDIOSRSTC     LL_APB1_GRP2_ReleaseReset\n
2799:STM32Cube_FW_N6/Drivers/STM32N6xx_HAL_Driver/Inc/stm32n6xx_ll_bus.h ****   *         APB1RSTCR2   FDCANRSTC     LL_APB1_GRP2_ReleaseReset\n
2800:STM32Cube_FW_N6/Drivers/STM32N6xx_HAL_Driver/Inc/stm32n6xx_ll_bus.h ****   *         APB1RSTCR2   UCPD1RSTC     LL_APB1_GRP2_ReleaseReset
2801:STM32Cube_FW_N6/Drivers/STM32N6xx_HAL_Driver/Inc/stm32n6xx_ll_bus.h ****   * @param  Periphs This parameter can be a combination of the following values:
2802:STM32Cube_FW_N6/Drivers/STM32N6xx_HAL_Driver/Inc/stm32n6xx_ll_bus.h ****   *         @arg @ref LL_APB1_GRP2_PERIPH_FDCAN
2803:STM32Cube_FW_N6/Drivers/STM32N6xx_HAL_Driver/Inc/stm32n6xx_ll_bus.h ****   *         @arg @ref LL_APB1_GRP2_PERIPH_MDIOS
2804:STM32Cube_FW_N6/Drivers/STM32N6xx_HAL_Driver/Inc/stm32n6xx_ll_bus.h ****   *         @arg @ref LL_APB1_GRP2_PERIPH_UCPD1
2805:STM32Cube_FW_N6/Drivers/STM32N6xx_HAL_Driver/Inc/stm32n6xx_ll_bus.h ****   * @retval None
2806:STM32Cube_FW_N6/Drivers/STM32N6xx_HAL_Driver/Inc/stm32n6xx_ll_bus.h ****   */
2807:STM32Cube_FW_N6/Drivers/STM32N6xx_HAL_Driver/Inc/stm32n6xx_ll_bus.h **** __STATIC_INLINE void LL_APB1_GRP2_ReleaseReset(uint32_t Periphs)
2808:STM32Cube_FW_N6/Drivers/STM32N6xx_HAL_Driver/Inc/stm32n6xx_ll_bus.h **** {
2809:STM32Cube_FW_N6/Drivers/STM32N6xx_HAL_Driver/Inc/stm32n6xx_ll_bus.h ****   WRITE_REG(RCC->APB1RSTCR2, Periphs);
2810:STM32Cube_FW_N6/Drivers/STM32N6xx_HAL_Driver/Inc/stm32n6xx_ll_bus.h **** }
2811:STM32Cube_FW_N6/Drivers/STM32N6xx_HAL_Driver/Inc/stm32n6xx_ll_bus.h **** 
2812:STM32Cube_FW_N6/Drivers/STM32N6xx_HAL_Driver/Inc/stm32n6xx_ll_bus.h **** /**
2813:STM32Cube_FW_N6/Drivers/STM32N6xx_HAL_Driver/Inc/stm32n6xx_ll_bus.h ****   * @brief  Enable APB1 peripherals clock during Low Power mode.
2814:STM32Cube_FW_N6/Drivers/STM32N6xx_HAL_Driver/Inc/stm32n6xx_ll_bus.h ****   * @rmtoll APB1LPENSR2  MDIOSLPENS    LL_APB1_GRP2_EnableClockLowPower\n
2815:STM32Cube_FW_N6/Drivers/STM32N6xx_HAL_Driver/Inc/stm32n6xx_ll_bus.h ****   *         APB1LPENSR2  FDCANLPENS    LL_APB1_GRP2_EnableClockLowPower\n
2816:STM32Cube_FW_N6/Drivers/STM32N6xx_HAL_Driver/Inc/stm32n6xx_ll_bus.h ****   *         APB1LPENSR2  UCPD1LPENS    LL_APB1_GRP2_EnableClockLowPower
2817:STM32Cube_FW_N6/Drivers/STM32N6xx_HAL_Driver/Inc/stm32n6xx_ll_bus.h ****   * @param  Periphs This parameter can be a combination of the following values:
ARM GAS  C:\Users\DJESSOU\AppData\Local\Temp\cc3dm0Vf.s 			page 182


2818:STM32Cube_FW_N6/Drivers/STM32N6xx_HAL_Driver/Inc/stm32n6xx_ll_bus.h ****   *         @arg @ref LL_APB1_GRP2_PERIPH_FDCAN
2819:STM32Cube_FW_N6/Drivers/STM32N6xx_HAL_Driver/Inc/stm32n6xx_ll_bus.h ****   *         @arg @ref LL_APB1_GRP2_PERIPH_MDIOS
2820:STM32Cube_FW_N6/Drivers/STM32N6xx_HAL_Driver/Inc/stm32n6xx_ll_bus.h ****   *         @arg @ref LL_APB1_GRP2_PERIPH_UCPD1
2821:STM32Cube_FW_N6/Drivers/STM32N6xx_HAL_Driver/Inc/stm32n6xx_ll_bus.h ****   * @retval None
2822:STM32Cube_FW_N6/Drivers/STM32N6xx_HAL_Driver/Inc/stm32n6xx_ll_bus.h ****   */
2823:STM32Cube_FW_N6/Drivers/STM32N6xx_HAL_Driver/Inc/stm32n6xx_ll_bus.h **** __STATIC_INLINE void LL_APB1_GRP2_EnableClockLowPower(uint32_t Periphs)
2824:STM32Cube_FW_N6/Drivers/STM32N6xx_HAL_Driver/Inc/stm32n6xx_ll_bus.h **** {
2825:STM32Cube_FW_N6/Drivers/STM32N6xx_HAL_Driver/Inc/stm32n6xx_ll_bus.h ****   __IO uint32_t tmpreg;
2826:STM32Cube_FW_N6/Drivers/STM32N6xx_HAL_Driver/Inc/stm32n6xx_ll_bus.h ****   WRITE_REG(RCC->APB1LPENSR2, Periphs);
2827:STM32Cube_FW_N6/Drivers/STM32N6xx_HAL_Driver/Inc/stm32n6xx_ll_bus.h ****   /* Delay after an RCC peripheral clock enabling */
2828:STM32Cube_FW_N6/Drivers/STM32N6xx_HAL_Driver/Inc/stm32n6xx_ll_bus.h ****   tmpreg = READ_REG(RCC->APB1LPENR2);
2829:STM32Cube_FW_N6/Drivers/STM32N6xx_HAL_Driver/Inc/stm32n6xx_ll_bus.h ****   (void)tmpreg;
2830:STM32Cube_FW_N6/Drivers/STM32N6xx_HAL_Driver/Inc/stm32n6xx_ll_bus.h **** }
2831:STM32Cube_FW_N6/Drivers/STM32N6xx_HAL_Driver/Inc/stm32n6xx_ll_bus.h **** 
2832:STM32Cube_FW_N6/Drivers/STM32N6xx_HAL_Driver/Inc/stm32n6xx_ll_bus.h **** /**
2833:STM32Cube_FW_N6/Drivers/STM32N6xx_HAL_Driver/Inc/stm32n6xx_ll_bus.h ****   * @brief  Check if APB1 peripheral clock during Low Power mode is enabled or not .
2834:STM32Cube_FW_N6/Drivers/STM32N6xx_HAL_Driver/Inc/stm32n6xx_ll_bus.h ****   * @rmtoll APB1LPENR2   MDIOSLPEN     LL_APB1_GRP2_IsEnabledClockLowPower\n
2835:STM32Cube_FW_N6/Drivers/STM32N6xx_HAL_Driver/Inc/stm32n6xx_ll_bus.h ****   *         APB1LPENR2   FDCANLPEN     LL_APB1_GRP2_IsEnabledClockLowPower\n
2836:STM32Cube_FW_N6/Drivers/STM32N6xx_HAL_Driver/Inc/stm32n6xx_ll_bus.h ****   *         APB1LPENR2   UCPD1LPEN     LL_APB1_GRP2_IsEnabledClockLowPower
2837:STM32Cube_FW_N6/Drivers/STM32N6xx_HAL_Driver/Inc/stm32n6xx_ll_bus.h ****   * @param  Periphs This parameter can be a combination of the following values:
2838:STM32Cube_FW_N6/Drivers/STM32N6xx_HAL_Driver/Inc/stm32n6xx_ll_bus.h ****   *         @arg @ref LL_APB1_GRP2_PERIPH_FDCAN
2839:STM32Cube_FW_N6/Drivers/STM32N6xx_HAL_Driver/Inc/stm32n6xx_ll_bus.h ****   *         @arg @ref LL_APB1_GRP2_PERIPH_MDIOS
2840:STM32Cube_FW_N6/Drivers/STM32N6xx_HAL_Driver/Inc/stm32n6xx_ll_bus.h ****   *         @arg @ref LL_APB1_GRP2_PERIPH_UCPD1
2841:STM32Cube_FW_N6/Drivers/STM32N6xx_HAL_Driver/Inc/stm32n6xx_ll_bus.h ****   * @retval uint32_t
2842:STM32Cube_FW_N6/Drivers/STM32N6xx_HAL_Driver/Inc/stm32n6xx_ll_bus.h ****   */
2843:STM32Cube_FW_N6/Drivers/STM32N6xx_HAL_Driver/Inc/stm32n6xx_ll_bus.h **** __STATIC_INLINE uint32_t LL_APB1_GRP2_IsEnabledClockLowPower(uint32_t Periphs)
2844:STM32Cube_FW_N6/Drivers/STM32N6xx_HAL_Driver/Inc/stm32n6xx_ll_bus.h **** {
2845:STM32Cube_FW_N6/Drivers/STM32N6xx_HAL_Driver/Inc/stm32n6xx_ll_bus.h ****   return ((READ_BIT(RCC->APB1LPENR2, Periphs) == Periphs) ? 1UL : 0UL);
2846:STM32Cube_FW_N6/Drivers/STM32N6xx_HAL_Driver/Inc/stm32n6xx_ll_bus.h **** }
2847:STM32Cube_FW_N6/Drivers/STM32N6xx_HAL_Driver/Inc/stm32n6xx_ll_bus.h **** 
2848:STM32Cube_FW_N6/Drivers/STM32N6xx_HAL_Driver/Inc/stm32n6xx_ll_bus.h **** /**
2849:STM32Cube_FW_N6/Drivers/STM32N6xx_HAL_Driver/Inc/stm32n6xx_ll_bus.h ****   * @brief  Disable APB1 peripherals clock during Low Power mode.
2850:STM32Cube_FW_N6/Drivers/STM32N6xx_HAL_Driver/Inc/stm32n6xx_ll_bus.h ****   * @rmtoll APB1LPENCR2  MDIOSLPENC    LL_APB1_GRP2_DisableClockLowPower\n
2851:STM32Cube_FW_N6/Drivers/STM32N6xx_HAL_Driver/Inc/stm32n6xx_ll_bus.h ****   *         APB1LPENCR2  FDCANLPENC    LL_APB1_GRP2_DisableClockLowPower\n
2852:STM32Cube_FW_N6/Drivers/STM32N6xx_HAL_Driver/Inc/stm32n6xx_ll_bus.h ****   *         APB1LPENCR2  UCPD1LPENC    LL_APB1_GRP2_DisableClockLowPower
2853:STM32Cube_FW_N6/Drivers/STM32N6xx_HAL_Driver/Inc/stm32n6xx_ll_bus.h ****   * @param  Periphs This parameter can be a combination of the following values:
2854:STM32Cube_FW_N6/Drivers/STM32N6xx_HAL_Driver/Inc/stm32n6xx_ll_bus.h ****   *         @arg @ref LL_APB1_GRP2_PERIPH_FDCAN
2855:STM32Cube_FW_N6/Drivers/STM32N6xx_HAL_Driver/Inc/stm32n6xx_ll_bus.h ****   *         @arg @ref LL_APB1_GRP2_PERIPH_MDIOS
2856:STM32Cube_FW_N6/Drivers/STM32N6xx_HAL_Driver/Inc/stm32n6xx_ll_bus.h ****   *         @arg @ref LL_APB1_GRP2_PERIPH_UCPD1
2857:STM32Cube_FW_N6/Drivers/STM32N6xx_HAL_Driver/Inc/stm32n6xx_ll_bus.h ****   * @retval None
2858:STM32Cube_FW_N6/Drivers/STM32N6xx_HAL_Driver/Inc/stm32n6xx_ll_bus.h ****   */
2859:STM32Cube_FW_N6/Drivers/STM32N6xx_HAL_Driver/Inc/stm32n6xx_ll_bus.h **** __STATIC_INLINE void LL_APB1_GRP2_DisableClockLowPower(uint32_t Periphs)
2860:STM32Cube_FW_N6/Drivers/STM32N6xx_HAL_Driver/Inc/stm32n6xx_ll_bus.h **** {
2861:STM32Cube_FW_N6/Drivers/STM32N6xx_HAL_Driver/Inc/stm32n6xx_ll_bus.h ****   WRITE_REG(RCC->APB1LPENCR2, Periphs);
2862:STM32Cube_FW_N6/Drivers/STM32N6xx_HAL_Driver/Inc/stm32n6xx_ll_bus.h **** }
2863:STM32Cube_FW_N6/Drivers/STM32N6xx_HAL_Driver/Inc/stm32n6xx_ll_bus.h **** 
2864:STM32Cube_FW_N6/Drivers/STM32N6xx_HAL_Driver/Inc/stm32n6xx_ll_bus.h **** /**
2865:STM32Cube_FW_N6/Drivers/STM32N6xx_HAL_Driver/Inc/stm32n6xx_ll_bus.h ****   * @}
2866:STM32Cube_FW_N6/Drivers/STM32N6xx_HAL_Driver/Inc/stm32n6xx_ll_bus.h ****   */
2867:STM32Cube_FW_N6/Drivers/STM32N6xx_HAL_Driver/Inc/stm32n6xx_ll_bus.h **** 
2868:STM32Cube_FW_N6/Drivers/STM32N6xx_HAL_Driver/Inc/stm32n6xx_ll_bus.h **** /** @defgroup BUS_LL_EF_APB2 APB2
2869:STM32Cube_FW_N6/Drivers/STM32N6xx_HAL_Driver/Inc/stm32n6xx_ll_bus.h ****   * @{
2870:STM32Cube_FW_N6/Drivers/STM32N6xx_HAL_Driver/Inc/stm32n6xx_ll_bus.h ****   */
2871:STM32Cube_FW_N6/Drivers/STM32N6xx_HAL_Driver/Inc/stm32n6xx_ll_bus.h **** 
2872:STM32Cube_FW_N6/Drivers/STM32N6xx_HAL_Driver/Inc/stm32n6xx_ll_bus.h **** /**
2873:STM32Cube_FW_N6/Drivers/STM32N6xx_HAL_Driver/Inc/stm32n6xx_ll_bus.h ****   * @brief  Enable APB2 peripherals clock.
2874:STM32Cube_FW_N6/Drivers/STM32N6xx_HAL_Driver/Inc/stm32n6xx_ll_bus.h ****   * @rmtoll APB2ENSR     TIM1ENS       LL_APB2_GRP1_EnableClock\n
ARM GAS  C:\Users\DJESSOU\AppData\Local\Temp\cc3dm0Vf.s 			page 183


2875:STM32Cube_FW_N6/Drivers/STM32N6xx_HAL_Driver/Inc/stm32n6xx_ll_bus.h ****   *         APB2ENSR     TIM8ENS       LL_APB2_GRP1_EnableClock\n
2876:STM32Cube_FW_N6/Drivers/STM32N6xx_HAL_Driver/Inc/stm32n6xx_ll_bus.h ****   *         APB2ENSR     USART1ENS     LL_APB2_GRP1_EnableClock\n
2877:STM32Cube_FW_N6/Drivers/STM32N6xx_HAL_Driver/Inc/stm32n6xx_ll_bus.h ****   *         APB2ENSR     USART6ENS     LL_APB2_GRP1_EnableClock\n
2878:STM32Cube_FW_N6/Drivers/STM32N6xx_HAL_Driver/Inc/stm32n6xx_ll_bus.h ****   *         APB2ENSR     UART9ENS      LL_APB2_GRP1_EnableClock\n
2879:STM32Cube_FW_N6/Drivers/STM32N6xx_HAL_Driver/Inc/stm32n6xx_ll_bus.h ****   *         APB2ENSR     USART10ENS    LL_APB2_GRP1_EnableClock\n
2880:STM32Cube_FW_N6/Drivers/STM32N6xx_HAL_Driver/Inc/stm32n6xx_ll_bus.h ****   *         APB2ENSR     SPI1ENS       LL_APB2_GRP1_EnableClock\n
2881:STM32Cube_FW_N6/Drivers/STM32N6xx_HAL_Driver/Inc/stm32n6xx_ll_bus.h ****   *         APB2ENSR     SPI4ENS       LL_APB2_GRP1_EnableClock\n
2882:STM32Cube_FW_N6/Drivers/STM32N6xx_HAL_Driver/Inc/stm32n6xx_ll_bus.h ****   *         APB2ENSR     TIM18ENS      LL_APB2_GRP1_EnableClock\n
2883:STM32Cube_FW_N6/Drivers/STM32N6xx_HAL_Driver/Inc/stm32n6xx_ll_bus.h ****   *         APB2ENSR     TIM15ENS      LL_APB2_GRP1_EnableClock\n
2884:STM32Cube_FW_N6/Drivers/STM32N6xx_HAL_Driver/Inc/stm32n6xx_ll_bus.h ****   *         APB2ENSR     TIM16ENS      LL_APB2_GRP1_EnableClock\n
2885:STM32Cube_FW_N6/Drivers/STM32N6xx_HAL_Driver/Inc/stm32n6xx_ll_bus.h ****   *         APB2ENSR     TIM17ENS      LL_APB2_GRP1_EnableClock\n
2886:STM32Cube_FW_N6/Drivers/STM32N6xx_HAL_Driver/Inc/stm32n6xx_ll_bus.h ****   *         APB2ENSR     TIM9ENS       LL_APB2_GRP1_EnableClock\n
2887:STM32Cube_FW_N6/Drivers/STM32N6xx_HAL_Driver/Inc/stm32n6xx_ll_bus.h ****   *         APB2ENSR     SPI5ENS       LL_APB2_GRP1_EnableClock\n
2888:STM32Cube_FW_N6/Drivers/STM32N6xx_HAL_Driver/Inc/stm32n6xx_ll_bus.h ****   *         APB2ENSR     SAI1ENS       LL_APB2_GRP1_EnableClock\n
2889:STM32Cube_FW_N6/Drivers/STM32N6xx_HAL_Driver/Inc/stm32n6xx_ll_bus.h ****   *         APB2ENSR     SAI2ENS       LL_APB2_GRP1_EnableClock
2890:STM32Cube_FW_N6/Drivers/STM32N6xx_HAL_Driver/Inc/stm32n6xx_ll_bus.h ****   * @param  Periphs This parameter can be a combination of the following values:
2891:STM32Cube_FW_N6/Drivers/STM32N6xx_HAL_Driver/Inc/stm32n6xx_ll_bus.h ****   *         @arg @ref LL_APB2_GRP1_PERIPH_SAI1
2892:STM32Cube_FW_N6/Drivers/STM32N6xx_HAL_Driver/Inc/stm32n6xx_ll_bus.h ****   *         @arg @ref LL_APB2_GRP1_PERIPH_SAI2
2893:STM32Cube_FW_N6/Drivers/STM32N6xx_HAL_Driver/Inc/stm32n6xx_ll_bus.h ****   *         @arg @ref LL_APB2_GRP1_PERIPH_SPI1
2894:STM32Cube_FW_N6/Drivers/STM32N6xx_HAL_Driver/Inc/stm32n6xx_ll_bus.h ****   *         @arg @ref LL_APB2_GRP1_PERIPH_SPI4
2895:STM32Cube_FW_N6/Drivers/STM32N6xx_HAL_Driver/Inc/stm32n6xx_ll_bus.h ****   *         @arg @ref LL_APB2_GRP1_PERIPH_SPI5
2896:STM32Cube_FW_N6/Drivers/STM32N6xx_HAL_Driver/Inc/stm32n6xx_ll_bus.h ****   *         @arg @ref LL_APB2_GRP1_PERIPH_TIM1
2897:STM32Cube_FW_N6/Drivers/STM32N6xx_HAL_Driver/Inc/stm32n6xx_ll_bus.h ****   *         @arg @ref LL_APB2_GRP1_PERIPH_TIM8
2898:STM32Cube_FW_N6/Drivers/STM32N6xx_HAL_Driver/Inc/stm32n6xx_ll_bus.h ****   *         @arg @ref LL_APB2_GRP1_PERIPH_TIM9
2899:STM32Cube_FW_N6/Drivers/STM32N6xx_HAL_Driver/Inc/stm32n6xx_ll_bus.h ****   *         @arg @ref LL_APB2_GRP1_PERIPH_TIM15
2900:STM32Cube_FW_N6/Drivers/STM32N6xx_HAL_Driver/Inc/stm32n6xx_ll_bus.h ****   *         @arg @ref LL_APB2_GRP1_PERIPH_TIM16
2901:STM32Cube_FW_N6/Drivers/STM32N6xx_HAL_Driver/Inc/stm32n6xx_ll_bus.h ****   *         @arg @ref LL_APB2_GRP1_PERIPH_TIM17
2902:STM32Cube_FW_N6/Drivers/STM32N6xx_HAL_Driver/Inc/stm32n6xx_ll_bus.h ****   *         @arg @ref LL_APB2_GRP1_PERIPH_TIM18
2903:STM32Cube_FW_N6/Drivers/STM32N6xx_HAL_Driver/Inc/stm32n6xx_ll_bus.h ****   *         @arg @ref LL_APB2_GRP1_PERIPH_USART1
2904:STM32Cube_FW_N6/Drivers/STM32N6xx_HAL_Driver/Inc/stm32n6xx_ll_bus.h ****   *         @arg @ref LL_APB2_GRP1_PERIPH_USART6
2905:STM32Cube_FW_N6/Drivers/STM32N6xx_HAL_Driver/Inc/stm32n6xx_ll_bus.h ****   *         @arg @ref LL_APB2_GRP1_PERIPH_UART9
2906:STM32Cube_FW_N6/Drivers/STM32N6xx_HAL_Driver/Inc/stm32n6xx_ll_bus.h ****   *         @arg @ref LL_APB2_GRP1_PERIPH_USART10
2907:STM32Cube_FW_N6/Drivers/STM32N6xx_HAL_Driver/Inc/stm32n6xx_ll_bus.h ****   * @retval None
2908:STM32Cube_FW_N6/Drivers/STM32N6xx_HAL_Driver/Inc/stm32n6xx_ll_bus.h ****   */
2909:STM32Cube_FW_N6/Drivers/STM32N6xx_HAL_Driver/Inc/stm32n6xx_ll_bus.h **** __STATIC_INLINE void LL_APB2_GRP1_EnableClock(uint32_t Periphs)
2910:STM32Cube_FW_N6/Drivers/STM32N6xx_HAL_Driver/Inc/stm32n6xx_ll_bus.h **** {
2911:STM32Cube_FW_N6/Drivers/STM32N6xx_HAL_Driver/Inc/stm32n6xx_ll_bus.h ****   __IO uint32_t tmpreg;
2912:STM32Cube_FW_N6/Drivers/STM32N6xx_HAL_Driver/Inc/stm32n6xx_ll_bus.h ****   WRITE_REG(RCC->APB2ENSR, Periphs);
2913:STM32Cube_FW_N6/Drivers/STM32N6xx_HAL_Driver/Inc/stm32n6xx_ll_bus.h ****   /* Delay after an RCC peripheral clock enabling */
2914:STM32Cube_FW_N6/Drivers/STM32N6xx_HAL_Driver/Inc/stm32n6xx_ll_bus.h ****   tmpreg = READ_REG(RCC->APB2ENR);
2915:STM32Cube_FW_N6/Drivers/STM32N6xx_HAL_Driver/Inc/stm32n6xx_ll_bus.h ****   (void)tmpreg;
2916:STM32Cube_FW_N6/Drivers/STM32N6xx_HAL_Driver/Inc/stm32n6xx_ll_bus.h **** }
2917:STM32Cube_FW_N6/Drivers/STM32N6xx_HAL_Driver/Inc/stm32n6xx_ll_bus.h **** 
2918:STM32Cube_FW_N6/Drivers/STM32N6xx_HAL_Driver/Inc/stm32n6xx_ll_bus.h **** /**
2919:STM32Cube_FW_N6/Drivers/STM32N6xx_HAL_Driver/Inc/stm32n6xx_ll_bus.h ****   * @brief  Check if APB2 peripheral clock is enabled or not
2920:STM32Cube_FW_N6/Drivers/STM32N6xx_HAL_Driver/Inc/stm32n6xx_ll_bus.h ****   * @rmtoll APB2ENR      TIM1EN        LL_APB2_GRP1_IsEnabledClock\n
2921:STM32Cube_FW_N6/Drivers/STM32N6xx_HAL_Driver/Inc/stm32n6xx_ll_bus.h ****   *         APB2ENR      TIM8EN        LL_APB2_GRP1_IsEnabledClock\n
2922:STM32Cube_FW_N6/Drivers/STM32N6xx_HAL_Driver/Inc/stm32n6xx_ll_bus.h ****   *         APB2ENR      USART1EN      LL_APB2_GRP1_IsEnabledClock\n
2923:STM32Cube_FW_N6/Drivers/STM32N6xx_HAL_Driver/Inc/stm32n6xx_ll_bus.h ****   *         APB2ENR      USART6EN      LL_APB2_GRP1_IsEnabledClock\n
2924:STM32Cube_FW_N6/Drivers/STM32N6xx_HAL_Driver/Inc/stm32n6xx_ll_bus.h ****   *         APB2ENR      UART9EN       LL_APB2_GRP1_IsEnabledClock\n
2925:STM32Cube_FW_N6/Drivers/STM32N6xx_HAL_Driver/Inc/stm32n6xx_ll_bus.h ****   *         APB2ENR      USART10EN     LL_APB2_GRP1_IsEnabledClock\n
2926:STM32Cube_FW_N6/Drivers/STM32N6xx_HAL_Driver/Inc/stm32n6xx_ll_bus.h ****   *         APB2ENR      SPI1EN        LL_APB2_GRP1_IsEnabledClock\n
2927:STM32Cube_FW_N6/Drivers/STM32N6xx_HAL_Driver/Inc/stm32n6xx_ll_bus.h ****   *         APB2ENR      SPI4EN        LL_APB2_GRP1_IsEnabledClock\n
2928:STM32Cube_FW_N6/Drivers/STM32N6xx_HAL_Driver/Inc/stm32n6xx_ll_bus.h ****   *         APB2ENR      TIM18EN       LL_APB2_GRP1_IsEnabledClock\n
2929:STM32Cube_FW_N6/Drivers/STM32N6xx_HAL_Driver/Inc/stm32n6xx_ll_bus.h ****   *         APB2ENR      TIM15EN       LL_APB2_GRP1_IsEnabledClock\n
2930:STM32Cube_FW_N6/Drivers/STM32N6xx_HAL_Driver/Inc/stm32n6xx_ll_bus.h ****   *         APB2ENR      TIM16EN       LL_APB2_GRP1_IsEnabledClock\n
2931:STM32Cube_FW_N6/Drivers/STM32N6xx_HAL_Driver/Inc/stm32n6xx_ll_bus.h ****   *         APB2ENR      TIM17EN       LL_APB2_GRP1_IsEnabledClock\n
ARM GAS  C:\Users\DJESSOU\AppData\Local\Temp\cc3dm0Vf.s 			page 184


2932:STM32Cube_FW_N6/Drivers/STM32N6xx_HAL_Driver/Inc/stm32n6xx_ll_bus.h ****   *         APB2ENR      TIM9EN        LL_APB2_GRP1_IsEnabledClock\n
2933:STM32Cube_FW_N6/Drivers/STM32N6xx_HAL_Driver/Inc/stm32n6xx_ll_bus.h ****   *         APB2ENR      SPI5EN        LL_APB2_GRP1_IsEnabledClock\n
2934:STM32Cube_FW_N6/Drivers/STM32N6xx_HAL_Driver/Inc/stm32n6xx_ll_bus.h ****   *         APB2ENR      SAI1EN        LL_APB2_GRP1_IsEnabledClock\n
2935:STM32Cube_FW_N6/Drivers/STM32N6xx_HAL_Driver/Inc/stm32n6xx_ll_bus.h ****   *         APB2ENR      SAI2EN        LL_APB2_GRP1_IsEnabledClock
2936:STM32Cube_FW_N6/Drivers/STM32N6xx_HAL_Driver/Inc/stm32n6xx_ll_bus.h ****   * @param  Periphs This parameter can be a combination of the following values:
2937:STM32Cube_FW_N6/Drivers/STM32N6xx_HAL_Driver/Inc/stm32n6xx_ll_bus.h ****   *         @arg @ref LL_APB2_GRP1_PERIPH_SAI1
2938:STM32Cube_FW_N6/Drivers/STM32N6xx_HAL_Driver/Inc/stm32n6xx_ll_bus.h ****   *         @arg @ref LL_APB2_GRP1_PERIPH_SAI2
2939:STM32Cube_FW_N6/Drivers/STM32N6xx_HAL_Driver/Inc/stm32n6xx_ll_bus.h ****   *         @arg @ref LL_APB2_GRP1_PERIPH_SPI1
2940:STM32Cube_FW_N6/Drivers/STM32N6xx_HAL_Driver/Inc/stm32n6xx_ll_bus.h ****   *         @arg @ref LL_APB2_GRP1_PERIPH_SPI4
2941:STM32Cube_FW_N6/Drivers/STM32N6xx_HAL_Driver/Inc/stm32n6xx_ll_bus.h ****   *         @arg @ref LL_APB2_GRP1_PERIPH_SPI5
2942:STM32Cube_FW_N6/Drivers/STM32N6xx_HAL_Driver/Inc/stm32n6xx_ll_bus.h ****   *         @arg @ref LL_APB2_GRP1_PERIPH_TIM1
2943:STM32Cube_FW_N6/Drivers/STM32N6xx_HAL_Driver/Inc/stm32n6xx_ll_bus.h ****   *         @arg @ref LL_APB2_GRP1_PERIPH_TIM8
2944:STM32Cube_FW_N6/Drivers/STM32N6xx_HAL_Driver/Inc/stm32n6xx_ll_bus.h ****   *         @arg @ref LL_APB2_GRP1_PERIPH_TIM9
2945:STM32Cube_FW_N6/Drivers/STM32N6xx_HAL_Driver/Inc/stm32n6xx_ll_bus.h ****   *         @arg @ref LL_APB2_GRP1_PERIPH_TIM15
2946:STM32Cube_FW_N6/Drivers/STM32N6xx_HAL_Driver/Inc/stm32n6xx_ll_bus.h ****   *         @arg @ref LL_APB2_GRP1_PERIPH_TIM16
2947:STM32Cube_FW_N6/Drivers/STM32N6xx_HAL_Driver/Inc/stm32n6xx_ll_bus.h ****   *         @arg @ref LL_APB2_GRP1_PERIPH_TIM17
2948:STM32Cube_FW_N6/Drivers/STM32N6xx_HAL_Driver/Inc/stm32n6xx_ll_bus.h ****   *         @arg @ref LL_APB2_GRP1_PERIPH_TIM18
2949:STM32Cube_FW_N6/Drivers/STM32N6xx_HAL_Driver/Inc/stm32n6xx_ll_bus.h ****   *         @arg @ref LL_APB2_GRP1_PERIPH_USART1
2950:STM32Cube_FW_N6/Drivers/STM32N6xx_HAL_Driver/Inc/stm32n6xx_ll_bus.h ****   *         @arg @ref LL_APB2_GRP1_PERIPH_USART6
2951:STM32Cube_FW_N6/Drivers/STM32N6xx_HAL_Driver/Inc/stm32n6xx_ll_bus.h ****   *         @arg @ref LL_APB2_GRP1_PERIPH_UART9
2952:STM32Cube_FW_N6/Drivers/STM32N6xx_HAL_Driver/Inc/stm32n6xx_ll_bus.h ****   *         @arg @ref LL_APB2_GRP1_PERIPH_USART10
2953:STM32Cube_FW_N6/Drivers/STM32N6xx_HAL_Driver/Inc/stm32n6xx_ll_bus.h ****   * @retval uint32_t
2954:STM32Cube_FW_N6/Drivers/STM32N6xx_HAL_Driver/Inc/stm32n6xx_ll_bus.h ****   */
2955:STM32Cube_FW_N6/Drivers/STM32N6xx_HAL_Driver/Inc/stm32n6xx_ll_bus.h **** __STATIC_INLINE uint32_t LL_APB2_GRP1_IsEnabledClock(uint32_t Periphs)
2956:STM32Cube_FW_N6/Drivers/STM32N6xx_HAL_Driver/Inc/stm32n6xx_ll_bus.h **** {
2957:STM32Cube_FW_N6/Drivers/STM32N6xx_HAL_Driver/Inc/stm32n6xx_ll_bus.h ****   return ((READ_BIT(RCC->APB2ENR, Periphs) == Periphs) ? 1UL : 0UL);
2958:STM32Cube_FW_N6/Drivers/STM32N6xx_HAL_Driver/Inc/stm32n6xx_ll_bus.h **** }
2959:STM32Cube_FW_N6/Drivers/STM32N6xx_HAL_Driver/Inc/stm32n6xx_ll_bus.h **** 
2960:STM32Cube_FW_N6/Drivers/STM32N6xx_HAL_Driver/Inc/stm32n6xx_ll_bus.h **** /**
2961:STM32Cube_FW_N6/Drivers/STM32N6xx_HAL_Driver/Inc/stm32n6xx_ll_bus.h ****   * @brief  Disable APB2 peripherals clock.
2962:STM32Cube_FW_N6/Drivers/STM32N6xx_HAL_Driver/Inc/stm32n6xx_ll_bus.h ****   * @rmtoll APB2ENCR     TIM1ENC       LL_APB2_GRP1_DisableClock\n
2963:STM32Cube_FW_N6/Drivers/STM32N6xx_HAL_Driver/Inc/stm32n6xx_ll_bus.h ****   *         APB2ENCR     TIM8ENC       LL_APB2_GRP1_DisableClock\n
2964:STM32Cube_FW_N6/Drivers/STM32N6xx_HAL_Driver/Inc/stm32n6xx_ll_bus.h ****   *         APB2ENCR     USART1ENC     LL_APB2_GRP1_DisableClock\n
2965:STM32Cube_FW_N6/Drivers/STM32N6xx_HAL_Driver/Inc/stm32n6xx_ll_bus.h ****   *         APB2ENCR     USART6ENC     LL_APB2_GRP1_DisableClock\n
2966:STM32Cube_FW_N6/Drivers/STM32N6xx_HAL_Driver/Inc/stm32n6xx_ll_bus.h ****   *         APB2ENCR     UART9ENC      LL_APB2_GRP1_DisableClock\n
2967:STM32Cube_FW_N6/Drivers/STM32N6xx_HAL_Driver/Inc/stm32n6xx_ll_bus.h ****   *         APB2ENCR     USART10ENC    LL_APB2_GRP1_DisableClock\n
2968:STM32Cube_FW_N6/Drivers/STM32N6xx_HAL_Driver/Inc/stm32n6xx_ll_bus.h ****   *         APB2ENCR     SPI1ENC       LL_APB2_GRP1_DisableClock\n
2969:STM32Cube_FW_N6/Drivers/STM32N6xx_HAL_Driver/Inc/stm32n6xx_ll_bus.h ****   *         APB2ENCR     SPI4ENC       LL_APB2_GRP1_DisableClock\n
2970:STM32Cube_FW_N6/Drivers/STM32N6xx_HAL_Driver/Inc/stm32n6xx_ll_bus.h ****   *         APB2ENCR     TIM18ENC      LL_APB2_GRP1_DisableClock\n
2971:STM32Cube_FW_N6/Drivers/STM32N6xx_HAL_Driver/Inc/stm32n6xx_ll_bus.h ****   *         APB2ENCR     TIM15ENC      LL_APB2_GRP1_DisableClock\n
2972:STM32Cube_FW_N6/Drivers/STM32N6xx_HAL_Driver/Inc/stm32n6xx_ll_bus.h ****   *         APB2ENCR     TIM16ENC      LL_APB2_GRP1_DisableClock\n
2973:STM32Cube_FW_N6/Drivers/STM32N6xx_HAL_Driver/Inc/stm32n6xx_ll_bus.h ****   *         APB2ENCR     TIM17ENC      LL_APB2_GRP1_DisableClock\n
2974:STM32Cube_FW_N6/Drivers/STM32N6xx_HAL_Driver/Inc/stm32n6xx_ll_bus.h ****   *         APB2ENCR     TIM9ENC       LL_APB2_GRP1_DisableClock\n
2975:STM32Cube_FW_N6/Drivers/STM32N6xx_HAL_Driver/Inc/stm32n6xx_ll_bus.h ****   *         APB2ENCR     SPI5ENC       LL_APB2_GRP1_DisableClock\n
2976:STM32Cube_FW_N6/Drivers/STM32N6xx_HAL_Driver/Inc/stm32n6xx_ll_bus.h ****   *         APB2ENCR     SAI1ENC       LL_APB2_GRP1_DisableClock\n
2977:STM32Cube_FW_N6/Drivers/STM32N6xx_HAL_Driver/Inc/stm32n6xx_ll_bus.h ****   *         APB2ENCR     SAI2ENC       LL_APB2_GRP1_DisableClock
2978:STM32Cube_FW_N6/Drivers/STM32N6xx_HAL_Driver/Inc/stm32n6xx_ll_bus.h ****   * @param  Periphs This parameter can be a combination of the following values:
2979:STM32Cube_FW_N6/Drivers/STM32N6xx_HAL_Driver/Inc/stm32n6xx_ll_bus.h ****   *         @arg @ref LL_APB2_GRP1_PERIPH_SAI1
2980:STM32Cube_FW_N6/Drivers/STM32N6xx_HAL_Driver/Inc/stm32n6xx_ll_bus.h ****   *         @arg @ref LL_APB2_GRP1_PERIPH_SAI2
2981:STM32Cube_FW_N6/Drivers/STM32N6xx_HAL_Driver/Inc/stm32n6xx_ll_bus.h ****   *         @arg @ref LL_APB2_GRP1_PERIPH_SPI1
2982:STM32Cube_FW_N6/Drivers/STM32N6xx_HAL_Driver/Inc/stm32n6xx_ll_bus.h ****   *         @arg @ref LL_APB2_GRP1_PERIPH_SPI4
2983:STM32Cube_FW_N6/Drivers/STM32N6xx_HAL_Driver/Inc/stm32n6xx_ll_bus.h ****   *         @arg @ref LL_APB2_GRP1_PERIPH_SPI5
2984:STM32Cube_FW_N6/Drivers/STM32N6xx_HAL_Driver/Inc/stm32n6xx_ll_bus.h ****   *         @arg @ref LL_APB2_GRP1_PERIPH_TIM1
2985:STM32Cube_FW_N6/Drivers/STM32N6xx_HAL_Driver/Inc/stm32n6xx_ll_bus.h ****   *         @arg @ref LL_APB2_GRP1_PERIPH_TIM8
2986:STM32Cube_FW_N6/Drivers/STM32N6xx_HAL_Driver/Inc/stm32n6xx_ll_bus.h ****   *         @arg @ref LL_APB2_GRP1_PERIPH_TIM9
2987:STM32Cube_FW_N6/Drivers/STM32N6xx_HAL_Driver/Inc/stm32n6xx_ll_bus.h ****   *         @arg @ref LL_APB2_GRP1_PERIPH_TIM15
2988:STM32Cube_FW_N6/Drivers/STM32N6xx_HAL_Driver/Inc/stm32n6xx_ll_bus.h ****   *         @arg @ref LL_APB2_GRP1_PERIPH_TIM16
ARM GAS  C:\Users\DJESSOU\AppData\Local\Temp\cc3dm0Vf.s 			page 185


2989:STM32Cube_FW_N6/Drivers/STM32N6xx_HAL_Driver/Inc/stm32n6xx_ll_bus.h ****   *         @arg @ref LL_APB2_GRP1_PERIPH_TIM17
2990:STM32Cube_FW_N6/Drivers/STM32N6xx_HAL_Driver/Inc/stm32n6xx_ll_bus.h ****   *         @arg @ref LL_APB2_GRP1_PERIPH_TIM18
2991:STM32Cube_FW_N6/Drivers/STM32N6xx_HAL_Driver/Inc/stm32n6xx_ll_bus.h ****   *         @arg @ref LL_APB2_GRP1_PERIPH_USART1
2992:STM32Cube_FW_N6/Drivers/STM32N6xx_HAL_Driver/Inc/stm32n6xx_ll_bus.h ****   *         @arg @ref LL_APB2_GRP1_PERIPH_USART6
2993:STM32Cube_FW_N6/Drivers/STM32N6xx_HAL_Driver/Inc/stm32n6xx_ll_bus.h ****   *         @arg @ref LL_APB2_GRP1_PERIPH_UART9
2994:STM32Cube_FW_N6/Drivers/STM32N6xx_HAL_Driver/Inc/stm32n6xx_ll_bus.h ****   *         @arg @ref LL_APB2_GRP1_PERIPH_USART10
2995:STM32Cube_FW_N6/Drivers/STM32N6xx_HAL_Driver/Inc/stm32n6xx_ll_bus.h ****   * @retval None
2996:STM32Cube_FW_N6/Drivers/STM32N6xx_HAL_Driver/Inc/stm32n6xx_ll_bus.h ****   */
2997:STM32Cube_FW_N6/Drivers/STM32N6xx_HAL_Driver/Inc/stm32n6xx_ll_bus.h **** __STATIC_INLINE void LL_APB2_GRP1_DisableClock(uint32_t Periphs)
2998:STM32Cube_FW_N6/Drivers/STM32N6xx_HAL_Driver/Inc/stm32n6xx_ll_bus.h **** {
2999:STM32Cube_FW_N6/Drivers/STM32N6xx_HAL_Driver/Inc/stm32n6xx_ll_bus.h ****   WRITE_REG(RCC->APB2ENCR, Periphs);
3000:STM32Cube_FW_N6/Drivers/STM32N6xx_HAL_Driver/Inc/stm32n6xx_ll_bus.h **** }
3001:STM32Cube_FW_N6/Drivers/STM32N6xx_HAL_Driver/Inc/stm32n6xx_ll_bus.h **** 
3002:STM32Cube_FW_N6/Drivers/STM32N6xx_HAL_Driver/Inc/stm32n6xx_ll_bus.h **** /**
3003:STM32Cube_FW_N6/Drivers/STM32N6xx_HAL_Driver/Inc/stm32n6xx_ll_bus.h ****   * @brief  Force APB2 peripherals reset.
3004:STM32Cube_FW_N6/Drivers/STM32N6xx_HAL_Driver/Inc/stm32n6xx_ll_bus.h ****   * @rmtoll APB2RSTSR    TIM1RSTS      LL_APB2_GRP1_ForceReset\n
3005:STM32Cube_FW_N6/Drivers/STM32N6xx_HAL_Driver/Inc/stm32n6xx_ll_bus.h ****   *         APB2RSTSR    TIM8RSTS      LL_APB2_GRP1_ForceReset\n
3006:STM32Cube_FW_N6/Drivers/STM32N6xx_HAL_Driver/Inc/stm32n6xx_ll_bus.h ****   *         APB2RSTSR    USART1RSTS    LL_APB2_GRP1_ForceReset\n
3007:STM32Cube_FW_N6/Drivers/STM32N6xx_HAL_Driver/Inc/stm32n6xx_ll_bus.h ****   *         APB2RSTSR    USART6RSTS    LL_APB2_GRP1_ForceReset\n
3008:STM32Cube_FW_N6/Drivers/STM32N6xx_HAL_Driver/Inc/stm32n6xx_ll_bus.h ****   *         APB2RSTSR    UART9RSTS     LL_APB2_GRP1_ForceReset\n
3009:STM32Cube_FW_N6/Drivers/STM32N6xx_HAL_Driver/Inc/stm32n6xx_ll_bus.h ****   *         APB2RSTSR    USART10RSTS   LL_APB2_GRP1_ForceReset\n
3010:STM32Cube_FW_N6/Drivers/STM32N6xx_HAL_Driver/Inc/stm32n6xx_ll_bus.h ****   *         APB2RSTSR    SPI1RSTS      LL_APB2_GRP1_ForceReset\n
3011:STM32Cube_FW_N6/Drivers/STM32N6xx_HAL_Driver/Inc/stm32n6xx_ll_bus.h ****   *         APB2RSTSR    SPI4RSTS      LL_APB2_GRP1_ForceReset\n
3012:STM32Cube_FW_N6/Drivers/STM32N6xx_HAL_Driver/Inc/stm32n6xx_ll_bus.h ****   *         APB2RSTSR    TIM18RSTS     LL_APB2_GRP1_ForceReset\n
3013:STM32Cube_FW_N6/Drivers/STM32N6xx_HAL_Driver/Inc/stm32n6xx_ll_bus.h ****   *         APB2RSTSR    TIM15RSTS     LL_APB2_GRP1_ForceReset\n
3014:STM32Cube_FW_N6/Drivers/STM32N6xx_HAL_Driver/Inc/stm32n6xx_ll_bus.h ****   *         APB2RSTSR    TIM16RSTS     LL_APB2_GRP1_ForceReset\n
3015:STM32Cube_FW_N6/Drivers/STM32N6xx_HAL_Driver/Inc/stm32n6xx_ll_bus.h ****   *         APB2RSTSR    TIM17RSTS     LL_APB2_GRP1_ForceReset\n
3016:STM32Cube_FW_N6/Drivers/STM32N6xx_HAL_Driver/Inc/stm32n6xx_ll_bus.h ****   *         APB2RSTSR    TIM9RSTS      LL_APB2_GRP1_ForceReset\n
3017:STM32Cube_FW_N6/Drivers/STM32N6xx_HAL_Driver/Inc/stm32n6xx_ll_bus.h ****   *         APB2RSTSR    SPI5RSTS      LL_APB2_GRP1_ForceReset\n
3018:STM32Cube_FW_N6/Drivers/STM32N6xx_HAL_Driver/Inc/stm32n6xx_ll_bus.h ****   *         APB2RSTSR    SAI1RSTS      LL_APB2_GRP1_ForceReset\n
3019:STM32Cube_FW_N6/Drivers/STM32N6xx_HAL_Driver/Inc/stm32n6xx_ll_bus.h ****   *         APB2RSTSR    SAI2RSTS      LL_APB2_GRP1_ForceReset
3020:STM32Cube_FW_N6/Drivers/STM32N6xx_HAL_Driver/Inc/stm32n6xx_ll_bus.h ****   * @param  Periphs This parameter can be a combination of the following values:
3021:STM32Cube_FW_N6/Drivers/STM32N6xx_HAL_Driver/Inc/stm32n6xx_ll_bus.h ****   *         @arg @ref LL_APB2_GRP1_PERIPH_SAI1
3022:STM32Cube_FW_N6/Drivers/STM32N6xx_HAL_Driver/Inc/stm32n6xx_ll_bus.h ****   *         @arg @ref LL_APB2_GRP1_PERIPH_SAI2
3023:STM32Cube_FW_N6/Drivers/STM32N6xx_HAL_Driver/Inc/stm32n6xx_ll_bus.h ****   *         @arg @ref LL_APB2_GRP1_PERIPH_SPI1
3024:STM32Cube_FW_N6/Drivers/STM32N6xx_HAL_Driver/Inc/stm32n6xx_ll_bus.h ****   *         @arg @ref LL_APB2_GRP1_PERIPH_SPI4
3025:STM32Cube_FW_N6/Drivers/STM32N6xx_HAL_Driver/Inc/stm32n6xx_ll_bus.h ****   *         @arg @ref LL_APB2_GRP1_PERIPH_SPI5
3026:STM32Cube_FW_N6/Drivers/STM32N6xx_HAL_Driver/Inc/stm32n6xx_ll_bus.h ****   *         @arg @ref LL_APB2_GRP1_PERIPH_TIM1
3027:STM32Cube_FW_N6/Drivers/STM32N6xx_HAL_Driver/Inc/stm32n6xx_ll_bus.h ****   *         @arg @ref LL_APB2_GRP1_PERIPH_TIM8
3028:STM32Cube_FW_N6/Drivers/STM32N6xx_HAL_Driver/Inc/stm32n6xx_ll_bus.h ****   *         @arg @ref LL_APB2_GRP1_PERIPH_TIM9
3029:STM32Cube_FW_N6/Drivers/STM32N6xx_HAL_Driver/Inc/stm32n6xx_ll_bus.h ****   *         @arg @ref LL_APB2_GRP1_PERIPH_TIM15
3030:STM32Cube_FW_N6/Drivers/STM32N6xx_HAL_Driver/Inc/stm32n6xx_ll_bus.h ****   *         @arg @ref LL_APB2_GRP1_PERIPH_TIM16
3031:STM32Cube_FW_N6/Drivers/STM32N6xx_HAL_Driver/Inc/stm32n6xx_ll_bus.h ****   *         @arg @ref LL_APB2_GRP1_PERIPH_TIM17
3032:STM32Cube_FW_N6/Drivers/STM32N6xx_HAL_Driver/Inc/stm32n6xx_ll_bus.h ****   *         @arg @ref LL_APB2_GRP1_PERIPH_TIM18
3033:STM32Cube_FW_N6/Drivers/STM32N6xx_HAL_Driver/Inc/stm32n6xx_ll_bus.h ****   *         @arg @ref LL_APB2_GRP1_PERIPH_USART1
3034:STM32Cube_FW_N6/Drivers/STM32N6xx_HAL_Driver/Inc/stm32n6xx_ll_bus.h ****   *         @arg @ref LL_APB2_GRP1_PERIPH_USART6
3035:STM32Cube_FW_N6/Drivers/STM32N6xx_HAL_Driver/Inc/stm32n6xx_ll_bus.h ****   *         @arg @ref LL_APB2_GRP1_PERIPH_UART9
3036:STM32Cube_FW_N6/Drivers/STM32N6xx_HAL_Driver/Inc/stm32n6xx_ll_bus.h ****   *         @arg @ref LL_APB2_GRP1_PERIPH_USART10
3037:STM32Cube_FW_N6/Drivers/STM32N6xx_HAL_Driver/Inc/stm32n6xx_ll_bus.h ****   * @retval None
3038:STM32Cube_FW_N6/Drivers/STM32N6xx_HAL_Driver/Inc/stm32n6xx_ll_bus.h ****   */
3039:STM32Cube_FW_N6/Drivers/STM32N6xx_HAL_Driver/Inc/stm32n6xx_ll_bus.h **** __STATIC_INLINE void LL_APB2_GRP1_ForceReset(uint32_t Periphs)
3040:STM32Cube_FW_N6/Drivers/STM32N6xx_HAL_Driver/Inc/stm32n6xx_ll_bus.h **** {
3041:STM32Cube_FW_N6/Drivers/STM32N6xx_HAL_Driver/Inc/stm32n6xx_ll_bus.h ****   WRITE_REG(RCC->APB2RSTSR, Periphs);
3042:STM32Cube_FW_N6/Drivers/STM32N6xx_HAL_Driver/Inc/stm32n6xx_ll_bus.h **** }
3043:STM32Cube_FW_N6/Drivers/STM32N6xx_HAL_Driver/Inc/stm32n6xx_ll_bus.h **** 
3044:STM32Cube_FW_N6/Drivers/STM32N6xx_HAL_Driver/Inc/stm32n6xx_ll_bus.h **** /**
3045:STM32Cube_FW_N6/Drivers/STM32N6xx_HAL_Driver/Inc/stm32n6xx_ll_bus.h ****   * @brief  Release APB2 peripherals reset.
ARM GAS  C:\Users\DJESSOU\AppData\Local\Temp\cc3dm0Vf.s 			page 186


3046:STM32Cube_FW_N6/Drivers/STM32N6xx_HAL_Driver/Inc/stm32n6xx_ll_bus.h ****   * @rmtoll APB2RSTCR    TIM1RSTC      LL_APB2_GRP1_ReleaseReset\n
3047:STM32Cube_FW_N6/Drivers/STM32N6xx_HAL_Driver/Inc/stm32n6xx_ll_bus.h ****   *         APB2RSTCR    TIM8RSTC      LL_APB2_GRP1_ReleaseReset\n
3048:STM32Cube_FW_N6/Drivers/STM32N6xx_HAL_Driver/Inc/stm32n6xx_ll_bus.h ****   *         APB2RSTCR    USART1RSTC    LL_APB2_GRP1_ReleaseReset\n
3049:STM32Cube_FW_N6/Drivers/STM32N6xx_HAL_Driver/Inc/stm32n6xx_ll_bus.h ****   *         APB2RSTCR    USART6RSTC    LL_APB2_GRP1_ReleaseReset\n
3050:STM32Cube_FW_N6/Drivers/STM32N6xx_HAL_Driver/Inc/stm32n6xx_ll_bus.h ****   *         APB2RSTCR    UART9RSTC     LL_APB2_GRP1_ReleaseReset\n
3051:STM32Cube_FW_N6/Drivers/STM32N6xx_HAL_Driver/Inc/stm32n6xx_ll_bus.h ****   *         APB2RSTCR    USART10RSTC   LL_APB2_GRP1_ReleaseReset\n
3052:STM32Cube_FW_N6/Drivers/STM32N6xx_HAL_Driver/Inc/stm32n6xx_ll_bus.h ****   *         APB2RSTCR    SPI1RSTC      LL_APB2_GRP1_ReleaseReset\n
3053:STM32Cube_FW_N6/Drivers/STM32N6xx_HAL_Driver/Inc/stm32n6xx_ll_bus.h ****   *         APB2RSTCR    SPI4RSTC      LL_APB2_GRP1_ReleaseReset\n
3054:STM32Cube_FW_N6/Drivers/STM32N6xx_HAL_Driver/Inc/stm32n6xx_ll_bus.h ****   *         APB2RSTCR    TIM18RSTC     LL_APB2_GRP1_ReleaseReset\n
3055:STM32Cube_FW_N6/Drivers/STM32N6xx_HAL_Driver/Inc/stm32n6xx_ll_bus.h ****   *         APB2RSTCR    TIM15RSTC     LL_APB2_GRP1_ReleaseReset\n
3056:STM32Cube_FW_N6/Drivers/STM32N6xx_HAL_Driver/Inc/stm32n6xx_ll_bus.h ****   *         APB2RSTCR    TIM16RSTC     LL_APB2_GRP1_ReleaseReset\n
3057:STM32Cube_FW_N6/Drivers/STM32N6xx_HAL_Driver/Inc/stm32n6xx_ll_bus.h ****   *         APB2RSTCR    TIM17RSTC     LL_APB2_GRP1_ReleaseReset\n
3058:STM32Cube_FW_N6/Drivers/STM32N6xx_HAL_Driver/Inc/stm32n6xx_ll_bus.h ****   *         APB2RSTCR    TIM9RSTC      LL_APB2_GRP1_ReleaseReset\n
3059:STM32Cube_FW_N6/Drivers/STM32N6xx_HAL_Driver/Inc/stm32n6xx_ll_bus.h ****   *         APB2RSTCR    SPI5RSTC      LL_APB2_GRP1_ReleaseReset\n
3060:STM32Cube_FW_N6/Drivers/STM32N6xx_HAL_Driver/Inc/stm32n6xx_ll_bus.h ****   *         APB2RSTCR    SAI1RSTC      LL_APB2_GRP1_ReleaseReset\n
3061:STM32Cube_FW_N6/Drivers/STM32N6xx_HAL_Driver/Inc/stm32n6xx_ll_bus.h ****   *         APB2RSTCR    SAI2RSTC      LL_APB2_GRP1_ReleaseReset
3062:STM32Cube_FW_N6/Drivers/STM32N6xx_HAL_Driver/Inc/stm32n6xx_ll_bus.h ****   * @param  Periphs This parameter can be a combination of the following values:
3063:STM32Cube_FW_N6/Drivers/STM32N6xx_HAL_Driver/Inc/stm32n6xx_ll_bus.h ****   *         @arg @ref LL_APB2_GRP1_PERIPH_SAI1
3064:STM32Cube_FW_N6/Drivers/STM32N6xx_HAL_Driver/Inc/stm32n6xx_ll_bus.h ****   *         @arg @ref LL_APB2_GRP1_PERIPH_SAI2
3065:STM32Cube_FW_N6/Drivers/STM32N6xx_HAL_Driver/Inc/stm32n6xx_ll_bus.h ****   *         @arg @ref LL_APB2_GRP1_PERIPH_SPI1
3066:STM32Cube_FW_N6/Drivers/STM32N6xx_HAL_Driver/Inc/stm32n6xx_ll_bus.h ****   *         @arg @ref LL_APB2_GRP1_PERIPH_SPI4
3067:STM32Cube_FW_N6/Drivers/STM32N6xx_HAL_Driver/Inc/stm32n6xx_ll_bus.h ****   *         @arg @ref LL_APB2_GRP1_PERIPH_SPI5
3068:STM32Cube_FW_N6/Drivers/STM32N6xx_HAL_Driver/Inc/stm32n6xx_ll_bus.h ****   *         @arg @ref LL_APB2_GRP1_PERIPH_TIM1
3069:STM32Cube_FW_N6/Drivers/STM32N6xx_HAL_Driver/Inc/stm32n6xx_ll_bus.h ****   *         @arg @ref LL_APB2_GRP1_PERIPH_TIM8
3070:STM32Cube_FW_N6/Drivers/STM32N6xx_HAL_Driver/Inc/stm32n6xx_ll_bus.h ****   *         @arg @ref LL_APB2_GRP1_PERIPH_TIM9
3071:STM32Cube_FW_N6/Drivers/STM32N6xx_HAL_Driver/Inc/stm32n6xx_ll_bus.h ****   *         @arg @ref LL_APB2_GRP1_PERIPH_TIM15
3072:STM32Cube_FW_N6/Drivers/STM32N6xx_HAL_Driver/Inc/stm32n6xx_ll_bus.h ****   *         @arg @ref LL_APB2_GRP1_PERIPH_TIM16
3073:STM32Cube_FW_N6/Drivers/STM32N6xx_HAL_Driver/Inc/stm32n6xx_ll_bus.h ****   *         @arg @ref LL_APB2_GRP1_PERIPH_TIM17
3074:STM32Cube_FW_N6/Drivers/STM32N6xx_HAL_Driver/Inc/stm32n6xx_ll_bus.h ****   *         @arg @ref LL_APB2_GRP1_PERIPH_TIM18
3075:STM32Cube_FW_N6/Drivers/STM32N6xx_HAL_Driver/Inc/stm32n6xx_ll_bus.h ****   *         @arg @ref LL_APB2_GRP1_PERIPH_USART1
3076:STM32Cube_FW_N6/Drivers/STM32N6xx_HAL_Driver/Inc/stm32n6xx_ll_bus.h ****   *         @arg @ref LL_APB2_GRP1_PERIPH_USART6
3077:STM32Cube_FW_N6/Drivers/STM32N6xx_HAL_Driver/Inc/stm32n6xx_ll_bus.h ****   *         @arg @ref LL_APB2_GRP1_PERIPH_UART9
3078:STM32Cube_FW_N6/Drivers/STM32N6xx_HAL_Driver/Inc/stm32n6xx_ll_bus.h ****   *         @arg @ref LL_APB2_GRP1_PERIPH_USART10
3079:STM32Cube_FW_N6/Drivers/STM32N6xx_HAL_Driver/Inc/stm32n6xx_ll_bus.h ****   * @retval None
3080:STM32Cube_FW_N6/Drivers/STM32N6xx_HAL_Driver/Inc/stm32n6xx_ll_bus.h ****   */
3081:STM32Cube_FW_N6/Drivers/STM32N6xx_HAL_Driver/Inc/stm32n6xx_ll_bus.h **** __STATIC_INLINE void LL_APB2_GRP1_ReleaseReset(uint32_t Periphs)
3082:STM32Cube_FW_N6/Drivers/STM32N6xx_HAL_Driver/Inc/stm32n6xx_ll_bus.h **** {
3083:STM32Cube_FW_N6/Drivers/STM32N6xx_HAL_Driver/Inc/stm32n6xx_ll_bus.h ****   WRITE_REG(RCC->APB2RSTCR, Periphs);
3084:STM32Cube_FW_N6/Drivers/STM32N6xx_HAL_Driver/Inc/stm32n6xx_ll_bus.h **** }
3085:STM32Cube_FW_N6/Drivers/STM32N6xx_HAL_Driver/Inc/stm32n6xx_ll_bus.h **** 
3086:STM32Cube_FW_N6/Drivers/STM32N6xx_HAL_Driver/Inc/stm32n6xx_ll_bus.h **** /**
3087:STM32Cube_FW_N6/Drivers/STM32N6xx_HAL_Driver/Inc/stm32n6xx_ll_bus.h ****   * @brief  Enable APB2 peripherals clock during Low Power mode.
3088:STM32Cube_FW_N6/Drivers/STM32N6xx_HAL_Driver/Inc/stm32n6xx_ll_bus.h ****   * @rmtoll APB2LPENSR   TIM1LPENS     LL_APB2_GRP1_EnableClockLowPower\n
3089:STM32Cube_FW_N6/Drivers/STM32N6xx_HAL_Driver/Inc/stm32n6xx_ll_bus.h ****   *         APB2LPENSR   TIM8LPENS     LL_APB2_GRP1_EnableClockLowPower\n
3090:STM32Cube_FW_N6/Drivers/STM32N6xx_HAL_Driver/Inc/stm32n6xx_ll_bus.h ****   *         APB2LPENSR   USART1LPENS   LL_APB2_GRP1_EnableClockLowPower\n
3091:STM32Cube_FW_N6/Drivers/STM32N6xx_HAL_Driver/Inc/stm32n6xx_ll_bus.h ****   *         APB2LPENSR   USART6LPENS   LL_APB2_GRP1_EnableClockLowPower\n
3092:STM32Cube_FW_N6/Drivers/STM32N6xx_HAL_Driver/Inc/stm32n6xx_ll_bus.h ****   *         APB2LPENSR   UART9LPENS    LL_APB2_GRP1_EnableClockLowPower\n
3093:STM32Cube_FW_N6/Drivers/STM32N6xx_HAL_Driver/Inc/stm32n6xx_ll_bus.h ****   *         APB2LPENSR   USART10LPENS  LL_APB2_GRP1_EnableClockLowPower\n
3094:STM32Cube_FW_N6/Drivers/STM32N6xx_HAL_Driver/Inc/stm32n6xx_ll_bus.h ****   *         APB2LPENSR   SPI1LPENS     LL_APB2_GRP1_EnableClockLowPower\n
3095:STM32Cube_FW_N6/Drivers/STM32N6xx_HAL_Driver/Inc/stm32n6xx_ll_bus.h ****   *         APB2LPENSR   SPI4LPENS     LL_APB2_GRP1_EnableClockLowPower\n
3096:STM32Cube_FW_N6/Drivers/STM32N6xx_HAL_Driver/Inc/stm32n6xx_ll_bus.h ****   *         APB2LPENSR   TIM18LPENS    LL_APB2_GRP1_EnableClockLowPower\n
3097:STM32Cube_FW_N6/Drivers/STM32N6xx_HAL_Driver/Inc/stm32n6xx_ll_bus.h ****   *         APB2LPENSR   TIM15LPENS    LL_APB2_GRP1_EnableClockLowPower\n
3098:STM32Cube_FW_N6/Drivers/STM32N6xx_HAL_Driver/Inc/stm32n6xx_ll_bus.h ****   *         APB2LPENSR   TIM16LPENS    LL_APB2_GRP1_EnableClockLowPower\n
3099:STM32Cube_FW_N6/Drivers/STM32N6xx_HAL_Driver/Inc/stm32n6xx_ll_bus.h ****   *         APB2LPENSR   TIM17LPENS    LL_APB2_GRP1_EnableClockLowPower\n
3100:STM32Cube_FW_N6/Drivers/STM32N6xx_HAL_Driver/Inc/stm32n6xx_ll_bus.h ****   *         APB2LPENSR   TIM9LPENS     LL_APB2_GRP1_EnableClockLowPower\n
3101:STM32Cube_FW_N6/Drivers/STM32N6xx_HAL_Driver/Inc/stm32n6xx_ll_bus.h ****   *         APB2LPENSR   SPI5LPENS     LL_APB2_GRP1_EnableClockLowPower\n
3102:STM32Cube_FW_N6/Drivers/STM32N6xx_HAL_Driver/Inc/stm32n6xx_ll_bus.h ****   *         APB2LPENSR   SAI1LPENS     LL_APB2_GRP1_EnableClockLowPower\n
ARM GAS  C:\Users\DJESSOU\AppData\Local\Temp\cc3dm0Vf.s 			page 187


3103:STM32Cube_FW_N6/Drivers/STM32N6xx_HAL_Driver/Inc/stm32n6xx_ll_bus.h ****   *         APB2LPENSR   SAI2LPENS     LL_APB2_GRP1_EnableClockLowPower
3104:STM32Cube_FW_N6/Drivers/STM32N6xx_HAL_Driver/Inc/stm32n6xx_ll_bus.h ****   * @param  Periphs This parameter can be a combination of the following values:
3105:STM32Cube_FW_N6/Drivers/STM32N6xx_HAL_Driver/Inc/stm32n6xx_ll_bus.h ****   *         @arg @ref LL_APB2_GRP1_PERIPH_SAI1
3106:STM32Cube_FW_N6/Drivers/STM32N6xx_HAL_Driver/Inc/stm32n6xx_ll_bus.h ****   *         @arg @ref LL_APB2_GRP1_PERIPH_SAI2
3107:STM32Cube_FW_N6/Drivers/STM32N6xx_HAL_Driver/Inc/stm32n6xx_ll_bus.h ****   *         @arg @ref LL_APB2_GRP1_PERIPH_SPI1
3108:STM32Cube_FW_N6/Drivers/STM32N6xx_HAL_Driver/Inc/stm32n6xx_ll_bus.h ****   *         @arg @ref LL_APB2_GRP1_PERIPH_SPI4
3109:STM32Cube_FW_N6/Drivers/STM32N6xx_HAL_Driver/Inc/stm32n6xx_ll_bus.h ****   *         @arg @ref LL_APB2_GRP1_PERIPH_SPI5
3110:STM32Cube_FW_N6/Drivers/STM32N6xx_HAL_Driver/Inc/stm32n6xx_ll_bus.h ****   *         @arg @ref LL_APB2_GRP1_PERIPH_TIM1
3111:STM32Cube_FW_N6/Drivers/STM32N6xx_HAL_Driver/Inc/stm32n6xx_ll_bus.h ****   *         @arg @ref LL_APB2_GRP1_PERIPH_TIM8
3112:STM32Cube_FW_N6/Drivers/STM32N6xx_HAL_Driver/Inc/stm32n6xx_ll_bus.h ****   *         @arg @ref LL_APB2_GRP1_PERIPH_TIM9
3113:STM32Cube_FW_N6/Drivers/STM32N6xx_HAL_Driver/Inc/stm32n6xx_ll_bus.h ****   *         @arg @ref LL_APB2_GRP1_PERIPH_TIM15
3114:STM32Cube_FW_N6/Drivers/STM32N6xx_HAL_Driver/Inc/stm32n6xx_ll_bus.h ****   *         @arg @ref LL_APB2_GRP1_PERIPH_TIM16
3115:STM32Cube_FW_N6/Drivers/STM32N6xx_HAL_Driver/Inc/stm32n6xx_ll_bus.h ****   *         @arg @ref LL_APB2_GRP1_PERIPH_TIM17
3116:STM32Cube_FW_N6/Drivers/STM32N6xx_HAL_Driver/Inc/stm32n6xx_ll_bus.h ****   *         @arg @ref LL_APB2_GRP1_PERIPH_TIM18
3117:STM32Cube_FW_N6/Drivers/STM32N6xx_HAL_Driver/Inc/stm32n6xx_ll_bus.h ****   *         @arg @ref LL_APB2_GRP1_PERIPH_USART1
3118:STM32Cube_FW_N6/Drivers/STM32N6xx_HAL_Driver/Inc/stm32n6xx_ll_bus.h ****   *         @arg @ref LL_APB2_GRP1_PERIPH_USART6
3119:STM32Cube_FW_N6/Drivers/STM32N6xx_HAL_Driver/Inc/stm32n6xx_ll_bus.h ****   *         @arg @ref LL_APB2_GRP1_PERIPH_UART9
3120:STM32Cube_FW_N6/Drivers/STM32N6xx_HAL_Driver/Inc/stm32n6xx_ll_bus.h ****   *         @arg @ref LL_APB2_GRP1_PERIPH_USART10
3121:STM32Cube_FW_N6/Drivers/STM32N6xx_HAL_Driver/Inc/stm32n6xx_ll_bus.h ****   * @retval None
3122:STM32Cube_FW_N6/Drivers/STM32N6xx_HAL_Driver/Inc/stm32n6xx_ll_bus.h ****   */
3123:STM32Cube_FW_N6/Drivers/STM32N6xx_HAL_Driver/Inc/stm32n6xx_ll_bus.h **** __STATIC_INLINE void LL_APB2_GRP1_EnableClockLowPower(uint32_t Periphs)
3124:STM32Cube_FW_N6/Drivers/STM32N6xx_HAL_Driver/Inc/stm32n6xx_ll_bus.h **** {
3125:STM32Cube_FW_N6/Drivers/STM32N6xx_HAL_Driver/Inc/stm32n6xx_ll_bus.h ****   __IO uint32_t tmpreg;
3126:STM32Cube_FW_N6/Drivers/STM32N6xx_HAL_Driver/Inc/stm32n6xx_ll_bus.h ****   WRITE_REG(RCC->APB2LPENSR, Periphs);
3127:STM32Cube_FW_N6/Drivers/STM32N6xx_HAL_Driver/Inc/stm32n6xx_ll_bus.h ****   /* Delay after an RCC peripheral clock enabling */
3128:STM32Cube_FW_N6/Drivers/STM32N6xx_HAL_Driver/Inc/stm32n6xx_ll_bus.h ****   tmpreg = READ_REG(RCC->APB2LPENR);
3129:STM32Cube_FW_N6/Drivers/STM32N6xx_HAL_Driver/Inc/stm32n6xx_ll_bus.h ****   (void)tmpreg;
3130:STM32Cube_FW_N6/Drivers/STM32N6xx_HAL_Driver/Inc/stm32n6xx_ll_bus.h **** }
3131:STM32Cube_FW_N6/Drivers/STM32N6xx_HAL_Driver/Inc/stm32n6xx_ll_bus.h **** 
3132:STM32Cube_FW_N6/Drivers/STM32N6xx_HAL_Driver/Inc/stm32n6xx_ll_bus.h **** /**
3133:STM32Cube_FW_N6/Drivers/STM32N6xx_HAL_Driver/Inc/stm32n6xx_ll_bus.h ****   * @brief  Check if APB2 peripheral clock during Low Power mode is enabled or not .
3134:STM32Cube_FW_N6/Drivers/STM32N6xx_HAL_Driver/Inc/stm32n6xx_ll_bus.h ****   * @rmtoll APB2LPENR    TIM1LPEN      LL_APB2_GRP1_IsEnabledClockLowPower\n
3135:STM32Cube_FW_N6/Drivers/STM32N6xx_HAL_Driver/Inc/stm32n6xx_ll_bus.h ****   *         APB2LPENR    TIM8LPEN      LL_APB2_GRP1_IsEnabledClockLowPower\n
3136:STM32Cube_FW_N6/Drivers/STM32N6xx_HAL_Driver/Inc/stm32n6xx_ll_bus.h ****   *         APB2LPENR    USART1LPEN    LL_APB2_GRP1_IsEnabledClockLowPower\n
3137:STM32Cube_FW_N6/Drivers/STM32N6xx_HAL_Driver/Inc/stm32n6xx_ll_bus.h ****   *         APB2LPENR    USART6LPEN    LL_APB2_GRP1_IsEnabledClockLowPower\n
3138:STM32Cube_FW_N6/Drivers/STM32N6xx_HAL_Driver/Inc/stm32n6xx_ll_bus.h ****   *         APB2LPENR    UART9LPEN     LL_APB2_GRP1_IsEnabledClockLowPower\n
3139:STM32Cube_FW_N6/Drivers/STM32N6xx_HAL_Driver/Inc/stm32n6xx_ll_bus.h ****   *         APB2LPENR    USART10LPEN   LL_APB2_GRP1_IsEnabledClockLowPower\n
3140:STM32Cube_FW_N6/Drivers/STM32N6xx_HAL_Driver/Inc/stm32n6xx_ll_bus.h ****   *         APB2LPENR    SPI1LPEN      LL_APB2_GRP1_IsEnabledClockLowPower\n
3141:STM32Cube_FW_N6/Drivers/STM32N6xx_HAL_Driver/Inc/stm32n6xx_ll_bus.h ****   *         APB2LPENR    SPI4LPEN      LL_APB2_GRP1_IsEnabledClockLowPower\n
3142:STM32Cube_FW_N6/Drivers/STM32N6xx_HAL_Driver/Inc/stm32n6xx_ll_bus.h ****   *         APB2LPENR    TIM18LPEN     LL_APB2_GRP1_IsEnabledClockLowPower\n
3143:STM32Cube_FW_N6/Drivers/STM32N6xx_HAL_Driver/Inc/stm32n6xx_ll_bus.h ****   *         APB2LPENR    TIM15LPEN     LL_APB2_GRP1_IsEnabledClockLowPower\n
3144:STM32Cube_FW_N6/Drivers/STM32N6xx_HAL_Driver/Inc/stm32n6xx_ll_bus.h ****   *         APB2LPENR    TIM16LPEN     LL_APB2_GRP1_IsEnabledClockLowPower\n
3145:STM32Cube_FW_N6/Drivers/STM32N6xx_HAL_Driver/Inc/stm32n6xx_ll_bus.h ****   *         APB2LPENR    TIM17LPEN     LL_APB2_GRP1_IsEnabledClockLowPower\n
3146:STM32Cube_FW_N6/Drivers/STM32N6xx_HAL_Driver/Inc/stm32n6xx_ll_bus.h ****   *         APB2LPENR    TIM9LPEN      LL_APB2_GRP1_IsEnabledClockLowPower\n
3147:STM32Cube_FW_N6/Drivers/STM32N6xx_HAL_Driver/Inc/stm32n6xx_ll_bus.h ****   *         APB2LPENR    SPI5LPEN      LL_APB2_GRP1_IsEnabledClockLowPower\n
3148:STM32Cube_FW_N6/Drivers/STM32N6xx_HAL_Driver/Inc/stm32n6xx_ll_bus.h ****   *         APB2LPENR    SAI1LPEN      LL_APB2_GRP1_IsEnabledClockLowPower\n
3149:STM32Cube_FW_N6/Drivers/STM32N6xx_HAL_Driver/Inc/stm32n6xx_ll_bus.h ****   *         APB2LPENR    SAI2LPEN      LL_APB2_GRP1_IsEnabledClockLowPower
3150:STM32Cube_FW_N6/Drivers/STM32N6xx_HAL_Driver/Inc/stm32n6xx_ll_bus.h ****   * @param  Periphs This parameter can be a combination of the following values:
3151:STM32Cube_FW_N6/Drivers/STM32N6xx_HAL_Driver/Inc/stm32n6xx_ll_bus.h ****   *         @arg @ref LL_APB2_GRP1_PERIPH_SAI1
3152:STM32Cube_FW_N6/Drivers/STM32N6xx_HAL_Driver/Inc/stm32n6xx_ll_bus.h ****   *         @arg @ref LL_APB2_GRP1_PERIPH_SAI2
3153:STM32Cube_FW_N6/Drivers/STM32N6xx_HAL_Driver/Inc/stm32n6xx_ll_bus.h ****   *         @arg @ref LL_APB2_GRP1_PERIPH_SPI1
3154:STM32Cube_FW_N6/Drivers/STM32N6xx_HAL_Driver/Inc/stm32n6xx_ll_bus.h ****   *         @arg @ref LL_APB2_GRP1_PERIPH_SPI4
3155:STM32Cube_FW_N6/Drivers/STM32N6xx_HAL_Driver/Inc/stm32n6xx_ll_bus.h ****   *         @arg @ref LL_APB2_GRP1_PERIPH_SPI5
3156:STM32Cube_FW_N6/Drivers/STM32N6xx_HAL_Driver/Inc/stm32n6xx_ll_bus.h ****   *         @arg @ref LL_APB2_GRP1_PERIPH_TIM1
3157:STM32Cube_FW_N6/Drivers/STM32N6xx_HAL_Driver/Inc/stm32n6xx_ll_bus.h ****   *         @arg @ref LL_APB2_GRP1_PERIPH_TIM8
3158:STM32Cube_FW_N6/Drivers/STM32N6xx_HAL_Driver/Inc/stm32n6xx_ll_bus.h ****   *         @arg @ref LL_APB2_GRP1_PERIPH_TIM9
3159:STM32Cube_FW_N6/Drivers/STM32N6xx_HAL_Driver/Inc/stm32n6xx_ll_bus.h ****   *         @arg @ref LL_APB2_GRP1_PERIPH_TIM15
ARM GAS  C:\Users\DJESSOU\AppData\Local\Temp\cc3dm0Vf.s 			page 188


3160:STM32Cube_FW_N6/Drivers/STM32N6xx_HAL_Driver/Inc/stm32n6xx_ll_bus.h ****   *         @arg @ref LL_APB2_GRP1_PERIPH_TIM16
3161:STM32Cube_FW_N6/Drivers/STM32N6xx_HAL_Driver/Inc/stm32n6xx_ll_bus.h ****   *         @arg @ref LL_APB2_GRP1_PERIPH_TIM17
3162:STM32Cube_FW_N6/Drivers/STM32N6xx_HAL_Driver/Inc/stm32n6xx_ll_bus.h ****   *         @arg @ref LL_APB2_GRP1_PERIPH_TIM18
3163:STM32Cube_FW_N6/Drivers/STM32N6xx_HAL_Driver/Inc/stm32n6xx_ll_bus.h ****   *         @arg @ref LL_APB2_GRP1_PERIPH_USART1
3164:STM32Cube_FW_N6/Drivers/STM32N6xx_HAL_Driver/Inc/stm32n6xx_ll_bus.h ****   *         @arg @ref LL_APB2_GRP1_PERIPH_USART6
3165:STM32Cube_FW_N6/Drivers/STM32N6xx_HAL_Driver/Inc/stm32n6xx_ll_bus.h ****   *         @arg @ref LL_APB2_GRP1_PERIPH_UART9
3166:STM32Cube_FW_N6/Drivers/STM32N6xx_HAL_Driver/Inc/stm32n6xx_ll_bus.h ****   *         @arg @ref LL_APB2_GRP1_PERIPH_USART10
3167:STM32Cube_FW_N6/Drivers/STM32N6xx_HAL_Driver/Inc/stm32n6xx_ll_bus.h ****   * @retval uint32_t
3168:STM32Cube_FW_N6/Drivers/STM32N6xx_HAL_Driver/Inc/stm32n6xx_ll_bus.h ****   */
3169:STM32Cube_FW_N6/Drivers/STM32N6xx_HAL_Driver/Inc/stm32n6xx_ll_bus.h **** __STATIC_INLINE uint32_t LL_APB2_GRP1_IsEnabledClockLowPower(uint32_t Periphs)
3170:STM32Cube_FW_N6/Drivers/STM32N6xx_HAL_Driver/Inc/stm32n6xx_ll_bus.h **** {
3171:STM32Cube_FW_N6/Drivers/STM32N6xx_HAL_Driver/Inc/stm32n6xx_ll_bus.h ****   return ((READ_BIT(RCC->APB2LPENR, Periphs) == Periphs) ? 1UL : 0UL);
3172:STM32Cube_FW_N6/Drivers/STM32N6xx_HAL_Driver/Inc/stm32n6xx_ll_bus.h **** }
3173:STM32Cube_FW_N6/Drivers/STM32N6xx_HAL_Driver/Inc/stm32n6xx_ll_bus.h **** 
3174:STM32Cube_FW_N6/Drivers/STM32N6xx_HAL_Driver/Inc/stm32n6xx_ll_bus.h **** /**
3175:STM32Cube_FW_N6/Drivers/STM32N6xx_HAL_Driver/Inc/stm32n6xx_ll_bus.h ****   * @brief  Disable APB2 peripherals clock during Low Power mode.
3176:STM32Cube_FW_N6/Drivers/STM32N6xx_HAL_Driver/Inc/stm32n6xx_ll_bus.h ****   * @rmtoll APB2LPENCR   TIM1LPENC     LL_APB2_GRP1_DisableClockLowPower\n
3177:STM32Cube_FW_N6/Drivers/STM32N6xx_HAL_Driver/Inc/stm32n6xx_ll_bus.h ****   *         APB2LPENCR   TIM8LPENC     LL_APB2_GRP1_DisableClockLowPower\n
3178:STM32Cube_FW_N6/Drivers/STM32N6xx_HAL_Driver/Inc/stm32n6xx_ll_bus.h ****   *         APB2LPENCR   USART1LPENC   LL_APB2_GRP1_DisableClockLowPower\n
3179:STM32Cube_FW_N6/Drivers/STM32N6xx_HAL_Driver/Inc/stm32n6xx_ll_bus.h ****   *         APB2LPENCR   USART6LPENC   LL_APB2_GRP1_DisableClockLowPower\n
3180:STM32Cube_FW_N6/Drivers/STM32N6xx_HAL_Driver/Inc/stm32n6xx_ll_bus.h ****   *         APB2LPENCR   UART9LPENC    LL_APB2_GRP1_DisableClockLowPower\n
3181:STM32Cube_FW_N6/Drivers/STM32N6xx_HAL_Driver/Inc/stm32n6xx_ll_bus.h ****   *         APB2LPENCR   USART10LPENC  LL_APB2_GRP1_DisableClockLowPower\n
3182:STM32Cube_FW_N6/Drivers/STM32N6xx_HAL_Driver/Inc/stm32n6xx_ll_bus.h ****   *         APB2LPENCR   SPI1LPENC     LL_APB2_GRP1_DisableClockLowPower\n
3183:STM32Cube_FW_N6/Drivers/STM32N6xx_HAL_Driver/Inc/stm32n6xx_ll_bus.h ****   *         APB2LPENCR   SPI4LPENC     LL_APB2_GRP1_DisableClockLowPower\n
3184:STM32Cube_FW_N6/Drivers/STM32N6xx_HAL_Driver/Inc/stm32n6xx_ll_bus.h ****   *         APB2LPENCR   TIM18LPENC    LL_APB2_GRP1_DisableClockLowPower\n
3185:STM32Cube_FW_N6/Drivers/STM32N6xx_HAL_Driver/Inc/stm32n6xx_ll_bus.h ****   *         APB2LPENCR   TIM15LPENC    LL_APB2_GRP1_DisableClockLowPower\n
3186:STM32Cube_FW_N6/Drivers/STM32N6xx_HAL_Driver/Inc/stm32n6xx_ll_bus.h ****   *         APB2LPENCR   TIM16LPENC    LL_APB2_GRP1_DisableClockLowPower\n
3187:STM32Cube_FW_N6/Drivers/STM32N6xx_HAL_Driver/Inc/stm32n6xx_ll_bus.h ****   *         APB2LPENCR   TIM17LPENC    LL_APB2_GRP1_DisableClockLowPower\n
3188:STM32Cube_FW_N6/Drivers/STM32N6xx_HAL_Driver/Inc/stm32n6xx_ll_bus.h ****   *         APB2LPENCR   TIM9LPENC     LL_APB2_GRP1_DisableClockLowPower\n
3189:STM32Cube_FW_N6/Drivers/STM32N6xx_HAL_Driver/Inc/stm32n6xx_ll_bus.h ****   *         APB2LPENCR   SPI5LPENC     LL_APB2_GRP1_DisableClockLowPower\n
3190:STM32Cube_FW_N6/Drivers/STM32N6xx_HAL_Driver/Inc/stm32n6xx_ll_bus.h ****   *         APB2LPENCR   SAI1LPENC     LL_APB2_GRP1_DisableClockLowPower\n
3191:STM32Cube_FW_N6/Drivers/STM32N6xx_HAL_Driver/Inc/stm32n6xx_ll_bus.h ****   *         APB2LPENCR   SAI2LPENC     LL_APB2_GRP1_DisableClockLowPower
3192:STM32Cube_FW_N6/Drivers/STM32N6xx_HAL_Driver/Inc/stm32n6xx_ll_bus.h ****   * @param  Periphs This parameter can be a combination of the following values:
3193:STM32Cube_FW_N6/Drivers/STM32N6xx_HAL_Driver/Inc/stm32n6xx_ll_bus.h ****   *         @arg @ref LL_APB2_GRP1_PERIPH_SAI1
3194:STM32Cube_FW_N6/Drivers/STM32N6xx_HAL_Driver/Inc/stm32n6xx_ll_bus.h ****   *         @arg @ref LL_APB2_GRP1_PERIPH_SAI2
3195:STM32Cube_FW_N6/Drivers/STM32N6xx_HAL_Driver/Inc/stm32n6xx_ll_bus.h ****   *         @arg @ref LL_APB2_GRP1_PERIPH_SPI1
3196:STM32Cube_FW_N6/Drivers/STM32N6xx_HAL_Driver/Inc/stm32n6xx_ll_bus.h ****   *         @arg @ref LL_APB2_GRP1_PERIPH_SPI4
3197:STM32Cube_FW_N6/Drivers/STM32N6xx_HAL_Driver/Inc/stm32n6xx_ll_bus.h ****   *         @arg @ref LL_APB2_GRP1_PERIPH_SPI5
3198:STM32Cube_FW_N6/Drivers/STM32N6xx_HAL_Driver/Inc/stm32n6xx_ll_bus.h ****   *         @arg @ref LL_APB2_GRP1_PERIPH_TIM1
3199:STM32Cube_FW_N6/Drivers/STM32N6xx_HAL_Driver/Inc/stm32n6xx_ll_bus.h ****   *         @arg @ref LL_APB2_GRP1_PERIPH_TIM8
3200:STM32Cube_FW_N6/Drivers/STM32N6xx_HAL_Driver/Inc/stm32n6xx_ll_bus.h ****   *         @arg @ref LL_APB2_GRP1_PERIPH_TIM9
3201:STM32Cube_FW_N6/Drivers/STM32N6xx_HAL_Driver/Inc/stm32n6xx_ll_bus.h ****   *         @arg @ref LL_APB2_GRP1_PERIPH_TIM15
3202:STM32Cube_FW_N6/Drivers/STM32N6xx_HAL_Driver/Inc/stm32n6xx_ll_bus.h ****   *         @arg @ref LL_APB2_GRP1_PERIPH_TIM16
3203:STM32Cube_FW_N6/Drivers/STM32N6xx_HAL_Driver/Inc/stm32n6xx_ll_bus.h ****   *         @arg @ref LL_APB2_GRP1_PERIPH_TIM17
3204:STM32Cube_FW_N6/Drivers/STM32N6xx_HAL_Driver/Inc/stm32n6xx_ll_bus.h ****   *         @arg @ref LL_APB2_GRP1_PERIPH_TIM18
3205:STM32Cube_FW_N6/Drivers/STM32N6xx_HAL_Driver/Inc/stm32n6xx_ll_bus.h ****   *         @arg @ref LL_APB2_GRP1_PERIPH_USART1
3206:STM32Cube_FW_N6/Drivers/STM32N6xx_HAL_Driver/Inc/stm32n6xx_ll_bus.h ****   *         @arg @ref LL_APB2_GRP1_PERIPH_USART6
3207:STM32Cube_FW_N6/Drivers/STM32N6xx_HAL_Driver/Inc/stm32n6xx_ll_bus.h ****   *         @arg @ref LL_APB2_GRP1_PERIPH_UART9
3208:STM32Cube_FW_N6/Drivers/STM32N6xx_HAL_Driver/Inc/stm32n6xx_ll_bus.h ****   *         @arg @ref LL_APB2_GRP1_PERIPH_USART10
3209:STM32Cube_FW_N6/Drivers/STM32N6xx_HAL_Driver/Inc/stm32n6xx_ll_bus.h ****   * @retval None
3210:STM32Cube_FW_N6/Drivers/STM32N6xx_HAL_Driver/Inc/stm32n6xx_ll_bus.h ****   */
3211:STM32Cube_FW_N6/Drivers/STM32N6xx_HAL_Driver/Inc/stm32n6xx_ll_bus.h **** __STATIC_INLINE void LL_APB2_GRP1_DisableClockLowPower(uint32_t Periphs)
3212:STM32Cube_FW_N6/Drivers/STM32N6xx_HAL_Driver/Inc/stm32n6xx_ll_bus.h **** {
3213:STM32Cube_FW_N6/Drivers/STM32N6xx_HAL_Driver/Inc/stm32n6xx_ll_bus.h ****   WRITE_REG(RCC->APB2LPENCR, Periphs);
3214:STM32Cube_FW_N6/Drivers/STM32N6xx_HAL_Driver/Inc/stm32n6xx_ll_bus.h **** }
3215:STM32Cube_FW_N6/Drivers/STM32N6xx_HAL_Driver/Inc/stm32n6xx_ll_bus.h **** 
3216:STM32Cube_FW_N6/Drivers/STM32N6xx_HAL_Driver/Inc/stm32n6xx_ll_bus.h **** /**
ARM GAS  C:\Users\DJESSOU\AppData\Local\Temp\cc3dm0Vf.s 			page 189


3217:STM32Cube_FW_N6/Drivers/STM32N6xx_HAL_Driver/Inc/stm32n6xx_ll_bus.h ****   * @}
3218:STM32Cube_FW_N6/Drivers/STM32N6xx_HAL_Driver/Inc/stm32n6xx_ll_bus.h ****   */
3219:STM32Cube_FW_N6/Drivers/STM32N6xx_HAL_Driver/Inc/stm32n6xx_ll_bus.h **** 
3220:STM32Cube_FW_N6/Drivers/STM32N6xx_HAL_Driver/Inc/stm32n6xx_ll_bus.h **** /** @defgroup BUS_LL_EF_APB4 APB4
3221:STM32Cube_FW_N6/Drivers/STM32N6xx_HAL_Driver/Inc/stm32n6xx_ll_bus.h ****   * @{
3222:STM32Cube_FW_N6/Drivers/STM32N6xx_HAL_Driver/Inc/stm32n6xx_ll_bus.h ****   */
3223:STM32Cube_FW_N6/Drivers/STM32N6xx_HAL_Driver/Inc/stm32n6xx_ll_bus.h **** 
3224:STM32Cube_FW_N6/Drivers/STM32N6xx_HAL_Driver/Inc/stm32n6xx_ll_bus.h **** /**
3225:STM32Cube_FW_N6/Drivers/STM32N6xx_HAL_Driver/Inc/stm32n6xx_ll_bus.h ****   * @brief  Enable APB4 peripherals clock.
3226:STM32Cube_FW_N6/Drivers/STM32N6xx_HAL_Driver/Inc/stm32n6xx_ll_bus.h ****   * @rmtoll APB4ENSR1    HDPENS        LL_APB4_GRP1_EnableClock\n
3227:STM32Cube_FW_N6/Drivers/STM32N6xx_HAL_Driver/Inc/stm32n6xx_ll_bus.h ****   *         APB4ENSR1    LPUART1ENS    LL_APB4_GRP1_EnableClock\n
3228:STM32Cube_FW_N6/Drivers/STM32N6xx_HAL_Driver/Inc/stm32n6xx_ll_bus.h ****   *         APB4ENSR1    SPI6ENS       LL_APB4_GRP1_EnableClock\n
3229:STM32Cube_FW_N6/Drivers/STM32N6xx_HAL_Driver/Inc/stm32n6xx_ll_bus.h ****   *         APB4ENSR1    I2C4ENS       LL_APB4_GRP1_EnableClock\n
3230:STM32Cube_FW_N6/Drivers/STM32N6xx_HAL_Driver/Inc/stm32n6xx_ll_bus.h ****   *         APB4ENSR1    LPTIM2ENS     LL_APB4_GRP1_EnableClock\n
3231:STM32Cube_FW_N6/Drivers/STM32N6xx_HAL_Driver/Inc/stm32n6xx_ll_bus.h ****   *         APB4ENSR1    LPTIM3ENS     LL_APB4_GRP1_EnableClock\n
3232:STM32Cube_FW_N6/Drivers/STM32N6xx_HAL_Driver/Inc/stm32n6xx_ll_bus.h ****   *         APB4ENSR1    LPTIM4ENS     LL_APB4_GRP1_EnableClock\n
3233:STM32Cube_FW_N6/Drivers/STM32N6xx_HAL_Driver/Inc/stm32n6xx_ll_bus.h ****   *         APB4ENSR1    LPTIM5ENS     LL_APB4_GRP1_EnableClock\n
3234:STM32Cube_FW_N6/Drivers/STM32N6xx_HAL_Driver/Inc/stm32n6xx_ll_bus.h ****   *         APB4ENSR1    VREFBUFENS    LL_APB4_GRP1_EnableClock\n
3235:STM32Cube_FW_N6/Drivers/STM32N6xx_HAL_Driver/Inc/stm32n6xx_ll_bus.h ****   *         APB4ENSR1    RTCENS        LL_APB4_GRP1_EnableClock\n
3236:STM32Cube_FW_N6/Drivers/STM32N6xx_HAL_Driver/Inc/stm32n6xx_ll_bus.h ****   *         APB4ENSR1    RTCAPBENS     LL_APB4_GRP1_EnableClock
3237:STM32Cube_FW_N6/Drivers/STM32N6xx_HAL_Driver/Inc/stm32n6xx_ll_bus.h ****   * @param  Periphs This parameter can be a combination of the following values:
3238:STM32Cube_FW_N6/Drivers/STM32N6xx_HAL_Driver/Inc/stm32n6xx_ll_bus.h ****   *         @arg @ref LL_APB4_GRP1_PERIPH_HDP
3239:STM32Cube_FW_N6/Drivers/STM32N6xx_HAL_Driver/Inc/stm32n6xx_ll_bus.h ****   *         @arg @ref LL_APB4_GRP1_PERIPH_I2C4
3240:STM32Cube_FW_N6/Drivers/STM32N6xx_HAL_Driver/Inc/stm32n6xx_ll_bus.h ****   *         @arg @ref LL_APB4_GRP1_PERIPH_LPTIM2
3241:STM32Cube_FW_N6/Drivers/STM32N6xx_HAL_Driver/Inc/stm32n6xx_ll_bus.h ****   *         @arg @ref LL_APB4_GRP1_PERIPH_LPTIM3
3242:STM32Cube_FW_N6/Drivers/STM32N6xx_HAL_Driver/Inc/stm32n6xx_ll_bus.h ****   *         @arg @ref LL_APB4_GRP1_PERIPH_LPTIM4
3243:STM32Cube_FW_N6/Drivers/STM32N6xx_HAL_Driver/Inc/stm32n6xx_ll_bus.h ****   *         @arg @ref LL_APB4_GRP1_PERIPH_LPTIM5
3244:STM32Cube_FW_N6/Drivers/STM32N6xx_HAL_Driver/Inc/stm32n6xx_ll_bus.h ****   *         @arg @ref LL_APB4_GRP1_PERIPH_LPUART1
3245:STM32Cube_FW_N6/Drivers/STM32N6xx_HAL_Driver/Inc/stm32n6xx_ll_bus.h ****   *         @arg @ref LL_APB4_GRP1_PERIPH_RTC
3246:STM32Cube_FW_N6/Drivers/STM32N6xx_HAL_Driver/Inc/stm32n6xx_ll_bus.h ****   *         @arg @ref LL_APB4_GRP1_PERIPH_RTCAPB
3247:STM32Cube_FW_N6/Drivers/STM32N6xx_HAL_Driver/Inc/stm32n6xx_ll_bus.h ****   *         @arg @ref LL_APB4_GRP1_PERIPH_SPI6
3248:STM32Cube_FW_N6/Drivers/STM32N6xx_HAL_Driver/Inc/stm32n6xx_ll_bus.h ****   *         @arg @ref LL_APB4_GRP1_PERIPH_VREFBUF
3249:STM32Cube_FW_N6/Drivers/STM32N6xx_HAL_Driver/Inc/stm32n6xx_ll_bus.h ****   * @retval None
3250:STM32Cube_FW_N6/Drivers/STM32N6xx_HAL_Driver/Inc/stm32n6xx_ll_bus.h ****   */
3251:STM32Cube_FW_N6/Drivers/STM32N6xx_HAL_Driver/Inc/stm32n6xx_ll_bus.h **** __STATIC_INLINE void LL_APB4_GRP1_EnableClock(uint32_t Periphs)
3252:STM32Cube_FW_N6/Drivers/STM32N6xx_HAL_Driver/Inc/stm32n6xx_ll_bus.h **** {
3253:STM32Cube_FW_N6/Drivers/STM32N6xx_HAL_Driver/Inc/stm32n6xx_ll_bus.h ****   __IO uint32_t tmpreg;
3254:STM32Cube_FW_N6/Drivers/STM32N6xx_HAL_Driver/Inc/stm32n6xx_ll_bus.h ****   WRITE_REG(RCC->APB4ENSR1, Periphs);
3255:STM32Cube_FW_N6/Drivers/STM32N6xx_HAL_Driver/Inc/stm32n6xx_ll_bus.h ****   /* Delay after an RCC peripheral clock enabling */
3256:STM32Cube_FW_N6/Drivers/STM32N6xx_HAL_Driver/Inc/stm32n6xx_ll_bus.h ****   tmpreg = READ_REG(RCC->APB4ENR1);
3257:STM32Cube_FW_N6/Drivers/STM32N6xx_HAL_Driver/Inc/stm32n6xx_ll_bus.h ****   (void)tmpreg;
3258:STM32Cube_FW_N6/Drivers/STM32N6xx_HAL_Driver/Inc/stm32n6xx_ll_bus.h **** }
3259:STM32Cube_FW_N6/Drivers/STM32N6xx_HAL_Driver/Inc/stm32n6xx_ll_bus.h **** 
3260:STM32Cube_FW_N6/Drivers/STM32N6xx_HAL_Driver/Inc/stm32n6xx_ll_bus.h **** /**
3261:STM32Cube_FW_N6/Drivers/STM32N6xx_HAL_Driver/Inc/stm32n6xx_ll_bus.h ****   * @brief  Check if APB4 peripheral clock is enabled or not
3262:STM32Cube_FW_N6/Drivers/STM32N6xx_HAL_Driver/Inc/stm32n6xx_ll_bus.h ****   * @rmtoll APB4ENR1     HDPEN         LL_APB4_GRP1_IsEnabledClock\n
3263:STM32Cube_FW_N6/Drivers/STM32N6xx_HAL_Driver/Inc/stm32n6xx_ll_bus.h ****   *         APB4ENR1     LPUART1EN     LL_APB4_GRP1_IsEnabledClock\n
3264:STM32Cube_FW_N6/Drivers/STM32N6xx_HAL_Driver/Inc/stm32n6xx_ll_bus.h ****   *         APB4ENR1     SPI6EN        LL_APB4_GRP1_IsEnabledClock\n
3265:STM32Cube_FW_N6/Drivers/STM32N6xx_HAL_Driver/Inc/stm32n6xx_ll_bus.h ****   *         APB4ENR1     I2C4EN        LL_APB4_GRP1_IsEnabledClock\n
3266:STM32Cube_FW_N6/Drivers/STM32N6xx_HAL_Driver/Inc/stm32n6xx_ll_bus.h ****   *         APB4ENR1     LPTIM2EN      LL_APB4_GRP1_IsEnabledClock\n
3267:STM32Cube_FW_N6/Drivers/STM32N6xx_HAL_Driver/Inc/stm32n6xx_ll_bus.h ****   *         APB4ENR1     LPTIM3EN      LL_APB4_GRP1_IsEnabledClock\n
3268:STM32Cube_FW_N6/Drivers/STM32N6xx_HAL_Driver/Inc/stm32n6xx_ll_bus.h ****   *         APB4ENR1     LPTIM4EN      LL_APB4_GRP1_IsEnabledClock\n
3269:STM32Cube_FW_N6/Drivers/STM32N6xx_HAL_Driver/Inc/stm32n6xx_ll_bus.h ****   *         APB4ENR1     LPTIM5EN      LL_APB4_GRP1_IsEnabledClock\n
3270:STM32Cube_FW_N6/Drivers/STM32N6xx_HAL_Driver/Inc/stm32n6xx_ll_bus.h ****   *         APB4ENR1     VREFBUFEN     LL_APB4_GRP1_IsEnabledClock\n
3271:STM32Cube_FW_N6/Drivers/STM32N6xx_HAL_Driver/Inc/stm32n6xx_ll_bus.h ****   *         APB4ENR1     RTCEN         LL_APB4_GRP1_IsEnabledClock\n
3272:STM32Cube_FW_N6/Drivers/STM32N6xx_HAL_Driver/Inc/stm32n6xx_ll_bus.h ****   *         APB4ENR1     RTCAPBEN      LL_APB4_GRP1_IsEnabledClock
3273:STM32Cube_FW_N6/Drivers/STM32N6xx_HAL_Driver/Inc/stm32n6xx_ll_bus.h ****   * @param  Periphs This parameter can be a combination of the following values:
ARM GAS  C:\Users\DJESSOU\AppData\Local\Temp\cc3dm0Vf.s 			page 190


3274:STM32Cube_FW_N6/Drivers/STM32N6xx_HAL_Driver/Inc/stm32n6xx_ll_bus.h ****   *         @arg @ref LL_APB4_GRP1_PERIPH_HDP
3275:STM32Cube_FW_N6/Drivers/STM32N6xx_HAL_Driver/Inc/stm32n6xx_ll_bus.h ****   *         @arg @ref LL_APB4_GRP1_PERIPH_I2C4
3276:STM32Cube_FW_N6/Drivers/STM32N6xx_HAL_Driver/Inc/stm32n6xx_ll_bus.h ****   *         @arg @ref LL_APB4_GRP1_PERIPH_LPTIM2
3277:STM32Cube_FW_N6/Drivers/STM32N6xx_HAL_Driver/Inc/stm32n6xx_ll_bus.h ****   *         @arg @ref LL_APB4_GRP1_PERIPH_LPTIM3
3278:STM32Cube_FW_N6/Drivers/STM32N6xx_HAL_Driver/Inc/stm32n6xx_ll_bus.h ****   *         @arg @ref LL_APB4_GRP1_PERIPH_LPTIM4
3279:STM32Cube_FW_N6/Drivers/STM32N6xx_HAL_Driver/Inc/stm32n6xx_ll_bus.h ****   *         @arg @ref LL_APB4_GRP1_PERIPH_LPTIM5
3280:STM32Cube_FW_N6/Drivers/STM32N6xx_HAL_Driver/Inc/stm32n6xx_ll_bus.h ****   *         @arg @ref LL_APB4_GRP1_PERIPH_LPUART1
3281:STM32Cube_FW_N6/Drivers/STM32N6xx_HAL_Driver/Inc/stm32n6xx_ll_bus.h ****   *         @arg @ref LL_APB4_GRP1_PERIPH_RTC
3282:STM32Cube_FW_N6/Drivers/STM32N6xx_HAL_Driver/Inc/stm32n6xx_ll_bus.h ****   *         @arg @ref LL_APB4_GRP1_PERIPH_RTCAPB
3283:STM32Cube_FW_N6/Drivers/STM32N6xx_HAL_Driver/Inc/stm32n6xx_ll_bus.h ****   *         @arg @ref LL_APB4_GRP1_PERIPH_SPI6
3284:STM32Cube_FW_N6/Drivers/STM32N6xx_HAL_Driver/Inc/stm32n6xx_ll_bus.h ****   *         @arg @ref LL_APB4_GRP1_PERIPH_VREFBUF
3285:STM32Cube_FW_N6/Drivers/STM32N6xx_HAL_Driver/Inc/stm32n6xx_ll_bus.h ****   * @retval uint32_t
3286:STM32Cube_FW_N6/Drivers/STM32N6xx_HAL_Driver/Inc/stm32n6xx_ll_bus.h ****   */
3287:STM32Cube_FW_N6/Drivers/STM32N6xx_HAL_Driver/Inc/stm32n6xx_ll_bus.h **** __STATIC_INLINE uint32_t LL_APB4_GRP1_IsEnabledClock(uint32_t Periphs)
3288:STM32Cube_FW_N6/Drivers/STM32N6xx_HAL_Driver/Inc/stm32n6xx_ll_bus.h **** {
3289:STM32Cube_FW_N6/Drivers/STM32N6xx_HAL_Driver/Inc/stm32n6xx_ll_bus.h ****   return ((READ_BIT(RCC->APB4ENR1, Periphs) == Periphs) ? 1UL : 0UL);
3290:STM32Cube_FW_N6/Drivers/STM32N6xx_HAL_Driver/Inc/stm32n6xx_ll_bus.h **** }
3291:STM32Cube_FW_N6/Drivers/STM32N6xx_HAL_Driver/Inc/stm32n6xx_ll_bus.h **** 
3292:STM32Cube_FW_N6/Drivers/STM32N6xx_HAL_Driver/Inc/stm32n6xx_ll_bus.h **** /**
3293:STM32Cube_FW_N6/Drivers/STM32N6xx_HAL_Driver/Inc/stm32n6xx_ll_bus.h ****   * @brief  Disable APB4 peripherals clock.
3294:STM32Cube_FW_N6/Drivers/STM32N6xx_HAL_Driver/Inc/stm32n6xx_ll_bus.h ****   * @rmtoll APB4ENCR1    HDPENC        LL_APB4_GRP1_DisableClock\n
3295:STM32Cube_FW_N6/Drivers/STM32N6xx_HAL_Driver/Inc/stm32n6xx_ll_bus.h ****   *         APB4ENCR1    LPUART1ENC    LL_APB4_GRP1_DisableClock\n
3296:STM32Cube_FW_N6/Drivers/STM32N6xx_HAL_Driver/Inc/stm32n6xx_ll_bus.h ****   *         APB4ENCR1    SPI6ENC       LL_APB4_GRP1_DisableClock\n
3297:STM32Cube_FW_N6/Drivers/STM32N6xx_HAL_Driver/Inc/stm32n6xx_ll_bus.h ****   *         APB4ENCR1    I2C4ENC       LL_APB4_GRP1_DisableClock\n
3298:STM32Cube_FW_N6/Drivers/STM32N6xx_HAL_Driver/Inc/stm32n6xx_ll_bus.h ****   *         APB4ENCR1    LPTIM2ENC     LL_APB4_GRP1_DisableClock\n
3299:STM32Cube_FW_N6/Drivers/STM32N6xx_HAL_Driver/Inc/stm32n6xx_ll_bus.h ****   *         APB4ENCR1    LPTIM3ENC     LL_APB4_GRP1_DisableClock\n
3300:STM32Cube_FW_N6/Drivers/STM32N6xx_HAL_Driver/Inc/stm32n6xx_ll_bus.h ****   *         APB4ENCR1    LPTIM4ENC     LL_APB4_GRP1_DisableClock\n
3301:STM32Cube_FW_N6/Drivers/STM32N6xx_HAL_Driver/Inc/stm32n6xx_ll_bus.h ****   *         APB4ENCR1    LPTIM5ENC     LL_APB4_GRP1_DisableClock\n
3302:STM32Cube_FW_N6/Drivers/STM32N6xx_HAL_Driver/Inc/stm32n6xx_ll_bus.h ****   *         APB4ENCR1    VREFBUFENC    LL_APB4_GRP1_DisableClock\n
3303:STM32Cube_FW_N6/Drivers/STM32N6xx_HAL_Driver/Inc/stm32n6xx_ll_bus.h ****   *         APB4ENCR1    RTCENC        LL_APB4_GRP1_DisableClock\n
3304:STM32Cube_FW_N6/Drivers/STM32N6xx_HAL_Driver/Inc/stm32n6xx_ll_bus.h ****   *         APB4ENCR1    RTCAPBENC     LL_APB4_GRP1_DisableClock
3305:STM32Cube_FW_N6/Drivers/STM32N6xx_HAL_Driver/Inc/stm32n6xx_ll_bus.h ****   * @param  Periphs This parameter can be a combination of the following values:
3306:STM32Cube_FW_N6/Drivers/STM32N6xx_HAL_Driver/Inc/stm32n6xx_ll_bus.h ****   *         @arg @ref LL_APB4_GRP1_PERIPH_HDP
3307:STM32Cube_FW_N6/Drivers/STM32N6xx_HAL_Driver/Inc/stm32n6xx_ll_bus.h ****   *         @arg @ref LL_APB4_GRP1_PERIPH_I2C4
3308:STM32Cube_FW_N6/Drivers/STM32N6xx_HAL_Driver/Inc/stm32n6xx_ll_bus.h ****   *         @arg @ref LL_APB4_GRP1_PERIPH_LPTIM2
3309:STM32Cube_FW_N6/Drivers/STM32N6xx_HAL_Driver/Inc/stm32n6xx_ll_bus.h ****   *         @arg @ref LL_APB4_GRP1_PERIPH_LPTIM3
3310:STM32Cube_FW_N6/Drivers/STM32N6xx_HAL_Driver/Inc/stm32n6xx_ll_bus.h ****   *         @arg @ref LL_APB4_GRP1_PERIPH_LPTIM4
3311:STM32Cube_FW_N6/Drivers/STM32N6xx_HAL_Driver/Inc/stm32n6xx_ll_bus.h ****   *         @arg @ref LL_APB4_GRP1_PERIPH_LPTIM5
3312:STM32Cube_FW_N6/Drivers/STM32N6xx_HAL_Driver/Inc/stm32n6xx_ll_bus.h ****   *         @arg @ref LL_APB4_GRP1_PERIPH_LPUART1
3313:STM32Cube_FW_N6/Drivers/STM32N6xx_HAL_Driver/Inc/stm32n6xx_ll_bus.h ****   *         @arg @ref LL_APB4_GRP1_PERIPH_RTC
3314:STM32Cube_FW_N6/Drivers/STM32N6xx_HAL_Driver/Inc/stm32n6xx_ll_bus.h ****   *         @arg @ref LL_APB4_GRP1_PERIPH_RTCAPB
3315:STM32Cube_FW_N6/Drivers/STM32N6xx_HAL_Driver/Inc/stm32n6xx_ll_bus.h ****   *         @arg @ref LL_APB4_GRP1_PERIPH_SPI6
3316:STM32Cube_FW_N6/Drivers/STM32N6xx_HAL_Driver/Inc/stm32n6xx_ll_bus.h ****   *         @arg @ref LL_APB4_GRP1_PERIPH_VREFBUF
3317:STM32Cube_FW_N6/Drivers/STM32N6xx_HAL_Driver/Inc/stm32n6xx_ll_bus.h ****   * @retval None
3318:STM32Cube_FW_N6/Drivers/STM32N6xx_HAL_Driver/Inc/stm32n6xx_ll_bus.h ****   */
3319:STM32Cube_FW_N6/Drivers/STM32N6xx_HAL_Driver/Inc/stm32n6xx_ll_bus.h **** __STATIC_INLINE void LL_APB4_GRP1_DisableClock(uint32_t Periphs)
3320:STM32Cube_FW_N6/Drivers/STM32N6xx_HAL_Driver/Inc/stm32n6xx_ll_bus.h **** {
3321:STM32Cube_FW_N6/Drivers/STM32N6xx_HAL_Driver/Inc/stm32n6xx_ll_bus.h ****   WRITE_REG(RCC->APB4ENCR1, Periphs);
3322:STM32Cube_FW_N6/Drivers/STM32N6xx_HAL_Driver/Inc/stm32n6xx_ll_bus.h **** }
3323:STM32Cube_FW_N6/Drivers/STM32N6xx_HAL_Driver/Inc/stm32n6xx_ll_bus.h **** 
3324:STM32Cube_FW_N6/Drivers/STM32N6xx_HAL_Driver/Inc/stm32n6xx_ll_bus.h **** /**
3325:STM32Cube_FW_N6/Drivers/STM32N6xx_HAL_Driver/Inc/stm32n6xx_ll_bus.h ****   * @brief  Force APB4 peripherals reset.
3326:STM32Cube_FW_N6/Drivers/STM32N6xx_HAL_Driver/Inc/stm32n6xx_ll_bus.h ****   * @rmtoll APB4RSTSR1   HDPRSTS       LL_APB4_GRP1_ForceReset\n
3327:STM32Cube_FW_N6/Drivers/STM32N6xx_HAL_Driver/Inc/stm32n6xx_ll_bus.h ****   *         APB4RSTSR1   LPUART1RSTS   LL_APB4_GRP1_ForceReset\n
3328:STM32Cube_FW_N6/Drivers/STM32N6xx_HAL_Driver/Inc/stm32n6xx_ll_bus.h ****   *         APB4RSTSR1   SPI6RSTS      LL_APB4_GRP1_ForceReset\n
3329:STM32Cube_FW_N6/Drivers/STM32N6xx_HAL_Driver/Inc/stm32n6xx_ll_bus.h ****   *         APB4RSTSR1   I2C4RSTS      LL_APB4_GRP1_ForceReset\n
3330:STM32Cube_FW_N6/Drivers/STM32N6xx_HAL_Driver/Inc/stm32n6xx_ll_bus.h ****   *         APB4RSTSR1   LPTIM2RSTS    LL_APB4_GRP1_ForceReset\n
ARM GAS  C:\Users\DJESSOU\AppData\Local\Temp\cc3dm0Vf.s 			page 191


3331:STM32Cube_FW_N6/Drivers/STM32N6xx_HAL_Driver/Inc/stm32n6xx_ll_bus.h ****   *         APB4RSTSR1   LPTIM3RSTS    LL_APB4_GRP1_ForceReset\n
3332:STM32Cube_FW_N6/Drivers/STM32N6xx_HAL_Driver/Inc/stm32n6xx_ll_bus.h ****   *         APB4RSTSR1   LPTIM4RSTS    LL_APB4_GRP1_ForceReset\n
3333:STM32Cube_FW_N6/Drivers/STM32N6xx_HAL_Driver/Inc/stm32n6xx_ll_bus.h ****   *         APB4RSTSR1   LPTIM5RSTS    LL_APB4_GRP1_ForceReset\n
3334:STM32Cube_FW_N6/Drivers/STM32N6xx_HAL_Driver/Inc/stm32n6xx_ll_bus.h ****   *         APB4RSTSR1   VREFBUFRSTS   LL_APB4_GRP1_ForceReset\n
3335:STM32Cube_FW_N6/Drivers/STM32N6xx_HAL_Driver/Inc/stm32n6xx_ll_bus.h ****   *         APB4RSTSR1   RTCAPBRSTS    LL_APB4_GRP1_ForceReset
3336:STM32Cube_FW_N6/Drivers/STM32N6xx_HAL_Driver/Inc/stm32n6xx_ll_bus.h ****   * @param  Periphs This parameter can be a combination of the following values:
3337:STM32Cube_FW_N6/Drivers/STM32N6xx_HAL_Driver/Inc/stm32n6xx_ll_bus.h ****   *         @arg @ref LL_APB4_GRP1_PERIPH_HDP
3338:STM32Cube_FW_N6/Drivers/STM32N6xx_HAL_Driver/Inc/stm32n6xx_ll_bus.h ****   *         @arg @ref LL_APB4_GRP1_PERIPH_I2C4
3339:STM32Cube_FW_N6/Drivers/STM32N6xx_HAL_Driver/Inc/stm32n6xx_ll_bus.h ****   *         @arg @ref LL_APB4_GRP1_PERIPH_LPTIM2
3340:STM32Cube_FW_N6/Drivers/STM32N6xx_HAL_Driver/Inc/stm32n6xx_ll_bus.h ****   *         @arg @ref LL_APB4_GRP1_PERIPH_LPTIM3
3341:STM32Cube_FW_N6/Drivers/STM32N6xx_HAL_Driver/Inc/stm32n6xx_ll_bus.h ****   *         @arg @ref LL_APB4_GRP1_PERIPH_LPTIM4
3342:STM32Cube_FW_N6/Drivers/STM32N6xx_HAL_Driver/Inc/stm32n6xx_ll_bus.h ****   *         @arg @ref LL_APB4_GRP1_PERIPH_LPTIM5
3343:STM32Cube_FW_N6/Drivers/STM32N6xx_HAL_Driver/Inc/stm32n6xx_ll_bus.h ****   *         @arg @ref LL_APB4_GRP1_PERIPH_LPUART1
3344:STM32Cube_FW_N6/Drivers/STM32N6xx_HAL_Driver/Inc/stm32n6xx_ll_bus.h ****   *         @arg @ref LL_APB4_GRP1_PERIPH_RTCAPB
3345:STM32Cube_FW_N6/Drivers/STM32N6xx_HAL_Driver/Inc/stm32n6xx_ll_bus.h ****   *         @arg @ref LL_APB4_GRP1_PERIPH_SPI6
3346:STM32Cube_FW_N6/Drivers/STM32N6xx_HAL_Driver/Inc/stm32n6xx_ll_bus.h ****   *         @arg @ref LL_APB4_GRP1_PERIPH_VREFBUF
3347:STM32Cube_FW_N6/Drivers/STM32N6xx_HAL_Driver/Inc/stm32n6xx_ll_bus.h ****   * @retval None
3348:STM32Cube_FW_N6/Drivers/STM32N6xx_HAL_Driver/Inc/stm32n6xx_ll_bus.h ****   */
3349:STM32Cube_FW_N6/Drivers/STM32N6xx_HAL_Driver/Inc/stm32n6xx_ll_bus.h **** __STATIC_INLINE void LL_APB4_GRP1_ForceReset(uint32_t Periphs)
3350:STM32Cube_FW_N6/Drivers/STM32N6xx_HAL_Driver/Inc/stm32n6xx_ll_bus.h **** {
3351:STM32Cube_FW_N6/Drivers/STM32N6xx_HAL_Driver/Inc/stm32n6xx_ll_bus.h ****   WRITE_REG(RCC->APB4RSTSR1, Periphs);
3352:STM32Cube_FW_N6/Drivers/STM32N6xx_HAL_Driver/Inc/stm32n6xx_ll_bus.h **** }
3353:STM32Cube_FW_N6/Drivers/STM32N6xx_HAL_Driver/Inc/stm32n6xx_ll_bus.h **** 
3354:STM32Cube_FW_N6/Drivers/STM32N6xx_HAL_Driver/Inc/stm32n6xx_ll_bus.h **** /**
3355:STM32Cube_FW_N6/Drivers/STM32N6xx_HAL_Driver/Inc/stm32n6xx_ll_bus.h ****   * @brief  Release APB4 peripherals reset.
3356:STM32Cube_FW_N6/Drivers/STM32N6xx_HAL_Driver/Inc/stm32n6xx_ll_bus.h ****   * @rmtoll APB4RSTCR1   HDPRSTC       LL_APB4_GRP1_ReleaseReset\n
3357:STM32Cube_FW_N6/Drivers/STM32N6xx_HAL_Driver/Inc/stm32n6xx_ll_bus.h ****   *         APB4RSTCR1   LPUART1RSTC   LL_APB4_GRP1_ReleaseReset\n
3358:STM32Cube_FW_N6/Drivers/STM32N6xx_HAL_Driver/Inc/stm32n6xx_ll_bus.h ****   *         APB4RSTCR1   SPI6RSTC      LL_APB4_GRP1_ReleaseReset\n
3359:STM32Cube_FW_N6/Drivers/STM32N6xx_HAL_Driver/Inc/stm32n6xx_ll_bus.h ****   *         APB4RSTCR1   I2C4RSTC      LL_APB4_GRP1_ReleaseReset\n
3360:STM32Cube_FW_N6/Drivers/STM32N6xx_HAL_Driver/Inc/stm32n6xx_ll_bus.h ****   *         APB4RSTCR1   LPTIM2RSTC    LL_APB4_GRP1_ReleaseReset\n
3361:STM32Cube_FW_N6/Drivers/STM32N6xx_HAL_Driver/Inc/stm32n6xx_ll_bus.h ****   *         APB4RSTCR1   LPTIM3RSTC    LL_APB4_GRP1_ReleaseReset\n
3362:STM32Cube_FW_N6/Drivers/STM32N6xx_HAL_Driver/Inc/stm32n6xx_ll_bus.h ****   *         APB4RSTCR1   LPTIM4RSTC    LL_APB4_GRP1_ReleaseReset\n
3363:STM32Cube_FW_N6/Drivers/STM32N6xx_HAL_Driver/Inc/stm32n6xx_ll_bus.h ****   *         APB4RSTCR1   LPTIM5RSTC    LL_APB4_GRP1_ReleaseReset\n
3364:STM32Cube_FW_N6/Drivers/STM32N6xx_HAL_Driver/Inc/stm32n6xx_ll_bus.h ****   *         APB4RSTCR1   VREFBUFRSTC   LL_APB4_GRP1_ReleaseReset\n
3365:STM32Cube_FW_N6/Drivers/STM32N6xx_HAL_Driver/Inc/stm32n6xx_ll_bus.h ****   *         APB4RSTCR1   RTCAPBRSTC    LL_APB4_GRP1_ReleaseReset
3366:STM32Cube_FW_N6/Drivers/STM32N6xx_HAL_Driver/Inc/stm32n6xx_ll_bus.h ****   * @param  Periphs This parameter can be a combination of the following values:
3367:STM32Cube_FW_N6/Drivers/STM32N6xx_HAL_Driver/Inc/stm32n6xx_ll_bus.h ****   *         @arg @ref LL_APB4_GRP1_PERIPH_HDP
3368:STM32Cube_FW_N6/Drivers/STM32N6xx_HAL_Driver/Inc/stm32n6xx_ll_bus.h ****   *         @arg @ref LL_APB4_GRP1_PERIPH_I2C4
3369:STM32Cube_FW_N6/Drivers/STM32N6xx_HAL_Driver/Inc/stm32n6xx_ll_bus.h ****   *         @arg @ref LL_APB4_GRP1_PERIPH_LPTIM2
3370:STM32Cube_FW_N6/Drivers/STM32N6xx_HAL_Driver/Inc/stm32n6xx_ll_bus.h ****   *         @arg @ref LL_APB4_GRP1_PERIPH_LPTIM3
3371:STM32Cube_FW_N6/Drivers/STM32N6xx_HAL_Driver/Inc/stm32n6xx_ll_bus.h ****   *         @arg @ref LL_APB4_GRP1_PERIPH_LPTIM4
3372:STM32Cube_FW_N6/Drivers/STM32N6xx_HAL_Driver/Inc/stm32n6xx_ll_bus.h ****   *         @arg @ref LL_APB4_GRP1_PERIPH_LPTIM5
3373:STM32Cube_FW_N6/Drivers/STM32N6xx_HAL_Driver/Inc/stm32n6xx_ll_bus.h ****   *         @arg @ref LL_APB4_GRP1_PERIPH_LPUART1
3374:STM32Cube_FW_N6/Drivers/STM32N6xx_HAL_Driver/Inc/stm32n6xx_ll_bus.h ****   *         @arg @ref LL_APB4_GRP1_PERIPH_RTCAPB
3375:STM32Cube_FW_N6/Drivers/STM32N6xx_HAL_Driver/Inc/stm32n6xx_ll_bus.h ****   *         @arg @ref LL_APB4_GRP1_PERIPH_SPI6
3376:STM32Cube_FW_N6/Drivers/STM32N6xx_HAL_Driver/Inc/stm32n6xx_ll_bus.h ****   *         @arg @ref LL_APB4_GRP1_PERIPH_VREFBUF
3377:STM32Cube_FW_N6/Drivers/STM32N6xx_HAL_Driver/Inc/stm32n6xx_ll_bus.h ****   * @retval None
3378:STM32Cube_FW_N6/Drivers/STM32N6xx_HAL_Driver/Inc/stm32n6xx_ll_bus.h ****   */
3379:STM32Cube_FW_N6/Drivers/STM32N6xx_HAL_Driver/Inc/stm32n6xx_ll_bus.h **** __STATIC_INLINE void LL_APB4_GRP1_ReleaseReset(uint32_t Periphs)
3380:STM32Cube_FW_N6/Drivers/STM32N6xx_HAL_Driver/Inc/stm32n6xx_ll_bus.h **** {
3381:STM32Cube_FW_N6/Drivers/STM32N6xx_HAL_Driver/Inc/stm32n6xx_ll_bus.h ****   WRITE_REG(RCC->APB4RSTCR1, Periphs);
3382:STM32Cube_FW_N6/Drivers/STM32N6xx_HAL_Driver/Inc/stm32n6xx_ll_bus.h **** }
3383:STM32Cube_FW_N6/Drivers/STM32N6xx_HAL_Driver/Inc/stm32n6xx_ll_bus.h **** 
3384:STM32Cube_FW_N6/Drivers/STM32N6xx_HAL_Driver/Inc/stm32n6xx_ll_bus.h **** /**
3385:STM32Cube_FW_N6/Drivers/STM32N6xx_HAL_Driver/Inc/stm32n6xx_ll_bus.h ****   * @brief  Enable APB4 peripherals clock during Low Power mode.
3386:STM32Cube_FW_N6/Drivers/STM32N6xx_HAL_Driver/Inc/stm32n6xx_ll_bus.h ****   * @rmtoll APB4LPENSR1  HDPLPENS      LL_APB4_GRP1_EnableClockLowPower\n
3387:STM32Cube_FW_N6/Drivers/STM32N6xx_HAL_Driver/Inc/stm32n6xx_ll_bus.h ****   *         APB4LPENSR1  LPUART1LPENS  LL_APB4_GRP1_EnableClockLowPower\n
ARM GAS  C:\Users\DJESSOU\AppData\Local\Temp\cc3dm0Vf.s 			page 192


3388:STM32Cube_FW_N6/Drivers/STM32N6xx_HAL_Driver/Inc/stm32n6xx_ll_bus.h ****   *         APB4LPENSR1  SPI6LPENS     LL_APB4_GRP1_EnableClockLowPower\n
3389:STM32Cube_FW_N6/Drivers/STM32N6xx_HAL_Driver/Inc/stm32n6xx_ll_bus.h ****   *         APB4LPENSR1  I2C4LPENS     LL_APB4_GRP1_EnableClockLowPower\n
3390:STM32Cube_FW_N6/Drivers/STM32N6xx_HAL_Driver/Inc/stm32n6xx_ll_bus.h ****   *         APB4LPENSR1  LPTIM2LPENS   LL_APB4_GRP1_EnableClockLowPower\n
3391:STM32Cube_FW_N6/Drivers/STM32N6xx_HAL_Driver/Inc/stm32n6xx_ll_bus.h ****   *         APB4LPENSR1  LPTIM3LPENS   LL_APB4_GRP1_EnableClockLowPower\n
3392:STM32Cube_FW_N6/Drivers/STM32N6xx_HAL_Driver/Inc/stm32n6xx_ll_bus.h ****   *         APB4LPENSR1  LPTIM4LPENS   LL_APB4_GRP1_EnableClockLowPower\n
3393:STM32Cube_FW_N6/Drivers/STM32N6xx_HAL_Driver/Inc/stm32n6xx_ll_bus.h ****   *         APB4LPENSR1  LPTIM5LPENS   LL_APB4_GRP1_EnableClockLowPower\n
3394:STM32Cube_FW_N6/Drivers/STM32N6xx_HAL_Driver/Inc/stm32n6xx_ll_bus.h ****   *         APB4LPENSR1  VREFBUFLPENS  LL_APB4_GRP1_EnableClockLowPower\n
3395:STM32Cube_FW_N6/Drivers/STM32N6xx_HAL_Driver/Inc/stm32n6xx_ll_bus.h ****   *         APB4LPENSR1  RTCLPENS      LL_APB4_GRP1_EnableClockLowPower\n
3396:STM32Cube_FW_N6/Drivers/STM32N6xx_HAL_Driver/Inc/stm32n6xx_ll_bus.h ****   *         APB4LPENSR1  RTCAPBLPENS   LL_APB4_GRP1_EnableClockLowPower
3397:STM32Cube_FW_N6/Drivers/STM32N6xx_HAL_Driver/Inc/stm32n6xx_ll_bus.h ****   * @param  Periphs This parameter can be a combination of the following values:
3398:STM32Cube_FW_N6/Drivers/STM32N6xx_HAL_Driver/Inc/stm32n6xx_ll_bus.h ****   *         @arg @ref LL_APB4_GRP1_PERIPH_HDP
3399:STM32Cube_FW_N6/Drivers/STM32N6xx_HAL_Driver/Inc/stm32n6xx_ll_bus.h ****   *         @arg @ref LL_APB4_GRP1_PERIPH_I2C4
3400:STM32Cube_FW_N6/Drivers/STM32N6xx_HAL_Driver/Inc/stm32n6xx_ll_bus.h ****   *         @arg @ref LL_APB4_GRP1_PERIPH_LPTIM2
3401:STM32Cube_FW_N6/Drivers/STM32N6xx_HAL_Driver/Inc/stm32n6xx_ll_bus.h ****   *         @arg @ref LL_APB4_GRP1_PERIPH_LPTIM3
3402:STM32Cube_FW_N6/Drivers/STM32N6xx_HAL_Driver/Inc/stm32n6xx_ll_bus.h ****   *         @arg @ref LL_APB4_GRP1_PERIPH_LPTIM4
3403:STM32Cube_FW_N6/Drivers/STM32N6xx_HAL_Driver/Inc/stm32n6xx_ll_bus.h ****   *         @arg @ref LL_APB4_GRP1_PERIPH_LPTIM5
3404:STM32Cube_FW_N6/Drivers/STM32N6xx_HAL_Driver/Inc/stm32n6xx_ll_bus.h ****   *         @arg @ref LL_APB4_GRP1_PERIPH_LPUART1
3405:STM32Cube_FW_N6/Drivers/STM32N6xx_HAL_Driver/Inc/stm32n6xx_ll_bus.h ****   *         @arg @ref LL_APB4_GRP1_PERIPH_RTC
3406:STM32Cube_FW_N6/Drivers/STM32N6xx_HAL_Driver/Inc/stm32n6xx_ll_bus.h ****   *         @arg @ref LL_APB4_GRP1_PERIPH_RTCAPB
3407:STM32Cube_FW_N6/Drivers/STM32N6xx_HAL_Driver/Inc/stm32n6xx_ll_bus.h ****   *         @arg @ref LL_APB4_GRP1_PERIPH_SPI6
3408:STM32Cube_FW_N6/Drivers/STM32N6xx_HAL_Driver/Inc/stm32n6xx_ll_bus.h ****   *         @arg @ref LL_APB4_GRP1_PERIPH_VREFBUF
3409:STM32Cube_FW_N6/Drivers/STM32N6xx_HAL_Driver/Inc/stm32n6xx_ll_bus.h ****   * @retval None
3410:STM32Cube_FW_N6/Drivers/STM32N6xx_HAL_Driver/Inc/stm32n6xx_ll_bus.h ****   */
3411:STM32Cube_FW_N6/Drivers/STM32N6xx_HAL_Driver/Inc/stm32n6xx_ll_bus.h **** __STATIC_INLINE void LL_APB4_GRP1_EnableClockLowPower(uint32_t Periphs)
3412:STM32Cube_FW_N6/Drivers/STM32N6xx_HAL_Driver/Inc/stm32n6xx_ll_bus.h **** {
3413:STM32Cube_FW_N6/Drivers/STM32N6xx_HAL_Driver/Inc/stm32n6xx_ll_bus.h ****   __IO uint32_t tmpreg;
3414:STM32Cube_FW_N6/Drivers/STM32N6xx_HAL_Driver/Inc/stm32n6xx_ll_bus.h ****   WRITE_REG(RCC->APB4LPENSR1, Periphs);
3415:STM32Cube_FW_N6/Drivers/STM32N6xx_HAL_Driver/Inc/stm32n6xx_ll_bus.h ****   /* Delay after an RCC peripheral clock enabling */
3416:STM32Cube_FW_N6/Drivers/STM32N6xx_HAL_Driver/Inc/stm32n6xx_ll_bus.h ****   tmpreg = READ_REG(RCC->APB4LPENR1);
3417:STM32Cube_FW_N6/Drivers/STM32N6xx_HAL_Driver/Inc/stm32n6xx_ll_bus.h ****   (void)tmpreg;
3418:STM32Cube_FW_N6/Drivers/STM32N6xx_HAL_Driver/Inc/stm32n6xx_ll_bus.h **** }
3419:STM32Cube_FW_N6/Drivers/STM32N6xx_HAL_Driver/Inc/stm32n6xx_ll_bus.h **** 
3420:STM32Cube_FW_N6/Drivers/STM32N6xx_HAL_Driver/Inc/stm32n6xx_ll_bus.h **** /**
3421:STM32Cube_FW_N6/Drivers/STM32N6xx_HAL_Driver/Inc/stm32n6xx_ll_bus.h ****   * @brief  Check if APB4 peripheral clock during Low Power mode is enabled or not .
3422:STM32Cube_FW_N6/Drivers/STM32N6xx_HAL_Driver/Inc/stm32n6xx_ll_bus.h ****   * @rmtoll APB4LPENR1   HDPLPEN       LL_APB4_GRP1_IsEnabledClockLowPower\n
3423:STM32Cube_FW_N6/Drivers/STM32N6xx_HAL_Driver/Inc/stm32n6xx_ll_bus.h ****   *         APB4LPENR1   LPUART1LPEN   LL_APB4_GRP1_IsEnabledClockLowPower\n
3424:STM32Cube_FW_N6/Drivers/STM32N6xx_HAL_Driver/Inc/stm32n6xx_ll_bus.h ****   *         APB4LPENR1   SPI6LPEN      LL_APB4_GRP1_IsEnabledClockLowPower\n
3425:STM32Cube_FW_N6/Drivers/STM32N6xx_HAL_Driver/Inc/stm32n6xx_ll_bus.h ****   *         APB4LPENR1   I2C4LPEN      LL_APB4_GRP1_IsEnabledClockLowPower\n
3426:STM32Cube_FW_N6/Drivers/STM32N6xx_HAL_Driver/Inc/stm32n6xx_ll_bus.h ****   *         APB4LPENR1   LPTIM2LPEN    LL_APB4_GRP1_IsEnabledClockLowPower\n
3427:STM32Cube_FW_N6/Drivers/STM32N6xx_HAL_Driver/Inc/stm32n6xx_ll_bus.h ****   *         APB4LPENR1   LPTIM3LPEN    LL_APB4_GRP1_IsEnabledClockLowPower\n
3428:STM32Cube_FW_N6/Drivers/STM32N6xx_HAL_Driver/Inc/stm32n6xx_ll_bus.h ****   *         APB4LPENR1   LPTIM4LPEN    LL_APB4_GRP1_IsEnabledClockLowPower\n
3429:STM32Cube_FW_N6/Drivers/STM32N6xx_HAL_Driver/Inc/stm32n6xx_ll_bus.h ****   *         APB4LPENR1   LPTIM5LPEN    LL_APB4_GRP1_IsEnabledClockLowPower\n
3430:STM32Cube_FW_N6/Drivers/STM32N6xx_HAL_Driver/Inc/stm32n6xx_ll_bus.h ****   *         APB4LPENR1   VREFBUFLPEN   LL_APB4_GRP1_IsEnabledClockLowPower\n
3431:STM32Cube_FW_N6/Drivers/STM32N6xx_HAL_Driver/Inc/stm32n6xx_ll_bus.h ****   *         APB4LPENR1   RTCLPEN       LL_APB4_GRP1_IsEnabledClockLowPower\n
3432:STM32Cube_FW_N6/Drivers/STM32N6xx_HAL_Driver/Inc/stm32n6xx_ll_bus.h ****   *         APB4LPENR1   RTCAPBLPEN    LL_APB4_GRP1_IsEnabledClockLowPower
3433:STM32Cube_FW_N6/Drivers/STM32N6xx_HAL_Driver/Inc/stm32n6xx_ll_bus.h ****   * @param  Periphs This parameter can be a combination of the following values:
3434:STM32Cube_FW_N6/Drivers/STM32N6xx_HAL_Driver/Inc/stm32n6xx_ll_bus.h ****   *         @arg @ref LL_APB4_GRP1_PERIPH_HDP
3435:STM32Cube_FW_N6/Drivers/STM32N6xx_HAL_Driver/Inc/stm32n6xx_ll_bus.h ****   *         @arg @ref LL_APB4_GRP1_PERIPH_I2C4
3436:STM32Cube_FW_N6/Drivers/STM32N6xx_HAL_Driver/Inc/stm32n6xx_ll_bus.h ****   *         @arg @ref LL_APB4_GRP1_PERIPH_LPTIM2
3437:STM32Cube_FW_N6/Drivers/STM32N6xx_HAL_Driver/Inc/stm32n6xx_ll_bus.h ****   *         @arg @ref LL_APB4_GRP1_PERIPH_LPTIM3
3438:STM32Cube_FW_N6/Drivers/STM32N6xx_HAL_Driver/Inc/stm32n6xx_ll_bus.h ****   *         @arg @ref LL_APB4_GRP1_PERIPH_LPTIM4
3439:STM32Cube_FW_N6/Drivers/STM32N6xx_HAL_Driver/Inc/stm32n6xx_ll_bus.h ****   *         @arg @ref LL_APB4_GRP1_PERIPH_LPTIM5
3440:STM32Cube_FW_N6/Drivers/STM32N6xx_HAL_Driver/Inc/stm32n6xx_ll_bus.h ****   *         @arg @ref LL_APB4_GRP1_PERIPH_LPUART1
3441:STM32Cube_FW_N6/Drivers/STM32N6xx_HAL_Driver/Inc/stm32n6xx_ll_bus.h ****   *         @arg @ref LL_APB4_GRP1_PERIPH_RTC
3442:STM32Cube_FW_N6/Drivers/STM32N6xx_HAL_Driver/Inc/stm32n6xx_ll_bus.h ****   *         @arg @ref LL_APB4_GRP1_PERIPH_RTCAPB
3443:STM32Cube_FW_N6/Drivers/STM32N6xx_HAL_Driver/Inc/stm32n6xx_ll_bus.h ****   *         @arg @ref LL_APB4_GRP1_PERIPH_SPI6
3444:STM32Cube_FW_N6/Drivers/STM32N6xx_HAL_Driver/Inc/stm32n6xx_ll_bus.h ****   *         @arg @ref LL_APB4_GRP1_PERIPH_VREFBUF
ARM GAS  C:\Users\DJESSOU\AppData\Local\Temp\cc3dm0Vf.s 			page 193


3445:STM32Cube_FW_N6/Drivers/STM32N6xx_HAL_Driver/Inc/stm32n6xx_ll_bus.h ****   * @retval uint32_t
3446:STM32Cube_FW_N6/Drivers/STM32N6xx_HAL_Driver/Inc/stm32n6xx_ll_bus.h ****   */
3447:STM32Cube_FW_N6/Drivers/STM32N6xx_HAL_Driver/Inc/stm32n6xx_ll_bus.h **** __STATIC_INLINE uint32_t LL_APB4_GRP1_IsEnabledClockLowPower(uint32_t Periphs)
3448:STM32Cube_FW_N6/Drivers/STM32N6xx_HAL_Driver/Inc/stm32n6xx_ll_bus.h **** {
3449:STM32Cube_FW_N6/Drivers/STM32N6xx_HAL_Driver/Inc/stm32n6xx_ll_bus.h ****   return ((READ_BIT(RCC->APB4LPENR1, Periphs) == Periphs) ? 1UL : 0UL);
3450:STM32Cube_FW_N6/Drivers/STM32N6xx_HAL_Driver/Inc/stm32n6xx_ll_bus.h **** }
3451:STM32Cube_FW_N6/Drivers/STM32N6xx_HAL_Driver/Inc/stm32n6xx_ll_bus.h **** 
3452:STM32Cube_FW_N6/Drivers/STM32N6xx_HAL_Driver/Inc/stm32n6xx_ll_bus.h **** /**
3453:STM32Cube_FW_N6/Drivers/STM32N6xx_HAL_Driver/Inc/stm32n6xx_ll_bus.h ****   * @brief  Disable APB4 peripherals clock during Low Power mode.
3454:STM32Cube_FW_N6/Drivers/STM32N6xx_HAL_Driver/Inc/stm32n6xx_ll_bus.h ****   * @rmtoll APB4LPENCR1  HDPLPENC      LL_APB4_GRP1_DisableClockLowPower\n
3455:STM32Cube_FW_N6/Drivers/STM32N6xx_HAL_Driver/Inc/stm32n6xx_ll_bus.h ****   *         APB4LPENCR1  LPUART1LPENC  LL_APB4_GRP1_DisableClockLowPower\n
3456:STM32Cube_FW_N6/Drivers/STM32N6xx_HAL_Driver/Inc/stm32n6xx_ll_bus.h ****   *         APB4LPENCR1  SPI6LPENC     LL_APB4_GRP1_DisableClockLowPower\n
3457:STM32Cube_FW_N6/Drivers/STM32N6xx_HAL_Driver/Inc/stm32n6xx_ll_bus.h ****   *         APB4LPENCR1  I2C4LPENC     LL_APB4_GRP1_DisableClockLowPower\n
3458:STM32Cube_FW_N6/Drivers/STM32N6xx_HAL_Driver/Inc/stm32n6xx_ll_bus.h ****   *         APB4LPENCR1  LPTIM2LPENC   LL_APB4_GRP1_DisableClockLowPower\n
3459:STM32Cube_FW_N6/Drivers/STM32N6xx_HAL_Driver/Inc/stm32n6xx_ll_bus.h ****   *         APB4LPENCR1  LPTIM3LPENC   LL_APB4_GRP1_DisableClockLowPower\n
3460:STM32Cube_FW_N6/Drivers/STM32N6xx_HAL_Driver/Inc/stm32n6xx_ll_bus.h ****   *         APB4LPENCR1  LPTIM4LPENC   LL_APB4_GRP1_DisableClockLowPower\n
3461:STM32Cube_FW_N6/Drivers/STM32N6xx_HAL_Driver/Inc/stm32n6xx_ll_bus.h ****   *         APB4LPENCR1  LPTIM5LPENC   LL_APB4_GRP1_DisableClockLowPower\n
3462:STM32Cube_FW_N6/Drivers/STM32N6xx_HAL_Driver/Inc/stm32n6xx_ll_bus.h ****   *         APB4LPENCR1  VREFBUFLPENC  LL_APB4_GRP1_DisableClockLowPower\n
3463:STM32Cube_FW_N6/Drivers/STM32N6xx_HAL_Driver/Inc/stm32n6xx_ll_bus.h ****   *         APB4LPENCR1  RTCLPENC      LL_APB4_GRP1_DisableClockLowPower\n
3464:STM32Cube_FW_N6/Drivers/STM32N6xx_HAL_Driver/Inc/stm32n6xx_ll_bus.h ****   *         APB4LPENCR1  RTCAPBLPENC   LL_APB4_GRP1_DisableClockLowPower
3465:STM32Cube_FW_N6/Drivers/STM32N6xx_HAL_Driver/Inc/stm32n6xx_ll_bus.h ****   * @param  Periphs This parameter can be a combination of the following values:
3466:STM32Cube_FW_N6/Drivers/STM32N6xx_HAL_Driver/Inc/stm32n6xx_ll_bus.h ****   *         @arg @ref LL_APB4_GRP1_PERIPH_HDP
3467:STM32Cube_FW_N6/Drivers/STM32N6xx_HAL_Driver/Inc/stm32n6xx_ll_bus.h ****   *         @arg @ref LL_APB4_GRP1_PERIPH_I2C4
3468:STM32Cube_FW_N6/Drivers/STM32N6xx_HAL_Driver/Inc/stm32n6xx_ll_bus.h ****   *         @arg @ref LL_APB4_GRP1_PERIPH_LPTIM2
3469:STM32Cube_FW_N6/Drivers/STM32N6xx_HAL_Driver/Inc/stm32n6xx_ll_bus.h ****   *         @arg @ref LL_APB4_GRP1_PERIPH_LPTIM3
3470:STM32Cube_FW_N6/Drivers/STM32N6xx_HAL_Driver/Inc/stm32n6xx_ll_bus.h ****   *         @arg @ref LL_APB4_GRP1_PERIPH_LPTIM4
3471:STM32Cube_FW_N6/Drivers/STM32N6xx_HAL_Driver/Inc/stm32n6xx_ll_bus.h ****   *         @arg @ref LL_APB4_GRP1_PERIPH_LPTIM5
3472:STM32Cube_FW_N6/Drivers/STM32N6xx_HAL_Driver/Inc/stm32n6xx_ll_bus.h ****   *         @arg @ref LL_APB4_GRP1_PERIPH_LPUART1
3473:STM32Cube_FW_N6/Drivers/STM32N6xx_HAL_Driver/Inc/stm32n6xx_ll_bus.h ****   *         @arg @ref LL_APB4_GRP1_PERIPH_RTC
3474:STM32Cube_FW_N6/Drivers/STM32N6xx_HAL_Driver/Inc/stm32n6xx_ll_bus.h ****   *         @arg @ref LL_APB4_GRP1_PERIPH_RTCAPB
3475:STM32Cube_FW_N6/Drivers/STM32N6xx_HAL_Driver/Inc/stm32n6xx_ll_bus.h ****   *         @arg @ref LL_APB4_GRP1_PERIPH_SPI6
3476:STM32Cube_FW_N6/Drivers/STM32N6xx_HAL_Driver/Inc/stm32n6xx_ll_bus.h ****   *         @arg @ref LL_APB4_GRP1_PERIPH_VREFBUF
3477:STM32Cube_FW_N6/Drivers/STM32N6xx_HAL_Driver/Inc/stm32n6xx_ll_bus.h ****   * @retval None
3478:STM32Cube_FW_N6/Drivers/STM32N6xx_HAL_Driver/Inc/stm32n6xx_ll_bus.h ****   */
3479:STM32Cube_FW_N6/Drivers/STM32N6xx_HAL_Driver/Inc/stm32n6xx_ll_bus.h **** __STATIC_INLINE void LL_APB4_GRP1_DisableClockLowPower(uint32_t Periphs)
3480:STM32Cube_FW_N6/Drivers/STM32N6xx_HAL_Driver/Inc/stm32n6xx_ll_bus.h **** {
3481:STM32Cube_FW_N6/Drivers/STM32N6xx_HAL_Driver/Inc/stm32n6xx_ll_bus.h ****   WRITE_REG(RCC->APB4LPENCR1, Periphs);
3482:STM32Cube_FW_N6/Drivers/STM32N6xx_HAL_Driver/Inc/stm32n6xx_ll_bus.h **** }
3483:STM32Cube_FW_N6/Drivers/STM32N6xx_HAL_Driver/Inc/stm32n6xx_ll_bus.h **** 
3484:STM32Cube_FW_N6/Drivers/STM32N6xx_HAL_Driver/Inc/stm32n6xx_ll_bus.h **** /**
3485:STM32Cube_FW_N6/Drivers/STM32N6xx_HAL_Driver/Inc/stm32n6xx_ll_bus.h ****   * @brief  Enable APB4 peripherals clock.
3486:STM32Cube_FW_N6/Drivers/STM32N6xx_HAL_Driver/Inc/stm32n6xx_ll_bus.h ****   * @rmtoll APB4ENSR2    SYSCFGENS     LL_APB4_GRP2_EnableClock\n
3487:STM32Cube_FW_N6/Drivers/STM32N6xx_HAL_Driver/Inc/stm32n6xx_ll_bus.h ****   *         APB4ENSR2    BSECENS       LL_APB4_GRP2_EnableClock\n
3488:STM32Cube_FW_N6/Drivers/STM32N6xx_HAL_Driver/Inc/stm32n6xx_ll_bus.h ****   *         APB4ENSR2    DTSENS        LL_APB4_GRP2_EnableClock
3489:STM32Cube_FW_N6/Drivers/STM32N6xx_HAL_Driver/Inc/stm32n6xx_ll_bus.h ****   * @param  Periphs This parameter can be a combination of the following values:
3490:STM32Cube_FW_N6/Drivers/STM32N6xx_HAL_Driver/Inc/stm32n6xx_ll_bus.h ****   *         @arg @ref LL_APB4_GRP2_PERIPH_BSEC
3491:STM32Cube_FW_N6/Drivers/STM32N6xx_HAL_Driver/Inc/stm32n6xx_ll_bus.h ****   *         @arg @ref LL_APB4_GRP2_PERIPH_SYSCFG
3492:STM32Cube_FW_N6/Drivers/STM32N6xx_HAL_Driver/Inc/stm32n6xx_ll_bus.h ****   *         @arg @ref LL_APB4_GRP2_PERIPH_DTS
3493:STM32Cube_FW_N6/Drivers/STM32N6xx_HAL_Driver/Inc/stm32n6xx_ll_bus.h ****   * @retval None
3494:STM32Cube_FW_N6/Drivers/STM32N6xx_HAL_Driver/Inc/stm32n6xx_ll_bus.h ****   */
3495:STM32Cube_FW_N6/Drivers/STM32N6xx_HAL_Driver/Inc/stm32n6xx_ll_bus.h **** __STATIC_INLINE void LL_APB4_GRP2_EnableClock(uint32_t Periphs)
3496:STM32Cube_FW_N6/Drivers/STM32N6xx_HAL_Driver/Inc/stm32n6xx_ll_bus.h **** {
3497:STM32Cube_FW_N6/Drivers/STM32N6xx_HAL_Driver/Inc/stm32n6xx_ll_bus.h ****   __IO uint32_t tmpreg;
3498:STM32Cube_FW_N6/Drivers/STM32N6xx_HAL_Driver/Inc/stm32n6xx_ll_bus.h ****   WRITE_REG(RCC->APB4ENSR2, Periphs);
3499:STM32Cube_FW_N6/Drivers/STM32N6xx_HAL_Driver/Inc/stm32n6xx_ll_bus.h ****   /* Delay after an RCC peripheral clock enabling */
3500:STM32Cube_FW_N6/Drivers/STM32N6xx_HAL_Driver/Inc/stm32n6xx_ll_bus.h ****   tmpreg = READ_REG(RCC->APB4ENR2);
3501:STM32Cube_FW_N6/Drivers/STM32N6xx_HAL_Driver/Inc/stm32n6xx_ll_bus.h ****   (void)tmpreg;
ARM GAS  C:\Users\DJESSOU\AppData\Local\Temp\cc3dm0Vf.s 			page 194


3502:STM32Cube_FW_N6/Drivers/STM32N6xx_HAL_Driver/Inc/stm32n6xx_ll_bus.h **** }
3503:STM32Cube_FW_N6/Drivers/STM32N6xx_HAL_Driver/Inc/stm32n6xx_ll_bus.h **** 
3504:STM32Cube_FW_N6/Drivers/STM32N6xx_HAL_Driver/Inc/stm32n6xx_ll_bus.h **** /**
3505:STM32Cube_FW_N6/Drivers/STM32N6xx_HAL_Driver/Inc/stm32n6xx_ll_bus.h ****   * @brief  Check if APB4 peripheral clock is enabled or not
3506:STM32Cube_FW_N6/Drivers/STM32N6xx_HAL_Driver/Inc/stm32n6xx_ll_bus.h ****   * @rmtoll APB4ENR2     SYSCFGEN      LL_APB4_GRP2_IsEnabledClock\n
3507:STM32Cube_FW_N6/Drivers/STM32N6xx_HAL_Driver/Inc/stm32n6xx_ll_bus.h ****   *         APB4ENR2     BSECEN        LL_APB4_GRP2_IsEnabledClock\n
3508:STM32Cube_FW_N6/Drivers/STM32N6xx_HAL_Driver/Inc/stm32n6xx_ll_bus.h ****   *         APB4ENR2     DTSEN         LL_APB4_GRP2_IsEnabledClock
3509:STM32Cube_FW_N6/Drivers/STM32N6xx_HAL_Driver/Inc/stm32n6xx_ll_bus.h ****   * @param  Periphs This parameter can be a combination of the following values:
3510:STM32Cube_FW_N6/Drivers/STM32N6xx_HAL_Driver/Inc/stm32n6xx_ll_bus.h ****   *         @arg @ref LL_APB4_GRP2_PERIPH_BSEC
3511:STM32Cube_FW_N6/Drivers/STM32N6xx_HAL_Driver/Inc/stm32n6xx_ll_bus.h ****   *         @arg @ref LL_APB4_GRP2_PERIPH_SYSCFG
3512:STM32Cube_FW_N6/Drivers/STM32N6xx_HAL_Driver/Inc/stm32n6xx_ll_bus.h ****   *         @arg @ref LL_APB4_GRP2_PERIPH_DTS
3513:STM32Cube_FW_N6/Drivers/STM32N6xx_HAL_Driver/Inc/stm32n6xx_ll_bus.h ****   * @retval uint32_t
3514:STM32Cube_FW_N6/Drivers/STM32N6xx_HAL_Driver/Inc/stm32n6xx_ll_bus.h ****   */
3515:STM32Cube_FW_N6/Drivers/STM32N6xx_HAL_Driver/Inc/stm32n6xx_ll_bus.h **** __STATIC_INLINE uint32_t LL_APB4_GRP2_IsEnabledClock(uint32_t Periphs)
3516:STM32Cube_FW_N6/Drivers/STM32N6xx_HAL_Driver/Inc/stm32n6xx_ll_bus.h **** {
3517:STM32Cube_FW_N6/Drivers/STM32N6xx_HAL_Driver/Inc/stm32n6xx_ll_bus.h ****   return ((READ_BIT(RCC->APB4ENR2, Periphs) == Periphs) ? 1UL : 0UL);
3518:STM32Cube_FW_N6/Drivers/STM32N6xx_HAL_Driver/Inc/stm32n6xx_ll_bus.h **** }
3519:STM32Cube_FW_N6/Drivers/STM32N6xx_HAL_Driver/Inc/stm32n6xx_ll_bus.h **** 
3520:STM32Cube_FW_N6/Drivers/STM32N6xx_HAL_Driver/Inc/stm32n6xx_ll_bus.h **** /**
3521:STM32Cube_FW_N6/Drivers/STM32N6xx_HAL_Driver/Inc/stm32n6xx_ll_bus.h ****   * @brief  Disable APB4 peripherals clock.
3522:STM32Cube_FW_N6/Drivers/STM32N6xx_HAL_Driver/Inc/stm32n6xx_ll_bus.h ****   * @rmtoll APB4ENCR2    SYSCFGENC     LL_APB4_GRP2_DisableClock\n
3523:STM32Cube_FW_N6/Drivers/STM32N6xx_HAL_Driver/Inc/stm32n6xx_ll_bus.h ****   *         APB4ENCR2    BSECENC       LL_APB4_GRP2_DisableClock\n
3524:STM32Cube_FW_N6/Drivers/STM32N6xx_HAL_Driver/Inc/stm32n6xx_ll_bus.h ****   *         APB4ENCR2    DTSENC        LL_APB4_GRP2_DisableClock
3525:STM32Cube_FW_N6/Drivers/STM32N6xx_HAL_Driver/Inc/stm32n6xx_ll_bus.h ****   * @param  Periphs This parameter can be a combination of the following values:
3526:STM32Cube_FW_N6/Drivers/STM32N6xx_HAL_Driver/Inc/stm32n6xx_ll_bus.h ****   *         @arg @ref LL_APB4_GRP2_PERIPH_BSEC
3527:STM32Cube_FW_N6/Drivers/STM32N6xx_HAL_Driver/Inc/stm32n6xx_ll_bus.h ****   *         @arg @ref LL_APB4_GRP2_PERIPH_SYSCFG
3528:STM32Cube_FW_N6/Drivers/STM32N6xx_HAL_Driver/Inc/stm32n6xx_ll_bus.h ****   *         @arg @ref LL_APB4_GRP2_PERIPH_DTS
3529:STM32Cube_FW_N6/Drivers/STM32N6xx_HAL_Driver/Inc/stm32n6xx_ll_bus.h ****   * @retval None
3530:STM32Cube_FW_N6/Drivers/STM32N6xx_HAL_Driver/Inc/stm32n6xx_ll_bus.h ****   */
3531:STM32Cube_FW_N6/Drivers/STM32N6xx_HAL_Driver/Inc/stm32n6xx_ll_bus.h **** __STATIC_INLINE void LL_APB4_GRP2_DisableClock(uint32_t Periphs)
3532:STM32Cube_FW_N6/Drivers/STM32N6xx_HAL_Driver/Inc/stm32n6xx_ll_bus.h **** {
3533:STM32Cube_FW_N6/Drivers/STM32N6xx_HAL_Driver/Inc/stm32n6xx_ll_bus.h ****   WRITE_REG(RCC->APB4ENCR2, Periphs);
3534:STM32Cube_FW_N6/Drivers/STM32N6xx_HAL_Driver/Inc/stm32n6xx_ll_bus.h **** }
3535:STM32Cube_FW_N6/Drivers/STM32N6xx_HAL_Driver/Inc/stm32n6xx_ll_bus.h **** 
3536:STM32Cube_FW_N6/Drivers/STM32N6xx_HAL_Driver/Inc/stm32n6xx_ll_bus.h **** /**
3537:STM32Cube_FW_N6/Drivers/STM32N6xx_HAL_Driver/Inc/stm32n6xx_ll_bus.h ****   * @brief  Force APB4 peripherals reset.
3538:STM32Cube_FW_N6/Drivers/STM32N6xx_HAL_Driver/Inc/stm32n6xx_ll_bus.h ****   * @rmtoll APB4RSTR2   SYSCFGRSTS    LL_APB4_GRP2_ForceReset\n
3539:STM32Cube_FW_N6/Drivers/STM32N6xx_HAL_Driver/Inc/stm32n6xx_ll_bus.h ****   *         APB4RSTR2   DTSRSTS       LL_APB4_GRP2_ForceReset
3540:STM32Cube_FW_N6/Drivers/STM32N6xx_HAL_Driver/Inc/stm32n6xx_ll_bus.h ****   * @param  Periphs This parameter can be a combination of the following values:
3541:STM32Cube_FW_N6/Drivers/STM32N6xx_HAL_Driver/Inc/stm32n6xx_ll_bus.h ****   *         @arg @ref LL_APB4_GRP2_PERIPH_SYSCFG
3542:STM32Cube_FW_N6/Drivers/STM32N6xx_HAL_Driver/Inc/stm32n6xx_ll_bus.h ****   *         @arg @ref LL_APB4_GRP2_PERIPH_DTS
3543:STM32Cube_FW_N6/Drivers/STM32N6xx_HAL_Driver/Inc/stm32n6xx_ll_bus.h ****   * @retval None
3544:STM32Cube_FW_N6/Drivers/STM32N6xx_HAL_Driver/Inc/stm32n6xx_ll_bus.h ****   */
3545:STM32Cube_FW_N6/Drivers/STM32N6xx_HAL_Driver/Inc/stm32n6xx_ll_bus.h **** __STATIC_INLINE void LL_APB4_GRP2_ForceReset(uint32_t Periphs)
3546:STM32Cube_FW_N6/Drivers/STM32N6xx_HAL_Driver/Inc/stm32n6xx_ll_bus.h **** {
3547:STM32Cube_FW_N6/Drivers/STM32N6xx_HAL_Driver/Inc/stm32n6xx_ll_bus.h ****   WRITE_REG(RCC->APB4RSTSR2, Periphs);
3548:STM32Cube_FW_N6/Drivers/STM32N6xx_HAL_Driver/Inc/stm32n6xx_ll_bus.h **** }
3549:STM32Cube_FW_N6/Drivers/STM32N6xx_HAL_Driver/Inc/stm32n6xx_ll_bus.h **** 
3550:STM32Cube_FW_N6/Drivers/STM32N6xx_HAL_Driver/Inc/stm32n6xx_ll_bus.h **** /**
3551:STM32Cube_FW_N6/Drivers/STM32N6xx_HAL_Driver/Inc/stm32n6xx_ll_bus.h ****   * @brief  Release APB4 peripherals reset.
3552:STM32Cube_FW_N6/Drivers/STM32N6xx_HAL_Driver/Inc/stm32n6xx_ll_bus.h ****   * @rmtoll APB4RSTCR2   SYSCFGRSTC    LL_APB4_GRP2_ReleaseReset\n
3553:STM32Cube_FW_N6/Drivers/STM32N6xx_HAL_Driver/Inc/stm32n6xx_ll_bus.h ****   *         APB4RSTCR2   DTSRSTC       LL_APB4_GRP2_ReleaseReset
3554:STM32Cube_FW_N6/Drivers/STM32N6xx_HAL_Driver/Inc/stm32n6xx_ll_bus.h ****   * @param  Periphs This parameter can be a combination of the following values:
3555:STM32Cube_FW_N6/Drivers/STM32N6xx_HAL_Driver/Inc/stm32n6xx_ll_bus.h ****   *         @arg @ref LL_APB4_GRP2_PERIPH_SYSCFG
3556:STM32Cube_FW_N6/Drivers/STM32N6xx_HAL_Driver/Inc/stm32n6xx_ll_bus.h ****   *         @arg @ref LL_APB4_GRP2_PERIPH_DTS
3557:STM32Cube_FW_N6/Drivers/STM32N6xx_HAL_Driver/Inc/stm32n6xx_ll_bus.h ****   * @retval None
3558:STM32Cube_FW_N6/Drivers/STM32N6xx_HAL_Driver/Inc/stm32n6xx_ll_bus.h ****   */
ARM GAS  C:\Users\DJESSOU\AppData\Local\Temp\cc3dm0Vf.s 			page 195


3559:STM32Cube_FW_N6/Drivers/STM32N6xx_HAL_Driver/Inc/stm32n6xx_ll_bus.h **** __STATIC_INLINE void LL_APB4_GRP2_ReleaseReset(uint32_t Periphs)
3560:STM32Cube_FW_N6/Drivers/STM32N6xx_HAL_Driver/Inc/stm32n6xx_ll_bus.h **** {
3561:STM32Cube_FW_N6/Drivers/STM32N6xx_HAL_Driver/Inc/stm32n6xx_ll_bus.h ****   WRITE_REG(RCC->APB4RSTCR2, Periphs);
3562:STM32Cube_FW_N6/Drivers/STM32N6xx_HAL_Driver/Inc/stm32n6xx_ll_bus.h **** }
3563:STM32Cube_FW_N6/Drivers/STM32N6xx_HAL_Driver/Inc/stm32n6xx_ll_bus.h **** 
3564:STM32Cube_FW_N6/Drivers/STM32N6xx_HAL_Driver/Inc/stm32n6xx_ll_bus.h **** /**
3565:STM32Cube_FW_N6/Drivers/STM32N6xx_HAL_Driver/Inc/stm32n6xx_ll_bus.h ****   * @brief  Enable APB4 peripherals clock during Low Power mode.
3566:STM32Cube_FW_N6/Drivers/STM32N6xx_HAL_Driver/Inc/stm32n6xx_ll_bus.h ****   * @rmtoll APB4LPENSR2  SYSCFGLPENS   LL_APB4_GRP2_EnableClockLowPower\n
3567:STM32Cube_FW_N6/Drivers/STM32N6xx_HAL_Driver/Inc/stm32n6xx_ll_bus.h ****   *         APB4LPENSR2  BSECLPENS     LL_APB4_GRP2_EnableClockLowPower\n
3568:STM32Cube_FW_N6/Drivers/STM32N6xx_HAL_Driver/Inc/stm32n6xx_ll_bus.h ****   *         APB4LPENSR2  DTSLPENS      LL_APB4_GRP2_EnableClockLowPower
3569:STM32Cube_FW_N6/Drivers/STM32N6xx_HAL_Driver/Inc/stm32n6xx_ll_bus.h ****   * @param  Periphs This parameter can be a combination of the following values:
3570:STM32Cube_FW_N6/Drivers/STM32N6xx_HAL_Driver/Inc/stm32n6xx_ll_bus.h ****   *         @arg @ref LL_APB4_GRP2_PERIPH_BSEC
3571:STM32Cube_FW_N6/Drivers/STM32N6xx_HAL_Driver/Inc/stm32n6xx_ll_bus.h ****   *         @arg @ref LL_APB4_GRP2_PERIPH_SYSCFG
3572:STM32Cube_FW_N6/Drivers/STM32N6xx_HAL_Driver/Inc/stm32n6xx_ll_bus.h ****   *         @arg @ref LL_APB4_GRP2_PERIPH_DTS
3573:STM32Cube_FW_N6/Drivers/STM32N6xx_HAL_Driver/Inc/stm32n6xx_ll_bus.h ****   * @retval None
3574:STM32Cube_FW_N6/Drivers/STM32N6xx_HAL_Driver/Inc/stm32n6xx_ll_bus.h ****   */
3575:STM32Cube_FW_N6/Drivers/STM32N6xx_HAL_Driver/Inc/stm32n6xx_ll_bus.h **** __STATIC_INLINE void LL_APB4_GRP2_EnableClockLowPower(uint32_t Periphs)
3576:STM32Cube_FW_N6/Drivers/STM32N6xx_HAL_Driver/Inc/stm32n6xx_ll_bus.h **** {
3577:STM32Cube_FW_N6/Drivers/STM32N6xx_HAL_Driver/Inc/stm32n6xx_ll_bus.h ****   __IO uint32_t tmpreg;
3578:STM32Cube_FW_N6/Drivers/STM32N6xx_HAL_Driver/Inc/stm32n6xx_ll_bus.h ****   WRITE_REG(RCC->APB4LPENSR2, Periphs);
3579:STM32Cube_FW_N6/Drivers/STM32N6xx_HAL_Driver/Inc/stm32n6xx_ll_bus.h ****   /* Delay after an RCC peripheral clock enabling */
3580:STM32Cube_FW_N6/Drivers/STM32N6xx_HAL_Driver/Inc/stm32n6xx_ll_bus.h ****   tmpreg = READ_REG(RCC->APB4LPENR2);
3581:STM32Cube_FW_N6/Drivers/STM32N6xx_HAL_Driver/Inc/stm32n6xx_ll_bus.h ****   (void)tmpreg;
3582:STM32Cube_FW_N6/Drivers/STM32N6xx_HAL_Driver/Inc/stm32n6xx_ll_bus.h **** }
3583:STM32Cube_FW_N6/Drivers/STM32N6xx_HAL_Driver/Inc/stm32n6xx_ll_bus.h **** 
3584:STM32Cube_FW_N6/Drivers/STM32N6xx_HAL_Driver/Inc/stm32n6xx_ll_bus.h **** /**
3585:STM32Cube_FW_N6/Drivers/STM32N6xx_HAL_Driver/Inc/stm32n6xx_ll_bus.h ****   * @brief  Check if APB4 peripheral clock during Low Power mode is enabled or not .
3586:STM32Cube_FW_N6/Drivers/STM32N6xx_HAL_Driver/Inc/stm32n6xx_ll_bus.h ****   * @rmtoll APB4LPENR2   SYSCFGLPEN    LL_APB4_GRP2_IsEnabledClockLowPower\n
3587:STM32Cube_FW_N6/Drivers/STM32N6xx_HAL_Driver/Inc/stm32n6xx_ll_bus.h ****   *         APB4LPENR2   BSECLPEN      LL_APB4_GRP2_IsEnabledClockLowPower\n
3588:STM32Cube_FW_N6/Drivers/STM32N6xx_HAL_Driver/Inc/stm32n6xx_ll_bus.h ****   *         APB4LPENR2   DTSLPEN       LL_APB4_GRP2_IsEnabledClockLowPower
3589:STM32Cube_FW_N6/Drivers/STM32N6xx_HAL_Driver/Inc/stm32n6xx_ll_bus.h ****   * @param  Periphs This parameter can be a combination of the following values:
3590:STM32Cube_FW_N6/Drivers/STM32N6xx_HAL_Driver/Inc/stm32n6xx_ll_bus.h ****   *         @arg @ref LL_APB4_GRP2_PERIPH_BSEC
3591:STM32Cube_FW_N6/Drivers/STM32N6xx_HAL_Driver/Inc/stm32n6xx_ll_bus.h ****   *         @arg @ref LL_APB4_GRP2_PERIPH_SYSCFG
3592:STM32Cube_FW_N6/Drivers/STM32N6xx_HAL_Driver/Inc/stm32n6xx_ll_bus.h ****   *         @arg @ref LL_APB4_GRP2_PERIPH_DTS
3593:STM32Cube_FW_N6/Drivers/STM32N6xx_HAL_Driver/Inc/stm32n6xx_ll_bus.h ****   * @retval uint32_t
3594:STM32Cube_FW_N6/Drivers/STM32N6xx_HAL_Driver/Inc/stm32n6xx_ll_bus.h ****   */
3595:STM32Cube_FW_N6/Drivers/STM32N6xx_HAL_Driver/Inc/stm32n6xx_ll_bus.h **** __STATIC_INLINE uint32_t LL_APB4_GRP2_IsEnabledClockLowPower(uint32_t Periphs)
3596:STM32Cube_FW_N6/Drivers/STM32N6xx_HAL_Driver/Inc/stm32n6xx_ll_bus.h **** {
3597:STM32Cube_FW_N6/Drivers/STM32N6xx_HAL_Driver/Inc/stm32n6xx_ll_bus.h ****   return ((READ_BIT(RCC->APB4LPENR2, Periphs) == Periphs) ? 1UL : 0UL);
3598:STM32Cube_FW_N6/Drivers/STM32N6xx_HAL_Driver/Inc/stm32n6xx_ll_bus.h **** }
3599:STM32Cube_FW_N6/Drivers/STM32N6xx_HAL_Driver/Inc/stm32n6xx_ll_bus.h **** 
3600:STM32Cube_FW_N6/Drivers/STM32N6xx_HAL_Driver/Inc/stm32n6xx_ll_bus.h **** /**
3601:STM32Cube_FW_N6/Drivers/STM32N6xx_HAL_Driver/Inc/stm32n6xx_ll_bus.h ****   * @brief  Disable APB4 peripherals clock during Low Power mode.
3602:STM32Cube_FW_N6/Drivers/STM32N6xx_HAL_Driver/Inc/stm32n6xx_ll_bus.h ****   * @rmtoll APB4LPENCR2  SYSCFGLPENC   LL_APB4_GRP2_DisableClockLowPower\n
3603:STM32Cube_FW_N6/Drivers/STM32N6xx_HAL_Driver/Inc/stm32n6xx_ll_bus.h ****   *         APB4LPENCR2  BSECLPENC     LL_APB4_GRP2_DisableClockLowPower\n
3604:STM32Cube_FW_N6/Drivers/STM32N6xx_HAL_Driver/Inc/stm32n6xx_ll_bus.h ****   *         APB4LPENCR2  DTSLPENC      LL_APB4_GRP2_DisableClockLowPower
3605:STM32Cube_FW_N6/Drivers/STM32N6xx_HAL_Driver/Inc/stm32n6xx_ll_bus.h ****   * @param  Periphs This parameter can be a combination of the following values:
3606:STM32Cube_FW_N6/Drivers/STM32N6xx_HAL_Driver/Inc/stm32n6xx_ll_bus.h ****   *         @arg @ref LL_APB4_GRP2_PERIPH_BSEC
3607:STM32Cube_FW_N6/Drivers/STM32N6xx_HAL_Driver/Inc/stm32n6xx_ll_bus.h ****   *         @arg @ref LL_APB4_GRP2_PERIPH_SYSCFG
3608:STM32Cube_FW_N6/Drivers/STM32N6xx_HAL_Driver/Inc/stm32n6xx_ll_bus.h ****   *         @arg @ref LL_APB4_GRP2_PERIPH_DTS
3609:STM32Cube_FW_N6/Drivers/STM32N6xx_HAL_Driver/Inc/stm32n6xx_ll_bus.h ****   * @retval None
3610:STM32Cube_FW_N6/Drivers/STM32N6xx_HAL_Driver/Inc/stm32n6xx_ll_bus.h ****   */
3611:STM32Cube_FW_N6/Drivers/STM32N6xx_HAL_Driver/Inc/stm32n6xx_ll_bus.h **** __STATIC_INLINE void LL_APB4_GRP2_DisableClockLowPower(uint32_t Periphs)
3612:STM32Cube_FW_N6/Drivers/STM32N6xx_HAL_Driver/Inc/stm32n6xx_ll_bus.h **** {
3613:STM32Cube_FW_N6/Drivers/STM32N6xx_HAL_Driver/Inc/stm32n6xx_ll_bus.h ****   WRITE_REG(RCC->APB4LPENCR2, Periphs);
3614:STM32Cube_FW_N6/Drivers/STM32N6xx_HAL_Driver/Inc/stm32n6xx_ll_bus.h **** }
3615:STM32Cube_FW_N6/Drivers/STM32N6xx_HAL_Driver/Inc/stm32n6xx_ll_bus.h **** 
ARM GAS  C:\Users\DJESSOU\AppData\Local\Temp\cc3dm0Vf.s 			page 196


3616:STM32Cube_FW_N6/Drivers/STM32N6xx_HAL_Driver/Inc/stm32n6xx_ll_bus.h **** /**
3617:STM32Cube_FW_N6/Drivers/STM32N6xx_HAL_Driver/Inc/stm32n6xx_ll_bus.h ****   * @}
3618:STM32Cube_FW_N6/Drivers/STM32N6xx_HAL_Driver/Inc/stm32n6xx_ll_bus.h ****   */
3619:STM32Cube_FW_N6/Drivers/STM32N6xx_HAL_Driver/Inc/stm32n6xx_ll_bus.h **** 
3620:STM32Cube_FW_N6/Drivers/STM32N6xx_HAL_Driver/Inc/stm32n6xx_ll_bus.h **** /** @defgroup BUS_LL_EF_APB5 APB5
3621:STM32Cube_FW_N6/Drivers/STM32N6xx_HAL_Driver/Inc/stm32n6xx_ll_bus.h ****   * @{
3622:STM32Cube_FW_N6/Drivers/STM32N6xx_HAL_Driver/Inc/stm32n6xx_ll_bus.h ****   */
3623:STM32Cube_FW_N6/Drivers/STM32N6xx_HAL_Driver/Inc/stm32n6xx_ll_bus.h **** 
3624:STM32Cube_FW_N6/Drivers/STM32N6xx_HAL_Driver/Inc/stm32n6xx_ll_bus.h **** /**
3625:STM32Cube_FW_N6/Drivers/STM32N6xx_HAL_Driver/Inc/stm32n6xx_ll_bus.h ****   * @brief  Enable APB5 peripherals clock.
3626:STM32Cube_FW_N6/Drivers/STM32N6xx_HAL_Driver/Inc/stm32n6xx_ll_bus.h ****   * @rmtoll APB5ENSR     LTDCENS       LL_APB5_GRP1_EnableClock\n
3627:STM32Cube_FW_N6/Drivers/STM32N6xx_HAL_Driver/Inc/stm32n6xx_ll_bus.h ****   *         APB5ENSR     DCMIPPENS     LL_APB5_GRP1_EnableClock\n
3628:STM32Cube_FW_N6/Drivers/STM32N6xx_HAL_Driver/Inc/stm32n6xx_ll_bus.h ****   *         APB5ENSR     GFXTIMENS     LL_APB5_GRP1_EnableClock\n
3629:STM32Cube_FW_N6/Drivers/STM32N6xx_HAL_Driver/Inc/stm32n6xx_ll_bus.h ****   *         APB5ENSR     VENCENS       LL_APB5_GRP1_EnableClock\n (*)
3630:STM32Cube_FW_N6/Drivers/STM32N6xx_HAL_Driver/Inc/stm32n6xx_ll_bus.h ****   *         APB5ENSR     CSIENS        LL_APB5_GRP1_EnableClock
3631:STM32Cube_FW_N6/Drivers/STM32N6xx_HAL_Driver/Inc/stm32n6xx_ll_bus.h ****   * @param  Periphs This parameter can be a combination of the following values:
3632:STM32Cube_FW_N6/Drivers/STM32N6xx_HAL_Driver/Inc/stm32n6xx_ll_bus.h ****   *         @arg @ref LL_APB5_GRP1_PERIPH_CSI
3633:STM32Cube_FW_N6/Drivers/STM32N6xx_HAL_Driver/Inc/stm32n6xx_ll_bus.h ****   *         @arg @ref LL_APB5_GRP1_PERIPH_DCMIPP
3634:STM32Cube_FW_N6/Drivers/STM32N6xx_HAL_Driver/Inc/stm32n6xx_ll_bus.h ****   *         @arg @ref LL_APB5_GRP1_PERIPH_GFXTIM
3635:STM32Cube_FW_N6/Drivers/STM32N6xx_HAL_Driver/Inc/stm32n6xx_ll_bus.h ****   *         @arg @ref LL_APB5_GRP1_PERIPH_LTDC
3636:STM32Cube_FW_N6/Drivers/STM32N6xx_HAL_Driver/Inc/stm32n6xx_ll_bus.h ****   *         @arg @ref LL_APB5_GRP1_PERIPH_VENC
3637:STM32Cube_FW_N6/Drivers/STM32N6xx_HAL_Driver/Inc/stm32n6xx_ll_bus.h ****   * @retval None
3638:STM32Cube_FW_N6/Drivers/STM32N6xx_HAL_Driver/Inc/stm32n6xx_ll_bus.h ****   */
3639:STM32Cube_FW_N6/Drivers/STM32N6xx_HAL_Driver/Inc/stm32n6xx_ll_bus.h **** __STATIC_INLINE void LL_APB5_GRP1_EnableClock(uint32_t Periphs)
 4370              		.loc 2 3639 22 view .LVU1420
 4371              	.LBB145:
3640:STM32Cube_FW_N6/Drivers/STM32N6xx_HAL_Driver/Inc/stm32n6xx_ll_bus.h **** {
3641:STM32Cube_FW_N6/Drivers/STM32N6xx_HAL_Driver/Inc/stm32n6xx_ll_bus.h ****   __IO uint32_t tmpreg;
 4372              		.loc 2 3641 3 view .LVU1421
3642:STM32Cube_FW_N6/Drivers/STM32N6xx_HAL_Driver/Inc/stm32n6xx_ll_bus.h ****   WRITE_REG(RCC->APB5ENSR, Periphs);
 4373              		.loc 2 3642 3 view .LVU1422
 4374 0000 0423     		movs	r3, #4
 4375              	.LBE145:
 4376              	.LBE144:
 918:Lib/Camera_Middleware/cmw_camera.c ****   UNUSED(hdcmipp);
 4377              		.loc 1 918 1 is_stmt 0 view .LVU1423
 4378 0002 30B5     		push	{r4, r5, lr}
 4379              		.cfi_def_cfa_offset 12
 4380              		.cfi_offset 4, -12
 4381              		.cfi_offset 5, -8
 4382              		.cfi_offset 14, -4
 4383              	.LBB149:
 4384              	.LBB146:
 4385              		.loc 2 3642 3 view .LVU1424
 4386 0004 1B4C     		ldr	r4, .L369
 4387              	.LBE146:
 4388              	.LBE149:
 918:Lib/Camera_Middleware/cmw_camera.c ****   UNUSED(hdcmipp);
 4389              		.loc 1 918 1 view .LVU1425
 4390 0006 85B0     		sub	sp, sp, #20
 4391              		.cfi_def_cfa_offset 32
 4392              	.LBB150:
 4393              	.LBB147:
 4394              		.loc 2 3642 3 view .LVU1426
 4395 0008 C4F87C3A 		str	r3, [r4, #2684]
3643:STM32Cube_FW_N6/Drivers/STM32N6xx_HAL_Driver/Inc/stm32n6xx_ll_bus.h ****   /* Delay after an RCC peripheral clock enabling */
3644:STM32Cube_FW_N6/Drivers/STM32N6xx_HAL_Driver/Inc/stm32n6xx_ll_bus.h ****   tmpreg = READ_REG(RCC->APB5ENR);
ARM GAS  C:\Users\DJESSOU\AppData\Local\Temp\cc3dm0Vf.s 			page 197


 4396              		.loc 2 3644 3 is_stmt 1 view .LVU1427
 4397              		.loc 2 3644 12 is_stmt 0 view .LVU1428
 4398 000c D4F87C22 		ldr	r2, [r4, #636]
 4399              	.LBE147:
 4400              	.LBE150:
 4401              	.LBB151:
 4402              	.LBB152:
3645:STM32Cube_FW_N6/Drivers/STM32N6xx_HAL_Driver/Inc/stm32n6xx_ll_bus.h ****   (void)tmpreg;
3646:STM32Cube_FW_N6/Drivers/STM32N6xx_HAL_Driver/Inc/stm32n6xx_ll_bus.h **** }
3647:STM32Cube_FW_N6/Drivers/STM32N6xx_HAL_Driver/Inc/stm32n6xx_ll_bus.h **** 
3648:STM32Cube_FW_N6/Drivers/STM32N6xx_HAL_Driver/Inc/stm32n6xx_ll_bus.h **** /**
3649:STM32Cube_FW_N6/Drivers/STM32N6xx_HAL_Driver/Inc/stm32n6xx_ll_bus.h ****   * @brief  Check if APB5 peripheral clock is enabled or not
3650:STM32Cube_FW_N6/Drivers/STM32N6xx_HAL_Driver/Inc/stm32n6xx_ll_bus.h ****   * @rmtoll APB5ENR      LTDCEN        LL_APB5_GRP1_IsEnabledClock\n
3651:STM32Cube_FW_N6/Drivers/STM32N6xx_HAL_Driver/Inc/stm32n6xx_ll_bus.h ****   *         APB5ENR      DCMIPPEN      LL_APB5_GRP1_IsEnabledClock\n
3652:STM32Cube_FW_N6/Drivers/STM32N6xx_HAL_Driver/Inc/stm32n6xx_ll_bus.h ****   *         APB5ENR      GFXTIMEN      LL_APB5_GRP1_IsEnabledClock\n
3653:STM32Cube_FW_N6/Drivers/STM32N6xx_HAL_Driver/Inc/stm32n6xx_ll_bus.h ****   *         APB5ENR      VENCEN        LL_APB5_GRP1_IsEnabledClock\n (*)
3654:STM32Cube_FW_N6/Drivers/STM32N6xx_HAL_Driver/Inc/stm32n6xx_ll_bus.h ****   *         APB5ENR      CSIEN         LL_APB5_GRP1_IsEnabledClock
3655:STM32Cube_FW_N6/Drivers/STM32N6xx_HAL_Driver/Inc/stm32n6xx_ll_bus.h ****   * @param  Periphs This parameter can be a combination of the following values:
3656:STM32Cube_FW_N6/Drivers/STM32N6xx_HAL_Driver/Inc/stm32n6xx_ll_bus.h ****   *         @arg @ref LL_APB5_GRP1_PERIPH_CSI
3657:STM32Cube_FW_N6/Drivers/STM32N6xx_HAL_Driver/Inc/stm32n6xx_ll_bus.h ****   *         @arg @ref LL_APB5_GRP1_PERIPH_DCMIPP
3658:STM32Cube_FW_N6/Drivers/STM32N6xx_HAL_Driver/Inc/stm32n6xx_ll_bus.h ****   *         @arg @ref LL_APB5_GRP1_PERIPH_GFXTIM
3659:STM32Cube_FW_N6/Drivers/STM32N6xx_HAL_Driver/Inc/stm32n6xx_ll_bus.h ****   *         @arg @ref LL_APB5_GRP1_PERIPH_LTDC
3660:STM32Cube_FW_N6/Drivers/STM32N6xx_HAL_Driver/Inc/stm32n6xx_ll_bus.h ****   *         @arg @ref LL_APB5_GRP1_PERIPH_VENC
3661:STM32Cube_FW_N6/Drivers/STM32N6xx_HAL_Driver/Inc/stm32n6xx_ll_bus.h ****   * @retval uint32_t
3662:STM32Cube_FW_N6/Drivers/STM32N6xx_HAL_Driver/Inc/stm32n6xx_ll_bus.h ****   */
3663:STM32Cube_FW_N6/Drivers/STM32N6xx_HAL_Driver/Inc/stm32n6xx_ll_bus.h **** __STATIC_INLINE uint32_t LL_APB5_GRP1_IsEnabledClock(uint32_t Periphs)
3664:STM32Cube_FW_N6/Drivers/STM32N6xx_HAL_Driver/Inc/stm32n6xx_ll_bus.h **** {
3665:STM32Cube_FW_N6/Drivers/STM32N6xx_HAL_Driver/Inc/stm32n6xx_ll_bus.h ****   return ((READ_BIT(RCC->APB5ENR, Periphs) == Periphs) ? 1UL : 0UL);
3666:STM32Cube_FW_N6/Drivers/STM32N6xx_HAL_Driver/Inc/stm32n6xx_ll_bus.h **** }
3667:STM32Cube_FW_N6/Drivers/STM32N6xx_HAL_Driver/Inc/stm32n6xx_ll_bus.h **** 
3668:STM32Cube_FW_N6/Drivers/STM32N6xx_HAL_Driver/Inc/stm32n6xx_ll_bus.h **** /**
3669:STM32Cube_FW_N6/Drivers/STM32N6xx_HAL_Driver/Inc/stm32n6xx_ll_bus.h ****   * @brief  Disable APB5 peripherals clock.
3670:STM32Cube_FW_N6/Drivers/STM32N6xx_HAL_Driver/Inc/stm32n6xx_ll_bus.h ****   * @rmtoll APB5ENCR     LTDCENC       LL_APB5_GRP1_DisableClock\n
3671:STM32Cube_FW_N6/Drivers/STM32N6xx_HAL_Driver/Inc/stm32n6xx_ll_bus.h ****   *         APB5ENCR     DCMIPPENC     LL_APB5_GRP1_DisableClock\n
3672:STM32Cube_FW_N6/Drivers/STM32N6xx_HAL_Driver/Inc/stm32n6xx_ll_bus.h ****   *         APB5ENCR     GFXTIMENC     LL_APB5_GRP1_DisableClock\n
3673:STM32Cube_FW_N6/Drivers/STM32N6xx_HAL_Driver/Inc/stm32n6xx_ll_bus.h ****   *         APB5ENCR     VENCENC       LL_APB5_GRP1_DisableClock\n (*)
3674:STM32Cube_FW_N6/Drivers/STM32N6xx_HAL_Driver/Inc/stm32n6xx_ll_bus.h ****   *         APB5ENCR     CSIENC        LL_APB5_GRP1_DisableClock
3675:STM32Cube_FW_N6/Drivers/STM32N6xx_HAL_Driver/Inc/stm32n6xx_ll_bus.h ****   * @param  Periphs This parameter can be a combination of the following values:
3676:STM32Cube_FW_N6/Drivers/STM32N6xx_HAL_Driver/Inc/stm32n6xx_ll_bus.h ****   *         @arg @ref LL_APB5_GRP1_PERIPH_CSI
3677:STM32Cube_FW_N6/Drivers/STM32N6xx_HAL_Driver/Inc/stm32n6xx_ll_bus.h ****   *         @arg @ref LL_APB5_GRP1_PERIPH_DCMIPP
3678:STM32Cube_FW_N6/Drivers/STM32N6xx_HAL_Driver/Inc/stm32n6xx_ll_bus.h ****   *         @arg @ref LL_APB5_GRP1_PERIPH_GFXTIM
3679:STM32Cube_FW_N6/Drivers/STM32N6xx_HAL_Driver/Inc/stm32n6xx_ll_bus.h ****   *         @arg @ref LL_APB5_GRP1_PERIPH_LTDC
3680:STM32Cube_FW_N6/Drivers/STM32N6xx_HAL_Driver/Inc/stm32n6xx_ll_bus.h ****   *         @arg @ref LL_APB5_GRP1_PERIPH_VENC
3681:STM32Cube_FW_N6/Drivers/STM32N6xx_HAL_Driver/Inc/stm32n6xx_ll_bus.h ****   * @retval None
3682:STM32Cube_FW_N6/Drivers/STM32N6xx_HAL_Driver/Inc/stm32n6xx_ll_bus.h ****   */
3683:STM32Cube_FW_N6/Drivers/STM32N6xx_HAL_Driver/Inc/stm32n6xx_ll_bus.h **** __STATIC_INLINE void LL_APB5_GRP1_DisableClock(uint32_t Periphs)
3684:STM32Cube_FW_N6/Drivers/STM32N6xx_HAL_Driver/Inc/stm32n6xx_ll_bus.h **** {
3685:STM32Cube_FW_N6/Drivers/STM32N6xx_HAL_Driver/Inc/stm32n6xx_ll_bus.h ****   WRITE_REG(RCC->APB5ENCR, Periphs);
3686:STM32Cube_FW_N6/Drivers/STM32N6xx_HAL_Driver/Inc/stm32n6xx_ll_bus.h **** }
3687:STM32Cube_FW_N6/Drivers/STM32N6xx_HAL_Driver/Inc/stm32n6xx_ll_bus.h **** 
3688:STM32Cube_FW_N6/Drivers/STM32N6xx_HAL_Driver/Inc/stm32n6xx_ll_bus.h **** /**
3689:STM32Cube_FW_N6/Drivers/STM32N6xx_HAL_Driver/Inc/stm32n6xx_ll_bus.h ****   * @brief  Force APB5 peripherals reset.
3690:STM32Cube_FW_N6/Drivers/STM32N6xx_HAL_Driver/Inc/stm32n6xx_ll_bus.h ****   * @rmtoll APB5RSTSR     LTDCRSTS       LL_APB5_GRP1_ForceReset\n
3691:STM32Cube_FW_N6/Drivers/STM32N6xx_HAL_Driver/Inc/stm32n6xx_ll_bus.h ****   *         APB5RSTSR     DCMIPPRSTS     LL_APB5_GRP1_ForceReset\n
3692:STM32Cube_FW_N6/Drivers/STM32N6xx_HAL_Driver/Inc/stm32n6xx_ll_bus.h ****   *         APB5RSTSR     GFXTIMRSTS     LL_APB5_GRP1_ForceReset\n
3693:STM32Cube_FW_N6/Drivers/STM32N6xx_HAL_Driver/Inc/stm32n6xx_ll_bus.h ****   *         APB5RSTSR     VENCRSTS       LL_APB5_GRP1_ForceReset\n (*)
3694:STM32Cube_FW_N6/Drivers/STM32N6xx_HAL_Driver/Inc/stm32n6xx_ll_bus.h ****   *         APB5RSTSR     CSIRSTS        LL_APB5_GRP1_ForceReset
ARM GAS  C:\Users\DJESSOU\AppData\Local\Temp\cc3dm0Vf.s 			page 198


3695:STM32Cube_FW_N6/Drivers/STM32N6xx_HAL_Driver/Inc/stm32n6xx_ll_bus.h ****   * @param  Periphs This parameter can be a combination of the following values:
3696:STM32Cube_FW_N6/Drivers/STM32N6xx_HAL_Driver/Inc/stm32n6xx_ll_bus.h ****   *         @arg @ref LL_APB5_GRP1_PERIPH_CSI
3697:STM32Cube_FW_N6/Drivers/STM32N6xx_HAL_Driver/Inc/stm32n6xx_ll_bus.h ****   *         @arg @ref LL_APB5_GRP1_PERIPH_DCMIPP
3698:STM32Cube_FW_N6/Drivers/STM32N6xx_HAL_Driver/Inc/stm32n6xx_ll_bus.h ****   *         @arg @ref LL_APB5_GRP1_PERIPH_GFXTIM
3699:STM32Cube_FW_N6/Drivers/STM32N6xx_HAL_Driver/Inc/stm32n6xx_ll_bus.h ****   *         @arg @ref LL_APB5_GRP1_PERIPH_LTDC
3700:STM32Cube_FW_N6/Drivers/STM32N6xx_HAL_Driver/Inc/stm32n6xx_ll_bus.h ****   *         @arg @ref LL_APB5_GRP1_PERIPH_VENC
3701:STM32Cube_FW_N6/Drivers/STM32N6xx_HAL_Driver/Inc/stm32n6xx_ll_bus.h ****   * @retval None
3702:STM32Cube_FW_N6/Drivers/STM32N6xx_HAL_Driver/Inc/stm32n6xx_ll_bus.h ****   */
3703:STM32Cube_FW_N6/Drivers/STM32N6xx_HAL_Driver/Inc/stm32n6xx_ll_bus.h **** __STATIC_INLINE void LL_APB5_GRP1_ForceReset(uint32_t Periphs)
3704:STM32Cube_FW_N6/Drivers/STM32N6xx_HAL_Driver/Inc/stm32n6xx_ll_bus.h **** {
3705:STM32Cube_FW_N6/Drivers/STM32N6xx_HAL_Driver/Inc/stm32n6xx_ll_bus.h ****   WRITE_REG(RCC->APB5RSTSR, Periphs);
3706:STM32Cube_FW_N6/Drivers/STM32N6xx_HAL_Driver/Inc/stm32n6xx_ll_bus.h **** }
3707:STM32Cube_FW_N6/Drivers/STM32N6xx_HAL_Driver/Inc/stm32n6xx_ll_bus.h **** 
3708:STM32Cube_FW_N6/Drivers/STM32N6xx_HAL_Driver/Inc/stm32n6xx_ll_bus.h **** /**
3709:STM32Cube_FW_N6/Drivers/STM32N6xx_HAL_Driver/Inc/stm32n6xx_ll_bus.h ****   * @brief  Release APB5 peripherals reset.
3710:STM32Cube_FW_N6/Drivers/STM32N6xx_HAL_Driver/Inc/stm32n6xx_ll_bus.h ****   * @rmtoll APB5RSTCR     LTDCRSTC       LL_APB5_GRP1_ReleaseReset\n
3711:STM32Cube_FW_N6/Drivers/STM32N6xx_HAL_Driver/Inc/stm32n6xx_ll_bus.h ****   *         APB5RSTCR     DCMIPPRSTC     LL_APB5_GRP1_ReleaseReset\n
3712:STM32Cube_FW_N6/Drivers/STM32N6xx_HAL_Driver/Inc/stm32n6xx_ll_bus.h ****   *         APB5RSTCR     GFXTIMRSTC     LL_APB5_GRP1_ReleaseReset\n
3713:STM32Cube_FW_N6/Drivers/STM32N6xx_HAL_Driver/Inc/stm32n6xx_ll_bus.h ****   *         APB5RSTCR     VENCRSTC       LL_APB5_GRP1_ReleaseReset\n (*)
3714:STM32Cube_FW_N6/Drivers/STM32N6xx_HAL_Driver/Inc/stm32n6xx_ll_bus.h ****   *         APB5RSTCR     CSIRSTC        LL_APB5_GRP1_ReleaseReset
3715:STM32Cube_FW_N6/Drivers/STM32N6xx_HAL_Driver/Inc/stm32n6xx_ll_bus.h ****   * @param  Periphs This parameter can be a combination of the following values:
3716:STM32Cube_FW_N6/Drivers/STM32N6xx_HAL_Driver/Inc/stm32n6xx_ll_bus.h ****   *         @arg @ref LL_APB5_GRP1_PERIPH_CSI
3717:STM32Cube_FW_N6/Drivers/STM32N6xx_HAL_Driver/Inc/stm32n6xx_ll_bus.h ****   *         @arg @ref LL_APB5_GRP1_PERIPH_DCMIPP
3718:STM32Cube_FW_N6/Drivers/STM32N6xx_HAL_Driver/Inc/stm32n6xx_ll_bus.h ****   *         @arg @ref LL_APB5_GRP1_PERIPH_GFXTIM
3719:STM32Cube_FW_N6/Drivers/STM32N6xx_HAL_Driver/Inc/stm32n6xx_ll_bus.h ****   *         @arg @ref LL_APB5_GRP1_PERIPH_LTDC
3720:STM32Cube_FW_N6/Drivers/STM32N6xx_HAL_Driver/Inc/stm32n6xx_ll_bus.h ****   *         @arg @ref LL_APB5_GRP1_PERIPH_VENC
3721:STM32Cube_FW_N6/Drivers/STM32N6xx_HAL_Driver/Inc/stm32n6xx_ll_bus.h ****   * @retval None
3722:STM32Cube_FW_N6/Drivers/STM32N6xx_HAL_Driver/Inc/stm32n6xx_ll_bus.h ****   */
3723:STM32Cube_FW_N6/Drivers/STM32N6xx_HAL_Driver/Inc/stm32n6xx_ll_bus.h **** __STATIC_INLINE void LL_APB5_GRP1_ReleaseReset(uint32_t Periphs)
3724:STM32Cube_FW_N6/Drivers/STM32N6xx_HAL_Driver/Inc/stm32n6xx_ll_bus.h **** {
3725:STM32Cube_FW_N6/Drivers/STM32N6xx_HAL_Driver/Inc/stm32n6xx_ll_bus.h ****   WRITE_REG(RCC->APB5RSTCR, Periphs);
 4403              		.loc 2 3725 3 view .LVU1429
 4404 0010 04F58055 		add	r5, r4, #4096
 4405              	.LBE152:
 4406              	.LBE151:
 4407              	.LBB155:
 4408              	.LBB148:
3644:STM32Cube_FW_N6/Drivers/STM32N6xx_HAL_Driver/Inc/stm32n6xx_ll_bus.h ****   (void)tmpreg;
 4409              		.loc 2 3644 10 view .LVU1430
 4410 0014 0392     		str	r2, [sp, #12]
3645:STM32Cube_FW_N6/Drivers/STM32N6xx_HAL_Driver/Inc/stm32n6xx_ll_bus.h ****   (void)tmpreg;
 4411              		.loc 2 3645 3 is_stmt 1 view .LVU1431
 4412 0016 039A     		ldr	r2, [sp, #12]
 4413              	.LVL383:
3645:STM32Cube_FW_N6/Drivers/STM32N6xx_HAL_Driver/Inc/stm32n6xx_ll_bus.h ****   (void)tmpreg;
 4414              		.loc 2 3645 3 is_stmt 0 view .LVU1432
 4415              	.LBE148:
 4416              	.LBE155:
 924:Lib/Camera_Middleware/cmw_camera.c ****   __HAL_RCC_DCMIPP_FORCE_RESET();
 4417              		.loc 1 924 3 is_stmt 1 view .LVU1433
 4418              	.LBB156:
 4419              	.LBI156:
3726:STM32Cube_FW_N6/Drivers/STM32N6xx_HAL_Driver/Inc/stm32n6xx_ll_bus.h **** }
3727:STM32Cube_FW_N6/Drivers/STM32N6xx_HAL_Driver/Inc/stm32n6xx_ll_bus.h **** 
3728:STM32Cube_FW_N6/Drivers/STM32N6xx_HAL_Driver/Inc/stm32n6xx_ll_bus.h **** /**
3729:STM32Cube_FW_N6/Drivers/STM32N6xx_HAL_Driver/Inc/stm32n6xx_ll_bus.h ****   * @brief  Enable APB5 peripherals clock during Low Power mode.
3730:STM32Cube_FW_N6/Drivers/STM32N6xx_HAL_Driver/Inc/stm32n6xx_ll_bus.h ****   * @rmtoll APB5LPENSR    LTDCLPENS      LL_APB5_GRP1_EnableClockLowPower\n
ARM GAS  C:\Users\DJESSOU\AppData\Local\Temp\cc3dm0Vf.s 			page 199


3731:STM32Cube_FW_N6/Drivers/STM32N6xx_HAL_Driver/Inc/stm32n6xx_ll_bus.h ****   *         APB5LPENSR    DCMIPPLPENS    LL_APB5_GRP1_EnableClockLowPower\n
3732:STM32Cube_FW_N6/Drivers/STM32N6xx_HAL_Driver/Inc/stm32n6xx_ll_bus.h ****   *         APB5LPENSR    GFXTIMLPENS    LL_APB5_GRP1_EnableClockLowPower\n
3733:STM32Cube_FW_N6/Drivers/STM32N6xx_HAL_Driver/Inc/stm32n6xx_ll_bus.h ****   *         APB5LPENSR    VENCLPENS      LL_APB5_GRP1_EnableClockLowPower\n (*)
3734:STM32Cube_FW_N6/Drivers/STM32N6xx_HAL_Driver/Inc/stm32n6xx_ll_bus.h ****   *         APB5LPENSR    CSILPENS       LL_APB5_GRP1_EnableClockLowPower
3735:STM32Cube_FW_N6/Drivers/STM32N6xx_HAL_Driver/Inc/stm32n6xx_ll_bus.h ****   * @param  Periphs This parameter can be a combination of the following values:
3736:STM32Cube_FW_N6/Drivers/STM32N6xx_HAL_Driver/Inc/stm32n6xx_ll_bus.h ****   *         @arg @ref LL_APB5_GRP1_PERIPH_CSI
3737:STM32Cube_FW_N6/Drivers/STM32N6xx_HAL_Driver/Inc/stm32n6xx_ll_bus.h ****   *         @arg @ref LL_APB5_GRP1_PERIPH_DCMIPP
3738:STM32Cube_FW_N6/Drivers/STM32N6xx_HAL_Driver/Inc/stm32n6xx_ll_bus.h ****   *         @arg @ref LL_APB5_GRP1_PERIPH_GFXTIM
3739:STM32Cube_FW_N6/Drivers/STM32N6xx_HAL_Driver/Inc/stm32n6xx_ll_bus.h ****   *         @arg @ref LL_APB5_GRP1_PERIPH_LTDC
3740:STM32Cube_FW_N6/Drivers/STM32N6xx_HAL_Driver/Inc/stm32n6xx_ll_bus.h ****   *         @arg @ref LL_APB5_GRP1_PERIPH_VENC
3741:STM32Cube_FW_N6/Drivers/STM32N6xx_HAL_Driver/Inc/stm32n6xx_ll_bus.h ****   * @retval None
3742:STM32Cube_FW_N6/Drivers/STM32N6xx_HAL_Driver/Inc/stm32n6xx_ll_bus.h ****   */
3743:STM32Cube_FW_N6/Drivers/STM32N6xx_HAL_Driver/Inc/stm32n6xx_ll_bus.h **** __STATIC_INLINE void LL_APB5_GRP1_EnableClockLowPower(uint32_t Periphs)
 4420              		.loc 2 3743 22 view .LVU1434
 4421              	.LBB157:
3744:STM32Cube_FW_N6/Drivers/STM32N6xx_HAL_Driver/Inc/stm32n6xx_ll_bus.h **** {
3745:STM32Cube_FW_N6/Drivers/STM32N6xx_HAL_Driver/Inc/stm32n6xx_ll_bus.h ****   __IO uint32_t tmpreg;
 4422              		.loc 2 3745 3 view .LVU1435
3746:STM32Cube_FW_N6/Drivers/STM32N6xx_HAL_Driver/Inc/stm32n6xx_ll_bus.h ****   WRITE_REG(RCC->APB5LPENSR, Periphs);
 4423              		.loc 2 3746 3 view .LVU1436
 4424 0018 C4F8BC3A 		str	r3, [r4, #2748]
3747:STM32Cube_FW_N6/Drivers/STM32N6xx_HAL_Driver/Inc/stm32n6xx_ll_bus.h ****   /* Delay after an RCC peripheral clock enabling */
3748:STM32Cube_FW_N6/Drivers/STM32N6xx_HAL_Driver/Inc/stm32n6xx_ll_bus.h ****   tmpreg = READ_REG(RCC->APB5LPENR);
 4425              		.loc 2 3748 3 view .LVU1437
 4426              		.loc 2 3748 12 is_stmt 0 view .LVU1438
 4427 001c D4F8BC22 		ldr	r2, [r4, #700]
 4428              	.LBE157:
 4429              	.LBE156:
 930:Lib/Camera_Middleware/cmw_camera.c ****   HAL_NVIC_EnableIRQ(DCMIPP_IRQn);
 4430              		.loc 1 930 3 view .LVU1439
 4431 0020 0721     		movs	r1, #7
 4432              	.LBB159:
 4433              	.LBB158:
 4434              		.loc 2 3748 10 view .LVU1440
 4435 0022 0292     		str	r2, [sp, #8]
3749:STM32Cube_FW_N6/Drivers/STM32N6xx_HAL_Driver/Inc/stm32n6xx_ll_bus.h ****   (void)tmpreg;
 4436              		.loc 2 3749 3 is_stmt 1 view .LVU1441
 4437 0024 029A     		ldr	r2, [sp, #8]
 4438              	.LVL384:
 4439              		.loc 2 3749 3 is_stmt 0 view .LVU1442
 4440              	.LBE158:
 4441              	.LBE159:
 925:Lib/Camera_Middleware/cmw_camera.c ****   __HAL_RCC_DCMIPP_RELEASE_RESET();
 4442              		.loc 1 925 3 is_stmt 1 view .LVU1443
 4443              	.LBB160:
 4444              	.LBI160:
3703:STM32Cube_FW_N6/Drivers/STM32N6xx_HAL_Driver/Inc/stm32n6xx_ll_bus.h **** {
 4445              		.loc 2 3703 22 view .LVU1444
 4446              	.LBB161:
3705:STM32Cube_FW_N6/Drivers/STM32N6xx_HAL_Driver/Inc/stm32n6xx_ll_bus.h **** }
 4447              		.loc 2 3705 3 view .LVU1445
 4448              	.LBE161:
 4449              	.LBE160:
 930:Lib/Camera_Middleware/cmw_camera.c ****   HAL_NVIC_EnableIRQ(DCMIPP_IRQn);
 4450              		.loc 1 930 3 is_stmt 0 view .LVU1446
 4451 0026 3020     		movs	r0, #48
 4452              	.LVL385:
ARM GAS  C:\Users\DJESSOU\AppData\Local\Temp\cc3dm0Vf.s 			page 200


 4453              	.LBB163:
 4454              	.LBB162:
3705:STM32Cube_FW_N6/Drivers/STM32N6xx_HAL_Driver/Inc/stm32n6xx_ll_bus.h **** }
 4455              		.loc 2 3705 3 view .LVU1447
 4456 0028 C4F83C3A 		str	r3, [r4, #2620]
 4457              	.LVL386:
3705:STM32Cube_FW_N6/Drivers/STM32N6xx_HAL_Driver/Inc/stm32n6xx_ll_bus.h **** }
 4458              		.loc 2 3705 3 view .LVU1448
 4459              	.LBE162:
 4460              	.LBE163:
 926:Lib/Camera_Middleware/cmw_camera.c **** 
 4461              		.loc 1 926 3 is_stmt 1 view .LVU1449
 4462              	.LBB164:
 4463              	.LBI151:
3723:STM32Cube_FW_N6/Drivers/STM32N6xx_HAL_Driver/Inc/stm32n6xx_ll_bus.h **** {
 4464              		.loc 2 3723 22 view .LVU1450
 4465              	.LBB153:
3725:STM32Cube_FW_N6/Drivers/STM32N6xx_HAL_Driver/Inc/stm32n6xx_ll_bus.h **** }
 4466              		.loc 2 3725 3 view .LVU1451
 4467              	.LBE153:
 4468              	.LBE164:
 930:Lib/Camera_Middleware/cmw_camera.c ****   HAL_NVIC_EnableIRQ(DCMIPP_IRQn);
 4469              		.loc 1 930 3 is_stmt 0 view .LVU1452
 4470 002c 0022     		movs	r2, #0
 4471              	.LBB165:
 4472              	.LBB154:
3725:STM32Cube_FW_N6/Drivers/STM32N6xx_HAL_Driver/Inc/stm32n6xx_ll_bus.h **** }
 4473              		.loc 2 3725 3 view .LVU1453
 4474 002e C5F83C32 		str	r3, [r5, #572]
 4475              	.LVL387:
3725:STM32Cube_FW_N6/Drivers/STM32N6xx_HAL_Driver/Inc/stm32n6xx_ll_bus.h **** }
 4476              		.loc 2 3725 3 view .LVU1454
 4477              	.LBE154:
 4478              	.LBE165:
 930:Lib/Camera_Middleware/cmw_camera.c ****   HAL_NVIC_EnableIRQ(DCMIPP_IRQn);
 4479              		.loc 1 930 3 is_stmt 1 view .LVU1455
 4480 0032 FFF7FEFF 		bl	HAL_NVIC_SetPriority
 4481              	.LVL388:
 931:Lib/Camera_Middleware/cmw_camera.c **** 
 4482              		.loc 1 931 3 view .LVU1456
 4483 0036 3020     		movs	r0, #48
 4484 0038 FFF7FEFF 		bl	HAL_NVIC_EnableIRQ
 4485              	.LVL389:
 935:Lib/Camera_Middleware/cmw_camera.c ****   __HAL_RCC_CSI_CLK_SLEEP_ENABLE();
 4486              		.loc 1 935 3 view .LVU1457
 4487              	.LBB166:
 4488              	.LBI166:
3639:STM32Cube_FW_N6/Drivers/STM32N6xx_HAL_Driver/Inc/stm32n6xx_ll_bus.h **** {
 4489              		.loc 2 3639 22 view .LVU1458
 4490              	.LBB167:
3641:STM32Cube_FW_N6/Drivers/STM32N6xx_HAL_Driver/Inc/stm32n6xx_ll_bus.h ****   WRITE_REG(RCC->APB5ENSR, Periphs);
 4491              		.loc 2 3641 3 view .LVU1459
3642:STM32Cube_FW_N6/Drivers/STM32N6xx_HAL_Driver/Inc/stm32n6xx_ll_bus.h ****   /* Delay after an RCC peripheral clock enabling */
 4492              		.loc 2 3642 3 view .LVU1460
 4493 003c 4023     		movs	r3, #64
 4494 003e C4F87C3A 		str	r3, [r4, #2684]
3644:STM32Cube_FW_N6/Drivers/STM32N6xx_HAL_Driver/Inc/stm32n6xx_ll_bus.h ****   (void)tmpreg;
ARM GAS  C:\Users\DJESSOU\AppData\Local\Temp\cc3dm0Vf.s 			page 201


 4495              		.loc 2 3644 3 view .LVU1461
3644:STM32Cube_FW_N6/Drivers/STM32N6xx_HAL_Driver/Inc/stm32n6xx_ll_bus.h ****   (void)tmpreg;
 4496              		.loc 2 3644 12 is_stmt 0 view .LVU1462
 4497 0042 D4F87C22 		ldr	r2, [r4, #636]
 4498              	.LBE167:
 4499              	.LBE166:
 942:Lib/Camera_Middleware/cmw_camera.c ****   HAL_NVIC_EnableIRQ(CSI_IRQn);
 4500              		.loc 1 942 3 view .LVU1463
 4501 0046 0721     		movs	r1, #7
 4502              	.LBB169:
 4503              	.LBB168:
3644:STM32Cube_FW_N6/Drivers/STM32N6xx_HAL_Driver/Inc/stm32n6xx_ll_bus.h ****   (void)tmpreg;
 4504              		.loc 2 3644 10 view .LVU1464
 4505 0048 0192     		str	r2, [sp, #4]
3645:STM32Cube_FW_N6/Drivers/STM32N6xx_HAL_Driver/Inc/stm32n6xx_ll_bus.h **** }
 4506              		.loc 2 3645 3 is_stmt 1 view .LVU1465
 4507 004a 019A     		ldr	r2, [sp, #4]
 4508              	.LVL390:
3645:STM32Cube_FW_N6/Drivers/STM32N6xx_HAL_Driver/Inc/stm32n6xx_ll_bus.h **** }
 4509              		.loc 2 3645 3 is_stmt 0 view .LVU1466
 4510              	.LBE168:
 4511              	.LBE169:
 936:Lib/Camera_Middleware/cmw_camera.c ****   __HAL_RCC_CSI_FORCE_RESET();
 4512              		.loc 1 936 3 is_stmt 1 view .LVU1467
 4513              	.LBB170:
 4514              	.LBI170:
3743:STM32Cube_FW_N6/Drivers/STM32N6xx_HAL_Driver/Inc/stm32n6xx_ll_bus.h **** {
 4515              		.loc 2 3743 22 view .LVU1468
 4516              	.LBB171:
3745:STM32Cube_FW_N6/Drivers/STM32N6xx_HAL_Driver/Inc/stm32n6xx_ll_bus.h ****   WRITE_REG(RCC->APB5LPENSR, Periphs);
 4517              		.loc 2 3745 3 view .LVU1469
3746:STM32Cube_FW_N6/Drivers/STM32N6xx_HAL_Driver/Inc/stm32n6xx_ll_bus.h ****   /* Delay after an RCC peripheral clock enabling */
 4518              		.loc 2 3746 3 view .LVU1470
 4519 004c C4F8BC3A 		str	r3, [r4, #2748]
3748:STM32Cube_FW_N6/Drivers/STM32N6xx_HAL_Driver/Inc/stm32n6xx_ll_bus.h ****   (void)tmpreg;
 4520              		.loc 2 3748 3 view .LVU1471
3748:STM32Cube_FW_N6/Drivers/STM32N6xx_HAL_Driver/Inc/stm32n6xx_ll_bus.h ****   (void)tmpreg;
 4521              		.loc 2 3748 12 is_stmt 0 view .LVU1472
 4522 0050 D4F8BC22 		ldr	r2, [r4, #700]
 4523              	.LBE171:
 4524              	.LBE170:
 942:Lib/Camera_Middleware/cmw_camera.c ****   HAL_NVIC_EnableIRQ(CSI_IRQn);
 4525              		.loc 1 942 3 view .LVU1473
 4526 0054 2F20     		movs	r0, #47
 4527              	.LBB173:
 4528              	.LBB172:
3748:STM32Cube_FW_N6/Drivers/STM32N6xx_HAL_Driver/Inc/stm32n6xx_ll_bus.h ****   (void)tmpreg;
 4529              		.loc 2 3748 10 view .LVU1474
 4530 0056 0092     		str	r2, [sp]
 4531              		.loc 2 3749 3 is_stmt 1 view .LVU1475
 4532 0058 009A     		ldr	r2, [sp]
 4533              	.LVL391:
 4534              		.loc 2 3749 3 is_stmt 0 view .LVU1476
 4535              	.LBE172:
 4536              	.LBE173:
 937:Lib/Camera_Middleware/cmw_camera.c ****   __HAL_RCC_CSI_RELEASE_RESET();
 4537              		.loc 1 937 3 is_stmt 1 view .LVU1477
ARM GAS  C:\Users\DJESSOU\AppData\Local\Temp\cc3dm0Vf.s 			page 202


 4538              	.LBB174:
 4539              	.LBI174:
3703:STM32Cube_FW_N6/Drivers/STM32N6xx_HAL_Driver/Inc/stm32n6xx_ll_bus.h **** {
 4540              		.loc 2 3703 22 view .LVU1478
 4541              	.LBB175:
3705:STM32Cube_FW_N6/Drivers/STM32N6xx_HAL_Driver/Inc/stm32n6xx_ll_bus.h **** }
 4542              		.loc 2 3705 3 view .LVU1479
 4543 005a C4F83C3A 		str	r3, [r4, #2620]
 4544              	.LVL392:
3705:STM32Cube_FW_N6/Drivers/STM32N6xx_HAL_Driver/Inc/stm32n6xx_ll_bus.h **** }
 4545              		.loc 2 3705 3 is_stmt 0 view .LVU1480
 4546              	.LBE175:
 4547              	.LBE174:
 938:Lib/Camera_Middleware/cmw_camera.c **** 
 4548              		.loc 1 938 3 is_stmt 1 view .LVU1481
 4549              	.LBB176:
 4550              	.LBI176:
3723:STM32Cube_FW_N6/Drivers/STM32N6xx_HAL_Driver/Inc/stm32n6xx_ll_bus.h **** {
 4551              		.loc 2 3723 22 view .LVU1482
 4552              	.LBB177:
3725:STM32Cube_FW_N6/Drivers/STM32N6xx_HAL_Driver/Inc/stm32n6xx_ll_bus.h **** }
 4553              		.loc 2 3725 3 view .LVU1483
 4554              	.LBE177:
 4555              	.LBE176:
 942:Lib/Camera_Middleware/cmw_camera.c ****   HAL_NVIC_EnableIRQ(CSI_IRQn);
 4556              		.loc 1 942 3 is_stmt 0 view .LVU1484
 4557 005e 0022     		movs	r2, #0
 4558              	.LBB179:
 4559              	.LBB178:
3725:STM32Cube_FW_N6/Drivers/STM32N6xx_HAL_Driver/Inc/stm32n6xx_ll_bus.h **** }
 4560              		.loc 2 3725 3 view .LVU1485
 4561 0060 C5F83C32 		str	r3, [r5, #572]
 4562              	.LVL393:
3725:STM32Cube_FW_N6/Drivers/STM32N6xx_HAL_Driver/Inc/stm32n6xx_ll_bus.h **** }
 4563              		.loc 2 3725 3 view .LVU1486
 4564              	.LBE178:
 4565              	.LBE179:
 942:Lib/Camera_Middleware/cmw_camera.c ****   HAL_NVIC_EnableIRQ(CSI_IRQn);
 4566              		.loc 1 942 3 is_stmt 1 view .LVU1487
 4567 0064 FFF7FEFF 		bl	HAL_NVIC_SetPriority
 4568              	.LVL394:
 943:Lib/Camera_Middleware/cmw_camera.c **** 
 4569              		.loc 1 943 3 view .LVU1488
 4570 0068 2F20     		movs	r0, #47
 945:Lib/Camera_Middleware/cmw_camera.c **** 
 4571              		.loc 1 945 1 is_stmt 0 view .LVU1489
 4572 006a 05B0     		add	sp, sp, #20
 4573              		.cfi_def_cfa_offset 12
 4574              		@ sp needed
 4575 006c BDE83040 		pop	{r4, r5, lr}
 4576              		.cfi_restore 14
 4577              		.cfi_restore 5
 4578              		.cfi_restore 4
 4579              		.cfi_def_cfa_offset 0
 943:Lib/Camera_Middleware/cmw_camera.c **** 
 4580              		.loc 1 943 3 view .LVU1490
 4581 0070 FFF7FEBF 		b	HAL_NVIC_EnableIRQ
ARM GAS  C:\Users\DJESSOU\AppData\Local\Temp\cc3dm0Vf.s 			page 203


 4582              	.LVL395:
 4583              	.L370:
 4584              		.align	2
 4585              	.L369:
 4586 0074 00800256 		.word	1443004416
 4587              		.cfi_endproc
 4588              	.LFE897:
 4590              		.section	.text.HAL_DCMIPP_MspDeInit,"ax",%progbits
 4591              		.align	1
 4592              		.global	HAL_DCMIPP_MspDeInit
 4593              		.syntax unified
 4594              		.thumb
 4595              		.thumb_func
 4597              	HAL_DCMIPP_MspDeInit:
 4598              	.LVL396:
 4599              	.LFB898:
 953:Lib/Camera_Middleware/cmw_camera.c ****   UNUSED(hdcmipp);
 4600              		.loc 1 953 1 is_stmt 1 view -0
 4601              		.cfi_startproc
 4602              		@ args = 0, pretend = 0, frame = 0
 4603              		@ frame_needed = 0, uses_anonymous_args = 0
 954:Lib/Camera_Middleware/cmw_camera.c **** 
 4604              		.loc 1 954 3 view .LVU1492
 956:Lib/Camera_Middleware/cmw_camera.c ****   __HAL_RCC_DCMIPP_RELEASE_RESET();
 4605              		.loc 1 956 3 view .LVU1493
 4606              	.LBB180:
 4607              	.LBI180:
3703:STM32Cube_FW_N6/Drivers/STM32N6xx_HAL_Driver/Inc/stm32n6xx_ll_bus.h **** {
 4608              		.loc 2 3703 22 view .LVU1494
 4609              	.LBB181:
3705:STM32Cube_FW_N6/Drivers/STM32N6xx_HAL_Driver/Inc/stm32n6xx_ll_bus.h **** }
 4610              		.loc 2 3705 3 view .LVU1495
 4611              	.LBE181:
 4612              	.LBE180:
 953:Lib/Camera_Middleware/cmw_camera.c ****   UNUSED(hdcmipp);
 4613              		.loc 1 953 1 is_stmt 0 view .LVU1496
 4614 0000 70B5     		push	{r4, r5, r6, lr}
 4615              		.cfi_def_cfa_offset 16
 4616              		.cfi_offset 4, -16
 4617              		.cfi_offset 5, -12
 4618              		.cfi_offset 6, -8
 4619              		.cfi_offset 14, -4
 4620              	.LBB184:
 4621              	.LBB182:
3705:STM32Cube_FW_N6/Drivers/STM32N6xx_HAL_Driver/Inc/stm32n6xx_ll_bus.h **** }
 4622              		.loc 2 3705 3 view .LVU1497
 4623 0002 0425     		movs	r5, #4
 4624 0004 0B4E     		ldr	r6, .L372
 4625              	.LBE182:
 4626              	.LBE184:
 960:Lib/Camera_Middleware/cmw_camera.c **** 
 4627              		.loc 1 960 3 view .LVU1498
 4628 0006 3020     		movs	r0, #48
 4629              	.LVL397:
 4630              	.LBB185:
 4631              	.LBB186:
3725:STM32Cube_FW_N6/Drivers/STM32N6xx_HAL_Driver/Inc/stm32n6xx_ll_bus.h **** }
ARM GAS  C:\Users\DJESSOU\AppData\Local\Temp\cc3dm0Vf.s 			page 204


 4632              		.loc 2 3725 3 view .LVU1499
 4633 0008 06F58054 		add	r4, r6, #4096
 4634              	.LBE186:
 4635              	.LBE185:
 4636              	.LBB188:
 4637              	.LBB183:
3705:STM32Cube_FW_N6/Drivers/STM32N6xx_HAL_Driver/Inc/stm32n6xx_ll_bus.h **** }
 4638              		.loc 2 3705 3 view .LVU1500
 4639 000c C6F83C5A 		str	r5, [r6, #2620]
 4640              	.LVL398:
3705:STM32Cube_FW_N6/Drivers/STM32N6xx_HAL_Driver/Inc/stm32n6xx_ll_bus.h **** }
 4641              		.loc 2 3705 3 view .LVU1501
 4642              	.LBE183:
 4643              	.LBE188:
 957:Lib/Camera_Middleware/cmw_camera.c **** 
 4644              		.loc 1 957 3 is_stmt 1 view .LVU1502
 4645              	.LBB189:
 4646              	.LBI185:
3723:STM32Cube_FW_N6/Drivers/STM32N6xx_HAL_Driver/Inc/stm32n6xx_ll_bus.h **** {
 4647              		.loc 2 3723 22 view .LVU1503
 4648              	.LBB187:
3725:STM32Cube_FW_N6/Drivers/STM32N6xx_HAL_Driver/Inc/stm32n6xx_ll_bus.h **** }
 4649              		.loc 2 3725 3 view .LVU1504
 4650 0010 C4F83C52 		str	r5, [r4, #572]
 4651              	.LVL399:
3725:STM32Cube_FW_N6/Drivers/STM32N6xx_HAL_Driver/Inc/stm32n6xx_ll_bus.h **** }
 4652              		.loc 2 3725 3 is_stmt 0 view .LVU1505
 4653              	.LBE187:
 4654              	.LBE189:
 960:Lib/Camera_Middleware/cmw_camera.c **** 
 4655              		.loc 1 960 3 is_stmt 1 view .LVU1506
 4656 0014 FFF7FEFF 		bl	HAL_NVIC_DisableIRQ
 4657              	.LVL400:
 963:Lib/Camera_Middleware/cmw_camera.c **** 
 4658              		.loc 1 963 3 view .LVU1507
 4659              	.LBB190:
 4660              	.LBI190:
3683:STM32Cube_FW_N6/Drivers/STM32N6xx_HAL_Driver/Inc/stm32n6xx_ll_bus.h **** {
 4661              		.loc 2 3683 22 view .LVU1508
 4662              	.LBB191:
3685:STM32Cube_FW_N6/Drivers/STM32N6xx_HAL_Driver/Inc/stm32n6xx_ll_bus.h **** }
 4663              		.loc 2 3685 3 view .LVU1509
 4664 0018 C4F87C52 		str	r5, [r4, #636]
 4665              	.LVL401:
3685:STM32Cube_FW_N6/Drivers/STM32N6xx_HAL_Driver/Inc/stm32n6xx_ll_bus.h **** }
 4666              		.loc 2 3685 3 is_stmt 0 view .LVU1510
 4667              	.LBE191:
 4668              	.LBE190:
 965:Lib/Camera_Middleware/cmw_camera.c ****   __HAL_RCC_CSI_RELEASE_RESET();
 4669              		.loc 1 965 3 is_stmt 1 view .LVU1511
 4670              	.LBB192:
 4671              	.LBI192:
3703:STM32Cube_FW_N6/Drivers/STM32N6xx_HAL_Driver/Inc/stm32n6xx_ll_bus.h **** {
 4672              		.loc 2 3703 22 view .LVU1512
 4673              	.LBB193:
3705:STM32Cube_FW_N6/Drivers/STM32N6xx_HAL_Driver/Inc/stm32n6xx_ll_bus.h **** }
 4674              		.loc 2 3705 3 view .LVU1513
ARM GAS  C:\Users\DJESSOU\AppData\Local\Temp\cc3dm0Vf.s 			page 205


 4675 001c 4025     		movs	r5, #64
 4676              	.LBE193:
 4677              	.LBE192:
 969:Lib/Camera_Middleware/cmw_camera.c **** 
 4678              		.loc 1 969 3 is_stmt 0 view .LVU1514
 4679 001e 2F20     		movs	r0, #47
 4680              	.LBB195:
 4681              	.LBB194:
3705:STM32Cube_FW_N6/Drivers/STM32N6xx_HAL_Driver/Inc/stm32n6xx_ll_bus.h **** }
 4682              		.loc 2 3705 3 view .LVU1515
 4683 0020 C6F83C5A 		str	r5, [r6, #2620]
 4684              	.LVL402:
3705:STM32Cube_FW_N6/Drivers/STM32N6xx_HAL_Driver/Inc/stm32n6xx_ll_bus.h **** }
 4685              		.loc 2 3705 3 view .LVU1516
 4686              	.LBE194:
 4687              	.LBE195:
 966:Lib/Camera_Middleware/cmw_camera.c **** 
 4688              		.loc 1 966 3 is_stmt 1 view .LVU1517
 4689              	.LBB196:
 4690              	.LBI196:
3723:STM32Cube_FW_N6/Drivers/STM32N6xx_HAL_Driver/Inc/stm32n6xx_ll_bus.h **** {
 4691              		.loc 2 3723 22 view .LVU1518
 4692              	.LBB197:
3725:STM32Cube_FW_N6/Drivers/STM32N6xx_HAL_Driver/Inc/stm32n6xx_ll_bus.h **** }
 4693              		.loc 2 3725 3 view .LVU1519
 4694 0024 C4F83C52 		str	r5, [r4, #572]
 4695              	.LVL403:
3725:STM32Cube_FW_N6/Drivers/STM32N6xx_HAL_Driver/Inc/stm32n6xx_ll_bus.h **** }
 4696              		.loc 2 3725 3 is_stmt 0 view .LVU1520
 4697              	.LBE197:
 4698              	.LBE196:
 969:Lib/Camera_Middleware/cmw_camera.c **** 
 4699              		.loc 1 969 3 is_stmt 1 view .LVU1521
 4700 0028 FFF7FEFF 		bl	HAL_NVIC_DisableIRQ
 4701              	.LVL404:
 972:Lib/Camera_Middleware/cmw_camera.c **** }
 4702              		.loc 1 972 3 view .LVU1522
 4703              	.LBB198:
 4704              	.LBI198:
3683:STM32Cube_FW_N6/Drivers/STM32N6xx_HAL_Driver/Inc/stm32n6xx_ll_bus.h **** {
 4705              		.loc 2 3683 22 view .LVU1523
 4706              	.LBB199:
3685:STM32Cube_FW_N6/Drivers/STM32N6xx_HAL_Driver/Inc/stm32n6xx_ll_bus.h **** }
 4707              		.loc 2 3685 3 view .LVU1524
 4708 002c C4F87C52 		str	r5, [r4, #636]
 4709              	.LVL405:
3685:STM32Cube_FW_N6/Drivers/STM32N6xx_HAL_Driver/Inc/stm32n6xx_ll_bus.h **** }
 4710              		.loc 2 3685 3 is_stmt 0 view .LVU1525
 4711              	.LBE199:
 4712              	.LBE198:
 973:Lib/Camera_Middleware/cmw_camera.c **** 
 4713              		.loc 1 973 1 view .LVU1526
 4714 0030 70BD     		pop	{r4, r5, r6, pc}
 4715              	.L373:
 4716 0032 00BF     		.align	2
 4717              	.L372:
 4718 0034 00800256 		.word	1443004416
ARM GAS  C:\Users\DJESSOU\AppData\Local\Temp\cc3dm0Vf.s 			page 206


 4719              		.cfi_endproc
 4720              	.LFE898:
 4722              		.section	.text.CMW_CAMERA_SetDefaultSensorValues,"ax",%progbits
 4723              		.align	1
 4724              		.global	CMW_CAMERA_SetDefaultSensorValues
 4725              		.syntax unified
 4726              		.thumb
 4727              		.thumb_func
 4729              	CMW_CAMERA_SetDefaultSensorValues:
 4730              	.LVL406:
 4731              	.LFB914:
2151:Lib/Camera_Middleware/cmw_camera.c **** }
2152:Lib/Camera_Middleware/cmw_camera.c **** 
2153:Lib/Camera_Middleware/cmw_camera.c **** int32_t CMW_CAMERA_SetDefaultSensorValues( CMW_Advanced_Config_t *advanced_config )
2154:Lib/Camera_Middleware/cmw_camera.c **** {
 4732              		.loc 1 2154 1 is_stmt 1 view -0
 4733              		.cfi_startproc
 4734              		@ args = 0, pretend = 0, frame = 0
 4735              		@ frame_needed = 0, uses_anonymous_args = 0
2155:Lib/Camera_Middleware/cmw_camera.c ****   if (advanced_config == NULL)
 4736              		.loc 1 2155 3 view .LVU1528
2154:Lib/Camera_Middleware/cmw_camera.c ****   if (advanced_config == NULL)
 4737              		.loc 1 2154 1 is_stmt 0 view .LVU1529
 4738 0000 08B5     		push	{r3, lr}
 4739              		.cfi_def_cfa_offset 8
 4740              		.cfi_offset 3, -8
 4741              		.cfi_offset 14, -4
 4742              		.loc 1 2155 6 view .LVU1530
 4743 0002 F0B1     		cbz	r0, .L384
2156:Lib/Camera_Middleware/cmw_camera.c ****   {
2157:Lib/Camera_Middleware/cmw_camera.c ****     return CMW_ERROR_WRONG_PARAM;
2158:Lib/Camera_Middleware/cmw_camera.c ****   }
2159:Lib/Camera_Middleware/cmw_camera.c ****   switch (advanced_config->selected_sensor)
 4744              		.loc 1 2159 3 is_stmt 1 view .LVU1531
 4745 0004 0378     		ldrb	r3, [r0]	@ zero_extendqisi2
 4746 0006 013B     		subs	r3, r3, #1
 4747 0008 062B     		cmp	r3, #6
 4748 000a 1AD8     		bhi	.L384
 4749 000c DFE803F0 		tbb	[pc, r3]
 4750              	.L377:
 4751 0010 04       		.byte	(.L381-.L377)/2
 4752 0011 19       		.byte	(.L384-.L377)/2
 4753 0012 0D       		.byte	(.L380-.L377)/2
 4754 0013 11       		.byte	(.L379-.L377)/2
 4755 0014 09       		.byte	(.L378-.L377)/2
 4756 0015 19       		.byte	(.L384-.L377)/2
 4757 0016 15       		.byte	(.L376-.L377)/2
 4758 0017 00       		.p2align 1
 4759              	.L381:
2160:Lib/Camera_Middleware/cmw_camera.c ****   {
2161:Lib/Camera_Middleware/cmw_camera.c **** #if defined(USE_VD66GY_SENSOR)
2162:Lib/Camera_Middleware/cmw_camera.c ****   case CMW_VD66GY_Sensor:
2163:Lib/Camera_Middleware/cmw_camera.c ****     CMW_VD66GY_SetDefaultSensorValues(&advanced_config->config_sensor.vd66gy_config);
 4760              		.loc 1 2163 5 view .LVU1532
 4761 0018 0430     		adds	r0, r0, #4
 4762              	.LVL407:
 4763              		.loc 1 2163 5 is_stmt 0 view .LVU1533
ARM GAS  C:\Users\DJESSOU\AppData\Local\Temp\cc3dm0Vf.s 			page 207


 4764 001a FFF7FEFF 		bl	CMW_VD66GY_SetDefaultSensorValues
 4765              	.LVL408:
2164:Lib/Camera_Middleware/cmw_camera.c ****     break;
 4766              		.loc 1 2164 5 is_stmt 1 view .LVU1534
 4767              	.L382:
2165:Lib/Camera_Middleware/cmw_camera.c **** #endif
2166:Lib/Camera_Middleware/cmw_camera.c **** #if defined(USE_VD55G1_SENSOR)
2167:Lib/Camera_Middleware/cmw_camera.c ****   case CMW_VD55G1_Sensor:
2168:Lib/Camera_Middleware/cmw_camera.c ****     CMW_VD55G1_SetDefaultSensorValues(&advanced_config->config_sensor.vd55g1_config);
2169:Lib/Camera_Middleware/cmw_camera.c ****     break;
2170:Lib/Camera_Middleware/cmw_camera.c **** #endif
2171:Lib/Camera_Middleware/cmw_camera.c **** #if defined(USE_VD65G4_SENSOR)
2172:Lib/Camera_Middleware/cmw_camera.c ****   case CMW_VD65G4_Sensor:
2173:Lib/Camera_Middleware/cmw_camera.c ****     CMW_VD65G4_SetDefaultSensorValues(&advanced_config->config_sensor.vd65g4_config);
2174:Lib/Camera_Middleware/cmw_camera.c ****     break;
2175:Lib/Camera_Middleware/cmw_camera.c **** #endif
2176:Lib/Camera_Middleware/cmw_camera.c **** #if defined(USE_IMX335_SENSOR)
2177:Lib/Camera_Middleware/cmw_camera.c ****   case CMW_IMX335_Sensor:
2178:Lib/Camera_Middleware/cmw_camera.c ****     CMW_IMX335_SetDefaultSensorValues(&advanced_config->config_sensor.imx335_config);
2179:Lib/Camera_Middleware/cmw_camera.c ****     break;
2180:Lib/Camera_Middleware/cmw_camera.c **** #endif
2181:Lib/Camera_Middleware/cmw_camera.c **** #if defined(USE_OV5640_SENSOR)
2182:Lib/Camera_Middleware/cmw_camera.c ****   case CMW_OV5640_Sensor:
2183:Lib/Camera_Middleware/cmw_camera.c ****     CMW_OV5640_SetDefaultSensorValues(&advanced_config->config_sensor.ov5640_config);
2184:Lib/Camera_Middleware/cmw_camera.c ****     break;
2185:Lib/Camera_Middleware/cmw_camera.c **** #endif
2186:Lib/Camera_Middleware/cmw_camera.c **** #if defined(USE_VD1943_SENSOR)
2187:Lib/Camera_Middleware/cmw_camera.c ****   case CMW_VD1943_Sensor:
2188:Lib/Camera_Middleware/cmw_camera.c ****     CMW_VD1943_SetDefaultSensorValues(&advanced_config->config_sensor.vd1943_config);
2189:Lib/Camera_Middleware/cmw_camera.c ****     break;
2190:Lib/Camera_Middleware/cmw_camera.c **** #endif
2191:Lib/Camera_Middleware/cmw_camera.c **** #if defined(USE_VD5943_SENSOR)
2192:Lib/Camera_Middleware/cmw_camera.c ****   case CMW_VD5943_Sensor:
2193:Lib/Camera_Middleware/cmw_camera.c ****     CMW_VD5943_SetDefaultSensorValues(&advanced_config->config_sensor.vd5943_config);
2194:Lib/Camera_Middleware/cmw_camera.c ****     break;
2195:Lib/Camera_Middleware/cmw_camera.c **** #endif
2196:Lib/Camera_Middleware/cmw_camera.c ****   default:
2197:Lib/Camera_Middleware/cmw_camera.c ****     return CMW_ERROR_WRONG_PARAM;
2198:Lib/Camera_Middleware/cmw_camera.c ****     break;
2199:Lib/Camera_Middleware/cmw_camera.c ****   }
2200:Lib/Camera_Middleware/cmw_camera.c **** 
2201:Lib/Camera_Middleware/cmw_camera.c ****   return CMW_ERROR_NONE;
 4768              		.loc 1 2201 10 is_stmt 0 view .LVU1535
 4769 001e 0020     		movs	r0, #0
 4770              	.L374:
2202:Lib/Camera_Middleware/cmw_camera.c **** }
 4771              		.loc 1 2202 1 view .LVU1536
 4772 0020 08BD     		pop	{r3, pc}
 4773              	.LVL409:
 4774              	.L378:
2168:Lib/Camera_Middleware/cmw_camera.c ****     break;
 4775              		.loc 1 2168 5 is_stmt 1 view .LVU1537
 4776 0022 0430     		adds	r0, r0, #4
 4777              	.LVL410:
2168:Lib/Camera_Middleware/cmw_camera.c ****     break;
 4778              		.loc 1 2168 5 is_stmt 0 view .LVU1538
 4779 0024 FFF7FEFF 		bl	CMW_VD55G1_SetDefaultSensorValues
ARM GAS  C:\Users\DJESSOU\AppData\Local\Temp\cc3dm0Vf.s 			page 208


 4780              	.LVL411:
2169:Lib/Camera_Middleware/cmw_camera.c **** #endif
 4781              		.loc 1 2169 5 is_stmt 1 view .LVU1539
 4782 0028 F9E7     		b	.L382
 4783              	.LVL412:
 4784              	.L380:
2178:Lib/Camera_Middleware/cmw_camera.c ****     break;
 4785              		.loc 1 2178 5 view .LVU1540
 4786 002a 0430     		adds	r0, r0, #4
 4787              	.LVL413:
2178:Lib/Camera_Middleware/cmw_camera.c ****     break;
 4788              		.loc 1 2178 5 is_stmt 0 view .LVU1541
 4789 002c FFF7FEFF 		bl	CMW_IMX335_SetDefaultSensorValues
 4790              	.LVL414:
2179:Lib/Camera_Middleware/cmw_camera.c **** #endif
 4791              		.loc 1 2179 5 is_stmt 1 view .LVU1542
 4792 0030 F5E7     		b	.L382
 4793              	.LVL415:
 4794              	.L379:
2183:Lib/Camera_Middleware/cmw_camera.c ****     break;
 4795              		.loc 1 2183 5 view .LVU1543
 4796 0032 0430     		adds	r0, r0, #4
 4797              	.LVL416:
2183:Lib/Camera_Middleware/cmw_camera.c ****     break;
 4798              		.loc 1 2183 5 is_stmt 0 view .LVU1544
 4799 0034 FFF7FEFF 		bl	CMW_OV5640_SetDefaultSensorValues
 4800              	.LVL417:
2184:Lib/Camera_Middleware/cmw_camera.c **** #endif
 4801              		.loc 1 2184 5 is_stmt 1 view .LVU1545
 4802 0038 F1E7     		b	.L382
 4803              	.LVL418:
 4804              	.L376:
2188:Lib/Camera_Middleware/cmw_camera.c ****     break;
 4805              		.loc 1 2188 5 view .LVU1546
 4806 003a 0430     		adds	r0, r0, #4
 4807              	.LVL419:
2188:Lib/Camera_Middleware/cmw_camera.c ****     break;
 4808              		.loc 1 2188 5 is_stmt 0 view .LVU1547
 4809 003c FFF7FEFF 		bl	CMW_VD1943_SetDefaultSensorValues
 4810              	.LVL420:
2189:Lib/Camera_Middleware/cmw_camera.c **** #endif
 4811              		.loc 1 2189 5 is_stmt 1 view .LVU1548
 4812 0040 EDE7     		b	.L382
 4813              	.LVL421:
 4814              	.L384:
2159:Lib/Camera_Middleware/cmw_camera.c ****   {
 4815              		.loc 1 2159 3 is_stmt 0 view .LVU1549
 4816 0042 6FF00100 		mvn	r0, #1
 4817              	.LVL422:
2159:Lib/Camera_Middleware/cmw_camera.c ****   {
 4818              		.loc 1 2159 3 view .LVU1550
 4819 0046 EBE7     		b	.L374
 4820              		.cfi_endproc
 4821              	.LFE914:
 4823              		.section	.text.HAL_DCMIPP_PIPE_ErrorCallback,"ax",%progbits
 4824              		.align	1
 4825              		.global	HAL_DCMIPP_PIPE_ErrorCallback
ARM GAS  C:\Users\DJESSOU\AppData\Local\Temp\cc3dm0Vf.s 			page 209


 4826              		.syntax unified
 4827              		.thumb
 4828              		.thumb_func
 4830              	HAL_DCMIPP_PIPE_ErrorCallback:
 4831              	.LVL423:
 4832              	.LFB915:
2203:Lib/Camera_Middleware/cmw_camera.c **** 
2204:Lib/Camera_Middleware/cmw_camera.c **** /**
2205:Lib/Camera_Middleware/cmw_camera.c ****   * @brief  Error callback on the pipe. Occurs when overrun occurs on the pipe.
2206:Lib/Camera_Middleware/cmw_camera.c ****   * @param  hdcmipp  Pointer to DCMIPP handle
2207:Lib/Camera_Middleware/cmw_camera.c ****   * @param  Pipe     Specifies the DCMIPP pipe, can be a value from @ref DCMIPP_Pipes
2208:Lib/Camera_Middleware/cmw_camera.c ****   * @retval None
2209:Lib/Camera_Middleware/cmw_camera.c ****   */
2210:Lib/Camera_Middleware/cmw_camera.c **** void HAL_DCMIPP_PIPE_ErrorCallback(DCMIPP_HandleTypeDef *hdcmipp, uint32_t Pipe)
2211:Lib/Camera_Middleware/cmw_camera.c **** {
 4833              		.loc 1 2211 1 is_stmt 1 view -0
 4834              		.cfi_startproc
 4835              		@ args = 0, pretend = 0, frame = 0
 4836              		@ frame_needed = 0, uses_anonymous_args = 0
2212:Lib/Camera_Middleware/cmw_camera.c ****   UNUSED(hdcmipp);
 4837              		.loc 1 2212 3 view .LVU1552
2213:Lib/Camera_Middleware/cmw_camera.c **** 
2214:Lib/Camera_Middleware/cmw_camera.c ****   CMW_CAMERA_PIPE_ErrorCallback(Pipe);
 4838              		.loc 1 2214 3 view .LVU1553
2211:Lib/Camera_Middleware/cmw_camera.c ****   UNUSED(hdcmipp);
 4839              		.loc 1 2211 1 is_stmt 0 view .LVU1554
 4840 0000 08B5     		push	{r3, lr}
 4841              		.cfi_def_cfa_offset 8
 4842              		.cfi_offset 3, -8
 4843              		.cfi_offset 14, -4
 4844              		.loc 1 2214 3 view .LVU1555
 4845 0002 0846     		mov	r0, r1
 4846              	.LVL424:
 4847              		.loc 1 2214 3 view .LVU1556
 4848 0004 FFF7FEFF 		bl	CMW_CAMERA_PIPE_ErrorCallback
 4849              	.LVL425:
2215:Lib/Camera_Middleware/cmw_camera.c **** }
 4850              		.loc 1 2215 1 view .LVU1557
 4851 0008 08BD     		pop	{r3, pc}
 4852              		.cfi_endproc
 4853              	.LFE915:
 4855              		.section	.rodata.__func__.0,"a"
 4858              	__func__.0:
 4859 0000 434D575F 		.ascii	"CMW_CAMERA_PIPE_ErrorCallback\000"
 4859      43414D45 
 4859      52415F50 
 4859      4950455F 
 4859      4572726F 
 4860              		.global	is_pipe1_2_shared
 4861              		.section	.bss.is_pipe1_2_shared,"aw",%nobits
 4862              		.align	2
 4865              	is_pipe1_2_shared:
 4866 0000 00000000 		.space	4
 4867              		.global	is_camera_started
 4868              		.section	.bss.is_camera_started,"aw",%nobits
 4869              		.align	2
 4872              	is_camera_started:
ARM GAS  C:\Users\DJESSOU\AppData\Local\Temp\cc3dm0Vf.s 			page 210


 4873 0000 00000000 		.space	4
 4874              		.global	is_camera_init
 4875              		.section	.bss.is_camera_init,"aw",%nobits
 4876              		.align	2
 4879              	is_camera_init:
 4880 0000 00000000 		.space	4
 4881              		.section	.bss.camera_bsp,"aw",%nobits
 4882              		.align	2
 4885              	camera_bsp:
 4886 0000 00000000 		.space	360
 4886      00000000 
 4886      00000000 
 4886      00000000 
 4886      00000000 
 4887              		.section	.bss.Camera_Drv,"aw",%nobits
 4888              		.align	2
 4891              	Camera_Drv:
 4892 0000 00000000 		.space	108
 4892      00000000 
 4892      00000000 
 4892      00000000 
 4892      00000000 
 4893              		.global	hcamera_dcmipp
 4894              		.section	.bss.hcamera_dcmipp,"aw",%nobits
 4895              		.align	2
 4898              	hcamera_dcmipp:
 4899 0000 00000000 		.space	12
 4899      00000000 
 4899      00000000 
 4900              		.global	Camera_Ctx
 4901              		.section	.bss.Camera_Ctx,"aw",%nobits
 4902              		.align	2
 4905              	Camera_Ctx:
 4906 0000 00000000 		.space	64
 4906      00000000 
 4906      00000000 
 4906      00000000 
 4906      00000000 
 4907              		.global	connected_sensor
 4908              		.section	.bss.connected_sensor,"aw",%nobits
 4911              	connected_sensor:
 4912 0000 00       		.space	1
 4913              		.global	camera_conf
 4914              		.section	.bss.camera_conf,"aw",%nobits
 4915              		.align	2
 4918              	camera_conf:
 4919 0000 00000000 		.space	16
 4919      00000000 
 4919      00000000 
 4919      00000000 
 4920              		.section	.rodata
 4921              		.align	1
 4922              		.set	.LANCHOR0,. + 0
 4923              	.LC0:
 4924 0000 01       		.byte	1
 4925 0001 00       		.byte	0
 4926 0002 8300     		.short	131
ARM GAS  C:\Users\DJESSOU\AppData\Local\Temp\cc3dm0Vf.s 			page 211


 4927 0004 9207     		.short	1938
 4928 0006 EB07     		.short	2027
 4929 0008 8000     		.short	128
 4930 000a 4D00     		.short	77
 4931 000c 9600     		.short	150
 4932 000e 1D00     		.short	29
 4933 0010 0000     		.short	0
 4934 0012 D407     		.short	2004
 4935 0014 A907     		.short	1961
 4936 0016 8300     		.short	131
 4937 0018 8000     		.short	128
 4938              		.text
 4939              	.Letext0:
 4940              		.file 3 "C:\\ST\\STM32CubeIDE_1.18.1\\STM32CubeIDE\\plugins\\com.st.stm32cube.ide.mcu.externaltool
 4941              		.file 4 "STM32Cube_FW_N6/Drivers/CMSIS/Device/ST/STM32N6xx/Include/stm32n657xx.h"
 4942              		.file 5 "C:\\ST\\STM32CubeIDE_1.18.1\\STM32CubeIDE\\plugins\\com.st.stm32cube.ide.mcu.externaltool
 4943              		.file 6 "C:\\ST\\STM32CubeIDE_1.18.1\\STM32CubeIDE\\plugins\\com.st.stm32cube.ide.mcu.externaltool
 4944              		.file 7 "STM32Cube_FW_N6/Drivers/CMSIS/Device/ST/STM32N6xx/Include/stm32n6xx.h"
 4945              		.file 8 "STM32Cube_FW_N6/Drivers/STM32N6xx_HAL_Driver/Inc/stm32n6xx_hal_def.h"
 4946              		.file 9 "STM32Cube_FW_N6/Drivers/STM32N6xx_HAL_Driver/Inc/stm32n6xx_hal_gpio.h"
 4947              		.file 10 "STM32Cube_FW_N6/Drivers/STM32N6xx_HAL_Driver/Inc/stm32n6xx_hal_dcmipp.h"
 4948              		.file 11 "C:\\ST\\STM32CubeIDE_1.18.1\\STM32CubeIDE\\plugins\\com.st.stm32cube.ide.mcu.externaltoo
 4949              		.file 12 "C:\\ST\\STM32CubeIDE_1.18.1\\STM32CubeIDE\\plugins\\com.st.stm32cube.ide.mcu.externaltoo
 4950              		.file 13 "Lib/Camera_Middleware/ISP_Library/isp/Inc/isp_core.h"
 4951              		.file 14 "Lib/Camera_Middleware/sensors/cmw_sensors_if.h"
 4952              		.file 15 "Lib/Camera_Middleware/cmw_camera.h"
 4953              		.file 16 "Lib/Camera_Middleware/sensors/vd55g1/vd55g1.h"
 4954              		.file 17 "Lib/Camera_Middleware/sensors/cmw_vd55g1.h"
 4955              		.file 18 "Lib/Camera_Middleware/sensors/imx335/imx335_reg.h"
 4956              		.file 19 "Lib/Camera_Middleware/sensors/imx335/imx335.h"
 4957              		.file 20 "Lib/Camera_Middleware/sensors/cmw_imx335.h"
 4958              		.file 21 "Lib/Camera_Middleware/sensors/ov5640/ov5640_reg.h"
 4959              		.file 22 "Lib/Camera_Middleware/sensors/ov5640/ov5640.h"
 4960              		.file 23 "Lib/Camera_Middleware/sensors/cmw_ov5640.h"
 4961              		.file 24 "Lib/Camera_Middleware/sensors/vd6g/vd6g.h"
 4962              		.file 25 "Lib/Camera_Middleware/sensors/cmw_vd66gy.h"
 4963              		.file 26 "Lib/Camera_Middleware/sensors/vd1943/vd1943.h"
 4964              		.file 27 "Lib/Camera_Middleware/sensors/cmw_vd1943.h"
 4965              		.file 28 "STM32Cube_FW_N6/Drivers/STM32N6xx_HAL_Driver/Inc/stm32n6xx_hal_cortex.h"
 4966              		.file 29 "C:\\ST\\STM32CubeIDE_1.18.1\\STM32CubeIDE\\plugins\\com.st.stm32cube.ide.mcu.externaltoo
 4967              		.file 30 "Lib/Camera_Middleware/ISP_Library/isp/Inc/isp_api.h"
 4968              		.file 31 "Lib/Camera_Middleware/cmw_utils.h"
 4969              		.file 32 "STM32Cube_FW_N6/Drivers/STM32N6xx_HAL_Driver/Inc/stm32n6xx_hal.h"
 4970              		.file 33 "STM32Cube_FW_N6/Drivers/BSP/STM32N6570-DK/stm32n6570_discovery_bus.h"
 4971              		.file 34 "C:\\ST\\STM32CubeIDE_1.18.1\\STM32CubeIDE\\plugins\\com.st.stm32cube.ide.mcu.externaltoo
 4972              		.file 35 "<built-in>"
 4973              		.file 36 "STM32Cube_FW_N6/Drivers/STM32N6xx_HAL_Driver/Inc/stm32n6xx_hal_pwr_ex.h"
ARM GAS  C:\Users\DJESSOU\AppData\Local\Temp\cc3dm0Vf.s 			page 212


DEFINED SYMBOLS
                            *ABS*:00000000 cmw_camera.c
C:\Users\DJESSOU\AppData\Local\Temp\cc3dm0Vf.s:26     .text.CB_ISP_GetSensorGain:00000000 $t
C:\Users\DJESSOU\AppData\Local\Temp\cc3dm0Vf.s:31     .text.CB_ISP_GetSensorGain:00000000 CB_ISP_GetSensorGain
C:\Users\DJESSOU\AppData\Local\Temp\cc3dm0Vf.s:69     .text.CB_ISP_GetSensorGain:0000000c $d
C:\Users\DJESSOU\AppData\Local\Temp\cc3dm0Vf.s:4905   .bss.Camera_Ctx:00000000 Camera_Ctx
C:\Users\DJESSOU\AppData\Local\Temp\cc3dm0Vf.s:74     .text.CB_ISP_GetSensorExposure:00000000 $t
C:\Users\DJESSOU\AppData\Local\Temp\cc3dm0Vf.s:79     .text.CB_ISP_GetSensorExposure:00000000 CB_ISP_GetSensorExposure
C:\Users\DJESSOU\AppData\Local\Temp\cc3dm0Vf.s:117    .text.CB_ISP_GetSensorExposure:0000000c $d
C:\Users\DJESSOU\AppData\Local\Temp\cc3dm0Vf.s:122    .text.CB_ISP_GetSensorInfo:00000000 $t
C:\Users\DJESSOU\AppData\Local\Temp\cc3dm0Vf.s:127    .text.CB_ISP_GetSensorInfo:00000000 CB_ISP_GetSensorInfo
C:\Users\DJESSOU\AppData\Local\Temp\cc3dm0Vf.s:167    .text.CB_ISP_GetSensorInfo:00000018 $d
C:\Users\DJESSOU\AppData\Local\Temp\cc3dm0Vf.s:4891   .bss.Camera_Drv:00000000 Camera_Drv
C:\Users\DJESSOU\AppData\Local\Temp\cc3dm0Vf.s:4885   .bss.camera_bsp:00000000 camera_bsp
C:\Users\DJESSOU\AppData\Local\Temp\cc3dm0Vf.s:173    .text.CMW_CAMERA_EnablePin:00000000 $t
C:\Users\DJESSOU\AppData\Local\Temp\cc3dm0Vf.s:178    .text.CMW_CAMERA_EnablePin:00000000 CMW_CAMERA_EnablePin
C:\Users\DJESSOU\AppData\Local\Temp\cc3dm0Vf.s:199    .text.CMW_CAMERA_EnablePin:00000010 $d
C:\Users\DJESSOU\AppData\Local\Temp\cc3dm0Vf.s:204    .text.CMW_CAMERA_ShutdownPin:00000000 $t
C:\Users\DJESSOU\AppData\Local\Temp\cc3dm0Vf.s:209    .text.CMW_CAMERA_ShutdownPin:00000000 CMW_CAMERA_ShutdownPin
C:\Users\DJESSOU\AppData\Local\Temp\cc3dm0Vf.s:230    .text.CMW_CAMERA_ShutdownPin:00000010 $d
C:\Users\DJESSOU\AppData\Local\Temp\cc3dm0Vf.s:235    .text.CMW_CAMERA_Probe_Sensor.constprop.0:00000000 $t
C:\Users\DJESSOU\AppData\Local\Temp\cc3dm0Vf.s:240    .text.CMW_CAMERA_Probe_Sensor.constprop.0:00000000 CMW_CAMERA_Probe_Sensor.constprop.0
C:\Users\DJESSOU\AppData\Local\Temp\cc3dm0Vf.s:792    .text.CMW_CAMERA_Probe_Sensor.constprop.0:00000224 $d
C:\Users\DJESSOU\AppData\Local\Temp\cc3dm0Vf.s:4911   .bss.connected_sensor:00000000 connected_sensor
C:\Users\DJESSOU\AppData\Local\Temp\cc3dm0Vf.s:4898   .bss.hcamera_dcmipp:00000000 hcamera_dcmipp
C:\Users\DJESSOU\AppData\Local\Temp\cc3dm0Vf.s:814    .text.CMW_CAMERA_Probe_Sensor.constprop.0:00000254 $t
C:\Users\DJESSOU\AppData\Local\Temp\cc3dm0Vf.s:1071   .text.CMW_CAMERA_Probe_Sensor.constprop.0:00000358 $d
C:\Users\DJESSOU\AppData\Local\Temp\cc3dm0Vf.s:3425   .text.CB_ISP_SetSensorGain:00000000 CB_ISP_SetSensorGain
C:\Users\DJESSOU\AppData\Local\Temp\cc3dm0Vf.s:3566   .text.CB_ISP_SetSensorExposure:00000000 CB_ISP_SetSensorExposure
C:\Users\DJESSOU\AppData\Local\Temp\cc3dm0Vf.s:1093   .text.CMW_CAMERA_Probe_Sensor.constprop.0:00000388 $t
C:\Users\DJESSOU\AppData\Local\Temp\cc3dm0Vf.s:1682   .text.CMW_CAMERA_Probe_Sensor.constprop.0:000005f0 $d
C:\Users\DJESSOU\AppData\Local\Temp\cc3dm0Vf.s:1699   .text.CMW_CAMERA_EnableGPIOs:00000000 $t
C:\Users\DJESSOU\AppData\Local\Temp\cc3dm0Vf.s:1704   .text.CMW_CAMERA_EnableGPIOs:00000000 CMW_CAMERA_EnableGPIOs
C:\Users\DJESSOU\AppData\Local\Temp\cc3dm0Vf.s:1838   .text.CMW_CAMERA_EnableGPIOs:00000060 $d
C:\Users\DJESSOU\AppData\Local\Temp\cc3dm0Vf.s:1845   .text.CMW_CAMERA_GetDCMIPPHandle:00000000 $t
C:\Users\DJESSOU\AppData\Local\Temp\cc3dm0Vf.s:1851   .text.CMW_CAMERA_GetDCMIPPHandle:00000000 CMW_CAMERA_GetDCMIPPHandle
C:\Users\DJESSOU\AppData\Local\Temp\cc3dm0Vf.s:1865   .text.CMW_CAMERA_GetDCMIPPHandle:00000004 $d
C:\Users\DJESSOU\AppData\Local\Temp\cc3dm0Vf.s:1870   .text.CMW_CAMERA_SetPipeConfig:00000000 $t
C:\Users\DJESSOU\AppData\Local\Temp\cc3dm0Vf.s:1876   .text.CMW_CAMERA_SetPipeConfig:00000000 CMW_CAMERA_SetPipeConfig
C:\Users\DJESSOU\AppData\Local\Temp\cc3dm0Vf.s:2342   .text.CMW_CAMERA_SetPipeConfig:000001cc $d
C:\Users\DJESSOU\AppData\Local\Temp\cc3dm0Vf.s:4918   .bss.camera_conf:00000000 camera_conf
C:\Users\DJESSOU\AppData\Local\Temp\cc3dm0Vf.s:4865   .bss.is_pipe1_2_shared:00000000 is_pipe1_2_shared
C:\Users\DJESSOU\AppData\Local\Temp\cc3dm0Vf.s:2352   .text.CMW_CAMERA_SetWBRefMode:00000000 $t
C:\Users\DJESSOU\AppData\Local\Temp\cc3dm0Vf.s:2358   .text.CMW_CAMERA_SetWBRefMode:00000000 CMW_CAMERA_SetWBRefMode
C:\Users\DJESSOU\AppData\Local\Temp\cc3dm0Vf.s:2398   .text.CMW_CAMERA_SetWBRefMode:00000018 $d
C:\Users\DJESSOU\AppData\Local\Temp\cc3dm0Vf.s:2404   .text.CMW_CAMERA_ListWBRefModes:00000000 $t
C:\Users\DJESSOU\AppData\Local\Temp\cc3dm0Vf.s:2410   .text.CMW_CAMERA_ListWBRefModes:00000000 CMW_CAMERA_ListWBRefModes
C:\Users\DJESSOU\AppData\Local\Temp\cc3dm0Vf.s:2447   .text.CMW_CAMERA_ListWBRefModes:00000018 $d
C:\Users\DJESSOU\AppData\Local\Temp\cc3dm0Vf.s:2453   .text.CMW_CAMERA_SetMirrorFlip:00000000 $t
C:\Users\DJESSOU\AppData\Local\Temp\cc3dm0Vf.s:2459   .text.CMW_CAMERA_SetMirrorFlip:00000000 CMW_CAMERA_SetMirrorFlip
C:\Users\DJESSOU\AppData\Local\Temp\cc3dm0Vf.s:2519   .text.CMW_CAMERA_SetMirrorFlip:00000024 $d
C:\Users\DJESSOU\AppData\Local\Temp\cc3dm0Vf.s:2526   .text.CMW_CAMERA_GetMirrorFlip:00000000 $t
C:\Users\DJESSOU\AppData\Local\Temp\cc3dm0Vf.s:2532   .text.CMW_CAMERA_GetMirrorFlip:00000000 CMW_CAMERA_GetMirrorFlip
C:\Users\DJESSOU\AppData\Local\Temp\cc3dm0Vf.s:2555   .text.CMW_CAMERA_GetMirrorFlip:0000000c $d
C:\Users\DJESSOU\AppData\Local\Temp\cc3dm0Vf.s:2560   .text.CMW_CAMERA_Start:00000000 $t
C:\Users\DJESSOU\AppData\Local\Temp\cc3dm0Vf.s:2566   .text.CMW_CAMERA_Start:00000000 CMW_CAMERA_Start
C:\Users\DJESSOU\AppData\Local\Temp\cc3dm0Vf.s:2665   .text.CMW_CAMERA_Start:00000048 $d
ARM GAS  C:\Users\DJESSOU\AppData\Local\Temp\cc3dm0Vf.s 			page 213


C:\Users\DJESSOU\AppData\Local\Temp\cc3dm0Vf.s:4872   .bss.is_camera_started:00000000 is_camera_started
C:\Users\DJESSOU\AppData\Local\Temp\cc3dm0Vf.s:2673   .text.CMW_CAMERA_DoubleBufferStart:00000000 $t
C:\Users\DJESSOU\AppData\Local\Temp\cc3dm0Vf.s:2679   .text.CMW_CAMERA_DoubleBufferStart:00000000 CMW_CAMERA_DoubleBufferStart
C:\Users\DJESSOU\AppData\Local\Temp\cc3dm0Vf.s:2775   .text.CMW_CAMERA_DoubleBufferStart:00000048 $d
C:\Users\DJESSOU\AppData\Local\Temp\cc3dm0Vf.s:2783   .text.MX_DCMIPP_ClockConfig:00000000 $t
C:\Users\DJESSOU\AppData\Local\Temp\cc3dm0Vf.s:2789   .text.MX_DCMIPP_ClockConfig:00000000 MX_DCMIPP_ClockConfig
C:\Users\DJESSOU\AppData\Local\Temp\cc3dm0Vf.s:2808   .text.CMW_CAMERA_GetSensorName:00000000 $t
C:\Users\DJESSOU\AppData\Local\Temp\cc3dm0Vf.s:2814   .text.CMW_CAMERA_GetSensorName:00000000 CMW_CAMERA_GetSensorName
C:\Users\DJESSOU\AppData\Local\Temp\cc3dm0Vf.s:2931   .text.CMW_CAMERA_GetSensorName:00000058 $d
C:\Users\DJESSOU\AppData\Local\Temp\cc3dm0Vf.s:4879   .bss.is_camera_init:00000000 is_camera_init
C:\Users\DJESSOU\AppData\Local\Temp\cc3dm0Vf.s:2939   .text.CMW_CAMERA_DeInit:00000000 $t
C:\Users\DJESSOU\AppData\Local\Temp\cc3dm0Vf.s:2945   .text.CMW_CAMERA_DeInit:00000000 CMW_CAMERA_DeInit
C:\Users\DJESSOU\AppData\Local\Temp\cc3dm0Vf.s:3142   .text.CMW_CAMERA_DeInit:000000c4 $d
C:\Users\DJESSOU\AppData\Local\Temp\cc3dm0Vf.s:3154   .text.CMW_CAMERA_Suspend:00000000 $t
C:\Users\DJESSOU\AppData\Local\Temp\cc3dm0Vf.s:3160   .text.CMW_CAMERA_Suspend:00000000 CMW_CAMERA_Suspend
C:\Users\DJESSOU\AppData\Local\Temp\cc3dm0Vf.s:3214   .text.CMW_CAMERA_Suspend:00000028 $d
C:\Users\DJESSOU\AppData\Local\Temp\cc3dm0Vf.s:3219   .text.CMW_CAMERA_Resume:00000000 $t
C:\Users\DJESSOU\AppData\Local\Temp\cc3dm0Vf.s:3225   .text.CMW_CAMERA_Resume:00000000 CMW_CAMERA_Resume
C:\Users\DJESSOU\AppData\Local\Temp\cc3dm0Vf.s:3273   .text.CMW_CAMERA_Resume:00000020 $d
C:\Users\DJESSOU\AppData\Local\Temp\cc3dm0Vf.s:3278   .text.CMW_CAMERA_EnableRestartState:00000000 $t
C:\Users\DJESSOU\AppData\Local\Temp\cc3dm0Vf.s:3284   .text.CMW_CAMERA_EnableRestartState:00000000 CMW_CAMERA_EnableRestartState
C:\Users\DJESSOU\AppData\Local\Temp\cc3dm0Vf.s:3315   .text.CMW_CAMERA_DisableRestartState:00000000 $t
C:\Users\DJESSOU\AppData\Local\Temp\cc3dm0Vf.s:3321   .text.CMW_CAMERA_DisableRestartState:00000000 CMW_CAMERA_DisableRestartState
C:\Users\DJESSOU\AppData\Local\Temp\cc3dm0Vf.s:3348   .text.CMW_CAMERA_SetGain:00000000 $t
C:\Users\DJESSOU\AppData\Local\Temp\cc3dm0Vf.s:3354   .text.CMW_CAMERA_SetGain:00000000 CMW_CAMERA_SetGain
C:\Users\DJESSOU\AppData\Local\Temp\cc3dm0Vf.s:3413   .text.CMW_CAMERA_SetGain:00000024 $d
C:\Users\DJESSOU\AppData\Local\Temp\cc3dm0Vf.s:3420   .text.CB_ISP_SetSensorGain:00000000 $t
C:\Users\DJESSOU\AppData\Local\Temp\cc3dm0Vf.s:3455   .text.CMW_CAMERA_GetGain:00000000 $t
C:\Users\DJESSOU\AppData\Local\Temp\cc3dm0Vf.s:3461   .text.CMW_CAMERA_GetGain:00000000 CMW_CAMERA_GetGain
C:\Users\DJESSOU\AppData\Local\Temp\cc3dm0Vf.s:3484   .text.CMW_CAMERA_GetGain:0000000c $d
C:\Users\DJESSOU\AppData\Local\Temp\cc3dm0Vf.s:3489   .text.CMW_CAMERA_SetExposure:00000000 $t
C:\Users\DJESSOU\AppData\Local\Temp\cc3dm0Vf.s:3495   .text.CMW_CAMERA_SetExposure:00000000 CMW_CAMERA_SetExposure
C:\Users\DJESSOU\AppData\Local\Temp\cc3dm0Vf.s:3554   .text.CMW_CAMERA_SetExposure:00000024 $d
C:\Users\DJESSOU\AppData\Local\Temp\cc3dm0Vf.s:3561   .text.CB_ISP_SetSensorExposure:00000000 $t
C:\Users\DJESSOU\AppData\Local\Temp\cc3dm0Vf.s:3596   .text.CMW_CAMERA_GetExposure:00000000 $t
C:\Users\DJESSOU\AppData\Local\Temp\cc3dm0Vf.s:3602   .text.CMW_CAMERA_GetExposure:00000000 CMW_CAMERA_GetExposure
C:\Users\DJESSOU\AppData\Local\Temp\cc3dm0Vf.s:3625   .text.CMW_CAMERA_GetExposure:0000000c $d
C:\Users\DJESSOU\AppData\Local\Temp\cc3dm0Vf.s:3630   .text.CMW_CAMERA_SetExposureMode:00000000 $t
C:\Users\DJESSOU\AppData\Local\Temp\cc3dm0Vf.s:3636   .text.CMW_CAMERA_SetExposureMode:00000000 CMW_CAMERA_SetExposureMode
C:\Users\DJESSOU\AppData\Local\Temp\cc3dm0Vf.s:3695   .text.CMW_CAMERA_SetExposureMode:00000024 $d
C:\Users\DJESSOU\AppData\Local\Temp\cc3dm0Vf.s:3702   .text.CMW_CAMERA_GetExposureMode:00000000 $t
C:\Users\DJESSOU\AppData\Local\Temp\cc3dm0Vf.s:3708   .text.CMW_CAMERA_GetExposureMode:00000000 CMW_CAMERA_GetExposureMode
C:\Users\DJESSOU\AppData\Local\Temp\cc3dm0Vf.s:3731   .text.CMW_CAMERA_GetExposureMode:0000000c $d
C:\Users\DJESSOU\AppData\Local\Temp\cc3dm0Vf.s:3736   .text.CMW_CAMERA_SetTestPattern:00000000 $t
C:\Users\DJESSOU\AppData\Local\Temp\cc3dm0Vf.s:3742   .text.CMW_CAMERA_SetTestPattern:00000000 CMW_CAMERA_SetTestPattern
C:\Users\DJESSOU\AppData\Local\Temp\cc3dm0Vf.s:3801   .text.CMW_CAMERA_SetTestPattern:00000024 $d
C:\Users\DJESSOU\AppData\Local\Temp\cc3dm0Vf.s:3808   .text.CMW_CAMERA_GetTestPattern:00000000 $t
C:\Users\DJESSOU\AppData\Local\Temp\cc3dm0Vf.s:3814   .text.CMW_CAMERA_GetTestPattern:00000000 CMW_CAMERA_GetTestPattern
C:\Users\DJESSOU\AppData\Local\Temp\cc3dm0Vf.s:3837   .text.CMW_CAMERA_GetTestPattern:0000000c $d
C:\Users\DJESSOU\AppData\Local\Temp\cc3dm0Vf.s:3842   .text.CMW_CAMERA_GetSensorInfo:00000000 $t
C:\Users\DJESSOU\AppData\Local\Temp\cc3dm0Vf.s:3848   .text.CMW_CAMERA_GetSensorInfo:00000000 CMW_CAMERA_GetSensorInfo
C:\Users\DJESSOU\AppData\Local\Temp\cc3dm0Vf.s:3897   .text.CMW_CAMERA_GetSensorInfo:00000020 $d
C:\Users\DJESSOU\AppData\Local\Temp\cc3dm0Vf.s:3903   .text.CMW_CAMERA_Init:00000000 $t
C:\Users\DJESSOU\AppData\Local\Temp\cc3dm0Vf.s:3909   .text.CMW_CAMERA_Init:00000000 CMW_CAMERA_Init
C:\Users\DJESSOU\AppData\Local\Temp\cc3dm0Vf.s:4116   .text.CMW_CAMERA_Init:000000a8 $d
C:\Users\DJESSOU\AppData\Local\Temp\cc3dm0Vf.s:4125   .text.CMW_CAMERA_Run:00000000 $t
C:\Users\DJESSOU\AppData\Local\Temp\cc3dm0Vf.s:4131   .text.CMW_CAMERA_Run:00000000 CMW_CAMERA_Run
ARM GAS  C:\Users\DJESSOU\AppData\Local\Temp\cc3dm0Vf.s 			page 214


C:\Users\DJESSOU\AppData\Local\Temp\cc3dm0Vf.s:4156   .text.CMW_CAMERA_Run:00000010 $d
C:\Users\DJESSOU\AppData\Local\Temp\cc3dm0Vf.s:4162   .text.CMW_CAMERA_PIPE_VsyncEventCallback:00000000 $t
C:\Users\DJESSOU\AppData\Local\Temp\cc3dm0Vf.s:4168   .text.CMW_CAMERA_PIPE_VsyncEventCallback:00000000 CMW_CAMERA_PIPE_VsyncEventCallback
C:\Users\DJESSOU\AppData\Local\Temp\cc3dm0Vf.s:4181   .text.CMW_CAMERA_PIPE_FrameEventCallback:00000000 $t
C:\Users\DJESSOU\AppData\Local\Temp\cc3dm0Vf.s:4187   .text.CMW_CAMERA_PIPE_FrameEventCallback:00000000 CMW_CAMERA_PIPE_FrameEventCallback
C:\Users\DJESSOU\AppData\Local\Temp\cc3dm0Vf.s:4211   .text.CMW_CAMERA_PIPE_ErrorCallback:00000000 $t
C:\Users\DJESSOU\AppData\Local\Temp\cc3dm0Vf.s:4217   .text.CMW_CAMERA_PIPE_ErrorCallback:00000000 CMW_CAMERA_PIPE_ErrorCallback
C:\Users\DJESSOU\AppData\Local\Temp\cc3dm0Vf.s:4242   .text.CMW_CAMERA_PIPE_ErrorCallback:00000010 $d
C:\Users\DJESSOU\AppData\Local\Temp\cc3dm0Vf.s:4858   .rodata.__func__.0:00000000 __func__.0
C:\Users\DJESSOU\AppData\Local\Temp\cc3dm0Vf.s:4249   .text.HAL_DCMIPP_PIPE_VsyncEventCallback:00000000 $t
C:\Users\DJESSOU\AppData\Local\Temp\cc3dm0Vf.s:4255   .text.HAL_DCMIPP_PIPE_VsyncEventCallback:00000000 HAL_DCMIPP_PIPE_VsyncEventCallback
C:\Users\DJESSOU\AppData\Local\Temp\cc3dm0Vf.s:4295   .text.HAL_DCMIPP_PIPE_VsyncEventCallback:00000018 $d
C:\Users\DJESSOU\AppData\Local\Temp\cc3dm0Vf.s:4301   .text.HAL_DCMIPP_PIPE_FrameEventCallback:00000000 $t
C:\Users\DJESSOU\AppData\Local\Temp\cc3dm0Vf.s:4307   .text.HAL_DCMIPP_PIPE_FrameEventCallback:00000000 HAL_DCMIPP_PIPE_FrameEventCallback
C:\Users\DJESSOU\AppData\Local\Temp\cc3dm0Vf.s:4347   .text.HAL_DCMIPP_PIPE_FrameEventCallback:00000018 $d
C:\Users\DJESSOU\AppData\Local\Temp\cc3dm0Vf.s:4353   .text.HAL_DCMIPP_MspInit:00000000 $t
C:\Users\DJESSOU\AppData\Local\Temp\cc3dm0Vf.s:4359   .text.HAL_DCMIPP_MspInit:00000000 HAL_DCMIPP_MspInit
C:\Users\DJESSOU\AppData\Local\Temp\cc3dm0Vf.s:4586   .text.HAL_DCMIPP_MspInit:00000074 $d
C:\Users\DJESSOU\AppData\Local\Temp\cc3dm0Vf.s:4591   .text.HAL_DCMIPP_MspDeInit:00000000 $t
C:\Users\DJESSOU\AppData\Local\Temp\cc3dm0Vf.s:4597   .text.HAL_DCMIPP_MspDeInit:00000000 HAL_DCMIPP_MspDeInit
C:\Users\DJESSOU\AppData\Local\Temp\cc3dm0Vf.s:4718   .text.HAL_DCMIPP_MspDeInit:00000034 $d
C:\Users\DJESSOU\AppData\Local\Temp\cc3dm0Vf.s:4723   .text.CMW_CAMERA_SetDefaultSensorValues:00000000 $t
C:\Users\DJESSOU\AppData\Local\Temp\cc3dm0Vf.s:4729   .text.CMW_CAMERA_SetDefaultSensorValues:00000000 CMW_CAMERA_SetDefaultSensorValues
C:\Users\DJESSOU\AppData\Local\Temp\cc3dm0Vf.s:4751   .text.CMW_CAMERA_SetDefaultSensorValues:00000010 $d
C:\Users\DJESSOU\AppData\Local\Temp\cc3dm0Vf.s:4824   .text.HAL_DCMIPP_PIPE_ErrorCallback:00000000 $t
C:\Users\DJESSOU\AppData\Local\Temp\cc3dm0Vf.s:4830   .text.HAL_DCMIPP_PIPE_ErrorCallback:00000000 HAL_DCMIPP_PIPE_ErrorCallback
C:\Users\DJESSOU\AppData\Local\Temp\cc3dm0Vf.s:4862   .bss.is_pipe1_2_shared:00000000 $d
C:\Users\DJESSOU\AppData\Local\Temp\cc3dm0Vf.s:4869   .bss.is_camera_started:00000000 $d
C:\Users\DJESSOU\AppData\Local\Temp\cc3dm0Vf.s:4876   .bss.is_camera_init:00000000 $d
C:\Users\DJESSOU\AppData\Local\Temp\cc3dm0Vf.s:4882   .bss.camera_bsp:00000000 $d
C:\Users\DJESSOU\AppData\Local\Temp\cc3dm0Vf.s:4888   .bss.Camera_Drv:00000000 $d
C:\Users\DJESSOU\AppData\Local\Temp\cc3dm0Vf.s:4895   .bss.hcamera_dcmipp:00000000 $d
C:\Users\DJESSOU\AppData\Local\Temp\cc3dm0Vf.s:4902   .bss.Camera_Ctx:00000000 $d
C:\Users\DJESSOU\AppData\Local\Temp\cc3dm0Vf.s:4912   .bss.connected_sensor:00000000 $d
C:\Users\DJESSOU\AppData\Local\Temp\cc3dm0Vf.s:4915   .bss.camera_conf:00000000 $d
C:\Users\DJESSOU\AppData\Local\Temp\cc3dm0Vf.s:4921   .rodata:00000000 $d
C:\Users\DJESSOU\AppData\Local\Temp\cc3dm0Vf.s:4758   .text.CMW_CAMERA_SetDefaultSensorValues:00000017 $d
C:\Users\DJESSOU\AppData\Local\Temp\cc3dm0Vf.s:4758   .text.CMW_CAMERA_SetDefaultSensorValues:00000018 $t
                           .group:00000000 wm4.0.c530a555507323ed657a04d5a22acbf4
                           .group:00000000 wm4.cmw_errno.h.21.91021ac9b2627a1ce6b8517d105715d1
                           .group:00000000 wm4.stm32n6xx_hal_conf.h.21.004a06df6e15ac197e03f723792da58a
                           .group:00000000 wm4.stddef.h.39.0dc9006b34572d4d9cae4c8b422c4971
                           .group:00000000 wm4.arm_cmse.h.103.a0d15a79c4c9a67da8d5831704d7248e
                           .group:00000000 wm4.stm32n6xx.h.34.c523a1ffdf274a69e8802892c6776332
                           .group:00000000 wm4.stm32n657xx.h.26.acd272cb67318cc1a4791ce2f0720ca6
                           .group:00000000 wm4._newlib_version.h.4.411db44ea2338a62eca2f0777f81481b
                           .group:00000000 wm4.features.h.33.e0c9f337c65cb9f22ed5f23d082bc78b
                           .group:00000000 wm4._default_types.h.15.247e5cd201eca3442cbf5404108c4935
                           .group:00000000 wm4._intsup.h.10.48bafbb683905c4daa4565a85aeeb264
                           .group:00000000 wm4._stdint.h.10.c24fa3af3bc1706662bb5593a907e841
                           .group:00000000 wm4.stdint.h.23.d53047a68f4a85177f80b422d52785ed
                           .group:00000000 wm4.cmsis_version.h.30.d128735bf87720f7436b74fefeb5043c
                           .group:00000000 wm4.core_cm55.h.67.25006a3ce7048d64bcddd2996d5fac93
                           .group:00000000 wm4.arm_acle.h.28.ce8f475a5cc50333e54ae4adeb8c0298
                           .group:00000000 wm4.cmsis_gcc.h.39.eba7438bc45fd1a6e6376b63ffe44436
                           .group:00000000 wm4.cmsis_gcc_m.h.24.e590ec51aeda3a1242400351d73f5dce
                           .group:00000000 wm4.core_cm55.h.213.0528f46a674315ef8d35c4477e230358
ARM GAS  C:\Users\DJESSOU\AppData\Local\Temp\cc3dm0Vf.s 			page 215


                           .group:00000000 wm4.armv8m_mpu.h.24.bf28cc25bee30a7ff9d2f7a44a5e2230
                           .group:00000000 wm4.armv8m_pmu.h.24.6ded195d2625055391fd378c0e1d2519
                           .group:00000000 wm4.core_cm55.h.4477.396e822ef855bcfb932819ad48de1c4c
                           .group:00000000 wm4.armv7m_cachel1.h.24.936dd92d6e204a8d0b17d5e4ea4a356e
                           .group:00000000 wm4.stm32n657xx.h.575.78d331c417ec710388ced647138f735f
                           .group:00000000 wm4.stm32n6xx.h.116.b4247d9785590e7c5ec9234ffb2153bf
                           .group:00000000 wm4.stm32_hal_legacy.h.22.e62aae2fd3ae33360b6781c8a72e5b18
                           .group:00000000 wm4.newlib.h.7.a37ffbe9e5aff74303f4e60b1cc1c01b
                           .group:00000000 wm4.ieeefp.h.77.bd5feb87d9990dd328793ced294f6a87
                           .group:00000000 wm4.config.h.224.10ee1ad185d877c6e334e6581faab44d
                           .group:00000000 wm4._ansi.h.31.de524f58584151836e90d8620a16f8e8
                           .group:00000000 wm4.cdefs.h.49.70fc7af612f78ddcace70fdd90b5623b
                           .group:00000000 wm4._types.h.20.dd0d04dca3800a0d2a6129b87f3adbb2
                           .group:00000000 wm4.stddef.h.158.6f8e08a347b1cff664332fa350bfceb3
                           .group:00000000 wm4._types.h.127.3bdfe3ff8ea2d0985b03d9cbe93480e3
                           .group:00000000 wm4.reent.h.18.25503cdc8b7e55dd0d6ea7b3e5af7a03
                           .group:00000000 wm4.lock.h.2.1461d1fff82dffe8bfddc23307f6484f
                           .group:00000000 wm4.reent.h.78.6b87466b04591b1f1cb88c14fdf2ba9e
                           .group:00000000 wm4.math.h.13.47cfc34cae8a1153323939c4d32cf7c2
                           .group:00000000 wm4.stm32n6xx_hal_def.h.63.3a8f01490e8852464e9fcb69092e9c75
                           .group:00000000 wm4.stm32n6xx_ll_bus.h.38.2366a295ee4cdb04833997d3787fcd2d
                           .group:00000000 wm4.stm32n6xx_ll_rcc.h.21.656bd5637db608589ad16ea57d39430c
                           .group:00000000 wm4.stm32n6xx_hal_rcc.h.194.69b522b1afdf59a82d05a1f71efe03c7
                           .group:00000000 wm4.stm32n6xx_hal_rcc_ex.h.21.cc6be0a7d168882a1a6f470236ba784c
                           .group:00000000 wm4.stm32n6xx_hal_rcc.h.4361.4b490a4a19722e68c21f88cb8a774a30
                           .group:00000000 wm4.stm32n6xx_hal_gpio.h.21.89d54af663b98eb8fc098192053f7eeb
                           .group:00000000 wm4.stm32n6xx_hal_gpio_ex.h.22.f7e795fb05a69a19b87d946b47c8db8b
                           .group:00000000 wm4.stm32n6xx_hal_rif.h.21.33f2c553a8a3fc14dca8c470b213ab19
                           .group:00000000 wm4.stm32n6xx_hal_dma.h.21.61e48c5c2e8d25d22177834b232fe45c
                           .group:00000000 wm4.stm32n6xx_hal_dma_ex.h.21.82f854ecdb6a463b06d0b4e5c217c368
                           .group:00000000 wm4.stm32n6xx_hal_dma.h.1020.87e2180c009560b617c1f8208140c950
                           .group:00000000 wm4.stm32n6xx_hal_cortex.h.21.f493623cc58f9454ab4eae41e395c5cc
                           .group:00000000 wm4.stm32n6xx_hal_bsec.h.21.1ee89319140541f82434908b4267aa30
                           .group:00000000 wm4.stm32n6xx_hal_dcmipp.h.21.e2b87dce83d7d722d696a597f6ac56bf
                           .group:00000000 wm4.stm32n6xx_hal_dma2d.h.21.75c8d46cdbb72970123b3f34ae2043d7
                           .group:00000000 wm4.stm32n6xx_hal_exti.h.21.e0efb23591051684dc14f1f2431c6aab
                           .group:00000000 wm4.stm32n6xx_hal_gfxmmu.h.21.9784a9103143d48bd3c37389d0e0b8e6
                           .group:00000000 wm4.stm32n6xx_hal_i2c.h.21.3f483626ff64c5bf027265bb2e1d1331
                           .group:00000000 wm4.stm32n6xx_hal_i2c_ex.h.21.79e9196c22282cdaf6b4047893638c45
                           .group:00000000 wm4.stm32n6xx_hal_i2c.h.741.1084702632703acc669e4282b3043372
                           .group:00000000 wm4.stm32n6xx_hal_icache.h.21.194b4ec6e76f32b14f65c85616854850
                           .group:00000000 wm4.stm32n6xx_hal_ltdc.h.21.ae1eb09930e7e550e48e418ac5849e4d
                           .group:00000000 wm4.stm32n6xx_hal_ltdc.h.1002.b13ede7fc94ed5ad1c6768a157d2149a
                           .group:00000000 wm4.stm32n6xx_ll_usb.h.21.daaf86158046f2cf02166c495d637480
                           .group:00000000 wm4.stm32n6xx_hal_pcd.h.155.27040aac6844effe2af8c180caf1dd2e
                           .group:00000000 wm4.stm32n6xx_hal_pwr.h.21.cdb73e4869c3fed3fc84f901ec0e5f0a
                           .group:00000000 wm4.stm32n6xx_hal_pwr_ex.h.21.1a673224a58b0c1e5fad8eeda6514208
                           .group:00000000 wm4.stm32n6xx_hal_ramcfg.h.21.a62dfbb4d2c14e9a8c634a215e37bd3d
                           .group:00000000 wm4.stm32n6xx_hal_spi.h.21.9f810303326e2d91749800e9911f8e4d
                           .group:00000000 wm4.stm32n6xx_hal_spi.h.906.8ad9375f39dce09dc0a4db0025ee7a76
                           .group:00000000 wm4.stm32n6xx_hal_tim.h.21.839dd2b2a70382fb2c44f8f293a84d5f
                           .group:00000000 wm4.stm32n6xx_hal_tim_ex.h.21.e372d5ac63c13441211ea4ecbd353150
                           .group:00000000 wm4.stm32n6xx_hal_uart.h.21.230f549bfa0d5ebfd77bfb311b2aca15
                           .group:00000000 wm4.stm32n6xx_hal_uart_ex.h.21.a0d5511e1d0703b7b5278c8f5472b96d
                           .group:00000000 wm4.stm32n6xx_hal_xspi.h.21.7fd922d3bdb871475cf18436a68935bb
                           .group:00000000 wm4.stm32n6xx_hal_cacheaxi.h.21.7c3375b7903ec42376e4883320997f74
                           .group:00000000 wm4.stm32n6xx_hal_gpu2d.h.21.48d0249122abad294a630c39cc4ebaed
ARM GAS  C:\Users\DJESSOU\AppData\Local\Temp\cc3dm0Vf.s 			page 216


                           .group:00000000 wm4.stm32n6xx_hal.h.81.e79d59262ba173c33cf1d69281830d15
                           .group:00000000 wm4.stm32n6570_discovery_conf.h.21.f52c8202689527a3dc0d9c6cba9c0416
                           .group:00000000 wm4.stm32n6570_discovery_errno.h.22.80e523b09444a11ebe4b6e24ae914f0e
                           .group:00000000 wm4.stm32n6570_discovery_bus.h.62.3b5b2c6837f7adeb489604fa214cd371
                           .group:00000000 wm4.isp_conf.h.21.bfb1d020517608810095aa56acf25d1e
                           .group:00000000 wm4.stdio.h.27.3fc80220048df77954e38daec3bb9670
                           .group:00000000 wm4.stddef.h.158.eec8bf00b5213f43d095cb984c5f22e3
                           .group:00000000 wm4.stdarg.h.34.3a23a216c0c293b3d2ea2e89281481e6
                           .group:00000000 wm4.stdio.h.47.dc31ec4674d7bcb103c9f08809549f45
                           .group:00000000 wm4.stdio.h.2.4aa87247282eca6c8f36f9de33d8df1a
                           .group:00000000 wm4.stdio.h.87.a1e20d2651f9bfb66e51bfbe849db00a
                           .group:00000000 wm4.stdlib.h.13.4ed386f5c1a80d71e72172885d946ef2
                           .group:00000000 wm4.alloca.h.8.dfc0c703c47ec3e69746825b17d9e66d
                           .group:00000000 wm4.stdlib.h.56.f4862cfbf4363a1db01842d5bdf72c18
                           .group:00000000 wm4.string.h.8.c4b8571ce60dff2817f43fec8b86aecd
                           .group:00000000 wm4.string.h.177.59a005921fa78485abc80a0267de5752
                           .group:00000000 wm4.stdbool.h.29.c08aa3eec75cf5b9b5003883f43253f0
                           .group:00000000 wm4.isp_core.h.110.8c4344a3506ac8fadc31ee17c3f6f7d7
                           .group:00000000 wm4.cmw_camera.h.33.3e21b0797a1f24d8d61aeb33a948c5cd
                           .group:00000000 wm4.cmw_io.h.21.5fb9d38191e0a2bda3ddcf46f5fdc728
                           .group:00000000 wm4.stdarg.h.31.7f63356e624ebff93a920b53ed006e12
                           .group:00000000 wm4.vd55g1.h.28.068e968b37c2441ab79f511edb8015dd
                           .group:00000000 wm4.imx335_reg.h.54.13b2bb4b7463faf527ee2adbd5473566
                           .group:00000000 wm4.imx335.h.97.fad55bf2e31aaad2c813472fe1d3dd56
                           .group:00000000 wm4.ov5640_reg.h.22.276fba8bd72fc2370a68b4e99b4e021b
                           .group:00000000 wm4.ov5640.h.105.8f6617c2cfa2f6b3a1c79e09c30f8efd
                           .group:00000000 wm4.vd6g.h.19.16db6d0dbd6c10fbfff05d1ad3557de4
                           .group:00000000 wm4.cmw_vd66gy.h.33.7c37f5fe9f778a07a67dc0c10297250d
                           .group:00000000 wm4.vd1943.h.19.91823f7867372dfadcdae64b3ff7a933
                           .group:00000000 wm4.cmw_vd1943.h.33.bb6d7a9ec9aad33d3ea135825dc230f4
                           .group:00000000 wm4.assert.h.11.db24e541f16414db224bf986d21017e2

UNDEFINED SYMBOLS
HAL_GPIO_WritePin
memset
CMW_OV5640_Probe
CMW_OV5640_SetDefaultSensorValues
HAL_DCMIPP_CSI_SetConfig
CMW_VD55G1_Probe
CMW_VD55G1_SetDefaultSensorValues
HAL_DCMIPP_CSI_SetVCConfig
HAL_DCMIPP_CSI_PIPE_SetConfig
BSP_I2C1_ReadReg16
BSP_GetTick
BSP_I2C1_WriteReg16
HAL_Delay
BSP_I2C1_Init
BSP_I2C1_DeInit
CMW_VD66GY_Probe
CMW_VD66GY_SetDefaultSensorValues
CMW_VD1943_Probe
CMW_VD1943_SetDefaultSensorValues
CMW_UTILS_getClosest_HAL_PHYBitrate
CMW_IMX335_Probe
CMW_IMX335_SetDefaultSensorValues
HAL_PWREx_EnableVddIO4
HAL_GPIO_Init
ARM GAS  C:\Users\DJESSOU\AppData\Local\Temp\cc3dm0Vf.s 			page 217


HAL_DCMIPP_PIPE_SetConfig
CMW_UTILS_GetPipeConfig
HAL_DCMIPP_PIPE_SetCropConfig
HAL_DCMIPP_PIPE_EnableCrop
HAL_DCMIPP_PIPE_DisableDecimation
HAL_DCMIPP_PIPE_DisableCrop
HAL_DCMIPP_PIPE_SetDecimationConfig
HAL_DCMIPP_PIPE_EnableDecimation
HAL_DCMIPP_PIPE_SetDownsizeConfig
HAL_DCMIPP_PIPE_EnableDownsize
HAL_DCMIPP_PIPE_EnableRedBlueSwap
HAL_DCMIPP_PIPE_CSI_EnableShare
HAL_DCMIPP_PIPE_SetYUVConversionConfig
HAL_DCMIPP_PIPE_EnableYUVConversion
HAL_DCMIPP_PIPE_DisableRedBlueSwap
HAL_DCMIPP_PIPE_EnableGammaConversion
HAL_DCMIPP_PIPE_DisableGammaConversion
HAL_DCMIPP_PIPE_SetPixelPackerFormat
HAL_DCMIPP_PIPE_SetPitch
HAL_DCMIPP_CSI_PIPE_Start
HAL_DCMIPP_CSI_PIPE_DoubleBufferStart
HAL_DCMIPP_Init
HAL_DCMIPP_PIPE_GetState
HAL_DCMIPP_DeInit
HAL_DCMIPP_CSI_PIPE_Stop
HAL_DCMIPP_PIPE_Suspend
HAL_DCMIPP_PIPE_Resume
ISP_EnableRestartState
ISP_DisableRestartState
__assert_func
HAL_NVIC_SetPriority
HAL_NVIC_EnableIRQ
HAL_NVIC_DisableIRQ
