ARM GAS  C:\Users\DJESSOU\AppData\Local\Temp\ccNVQBzK.s 			page 1


   1              		.arch armv8.1-m.main
   2              		.fpu fpv5-d16
   3              		.arch_extension dsp
   4              		.arch_extension fp
   5              		.arch_extension fp.dp
   6              		.arch_extension mve
   7              		.arch_extension mve.fp
   8              		.eabi_attribute 5, "cortex-m55"
   9              		.eabi_attribute 28, 1
  10              		.eabi_attribute 20, 1
  11              		.eabi_attribute 21, 1
  12              		.eabi_attribute 23, 3
  13              		.eabi_attribute 24, 1
  14              		.eabi_attribute 25, 1
  15              		.eabi_attribute 26, 1
  16              		.eabi_attribute 30, 4
  17              		.eabi_attribute 34, 1
  18              		.eabi_attribute 38, 1
  19              		.eabi_attribute 18, 4
  20              		.file	"cmw_vd55g1.c"
  21              		.text
  22              	.Ltext0:
  23              		.cfi_sections	.debug_frame
  24              		.file 1 "Lib/Camera_Middleware/sensors/cmw_vd55g1.c"
  25              		.section	.text.CMW_VD55G1_Read32,"ax",%progbits
  26              		.align	1
  27              		.syntax unified
  28              		.thumb
  29              		.thumb_func
  31              	CMW_VD55G1_Read32:
  32              	.LVL0:
  33              	.LFB867:
   1:Lib/Camera_Middleware/sensors/cmw_vd55g1.c **** /**
   2:Lib/Camera_Middleware/sensors/cmw_vd55g1.c ****   ******************************************************************************
   3:Lib/Camera_Middleware/sensors/cmw_vd55g1.c ****   * @file    cmw_vd55g1.c
   4:Lib/Camera_Middleware/sensors/cmw_vd55g1.c ****   * @author  MDG Application Team
   5:Lib/Camera_Middleware/sensors/cmw_vd55g1.c ****   ******************************************************************************
   6:Lib/Camera_Middleware/sensors/cmw_vd55g1.c ****   * @attention
   7:Lib/Camera_Middleware/sensors/cmw_vd55g1.c ****   *
   8:Lib/Camera_Middleware/sensors/cmw_vd55g1.c ****   * Copyright (c) 2024 STMicroelectronics.
   9:Lib/Camera_Middleware/sensors/cmw_vd55g1.c ****   * All rights reserved.
  10:Lib/Camera_Middleware/sensors/cmw_vd55g1.c ****   *
  11:Lib/Camera_Middleware/sensors/cmw_vd55g1.c ****   * This software is licensed under terms that can be found in the LICENSE file
  12:Lib/Camera_Middleware/sensors/cmw_vd55g1.c ****   * in the root directory of this software component.
  13:Lib/Camera_Middleware/sensors/cmw_vd55g1.c ****   * If no LICENSE file comes with this software, it is provided AS-IS.
  14:Lib/Camera_Middleware/sensors/cmw_vd55g1.c ****   *
  15:Lib/Camera_Middleware/sensors/cmw_vd55g1.c ****   ******************************************************************************
  16:Lib/Camera_Middleware/sensors/cmw_vd55g1.c ****   */
  17:Lib/Camera_Middleware/sensors/cmw_vd55g1.c **** 
  18:Lib/Camera_Middleware/sensors/cmw_vd55g1.c **** #include "cmw_vd55g1.h"
  19:Lib/Camera_Middleware/sensors/cmw_vd55g1.c **** 
  20:Lib/Camera_Middleware/sensors/cmw_vd55g1.c **** #include <assert.h>
  21:Lib/Camera_Middleware/sensors/cmw_vd55g1.c **** #include <stdlib.h>
  22:Lib/Camera_Middleware/sensors/cmw_vd55g1.c **** #include <stdio.h>
  23:Lib/Camera_Middleware/sensors/cmw_vd55g1.c **** #include <stddef.h>
  24:Lib/Camera_Middleware/sensors/cmw_vd55g1.c **** #include <string.h>
  25:Lib/Camera_Middleware/sensors/cmw_vd55g1.c **** #include "vd55g1.h"
ARM GAS  C:\Users\DJESSOU\AppData\Local\Temp\ccNVQBzK.s 			page 2


  26:Lib/Camera_Middleware/sensors/cmw_vd55g1.c **** #include "cmw_camera.h"
  27:Lib/Camera_Middleware/sensors/cmw_vd55g1.c **** #include "cmw_io.h"
  28:Lib/Camera_Middleware/sensors/cmw_vd55g1.c **** 
  29:Lib/Camera_Middleware/sensors/cmw_vd55g1.c **** #define VD55G1_CHIP_ID 0x53354731
  30:Lib/Camera_Middleware/sensors/cmw_vd55g1.c **** 
  31:Lib/Camera_Middleware/sensors/cmw_vd55g1.c **** #define container_of(ptr, type, member) (type *) ((unsigned char *)ptr - offsetof(type,member))
  32:Lib/Camera_Middleware/sensors/cmw_vd55g1.c **** 
  33:Lib/Camera_Middleware/sensors/cmw_vd55g1.c **** #ifndef MIN
  34:Lib/Camera_Middleware/sensors/cmw_vd55g1.c **** #define MIN(a, b)                           ((a) < (b) ?  (a) : (b))
  35:Lib/Camera_Middleware/sensors/cmw_vd55g1.c **** #endif
  36:Lib/Camera_Middleware/sensors/cmw_vd55g1.c **** 
  37:Lib/Camera_Middleware/sensors/cmw_vd55g1.c **** #define MDECIBEL_TO_LINEAR(mdB)             (pow(10.0, ((double)(mdB) / 1000.0) / 20.0))
  38:Lib/Camera_Middleware/sensors/cmw_vd55g1.c **** #define LINEAR_TO_MDECIBEL(linearValue)     (1000.0 * (20.0 * log10(linearValue)))
  39:Lib/Camera_Middleware/sensors/cmw_vd55g1.c **** 
  40:Lib/Camera_Middleware/sensors/cmw_vd55g1.c **** #define FLOAT_TO_FP58(x)                    ((((uint16_t)(x)) << 8) | ((uint16_t)(((x) - (uint16_t)
  41:Lib/Camera_Middleware/sensors/cmw_vd55g1.c **** #define FP58_TO_FLOAT(fp)                   (((fp) >> 8) + (((fp) & 0xFFU) / 256.0))
  42:Lib/Camera_Middleware/sensors/cmw_vd55g1.c **** 
  43:Lib/Camera_Middleware/sensors/cmw_vd55g1.c **** #define VD55G1_REG_MODEL_ID                           0x0000
  44:Lib/Camera_Middleware/sensors/cmw_vd55g1.c **** 
  45:Lib/Camera_Middleware/sensors/cmw_vd55g1.c **** static int CMW_VD55G1_Read8(CMW_VD55G1_t *pObj, uint16_t addr, uint8_t *value)
  46:Lib/Camera_Middleware/sensors/cmw_vd55g1.c **** {
  47:Lib/Camera_Middleware/sensors/cmw_vd55g1.c ****   return pObj->ReadReg(pObj->Address, addr, value, 1);
  48:Lib/Camera_Middleware/sensors/cmw_vd55g1.c **** }
  49:Lib/Camera_Middleware/sensors/cmw_vd55g1.c **** 
  50:Lib/Camera_Middleware/sensors/cmw_vd55g1.c **** static int CMW_VD55G1_Read16(CMW_VD55G1_t *pObj, uint16_t addr, uint16_t *value)
  51:Lib/Camera_Middleware/sensors/cmw_vd55g1.c **** {
  52:Lib/Camera_Middleware/sensors/cmw_vd55g1.c ****   uint8_t data[2];
  53:Lib/Camera_Middleware/sensors/cmw_vd55g1.c ****   int ret;
  54:Lib/Camera_Middleware/sensors/cmw_vd55g1.c **** 
  55:Lib/Camera_Middleware/sensors/cmw_vd55g1.c ****   ret = pObj->ReadReg(pObj->Address, addr, data, 2);
  56:Lib/Camera_Middleware/sensors/cmw_vd55g1.c ****   if (ret)
  57:Lib/Camera_Middleware/sensors/cmw_vd55g1.c ****     return ret;
  58:Lib/Camera_Middleware/sensors/cmw_vd55g1.c **** 
  59:Lib/Camera_Middleware/sensors/cmw_vd55g1.c ****   *value = (data[1] << 8) | data[0];
  60:Lib/Camera_Middleware/sensors/cmw_vd55g1.c **** 
  61:Lib/Camera_Middleware/sensors/cmw_vd55g1.c ****   return CMW_ERROR_NONE;
  62:Lib/Camera_Middleware/sensors/cmw_vd55g1.c **** }
  63:Lib/Camera_Middleware/sensors/cmw_vd55g1.c **** 
  64:Lib/Camera_Middleware/sensors/cmw_vd55g1.c **** static int CMW_VD55G1_Read32(CMW_VD55G1_t *pObj, uint16_t addr, uint32_t *value)
  65:Lib/Camera_Middleware/sensors/cmw_vd55g1.c **** {
  34              		.loc 1 65 1 view -0
  35              		.cfi_startproc
  36              		@ args = 0, pretend = 0, frame = 8
  37              		@ frame_needed = 0, uses_anonymous_args = 0
  66:Lib/Camera_Middleware/sensors/cmw_vd55g1.c ****   uint8_t data[4];
  38              		.loc 1 66 3 view .LVU1
  67:Lib/Camera_Middleware/sensors/cmw_vd55g1.c ****   int ret;
  39              		.loc 1 67 3 view .LVU2
  68:Lib/Camera_Middleware/sensors/cmw_vd55g1.c **** 
  69:Lib/Camera_Middleware/sensors/cmw_vd55g1.c ****   ret = pObj->ReadReg(pObj->Address, addr, data, 4);
  40              		.loc 1 69 3 view .LVU3
  41              		.loc 1 69 9 is_stmt 0 view .LVU4
  42 0000 0423     		movs	r3, #4
  65:Lib/Camera_Middleware/sensors/cmw_vd55g1.c ****   uint8_t data[4];
  43              		.loc 1 65 1 view .LVU5
  44 0002 37B5     		push	{r0, r1, r2, r4, r5, lr}
  45              		.cfi_def_cfa_offset 24
ARM GAS  C:\Users\DJESSOU\AppData\Local\Temp\ccNVQBzK.s 			page 3


  46              		.cfi_offset 4, -12
  47              		.cfi_offset 5, -8
  48              		.cfi_offset 14, -4
  65:Lib/Camera_Middleware/sensors/cmw_vd55g1.c ****   uint8_t data[4];
  49              		.loc 1 65 1 view .LVU6
  50 0004 1446     		mov	r4, r2
  51              		.loc 1 69 9 view .LVU7
  52 0006 D0F88C50 		ldr	r5, [r0, #140]
  53 000a 0DEB0302 		add	r2, sp, r3
  54              	.LVL1:
  55              		.loc 1 69 9 view .LVU8
  56 000e 0088     		ldrh	r0, [r0]
  57              	.LVL2:
  58              		.loc 1 69 9 view .LVU9
  59 0010 A847     		blx	r5
  60              	.LVL3:
  70:Lib/Camera_Middleware/sensors/cmw_vd55g1.c ****   if (ret)
  61              		.loc 1 70 3 is_stmt 1 view .LVU10
  62              		.loc 1 70 6 is_stmt 0 view .LVU11
  63 0012 08B9     		cbnz	r0, .L1
  71:Lib/Camera_Middleware/sensors/cmw_vd55g1.c ****     return ret;
  72:Lib/Camera_Middleware/sensors/cmw_vd55g1.c **** 
  73:Lib/Camera_Middleware/sensors/cmw_vd55g1.c ****   *value = (data[3] << 24) | (data[2] << 16) | (data[1] << 8) | data[0];
  64              		.loc 1 73 3 is_stmt 1 view .LVU12
  65              		.loc 1 73 10 is_stmt 0 view .LVU13
  66 0014 019B     		ldr	r3, [sp, #4]
  67 0016 2360     		str	r3, [r4]
  74:Lib/Camera_Middleware/sensors/cmw_vd55g1.c **** 
  75:Lib/Camera_Middleware/sensors/cmw_vd55g1.c ****   return 0;
  68              		.loc 1 75 3 is_stmt 1 view .LVU14
  69              	.L1:
  76:Lib/Camera_Middleware/sensors/cmw_vd55g1.c **** }
  70              		.loc 1 76 1 is_stmt 0 view .LVU15
  71 0018 03B0     		add	sp, sp, #12
  72              		.cfi_def_cfa_offset 12
  73              		@ sp needed
  74 001a 30BD     		pop	{r4, r5, pc}
  75              		.loc 1 76 1 view .LVU16
  76              		.cfi_endproc
  77              	.LFE867:
  79              		.section	.text.VD55G1_ShutdownPin,"ax",%progbits
  80              		.align	1
  81              		.syntax unified
  82              		.thumb
  83              		.thumb_func
  85              	VD55G1_ShutdownPin:
  86              	.LVL4:
  87              	.LFB871:
  77:Lib/Camera_Middleware/sensors/cmw_vd55g1.c **** 
  78:Lib/Camera_Middleware/sensors/cmw_vd55g1.c **** static int CMW_VD55G1_Write8(CMW_VD55G1_t *pObj, uint16_t addr, uint8_t value)
  79:Lib/Camera_Middleware/sensors/cmw_vd55g1.c **** {
  80:Lib/Camera_Middleware/sensors/cmw_vd55g1.c ****   return pObj->WriteReg(pObj->Address, addr, &value, 1);
  81:Lib/Camera_Middleware/sensors/cmw_vd55g1.c **** }
  82:Lib/Camera_Middleware/sensors/cmw_vd55g1.c **** 
  83:Lib/Camera_Middleware/sensors/cmw_vd55g1.c **** static int CMW_VD55G1_Write16(CMW_VD55G1_t *pObj, uint16_t addr, uint16_t value)
  84:Lib/Camera_Middleware/sensors/cmw_vd55g1.c **** {
  85:Lib/Camera_Middleware/sensors/cmw_vd55g1.c ****   return pObj->WriteReg(pObj->Address, addr, (uint8_t *) &value, 2);
ARM GAS  C:\Users\DJESSOU\AppData\Local\Temp\ccNVQBzK.s 			page 4


  86:Lib/Camera_Middleware/sensors/cmw_vd55g1.c **** }
  87:Lib/Camera_Middleware/sensors/cmw_vd55g1.c **** 
  88:Lib/Camera_Middleware/sensors/cmw_vd55g1.c **** static int CMW_VD55G1_Write32(CMW_VD55G1_t *pObj, uint16_t addr, uint32_t value)
  89:Lib/Camera_Middleware/sensors/cmw_vd55g1.c **** {
  90:Lib/Camera_Middleware/sensors/cmw_vd55g1.c ****   return pObj->WriteReg(pObj->Address, addr, (uint8_t *) &value, 4);
  91:Lib/Camera_Middleware/sensors/cmw_vd55g1.c **** }
  92:Lib/Camera_Middleware/sensors/cmw_vd55g1.c **** 
  93:Lib/Camera_Middleware/sensors/cmw_vd55g1.c **** static void VD55G1_ShutdownPin(struct VD55G1_Ctx *ctx, int value)
  94:Lib/Camera_Middleware/sensors/cmw_vd55g1.c **** {
  88              		.loc 1 94 1 is_stmt 1 view -0
  89              		.cfi_startproc
  90              		@ args = 0, pretend = 0, frame = 0
  91              		@ frame_needed = 0, uses_anonymous_args = 0
  92              		@ link register save eliminated.
  95:Lib/Camera_Middleware/sensors/cmw_vd55g1.c ****   CMW_VD55G1_t *p_ctx = container_of(ctx, CMW_VD55G1_t, ctx_driver);
  93              		.loc 1 95 3 view .LVU18
  96:Lib/Camera_Middleware/sensors/cmw_vd55g1.c **** 
  97:Lib/Camera_Middleware/sensors/cmw_vd55g1.c ****   p_ctx->ShutdownPin(value);
  94              		.loc 1 97 3 view .LVU19
  95 0000 D0F89430 		ldr	r3, [r0, #148]
  96 0004 0846     		mov	r0, r1
  97              	.LVL5:
  98              		.loc 1 97 3 is_stmt 0 view .LVU20
  99 0006 1847     		bx	r3	@ indirect register sibling call
 100              	.LVL6:
 101              		.loc 1 97 3 view .LVU21
 102              		.cfi_endproc
 103              	.LFE871:
 105              		.section	.text.VD55G1_Read8,"ax",%progbits
 106              		.align	1
 107              		.syntax unified
 108              		.thumb
 109              		.thumb_func
 111              	VD55G1_Read8:
 112              	.LVL7:
 113              	.LFB872:
  98:Lib/Camera_Middleware/sensors/cmw_vd55g1.c **** }
  99:Lib/Camera_Middleware/sensors/cmw_vd55g1.c **** 
 100:Lib/Camera_Middleware/sensors/cmw_vd55g1.c **** static int VD55G1_Read8(struct VD55G1_Ctx *ctx, uint16_t addr, uint8_t *value)
 101:Lib/Camera_Middleware/sensors/cmw_vd55g1.c **** {
 114              		.loc 1 101 1 is_stmt 1 view -0
 115              		.cfi_startproc
 116              		@ args = 0, pretend = 0, frame = 0
 117              		@ frame_needed = 0, uses_anonymous_args = 0
 118              		@ link register save eliminated.
 102:Lib/Camera_Middleware/sensors/cmw_vd55g1.c ****   CMW_VD55G1_t *p_ctx = container_of(ctx, CMW_VD55G1_t, ctx_driver);
 119              		.loc 1 102 3 view .LVU23
 103:Lib/Camera_Middleware/sensors/cmw_vd55g1.c **** 
 104:Lib/Camera_Middleware/sensors/cmw_vd55g1.c ****   return CMW_VD55G1_Read8(p_ctx, addr, value);
 120              		.loc 1 104 3 view .LVU24
 121              	.LBB6:
 122              	.LBI6:
  45:Lib/Camera_Middleware/sensors/cmw_vd55g1.c **** {
 123              		.loc 1 45 12 view .LVU25
 124              	.LBB7:
  47:Lib/Camera_Middleware/sensors/cmw_vd55g1.c **** }
 125              		.loc 1 47 3 view .LVU26
ARM GAS  C:\Users\DJESSOU\AppData\Local\Temp\ccNVQBzK.s 			page 5


 126              	.LBE7:
 127              	.LBE6:
 101:Lib/Camera_Middleware/sensors/cmw_vd55g1.c ****   CMW_VD55G1_t *p_ctx = container_of(ctx, CMW_VD55G1_t, ctx_driver);
 128              		.loc 1 101 1 is_stmt 0 view .LVU27
 129 0000 10B4     		push	{r4}
 130              		.cfi_def_cfa_offset 4
 131              		.cfi_offset 4, -4
 132              	.LBB10:
 133              	.LBB8:
  47:Lib/Camera_Middleware/sensors/cmw_vd55g1.c **** }
 134              		.loc 1 47 10 view .LVU28
 135 0002 D0F88840 		ldr	r4, [r0, #136]
 136 0006 0123     		movs	r3, #1
 137 0008 A446     		mov	ip, r4
 138 000a 30F8040C 		ldrh	r0, [r0, #-4]
 139              	.LVL8:
  47:Lib/Camera_Middleware/sensors/cmw_vd55g1.c **** }
 140              		.loc 1 47 10 view .LVU29
 141              	.LBE8:
 142              	.LBE10:
 105:Lib/Camera_Middleware/sensors/cmw_vd55g1.c **** }
 143              		.loc 1 105 1 view .LVU30
 144 000e 5DF8044B 		ldr	r4, [sp], #4
 145              		.cfi_restore 4
 146              		.cfi_def_cfa_offset 0
 147              	.LBB11:
 148              	.LBB9:
  47:Lib/Camera_Middleware/sensors/cmw_vd55g1.c **** }
 149              		.loc 1 47 10 view .LVU31
 150 0012 6047     		bx	ip
 151              	.LVL9:
  47:Lib/Camera_Middleware/sensors/cmw_vd55g1.c **** }
 152              		.loc 1 47 10 view .LVU32
 153              	.LBE9:
 154              	.LBE11:
 155              		.cfi_endproc
 156              	.LFE872:
 158              		.section	.text.VD55G1_Read16,"ax",%progbits
 159              		.align	1
 160              		.syntax unified
 161              		.thumb
 162              		.thumb_func
 164              	VD55G1_Read16:
 165              	.LVL10:
 166              	.LFB873:
 106:Lib/Camera_Middleware/sensors/cmw_vd55g1.c **** 
 107:Lib/Camera_Middleware/sensors/cmw_vd55g1.c **** static int VD55G1_Read16(struct VD55G1_Ctx *ctx, uint16_t addr, uint16_t *value)
 108:Lib/Camera_Middleware/sensors/cmw_vd55g1.c **** {
 167              		.loc 1 108 1 is_stmt 1 view -0
 168              		.cfi_startproc
 169              		@ args = 0, pretend = 0, frame = 8
 170              		@ frame_needed = 0, uses_anonymous_args = 0
 109:Lib/Camera_Middleware/sensors/cmw_vd55g1.c ****   CMW_VD55G1_t *p_ctx = container_of(ctx, CMW_VD55G1_t, ctx_driver);
 171              		.loc 1 109 3 view .LVU34
 110:Lib/Camera_Middleware/sensors/cmw_vd55g1.c **** 
 111:Lib/Camera_Middleware/sensors/cmw_vd55g1.c ****   return CMW_VD55G1_Read16(p_ctx, addr, value);
 172              		.loc 1 111 3 view .LVU35
ARM GAS  C:\Users\DJESSOU\AppData\Local\Temp\ccNVQBzK.s 			page 6


 108:Lib/Camera_Middleware/sensors/cmw_vd55g1.c ****   CMW_VD55G1_t *p_ctx = container_of(ctx, CMW_VD55G1_t, ctx_driver);
 173              		.loc 1 108 1 is_stmt 0 view .LVU36
 174 0000 37B5     		push	{r0, r1, r2, r4, r5, lr}
 175              		.cfi_def_cfa_offset 24
 176              		.cfi_offset 4, -12
 177              		.cfi_offset 5, -8
 178              		.cfi_offset 14, -4
 179              	.LBB14:
 180              	.LBB15:
  55:Lib/Camera_Middleware/sensors/cmw_vd55g1.c ****   if (ret)
 181              		.loc 1 55 9 view .LVU37
 182 0002 0223     		movs	r3, #2
 183              	.LBE15:
 184              	.LBE14:
 108:Lib/Camera_Middleware/sensors/cmw_vd55g1.c ****   CMW_VD55G1_t *p_ctx = container_of(ctx, CMW_VD55G1_t, ctx_driver);
 185              		.loc 1 108 1 view .LVU38
 186 0004 1446     		mov	r4, r2
 187              	.LVL11:
 188              	.LBB17:
 189              	.LBI14:
  50:Lib/Camera_Middleware/sensors/cmw_vd55g1.c **** {
 190              		.loc 1 50 12 is_stmt 1 view .LVU39
 191              	.LBB16:
  52:Lib/Camera_Middleware/sensors/cmw_vd55g1.c ****   int ret;
 192              		.loc 1 52 3 view .LVU40
  53:Lib/Camera_Middleware/sensors/cmw_vd55g1.c **** 
 193              		.loc 1 53 3 view .LVU41
  55:Lib/Camera_Middleware/sensors/cmw_vd55g1.c ****   if (ret)
 194              		.loc 1 55 3 view .LVU42
  55:Lib/Camera_Middleware/sensors/cmw_vd55g1.c ****   if (ret)
 195              		.loc 1 55 9 is_stmt 0 view .LVU43
 196 0006 D0F88850 		ldr	r5, [r0, #136]
 197 000a 01AA     		add	r2, sp, #4
 198              	.LVL12:
  55:Lib/Camera_Middleware/sensors/cmw_vd55g1.c ****   if (ret)
 199              		.loc 1 55 9 view .LVU44
 200 000c 30F8040C 		ldrh	r0, [r0, #-4]
 201              	.LVL13:
  55:Lib/Camera_Middleware/sensors/cmw_vd55g1.c ****   if (ret)
 202              		.loc 1 55 9 view .LVU45
 203 0010 A847     		blx	r5
 204              	.LVL14:
  56:Lib/Camera_Middleware/sensors/cmw_vd55g1.c ****     return ret;
 205              		.loc 1 56 3 is_stmt 1 view .LVU46
  56:Lib/Camera_Middleware/sensors/cmw_vd55g1.c ****     return ret;
 206              		.loc 1 56 6 is_stmt 0 view .LVU47
 207 0012 10B9     		cbnz	r0, .L5
  59:Lib/Camera_Middleware/sensors/cmw_vd55g1.c **** 
 208              		.loc 1 59 3 is_stmt 1 view .LVU48
  59:Lib/Camera_Middleware/sensors/cmw_vd55g1.c **** 
 209              		.loc 1 59 10 is_stmt 0 view .LVU49
 210 0014 BDF80430 		ldrh	r3, [sp, #4]
 211 0018 2380     		strh	r3, [r4]	@ movhi
  61:Lib/Camera_Middleware/sensors/cmw_vd55g1.c **** }
 212              		.loc 1 61 3 is_stmt 1 view .LVU50
 213              	.LVL15:
 214              	.L5:
ARM GAS  C:\Users\DJESSOU\AppData\Local\Temp\ccNVQBzK.s 			page 7


  61:Lib/Camera_Middleware/sensors/cmw_vd55g1.c **** }
 215              		.loc 1 61 3 is_stmt 0 view .LVU51
 216              	.LBE16:
 217              	.LBE17:
 112:Lib/Camera_Middleware/sensors/cmw_vd55g1.c **** }
 218              		.loc 1 112 1 view .LVU52
 219 001a 03B0     		add	sp, sp, #12
 220              		.cfi_def_cfa_offset 12
 221              		@ sp needed
 222 001c 30BD     		pop	{r4, r5, pc}
 223              		.loc 1 112 1 view .LVU53
 224              		.cfi_endproc
 225              	.LFE873:
 227              		.section	.text.VD55G1_Read32,"ax",%progbits
 228              		.align	1
 229              		.syntax unified
 230              		.thumb
 231              		.thumb_func
 233              	VD55G1_Read32:
 234              	.LVL16:
 235              	.LFB874:
 113:Lib/Camera_Middleware/sensors/cmw_vd55g1.c **** 
 114:Lib/Camera_Middleware/sensors/cmw_vd55g1.c **** static int VD55G1_Read32(struct VD55G1_Ctx *ctx, uint16_t addr, uint32_t *value)
 115:Lib/Camera_Middleware/sensors/cmw_vd55g1.c **** {
 236              		.loc 1 115 1 is_stmt 1 view -0
 237              		.cfi_startproc
 238              		@ args = 0, pretend = 0, frame = 0
 239              		@ frame_needed = 0, uses_anonymous_args = 0
 240              		@ link register save eliminated.
 116:Lib/Camera_Middleware/sensors/cmw_vd55g1.c ****   CMW_VD55G1_t *p_ctx = container_of(ctx, CMW_VD55G1_t, ctx_driver);
 241              		.loc 1 116 3 view .LVU55
 117:Lib/Camera_Middleware/sensors/cmw_vd55g1.c **** 
 118:Lib/Camera_Middleware/sensors/cmw_vd55g1.c ****   return CMW_VD55G1_Read32(p_ctx, addr, value);
 242              		.loc 1 118 3 view .LVU56
 243              		.loc 1 118 10 is_stmt 0 view .LVU57
 244 0000 0438     		subs	r0, r0, #4
 245              	.LVL17:
 246              		.loc 1 118 10 view .LVU58
 247 0002 FFF7FEBF 		b	CMW_VD55G1_Read32
 248              	.LVL18:
 249              		.loc 1 118 10 view .LVU59
 250              		.cfi_endproc
 251              	.LFE874:
 253              		.section	.text.VD55G1_Write8,"ax",%progbits
 254              		.align	1
 255              		.syntax unified
 256              		.thumb
 257              		.thumb_func
 259              	VD55G1_Write8:
 260              	.LVL19:
 261              	.LFB875:
 119:Lib/Camera_Middleware/sensors/cmw_vd55g1.c **** }
 120:Lib/Camera_Middleware/sensors/cmw_vd55g1.c **** 
 121:Lib/Camera_Middleware/sensors/cmw_vd55g1.c **** static int VD55G1_Write8(struct VD55G1_Ctx *ctx, uint16_t addr, uint8_t value)
 122:Lib/Camera_Middleware/sensors/cmw_vd55g1.c **** {
 262              		.loc 1 122 1 is_stmt 1 view -0
 263              		.cfi_startproc
ARM GAS  C:\Users\DJESSOU\AppData\Local\Temp\ccNVQBzK.s 			page 8


 264              		@ args = 0, pretend = 0, frame = 8
 265              		@ frame_needed = 0, uses_anonymous_args = 0
 123:Lib/Camera_Middleware/sensors/cmw_vd55g1.c ****   CMW_VD55G1_t *p_ctx = container_of(ctx, CMW_VD55G1_t, ctx_driver);
 266              		.loc 1 123 3 view .LVU61
 124:Lib/Camera_Middleware/sensors/cmw_vd55g1.c **** 
 125:Lib/Camera_Middleware/sensors/cmw_vd55g1.c ****   return CMW_VD55G1_Write8(p_ctx, addr, value);
 267              		.loc 1 125 3 view .LVU62
 122:Lib/Camera_Middleware/sensors/cmw_vd55g1.c ****   CMW_VD55G1_t *p_ctx = container_of(ctx, CMW_VD55G1_t, ctx_driver);
 268              		.loc 1 122 1 is_stmt 0 view .LVU63
 269 0000 13B5     		push	{r0, r1, r4, lr}
 270              		.cfi_def_cfa_offset 16
 271              		.cfi_offset 4, -8
 272              		.cfi_offset 14, -4
 273              	.LBB20:
 274              	.LBB21:
  80:Lib/Camera_Middleware/sensors/cmw_vd55g1.c **** }
 275              		.loc 1 80 10 view .LVU64
 276 0002 0123     		movs	r3, #1
 277 0004 D0F88440 		ldr	r4, [r0, #132]
 278 0008 8DF80720 		strb	r2, [sp, #7]
 279              	.LVL20:
  80:Lib/Camera_Middleware/sensors/cmw_vd55g1.c **** }
 280              		.loc 1 80 10 view .LVU65
 281              	.LBE21:
 282              	.LBI20:
  78:Lib/Camera_Middleware/sensors/cmw_vd55g1.c **** {
 283              		.loc 1 78 12 is_stmt 1 view .LVU66
 284              	.LBB22:
  80:Lib/Camera_Middleware/sensors/cmw_vd55g1.c **** }
 285              		.loc 1 80 3 view .LVU67
  80:Lib/Camera_Middleware/sensors/cmw_vd55g1.c **** }
 286              		.loc 1 80 10 is_stmt 0 view .LVU68
 287 000c 30F8040C 		ldrh	r0, [r0, #-4]
 288              	.LVL21:
  80:Lib/Camera_Middleware/sensors/cmw_vd55g1.c **** }
 289              		.loc 1 80 10 view .LVU69
 290 0010 0DF10702 		add	r2, sp, #7
 291              	.LVL22:
  80:Lib/Camera_Middleware/sensors/cmw_vd55g1.c **** }
 292              		.loc 1 80 10 view .LVU70
 293 0014 A047     		blx	r4
 294              	.LVL23:
  80:Lib/Camera_Middleware/sensors/cmw_vd55g1.c **** }
 295              		.loc 1 80 10 view .LVU71
 296              	.LBE22:
 297              	.LBE20:
 126:Lib/Camera_Middleware/sensors/cmw_vd55g1.c **** }
 298              		.loc 1 126 1 view .LVU72
 299 0016 02B0     		add	sp, sp, #8
 300              		.cfi_def_cfa_offset 8
 301              		@ sp needed
 302 0018 10BD     		pop	{r4, pc}
 303              		.cfi_endproc
 304              	.LFE875:
 306              		.section	.text.VD55G1_Write16,"ax",%progbits
 307              		.align	1
 308              		.syntax unified
ARM GAS  C:\Users\DJESSOU\AppData\Local\Temp\ccNVQBzK.s 			page 9


 309              		.thumb
 310              		.thumb_func
 312              	VD55G1_Write16:
 313              	.LVL24:
 314              	.LFB876:
 127:Lib/Camera_Middleware/sensors/cmw_vd55g1.c **** 
 128:Lib/Camera_Middleware/sensors/cmw_vd55g1.c **** static int VD55G1_Write16(struct VD55G1_Ctx *ctx, uint16_t addr, uint16_t value)
 129:Lib/Camera_Middleware/sensors/cmw_vd55g1.c **** {
 315              		.loc 1 129 1 is_stmt 1 view -0
 316              		.cfi_startproc
 317              		@ args = 0, pretend = 0, frame = 8
 318              		@ frame_needed = 0, uses_anonymous_args = 0
 130:Lib/Camera_Middleware/sensors/cmw_vd55g1.c ****   CMW_VD55G1_t *p_ctx = container_of(ctx, CMW_VD55G1_t, ctx_driver);
 319              		.loc 1 130 3 view .LVU74
 131:Lib/Camera_Middleware/sensors/cmw_vd55g1.c **** 
 132:Lib/Camera_Middleware/sensors/cmw_vd55g1.c ****   return CMW_VD55G1_Write16(p_ctx, addr, value);
 320              		.loc 1 132 3 view .LVU75
 129:Lib/Camera_Middleware/sensors/cmw_vd55g1.c ****   CMW_VD55G1_t *p_ctx = container_of(ctx, CMW_VD55G1_t, ctx_driver);
 321              		.loc 1 129 1 is_stmt 0 view .LVU76
 322 0000 13B5     		push	{r0, r1, r4, lr}
 323              		.cfi_def_cfa_offset 16
 324              		.cfi_offset 4, -8
 325              		.cfi_offset 14, -4
 326              	.LBB25:
 327              	.LBB26:
  85:Lib/Camera_Middleware/sensors/cmw_vd55g1.c **** }
 328              		.loc 1 85 10 view .LVU77
 329 0002 0223     		movs	r3, #2
 330 0004 D0F88440 		ldr	r4, [r0, #132]
 331 0008 ADF80620 		strh	r2, [sp, #6]	@ movhi
 332              	.LVL25:
  85:Lib/Camera_Middleware/sensors/cmw_vd55g1.c **** }
 333              		.loc 1 85 10 view .LVU78
 334              	.LBE26:
 335              	.LBI25:
  83:Lib/Camera_Middleware/sensors/cmw_vd55g1.c **** {
 336              		.loc 1 83 12 is_stmt 1 view .LVU79
 337              	.LBB27:
  85:Lib/Camera_Middleware/sensors/cmw_vd55g1.c **** }
 338              		.loc 1 85 3 view .LVU80
  85:Lib/Camera_Middleware/sensors/cmw_vd55g1.c **** }
 339              		.loc 1 85 10 is_stmt 0 view .LVU81
 340 000c 30F8040C 		ldrh	r0, [r0, #-4]
 341              	.LVL26:
  85:Lib/Camera_Middleware/sensors/cmw_vd55g1.c **** }
 342              		.loc 1 85 10 view .LVU82
 343 0010 0DF10602 		add	r2, sp, #6
 344              	.LVL27:
  85:Lib/Camera_Middleware/sensors/cmw_vd55g1.c **** }
 345              		.loc 1 85 10 view .LVU83
 346 0014 A047     		blx	r4
 347              	.LVL28:
  85:Lib/Camera_Middleware/sensors/cmw_vd55g1.c **** }
 348              		.loc 1 85 10 view .LVU84
 349              	.LBE27:
 350              	.LBE25:
 133:Lib/Camera_Middleware/sensors/cmw_vd55g1.c **** }
ARM GAS  C:\Users\DJESSOU\AppData\Local\Temp\ccNVQBzK.s 			page 10


 351              		.loc 1 133 1 view .LVU85
 352 0016 02B0     		add	sp, sp, #8
 353              		.cfi_def_cfa_offset 8
 354              		@ sp needed
 355 0018 10BD     		pop	{r4, pc}
 356              		.cfi_endproc
 357              	.LFE876:
 359              		.section	.text.VD55G1_Write32,"ax",%progbits
 360              		.align	1
 361              		.syntax unified
 362              		.thumb
 363              		.thumb_func
 365              	VD55G1_Write32:
 366              	.LVL29:
 367              	.LFB877:
 134:Lib/Camera_Middleware/sensors/cmw_vd55g1.c **** 
 135:Lib/Camera_Middleware/sensors/cmw_vd55g1.c **** static int VD55G1_Write32(struct VD55G1_Ctx *ctx, uint16_t addr, uint32_t value)
 136:Lib/Camera_Middleware/sensors/cmw_vd55g1.c **** {
 368              		.loc 1 136 1 is_stmt 1 view -0
 369              		.cfi_startproc
 370              		@ args = 0, pretend = 0, frame = 8
 371              		@ frame_needed = 0, uses_anonymous_args = 0
 137:Lib/Camera_Middleware/sensors/cmw_vd55g1.c ****   CMW_VD55G1_t *p_ctx = container_of(ctx, CMW_VD55G1_t, ctx_driver);
 372              		.loc 1 137 3 view .LVU87
 138:Lib/Camera_Middleware/sensors/cmw_vd55g1.c **** 
 139:Lib/Camera_Middleware/sensors/cmw_vd55g1.c ****   return CMW_VD55G1_Write32(p_ctx, addr, value);
 373              		.loc 1 139 3 view .LVU88
 374              	.LBB30:
 375              	.LBB31:
  90:Lib/Camera_Middleware/sensors/cmw_vd55g1.c **** }
 376              		.loc 1 90 10 is_stmt 0 view .LVU89
 377 0000 0423     		movs	r3, #4
 378              	.LBE31:
 379              	.LBE30:
 136:Lib/Camera_Middleware/sensors/cmw_vd55g1.c ****   CMW_VD55G1_t *p_ctx = container_of(ctx, CMW_VD55G1_t, ctx_driver);
 380              		.loc 1 136 1 view .LVU90
 381 0002 13B5     		push	{r0, r1, r4, lr}
 382              		.cfi_def_cfa_offset 16
 383              		.cfi_offset 4, -8
 384              		.cfi_offset 14, -4
 385              	.LBB34:
 386              	.LBB32:
  90:Lib/Camera_Middleware/sensors/cmw_vd55g1.c **** }
 387              		.loc 1 90 10 view .LVU91
 388 0004 D0F88440 		ldr	r4, [r0, #132]
 389 0008 0192     		str	r2, [sp, #4]
 390              	.LVL30:
  90:Lib/Camera_Middleware/sensors/cmw_vd55g1.c **** }
 391              		.loc 1 90 10 view .LVU92
 392              	.LBE32:
 393              	.LBI30:
  88:Lib/Camera_Middleware/sensors/cmw_vd55g1.c **** {
 394              		.loc 1 88 12 is_stmt 1 view .LVU93
 395              	.LBB33:
  90:Lib/Camera_Middleware/sensors/cmw_vd55g1.c **** }
 396              		.loc 1 90 3 view .LVU94
  90:Lib/Camera_Middleware/sensors/cmw_vd55g1.c **** }
ARM GAS  C:\Users\DJESSOU\AppData\Local\Temp\ccNVQBzK.s 			page 11


 397              		.loc 1 90 10 is_stmt 0 view .LVU95
 398 000a 30F8040C 		ldrh	r0, [r0, #-4]
 399              	.LVL31:
  90:Lib/Camera_Middleware/sensors/cmw_vd55g1.c **** }
 400              		.loc 1 90 10 view .LVU96
 401 000e 0DEB0302 		add	r2, sp, r3
 402              	.LVL32:
  90:Lib/Camera_Middleware/sensors/cmw_vd55g1.c **** }
 403              		.loc 1 90 10 view .LVU97
 404 0012 A047     		blx	r4
 405              	.LVL33:
  90:Lib/Camera_Middleware/sensors/cmw_vd55g1.c **** }
 406              		.loc 1 90 10 view .LVU98
 407              	.LBE33:
 408              	.LBE34:
 140:Lib/Camera_Middleware/sensors/cmw_vd55g1.c **** }
 409              		.loc 1 140 1 view .LVU99
 410 0014 02B0     		add	sp, sp, #8
 411              		.cfi_def_cfa_offset 8
 412              		@ sp needed
 413 0016 10BD     		pop	{r4, pc}
 414              		.cfi_endproc
 415              	.LFE877:
 417              		.section	.text.VD55G1_WriteArray,"ax",%progbits
 418              		.align	1
 419              		.syntax unified
 420              		.thumb
 421              		.thumb_func
 423              	VD55G1_WriteArray:
 424              	.LVL34:
 425              	.LFB878:
 141:Lib/Camera_Middleware/sensors/cmw_vd55g1.c **** 
 142:Lib/Camera_Middleware/sensors/cmw_vd55g1.c **** static int VD55G1_WriteArray(struct VD55G1_Ctx *ctx, uint16_t addr, uint8_t *data, int data_len)
 143:Lib/Camera_Middleware/sensors/cmw_vd55g1.c **** {
 426              		.loc 1 143 1 is_stmt 1 view -0
 427              		.cfi_startproc
 428              		@ args = 0, pretend = 0, frame = 0
 429              		@ frame_needed = 0, uses_anonymous_args = 0
 430              		.loc 1 143 1 is_stmt 0 view .LVU101
 431 0000 2DE9F047 		push	{r4, r5, r6, r7, r8, r9, r10, lr}
 432              		.cfi_def_cfa_offset 32
 433              		.cfi_offset 4, -32
 434              		.cfi_offset 5, -28
 435              		.cfi_offset 6, -24
 436              		.cfi_offset 7, -20
 437              		.cfi_offset 8, -16
 438              		.cfi_offset 9, -12
 439              		.cfi_offset 10, -8
 440              		.cfi_offset 14, -4
 441 0004 8046     		mov	r8, r0
 442 0006 0D46     		mov	r5, r1
 443 0008 1646     		mov	r6, r2
 444 000a 1C46     		mov	r4, r3
 144:Lib/Camera_Middleware/sensors/cmw_vd55g1.c ****   CMW_VD55G1_t *p_ctx = container_of(ctx, CMW_VD55G1_t, ctx_driver);
 445              		.loc 1 144 3 is_stmt 1 view .LVU102
 446              	.LVL35:
 145:Lib/Camera_Middleware/sensors/cmw_vd55g1.c ****   const unsigned int chunk_size = 128;
ARM GAS  C:\Users\DJESSOU\AppData\Local\Temp\ccNVQBzK.s 			page 12


 447              		.loc 1 145 3 view .LVU103
 146:Lib/Camera_Middleware/sensors/cmw_vd55g1.c ****   uint16_t sz;
 448              		.loc 1 146 3 view .LVU104
 147:Lib/Camera_Middleware/sensors/cmw_vd55g1.c ****   int ret;
 449              		.loc 1 147 3 view .LVU105
 148:Lib/Camera_Middleware/sensors/cmw_vd55g1.c **** 
 149:Lib/Camera_Middleware/sensors/cmw_vd55g1.c ****   while (data_len) {
 450              		.loc 1 149 3 view .LVU106
 451              	.L12:
 452              		.loc 1 149 10 view .LVU107
 453 000c 14B9     		cbnz	r4, .L14
 150:Lib/Camera_Middleware/sensors/cmw_vd55g1.c ****     sz = MIN(data_len, chunk_size);
 151:Lib/Camera_Middleware/sensors/cmw_vd55g1.c ****     ret = p_ctx->WriteReg(p_ctx->Address, addr, data, sz);
 152:Lib/Camera_Middleware/sensors/cmw_vd55g1.c ****     if (ret)
 153:Lib/Camera_Middleware/sensors/cmw_vd55g1.c ****       return ret;
 154:Lib/Camera_Middleware/sensors/cmw_vd55g1.c ****     data_len -= sz;
 155:Lib/Camera_Middleware/sensors/cmw_vd55g1.c ****     addr += sz;
 156:Lib/Camera_Middleware/sensors/cmw_vd55g1.c ****     data += sz;
 157:Lib/Camera_Middleware/sensors/cmw_vd55g1.c ****   }
 158:Lib/Camera_Middleware/sensors/cmw_vd55g1.c **** 
 159:Lib/Camera_Middleware/sensors/cmw_vd55g1.c ****   return 0;
 454              		.loc 1 159 10 is_stmt 0 view .LVU108
 455 000e 2046     		mov	r0, r4
 456              	.L11:
 160:Lib/Camera_Middleware/sensors/cmw_vd55g1.c **** }
 457              		.loc 1 160 1 view .LVU109
 458 0010 BDE8F087 		pop	{r4, r5, r6, r7, r8, r9, r10, pc}
 459              	.LVL36:
 460              	.L14:
 150:Lib/Camera_Middleware/sensors/cmw_vd55g1.c ****     sz = MIN(data_len, chunk_size);
 461              		.loc 1 150 5 is_stmt 1 view .LVU110
 150:Lib/Camera_Middleware/sensors/cmw_vd55g1.c ****     sz = MIN(data_len, chunk_size);
 462              		.loc 1 150 10 is_stmt 0 view .LVU111
 463 0014 802C     		cmp	r4, #128
 464 0016 A146     		mov	r9, r4
 465 0018 28BF     		it	cs
 466 001a 4FF08009 		movcs	r9, #128
 150:Lib/Camera_Middleware/sensors/cmw_vd55g1.c ****     sz = MIN(data_len, chunk_size);
 467              		.loc 1 150 8 view .LVU112
 468 001e 1FFA89FA 		uxth	r10, r9
 469              	.LVL37:
 151:Lib/Camera_Middleware/sensors/cmw_vd55g1.c ****     if (ret)
 470              		.loc 1 151 5 is_stmt 1 view .LVU113
 151:Lib/Camera_Middleware/sensors/cmw_vd55g1.c ****     if (ret)
 471              		.loc 1 151 11 is_stmt 0 view .LVU114
 472 0022 5346     		mov	r3, r10
 473 0024 3246     		mov	r2, r6
 474 0026 2946     		mov	r1, r5
 475 0028 D8F88470 		ldr	r7, [r8, #132]
 476 002c 38F8040C 		ldrh	r0, [r8, #-4]
 477 0030 B847     		blx	r7
 478              	.LVL38:
 152:Lib/Camera_Middleware/sensors/cmw_vd55g1.c ****       return ret;
 479              		.loc 1 152 5 is_stmt 1 view .LVU115
 152:Lib/Camera_Middleware/sensors/cmw_vd55g1.c ****       return ret;
 480              		.loc 1 152 8 is_stmt 0 view .LVU116
 481 0032 0028     		cmp	r0, #0
ARM GAS  C:\Users\DJESSOU\AppData\Local\Temp\ccNVQBzK.s 			page 13


 482 0034 ECD1     		bne	.L11
 154:Lib/Camera_Middleware/sensors/cmw_vd55g1.c ****     addr += sz;
 483              		.loc 1 154 5 is_stmt 1 view .LVU117
 155:Lib/Camera_Middleware/sensors/cmw_vd55g1.c ****     data += sz;
 484              		.loc 1 155 10 is_stmt 0 view .LVU118
 485 0036 AA44     		add	r10, r10, r5
 486              	.LVL39:
 154:Lib/Camera_Middleware/sensors/cmw_vd55g1.c ****     addr += sz;
 487              		.loc 1 154 14 view .LVU119
 488 0038 A4EB0904 		sub	r4, r4, r9
 489              	.LVL40:
 155:Lib/Camera_Middleware/sensors/cmw_vd55g1.c ****     data += sz;
 490              		.loc 1 155 5 is_stmt 1 view .LVU120
 155:Lib/Camera_Middleware/sensors/cmw_vd55g1.c ****     data += sz;
 491              		.loc 1 155 10 is_stmt 0 view .LVU121
 492 003c 1FFA8AF5 		uxth	r5, r10
 493              	.LVL41:
 156:Lib/Camera_Middleware/sensors/cmw_vd55g1.c ****   }
 494              		.loc 1 156 5 is_stmt 1 view .LVU122
 156:Lib/Camera_Middleware/sensors/cmw_vd55g1.c ****   }
 495              		.loc 1 156 10 is_stmt 0 view .LVU123
 496 0040 4E44     		add	r6, r6, r9
 497              	.LVL42:
 156:Lib/Camera_Middleware/sensors/cmw_vd55g1.c ****   }
 498              		.loc 1 156 10 view .LVU124
 499 0042 E3E7     		b	.L12
 500              		.cfi_endproc
 501              	.LFE878:
 503              		.section	.text.VD55G1_Delay,"ax",%progbits
 504              		.align	1
 505              		.syntax unified
 506              		.thumb
 507              		.thumb_func
 509              	VD55G1_Delay:
 510              	.LVL43:
 511              	.LFB879:
 161:Lib/Camera_Middleware/sensors/cmw_vd55g1.c **** 
 162:Lib/Camera_Middleware/sensors/cmw_vd55g1.c **** static void VD55G1_Delay(struct VD55G1_Ctx *ctx, uint32_t delay_in_ms)
 163:Lib/Camera_Middleware/sensors/cmw_vd55g1.c **** {
 512              		.loc 1 163 1 is_stmt 1 view -0
 513              		.cfi_startproc
 514              		@ args = 0, pretend = 0, frame = 0
 515              		@ frame_needed = 0, uses_anonymous_args = 0
 516              		@ link register save eliminated.
 164:Lib/Camera_Middleware/sensors/cmw_vd55g1.c ****   CMW_VD55G1_t *p_ctx = container_of(ctx, CMW_VD55G1_t, ctx_driver);
 517              		.loc 1 164 3 view .LVU126
 165:Lib/Camera_Middleware/sensors/cmw_vd55g1.c **** 
 166:Lib/Camera_Middleware/sensors/cmw_vd55g1.c ****   p_ctx->Delay(delay_in_ms);
 518              		.loc 1 166 3 view .LVU127
 519 0000 D0F89030 		ldr	r3, [r0, #144]
 520 0004 0846     		mov	r0, r1
 521              	.LVL44:
 522              		.loc 1 166 3 is_stmt 0 view .LVU128
 523 0006 1847     		bx	r3	@ indirect register sibling call
 524              	.LVL45:
 525              		.loc 1 166 3 view .LVU129
 526              		.cfi_endproc
ARM GAS  C:\Users\DJESSOU\AppData\Local\Temp\ccNVQBzK.s 			page 14


 527              	.LFE879:
 529              		.section	.text.VD55G1_Log,"ax",%progbits
 530              		.align	1
 531              		.syntax unified
 532              		.thumb
 533              		.thumb_func
 535              	VD55G1_Log:
 536              	.LVL46:
 537              	.LFB880:
 167:Lib/Camera_Middleware/sensors/cmw_vd55g1.c **** }
 168:Lib/Camera_Middleware/sensors/cmw_vd55g1.c **** 
 169:Lib/Camera_Middleware/sensors/cmw_vd55g1.c **** static void VD55G1_Log(struct VD55G1_Ctx *ctx, int lvl, const char *format, va_list ap)
 170:Lib/Camera_Middleware/sensors/cmw_vd55g1.c **** {
 538              		.loc 1 170 1 is_stmt 1 view -0
 539              		.cfi_startproc
 540              		@ args = 0, pretend = 0, frame = 0
 541              		@ frame_needed = 0, uses_anonymous_args = 0
 542              		@ link register save eliminated.
 171:Lib/Camera_Middleware/sensors/cmw_vd55g1.c **** #if 0
 172:Lib/Camera_Middleware/sensors/cmw_vd55g1.c ****   const int current_lvl = VD55G1_LVL_DBG(0);
 173:Lib/Camera_Middleware/sensors/cmw_vd55g1.c **** 
 174:Lib/Camera_Middleware/sensors/cmw_vd55g1.c ****   if (lvl > current_lvl)
 175:Lib/Camera_Middleware/sensors/cmw_vd55g1.c ****     return ;
 176:Lib/Camera_Middleware/sensors/cmw_vd55g1.c **** 
 177:Lib/Camera_Middleware/sensors/cmw_vd55g1.c ****   vprintf(format, ap);
 178:Lib/Camera_Middleware/sensors/cmw_vd55g1.c **** #endif
 179:Lib/Camera_Middleware/sensors/cmw_vd55g1.c **** }
 543              		.loc 1 179 1 view .LVU131
 544 0000 7047     		bx	lr
 545              		.cfi_endproc
 546              	.LFE880:
 548              		.section	.text.CMW_VD55G1_SetGain,"ax",%progbits
 549              		.align	1
 550              		.global	CMW_VD55G1_SetGain
 551              		.syntax unified
 552              		.thumb
 553              		.thumb_func
 555              	CMW_VD55G1_SetGain:
 556              	.LVL47:
 557              	.LFB890:
 180:Lib/Camera_Middleware/sensors/cmw_vd55g1.c **** 
 181:Lib/Camera_Middleware/sensors/cmw_vd55g1.c **** /**
 182:Lib/Camera_Middleware/sensors/cmw_vd55g1.c ****   * @brief  Get the sensor info
 183:Lib/Camera_Middleware/sensors/cmw_vd55g1.c ****   * @param  pObj  pointer to component object
 184:Lib/Camera_Middleware/sensors/cmw_vd55g1.c ****   * @param  pInfo pointer to sensor info structure
 185:Lib/Camera_Middleware/sensors/cmw_vd55g1.c ****   * @retval Component status
 186:Lib/Camera_Middleware/sensors/cmw_vd55g1.c ****   */
 187:Lib/Camera_Middleware/sensors/cmw_vd55g1.c **** static int32_t CMW_VD55G1_GetSensorInfo(void *io_ctx, ISP_SensorInfoTypeDef *info)
 188:Lib/Camera_Middleware/sensors/cmw_vd55g1.c **** {
 189:Lib/Camera_Middleware/sensors/cmw_vd55g1.c ****   uint32_t again_min_mdB, again_max_mdB;
 190:Lib/Camera_Middleware/sensors/cmw_vd55g1.c ****   uint32_t dgain_min_mdB, dgain_max_mdB;
 191:Lib/Camera_Middleware/sensors/cmw_vd55g1.c ****   uint32_t exposure_min, exposure_max;
 192:Lib/Camera_Middleware/sensors/cmw_vd55g1.c ****   int ret;
 193:Lib/Camera_Middleware/sensors/cmw_vd55g1.c **** 
 194:Lib/Camera_Middleware/sensors/cmw_vd55g1.c ****   if ((io_ctx == NULL) || (info == NULL))
 195:Lib/Camera_Middleware/sensors/cmw_vd55g1.c ****   {
 196:Lib/Camera_Middleware/sensors/cmw_vd55g1.c ****     return CMW_ERROR_WRONG_PARAM;
ARM GAS  C:\Users\DJESSOU\AppData\Local\Temp\ccNVQBzK.s 			page 15


 197:Lib/Camera_Middleware/sensors/cmw_vd55g1.c ****   }
 198:Lib/Camera_Middleware/sensors/cmw_vd55g1.c **** 
 199:Lib/Camera_Middleware/sensors/cmw_vd55g1.c ****   if (sizeof(info->name) >= (strlen(VD55G1_NAME) + 1U))
 200:Lib/Camera_Middleware/sensors/cmw_vd55g1.c ****   {
 201:Lib/Camera_Middleware/sensors/cmw_vd55g1.c ****     strcpy(info->name, VD55G1_NAME);
 202:Lib/Camera_Middleware/sensors/cmw_vd55g1.c ****   }
 203:Lib/Camera_Middleware/sensors/cmw_vd55g1.c ****   else
 204:Lib/Camera_Middleware/sensors/cmw_vd55g1.c ****   {
 205:Lib/Camera_Middleware/sensors/cmw_vd55g1.c ****     return CMW_ERROR_WRONG_PARAM;
 206:Lib/Camera_Middleware/sensors/cmw_vd55g1.c ****   }
 207:Lib/Camera_Middleware/sensors/cmw_vd55g1.c **** 
 208:Lib/Camera_Middleware/sensors/cmw_vd55g1.c ****   info->bayer_pattern = ISP_DEMOS_TYPE_MONO;
 209:Lib/Camera_Middleware/sensors/cmw_vd55g1.c ****   info->color_depth = ((CMW_VD55G1_t *)io_ctx)->ctx_driver.ctx.config_save.pixel_depth;
 210:Lib/Camera_Middleware/sensors/cmw_vd55g1.c ****   info->width = VD55G1_MAX_WIDTH;
 211:Lib/Camera_Middleware/sensors/cmw_vd55g1.c ****   info->height = VD55G1_MAX_HEIGHT;
 212:Lib/Camera_Middleware/sensors/cmw_vd55g1.c **** 
 213:Lib/Camera_Middleware/sensors/cmw_vd55g1.c ****   /* Add 0.5 before casting so we round to the closest mdB value instead of truncating. */
 214:Lib/Camera_Middleware/sensors/cmw_vd55g1.c ****   again_min_mdB = (uint32_t)(LINEAR_TO_MDECIBEL(32.0 / (32.0 - (double)VD55G1_ANALOG_GAIN_MIN)) + 0
 215:Lib/Camera_Middleware/sensors/cmw_vd55g1.c ****   again_max_mdB = (uint32_t)(LINEAR_TO_MDECIBEL(32.0 / (32.0 - (double)VD55G1_ANALOG_GAIN_MAX)) + 0
 216:Lib/Camera_Middleware/sensors/cmw_vd55g1.c ****   dgain_min_mdB = (uint32_t)(LINEAR_TO_MDECIBEL(FP58_TO_FLOAT(VD55G1_DIGITAL_GAIN_MIN)) + 0.5);
 217:Lib/Camera_Middleware/sensors/cmw_vd55g1.c ****   dgain_max_mdB = (uint32_t)(LINEAR_TO_MDECIBEL(FP58_TO_FLOAT(VD55G1_DIGITAL_GAIN_MAX)) + 0.5);
 218:Lib/Camera_Middleware/sensors/cmw_vd55g1.c **** 
 219:Lib/Camera_Middleware/sensors/cmw_vd55g1.c ****   info->gain_min = again_min_mdB + dgain_min_mdB;
 220:Lib/Camera_Middleware/sensors/cmw_vd55g1.c ****   info->gain_max = again_max_mdB + dgain_max_mdB;
 221:Lib/Camera_Middleware/sensors/cmw_vd55g1.c ****   info->again_max = again_max_mdB;
 222:Lib/Camera_Middleware/sensors/cmw_vd55g1.c **** 
 223:Lib/Camera_Middleware/sensors/cmw_vd55g1.c ****   ret = VD55G1_GetExposureRegRange(&((CMW_VD55G1_t *)io_ctx)->ctx_driver, &exposure_min, &exposure_
 224:Lib/Camera_Middleware/sensors/cmw_vd55g1.c ****   if (ret)
 225:Lib/Camera_Middleware/sensors/cmw_vd55g1.c ****     return ret;
 226:Lib/Camera_Middleware/sensors/cmw_vd55g1.c **** 
 227:Lib/Camera_Middleware/sensors/cmw_vd55g1.c ****   info->exposure_min = exposure_min;
 228:Lib/Camera_Middleware/sensors/cmw_vd55g1.c ****   info->exposure_max = exposure_max;
 229:Lib/Camera_Middleware/sensors/cmw_vd55g1.c **** 
 230:Lib/Camera_Middleware/sensors/cmw_vd55g1.c ****   return CMW_ERROR_NONE;
 231:Lib/Camera_Middleware/sensors/cmw_vd55g1.c **** }
 232:Lib/Camera_Middleware/sensors/cmw_vd55g1.c **** 
 233:Lib/Camera_Middleware/sensors/cmw_vd55g1.c **** static int CMW_VD55G1_GetResType(uint32_t width, uint32_t height, VD55G1_Res_t *res)
 234:Lib/Camera_Middleware/sensors/cmw_vd55g1.c **** {
 235:Lib/Camera_Middleware/sensors/cmw_vd55g1.c ****   if (width == 320 && height == 240)
 236:Lib/Camera_Middleware/sensors/cmw_vd55g1.c ****   {
 237:Lib/Camera_Middleware/sensors/cmw_vd55g1.c ****     *res = VD55G1_RES_QVGA_320_240;
 238:Lib/Camera_Middleware/sensors/cmw_vd55g1.c ****   }
 239:Lib/Camera_Middleware/sensors/cmw_vd55g1.c ****   else if (width == 640 && height == 480)
 240:Lib/Camera_Middleware/sensors/cmw_vd55g1.c ****   {
 241:Lib/Camera_Middleware/sensors/cmw_vd55g1.c ****     *res = VD55G1_RES_VGA_640_480;
 242:Lib/Camera_Middleware/sensors/cmw_vd55g1.c ****   }
 243:Lib/Camera_Middleware/sensors/cmw_vd55g1.c ****   else if (width == 800 && height == 600)
 244:Lib/Camera_Middleware/sensors/cmw_vd55g1.c ****   {
 245:Lib/Camera_Middleware/sensors/cmw_vd55g1.c ****     *res = VD55G1_RES_SXGA_800_600;
 246:Lib/Camera_Middleware/sensors/cmw_vd55g1.c ****   }
 247:Lib/Camera_Middleware/sensors/cmw_vd55g1.c ****   else if (width == 804 && height == 704)
 248:Lib/Camera_Middleware/sensors/cmw_vd55g1.c ****   {
 249:Lib/Camera_Middleware/sensors/cmw_vd55g1.c ****       *res = VD55G1_RES_FULL_804_704;
 250:Lib/Camera_Middleware/sensors/cmw_vd55g1.c ****   }
 251:Lib/Camera_Middleware/sensors/cmw_vd55g1.c ****   else
 252:Lib/Camera_Middleware/sensors/cmw_vd55g1.c ****   {
 253:Lib/Camera_Middleware/sensors/cmw_vd55g1.c ****     return CMW_ERROR_WRONG_PARAM;
ARM GAS  C:\Users\DJESSOU\AppData\Local\Temp\ccNVQBzK.s 			page 16


 254:Lib/Camera_Middleware/sensors/cmw_vd55g1.c ****   }
 255:Lib/Camera_Middleware/sensors/cmw_vd55g1.c ****   return 0;
 256:Lib/Camera_Middleware/sensors/cmw_vd55g1.c **** }
 257:Lib/Camera_Middleware/sensors/cmw_vd55g1.c **** 
 258:Lib/Camera_Middleware/sensors/cmw_vd55g1.c **** static VD55G1_MirrorFlip_t CMW_VD55G1_getMirrorFlipConfig(int32_t Config)
 259:Lib/Camera_Middleware/sensors/cmw_vd55g1.c **** {
 260:Lib/Camera_Middleware/sensors/cmw_vd55g1.c ****   VD55G1_MirrorFlip_t ret;
 261:Lib/Camera_Middleware/sensors/cmw_vd55g1.c **** 
 262:Lib/Camera_Middleware/sensors/cmw_vd55g1.c ****   switch (Config)
 263:Lib/Camera_Middleware/sensors/cmw_vd55g1.c ****   {
 264:Lib/Camera_Middleware/sensors/cmw_vd55g1.c ****     case CMW_MIRRORFLIP_NONE:
 265:Lib/Camera_Middleware/sensors/cmw_vd55g1.c ****       ret = VD55G1_MIRROR_FLIP_NONE;
 266:Lib/Camera_Middleware/sensors/cmw_vd55g1.c ****       break;
 267:Lib/Camera_Middleware/sensors/cmw_vd55g1.c ****     case CMW_MIRRORFLIP_FLIP:
 268:Lib/Camera_Middleware/sensors/cmw_vd55g1.c ****       ret = VD55G1_FLIP;
 269:Lib/Camera_Middleware/sensors/cmw_vd55g1.c ****       break;
 270:Lib/Camera_Middleware/sensors/cmw_vd55g1.c ****     case CMW_MIRRORFLIP_MIRROR:
 271:Lib/Camera_Middleware/sensors/cmw_vd55g1.c ****       ret = VD55G1_MIRROR;
 272:Lib/Camera_Middleware/sensors/cmw_vd55g1.c ****       break;
 273:Lib/Camera_Middleware/sensors/cmw_vd55g1.c ****     case CMW_MIRRORFLIP_FLIP_MIRROR:
 274:Lib/Camera_Middleware/sensors/cmw_vd55g1.c ****     default:
 275:Lib/Camera_Middleware/sensors/cmw_vd55g1.c ****       ret = VD55G1_MIRROR_FLIP;
 276:Lib/Camera_Middleware/sensors/cmw_vd55g1.c ****       break;
 277:Lib/Camera_Middleware/sensors/cmw_vd55g1.c ****   }
 278:Lib/Camera_Middleware/sensors/cmw_vd55g1.c **** 
 279:Lib/Camera_Middleware/sensors/cmw_vd55g1.c ****   return ret;
 280:Lib/Camera_Middleware/sensors/cmw_vd55g1.c **** }
 281:Lib/Camera_Middleware/sensors/cmw_vd55g1.c **** 
 282:Lib/Camera_Middleware/sensors/cmw_vd55g1.c **** static int32_t CMW_VD55G1_Init(void *io_ctx, CMW_Sensor_Init_t *initSensor)
 283:Lib/Camera_Middleware/sensors/cmw_vd55g1.c **** {
 284:Lib/Camera_Middleware/sensors/cmw_vd55g1.c ****   VD55G1_Config_t config = { 0 };
 285:Lib/Camera_Middleware/sensors/cmw_vd55g1.c ****   int ret;
 286:Lib/Camera_Middleware/sensors/cmw_vd55g1.c ****   int i;
 287:Lib/Camera_Middleware/sensors/cmw_vd55g1.c ****   CMW_VD55G1_config_t *sensor_config;
 288:Lib/Camera_Middleware/sensors/cmw_vd55g1.c ****   sensor_config = (CMW_VD55G1_config_t*)(initSensor->sensor_config);
 289:Lib/Camera_Middleware/sensors/cmw_vd55g1.c ****   if (sensor_config == NULL)
 290:Lib/Camera_Middleware/sensors/cmw_vd55g1.c ****   {
 291:Lib/Camera_Middleware/sensors/cmw_vd55g1.c ****     return CMW_ERROR_WRONG_PARAM;
 292:Lib/Camera_Middleware/sensors/cmw_vd55g1.c ****   }
 293:Lib/Camera_Middleware/sensors/cmw_vd55g1.c **** 
 294:Lib/Camera_Middleware/sensors/cmw_vd55g1.c ****   assert(initSensor != NULL);
 295:Lib/Camera_Middleware/sensors/cmw_vd55g1.c **** 
 296:Lib/Camera_Middleware/sensors/cmw_vd55g1.c ****   if (((CMW_VD55G1_t *)io_ctx)->IsInitialized)
 297:Lib/Camera_Middleware/sensors/cmw_vd55g1.c ****   {
 298:Lib/Camera_Middleware/sensors/cmw_vd55g1.c ****     return CMW_ERROR_NONE;
 299:Lib/Camera_Middleware/sensors/cmw_vd55g1.c ****   }
 300:Lib/Camera_Middleware/sensors/cmw_vd55g1.c **** 
 301:Lib/Camera_Middleware/sensors/cmw_vd55g1.c ****   config.frame_rate = initSensor->fps;
 302:Lib/Camera_Middleware/sensors/cmw_vd55g1.c ****   ret = CMW_VD55G1_GetResType(initSensor->width, initSensor->height, &config.resolution);
 303:Lib/Camera_Middleware/sensors/cmw_vd55g1.c ****   if (ret)
 304:Lib/Camera_Middleware/sensors/cmw_vd55g1.c ****   {
 305:Lib/Camera_Middleware/sensors/cmw_vd55g1.c ****     return CMW_ERROR_WRONG_PARAM;
 306:Lib/Camera_Middleware/sensors/cmw_vd55g1.c ****   }
 307:Lib/Camera_Middleware/sensors/cmw_vd55g1.c **** 
 308:Lib/Camera_Middleware/sensors/cmw_vd55g1.c ****   switch (sensor_config->pixel_format)
 309:Lib/Camera_Middleware/sensors/cmw_vd55g1.c ****   {
 310:Lib/Camera_Middleware/sensors/cmw_vd55g1.c ****     case CMW_PIXEL_FORMAT_DEFAULT:
ARM GAS  C:\Users\DJESSOU\AppData\Local\Temp\ccNVQBzK.s 			page 17


 311:Lib/Camera_Middleware/sensors/cmw_vd55g1.c ****     case CMW_PIXEL_FORMAT_RAW10:
 312:Lib/Camera_Middleware/sensors/cmw_vd55g1.c ****     {
 313:Lib/Camera_Middleware/sensors/cmw_vd55g1.c ****       config.pixel_depth = 10;
 314:Lib/Camera_Middleware/sensors/cmw_vd55g1.c ****       break;
 315:Lib/Camera_Middleware/sensors/cmw_vd55g1.c ****     }
 316:Lib/Camera_Middleware/sensors/cmw_vd55g1.c ****     case CMW_PIXEL_FORMAT_RAW8:
 317:Lib/Camera_Middleware/sensors/cmw_vd55g1.c ****     {
 318:Lib/Camera_Middleware/sensors/cmw_vd55g1.c ****       config.pixel_depth = 8;
 319:Lib/Camera_Middleware/sensors/cmw_vd55g1.c ****       break;
 320:Lib/Camera_Middleware/sensors/cmw_vd55g1.c ****     }
 321:Lib/Camera_Middleware/sensors/cmw_vd55g1.c ****     default:
 322:Lib/Camera_Middleware/sensors/cmw_vd55g1.c ****       return CMW_ERROR_COMPONENT_FAILURE;
 323:Lib/Camera_Middleware/sensors/cmw_vd55g1.c ****       break;
 324:Lib/Camera_Middleware/sensors/cmw_vd55g1.c ****   }
 325:Lib/Camera_Middleware/sensors/cmw_vd55g1.c **** 
 326:Lib/Camera_Middleware/sensors/cmw_vd55g1.c ****   config.ext_clock_freq_in_hz = CAMERA_VD55G1_FREQ_IN_HZ;
 327:Lib/Camera_Middleware/sensors/cmw_vd55g1.c ****   config.out_itf.data_rate_in_mps = sensor_config->CSI_PHYBitrate;
 328:Lib/Camera_Middleware/sensors/cmw_vd55g1.c ****   config.out_itf.clock_lane_swap_enable = 1;
 329:Lib/Camera_Middleware/sensors/cmw_vd55g1.c ****   config.out_itf.data_lane_swap_enable = 1;
 330:Lib/Camera_Middleware/sensors/cmw_vd55g1.c **** 
 331:Lib/Camera_Middleware/sensors/cmw_vd55g1.c ****   config.flip_mirror_mode = CMW_VD55G1_getMirrorFlipConfig(initSensor->mirrorFlip);
 332:Lib/Camera_Middleware/sensors/cmw_vd55g1.c ****   config.patgen = VD55G1_PATGEN_DISABLE;
 333:Lib/Camera_Middleware/sensors/cmw_vd55g1.c ****   config.flicker = VD55G1_FLICKER_FREE_NONE;
 334:Lib/Camera_Middleware/sensors/cmw_vd55g1.c ****   config.awu.is_enable = 0;
 335:Lib/Camera_Middleware/sensors/cmw_vd55g1.c **** 
 336:Lib/Camera_Middleware/sensors/cmw_vd55g1.c ****   for (i = 0; i < VD55G1_GPIO_NB; i++)
 337:Lib/Camera_Middleware/sensors/cmw_vd55g1.c ****   {
 338:Lib/Camera_Middleware/sensors/cmw_vd55g1.c ****     config.gpio_ctrl[i] = VD55G1_GPIO_GPIO_IN;
 339:Lib/Camera_Middleware/sensors/cmw_vd55g1.c ****   }
 340:Lib/Camera_Middleware/sensors/cmw_vd55g1.c **** 
 341:Lib/Camera_Middleware/sensors/cmw_vd55g1.c ****   ret = VD55G1_Init(&((CMW_VD55G1_t *)io_ctx)->ctx_driver, &config);
 342:Lib/Camera_Middleware/sensors/cmw_vd55g1.c ****   if (ret)
 343:Lib/Camera_Middleware/sensors/cmw_vd55g1.c ****   {
 344:Lib/Camera_Middleware/sensors/cmw_vd55g1.c ****     return CMW_ERROR_PERIPH_FAILURE;
 345:Lib/Camera_Middleware/sensors/cmw_vd55g1.c ****   }
 346:Lib/Camera_Middleware/sensors/cmw_vd55g1.c **** 
 347:Lib/Camera_Middleware/sensors/cmw_vd55g1.c ****   ((CMW_VD55G1_t *)io_ctx)->IsInitialized = 1;
 348:Lib/Camera_Middleware/sensors/cmw_vd55g1.c ****   return CMW_ERROR_NONE;
 349:Lib/Camera_Middleware/sensors/cmw_vd55g1.c **** }
 350:Lib/Camera_Middleware/sensors/cmw_vd55g1.c **** 
 351:Lib/Camera_Middleware/sensors/cmw_vd55g1.c **** void CMW_VD55G1_SetDefaultSensorValues( CMW_VD55G1_config_t *vd55g1_config)
 352:Lib/Camera_Middleware/sensors/cmw_vd55g1.c **** {
 353:Lib/Camera_Middleware/sensors/cmw_vd55g1.c ****   assert(vd55g1_config != NULL);
 354:Lib/Camera_Middleware/sensors/cmw_vd55g1.c ****   vd55g1_config->pixel_format = CMW_PIXEL_FORMAT_RAW10;
 355:Lib/Camera_Middleware/sensors/cmw_vd55g1.c ****   vd55g1_config->CSI_PHYBitrate = VD55G1_DEFAULT_DATARATE;
 356:Lib/Camera_Middleware/sensors/cmw_vd55g1.c **** }
 357:Lib/Camera_Middleware/sensors/cmw_vd55g1.c **** 
 358:Lib/Camera_Middleware/sensors/cmw_vd55g1.c **** static int32_t CMW_VD55G1_Start(void *io_ctx)
 359:Lib/Camera_Middleware/sensors/cmw_vd55g1.c **** {
 360:Lib/Camera_Middleware/sensors/cmw_vd55g1.c ****   int ret = CMW_ERROR_NONE;
 361:Lib/Camera_Middleware/sensors/cmw_vd55g1.c ****   ret = VD55G1_Start(&((CMW_VD55G1_t *)io_ctx)->ctx_driver);
 362:Lib/Camera_Middleware/sensors/cmw_vd55g1.c ****   if (ret) {
 363:Lib/Camera_Middleware/sensors/cmw_vd55g1.c ****     VD55G1_DeInit(&((CMW_VD55G1_t *)io_ctx)->ctx_driver);
 364:Lib/Camera_Middleware/sensors/cmw_vd55g1.c ****     return CMW_ERROR_PERIPH_FAILURE;
 365:Lib/Camera_Middleware/sensors/cmw_vd55g1.c ****   }
 366:Lib/Camera_Middleware/sensors/cmw_vd55g1.c ****   return CMW_ERROR_NONE;
 367:Lib/Camera_Middleware/sensors/cmw_vd55g1.c **** }
ARM GAS  C:\Users\DJESSOU\AppData\Local\Temp\ccNVQBzK.s 			page 18


 368:Lib/Camera_Middleware/sensors/cmw_vd55g1.c **** 
 369:Lib/Camera_Middleware/sensors/cmw_vd55g1.c **** static int32_t CMW_VD55G1_Stop(void *io_ctx)
 370:Lib/Camera_Middleware/sensors/cmw_vd55g1.c **** {
 371:Lib/Camera_Middleware/sensors/cmw_vd55g1.c ****   int ret = CMW_ERROR_NONE;
 372:Lib/Camera_Middleware/sensors/cmw_vd55g1.c **** 
 373:Lib/Camera_Middleware/sensors/cmw_vd55g1.c ****   ret = VD55G1_Stop(&((CMW_VD55G1_t *)io_ctx)->ctx_driver);
 374:Lib/Camera_Middleware/sensors/cmw_vd55g1.c ****   if (ret)
 375:Lib/Camera_Middleware/sensors/cmw_vd55g1.c ****   {
 376:Lib/Camera_Middleware/sensors/cmw_vd55g1.c ****     return CMW_ERROR_PERIPH_FAILURE;
 377:Lib/Camera_Middleware/sensors/cmw_vd55g1.c ****   }
 378:Lib/Camera_Middleware/sensors/cmw_vd55g1.c ****   return CMW_ERROR_NONE;
 379:Lib/Camera_Middleware/sensors/cmw_vd55g1.c **** }
 380:Lib/Camera_Middleware/sensors/cmw_vd55g1.c **** 
 381:Lib/Camera_Middleware/sensors/cmw_vd55g1.c **** static int32_t CMW_VD55G1_DeInit(void *io_ctx)
 382:Lib/Camera_Middleware/sensors/cmw_vd55g1.c **** {
 383:Lib/Camera_Middleware/sensors/cmw_vd55g1.c ****   int ret = CMW_ERROR_NONE;
 384:Lib/Camera_Middleware/sensors/cmw_vd55g1.c **** 
 385:Lib/Camera_Middleware/sensors/cmw_vd55g1.c ****   ret = VD55G1_Stop(&((CMW_VD55G1_t *)io_ctx)->ctx_driver);
 386:Lib/Camera_Middleware/sensors/cmw_vd55g1.c ****   if (ret)
 387:Lib/Camera_Middleware/sensors/cmw_vd55g1.c ****   {
 388:Lib/Camera_Middleware/sensors/cmw_vd55g1.c ****     return CMW_ERROR_PERIPH_FAILURE;
 389:Lib/Camera_Middleware/sensors/cmw_vd55g1.c ****   }
 390:Lib/Camera_Middleware/sensors/cmw_vd55g1.c **** 
 391:Lib/Camera_Middleware/sensors/cmw_vd55g1.c ****   ret = VD55G1_DeInit(&((CMW_VD55G1_t *)io_ctx)->ctx_driver);
 392:Lib/Camera_Middleware/sensors/cmw_vd55g1.c ****   if (ret)
 393:Lib/Camera_Middleware/sensors/cmw_vd55g1.c ****   {
 394:Lib/Camera_Middleware/sensors/cmw_vd55g1.c ****     return CMW_ERROR_PERIPH_FAILURE;
 395:Lib/Camera_Middleware/sensors/cmw_vd55g1.c ****   }
 396:Lib/Camera_Middleware/sensors/cmw_vd55g1.c **** 
 397:Lib/Camera_Middleware/sensors/cmw_vd55g1.c ****   ((CMW_VD55G1_t *)io_ctx)->IsInitialized = 0;
 398:Lib/Camera_Middleware/sensors/cmw_vd55g1.c ****   return CMW_ERROR_NONE;
 399:Lib/Camera_Middleware/sensors/cmw_vd55g1.c **** }
 400:Lib/Camera_Middleware/sensors/cmw_vd55g1.c **** 
 401:Lib/Camera_Middleware/sensors/cmw_vd55g1.c **** static int32_t CMW_VD55G1_MirrorFlipConfig(void *io_ctx, uint32_t Config)
 402:Lib/Camera_Middleware/sensors/cmw_vd55g1.c **** {
 403:Lib/Camera_Middleware/sensors/cmw_vd55g1.c ****   int32_t ret = CMW_ERROR_NONE;
 404:Lib/Camera_Middleware/sensors/cmw_vd55g1.c **** 
 405:Lib/Camera_Middleware/sensors/cmw_vd55g1.c ****   switch (Config) {
 406:Lib/Camera_Middleware/sensors/cmw_vd55g1.c ****     case CMW_MIRRORFLIP_NONE:
 407:Lib/Camera_Middleware/sensors/cmw_vd55g1.c ****       ret = VD55G1_SetFlipMirrorMode(&((CMW_VD55G1_t *)io_ctx)->ctx_driver, VD55G1_MIRROR_FLIP_NONE
 408:Lib/Camera_Middleware/sensors/cmw_vd55g1.c ****       break;
 409:Lib/Camera_Middleware/sensors/cmw_vd55g1.c ****     case CMW_MIRRORFLIP_FLIP:
 410:Lib/Camera_Middleware/sensors/cmw_vd55g1.c ****       ret = VD55G1_SetFlipMirrorMode(&((CMW_VD55G1_t *)io_ctx)->ctx_driver, VD55G1_FLIP);
 411:Lib/Camera_Middleware/sensors/cmw_vd55g1.c ****       break;
 412:Lib/Camera_Middleware/sensors/cmw_vd55g1.c ****     case CMW_MIRRORFLIP_MIRROR:
 413:Lib/Camera_Middleware/sensors/cmw_vd55g1.c ****       ret = VD55G1_SetFlipMirrorMode(&((CMW_VD55G1_t *)io_ctx)->ctx_driver, VD55G1_MIRROR);
 414:Lib/Camera_Middleware/sensors/cmw_vd55g1.c ****       break;
 415:Lib/Camera_Middleware/sensors/cmw_vd55g1.c ****     case CMW_MIRRORFLIP_FLIP_MIRROR:
 416:Lib/Camera_Middleware/sensors/cmw_vd55g1.c ****       ret = VD55G1_SetFlipMirrorMode(&((CMW_VD55G1_t *)io_ctx)->ctx_driver, VD55G1_MIRROR_FLIP);
 417:Lib/Camera_Middleware/sensors/cmw_vd55g1.c ****       break;
 418:Lib/Camera_Middleware/sensors/cmw_vd55g1.c ****     default:
 419:Lib/Camera_Middleware/sensors/cmw_vd55g1.c ****       ret = CMW_ERROR_PERIPH_FAILURE;
 420:Lib/Camera_Middleware/sensors/cmw_vd55g1.c ****   }
 421:Lib/Camera_Middleware/sensors/cmw_vd55g1.c **** 
 422:Lib/Camera_Middleware/sensors/cmw_vd55g1.c ****   return ret;
 423:Lib/Camera_Middleware/sensors/cmw_vd55g1.c **** }
 424:Lib/Camera_Middleware/sensors/cmw_vd55g1.c **** 
ARM GAS  C:\Users\DJESSOU\AppData\Local\Temp\ccNVQBzK.s 			page 19


 425:Lib/Camera_Middleware/sensors/cmw_vd55g1.c **** int32_t CMW_VD55G1_SetGain(void *io_ctx, int32_t gain)
 426:Lib/Camera_Middleware/sensors/cmw_vd55g1.c **** {
 558              		.loc 1 426 1 view -0
 559              		.cfi_startproc
 560              		@ args = 0, pretend = 0, frame = 8
 561              		@ frame_needed = 0, uses_anonymous_args = 0
 427:Lib/Camera_Middleware/sensors/cmw_vd55g1.c ****   CMW_VD55G1_t *ctx = (CMW_VD55G1_t *)io_ctx;
 562              		.loc 1 427 3 view .LVU133
 426:Lib/Camera_Middleware/sensors/cmw_vd55g1.c ****   CMW_VD55G1_t *ctx = (CMW_VD55G1_t *)io_ctx;
 563              		.loc 1 426 1 is_stmt 0 view .LVU134
 564 0000 10B5     		push	{r4, lr}
 565              		.cfi_def_cfa_offset 8
 566              		.cfi_offset 4, -8
 567              		.cfi_offset 14, -4
 428:Lib/Camera_Middleware/sensors/cmw_vd55g1.c ****   uint32_t again_min_mdB = (uint32_t)(LINEAR_TO_MDECIBEL(32.0 / (32.0 - (double)VD55G1_ANALOG_GAIN_
 429:Lib/Camera_Middleware/sensors/cmw_vd55g1.c ****   uint32_t again_max_mdB = (uint32_t)(LINEAR_TO_MDECIBEL(32.0 / (32.0 - (double)VD55G1_ANALOG_GAIN_
 430:Lib/Camera_Middleware/sensors/cmw_vd55g1.c ****   uint32_t dgain_min_mdB = (uint32_t)(LINEAR_TO_MDECIBEL(FP58_TO_FLOAT(VD55G1_DIGITAL_GAIN_MIN)) + 
 431:Lib/Camera_Middleware/sensors/cmw_vd55g1.c ****   uint32_t dgain_max_mdB = (uint32_t)(LINEAR_TO_MDECIBEL(FP58_TO_FLOAT(VD55G1_DIGITAL_GAIN_MAX)) + 
 432:Lib/Camera_Middleware/sensors/cmw_vd55g1.c ****   double analog_linear_gain;
 433:Lib/Camera_Middleware/sensors/cmw_vd55g1.c ****   double digital_linear_gain;
 434:Lib/Camera_Middleware/sensors/cmw_vd55g1.c ****   int ret;
 435:Lib/Camera_Middleware/sensors/cmw_vd55g1.c ****   int analog_reg;
 436:Lib/Camera_Middleware/sensors/cmw_vd55g1.c ****   uint16_t digital_reg;
 437:Lib/Camera_Middleware/sensors/cmw_vd55g1.c **** 
 438:Lib/Camera_Middleware/sensors/cmw_vd55g1.c ****   if ((gain < (int32_t)(dgain_min_mdB + again_min_mdB)) ||
 568              		.loc 1 438 6 view .LVU135
 569 0002 47F29753 		movw	r3, #30103
 426:Lib/Camera_Middleware/sensors/cmw_vd55g1.c ****   CMW_VD55G1_t *ctx = (CMW_VD55G1_t *)io_ctx;
 570              		.loc 1 426 1 view .LVU136
 571 0006 2DED028B 		vpush.64	{d8}
 572              		.cfi_def_cfa_offset 16
 573              		.cfi_offset 80, -16
 574              		.cfi_offset 81, -12
 575              		.loc 1 438 6 view .LVU137
 576 000a 9942     		cmp	r1, r3
 426:Lib/Camera_Middleware/sensors/cmw_vd55g1.c ****   CMW_VD55G1_t *ctx = (CMW_VD55G1_t *)io_ctx;
 577              		.loc 1 426 1 view .LVU138
 578 000c 0446     		mov	r4, r0
 579              	.LVL48:
 428:Lib/Camera_Middleware/sensors/cmw_vd55g1.c ****   uint32_t again_min_mdB = (uint32_t)(LINEAR_TO_MDECIBEL(32.0 / (32.0 - (double)VD55G1_ANALOG_GAIN_
 580              		.loc 1 428 3 is_stmt 1 view .LVU139
 429:Lib/Camera_Middleware/sensors/cmw_vd55g1.c ****   uint32_t dgain_min_mdB = (uint32_t)(LINEAR_TO_MDECIBEL(FP58_TO_FLOAT(VD55G1_DIGITAL_GAIN_MIN)) + 
 581              		.loc 1 429 3 view .LVU140
 430:Lib/Camera_Middleware/sensors/cmw_vd55g1.c ****   uint32_t dgain_max_mdB = (uint32_t)(LINEAR_TO_MDECIBEL(FP58_TO_FLOAT(VD55G1_DIGITAL_GAIN_MAX)) + 
 582              		.loc 1 430 3 view .LVU141
 431:Lib/Camera_Middleware/sensors/cmw_vd55g1.c ****   double analog_linear_gain;
 583              		.loc 1 431 3 view .LVU142
 432:Lib/Camera_Middleware/sensors/cmw_vd55g1.c ****   double digital_linear_gain;
 584              		.loc 1 432 3 view .LVU143
 433:Lib/Camera_Middleware/sensors/cmw_vd55g1.c ****   int ret;
 585              		.loc 1 433 3 view .LVU144
 434:Lib/Camera_Middleware/sensors/cmw_vd55g1.c ****   int analog_reg;
 586              		.loc 1 434 3 view .LVU145
 435:Lib/Camera_Middleware/sensors/cmw_vd55g1.c ****   uint16_t digital_reg;
 587              		.loc 1 435 3 view .LVU146
 436:Lib/Camera_Middleware/sensors/cmw_vd55g1.c **** 
 588              		.loc 1 436 3 view .LVU147
ARM GAS  C:\Users\DJESSOU\AppData\Local\Temp\ccNVQBzK.s 			page 20


 589              		.loc 1 438 3 view .LVU148
 426:Lib/Camera_Middleware/sensors/cmw_vd55g1.c ****   CMW_VD55G1_t *ctx = (CMW_VD55G1_t *)io_ctx;
 590              		.loc 1 426 1 is_stmt 0 view .LVU149
 591 000e 82B0     		sub	sp, sp, #8
 592              		.cfi_def_cfa_offset 24
 593              		.loc 1 438 6 view .LVU150
 594 0010 74D8     		bhi	.L21
 439:Lib/Camera_Middleware/sensors/cmw_vd55g1.c ****       (gain > (int32_t)(dgain_max_mdB + again_max_mdB)))
 440:Lib/Camera_Middleware/sensors/cmw_vd55g1.c ****     return -1;
 441:Lib/Camera_Middleware/sensors/cmw_vd55g1.c **** 
 442:Lib/Camera_Middleware/sensors/cmw_vd55g1.c ****   if (gain <= (int32_t)again_max_mdB)
 595              		.loc 1 442 3 is_stmt 1 view .LVU151
 596              		.loc 1 442 6 is_stmt 0 view .LVU152
 597 0012 44F28E63 		movw	r3, #18062
 598 0016 9942     		cmp	r1, r3
 599 0018 9FED3B5B 		vldr.64	d5, .L23
 600 001c B3EE046B 		vmov.f64	d6, #2.0e+1
 601 0020 55DC     		bgt	.L19
 443:Lib/Camera_Middleware/sensors/cmw_vd55g1.c ****   {
 444:Lib/Camera_Middleware/sensors/cmw_vd55g1.c ****     analog_linear_gain = MDECIBEL_TO_LINEAR((double)(gain - (int32_t)dgain_min_mdB));
 602              		.loc 1 444 5 is_stmt 1 view .LVU153
 603              		.loc 1 444 26 is_stmt 0 view .LVU154
 604 0022 07EE901A 		vmov	s15, r1	@ int
 605 0026 B8EEE77B 		vcvt.f64.s32	d7, s15
 606 002a 87EE051B 		vdiv.f64	d1, d7, d5
 607 002e B2EE040B 		vmov.f64	d0, #1.0e+1
 608 0032 81EE061B 		vdiv.f64	d1, d1, d6
 609 0036 FFF7FEFF 		bl	pow
 610              	.LVL49:
 445:Lib/Camera_Middleware/sensors/cmw_vd55g1.c ****     digital_linear_gain = MDECIBEL_TO_LINEAR((double)dgain_min_mdB);
 611              		.loc 1 445 5 is_stmt 1 view .LVU155
 446:Lib/Camera_Middleware/sensors/cmw_vd55g1.c ****   }
 447:Lib/Camera_Middleware/sensors/cmw_vd55g1.c ****   else
 448:Lib/Camera_Middleware/sensors/cmw_vd55g1.c ****   {
 449:Lib/Camera_Middleware/sensors/cmw_vd55g1.c ****     analog_linear_gain = MDECIBEL_TO_LINEAR((double)again_max_mdB);
 450:Lib/Camera_Middleware/sensors/cmw_vd55g1.c ****     digital_linear_gain = MDECIBEL_TO_LINEAR((double)(gain - (int32_t)again_max_mdB));
 451:Lib/Camera_Middleware/sensors/cmw_vd55g1.c ****   }
 452:Lib/Camera_Middleware/sensors/cmw_vd55g1.c **** 
 453:Lib/Camera_Middleware/sensors/cmw_vd55g1.c ****   if (analog_linear_gain < 1.0)
 612              		.loc 1 453 3 view .LVU156
 613              		.loc 1 453 6 is_stmt 0 view .LVU157
 614 003a B7EE008B 		vmov.f64	d8, #1.0e+0
 615 003e B4EEC80B 		vcmpe.f64	d0, d8
 616 0042 F1EE10FA 		vmrs	APSR_nzcv, FPSCR
 617 0046 56D4     		bmi	.L22
 618              	.LVL50:
 619              	.L20:
 454:Lib/Camera_Middleware/sensors/cmw_vd55g1.c ****     analog_linear_gain = 1.0;
 455:Lib/Camera_Middleware/sensors/cmw_vd55g1.c **** 
 456:Lib/Camera_Middleware/sensors/cmw_vd55g1.c ****   analog_reg = (int)(32.0 - (32.0 / analog_linear_gain) + 0.5);
 620              		.loc 1 456 3 is_stmt 1 view .LVU158
 457:Lib/Camera_Middleware/sensors/cmw_vd55g1.c ****   if (analog_reg < VD55G1_ANALOG_GAIN_MIN)
 621              		.loc 1 457 3 view .LVU159
 458:Lib/Camera_Middleware/sensors/cmw_vd55g1.c ****     analog_reg = VD55G1_ANALOG_GAIN_MIN;
 459:Lib/Camera_Middleware/sensors/cmw_vd55g1.c ****   if (analog_reg > VD55G1_ANALOG_GAIN_MAX)
 460:Lib/Camera_Middleware/sensors/cmw_vd55g1.c ****     analog_reg = VD55G1_ANALOG_GAIN_MAX;
 461:Lib/Camera_Middleware/sensors/cmw_vd55g1.c **** 
ARM GAS  C:\Users\DJESSOU\AppData\Local\Temp\ccNVQBzK.s 			page 21


 462:Lib/Camera_Middleware/sensors/cmw_vd55g1.c ****   ret = VD55G1_SetAnalogGain(&ctx->ctx_driver, analog_reg);
 622              		.loc 1 462 3 view .LVU160
 456:Lib/Camera_Middleware/sensors/cmw_vd55g1.c ****   if (analog_reg < VD55G1_ANALOG_GAIN_MIN)
 623              		.loc 1 456 35 is_stmt 0 view .LVU161
 624 0048 9FED317B 		vldr.64	d7, .L23+8
 625 004c 87EE006B 		vdiv.f64	d6, d7, d0
 456:Lib/Camera_Middleware/sensors/cmw_vd55g1.c ****   if (analog_reg < VD55G1_ANALOG_GAIN_MIN)
 626              		.loc 1 456 27 view .LVU162
 627 0050 37EE467B 		vsub.f64	d7, d7, d6
 628              	.LVL51:
 456:Lib/Camera_Middleware/sensors/cmw_vd55g1.c ****   if (analog_reg < VD55G1_ANALOG_GAIN_MIN)
 629              		.loc 1 456 57 view .LVU163
 630 0054 B6EE006B 		vmov.f64	d6, #5.0e-1
 631 0058 37EE067B 		vadd.f64	d7, d7, d6
 632              	.LVL52:
 456:Lib/Camera_Middleware/sensors/cmw_vd55g1.c ****   if (analog_reg < VD55G1_ANALOG_GAIN_MIN)
 633              		.loc 1 456 14 view .LVU164
 634 005c FDEEC77B 		vcvt.s32.f64	s15, d7
 635 0060 17EE901A 		vmov	r1, s15	@ int
 459:Lib/Camera_Middleware/sensors/cmw_vd55g1.c ****     analog_reg = VD55G1_ANALOG_GAIN_MAX;
 636              		.loc 1 459 6 view .LVU165
 637 0064 1C29     		cmp	r1, #28
 638 0066 A8BF     		it	ge
 639 0068 1C21     		movge	r1, #28
 640              		.loc 1 462 9 view .LVU166
 641 006a 0434     		adds	r4, r4, #4
 642              	.LVL53:
 643              		.loc 1 462 9 view .LVU167
 644 006c 2046     		mov	r0, r4
 645 006e 21EAE171 		bic	r1, r1, r1, asr #31
 646 0072 FFF7FEFF 		bl	VD55G1_SetAnalogGain
 647              	.LVL54:
 463:Lib/Camera_Middleware/sensors/cmw_vd55g1.c ****   if (ret)
 648              		.loc 1 463 3 is_stmt 1 view .LVU168
 649              		.loc 1 463 6 is_stmt 0 view .LVU169
 650 0076 0028     		cmp	r0, #0
 651 0078 42D1     		bne	.L17
 464:Lib/Camera_Middleware/sensors/cmw_vd55g1.c ****     return ret;
 465:Lib/Camera_Middleware/sensors/cmw_vd55g1.c **** 
 466:Lib/Camera_Middleware/sensors/cmw_vd55g1.c ****   digital_reg = FLOAT_TO_FP58(digital_linear_gain);
 652              		.loc 1 466 3 is_stmt 1 view .LVU170
 653              		.loc 1 466 17 is_stmt 0 view .LVU171
 654 007a FCEEC87B 		vcvt.u32.f64	s15, d8
 655 007e 17EE903A 		vmov	r3, s15	@ int
 656 0082 9BB2     		uxth	r3, r3
 657              	.LVL55:
 467:Lib/Camera_Middleware/sensors/cmw_vd55g1.c ****   if (digital_reg < VD55G1_DIGITAL_GAIN_MIN)
 658              		.loc 1 467 3 is_stmt 1 view .LVU172
 468:Lib/Camera_Middleware/sensors/cmw_vd55g1.c ****     digital_reg = VD55G1_DIGITAL_GAIN_MIN;
 469:Lib/Camera_Middleware/sensors/cmw_vd55g1.c ****   if (digital_reg > VD55G1_DIGITAL_GAIN_MAX)
 470:Lib/Camera_Middleware/sensors/cmw_vd55g1.c ****     digital_reg = VD55G1_DIGITAL_GAIN_MAX;
 471:Lib/Camera_Middleware/sensors/cmw_vd55g1.c ****   ret = VD55G1_SetDigitalGain(&ctx->ctx_driver, (int)digital_reg);
 659              		.loc 1 471 3 view .LVU173
 466:Lib/Camera_Middleware/sensors/cmw_vd55g1.c ****   if (digital_reg < VD55G1_DIGITAL_GAIN_MIN)
 660              		.loc 1 466 17 is_stmt 0 view .LVU174
 661 0084 07EE903A 		vmov	s15, r3	@ int
 662 0088 B8EEE77B 		vcvt.f64.s32	d7, s15
ARM GAS  C:\Users\DJESSOU\AppData\Local\Temp\ccNVQBzK.s 			page 22


 663 008c 38EE478B 		vsub.f64	d8, d8, d7
 664              	.LVL56:
 466:Lib/Camera_Middleware/sensors/cmw_vd55g1.c ****   if (digital_reg < VD55G1_DIGITAL_GAIN_MIN)
 665              		.loc 1 466 17 view .LVU175
 666 0090 9FED217B 		vldr.64	d7, .L23+16
 667 0094 28EE078B 		vmul.f64	d8, d8, d7
 668 0098 FCEEC87B 		vcvt.u32.f64	s15, d8
 669 009c CDED017A 		vstr.32	s15, [sp, #4]	@ int
 670 00a0 9DF80410 		ldrb	r1, [sp, #4]	@ zero_extendqisi2
 671              		.loc 1 471 9 view .LVU176
 672 00a4 2046     		mov	r0, r4
 673              	.LVL57:
 466:Lib/Camera_Middleware/sensors/cmw_vd55g1.c ****   if (digital_reg < VD55G1_DIGITAL_GAIN_MIN)
 674              		.loc 1 466 15 view .LVU177
 675 00a6 41EA0321 		orr	r1, r1, r3, lsl #8
 469:Lib/Camera_Middleware/sensors/cmw_vd55g1.c ****     digital_reg = VD55G1_DIGITAL_GAIN_MAX;
 676              		.loc 1 469 6 view .LVU178
 677 00aa 89B2     		uxth	r1, r1
 678              		.loc 1 471 9 view .LVU179
 679 00ac B1F5806F 		cmp	r1, #1024
 680 00b0 28BF     		it	cs
 681 00b2 4FF48061 		movcs	r1, #1024
 682 00b6 B1F5807F 		cmp	r1, #256
 683 00ba 38BF     		it	cc
 684 00bc 4FF48071 		movcc	r1, #256
 472:Lib/Camera_Middleware/sensors/cmw_vd55g1.c ****   if (ret)
 473:Lib/Camera_Middleware/sensors/cmw_vd55g1.c ****     return ret;
 474:Lib/Camera_Middleware/sensors/cmw_vd55g1.c **** 
 475:Lib/Camera_Middleware/sensors/cmw_vd55g1.c ****   return 0;
 476:Lib/Camera_Middleware/sensors/cmw_vd55g1.c **** }
 685              		.loc 1 476 1 view .LVU180
 686 00c0 02B0     		add	sp, sp, #8
 687              		.cfi_remember_state
 688              		.cfi_def_cfa_offset 16
 689              		@ sp needed
 690 00c2 BDEC028B 		vldm	sp!, {d8}
 691              		.cfi_restore 80
 692              		.cfi_restore 81
 693              		.cfi_def_cfa_offset 8
 694 00c6 BDE81040 		pop	{r4, lr}
 695              		.cfi_restore 14
 696              		.cfi_restore 4
 697              		.cfi_def_cfa_offset 0
 698              	.LVL58:
 471:Lib/Camera_Middleware/sensors/cmw_vd55g1.c ****   if (ret)
 699              		.loc 1 471 9 view .LVU181
 700 00ca FFF7FEBF 		b	VD55G1_SetDigitalGain
 701              	.LVL59:
 702              	.L19:
 703              		.cfi_restore_state
 449:Lib/Camera_Middleware/sensors/cmw_vd55g1.c ****     digital_linear_gain = MDECIBEL_TO_LINEAR((double)(gain - (int32_t)again_max_mdB));
 704              		.loc 1 449 5 is_stmt 1 view .LVU182
 450:Lib/Camera_Middleware/sensors/cmw_vd55g1.c ****   }
 705              		.loc 1 450 5 view .LVU183
 450:Lib/Camera_Middleware/sensors/cmw_vd55g1.c ****   }
 706              		.loc 1 450 27 is_stmt 0 view .LVU184
 707 00ce A1F58D41 		sub	r1, r1, #18048
ARM GAS  C:\Users\DJESSOU\AppData\Local\Temp\ccNVQBzK.s 			page 23


 708              	.LVL60:
 450:Lib/Camera_Middleware/sensors/cmw_vd55g1.c ****   }
 709              		.loc 1 450 27 view .LVU185
 710 00d2 0E39     		subs	r1, r1, #14
 711              	.LVL61:
 450:Lib/Camera_Middleware/sensors/cmw_vd55g1.c ****   }
 712              		.loc 1 450 27 view .LVU186
 713 00d4 07EE901A 		vmov	s15, r1	@ int
 714 00d8 B8EEE77B 		vcvt.f64.s32	d7, s15
 715 00dc 87EE051B 		vdiv.f64	d1, d7, d5
 716 00e0 B2EE040B 		vmov.f64	d0, #1.0e+1
 717 00e4 81EE061B 		vdiv.f64	d1, d1, d6
 718 00e8 FFF7FEFF 		bl	pow
 719              	.LVL62:
 450:Lib/Camera_Middleware/sensors/cmw_vd55g1.c ****   }
 720              		.loc 1 450 27 view .LVU187
 721 00ec B0EE408B 		vmov.f64	d8, d0
 722              	.LVL63:
 453:Lib/Camera_Middleware/sensors/cmw_vd55g1.c ****     analog_linear_gain = 1.0;
 723              		.loc 1 453 3 is_stmt 1 view .LVU188
 449:Lib/Camera_Middleware/sensors/cmw_vd55g1.c ****     digital_linear_gain = MDECIBEL_TO_LINEAR((double)(gain - (int32_t)again_max_mdB));
 724              		.loc 1 449 26 is_stmt 0 view .LVU189
 725 00f0 9FED0B0B 		vldr.64	d0, .L23+24
 726              	.LVL64:
 449:Lib/Camera_Middleware/sensors/cmw_vd55g1.c ****     digital_linear_gain = MDECIBEL_TO_LINEAR((double)(gain - (int32_t)again_max_mdB));
 727              		.loc 1 449 26 view .LVU190
 728 00f4 A8E7     		b	.L20
 729              	.LVL65:
 730              	.L22:
 454:Lib/Camera_Middleware/sensors/cmw_vd55g1.c **** 
 731              		.loc 1 454 24 view .LVU191
 732 00f6 B0EE480B 		vmov.f64	d0, d8
 733              	.LVL66:
 454:Lib/Camera_Middleware/sensors/cmw_vd55g1.c **** 
 734              		.loc 1 454 24 view .LVU192
 735 00fa A5E7     		b	.L20
 736              	.LVL67:
 737              	.L21:
 440:Lib/Camera_Middleware/sensors/cmw_vd55g1.c **** 
 738              		.loc 1 440 12 view .LVU193
 739 00fc 4FF0FF30 		mov	r0, #-1
 740              	.LVL68:
 741              	.L17:
 742              		.loc 1 476 1 view .LVU194
 743 0100 02B0     		add	sp, sp, #8
 744              		.cfi_def_cfa_offset 16
 745              		@ sp needed
 746 0102 BDEC028B 		vldm	sp!, {d8}
 747              		.cfi_restore 80
 748              		.cfi_restore 81
 749              		.cfi_def_cfa_offset 8
 750 0106 10BD     		pop	{r4, pc}
 751              	.L24:
 752              		.align	3
 753              	.L23:
 754 0108 00000000 		.word	0
 755 010c 00408F40 		.word	1083129856
ARM GAS  C:\Users\DJESSOU\AppData\Local\Temp\ccNVQBzK.s 			page 24


 756 0110 00000000 		.word	0
 757 0114 00004040 		.word	1077936128
 758 0118 00000000 		.word	0
 759 011c 00007040 		.word	1081081856
 760 0120 15FD102D 		.word	756088085
 761 0124 18002040 		.word	1075839000
 762              		.cfi_endproc
 763              	.LFE890:
 765              		.section	.text.CMW_VD55G1_SetExposure,"ax",%progbits
 766              		.align	1
 767              		.global	CMW_VD55G1_SetExposure
 768              		.syntax unified
 769              		.thumb
 770              		.thumb_func
 772              	CMW_VD55G1_SetExposure:
 773              	.LVL69:
 774              	.LFB891:
 477:Lib/Camera_Middleware/sensors/cmw_vd55g1.c **** 
 478:Lib/Camera_Middleware/sensors/cmw_vd55g1.c **** int32_t CMW_VD55G1_SetExposure(void *io_ctx, int32_t exposure)
 479:Lib/Camera_Middleware/sensors/cmw_vd55g1.c **** {
 775              		.loc 1 479 1 is_stmt 1 view -0
 776              		.cfi_startproc
 777              		@ args = 0, pretend = 0, frame = 0
 778              		@ frame_needed = 0, uses_anonymous_args = 0
 779              		@ link register save eliminated.
 480:Lib/Camera_Middleware/sensors/cmw_vd55g1.c ****   return VD55G1_SetExposureTime(&((CMW_VD55G1_t *)io_ctx)->ctx_driver, exposure);
 780              		.loc 1 480 3 view .LVU196
 781              		.loc 1 480 10 is_stmt 0 view .LVU197
 782 0000 0430     		adds	r0, r0, #4
 783              	.LVL70:
 784              		.loc 1 480 10 view .LVU198
 785 0002 FFF7FEBF 		b	VD55G1_SetExposureTime
 786              	.LVL71:
 787              		.loc 1 480 10 view .LVU199
 788              		.cfi_endproc
 789              	.LFE891:
 791              		.section	.text.CMW_VD55G1_SetExposureMode,"ax",%progbits
 792              		.align	1
 793              		.global	CMW_VD55G1_SetExposureMode
 794              		.syntax unified
 795              		.thumb
 796              		.thumb_func
 798              	CMW_VD55G1_SetExposureMode:
 799              	.LVL72:
 800              	.LFB892:
 481:Lib/Camera_Middleware/sensors/cmw_vd55g1.c **** }
 482:Lib/Camera_Middleware/sensors/cmw_vd55g1.c **** 
 483:Lib/Camera_Middleware/sensors/cmw_vd55g1.c **** int32_t CMW_VD55G1_SetExposureMode(void *io_ctx, int32_t mode)
 484:Lib/Camera_Middleware/sensors/cmw_vd55g1.c **** {
 801              		.loc 1 484 1 is_stmt 1 view -0
 802              		.cfi_startproc
 803              		@ args = 0, pretend = 0, frame = 0
 804              		@ frame_needed = 0, uses_anonymous_args = 0
 485:Lib/Camera_Middleware/sensors/cmw_vd55g1.c ****   int ret = -1;
 805              		.loc 1 485 3 view .LVU201
 486:Lib/Camera_Middleware/sensors/cmw_vd55g1.c **** 
 487:Lib/Camera_Middleware/sensors/cmw_vd55g1.c ****   switch (mode)
ARM GAS  C:\Users\DJESSOU\AppData\Local\Temp\ccNVQBzK.s 			page 25


 806              		.loc 1 487 3 view .LVU202
 807 0000 0129     		cmp	r1, #1
 484:Lib/Camera_Middleware/sensors/cmw_vd55g1.c ****   int ret = -1;
 808              		.loc 1 484 1 is_stmt 0 view .LVU203
 809 0002 08B5     		push	{r3, lr}
 810              		.cfi_def_cfa_offset 8
 811              		.cfi_offset 3, -8
 812              		.cfi_offset 14, -4
 813 0004 00F10400 		add	r0, r0, #4
 814              	.LVL73:
 815              		.loc 1 487 3 view .LVU204
 816 0008 02D0     		beq	.L32
 817 000a 0229     		cmp	r1, #2
 488:Lib/Camera_Middleware/sensors/cmw_vd55g1.c ****   {
 489:Lib/Camera_Middleware/sensors/cmw_vd55g1.c ****     case CMW_EXPOSUREMODE_MANUAL:
 490:Lib/Camera_Middleware/sensors/cmw_vd55g1.c ****       ret = VD55G1_SetExposureMode(&((CMW_VD55G1_t *)io_ctx)->ctx_driver, VD55G1_EXPOSURE_MODE_MANU
 818              		.loc 1 490 7 is_stmt 1 view .LVU205
 491:Lib/Camera_Middleware/sensors/cmw_vd55g1.c ****       break;
 492:Lib/Camera_Middleware/sensors/cmw_vd55g1.c ****     case CMW_EXPOSUREMODE_AUTOFREEZE:
 493:Lib/Camera_Middleware/sensors/cmw_vd55g1.c ****       ret = VD55G1_SetExposureMode(&((CMW_VD55G1_t *)io_ctx)->ctx_driver, VD55G1_EXPOSURE_MODE_FREE
 494:Lib/Camera_Middleware/sensors/cmw_vd55g1.c ****       break;
 495:Lib/Camera_Middleware/sensors/cmw_vd55g1.c ****     case CMW_EXPOSUREMODE_AUTO:
 496:Lib/Camera_Middleware/sensors/cmw_vd55g1.c ****     default:
 497:Lib/Camera_Middleware/sensors/cmw_vd55g1.c ****       ret = VD55G1_SetExposureMode(&((CMW_VD55G1_t *)io_ctx)->ctx_driver, VD55G1_EXPOSURE_MODE_AUTO
 819              		.loc 1 497 7 view .LVU206
 820              		.loc 1 497 13 is_stmt 0 view .LVU207
 821 000c 18BF     		it	ne
 822 000e 0021     		movne	r1, #0
 823              	.LVL74:
 824              	.L32:
 825              		.loc 1 497 13 view .LVU208
 826 0010 FFF7FEFF 		bl	VD55G1_SetExposureMode
 827              	.LVL75:
 498:Lib/Camera_Middleware/sensors/cmw_vd55g1.c ****       break;
 828              		.loc 1 498 7 is_stmt 1 view .LVU209
 499:Lib/Camera_Middleware/sensors/cmw_vd55g1.c ****   }
 500:Lib/Camera_Middleware/sensors/cmw_vd55g1.c **** 
 501:Lib/Camera_Middleware/sensors/cmw_vd55g1.c ****   return (ret == 0) ? CMW_ERROR_NONE : CMW_ERROR_UNKNOWN_FAILURE;
 829              		.loc 1 501 3 view .LVU210
 830              		.loc 1 501 38 is_stmt 0 discriminator 2 view .LVU211
 831 0014 0028     		cmp	r0, #0
 502:Lib/Camera_Middleware/sensors/cmw_vd55g1.c **** }
 832              		.loc 1 502 1 view .LVU212
 833 0016 18BF     		it	ne
 834 0018 6FF00500 		mvnne	r0, #5
 835              	.LVL76:
 836              		.loc 1 502 1 view .LVU213
 837 001c 08BD     		pop	{r3, pc}
 838              		.cfi_endproc
 839              	.LFE892:
 841              		.section	.rodata.CMW_VD55G1_GetSensorInfo.str1.1,"aMS",%progbits,1
 842              	.LC0:
 843 0000 56443535 		.ascii	"VD55G1\000"
 843      473100
 844              		.section	.text.CMW_VD55G1_GetSensorInfo,"ax",%progbits
 845              		.align	1
 846              		.syntax unified
ARM GAS  C:\Users\DJESSOU\AppData\Local\Temp\ccNVQBzK.s 			page 26


 847              		.thumb
 848              		.thumb_func
 850              	CMW_VD55G1_GetSensorInfo:
 851              	.LVL77:
 852              	.LFB881:
 188:Lib/Camera_Middleware/sensors/cmw_vd55g1.c ****   uint32_t again_min_mdB, again_max_mdB;
 853              		.loc 1 188 1 is_stmt 1 view -0
 854              		.cfi_startproc
 855              		@ args = 0, pretend = 0, frame = 8
 856              		@ frame_needed = 0, uses_anonymous_args = 0
 189:Lib/Camera_Middleware/sensors/cmw_vd55g1.c ****   uint32_t dgain_min_mdB, dgain_max_mdB;
 857              		.loc 1 189 3 view .LVU215
 190:Lib/Camera_Middleware/sensors/cmw_vd55g1.c ****   uint32_t exposure_min, exposure_max;
 858              		.loc 1 190 3 view .LVU216
 191:Lib/Camera_Middleware/sensors/cmw_vd55g1.c ****   int ret;
 859              		.loc 1 191 3 view .LVU217
 192:Lib/Camera_Middleware/sensors/cmw_vd55g1.c **** 
 860              		.loc 1 192 3 view .LVU218
 194:Lib/Camera_Middleware/sensors/cmw_vd55g1.c ****   {
 861              		.loc 1 194 3 view .LVU219
 188:Lib/Camera_Middleware/sensors/cmw_vd55g1.c ****   uint32_t again_min_mdB, again_max_mdB;
 862              		.loc 1 188 1 is_stmt 0 view .LVU220
 863 0000 37B5     		push	{r0, r1, r2, r4, r5, lr}
 864              		.cfi_def_cfa_offset 24
 865              		.cfi_offset 4, -12
 866              		.cfi_offset 5, -8
 867              		.cfi_offset 14, -4
 188:Lib/Camera_Middleware/sensors/cmw_vd55g1.c ****   uint32_t again_min_mdB, again_max_mdB;
 868              		.loc 1 188 1 view .LVU221
 869 0002 0C46     		mov	r4, r1
 194:Lib/Camera_Middleware/sensors/cmw_vd55g1.c ****   {
 870              		.loc 1 194 6 view .LVU222
 871 0004 0546     		mov	r5, r0
 872 0006 28B3     		cbz	r0, .L37
 194:Lib/Camera_Middleware/sensors/cmw_vd55g1.c ****   {
 873              		.loc 1 194 24 discriminator 1 view .LVU223
 874 0008 21B3     		cbz	r1, .L37
 199:Lib/Camera_Middleware/sensors/cmw_vd55g1.c ****   {
 875              		.loc 1 199 3 is_stmt 1 view .LVU224
 201:Lib/Camera_Middleware/sensors/cmw_vd55g1.c ****   }
 876              		.loc 1 201 5 view .LVU225
 877 000a 1449     		ldr	r1, .L38
 878              	.LVL78:
 201:Lib/Camera_Middleware/sensors/cmw_vd55g1.c ****   }
 879              		.loc 1 201 5 is_stmt 0 view .LVU226
 880 000c 2046     		mov	r0, r4
 881              	.LVL79:
 201:Lib/Camera_Middleware/sensors/cmw_vd55g1.c ****   }
 882              		.loc 1 201 5 view .LVU227
 883 000e FFF7FEFF 		bl	strcpy
 884              	.LVL80:
 208:Lib/Camera_Middleware/sensors/cmw_vd55g1.c ****   info->color_depth = ((CMW_VD55G1_t *)io_ctx)->ctx_driver.ctx.config_save.pixel_depth;
 885              		.loc 1 208 3 is_stmt 1 view .LVU228
 208:Lib/Camera_Middleware/sensors/cmw_vd55g1.c ****   info->color_depth = ((CMW_VD55G1_t *)io_ctx)->ctx_driver.ctx.config_save.pixel_depth;
 886              		.loc 1 208 23 is_stmt 0 view .LVU229
 887 0012 0423     		movs	r3, #4
 888 0014 84F82030 		strb	r3, [r4, #32]
ARM GAS  C:\Users\DJESSOU\AppData\Local\Temp\ccNVQBzK.s 			page 27


 209:Lib/Camera_Middleware/sensors/cmw_vd55g1.c ****   info->width = VD55G1_MAX_WIDTH;
 889              		.loc 1 209 3 is_stmt 1 view .LVU230
 209:Lib/Camera_Middleware/sensors/cmw_vd55g1.c ****   info->width = VD55G1_MAX_WIDTH;
 890              		.loc 1 209 21 is_stmt 0 view .LVU231
 891 0018 95F84F30 		ldrb	r3, [r5, #79]	@ zero_extendqisi2
 211:Lib/Camera_Middleware/sensors/cmw_vd55g1.c **** 
 892              		.loc 1 211 16 view .LVU232
 893 001c 4FF44972 		mov	r2, #804
 209:Lib/Camera_Middleware/sensors/cmw_vd55g1.c ****   info->width = VD55G1_MAX_WIDTH;
 894              		.loc 1 209 21 view .LVU233
 895 0020 84F82130 		strb	r3, [r4, #33]
 210:Lib/Camera_Middleware/sensors/cmw_vd55g1.c ****   info->height = VD55G1_MAX_HEIGHT;
 896              		.loc 1 210 3 is_stmt 1 view .LVU234
 211:Lib/Camera_Middleware/sensors/cmw_vd55g1.c **** 
 897              		.loc 1 211 16 is_stmt 0 view .LVU235
 898 0024 4FF43073 		mov	r3, #704
 220:Lib/Camera_Middleware/sensors/cmw_vd55g1.c ****   info->again_max = again_max_mdB;
 899              		.loc 1 220 18 view .LVU236
 900 0028 0021     		movs	r1, #0
 211:Lib/Camera_Middleware/sensors/cmw_vd55g1.c **** 
 901              		.loc 1 211 16 view .LVU237
 902 002a C4E90923 		strd	r2, r3, [r4, #36]
 214:Lib/Camera_Middleware/sensors/cmw_vd55g1.c ****   again_max_mdB = (uint32_t)(LINEAR_TO_MDECIBEL(32.0 / (32.0 - (double)VD55G1_ANALOG_GAIN_MAX)) + 0
 903              		.loc 1 214 3 is_stmt 1 view .LVU238
 904              	.LVL81:
 215:Lib/Camera_Middleware/sensors/cmw_vd55g1.c ****   dgain_min_mdB = (uint32_t)(LINEAR_TO_MDECIBEL(FP58_TO_FLOAT(VD55G1_DIGITAL_GAIN_MIN)) + 0.5);
 905              		.loc 1 215 3 view .LVU239
 216:Lib/Camera_Middleware/sensors/cmw_vd55g1.c ****   dgain_max_mdB = (uint32_t)(LINEAR_TO_MDECIBEL(FP58_TO_FLOAT(VD55G1_DIGITAL_GAIN_MAX)) + 0.5);
 906              		.loc 1 216 3 view .LVU240
 217:Lib/Camera_Middleware/sensors/cmw_vd55g1.c **** 
 907              		.loc 1 217 3 view .LVU241
 219:Lib/Camera_Middleware/sensors/cmw_vd55g1.c ****   info->gain_max = again_max_mdB + dgain_max_mdB;
 908              		.loc 1 219 3 view .LVU242
 220:Lib/Camera_Middleware/sensors/cmw_vd55g1.c ****   info->again_max = again_max_mdB;
 909              		.loc 1 220 18 is_stmt 0 view .LVU243
 910 002e 47F29753 		movw	r3, #30103
 911 0032 C4E90B13 		strd	r1, r3, [r4, #44]
 221:Lib/Camera_Middleware/sensors/cmw_vd55g1.c **** 
 912              		.loc 1 221 3 is_stmt 1 view .LVU244
 221:Lib/Camera_Middleware/sensors/cmw_vd55g1.c **** 
 913              		.loc 1 221 19 is_stmt 0 view .LVU245
 914 0036 44F28E63 		movw	r3, #18062
 223:Lib/Camera_Middleware/sensors/cmw_vd55g1.c ****   if (ret)
 915              		.loc 1 223 9 view .LVU246
 916 003a 6946     		mov	r1, sp
 221:Lib/Camera_Middleware/sensors/cmw_vd55g1.c **** 
 917              		.loc 1 221 19 view .LVU247
 918 003c 6363     		str	r3, [r4, #52]
 223:Lib/Camera_Middleware/sensors/cmw_vd55g1.c ****   if (ret)
 919              		.loc 1 223 3 is_stmt 1 view .LVU248
 223:Lib/Camera_Middleware/sensors/cmw_vd55g1.c ****   if (ret)
 920              		.loc 1 223 9 is_stmt 0 view .LVU249
 921 003e 01AA     		add	r2, sp, #4
 922 0040 281D     		adds	r0, r5, #4
 923 0042 FFF7FEFF 		bl	VD55G1_GetExposureRegRange
 924              	.LVL82:
 224:Lib/Camera_Middleware/sensors/cmw_vd55g1.c ****     return ret;
ARM GAS  C:\Users\DJESSOU\AppData\Local\Temp\ccNVQBzK.s 			page 28


 925              		.loc 1 224 3 is_stmt 1 view .LVU250
 224:Lib/Camera_Middleware/sensors/cmw_vd55g1.c ****     return ret;
 926              		.loc 1 224 6 is_stmt 0 view .LVU251
 927 0046 18B9     		cbnz	r0, .L33
 227:Lib/Camera_Middleware/sensors/cmw_vd55g1.c ****   info->exposure_max = exposure_max;
 928              		.loc 1 227 3 is_stmt 1 view .LVU252
 227:Lib/Camera_Middleware/sensors/cmw_vd55g1.c ****   info->exposure_max = exposure_max;
 929              		.loc 1 227 22 is_stmt 0 view .LVU253
 930 0048 009B     		ldr	r3, [sp]
 931 004a A363     		str	r3, [r4, #56]
 228:Lib/Camera_Middleware/sensors/cmw_vd55g1.c **** 
 932              		.loc 1 228 3 is_stmt 1 view .LVU254
 228:Lib/Camera_Middleware/sensors/cmw_vd55g1.c **** 
 933              		.loc 1 228 22 is_stmt 0 view .LVU255
 934 004c 019B     		ldr	r3, [sp, #4]
 935 004e E363     		str	r3, [r4, #60]
 230:Lib/Camera_Middleware/sensors/cmw_vd55g1.c **** }
 936              		.loc 1 230 3 is_stmt 1 view .LVU256
 937              	.LVL83:
 938              	.L33:
 231:Lib/Camera_Middleware/sensors/cmw_vd55g1.c **** 
 939              		.loc 1 231 1 is_stmt 0 view .LVU257
 940 0050 03B0     		add	sp, sp, #12
 941              		.cfi_remember_state
 942              		.cfi_def_cfa_offset 12
 943              		@ sp needed
 944 0052 30BD     		pop	{r4, r5, pc}
 945              	.LVL84:
 946              	.L37:
 947              		.cfi_restore_state
 196:Lib/Camera_Middleware/sensors/cmw_vd55g1.c ****   }
 948              		.loc 1 196 12 view .LVU258
 949 0054 6FF00100 		mvn	r0, #1
 950              	.LVL85:
 196:Lib/Camera_Middleware/sensors/cmw_vd55g1.c ****   }
 951              		.loc 1 196 12 view .LVU259
 952 0058 FAE7     		b	.L33
 953              	.L39:
 954 005a 00BF     		.align	2
 955              	.L38:
 956 005c 00000000 		.word	.LC0
 957              		.cfi_endproc
 958              	.LFE881:
 960              		.section	.text.CMW_VD55G1_MirrorFlipConfig,"ax",%progbits
 961              		.align	1
 962              		.syntax unified
 963              		.thumb
 964              		.thumb_func
 966              	CMW_VD55G1_MirrorFlipConfig:
 967              	.LVL86:
 968              	.LFB889:
 402:Lib/Camera_Middleware/sensors/cmw_vd55g1.c ****   int32_t ret = CMW_ERROR_NONE;
 969              		.loc 1 402 1 is_stmt 1 view -0
 970              		.cfi_startproc
 971              		@ args = 0, pretend = 0, frame = 0
 972              		@ frame_needed = 0, uses_anonymous_args = 0
 973              		@ link register save eliminated.
ARM GAS  C:\Users\DJESSOU\AppData\Local\Temp\ccNVQBzK.s 			page 29


 403:Lib/Camera_Middleware/sensors/cmw_vd55g1.c **** 
 974              		.loc 1 403 3 view .LVU261
 405:Lib/Camera_Middleware/sensors/cmw_vd55g1.c ****     case CMW_MIRRORFLIP_NONE:
 975              		.loc 1 405 3 view .LVU262
 976 0000 0329     		cmp	r1, #3
 977 0002 0DD8     		bhi	.L41
 978 0004 DFE801F0 		tbb	[pc, r1]
 979              	.L43:
 980 0008 02       		.byte	(.L46-.L43)/2
 981 0009 06       		.byte	(.L45-.L43)/2
 982 000a 08       		.byte	(.L44-.L43)/2
 983 000b 0A       		.byte	(.L42-.L43)/2
 984              		.p2align 1
 985              	.L46:
 407:Lib/Camera_Middleware/sensors/cmw_vd55g1.c ****       break;
 986              		.loc 1 407 7 view .LVU263
 407:Lib/Camera_Middleware/sensors/cmw_vd55g1.c ****       break;
 987              		.loc 1 407 13 is_stmt 0 view .LVU264
 988 000c 0021     		movs	r1, #0
 989              	.LVL87:
 990              	.L47:
 416:Lib/Camera_Middleware/sensors/cmw_vd55g1.c ****       break;
 991              		.loc 1 416 13 view .LVU265
 992 000e 0430     		adds	r0, r0, #4
 993              	.LVL88:
 416:Lib/Camera_Middleware/sensors/cmw_vd55g1.c ****       break;
 994              		.loc 1 416 13 view .LVU266
 995 0010 FFF7FEBF 		b	VD55G1_SetFlipMirrorMode
 996              	.LVL89:
 997              	.L45:
 410:Lib/Camera_Middleware/sensors/cmw_vd55g1.c ****       break;
 998              		.loc 1 410 7 is_stmt 1 view .LVU267
 410:Lib/Camera_Middleware/sensors/cmw_vd55g1.c ****       break;
 999              		.loc 1 410 13 is_stmt 0 view .LVU268
 1000 0014 0121     		movs	r1, #1
 1001              	.LVL90:
 410:Lib/Camera_Middleware/sensors/cmw_vd55g1.c ****       break;
 1002              		.loc 1 410 13 view .LVU269
 1003 0016 FAE7     		b	.L47
 1004              	.LVL91:
 1005              	.L44:
 413:Lib/Camera_Middleware/sensors/cmw_vd55g1.c ****       break;
 1006              		.loc 1 413 7 is_stmt 1 view .LVU270
 413:Lib/Camera_Middleware/sensors/cmw_vd55g1.c ****       break;
 1007              		.loc 1 413 13 is_stmt 0 view .LVU271
 1008 0018 0221     		movs	r1, #2
 1009              	.LVL92:
 413:Lib/Camera_Middleware/sensors/cmw_vd55g1.c ****       break;
 1010              		.loc 1 413 13 view .LVU272
 1011 001a F8E7     		b	.L47
 1012              	.LVL93:
 1013              	.L42:
 416:Lib/Camera_Middleware/sensors/cmw_vd55g1.c ****       break;
 1014              		.loc 1 416 7 is_stmt 1 view .LVU273
 416:Lib/Camera_Middleware/sensors/cmw_vd55g1.c ****       break;
 1015              		.loc 1 416 13 is_stmt 0 view .LVU274
 1016 001c 0321     		movs	r1, #3
ARM GAS  C:\Users\DJESSOU\AppData\Local\Temp\ccNVQBzK.s 			page 30


 1017              	.LVL94:
 416:Lib/Camera_Middleware/sensors/cmw_vd55g1.c ****       break;
 1018              		.loc 1 416 13 view .LVU275
 1019 001e F6E7     		b	.L47
 1020              	.LVL95:
 1021              	.L41:
 422:Lib/Camera_Middleware/sensors/cmw_vd55g1.c **** }
 1022              		.loc 1 422 3 is_stmt 1 view .LVU276
 423:Lib/Camera_Middleware/sensors/cmw_vd55g1.c **** 
 1023              		.loc 1 423 1 is_stmt 0 view .LVU277
 1024 0020 6FF00300 		mvn	r0, #3
 1025              	.LVL96:
 423:Lib/Camera_Middleware/sensors/cmw_vd55g1.c **** 
 1026              		.loc 1 423 1 view .LVU278
 1027 0024 7047     		bx	lr
 1028              		.cfi_endproc
 1029              	.LFE889:
 1031              		.section	.text.CMW_VD55G1_Stop,"ax",%progbits
 1032              		.align	1
 1033              		.syntax unified
 1034              		.thumb
 1035              		.thumb_func
 1037              	CMW_VD55G1_Stop:
 1038              	.LVL97:
 1039              	.LFB887:
 370:Lib/Camera_Middleware/sensors/cmw_vd55g1.c ****   int ret = CMW_ERROR_NONE;
 1040              		.loc 1 370 1 is_stmt 1 view -0
 1041              		.cfi_startproc
 1042              		@ args = 0, pretend = 0, frame = 0
 1043              		@ frame_needed = 0, uses_anonymous_args = 0
 371:Lib/Camera_Middleware/sensors/cmw_vd55g1.c **** 
 1044              		.loc 1 371 3 view .LVU280
 373:Lib/Camera_Middleware/sensors/cmw_vd55g1.c ****   if (ret)
 1045              		.loc 1 373 3 view .LVU281
 370:Lib/Camera_Middleware/sensors/cmw_vd55g1.c ****   int ret = CMW_ERROR_NONE;
 1046              		.loc 1 370 1 is_stmt 0 view .LVU282
 1047 0000 08B5     		push	{r3, lr}
 1048              		.cfi_def_cfa_offset 8
 1049              		.cfi_offset 3, -8
 1050              		.cfi_offset 14, -4
 373:Lib/Camera_Middleware/sensors/cmw_vd55g1.c ****   if (ret)
 1051              		.loc 1 373 9 view .LVU283
 1052 0002 0430     		adds	r0, r0, #4
 1053              	.LVL98:
 373:Lib/Camera_Middleware/sensors/cmw_vd55g1.c ****   if (ret)
 1054              		.loc 1 373 9 view .LVU284
 1055 0004 FFF7FEFF 		bl	VD55G1_Stop
 1056              	.LVL99:
 374:Lib/Camera_Middleware/sensors/cmw_vd55g1.c ****   {
 1057              		.loc 1 374 3 is_stmt 1 view .LVU285
 376:Lib/Camera_Middleware/sensors/cmw_vd55g1.c ****   }
 1058              		.loc 1 376 12 is_stmt 0 view .LVU286
 1059 0008 0028     		cmp	r0, #0
 379:Lib/Camera_Middleware/sensors/cmw_vd55g1.c **** 
 1060              		.loc 1 379 1 view .LVU287
 1061 000a 18BF     		it	ne
 1062 000c 6FF00300 		mvnne	r0, #3
ARM GAS  C:\Users\DJESSOU\AppData\Local\Temp\ccNVQBzK.s 			page 31


 1063              	.LVL100:
 379:Lib/Camera_Middleware/sensors/cmw_vd55g1.c **** 
 1064              		.loc 1 379 1 view .LVU288
 1065 0010 08BD     		pop	{r3, pc}
 1066              		.cfi_endproc
 1067              	.LFE887:
 1069              		.section	.text.CMW_VD55G1_Start,"ax",%progbits
 1070              		.align	1
 1071              		.syntax unified
 1072              		.thumb
 1073              		.thumb_func
 1075              	CMW_VD55G1_Start:
 1076              	.LVL101:
 1077              	.LFB886:
 359:Lib/Camera_Middleware/sensors/cmw_vd55g1.c ****   int ret = CMW_ERROR_NONE;
 1078              		.loc 1 359 1 is_stmt 1 view -0
 1079              		.cfi_startproc
 1080              		@ args = 0, pretend = 0, frame = 0
 1081              		@ frame_needed = 0, uses_anonymous_args = 0
 360:Lib/Camera_Middleware/sensors/cmw_vd55g1.c ****   ret = VD55G1_Start(&((CMW_VD55G1_t *)io_ctx)->ctx_driver);
 1082              		.loc 1 360 3 view .LVU290
 361:Lib/Camera_Middleware/sensors/cmw_vd55g1.c ****   if (ret) {
 1083              		.loc 1 361 3 view .LVU291
 359:Lib/Camera_Middleware/sensors/cmw_vd55g1.c ****   int ret = CMW_ERROR_NONE;
 1084              		.loc 1 359 1 is_stmt 0 view .LVU292
 1085 0000 10B5     		push	{r4, lr}
 1086              		.cfi_def_cfa_offset 8
 1087              		.cfi_offset 4, -8
 1088              		.cfi_offset 14, -4
 361:Lib/Camera_Middleware/sensors/cmw_vd55g1.c ****   if (ret) {
 1089              		.loc 1 361 9 view .LVU293
 1090 0002 041D     		adds	r4, r0, #4
 1091 0004 2046     		mov	r0, r4
 1092              	.LVL102:
 361:Lib/Camera_Middleware/sensors/cmw_vd55g1.c ****   if (ret) {
 1093              		.loc 1 361 9 view .LVU294
 1094 0006 FFF7FEFF 		bl	VD55G1_Start
 1095              	.LVL103:
 362:Lib/Camera_Middleware/sensors/cmw_vd55g1.c ****     VD55G1_DeInit(&((CMW_VD55G1_t *)io_ctx)->ctx_driver);
 1096              		.loc 1 362 3 is_stmt 1 view .LVU295
 362:Lib/Camera_Middleware/sensors/cmw_vd55g1.c ****     VD55G1_DeInit(&((CMW_VD55G1_t *)io_ctx)->ctx_driver);
 1097              		.loc 1 362 6 is_stmt 0 view .LVU296
 1098 000a 20B1     		cbz	r0, .L51
 363:Lib/Camera_Middleware/sensors/cmw_vd55g1.c ****     return CMW_ERROR_PERIPH_FAILURE;
 1099              		.loc 1 363 5 is_stmt 1 view .LVU297
 1100 000c 2046     		mov	r0, r4
 1101              	.LVL104:
 363:Lib/Camera_Middleware/sensors/cmw_vd55g1.c ****     return CMW_ERROR_PERIPH_FAILURE;
 1102              		.loc 1 363 5 is_stmt 0 view .LVU298
 1103 000e FFF7FEFF 		bl	VD55G1_DeInit
 1104              	.LVL105:
 364:Lib/Camera_Middleware/sensors/cmw_vd55g1.c ****   }
 1105              		.loc 1 364 5 is_stmt 1 view .LVU299
 364:Lib/Camera_Middleware/sensors/cmw_vd55g1.c ****   }
 1106              		.loc 1 364 12 is_stmt 0 view .LVU300
 1107 0012 6FF00300 		mvn	r0, #3
 1108              	.L51:
ARM GAS  C:\Users\DJESSOU\AppData\Local\Temp\ccNVQBzK.s 			page 32


 367:Lib/Camera_Middleware/sensors/cmw_vd55g1.c **** 
 1109              		.loc 1 367 1 view .LVU301
 1110 0016 10BD     		pop	{r4, pc}
 367:Lib/Camera_Middleware/sensors/cmw_vd55g1.c **** 
 1111              		.loc 1 367 1 view .LVU302
 1112              		.cfi_endproc
 1113              	.LFE886:
 1115              		.section	.text.CMW_VD55G1_DeInit,"ax",%progbits
 1116              		.align	1
 1117              		.syntax unified
 1118              		.thumb
 1119              		.thumb_func
 1121              	CMW_VD55G1_DeInit:
 1122              	.LVL106:
 1123              	.LFB888:
 382:Lib/Camera_Middleware/sensors/cmw_vd55g1.c ****   int ret = CMW_ERROR_NONE;
 1124              		.loc 1 382 1 is_stmt 1 view -0
 1125              		.cfi_startproc
 1126              		@ args = 0, pretend = 0, frame = 0
 1127              		@ frame_needed = 0, uses_anonymous_args = 0
 383:Lib/Camera_Middleware/sensors/cmw_vd55g1.c **** 
 1128              		.loc 1 383 3 view .LVU304
 385:Lib/Camera_Middleware/sensors/cmw_vd55g1.c ****   if (ret)
 1129              		.loc 1 385 3 view .LVU305
 382:Lib/Camera_Middleware/sensors/cmw_vd55g1.c ****   int ret = CMW_ERROR_NONE;
 1130              		.loc 1 382 1 is_stmt 0 view .LVU306
 1131 0000 38B5     		push	{r3, r4, r5, lr}
 1132              		.cfi_def_cfa_offset 16
 1133              		.cfi_offset 3, -16
 1134              		.cfi_offset 4, -12
 1135              		.cfi_offset 5, -8
 1136              		.cfi_offset 14, -4
 385:Lib/Camera_Middleware/sensors/cmw_vd55g1.c ****   if (ret)
 1137              		.loc 1 385 9 view .LVU307
 1138 0002 051D     		adds	r5, r0, #4
 382:Lib/Camera_Middleware/sensors/cmw_vd55g1.c ****   int ret = CMW_ERROR_NONE;
 1139              		.loc 1 382 1 view .LVU308
 1140 0004 0446     		mov	r4, r0
 385:Lib/Camera_Middleware/sensors/cmw_vd55g1.c ****   if (ret)
 1141              		.loc 1 385 9 view .LVU309
 1142 0006 2846     		mov	r0, r5
 1143              	.LVL107:
 385:Lib/Camera_Middleware/sensors/cmw_vd55g1.c ****   if (ret)
 1144              		.loc 1 385 9 view .LVU310
 1145 0008 FFF7FEFF 		bl	VD55G1_Stop
 1146              	.LVL108:
 386:Lib/Camera_Middleware/sensors/cmw_vd55g1.c ****   {
 1147              		.loc 1 386 3 is_stmt 1 view .LVU311
 386:Lib/Camera_Middleware/sensors/cmw_vd55g1.c ****   {
 1148              		.loc 1 386 6 is_stmt 0 view .LVU312
 1149 000c 10B1     		cbz	r0, .L57
 1150              	.L59:
 388:Lib/Camera_Middleware/sensors/cmw_vd55g1.c ****   }
 1151              		.loc 1 388 12 view .LVU313
 1152 000e 6FF00300 		mvn	r0, #3
 1153              	.LVL109:
 1154              	.L56:
ARM GAS  C:\Users\DJESSOU\AppData\Local\Temp\ccNVQBzK.s 			page 33


 399:Lib/Camera_Middleware/sensors/cmw_vd55g1.c **** 
 1155              		.loc 1 399 1 view .LVU314
 1156 0012 38BD     		pop	{r3, r4, r5, pc}
 1157              	.LVL110:
 1158              	.L57:
 391:Lib/Camera_Middleware/sensors/cmw_vd55g1.c ****   if (ret)
 1159              		.loc 1 391 3 is_stmt 1 view .LVU315
 391:Lib/Camera_Middleware/sensors/cmw_vd55g1.c ****   if (ret)
 1160              		.loc 1 391 9 is_stmt 0 view .LVU316
 1161 0014 2846     		mov	r0, r5
 1162              	.LVL111:
 391:Lib/Camera_Middleware/sensors/cmw_vd55g1.c ****   if (ret)
 1163              		.loc 1 391 9 view .LVU317
 1164 0016 FFF7FEFF 		bl	VD55G1_DeInit
 1165              	.LVL112:
 392:Lib/Camera_Middleware/sensors/cmw_vd55g1.c ****   {
 1166              		.loc 1 392 3 is_stmt 1 view .LVU318
 392:Lib/Camera_Middleware/sensors/cmw_vd55g1.c ****   {
 1167              		.loc 1 392 6 is_stmt 0 view .LVU319
 1168 001a 0028     		cmp	r0, #0
 1169 001c F7D1     		bne	.L59
 397:Lib/Camera_Middleware/sensors/cmw_vd55g1.c ****   return CMW_ERROR_NONE;
 1170              		.loc 1 397 3 is_stmt 1 view .LVU320
 397:Lib/Camera_Middleware/sensors/cmw_vd55g1.c ****   return CMW_ERROR_NONE;
 1171              		.loc 1 397 43 is_stmt 0 view .LVU321
 1172 001e 84F87C00 		strb	r0, [r4, #124]
 398:Lib/Camera_Middleware/sensors/cmw_vd55g1.c **** }
 1173              		.loc 1 398 3 is_stmt 1 view .LVU322
 398:Lib/Camera_Middleware/sensors/cmw_vd55g1.c **** }
 1174              		.loc 1 398 10 is_stmt 0 view .LVU323
 1175 0022 F6E7     		b	.L56
 1176              		.cfi_endproc
 1177              	.LFE888:
 1179              		.section	.text.CMW_VD55G1_Init,"ax",%progbits
 1180              		.align	1
 1181              		.syntax unified
 1182              		.thumb
 1183              		.thumb_func
 1185              	CMW_VD55G1_Init:
 1186              	.LVL113:
 1187              	.LFB884:
 283:Lib/Camera_Middleware/sensors/cmw_vd55g1.c ****   VD55G1_Config_t config = { 0 };
 1188              		.loc 1 283 1 is_stmt 1 view -0
 1189              		.cfi_startproc
 1190              		@ args = 0, pretend = 0, frame = 56
 1191              		@ frame_needed = 0, uses_anonymous_args = 0
 284:Lib/Camera_Middleware/sensors/cmw_vd55g1.c ****   int ret;
 1192              		.loc 1 284 3 view .LVU325
 283:Lib/Camera_Middleware/sensors/cmw_vd55g1.c ****   VD55G1_Config_t config = { 0 };
 1193              		.loc 1 283 1 is_stmt 0 view .LVU326
 1194 0000 70B5     		push	{r4, r5, r6, lr}
 1195              		.cfi_def_cfa_offset 16
 1196              		.cfi_offset 4, -16
 1197              		.cfi_offset 5, -12
 1198              		.cfi_offset 6, -8
 1199              		.cfi_offset 14, -4
 1200 0002 0C46     		mov	r4, r1
ARM GAS  C:\Users\DJESSOU\AppData\Local\Temp\ccNVQBzK.s 			page 34


 1201 0004 8EB0     		sub	sp, sp, #56
 1202              		.cfi_def_cfa_offset 72
 284:Lib/Camera_Middleware/sensors/cmw_vd55g1.c ****   int ret;
 1203              		.loc 1 284 19 view .LVU327
 1204 0006 0021     		movs	r1, #0
 1205              	.LVL114:
 283:Lib/Camera_Middleware/sensors/cmw_vd55g1.c ****   VD55G1_Config_t config = { 0 };
 1206              		.loc 1 283 1 view .LVU328
 1207 0008 0546     		mov	r5, r0
 284:Lib/Camera_Middleware/sensors/cmw_vd55g1.c ****   int ret;
 1208              		.loc 1 284 19 view .LVU329
 1209 000a 3422     		movs	r2, #52
 1210 000c 01A8     		add	r0, sp, #4
 1211              	.LVL115:
 284:Lib/Camera_Middleware/sensors/cmw_vd55g1.c ****   int ret;
 1212              		.loc 1 284 19 view .LVU330
 1213 000e FFF7FEFF 		bl	memset
 1214              	.LVL116:
 285:Lib/Camera_Middleware/sensors/cmw_vd55g1.c ****   int i;
 1215              		.loc 1 285 3 is_stmt 1 view .LVU331
 286:Lib/Camera_Middleware/sensors/cmw_vd55g1.c ****   CMW_VD55G1_config_t *sensor_config;
 1216              		.loc 1 286 3 view .LVU332
 287:Lib/Camera_Middleware/sensors/cmw_vd55g1.c ****   sensor_config = (CMW_VD55G1_config_t*)(initSensor->sensor_config);
 1217              		.loc 1 287 3 view .LVU333
 288:Lib/Camera_Middleware/sensors/cmw_vd55g1.c ****   if (sensor_config == NULL)
 1218              		.loc 1 288 3 view .LVU334
 288:Lib/Camera_Middleware/sensors/cmw_vd55g1.c ****   if (sensor_config == NULL)
 1219              		.loc 1 288 17 is_stmt 0 view .LVU335
 1220 0012 2169     		ldr	r1, [r4, #16]
 1221              	.LVL117:
 289:Lib/Camera_Middleware/sensors/cmw_vd55g1.c ****   {
 1222              		.loc 1 289 3 is_stmt 1 view .LVU336
 289:Lib/Camera_Middleware/sensors/cmw_vd55g1.c ****   {
 1223              		.loc 1 289 6 is_stmt 0 view .LVU337
 1224 0014 19B9     		cbnz	r1, .L61
 1225              	.L66:
 291:Lib/Camera_Middleware/sensors/cmw_vd55g1.c ****   }
 1226              		.loc 1 291 12 view .LVU338
 1227 0016 6FF00100 		mvn	r0, #1
 1228              	.LVL118:
 1229              	.L60:
 349:Lib/Camera_Middleware/sensors/cmw_vd55g1.c **** 
 1230              		.loc 1 349 1 view .LVU339
 1231 001a 0EB0     		add	sp, sp, #56
 1232              		.cfi_remember_state
 1233              		.cfi_def_cfa_offset 16
 1234              		@ sp needed
 1235 001c 70BD     		pop	{r4, r5, r6, pc}
 1236              	.LVL119:
 1237              	.L61:
 1238              		.cfi_restore_state
 294:Lib/Camera_Middleware/sensors/cmw_vd55g1.c **** 
 1239              		.loc 1 294 3 is_stmt 1 view .LVU340
 296:Lib/Camera_Middleware/sensors/cmw_vd55g1.c ****   {
 1240              		.loc 1 296 3 view .LVU341
 296:Lib/Camera_Middleware/sensors/cmw_vd55g1.c ****   {
 1241              		.loc 1 296 6 is_stmt 0 view .LVU342
ARM GAS  C:\Users\DJESSOU\AppData\Local\Temp\ccNVQBzK.s 			page 35


 1242 001e 95F87C30 		ldrb	r3, [r5, #124]	@ zero_extendqisi2
 1243 0022 0BB1     		cbz	r3, .L63
 1244              	.LVL120:
 1245              	.L70:
 298:Lib/Camera_Middleware/sensors/cmw_vd55g1.c ****   }
 1246              		.loc 1 298 12 view .LVU343
 1247 0024 0020     		movs	r0, #0
 1248 0026 F8E7     		b	.L60
 1249              	.LVL121:
 1250              	.L63:
 301:Lib/Camera_Middleware/sensors/cmw_vd55g1.c ****   ret = CMW_VD55G1_GetResType(initSensor->width, initSensor->height, &config.resolution);
 1251              		.loc 1 301 3 is_stmt 1 view .LVU344
 301:Lib/Camera_Middleware/sensors/cmw_vd55g1.c ****   ret = CMW_VD55G1_GetResType(initSensor->width, initSensor->height, &config.resolution);
 1252              		.loc 1 301 21 is_stmt 0 view .LVU345
 1253 0028 A368     		ldr	r3, [r4, #8]
 1254 002a 0393     		str	r3, [sp, #12]
 302:Lib/Camera_Middleware/sensors/cmw_vd55g1.c ****   if (ret)
 1255              		.loc 1 302 3 is_stmt 1 view .LVU346
 302:Lib/Camera_Middleware/sensors/cmw_vd55g1.c ****   if (ret)
 1256              		.loc 1 302 9 is_stmt 0 view .LVU347
 1257 002c D4E90023 		ldrd	r2, r3, [r4]
 1258              	.LVL122:
 1259              	.LBB39:
 1260              	.LBI39:
 233:Lib/Camera_Middleware/sensors/cmw_vd55g1.c **** {
 1261              		.loc 1 233 12 is_stmt 1 view .LVU348
 1262              	.LBB40:
 235:Lib/Camera_Middleware/sensors/cmw_vd55g1.c ****   {
 1263              		.loc 1 235 3 view .LVU349
 235:Lib/Camera_Middleware/sensors/cmw_vd55g1.c ****   {
 1264              		.loc 1 235 6 is_stmt 0 view .LVU350
 1265 0030 B2F5A07F 		cmp	r2, #320
 1266 0034 09D1     		bne	.L64
 235:Lib/Camera_Middleware/sensors/cmw_vd55g1.c ****   {
 1267              		.loc 1 235 20 discriminator 1 view .LVU351
 1268 0036 F02B     		cmp	r3, #240
 1269 0038 EDD1     		bne	.L66
 1270              	.LVL123:
 1271              	.L65:
 235:Lib/Camera_Middleware/sensors/cmw_vd55g1.c ****   {
 1272              		.loc 1 235 20 discriminator 1 view .LVU352
 1273              	.LBE40:
 1274              	.LBE39:
 308:Lib/Camera_Middleware/sensors/cmw_vd55g1.c ****   {
 1275              		.loc 1 308 3 is_stmt 1 view .LVU353
 308:Lib/Camera_Middleware/sensors/cmw_vd55g1.c ****   {
 1276              		.loc 1 308 24 is_stmt 0 view .LVU354
 1277 003a 0B68     		ldr	r3, [r1]
 308:Lib/Camera_Middleware/sensors/cmw_vd55g1.c ****   {
 1278              		.loc 1 308 3 view .LVU355
 1279 003c 2A2B     		cmp	r3, #42
 1280 003e 1ED0     		beq	.L71
 1281 0040 2B2B     		cmp	r3, #43
 1282 0042 00D0     		beq	.L72
 1283 0044 B3BB     		cbnz	r3, .L73
 1284              	.L72:
 1285 0046 0A23     		movs	r3, #10
ARM GAS  C:\Users\DJESSOU\AppData\Local\Temp\ccNVQBzK.s 			page 36


 1286 0048 1AE0     		b	.L69
 1287              	.LVL124:
 1288              	.L64:
 1289              	.LBB43:
 1290              	.LBB41:
 239:Lib/Camera_Middleware/sensors/cmw_vd55g1.c ****   {
 1291              		.loc 1 239 8 is_stmt 1 view .LVU356
 239:Lib/Camera_Middleware/sensors/cmw_vd55g1.c ****   {
 1292              		.loc 1 239 11 is_stmt 0 view .LVU357
 1293 004a B2F5207F 		cmp	r2, #640
 1294 004e 06D1     		bne	.L67
 239:Lib/Camera_Middleware/sensors/cmw_vd55g1.c ****   {
 1295              		.loc 1 239 25 discriminator 1 view .LVU358
 1296 0050 B3F5F07F 		cmp	r3, #480
 1297 0054 DFD1     		bne	.L66
 241:Lib/Camera_Middleware/sensors/cmw_vd55g1.c ****   }
 1298              		.loc 1 241 5 is_stmt 1 view .LVU359
 241:Lib/Camera_Middleware/sensors/cmw_vd55g1.c ****   }
 1299              		.loc 1 241 10 is_stmt 0 view .LVU360
 1300 0056 0123     		movs	r3, #1
 1301              	.LVL125:
 1302              	.L78:
 249:Lib/Camera_Middleware/sensors/cmw_vd55g1.c ****   }
 1303              		.loc 1 249 12 view .LVU361
 1304 0058 8DF80830 		strb	r3, [sp, #8]
 1305              	.LVL126:
 249:Lib/Camera_Middleware/sensors/cmw_vd55g1.c ****   }
 1306              		.loc 1 249 12 view .LVU362
 1307              	.LBE41:
 1308              	.LBE43:
 303:Lib/Camera_Middleware/sensors/cmw_vd55g1.c ****   {
 1309              		.loc 1 303 3 is_stmt 1 view .LVU363
 1310 005c EDE7     		b	.L65
 1311              	.LVL127:
 1312              	.L67:
 1313              	.LBB44:
 1314              	.LBB42:
 243:Lib/Camera_Middleware/sensors/cmw_vd55g1.c ****   {
 1315              		.loc 1 243 8 view .LVU364
 243:Lib/Camera_Middleware/sensors/cmw_vd55g1.c ****   {
 1316              		.loc 1 243 11 is_stmt 0 view .LVU365
 1317 005e B2F5487F 		cmp	r2, #800
 1318 0062 04D1     		bne	.L68
 243:Lib/Camera_Middleware/sensors/cmw_vd55g1.c ****   {
 1319              		.loc 1 243 25 discriminator 1 view .LVU366
 1320 0064 B3F5167F 		cmp	r3, #600
 1321 0068 D5D1     		bne	.L66
 245:Lib/Camera_Middleware/sensors/cmw_vd55g1.c ****   }
 1322              		.loc 1 245 5 is_stmt 1 view .LVU367
 245:Lib/Camera_Middleware/sensors/cmw_vd55g1.c ****   }
 1323              		.loc 1 245 10 is_stmt 0 view .LVU368
 1324 006a 0223     		movs	r3, #2
 1325              	.LVL128:
 245:Lib/Camera_Middleware/sensors/cmw_vd55g1.c ****   }
 1326              		.loc 1 245 10 view .LVU369
 1327 006c F4E7     		b	.L78
 1328              	.LVL129:
ARM GAS  C:\Users\DJESSOU\AppData\Local\Temp\ccNVQBzK.s 			page 37


 1329              	.L68:
 247:Lib/Camera_Middleware/sensors/cmw_vd55g1.c ****   {
 1330              		.loc 1 247 8 is_stmt 1 view .LVU370
 247:Lib/Camera_Middleware/sensors/cmw_vd55g1.c ****   {
 1331              		.loc 1 247 11 is_stmt 0 view .LVU371
 1332 006e B2F5497F 		cmp	r2, #804
 1333 0072 D0D1     		bne	.L66
 247:Lib/Camera_Middleware/sensors/cmw_vd55g1.c ****   {
 1334              		.loc 1 247 25 discriminator 1 view .LVU372
 1335 0074 B3F5307F 		cmp	r3, #704
 1336 0078 CDD1     		bne	.L66
 249:Lib/Camera_Middleware/sensors/cmw_vd55g1.c ****   }
 1337              		.loc 1 249 7 is_stmt 1 view .LVU373
 249:Lib/Camera_Middleware/sensors/cmw_vd55g1.c ****   }
 1338              		.loc 1 249 12 is_stmt 0 view .LVU374
 1339 007a 0323     		movs	r3, #3
 1340              	.LVL130:
 249:Lib/Camera_Middleware/sensors/cmw_vd55g1.c ****   }
 1341              		.loc 1 249 12 view .LVU375
 1342 007c ECE7     		b	.L78
 1343              	.LVL131:
 1344              	.L71:
 249:Lib/Camera_Middleware/sensors/cmw_vd55g1.c ****   }
 1345              		.loc 1 249 12 view .LVU376
 1346              	.LBE42:
 1347              	.LBE44:
 308:Lib/Camera_Middleware/sensors/cmw_vd55g1.c ****   {
 1348              		.loc 1 308 3 view .LVU377
 1349 007e 0823     		movs	r3, #8
 1350              	.L69:
 313:Lib/Camera_Middleware/sensors/cmw_vd55g1.c ****       break;
 1351              		.loc 1 313 26 view .LVU378
 1352 0080 8DF81330 		strb	r3, [sp, #19]
 323:Lib/Camera_Middleware/sensors/cmw_vd55g1.c ****   }
 1353              		.loc 1 323 7 is_stmt 1 view .LVU379
 326:Lib/Camera_Middleware/sensors/cmw_vd55g1.c ****   config.out_itf.data_rate_in_mps = sensor_config->CSI_PHYBitrate;
 1354              		.loc 1 326 3 view .LVU380
 326:Lib/Camera_Middleware/sensors/cmw_vd55g1.c ****   config.out_itf.data_rate_in_mps = sensor_config->CSI_PHYBitrate;
 1355              		.loc 1 326 31 is_stmt 0 view .LVU381
 1356 0084 0E4B     		ldr	r3, .L79
 328:Lib/Camera_Middleware/sensors/cmw_vd55g1.c ****   config.out_itf.data_lane_swap_enable = 1;
 1357              		.loc 1 328 41 view .LVU382
 1358 0086 0126     		movs	r6, #1
 326:Lib/Camera_Middleware/sensors/cmw_vd55g1.c ****   config.out_itf.data_rate_in_mps = sensor_config->CSI_PHYBitrate;
 1359              		.loc 1 326 31 view .LVU383
 1360 0088 0193     		str	r3, [sp, #4]
 327:Lib/Camera_Middleware/sensors/cmw_vd55g1.c ****   config.out_itf.clock_lane_swap_enable = 1;
 1361              		.loc 1 327 3 is_stmt 1 view .LVU384
 327:Lib/Camera_Middleware/sensors/cmw_vd55g1.c ****   config.out_itf.clock_lane_swap_enable = 1;
 1362              		.loc 1 327 35 is_stmt 0 view .LVU385
 1363 008a 4B68     		ldr	r3, [r1, #4]
 341:Lib/Camera_Middleware/sensors/cmw_vd55g1.c ****   if (ret)
 1364              		.loc 1 341 9 view .LVU386
 1365 008c 281D     		adds	r0, r5, #4
 327:Lib/Camera_Middleware/sensors/cmw_vd55g1.c ****   config.out_itf.clock_lane_swap_enable = 1;
 1366              		.loc 1 327 35 view .LVU387
 1367 008e 0593     		str	r3, [sp, #20]
ARM GAS  C:\Users\DJESSOU\AppData\Local\Temp\ccNVQBzK.s 			page 38


 328:Lib/Camera_Middleware/sensors/cmw_vd55g1.c ****   config.out_itf.data_lane_swap_enable = 1;
 1368              		.loc 1 328 3 is_stmt 1 view .LVU388
 331:Lib/Camera_Middleware/sensors/cmw_vd55g1.c ****   config.patgen = VD55G1_PATGEN_DISABLE;
 1369              		.loc 1 331 27 is_stmt 0 discriminator 1 view .LVU389
 1370 0090 E368     		ldr	r3, [r4, #12]
 341:Lib/Camera_Middleware/sensors/cmw_vd55g1.c ****   if (ret)
 1371              		.loc 1 341 9 view .LVU390
 1372 0092 01A9     		add	r1, sp, #4
 1373              	.LVL132:
 331:Lib/Camera_Middleware/sensors/cmw_vd55g1.c ****   config.patgen = VD55G1_PATGEN_DISABLE;
 1374              		.loc 1 331 27 discriminator 1 view .LVU391
 1375 0094 032B     		cmp	r3, #3
 1376 0096 28BF     		it	cs
 1377 0098 0323     		movcs	r3, #3
 1378 009a 8DF81030 		strb	r3, [sp, #16]
 338:Lib/Camera_Middleware/sensors/cmw_vd55g1.c ****   }
 1379              		.loc 1 338 25 view .LVU392
 1380 009e 4FF00133 		mov	r3, #16843009
 329:Lib/Camera_Middleware/sensors/cmw_vd55g1.c **** 
 1381              		.loc 1 329 40 view .LVU393
 1382 00a2 CDE90666 		strd	r6, r6, [sp, #24]
 331:Lib/Camera_Middleware/sensors/cmw_vd55g1.c ****   config.patgen = VD55G1_PATGEN_DISABLE;
 1383              		.loc 1 331 3 is_stmt 1 view .LVU394
 1384              	.LVL133:
 1385              	.LBB45:
 1386              	.LBI45:
 258:Lib/Camera_Middleware/sensors/cmw_vd55g1.c **** {
 1387              		.loc 1 258 28 view .LVU395
 1388              	.LBB46:
 260:Lib/Camera_Middleware/sensors/cmw_vd55g1.c **** 
 1389              		.loc 1 260 3 view .LVU396
 262:Lib/Camera_Middleware/sensors/cmw_vd55g1.c ****   {
 1390              		.loc 1 262 3 view .LVU397
 279:Lib/Camera_Middleware/sensors/cmw_vd55g1.c **** }
 1391              		.loc 1 279 3 view .LVU398
 279:Lib/Camera_Middleware/sensors/cmw_vd55g1.c **** }
 1392              		.loc 1 279 3 is_stmt 0 view .LVU399
 1393              	.LBE46:
 1394              	.LBE45:
 332:Lib/Camera_Middleware/sensors/cmw_vd55g1.c ****   config.flicker = VD55G1_FLICKER_FREE_NONE;
 1395              		.loc 1 332 3 is_stmt 1 view .LVU400
 333:Lib/Camera_Middleware/sensors/cmw_vd55g1.c ****   config.awu.is_enable = 0;
 1396              		.loc 1 333 3 view .LVU401
 334:Lib/Camera_Middleware/sensors/cmw_vd55g1.c **** 
 1397              		.loc 1 334 3 view .LVU402
 336:Lib/Camera_Middleware/sensors/cmw_vd55g1.c ****   {
 1398              		.loc 1 336 3 view .LVU403
 336:Lib/Camera_Middleware/sensors/cmw_vd55g1.c ****   {
 1399              		.loc 1 336 17 discriminator 1 view .LVU404
 338:Lib/Camera_Middleware/sensors/cmw_vd55g1.c ****   }
 1400              		.loc 1 338 5 view .LVU405
 336:Lib/Camera_Middleware/sensors/cmw_vd55g1.c ****   {
 1401              		.loc 1 336 36 discriminator 3 view .LVU406
 336:Lib/Camera_Middleware/sensors/cmw_vd55g1.c ****   {
 1402              		.loc 1 336 17 discriminator 1 view .LVU407
 338:Lib/Camera_Middleware/sensors/cmw_vd55g1.c ****   }
 1403              		.loc 1 338 5 view .LVU408
ARM GAS  C:\Users\DJESSOU\AppData\Local\Temp\ccNVQBzK.s 			page 39


 336:Lib/Camera_Middleware/sensors/cmw_vd55g1.c ****   {
 1404              		.loc 1 336 36 discriminator 3 view .LVU409
 336:Lib/Camera_Middleware/sensors/cmw_vd55g1.c ****   {
 1405              		.loc 1 336 17 discriminator 1 view .LVU410
 338:Lib/Camera_Middleware/sensors/cmw_vd55g1.c ****   }
 1406              		.loc 1 338 5 view .LVU411
 336:Lib/Camera_Middleware/sensors/cmw_vd55g1.c ****   {
 1407              		.loc 1 336 36 discriminator 3 view .LVU412
 336:Lib/Camera_Middleware/sensors/cmw_vd55g1.c ****   {
 1408              		.loc 1 336 17 discriminator 1 view .LVU413
 338:Lib/Camera_Middleware/sensors/cmw_vd55g1.c ****   }
 1409              		.loc 1 338 5 view .LVU414
 338:Lib/Camera_Middleware/sensors/cmw_vd55g1.c ****   }
 1410              		.loc 1 338 25 is_stmt 0 view .LVU415
 1411 00a6 0D93     		str	r3, [sp, #52]
 336:Lib/Camera_Middleware/sensors/cmw_vd55g1.c ****   {
 1412              		.loc 1 336 36 is_stmt 1 discriminator 3 view .LVU416
 1413              	.LVL134:
 336:Lib/Camera_Middleware/sensors/cmw_vd55g1.c ****   {
 1414              		.loc 1 336 17 discriminator 1 view .LVU417
 341:Lib/Camera_Middleware/sensors/cmw_vd55g1.c ****   if (ret)
 1415              		.loc 1 341 3 view .LVU418
 341:Lib/Camera_Middleware/sensors/cmw_vd55g1.c ****   if (ret)
 1416              		.loc 1 341 9 is_stmt 0 view .LVU419
 1417 00a8 FFF7FEFF 		bl	VD55G1_Init
 1418              	.LVL135:
 342:Lib/Camera_Middleware/sensors/cmw_vd55g1.c ****   {
 1419              		.loc 1 342 3 is_stmt 1 view .LVU420
 342:Lib/Camera_Middleware/sensors/cmw_vd55g1.c ****   {
 1420              		.loc 1 342 6 is_stmt 0 view .LVU421
 1421 00ac 28B9     		cbnz	r0, .L74
 347:Lib/Camera_Middleware/sensors/cmw_vd55g1.c ****   return CMW_ERROR_NONE;
 1422              		.loc 1 347 3 is_stmt 1 view .LVU422
 347:Lib/Camera_Middleware/sensors/cmw_vd55g1.c ****   return CMW_ERROR_NONE;
 1423              		.loc 1 347 43 is_stmt 0 view .LVU423
 1424 00ae 85F87C60 		strb	r6, [r5, #124]
 348:Lib/Camera_Middleware/sensors/cmw_vd55g1.c **** }
 1425              		.loc 1 348 3 is_stmt 1 view .LVU424
 348:Lib/Camera_Middleware/sensors/cmw_vd55g1.c **** }
 1426              		.loc 1 348 10 is_stmt 0 view .LVU425
 1427 00b2 B7E7     		b	.L70
 1428              	.LVL136:
 1429              	.L73:
 308:Lib/Camera_Middleware/sensors/cmw_vd55g1.c ****   {
 1430              		.loc 1 308 3 view .LVU426
 1431 00b4 6FF00400 		mvn	r0, #4
 1432 00b8 AFE7     		b	.L60
 1433              	.LVL137:
 1434              	.L74:
 344:Lib/Camera_Middleware/sensors/cmw_vd55g1.c ****   }
 1435              		.loc 1 344 12 view .LVU427
 1436 00ba 6FF00300 		mvn	r0, #3
 1437              	.LVL138:
 344:Lib/Camera_Middleware/sensors/cmw_vd55g1.c ****   }
 1438              		.loc 1 344 12 view .LVU428
 1439 00be ACE7     		b	.L60
 1440              	.L80:
ARM GAS  C:\Users\DJESSOU\AppData\Local\Temp\ccNVQBzK.s 			page 40


 1441              		.align	2
 1442              	.L79:
 1443 00c0 001BB700 		.word	12000000
 1444              		.cfi_endproc
 1445              	.LFE884:
 1447              		.section	.rodata.CMW_VD55G1_SetDefaultSensorValues.str1.1,"aMS",%progbits,1
 1448              	.LC1:
 1449 0000 76643535 		.ascii	"vd55g1_config != NULL\000"
 1449      67315F63 
 1449      6F6E6669 
 1449      6720213D 
 1449      204E554C 
 1450              	.LC2:
 1451 0016 4C69622F 		.ascii	"Lib/Camera_Middleware/sensors/cmw_vd55g1.c\000"
 1451      43616D65 
 1451      72615F4D 
 1451      6964646C 
 1451      65776172 
 1452              		.section	.text.CMW_VD55G1_SetDefaultSensorValues,"ax",%progbits
 1453              		.align	1
 1454              		.global	CMW_VD55G1_SetDefaultSensorValues
 1455              		.syntax unified
 1456              		.thumb
 1457              		.thumb_func
 1459              	CMW_VD55G1_SetDefaultSensorValues:
 1460              	.LVL139:
 1461              	.LFB885:
 352:Lib/Camera_Middleware/sensors/cmw_vd55g1.c ****   assert(vd55g1_config != NULL);
 1462              		.loc 1 352 1 is_stmt 1 view -0
 1463              		.cfi_startproc
 1464              		@ args = 0, pretend = 0, frame = 0
 1465              		@ frame_needed = 0, uses_anonymous_args = 0
 353:Lib/Camera_Middleware/sensors/cmw_vd55g1.c ****   vd55g1_config->pixel_format = CMW_PIXEL_FORMAT_RAW10;
 1466              		.loc 1 353 3 view .LVU430
 352:Lib/Camera_Middleware/sensors/cmw_vd55g1.c ****   assert(vd55g1_config != NULL);
 1467              		.loc 1 352 1 is_stmt 0 view .LVU431
 1468 0000 08B5     		push	{r3, lr}
 1469              		.cfi_def_cfa_offset 8
 1470              		.cfi_offset 3, -8
 1471              		.cfi_offset 14, -4
 353:Lib/Camera_Middleware/sensors/cmw_vd55g1.c ****   vd55g1_config->pixel_format = CMW_PIXEL_FORMAT_RAW10;
 1472              		.loc 1 353 3 view .LVU432
 1473 0002 30B9     		cbnz	r0, .L82
 353:Lib/Camera_Middleware/sensors/cmw_vd55g1.c ****   vd55g1_config->pixel_format = CMW_PIXEL_FORMAT_RAW10;
 1474              		.loc 1 353 3 discriminator 1 view .LVU433
 1475 0004 40F26111 		movw	r1, #353
 1476 0008 044B     		ldr	r3, .L83
 1477 000a 054A     		ldr	r2, .L83+4
 1478 000c 0548     		ldr	r0, .L83+8
 1479              	.LVL140:
 353:Lib/Camera_Middleware/sensors/cmw_vd55g1.c ****   vd55g1_config->pixel_format = CMW_PIXEL_FORMAT_RAW10;
 1480              		.loc 1 353 3 discriminator 1 view .LVU434
 1481 000e FFF7FEFF 		bl	__assert_func
 1482              	.LVL141:
 1483              	.L82:
 354:Lib/Camera_Middleware/sensors/cmw_vd55g1.c ****   vd55g1_config->CSI_PHYBitrate = VD55G1_DEFAULT_DATARATE;
 1484              		.loc 1 354 3 is_stmt 1 view .LVU435
ARM GAS  C:\Users\DJESSOU\AppData\Local\Temp\ccNVQBzK.s 			page 41


 355:Lib/Camera_Middleware/sensors/cmw_vd55g1.c **** }
 1485              		.loc 1 355 33 is_stmt 0 view .LVU436
 1486 0012 2B22     		movs	r2, #43
 1487 0014 044B     		ldr	r3, .L83+12
 1488 0016 C0E90023 		strd	r2, r3, [r0]
 356:Lib/Camera_Middleware/sensors/cmw_vd55g1.c **** 
 1489              		.loc 1 356 1 view .LVU437
 1490 001a 08BD     		pop	{r3, pc}
 1491              	.L84:
 1492              		.align	2
 1493              	.L83:
 1494 001c 00000000 		.word	.LC1
 1495 0020 00000000 		.word	__func__.1
 1496 0024 16000000 		.word	.LC2
 1497 0028 008C8647 		.word	1200000000
 1498              		.cfi_endproc
 1499              	.LFE885:
 1501              		.section	.text.CMW_VD55G1_Probe,"ax",%progbits
 1502              		.align	1
 1503              		.global	CMW_VD55G1_Probe
 1504              		.syntax unified
 1505              		.thumb
 1506              		.thumb_func
 1508              	CMW_VD55G1_Probe:
 1509              	.LVL142:
 1510              	.LFB896:
 503:Lib/Camera_Middleware/sensors/cmw_vd55g1.c **** 
 504:Lib/Camera_Middleware/sensors/cmw_vd55g1.c **** static int32_t VD55G1_RegisterBusIO(CMW_VD55G1_t *io_ctx)
 505:Lib/Camera_Middleware/sensors/cmw_vd55g1.c **** {
 506:Lib/Camera_Middleware/sensors/cmw_vd55g1.c ****   int ret;
 507:Lib/Camera_Middleware/sensors/cmw_vd55g1.c **** 
 508:Lib/Camera_Middleware/sensors/cmw_vd55g1.c ****   if (!io_ctx)
 509:Lib/Camera_Middleware/sensors/cmw_vd55g1.c ****     return CMW_ERROR_COMPONENT_FAILURE;
 510:Lib/Camera_Middleware/sensors/cmw_vd55g1.c **** 
 511:Lib/Camera_Middleware/sensors/cmw_vd55g1.c ****   if (!io_ctx->Init)
 512:Lib/Camera_Middleware/sensors/cmw_vd55g1.c ****     return CMW_ERROR_COMPONENT_FAILURE;
 513:Lib/Camera_Middleware/sensors/cmw_vd55g1.c **** 
 514:Lib/Camera_Middleware/sensors/cmw_vd55g1.c ****   ret = io_ctx->Init();
 515:Lib/Camera_Middleware/sensors/cmw_vd55g1.c **** 
 516:Lib/Camera_Middleware/sensors/cmw_vd55g1.c ****   return ret;
 517:Lib/Camera_Middleware/sensors/cmw_vd55g1.c **** }
 518:Lib/Camera_Middleware/sensors/cmw_vd55g1.c **** 
 519:Lib/Camera_Middleware/sensors/cmw_vd55g1.c **** static int32_t VD55G1_ReadID(CMW_VD55G1_t *io_ctx, uint32_t *Id)
 520:Lib/Camera_Middleware/sensors/cmw_vd55g1.c **** {
 521:Lib/Camera_Middleware/sensors/cmw_vd55g1.c ****   uint32_t reg32;
 522:Lib/Camera_Middleware/sensors/cmw_vd55g1.c ****   int32_t ret;
 523:Lib/Camera_Middleware/sensors/cmw_vd55g1.c **** 
 524:Lib/Camera_Middleware/sensors/cmw_vd55g1.c ****   ret = CMW_VD55G1_Read32(io_ctx, VD55G1_REG_MODEL_ID, &reg32);
 525:Lib/Camera_Middleware/sensors/cmw_vd55g1.c ****   if (ret)
 526:Lib/Camera_Middleware/sensors/cmw_vd55g1.c ****     return ret;
 527:Lib/Camera_Middleware/sensors/cmw_vd55g1.c **** 
 528:Lib/Camera_Middleware/sensors/cmw_vd55g1.c ****   *Id = reg32;
 529:Lib/Camera_Middleware/sensors/cmw_vd55g1.c **** 
 530:Lib/Camera_Middleware/sensors/cmw_vd55g1.c ****   return CMW_ERROR_NONE;
 531:Lib/Camera_Middleware/sensors/cmw_vd55g1.c **** }
 532:Lib/Camera_Middleware/sensors/cmw_vd55g1.c **** 
 533:Lib/Camera_Middleware/sensors/cmw_vd55g1.c **** static void CMW_VD55G1_PowerOn(CMW_VD55G1_t *io_ctx)
ARM GAS  C:\Users\DJESSOU\AppData\Local\Temp\ccNVQBzK.s 			page 42


 534:Lib/Camera_Middleware/sensors/cmw_vd55g1.c **** {
 535:Lib/Camera_Middleware/sensors/cmw_vd55g1.c ****   /* Camera sensor Power-On sequence */
 536:Lib/Camera_Middleware/sensors/cmw_vd55g1.c ****   /* Assert the camera  NRST pins */
 537:Lib/Camera_Middleware/sensors/cmw_vd55g1.c ****   io_ctx->ShutdownPin(0);  /* Disable MB1723 2V8 signal  */
 538:Lib/Camera_Middleware/sensors/cmw_vd55g1.c ****   io_ctx->Delay(200); /* NRST signals asserted during 200ms */
 539:Lib/Camera_Middleware/sensors/cmw_vd55g1.c ****   /* De-assert the camera STANDBY pin (active high) */
 540:Lib/Camera_Middleware/sensors/cmw_vd55g1.c ****   io_ctx->ShutdownPin(1);  /* Disable MB1723 2V8 signal  */
 541:Lib/Camera_Middleware/sensors/cmw_vd55g1.c ****   io_ctx->Delay(20); /* NRST de-asserted during 20ms */
 542:Lib/Camera_Middleware/sensors/cmw_vd55g1.c **** }
 543:Lib/Camera_Middleware/sensors/cmw_vd55g1.c **** 
 544:Lib/Camera_Middleware/sensors/cmw_vd55g1.c **** int CMW_VD55G1_Probe(CMW_VD55G1_t *io_ctx, CMW_Sensor_if_t *vd55g1_if)
 545:Lib/Camera_Middleware/sensors/cmw_vd55g1.c **** {
 1511              		.loc 1 545 1 is_stmt 1 view -0
 1512              		.cfi_startproc
 1513              		@ args = 0, pretend = 0, frame = 8
 1514              		@ frame_needed = 0, uses_anonymous_args = 0
 546:Lib/Camera_Middleware/sensors/cmw_vd55g1.c ****   int ret = CMW_ERROR_NONE;
 1515              		.loc 1 546 3 view .LVU439
 547:Lib/Camera_Middleware/sensors/cmw_vd55g1.c ****   uint32_t id;
 1516              		.loc 1 547 3 view .LVU440
 548:Lib/Camera_Middleware/sensors/cmw_vd55g1.c **** 
 549:Lib/Camera_Middleware/sensors/cmw_vd55g1.c ****   io_ctx->ctx_driver.shutdown_pin = VD55G1_ShutdownPin;
 1517              		.loc 1 549 3 view .LVU441
 545:Lib/Camera_Middleware/sensors/cmw_vd55g1.c ****   int ret = CMW_ERROR_NONE;
 1518              		.loc 1 545 1 is_stmt 0 view .LVU442
 1519 0000 37B5     		push	{r0, r1, r2, r4, r5, lr}
 1520              		.cfi_def_cfa_offset 24
 1521              		.cfi_offset 4, -12
 1522              		.cfi_offset 5, -8
 1523              		.cfi_offset 14, -4
 545:Lib/Camera_Middleware/sensors/cmw_vd55g1.c ****   int ret = CMW_ERROR_NONE;
 1524              		.loc 1 545 1 view .LVU443
 1525 0002 0446     		mov	r4, r0
 1526              		.loc 1 549 35 view .LVU444
 1527 0004 2A4B     		ldr	r3, .L92
 545:Lib/Camera_Middleware/sensors/cmw_vd55g1.c ****   int ret = CMW_ERROR_NONE;
 1528              		.loc 1 545 1 view .LVU445
 1529 0006 0D46     		mov	r5, r1
 1530              		.loc 1 549 35 view .LVU446
 1531 0008 4360     		str	r3, [r0, #4]
 550:Lib/Camera_Middleware/sensors/cmw_vd55g1.c ****   io_ctx->ctx_driver.read8 = VD55G1_Read8;
 1532              		.loc 1 550 3 is_stmt 1 view .LVU447
 1533              		.loc 1 550 28 is_stmt 0 view .LVU448
 1534 000a 2A4B     		ldr	r3, .L92+4
 1535 000c 8360     		str	r3, [r0, #8]
 551:Lib/Camera_Middleware/sensors/cmw_vd55g1.c ****   io_ctx->ctx_driver.read16 = VD55G1_Read16;
 1536              		.loc 1 551 3 is_stmt 1 view .LVU449
 1537              		.loc 1 551 29 is_stmt 0 view .LVU450
 1538 000e 2A4B     		ldr	r3, .L92+8
 1539 0010 C360     		str	r3, [r0, #12]
 552:Lib/Camera_Middleware/sensors/cmw_vd55g1.c ****   io_ctx->ctx_driver.read32 = VD55G1_Read32;
 1540              		.loc 1 552 3 is_stmt 1 view .LVU451
 1541              		.loc 1 552 29 is_stmt 0 view .LVU452
 1542 0012 2A4B     		ldr	r3, .L92+12
 1543 0014 0361     		str	r3, [r0, #16]
 553:Lib/Camera_Middleware/sensors/cmw_vd55g1.c ****   io_ctx->ctx_driver.write8 = VD55G1_Write8;
 1544              		.loc 1 553 3 is_stmt 1 view .LVU453
ARM GAS  C:\Users\DJESSOU\AppData\Local\Temp\ccNVQBzK.s 			page 43


 1545              		.loc 1 553 29 is_stmt 0 view .LVU454
 1546 0016 2A4B     		ldr	r3, .L92+16
 1547 0018 4361     		str	r3, [r0, #20]
 554:Lib/Camera_Middleware/sensors/cmw_vd55g1.c ****   io_ctx->ctx_driver.write16 = VD55G1_Write16;
 1548              		.loc 1 554 3 is_stmt 1 view .LVU455
 1549              		.loc 1 554 30 is_stmt 0 view .LVU456
 1550 001a 2A4B     		ldr	r3, .L92+20
 1551 001c 8361     		str	r3, [r0, #24]
 555:Lib/Camera_Middleware/sensors/cmw_vd55g1.c ****   io_ctx->ctx_driver.write32 = VD55G1_Write32;
 1552              		.loc 1 555 3 is_stmt 1 view .LVU457
 1553              		.loc 1 555 30 is_stmt 0 view .LVU458
 1554 001e 2A4B     		ldr	r3, .L92+24
 1555 0020 C361     		str	r3, [r0, #28]
 556:Lib/Camera_Middleware/sensors/cmw_vd55g1.c ****   io_ctx->ctx_driver.write_array = VD55G1_WriteArray;
 1556              		.loc 1 556 3 is_stmt 1 view .LVU459
 1557              		.loc 1 556 34 is_stmt 0 view .LVU460
 1558 0022 2A4B     		ldr	r3, .L92+28
 1559 0024 0362     		str	r3, [r0, #32]
 557:Lib/Camera_Middleware/sensors/cmw_vd55g1.c ****   io_ctx->ctx_driver.delay = VD55G1_Delay;
 1560              		.loc 1 557 3 is_stmt 1 view .LVU461
 1561              		.loc 1 557 28 is_stmt 0 view .LVU462
 1562 0026 2A4B     		ldr	r3, .L92+32
 1563 0028 4362     		str	r3, [r0, #36]
 558:Lib/Camera_Middleware/sensors/cmw_vd55g1.c ****   io_ctx->ctx_driver.log = VD55G1_Log;
 1564              		.loc 1 558 3 is_stmt 1 view .LVU463
 1565              		.loc 1 558 26 is_stmt 0 view .LVU464
 1566 002a 2A4B     		ldr	r3, .L92+36
 1567 002c 8362     		str	r3, [r0, #40]
 559:Lib/Camera_Middleware/sensors/cmw_vd55g1.c **** 
 560:Lib/Camera_Middleware/sensors/cmw_vd55g1.c ****   CMW_VD55G1_PowerOn(io_ctx);
 1568              		.loc 1 560 3 is_stmt 1 view .LVU465
 1569              	.LVL143:
 1570              	.LBB53:
 1571              	.LBI53:
 533:Lib/Camera_Middleware/sensors/cmw_vd55g1.c **** {
 1572              		.loc 1 533 13 view .LVU466
 1573              	.LBB54:
 537:Lib/Camera_Middleware/sensors/cmw_vd55g1.c ****   io_ctx->Delay(200); /* NRST signals asserted during 200ms */
 1574              		.loc 1 537 3 view .LVU467
 1575 002e D0F89830 		ldr	r3, [r0, #152]
 1576 0032 0020     		movs	r0, #0
 1577              	.LVL144:
 537:Lib/Camera_Middleware/sensors/cmw_vd55g1.c ****   io_ctx->Delay(200); /* NRST signals asserted during 200ms */
 1578              		.loc 1 537 3 is_stmt 0 view .LVU468
 1579 0034 9847     		blx	r3
 1580              	.LVL145:
 538:Lib/Camera_Middleware/sensors/cmw_vd55g1.c ****   /* De-assert the camera STANDBY pin (active high) */
 1581              		.loc 1 538 3 is_stmt 1 view .LVU469
 1582 0036 C820     		movs	r0, #200
 1583 0038 D4F89430 		ldr	r3, [r4, #148]
 1584 003c 9847     		blx	r3
 1585              	.LVL146:
 540:Lib/Camera_Middleware/sensors/cmw_vd55g1.c ****   io_ctx->Delay(20); /* NRST de-asserted during 20ms */
 1586              		.loc 1 540 3 view .LVU470
 1587 003e 0120     		movs	r0, #1
 1588 0040 D4F89830 		ldr	r3, [r4, #152]
 1589 0044 9847     		blx	r3
ARM GAS  C:\Users\DJESSOU\AppData\Local\Temp\ccNVQBzK.s 			page 44


 1590              	.LVL147:
 541:Lib/Camera_Middleware/sensors/cmw_vd55g1.c **** }
 1591              		.loc 1 541 3 view .LVU471
 1592 0046 D4F89430 		ldr	r3, [r4, #148]
 1593 004a 1420     		movs	r0, #20
 1594 004c 9847     		blx	r3
 1595              	.LVL148:
 541:Lib/Camera_Middleware/sensors/cmw_vd55g1.c **** }
 1596              		.loc 1 541 3 is_stmt 0 view .LVU472
 1597              	.LBE54:
 1598              	.LBE53:
 561:Lib/Camera_Middleware/sensors/cmw_vd55g1.c **** 
 562:Lib/Camera_Middleware/sensors/cmw_vd55g1.c ****   ret = VD55G1_RegisterBusIO(io_ctx);
 1599              		.loc 1 562 3 is_stmt 1 view .LVU473
 1600              	.LBB55:
 1601              	.LBI55:
 504:Lib/Camera_Middleware/sensors/cmw_vd55g1.c **** {
 1602              		.loc 1 504 16 view .LVU474
 1603              	.LBB56:
 506:Lib/Camera_Middleware/sensors/cmw_vd55g1.c **** 
 1604              		.loc 1 506 3 view .LVU475
 508:Lib/Camera_Middleware/sensors/cmw_vd55g1.c ****     return CMW_ERROR_COMPONENT_FAILURE;
 1605              		.loc 1 508 3 view .LVU476
 511:Lib/Camera_Middleware/sensors/cmw_vd55g1.c ****     return CMW_ERROR_COMPONENT_FAILURE;
 1606              		.loc 1 511 3 view .LVU477
 511:Lib/Camera_Middleware/sensors/cmw_vd55g1.c ****     return CMW_ERROR_COMPONENT_FAILURE;
 1607              		.loc 1 511 14 is_stmt 0 view .LVU478
 1608 004e D4F88030 		ldr	r3, [r4, #128]
 511:Lib/Camera_Middleware/sensors/cmw_vd55g1.c ****     return CMW_ERROR_COMPONENT_FAILURE;
 1609              		.loc 1 511 6 view .LVU479
 1610 0052 23B9     		cbnz	r3, .L86
 1611              	.LVL149:
 1612              	.L91:
 511:Lib/Camera_Middleware/sensors/cmw_vd55g1.c ****     return CMW_ERROR_COMPONENT_FAILURE;
 1613              		.loc 1 511 6 view .LVU480
 1614              	.LBE56:
 1615              	.LBE55:
 563:Lib/Camera_Middleware/sensors/cmw_vd55g1.c ****   if (ret != CMW_ERROR_NONE)
 564:Lib/Camera_Middleware/sensors/cmw_vd55g1.c ****   {
 565:Lib/Camera_Middleware/sensors/cmw_vd55g1.c ****     return CMW_ERROR_COMPONENT_FAILURE;
 1616              		.loc 1 565 12 view .LVU481
 1617 0054 6FF00404 		mvn	r4, #4
 1618              	.L85:
 566:Lib/Camera_Middleware/sensors/cmw_vd55g1.c ****   }
 567:Lib/Camera_Middleware/sensors/cmw_vd55g1.c **** 
 568:Lib/Camera_Middleware/sensors/cmw_vd55g1.c ****   ret = VD55G1_ReadID(io_ctx, &id);
 569:Lib/Camera_Middleware/sensors/cmw_vd55g1.c ****   if (ret != CMW_ERROR_NONE)
 570:Lib/Camera_Middleware/sensors/cmw_vd55g1.c ****   {
 571:Lib/Camera_Middleware/sensors/cmw_vd55g1.c ****     return CMW_ERROR_COMPONENT_FAILURE;
 572:Lib/Camera_Middleware/sensors/cmw_vd55g1.c ****   }
 573:Lib/Camera_Middleware/sensors/cmw_vd55g1.c ****   if (id != VD55G1_CHIP_ID)
 574:Lib/Camera_Middleware/sensors/cmw_vd55g1.c ****   {
 575:Lib/Camera_Middleware/sensors/cmw_vd55g1.c ****     return CMW_ERROR_COMPONENT_FAILURE;
 576:Lib/Camera_Middleware/sensors/cmw_vd55g1.c ****   }
 577:Lib/Camera_Middleware/sensors/cmw_vd55g1.c **** 
 578:Lib/Camera_Middleware/sensors/cmw_vd55g1.c ****   memset(vd55g1_if, 0, sizeof(*vd55g1_if));
 579:Lib/Camera_Middleware/sensors/cmw_vd55g1.c ****   vd55g1_if->Init = CMW_VD55G1_Init;
ARM GAS  C:\Users\DJESSOU\AppData\Local\Temp\ccNVQBzK.s 			page 45


 580:Lib/Camera_Middleware/sensors/cmw_vd55g1.c ****   vd55g1_if->DeInit = CMW_VD55G1_DeInit;
 581:Lib/Camera_Middleware/sensors/cmw_vd55g1.c ****   vd55g1_if->Start = CMW_VD55G1_Start;
 582:Lib/Camera_Middleware/sensors/cmw_vd55g1.c ****   vd55g1_if->Stop = CMW_VD55G1_Stop;
 583:Lib/Camera_Middleware/sensors/cmw_vd55g1.c ****   vd55g1_if->SetMirrorFlip = CMW_VD55G1_MirrorFlipConfig;
 584:Lib/Camera_Middleware/sensors/cmw_vd55g1.c ****   vd55g1_if->SetGain = CMW_VD55G1_SetGain;
 585:Lib/Camera_Middleware/sensors/cmw_vd55g1.c ****   vd55g1_if->SetExposure = CMW_VD55G1_SetExposure;
 586:Lib/Camera_Middleware/sensors/cmw_vd55g1.c ****   vd55g1_if->SetExposureMode = CMW_VD55G1_SetExposureMode;
 587:Lib/Camera_Middleware/sensors/cmw_vd55g1.c ****   vd55g1_if->GetSensorInfo = CMW_VD55G1_GetSensorInfo;
 588:Lib/Camera_Middleware/sensors/cmw_vd55g1.c ****   return ret;
 589:Lib/Camera_Middleware/sensors/cmw_vd55g1.c **** }
 1619              		.loc 1 589 1 view .LVU482
 1620 0058 2046     		mov	r0, r4
 1621 005a 03B0     		add	sp, sp, #12
 1622              		.cfi_remember_state
 1623              		.cfi_def_cfa_offset 12
 1624              		@ sp needed
 1625 005c 30BD     		pop	{r4, r5, pc}
 1626              	.LVL150:
 1627              	.L86:
 1628              		.cfi_restore_state
 1629              	.LBB58:
 1630              	.LBB57:
 514:Lib/Camera_Middleware/sensors/cmw_vd55g1.c **** 
 1631              		.loc 1 514 3 is_stmt 1 view .LVU483
 514:Lib/Camera_Middleware/sensors/cmw_vd55g1.c **** 
 1632              		.loc 1 514 9 is_stmt 0 view .LVU484
 1633 005e 9847     		blx	r3
 1634              	.LVL151:
 516:Lib/Camera_Middleware/sensors/cmw_vd55g1.c **** }
 1635              		.loc 1 516 3 is_stmt 1 view .LVU485
 516:Lib/Camera_Middleware/sensors/cmw_vd55g1.c **** }
 1636              		.loc 1 516 3 is_stmt 0 view .LVU486
 1637              	.LBE57:
 1638              	.LBE58:
 563:Lib/Camera_Middleware/sensors/cmw_vd55g1.c ****   {
 1639              		.loc 1 563 3 is_stmt 1 view .LVU487
 563:Lib/Camera_Middleware/sensors/cmw_vd55g1.c ****   {
 1640              		.loc 1 563 6 is_stmt 0 view .LVU488
 1641 0060 0146     		mov	r1, r0
 1642 0062 0028     		cmp	r0, #0
 1643 0064 F6D1     		bne	.L91
 568:Lib/Camera_Middleware/sensors/cmw_vd55g1.c ****   if (ret != CMW_ERROR_NONE)
 1644              		.loc 1 568 3 is_stmt 1 view .LVU489
 1645              	.LVL152:
 1646              	.LBB59:
 1647              	.LBI59:
 519:Lib/Camera_Middleware/sensors/cmw_vd55g1.c **** {
 1648              		.loc 1 519 16 view .LVU490
 1649              	.LBB60:
 521:Lib/Camera_Middleware/sensors/cmw_vd55g1.c ****   int32_t ret;
 1650              		.loc 1 521 3 view .LVU491
 522:Lib/Camera_Middleware/sensors/cmw_vd55g1.c **** 
 1651              		.loc 1 522 3 view .LVU492
 524:Lib/Camera_Middleware/sensors/cmw_vd55g1.c ****   if (ret)
 1652              		.loc 1 524 3 view .LVU493
 524:Lib/Camera_Middleware/sensors/cmw_vd55g1.c ****   if (ret)
 1653              		.loc 1 524 9 is_stmt 0 view .LVU494
ARM GAS  C:\Users\DJESSOU\AppData\Local\Temp\ccNVQBzK.s 			page 46


 1654 0066 2046     		mov	r0, r4
 1655              	.LVL153:
 524:Lib/Camera_Middleware/sensors/cmw_vd55g1.c ****   if (ret)
 1656              		.loc 1 524 9 view .LVU495
 1657 0068 01AA     		add	r2, sp, #4
 1658 006a FFF7FEFF 		bl	CMW_VD55G1_Read32
 1659              	.LVL154:
 525:Lib/Camera_Middleware/sensors/cmw_vd55g1.c ****     return ret;
 1660              		.loc 1 525 3 is_stmt 1 view .LVU496
 525:Lib/Camera_Middleware/sensors/cmw_vd55g1.c ****     return ret;
 1661              		.loc 1 525 6 is_stmt 0 view .LVU497
 1662 006e 0446     		mov	r4, r0
 1663              	.LVL155:
 525:Lib/Camera_Middleware/sensors/cmw_vd55g1.c ****     return ret;
 1664              		.loc 1 525 6 view .LVU498
 1665 0070 0028     		cmp	r0, #0
 1666 0072 EFD1     		bne	.L91
 528:Lib/Camera_Middleware/sensors/cmw_vd55g1.c **** 
 1667              		.loc 1 528 3 is_stmt 1 view .LVU499
 1668              	.LVL156:
 530:Lib/Camera_Middleware/sensors/cmw_vd55g1.c **** }
 1669              		.loc 1 530 3 view .LVU500
 530:Lib/Camera_Middleware/sensors/cmw_vd55g1.c **** }
 1670              		.loc 1 530 3 is_stmt 0 view .LVU501
 1671              	.LBE60:
 1672              	.LBE59:
 569:Lib/Camera_Middleware/sensors/cmw_vd55g1.c ****   {
 1673              		.loc 1 569 3 is_stmt 1 view .LVU502
 573:Lib/Camera_Middleware/sensors/cmw_vd55g1.c ****   {
 1674              		.loc 1 573 3 view .LVU503
 573:Lib/Camera_Middleware/sensors/cmw_vd55g1.c ****   {
 1675              		.loc 1 573 6 is_stmt 0 view .LVU504
 1676 0074 019A     		ldr	r2, [sp, #4]
 1677 0076 184B     		ldr	r3, .L92+40
 1678 0078 9A42     		cmp	r2, r3
 1679 007a EBD1     		bne	.L91
 578:Lib/Camera_Middleware/sensors/cmw_vd55g1.c ****   vd55g1_if->Init = CMW_VD55G1_Init;
 1680              		.loc 1 578 3 is_stmt 1 view .LVU505
 1681 007c 0146     		mov	r1, r0
 1682 007e 6022     		movs	r2, #96
 1683 0080 05F10C00 		add	r0, r5, #12
 1684 0084 FFF7FEFF 		bl	memset
 1685              	.LVL157:
 579:Lib/Camera_Middleware/sensors/cmw_vd55g1.c ****   vd55g1_if->DeInit = CMW_VD55G1_DeInit;
 1686              		.loc 1 579 3 view .LVU506
 579:Lib/Camera_Middleware/sensors/cmw_vd55g1.c ****   vd55g1_if->DeInit = CMW_VD55G1_DeInit;
 1687              		.loc 1 579 19 is_stmt 0 view .LVU507
 1688 0088 144B     		ldr	r3, .L92+44
 1689 008a 2B60     		str	r3, [r5]
 580:Lib/Camera_Middleware/sensors/cmw_vd55g1.c ****   vd55g1_if->Start = CMW_VD55G1_Start;
 1690              		.loc 1 580 3 is_stmt 1 view .LVU508
 580:Lib/Camera_Middleware/sensors/cmw_vd55g1.c ****   vd55g1_if->Start = CMW_VD55G1_Start;
 1691              		.loc 1 580 21 is_stmt 0 view .LVU509
 1692 008c 144B     		ldr	r3, .L92+48
 1693 008e 6B60     		str	r3, [r5, #4]
 581:Lib/Camera_Middleware/sensors/cmw_vd55g1.c ****   vd55g1_if->Stop = CMW_VD55G1_Stop;
 1694              		.loc 1 581 3 is_stmt 1 view .LVU510
ARM GAS  C:\Users\DJESSOU\AppData\Local\Temp\ccNVQBzK.s 			page 47


 581:Lib/Camera_Middleware/sensors/cmw_vd55g1.c ****   vd55g1_if->Stop = CMW_VD55G1_Stop;
 1695              		.loc 1 581 20 is_stmt 0 view .LVU511
 1696 0090 144B     		ldr	r3, .L92+52
 1697 0092 AB60     		str	r3, [r5, #8]
 582:Lib/Camera_Middleware/sensors/cmw_vd55g1.c ****   vd55g1_if->SetMirrorFlip = CMW_VD55G1_MirrorFlipConfig;
 1698              		.loc 1 582 3 is_stmt 1 view .LVU512
 582:Lib/Camera_Middleware/sensors/cmw_vd55g1.c ****   vd55g1_if->SetMirrorFlip = CMW_VD55G1_MirrorFlipConfig;
 1699              		.loc 1 582 19 is_stmt 0 view .LVU513
 1700 0094 144B     		ldr	r3, .L92+56
 1701 0096 AB61     		str	r3, [r5, #24]
 583:Lib/Camera_Middleware/sensors/cmw_vd55g1.c ****   vd55g1_if->SetGain = CMW_VD55G1_SetGain;
 1702              		.loc 1 583 3 is_stmt 1 view .LVU514
 583:Lib/Camera_Middleware/sensors/cmw_vd55g1.c ****   vd55g1_if->SetGain = CMW_VD55G1_SetGain;
 1703              		.loc 1 583 28 is_stmt 0 view .LVU515
 1704 0098 144B     		ldr	r3, .L92+60
 1705 009a EB62     		str	r3, [r5, #44]
 584:Lib/Camera_Middleware/sensors/cmw_vd55g1.c ****   vd55g1_if->SetExposure = CMW_VD55G1_SetExposure;
 1706              		.loc 1 584 3 is_stmt 1 view .LVU516
 584:Lib/Camera_Middleware/sensors/cmw_vd55g1.c ****   vd55g1_if->SetExposure = CMW_VD55G1_SetExposure;
 1707              		.loc 1 584 22 is_stmt 0 view .LVU517
 1708 009c 144B     		ldr	r3, .L92+64
 1709 009e AB64     		str	r3, [r5, #72]
 585:Lib/Camera_Middleware/sensors/cmw_vd55g1.c ****   vd55g1_if->SetExposureMode = CMW_VD55G1_SetExposureMode;
 1710              		.loc 1 585 3 is_stmt 1 view .LVU518
 585:Lib/Camera_Middleware/sensors/cmw_vd55g1.c ****   vd55g1_if->SetExposureMode = CMW_VD55G1_SetExposureMode;
 1711              		.loc 1 585 26 is_stmt 0 view .LVU519
 1712 00a0 144B     		ldr	r3, .L92+68
 1713 00a2 EB64     		str	r3, [r5, #76]
 586:Lib/Camera_Middleware/sensors/cmw_vd55g1.c ****   vd55g1_if->GetSensorInfo = CMW_VD55G1_GetSensorInfo;
 1714              		.loc 1 586 3 is_stmt 1 view .LVU520
 586:Lib/Camera_Middleware/sensors/cmw_vd55g1.c ****   vd55g1_if->GetSensorInfo = CMW_VD55G1_GetSensorInfo;
 1715              		.loc 1 586 30 is_stmt 0 view .LVU521
 1716 00a4 144B     		ldr	r3, .L92+72
 1717 00a6 2B65     		str	r3, [r5, #80]
 587:Lib/Camera_Middleware/sensors/cmw_vd55g1.c ****   return ret;
 1718              		.loc 1 587 3 is_stmt 1 view .LVU522
 587:Lib/Camera_Middleware/sensors/cmw_vd55g1.c ****   return ret;
 1719              		.loc 1 587 28 is_stmt 0 view .LVU523
 1720 00a8 144B     		ldr	r3, .L92+76
 1721 00aa 2B66     		str	r3, [r5, #96]
 588:Lib/Camera_Middleware/sensors/cmw_vd55g1.c **** }
 1722              		.loc 1 588 3 is_stmt 1 view .LVU524
 1723              	.LVL158:
 588:Lib/Camera_Middleware/sensors/cmw_vd55g1.c **** }
 1724              		.loc 1 588 10 is_stmt 0 view .LVU525
 1725 00ac D4E7     		b	.L85
 1726              	.L93:
 1727 00ae 00BF     		.align	2
 1728              	.L92:
 1729 00b0 00000000 		.word	VD55G1_ShutdownPin
 1730 00b4 00000000 		.word	VD55G1_Read8
 1731 00b8 00000000 		.word	VD55G1_Read16
 1732 00bc 00000000 		.word	VD55G1_Read32
 1733 00c0 00000000 		.word	VD55G1_Write8
 1734 00c4 00000000 		.word	VD55G1_Write16
 1735 00c8 00000000 		.word	VD55G1_Write32
 1736 00cc 00000000 		.word	VD55G1_WriteArray
ARM GAS  C:\Users\DJESSOU\AppData\Local\Temp\ccNVQBzK.s 			page 48


 1737 00d0 00000000 		.word	VD55G1_Delay
 1738 00d4 00000000 		.word	VD55G1_Log
 1739 00d8 31473553 		.word	1396000561
 1740 00dc 00000000 		.word	CMW_VD55G1_Init
 1741 00e0 00000000 		.word	CMW_VD55G1_DeInit
 1742 00e4 00000000 		.word	CMW_VD55G1_Start
 1743 00e8 00000000 		.word	CMW_VD55G1_Stop
 1744 00ec 00000000 		.word	CMW_VD55G1_MirrorFlipConfig
 1745 00f0 00000000 		.word	CMW_VD55G1_SetGain
 1746 00f4 00000000 		.word	CMW_VD55G1_SetExposure
 1747 00f8 00000000 		.word	CMW_VD55G1_SetExposureMode
 1748 00fc 00000000 		.word	CMW_VD55G1_GetSensorInfo
 1749              		.cfi_endproc
 1750              	.LFE896:
 1752              		.section	.rodata.__func__.1,"a"
 1755              	__func__.1:
 1756 0000 434D575F 		.ascii	"CMW_VD55G1_SetDefaultSensorValues\000"
 1756      56443535 
 1756      47315F53 
 1756      65744465 
 1756      6661756C 
 1757              		.text
 1758              	.Letext0:
 1759              		.file 2 "C:\\ST\\STM32CubeIDE_1.18.1\\STM32CubeIDE\\plugins\\com.st.stm32cube.ide.mcu.externaltool
 1760              		.file 3 "C:\\ST\\STM32CubeIDE_1.18.1\\STM32CubeIDE\\plugins\\com.st.stm32cube.ide.mcu.externaltool
 1761              		.file 4 "C:\\ST\\STM32CubeIDE_1.18.1\\STM32CubeIDE\\plugins\\com.st.stm32cube.ide.mcu.externaltool
 1762              		.file 5 "C:\\ST\\STM32CubeIDE_1.18.1\\STM32CubeIDE\\plugins\\com.st.stm32cube.ide.mcu.externaltool
 1763              		.file 6 "C:\\ST\\STM32CubeIDE_1.18.1\\STM32CubeIDE\\plugins\\com.st.stm32cube.ide.mcu.externaltool
 1764              		.file 7 "Lib/Camera_Middleware/ISP_Library/isp/Inc/isp_core.h"
 1765              		.file 8 "Lib/Camera_Middleware/sensors/cmw_sensors_if.h"
 1766              		.file 9 "Lib/Camera_Middleware/sensors/vd55g1/vd55g1.h"
 1767              		.file 10 "Lib/Camera_Middleware/cmw_camera.h"
 1768              		.file 11 "Lib/Camera_Middleware/sensors/cmw_vd55g1.h"
 1769              		.file 12 "C:\\ST\\STM32CubeIDE_1.18.1\\STM32CubeIDE\\plugins\\com.st.stm32cube.ide.mcu.externaltoo
 1770              		.file 13 "C:\\ST\\STM32CubeIDE_1.18.1\\STM32CubeIDE\\plugins\\com.st.stm32cube.ide.mcu.externaltoo
 1771              		.file 14 "<built-in>"
 1772              		.file 15 "C:\\ST\\STM32CubeIDE_1.18.1\\STM32CubeIDE\\plugins\\com.st.stm32cube.ide.mcu.externaltoo
ARM GAS  C:\Users\DJESSOU\AppData\Local\Temp\ccNVQBzK.s 			page 49

