ARM GAS  C:\Users\DJESSOU\AppData\Local\Temp\ccSNWOEX.s 			page 1


   1              		.arch armv8.1-m.main
   2              		.fpu fpv5-d16
   3              		.arch_extension dsp
   4              		.arch_extension fp
   5              		.arch_extension fp.dp
   6              		.arch_extension mve
   7              		.arch_extension mve.fp
   8              		.eabi_attribute 5, "cortex-m55"
   9              		.eabi_attribute 28, 1
  10              		.eabi_attribute 20, 1
  11              		.eabi_attribute 21, 1
  12              		.eabi_attribute 23, 3
  13              		.eabi_attribute 24, 1
  14              		.eabi_attribute 25, 1
  15              		.eabi_attribute 26, 1
  16              		.eabi_attribute 30, 4
  17              		.eabi_attribute 34, 1
  18              		.eabi_attribute 38, 1
  19              		.eabi_attribute 18, 4
  20              		.file	"cmw_vd66gy.c"
  21              		.text
  22              	.Ltext0:
  23              		.cfi_sections	.debug_frame
  24              		.file 1 "Lib/Camera_Middleware/sensors/cmw_vd66gy.c"
  25              		.section	.text.CMW_VD66GY_Read16,"ax",%progbits
  26              		.align	1
  27              		.syntax unified
  28              		.thumb
  29              		.thumb_func
  31              	CMW_VD66GY_Read16:
  32              	.LVL0:
  33              	.LFB3414:
   1:Lib/Camera_Middleware/sensors/cmw_vd66gy.c **** /**
   2:Lib/Camera_Middleware/sensors/cmw_vd66gy.c ****   ******************************************************************************
   3:Lib/Camera_Middleware/sensors/cmw_vd66gy.c ****   * @file    cmw_vd66gy.c
   4:Lib/Camera_Middleware/sensors/cmw_vd66gy.c ****   * @author  MDG Application Team
   5:Lib/Camera_Middleware/sensors/cmw_vd66gy.c ****   ******************************************************************************
   6:Lib/Camera_Middleware/sensors/cmw_vd66gy.c ****   * @attention
   7:Lib/Camera_Middleware/sensors/cmw_vd66gy.c ****   *
   8:Lib/Camera_Middleware/sensors/cmw_vd66gy.c ****   * Copyright (c) 2024 STMicroelectronics.
   9:Lib/Camera_Middleware/sensors/cmw_vd66gy.c ****   * All rights reserved.
  10:Lib/Camera_Middleware/sensors/cmw_vd66gy.c ****   *
  11:Lib/Camera_Middleware/sensors/cmw_vd66gy.c ****   * This software is licensed under terms that can be found in the LICENSE file
  12:Lib/Camera_Middleware/sensors/cmw_vd66gy.c ****   * in the root directory of this software component.
  13:Lib/Camera_Middleware/sensors/cmw_vd66gy.c ****   * If no LICENSE file comes with this software, it is provided AS-IS.
  14:Lib/Camera_Middleware/sensors/cmw_vd66gy.c ****   *
  15:Lib/Camera_Middleware/sensors/cmw_vd66gy.c ****   ******************************************************************************
  16:Lib/Camera_Middleware/sensors/cmw_vd66gy.c ****   */
  17:Lib/Camera_Middleware/sensors/cmw_vd66gy.c **** 
  18:Lib/Camera_Middleware/sensors/cmw_vd66gy.c **** #include "cmw_vd66gy.h"
  19:Lib/Camera_Middleware/sensors/cmw_vd66gy.c **** 
  20:Lib/Camera_Middleware/sensors/cmw_vd66gy.c **** #include <assert.h>
  21:Lib/Camera_Middleware/sensors/cmw_vd66gy.c **** #include <stdlib.h>
  22:Lib/Camera_Middleware/sensors/cmw_vd66gy.c **** #include <stdio.h>
  23:Lib/Camera_Middleware/sensors/cmw_vd66gy.c **** #include <stddef.h>
  24:Lib/Camera_Middleware/sensors/cmw_vd66gy.c **** #include <string.h>
  25:Lib/Camera_Middleware/sensors/cmw_vd66gy.c **** #include "cmw_camera.h"
ARM GAS  C:\Users\DJESSOU\AppData\Local\Temp\ccSNWOEX.s 			page 2


  26:Lib/Camera_Middleware/sensors/cmw_vd66gy.c **** #include "cmw_io.h"
  27:Lib/Camera_Middleware/sensors/cmw_vd66gy.c **** #ifndef ISP_MW_TUNING_TOOL_SUPPORT
  28:Lib/Camera_Middleware/sensors/cmw_vd66gy.c **** #include "isp_param_conf.h"
  29:Lib/Camera_Middleware/sensors/cmw_vd66gy.c **** #endif
  30:Lib/Camera_Middleware/sensors/cmw_vd66gy.c **** 
  31:Lib/Camera_Middleware/sensors/cmw_vd66gy.c **** #include "vd6g.h"
  32:Lib/Camera_Middleware/sensors/cmw_vd66gy.c **** 
  33:Lib/Camera_Middleware/sensors/cmw_vd66gy.c **** #define VD66GY_REG_MODEL_ID                   0x0000
  34:Lib/Camera_Middleware/sensors/cmw_vd66gy.c **** 
  35:Lib/Camera_Middleware/sensors/cmw_vd66gy.c **** #define container_of(ptr, type, member) (type *) ((unsigned char *)ptr - offsetof(type,member))
  36:Lib/Camera_Middleware/sensors/cmw_vd66gy.c **** 
  37:Lib/Camera_Middleware/sensors/cmw_vd66gy.c **** #ifndef MIN
  38:Lib/Camera_Middleware/sensors/cmw_vd66gy.c **** #define MIN(a, b)                           ((a) < (b) ?  (a) : (b))
  39:Lib/Camera_Middleware/sensors/cmw_vd66gy.c **** #endif
  40:Lib/Camera_Middleware/sensors/cmw_vd66gy.c **** #define MDECIBEL_TO_LINEAR(mdB)             (pow(10.0, (mdB / 1000.0) / 20.0))
  41:Lib/Camera_Middleware/sensors/cmw_vd66gy.c **** #define LINEAR_TO_MDECIBEL(linearValue)     (1000 * (20.0 * log10(linearValue)))
  42:Lib/Camera_Middleware/sensors/cmw_vd66gy.c **** #define FLOAT_TO_FP58(x)                    (((uint16_t)(x) << 8) | ((uint16_t)((x - (uint16_t)(x))
  43:Lib/Camera_Middleware/sensors/cmw_vd66gy.c **** #define FP58_TO_FLOAT(fp)                   (((fp) >> 8) + ((fp) & 0xFF) / 256.0f)
  44:Lib/Camera_Middleware/sensors/cmw_vd66gy.c **** 
  45:Lib/Camera_Middleware/sensors/cmw_vd66gy.c **** static int CMW_VD66GY_Read8(CMW_VD66GY_t *pObj, uint16_t addr, uint8_t *value)
  46:Lib/Camera_Middleware/sensors/cmw_vd66gy.c **** {
  47:Lib/Camera_Middleware/sensors/cmw_vd66gy.c ****   return pObj->ReadReg(pObj->Address, addr, value, 1);
  48:Lib/Camera_Middleware/sensors/cmw_vd66gy.c **** }
  49:Lib/Camera_Middleware/sensors/cmw_vd66gy.c **** 
  50:Lib/Camera_Middleware/sensors/cmw_vd66gy.c **** static int CMW_VD66GY_Read16(CMW_VD66GY_t *pObj, uint16_t addr, uint16_t *value)
  51:Lib/Camera_Middleware/sensors/cmw_vd66gy.c **** {
  34              		.loc 1 51 1 view -0
  35              		.cfi_startproc
  36              		@ args = 0, pretend = 0, frame = 8
  37              		@ frame_needed = 0, uses_anonymous_args = 0
  52:Lib/Camera_Middleware/sensors/cmw_vd66gy.c ****   uint8_t data[2];
  38              		.loc 1 52 3 view .LVU1
  53:Lib/Camera_Middleware/sensors/cmw_vd66gy.c ****   int ret;
  39              		.loc 1 53 3 view .LVU2
  54:Lib/Camera_Middleware/sensors/cmw_vd66gy.c **** 
  55:Lib/Camera_Middleware/sensors/cmw_vd66gy.c ****   ret = pObj->ReadReg(pObj->Address, addr, data, 2);
  40              		.loc 1 55 3 view .LVU3
  51:Lib/Camera_Middleware/sensors/cmw_vd66gy.c ****   uint8_t data[2];
  41              		.loc 1 51 1 is_stmt 0 view .LVU4
  42 0000 37B5     		push	{r0, r1, r2, r4, r5, lr}
  43              		.cfi_def_cfa_offset 24
  44              		.cfi_offset 4, -12
  45              		.cfi_offset 5, -8
  46              		.cfi_offset 14, -4
  47              		.loc 1 55 9 view .LVU5
  48 0002 0223     		movs	r3, #2
  51:Lib/Camera_Middleware/sensors/cmw_vd66gy.c ****   uint8_t data[2];
  49              		.loc 1 51 1 view .LVU6
  50 0004 1446     		mov	r4, r2
  51              		.loc 1 55 9 view .LVU7
  52 0006 D0F83051 		ldr	r5, [r0, #304]
  53 000a 01AA     		add	r2, sp, #4
  54              	.LVL1:
  55              		.loc 1 55 9 view .LVU8
  56 000c 0088     		ldrh	r0, [r0]
  57              	.LVL2:
  58              		.loc 1 55 9 view .LVU9
ARM GAS  C:\Users\DJESSOU\AppData\Local\Temp\ccSNWOEX.s 			page 3


  59 000e A847     		blx	r5
  60              	.LVL3:
  56:Lib/Camera_Middleware/sensors/cmw_vd66gy.c ****   if (ret)
  61              		.loc 1 56 3 is_stmt 1 view .LVU10
  62              		.loc 1 56 6 is_stmt 0 view .LVU11
  63 0010 10B9     		cbnz	r0, .L1
  57:Lib/Camera_Middleware/sensors/cmw_vd66gy.c ****     return ret;
  58:Lib/Camera_Middleware/sensors/cmw_vd66gy.c **** 
  59:Lib/Camera_Middleware/sensors/cmw_vd66gy.c ****   *value = (data[1] << 8) | data[0];
  64              		.loc 1 59 3 is_stmt 1 view .LVU12
  65              		.loc 1 59 10 is_stmt 0 view .LVU13
  66 0012 BDF80430 		ldrh	r3, [sp, #4]
  67 0016 2380     		strh	r3, [r4]	@ movhi
  60:Lib/Camera_Middleware/sensors/cmw_vd66gy.c **** 
  61:Lib/Camera_Middleware/sensors/cmw_vd66gy.c ****   return CMW_ERROR_NONE;
  68              		.loc 1 61 3 is_stmt 1 view .LVU14
  69              	.L1:
  62:Lib/Camera_Middleware/sensors/cmw_vd66gy.c **** }
  70              		.loc 1 62 1 is_stmt 0 view .LVU15
  71 0018 03B0     		add	sp, sp, #12
  72              		.cfi_def_cfa_offset 12
  73              		@ sp needed
  74 001a 30BD     		pop	{r4, r5, pc}
  75              		.loc 1 62 1 view .LVU16
  76              		.cfi_endproc
  77              	.LFE3414:
  79              		.section	.text.VD6G_ShutdownPin,"ax",%progbits
  80              		.align	1
  81              		.syntax unified
  82              		.thumb
  83              		.thumb_func
  85              	VD6G_ShutdownPin:
  86              	.LVL4:
  87              	.LFB3419:
  63:Lib/Camera_Middleware/sensors/cmw_vd66gy.c **** 
  64:Lib/Camera_Middleware/sensors/cmw_vd66gy.c **** static int CMW_VD66GY_Read32(CMW_VD66GY_t *pObj, uint16_t addr, uint32_t *value)
  65:Lib/Camera_Middleware/sensors/cmw_vd66gy.c **** {
  66:Lib/Camera_Middleware/sensors/cmw_vd66gy.c ****   uint8_t data[4];
  67:Lib/Camera_Middleware/sensors/cmw_vd66gy.c ****   int ret;
  68:Lib/Camera_Middleware/sensors/cmw_vd66gy.c **** 
  69:Lib/Camera_Middleware/sensors/cmw_vd66gy.c ****   ret = pObj->ReadReg(pObj->Address, addr, data, 4);
  70:Lib/Camera_Middleware/sensors/cmw_vd66gy.c ****   if (ret)
  71:Lib/Camera_Middleware/sensors/cmw_vd66gy.c ****     return ret;
  72:Lib/Camera_Middleware/sensors/cmw_vd66gy.c **** 
  73:Lib/Camera_Middleware/sensors/cmw_vd66gy.c ****   *value = (data[3] << 24) | (data[2] << 16) | (data[1] << 8) | data[0];
  74:Lib/Camera_Middleware/sensors/cmw_vd66gy.c **** 
  75:Lib/Camera_Middleware/sensors/cmw_vd66gy.c ****   return 0;
  76:Lib/Camera_Middleware/sensors/cmw_vd66gy.c **** }
  77:Lib/Camera_Middleware/sensors/cmw_vd66gy.c **** 
  78:Lib/Camera_Middleware/sensors/cmw_vd66gy.c **** static int CMW_VD66GY_Write8(CMW_VD66GY_t *pObj, uint16_t addr, uint8_t value)
  79:Lib/Camera_Middleware/sensors/cmw_vd66gy.c **** {
  80:Lib/Camera_Middleware/sensors/cmw_vd66gy.c ****   return pObj->WriteReg(pObj->Address, addr, &value, 1);
  81:Lib/Camera_Middleware/sensors/cmw_vd66gy.c **** }
  82:Lib/Camera_Middleware/sensors/cmw_vd66gy.c **** 
  83:Lib/Camera_Middleware/sensors/cmw_vd66gy.c **** static int CMW_VD66GY_Write16(CMW_VD66GY_t *pObj, uint16_t addr, uint16_t value)
  84:Lib/Camera_Middleware/sensors/cmw_vd66gy.c **** {
  85:Lib/Camera_Middleware/sensors/cmw_vd66gy.c ****   return pObj->WriteReg(pObj->Address, addr, (uint8_t *) &value, 2);
ARM GAS  C:\Users\DJESSOU\AppData\Local\Temp\ccSNWOEX.s 			page 4


  86:Lib/Camera_Middleware/sensors/cmw_vd66gy.c **** }
  87:Lib/Camera_Middleware/sensors/cmw_vd66gy.c **** 
  88:Lib/Camera_Middleware/sensors/cmw_vd66gy.c **** static int CMW_VD66GY_Write32(CMW_VD66GY_t *pObj, uint16_t addr, uint32_t value)
  89:Lib/Camera_Middleware/sensors/cmw_vd66gy.c **** {
  90:Lib/Camera_Middleware/sensors/cmw_vd66gy.c ****   return pObj->WriteReg(pObj->Address, addr, (uint8_t *) &value, 4);
  91:Lib/Camera_Middleware/sensors/cmw_vd66gy.c **** }
  92:Lib/Camera_Middleware/sensors/cmw_vd66gy.c **** 
  93:Lib/Camera_Middleware/sensors/cmw_vd66gy.c **** static void VD6G_ShutdownPin(struct VD6G_Ctx *ctx, int value)
  94:Lib/Camera_Middleware/sensors/cmw_vd66gy.c **** {
  88              		.loc 1 94 1 is_stmt 1 view -0
  89              		.cfi_startproc
  90              		@ args = 0, pretend = 0, frame = 0
  91              		@ frame_needed = 0, uses_anonymous_args = 0
  92              		@ link register save eliminated.
  95:Lib/Camera_Middleware/sensors/cmw_vd66gy.c ****   CMW_VD66GY_t *p_ctx = container_of(ctx, CMW_VD66GY_t, ctx_driver);
  93              		.loc 1 95 3 view .LVU18
  96:Lib/Camera_Middleware/sensors/cmw_vd66gy.c **** 
  97:Lib/Camera_Middleware/sensors/cmw_vd66gy.c ****   p_ctx->ShutdownPin(value);
  94              		.loc 1 97 3 view .LVU19
  95 0000 D0F83831 		ldr	r3, [r0, #312]
  96 0004 0846     		mov	r0, r1
  97              	.LVL5:
  98              		.loc 1 97 3 is_stmt 0 view .LVU20
  99 0006 1847     		bx	r3	@ indirect register sibling call
 100              	.LVL6:
 101              		.loc 1 97 3 view .LVU21
 102              		.cfi_endproc
 103              	.LFE3419:
 105              		.section	.text.VD6G_Read8,"ax",%progbits
 106              		.align	1
 107              		.syntax unified
 108              		.thumb
 109              		.thumb_func
 111              	VD6G_Read8:
 112              	.LVL7:
 113              	.LFB3420:
  98:Lib/Camera_Middleware/sensors/cmw_vd66gy.c **** }
  99:Lib/Camera_Middleware/sensors/cmw_vd66gy.c **** 
 100:Lib/Camera_Middleware/sensors/cmw_vd66gy.c **** static int VD6G_Read8(struct VD6G_Ctx *ctx, uint16_t addr, uint8_t *value)
 101:Lib/Camera_Middleware/sensors/cmw_vd66gy.c **** {
 114              		.loc 1 101 1 is_stmt 1 view -0
 115              		.cfi_startproc
 116              		@ args = 0, pretend = 0, frame = 0
 117              		@ frame_needed = 0, uses_anonymous_args = 0
 118              		@ link register save eliminated.
 102:Lib/Camera_Middleware/sensors/cmw_vd66gy.c ****   CMW_VD66GY_t *p_ctx = container_of(ctx, CMW_VD66GY_t, ctx_driver);
 119              		.loc 1 102 3 view .LVU23
 103:Lib/Camera_Middleware/sensors/cmw_vd66gy.c **** 
 104:Lib/Camera_Middleware/sensors/cmw_vd66gy.c ****   return CMW_VD66GY_Read8(p_ctx, addr, value);
 120              		.loc 1 104 3 view .LVU24
 121              	.LBB6:
 122              	.LBI6:
  45:Lib/Camera_Middleware/sensors/cmw_vd66gy.c **** {
 123              		.loc 1 45 12 view .LVU25
 124              	.LBB7:
  47:Lib/Camera_Middleware/sensors/cmw_vd66gy.c **** }
 125              		.loc 1 47 3 view .LVU26
ARM GAS  C:\Users\DJESSOU\AppData\Local\Temp\ccSNWOEX.s 			page 5


 126              	.LBE7:
 127              	.LBE6:
 101:Lib/Camera_Middleware/sensors/cmw_vd66gy.c ****   CMW_VD66GY_t *p_ctx = container_of(ctx, CMW_VD66GY_t, ctx_driver);
 128              		.loc 1 101 1 is_stmt 0 view .LVU27
 129 0000 10B4     		push	{r4}
 130              		.cfi_def_cfa_offset 4
 131              		.cfi_offset 4, -4
 132              	.LBB10:
 133              	.LBB8:
  47:Lib/Camera_Middleware/sensors/cmw_vd66gy.c **** }
 134              		.loc 1 47 10 view .LVU28
 135 0002 D0F82C41 		ldr	r4, [r0, #300]
 136 0006 0123     		movs	r3, #1
 137 0008 A446     		mov	ip, r4
 138 000a 30F8040C 		ldrh	r0, [r0, #-4]
 139              	.LVL8:
  47:Lib/Camera_Middleware/sensors/cmw_vd66gy.c **** }
 140              		.loc 1 47 10 view .LVU29
 141              	.LBE8:
 142              	.LBE10:
 105:Lib/Camera_Middleware/sensors/cmw_vd66gy.c **** }
 143              		.loc 1 105 1 view .LVU30
 144 000e 5DF8044B 		ldr	r4, [sp], #4
 145              		.cfi_restore 4
 146              		.cfi_def_cfa_offset 0
 147              	.LBB11:
 148              	.LBB9:
  47:Lib/Camera_Middleware/sensors/cmw_vd66gy.c **** }
 149              		.loc 1 47 10 view .LVU31
 150 0012 6047     		bx	ip
 151              	.LVL9:
  47:Lib/Camera_Middleware/sensors/cmw_vd66gy.c **** }
 152              		.loc 1 47 10 view .LVU32
 153              	.LBE9:
 154              	.LBE11:
 155              		.cfi_endproc
 156              	.LFE3420:
 158              		.section	.text.VD6G_Read16,"ax",%progbits
 159              		.align	1
 160              		.syntax unified
 161              		.thumb
 162              		.thumb_func
 164              	VD6G_Read16:
 165              	.LVL10:
 166              	.LFB3421:
 106:Lib/Camera_Middleware/sensors/cmw_vd66gy.c **** 
 107:Lib/Camera_Middleware/sensors/cmw_vd66gy.c **** static int VD6G_Read16(struct VD6G_Ctx *ctx, uint16_t addr, uint16_t *value)
 108:Lib/Camera_Middleware/sensors/cmw_vd66gy.c **** {
 167              		.loc 1 108 1 is_stmt 1 view -0
 168              		.cfi_startproc
 169              		@ args = 0, pretend = 0, frame = 0
 170              		@ frame_needed = 0, uses_anonymous_args = 0
 171              		@ link register save eliminated.
 109:Lib/Camera_Middleware/sensors/cmw_vd66gy.c ****   CMW_VD66GY_t *p_ctx = container_of(ctx, CMW_VD66GY_t, ctx_driver);
 172              		.loc 1 109 3 view .LVU34
 110:Lib/Camera_Middleware/sensors/cmw_vd66gy.c **** 
 111:Lib/Camera_Middleware/sensors/cmw_vd66gy.c ****   return CMW_VD66GY_Read16(p_ctx, addr, value);
ARM GAS  C:\Users\DJESSOU\AppData\Local\Temp\ccSNWOEX.s 			page 6


 173              		.loc 1 111 3 view .LVU35
 174              		.loc 1 111 10 is_stmt 0 view .LVU36
 175 0000 0438     		subs	r0, r0, #4
 176              	.LVL11:
 177              		.loc 1 111 10 view .LVU37
 178 0002 FFF7FEBF 		b	CMW_VD66GY_Read16
 179              	.LVL12:
 180              		.loc 1 111 10 view .LVU38
 181              		.cfi_endproc
 182              	.LFE3421:
 184              		.section	.text.VD6G_Read32,"ax",%progbits
 185              		.align	1
 186              		.syntax unified
 187              		.thumb
 188              		.thumb_func
 190              	VD6G_Read32:
 191              	.LVL13:
 192              	.LFB3422:
 112:Lib/Camera_Middleware/sensors/cmw_vd66gy.c **** }
 113:Lib/Camera_Middleware/sensors/cmw_vd66gy.c **** 
 114:Lib/Camera_Middleware/sensors/cmw_vd66gy.c **** static int VD6G_Read32(struct VD6G_Ctx *ctx, uint16_t addr, uint32_t *value)
 115:Lib/Camera_Middleware/sensors/cmw_vd66gy.c **** {
 193              		.loc 1 115 1 is_stmt 1 view -0
 194              		.cfi_startproc
 195              		@ args = 0, pretend = 0, frame = 8
 196              		@ frame_needed = 0, uses_anonymous_args = 0
 116:Lib/Camera_Middleware/sensors/cmw_vd66gy.c ****   CMW_VD66GY_t *p_ctx = container_of(ctx, CMW_VD66GY_t, ctx_driver);
 197              		.loc 1 116 3 view .LVU40
 117:Lib/Camera_Middleware/sensors/cmw_vd66gy.c **** 
 118:Lib/Camera_Middleware/sensors/cmw_vd66gy.c ****   return CMW_VD66GY_Read32(p_ctx, addr, value);
 198              		.loc 1 118 3 view .LVU41
 199              	.LBB14:
 200              	.LBB15:
  69:Lib/Camera_Middleware/sensors/cmw_vd66gy.c ****   if (ret)
 201              		.loc 1 69 9 is_stmt 0 view .LVU42
 202 0000 0423     		movs	r3, #4
 203              	.LBE15:
 204              	.LBE14:
 115:Lib/Camera_Middleware/sensors/cmw_vd66gy.c ****   CMW_VD66GY_t *p_ctx = container_of(ctx, CMW_VD66GY_t, ctx_driver);
 205              		.loc 1 115 1 view .LVU43
 206 0002 37B5     		push	{r0, r1, r2, r4, r5, lr}
 207              		.cfi_def_cfa_offset 24
 208              		.cfi_offset 4, -12
 209              		.cfi_offset 5, -8
 210              		.cfi_offset 14, -4
 115:Lib/Camera_Middleware/sensors/cmw_vd66gy.c ****   CMW_VD66GY_t *p_ctx = container_of(ctx, CMW_VD66GY_t, ctx_driver);
 211              		.loc 1 115 1 view .LVU44
 212 0004 1446     		mov	r4, r2
 213              	.LVL14:
 214              	.LBB17:
 215              	.LBI14:
  64:Lib/Camera_Middleware/sensors/cmw_vd66gy.c **** {
 216              		.loc 1 64 12 is_stmt 1 view .LVU45
 217              	.LBB16:
  66:Lib/Camera_Middleware/sensors/cmw_vd66gy.c ****   int ret;
 218              		.loc 1 66 3 view .LVU46
  67:Lib/Camera_Middleware/sensors/cmw_vd66gy.c **** 
ARM GAS  C:\Users\DJESSOU\AppData\Local\Temp\ccSNWOEX.s 			page 7


 219              		.loc 1 67 3 view .LVU47
  69:Lib/Camera_Middleware/sensors/cmw_vd66gy.c ****   if (ret)
 220              		.loc 1 69 3 view .LVU48
  69:Lib/Camera_Middleware/sensors/cmw_vd66gy.c ****   if (ret)
 221              		.loc 1 69 9 is_stmt 0 view .LVU49
 222 0006 D0F82C51 		ldr	r5, [r0, #300]
 223 000a 0DEB0302 		add	r2, sp, r3
 224              	.LVL15:
  69:Lib/Camera_Middleware/sensors/cmw_vd66gy.c ****   if (ret)
 225              		.loc 1 69 9 view .LVU50
 226 000e 30F8040C 		ldrh	r0, [r0, #-4]
 227              	.LVL16:
  69:Lib/Camera_Middleware/sensors/cmw_vd66gy.c ****   if (ret)
 228              		.loc 1 69 9 view .LVU51
 229 0012 A847     		blx	r5
 230              	.LVL17:
  70:Lib/Camera_Middleware/sensors/cmw_vd66gy.c ****     return ret;
 231              		.loc 1 70 3 is_stmt 1 view .LVU52
  70:Lib/Camera_Middleware/sensors/cmw_vd66gy.c ****     return ret;
 232              		.loc 1 70 6 is_stmt 0 view .LVU53
 233 0014 08B9     		cbnz	r0, .L6
  73:Lib/Camera_Middleware/sensors/cmw_vd66gy.c **** 
 234              		.loc 1 73 3 is_stmt 1 view .LVU54
  73:Lib/Camera_Middleware/sensors/cmw_vd66gy.c **** 
 235              		.loc 1 73 10 is_stmt 0 view .LVU55
 236 0016 019B     		ldr	r3, [sp, #4]
 237 0018 2360     		str	r3, [r4]
  75:Lib/Camera_Middleware/sensors/cmw_vd66gy.c **** }
 238              		.loc 1 75 3 is_stmt 1 view .LVU56
 239              	.LVL18:
 240              	.L6:
  75:Lib/Camera_Middleware/sensors/cmw_vd66gy.c **** }
 241              		.loc 1 75 3 is_stmt 0 view .LVU57
 242              	.LBE16:
 243              	.LBE17:
 119:Lib/Camera_Middleware/sensors/cmw_vd66gy.c **** }
 244              		.loc 1 119 1 view .LVU58
 245 001a 03B0     		add	sp, sp, #12
 246              		.cfi_def_cfa_offset 12
 247              		@ sp needed
 248 001c 30BD     		pop	{r4, r5, pc}
 249              		.loc 1 119 1 view .LVU59
 250              		.cfi_endproc
 251              	.LFE3422:
 253              		.section	.text.VD6G_Write8,"ax",%progbits
 254              		.align	1
 255              		.syntax unified
 256              		.thumb
 257              		.thumb_func
 259              	VD6G_Write8:
 260              	.LVL19:
 261              	.LFB3423:
 120:Lib/Camera_Middleware/sensors/cmw_vd66gy.c **** 
 121:Lib/Camera_Middleware/sensors/cmw_vd66gy.c **** static int VD6G_Write8(struct VD6G_Ctx *ctx, uint16_t addr, uint8_t value)
 122:Lib/Camera_Middleware/sensors/cmw_vd66gy.c **** {
 262              		.loc 1 122 1 is_stmt 1 view -0
 263              		.cfi_startproc
ARM GAS  C:\Users\DJESSOU\AppData\Local\Temp\ccSNWOEX.s 			page 8


 264              		@ args = 0, pretend = 0, frame = 8
 265              		@ frame_needed = 0, uses_anonymous_args = 0
 123:Lib/Camera_Middleware/sensors/cmw_vd66gy.c ****   CMW_VD66GY_t *p_ctx = container_of(ctx, CMW_VD66GY_t, ctx_driver);
 266              		.loc 1 123 3 view .LVU61
 124:Lib/Camera_Middleware/sensors/cmw_vd66gy.c **** 
 125:Lib/Camera_Middleware/sensors/cmw_vd66gy.c ****   return CMW_VD66GY_Write8(p_ctx, addr, value);
 267              		.loc 1 125 3 view .LVU62
 122:Lib/Camera_Middleware/sensors/cmw_vd66gy.c ****   CMW_VD66GY_t *p_ctx = container_of(ctx, CMW_VD66GY_t, ctx_driver);
 268              		.loc 1 122 1 is_stmt 0 view .LVU63
 269 0000 13B5     		push	{r0, r1, r4, lr}
 270              		.cfi_def_cfa_offset 16
 271              		.cfi_offset 4, -8
 272              		.cfi_offset 14, -4
 273              	.LBB20:
 274              	.LBB21:
  80:Lib/Camera_Middleware/sensors/cmw_vd66gy.c **** }
 275              		.loc 1 80 10 view .LVU64
 276 0002 0123     		movs	r3, #1
 277 0004 D0F82841 		ldr	r4, [r0, #296]
 278 0008 8DF80720 		strb	r2, [sp, #7]
 279              	.LVL20:
  80:Lib/Camera_Middleware/sensors/cmw_vd66gy.c **** }
 280              		.loc 1 80 10 view .LVU65
 281              	.LBE21:
 282              	.LBI20:
  78:Lib/Camera_Middleware/sensors/cmw_vd66gy.c **** {
 283              		.loc 1 78 12 is_stmt 1 view .LVU66
 284              	.LBB22:
  80:Lib/Camera_Middleware/sensors/cmw_vd66gy.c **** }
 285              		.loc 1 80 3 view .LVU67
  80:Lib/Camera_Middleware/sensors/cmw_vd66gy.c **** }
 286              		.loc 1 80 10 is_stmt 0 view .LVU68
 287 000c 30F8040C 		ldrh	r0, [r0, #-4]
 288              	.LVL21:
  80:Lib/Camera_Middleware/sensors/cmw_vd66gy.c **** }
 289              		.loc 1 80 10 view .LVU69
 290 0010 0DF10702 		add	r2, sp, #7
 291              	.LVL22:
  80:Lib/Camera_Middleware/sensors/cmw_vd66gy.c **** }
 292              		.loc 1 80 10 view .LVU70
 293 0014 A047     		blx	r4
 294              	.LVL23:
  80:Lib/Camera_Middleware/sensors/cmw_vd66gy.c **** }
 295              		.loc 1 80 10 view .LVU71
 296              	.LBE22:
 297              	.LBE20:
 126:Lib/Camera_Middleware/sensors/cmw_vd66gy.c **** }
 298              		.loc 1 126 1 view .LVU72
 299 0016 02B0     		add	sp, sp, #8
 300              		.cfi_def_cfa_offset 8
 301              		@ sp needed
 302 0018 10BD     		pop	{r4, pc}
 303              		.cfi_endproc
 304              	.LFE3423:
 306              		.section	.text.VD6G_Write16,"ax",%progbits
 307              		.align	1
 308              		.syntax unified
ARM GAS  C:\Users\DJESSOU\AppData\Local\Temp\ccSNWOEX.s 			page 9


 309              		.thumb
 310              		.thumb_func
 312              	VD6G_Write16:
 313              	.LVL24:
 314              	.LFB3424:
 127:Lib/Camera_Middleware/sensors/cmw_vd66gy.c **** 
 128:Lib/Camera_Middleware/sensors/cmw_vd66gy.c **** static int VD6G_Write16(struct VD6G_Ctx *ctx, uint16_t addr, uint16_t value)
 129:Lib/Camera_Middleware/sensors/cmw_vd66gy.c **** {
 315              		.loc 1 129 1 is_stmt 1 view -0
 316              		.cfi_startproc
 317              		@ args = 0, pretend = 0, frame = 8
 318              		@ frame_needed = 0, uses_anonymous_args = 0
 130:Lib/Camera_Middleware/sensors/cmw_vd66gy.c ****   CMW_VD66GY_t *p_ctx = container_of(ctx, CMW_VD66GY_t, ctx_driver);
 319              		.loc 1 130 3 view .LVU74
 131:Lib/Camera_Middleware/sensors/cmw_vd66gy.c **** 
 132:Lib/Camera_Middleware/sensors/cmw_vd66gy.c ****   return CMW_VD66GY_Write16(p_ctx, addr, value);
 320              		.loc 1 132 3 view .LVU75
 129:Lib/Camera_Middleware/sensors/cmw_vd66gy.c ****   CMW_VD66GY_t *p_ctx = container_of(ctx, CMW_VD66GY_t, ctx_driver);
 321              		.loc 1 129 1 is_stmt 0 view .LVU76
 322 0000 13B5     		push	{r0, r1, r4, lr}
 323              		.cfi_def_cfa_offset 16
 324              		.cfi_offset 4, -8
 325              		.cfi_offset 14, -4
 326              	.LBB25:
 327              	.LBB26:
  85:Lib/Camera_Middleware/sensors/cmw_vd66gy.c **** }
 328              		.loc 1 85 10 view .LVU77
 329 0002 0223     		movs	r3, #2
 330 0004 D0F82841 		ldr	r4, [r0, #296]
 331 0008 ADF80620 		strh	r2, [sp, #6]	@ movhi
 332              	.LVL25:
  85:Lib/Camera_Middleware/sensors/cmw_vd66gy.c **** }
 333              		.loc 1 85 10 view .LVU78
 334              	.LBE26:
 335              	.LBI25:
  83:Lib/Camera_Middleware/sensors/cmw_vd66gy.c **** {
 336              		.loc 1 83 12 is_stmt 1 view .LVU79
 337              	.LBB27:
  85:Lib/Camera_Middleware/sensors/cmw_vd66gy.c **** }
 338              		.loc 1 85 3 view .LVU80
  85:Lib/Camera_Middleware/sensors/cmw_vd66gy.c **** }
 339              		.loc 1 85 10 is_stmt 0 view .LVU81
 340 000c 30F8040C 		ldrh	r0, [r0, #-4]
 341              	.LVL26:
  85:Lib/Camera_Middleware/sensors/cmw_vd66gy.c **** }
 342              		.loc 1 85 10 view .LVU82
 343 0010 0DF10602 		add	r2, sp, #6
 344              	.LVL27:
  85:Lib/Camera_Middleware/sensors/cmw_vd66gy.c **** }
 345              		.loc 1 85 10 view .LVU83
 346 0014 A047     		blx	r4
 347              	.LVL28:
  85:Lib/Camera_Middleware/sensors/cmw_vd66gy.c **** }
 348              		.loc 1 85 10 view .LVU84
 349              	.LBE27:
 350              	.LBE25:
 133:Lib/Camera_Middleware/sensors/cmw_vd66gy.c **** }
ARM GAS  C:\Users\DJESSOU\AppData\Local\Temp\ccSNWOEX.s 			page 10


 351              		.loc 1 133 1 view .LVU85
 352 0016 02B0     		add	sp, sp, #8
 353              		.cfi_def_cfa_offset 8
 354              		@ sp needed
 355 0018 10BD     		pop	{r4, pc}
 356              		.cfi_endproc
 357              	.LFE3424:
 359              		.section	.text.VD6G_Write32,"ax",%progbits
 360              		.align	1
 361              		.syntax unified
 362              		.thumb
 363              		.thumb_func
 365              	VD6G_Write32:
 366              	.LVL29:
 367              	.LFB3425:
 134:Lib/Camera_Middleware/sensors/cmw_vd66gy.c **** 
 135:Lib/Camera_Middleware/sensors/cmw_vd66gy.c **** static int VD6G_Write32(struct VD6G_Ctx *ctx, uint16_t addr, uint32_t value)
 136:Lib/Camera_Middleware/sensors/cmw_vd66gy.c **** {
 368              		.loc 1 136 1 is_stmt 1 view -0
 369              		.cfi_startproc
 370              		@ args = 0, pretend = 0, frame = 8
 371              		@ frame_needed = 0, uses_anonymous_args = 0
 137:Lib/Camera_Middleware/sensors/cmw_vd66gy.c ****   CMW_VD66GY_t *p_ctx = container_of(ctx, CMW_VD66GY_t, ctx_driver);
 372              		.loc 1 137 3 view .LVU87
 138:Lib/Camera_Middleware/sensors/cmw_vd66gy.c **** 
 139:Lib/Camera_Middleware/sensors/cmw_vd66gy.c ****   return CMW_VD66GY_Write32(p_ctx, addr, value);
 373              		.loc 1 139 3 view .LVU88
 374              	.LBB30:
 375              	.LBB31:
  90:Lib/Camera_Middleware/sensors/cmw_vd66gy.c **** }
 376              		.loc 1 90 10 is_stmt 0 view .LVU89
 377 0000 0423     		movs	r3, #4
 378              	.LBE31:
 379              	.LBE30:
 136:Lib/Camera_Middleware/sensors/cmw_vd66gy.c ****   CMW_VD66GY_t *p_ctx = container_of(ctx, CMW_VD66GY_t, ctx_driver);
 380              		.loc 1 136 1 view .LVU90
 381 0002 13B5     		push	{r0, r1, r4, lr}
 382              		.cfi_def_cfa_offset 16
 383              		.cfi_offset 4, -8
 384              		.cfi_offset 14, -4
 385              	.LBB34:
 386              	.LBB32:
  90:Lib/Camera_Middleware/sensors/cmw_vd66gy.c **** }
 387              		.loc 1 90 10 view .LVU91
 388 0004 D0F82841 		ldr	r4, [r0, #296]
 389 0008 0192     		str	r2, [sp, #4]
 390              	.LVL30:
  90:Lib/Camera_Middleware/sensors/cmw_vd66gy.c **** }
 391              		.loc 1 90 10 view .LVU92
 392              	.LBE32:
 393              	.LBI30:
  88:Lib/Camera_Middleware/sensors/cmw_vd66gy.c **** {
 394              		.loc 1 88 12 is_stmt 1 view .LVU93
 395              	.LBB33:
  90:Lib/Camera_Middleware/sensors/cmw_vd66gy.c **** }
 396              		.loc 1 90 3 view .LVU94
  90:Lib/Camera_Middleware/sensors/cmw_vd66gy.c **** }
ARM GAS  C:\Users\DJESSOU\AppData\Local\Temp\ccSNWOEX.s 			page 11


 397              		.loc 1 90 10 is_stmt 0 view .LVU95
 398 000a 30F8040C 		ldrh	r0, [r0, #-4]
 399              	.LVL31:
  90:Lib/Camera_Middleware/sensors/cmw_vd66gy.c **** }
 400              		.loc 1 90 10 view .LVU96
 401 000e 0DEB0302 		add	r2, sp, r3
 402              	.LVL32:
  90:Lib/Camera_Middleware/sensors/cmw_vd66gy.c **** }
 403              		.loc 1 90 10 view .LVU97
 404 0012 A047     		blx	r4
 405              	.LVL33:
  90:Lib/Camera_Middleware/sensors/cmw_vd66gy.c **** }
 406              		.loc 1 90 10 view .LVU98
 407              	.LBE33:
 408              	.LBE34:
 140:Lib/Camera_Middleware/sensors/cmw_vd66gy.c **** }
 409              		.loc 1 140 1 view .LVU99
 410 0014 02B0     		add	sp, sp, #8
 411              		.cfi_def_cfa_offset 8
 412              		@ sp needed
 413 0016 10BD     		pop	{r4, pc}
 414              		.cfi_endproc
 415              	.LFE3425:
 417              		.section	.text.VD6G_WriteArray,"ax",%progbits
 418              		.align	1
 419              		.syntax unified
 420              		.thumb
 421              		.thumb_func
 423              	VD6G_WriteArray:
 424              	.LVL34:
 425              	.LFB3426:
 141:Lib/Camera_Middleware/sensors/cmw_vd66gy.c **** 
 142:Lib/Camera_Middleware/sensors/cmw_vd66gy.c **** static int VD6G_WriteArray(struct VD6G_Ctx *ctx, uint16_t addr, uint8_t *data, int data_len)
 143:Lib/Camera_Middleware/sensors/cmw_vd66gy.c **** {
 426              		.loc 1 143 1 is_stmt 1 view -0
 427              		.cfi_startproc
 428              		@ args = 0, pretend = 0, frame = 0
 429              		@ frame_needed = 0, uses_anonymous_args = 0
 430              		.loc 1 143 1 is_stmt 0 view .LVU101
 431 0000 2DE9F047 		push	{r4, r5, r6, r7, r8, r9, r10, lr}
 432              		.cfi_def_cfa_offset 32
 433              		.cfi_offset 4, -32
 434              		.cfi_offset 5, -28
 435              		.cfi_offset 6, -24
 436              		.cfi_offset 7, -20
 437              		.cfi_offset 8, -16
 438              		.cfi_offset 9, -12
 439              		.cfi_offset 10, -8
 440              		.cfi_offset 14, -4
 441 0004 8046     		mov	r8, r0
 442 0006 0D46     		mov	r5, r1
 443 0008 1646     		mov	r6, r2
 444 000a 1C46     		mov	r4, r3
 144:Lib/Camera_Middleware/sensors/cmw_vd66gy.c ****   CMW_VD66GY_t *p_ctx = container_of(ctx, CMW_VD66GY_t, ctx_driver);
 445              		.loc 1 144 3 is_stmt 1 view .LVU102
 446              	.LVL35:
 145:Lib/Camera_Middleware/sensors/cmw_vd66gy.c ****   const unsigned int chunk_size = 128;
ARM GAS  C:\Users\DJESSOU\AppData\Local\Temp\ccSNWOEX.s 			page 12


 447              		.loc 1 145 3 view .LVU103
 146:Lib/Camera_Middleware/sensors/cmw_vd66gy.c ****   uint16_t sz;
 448              		.loc 1 146 3 view .LVU104
 147:Lib/Camera_Middleware/sensors/cmw_vd66gy.c ****   int ret;
 449              		.loc 1 147 3 view .LVU105
 148:Lib/Camera_Middleware/sensors/cmw_vd66gy.c **** 
 149:Lib/Camera_Middleware/sensors/cmw_vd66gy.c ****   while (data_len) {
 450              		.loc 1 149 3 view .LVU106
 451              	.L12:
 452              		.loc 1 149 10 view .LVU107
 453 000c 14B9     		cbnz	r4, .L14
 150:Lib/Camera_Middleware/sensors/cmw_vd66gy.c ****     sz = MIN(data_len, chunk_size);
 151:Lib/Camera_Middleware/sensors/cmw_vd66gy.c ****     ret = p_ctx->WriteReg(p_ctx->Address, addr, data, sz);
 152:Lib/Camera_Middleware/sensors/cmw_vd66gy.c ****     if (ret)
 153:Lib/Camera_Middleware/sensors/cmw_vd66gy.c ****       return ret;
 154:Lib/Camera_Middleware/sensors/cmw_vd66gy.c ****     data_len -= sz;
 155:Lib/Camera_Middleware/sensors/cmw_vd66gy.c ****     addr += sz;
 156:Lib/Camera_Middleware/sensors/cmw_vd66gy.c ****     data += sz;
 157:Lib/Camera_Middleware/sensors/cmw_vd66gy.c ****   }
 158:Lib/Camera_Middleware/sensors/cmw_vd66gy.c **** 
 159:Lib/Camera_Middleware/sensors/cmw_vd66gy.c ****   return 0;
 454              		.loc 1 159 10 is_stmt 0 view .LVU108
 455 000e 2046     		mov	r0, r4
 456              	.L11:
 160:Lib/Camera_Middleware/sensors/cmw_vd66gy.c **** }
 457              		.loc 1 160 1 view .LVU109
 458 0010 BDE8F087 		pop	{r4, r5, r6, r7, r8, r9, r10, pc}
 459              	.LVL36:
 460              	.L14:
 150:Lib/Camera_Middleware/sensors/cmw_vd66gy.c ****     sz = MIN(data_len, chunk_size);
 461              		.loc 1 150 5 is_stmt 1 view .LVU110
 150:Lib/Camera_Middleware/sensors/cmw_vd66gy.c ****     sz = MIN(data_len, chunk_size);
 462              		.loc 1 150 10 is_stmt 0 view .LVU111
 463 0014 802C     		cmp	r4, #128
 464 0016 A146     		mov	r9, r4
 465 0018 28BF     		it	cs
 466 001a 4FF08009 		movcs	r9, #128
 150:Lib/Camera_Middleware/sensors/cmw_vd66gy.c ****     sz = MIN(data_len, chunk_size);
 467              		.loc 1 150 8 view .LVU112
 468 001e 1FFA89FA 		uxth	r10, r9
 469              	.LVL37:
 151:Lib/Camera_Middleware/sensors/cmw_vd66gy.c ****     if (ret)
 470              		.loc 1 151 5 is_stmt 1 view .LVU113
 151:Lib/Camera_Middleware/sensors/cmw_vd66gy.c ****     if (ret)
 471              		.loc 1 151 11 is_stmt 0 view .LVU114
 472 0022 5346     		mov	r3, r10
 473 0024 3246     		mov	r2, r6
 474 0026 2946     		mov	r1, r5
 475 0028 D8F82871 		ldr	r7, [r8, #296]
 476 002c 38F8040C 		ldrh	r0, [r8, #-4]
 477 0030 B847     		blx	r7
 478              	.LVL38:
 152:Lib/Camera_Middleware/sensors/cmw_vd66gy.c ****       return ret;
 479              		.loc 1 152 5 is_stmt 1 view .LVU115
 152:Lib/Camera_Middleware/sensors/cmw_vd66gy.c ****       return ret;
 480              		.loc 1 152 8 is_stmt 0 view .LVU116
 481 0032 0028     		cmp	r0, #0
ARM GAS  C:\Users\DJESSOU\AppData\Local\Temp\ccSNWOEX.s 			page 13


 482 0034 ECD1     		bne	.L11
 154:Lib/Camera_Middleware/sensors/cmw_vd66gy.c ****     addr += sz;
 483              		.loc 1 154 5 is_stmt 1 view .LVU117
 155:Lib/Camera_Middleware/sensors/cmw_vd66gy.c ****     data += sz;
 484              		.loc 1 155 10 is_stmt 0 view .LVU118
 485 0036 AA44     		add	r10, r10, r5
 486              	.LVL39:
 154:Lib/Camera_Middleware/sensors/cmw_vd66gy.c ****     addr += sz;
 487              		.loc 1 154 14 view .LVU119
 488 0038 A4EB0904 		sub	r4, r4, r9
 489              	.LVL40:
 155:Lib/Camera_Middleware/sensors/cmw_vd66gy.c ****     data += sz;
 490              		.loc 1 155 5 is_stmt 1 view .LVU120
 155:Lib/Camera_Middleware/sensors/cmw_vd66gy.c ****     data += sz;
 491              		.loc 1 155 10 is_stmt 0 view .LVU121
 492 003c 1FFA8AF5 		uxth	r5, r10
 493              	.LVL41:
 156:Lib/Camera_Middleware/sensors/cmw_vd66gy.c ****   }
 494              		.loc 1 156 5 is_stmt 1 view .LVU122
 156:Lib/Camera_Middleware/sensors/cmw_vd66gy.c ****   }
 495              		.loc 1 156 10 is_stmt 0 view .LVU123
 496 0040 4E44     		add	r6, r6, r9
 497              	.LVL42:
 156:Lib/Camera_Middleware/sensors/cmw_vd66gy.c ****   }
 498              		.loc 1 156 10 view .LVU124
 499 0042 E3E7     		b	.L12
 500              		.cfi_endproc
 501              	.LFE3426:
 503              		.section	.text.VD6G_Delay,"ax",%progbits
 504              		.align	1
 505              		.syntax unified
 506              		.thumb
 507              		.thumb_func
 509              	VD6G_Delay:
 510              	.LVL43:
 511              	.LFB3427:
 161:Lib/Camera_Middleware/sensors/cmw_vd66gy.c **** 
 162:Lib/Camera_Middleware/sensors/cmw_vd66gy.c **** static void VD6G_Delay(struct VD6G_Ctx *ctx, uint32_t delay_in_ms)
 163:Lib/Camera_Middleware/sensors/cmw_vd66gy.c **** {
 512              		.loc 1 163 1 is_stmt 1 view -0
 513              		.cfi_startproc
 514              		@ args = 0, pretend = 0, frame = 0
 515              		@ frame_needed = 0, uses_anonymous_args = 0
 516              		@ link register save eliminated.
 164:Lib/Camera_Middleware/sensors/cmw_vd66gy.c ****   CMW_VD66GY_t *p_ctx = container_of(ctx, CMW_VD66GY_t, ctx_driver);
 517              		.loc 1 164 3 view .LVU126
 165:Lib/Camera_Middleware/sensors/cmw_vd66gy.c **** 
 166:Lib/Camera_Middleware/sensors/cmw_vd66gy.c ****   p_ctx->Delay(delay_in_ms);
 518              		.loc 1 166 3 view .LVU127
 519 0000 D0F83431 		ldr	r3, [r0, #308]
 520 0004 0846     		mov	r0, r1
 521              	.LVL44:
 522              		.loc 1 166 3 is_stmt 0 view .LVU128
 523 0006 1847     		bx	r3	@ indirect register sibling call
 524              	.LVL45:
 525              		.loc 1 166 3 view .LVU129
 526              		.cfi_endproc
ARM GAS  C:\Users\DJESSOU\AppData\Local\Temp\ccSNWOEX.s 			page 14


 527              	.LFE3427:
 529              		.section	.text.VD6G_Log,"ax",%progbits
 530              		.align	1
 531              		.syntax unified
 532              		.thumb
 533              		.thumb_func
 535              	VD6G_Log:
 536              	.LVL46:
 537              	.LFB3428:
 167:Lib/Camera_Middleware/sensors/cmw_vd66gy.c **** }
 168:Lib/Camera_Middleware/sensors/cmw_vd66gy.c **** 
 169:Lib/Camera_Middleware/sensors/cmw_vd66gy.c **** static void VD6G_Log(struct VD6G_Ctx *ctx, int lvl, const char *format, va_list ap)
 170:Lib/Camera_Middleware/sensors/cmw_vd66gy.c **** {
 538              		.loc 1 170 1 is_stmt 1 view -0
 539              		.cfi_startproc
 540              		@ args = 0, pretend = 0, frame = 0
 541              		@ frame_needed = 0, uses_anonymous_args = 0
 542              		@ link register save eliminated.
 171:Lib/Camera_Middleware/sensors/cmw_vd66gy.c **** #if 0
 172:Lib/Camera_Middleware/sensors/cmw_vd66gy.c ****   const int current_lvl = VD6G_LVL_DBG(0);
 173:Lib/Camera_Middleware/sensors/cmw_vd66gy.c **** 
 174:Lib/Camera_Middleware/sensors/cmw_vd66gy.c ****   if (lvl > current_lvl)
 175:Lib/Camera_Middleware/sensors/cmw_vd66gy.c ****     return ;
 176:Lib/Camera_Middleware/sensors/cmw_vd66gy.c **** 
 177:Lib/Camera_Middleware/sensors/cmw_vd66gy.c ****   vprintf(format, ap);
 178:Lib/Camera_Middleware/sensors/cmw_vd66gy.c **** #endif
 179:Lib/Camera_Middleware/sensors/cmw_vd66gy.c **** }
 543              		.loc 1 179 1 view .LVU131
 544 0000 7047     		bx	lr
 545              		.cfi_endproc
 546              	.LFE3428:
 548              		.section	.text.CMW_VD66GY_FrameEventCallback,"ax",%progbits
 549              		.align	1
 550              		.syntax unified
 551              		.thumb
 552              		.thumb_func
 554              	CMW_VD66GY_FrameEventCallback:
 555              	.LVL47:
 556              	.LFB3444:
 180:Lib/Camera_Middleware/sensors/cmw_vd66gy.c **** 
 181:Lib/Camera_Middleware/sensors/cmw_vd66gy.c **** static int CMW_VD66GY_GetResType(uint32_t width, uint32_t height, VD6G_Res_t *res)
 182:Lib/Camera_Middleware/sensors/cmw_vd66gy.c **** {
 183:Lib/Camera_Middleware/sensors/cmw_vd66gy.c ****   if (width == 320 && height == 240)
 184:Lib/Camera_Middleware/sensors/cmw_vd66gy.c ****   {
 185:Lib/Camera_Middleware/sensors/cmw_vd66gy.c ****     *res = VD6G_RES_QVGA_320_240;
 186:Lib/Camera_Middleware/sensors/cmw_vd66gy.c ****   }
 187:Lib/Camera_Middleware/sensors/cmw_vd66gy.c ****   else if (width == 640 && height == 480)
 188:Lib/Camera_Middleware/sensors/cmw_vd66gy.c ****   {
 189:Lib/Camera_Middleware/sensors/cmw_vd66gy.c ****     *res = VD6G_RES_VGA_640_480;
 190:Lib/Camera_Middleware/sensors/cmw_vd66gy.c ****   }
 191:Lib/Camera_Middleware/sensors/cmw_vd66gy.c ****   else if (width == 1024 && height == 768)
 192:Lib/Camera_Middleware/sensors/cmw_vd66gy.c ****   {
 193:Lib/Camera_Middleware/sensors/cmw_vd66gy.c ****     *res = VD6G_RES_XGA_1024_768;
 194:Lib/Camera_Middleware/sensors/cmw_vd66gy.c ****   }
 195:Lib/Camera_Middleware/sensors/cmw_vd66gy.c ****   else if (width == 1120 && height == 720)
 196:Lib/Camera_Middleware/sensors/cmw_vd66gy.c ****   {
 197:Lib/Camera_Middleware/sensors/cmw_vd66gy.c ****     *res = VD6G_RES_PORTRAIT_1120_720;
ARM GAS  C:\Users\DJESSOU\AppData\Local\Temp\ccSNWOEX.s 			page 15


 198:Lib/Camera_Middleware/sensors/cmw_vd66gy.c ****   }
 199:Lib/Camera_Middleware/sensors/cmw_vd66gy.c ****   else if (width == 1120 && height == 1364)
 200:Lib/Camera_Middleware/sensors/cmw_vd66gy.c ****   {
 201:Lib/Camera_Middleware/sensors/cmw_vd66gy.c ****     *res = VD6G_RES_FULL_1120_1364;
 202:Lib/Camera_Middleware/sensors/cmw_vd66gy.c ****   }
 203:Lib/Camera_Middleware/sensors/cmw_vd66gy.c ****   else
 204:Lib/Camera_Middleware/sensors/cmw_vd66gy.c ****   {
 205:Lib/Camera_Middleware/sensors/cmw_vd66gy.c ****     return CMW_ERROR_WRONG_PARAM;
 206:Lib/Camera_Middleware/sensors/cmw_vd66gy.c ****   }
 207:Lib/Camera_Middleware/sensors/cmw_vd66gy.c ****   return 0;
 208:Lib/Camera_Middleware/sensors/cmw_vd66gy.c **** }
 209:Lib/Camera_Middleware/sensors/cmw_vd66gy.c **** 
 210:Lib/Camera_Middleware/sensors/cmw_vd66gy.c **** static VD6G_MirrorFlip_t CMW_VD66GY_getMirrorFlipConfig(uint32_t Config)
 211:Lib/Camera_Middleware/sensors/cmw_vd66gy.c **** {
 212:Lib/Camera_Middleware/sensors/cmw_vd66gy.c ****   VD6G_MirrorFlip_t ret;
 213:Lib/Camera_Middleware/sensors/cmw_vd66gy.c **** 
 214:Lib/Camera_Middleware/sensors/cmw_vd66gy.c ****   switch (Config)
 215:Lib/Camera_Middleware/sensors/cmw_vd66gy.c ****   {
 216:Lib/Camera_Middleware/sensors/cmw_vd66gy.c ****     case CMW_MIRRORFLIP_NONE:
 217:Lib/Camera_Middleware/sensors/cmw_vd66gy.c ****       ret = VD6G_MIRROR_FLIP_NONE;
 218:Lib/Camera_Middleware/sensors/cmw_vd66gy.c ****       break;
 219:Lib/Camera_Middleware/sensors/cmw_vd66gy.c ****     case CMW_MIRRORFLIP_FLIP:
 220:Lib/Camera_Middleware/sensors/cmw_vd66gy.c ****       ret = VD6G_FLIP;
 221:Lib/Camera_Middleware/sensors/cmw_vd66gy.c ****       break;
 222:Lib/Camera_Middleware/sensors/cmw_vd66gy.c ****     case CMW_MIRRORFLIP_MIRROR:
 223:Lib/Camera_Middleware/sensors/cmw_vd66gy.c ****       ret = VD6G_MIRROR;
 224:Lib/Camera_Middleware/sensors/cmw_vd66gy.c ****       break;
 225:Lib/Camera_Middleware/sensors/cmw_vd66gy.c ****     case CMW_MIRRORFLIP_FLIP_MIRROR:
 226:Lib/Camera_Middleware/sensors/cmw_vd66gy.c ****     default:
 227:Lib/Camera_Middleware/sensors/cmw_vd66gy.c ****       ret = VD6G_MIRROR_FLIP;
 228:Lib/Camera_Middleware/sensors/cmw_vd66gy.c ****       break;
 229:Lib/Camera_Middleware/sensors/cmw_vd66gy.c ****   }
 230:Lib/Camera_Middleware/sensors/cmw_vd66gy.c **** 
 231:Lib/Camera_Middleware/sensors/cmw_vd66gy.c ****   return ret;
 232:Lib/Camera_Middleware/sensors/cmw_vd66gy.c **** }
 233:Lib/Camera_Middleware/sensors/cmw_vd66gy.c **** 
 234:Lib/Camera_Middleware/sensors/cmw_vd66gy.c **** static int32_t CMW_VD66GY_Init(void *io_ctx, CMW_Sensor_Init_t *initSensor)
 235:Lib/Camera_Middleware/sensors/cmw_vd66gy.c **** {
 236:Lib/Camera_Middleware/sensors/cmw_vd66gy.c ****   VD6G_Config_t config = { 0 };
 237:Lib/Camera_Middleware/sensors/cmw_vd66gy.c ****   int ret;
 238:Lib/Camera_Middleware/sensors/cmw_vd66gy.c ****   int i;
 239:Lib/Camera_Middleware/sensors/cmw_vd66gy.c ****   CMW_VD66GY_config_t *sensor_config;
 240:Lib/Camera_Middleware/sensors/cmw_vd66gy.c ****   sensor_config = (CMW_VD66GY_config_t*)(initSensor->sensor_config);
 241:Lib/Camera_Middleware/sensors/cmw_vd66gy.c ****   if (sensor_config == NULL)
 242:Lib/Camera_Middleware/sensors/cmw_vd66gy.c ****   {
 243:Lib/Camera_Middleware/sensors/cmw_vd66gy.c ****     return CMW_ERROR_WRONG_PARAM;
 244:Lib/Camera_Middleware/sensors/cmw_vd66gy.c ****   }
 245:Lib/Camera_Middleware/sensors/cmw_vd66gy.c **** 
 246:Lib/Camera_Middleware/sensors/cmw_vd66gy.c ****   if (((CMW_VD66GY_t *)io_ctx)->IsInitialized)
 247:Lib/Camera_Middleware/sensors/cmw_vd66gy.c ****   {
 248:Lib/Camera_Middleware/sensors/cmw_vd66gy.c ****     return CMW_ERROR_NONE;
 249:Lib/Camera_Middleware/sensors/cmw_vd66gy.c ****   }
 250:Lib/Camera_Middleware/sensors/cmw_vd66gy.c **** 
 251:Lib/Camera_Middleware/sensors/cmw_vd66gy.c ****   config.frame_rate = initSensor->fps;
 252:Lib/Camera_Middleware/sensors/cmw_vd66gy.c ****   ret = CMW_VD66GY_GetResType(initSensor->width, initSensor->height, &config.resolution);
 253:Lib/Camera_Middleware/sensors/cmw_vd66gy.c ****   if (ret)
 254:Lib/Camera_Middleware/sensors/cmw_vd66gy.c ****   {
ARM GAS  C:\Users\DJESSOU\AppData\Local\Temp\ccSNWOEX.s 			page 16


 255:Lib/Camera_Middleware/sensors/cmw_vd66gy.c ****     return CMW_ERROR_WRONG_PARAM;
 256:Lib/Camera_Middleware/sensors/cmw_vd66gy.c ****   }
 257:Lib/Camera_Middleware/sensors/cmw_vd66gy.c **** 
 258:Lib/Camera_Middleware/sensors/cmw_vd66gy.c ****   config.ext_clock_freq_in_hz = CAMERA_VD66GY_FREQ_IN_HZ; /* Default clock frequency */
 259:Lib/Camera_Middleware/sensors/cmw_vd66gy.c ****   config.line_len = sensor_config->line_len;
 260:Lib/Camera_Middleware/sensors/cmw_vd66gy.c ****   config.out_itf.datalane_nb = 2;
 261:Lib/Camera_Middleware/sensors/cmw_vd66gy.c ****   config.out_itf.clock_lane_swap_enable = 1;
 262:Lib/Camera_Middleware/sensors/cmw_vd66gy.c ****   config.out_itf.data_lane0_swap_enable = 1;
 263:Lib/Camera_Middleware/sensors/cmw_vd66gy.c ****   config.out_itf.data_lane1_swap_enable = 1;
 264:Lib/Camera_Middleware/sensors/cmw_vd66gy.c ****   config.out_itf.data_lanes_mapping_swap_enable = 0;
 265:Lib/Camera_Middleware/sensors/cmw_vd66gy.c **** 
 266:Lib/Camera_Middleware/sensors/cmw_vd66gy.c ****   config.flip_mirror_mode = CMW_VD66GY_getMirrorFlipConfig(initSensor->mirrorFlip);
 267:Lib/Camera_Middleware/sensors/cmw_vd66gy.c ****   config.patgen = VD6G_PATGEN_DISABLE;
 268:Lib/Camera_Middleware/sensors/cmw_vd66gy.c ****   config.flicker = VD6G_FLICKER_FREE_NONE;
 269:Lib/Camera_Middleware/sensors/cmw_vd66gy.c **** 
 270:Lib/Camera_Middleware/sensors/cmw_vd66gy.c ****   for (i = 0; i < VD6G_GPIO_NB; i++)
 271:Lib/Camera_Middleware/sensors/cmw_vd66gy.c ****   {
 272:Lib/Camera_Middleware/sensors/cmw_vd66gy.c ****     config.gpio_ctrl[i] = VD6G_GPIO_GPIO_IN;
 273:Lib/Camera_Middleware/sensors/cmw_vd66gy.c ****   }
 274:Lib/Camera_Middleware/sensors/cmw_vd66gy.c **** 
 275:Lib/Camera_Middleware/sensors/cmw_vd66gy.c ****   ret = VD6G_Init(&((CMW_VD66GY_t *)io_ctx)->ctx_driver, &config);
 276:Lib/Camera_Middleware/sensors/cmw_vd66gy.c ****   if (ret)
 277:Lib/Camera_Middleware/sensors/cmw_vd66gy.c ****   {
 278:Lib/Camera_Middleware/sensors/cmw_vd66gy.c ****     return CMW_ERROR_PERIPH_FAILURE;
 279:Lib/Camera_Middleware/sensors/cmw_vd66gy.c ****   }
 280:Lib/Camera_Middleware/sensors/cmw_vd66gy.c **** 
 281:Lib/Camera_Middleware/sensors/cmw_vd66gy.c ****   if (((CMW_VD66GY_t *)io_ctx)->ctx_driver.bayer == VD6G_BAYER_NONE)
 282:Lib/Camera_Middleware/sensors/cmw_vd66gy.c ****   {
 283:Lib/Camera_Middleware/sensors/cmw_vd66gy.c ****     VD6G_DeInit(&((CMW_VD66GY_t *)io_ctx)->ctx_driver);
 284:Lib/Camera_Middleware/sensors/cmw_vd66gy.c ****     return CMW_ERROR_PERIPH_FAILURE;
 285:Lib/Camera_Middleware/sensors/cmw_vd66gy.c ****   }
 286:Lib/Camera_Middleware/sensors/cmw_vd66gy.c **** 
 287:Lib/Camera_Middleware/sensors/cmw_vd66gy.c ****   ((CMW_VD66GY_t *)io_ctx)->IsInitialized = 1;
 288:Lib/Camera_Middleware/sensors/cmw_vd66gy.c ****   return CMW_ERROR_NONE;
 289:Lib/Camera_Middleware/sensors/cmw_vd66gy.c **** }
 290:Lib/Camera_Middleware/sensors/cmw_vd66gy.c **** 
 291:Lib/Camera_Middleware/sensors/cmw_vd66gy.c **** void CMW_VD66GY_SetDefaultSensorValues(CMW_VD66GY_config_t *vd66gy_config)
 292:Lib/Camera_Middleware/sensors/cmw_vd66gy.c **** {
 293:Lib/Camera_Middleware/sensors/cmw_vd66gy.c ****   assert(vd66gy_config != NULL);
 294:Lib/Camera_Middleware/sensors/cmw_vd66gy.c ****   vd66gy_config->line_len = 0;
 295:Lib/Camera_Middleware/sensors/cmw_vd66gy.c ****   vd66gy_config->pixel_format = CMW_PIXEL_FORMAT_RAW8;
 296:Lib/Camera_Middleware/sensors/cmw_vd66gy.c **** }
 297:Lib/Camera_Middleware/sensors/cmw_vd66gy.c **** 
 298:Lib/Camera_Middleware/sensors/cmw_vd66gy.c **** static int32_t CMW_VD66GY_Start(void *io_ctx)
 299:Lib/Camera_Middleware/sensors/cmw_vd66gy.c **** {
 300:Lib/Camera_Middleware/sensors/cmw_vd66gy.c ****   int ret = CMW_ERROR_NONE;
 301:Lib/Camera_Middleware/sensors/cmw_vd66gy.c **** 
 302:Lib/Camera_Middleware/sensors/cmw_vd66gy.c **** #ifndef ISP_MW_TUNING_TOOL_SUPPORT
 303:Lib/Camera_Middleware/sensors/cmw_vd66gy.c ****   /* Statistic area is provided with null value so that it force the ISP Library to get the statist
 304:Lib/Camera_Middleware/sensors/cmw_vd66gy.c ****    * area information from the tuning file.
 305:Lib/Camera_Middleware/sensors/cmw_vd66gy.c ****    */
 306:Lib/Camera_Middleware/sensors/cmw_vd66gy.c ****   (void) ISP_IQParamCacheInit; /* unused */
 307:Lib/Camera_Middleware/sensors/cmw_vd66gy.c ****   ret = ISP_Init(&((CMW_VD66GY_t *)io_ctx)->hIsp, ((CMW_VD66GY_t *)io_ctx)->hdcmipp, 0, &((CMW_VD66
 308:Lib/Camera_Middleware/sensors/cmw_vd66gy.c ****   if (ret != ISP_OK)
 309:Lib/Camera_Middleware/sensors/cmw_vd66gy.c ****   {
 310:Lib/Camera_Middleware/sensors/cmw_vd66gy.c ****     return CMW_ERROR_COMPONENT_FAILURE;
 311:Lib/Camera_Middleware/sensors/cmw_vd66gy.c ****   }
ARM GAS  C:\Users\DJESSOU\AppData\Local\Temp\ccSNWOEX.s 			page 17


 312:Lib/Camera_Middleware/sensors/cmw_vd66gy.c **** 
 313:Lib/Camera_Middleware/sensors/cmw_vd66gy.c ****   ret = ISP_Start(&((CMW_VD66GY_t *)io_ctx)->hIsp);
 314:Lib/Camera_Middleware/sensors/cmw_vd66gy.c ****   if (ret != ISP_OK)
 315:Lib/Camera_Middleware/sensors/cmw_vd66gy.c ****   {
 316:Lib/Camera_Middleware/sensors/cmw_vd66gy.c ****       return CMW_ERROR_PERIPH_FAILURE;
 317:Lib/Camera_Middleware/sensors/cmw_vd66gy.c ****   }
 318:Lib/Camera_Middleware/sensors/cmw_vd66gy.c **** #endif
 319:Lib/Camera_Middleware/sensors/cmw_vd66gy.c ****   ret = VD6G_Start(&((CMW_VD66GY_t *)io_ctx)->ctx_driver);
 320:Lib/Camera_Middleware/sensors/cmw_vd66gy.c ****   if (ret) {
 321:Lib/Camera_Middleware/sensors/cmw_vd66gy.c ****     VD6G_DeInit(&((CMW_VD66GY_t *)io_ctx)->ctx_driver);
 322:Lib/Camera_Middleware/sensors/cmw_vd66gy.c ****     return CMW_ERROR_PERIPH_FAILURE;
 323:Lib/Camera_Middleware/sensors/cmw_vd66gy.c ****   }
 324:Lib/Camera_Middleware/sensors/cmw_vd66gy.c ****   return CMW_ERROR_NONE;
 325:Lib/Camera_Middleware/sensors/cmw_vd66gy.c **** }
 326:Lib/Camera_Middleware/sensors/cmw_vd66gy.c **** 
 327:Lib/Camera_Middleware/sensors/cmw_vd66gy.c **** static int32_t CMW_VD66GY_Run(void *io_ctx)
 328:Lib/Camera_Middleware/sensors/cmw_vd66gy.c **** {
 329:Lib/Camera_Middleware/sensors/cmw_vd66gy.c **** #ifndef ISP_MW_TUNING_TOOL_SUPPORT
 330:Lib/Camera_Middleware/sensors/cmw_vd66gy.c ****   int ret;
 331:Lib/Camera_Middleware/sensors/cmw_vd66gy.c ****   ret = ISP_BackgroundProcess(&((CMW_VD66GY_t *)io_ctx)->hIsp);
 332:Lib/Camera_Middleware/sensors/cmw_vd66gy.c ****   if (ret != ISP_OK)
 333:Lib/Camera_Middleware/sensors/cmw_vd66gy.c ****   {
 334:Lib/Camera_Middleware/sensors/cmw_vd66gy.c ****       return CMW_ERROR_PERIPH_FAILURE;
 335:Lib/Camera_Middleware/sensors/cmw_vd66gy.c ****   }
 336:Lib/Camera_Middleware/sensors/cmw_vd66gy.c **** #endif
 337:Lib/Camera_Middleware/sensors/cmw_vd66gy.c ****   return CMW_ERROR_NONE;
 338:Lib/Camera_Middleware/sensors/cmw_vd66gy.c **** }
 339:Lib/Camera_Middleware/sensors/cmw_vd66gy.c **** 
 340:Lib/Camera_Middleware/sensors/cmw_vd66gy.c **** static int32_t CMW_VD66GY_Stop(void *io_ctx)
 341:Lib/Camera_Middleware/sensors/cmw_vd66gy.c **** {
 342:Lib/Camera_Middleware/sensors/cmw_vd66gy.c ****   int ret = CMW_ERROR_NONE;
 343:Lib/Camera_Middleware/sensors/cmw_vd66gy.c **** 
 344:Lib/Camera_Middleware/sensors/cmw_vd66gy.c ****   ret = VD6G_Stop(&((CMW_VD66GY_t *)io_ctx)->ctx_driver);
 345:Lib/Camera_Middleware/sensors/cmw_vd66gy.c ****   if (ret)
 346:Lib/Camera_Middleware/sensors/cmw_vd66gy.c ****   {
 347:Lib/Camera_Middleware/sensors/cmw_vd66gy.c ****     return CMW_ERROR_PERIPH_FAILURE;
 348:Lib/Camera_Middleware/sensors/cmw_vd66gy.c ****   }
 349:Lib/Camera_Middleware/sensors/cmw_vd66gy.c ****   return CMW_ERROR_NONE;
 350:Lib/Camera_Middleware/sensors/cmw_vd66gy.c **** }
 351:Lib/Camera_Middleware/sensors/cmw_vd66gy.c **** 
 352:Lib/Camera_Middleware/sensors/cmw_vd66gy.c **** static int32_t CMW_VD66GY_DeInit(void *io_ctx)
 353:Lib/Camera_Middleware/sensors/cmw_vd66gy.c **** {
 354:Lib/Camera_Middleware/sensors/cmw_vd66gy.c ****   int ret = CMW_ERROR_NONE;
 355:Lib/Camera_Middleware/sensors/cmw_vd66gy.c **** 
 356:Lib/Camera_Middleware/sensors/cmw_vd66gy.c ****   ret = VD6G_Stop(&((CMW_VD66GY_t *)io_ctx)->ctx_driver);
 357:Lib/Camera_Middleware/sensors/cmw_vd66gy.c ****   if (ret)
 358:Lib/Camera_Middleware/sensors/cmw_vd66gy.c ****   {
 359:Lib/Camera_Middleware/sensors/cmw_vd66gy.c ****     return CMW_ERROR_PERIPH_FAILURE;
 360:Lib/Camera_Middleware/sensors/cmw_vd66gy.c ****   }
 361:Lib/Camera_Middleware/sensors/cmw_vd66gy.c **** 
 362:Lib/Camera_Middleware/sensors/cmw_vd66gy.c ****   ret = VD6G_DeInit(&((CMW_VD66GY_t *)io_ctx)->ctx_driver);
 363:Lib/Camera_Middleware/sensors/cmw_vd66gy.c ****   if (ret)
 364:Lib/Camera_Middleware/sensors/cmw_vd66gy.c ****   {
 365:Lib/Camera_Middleware/sensors/cmw_vd66gy.c ****     return CMW_ERROR_PERIPH_FAILURE;
 366:Lib/Camera_Middleware/sensors/cmw_vd66gy.c ****   }
 367:Lib/Camera_Middleware/sensors/cmw_vd66gy.c **** 
 368:Lib/Camera_Middleware/sensors/cmw_vd66gy.c ****   ((CMW_VD66GY_t *)io_ctx)->IsInitialized = 0;
ARM GAS  C:\Users\DJESSOU\AppData\Local\Temp\ccSNWOEX.s 			page 18


 369:Lib/Camera_Middleware/sensors/cmw_vd66gy.c ****   return CMW_ERROR_NONE;
 370:Lib/Camera_Middleware/sensors/cmw_vd66gy.c **** }
 371:Lib/Camera_Middleware/sensors/cmw_vd66gy.c **** 
 372:Lib/Camera_Middleware/sensors/cmw_vd66gy.c **** /**
 373:Lib/Camera_Middleware/sensors/cmw_vd66gy.c ****   * @brief  Set the gain
 374:Lib/Camera_Middleware/sensors/cmw_vd66gy.c ****   * @param  pObj  pointer to component object
 375:Lib/Camera_Middleware/sensors/cmw_vd66gy.c ****   * @param  Gain Gain in mdB
 376:Lib/Camera_Middleware/sensors/cmw_vd66gy.c ****   * @retval Component status
 377:Lib/Camera_Middleware/sensors/cmw_vd66gy.c ****   */
 378:Lib/Camera_Middleware/sensors/cmw_vd66gy.c **** int32_t CMW_VD66GY_SetGain(void *io_ctx, int32_t gain)
 379:Lib/Camera_Middleware/sensors/cmw_vd66gy.c **** {
 380:Lib/Camera_Middleware/sensors/cmw_vd66gy.c ****   int32_t ret;
 381:Lib/Camera_Middleware/sensors/cmw_vd66gy.c ****   uint8_t again_regmin, again_regmax;
 382:Lib/Camera_Middleware/sensors/cmw_vd66gy.c ****   uint16_t dgain_regmin, dgain_regmax;
 383:Lib/Camera_Middleware/sensors/cmw_vd66gy.c ****   uint32_t again_min_mdB, again_max_mdB;
 384:Lib/Camera_Middleware/sensors/cmw_vd66gy.c ****   uint32_t dgain_min_mdB, dgain_max_mdB;
 385:Lib/Camera_Middleware/sensors/cmw_vd66gy.c ****   double analog_linear_gain, digital_linear_gain;
 386:Lib/Camera_Middleware/sensors/cmw_vd66gy.c **** 
 387:Lib/Camera_Middleware/sensors/cmw_vd66gy.c ****   ret = VD6G_GetAnalogGainRegRange(&((CMW_VD66GY_t *)io_ctx)->ctx_driver, &again_regmin, &again_reg
 388:Lib/Camera_Middleware/sensors/cmw_vd66gy.c ****   if (ret)
 389:Lib/Camera_Middleware/sensors/cmw_vd66gy.c ****     return ret;
 390:Lib/Camera_Middleware/sensors/cmw_vd66gy.c **** 
 391:Lib/Camera_Middleware/sensors/cmw_vd66gy.c ****   ret = VD6G_GetDigitalGainRegRange(&((CMW_VD66GY_t *)io_ctx)->ctx_driver, &dgain_regmin, &dgain_re
 392:Lib/Camera_Middleware/sensors/cmw_vd66gy.c ****   if (ret)
 393:Lib/Camera_Middleware/sensors/cmw_vd66gy.c ****     return ret;
 394:Lib/Camera_Middleware/sensors/cmw_vd66gy.c **** 
 395:Lib/Camera_Middleware/sensors/cmw_vd66gy.c ****   again_min_mdB = (uint32_t) LINEAR_TO_MDECIBEL(32 / (32 - again_regmin));
 396:Lib/Camera_Middleware/sensors/cmw_vd66gy.c ****   again_max_mdB = (uint32_t) LINEAR_TO_MDECIBEL(32 / (32 - again_regmax));
 397:Lib/Camera_Middleware/sensors/cmw_vd66gy.c ****   dgain_min_mdB = (uint32_t) LINEAR_TO_MDECIBEL(FP58_TO_FLOAT(dgain_regmin));
 398:Lib/Camera_Middleware/sensors/cmw_vd66gy.c ****   dgain_max_mdB = (uint32_t) LINEAR_TO_MDECIBEL(FP58_TO_FLOAT(dgain_regmax));
 399:Lib/Camera_Middleware/sensors/cmw_vd66gy.c **** 
 400:Lib/Camera_Middleware/sensors/cmw_vd66gy.c ****   if ((gain < dgain_min_mdB + again_min_mdB)
 401:Lib/Camera_Middleware/sensors/cmw_vd66gy.c ****       || (gain > dgain_max_mdB + again_max_mdB))
 402:Lib/Camera_Middleware/sensors/cmw_vd66gy.c ****     return -1;
 403:Lib/Camera_Middleware/sensors/cmw_vd66gy.c **** 
 404:Lib/Camera_Middleware/sensors/cmw_vd66gy.c ****   if (gain <= again_max_mdB)
 405:Lib/Camera_Middleware/sensors/cmw_vd66gy.c ****   {
 406:Lib/Camera_Middleware/sensors/cmw_vd66gy.c ****     /* Use analog gain only and set digital gain to its minimum */
 407:Lib/Camera_Middleware/sensors/cmw_vd66gy.c ****     analog_linear_gain = MDECIBEL_TO_LINEAR((double)(gain - dgain_min_mdB));
 408:Lib/Camera_Middleware/sensors/cmw_vd66gy.c ****     digital_linear_gain = MDECIBEL_TO_LINEAR((double)dgain_min_mdB);
 409:Lib/Camera_Middleware/sensors/cmw_vd66gy.c ****   }
 410:Lib/Camera_Middleware/sensors/cmw_vd66gy.c ****   else
 411:Lib/Camera_Middleware/sensors/cmw_vd66gy.c ****   {
 412:Lib/Camera_Middleware/sensors/cmw_vd66gy.c ****     /* For higher gain values, add digital gain */
 413:Lib/Camera_Middleware/sensors/cmw_vd66gy.c ****     analog_linear_gain = MDECIBEL_TO_LINEAR((double)again_max_mdB);
 414:Lib/Camera_Middleware/sensors/cmw_vd66gy.c ****     digital_linear_gain = MDECIBEL_TO_LINEAR((double)(gain - again_max_mdB));
 415:Lib/Camera_Middleware/sensors/cmw_vd66gy.c ****   }
 416:Lib/Camera_Middleware/sensors/cmw_vd66gy.c **** 
 417:Lib/Camera_Middleware/sensors/cmw_vd66gy.c ****   ret = VD6G_SetAnalogGain(&((CMW_VD66GY_t *)io_ctx)->ctx_driver, (int) (32 - (32 / analog_linear_g
 418:Lib/Camera_Middleware/sensors/cmw_vd66gy.c ****   if (ret)
 419:Lib/Camera_Middleware/sensors/cmw_vd66gy.c ****     return ret;
 420:Lib/Camera_Middleware/sensors/cmw_vd66gy.c **** 
 421:Lib/Camera_Middleware/sensors/cmw_vd66gy.c ****   ret = VD6G_SetDigitalGain(&((CMW_VD66GY_t *)io_ctx)->ctx_driver, FLOAT_TO_FP58(digital_linear_gai
 422:Lib/Camera_Middleware/sensors/cmw_vd66gy.c ****   if (ret)
 423:Lib/Camera_Middleware/sensors/cmw_vd66gy.c ****     return ret;
 424:Lib/Camera_Middleware/sensors/cmw_vd66gy.c **** 
 425:Lib/Camera_Middleware/sensors/cmw_vd66gy.c ****   return 0;
ARM GAS  C:\Users\DJESSOU\AppData\Local\Temp\ccSNWOEX.s 			page 19


 426:Lib/Camera_Middleware/sensors/cmw_vd66gy.c **** }
 427:Lib/Camera_Middleware/sensors/cmw_vd66gy.c **** 
 428:Lib/Camera_Middleware/sensors/cmw_vd66gy.c **** /**
 429:Lib/Camera_Middleware/sensors/cmw_vd66gy.c ****   * @brief  Set the exposure
 430:Lib/Camera_Middleware/sensors/cmw_vd66gy.c ****   * @param  pObj  pointer to component object
 431:Lib/Camera_Middleware/sensors/cmw_vd66gy.c ****   * @param  Exposure Exposure in micro seconds
 432:Lib/Camera_Middleware/sensors/cmw_vd66gy.c ****   * @retval Component status
 433:Lib/Camera_Middleware/sensors/cmw_vd66gy.c ****   */
 434:Lib/Camera_Middleware/sensors/cmw_vd66gy.c **** int32_t CMW_VD66GY_SetExposure(void *io_ctx, int32_t exposure)
 435:Lib/Camera_Middleware/sensors/cmw_vd66gy.c **** {
 436:Lib/Camera_Middleware/sensors/cmw_vd66gy.c ****   return VD6G_SetExposureTime(&((CMW_VD66GY_t *)io_ctx)->ctx_driver, exposure);
 437:Lib/Camera_Middleware/sensors/cmw_vd66gy.c **** }
 438:Lib/Camera_Middleware/sensors/cmw_vd66gy.c **** 
 439:Lib/Camera_Middleware/sensors/cmw_vd66gy.c **** /**
 440:Lib/Camera_Middleware/sensors/cmw_vd66gy.c ****   * @brief  Set the exposure mode
 441:Lib/Camera_Middleware/sensors/cmw_vd66gy.c ****   * @param  pObj  pointer to component object
 442:Lib/Camera_Middleware/sensors/cmw_vd66gy.c ****   * @param  Exposure Exposure mode
 443:Lib/Camera_Middleware/sensors/cmw_vd66gy.c ****   * @retval Component status
 444:Lib/Camera_Middleware/sensors/cmw_vd66gy.c ****   */
 445:Lib/Camera_Middleware/sensors/cmw_vd66gy.c **** int32_t CMW_VD66GY_SetExposureMode(void *io_ctx, int32_t mode)
 446:Lib/Camera_Middleware/sensors/cmw_vd66gy.c **** {
 447:Lib/Camera_Middleware/sensors/cmw_vd66gy.c ****   int ret = -1;
 448:Lib/Camera_Middleware/sensors/cmw_vd66gy.c **** 
 449:Lib/Camera_Middleware/sensors/cmw_vd66gy.c ****   switch (mode)
 450:Lib/Camera_Middleware/sensors/cmw_vd66gy.c ****   {
 451:Lib/Camera_Middleware/sensors/cmw_vd66gy.c ****     case CMW_EXPOSUREMODE_MANUAL:
 452:Lib/Camera_Middleware/sensors/cmw_vd66gy.c ****       ret = VD6G_SetExposureMode(&((CMW_VD66GY_t *)io_ctx)->ctx_driver, VD6G_EXPOSURE_MANUAL);
 453:Lib/Camera_Middleware/sensors/cmw_vd66gy.c ****       break;
 454:Lib/Camera_Middleware/sensors/cmw_vd66gy.c ****     case CMW_EXPOSUREMODE_AUTOFREEZE:
 455:Lib/Camera_Middleware/sensors/cmw_vd66gy.c ****       ret = VD6G_SetExposureMode(&((CMW_VD66GY_t *)io_ctx)->ctx_driver, VD6G_EXPOSURE_FREEZE_AEALGO
 456:Lib/Camera_Middleware/sensors/cmw_vd66gy.c ****       break;
 457:Lib/Camera_Middleware/sensors/cmw_vd66gy.c ****     case CMW_EXPOSUREMODE_AUTO:
 458:Lib/Camera_Middleware/sensors/cmw_vd66gy.c ****     default:
 459:Lib/Camera_Middleware/sensors/cmw_vd66gy.c ****       ret = VD6G_SetExposureMode(&((CMW_VD66GY_t *)io_ctx)->ctx_driver, VD6G_EXPOSURE_AUTO);
 460:Lib/Camera_Middleware/sensors/cmw_vd66gy.c ****       break;
 461:Lib/Camera_Middleware/sensors/cmw_vd66gy.c ****   }
 462:Lib/Camera_Middleware/sensors/cmw_vd66gy.c **** 
 463:Lib/Camera_Middleware/sensors/cmw_vd66gy.c ****   return (ret == 0) ? CMW_ERROR_NONE : CMW_ERROR_UNKNOWN_FAILURE;
 464:Lib/Camera_Middleware/sensors/cmw_vd66gy.c **** }
 465:Lib/Camera_Middleware/sensors/cmw_vd66gy.c **** 
 466:Lib/Camera_Middleware/sensors/cmw_vd66gy.c **** /**
 467:Lib/Camera_Middleware/sensors/cmw_vd66gy.c ****   * @brief  Set the sensor white balance mode
 468:Lib/Camera_Middleware/sensors/cmw_vd66gy.c ****   * @param  io_ctx  pointer to component object
 469:Lib/Camera_Middleware/sensors/cmw_vd66gy.c ****   * @param  Automatic automatic mode enable/disable
 470:Lib/Camera_Middleware/sensors/cmw_vd66gy.c ****   * @param  RefColorTemp color temperature if automatic mode is disabled
 471:Lib/Camera_Middleware/sensors/cmw_vd66gy.c ****   * @retval Component status
 472:Lib/Camera_Middleware/sensors/cmw_vd66gy.c ****   */
 473:Lib/Camera_Middleware/sensors/cmw_vd66gy.c **** int32_t CMW_VD66GY_SetWBRefMode(void *io_ctx, uint8_t Automatic, uint32_t RefColorTemp)
 474:Lib/Camera_Middleware/sensors/cmw_vd66gy.c **** {
 475:Lib/Camera_Middleware/sensors/cmw_vd66gy.c ****   int ret = CMW_ERROR_NONE;
 476:Lib/Camera_Middleware/sensors/cmw_vd66gy.c **** 
 477:Lib/Camera_Middleware/sensors/cmw_vd66gy.c ****   ret = ISP_SetWBRefMode(&((CMW_VD66GY_t *)io_ctx)->hIsp, Automatic, RefColorTemp);
 478:Lib/Camera_Middleware/sensors/cmw_vd66gy.c ****   if (ret)
 479:Lib/Camera_Middleware/sensors/cmw_vd66gy.c ****   {
 480:Lib/Camera_Middleware/sensors/cmw_vd66gy.c ****     return CMW_ERROR_PERIPH_FAILURE;
 481:Lib/Camera_Middleware/sensors/cmw_vd66gy.c ****   }
 482:Lib/Camera_Middleware/sensors/cmw_vd66gy.c **** 
ARM GAS  C:\Users\DJESSOU\AppData\Local\Temp\ccSNWOEX.s 			page 20


 483:Lib/Camera_Middleware/sensors/cmw_vd66gy.c ****   return CMW_ERROR_NONE;
 484:Lib/Camera_Middleware/sensors/cmw_vd66gy.c **** }
 485:Lib/Camera_Middleware/sensors/cmw_vd66gy.c **** 
 486:Lib/Camera_Middleware/sensors/cmw_vd66gy.c **** /**
 487:Lib/Camera_Middleware/sensors/cmw_vd66gy.c ****   * @brief  List the sensor white balance modes
 488:Lib/Camera_Middleware/sensors/cmw_vd66gy.c ****   * @param  io_ctx  pointer to component object
 489:Lib/Camera_Middleware/sensors/cmw_vd66gy.c ****   * @param  RefColorTemp color temperature list
 490:Lib/Camera_Middleware/sensors/cmw_vd66gy.c ****   * @retval Component status
 491:Lib/Camera_Middleware/sensors/cmw_vd66gy.c ****   */
 492:Lib/Camera_Middleware/sensors/cmw_vd66gy.c **** int32_t CMW_VD66GY_ListWBRefModes(void *io_ctx, uint32_t RefColorTemp[])
 493:Lib/Camera_Middleware/sensors/cmw_vd66gy.c **** {
 494:Lib/Camera_Middleware/sensors/cmw_vd66gy.c ****   int ret = CMW_ERROR_NONE;
 495:Lib/Camera_Middleware/sensors/cmw_vd66gy.c **** 
 496:Lib/Camera_Middleware/sensors/cmw_vd66gy.c ****   ret = ISP_ListWBRefModes(&((CMW_VD66GY_t *)io_ctx)->hIsp, RefColorTemp);
 497:Lib/Camera_Middleware/sensors/cmw_vd66gy.c ****   if (ret)
 498:Lib/Camera_Middleware/sensors/cmw_vd66gy.c ****   {
 499:Lib/Camera_Middleware/sensors/cmw_vd66gy.c ****     return CMW_ERROR_PERIPH_FAILURE;
 500:Lib/Camera_Middleware/sensors/cmw_vd66gy.c ****   }
 501:Lib/Camera_Middleware/sensors/cmw_vd66gy.c **** 
 502:Lib/Camera_Middleware/sensors/cmw_vd66gy.c ****   return CMW_ERROR_NONE;
 503:Lib/Camera_Middleware/sensors/cmw_vd66gy.c **** }
 504:Lib/Camera_Middleware/sensors/cmw_vd66gy.c **** 
 505:Lib/Camera_Middleware/sensors/cmw_vd66gy.c **** /**
 506:Lib/Camera_Middleware/sensors/cmw_vd66gy.c ****   * @brief  Get the sensor info
 507:Lib/Camera_Middleware/sensors/cmw_vd66gy.c ****   * @param  pObj  pointer to component object
 508:Lib/Camera_Middleware/sensors/cmw_vd66gy.c ****   * @param  pInfo pointer to sensor info structure
 509:Lib/Camera_Middleware/sensors/cmw_vd66gy.c ****   * @retval Component status
 510:Lib/Camera_Middleware/sensors/cmw_vd66gy.c ****   */
 511:Lib/Camera_Middleware/sensors/cmw_vd66gy.c **** int32_t CMW_VD66GY_GetSensorInfo(void *io_ctx, ISP_SensorInfoTypeDef *info)
 512:Lib/Camera_Middleware/sensors/cmw_vd66gy.c **** {
 513:Lib/Camera_Middleware/sensors/cmw_vd66gy.c ****   uint8_t again_regmin, again_regmax;
 514:Lib/Camera_Middleware/sensors/cmw_vd66gy.c ****   uint16_t dgain_regmin, dgain_regmax;
 515:Lib/Camera_Middleware/sensors/cmw_vd66gy.c ****   uint32_t again_min_mdB, again_max_mdB;
 516:Lib/Camera_Middleware/sensors/cmw_vd66gy.c ****   uint32_t dgain_min_mdB, dgain_max_mdB;
 517:Lib/Camera_Middleware/sensors/cmw_vd66gy.c **** 
 518:Lib/Camera_Middleware/sensors/cmw_vd66gy.c ****   int ret;
 519:Lib/Camera_Middleware/sensors/cmw_vd66gy.c **** 
 520:Lib/Camera_Middleware/sensors/cmw_vd66gy.c ****   if ((!io_ctx) || (info == NULL))
 521:Lib/Camera_Middleware/sensors/cmw_vd66gy.c ****     return CMW_ERROR_WRONG_PARAM;
 522:Lib/Camera_Middleware/sensors/cmw_vd66gy.c **** 
 523:Lib/Camera_Middleware/sensors/cmw_vd66gy.c ****   /* Get sensor name */
 524:Lib/Camera_Middleware/sensors/cmw_vd66gy.c ****   if (sizeof(info->name) >= strlen(VD66GY_NAME) + 1)
 525:Lib/Camera_Middleware/sensors/cmw_vd66gy.c ****   {
 526:Lib/Camera_Middleware/sensors/cmw_vd66gy.c ****     strcpy(info->name, VD66GY_NAME);
 527:Lib/Camera_Middleware/sensors/cmw_vd66gy.c ****   }
 528:Lib/Camera_Middleware/sensors/cmw_vd66gy.c ****   else
 529:Lib/Camera_Middleware/sensors/cmw_vd66gy.c ****   {
 530:Lib/Camera_Middleware/sensors/cmw_vd66gy.c ****     return CMW_ERROR_WRONG_PARAM;
 531:Lib/Camera_Middleware/sensors/cmw_vd66gy.c ****   }
 532:Lib/Camera_Middleware/sensors/cmw_vd66gy.c **** 
 533:Lib/Camera_Middleware/sensors/cmw_vd66gy.c ****   /* Get isp bayer pattern info */
 534:Lib/Camera_Middleware/sensors/cmw_vd66gy.c ****   info->bayer_pattern = ((CMW_VD66GY_t *)io_ctx)->ctx_driver.bayer - 1;
 535:Lib/Camera_Middleware/sensors/cmw_vd66gy.c **** 
 536:Lib/Camera_Middleware/sensors/cmw_vd66gy.c ****   /* Get color depth */
 537:Lib/Camera_Middleware/sensors/cmw_vd66gy.c ****   info->color_depth = VD6G_COLOR_DEPTH_RAW8;
 538:Lib/Camera_Middleware/sensors/cmw_vd66gy.c **** 
 539:Lib/Camera_Middleware/sensors/cmw_vd66gy.c ****   /* Get resolution info */
ARM GAS  C:\Users\DJESSOU\AppData\Local\Temp\ccSNWOEX.s 			page 21


 540:Lib/Camera_Middleware/sensors/cmw_vd66gy.c ****   info->width = VD6G_MAX_WIDTH;
 541:Lib/Camera_Middleware/sensors/cmw_vd66gy.c ****   info->height = VD6G_MAX_HEIGHT;
 542:Lib/Camera_Middleware/sensors/cmw_vd66gy.c **** 
 543:Lib/Camera_Middleware/sensors/cmw_vd66gy.c ****   /* Get gain range */
 544:Lib/Camera_Middleware/sensors/cmw_vd66gy.c ****   ret = VD6G_GetAnalogGainRegRange(&((CMW_VD66GY_t *)io_ctx)->ctx_driver, &again_regmin, &again_reg
 545:Lib/Camera_Middleware/sensors/cmw_vd66gy.c ****   if (ret)
 546:Lib/Camera_Middleware/sensors/cmw_vd66gy.c ****     return ret;
 547:Lib/Camera_Middleware/sensors/cmw_vd66gy.c **** 
 548:Lib/Camera_Middleware/sensors/cmw_vd66gy.c ****   ret = VD6G_GetDigitalGainRegRange(&((CMW_VD66GY_t *)io_ctx)->ctx_driver, &dgain_regmin, &dgain_re
 549:Lib/Camera_Middleware/sensors/cmw_vd66gy.c ****   if (ret)
 550:Lib/Camera_Middleware/sensors/cmw_vd66gy.c ****     return ret;
 551:Lib/Camera_Middleware/sensors/cmw_vd66gy.c **** 
 552:Lib/Camera_Middleware/sensors/cmw_vd66gy.c ****   again_min_mdB = (uint32_t) LINEAR_TO_MDECIBEL(32 / (32 - again_regmin));
 553:Lib/Camera_Middleware/sensors/cmw_vd66gy.c ****   again_max_mdB = (uint32_t) LINEAR_TO_MDECIBEL(32 / (32 - again_regmax));
 554:Lib/Camera_Middleware/sensors/cmw_vd66gy.c ****   dgain_min_mdB = (uint32_t) LINEAR_TO_MDECIBEL(FP58_TO_FLOAT(dgain_regmin));
 555:Lib/Camera_Middleware/sensors/cmw_vd66gy.c ****   dgain_max_mdB = (uint32_t) LINEAR_TO_MDECIBEL(FP58_TO_FLOAT(dgain_regmax));
 556:Lib/Camera_Middleware/sensors/cmw_vd66gy.c **** 
 557:Lib/Camera_Middleware/sensors/cmw_vd66gy.c ****   info->gain_min = again_min_mdB + dgain_min_mdB;
 558:Lib/Camera_Middleware/sensors/cmw_vd66gy.c ****   info->gain_max = again_max_mdB + dgain_max_mdB;
 559:Lib/Camera_Middleware/sensors/cmw_vd66gy.c ****   info->again_max = again_max_mdB;
 560:Lib/Camera_Middleware/sensors/cmw_vd66gy.c **** 
 561:Lib/Camera_Middleware/sensors/cmw_vd66gy.c ****   /* Get exposure range */
 562:Lib/Camera_Middleware/sensors/cmw_vd66gy.c ****   ret = VD6G_GetExposureRegRange(&((CMW_VD66GY_t *)io_ctx)->ctx_driver, &info->exposure_min, &info-
 563:Lib/Camera_Middleware/sensors/cmw_vd66gy.c ****   if (ret)
 564:Lib/Camera_Middleware/sensors/cmw_vd66gy.c ****     return ret;
 565:Lib/Camera_Middleware/sensors/cmw_vd66gy.c **** 
 566:Lib/Camera_Middleware/sensors/cmw_vd66gy.c ****   return CMW_ERROR_NONE;
 567:Lib/Camera_Middleware/sensors/cmw_vd66gy.c **** }
 568:Lib/Camera_Middleware/sensors/cmw_vd66gy.c **** 
 569:Lib/Camera_Middleware/sensors/cmw_vd66gy.c **** static void CMW_VD66GY_VsyncEventCallback(void *io_ctx, uint32_t pipe)
 570:Lib/Camera_Middleware/sensors/cmw_vd66gy.c **** {
 571:Lib/Camera_Middleware/sensors/cmw_vd66gy.c **** #ifndef ISP_MW_TUNING_TOOL_SUPPORT
 572:Lib/Camera_Middleware/sensors/cmw_vd66gy.c ****   /* Update the ISP frame counter and call its statistics handler */
 573:Lib/Camera_Middleware/sensors/cmw_vd66gy.c ****   switch (pipe)
 574:Lib/Camera_Middleware/sensors/cmw_vd66gy.c ****   {
 575:Lib/Camera_Middleware/sensors/cmw_vd66gy.c ****     case DCMIPP_PIPE0 :
 576:Lib/Camera_Middleware/sensors/cmw_vd66gy.c ****       ISP_IncDumpFrameId(&((CMW_VD66GY_t *)io_ctx)->hIsp);
 577:Lib/Camera_Middleware/sensors/cmw_vd66gy.c ****       break;
 578:Lib/Camera_Middleware/sensors/cmw_vd66gy.c ****     case DCMIPP_PIPE1 :
 579:Lib/Camera_Middleware/sensors/cmw_vd66gy.c ****       ISP_IncMainFrameId(&((CMW_VD66GY_t *)io_ctx)->hIsp);
 580:Lib/Camera_Middleware/sensors/cmw_vd66gy.c ****       ISP_GatherStatistics(&((CMW_VD66GY_t *)io_ctx)->hIsp);
 581:Lib/Camera_Middleware/sensors/cmw_vd66gy.c ****       break;
 582:Lib/Camera_Middleware/sensors/cmw_vd66gy.c ****     case DCMIPP_PIPE2 :
 583:Lib/Camera_Middleware/sensors/cmw_vd66gy.c ****       ISP_IncAncillaryFrameId(&((CMW_VD66GY_t *)io_ctx)->hIsp);
 584:Lib/Camera_Middleware/sensors/cmw_vd66gy.c ****       break;
 585:Lib/Camera_Middleware/sensors/cmw_vd66gy.c ****   }
 586:Lib/Camera_Middleware/sensors/cmw_vd66gy.c **** #endif
 587:Lib/Camera_Middleware/sensors/cmw_vd66gy.c **** }
 588:Lib/Camera_Middleware/sensors/cmw_vd66gy.c **** 
 589:Lib/Camera_Middleware/sensors/cmw_vd66gy.c **** static void CMW_VD66GY_FrameEventCallback(void *io_ctx, uint32_t pipe)
 590:Lib/Camera_Middleware/sensors/cmw_vd66gy.c **** {
 557              		.loc 1 590 1 view -0
 558              		.cfi_startproc
 559              		@ args = 0, pretend = 0, frame = 0
 560              		@ frame_needed = 0, uses_anonymous_args = 0
 561              		@ link register save eliminated.
 591:Lib/Camera_Middleware/sensors/cmw_vd66gy.c **** }
ARM GAS  C:\Users\DJESSOU\AppData\Local\Temp\ccSNWOEX.s 			page 22


 562              		.loc 1 591 1 view .LVU133
 563 0000 7047     		bx	lr
 564              		.cfi_endproc
 565              	.LFE3444:
 567              		.section	.text.CMW_VD66GY_SetGain,"ax",%progbits
 568              		.align	1
 569              		.global	CMW_VD66GY_SetGain
 570              		.syntax unified
 571              		.thumb
 572              		.thumb_func
 574              	CMW_VD66GY_SetGain:
 575              	.LVL48:
 576              	.LFB3437:
 379:Lib/Camera_Middleware/sensors/cmw_vd66gy.c ****   int32_t ret;
 577              		.loc 1 379 1 view -0
 578              		.cfi_startproc
 579              		@ args = 0, pretend = 0, frame = 16
 580              		@ frame_needed = 0, uses_anonymous_args = 0
 380:Lib/Camera_Middleware/sensors/cmw_vd66gy.c ****   uint8_t again_regmin, again_regmax;
 581              		.loc 1 380 3 view .LVU135
 381:Lib/Camera_Middleware/sensors/cmw_vd66gy.c ****   uint16_t dgain_regmin, dgain_regmax;
 582              		.loc 1 381 3 view .LVU136
 382:Lib/Camera_Middleware/sensors/cmw_vd66gy.c ****   uint32_t again_min_mdB, again_max_mdB;
 583              		.loc 1 382 3 view .LVU137
 383:Lib/Camera_Middleware/sensors/cmw_vd66gy.c ****   uint32_t dgain_min_mdB, dgain_max_mdB;
 584              		.loc 1 383 3 view .LVU138
 384:Lib/Camera_Middleware/sensors/cmw_vd66gy.c ****   double analog_linear_gain, digital_linear_gain;
 585              		.loc 1 384 3 view .LVU139
 385:Lib/Camera_Middleware/sensors/cmw_vd66gy.c **** 
 586              		.loc 1 385 3 view .LVU140
 387:Lib/Camera_Middleware/sensors/cmw_vd66gy.c ****   if (ret)
 587              		.loc 1 387 3 view .LVU141
 379:Lib/Camera_Middleware/sensors/cmw_vd66gy.c ****   int32_t ret;
 588              		.loc 1 379 1 is_stmt 0 view .LVU142
 589 0000 F0B5     		push	{r4, r5, r6, r7, lr}
 590              		.cfi_def_cfa_offset 20
 591              		.cfi_offset 4, -20
 592              		.cfi_offset 5, -16
 593              		.cfi_offset 6, -12
 594              		.cfi_offset 7, -8
 595              		.cfi_offset 14, -4
 596 0002 2DED088B 		vpush.64	{d8, d9, d10, d11}
 597              		.cfi_def_cfa_offset 52
 598              		.cfi_offset 80, -52
 599              		.cfi_offset 81, -48
 600              		.cfi_offset 82, -44
 601              		.cfi_offset 83, -40
 602              		.cfi_offset 84, -36
 603              		.cfi_offset 85, -32
 604              		.cfi_offset 86, -28
 605              		.cfi_offset 87, -24
 387:Lib/Camera_Middleware/sensors/cmw_vd66gy.c ****   if (ret)
 606              		.loc 1 387 9 view .LVU143
 607 0006 061D     		adds	r6, r0, #4
 379:Lib/Camera_Middleware/sensors/cmw_vd66gy.c ****   int32_t ret;
 608              		.loc 1 379 1 view .LVU144
 609 0008 85B0     		sub	sp, sp, #20
ARM GAS  C:\Users\DJESSOU\AppData\Local\Temp\ccSNWOEX.s 			page 23


 610              		.cfi_def_cfa_offset 72
 379:Lib/Camera_Middleware/sensors/cmw_vd66gy.c ****   int32_t ret;
 611              		.loc 1 379 1 view .LVU145
 612 000a 0D46     		mov	r5, r1
 387:Lib/Camera_Middleware/sensors/cmw_vd66gy.c ****   if (ret)
 613              		.loc 1 387 9 view .LVU146
 614 000c 3046     		mov	r0, r6
 615              	.LVL49:
 387:Lib/Camera_Middleware/sensors/cmw_vd66gy.c ****   if (ret)
 616              		.loc 1 387 9 view .LVU147
 617 000e 0DF10B02 		add	r2, sp, #11
 618 0012 0DF10A01 		add	r1, sp, #10
 619              	.LVL50:
 387:Lib/Camera_Middleware/sensors/cmw_vd66gy.c ****   if (ret)
 620              		.loc 1 387 9 view .LVU148
 621 0016 FFF7FEFF 		bl	VD6G_GetAnalogGainRegRange
 622              	.LVL51:
 388:Lib/Camera_Middleware/sensors/cmw_vd66gy.c ****     return ret;
 623              		.loc 1 388 3 is_stmt 1 view .LVU149
 388:Lib/Camera_Middleware/sensors/cmw_vd66gy.c ****     return ret;
 624              		.loc 1 388 6 is_stmt 0 view .LVU150
 625 001a 0028     		cmp	r0, #0
 626 001c 40F0BC80 		bne	.L18
 391:Lib/Camera_Middleware/sensors/cmw_vd66gy.c ****   if (ret)
 627              		.loc 1 391 3 is_stmt 1 view .LVU151
 391:Lib/Camera_Middleware/sensors/cmw_vd66gy.c ****   if (ret)
 628              		.loc 1 391 9 is_stmt 0 view .LVU152
 629 0020 3046     		mov	r0, r6
 630              	.LVL52:
 391:Lib/Camera_Middleware/sensors/cmw_vd66gy.c ****   if (ret)
 631              		.loc 1 391 9 view .LVU153
 632 0022 0DF10E02 		add	r2, sp, #14
 633 0026 03A9     		add	r1, sp, #12
 634 0028 FFF7FEFF 		bl	VD6G_GetDigitalGainRegRange
 635              	.LVL53:
 392:Lib/Camera_Middleware/sensors/cmw_vd66gy.c ****     return ret;
 636              		.loc 1 392 3 is_stmt 1 view .LVU154
 392:Lib/Camera_Middleware/sensors/cmw_vd66gy.c ****     return ret;
 637              		.loc 1 392 6 is_stmt 0 view .LVU155
 638 002c 0028     		cmp	r0, #0
 639 002e 40F0B380 		bne	.L18
 395:Lib/Camera_Middleware/sensors/cmw_vd66gy.c ****   again_max_mdB = (uint32_t) LINEAR_TO_MDECIBEL(32 / (32 - again_regmax));
 640              		.loc 1 395 3 is_stmt 1 view .LVU156
 395:Lib/Camera_Middleware/sensors/cmw_vd66gy.c ****   again_max_mdB = (uint32_t) LINEAR_TO_MDECIBEL(32 / (32 - again_regmax));
 641              		.loc 1 395 30 is_stmt 0 view .LVU157
 642 0032 2024     		movs	r4, #32
 643 0034 9DF80A30 		ldrb	r3, [sp, #10]	@ zero_extendqisi2
 396:Lib/Camera_Middleware/sensors/cmw_vd66gy.c ****   dgain_min_mdB = (uint32_t) LINEAR_TO_MDECIBEL(FP58_TO_FLOAT(dgain_regmin));
 644              		.loc 1 396 30 discriminator 1 view .LVU158
 645 0038 B3EE04AB 		vmov.f64	d10, #2.0e+1
 395:Lib/Camera_Middleware/sensors/cmw_vd66gy.c ****   again_max_mdB = (uint32_t) LINEAR_TO_MDECIBEL(32 / (32 - again_regmax));
 646              		.loc 1 395 30 view .LVU159
 647 003c C3F12003 		rsb	r3, r3, #32
 648 0040 94FBF3F3 		sdiv	r3, r4, r3
 649 0044 00EE103A 		vmov	s0, r3	@ int
 650 0048 B8EEC00B 		vcvt.f64.s32	d0, s0
 651 004c FFF7FEFF 		bl	log10
ARM GAS  C:\Users\DJESSOU\AppData\Local\Temp\ccSNWOEX.s 			page 24


 652              	.LVL54:
 396:Lib/Camera_Middleware/sensors/cmw_vd66gy.c ****   dgain_min_mdB = (uint32_t) LINEAR_TO_MDECIBEL(FP58_TO_FLOAT(dgain_regmin));
 653              		.loc 1 396 30 view .LVU160
 654 0050 9DF80B30 		ldrb	r3, [sp, #11]	@ zero_extendqisi2
 395:Lib/Camera_Middleware/sensors/cmw_vd66gy.c ****   again_max_mdB = (uint32_t) LINEAR_TO_MDECIBEL(32 / (32 - again_regmax));
 655              		.loc 1 395 30 view .LVU161
 656 0054 B0EE408B 		vmov.f64	d8, d0
 657              	.LVL55:
 396:Lib/Camera_Middleware/sensors/cmw_vd66gy.c ****   dgain_min_mdB = (uint32_t) LINEAR_TO_MDECIBEL(FP58_TO_FLOAT(dgain_regmin));
 658              		.loc 1 396 3 is_stmt 1 view .LVU162
 396:Lib/Camera_Middleware/sensors/cmw_vd66gy.c ****   dgain_min_mdB = (uint32_t) LINEAR_TO_MDECIBEL(FP58_TO_FLOAT(dgain_regmin));
 659              		.loc 1 396 30 is_stmt 0 view .LVU163
 660 0058 E31A     		subs	r3, r4, r3
 661 005a 94FBF3F3 		sdiv	r3, r4, r3
 662 005e 00EE103A 		vmov	s0, r3	@ int
 663              	.LVL56:
 396:Lib/Camera_Middleware/sensors/cmw_vd66gy.c ****   dgain_min_mdB = (uint32_t) LINEAR_TO_MDECIBEL(FP58_TO_FLOAT(dgain_regmin));
 664              		.loc 1 396 30 view .LVU164
 665 0062 B8EEC00B 		vcvt.f64.s32	d0, s0
 666 0066 FFF7FEFF 		bl	log10
 667              	.LVL57:
 396:Lib/Camera_Middleware/sensors/cmw_vd66gy.c ****   dgain_min_mdB = (uint32_t) LINEAR_TO_MDECIBEL(FP58_TO_FLOAT(dgain_regmin));
 668              		.loc 1 396 30 discriminator 1 view .LVU165
 669 006a 9FED59BB 		vldr.64	d11, .L25
 670 006e 20EE0A0B 		vmul.f64	d0, d0, d10
 671 0072 20EE0B0B 		vmul.f64	d0, d0, d11
 396:Lib/Camera_Middleware/sensors/cmw_vd66gy.c ****   dgain_min_mdB = (uint32_t) LINEAR_TO_MDECIBEL(FP58_TO_FLOAT(dgain_regmin));
 672              		.loc 1 396 17 discriminator 1 view .LVU166
 673 0076 FCEEC07B 		vcvt.u32.f64	s15, d0
 397:Lib/Camera_Middleware/sensors/cmw_vd66gy.c ****   dgain_max_mdB = (uint32_t) LINEAR_TO_MDECIBEL(FP58_TO_FLOAT(dgain_regmax));
 674              		.loc 1 397 30 view .LVU167
 675 007a BDF80C30 		ldrh	r3, [sp, #12]
 676 007e 9DF80C20 		ldrb	r2, [sp, #12]	@ zero_extendqisi2
 677 0082 1B0A     		lsrs	r3, r3, #8
 678 0084 00EE103A 		vmov	s0, r3	@ int
 396:Lib/Camera_Middleware/sensors/cmw_vd66gy.c ****   dgain_min_mdB = (uint32_t) LINEAR_TO_MDECIBEL(FP58_TO_FLOAT(dgain_regmin));
 679              		.loc 1 396 17 discriminator 1 view .LVU168
 680 0088 17EE907A 		vmov	r7, s15	@ int
 681              	.LVL58:
 397:Lib/Camera_Middleware/sensors/cmw_vd66gy.c ****   dgain_max_mdB = (uint32_t) LINEAR_TO_MDECIBEL(FP58_TO_FLOAT(dgain_regmax));
 682              		.loc 1 397 3 is_stmt 1 view .LVU169
 397:Lib/Camera_Middleware/sensors/cmw_vd66gy.c ****   dgain_max_mdB = (uint32_t) LINEAR_TO_MDECIBEL(FP58_TO_FLOAT(dgain_regmax));
 683              		.loc 1 397 30 is_stmt 0 view .LVU170
 684 008c 07EE902A 		vmov	s15, r2	@ int
 685 0090 9FED559A 		vldr.32	s18, .L25+24
 686 0094 F8EEE77A 		vcvt.f32.s32	s15, s15
 687 0098 B8EEC00A 		vcvt.f32.s32	s0, s0
 688 009c A7EE890A 		vfma.f32	s0, s15, s18
 689 00a0 B7EEC00A 		vcvt.f64.f32	d0, s0
 690 00a4 FFF7FEFF 		bl	log10
 691              	.LVL59:
 397:Lib/Camera_Middleware/sensors/cmw_vd66gy.c ****   dgain_max_mdB = (uint32_t) LINEAR_TO_MDECIBEL(FP58_TO_FLOAT(dgain_regmax));
 692              		.loc 1 397 30 discriminator 1 view .LVU171
 693 00a8 20EE0A0B 		vmul.f64	d0, d0, d10
 694 00ac 20EE0B0B 		vmul.f64	d0, d0, d11
 397:Lib/Camera_Middleware/sensors/cmw_vd66gy.c ****   dgain_max_mdB = (uint32_t) LINEAR_TO_MDECIBEL(FP58_TO_FLOAT(dgain_regmax));
 695              		.loc 1 397 17 discriminator 1 view .LVU172
ARM GAS  C:\Users\DJESSOU\AppData\Local\Temp\ccSNWOEX.s 			page 25


 696 00b0 FCEEC07B 		vcvt.u32.f64	s15, d0
 398:Lib/Camera_Middleware/sensors/cmw_vd66gy.c **** 
 697              		.loc 1 398 30 view .LVU173
 698 00b4 BDF80E30 		ldrh	r3, [sp, #14]
 699 00b8 9DF80E20 		ldrb	r2, [sp, #14]	@ zero_extendqisi2
 700 00bc 1B0A     		lsrs	r3, r3, #8
 701 00be 00EE103A 		vmov	s0, r3	@ int
 397:Lib/Camera_Middleware/sensors/cmw_vd66gy.c ****   dgain_max_mdB = (uint32_t) LINEAR_TO_MDECIBEL(FP58_TO_FLOAT(dgain_regmax));
 702              		.loc 1 397 17 discriminator 1 view .LVU174
 703 00c2 17EE904A 		vmov	r4, s15	@ int
 704              	.LVL60:
 398:Lib/Camera_Middleware/sensors/cmw_vd66gy.c **** 
 705              		.loc 1 398 3 is_stmt 1 view .LVU175
 398:Lib/Camera_Middleware/sensors/cmw_vd66gy.c **** 
 706              		.loc 1 398 30 is_stmt 0 view .LVU176
 707 00c6 07EE902A 		vmov	s15, r2	@ int
 708 00ca B8EEC00A 		vcvt.f32.s32	s0, s0
 709 00ce F8EEE77A 		vcvt.f32.s32	s15, s15
 710 00d2 A7EE890A 		vfma.f32	s0, s15, s18
 711 00d6 B7EEC00A 		vcvt.f64.f32	d0, s0
 712 00da FFF7FEFF 		bl	log10
 713              	.LVL61:
 395:Lib/Camera_Middleware/sensors/cmw_vd66gy.c ****   again_max_mdB = (uint32_t) LINEAR_TO_MDECIBEL(32 / (32 - again_regmax));
 714              		.loc 1 395 30 discriminator 1 view .LVU177
 715 00de 28EE0A8B 		vmul.f64	d8, d8, d10
 716              	.LVL62:
 395:Lib/Camera_Middleware/sensors/cmw_vd66gy.c ****   again_max_mdB = (uint32_t) LINEAR_TO_MDECIBEL(32 / (32 - again_regmax));
 717              		.loc 1 395 30 discriminator 1 view .LVU178
 718 00e2 28EE0B8B 		vmul.f64	d8, d8, d11
 395:Lib/Camera_Middleware/sensors/cmw_vd66gy.c ****   again_max_mdB = (uint32_t) LINEAR_TO_MDECIBEL(32 / (32 - again_regmax));
 719              		.loc 1 395 17 discriminator 1 view .LVU179
 720 00e6 BCEEC88B 		vcvt.u32.f64	s16, d8
 398:Lib/Camera_Middleware/sensors/cmw_vd66gy.c **** 
 721              		.loc 1 398 30 discriminator 1 view .LVU180
 722 00ea 20EE0A0B 		vmul.f64	d0, d0, d10
 400:Lib/Camera_Middleware/sensors/cmw_vd66gy.c ****       || (gain > dgain_max_mdB + again_max_mdB))
 723              		.loc 1 400 29 view .LVU181
 724 00ee 18EE103A 		vmov	r3, s16	@ int
 398:Lib/Camera_Middleware/sensors/cmw_vd66gy.c **** 
 725              		.loc 1 398 30 discriminator 1 view .LVU182
 726 00f2 20EE0B0B 		vmul.f64	d0, d0, d11
 400:Lib/Camera_Middleware/sensors/cmw_vd66gy.c ****       || (gain > dgain_max_mdB + again_max_mdB))
 727              		.loc 1 400 29 view .LVU183
 728 00f6 2344     		add	r3, r3, r4
 400:Lib/Camera_Middleware/sensors/cmw_vd66gy.c ****       || (gain > dgain_max_mdB + again_max_mdB))
 729              		.loc 1 400 6 view .LVU184
 730 00f8 AB42     		cmp	r3, r5
 398:Lib/Camera_Middleware/sensors/cmw_vd66gy.c **** 
 731              		.loc 1 398 17 discriminator 1 view .LVU185
 732 00fa BCEEC00B 		vcvt.u32.f64	s0, d0
 733              	.LVL63:
 400:Lib/Camera_Middleware/sensors/cmw_vd66gy.c ****       || (gain > dgain_max_mdB + again_max_mdB))
 734              		.loc 1 400 3 is_stmt 1 view .LVU186
 400:Lib/Camera_Middleware/sensors/cmw_vd66gy.c ****       || (gain > dgain_max_mdB + again_max_mdB))
 735              		.loc 1 400 6 is_stmt 0 view .LVU187
 736 00fe 61D8     		bhi	.L23
 401:Lib/Camera_Middleware/sensors/cmw_vd66gy.c ****     return -1;
ARM GAS  C:\Users\DJESSOU\AppData\Local\Temp\ccSNWOEX.s 			page 26


 737              		.loc 1 401 32 view .LVU188
 738 0100 10EE103A 		vmov	r3, s0	@ int
 739 0104 3B44     		add	r3, r3, r7
 401:Lib/Camera_Middleware/sensors/cmw_vd66gy.c ****     return -1;
 740              		.loc 1 401 7 view .LVU189
 741 0106 9D42     		cmp	r5, r3
 742 0108 5CD8     		bhi	.L23
 404:Lib/Camera_Middleware/sensors/cmw_vd66gy.c ****   {
 743              		.loc 1 404 3 is_stmt 1 view .LVU190
 404:Lib/Camera_Middleware/sensors/cmw_vd66gy.c ****   {
 744              		.loc 1 404 6 is_stmt 0 view .LVU191
 745 010a BD42     		cmp	r5, r7
 746 010c 48D8     		bhi	.L20
 407:Lib/Camera_Middleware/sensors/cmw_vd66gy.c ****     digital_linear_gain = MDECIBEL_TO_LINEAR((double)dgain_min_mdB);
 747              		.loc 1 407 5 is_stmt 1 view .LVU192
 407:Lib/Camera_Middleware/sensors/cmw_vd66gy.c ****     digital_linear_gain = MDECIBEL_TO_LINEAR((double)dgain_min_mdB);
 748              		.loc 1 407 26 is_stmt 0 view .LVU193
 749 010e 2D1B     		subs	r5, r5, r4
 750              	.LVL64:
 407:Lib/Camera_Middleware/sensors/cmw_vd66gy.c ****     digital_linear_gain = MDECIBEL_TO_LINEAR((double)dgain_min_mdB);
 751              		.loc 1 407 26 view .LVU194
 752 0110 07EE905A 		vmov	s15, r5	@ int
 753 0114 B8EE677B 		vcvt.f64.u32	d7, s15
 754 0118 87EE0B1B 		vdiv.f64	d1, d7, d11
 755 011c B2EE040B 		vmov.f64	d0, #1.0e+1
 756              	.LVL65:
 407:Lib/Camera_Middleware/sensors/cmw_vd66gy.c ****     digital_linear_gain = MDECIBEL_TO_LINEAR((double)dgain_min_mdB);
 757              		.loc 1 407 26 view .LVU195
 758 0120 81EE0A1B 		vdiv.f64	d1, d1, d10
 759 0124 FFF7FEFF 		bl	pow
 760              	.LVL66:
 408:Lib/Camera_Middleware/sensors/cmw_vd66gy.c ****   }
 761              		.loc 1 408 27 view .LVU196
 762 0128 07EE904A 		vmov	s15, r4	@ int
 407:Lib/Camera_Middleware/sensors/cmw_vd66gy.c ****     digital_linear_gain = MDECIBEL_TO_LINEAR((double)dgain_min_mdB);
 763              		.loc 1 407 26 view .LVU197
 764 012c B0EE409B 		vmov.f64	d9, d0
 765              	.LVL67:
 408:Lib/Camera_Middleware/sensors/cmw_vd66gy.c ****   }
 766              		.loc 1 408 5 is_stmt 1 view .LVU198
 767              	.L24:
 414:Lib/Camera_Middleware/sensors/cmw_vd66gy.c ****   }
 768              		.loc 1 414 27 is_stmt 0 view .LVU199
 769 0130 B8EE677B 		vcvt.f64.u32	d7, s15
 770 0134 87EE0B1B 		vdiv.f64	d1, d7, d11
 771 0138 B2EE040B 		vmov.f64	d0, #1.0e+1
 772              	.LVL68:
 414:Lib/Camera_Middleware/sensors/cmw_vd66gy.c ****   }
 773              		.loc 1 414 27 view .LVU200
 774 013c 81EE0A1B 		vdiv.f64	d1, d1, d10
 775 0140 FFF7FEFF 		bl	pow
 776              	.LVL69:
 417:Lib/Camera_Middleware/sensors/cmw_vd66gy.c ****   if (ret)
 777              		.loc 1 417 83 view .LVU201
 778 0144 9FED247B 		vldr.64	d7, .L25+8
 779 0148 87EE096B 		vdiv.f64	d6, d7, d9
 417:Lib/Camera_Middleware/sensors/cmw_vd66gy.c ****   if (ret)
ARM GAS  C:\Users\DJESSOU\AppData\Local\Temp\ccSNWOEX.s 			page 27


 780              		.loc 1 417 77 view .LVU202
 781 014c 37EE467B 		vsub.f64	d7, d7, d6
 417:Lib/Camera_Middleware/sensors/cmw_vd66gy.c ****   if (ret)
 782              		.loc 1 417 9 view .LVU203
 783 0150 FDEEC77B 		vcvt.s32.f64	s15, d7
 784 0154 3046     		mov	r0, r6
 785 0156 17EE901A 		vmov	r1, s15	@ int
 414:Lib/Camera_Middleware/sensors/cmw_vd66gy.c ****   }
 786              		.loc 1 414 27 view .LVU204
 787 015a B0EE408B 		vmov.f64	d8, d0
 788              	.LVL70:
 417:Lib/Camera_Middleware/sensors/cmw_vd66gy.c ****   if (ret)
 789              		.loc 1 417 3 is_stmt 1 view .LVU205
 417:Lib/Camera_Middleware/sensors/cmw_vd66gy.c ****   if (ret)
 790              		.loc 1 417 9 is_stmt 0 view .LVU206
 791 015e FFF7FEFF 		bl	VD6G_SetAnalogGain
 792              	.LVL71:
 418:Lib/Camera_Middleware/sensors/cmw_vd66gy.c ****     return ret;
 793              		.loc 1 418 3 is_stmt 1 view .LVU207
 418:Lib/Camera_Middleware/sensors/cmw_vd66gy.c ****     return ret;
 794              		.loc 1 418 6 is_stmt 0 view .LVU208
 795 0162 C8B9     		cbnz	r0, .L18
 421:Lib/Camera_Middleware/sensors/cmw_vd66gy.c ****   if (ret)
 796              		.loc 1 421 3 is_stmt 1 view .LVU209
 421:Lib/Camera_Middleware/sensors/cmw_vd66gy.c ****   if (ret)
 797              		.loc 1 421 68 is_stmt 0 view .LVU210
 798 0164 FCEEC87B 		vcvt.u32.f64	s15, d8
 799 0168 17EE903A 		vmov	r3, s15	@ int
 800 016c 99B2     		uxth	r1, r3
 801 016e 07EE901A 		vmov	s15, r1	@ int
 802 0172 B8EEE77B 		vcvt.f64.s32	d7, s15
 803 0176 38EE478B 		vsub.f64	d8, d8, d7
 804              	.LVL72:
 421:Lib/Camera_Middleware/sensors/cmw_vd66gy.c ****   if (ret)
 805              		.loc 1 421 68 view .LVU211
 806 017a 9FED197B 		vldr.64	d7, .L25+16
 807 017e 28EE078B 		vmul.f64	d8, d8, d7
 808 0182 FCEEC87B 		vcvt.u32.f64	s15, d8
 809 0186 CDED017A 		vstr.32	s15, [sp, #4]	@ int
 810 018a 9DF80430 		ldrb	r3, [sp, #4]	@ zero_extendqisi2
 421:Lib/Camera_Middleware/sensors/cmw_vd66gy.c ****   if (ret)
 811              		.loc 1 421 9 view .LVU212
 812 018e 3046     		mov	r0, r6
 813              	.LVL73:
 421:Lib/Camera_Middleware/sensors/cmw_vd66gy.c ****   if (ret)
 814              		.loc 1 421 9 view .LVU213
 815 0190 43EA0121 		orr	r1, r3, r1, lsl #8
 816 0194 FFF7FEFF 		bl	VD6G_SetDigitalGain
 817              	.LVL74:
 422:Lib/Camera_Middleware/sensors/cmw_vd66gy.c ****     return ret;
 818              		.loc 1 422 3 is_stmt 1 view .LVU214
 819              	.L18:
 426:Lib/Camera_Middleware/sensors/cmw_vd66gy.c **** 
 820              		.loc 1 426 1 is_stmt 0 view .LVU215
 821 0198 05B0     		add	sp, sp, #20
 822              		.cfi_remember_state
 823              		.cfi_def_cfa_offset 52
ARM GAS  C:\Users\DJESSOU\AppData\Local\Temp\ccSNWOEX.s 			page 28


 824              		@ sp needed
 825 019a BDEC088B 		vldm	sp!, {d8-d11}
 826              		.cfi_restore 86
 827              		.cfi_restore 87
 828              		.cfi_restore 84
 829              		.cfi_restore 85
 830              		.cfi_restore 82
 831              		.cfi_restore 83
 832              		.cfi_restore 80
 833              		.cfi_restore 81
 834              		.cfi_def_cfa_offset 20
 835 019e F0BD     		pop	{r4, r5, r6, r7, pc}
 836              	.LVL75:
 837              	.L20:
 838              		.cfi_restore_state
 413:Lib/Camera_Middleware/sensors/cmw_vd66gy.c ****     digital_linear_gain = MDECIBEL_TO_LINEAR((double)(gain - again_max_mdB));
 839              		.loc 1 413 5 is_stmt 1 view .LVU216
 413:Lib/Camera_Middleware/sensors/cmw_vd66gy.c ****     digital_linear_gain = MDECIBEL_TO_LINEAR((double)(gain - again_max_mdB));
 840              		.loc 1 413 26 is_stmt 0 view .LVU217
 841 01a0 07EE907A 		vmov	s15, r7	@ int
 842 01a4 B8EE677B 		vcvt.f64.u32	d7, s15
 843 01a8 87EE0B1B 		vdiv.f64	d1, d7, d11
 844 01ac B2EE040B 		vmov.f64	d0, #1.0e+1
 845              	.LVL76:
 413:Lib/Camera_Middleware/sensors/cmw_vd66gy.c ****     digital_linear_gain = MDECIBEL_TO_LINEAR((double)(gain - again_max_mdB));
 846              		.loc 1 413 26 view .LVU218
 847 01b0 81EE0A1B 		vdiv.f64	d1, d1, d10
 848 01b4 FFF7FEFF 		bl	pow
 849              	.LVL77:
 414:Lib/Camera_Middleware/sensors/cmw_vd66gy.c ****   }
 850              		.loc 1 414 27 view .LVU219
 851 01b8 ED1B     		subs	r5, r5, r7
 852              	.LVL78:
 413:Lib/Camera_Middleware/sensors/cmw_vd66gy.c ****     digital_linear_gain = MDECIBEL_TO_LINEAR((double)(gain - again_max_mdB));
 853              		.loc 1 413 26 view .LVU220
 854 01ba B0EE409B 		vmov.f64	d9, d0
 855              	.LVL79:
 414:Lib/Camera_Middleware/sensors/cmw_vd66gy.c ****   }
 856              		.loc 1 414 5 is_stmt 1 view .LVU221
 414:Lib/Camera_Middleware/sensors/cmw_vd66gy.c ****   }
 857              		.loc 1 414 27 is_stmt 0 view .LVU222
 858 01be 07EE905A 		vmov	s15, r5	@ int
 859 01c2 B5E7     		b	.L24
 860              	.LVL80:
 861              	.L23:
 402:Lib/Camera_Middleware/sensors/cmw_vd66gy.c **** 
 862              		.loc 1 402 12 view .LVU223
 863 01c4 4FF0FF30 		mov	r0, #-1
 864 01c8 E6E7     		b	.L18
 865              	.L26:
 866 01ca 00BFAFF3 		.align	3
 866      0080
 867              	.L25:
 868 01d0 00000000 		.word	0
 869 01d4 00408F40 		.word	1083129856
 870 01d8 00000000 		.word	0
 871 01dc 00004040 		.word	1077936128
ARM GAS  C:\Users\DJESSOU\AppData\Local\Temp\ccSNWOEX.s 			page 29


 872 01e0 00000000 		.word	0
 873 01e4 00007040 		.word	1081081856
 874 01e8 0000803B 		.word	998244352
 875              		.cfi_endproc
 876              	.LFE3437:
 878              		.section	.text.CMW_VD66GY_SetExposure,"ax",%progbits
 879              		.align	1
 880              		.global	CMW_VD66GY_SetExposure
 881              		.syntax unified
 882              		.thumb
 883              		.thumb_func
 885              	CMW_VD66GY_SetExposure:
 886              	.LVL81:
 887              	.LFB3438:
 435:Lib/Camera_Middleware/sensors/cmw_vd66gy.c ****   return VD6G_SetExposureTime(&((CMW_VD66GY_t *)io_ctx)->ctx_driver, exposure);
 888              		.loc 1 435 1 is_stmt 1 view -0
 889              		.cfi_startproc
 890              		@ args = 0, pretend = 0, frame = 0
 891              		@ frame_needed = 0, uses_anonymous_args = 0
 892              		@ link register save eliminated.
 436:Lib/Camera_Middleware/sensors/cmw_vd66gy.c **** }
 893              		.loc 1 436 3 view .LVU225
 436:Lib/Camera_Middleware/sensors/cmw_vd66gy.c **** }
 894              		.loc 1 436 10 is_stmt 0 view .LVU226
 895 0000 0430     		adds	r0, r0, #4
 896              	.LVL82:
 436:Lib/Camera_Middleware/sensors/cmw_vd66gy.c **** }
 897              		.loc 1 436 10 view .LVU227
 898 0002 FFF7FEBF 		b	VD6G_SetExposureTime
 899              	.LVL83:
 436:Lib/Camera_Middleware/sensors/cmw_vd66gy.c **** }
 900              		.loc 1 436 10 view .LVU228
 901              		.cfi_endproc
 902              	.LFE3438:
 904              		.section	.text.CMW_VD66GY_SetExposureMode,"ax",%progbits
 905              		.align	1
 906              		.global	CMW_VD66GY_SetExposureMode
 907              		.syntax unified
 908              		.thumb
 909              		.thumb_func
 911              	CMW_VD66GY_SetExposureMode:
 912              	.LVL84:
 913              	.LFB3439:
 446:Lib/Camera_Middleware/sensors/cmw_vd66gy.c ****   int ret = -1;
 914              		.loc 1 446 1 is_stmt 1 view -0
 915              		.cfi_startproc
 916              		@ args = 0, pretend = 0, frame = 0
 917              		@ frame_needed = 0, uses_anonymous_args = 0
 447:Lib/Camera_Middleware/sensors/cmw_vd66gy.c **** 
 918              		.loc 1 447 3 view .LVU230
 449:Lib/Camera_Middleware/sensors/cmw_vd66gy.c ****   {
 919              		.loc 1 449 3 view .LVU231
 920 0000 0129     		cmp	r1, #1
 446:Lib/Camera_Middleware/sensors/cmw_vd66gy.c ****   int ret = -1;
 921              		.loc 1 446 1 is_stmt 0 view .LVU232
 922 0002 08B5     		push	{r3, lr}
 923              		.cfi_def_cfa_offset 8
ARM GAS  C:\Users\DJESSOU\AppData\Local\Temp\ccSNWOEX.s 			page 30


 924              		.cfi_offset 3, -8
 925              		.cfi_offset 14, -4
 926 0004 00F10400 		add	r0, r0, #4
 927              	.LVL85:
 449:Lib/Camera_Middleware/sensors/cmw_vd66gy.c ****   {
 928              		.loc 1 449 3 view .LVU233
 929 0008 02D0     		beq	.L34
 930 000a 0229     		cmp	r1, #2
 452:Lib/Camera_Middleware/sensors/cmw_vd66gy.c ****       break;
 931              		.loc 1 452 7 is_stmt 1 view .LVU234
 459:Lib/Camera_Middleware/sensors/cmw_vd66gy.c ****       break;
 932              		.loc 1 459 7 view .LVU235
 459:Lib/Camera_Middleware/sensors/cmw_vd66gy.c ****       break;
 933              		.loc 1 459 13 is_stmt 0 view .LVU236
 934 000c 18BF     		it	ne
 935 000e 0021     		movne	r1, #0
 936              	.LVL86:
 937              	.L34:
 459:Lib/Camera_Middleware/sensors/cmw_vd66gy.c ****       break;
 938              		.loc 1 459 13 view .LVU237
 939 0010 FFF7FEFF 		bl	VD6G_SetExposureMode
 940              	.LVL87:
 460:Lib/Camera_Middleware/sensors/cmw_vd66gy.c ****   }
 941              		.loc 1 460 7 is_stmt 1 view .LVU238
 463:Lib/Camera_Middleware/sensors/cmw_vd66gy.c **** }
 942              		.loc 1 463 3 view .LVU239
 463:Lib/Camera_Middleware/sensors/cmw_vd66gy.c **** }
 943              		.loc 1 463 38 is_stmt 0 discriminator 2 view .LVU240
 944 0014 0028     		cmp	r0, #0
 464:Lib/Camera_Middleware/sensors/cmw_vd66gy.c **** 
 945              		.loc 1 464 1 view .LVU241
 946 0016 18BF     		it	ne
 947 0018 6FF00500 		mvnne	r0, #5
 948              	.LVL88:
 464:Lib/Camera_Middleware/sensors/cmw_vd66gy.c **** 
 949              		.loc 1 464 1 view .LVU242
 950 001c 08BD     		pop	{r3, pc}
 951              		.cfi_endproc
 952              	.LFE3439:
 954              		.section	.text.CMW_VD66GY_SetWBRefMode,"ax",%progbits
 955              		.align	1
 956              		.global	CMW_VD66GY_SetWBRefMode
 957              		.syntax unified
 958              		.thumb
 959              		.thumb_func
 961              	CMW_VD66GY_SetWBRefMode:
 962              	.LVL89:
 963              	.LFB3440:
 474:Lib/Camera_Middleware/sensors/cmw_vd66gy.c ****   int ret = CMW_ERROR_NONE;
 964              		.loc 1 474 1 is_stmt 1 view -0
 965              		.cfi_startproc
 966              		@ args = 0, pretend = 0, frame = 0
 967              		@ frame_needed = 0, uses_anonymous_args = 0
 475:Lib/Camera_Middleware/sensors/cmw_vd66gy.c **** 
 968              		.loc 1 475 3 view .LVU244
 477:Lib/Camera_Middleware/sensors/cmw_vd66gy.c ****   if (ret)
 969              		.loc 1 477 3 view .LVU245
ARM GAS  C:\Users\DJESSOU\AppData\Local\Temp\ccSNWOEX.s 			page 31


 474:Lib/Camera_Middleware/sensors/cmw_vd66gy.c ****   int ret = CMW_ERROR_NONE;
 970              		.loc 1 474 1 is_stmt 0 view .LVU246
 971 0000 08B5     		push	{r3, lr}
 972              		.cfi_def_cfa_offset 8
 973              		.cfi_offset 3, -8
 974              		.cfi_offset 14, -4
 477:Lib/Camera_Middleware/sensors/cmw_vd66gy.c ****   if (ret)
 975              		.loc 1 477 9 view .LVU247
 976 0002 6C30     		adds	r0, r0, #108
 977              	.LVL90:
 477:Lib/Camera_Middleware/sensors/cmw_vd66gy.c ****   if (ret)
 978              		.loc 1 477 9 view .LVU248
 979 0004 FFF7FEFF 		bl	ISP_SetWBRefMode
 980              	.LVL91:
 478:Lib/Camera_Middleware/sensors/cmw_vd66gy.c ****   {
 981              		.loc 1 478 3 is_stmt 1 view .LVU249
 483:Lib/Camera_Middleware/sensors/cmw_vd66gy.c **** }
 982              		.loc 1 483 10 is_stmt 0 view .LVU250
 983 0008 0028     		cmp	r0, #0
 484:Lib/Camera_Middleware/sensors/cmw_vd66gy.c **** 
 984              		.loc 1 484 1 view .LVU251
 985 000a 14BF     		ite	ne
 986 000c 6FF00300 		mvnne	r0, #3
 987              	.LVL92:
 484:Lib/Camera_Middleware/sensors/cmw_vd66gy.c **** 
 988              		.loc 1 484 1 view .LVU252
 989 0010 0020     		moveq	r0, #0
 990 0012 08BD     		pop	{r3, pc}
 991              		.cfi_endproc
 992              	.LFE3440:
 994              		.section	.text.CMW_VD66GY_ListWBRefModes,"ax",%progbits
 995              		.align	1
 996              		.global	CMW_VD66GY_ListWBRefModes
 997              		.syntax unified
 998              		.thumb
 999              		.thumb_func
 1001              	CMW_VD66GY_ListWBRefModes:
 1002              	.LVL93:
 1003              	.LFB3441:
 493:Lib/Camera_Middleware/sensors/cmw_vd66gy.c ****   int ret = CMW_ERROR_NONE;
 1004              		.loc 1 493 1 is_stmt 1 view -0
 1005              		.cfi_startproc
 1006              		@ args = 0, pretend = 0, frame = 0
 1007              		@ frame_needed = 0, uses_anonymous_args = 0
 494:Lib/Camera_Middleware/sensors/cmw_vd66gy.c **** 
 1008              		.loc 1 494 3 view .LVU254
 496:Lib/Camera_Middleware/sensors/cmw_vd66gy.c ****   if (ret)
 1009              		.loc 1 496 3 view .LVU255
 493:Lib/Camera_Middleware/sensors/cmw_vd66gy.c ****   int ret = CMW_ERROR_NONE;
 1010              		.loc 1 493 1 is_stmt 0 view .LVU256
 1011 0000 08B5     		push	{r3, lr}
 1012              		.cfi_def_cfa_offset 8
 1013              		.cfi_offset 3, -8
 1014              		.cfi_offset 14, -4
 496:Lib/Camera_Middleware/sensors/cmw_vd66gy.c ****   if (ret)
 1015              		.loc 1 496 9 view .LVU257
 1016 0002 6C30     		adds	r0, r0, #108
ARM GAS  C:\Users\DJESSOU\AppData\Local\Temp\ccSNWOEX.s 			page 32


 1017              	.LVL94:
 496:Lib/Camera_Middleware/sensors/cmw_vd66gy.c ****   if (ret)
 1018              		.loc 1 496 9 view .LVU258
 1019 0004 FFF7FEFF 		bl	ISP_ListWBRefModes
 1020              	.LVL95:
 497:Lib/Camera_Middleware/sensors/cmw_vd66gy.c ****   {
 1021              		.loc 1 497 3 is_stmt 1 view .LVU259
 502:Lib/Camera_Middleware/sensors/cmw_vd66gy.c **** }
 1022              		.loc 1 502 10 is_stmt 0 view .LVU260
 1023 0008 0028     		cmp	r0, #0
 503:Lib/Camera_Middleware/sensors/cmw_vd66gy.c **** 
 1024              		.loc 1 503 1 view .LVU261
 1025 000a 14BF     		ite	ne
 1026 000c 6FF00300 		mvnne	r0, #3
 1027              	.LVL96:
 503:Lib/Camera_Middleware/sensors/cmw_vd66gy.c **** 
 1028              		.loc 1 503 1 view .LVU262
 1029 0010 0020     		moveq	r0, #0
 1030 0012 08BD     		pop	{r3, pc}
 1031              		.cfi_endproc
 1032              	.LFE3441:
 1034              		.section	.rodata.CMW_VD66GY_GetSensorInfo.str1.1,"aMS",%progbits,1
 1035              	.LC0:
 1036 0000 56443636 		.ascii	"VD66GY\000"
 1036      475900
 1037              		.section	.text.CMW_VD66GY_GetSensorInfo,"ax",%progbits
 1038              		.align	1
 1039              		.global	CMW_VD66GY_GetSensorInfo
 1040              		.syntax unified
 1041              		.thumb
 1042              		.thumb_func
 1044              	CMW_VD66GY_GetSensorInfo:
 1045              	.LVL97:
 1046              	.LFB3442:
 512:Lib/Camera_Middleware/sensors/cmw_vd66gy.c ****   uint8_t again_regmin, again_regmax;
 1047              		.loc 1 512 1 is_stmt 1 view -0
 1048              		.cfi_startproc
 1049              		@ args = 0, pretend = 0, frame = 8
 1050              		@ frame_needed = 0, uses_anonymous_args = 0
 513:Lib/Camera_Middleware/sensors/cmw_vd66gy.c ****   uint16_t dgain_regmin, dgain_regmax;
 1051              		.loc 1 513 3 view .LVU264
 514:Lib/Camera_Middleware/sensors/cmw_vd66gy.c ****   uint32_t again_min_mdB, again_max_mdB;
 1052              		.loc 1 514 3 view .LVU265
 515:Lib/Camera_Middleware/sensors/cmw_vd66gy.c ****   uint32_t dgain_min_mdB, dgain_max_mdB;
 1053              		.loc 1 515 3 view .LVU266
 516:Lib/Camera_Middleware/sensors/cmw_vd66gy.c **** 
 1054              		.loc 1 516 3 view .LVU267
 518:Lib/Camera_Middleware/sensors/cmw_vd66gy.c **** 
 1055              		.loc 1 518 3 view .LVU268
 520:Lib/Camera_Middleware/sensors/cmw_vd66gy.c ****     return CMW_ERROR_WRONG_PARAM;
 1056              		.loc 1 520 3 view .LVU269
 512:Lib/Camera_Middleware/sensors/cmw_vd66gy.c ****   uint8_t again_regmin, again_regmax;
 1057              		.loc 1 512 1 is_stmt 0 view .LVU270
 1058 0000 70B5     		push	{r4, r5, r6, lr}
 1059              		.cfi_def_cfa_offset 16
 1060              		.cfi_offset 4, -16
 1061              		.cfi_offset 5, -12
ARM GAS  C:\Users\DJESSOU\AppData\Local\Temp\ccSNWOEX.s 			page 33


 1062              		.cfi_offset 6, -8
 1063              		.cfi_offset 14, -4
 1064 0002 2DED0A8B 		vpush.64	{d8, d9, d10, d11, d12}
 1065              		.cfi_def_cfa_offset 56
 1066              		.cfi_offset 80, -56
 1067              		.cfi_offset 81, -52
 1068              		.cfi_offset 82, -48
 1069              		.cfi_offset 83, -44
 1070              		.cfi_offset 84, -40
 1071              		.cfi_offset 85, -36
 1072              		.cfi_offset 86, -32
 1073              		.cfi_offset 87, -28
 1074              		.cfi_offset 88, -24
 1075              		.cfi_offset 89, -20
 1076 0006 0C46     		mov	r4, r1
 520:Lib/Camera_Middleware/sensors/cmw_vd66gy.c ****     return CMW_ERROR_WRONG_PARAM;
 1077              		.loc 1 520 6 view .LVU271
 1078 0008 0546     		mov	r5, r0
 512:Lib/Camera_Middleware/sensors/cmw_vd66gy.c ****   uint8_t again_regmin, again_regmax;
 1079              		.loc 1 512 1 view .LVU272
 1080 000a 82B0     		sub	sp, sp, #8
 1081              		.cfi_def_cfa_offset 64
 520:Lib/Camera_Middleware/sensors/cmw_vd66gy.c ****     return CMW_ERROR_WRONG_PARAM;
 1082              		.loc 1 520 6 view .LVU273
 1083 000c 0028     		cmp	r0, #0
 1084 000e 00F09F80 		beq	.L44
 520:Lib/Camera_Middleware/sensors/cmw_vd66gy.c ****     return CMW_ERROR_WRONG_PARAM;
 1085              		.loc 1 520 17 discriminator 1 view .LVU274
 1086 0012 0029     		cmp	r1, #0
 1087 0014 00F09C80 		beq	.L44
 524:Lib/Camera_Middleware/sensors/cmw_vd66gy.c ****   {
 1088              		.loc 1 524 3 is_stmt 1 view .LVU275
 526:Lib/Camera_Middleware/sensors/cmw_vd66gy.c ****   }
 1089              		.loc 1 526 5 view .LVU276
 1090 0018 5149     		ldr	r1, .L45+8
 1091              	.LVL98:
 526:Lib/Camera_Middleware/sensors/cmw_vd66gy.c ****   }
 1092              		.loc 1 526 5 is_stmt 0 view .LVU277
 1093 001a 2046     		mov	r0, r4
 1094              	.LVL99:
 526:Lib/Camera_Middleware/sensors/cmw_vd66gy.c ****   }
 1095              		.loc 1 526 5 view .LVU278
 1096 001c FFF7FEFF 		bl	strcpy
 1097              	.LVL100:
 534:Lib/Camera_Middleware/sensors/cmw_vd66gy.c **** 
 1098              		.loc 1 534 3 is_stmt 1 view .LVU279
 534:Lib/Camera_Middleware/sensors/cmw_vd66gy.c **** 
 1099              		.loc 1 534 68 is_stmt 0 view .LVU280
 1100 0020 95F82C30 		ldrb	r3, [r5, #44]	@ zero_extendqisi2
 541:Lib/Camera_Middleware/sensors/cmw_vd66gy.c **** 
 1101              		.loc 1 541 16 view .LVU281
 1102 0024 4FF48C62 		mov	r2, #1120
 534:Lib/Camera_Middleware/sensors/cmw_vd66gy.c **** 
 1103              		.loc 1 534 68 view .LVU282
 1104 0028 013B     		subs	r3, r3, #1
 534:Lib/Camera_Middleware/sensors/cmw_vd66gy.c **** 
 1105              		.loc 1 534 23 view .LVU283
ARM GAS  C:\Users\DJESSOU\AppData\Local\Temp\ccSNWOEX.s 			page 34


 1106 002a 84F82030 		strb	r3, [r4, #32]
 537:Lib/Camera_Middleware/sensors/cmw_vd66gy.c **** 
 1107              		.loc 1 537 3 is_stmt 1 view .LVU284
 537:Lib/Camera_Middleware/sensors/cmw_vd66gy.c **** 
 1108              		.loc 1 537 21 is_stmt 0 view .LVU285
 1109 002e 0823     		movs	r3, #8
 1110 0030 84F82130 		strb	r3, [r4, #33]
 540:Lib/Camera_Middleware/sensors/cmw_vd66gy.c ****   info->height = VD6G_MAX_HEIGHT;
 1111              		.loc 1 540 3 is_stmt 1 view .LVU286
 541:Lib/Camera_Middleware/sensors/cmw_vd66gy.c **** 
 1112              		.loc 1 541 16 is_stmt 0 view .LVU287
 1113 0034 40F25453 		movw	r3, #1364
 544:Lib/Camera_Middleware/sensors/cmw_vd66gy.c ****   if (ret)
 1114              		.loc 1 544 9 view .LVU288
 1115 0038 0435     		adds	r5, r5, #4
 1116              	.LVL101:
 541:Lib/Camera_Middleware/sensors/cmw_vd66gy.c **** 
 1117              		.loc 1 541 16 view .LVU289
 1118 003a C4E90923 		strd	r2, r3, [r4, #36]
 544:Lib/Camera_Middleware/sensors/cmw_vd66gy.c ****   if (ret)
 1119              		.loc 1 544 3 is_stmt 1 view .LVU290
 544:Lib/Camera_Middleware/sensors/cmw_vd66gy.c ****   if (ret)
 1120              		.loc 1 544 9 is_stmt 0 view .LVU291
 1121 003e 2846     		mov	r0, r5
 1122 0040 0DF10302 		add	r2, sp, #3
 1123 0044 0DF10201 		add	r1, sp, #2
 1124 0048 FFF7FEFF 		bl	VD6G_GetAnalogGainRegRange
 1125              	.LVL102:
 545:Lib/Camera_Middleware/sensors/cmw_vd66gy.c ****     return ret;
 1126              		.loc 1 545 3 is_stmt 1 view .LVU292
 545:Lib/Camera_Middleware/sensors/cmw_vd66gy.c ****     return ret;
 1127              		.loc 1 545 6 is_stmt 0 view .LVU293
 1128 004c 0028     		cmp	r0, #0
 1129 004e 7BD1     		bne	.L41
 548:Lib/Camera_Middleware/sensors/cmw_vd66gy.c ****   if (ret)
 1130              		.loc 1 548 3 is_stmt 1 view .LVU294
 548:Lib/Camera_Middleware/sensors/cmw_vd66gy.c ****   if (ret)
 1131              		.loc 1 548 9 is_stmt 0 view .LVU295
 1132 0050 2846     		mov	r0, r5
 1133              	.LVL103:
 548:Lib/Camera_Middleware/sensors/cmw_vd66gy.c ****   if (ret)
 1134              		.loc 1 548 9 view .LVU296
 1135 0052 0DF10602 		add	r2, sp, #6
 1136 0056 01A9     		add	r1, sp, #4
 1137 0058 FFF7FEFF 		bl	VD6G_GetDigitalGainRegRange
 1138              	.LVL104:
 549:Lib/Camera_Middleware/sensors/cmw_vd66gy.c ****     return ret;
 1139              		.loc 1 549 3 is_stmt 1 view .LVU297
 549:Lib/Camera_Middleware/sensors/cmw_vd66gy.c ****     return ret;
 1140              		.loc 1 549 6 is_stmt 0 view .LVU298
 1141 005c 0028     		cmp	r0, #0
 1142 005e 73D1     		bne	.L41
 552:Lib/Camera_Middleware/sensors/cmw_vd66gy.c ****   again_max_mdB = (uint32_t) LINEAR_TO_MDECIBEL(32 / (32 - again_regmax));
 1143              		.loc 1 552 3 is_stmt 1 view .LVU299
 552:Lib/Camera_Middleware/sensors/cmw_vd66gy.c ****   again_max_mdB = (uint32_t) LINEAR_TO_MDECIBEL(32 / (32 - again_regmax));
 1144              		.loc 1 552 30 is_stmt 0 view .LVU300
 1145 0060 2026     		movs	r6, #32
ARM GAS  C:\Users\DJESSOU\AppData\Local\Temp\ccSNWOEX.s 			page 35


 1146 0062 9DF80230 		ldrb	r3, [sp, #2]	@ zero_extendqisi2
 553:Lib/Camera_Middleware/sensors/cmw_vd66gy.c ****   dgain_min_mdB = (uint32_t) LINEAR_TO_MDECIBEL(FP58_TO_FLOAT(dgain_regmin));
 1147              		.loc 1 553 30 discriminator 1 view .LVU301
 1148 0066 B3EE04BB 		vmov.f64	d11, #2.0e+1
 552:Lib/Camera_Middleware/sensors/cmw_vd66gy.c ****   again_max_mdB = (uint32_t) LINEAR_TO_MDECIBEL(32 / (32 - again_regmax));
 1149              		.loc 1 552 30 view .LVU302
 1150 006a C3F12003 		rsb	r3, r3, #32
 1151 006e 96FBF3F3 		sdiv	r3, r6, r3
 1152 0072 00EE103A 		vmov	s0, r3	@ int
 1153 0076 B8EEC00B 		vcvt.f64.s32	d0, s0
 1154 007a FFF7FEFF 		bl	log10
 1155              	.LVL105:
 553:Lib/Camera_Middleware/sensors/cmw_vd66gy.c ****   dgain_min_mdB = (uint32_t) LINEAR_TO_MDECIBEL(FP58_TO_FLOAT(dgain_regmin));
 1156              		.loc 1 553 30 view .LVU303
 1157 007e 9DF80330 		ldrb	r3, [sp, #3]	@ zero_extendqisi2
 552:Lib/Camera_Middleware/sensors/cmw_vd66gy.c ****   again_max_mdB = (uint32_t) LINEAR_TO_MDECIBEL(32 / (32 - again_regmax));
 1158              		.loc 1 552 30 view .LVU304
 1159 0082 B0EE408B 		vmov.f64	d8, d0
 1160              	.LVL106:
 553:Lib/Camera_Middleware/sensors/cmw_vd66gy.c ****   dgain_min_mdB = (uint32_t) LINEAR_TO_MDECIBEL(FP58_TO_FLOAT(dgain_regmin));
 1161              		.loc 1 553 3 is_stmt 1 view .LVU305
 553:Lib/Camera_Middleware/sensors/cmw_vd66gy.c ****   dgain_min_mdB = (uint32_t) LINEAR_TO_MDECIBEL(FP58_TO_FLOAT(dgain_regmin));
 1162              		.loc 1 553 30 is_stmt 0 view .LVU306
 1163 0086 F31A     		subs	r3, r6, r3
 1164 0088 96FBF3F3 		sdiv	r3, r6, r3
 1165 008c 00EE103A 		vmov	s0, r3	@ int
 1166              	.LVL107:
 553:Lib/Camera_Middleware/sensors/cmw_vd66gy.c ****   dgain_min_mdB = (uint32_t) LINEAR_TO_MDECIBEL(FP58_TO_FLOAT(dgain_regmin));
 1167              		.loc 1 553 30 view .LVU307
 1168 0090 B8EEC00B 		vcvt.f64.s32	d0, s0
 1169 0094 FFF7FEFF 		bl	log10
 1170              	.LVL108:
 553:Lib/Camera_Middleware/sensors/cmw_vd66gy.c ****   dgain_min_mdB = (uint32_t) LINEAR_TO_MDECIBEL(FP58_TO_FLOAT(dgain_regmin));
 1171              		.loc 1 553 30 discriminator 1 view .LVU308
 1172 0098 9FED2FAB 		vldr.64	d10, .L45
 1173 009c 20EE0B0B 		vmul.f64	d0, d0, d11
 1174 00a0 20EE0A0B 		vmul.f64	d0, d0, d10
 553:Lib/Camera_Middleware/sensors/cmw_vd66gy.c ****   dgain_min_mdB = (uint32_t) LINEAR_TO_MDECIBEL(FP58_TO_FLOAT(dgain_regmin));
 1175              		.loc 1 553 17 discriminator 1 view .LVU309
 1176 00a4 FCEEC07B 		vcvt.u32.f64	s15, d0
 554:Lib/Camera_Middleware/sensors/cmw_vd66gy.c ****   dgain_max_mdB = (uint32_t) LINEAR_TO_MDECIBEL(FP58_TO_FLOAT(dgain_regmax));
 1177              		.loc 1 554 30 view .LVU310
 1178 00a8 BDF80430 		ldrh	r3, [sp, #4]
 1179 00ac 9DF80420 		ldrb	r2, [sp, #4]	@ zero_extendqisi2
 1180 00b0 1B0A     		lsrs	r3, r3, #8
 553:Lib/Camera_Middleware/sensors/cmw_vd66gy.c ****   dgain_min_mdB = (uint32_t) LINEAR_TO_MDECIBEL(FP58_TO_FLOAT(dgain_regmin));
 1181              		.loc 1 553 17 discriminator 1 view .LVU311
 1182 00b2 17EE906A 		vmov	r6, s15	@ int
 1183              	.LVL109:
 554:Lib/Camera_Middleware/sensors/cmw_vd66gy.c ****   dgain_max_mdB = (uint32_t) LINEAR_TO_MDECIBEL(FP58_TO_FLOAT(dgain_regmax));
 1184              		.loc 1 554 3 is_stmt 1 view .LVU312
 554:Lib/Camera_Middleware/sensors/cmw_vd66gy.c ****   dgain_max_mdB = (uint32_t) LINEAR_TO_MDECIBEL(FP58_TO_FLOAT(dgain_regmax));
 1185              		.loc 1 554 30 is_stmt 0 view .LVU313
 1186 00b6 00EE103A 		vmov	s0, r3	@ int
 1187 00ba 07EE902A 		vmov	s15, r2	@ int
 1188 00be 9FED29CA 		vldr.32	s24, .L45+12
 1189 00c2 F8EEE77A 		vcvt.f32.s32	s15, s15
ARM GAS  C:\Users\DJESSOU\AppData\Local\Temp\ccSNWOEX.s 			page 36


 1190 00c6 B8EEC00A 		vcvt.f32.s32	s0, s0
 1191 00ca A7EE8C0A 		vfma.f32	s0, s15, s24
 1192 00ce B7EEC00A 		vcvt.f64.f32	d0, s0
 1193 00d2 FFF7FEFF 		bl	log10
 1194              	.LVL110:
 555:Lib/Camera_Middleware/sensors/cmw_vd66gy.c **** 
 1195              		.loc 1 555 30 view .LVU314
 1196 00d6 BDF80630 		ldrh	r3, [sp, #6]
 1197 00da 9DF80620 		ldrb	r2, [sp, #6]	@ zero_extendqisi2
 1198 00de 1B0A     		lsrs	r3, r3, #8
 554:Lib/Camera_Middleware/sensors/cmw_vd66gy.c ****   dgain_max_mdB = (uint32_t) LINEAR_TO_MDECIBEL(FP58_TO_FLOAT(dgain_regmax));
 1199              		.loc 1 554 30 view .LVU315
 1200 00e0 B0EE409B 		vmov.f64	d9, d0
 1201              	.LVL111:
 555:Lib/Camera_Middleware/sensors/cmw_vd66gy.c **** 
 1202              		.loc 1 555 3 is_stmt 1 view .LVU316
 555:Lib/Camera_Middleware/sensors/cmw_vd66gy.c **** 
 1203              		.loc 1 555 30 is_stmt 0 view .LVU317
 1204 00e4 07EE902A 		vmov	s15, r2	@ int
 1205 00e8 00EE103A 		vmov	s0, r3	@ int
 1206              	.LVL112:
 555:Lib/Camera_Middleware/sensors/cmw_vd66gy.c **** 
 1207              		.loc 1 555 30 view .LVU318
 1208 00ec F8EEE77A 		vcvt.f32.s32	s15, s15
 1209 00f0 B8EEC00A 		vcvt.f32.s32	s0, s0
 1210 00f4 A7EE8C0A 		vfma.f32	s0, s15, s24
 1211 00f8 B7EEC00A 		vcvt.f64.f32	d0, s0
 1212 00fc FFF7FEFF 		bl	log10
 1213              	.LVL113:
 557:Lib/Camera_Middleware/sensors/cmw_vd66gy.c ****   info->gain_max = again_max_mdB + dgain_max_mdB;
 1214              		.loc 1 557 3 is_stmt 1 view .LVU319
 552:Lib/Camera_Middleware/sensors/cmw_vd66gy.c ****   again_max_mdB = (uint32_t) LINEAR_TO_MDECIBEL(32 / (32 - again_regmax));
 1215              		.loc 1 552 30 is_stmt 0 discriminator 1 view .LVU320
 1216 0100 28EE0B8B 		vmul.f64	d8, d8, d11
 1217              	.LVL114:
 554:Lib/Camera_Middleware/sensors/cmw_vd66gy.c ****   dgain_max_mdB = (uint32_t) LINEAR_TO_MDECIBEL(FP58_TO_FLOAT(dgain_regmax));
 1218              		.loc 1 554 30 discriminator 1 view .LVU321
 1219 0104 29EE0B9B 		vmul.f64	d9, d9, d11
 1220              	.LVL115:
 552:Lib/Camera_Middleware/sensors/cmw_vd66gy.c ****   again_max_mdB = (uint32_t) LINEAR_TO_MDECIBEL(32 / (32 - again_regmax));
 1221              		.loc 1 552 30 discriminator 1 view .LVU322
 1222 0108 28EE0A8B 		vmul.f64	d8, d8, d10
 554:Lib/Camera_Middleware/sensors/cmw_vd66gy.c ****   dgain_max_mdB = (uint32_t) LINEAR_TO_MDECIBEL(FP58_TO_FLOAT(dgain_regmax));
 1223              		.loc 1 554 30 discriminator 1 view .LVU323
 1224 010c 29EE0A9B 		vmul.f64	d9, d9, d10
 555:Lib/Camera_Middleware/sensors/cmw_vd66gy.c **** 
 1225              		.loc 1 555 30 discriminator 1 view .LVU324
 1226 0110 20EE0B0B 		vmul.f64	d0, d0, d11
 1227              	.LVL116:
 552:Lib/Camera_Middleware/sensors/cmw_vd66gy.c ****   again_max_mdB = (uint32_t) LINEAR_TO_MDECIBEL(32 / (32 - again_regmax));
 1228              		.loc 1 552 17 discriminator 1 view .LVU325
 1229 0114 BCEEC88B 		vcvt.u32.f64	s16, d8
 554:Lib/Camera_Middleware/sensors/cmw_vd66gy.c ****   dgain_max_mdB = (uint32_t) LINEAR_TO_MDECIBEL(FP58_TO_FLOAT(dgain_regmax));
 1230              		.loc 1 554 17 discriminator 1 view .LVU326
 1231 0118 BCEEC99B 		vcvt.u32.f64	s18, d9
 555:Lib/Camera_Middleware/sensors/cmw_vd66gy.c **** 
 1232              		.loc 1 555 30 discriminator 1 view .LVU327
ARM GAS  C:\Users\DJESSOU\AppData\Local\Temp\ccSNWOEX.s 			page 37


 1233 011c 20EE0A0B 		vmul.f64	d0, d0, d10
 557:Lib/Camera_Middleware/sensors/cmw_vd66gy.c ****   info->gain_max = again_max_mdB + dgain_max_mdB;
 1234              		.loc 1 557 34 view .LVU328
 1235 0120 19EE102A 		vmov	r2, s18	@ int
 1236 0124 18EE103A 		vmov	r3, s16	@ int
 555:Lib/Camera_Middleware/sensors/cmw_vd66gy.c **** 
 1237              		.loc 1 555 17 discriminator 1 view .LVU329
 1238 0128 BCEEC00B 		vcvt.u32.f64	s0, d0
 557:Lib/Camera_Middleware/sensors/cmw_vd66gy.c ****   info->gain_max = again_max_mdB + dgain_max_mdB;
 1239              		.loc 1 557 34 view .LVU330
 1240 012c 1344     		add	r3, r3, r2
 557:Lib/Camera_Middleware/sensors/cmw_vd66gy.c ****   info->gain_max = again_max_mdB + dgain_max_mdB;
 1241              		.loc 1 557 18 view .LVU331
 1242 012e E362     		str	r3, [r4, #44]
 558:Lib/Camera_Middleware/sensors/cmw_vd66gy.c ****   info->again_max = again_max_mdB;
 1243              		.loc 1 558 3 is_stmt 1 view .LVU332
 558:Lib/Camera_Middleware/sensors/cmw_vd66gy.c ****   info->again_max = again_max_mdB;
 1244              		.loc 1 558 34 is_stmt 0 view .LVU333
 1245 0130 10EE103A 		vmov	r3, s0	@ int
 1246 0134 3344     		add	r3, r3, r6
 562:Lib/Camera_Middleware/sensors/cmw_vd66gy.c ****   if (ret)
 1247              		.loc 1 562 9 view .LVU334
 1248 0136 2846     		mov	r0, r5
 559:Lib/Camera_Middleware/sensors/cmw_vd66gy.c **** 
 1249              		.loc 1 559 19 view .LVU335
 1250 0138 C4E90C36 		strd	r3, r6, [r4, #48]
 562:Lib/Camera_Middleware/sensors/cmw_vd66gy.c ****   if (ret)
 1251              		.loc 1 562 3 is_stmt 1 view .LVU336
 562:Lib/Camera_Middleware/sensors/cmw_vd66gy.c ****   if (ret)
 1252              		.loc 1 562 9 is_stmt 0 view .LVU337
 1253 013c 04F13C02 		add	r2, r4, #60
 1254 0140 04F13801 		add	r1, r4, #56
 1255 0144 FFF7FEFF 		bl	VD6G_GetExposureRegRange
 1256              	.LVL117:
 563:Lib/Camera_Middleware/sensors/cmw_vd66gy.c ****     return ret;
 1257              		.loc 1 563 3 is_stmt 1 view .LVU338
 1258              	.L41:
 567:Lib/Camera_Middleware/sensors/cmw_vd66gy.c **** 
 1259              		.loc 1 567 1 is_stmt 0 view .LVU339
 1260 0148 02B0     		add	sp, sp, #8
 1261              		.cfi_remember_state
 1262              		.cfi_def_cfa_offset 56
 1263              		@ sp needed
 1264 014a BDEC0A8B 		vldm	sp!, {d8-d12}
 1265              		.cfi_restore 88
 1266              		.cfi_restore 89
 1267              		.cfi_restore 86
 1268              		.cfi_restore 87
 1269              		.cfi_restore 84
 1270              		.cfi_restore 85
 1271              		.cfi_restore 82
 1272              		.cfi_restore 83
 1273              		.cfi_restore 80
 1274              		.cfi_restore 81
 1275              		.cfi_def_cfa_offset 16
 1276 014e 70BD     		pop	{r4, r5, r6, pc}
 1277              	.LVL118:
ARM GAS  C:\Users\DJESSOU\AppData\Local\Temp\ccSNWOEX.s 			page 38


 1278              	.L44:
 1279              		.cfi_restore_state
 521:Lib/Camera_Middleware/sensors/cmw_vd66gy.c **** 
 1280              		.loc 1 521 12 view .LVU340
 1281 0150 6FF00100 		mvn	r0, #1
 1282              	.LVL119:
 521:Lib/Camera_Middleware/sensors/cmw_vd66gy.c **** 
 1283              		.loc 1 521 12 view .LVU341
 1284 0154 F8E7     		b	.L41
 1285              	.L46:
 1286 0156 00BF     		.align	3
 1287              	.L45:
 1288 0158 00000000 		.word	0
 1289 015c 00408F40 		.word	1083129856
 1290 0160 00000000 		.word	.LC0
 1291 0164 0000803B 		.word	998244352
 1292              		.cfi_endproc
 1293              	.LFE3442:
 1295              		.section	.text.CMW_VD66GY_Stop,"ax",%progbits
 1296              		.align	1
 1297              		.syntax unified
 1298              		.thumb
 1299              		.thumb_func
 1301              	CMW_VD66GY_Stop:
 1302              	.LVL120:
 1303              	.LFB3435:
 341:Lib/Camera_Middleware/sensors/cmw_vd66gy.c ****   int ret = CMW_ERROR_NONE;
 1304              		.loc 1 341 1 is_stmt 1 view -0
 1305              		.cfi_startproc
 1306              		@ args = 0, pretend = 0, frame = 0
 1307              		@ frame_needed = 0, uses_anonymous_args = 0
 342:Lib/Camera_Middleware/sensors/cmw_vd66gy.c **** 
 1308              		.loc 1 342 3 view .LVU343
 344:Lib/Camera_Middleware/sensors/cmw_vd66gy.c ****   if (ret)
 1309              		.loc 1 344 3 view .LVU344
 341:Lib/Camera_Middleware/sensors/cmw_vd66gy.c ****   int ret = CMW_ERROR_NONE;
 1310              		.loc 1 341 1 is_stmt 0 view .LVU345
 1311 0000 08B5     		push	{r3, lr}
 1312              		.cfi_def_cfa_offset 8
 1313              		.cfi_offset 3, -8
 1314              		.cfi_offset 14, -4
 344:Lib/Camera_Middleware/sensors/cmw_vd66gy.c ****   if (ret)
 1315              		.loc 1 344 9 view .LVU346
 1316 0002 0430     		adds	r0, r0, #4
 1317              	.LVL121:
 344:Lib/Camera_Middleware/sensors/cmw_vd66gy.c ****   if (ret)
 1318              		.loc 1 344 9 view .LVU347
 1319 0004 FFF7FEFF 		bl	VD6G_Stop
 1320              	.LVL122:
 345:Lib/Camera_Middleware/sensors/cmw_vd66gy.c ****   {
 1321              		.loc 1 345 3 is_stmt 1 view .LVU348
 347:Lib/Camera_Middleware/sensors/cmw_vd66gy.c ****   }
 1322              		.loc 1 347 12 is_stmt 0 view .LVU349
 1323 0008 0028     		cmp	r0, #0
 350:Lib/Camera_Middleware/sensors/cmw_vd66gy.c **** 
 1324              		.loc 1 350 1 view .LVU350
 1325 000a 18BF     		it	ne
ARM GAS  C:\Users\DJESSOU\AppData\Local\Temp\ccSNWOEX.s 			page 39


 1326 000c 6FF00300 		mvnne	r0, #3
 1327              	.LVL123:
 350:Lib/Camera_Middleware/sensors/cmw_vd66gy.c **** 
 1328              		.loc 1 350 1 view .LVU351
 1329 0010 08BD     		pop	{r3, pc}
 1330              		.cfi_endproc
 1331              	.LFE3435:
 1333              		.section	.text.CMW_VD66GY_Start,"ax",%progbits
 1334              		.align	1
 1335              		.syntax unified
 1336              		.thumb
 1337              		.thumb_func
 1339              	CMW_VD66GY_Start:
 1340              	.LVL124:
 1341              	.LFB3433:
 299:Lib/Camera_Middleware/sensors/cmw_vd66gy.c ****   int ret = CMW_ERROR_NONE;
 1342              		.loc 1 299 1 is_stmt 1 view -0
 1343              		.cfi_startproc
 1344              		@ args = 0, pretend = 0, frame = 0
 1345              		@ frame_needed = 0, uses_anonymous_args = 0
 300:Lib/Camera_Middleware/sensors/cmw_vd66gy.c **** 
 1346              		.loc 1 300 3 view .LVU353
 306:Lib/Camera_Middleware/sensors/cmw_vd66gy.c ****   ret = ISP_Init(&((CMW_VD66GY_t *)io_ctx)->hIsp, ((CMW_VD66GY_t *)io_ctx)->hdcmipp, 0, &((CMW_VD66
 1347              		.loc 1 306 3 view .LVU354
 307:Lib/Camera_Middleware/sensors/cmw_vd66gy.c ****   if (ret != ISP_OK)
 1348              		.loc 1 307 3 view .LVU355
 299:Lib/Camera_Middleware/sensors/cmw_vd66gy.c ****   int ret = CMW_ERROR_NONE;
 1349              		.loc 1 299 1 is_stmt 0 view .LVU356
 1350 0000 37B5     		push	{r0, r1, r2, r4, r5, lr}
 1351              		.cfi_def_cfa_offset 24
 1352              		.cfi_offset 4, -12
 1353              		.cfi_offset 5, -8
 1354              		.cfi_offset 14, -4
 307:Lib/Camera_Middleware/sensors/cmw_vd66gy.c ****   if (ret != ISP_OK)
 1355              		.loc 1 307 9 view .LVU357
 1356 0002 104B     		ldr	r3, .L57
 1357 0004 00F16C05 		add	r5, r0, #108
 1358 0008 0093     		str	r3, [sp]
 299:Lib/Camera_Middleware/sensors/cmw_vd66gy.c ****   int ret = CMW_ERROR_NONE;
 1359              		.loc 1 299 1 view .LVU358
 1360 000a 0446     		mov	r4, r0
 307:Lib/Camera_Middleware/sensors/cmw_vd66gy.c ****   if (ret != ISP_OK)
 1361              		.loc 1 307 9 view .LVU359
 1362 000c D0F81C11 		ldr	r1, [r0, #284]
 1363 0010 00F1F803 		add	r3, r0, #248
 1364 0014 0022     		movs	r2, #0
 1365 0016 2846     		mov	r0, r5
 1366              	.LVL125:
 307:Lib/Camera_Middleware/sensors/cmw_vd66gy.c ****   if (ret != ISP_OK)
 1367              		.loc 1 307 9 view .LVU360
 1368 0018 FFF7FEFF 		bl	ISP_Init
 1369              	.LVL126:
 308:Lib/Camera_Middleware/sensors/cmw_vd66gy.c ****   {
 1370              		.loc 1 308 3 is_stmt 1 view .LVU361
 308:Lib/Camera_Middleware/sensors/cmw_vd66gy.c ****   {
 1371              		.loc 1 308 6 is_stmt 0 view .LVU362
 1372 001c 78B9     		cbnz	r0, .L53
ARM GAS  C:\Users\DJESSOU\AppData\Local\Temp\ccSNWOEX.s 			page 40


 313:Lib/Camera_Middleware/sensors/cmw_vd66gy.c ****   if (ret != ISP_OK)
 1373              		.loc 1 313 3 is_stmt 1 view .LVU363
 313:Lib/Camera_Middleware/sensors/cmw_vd66gy.c ****   if (ret != ISP_OK)
 1374              		.loc 1 313 9 is_stmt 0 view .LVU364
 1375 001e 2846     		mov	r0, r5
 1376              	.LVL127:
 313:Lib/Camera_Middleware/sensors/cmw_vd66gy.c ****   if (ret != ISP_OK)
 1377              		.loc 1 313 9 view .LVU365
 1378 0020 FFF7FEFF 		bl	ISP_Start
 1379              	.LVL128:
 314:Lib/Camera_Middleware/sensors/cmw_vd66gy.c ****   {
 1380              		.loc 1 314 3 is_stmt 1 view .LVU366
 314:Lib/Camera_Middleware/sensors/cmw_vd66gy.c ****   {
 1381              		.loc 1 314 6 is_stmt 0 view .LVU367
 1382 0024 38B9     		cbnz	r0, .L52
 319:Lib/Camera_Middleware/sensors/cmw_vd66gy.c ****   if (ret) {
 1383              		.loc 1 319 3 is_stmt 1 view .LVU368
 319:Lib/Camera_Middleware/sensors/cmw_vd66gy.c ****   if (ret) {
 1384              		.loc 1 319 9 is_stmt 0 view .LVU369
 1385 0026 0434     		adds	r4, r4, #4
 1386              	.LVL129:
 319:Lib/Camera_Middleware/sensors/cmw_vd66gy.c ****   if (ret) {
 1387              		.loc 1 319 9 view .LVU370
 1388 0028 2046     		mov	r0, r4
 1389              	.LVL130:
 319:Lib/Camera_Middleware/sensors/cmw_vd66gy.c ****   if (ret) {
 1390              		.loc 1 319 9 view .LVU371
 1391 002a FFF7FEFF 		bl	VD6G_Start
 1392              	.LVL131:
 320:Lib/Camera_Middleware/sensors/cmw_vd66gy.c ****     VD6G_DeInit(&((CMW_VD66GY_t *)io_ctx)->ctx_driver);
 1393              		.loc 1 320 3 is_stmt 1 view .LVU372
 320:Lib/Camera_Middleware/sensors/cmw_vd66gy.c ****     VD6G_DeInit(&((CMW_VD66GY_t *)io_ctx)->ctx_driver);
 1394              		.loc 1 320 6 is_stmt 0 view .LVU373
 1395 002e 20B1     		cbz	r0, .L50
 321:Lib/Camera_Middleware/sensors/cmw_vd66gy.c ****     return CMW_ERROR_PERIPH_FAILURE;
 1396              		.loc 1 321 5 is_stmt 1 view .LVU374
 1397 0030 2046     		mov	r0, r4
 1398              	.LVL132:
 321:Lib/Camera_Middleware/sensors/cmw_vd66gy.c ****     return CMW_ERROR_PERIPH_FAILURE;
 1399              		.loc 1 321 5 is_stmt 0 view .LVU375
 1400 0032 FFF7FEFF 		bl	VD6G_DeInit
 1401              	.LVL133:
 322:Lib/Camera_Middleware/sensors/cmw_vd66gy.c ****   }
 1402              		.loc 1 322 5 is_stmt 1 view .LVU376
 1403              	.L52:
 316:Lib/Camera_Middleware/sensors/cmw_vd66gy.c ****   }
 1404              		.loc 1 316 14 is_stmt 0 view .LVU377
 1405 0036 6FF00300 		mvn	r0, #3
 1406              	.L50:
 325:Lib/Camera_Middleware/sensors/cmw_vd66gy.c **** 
 1407              		.loc 1 325 1 view .LVU378
 1408 003a 03B0     		add	sp, sp, #12
 1409              		.cfi_remember_state
 1410              		.cfi_def_cfa_offset 12
 1411              		@ sp needed
 1412 003c 30BD     		pop	{r4, r5, pc}
 1413              	.LVL134:
ARM GAS  C:\Users\DJESSOU\AppData\Local\Temp\ccSNWOEX.s 			page 41


 1414              	.L53:
 1415              		.cfi_restore_state
 310:Lib/Camera_Middleware/sensors/cmw_vd66gy.c ****   }
 1416              		.loc 1 310 12 view .LVU379
 1417 003e 6FF00400 		mvn	r0, #4
 1418              	.LVL135:
 310:Lib/Camera_Middleware/sensors/cmw_vd66gy.c ****   }
 1419              		.loc 1 310 12 view .LVU380
 1420 0042 FAE7     		b	.L50
 1421              	.L58:
 1422              		.align	2
 1423              	.L57:
 1424 0044 00000000 		.word	ISP_IQParamCacheInit_VD66GY
 1425              		.cfi_endproc
 1426              	.LFE3433:
 1428              		.section	.text.CMW_VD66GY_DeInit,"ax",%progbits
 1429              		.align	1
 1430              		.syntax unified
 1431              		.thumb
 1432              		.thumb_func
 1434              	CMW_VD66GY_DeInit:
 1435              	.LVL136:
 1436              	.LFB3436:
 353:Lib/Camera_Middleware/sensors/cmw_vd66gy.c ****   int ret = CMW_ERROR_NONE;
 1437              		.loc 1 353 1 is_stmt 1 view -0
 1438              		.cfi_startproc
 1439              		@ args = 0, pretend = 0, frame = 0
 1440              		@ frame_needed = 0, uses_anonymous_args = 0
 354:Lib/Camera_Middleware/sensors/cmw_vd66gy.c **** 
 1441              		.loc 1 354 3 view .LVU382
 356:Lib/Camera_Middleware/sensors/cmw_vd66gy.c ****   if (ret)
 1442              		.loc 1 356 3 view .LVU383
 353:Lib/Camera_Middleware/sensors/cmw_vd66gy.c ****   int ret = CMW_ERROR_NONE;
 1443              		.loc 1 353 1 is_stmt 0 view .LVU384
 1444 0000 38B5     		push	{r3, r4, r5, lr}
 1445              		.cfi_def_cfa_offset 16
 1446              		.cfi_offset 3, -16
 1447              		.cfi_offset 4, -12
 1448              		.cfi_offset 5, -8
 1449              		.cfi_offset 14, -4
 356:Lib/Camera_Middleware/sensors/cmw_vd66gy.c ****   if (ret)
 1450              		.loc 1 356 9 view .LVU385
 1451 0002 051D     		adds	r5, r0, #4
 353:Lib/Camera_Middleware/sensors/cmw_vd66gy.c ****   int ret = CMW_ERROR_NONE;
 1452              		.loc 1 353 1 view .LVU386
 1453 0004 0446     		mov	r4, r0
 356:Lib/Camera_Middleware/sensors/cmw_vd66gy.c ****   if (ret)
 1454              		.loc 1 356 9 view .LVU387
 1455 0006 2846     		mov	r0, r5
 1456              	.LVL137:
 356:Lib/Camera_Middleware/sensors/cmw_vd66gy.c ****   if (ret)
 1457              		.loc 1 356 9 view .LVU388
 1458 0008 FFF7FEFF 		bl	VD6G_Stop
 1459              	.LVL138:
 357:Lib/Camera_Middleware/sensors/cmw_vd66gy.c ****   {
 1460              		.loc 1 357 3 is_stmt 1 view .LVU389
 357:Lib/Camera_Middleware/sensors/cmw_vd66gy.c ****   {
ARM GAS  C:\Users\DJESSOU\AppData\Local\Temp\ccSNWOEX.s 			page 42


 1461              		.loc 1 357 6 is_stmt 0 view .LVU390
 1462 000c 10B1     		cbz	r0, .L60
 1463              	.L62:
 359:Lib/Camera_Middleware/sensors/cmw_vd66gy.c ****   }
 1464              		.loc 1 359 12 view .LVU391
 1465 000e 6FF00300 		mvn	r0, #3
 1466              	.LVL139:
 1467              	.L59:
 370:Lib/Camera_Middleware/sensors/cmw_vd66gy.c **** 
 1468              		.loc 1 370 1 view .LVU392
 1469 0012 38BD     		pop	{r3, r4, r5, pc}
 1470              	.LVL140:
 1471              	.L60:
 362:Lib/Camera_Middleware/sensors/cmw_vd66gy.c ****   if (ret)
 1472              		.loc 1 362 3 is_stmt 1 view .LVU393
 362:Lib/Camera_Middleware/sensors/cmw_vd66gy.c ****   if (ret)
 1473              		.loc 1 362 9 is_stmt 0 view .LVU394
 1474 0014 2846     		mov	r0, r5
 1475              	.LVL141:
 362:Lib/Camera_Middleware/sensors/cmw_vd66gy.c ****   if (ret)
 1476              		.loc 1 362 9 view .LVU395
 1477 0016 FFF7FEFF 		bl	VD6G_DeInit
 1478              	.LVL142:
 363:Lib/Camera_Middleware/sensors/cmw_vd66gy.c ****   {
 1479              		.loc 1 363 3 is_stmt 1 view .LVU396
 363:Lib/Camera_Middleware/sensors/cmw_vd66gy.c ****   {
 1480              		.loc 1 363 6 is_stmt 0 view .LVU397
 1481 001a 0028     		cmp	r0, #0
 1482 001c F7D1     		bne	.L62
 368:Lib/Camera_Middleware/sensors/cmw_vd66gy.c ****   return CMW_ERROR_NONE;
 1483              		.loc 1 368 3 is_stmt 1 view .LVU398
 368:Lib/Camera_Middleware/sensors/cmw_vd66gy.c ****   return CMW_ERROR_NONE;
 1484              		.loc 1 368 43 is_stmt 0 view .LVU399
 1485 001e 84F82001 		strb	r0, [r4, #288]
 369:Lib/Camera_Middleware/sensors/cmw_vd66gy.c **** }
 1486              		.loc 1 369 3 is_stmt 1 view .LVU400
 369:Lib/Camera_Middleware/sensors/cmw_vd66gy.c **** }
 1487              		.loc 1 369 10 is_stmt 0 view .LVU401
 1488 0022 F6E7     		b	.L59
 1489              		.cfi_endproc
 1490              	.LFE3436:
 1492              		.section	.text.CMW_VD66GY_Run,"ax",%progbits
 1493              		.align	1
 1494              		.syntax unified
 1495              		.thumb
 1496              		.thumb_func
 1498              	CMW_VD66GY_Run:
 1499              	.LVL143:
 1500              	.LFB3434:
 328:Lib/Camera_Middleware/sensors/cmw_vd66gy.c **** #ifndef ISP_MW_TUNING_TOOL_SUPPORT
 1501              		.loc 1 328 1 is_stmt 1 view -0
 1502              		.cfi_startproc
 1503              		@ args = 0, pretend = 0, frame = 0
 1504              		@ frame_needed = 0, uses_anonymous_args = 0
 330:Lib/Camera_Middleware/sensors/cmw_vd66gy.c ****   ret = ISP_BackgroundProcess(&((CMW_VD66GY_t *)io_ctx)->hIsp);
 1505              		.loc 1 330 3 view .LVU403
 331:Lib/Camera_Middleware/sensors/cmw_vd66gy.c ****   if (ret != ISP_OK)
ARM GAS  C:\Users\DJESSOU\AppData\Local\Temp\ccSNWOEX.s 			page 43


 1506              		.loc 1 331 3 view .LVU404
 328:Lib/Camera_Middleware/sensors/cmw_vd66gy.c **** #ifndef ISP_MW_TUNING_TOOL_SUPPORT
 1507              		.loc 1 328 1 is_stmt 0 view .LVU405
 1508 0000 08B5     		push	{r3, lr}
 1509              		.cfi_def_cfa_offset 8
 1510              		.cfi_offset 3, -8
 1511              		.cfi_offset 14, -4
 331:Lib/Camera_Middleware/sensors/cmw_vd66gy.c ****   if (ret != ISP_OK)
 1512              		.loc 1 331 9 view .LVU406
 1513 0002 6C30     		adds	r0, r0, #108
 1514              	.LVL144:
 331:Lib/Camera_Middleware/sensors/cmw_vd66gy.c ****   if (ret != ISP_OK)
 1515              		.loc 1 331 9 view .LVU407
 1516 0004 FFF7FEFF 		bl	ISP_BackgroundProcess
 1517              	.LVL145:
 332:Lib/Camera_Middleware/sensors/cmw_vd66gy.c ****   {
 1518              		.loc 1 332 3 is_stmt 1 view .LVU408
 337:Lib/Camera_Middleware/sensors/cmw_vd66gy.c **** }
 1519              		.loc 1 337 10 is_stmt 0 view .LVU409
 1520 0008 0028     		cmp	r0, #0
 338:Lib/Camera_Middleware/sensors/cmw_vd66gy.c **** 
 1521              		.loc 1 338 1 view .LVU410
 1522 000a 14BF     		ite	ne
 1523 000c 6FF00300 		mvnne	r0, #3
 1524              	.LVL146:
 338:Lib/Camera_Middleware/sensors/cmw_vd66gy.c **** 
 1525              		.loc 1 338 1 view .LVU411
 1526 0010 0020     		moveq	r0, #0
 1527 0012 08BD     		pop	{r3, pc}
 1528              		.cfi_endproc
 1529              	.LFE3434:
 1531              		.section	.text.CMW_VD66GY_Init,"ax",%progbits
 1532              		.align	1
 1533              		.syntax unified
 1534              		.thumb
 1535              		.thumb_func
 1537              	CMW_VD66GY_Init:
 1538              	.LVL147:
 1539              	.LFB3431:
 235:Lib/Camera_Middleware/sensors/cmw_vd66gy.c ****   VD6G_Config_t config = { 0 };
 1540              		.loc 1 235 1 is_stmt 1 view -0
 1541              		.cfi_startproc
 1542              		@ args = 0, pretend = 0, frame = 56
 1543              		@ frame_needed = 0, uses_anonymous_args = 0
 236:Lib/Camera_Middleware/sensors/cmw_vd66gy.c ****   int ret;
 1544              		.loc 1 236 3 view .LVU413
 235:Lib/Camera_Middleware/sensors/cmw_vd66gy.c ****   VD6G_Config_t config = { 0 };
 1545              		.loc 1 235 1 is_stmt 0 view .LVU414
 1546 0000 70B5     		push	{r4, r5, r6, lr}
 1547              		.cfi_def_cfa_offset 16
 1548              		.cfi_offset 4, -16
 1549              		.cfi_offset 5, -12
 1550              		.cfi_offset 6, -8
 1551              		.cfi_offset 14, -4
 1552 0002 0C46     		mov	r4, r1
 1553 0004 8EB0     		sub	sp, sp, #56
 1554              		.cfi_def_cfa_offset 72
ARM GAS  C:\Users\DJESSOU\AppData\Local\Temp\ccSNWOEX.s 			page 44


 236:Lib/Camera_Middleware/sensors/cmw_vd66gy.c ****   int ret;
 1555              		.loc 1 236 17 view .LVU415
 1556 0006 0021     		movs	r1, #0
 1557              	.LVL148:
 235:Lib/Camera_Middleware/sensors/cmw_vd66gy.c ****   VD6G_Config_t config = { 0 };
 1558              		.loc 1 235 1 view .LVU416
 1559 0008 0546     		mov	r5, r0
 236:Lib/Camera_Middleware/sensors/cmw_vd66gy.c ****   int ret;
 1560              		.loc 1 236 17 view .LVU417
 1561 000a 3822     		movs	r2, #56
 1562 000c 6846     		mov	r0, sp
 1563              	.LVL149:
 236:Lib/Camera_Middleware/sensors/cmw_vd66gy.c ****   int ret;
 1564              		.loc 1 236 17 view .LVU418
 1565 000e FFF7FEFF 		bl	memset
 1566              	.LVL150:
 237:Lib/Camera_Middleware/sensors/cmw_vd66gy.c ****   int i;
 1567              		.loc 1 237 3 is_stmt 1 view .LVU419
 238:Lib/Camera_Middleware/sensors/cmw_vd66gy.c ****   CMW_VD66GY_config_t *sensor_config;
 1568              		.loc 1 238 3 view .LVU420
 239:Lib/Camera_Middleware/sensors/cmw_vd66gy.c ****   sensor_config = (CMW_VD66GY_config_t*)(initSensor->sensor_config);
 1569              		.loc 1 239 3 view .LVU421
 240:Lib/Camera_Middleware/sensors/cmw_vd66gy.c ****   if (sensor_config == NULL)
 1570              		.loc 1 240 3 view .LVU422
 240:Lib/Camera_Middleware/sensors/cmw_vd66gy.c ****   if (sensor_config == NULL)
 1571              		.loc 1 240 17 is_stmt 0 view .LVU423
 1572 0012 2169     		ldr	r1, [r4, #16]
 1573              	.LVL151:
 241:Lib/Camera_Middleware/sensors/cmw_vd66gy.c ****   {
 1574              		.loc 1 241 3 is_stmt 1 view .LVU424
 241:Lib/Camera_Middleware/sensors/cmw_vd66gy.c ****   {
 1575              		.loc 1 241 6 is_stmt 0 view .LVU425
 1576 0014 19B9     		cbnz	r1, .L67
 1577              	.L72:
 243:Lib/Camera_Middleware/sensors/cmw_vd66gy.c ****   }
 1578              		.loc 1 243 12 view .LVU426
 1579 0016 6FF00100 		mvn	r0, #1
 1580              	.LVL152:
 1581              	.L66:
 289:Lib/Camera_Middleware/sensors/cmw_vd66gy.c **** 
 1582              		.loc 1 289 1 view .LVU427
 1583 001a 0EB0     		add	sp, sp, #56
 1584              		.cfi_remember_state
 1585              		.cfi_def_cfa_offset 16
 1586              		@ sp needed
 1587 001c 70BD     		pop	{r4, r5, r6, pc}
 1588              	.LVL153:
 1589              	.L67:
 1590              		.cfi_restore_state
 246:Lib/Camera_Middleware/sensors/cmw_vd66gy.c ****   {
 1591              		.loc 1 246 3 is_stmt 1 view .LVU428
 246:Lib/Camera_Middleware/sensors/cmw_vd66gy.c ****   {
 1592              		.loc 1 246 6 is_stmt 0 view .LVU429
 1593 001e 95F82031 		ldrb	r3, [r5, #288]	@ zero_extendqisi2
 1594 0022 0BB1     		cbz	r3, .L69
 1595              	.LVL154:
 1596              	.L78:
ARM GAS  C:\Users\DJESSOU\AppData\Local\Temp\ccSNWOEX.s 			page 45


 248:Lib/Camera_Middleware/sensors/cmw_vd66gy.c ****   }
 1597              		.loc 1 248 12 view .LVU430
 1598 0024 0020     		movs	r0, #0
 1599 0026 F8E7     		b	.L66
 1600              	.LVL155:
 1601              	.L69:
 251:Lib/Camera_Middleware/sensors/cmw_vd66gy.c ****   ret = CMW_VD66GY_GetResType(initSensor->width, initSensor->height, &config.resolution);
 1602              		.loc 1 251 3 is_stmt 1 view .LVU431
 251:Lib/Camera_Middleware/sensors/cmw_vd66gy.c ****   ret = CMW_VD66GY_GetResType(initSensor->width, initSensor->height, &config.resolution);
 1603              		.loc 1 251 21 is_stmt 0 view .LVU432
 1604 0028 A368     		ldr	r3, [r4, #8]
 1605 002a 0293     		str	r3, [sp, #8]
 252:Lib/Camera_Middleware/sensors/cmw_vd66gy.c ****   if (ret)
 1606              		.loc 1 252 3 is_stmt 1 view .LVU433
 252:Lib/Camera_Middleware/sensors/cmw_vd66gy.c ****   if (ret)
 1607              		.loc 1 252 9 is_stmt 0 view .LVU434
 1608 002c D4E90023 		ldrd	r2, r3, [r4]
 1609              	.LVL156:
 1610              	.LBB39:
 1611              	.LBI39:
 181:Lib/Camera_Middleware/sensors/cmw_vd66gy.c **** {
 1612              		.loc 1 181 12 is_stmt 1 view .LVU435
 1613              	.LBB40:
 183:Lib/Camera_Middleware/sensors/cmw_vd66gy.c ****   {
 1614              		.loc 1 183 3 view .LVU436
 183:Lib/Camera_Middleware/sensors/cmw_vd66gy.c ****   {
 1615              		.loc 1 183 6 is_stmt 0 view .LVU437
 1616 0030 B2F5A07F 		cmp	r2, #320
 1617 0034 24D1     		bne	.L70
 183:Lib/Camera_Middleware/sensors/cmw_vd66gy.c ****   {
 1618              		.loc 1 183 20 discriminator 1 view .LVU438
 1619 0036 F02B     		cmp	r3, #240
 1620 0038 EDD1     		bne	.L72
 1621              	.LVL157:
 1622              	.L71:
 183:Lib/Camera_Middleware/sensors/cmw_vd66gy.c ****   {
 1623              		.loc 1 183 20 discriminator 1 view .LVU439
 1624              	.LBE40:
 1625              	.LBE39:
 258:Lib/Camera_Middleware/sensors/cmw_vd66gy.c ****   config.line_len = sensor_config->line_len;
 1626              		.loc 1 258 3 is_stmt 1 view .LVU440
 258:Lib/Camera_Middleware/sensors/cmw_vd66gy.c ****   config.line_len = sensor_config->line_len;
 1627              		.loc 1 258 31 is_stmt 0 view .LVU441
 1628 003a 234B     		ldr	r3, .L83
 261:Lib/Camera_Middleware/sensors/cmw_vd66gy.c ****   config.out_itf.data_lane0_swap_enable = 1;
 1629              		.loc 1 261 41 view .LVU442
 1630 003c 0126     		movs	r6, #1
 258:Lib/Camera_Middleware/sensors/cmw_vd66gy.c ****   config.line_len = sensor_config->line_len;
 1631              		.loc 1 258 31 view .LVU443
 1632 003e 0093     		str	r3, [sp]
 259:Lib/Camera_Middleware/sensors/cmw_vd66gy.c ****   config.out_itf.datalane_nb = 2;
 1633              		.loc 1 259 3 is_stmt 1 view .LVU444
 259:Lib/Camera_Middleware/sensors/cmw_vd66gy.c ****   config.out_itf.datalane_nb = 2;
 1634              		.loc 1 259 19 is_stmt 0 view .LVU445
 1635 0040 4B68     		ldr	r3, [r1, #4]
 275:Lib/Camera_Middleware/sensors/cmw_vd66gy.c ****   if (ret)
 1636              		.loc 1 275 9 view .LVU446
ARM GAS  C:\Users\DJESSOU\AppData\Local\Temp\ccSNWOEX.s 			page 46


 1637 0042 6946     		mov	r1, sp
 1638              	.LVL158:
 259:Lib/Camera_Middleware/sensors/cmw_vd66gy.c ****   config.out_itf.datalane_nb = 2;
 1639              		.loc 1 259 19 view .LVU447
 1640 0044 0493     		str	r3, [sp, #16]
 260:Lib/Camera_Middleware/sensors/cmw_vd66gy.c ****   config.out_itf.clock_lane_swap_enable = 1;
 1641              		.loc 1 260 3 is_stmt 1 view .LVU448
 261:Lib/Camera_Middleware/sensors/cmw_vd66gy.c ****   config.out_itf.data_lane0_swap_enable = 1;
 1642              		.loc 1 261 41 is_stmt 0 view .LVU449
 1643 0046 0223     		movs	r3, #2
 1644 0048 CDE90636 		strd	r3, r6, [sp, #24]
 262:Lib/Camera_Middleware/sensors/cmw_vd66gy.c ****   config.out_itf.data_lane1_swap_enable = 1;
 1645              		.loc 1 262 3 is_stmt 1 view .LVU450
 266:Lib/Camera_Middleware/sensors/cmw_vd66gy.c ****   config.patgen = VD6G_PATGEN_DISABLE;
 1646              		.loc 1 266 27 is_stmt 0 discriminator 1 view .LVU451
 1647 004c E368     		ldr	r3, [r4, #12]
 275:Lib/Camera_Middleware/sensors/cmw_vd66gy.c ****   if (ret)
 1648              		.loc 1 275 9 view .LVU452
 1649 004e 2C1D     		adds	r4, r5, #4
 1650              	.LVL159:
 266:Lib/Camera_Middleware/sensors/cmw_vd66gy.c ****   config.patgen = VD6G_PATGEN_DISABLE;
 1651              		.loc 1 266 27 discriminator 1 view .LVU453
 1652 0050 032B     		cmp	r3, #3
 1653 0052 28BF     		it	cs
 1654 0054 0323     		movcs	r3, #3
 1655 0056 8DF80C30 		strb	r3, [sp, #12]
 272:Lib/Camera_Middleware/sensors/cmw_vd66gy.c ****   }
 1656              		.loc 1 272 25 view .LVU454
 1657 005a 4FF00133 		mov	r3, #16843009
 275:Lib/Camera_Middleware/sensors/cmw_vd66gy.c ****   if (ret)
 1658              		.loc 1 275 9 view .LVU455
 1659 005e 2046     		mov	r0, r4
 263:Lib/Camera_Middleware/sensors/cmw_vd66gy.c ****   config.out_itf.data_lanes_mapping_swap_enable = 0;
 1660              		.loc 1 263 41 view .LVU456
 1661 0060 CDE90866 		strd	r6, r6, [sp, #32]
 264:Lib/Camera_Middleware/sensors/cmw_vd66gy.c **** 
 1662              		.loc 1 264 3 is_stmt 1 view .LVU457
 266:Lib/Camera_Middleware/sensors/cmw_vd66gy.c ****   config.patgen = VD6G_PATGEN_DISABLE;
 1663              		.loc 1 266 3 view .LVU458
 1664              	.LBB43:
 1665              	.LBI43:
 210:Lib/Camera_Middleware/sensors/cmw_vd66gy.c **** {
 1666              		.loc 1 210 26 view .LVU459
 1667              	.LBB44:
 212:Lib/Camera_Middleware/sensors/cmw_vd66gy.c **** 
 1668              		.loc 1 212 3 view .LVU460
 214:Lib/Camera_Middleware/sensors/cmw_vd66gy.c ****   {
 1669              		.loc 1 214 3 view .LVU461
 231:Lib/Camera_Middleware/sensors/cmw_vd66gy.c **** }
 1670              		.loc 1 231 3 view .LVU462
 1671              	.LBE44:
 1672              	.LBE43:
 267:Lib/Camera_Middleware/sensors/cmw_vd66gy.c ****   config.flicker = VD6G_FLICKER_FREE_NONE;
 1673              		.loc 1 267 3 view .LVU463
 268:Lib/Camera_Middleware/sensors/cmw_vd66gy.c **** 
 1674              		.loc 1 268 3 view .LVU464
 270:Lib/Camera_Middleware/sensors/cmw_vd66gy.c ****   {
ARM GAS  C:\Users\DJESSOU\AppData\Local\Temp\ccSNWOEX.s 			page 47


 1675              		.loc 1 270 3 view .LVU465
 1676              	.LVL160:
 270:Lib/Camera_Middleware/sensors/cmw_vd66gy.c ****   {
 1677              		.loc 1 270 17 discriminator 1 view .LVU466
 272:Lib/Camera_Middleware/sensors/cmw_vd66gy.c ****   }
 1678              		.loc 1 272 25 is_stmt 0 view .LVU467
 1679 0064 CDE90B33 		strd	r3, r3, [sp, #44]
 1680              	.LVL161:
 275:Lib/Camera_Middleware/sensors/cmw_vd66gy.c ****   if (ret)
 1681              		.loc 1 275 3 is_stmt 1 view .LVU468
 275:Lib/Camera_Middleware/sensors/cmw_vd66gy.c ****   if (ret)
 1682              		.loc 1 275 9 is_stmt 0 view .LVU469
 1683 0068 FFF7FEFF 		bl	VD6G_Init
 1684              	.LVL162:
 276:Lib/Camera_Middleware/sensors/cmw_vd66gy.c ****   {
 1685              		.loc 1 276 3 is_stmt 1 view .LVU470
 276:Lib/Camera_Middleware/sensors/cmw_vd66gy.c ****   {
 1686              		.loc 1 276 6 is_stmt 0 view .LVU471
 1687 006c 28B9     		cbnz	r0, .L76
 281:Lib/Camera_Middleware/sensors/cmw_vd66gy.c ****   {
 1688              		.loc 1 281 3 is_stmt 1 view .LVU472
 281:Lib/Camera_Middleware/sensors/cmw_vd66gy.c ****   {
 1689              		.loc 1 281 6 is_stmt 0 view .LVU473
 1690 006e 95F82C30 		ldrb	r3, [r5, #44]	@ zero_extendqisi2
 1691 0072 2BBB     		cbnz	r3, .L77
 283:Lib/Camera_Middleware/sensors/cmw_vd66gy.c ****     return CMW_ERROR_PERIPH_FAILURE;
 1692              		.loc 1 283 5 is_stmt 1 view .LVU474
 1693 0074 2046     		mov	r0, r4
 1694              	.LVL163:
 283:Lib/Camera_Middleware/sensors/cmw_vd66gy.c ****     return CMW_ERROR_PERIPH_FAILURE;
 1695              		.loc 1 283 5 is_stmt 0 view .LVU475
 1696 0076 FFF7FEFF 		bl	VD6G_DeInit
 1697              	.LVL164:
 284:Lib/Camera_Middleware/sensors/cmw_vd66gy.c ****   }
 1698              		.loc 1 284 5 is_stmt 1 view .LVU476
 1699              	.L76:
 278:Lib/Camera_Middleware/sensors/cmw_vd66gy.c ****   }
 1700              		.loc 1 278 12 is_stmt 0 view .LVU477
 1701 007a 6FF00300 		mvn	r0, #3
 1702              	.LVL165:
 278:Lib/Camera_Middleware/sensors/cmw_vd66gy.c ****   }
 1703              		.loc 1 278 12 view .LVU478
 1704 007e CCE7     		b	.L66
 1705              	.LVL166:
 1706              	.L70:
 1707              	.LBB45:
 1708              	.LBB41:
 187:Lib/Camera_Middleware/sensors/cmw_vd66gy.c ****   {
 1709              		.loc 1 187 8 is_stmt 1 view .LVU479
 187:Lib/Camera_Middleware/sensors/cmw_vd66gy.c ****   {
 1710              		.loc 1 187 11 is_stmt 0 view .LVU480
 1711 0080 B2F5207F 		cmp	r2, #640
 1712 0084 06D1     		bne	.L73
 187:Lib/Camera_Middleware/sensors/cmw_vd66gy.c ****   {
 1713              		.loc 1 187 25 discriminator 1 view .LVU481
 1714 0086 B3F5F07F 		cmp	r3, #480
 1715 008a C4D1     		bne	.L72
ARM GAS  C:\Users\DJESSOU\AppData\Local\Temp\ccSNWOEX.s 			page 48


 189:Lib/Camera_Middleware/sensors/cmw_vd66gy.c ****   }
 1716              		.loc 1 189 5 is_stmt 1 view .LVU482
 189:Lib/Camera_Middleware/sensors/cmw_vd66gy.c ****   }
 1717              		.loc 1 189 10 is_stmt 0 view .LVU483
 1718 008c 0123     		movs	r3, #1
 1719              	.LVL167:
 1720              	.L82:
 201:Lib/Camera_Middleware/sensors/cmw_vd66gy.c ****   }
 1721              		.loc 1 201 10 view .LVU484
 1722 008e 8DF80430 		strb	r3, [sp, #4]
 1723              	.LVL168:
 201:Lib/Camera_Middleware/sensors/cmw_vd66gy.c ****   }
 1724              		.loc 1 201 10 view .LVU485
 1725              	.LBE41:
 1726              	.LBE45:
 253:Lib/Camera_Middleware/sensors/cmw_vd66gy.c ****   {
 1727              		.loc 1 253 3 is_stmt 1 view .LVU486
 1728 0092 D2E7     		b	.L71
 1729              	.LVL169:
 1730              	.L73:
 1731              	.LBB46:
 1732              	.LBB42:
 191:Lib/Camera_Middleware/sensors/cmw_vd66gy.c ****   {
 1733              		.loc 1 191 8 view .LVU487
 191:Lib/Camera_Middleware/sensors/cmw_vd66gy.c ****   {
 1734              		.loc 1 191 11 is_stmt 0 view .LVU488
 1735 0094 B2F5806F 		cmp	r2, #1024
 1736 0098 04D1     		bne	.L74
 191:Lib/Camera_Middleware/sensors/cmw_vd66gy.c ****   {
 1737              		.loc 1 191 26 discriminator 1 view .LVU489
 1738 009a B3F5407F 		cmp	r3, #768
 1739 009e BAD1     		bne	.L72
 193:Lib/Camera_Middleware/sensors/cmw_vd66gy.c ****   }
 1740              		.loc 1 193 5 is_stmt 1 view .LVU490
 193:Lib/Camera_Middleware/sensors/cmw_vd66gy.c ****   }
 1741              		.loc 1 193 10 is_stmt 0 view .LVU491
 1742 00a0 0323     		movs	r3, #3
 1743              	.LVL170:
 193:Lib/Camera_Middleware/sensors/cmw_vd66gy.c ****   }
 1744              		.loc 1 193 10 view .LVU492
 1745 00a2 F4E7     		b	.L82
 1746              	.LVL171:
 1747              	.L74:
 195:Lib/Camera_Middleware/sensors/cmw_vd66gy.c ****   {
 1748              		.loc 1 195 8 is_stmt 1 view .LVU493
 195:Lib/Camera_Middleware/sensors/cmw_vd66gy.c ****   {
 1749              		.loc 1 195 11 is_stmt 0 view .LVU494
 1750 00a4 B2F58C6F 		cmp	r2, #1120
 1751 00a8 B5D1     		bne	.L72
 195:Lib/Camera_Middleware/sensors/cmw_vd66gy.c ****   {
 1752              		.loc 1 195 26 discriminator 1 view .LVU495
 1753 00aa B3F5347F 		cmp	r3, #720
 1754 00ae 01D1     		bne	.L75
 197:Lib/Camera_Middleware/sensors/cmw_vd66gy.c ****   }
 1755              		.loc 1 197 5 is_stmt 1 view .LVU496
 197:Lib/Camera_Middleware/sensors/cmw_vd66gy.c ****   }
 1756              		.loc 1 197 10 is_stmt 0 view .LVU497
ARM GAS  C:\Users\DJESSOU\AppData\Local\Temp\ccSNWOEX.s 			page 49


 1757 00b0 0723     		movs	r3, #7
 1758              	.LVL172:
 197:Lib/Camera_Middleware/sensors/cmw_vd66gy.c ****   }
 1759              		.loc 1 197 10 view .LVU498
 1760 00b2 ECE7     		b	.L82
 1761              	.LVL173:
 1762              	.L75:
 199:Lib/Camera_Middleware/sensors/cmw_vd66gy.c ****   {
 1763              		.loc 1 199 8 is_stmt 1 view .LVU499
 199:Lib/Camera_Middleware/sensors/cmw_vd66gy.c ****   {
 1764              		.loc 1 199 26 is_stmt 0 discriminator 1 view .LVU500
 1765 00b4 40F25452 		movw	r2, #1364
 1766              	.LVL174:
 199:Lib/Camera_Middleware/sensors/cmw_vd66gy.c ****   {
 1767              		.loc 1 199 26 discriminator 1 view .LVU501
 1768 00b8 9342     		cmp	r3, r2
 1769 00ba ACD1     		bne	.L72
 201:Lib/Camera_Middleware/sensors/cmw_vd66gy.c ****   }
 1770              		.loc 1 201 5 is_stmt 1 view .LVU502
 201:Lib/Camera_Middleware/sensors/cmw_vd66gy.c ****   }
 1771              		.loc 1 201 10 is_stmt 0 view .LVU503
 1772 00bc 0823     		movs	r3, #8
 1773              	.LVL175:
 201:Lib/Camera_Middleware/sensors/cmw_vd66gy.c ****   }
 1774              		.loc 1 201 10 view .LVU504
 1775 00be E6E7     		b	.L82
 1776              	.LVL176:
 1777              	.L77:
 201:Lib/Camera_Middleware/sensors/cmw_vd66gy.c ****   }
 1778              		.loc 1 201 10 view .LVU505
 1779              	.LBE42:
 1780              	.LBE46:
 287:Lib/Camera_Middleware/sensors/cmw_vd66gy.c ****   return CMW_ERROR_NONE;
 1781              		.loc 1 287 3 is_stmt 1 view .LVU506
 287:Lib/Camera_Middleware/sensors/cmw_vd66gy.c ****   return CMW_ERROR_NONE;
 1782              		.loc 1 287 43 is_stmt 0 view .LVU507
 1783 00c0 85F82061 		strb	r6, [r5, #288]
 288:Lib/Camera_Middleware/sensors/cmw_vd66gy.c **** }
 1784              		.loc 1 288 3 is_stmt 1 view .LVU508
 288:Lib/Camera_Middleware/sensors/cmw_vd66gy.c **** }
 1785              		.loc 1 288 10 is_stmt 0 view .LVU509
 1786 00c4 AEE7     		b	.L78
 1787              	.L84:
 1788 00c6 00BF     		.align	2
 1789              	.L83:
 1790 00c8 001BB700 		.word	12000000
 1791              		.cfi_endproc
 1792              	.LFE3431:
 1794              		.section	.text.CMW_VD66GY_VsyncEventCallback,"ax",%progbits
 1795              		.align	1
 1796              		.syntax unified
 1797              		.thumb
 1798              		.thumb_func
 1800              	CMW_VD66GY_VsyncEventCallback:
 1801              	.LVL177:
 1802              	.LFB3443:
 570:Lib/Camera_Middleware/sensors/cmw_vd66gy.c **** #ifndef ISP_MW_TUNING_TOOL_SUPPORT
ARM GAS  C:\Users\DJESSOU\AppData\Local\Temp\ccSNWOEX.s 			page 50


 1803              		.loc 1 570 1 is_stmt 1 view -0
 1804              		.cfi_startproc
 1805              		@ args = 0, pretend = 0, frame = 0
 1806              		@ frame_needed = 0, uses_anonymous_args = 0
 573:Lib/Camera_Middleware/sensors/cmw_vd66gy.c ****   {
 1807              		.loc 1 573 3 view .LVU511
 1808 0000 0129     		cmp	r1, #1
 570:Lib/Camera_Middleware/sensors/cmw_vd66gy.c **** #ifndef ISP_MW_TUNING_TOOL_SUPPORT
 1809              		.loc 1 570 1 is_stmt 0 view .LVU512
 1810 0002 10B5     		push	{r4, lr}
 1811              		.cfi_def_cfa_offset 8
 1812              		.cfi_offset 4, -8
 1813              		.cfi_offset 14, -4
 573:Lib/Camera_Middleware/sensors/cmw_vd66gy.c ****   {
 1814              		.loc 1 573 3 view .LVU513
 1815 0004 07D0     		beq	.L86
 1816 0006 0229     		cmp	r1, #2
 1817 0008 0FD0     		beq	.L87
 1818 000a 99B9     		cbnz	r1, .L85
 576:Lib/Camera_Middleware/sensors/cmw_vd66gy.c ****       break;
 1819              		.loc 1 576 7 is_stmt 1 view .LVU514
 587:Lib/Camera_Middleware/sensors/cmw_vd66gy.c **** 
 1820              		.loc 1 587 1 is_stmt 0 view .LVU515
 1821 000c BDE81040 		pop	{r4, lr}
 1822              		.cfi_remember_state
 1823              		.cfi_restore 14
 1824              		.cfi_restore 4
 1825              		.cfi_def_cfa_offset 0
 576:Lib/Camera_Middleware/sensors/cmw_vd66gy.c ****       break;
 1826              		.loc 1 576 7 view .LVU516
 1827 0010 6C30     		adds	r0, r0, #108
 1828              	.LVL178:
 576:Lib/Camera_Middleware/sensors/cmw_vd66gy.c ****       break;
 1829              		.loc 1 576 7 view .LVU517
 1830 0012 FFF7FEBF 		b	ISP_IncDumpFrameId
 1831              	.LVL179:
 1832              	.L86:
 1833              		.cfi_restore_state
 1834              	.LBB49:
 1835              	.LBI49:
 569:Lib/Camera_Middleware/sensors/cmw_vd66gy.c **** {
 1836              		.loc 1 569 13 is_stmt 1 view .LVU518
 1837              	.LBB50:
 579:Lib/Camera_Middleware/sensors/cmw_vd66gy.c ****       ISP_GatherStatistics(&((CMW_VD66GY_t *)io_ctx)->hIsp);
 1838              		.loc 1 579 7 view .LVU519
 1839 0016 00F16C04 		add	r4, r0, #108
 1840 001a 2046     		mov	r0, r4
 1841              	.LVL180:
 579:Lib/Camera_Middleware/sensors/cmw_vd66gy.c ****       ISP_GatherStatistics(&((CMW_VD66GY_t *)io_ctx)->hIsp);
 1842              		.loc 1 579 7 is_stmt 0 view .LVU520
 1843 001c FFF7FEFF 		bl	ISP_IncMainFrameId
 1844              	.LVL181:
 580:Lib/Camera_Middleware/sensors/cmw_vd66gy.c ****       break;
 1845              		.loc 1 580 7 is_stmt 1 view .LVU521
 1846 0020 2046     		mov	r0, r4
 1847              	.LBE50:
 1848              	.LBE49:
ARM GAS  C:\Users\DJESSOU\AppData\Local\Temp\ccSNWOEX.s 			page 51


 587:Lib/Camera_Middleware/sensors/cmw_vd66gy.c **** 
 1849              		.loc 1 587 1 is_stmt 0 view .LVU522
 1850 0022 BDE81040 		pop	{r4, lr}
 1851              		.cfi_remember_state
 1852              		.cfi_restore 14
 1853              		.cfi_restore 4
 1854              		.cfi_def_cfa_offset 0
 1855              	.LVL182:
 1856              	.LBB52:
 1857              	.LBB51:
 580:Lib/Camera_Middleware/sensors/cmw_vd66gy.c ****       break;
 1858              		.loc 1 580 7 view .LVU523
 1859 0026 FFF7FEBF 		b	ISP_GatherStatistics
 1860              	.LVL183:
 1861              	.L87:
 1862              		.cfi_restore_state
 580:Lib/Camera_Middleware/sensors/cmw_vd66gy.c ****       break;
 1863              		.loc 1 580 7 view .LVU524
 1864              	.LBE51:
 1865              	.LBE52:
 583:Lib/Camera_Middleware/sensors/cmw_vd66gy.c ****       break;
 1866              		.loc 1 583 7 is_stmt 1 view .LVU525
 1867 002a 6C30     		adds	r0, r0, #108
 1868              	.LVL184:
 587:Lib/Camera_Middleware/sensors/cmw_vd66gy.c **** 
 1869              		.loc 1 587 1 is_stmt 0 view .LVU526
 1870 002c BDE81040 		pop	{r4, lr}
 1871              		.cfi_remember_state
 1872              		.cfi_restore 14
 1873              		.cfi_restore 4
 1874              		.cfi_def_cfa_offset 0
 583:Lib/Camera_Middleware/sensors/cmw_vd66gy.c ****       break;
 1875              		.loc 1 583 7 view .LVU527
 1876 0030 FFF7FEBF 		b	ISP_IncAncillaryFrameId
 1877              	.LVL185:
 1878              	.L85:
 1879              		.cfi_restore_state
 587:Lib/Camera_Middleware/sensors/cmw_vd66gy.c **** 
 1880              		.loc 1 587 1 view .LVU528
 1881 0034 10BD     		pop	{r4, pc}
 1882              		.cfi_endproc
 1883              	.LFE3443:
 1885              		.section	.rodata.CMW_VD66GY_SetDefaultSensorValues.str1.1,"aMS",%progbits,1
 1886              	.LC1:
 1887 0000 76643636 		.ascii	"vd66gy_config != NULL\000"
 1887      67795F63 
 1887      6F6E6669 
 1887      6720213D 
 1887      204E554C 
 1888              	.LC2:
 1889 0016 4C69622F 		.ascii	"Lib/Camera_Middleware/sensors/cmw_vd66gy.c\000"
 1889      43616D65 
 1889      72615F4D 
 1889      6964646C 
 1889      65776172 
 1890              		.section	.text.CMW_VD66GY_SetDefaultSensorValues,"ax",%progbits
 1891              		.align	1
ARM GAS  C:\Users\DJESSOU\AppData\Local\Temp\ccSNWOEX.s 			page 52


 1892              		.global	CMW_VD66GY_SetDefaultSensorValues
 1893              		.syntax unified
 1894              		.thumb
 1895              		.thumb_func
 1897              	CMW_VD66GY_SetDefaultSensorValues:
 1898              	.LVL186:
 1899              	.LFB3432:
 292:Lib/Camera_Middleware/sensors/cmw_vd66gy.c ****   assert(vd66gy_config != NULL);
 1900              		.loc 1 292 1 is_stmt 1 view -0
 1901              		.cfi_startproc
 1902              		@ args = 0, pretend = 0, frame = 0
 1903              		@ frame_needed = 0, uses_anonymous_args = 0
 293:Lib/Camera_Middleware/sensors/cmw_vd66gy.c ****   vd66gy_config->line_len = 0;
 1904              		.loc 1 293 3 view .LVU530
 292:Lib/Camera_Middleware/sensors/cmw_vd66gy.c ****   assert(vd66gy_config != NULL);
 1905              		.loc 1 292 1 is_stmt 0 view .LVU531
 1906 0000 08B5     		push	{r3, lr}
 1907              		.cfi_def_cfa_offset 8
 1908              		.cfi_offset 3, -8
 1909              		.cfi_offset 14, -4
 293:Lib/Camera_Middleware/sensors/cmw_vd66gy.c ****   vd66gy_config->line_len = 0;
 1910              		.loc 1 293 3 view .LVU532
 1911 0002 30B9     		cbnz	r0, .L90
 293:Lib/Camera_Middleware/sensors/cmw_vd66gy.c ****   vd66gy_config->line_len = 0;
 1912              		.loc 1 293 3 discriminator 1 view .LVU533
 1913 0004 40F22511 		movw	r1, #293
 1914 0008 044B     		ldr	r3, .L91
 1915 000a 054A     		ldr	r2, .L91+4
 1916 000c 0548     		ldr	r0, .L91+8
 1917              	.LVL187:
 293:Lib/Camera_Middleware/sensors/cmw_vd66gy.c ****   vd66gy_config->line_len = 0;
 1918              		.loc 1 293 3 discriminator 1 view .LVU534
 1919 000e FFF7FEFF 		bl	__assert_func
 1920              	.LVL188:
 1921              	.L90:
 294:Lib/Camera_Middleware/sensors/cmw_vd66gy.c ****   vd66gy_config->pixel_format = CMW_PIXEL_FORMAT_RAW8;
 1922              		.loc 1 294 3 is_stmt 1 view .LVU535
 295:Lib/Camera_Middleware/sensors/cmw_vd66gy.c **** }
 1923              		.loc 1 295 31 is_stmt 0 view .LVU536
 1924 0012 2A23     		movs	r3, #42
 1925 0014 0022     		movs	r2, #0
 1926 0016 C0E90032 		strd	r3, r2, [r0]
 296:Lib/Camera_Middleware/sensors/cmw_vd66gy.c **** 
 1927              		.loc 1 296 1 view .LVU537
 1928 001a 08BD     		pop	{r3, pc}
 1929              	.L92:
 1930              		.align	2
 1931              	.L91:
 1932 001c 00000000 		.word	.LC1
 1933 0020 00000000 		.word	__func__.0
 1934 0024 16000000 		.word	.LC2
 1935              		.cfi_endproc
 1936              	.LFE3432:
 1938              		.section	.text.VD66GY_RegisterBusIO,"ax",%progbits
 1939              		.align	1
 1940              		.global	VD66GY_RegisterBusIO
 1941              		.syntax unified
ARM GAS  C:\Users\DJESSOU\AppData\Local\Temp\ccSNWOEX.s 			page 53


 1942              		.thumb
 1943              		.thumb_func
 1945              	VD66GY_RegisterBusIO:
 1946              	.LVL189:
 1947              	.LFB3445:
 592:Lib/Camera_Middleware/sensors/cmw_vd66gy.c **** 
 593:Lib/Camera_Middleware/sensors/cmw_vd66gy.c **** int32_t VD66GY_RegisterBusIO(CMW_VD66GY_t *io_ctx)
 594:Lib/Camera_Middleware/sensors/cmw_vd66gy.c **** {
 1948              		.loc 1 594 1 is_stmt 1 view -0
 1949              		.cfi_startproc
 1950              		@ args = 0, pretend = 0, frame = 0
 1951              		@ frame_needed = 0, uses_anonymous_args = 0
 1952              		@ link register save eliminated.
 595:Lib/Camera_Middleware/sensors/cmw_vd66gy.c ****   int ret;
 1953              		.loc 1 595 3 view .LVU539
 596:Lib/Camera_Middleware/sensors/cmw_vd66gy.c **** 
 597:Lib/Camera_Middleware/sensors/cmw_vd66gy.c ****   if (!io_ctx)
 1954              		.loc 1 597 3 view .LVU540
 1955              		.loc 1 597 6 is_stmt 0 view .LVU541
 1956 0000 18B1     		cbz	r0, .L93
 598:Lib/Camera_Middleware/sensors/cmw_vd66gy.c ****     return CMW_ERROR_COMPONENT_FAILURE;
 599:Lib/Camera_Middleware/sensors/cmw_vd66gy.c **** 
 600:Lib/Camera_Middleware/sensors/cmw_vd66gy.c ****   if (!io_ctx->Init)
 1957              		.loc 1 600 3 is_stmt 1 view .LVU542
 1958              		.loc 1 600 14 is_stmt 0 view .LVU543
 1959 0002 D0F82431 		ldr	r3, [r0, #292]
 1960              		.loc 1 600 6 view .LVU544
 1961 0006 03B1     		cbz	r3, .L93
 601:Lib/Camera_Middleware/sensors/cmw_vd66gy.c ****     return CMW_ERROR_COMPONENT_FAILURE;
 602:Lib/Camera_Middleware/sensors/cmw_vd66gy.c **** 
 603:Lib/Camera_Middleware/sensors/cmw_vd66gy.c ****   ret = io_ctx->Init();
 1962              		.loc 1 603 3 is_stmt 1 view .LVU545
 1963              		.loc 1 603 9 is_stmt 0 view .LVU546
 1964 0008 1847     		bx	r3
 1965              	.LVL190:
 1966              	.L93:
 604:Lib/Camera_Middleware/sensors/cmw_vd66gy.c **** 
 605:Lib/Camera_Middleware/sensors/cmw_vd66gy.c ****   return ret;
 606:Lib/Camera_Middleware/sensors/cmw_vd66gy.c **** }
 1967              		.loc 1 606 1 view .LVU547
 1968 000a 6FF00400 		mvn	r0, #4
 1969              	.LVL191:
 1970              		.loc 1 606 1 view .LVU548
 1971 000e 7047     		bx	lr
 1972              		.cfi_endproc
 1973              	.LFE3445:
 1975              		.section	.text.VD66GY_ReadID,"ax",%progbits
 1976              		.align	1
 1977              		.global	VD66GY_ReadID
 1978              		.syntax unified
 1979              		.thumb
 1980              		.thumb_func
 1982              	VD66GY_ReadID:
 1983              	.LVL192:
 1984              	.LFB3446:
 607:Lib/Camera_Middleware/sensors/cmw_vd66gy.c **** 
 608:Lib/Camera_Middleware/sensors/cmw_vd66gy.c **** int32_t VD66GY_ReadID(CMW_VD66GY_t *io_ctx, uint32_t *Id)
ARM GAS  C:\Users\DJESSOU\AppData\Local\Temp\ccSNWOEX.s 			page 54


 609:Lib/Camera_Middleware/sensors/cmw_vd66gy.c **** {
 1985              		.loc 1 609 1 is_stmt 1 view -0
 1986              		.cfi_startproc
 1987              		@ args = 0, pretend = 0, frame = 8
 1988              		@ frame_needed = 0, uses_anonymous_args = 0
 610:Lib/Camera_Middleware/sensors/cmw_vd66gy.c ****   uint16_t reg16;
 1989              		.loc 1 610 3 view .LVU550
 611:Lib/Camera_Middleware/sensors/cmw_vd66gy.c ****   int32_t ret;
 1990              		.loc 1 611 3 view .LVU551
 612:Lib/Camera_Middleware/sensors/cmw_vd66gy.c **** 
 613:Lib/Camera_Middleware/sensors/cmw_vd66gy.c ****   ret = CMW_VD66GY_Read16(io_ctx, VD66GY_REG_MODEL_ID, &reg16);
 1991              		.loc 1 613 3 view .LVU552
 609:Lib/Camera_Middleware/sensors/cmw_vd66gy.c ****   uint16_t reg16;
 1992              		.loc 1 609 1 is_stmt 0 view .LVU553
 1993 0000 13B5     		push	{r0, r1, r4, lr}
 1994              		.cfi_def_cfa_offset 16
 1995              		.cfi_offset 4, -8
 1996              		.cfi_offset 14, -4
 609:Lib/Camera_Middleware/sensors/cmw_vd66gy.c ****   uint16_t reg16;
 1997              		.loc 1 609 1 view .LVU554
 1998 0002 0C46     		mov	r4, r1
 1999              		.loc 1 613 9 view .LVU555
 2000 0004 0DF10602 		add	r2, sp, #6
 2001 0008 0021     		movs	r1, #0
 2002              	.LVL193:
 2003              		.loc 1 613 9 view .LVU556
 2004 000a FFF7FEFF 		bl	CMW_VD66GY_Read16
 2005              	.LVL194:
 614:Lib/Camera_Middleware/sensors/cmw_vd66gy.c ****   if (ret)
 2006              		.loc 1 614 3 is_stmt 1 view .LVU557
 2007              		.loc 1 614 6 is_stmt 0 view .LVU558
 2008 000e 10B9     		cbnz	r0, .L99
 615:Lib/Camera_Middleware/sensors/cmw_vd66gy.c ****     return ret;
 616:Lib/Camera_Middleware/sensors/cmw_vd66gy.c **** 
 617:Lib/Camera_Middleware/sensors/cmw_vd66gy.c ****   *Id = reg16;
 2009              		.loc 1 617 3 is_stmt 1 view .LVU559
 2010              		.loc 1 617 7 is_stmt 0 view .LVU560
 2011 0010 BDF80630 		ldrh	r3, [sp, #6]
 2012 0014 2360     		str	r3, [r4]
 618:Lib/Camera_Middleware/sensors/cmw_vd66gy.c **** 
 619:Lib/Camera_Middleware/sensors/cmw_vd66gy.c ****   return CMW_ERROR_NONE;
 2013              		.loc 1 619 3 is_stmt 1 view .LVU561
 2014              	.L99:
 620:Lib/Camera_Middleware/sensors/cmw_vd66gy.c **** }
 2015              		.loc 1 620 1 is_stmt 0 view .LVU562
 2016 0016 02B0     		add	sp, sp, #8
 2017              		.cfi_def_cfa_offset 8
 2018              		@ sp needed
 2019 0018 10BD     		pop	{r4, pc}
 2020              		.loc 1 620 1 view .LVU563
 2021              		.cfi_endproc
 2022              	.LFE3446:
 2024              		.section	.text.CMW_VD66GY_Probe,"ax",%progbits
 2025              		.align	1
 2026              		.global	CMW_VD66GY_Probe
 2027              		.syntax unified
 2028              		.thumb
ARM GAS  C:\Users\DJESSOU\AppData\Local\Temp\ccSNWOEX.s 			page 55


 2029              		.thumb_func
 2031              	CMW_VD66GY_Probe:
 2032              	.LVL195:
 2033              	.LFB3448:
 621:Lib/Camera_Middleware/sensors/cmw_vd66gy.c **** 
 622:Lib/Camera_Middleware/sensors/cmw_vd66gy.c **** static void CMW_VD66GY_PowerOn(CMW_VD66GY_t *io_ctx)
 623:Lib/Camera_Middleware/sensors/cmw_vd66gy.c **** {
 624:Lib/Camera_Middleware/sensors/cmw_vd66gy.c ****   /* Camera sensor Power-On sequence */
 625:Lib/Camera_Middleware/sensors/cmw_vd66gy.c ****   /* Assert the camera  NRST pins */
 626:Lib/Camera_Middleware/sensors/cmw_vd66gy.c ****   io_ctx->EnablePin(1);
 627:Lib/Camera_Middleware/sensors/cmw_vd66gy.c ****   io_ctx->ShutdownPin(0);  /* Disable MB1723 2V8 signal  */
 628:Lib/Camera_Middleware/sensors/cmw_vd66gy.c ****   HAL_Delay(200);   /* NRST signals asserted during 200ms */
 629:Lib/Camera_Middleware/sensors/cmw_vd66gy.c ****   /* De-assert the camera STANDBY pin (active high) */
 630:Lib/Camera_Middleware/sensors/cmw_vd66gy.c ****   io_ctx->ShutdownPin(1);  /* Disable MB1723 2V8 signal  */
 631:Lib/Camera_Middleware/sensors/cmw_vd66gy.c ****   HAL_Delay(20);     /* NRST de-asserted during 20ms */
 632:Lib/Camera_Middleware/sensors/cmw_vd66gy.c **** }
 633:Lib/Camera_Middleware/sensors/cmw_vd66gy.c **** 
 634:Lib/Camera_Middleware/sensors/cmw_vd66gy.c **** int CMW_VD66GY_Probe(CMW_VD66GY_t *io_ctx, CMW_Sensor_if_t *vd6g_if)
 635:Lib/Camera_Middleware/sensors/cmw_vd66gy.c **** {
 2034              		.loc 1 635 1 is_stmt 1 view -0
 2035              		.cfi_startproc
 2036              		@ args = 0, pretend = 0, frame = 8
 2037              		@ frame_needed = 0, uses_anonymous_args = 0
 636:Lib/Camera_Middleware/sensors/cmw_vd66gy.c ****   int ret = CMW_ERROR_NONE;
 2038              		.loc 1 636 3 view .LVU565
 637:Lib/Camera_Middleware/sensors/cmw_vd66gy.c ****   uint32_t id;
 2039              		.loc 1 637 3 view .LVU566
 638:Lib/Camera_Middleware/sensors/cmw_vd66gy.c **** 
 639:Lib/Camera_Middleware/sensors/cmw_vd66gy.c ****   io_ctx->ctx_driver.shutdown_pin = VD6G_ShutdownPin;
 2040              		.loc 1 639 3 view .LVU567
 635:Lib/Camera_Middleware/sensors/cmw_vd66gy.c ****   int ret = CMW_ERROR_NONE;
 2041              		.loc 1 635 1 is_stmt 0 view .LVU568
 2042 0000 37B5     		push	{r0, r1, r2, r4, r5, lr}
 2043              		.cfi_def_cfa_offset 24
 2044              		.cfi_offset 4, -12
 2045              		.cfi_offset 5, -8
 2046              		.cfi_offset 14, -4
 635:Lib/Camera_Middleware/sensors/cmw_vd66gy.c ****   int ret = CMW_ERROR_NONE;
 2047              		.loc 1 635 1 view .LVU569
 2048 0002 0446     		mov	r4, r0
 2049              		.loc 1 639 35 view .LVU570
 2050 0004 2E4B     		ldr	r3, .L105
 635:Lib/Camera_Middleware/sensors/cmw_vd66gy.c ****   int ret = CMW_ERROR_NONE;
 2051              		.loc 1 635 1 view .LVU571
 2052 0006 0D46     		mov	r5, r1
 2053              		.loc 1 639 35 view .LVU572
 2054 0008 4360     		str	r3, [r0, #4]
 640:Lib/Camera_Middleware/sensors/cmw_vd66gy.c ****   io_ctx->ctx_driver.read8 = VD6G_Read8;
 2055              		.loc 1 640 3 is_stmt 1 view .LVU573
 2056              		.loc 1 640 28 is_stmt 0 view .LVU574
 2057 000a 2E4B     		ldr	r3, .L105+4
 2058 000c 8360     		str	r3, [r0, #8]
 641:Lib/Camera_Middleware/sensors/cmw_vd66gy.c ****   io_ctx->ctx_driver.read16 = VD6G_Read16;
 2059              		.loc 1 641 3 is_stmt 1 view .LVU575
 2060              		.loc 1 641 29 is_stmt 0 view .LVU576
 2061 000e 2E4B     		ldr	r3, .L105+8
 2062 0010 C360     		str	r3, [r0, #12]
ARM GAS  C:\Users\DJESSOU\AppData\Local\Temp\ccSNWOEX.s 			page 56


 642:Lib/Camera_Middleware/sensors/cmw_vd66gy.c ****   io_ctx->ctx_driver.read32 = VD6G_Read32;
 2063              		.loc 1 642 3 is_stmt 1 view .LVU577
 2064              		.loc 1 642 29 is_stmt 0 view .LVU578
 2065 0012 2E4B     		ldr	r3, .L105+12
 2066 0014 0361     		str	r3, [r0, #16]
 643:Lib/Camera_Middleware/sensors/cmw_vd66gy.c ****   io_ctx->ctx_driver.write8 = VD6G_Write8;
 2067              		.loc 1 643 3 is_stmt 1 view .LVU579
 2068              		.loc 1 643 29 is_stmt 0 view .LVU580
 2069 0016 2E4B     		ldr	r3, .L105+16
 2070 0018 4361     		str	r3, [r0, #20]
 644:Lib/Camera_Middleware/sensors/cmw_vd66gy.c ****   io_ctx->ctx_driver.write16 = VD6G_Write16;
 2071              		.loc 1 644 3 is_stmt 1 view .LVU581
 2072              		.loc 1 644 30 is_stmt 0 view .LVU582
 2073 001a 2E4B     		ldr	r3, .L105+20
 2074 001c 8361     		str	r3, [r0, #24]
 645:Lib/Camera_Middleware/sensors/cmw_vd66gy.c ****   io_ctx->ctx_driver.write32 = VD6G_Write32;
 2075              		.loc 1 645 3 is_stmt 1 view .LVU583
 2076              		.loc 1 645 30 is_stmt 0 view .LVU584
 2077 001e 2E4B     		ldr	r3, .L105+24
 2078 0020 C361     		str	r3, [r0, #28]
 646:Lib/Camera_Middleware/sensors/cmw_vd66gy.c ****   io_ctx->ctx_driver.write_array = VD6G_WriteArray;
 2079              		.loc 1 646 3 is_stmt 1 view .LVU585
 2080              		.loc 1 646 34 is_stmt 0 view .LVU586
 2081 0022 2E4B     		ldr	r3, .L105+28
 2082 0024 0362     		str	r3, [r0, #32]
 647:Lib/Camera_Middleware/sensors/cmw_vd66gy.c ****   io_ctx->ctx_driver.delay = VD6G_Delay;
 2083              		.loc 1 647 3 is_stmt 1 view .LVU587
 2084              		.loc 1 647 28 is_stmt 0 view .LVU588
 2085 0026 2E4B     		ldr	r3, .L105+32
 2086 0028 4362     		str	r3, [r0, #36]
 648:Lib/Camera_Middleware/sensors/cmw_vd66gy.c ****   io_ctx->ctx_driver.log = VD6G_Log;
 2087              		.loc 1 648 3 is_stmt 1 view .LVU589
 2088              		.loc 1 648 26 is_stmt 0 view .LVU590
 2089 002a 2E4B     		ldr	r3, .L105+36
 2090 002c 8362     		str	r3, [r0, #40]
 649:Lib/Camera_Middleware/sensors/cmw_vd66gy.c **** 
 650:Lib/Camera_Middleware/sensors/cmw_vd66gy.c ****   CMW_VD66GY_PowerOn(io_ctx);
 2091              		.loc 1 650 3 is_stmt 1 view .LVU591
 2092              	.LVL196:
 2093              	.LBB55:
 2094              	.LBI55:
 622:Lib/Camera_Middleware/sensors/cmw_vd66gy.c **** {
 2095              		.loc 1 622 13 view .LVU592
 2096              	.LBB56:
 626:Lib/Camera_Middleware/sensors/cmw_vd66gy.c ****   io_ctx->ShutdownPin(0);  /* Disable MB1723 2V8 signal  */
 2097              		.loc 1 626 3 view .LVU593
 2098 002e D0F84031 		ldr	r3, [r0, #320]
 2099 0032 0120     		movs	r0, #1
 2100              	.LVL197:
 626:Lib/Camera_Middleware/sensors/cmw_vd66gy.c ****   io_ctx->ShutdownPin(0);  /* Disable MB1723 2V8 signal  */
 2101              		.loc 1 626 3 is_stmt 0 view .LVU594
 2102 0034 9847     		blx	r3
 2103              	.LVL198:
 627:Lib/Camera_Middleware/sensors/cmw_vd66gy.c ****   HAL_Delay(200);   /* NRST signals asserted during 200ms */
 2104              		.loc 1 627 3 is_stmt 1 view .LVU595
 2105 0036 D4F83C31 		ldr	r3, [r4, #316]
 2106 003a 0020     		movs	r0, #0
ARM GAS  C:\Users\DJESSOU\AppData\Local\Temp\ccSNWOEX.s 			page 57


 2107 003c 9847     		blx	r3
 2108              	.LVL199:
 628:Lib/Camera_Middleware/sensors/cmw_vd66gy.c ****   /* De-assert the camera STANDBY pin (active high) */
 2109              		.loc 1 628 3 view .LVU596
 2110 003e C820     		movs	r0, #200
 2111 0040 FFF7FEFF 		bl	HAL_Delay
 2112              	.LVL200:
 630:Lib/Camera_Middleware/sensors/cmw_vd66gy.c ****   HAL_Delay(20);     /* NRST de-asserted during 20ms */
 2113              		.loc 1 630 3 view .LVU597
 2114 0044 0120     		movs	r0, #1
 2115 0046 D4F83C31 		ldr	r3, [r4, #316]
 2116 004a 9847     		blx	r3
 2117              	.LVL201:
 631:Lib/Camera_Middleware/sensors/cmw_vd66gy.c **** }
 2118              		.loc 1 631 3 view .LVU598
 2119 004c 1420     		movs	r0, #20
 2120 004e FFF7FEFF 		bl	HAL_Delay
 2121              	.LVL202:
 631:Lib/Camera_Middleware/sensors/cmw_vd66gy.c **** }
 2122              		.loc 1 631 3 is_stmt 0 view .LVU599
 2123              	.LBE56:
 2124              	.LBE55:
 651:Lib/Camera_Middleware/sensors/cmw_vd66gy.c **** 
 652:Lib/Camera_Middleware/sensors/cmw_vd66gy.c ****   ret = VD66GY_RegisterBusIO(io_ctx);
 2125              		.loc 1 652 3 is_stmt 1 view .LVU600
 2126              		.loc 1 652 9 is_stmt 0 view .LVU601
 2127 0052 2046     		mov	r0, r4
 2128 0054 FFF7FEFF 		bl	VD66GY_RegisterBusIO
 2129              	.LVL203:
 653:Lib/Camera_Middleware/sensors/cmw_vd66gy.c ****   if (ret != CMW_ERROR_NONE)
 2130              		.loc 1 653 3 is_stmt 1 view .LVU602
 2131              		.loc 1 653 6 is_stmt 0 view .LVU603
 2132 0058 20B1     		cbz	r0, .L102
 2133              	.LVL204:
 2134              	.L104:
 654:Lib/Camera_Middleware/sensors/cmw_vd66gy.c ****   {
 655:Lib/Camera_Middleware/sensors/cmw_vd66gy.c ****     return CMW_ERROR_COMPONENT_FAILURE;
 2135              		.loc 1 655 12 view .LVU604
 2136 005a 6FF00404 		mvn	r4, #4
 2137              	.LVL205:
 2138              	.L101:
 656:Lib/Camera_Middleware/sensors/cmw_vd66gy.c ****   }
 657:Lib/Camera_Middleware/sensors/cmw_vd66gy.c **** 
 658:Lib/Camera_Middleware/sensors/cmw_vd66gy.c ****   ret = VD66GY_ReadID(io_ctx, &id);
 659:Lib/Camera_Middleware/sensors/cmw_vd66gy.c ****   if (ret != CMW_ERROR_NONE)
 660:Lib/Camera_Middleware/sensors/cmw_vd66gy.c ****   {
 661:Lib/Camera_Middleware/sensors/cmw_vd66gy.c ****     return CMW_ERROR_COMPONENT_FAILURE;
 662:Lib/Camera_Middleware/sensors/cmw_vd66gy.c ****   }
 663:Lib/Camera_Middleware/sensors/cmw_vd66gy.c ****   if (id != VD66GY_CHIP_ID)
 664:Lib/Camera_Middleware/sensors/cmw_vd66gy.c ****   {
 665:Lib/Camera_Middleware/sensors/cmw_vd66gy.c ****     return CMW_ERROR_COMPONENT_FAILURE;
 666:Lib/Camera_Middleware/sensors/cmw_vd66gy.c ****   }
 667:Lib/Camera_Middleware/sensors/cmw_vd66gy.c **** 
 668:Lib/Camera_Middleware/sensors/cmw_vd66gy.c ****   memset(vd6g_if, 0, sizeof(*vd6g_if));
 669:Lib/Camera_Middleware/sensors/cmw_vd66gy.c ****   vd6g_if->Init = CMW_VD66GY_Init;
 670:Lib/Camera_Middleware/sensors/cmw_vd66gy.c ****   vd6g_if->DeInit = CMW_VD66GY_DeInit;
 671:Lib/Camera_Middleware/sensors/cmw_vd66gy.c ****   vd6g_if->Run = CMW_VD66GY_Run;
ARM GAS  C:\Users\DJESSOU\AppData\Local\Temp\ccSNWOEX.s 			page 58


 672:Lib/Camera_Middleware/sensors/cmw_vd66gy.c ****   vd6g_if->VsyncEventCallback = CMW_VD66GY_VsyncEventCallback;
 673:Lib/Camera_Middleware/sensors/cmw_vd66gy.c ****   vd6g_if->FrameEventCallback = CMW_VD66GY_FrameEventCallback;
 674:Lib/Camera_Middleware/sensors/cmw_vd66gy.c ****   vd6g_if->Start = CMW_VD66GY_Start;
 675:Lib/Camera_Middleware/sensors/cmw_vd66gy.c ****   vd6g_if->Stop = CMW_VD66GY_Stop;
 676:Lib/Camera_Middleware/sensors/cmw_vd66gy.c ****   vd6g_if->SetGain = CMW_VD66GY_SetGain;
 677:Lib/Camera_Middleware/sensors/cmw_vd66gy.c ****   vd6g_if->SetExposure = CMW_VD66GY_SetExposure;
 678:Lib/Camera_Middleware/sensors/cmw_vd66gy.c ****   vd6g_if->SetExposureMode = CMW_VD66GY_SetExposureMode;
 679:Lib/Camera_Middleware/sensors/cmw_vd66gy.c ****   vd6g_if->SetWBRefMode = CMW_VD66GY_SetWBRefMode;
 680:Lib/Camera_Middleware/sensors/cmw_vd66gy.c ****   vd6g_if->ListWBRefModes = CMW_VD66GY_ListWBRefModes;
 681:Lib/Camera_Middleware/sensors/cmw_vd66gy.c ****   vd6g_if->GetSensorInfo = CMW_VD66GY_GetSensorInfo;
 682:Lib/Camera_Middleware/sensors/cmw_vd66gy.c ****   return ret;
 683:Lib/Camera_Middleware/sensors/cmw_vd66gy.c **** }
 2139              		.loc 1 683 1 view .LVU605
 2140 005e 2046     		mov	r0, r4
 2141 0060 03B0     		add	sp, sp, #12
 2142              		.cfi_remember_state
 2143              		.cfi_def_cfa_offset 12
 2144              		@ sp needed
 2145 0062 30BD     		pop	{r4, r5, pc}
 2146              	.LVL206:
 2147              	.L102:
 2148              		.cfi_restore_state
 658:Lib/Camera_Middleware/sensors/cmw_vd66gy.c ****   if (ret != CMW_ERROR_NONE)
 2149              		.loc 1 658 3 is_stmt 1 view .LVU606
 658:Lib/Camera_Middleware/sensors/cmw_vd66gy.c ****   if (ret != CMW_ERROR_NONE)
 2150              		.loc 1 658 9 is_stmt 0 view .LVU607
 2151 0064 2046     		mov	r0, r4
 2152              	.LVL207:
 658:Lib/Camera_Middleware/sensors/cmw_vd66gy.c ****   if (ret != CMW_ERROR_NONE)
 2153              		.loc 1 658 9 view .LVU608
 2154 0066 01A9     		add	r1, sp, #4
 2155 0068 FFF7FEFF 		bl	VD66GY_ReadID
 2156              	.LVL208:
 659:Lib/Camera_Middleware/sensors/cmw_vd66gy.c ****   {
 2157              		.loc 1 659 3 is_stmt 1 view .LVU609
 659:Lib/Camera_Middleware/sensors/cmw_vd66gy.c ****   {
 2158              		.loc 1 659 6 is_stmt 0 view .LVU610
 2159 006c 0446     		mov	r4, r0
 2160              	.LVL209:
 659:Lib/Camera_Middleware/sensors/cmw_vd66gy.c ****   {
 2161              		.loc 1 659 6 view .LVU611
 2162 006e 0028     		cmp	r0, #0
 2163 0070 F3D1     		bne	.L104
 663:Lib/Camera_Middleware/sensors/cmw_vd66gy.c ****   {
 2164              		.loc 1 663 3 is_stmt 1 view .LVU612
 663:Lib/Camera_Middleware/sensors/cmw_vd66gy.c ****   {
 2165              		.loc 1 663 6 is_stmt 0 view .LVU613
 2166 0072 45F20363 		movw	r3, #22019
 2167 0076 019A     		ldr	r2, [sp, #4]
 2168 0078 9A42     		cmp	r2, r3
 2169 007a EED1     		bne	.L104
 668:Lib/Camera_Middleware/sensors/cmw_vd66gy.c ****   vd6g_if->Init = CMW_VD66GY_Init;
 2170              		.loc 1 668 3 is_stmt 1 view .LVU614
 2171 007c 0146     		mov	r1, r0
 2172 007e 5022     		movs	r2, #80
 2173 0080 05F11C00 		add	r0, r5, #28
 2174              	.LVL210:
ARM GAS  C:\Users\DJESSOU\AppData\Local\Temp\ccSNWOEX.s 			page 59


 668:Lib/Camera_Middleware/sensors/cmw_vd66gy.c ****   vd6g_if->Init = CMW_VD66GY_Init;
 2175              		.loc 1 668 3 is_stmt 0 view .LVU615
 2176 0084 FFF7FEFF 		bl	memset
 2177              	.LVL211:
 669:Lib/Camera_Middleware/sensors/cmw_vd66gy.c ****   vd6g_if->DeInit = CMW_VD66GY_DeInit;
 2178              		.loc 1 669 3 is_stmt 1 view .LVU616
 669:Lib/Camera_Middleware/sensors/cmw_vd66gy.c ****   vd6g_if->DeInit = CMW_VD66GY_DeInit;
 2179              		.loc 1 669 17 is_stmt 0 view .LVU617
 2180 0088 174B     		ldr	r3, .L105+40
 2181 008a 2B60     		str	r3, [r5]
 670:Lib/Camera_Middleware/sensors/cmw_vd66gy.c ****   vd6g_if->Run = CMW_VD66GY_Run;
 2182              		.loc 1 670 3 is_stmt 1 view .LVU618
 670:Lib/Camera_Middleware/sensors/cmw_vd66gy.c ****   vd6g_if->Run = CMW_VD66GY_Run;
 2183              		.loc 1 670 19 is_stmt 0 view .LVU619
 2184 008c 174B     		ldr	r3, .L105+44
 2185 008e 6B60     		str	r3, [r5, #4]
 671:Lib/Camera_Middleware/sensors/cmw_vd66gy.c ****   vd6g_if->VsyncEventCallback = CMW_VD66GY_VsyncEventCallback;
 2186              		.loc 1 671 3 is_stmt 1 view .LVU620
 671:Lib/Camera_Middleware/sensors/cmw_vd66gy.c ****   vd6g_if->VsyncEventCallback = CMW_VD66GY_VsyncEventCallback;
 2187              		.loc 1 671 16 is_stmt 0 view .LVU621
 2188 0090 174B     		ldr	r3, .L105+48
 2189 0092 EB60     		str	r3, [r5, #12]
 672:Lib/Camera_Middleware/sensors/cmw_vd66gy.c ****   vd6g_if->FrameEventCallback = CMW_VD66GY_FrameEventCallback;
 2190              		.loc 1 672 3 is_stmt 1 view .LVU622
 672:Lib/Camera_Middleware/sensors/cmw_vd66gy.c ****   vd6g_if->FrameEventCallback = CMW_VD66GY_FrameEventCallback;
 2191              		.loc 1 672 31 is_stmt 0 view .LVU623
 2192 0094 174B     		ldr	r3, .L105+52
 2193 0096 2B61     		str	r3, [r5, #16]
 673:Lib/Camera_Middleware/sensors/cmw_vd66gy.c ****   vd6g_if->Start = CMW_VD66GY_Start;
 2194              		.loc 1 673 3 is_stmt 1 view .LVU624
 673:Lib/Camera_Middleware/sensors/cmw_vd66gy.c ****   vd6g_if->Start = CMW_VD66GY_Start;
 2195              		.loc 1 673 31 is_stmt 0 view .LVU625
 2196 0098 174B     		ldr	r3, .L105+56
 2197 009a 6B61     		str	r3, [r5, #20]
 674:Lib/Camera_Middleware/sensors/cmw_vd66gy.c ****   vd6g_if->Stop = CMW_VD66GY_Stop;
 2198              		.loc 1 674 3 is_stmt 1 view .LVU626
 674:Lib/Camera_Middleware/sensors/cmw_vd66gy.c ****   vd6g_if->Stop = CMW_VD66GY_Stop;
 2199              		.loc 1 674 18 is_stmt 0 view .LVU627
 2200 009c 174B     		ldr	r3, .L105+60
 2201 009e AB60     		str	r3, [r5, #8]
 675:Lib/Camera_Middleware/sensors/cmw_vd66gy.c ****   vd6g_if->SetGain = CMW_VD66GY_SetGain;
 2202              		.loc 1 675 3 is_stmt 1 view .LVU628
 675:Lib/Camera_Middleware/sensors/cmw_vd66gy.c ****   vd6g_if->SetGain = CMW_VD66GY_SetGain;
 2203              		.loc 1 675 17 is_stmt 0 view .LVU629
 2204 00a0 174B     		ldr	r3, .L105+64
 2205 00a2 AB61     		str	r3, [r5, #24]
 676:Lib/Camera_Middleware/sensors/cmw_vd66gy.c ****   vd6g_if->SetExposure = CMW_VD66GY_SetExposure;
 2206              		.loc 1 676 3 is_stmt 1 view .LVU630
 676:Lib/Camera_Middleware/sensors/cmw_vd66gy.c ****   vd6g_if->SetExposure = CMW_VD66GY_SetExposure;
 2207              		.loc 1 676 20 is_stmt 0 view .LVU631
 2208 00a4 174B     		ldr	r3, .L105+68
 2209 00a6 AB64     		str	r3, [r5, #72]
 677:Lib/Camera_Middleware/sensors/cmw_vd66gy.c ****   vd6g_if->SetExposureMode = CMW_VD66GY_SetExposureMode;
 2210              		.loc 1 677 3 is_stmt 1 view .LVU632
 677:Lib/Camera_Middleware/sensors/cmw_vd66gy.c ****   vd6g_if->SetExposureMode = CMW_VD66GY_SetExposureMode;
 2211              		.loc 1 677 24 is_stmt 0 view .LVU633
 2212 00a8 174B     		ldr	r3, .L105+72
ARM GAS  C:\Users\DJESSOU\AppData\Local\Temp\ccSNWOEX.s 			page 60


 2213 00aa EB64     		str	r3, [r5, #76]
 678:Lib/Camera_Middleware/sensors/cmw_vd66gy.c ****   vd6g_if->SetWBRefMode = CMW_VD66GY_SetWBRefMode;
 2214              		.loc 1 678 3 is_stmt 1 view .LVU634
 678:Lib/Camera_Middleware/sensors/cmw_vd66gy.c ****   vd6g_if->SetWBRefMode = CMW_VD66GY_SetWBRefMode;
 2215              		.loc 1 678 28 is_stmt 0 view .LVU635
 2216 00ac 174B     		ldr	r3, .L105+76
 2217 00ae 2B65     		str	r3, [r5, #80]
 679:Lib/Camera_Middleware/sensors/cmw_vd66gy.c ****   vd6g_if->ListWBRefModes = CMW_VD66GY_ListWBRefModes;
 2218              		.loc 1 679 3 is_stmt 1 view .LVU636
 679:Lib/Camera_Middleware/sensors/cmw_vd66gy.c ****   vd6g_if->ListWBRefModes = CMW_VD66GY_ListWBRefModes;
 2219              		.loc 1 679 25 is_stmt 0 view .LVU637
 2220 00b0 174B     		ldr	r3, .L105+80
 2221 00b2 6B65     		str	r3, [r5, #84]
 680:Lib/Camera_Middleware/sensors/cmw_vd66gy.c ****   vd6g_if->GetSensorInfo = CMW_VD66GY_GetSensorInfo;
 2222              		.loc 1 680 3 is_stmt 1 view .LVU638
 680:Lib/Camera_Middleware/sensors/cmw_vd66gy.c ****   vd6g_if->GetSensorInfo = CMW_VD66GY_GetSensorInfo;
 2223              		.loc 1 680 27 is_stmt 0 view .LVU639
 2224 00b4 174B     		ldr	r3, .L105+84
 2225 00b6 AB65     		str	r3, [r5, #88]
 681:Lib/Camera_Middleware/sensors/cmw_vd66gy.c ****   return ret;
 2226              		.loc 1 681 3 is_stmt 1 view .LVU640
 681:Lib/Camera_Middleware/sensors/cmw_vd66gy.c ****   return ret;
 2227              		.loc 1 681 26 is_stmt 0 view .LVU641
 2228 00b8 174B     		ldr	r3, .L105+88
 2229 00ba 2B66     		str	r3, [r5, #96]
 682:Lib/Camera_Middleware/sensors/cmw_vd66gy.c **** }
 2230              		.loc 1 682 3 is_stmt 1 view .LVU642
 682:Lib/Camera_Middleware/sensors/cmw_vd66gy.c **** }
 2231              		.loc 1 682 10 is_stmt 0 view .LVU643
 2232 00bc CFE7     		b	.L101
 2233              	.L106:
 2234 00be 00BF     		.align	2
 2235              	.L105:
 2236 00c0 00000000 		.word	VD6G_ShutdownPin
 2237 00c4 00000000 		.word	VD6G_Read8
 2238 00c8 00000000 		.word	VD6G_Read16
 2239 00cc 00000000 		.word	VD6G_Read32
 2240 00d0 00000000 		.word	VD6G_Write8
 2241 00d4 00000000 		.word	VD6G_Write16
 2242 00d8 00000000 		.word	VD6G_Write32
 2243 00dc 00000000 		.word	VD6G_WriteArray
 2244 00e0 00000000 		.word	VD6G_Delay
 2245 00e4 00000000 		.word	VD6G_Log
 2246 00e8 00000000 		.word	CMW_VD66GY_Init
 2247 00ec 00000000 		.word	CMW_VD66GY_DeInit
 2248 00f0 00000000 		.word	CMW_VD66GY_Run
 2249 00f4 00000000 		.word	CMW_VD66GY_VsyncEventCallback
 2250 00f8 00000000 		.word	CMW_VD66GY_FrameEventCallback
 2251 00fc 00000000 		.word	CMW_VD66GY_Start
 2252 0100 00000000 		.word	CMW_VD66GY_Stop
 2253 0104 00000000 		.word	CMW_VD66GY_SetGain
 2254 0108 00000000 		.word	CMW_VD66GY_SetExposure
 2255 010c 00000000 		.word	CMW_VD66GY_SetExposureMode
 2256 0110 00000000 		.word	CMW_VD66GY_SetWBRefMode
 2257 0114 00000000 		.word	CMW_VD66GY_ListWBRefModes
 2258 0118 00000000 		.word	CMW_VD66GY_GetSensorInfo
 2259              		.cfi_endproc
ARM GAS  C:\Users\DJESSOU\AppData\Local\Temp\ccSNWOEX.s 			page 61


 2260              	.LFE3448:
 2262              		.section	.rodata.__func__.0,"a"
 2265              	__func__.0:
 2266 0000 434D575F 		.ascii	"CMW_VD66GY_SetDefaultSensorValues\000"
 2266      56443636 
 2266      47595F53 
 2266      65744465 
 2266      6661756C 
 2267              		.section	.rodata.ISP_IQParamCacheInit_VD66GY,"a"
 2268              		.align	2
 2271              	ISP_IQParamCacheInit_VD66GY:
 2272 0000 00       		.byte	0
 2273 0001 000000   		.space	3
 2274 0004 00000000 		.word	0
 2275 0008 00000000 		.word	0
 2276 000c 01       		.byte	1
 2277 000d 00       		.byte	0
 2278 000e 02       		.byte	2
 2279 000f 04       		.byte	4
 2280 0010 04       		.byte	4
 2281 0011 06       		.byte	6
 2282 0012 0000     		.space	2
 2283 0014 00       		.byte	0
 2284 0015 000000   		.space	3
 2285 0018 00000000 		.word	0
 2286 001c 00000000 		.word	0
 2287 0020 00000000 		.word	0
 2288 0024 00000000 		.word	0
 2289 0028 00000000 		.word	0
 2290 002c 00000000 		.word	0
 2291 0030 00000000 		.word	0
 2292 0034 00000000 		.word	0
 2293 0038 00000000 		.word	0
 2294 003c 8C000000 		.word	140
 2295 0040 55010000 		.word	341
 2296 0044 48030000 		.word	840
 2297 0048 AA020000 		.word	682
 2298 004c 00000000 		.word	0
 2299 0050 00000000 		.word	0
 2300 0054 00       		.byte	0
 2301 0055 000000   		.space	3
 2302 0058 00000000 		.word	0
 2303 005c 00       		.byte	0
 2304 005d 00       		.byte	0
 2305 005e 00000000 		.space	6
 2305      0000
 2306 0064 01       		.byte	1
 2307 0065 10       		.byte	16
 2308 0066 10       		.byte	16
 2309 0067 10       		.byte	16
 2310 0068 00       		.byte	0
 2311 0069 00       		.byte	0
 2312 006a 00000000 		.space	6
 2312      0000
 2313 0070 00       		.byte	0
 2314 0071 000000   		.space	3
 2315 0074 01       		.byte	1
ARM GAS  C:\Users\DJESSOU\AppData\Local\Temp\ccSNWOEX.s 			page 62


 2316 0075 4A756467 		.ascii	"JudgeII-A\000"
 2316      6549492D 
 2316      4100
 2317 007f 00000000 		.space	22
 2317      00000000 
 2317      00000000 
 2317      00000000 
 2317      00000000 
 2318 0095 4A756467 		.ascii	"JudgeII-TL84\000"
 2318      6549492D 
 2318      544C3834 
 2318      00
 2319 00a2 00000000 		.space	19
 2319      00000000 
 2319      00000000 
 2319      00000000 
 2319      000000
 2320 00b5 4A756467 		.ascii	"JudgeII-DAY\000"
 2320      6549492D 
 2320      44415900 
 2321 00c1 00000000 		.space	20
 2321      00000000 
 2321      00000000 
 2321      00000000 
 2321      00000000 
 2322 00d5 00       		.ascii	"\000"
 2323 00d6 00000000 		.space	31
 2323      00000000 
 2323      00000000 
 2323      00000000 
 2323      00000000 
 2324 00f5 00       		.ascii	"\000"
 2325 00f6 00000000 		.space	31
 2325      00000000 
 2325      00000000 
 2325      00000000 
 2325      00000000 
 2326 0115 000000   		.space	3
 2327 0118 BE0A0000 		.word	2750
 2328 011c 36100000 		.word	4150
 2329 0120 5E1A0000 		.word	6750
 2330 0124 00000000 		.word	0
 2331 0128 00000000 		.word	0
 2332 012c C095A905 		.word	95000000
 2333 0130 4047F906 		.word	117000000
 2334 0134 005F4C09 		.word	156000000
 2335 0138 00000000 		.word	0
 2336 013c 00000000 		.word	0
 2337 0140 00E1F505 		.word	100000000
 2338 0144 00E1F505 		.word	100000000
 2339 0148 00E1F505 		.word	100000000
 2340 014c 00000000 		.word	0
 2341 0150 00000000 		.word	0
 2342 0154 80972F0E 		.word	238000000
 2343 0158 40E9430B 		.word	189000000
 2344 015c 80D1F008 		.word	150000000
 2345 0160 00000000 		.word	0
ARM GAS  C:\Users\DJESSOU\AppData\Local\Temp\ccSNWOEX.s 			page 63


 2346 0164 00000000 		.word	0
 2347 0168 1FC3FB07 		.word	133939999
 2348 016c E0C0C4FE 		.word	-20660000
 2349 0170 80B422FE 		.word	-31280000
 2350 0174 30D8BDFD 		.word	-37890000
 2351 0178 80EFEB08 		.word	149680000
 2352 017c 618670FE 		.word	-26179999
 2353 0180 C0201F00 		.word	2040000
 2354 0184 404EAEFA 		.word	-89240000
 2355 0188 70DB380D 		.word	221830000
 2356 018c 006BCD08 		.word	147680000
 2357 0190 7021B7FD 		.word	-38330000
 2358 0194 800040FE 		.word	-29360000
 2359 0198 00C498FD 		.word	-40320000
 2360 019c 90EFB308 		.word	146010000
 2361 01a0 C0DF20FE 		.word	-31400000
 2362 01a4 E0C81000 		.word	1100000
 2363 01a8 408D59FC 		.word	-61240000
 2364 01ac 70156B0A 		.word	174790000
 2365 01b0 90EFB308 		.word	146010000
 2366 01b4 80A2A8FD 		.word	-39280000
 2367 01b8 207629FF 		.word	-14060000
 2368 01bc D0D367FE 		.word	-26750000
 2369 01c0 10D01609 		.word	152490000
 2370 01c4 403277FD 		.word	-42520000
 2371 01c8 40B31100 		.word	1160000
 2372 01cc B082B2FC 		.word	-55410000
 2373 01d0 70E49308 		.word	143910000
 2374 01d4 00000000 		.word	0
 2375 01d8 00000000 		.word	0
 2376 01dc 00000000 		.word	0
 2377 01e0 00000000 		.word	0
 2378 01e4 00000000 		.word	0
 2379 01e8 00000000 		.word	0
 2380 01ec 00000000 		.word	0
 2381 01f0 00000000 		.word	0
 2382 01f4 00000000 		.word	0
 2383 01f8 00000000 		.word	0
 2384 01fc 00000000 		.word	0
 2385 0200 00000000 		.word	0
 2386 0204 00000000 		.word	0
 2387 0208 00000000 		.word	0
 2388 020c 00000000 		.word	0
 2389 0210 00000000 		.word	0
 2390 0214 00000000 		.word	0
 2391 0218 00000000 		.word	0
 2392 021c 50411E   		.ascii	"PA\036"
 2393 021f 454626   		.ascii	"EF&"
 2394 0222 36462D   		.ascii	"6F-"
 2395 0225 000000   		.ascii	"\000\000\000"
 2396 0228 000000   		.ascii	"\000\000\000"
 2397 022b 00       		.space	1
 2398 022c 00       		.byte	0
 2399 022d 000000   		.space	3
 2400 0230 00000000 		.word	0
 2401 0234 00000000 		.word	0
 2402 0238 00000000 		.word	0
ARM GAS  C:\Users\DJESSOU\AppData\Local\Temp\ccSNWOEX.s 			page 64


 2403 023c 00       		.byte	0
 2404 023d 000000   		.space	3
 2405 0240 00000000 		.word	0
 2406 0244 00000000 		.word	0
 2407 0248 00000000 		.word	0
 2408 024c 00000000 		.word	0
 2409 0250 00000000 		.word	0
 2410 0254 00000000 		.word	0
 2411 0258 00000000 		.word	0
 2412 025c 00000000 		.word	0
 2413 0260 00000000 		.word	0
 2414 0264 01       		.byte	1
 2415 0265 04       		.byte	4
 2416 0266 0000     		.space	2
 2417 0268 78050000 		.word	1400
 2418 026c D0070000 		.word	2000
 2419 0270 2A       		.byte	42
 2420 0271 000000   		.space	3
 2421 0274 204E0000 		.word	20000
 2422 0278 C8       		.byte	-56
 2423 0279 000000   		.space	3
 2424 027c 2C010000 		.word	300
 2425 0280 88130000 		.word	5000
 2426 0284 14       		.byte	20
 2427 0285 000000   		.space	3
 2428 0288 83740000 		.word	29827
 2429 028c 6F       		.byte	111
 2430 028d 000000   		.space	3
 2431 0290 91ED3C3F 		.word	1060957585
 2432              		.text
 2433              	.Letext0:
 2434              		.file 2 "C:\\ST\\STM32CubeIDE_1.18.1\\STM32CubeIDE\\plugins\\com.st.stm32cube.ide.mcu.externaltool
 2435              		.file 3 "C:\\ST\\STM32CubeIDE_1.18.1\\STM32CubeIDE\\plugins\\com.st.stm32cube.ide.mcu.externaltool
 2436              		.file 4 "C:\\ST\\STM32CubeIDE_1.18.1\\STM32CubeIDE\\plugins\\com.st.stm32cube.ide.mcu.externaltool
 2437              		.file 5 "STM32Cube_FW_N6/Drivers/CMSIS/Device/ST/STM32N6xx/Include/stm32n657xx.h"
 2438              		.file 6 "STM32Cube_FW_N6/Drivers/STM32N6xx_HAL_Driver/Inc/stm32n6xx_hal_dcmipp.h"
 2439              		.file 7 "C:\\ST\\STM32CubeIDE_1.18.1\\STM32CubeIDE\\plugins\\com.st.stm32cube.ide.mcu.externaltool
 2440              		.file 8 "C:\\ST\\STM32CubeIDE_1.18.1\\STM32CubeIDE\\plugins\\com.st.stm32cube.ide.mcu.externaltool
 2441              		.file 9 "Lib/Camera_Middleware/ISP_Library/isp/Inc/isp_core.h"
 2442              		.file 10 "Lib/Camera_Middleware/sensors/cmw_sensors_if.h"
 2443              		.file 11 "Lib/Camera_Middleware/sensors/vd6g/vd6g.h"
 2444              		.file 12 "Lib/Camera_Middleware/cmw_camera.h"
 2445              		.file 13 "Lib/Camera_Middleware/sensors/cmw_vd66gy.h"
 2446              		.file 14 "Inc/imx335_isp_param_conf.h"
 2447              		.file 15 "Inc/vd66gy_isp_param_conf.h"
 2448              		.file 16 "Inc/vd1943_isp_param_conf.h"
 2449              		.file 17 "Lib/Camera_Middleware/ISP_Library/isp/Inc/isp_api.h"
 2450              		.file 18 "STM32Cube_FW_N6/Drivers/STM32N6xx_HAL_Driver/Inc/stm32n6xx_hal.h"
 2451              		.file 19 "C:\\ST\\STM32CubeIDE_1.18.1\\STM32CubeIDE\\plugins\\com.st.stm32cube.ide.mcu.externaltoo
 2452              		.file 20 "C:\\ST\\STM32CubeIDE_1.18.1\\STM32CubeIDE\\plugins\\com.st.stm32cube.ide.mcu.externaltoo
 2453              		.file 21 "C:\\ST\\STM32CubeIDE_1.18.1\\STM32CubeIDE\\plugins\\com.st.stm32cube.ide.mcu.externaltoo
 2454              		.file 22 "Inc/isp_param_conf.h"
 2455              		.file 23 "<built-in>"
ARM GAS  C:\Users\DJESSOU\AppData\Local\Temp\ccSNWOEX.s 			page 65

