ARM GAS  C:\Users\DJESSOU\AppData\Local\Temp\ccZ709fi.s 			page 1


   1              		.arch armv8.1-m.main
   2              		.fpu fpv5-d16
   3              		.arch_extension dsp
   4              		.arch_extension fp
   5              		.arch_extension fp.dp
   6              		.arch_extension mve
   7              		.arch_extension mve.fp
   8              		.eabi_attribute 5, "cortex-m55"
   9              		.eabi_attribute 28, 1
  10              		.eabi_attribute 20, 1
  11              		.eabi_attribute 21, 1
  12              		.eabi_attribute 23, 3
  13              		.eabi_attribute 24, 1
  14              		.eabi_attribute 25, 1
  15              		.eabi_attribute 26, 1
  16              		.eabi_attribute 30, 4
  17              		.eabi_attribute 34, 1
  18              		.eabi_attribute 38, 1
  19              		.eabi_attribute 18, 4
  20              		.file	"hand_landmark.c"
  21              		.text
  22              	.Ltext0:
  23              		.cfi_sections	.debug_frame
  24              		.file 1 "Model/hand_landmark.c"
  25              		.section	.text._ec_blob_cache_start_func_74,"ax",%progbits
  26              		.align	1
  27              		.syntax unified
  28              		.thumb
  29              		.thumb_func
  31              	_ec_blob_cache_start_func_74:
  32              	.LVL0:
  33              	.LFB311:
   1:Model/hand_landmark.c **** /* AUTOGENERATED DO NOT MODIFY */
   2:Model/hand_landmark.c **** 
   3:Model/hand_landmark.c **** /**
   4:Model/hand_landmark.c ****   ******************************************************************************
   5:Model/hand_landmark.c ****   * @file    hand_landmark.c
   6:Model/hand_landmark.c ****   * @brief   NN Code autogenerated DO NOT MODIFY IT
   7:Model/hand_landmark.c ****   ******************************************************************************
   8:Model/hand_landmark.c ****   * @attention
   9:Model/hand_landmark.c ****   *
  10:Model/hand_landmark.c ****   * Copyright (c) 2023 STMicroelectronics.
  11:Model/hand_landmark.c ****   * All rights reserved.
  12:Model/hand_landmark.c ****   *
  13:Model/hand_landmark.c ****   * This software is licensed under terms that can be found in the LICENSE file
  14:Model/hand_landmark.c ****   * in the root directory of this software component.
  15:Model/hand_landmark.c ****   * If no LICENSE file comes with this software, it is provided AS-IS.
  16:Model/hand_landmark.c ****   *
  17:Model/hand_landmark.c ****   ******************************************************************************
  18:Model/hand_landmark.c ****   */
  19:Model/hand_landmark.c **** 
  20:Model/hand_landmark.c **** /*
  21:Model/hand_landmark.c ****  * GIT_SHA         "80369096c1c1b7ea4d6b2cc985d9e001f59b7c27"
  22:Model/hand_landmark.c ****  * GIT_BRANCH      "STAI-3.0"
  23:Model/hand_landmark.c ****  * GIT_DESCRIPTION "atonn-v1.1.3-8-g80369096"
  24:Model/hand_landmark.c ****  *
  25:Model/hand_landmark.c ****  * Command Line options:
ARM GAS  C:\Users\DJESSOU\AppData\Local\Temp\ccZ709fi.s 			page 2


  26:Model/hand_landmark.c ****  * --load-mdesc-file = "/home/rattingu/st/stedgeai-linux-11.0.0-RC6/Utilities/configs/stm32n6"
  27:Model/hand_landmark.c ****  * --load-cdesc-file = "/home/rattingu/st/stedgeai-linux-11.0.0-RC6/Utilities/configs/cortex-m55"
  28:Model/hand_landmark.c ****  * --load-mpool-file = "/home/rattingu/Workspace/x-cube-n6-ai-hand-landmarks/Model/my_mpools/hand_l
  29:Model/hand_landmark.c ****  * --cache-maintenance = true
  30:Model/hand_landmark.c ****  * --enable-virtual-mem-pools = true
  31:Model/hand_landmark.c ****  * --native-float = true
  32:Model/hand_landmark.c ****  * --json-quant-file = "/home/rattingu/Workspace/x-cube-n6-ai-hand-landmarks/Model/st_ai_output/033
  33:Model/hand_landmark.c ****  * --optimization = 2
  34:Model/hand_landmark.c ****  * --Os = true
  35:Model/hand_landmark.c ****  * --Oconv-split-kw = true
  36:Model/hand_landmark.c ****  * --Omax-ca-pipe = 4
  37:Model/hand_landmark.c ****  * --Ocache-opt = true
  38:Model/hand_landmark.c ****  * --enable-epoch-controller = true
  39:Model/hand_landmark.c ****  * --output-info-file = "c_info"
  40:Model/hand_landmark.c ****  * --onnx-input = "/home/rattingu/Workspace/x-cube-n6-ai-hand-landmarks/Model/st_ai_output/033_hand
  41:Model/hand_landmark.c ****  * --out-dir-prefix = "/home/rattingu/Workspace/x-cube-n6-ai-hand-landmarks/Model/st_ai_ws/neural_a
  42:Model/hand_landmark.c ****  * --network-name = "hand_landmark"
  43:Model/hand_landmark.c ****  * --all-buffers-info = true
  44:Model/hand_landmark.c ****  * --generate-stai = true
  45:Model/hand_landmark.c ****  */
  46:Model/hand_landmark.c **** 
  47:Model/hand_landmark.c **** #include "ll_aton_NN_interface.h"
  48:Model/hand_landmark.c **** #include "ll_aton.h"
  49:Model/hand_landmark.c **** #include "ll_aton_lib.h"
  50:Model/hand_landmark.c **** #include "ll_aton_version.h"
  51:Model/hand_landmark.c **** #include "ll_sw.h"
  52:Model/hand_landmark.c **** #include "ecloader.h"
  53:Model/hand_landmark.c **** #include "ll_aton_cipher.h"
  54:Model/hand_landmark.c **** 
  55:Model/hand_landmark.c **** #if LL_ATON_VERSION_MAJOR != 1 || LL_ATON_VERSION_MINOR != 1 || LL_ATON_VERSION_MICRO != 3 || LL_AT
  56:Model/hand_landmark.c **** #  error "Possible mismatch in ll_aton library used"
  57:Model/hand_landmark.c **** #endif
  58:Model/hand_landmark.c **** 
  59:Model/hand_landmark.c **** #if !defined(LL_ATON_DBG_BUFFER_INFO_EXCLUDED)
  60:Model/hand_landmark.c **** #  define LL_ATON_DBG_BUFFER_INFO_EXCLUDED 0
  61:Model/hand_landmark.c **** #endif
  62:Model/hand_landmark.c **** 
  63:Model/hand_landmark.c **** /* global pool 5 is 3.04 MB */
  64:Model/hand_landmark.c **** /* index=5 file postfix=xSPI2 name=octoFlash offset=0x70580000  absolute_mode size=4194296 READ_ONL
  65:Model/hand_landmark.c **** /* global pool 4 is ? */
  66:Model/hand_landmark.c **** /* index=4 file postfix=xSPI1 name=hyperRAM offset=0x90000000  absolute_mode size=0 READ_WRITE THRO
  67:Model/hand_landmark.c **** /* global pool 1 is 441.00 KB */
  68:Model/hand_landmark.c **** /* index=1 file postfix=AXISRAM5 name=npuRAM5 offset=0x342e0000  absolute_mode size=458752 READ_WRI
  69:Model/hand_landmark.c **** /* global pool 2 is 441.00 KB */
  70:Model/hand_landmark.c **** /* index=2 file postfix=AXISRAM4 name=npuRAM4 offset=0x34270000  absolute_mode size=458752 READ_WRI
  71:Model/hand_landmark.c **** /* global pool 3 is 269.50 KB */
  72:Model/hand_landmark.c **** /* index=3 file postfix=AXISRAM3 name=npuRAM3 offset=0x34200000  absolute_mode size=458752 READ_WRI
  73:Model/hand_landmark.c **** /* global pool 0 is ? */
  74:Model/hand_landmark.c **** /* index=0 file postfix=AXISRAM6 name=npuRAM6 offset=0x34350000  absolute_mode size=458744 READ_WRI
  75:Model/hand_landmark.c **** /* global pool 8 is 1.31 MB */
  76:Model/hand_landmark.c **** /* index=8 file postfix=AXISRAM3_AXISRAM4_AXISRAM5_AXISRAM6 name=npuRAM3_npuRAM4_npuRAM5_npuRAM6 of
  77:Model/hand_landmark.c **** 
  78:Model/hand_landmark.c **** 
  79:Model/hand_landmark.c **** const LL_Streng_EncryptionTypedef *LL_ATON_WeightEncryption_Info_hand_landmark()
  80:Model/hand_landmark.c **** {
  81:Model/hand_landmark.c ****   static const LL_Streng_EncryptionTypedef LL_Streng_EncryptionStruct = {
  82:Model/hand_landmark.c ****     .enable = 0,
ARM GAS  C:\Users\DJESSOU\AppData\Local\Temp\ccZ709fi.s 			page 3


  83:Model/hand_landmark.c ****   };
  84:Model/hand_landmark.c **** 
  85:Model/hand_landmark.c ****   return &LL_Streng_EncryptionStruct;
  86:Model/hand_landmark.c **** }
  87:Model/hand_landmark.c **** 
  88:Model/hand_landmark.c **** const LL_Streng_EncryptionTypedef *LL_ATON_BlobEncryption_Info_hand_landmark()
  89:Model/hand_landmark.c **** {
  90:Model/hand_landmark.c ****   static const LL_Streng_EncryptionTypedef LL_Streng_EncryptionStruct = {
  91:Model/hand_landmark.c ****     .enable = 0,
  92:Model/hand_landmark.c ****   };
  93:Model/hand_landmark.c **** 
  94:Model/hand_landmark.c ****   return &LL_Streng_EncryptionStruct;
  95:Model/hand_landmark.c **** }
  96:Model/hand_landmark.c **** 
  97:Model/hand_landmark.c **** LL_ATON_User_IO_Result_t LL_ATON_Set_User_Input_Buffer_hand_landmark(uint32_t num, void* buffer, ui
  98:Model/hand_landmark.c **** {
  99:Model/hand_landmark.c ****   { 
 100:Model/hand_landmark.c ****     return LL_ATON_User_IO_WRONG_INDEX;
 101:Model/hand_landmark.c ****   }
 102:Model/hand_landmark.c **** }
 103:Model/hand_landmark.c **** 
 104:Model/hand_landmark.c **** void *LL_ATON_Get_User_Input_Buffer_hand_landmark(uint32_t num)
 105:Model/hand_landmark.c **** {
 106:Model/hand_landmark.c ****   { 
 107:Model/hand_landmark.c ****     return NULL;
 108:Model/hand_landmark.c ****   }
 109:Model/hand_landmark.c **** }
 110:Model/hand_landmark.c **** 
 111:Model/hand_landmark.c **** LL_ATON_User_IO_Result_t LL_ATON_Set_User_Output_Buffer_hand_landmark(uint32_t num, void* buffer, u
 112:Model/hand_landmark.c **** {
 113:Model/hand_landmark.c ****   { 
 114:Model/hand_landmark.c ****     return LL_ATON_User_IO_WRONG_INDEX;
 115:Model/hand_landmark.c ****   }
 116:Model/hand_landmark.c **** }
 117:Model/hand_landmark.c **** 
 118:Model/hand_landmark.c **** void *LL_ATON_Get_User_Output_Buffer_hand_landmark(uint32_t num)
 119:Model/hand_landmark.c **** {
 120:Model/hand_landmark.c ****   { 
 121:Model/hand_landmark.c ****     return NULL;
 122:Model/hand_landmark.c ****   }
 123:Model/hand_landmark.c **** }
 124:Model/hand_landmark.c **** 
 125:Model/hand_landmark.c **** #include "hand_landmark_ecblobs.h"
 126:Model/hand_landmark.c **** 
 127:Model/hand_landmark.c **** /* scheduling epoch=0    nodes=248 ----------------------------------------------------------------
 128:Model/hand_landmark.c **** 
 129:Model/hand_landmark.c **** // Epoch Controller Blob (name='_ec_blob_hand_landmark_1') micro instructions needed
 130:Model/hand_landmark.c **** 
 131:Model/hand_landmark.c **** // Epoch Controller Blob (name='_ec_blob_hand_landmark_1') start function
 132:Model/hand_landmark.c **** static void _ec_blob_cache_start_func_1(const void *epoch_block) {
 133:Model/hand_landmark.c ****   LL_ATON_LIB_UNUSED(epoch_block);
 134:Model/hand_landmark.c **** 
 135:Model/hand_landmark.c ****   /* *** MCU cache invalidate (only) operation (HW, whole range) *** */
 136:Model/hand_landmark.c ****   /*     memory pool: 1 */
 137:Model/hand_landmark.c ****   /*     start: ((uintptr_t)(ATON_LIB_PHYSICAL_TO_VIRTUAL_ADDR(0x342e0000UL + 4608))) */
 138:Model/hand_landmark.c ****   /*     end:   ((uintptr_t)(ATON_LIB_PHYSICAL_TO_VIRTUAL_ADDR(0x342e0000UL + 4704))) */
 139:Model/hand_landmark.c ****   LL_ATON_Cache_MCU_Invalidate_Range(((uintptr_t)(ATON_LIB_PHYSICAL_TO_VIRTUAL_ADDR(0x342e0000UL + 
ARM GAS  C:\Users\DJESSOU\AppData\Local\Temp\ccZ709fi.s 			page 4


 140:Model/hand_landmark.c **** 
 141:Model/hand_landmark.c **** };
 142:Model/hand_landmark.c **** 
 143:Model/hand_landmark.c **** 
 144:Model/hand_landmark.c **** /* scheduling epoch=71   nodes=1   ----------------------------------------------------------------
 145:Model/hand_landmark.c **** 
 146:Model/hand_landmark.c **** 
 147:Model/hand_landmark.c **** static void LL_ATON_End_EpochBlock_71(const void *epoch_block)
 148:Model/hand_landmark.c **** {
 149:Model/hand_landmark.c ****   LL_ATON_LIB_UNUSED(epoch_block);
 150:Model/hand_landmark.c **** 
 151:Model/hand_landmark.c ****   /* *** MCU cache invalidate (only) operation for unaligned buffer end address (last line) *** */
 152:Model/hand_landmark.c ****   /*     memory pool: 1 */
 153:Model/hand_landmark.c ****   /*     start: ((uintptr_t)(ATON_LIB_PHYSICAL_TO_VIRTUAL_ADDR(0x342e0000UL + 224))) */
 154:Model/hand_landmark.c ****   /*     end:   ((uintptr_t)(ATON_LIB_PHYSICAL_TO_VIRTUAL_ADDR(0x342e0000UL + 256))) */
 155:Model/hand_landmark.c ****   LL_ATON_Cache_MCU_Invalidate_Range(((uintptr_t)(ATON_LIB_PHYSICAL_TO_VIRTUAL_ADDR(0x342e0000UL + 
 156:Model/hand_landmark.c **** 
 157:Model/hand_landmark.c **** 
 158:Model/hand_landmark.c **** /* Unit= 27 [PROCESSOR 0] */
 159:Model/hand_landmark.c **** /* kind=DequantizeLinear node=Dequantize_233 */
 160:Model/hand_landmark.c ****   Dequantizelinear_sw_info dequantizelinear1_sw_info = {
 161:Model/hand_landmark.c ****     /* "general.input" tensor-related info: */
 162:Model/hand_landmark.c ****     .general.input.dim.tensor_b = 1,
 163:Model/hand_landmark.c ****     .general.input.dim.tensor_h = 1,
 164:Model/hand_landmark.c ****     .general.input.dim.tensor_w = 1,
 165:Model/hand_landmark.c ****     .general.input.dim.tensor_c = 63,
 166:Model/hand_landmark.c ****     .general.input.dim.num_elem = 63,
 167:Model/hand_landmark.c ****     .general.input.stride.b = 63,
 168:Model/hand_landmark.c ****     .general.input.stride.h = 63,
 169:Model/hand_landmark.c ****     .general.input.stride.w = 1,
 170:Model/hand_landmark.c ****     .general.input.stride.c = 1,
 171:Model/hand_landmark.c ****     .general.input.mem.start_offset = ((unsigned char *)(ATON_LIB_PHYSICAL_TO_VIRTUAL_ADDR(0x342e00
 172:Model/hand_landmark.c ****     .general.input.format.is_signed = 1,
 173:Model/hand_landmark.c ****     /* "is" tensor-related info: */
 174:Model/hand_landmark.c ****     .is.mem.start_offset = ((unsigned char *)(ATON_LIB_PHYSICAL_TO_VIRTUAL_ADDR(0x70580000UL + 3182
 175:Model/hand_landmark.c ****     .is.format.is_signed = 1,
 176:Model/hand_landmark.c ****     .is.dim.num_elem = 1,
 177:Model/hand_landmark.c ****     /* "izp" tensor-related info: */
 178:Model/hand_landmark.c ****     .izp.mem.start_offset = ((unsigned char *)(ATON_LIB_PHYSICAL_TO_VIRTUAL_ADDR(0x70580000UL + 318
 179:Model/hand_landmark.c ****     .izp.format.is_signed = 1,
 180:Model/hand_landmark.c ****     .izp.dim.num_elem = 1,
 181:Model/hand_landmark.c ****     /* "general.output" tensor-related info: */
 182:Model/hand_landmark.c ****     .general.output.dim.tensor_b = 1,
 183:Model/hand_landmark.c ****     .general.output.dim.tensor_h = 1,
 184:Model/hand_landmark.c ****     .general.output.dim.tensor_w = 1,
 185:Model/hand_landmark.c ****     .general.output.dim.tensor_c = 63,
 186:Model/hand_landmark.c ****     .general.output.dim.num_elem = 63,
 187:Model/hand_landmark.c ****     .general.output.stride.b = 252,
 188:Model/hand_landmark.c ****     .general.output.stride.h = 252,
 189:Model/hand_landmark.c ****     .general.output.stride.w = 4,
 190:Model/hand_landmark.c ****     .general.output.stride.c = 4,
 191:Model/hand_landmark.c ****     .general.output.mem.start_offset = ((unsigned char *)(ATON_LIB_PHYSICAL_TO_VIRTUAL_ADDR(0x342e0
 192:Model/hand_landmark.c ****     .general.output.format.is_signed = 1,
 193:Model/hand_landmark.c ****     .general.type = LL_SW_DEQUANTIZELINEAR,
 194:Model/hand_landmark.c ****   };
 195:Model/hand_landmark.c **** 
 196:Model/hand_landmark.c ****   /* Low Level SW Layer function invocation. This will exploit EmbedNets libs) */
ARM GAS  C:\Users\DJESSOU\AppData\Local\Temp\ccZ709fi.s 			page 5


 197:Model/hand_landmark.c ****   /* Node Dequantize_233 mapped on EmbedNets (INTEGER) as DequantizeLinear | Category: Format-Conve
 198:Model/hand_landmark.c ****   ll_sw_forward_dequantizelinear(&dequantizelinear1_sw_info);
 199:Model/hand_landmark.c ****   /* *** MCU cache clean (only) operation (SW, whole range) *** */
 200:Model/hand_landmark.c ****   /*     memory pool: 1 */
 201:Model/hand_landmark.c ****   /*     start: ((uintptr_t)(ATON_LIB_PHYSICAL_TO_VIRTUAL_ADDR(0x342e0000UL + 0))) */
 202:Model/hand_landmark.c ****   /*     end:   ((uintptr_t)(ATON_LIB_PHYSICAL_TO_VIRTUAL_ADDR(0x342e0000UL + 256))) */
 203:Model/hand_landmark.c ****   LL_ATON_Cache_MCU_Clean_Range(((uintptr_t)(ATON_LIB_PHYSICAL_TO_VIRTUAL_ADDR(0x342e0000UL + 0))) 
 204:Model/hand_landmark.c **** 
 205:Model/hand_landmark.c **** 
 206:Model/hand_landmark.c **** }
 207:Model/hand_landmark.c **** 
 208:Model/hand_landmark.c **** /* scheduling epoch=72   nodes=1   ----------------------------------------------------------------
 209:Model/hand_landmark.c **** 
 210:Model/hand_landmark.c **** 
 211:Model/hand_landmark.c **** static void LL_ATON_End_EpochBlock_72(const void *epoch_block)
 212:Model/hand_landmark.c **** {
 213:Model/hand_landmark.c ****   LL_ATON_LIB_UNUSED(epoch_block);
 214:Model/hand_landmark.c **** 
 215:Model/hand_landmark.c ****   /* *** MCU cache invalidate (only) operation for unaligned buffer start or end address (only line
 216:Model/hand_landmark.c ****   /*     memory pool: 1 */
 217:Model/hand_landmark.c ****   /*     start: ((uintptr_t)(ATON_LIB_PHYSICAL_TO_VIRTUAL_ADDR(0x342e0000UL + 576))) */
 218:Model/hand_landmark.c ****   /*     end:   ((uintptr_t)(ATON_LIB_PHYSICAL_TO_VIRTUAL_ADDR(0x342e0000UL + 608))) */
 219:Model/hand_landmark.c ****   LL_ATON_Cache_MCU_Invalidate_Range(((uintptr_t)(ATON_LIB_PHYSICAL_TO_VIRTUAL_ADDR(0x342e0000UL + 
 220:Model/hand_landmark.c **** 
 221:Model/hand_landmark.c **** 
 222:Model/hand_landmark.c **** /* Unit= 27 [PROCESSOR 0] */
 223:Model/hand_landmark.c **** /* kind=DequantizeLinear node=Dequantize_221 */
 224:Model/hand_landmark.c ****   Dequantizelinear_sw_info dequantizelinear2_sw_info = {
 225:Model/hand_landmark.c ****     /* "general.input" tensor-related info: */
 226:Model/hand_landmark.c ****     .general.input.dim.tensor_b = 1,
 227:Model/hand_landmark.c ****     .general.input.dim.tensor_h = 1,
 228:Model/hand_landmark.c ****     .general.input.dim.tensor_w = 1,
 229:Model/hand_landmark.c ****     .general.input.dim.tensor_c = 1,
 230:Model/hand_landmark.c ****     .general.input.dim.num_elem = 1,
 231:Model/hand_landmark.c ****     .general.input.stride.b = 1,
 232:Model/hand_landmark.c ****     .general.input.stride.h = 1,
 233:Model/hand_landmark.c ****     .general.input.stride.w = 1,
 234:Model/hand_landmark.c ****     .general.input.stride.c = 1,
 235:Model/hand_landmark.c ****     .general.input.mem.start_offset = ((unsigned char *)(ATON_LIB_PHYSICAL_TO_VIRTUAL_ADDR(0x342e00
 236:Model/hand_landmark.c ****     .general.input.format.is_signed = 1,
 237:Model/hand_landmark.c ****     /* "is" tensor-related info: */
 238:Model/hand_landmark.c ****     .is.mem.start_offset = ((unsigned char *)(ATON_LIB_PHYSICAL_TO_VIRTUAL_ADDR(0x70580000UL + 3182
 239:Model/hand_landmark.c ****     .is.format.is_signed = 1,
 240:Model/hand_landmark.c ****     .is.dim.num_elem = 1,
 241:Model/hand_landmark.c ****     /* "izp" tensor-related info: */
 242:Model/hand_landmark.c ****     .izp.mem.start_offset = ((unsigned char *)(ATON_LIB_PHYSICAL_TO_VIRTUAL_ADDR(0x70580000UL + 318
 243:Model/hand_landmark.c ****     .izp.format.is_signed = 1,
 244:Model/hand_landmark.c ****     .izp.dim.num_elem = 1,
 245:Model/hand_landmark.c ****     /* "general.output" tensor-related info: */
 246:Model/hand_landmark.c ****     .general.output.dim.tensor_b = 1,
 247:Model/hand_landmark.c ****     .general.output.dim.tensor_h = 1,
 248:Model/hand_landmark.c ****     .general.output.dim.tensor_w = 1,
 249:Model/hand_landmark.c ****     .general.output.dim.tensor_c = 1,
 250:Model/hand_landmark.c ****     .general.output.dim.num_elem = 1,
 251:Model/hand_landmark.c ****     .general.output.stride.b = 4,
 252:Model/hand_landmark.c ****     .general.output.stride.h = 4,
 253:Model/hand_landmark.c ****     .general.output.stride.w = 4,
ARM GAS  C:\Users\DJESSOU\AppData\Local\Temp\ccZ709fi.s 			page 6


 254:Model/hand_landmark.c ****     .general.output.stride.c = 4,
 255:Model/hand_landmark.c ****     .general.output.mem.start_offset = ((unsigned char *)(ATON_LIB_PHYSICAL_TO_VIRTUAL_ADDR(0x342e0
 256:Model/hand_landmark.c ****     .general.output.format.is_signed = 1,
 257:Model/hand_landmark.c ****     .general.type = LL_SW_DEQUANTIZELINEAR,
 258:Model/hand_landmark.c ****   };
 259:Model/hand_landmark.c **** 
 260:Model/hand_landmark.c ****   /* Low Level SW Layer function invocation. This will exploit EmbedNets libs) */
 261:Model/hand_landmark.c ****   /* Node Dequantize_221 mapped on EmbedNets (INTEGER) as DequantizeLinear | Category: Format-Conve
 262:Model/hand_landmark.c ****   ll_sw_forward_dequantizelinear(&dequantizelinear2_sw_info);
 263:Model/hand_landmark.c ****   /* *** MCU cache clean (only) operation (SW, whole range) *** */
 264:Model/hand_landmark.c ****   /*     memory pool: 1 */
 265:Model/hand_landmark.c ****   /*     start: ((uintptr_t)(ATON_LIB_PHYSICAL_TO_VIRTUAL_ADDR(0x342e0000UL + 576))) */
 266:Model/hand_landmark.c ****   /*     end:   ((uintptr_t)(ATON_LIB_PHYSICAL_TO_VIRTUAL_ADDR(0x342e0000UL + 608))) */
 267:Model/hand_landmark.c ****   LL_ATON_Cache_MCU_Clean_Range(((uintptr_t)(ATON_LIB_PHYSICAL_TO_VIRTUAL_ADDR(0x342e0000UL + 576))
 268:Model/hand_landmark.c **** 
 269:Model/hand_landmark.c **** 
 270:Model/hand_landmark.c **** }
 271:Model/hand_landmark.c **** 
 272:Model/hand_landmark.c **** /* scheduling epoch=73   nodes=1   ----------------------------------------------------------------
 273:Model/hand_landmark.c **** 
 274:Model/hand_landmark.c **** 
 275:Model/hand_landmark.c **** static void LL_ATON_End_EpochBlock_73(const void *epoch_block)
 276:Model/hand_landmark.c **** {
 277:Model/hand_landmark.c ****   LL_ATON_LIB_UNUSED(epoch_block);
 278:Model/hand_landmark.c **** 
 279:Model/hand_landmark.c ****   /* *** MCU cache invalidate (only) operation for unaligned buffer start or end address (only line
 280:Model/hand_landmark.c ****   /*     memory pool: 1 */
 281:Model/hand_landmark.c ****   /*     start: ((uintptr_t)(ATON_LIB_PHYSICAL_TO_VIRTUAL_ADDR(0x342e0000UL + 576))) */
 282:Model/hand_landmark.c ****   /*     end:   ((uintptr_t)(ATON_LIB_PHYSICAL_TO_VIRTUAL_ADDR(0x342e0000UL + 608))) */
 283:Model/hand_landmark.c ****   LL_ATON_Cache_MCU_Invalidate_Range(((uintptr_t)(ATON_LIB_PHYSICAL_TO_VIRTUAL_ADDR(0x342e0000UL + 
 284:Model/hand_landmark.c **** 
 285:Model/hand_landmark.c **** 
 286:Model/hand_landmark.c **** /* Unit= 27 [PROCESSOR 0] */
 287:Model/hand_landmark.c **** /* kind=DequantizeLinear node=Dequantize_227 */
 288:Model/hand_landmark.c ****   Dequantizelinear_sw_info dequantizelinear3_sw_info = {
 289:Model/hand_landmark.c ****     /* "general.input" tensor-related info: */
 290:Model/hand_landmark.c ****     .general.input.dim.tensor_b = 1,
 291:Model/hand_landmark.c ****     .general.input.dim.tensor_h = 1,
 292:Model/hand_landmark.c ****     .general.input.dim.tensor_w = 1,
 293:Model/hand_landmark.c ****     .general.input.dim.tensor_c = 1,
 294:Model/hand_landmark.c ****     .general.input.dim.num_elem = 1,
 295:Model/hand_landmark.c ****     .general.input.stride.b = 1,
 296:Model/hand_landmark.c ****     .general.input.stride.h = 1,
 297:Model/hand_landmark.c ****     .general.input.stride.w = 1,
 298:Model/hand_landmark.c ****     .general.input.stride.c = 1,
 299:Model/hand_landmark.c ****     .general.input.mem.start_offset = ((unsigned char *)(ATON_LIB_PHYSICAL_TO_VIRTUAL_ADDR(0x342e00
 300:Model/hand_landmark.c ****     .general.input.format.is_signed = 1,
 301:Model/hand_landmark.c ****     /* "is" tensor-related info: */
 302:Model/hand_landmark.c ****     .is.mem.start_offset = ((unsigned char *)(ATON_LIB_PHYSICAL_TO_VIRTUAL_ADDR(0x70580000UL + 3182
 303:Model/hand_landmark.c ****     .is.format.is_signed = 1,
 304:Model/hand_landmark.c ****     .is.dim.num_elem = 1,
 305:Model/hand_landmark.c ****     /* "izp" tensor-related info: */
 306:Model/hand_landmark.c ****     .izp.mem.start_offset = ((unsigned char *)(ATON_LIB_PHYSICAL_TO_VIRTUAL_ADDR(0x70580000UL + 318
 307:Model/hand_landmark.c ****     .izp.format.is_signed = 1,
 308:Model/hand_landmark.c ****     .izp.dim.num_elem = 1,
 309:Model/hand_landmark.c ****     /* "general.output" tensor-related info: */
 310:Model/hand_landmark.c ****     .general.output.dim.tensor_b = 1,
ARM GAS  C:\Users\DJESSOU\AppData\Local\Temp\ccZ709fi.s 			page 7


 311:Model/hand_landmark.c ****     .general.output.dim.tensor_h = 1,
 312:Model/hand_landmark.c ****     .general.output.dim.tensor_w = 1,
 313:Model/hand_landmark.c ****     .general.output.dim.tensor_c = 1,
 314:Model/hand_landmark.c ****     .general.output.dim.num_elem = 1,
 315:Model/hand_landmark.c ****     .general.output.stride.b = 4,
 316:Model/hand_landmark.c ****     .general.output.stride.h = 4,
 317:Model/hand_landmark.c ****     .general.output.stride.w = 4,
 318:Model/hand_landmark.c ****     .general.output.stride.c = 4,
 319:Model/hand_landmark.c ****     .general.output.mem.start_offset = ((unsigned char *)(ATON_LIB_PHYSICAL_TO_VIRTUAL_ADDR(0x342e0
 320:Model/hand_landmark.c ****     .general.output.format.is_signed = 1,
 321:Model/hand_landmark.c ****     .general.type = LL_SW_DEQUANTIZELINEAR,
 322:Model/hand_landmark.c ****   };
 323:Model/hand_landmark.c **** 
 324:Model/hand_landmark.c ****   /* Low Level SW Layer function invocation. This will exploit EmbedNets libs) */
 325:Model/hand_landmark.c ****   /* Node Dequantize_227 mapped on EmbedNets (INTEGER) as DequantizeLinear | Category: Format-Conve
 326:Model/hand_landmark.c ****   ll_sw_forward_dequantizelinear(&dequantizelinear3_sw_info);
 327:Model/hand_landmark.c ****   /* *** MCU cache clean (only) operation (SW, whole range) *** */
 328:Model/hand_landmark.c ****   /*     memory pool: 1 */
 329:Model/hand_landmark.c ****   /*     start: ((uintptr_t)(ATON_LIB_PHYSICAL_TO_VIRTUAL_ADDR(0x342e0000UL + 576))) */
 330:Model/hand_landmark.c ****   /*     end:   ((uintptr_t)(ATON_LIB_PHYSICAL_TO_VIRTUAL_ADDR(0x342e0000UL + 608))) */
 331:Model/hand_landmark.c ****   LL_ATON_Cache_MCU_Clean_Range(((uintptr_t)(ATON_LIB_PHYSICAL_TO_VIRTUAL_ADDR(0x342e0000UL + 576))
 332:Model/hand_landmark.c **** 
 333:Model/hand_landmark.c **** 
 334:Model/hand_landmark.c **** }
 335:Model/hand_landmark.c **** 
 336:Model/hand_landmark.c **** // Epoch Controller Blob (name='_ec_blob_hand_landmark_74') micro instructions needed
 337:Model/hand_landmark.c **** 
 338:Model/hand_landmark.c **** // Epoch Controller Blob (name='_ec_blob_hand_landmark_74') start function
 339:Model/hand_landmark.c **** static void _ec_blob_cache_start_func_74(const void *epoch_block) {
  34              		.loc 1 339 67 view -0
  35              		.cfi_startproc
  36              		@ args = 0, pretend = 0, frame = 0
  37              		@ frame_needed = 0, uses_anonymous_args = 0
  38              		@ link register save eliminated.
 340:Model/hand_landmark.c ****   LL_ATON_LIB_UNUSED(epoch_block);
  39              		.loc 1 340 3 view .LVU1
 341:Model/hand_landmark.c **** 
 342:Model/hand_landmark.c ****   /* *** MCU cache invalidate (only) operation (HW, whole range) *** */
 343:Model/hand_landmark.c ****   /*     memory pool: 1 */
 344:Model/hand_landmark.c ****   /*     start: ((uintptr_t)(ATON_LIB_PHYSICAL_TO_VIRTUAL_ADDR(0x342e0000UL + 512))) */
 345:Model/hand_landmark.c ****   /*     end:   ((uintptr_t)(ATON_LIB_PHYSICAL_TO_VIRTUAL_ADDR(0x342e0000UL + 576))) */
 346:Model/hand_landmark.c ****   LL_ATON_Cache_MCU_Invalidate_Range(((uintptr_t)(ATON_LIB_PHYSICAL_TO_VIRTUAL_ADDR(0x342e0000UL + 
  40              		.loc 1 346 3 view .LVU2
  41              	.LBB22:
  42              	.LBI22:
  43              		.file 2 "Lib/AI_Runtime/Npu/ll_aton/ll_aton_caches_interface.h"
   1:Lib/AI_Runtime/Npu/ll_aton/ll_aton_caches_interface.h **** /**
   2:Lib/AI_Runtime/Npu/ll_aton/ll_aton_caches_interface.h ****  ******************************************************************************
   3:Lib/AI_Runtime/Npu/ll_aton/ll_aton_caches_interface.h ****  * @file    ll_aton_caches_interface.h
   4:Lib/AI_Runtime/Npu/ll_aton/ll_aton_caches_interface.h ****  * @author  SRA Artificial Intelligence & Embedded Architectures
   5:Lib/AI_Runtime/Npu/ll_aton/ll_aton_caches_interface.h ****  * @brief   Header file for defining an implementing generic cache handling
   6:Lib/AI_Runtime/Npu/ll_aton/ll_aton_caches_interface.h ****  *          functions for the application writer
   7:Lib/AI_Runtime/Npu/ll_aton/ll_aton_caches_interface.h ****  ******************************************************************************
   8:Lib/AI_Runtime/Npu/ll_aton/ll_aton_caches_interface.h ****  * @attention
   9:Lib/AI_Runtime/Npu/ll_aton/ll_aton_caches_interface.h ****  *
  10:Lib/AI_Runtime/Npu/ll_aton/ll_aton_caches_interface.h ****  * Copyright (c) 2024 STMicroelectronics.
  11:Lib/AI_Runtime/Npu/ll_aton/ll_aton_caches_interface.h ****  * All rights reserved.
ARM GAS  C:\Users\DJESSOU\AppData\Local\Temp\ccZ709fi.s 			page 8


  12:Lib/AI_Runtime/Npu/ll_aton/ll_aton_caches_interface.h ****  *
  13:Lib/AI_Runtime/Npu/ll_aton/ll_aton_caches_interface.h ****  * This software is licensed under terms that can be found in the LICENSE file
  14:Lib/AI_Runtime/Npu/ll_aton/ll_aton_caches_interface.h ****  * in the root directory of this software component.
  15:Lib/AI_Runtime/Npu/ll_aton/ll_aton_caches_interface.h ****  * If no LICENSE file comes with this software, it is provided AS-IS.
  16:Lib/AI_Runtime/Npu/ll_aton/ll_aton_caches_interface.h ****  *
  17:Lib/AI_Runtime/Npu/ll_aton/ll_aton_caches_interface.h ****  ******************************************************************************
  18:Lib/AI_Runtime/Npu/ll_aton/ll_aton_caches_interface.h ****  */
  19:Lib/AI_Runtime/Npu/ll_aton/ll_aton_caches_interface.h **** 
  20:Lib/AI_Runtime/Npu/ll_aton/ll_aton_caches_interface.h **** #ifndef __LL_ATON_CACHES_H
  21:Lib/AI_Runtime/Npu/ll_aton/ll_aton_caches_interface.h **** #define __LL_ATON_CACHES_H
  22:Lib/AI_Runtime/Npu/ll_aton/ll_aton_caches_interface.h **** 
  23:Lib/AI_Runtime/Npu/ll_aton/ll_aton_caches_interface.h **** #include <stdint.h>
  24:Lib/AI_Runtime/Npu/ll_aton/ll_aton_caches_interface.h **** 
  25:Lib/AI_Runtime/Npu/ll_aton/ll_aton_caches_interface.h **** #ifdef __cplusplus
  26:Lib/AI_Runtime/Npu/ll_aton/ll_aton_caches_interface.h **** extern "C"
  27:Lib/AI_Runtime/Npu/ll_aton/ll_aton_caches_interface.h **** {
  28:Lib/AI_Runtime/Npu/ll_aton/ll_aton_caches_interface.h **** #endif
  29:Lib/AI_Runtime/Npu/ll_aton/ll_aton_caches_interface.h **** 
  30:Lib/AI_Runtime/Npu/ll_aton/ll_aton_caches_interface.h **** #include "ll_aton_osal.h"
  31:Lib/AI_Runtime/Npu/ll_aton/ll_aton_caches_interface.h **** #include "ll_aton_platform.h"
  32:Lib/AI_Runtime/Npu/ll_aton/ll_aton_caches_interface.h **** 
  33:Lib/AI_Runtime/Npu/ll_aton/ll_aton_caches_interface.h **** #if !defined(BUILD_AI_NETWORK_RELOC)
  34:Lib/AI_Runtime/Npu/ll_aton/ll_aton_caches_interface.h **** 
  35:Lib/AI_Runtime/Npu/ll_aton/ll_aton_caches_interface.h **** #if (LL_ATON_PLATFORM == LL_ATON_PLAT_STM32N6)
  36:Lib/AI_Runtime/Npu/ll_aton/ll_aton_caches_interface.h **** 
  37:Lib/AI_Runtime/Npu/ll_aton/ll_aton_caches_interface.h ****   /*** MCU cache maintenance functions ***/
  38:Lib/AI_Runtime/Npu/ll_aton/ll_aton_caches_interface.h **** 
  39:Lib/AI_Runtime/Npu/ll_aton/ll_aton_caches_interface.h ****   /**
  40:Lib/AI_Runtime/Npu/ll_aton/ll_aton_caches_interface.h ****    * @brief perform MCU cache clean maintenance operation on an address range
  41:Lib/AI_Runtime/Npu/ll_aton/ll_aton_caches_interface.h ****    * @details whenever the content of a buffer is changed by the application (which is especially t
  42:Lib/AI_Runtime/Npu/ll_aton/ll_aton_caches_interface.h ****    *          buffers) cache maintenance MUST be taken into account before being able to run the ne
  43:Lib/AI_Runtime/Npu/ll_aton/ll_aton_caches_interface.h ****    * @param[in] virtual_addr start address (host-side/virtual) of address range
  44:Lib/AI_Runtime/Npu/ll_aton/ll_aton_caches_interface.h ****    * @param[in] size size of address range
  45:Lib/AI_Runtime/Npu/ll_aton/ll_aton_caches_interface.h ****    *
  46:Lib/AI_Runtime/Npu/ll_aton/ll_aton_caches_interface.h ****    * @note the address range should fulfill alignment constraints with respect to the MCU cache lin
  47:Lib/AI_Runtime/Npu/ll_aton/ll_aton_caches_interface.h ****    *       for both its `address` & `size` (to better correspond to what this operation will actual
  48:Lib/AI_Runtime/Npu/ll_aton/ll_aton_caches_interface.h ****    * @note this function is intended to handle the case where a buffer has been filled by the MCU/p
  49:Lib/AI_Runtime/Npu/ll_aton/ll_aton_caches_interface.h ****    *       passing thru the MCU cache) and should be called AFTER that the buffer has been filled
  50:Lib/AI_Runtime/Npu/ll_aton/ll_aton_caches_interface.h ****    */
  51:Lib/AI_Runtime/Npu/ll_aton/ll_aton_caches_interface.h ****   static inline void LL_ATON_Cache_MCU_Clean_Range(uintptr_t virtual_addr, uint32_t size)
  52:Lib/AI_Runtime/Npu/ll_aton/ll_aton_caches_interface.h ****   {
  53:Lib/AI_Runtime/Npu/ll_aton/ll_aton_caches_interface.h ****     LL_ATON_OSAL_LOCK_MCU_CACHE();
  54:Lib/AI_Runtime/Npu/ll_aton/ll_aton_caches_interface.h ****     mcu_cache_clean_range(virtual_addr, virtual_addr + size);
  55:Lib/AI_Runtime/Npu/ll_aton/ll_aton_caches_interface.h ****     LL_ATON_OSAL_UNLOCK_MCU_CACHE();
  56:Lib/AI_Runtime/Npu/ll_aton/ll_aton_caches_interface.h ****   }
  57:Lib/AI_Runtime/Npu/ll_aton/ll_aton_caches_interface.h **** 
  58:Lib/AI_Runtime/Npu/ll_aton/ll_aton_caches_interface.h ****   /**
  59:Lib/AI_Runtime/Npu/ll_aton/ll_aton_caches_interface.h ****    * @brief perform MCU cache invalidate maintenance operation on an address range
  60:Lib/AI_Runtime/Npu/ll_aton/ll_aton_caches_interface.h ****    * @details whenever the content of a buffer is changed by the application (which is especially t
  61:Lib/AI_Runtime/Npu/ll_aton/ll_aton_caches_interface.h ****    *          buffers) cache maintenance MUST be taken into account before being able to run the ne
  62:Lib/AI_Runtime/Npu/ll_aton/ll_aton_caches_interface.h ****    * @param[in] virtual_addr start address (host-side/virtual) of address range
  63:Lib/AI_Runtime/Npu/ll_aton/ll_aton_caches_interface.h ****    * @param[in] size size of address range
  64:Lib/AI_Runtime/Npu/ll_aton/ll_aton_caches_interface.h ****    *
  65:Lib/AI_Runtime/Npu/ll_aton/ll_aton_caches_interface.h ****    * @note the address range should fulfill alignment constraints with respect to the MCU cache lin
  66:Lib/AI_Runtime/Npu/ll_aton/ll_aton_caches_interface.h ****    *       for both its `address` & `size` (to better correspond to what this operation will actual
  67:Lib/AI_Runtime/Npu/ll_aton/ll_aton_caches_interface.h ****    * @note this function is intended to handle the case where a buffer has been filled by-passing t
  68:Lib/AI_Runtime/Npu/ll_aton/ll_aton_caches_interface.h ****    *       cache (e.g. using a DMA) and should be called BEFORE the buffer gets filled
ARM GAS  C:\Users\DJESSOU\AppData\Local\Temp\ccZ709fi.s 			page 9


  69:Lib/AI_Runtime/Npu/ll_aton/ll_aton_caches_interface.h ****    */
  70:Lib/AI_Runtime/Npu/ll_aton/ll_aton_caches_interface.h ****   static inline void LL_ATON_Cache_MCU_Invalidate_Range(uintptr_t virtual_addr, uint32_t size)
  44              		.loc 2 70 22 view .LVU3
  45              	.LBB23:
  71:Lib/AI_Runtime/Npu/ll_aton/ll_aton_caches_interface.h ****   {
  72:Lib/AI_Runtime/Npu/ll_aton/ll_aton_caches_interface.h ****     LL_ATON_OSAL_LOCK_MCU_CACHE();
  46              		.loc 2 72 34 view .LVU4
  73:Lib/AI_Runtime/Npu/ll_aton/ll_aton_caches_interface.h ****     mcu_cache_invalidate_range(virtual_addr, virtual_addr + size);
  47              		.loc 2 73 5 view .LVU5
  48 0000 0149     		ldr	r1, .L2
  49 0002 0248     		ldr	r0, .L2+4
  50              	.LVL1:
  51              		.loc 2 73 5 is_stmt 0 view .LVU6
  52 0004 FFF7FEBF 		b	mcu_cache_invalidate_range
  53              	.LVL2:
  54              	.L3:
  55              		.align	2
  56              	.L2:
  57 0008 40022E34 		.word	875430464
  58 000c 00022E34 		.word	875430400
  59              	.LBE23:
  60              	.LBE22:
  61              		.cfi_endproc
  62              	.LFE311:
  64              		.section	.text._ec_blob_cache_start_func_1,"ax",%progbits
  65              		.align	1
  66              		.syntax unified
  67              		.thumb
  68              		.thumb_func
  70              	_ec_blob_cache_start_func_1:
  71              	.LVL3:
  72              	.LFB307:
 132:Model/hand_landmark.c ****   LL_ATON_LIB_UNUSED(epoch_block);
  73              		.loc 1 132 66 is_stmt 1 view -0
  74              		.cfi_startproc
  75              		@ args = 0, pretend = 0, frame = 0
  76              		@ frame_needed = 0, uses_anonymous_args = 0
  77              		@ link register save eliminated.
 133:Model/hand_landmark.c **** 
  78              		.loc 1 133 3 view .LVU8
 139:Model/hand_landmark.c **** 
  79              		.loc 1 139 3 view .LVU9
  80              	.LBB24:
  81              	.LBI24:
  70:Lib/AI_Runtime/Npu/ll_aton/ll_aton_caches_interface.h ****   {
  82              		.loc 2 70 22 view .LVU10
  83              	.LBB25:
  72:Lib/AI_Runtime/Npu/ll_aton/ll_aton_caches_interface.h ****     mcu_cache_invalidate_range(virtual_addr, virtual_addr + size);
  84              		.loc 2 72 34 view .LVU11
  85              		.loc 2 73 5 view .LVU12
  86 0000 0149     		ldr	r1, .L5
  87 0002 0248     		ldr	r0, .L5+4
  88              	.LVL4:
  89              		.loc 2 73 5 is_stmt 0 view .LVU13
  90 0004 FFF7FEBF 		b	mcu_cache_invalidate_range
  91              	.LVL5:
  92              	.L6:
ARM GAS  C:\Users\DJESSOU\AppData\Local\Temp\ccZ709fi.s 			page 10


  93              		.align	2
  94              	.L5:
  95 0008 60122E34 		.word	875434592
  96 000c 00122E34 		.word	875434496
  97              	.LBE25:
  98              	.LBE24:
  99              		.cfi_endproc
 100              	.LFE307:
 102              		.section	.text.LL_ATON_End_EpochBlock_75,"ax",%progbits
 103              		.align	1
 104              		.syntax unified
 105              		.thumb
 106              		.thumb_func
 108              	LL_ATON_End_EpochBlock_75:
 109              	.LVL6:
 110              	.LFB312:
 347:Model/hand_landmark.c **** 
 348:Model/hand_landmark.c **** };
 349:Model/hand_landmark.c **** 
 350:Model/hand_landmark.c **** 
 351:Model/hand_landmark.c **** /* scheduling epoch=75   nodes=1   ----------------------------------------------------------------
 352:Model/hand_landmark.c **** 
 353:Model/hand_landmark.c **** 
 354:Model/hand_landmark.c **** static void LL_ATON_End_EpochBlock_75(const void *epoch_block)
 355:Model/hand_landmark.c **** {
 111              		.loc 1 355 1 is_stmt 1 view -0
 112              		.cfi_startproc
 113              		@ args = 0, pretend = 0, frame = 184
 114              		@ frame_needed = 0, uses_anonymous_args = 0
 356:Model/hand_landmark.c ****   LL_ATON_LIB_UNUSED(epoch_block);
 115              		.loc 1 356 3 view .LVU15
 357:Model/hand_landmark.c **** 
 358:Model/hand_landmark.c ****   /* *** MCU cache invalidate (only) operation for unaligned buffer end address (last line) *** */
 359:Model/hand_landmark.c ****   /*     memory pool: 1 */
 360:Model/hand_landmark.c ****   /*     start: ((uintptr_t)(ATON_LIB_PHYSICAL_TO_VIRTUAL_ADDR(0x342e0000UL + 480))) */
 361:Model/hand_landmark.c ****   /*     end:   ((uintptr_t)(ATON_LIB_PHYSICAL_TO_VIRTUAL_ADDR(0x342e0000UL + 512))) */
 362:Model/hand_landmark.c ****   LL_ATON_Cache_MCU_Invalidate_Range(((uintptr_t)(ATON_LIB_PHYSICAL_TO_VIRTUAL_ADDR(0x342e0000UL + 
 116              		.loc 1 362 3 view .LVU16
 117              	.LBB26:
 118              	.LBI26:
  70:Lib/AI_Runtime/Npu/ll_aton/ll_aton_caches_interface.h ****   {
 119              		.loc 2 70 22 view .LVU17
 120              	.LBB27:
  72:Lib/AI_Runtime/Npu/ll_aton/ll_aton_caches_interface.h ****     mcu_cache_invalidate_range(virtual_addr, virtual_addr + size);
 121              		.loc 2 72 34 view .LVU18
 122              		.loc 2 73 5 view .LVU19
 123              	.LBE27:
 124              	.LBE26:
 355:Model/hand_landmark.c ****   LL_ATON_LIB_UNUSED(epoch_block);
 125              		.loc 1 355 1 is_stmt 0 view .LVU20
 126 0000 30B5     		push	{r4, r5, lr}
 127              		.cfi_def_cfa_offset 12
 128              		.cfi_offset 4, -12
 129              		.cfi_offset 5, -8
 130              		.cfi_offset 14, -4
 131              	.LBB30:
 132              	.LBB28:
ARM GAS  C:\Users\DJESSOU\AppData\Local\Temp\ccZ709fi.s 			page 11


 133              		.loc 2 73 5 view .LVU21
 134 0002 1F4C     		ldr	r4, .L8
 135              	.LBE28:
 136              	.LBE30:
 355:Model/hand_landmark.c ****   LL_ATON_LIB_UNUSED(epoch_block);
 137              		.loc 1 355 1 view .LVU22
 138 0004 AFB0     		sub	sp, sp, #188
 139              		.cfi_def_cfa_offset 200
 140              	.LBB31:
 141              	.LBB29:
 142              		.loc 2 73 5 view .LVU23
 143 0006 2146     		mov	r1, r4
 144 0008 1E48     		ldr	r0, .L8+4
 145              	.LVL7:
 146              		.loc 2 73 5 view .LVU24
 147 000a FFF7FEFF 		bl	mcu_cache_invalidate_range
 148              	.LVL8:
  74:Lib/AI_Runtime/Npu/ll_aton/ll_aton_caches_interface.h ****     LL_ATON_OSAL_UNLOCK_MCU_CACHE();
 149              		.loc 2 74 36 is_stmt 1 view .LVU25
 150              		.loc 2 74 36 is_stmt 0 view .LVU26
 151              	.LBE29:
 152              	.LBE31:
 363:Model/hand_landmark.c **** 
 364:Model/hand_landmark.c **** 
 365:Model/hand_landmark.c **** /* Unit= 27 [PROCESSOR 0] */
 366:Model/hand_landmark.c **** /* kind=DequantizeLinear node=Dequantize_230 */
 367:Model/hand_landmark.c ****   Dequantizelinear_sw_info dequantizelinear4_sw_info = {
 153              		.loc 1 367 3 is_stmt 1 view .LVU27
 154              		.loc 1 367 28 is_stmt 0 view .LVU28
 155 000e B422     		movs	r2, #180
 156 0010 0021     		movs	r1, #0
 157 0012 01A8     		add	r0, sp, #4
 158 0014 FFF7FEFF 		bl	memset
 159              	.LVL9:
 160 0018 2A23     		movs	r3, #42
 161 001a 3F22     		movs	r2, #63
 162 001c 8DF80430 		strb	r3, [sp, #4]
 163 0020 0123     		movs	r3, #1
 164 0022 0421     		movs	r1, #4
 165 0024 CDE90423 		strd	r2, r3, [sp, #16]
 166 0028 CDE90F23 		strd	r2, r3, [sp, #60]
 167 002c CDE90622 		strd	r2, r2, [sp, #24]
 168 0030 CDE90A24 		strd	r2, r4, [sp, #40]
 169 0034 1192     		str	r2, [sp, #68]
 170 0036 FC22     		movs	r2, #252
 171 0038 CDE91221 		strd	r2, r1, [sp, #72]
 172 003c CDE91412 		strd	r1, r2, [sp, #80]
 173 0040 114A     		ldr	r2, .L8+8
 174 0042 124D     		ldr	r5, .L8+12
 368:Model/hand_landmark.c ****     /* "general.input" tensor-related info: */
 369:Model/hand_landmark.c ****     .general.input.dim.tensor_b = 1,
 370:Model/hand_landmark.c ****     .general.input.dim.tensor_h = 1,
 371:Model/hand_landmark.c ****     .general.input.dim.tensor_w = 1,
 372:Model/hand_landmark.c ****     .general.input.dim.tensor_c = 63,
 373:Model/hand_landmark.c ****     .general.input.dim.num_elem = 63,
 374:Model/hand_landmark.c ****     .general.input.stride.b = 63,
 375:Model/hand_landmark.c ****     .general.input.stride.h = 63,
ARM GAS  C:\Users\DJESSOU\AppData\Local\Temp\ccZ709fi.s 			page 12


 376:Model/hand_landmark.c ****     .general.input.stride.w = 1,
 377:Model/hand_landmark.c ****     .general.input.stride.c = 1,
 378:Model/hand_landmark.c ****     .general.input.mem.start_offset = ((unsigned char *)(ATON_LIB_PHYSICAL_TO_VIRTUAL_ADDR(0x342e00
 379:Model/hand_landmark.c ****     .general.input.format.is_signed = 1,
 380:Model/hand_landmark.c ****     /* "is" tensor-related info: */
 381:Model/hand_landmark.c ****     .is.mem.start_offset = ((unsigned char *)(ATON_LIB_PHYSICAL_TO_VIRTUAL_ADDR(0x70580000UL + 3182
 382:Model/hand_landmark.c ****     .is.format.is_signed = 1,
 383:Model/hand_landmark.c ****     .is.dim.num_elem = 1,
 384:Model/hand_landmark.c ****     /* "izp" tensor-related info: */
 385:Model/hand_landmark.c ****     .izp.mem.start_offset = ((unsigned char *)(ATON_LIB_PHYSICAL_TO_VIRTUAL_ADDR(0x70580000UL + 318
 386:Model/hand_landmark.c ****     .izp.format.is_signed = 1,
 387:Model/hand_landmark.c ****     .izp.dim.num_elem = 1,
 388:Model/hand_landmark.c ****     /* "general.output" tensor-related info: */
 389:Model/hand_landmark.c ****     .general.output.dim.tensor_b = 1,
 390:Model/hand_landmark.c ****     .general.output.dim.tensor_h = 1,
 391:Model/hand_landmark.c ****     .general.output.dim.tensor_w = 1,
 392:Model/hand_landmark.c ****     .general.output.dim.tensor_c = 63,
 393:Model/hand_landmark.c ****     .general.output.dim.num_elem = 63,
 394:Model/hand_landmark.c ****     .general.output.stride.b = 252,
 395:Model/hand_landmark.c ****     .general.output.stride.h = 252,
 396:Model/hand_landmark.c ****     .general.output.stride.w = 4,
 397:Model/hand_landmark.c ****     .general.output.stride.c = 4,
 398:Model/hand_landmark.c ****     .general.output.mem.start_offset = ((unsigned char *)(ATON_LIB_PHYSICAL_TO_VIRTUAL_ADDR(0x342e0
 399:Model/hand_landmark.c ****     .general.output.format.is_signed = 1,
 400:Model/hand_landmark.c ****     .general.type = LL_SW_DEQUANTIZELINEAR,
 401:Model/hand_landmark.c ****   };
 402:Model/hand_landmark.c **** 
 403:Model/hand_landmark.c ****   /* Low Level SW Layer function invocation. This will exploit EmbedNets libs) */
 404:Model/hand_landmark.c ****   /* Node Dequantize_230 mapped on EmbedNets (INTEGER) as DequantizeLinear | Category: Format-Conve
 405:Model/hand_landmark.c ****   ll_sw_forward_dequantizelinear(&dequantizelinear4_sw_info);
 175              		.loc 1 405 3 view .LVU29
 176 0044 0DEB0100 		add	r0, sp, r1
 367:Model/hand_landmark.c ****     /* "general.input" tensor-related info: */
 177              		.loc 1 367 28 view .LVU30
 178 0048 2192     		str	r2, [sp, #132]
 179 004a 4032     		adds	r2, r2, #64
 180 004c CDE90233 		strd	r3, r3, [sp, #8]
 181 0050 CDE90833 		strd	r3, r3, [sp, #32]
 182 0054 CDE90D33 		strd	r3, r3, [sp, #52]
 183 0058 8DF83030 		strb	r3, [sp, #48]
 184 005c 8DF85C30 		strb	r3, [sp, #92]
 185 0060 1C93     		str	r3, [sp, #112]
 186 0062 8DF88830 		strb	r3, [sp, #136]
 187 0066 2793     		str	r3, [sp, #156]
 188 0068 2C92     		str	r2, [sp, #176]
 189 006a 8DF8B430 		strb	r3, [sp, #180]
 190              		.loc 1 405 3 is_stmt 1 view .LVU31
 367:Model/hand_landmark.c ****     /* "general.input" tensor-related info: */
 191              		.loc 1 367 28 is_stmt 0 view .LVU32
 192 006e 1695     		str	r5, [sp, #88]
 193              		.loc 1 405 3 view .LVU33
 194 0070 FFF7FEFF 		bl	ll_sw_forward_dequantizelinear
 195              	.LVL10:
 406:Model/hand_landmark.c ****   /* *** MCU cache clean (only) operation (SW, whole range) *** */
 407:Model/hand_landmark.c ****   /*     memory pool: 1 */
 408:Model/hand_landmark.c ****   /*     start: ((uintptr_t)(ATON_LIB_PHYSICAL_TO_VIRTUAL_ADDR(0x342e0000UL + 256))) */
 409:Model/hand_landmark.c ****   /*     end:   ((uintptr_t)(ATON_LIB_PHYSICAL_TO_VIRTUAL_ADDR(0x342e0000UL + 512))) */
ARM GAS  C:\Users\DJESSOU\AppData\Local\Temp\ccZ709fi.s 			page 13


 410:Model/hand_landmark.c ****   LL_ATON_Cache_MCU_Clean_Range(((uintptr_t)(ATON_LIB_PHYSICAL_TO_VIRTUAL_ADDR(0x342e0000UL + 256))
 196              		.loc 1 410 3 is_stmt 1 view .LVU34
 197              	.LBB32:
 198              	.LBI32:
  51:Lib/AI_Runtime/Npu/ll_aton/ll_aton_caches_interface.h ****   {
 199              		.loc 2 51 22 view .LVU35
 200              	.LBB33:
  53:Lib/AI_Runtime/Npu/ll_aton/ll_aton_caches_interface.h ****     mcu_cache_clean_range(virtual_addr, virtual_addr + size);
 201              		.loc 2 53 34 view .LVU36
  54:Lib/AI_Runtime/Npu/ll_aton/ll_aton_caches_interface.h ****     LL_ATON_OSAL_UNLOCK_MCU_CACHE();
 202              		.loc 2 54 5 view .LVU37
 203 0074 2146     		mov	r1, r4
 204 0076 2846     		mov	r0, r5
 205 0078 FFF7FEFF 		bl	mcu_cache_clean_range
 206              	.LVL11:
  55:Lib/AI_Runtime/Npu/ll_aton/ll_aton_caches_interface.h ****   }
 207              		.loc 2 55 36 view .LVU38
  55:Lib/AI_Runtime/Npu/ll_aton/ll_aton_caches_interface.h ****   }
 208              		.loc 2 55 36 is_stmt 0 view .LVU39
 209              	.LBE33:
 210              	.LBE32:
 411:Model/hand_landmark.c **** 
 412:Model/hand_landmark.c **** 
 413:Model/hand_landmark.c **** }
 211              		.loc 1 413 1 view .LVU40
 212 007c 2FB0     		add	sp, sp, #188
 213              		.cfi_def_cfa_offset 12
 214              		@ sp needed
 215 007e 30BD     		pop	{r4, r5, pc}
 216              	.L9:
 217              		.align	2
 218              	.L8:
 219 0080 00022E34 		.word	875430400
 220 0084 E0012E34 		.word	875430368
 221 0088 40918870 		.word	1887998272
 222 008c 00012E34 		.word	875430144
 223              		.cfi_endproc
 224              	.LFE312:
 226              		.section	.text.LL_ATON_End_EpochBlock_73,"ax",%progbits
 227              		.align	1
 228              		.syntax unified
 229              		.thumb
 230              		.thumb_func
 232              	LL_ATON_End_EpochBlock_73:
 233              	.LVL12:
 234              	.LFB310:
 276:Model/hand_landmark.c ****   LL_ATON_LIB_UNUSED(epoch_block);
 235              		.loc 1 276 1 is_stmt 1 view -0
 236              		.cfi_startproc
 237              		@ args = 0, pretend = 0, frame = 184
 238              		@ frame_needed = 0, uses_anonymous_args = 0
 277:Model/hand_landmark.c **** 
 239              		.loc 1 277 3 view .LVU42
 283:Model/hand_landmark.c **** 
 240              		.loc 1 283 3 view .LVU43
 241              	.LBB34:
 242              	.LBI34:
ARM GAS  C:\Users\DJESSOU\AppData\Local\Temp\ccZ709fi.s 			page 14


  70:Lib/AI_Runtime/Npu/ll_aton/ll_aton_caches_interface.h ****   {
 243              		.loc 2 70 22 view .LVU44
 244              	.LBB35:
  72:Lib/AI_Runtime/Npu/ll_aton/ll_aton_caches_interface.h ****     mcu_cache_invalidate_range(virtual_addr, virtual_addr + size);
 245              		.loc 2 72 34 view .LVU45
  73:Lib/AI_Runtime/Npu/ll_aton/ll_aton_caches_interface.h ****     LL_ATON_OSAL_UNLOCK_MCU_CACHE();
 246              		.loc 2 73 5 view .LVU46
 247              	.LBE35:
 248              	.LBE34:
 276:Model/hand_landmark.c ****   LL_ATON_LIB_UNUSED(epoch_block);
 249              		.loc 1 276 1 is_stmt 0 view .LVU47
 250 0000 30B5     		push	{r4, r5, lr}
 251              		.cfi_def_cfa_offset 12
 252              		.cfi_offset 4, -12
 253              		.cfi_offset 5, -8
 254              		.cfi_offset 14, -4
 255              	.LBB38:
 256              	.LBB36:
  73:Lib/AI_Runtime/Npu/ll_aton/ll_aton_caches_interface.h ****     LL_ATON_OSAL_UNLOCK_MCU_CACHE();
 257              		.loc 2 73 5 view .LVU48
 258 0002 1F4D     		ldr	r5, .L11
 259 0004 1F4C     		ldr	r4, .L11+4
 260              	.LBE36:
 261              	.LBE38:
 276:Model/hand_landmark.c ****   LL_ATON_LIB_UNUSED(epoch_block);
 262              		.loc 1 276 1 view .LVU49
 263 0006 AFB0     		sub	sp, sp, #188
 264              		.cfi_def_cfa_offset 200
 265              	.LBB39:
 266              	.LBB37:
  73:Lib/AI_Runtime/Npu/ll_aton/ll_aton_caches_interface.h ****     LL_ATON_OSAL_UNLOCK_MCU_CACHE();
 267              		.loc 2 73 5 view .LVU50
 268 0008 2946     		mov	r1, r5
 269 000a 2046     		mov	r0, r4
 270              	.LVL13:
  73:Lib/AI_Runtime/Npu/ll_aton/ll_aton_caches_interface.h ****     LL_ATON_OSAL_UNLOCK_MCU_CACHE();
 271              		.loc 2 73 5 view .LVU51
 272 000c FFF7FEFF 		bl	mcu_cache_invalidate_range
 273              	.LVL14:
 274              		.loc 2 74 36 is_stmt 1 view .LVU52
 275              		.loc 2 74 36 is_stmt 0 view .LVU53
 276              	.LBE37:
 277              	.LBE39:
 288:Model/hand_landmark.c ****     /* "general.input" tensor-related info: */
 278              		.loc 1 288 3 is_stmt 1 view .LVU54
 288:Model/hand_landmark.c ****     /* "general.input" tensor-related info: */
 279              		.loc 1 288 28 is_stmt 0 view .LVU55
 280 0010 0021     		movs	r1, #0
 281 0012 B422     		movs	r2, #180
 282 0014 01A8     		add	r0, sp, #4
 283 0016 FFF7FEFF 		bl	memset
 284              	.LVL15:
 285 001a 2A23     		movs	r3, #42
 286 001c 1A4A     		ldr	r2, .L11+8
 287 001e 8DF80430 		strb	r3, [sp, #4]
 288 0022 0B92     		str	r2, [sp, #44]
 289 0024 0422     		movs	r2, #4
ARM GAS  C:\Users\DJESSOU\AppData\Local\Temp\ccZ709fi.s 			page 15


 290 0026 0123     		movs	r3, #1
 291 0028 CDE91222 		strd	r2, r2, [sp, #72]
 292 002c CDE91422 		strd	r2, r2, [sp, #80]
 293 0030 164A     		ldr	r2, .L11+12
 326:Model/hand_landmark.c ****   /* *** MCU cache clean (only) operation (SW, whole range) *** */
 294              		.loc 1 326 3 view .LVU56
 295 0032 01A8     		add	r0, sp, #4
 288:Model/hand_landmark.c ****     /* "general.input" tensor-related info: */
 296              		.loc 1 288 28 view .LVU57
 297 0034 1692     		str	r2, [sp, #88]
 298 0036 164A     		ldr	r2, .L11+16
 299 0038 CDE90233 		strd	r3, r3, [sp, #8]
 300 003c 2192     		str	r2, [sp, #132]
 301 003e 4032     		adds	r2, r2, #64
 302 0040 CDE90433 		strd	r3, r3, [sp, #16]
 303 0044 CDE90633 		strd	r3, r3, [sp, #24]
 304 0048 CDE90833 		strd	r3, r3, [sp, #32]
 305 004c CDE90D33 		strd	r3, r3, [sp, #52]
 306 0050 CDE90F33 		strd	r3, r3, [sp, #60]
 307 0054 0A93     		str	r3, [sp, #40]
 308 0056 8DF83030 		strb	r3, [sp, #48]
 309 005a 1193     		str	r3, [sp, #68]
 310 005c 8DF85C30 		strb	r3, [sp, #92]
 311 0060 1C93     		str	r3, [sp, #112]
 312 0062 8DF88830 		strb	r3, [sp, #136]
 313 0066 2793     		str	r3, [sp, #156]
 314 0068 2C92     		str	r2, [sp, #176]
 315 006a 8DF8B430 		strb	r3, [sp, #180]
 326:Model/hand_landmark.c ****   /* *** MCU cache clean (only) operation (SW, whole range) *** */
 316              		.loc 1 326 3 is_stmt 1 view .LVU58
 317 006e FFF7FEFF 		bl	ll_sw_forward_dequantizelinear
 318              	.LVL16:
 331:Model/hand_landmark.c **** 
 319              		.loc 1 331 3 view .LVU59
 320              	.LBB40:
 321              	.LBI40:
  51:Lib/AI_Runtime/Npu/ll_aton/ll_aton_caches_interface.h ****   {
 322              		.loc 2 51 22 view .LVU60
 323              	.LBB41:
  53:Lib/AI_Runtime/Npu/ll_aton/ll_aton_caches_interface.h ****     mcu_cache_clean_range(virtual_addr, virtual_addr + size);
 324              		.loc 2 53 34 view .LVU61
  54:Lib/AI_Runtime/Npu/ll_aton/ll_aton_caches_interface.h ****     LL_ATON_OSAL_UNLOCK_MCU_CACHE();
 325              		.loc 2 54 5 view .LVU62
 326 0072 2946     		mov	r1, r5
 327 0074 2046     		mov	r0, r4
 328 0076 FFF7FEFF 		bl	mcu_cache_clean_range
 329              	.LVL17:
  55:Lib/AI_Runtime/Npu/ll_aton/ll_aton_caches_interface.h ****   }
 330              		.loc 2 55 36 view .LVU63
  55:Lib/AI_Runtime/Npu/ll_aton/ll_aton_caches_interface.h ****   }
 331              		.loc 2 55 36 is_stmt 0 view .LVU64
 332              	.LBE41:
 333              	.LBE40:
 334:Model/hand_landmark.c **** 
 334              		.loc 1 334 1 view .LVU65
 335 007a 2FB0     		add	sp, sp, #188
 336              		.cfi_def_cfa_offset 12
ARM GAS  C:\Users\DJESSOU\AppData\Local\Temp\ccZ709fi.s 			page 16


 337              		@ sp needed
 338 007c 30BD     		pop	{r4, r5, pc}
 339              	.L12:
 340 007e 00BF     		.align	2
 341              	.L11:
 342 0080 60022E34 		.word	875430496
 343 0084 40022E34 		.word	875430464
 344 0088 50122E34 		.word	875434576
 345 008c 50022E34 		.word	875430480
 346 0090 30918870 		.word	1887998256
 347              		.cfi_endproc
 348              	.LFE310:
 350              		.section	.text.LL_ATON_End_EpochBlock_72,"ax",%progbits
 351              		.align	1
 352              		.syntax unified
 353              		.thumb
 354              		.thumb_func
 356              	LL_ATON_End_EpochBlock_72:
 357              	.LVL18:
 358              	.LFB309:
 212:Model/hand_landmark.c ****   LL_ATON_LIB_UNUSED(epoch_block);
 359              		.loc 1 212 1 is_stmt 1 view -0
 360              		.cfi_startproc
 361              		@ args = 0, pretend = 0, frame = 184
 362              		@ frame_needed = 0, uses_anonymous_args = 0
 213:Model/hand_landmark.c **** 
 363              		.loc 1 213 3 view .LVU67
 219:Model/hand_landmark.c **** 
 364              		.loc 1 219 3 view .LVU68
 365              	.LBB42:
 366              	.LBI42:
  70:Lib/AI_Runtime/Npu/ll_aton/ll_aton_caches_interface.h ****   {
 367              		.loc 2 70 22 view .LVU69
 368              	.LBB43:
  72:Lib/AI_Runtime/Npu/ll_aton/ll_aton_caches_interface.h ****     mcu_cache_invalidate_range(virtual_addr, virtual_addr + size);
 369              		.loc 2 72 34 view .LVU70
  73:Lib/AI_Runtime/Npu/ll_aton/ll_aton_caches_interface.h ****     LL_ATON_OSAL_UNLOCK_MCU_CACHE();
 370              		.loc 2 73 5 view .LVU71
 371              	.LBE43:
 372              	.LBE42:
 212:Model/hand_landmark.c ****   LL_ATON_LIB_UNUSED(epoch_block);
 373              		.loc 1 212 1 is_stmt 0 view .LVU72
 374 0000 30B5     		push	{r4, r5, lr}
 375              		.cfi_def_cfa_offset 12
 376              		.cfi_offset 4, -12
 377              		.cfi_offset 5, -8
 378              		.cfi_offset 14, -4
 379              	.LBB46:
 380              	.LBB44:
  73:Lib/AI_Runtime/Npu/ll_aton/ll_aton_caches_interface.h ****     LL_ATON_OSAL_UNLOCK_MCU_CACHE();
 381              		.loc 2 73 5 view .LVU73
 382 0002 1E4C     		ldr	r4, .L14
 383 0004 1E4D     		ldr	r5, .L14+4
 384              	.LBE44:
 385              	.LBE46:
 212:Model/hand_landmark.c ****   LL_ATON_LIB_UNUSED(epoch_block);
 386              		.loc 1 212 1 view .LVU74
ARM GAS  C:\Users\DJESSOU\AppData\Local\Temp\ccZ709fi.s 			page 17


 387 0006 AFB0     		sub	sp, sp, #188
 388              		.cfi_def_cfa_offset 200
 389              	.LBB47:
 390              	.LBB45:
  73:Lib/AI_Runtime/Npu/ll_aton/ll_aton_caches_interface.h ****     LL_ATON_OSAL_UNLOCK_MCU_CACHE();
 391              		.loc 2 73 5 view .LVU75
 392 0008 2946     		mov	r1, r5
 393 000a 2046     		mov	r0, r4
 394              	.LVL19:
  73:Lib/AI_Runtime/Npu/ll_aton/ll_aton_caches_interface.h ****     LL_ATON_OSAL_UNLOCK_MCU_CACHE();
 395              		.loc 2 73 5 view .LVU76
 396 000c FFF7FEFF 		bl	mcu_cache_invalidate_range
 397              	.LVL20:
 398              		.loc 2 74 36 is_stmt 1 view .LVU77
 399              		.loc 2 74 36 is_stmt 0 view .LVU78
 400              	.LBE45:
 401              	.LBE47:
 224:Model/hand_landmark.c ****     /* "general.input" tensor-related info: */
 402              		.loc 1 224 3 is_stmt 1 view .LVU79
 224:Model/hand_landmark.c ****     /* "general.input" tensor-related info: */
 403              		.loc 1 224 28 is_stmt 0 view .LVU80
 404 0010 0021     		movs	r1, #0
 405 0012 B422     		movs	r2, #180
 406 0014 01A8     		add	r0, sp, #4
 407 0016 FFF7FEFF 		bl	memset
 408              	.LVL21:
 409 001a 2A23     		movs	r3, #42
 410 001c 194A     		ldr	r2, .L14+8
 411 001e 8DF80430 		strb	r3, [sp, #4]
 412 0022 0B92     		str	r2, [sp, #44]
 413 0024 0422     		movs	r2, #4
 414 0026 0123     		movs	r3, #1
 415 0028 CDE91222 		strd	r2, r2, [sp, #72]
 416 002c CDE91422 		strd	r2, r2, [sp, #80]
 417 0030 154A     		ldr	r2, .L14+12
 262:Model/hand_landmark.c ****   /* *** MCU cache clean (only) operation (SW, whole range) *** */
 418              		.loc 1 262 3 view .LVU81
 419 0032 01A8     		add	r0, sp, #4
 224:Model/hand_landmark.c ****     /* "general.input" tensor-related info: */
 420              		.loc 1 224 28 view .LVU82
 421 0034 2192     		str	r2, [sp, #132]
 422 0036 4032     		adds	r2, r2, #64
 423 0038 CDE90233 		strd	r3, r3, [sp, #8]
 424 003c CDE90433 		strd	r3, r3, [sp, #16]
 425 0040 CDE90633 		strd	r3, r3, [sp, #24]
 426 0044 CDE90833 		strd	r3, r3, [sp, #32]
 427 0048 CDE90D33 		strd	r3, r3, [sp, #52]
 428 004c CDE90F33 		strd	r3, r3, [sp, #60]
 429 0050 0A93     		str	r3, [sp, #40]
 430 0052 8DF83030 		strb	r3, [sp, #48]
 431 0056 1193     		str	r3, [sp, #68]
 432 0058 8DF85C30 		strb	r3, [sp, #92]
 433 005c 1C93     		str	r3, [sp, #112]
 434 005e 8DF88830 		strb	r3, [sp, #136]
 435 0062 2793     		str	r3, [sp, #156]
 436 0064 2C92     		str	r2, [sp, #176]
 437 0066 8DF8B430 		strb	r3, [sp, #180]
ARM GAS  C:\Users\DJESSOU\AppData\Local\Temp\ccZ709fi.s 			page 18


 262:Model/hand_landmark.c ****   /* *** MCU cache clean (only) operation (SW, whole range) *** */
 438              		.loc 1 262 3 is_stmt 1 view .LVU83
 224:Model/hand_landmark.c ****     /* "general.input" tensor-related info: */
 439              		.loc 1 224 28 is_stmt 0 view .LVU84
 440 006a 1694     		str	r4, [sp, #88]
 262:Model/hand_landmark.c ****   /* *** MCU cache clean (only) operation (SW, whole range) *** */
 441              		.loc 1 262 3 view .LVU85
 442 006c FFF7FEFF 		bl	ll_sw_forward_dequantizelinear
 443              	.LVL22:
 267:Model/hand_landmark.c **** 
 444              		.loc 1 267 3 is_stmt 1 view .LVU86
 445              	.LBB48:
 446              	.LBI48:
  51:Lib/AI_Runtime/Npu/ll_aton/ll_aton_caches_interface.h ****   {
 447              		.loc 2 51 22 view .LVU87
 448              	.LBB49:
  53:Lib/AI_Runtime/Npu/ll_aton/ll_aton_caches_interface.h ****     mcu_cache_clean_range(virtual_addr, virtual_addr + size);
 449              		.loc 2 53 34 view .LVU88
  54:Lib/AI_Runtime/Npu/ll_aton/ll_aton_caches_interface.h ****     LL_ATON_OSAL_UNLOCK_MCU_CACHE();
 450              		.loc 2 54 5 view .LVU89
 451 0070 2946     		mov	r1, r5
 452 0072 2046     		mov	r0, r4
 453 0074 FFF7FEFF 		bl	mcu_cache_clean_range
 454              	.LVL23:
  55:Lib/AI_Runtime/Npu/ll_aton/ll_aton_caches_interface.h ****   }
 455              		.loc 2 55 36 view .LVU90
  55:Lib/AI_Runtime/Npu/ll_aton/ll_aton_caches_interface.h ****   }
 456              		.loc 2 55 36 is_stmt 0 view .LVU91
 457              	.LBE49:
 458              	.LBE48:
 270:Model/hand_landmark.c **** 
 459              		.loc 1 270 1 view .LVU92
 460 0078 2FB0     		add	sp, sp, #188
 461              		.cfi_def_cfa_offset 12
 462              		@ sp needed
 463 007a 30BD     		pop	{r4, r5, pc}
 464              	.L15:
 465              		.align	2
 466              	.L14:
 467 007c 40022E34 		.word	875430464
 468 0080 60022E34 		.word	875430496
 469 0084 40122E34 		.word	875434560
 470 0088 20918870 		.word	1887998240
 471              		.cfi_endproc
 472              	.LFE309:
 474              		.section	.text.LL_ATON_End_EpochBlock_71,"ax",%progbits
 475              		.align	1
 476              		.syntax unified
 477              		.thumb
 478              		.thumb_func
 480              	LL_ATON_End_EpochBlock_71:
 481              	.LVL24:
 482              	.LFB308:
 148:Model/hand_landmark.c ****   LL_ATON_LIB_UNUSED(epoch_block);
 483              		.loc 1 148 1 is_stmt 1 view -0
 484              		.cfi_startproc
 485              		@ args = 0, pretend = 0, frame = 184
ARM GAS  C:\Users\DJESSOU\AppData\Local\Temp\ccZ709fi.s 			page 19


 486              		@ frame_needed = 0, uses_anonymous_args = 0
 149:Model/hand_landmark.c **** 
 487              		.loc 1 149 3 view .LVU94
 155:Model/hand_landmark.c **** 
 488              		.loc 1 155 3 view .LVU95
 489              	.LBB50:
 490              	.LBI50:
  70:Lib/AI_Runtime/Npu/ll_aton/ll_aton_caches_interface.h ****   {
 491              		.loc 2 70 22 view .LVU96
 492              	.LBB51:
  72:Lib/AI_Runtime/Npu/ll_aton/ll_aton_caches_interface.h ****     mcu_cache_invalidate_range(virtual_addr, virtual_addr + size);
 493              		.loc 2 72 34 view .LVU97
  73:Lib/AI_Runtime/Npu/ll_aton/ll_aton_caches_interface.h ****     LL_ATON_OSAL_UNLOCK_MCU_CACHE();
 494              		.loc 2 73 5 view .LVU98
 495              	.LBE51:
 496              	.LBE50:
 148:Model/hand_landmark.c ****   LL_ATON_LIB_UNUSED(epoch_block);
 497              		.loc 1 148 1 is_stmt 0 view .LVU99
 498 0000 30B5     		push	{r4, r5, lr}
 499              		.cfi_def_cfa_offset 12
 500              		.cfi_offset 4, -12
 501              		.cfi_offset 5, -8
 502              		.cfi_offset 14, -4
 503              	.LBB54:
 504              	.LBB52:
  73:Lib/AI_Runtime/Npu/ll_aton/ll_aton_caches_interface.h ****     LL_ATON_OSAL_UNLOCK_MCU_CACHE();
 505              		.loc 2 73 5 view .LVU100
 506 0002 204D     		ldr	r5, .L17
 507              	.LBE52:
 508              	.LBE54:
 148:Model/hand_landmark.c ****   LL_ATON_LIB_UNUSED(epoch_block);
 509              		.loc 1 148 1 view .LVU101
 510 0004 AFB0     		sub	sp, sp, #188
 511              		.cfi_def_cfa_offset 200
 512              	.LBB55:
 513              	.LBB53:
  73:Lib/AI_Runtime/Npu/ll_aton/ll_aton_caches_interface.h ****     LL_ATON_OSAL_UNLOCK_MCU_CACHE();
 514              		.loc 2 73 5 view .LVU102
 515 0006 2946     		mov	r1, r5
 516 0008 1F48     		ldr	r0, .L17+4
 517              	.LVL25:
  73:Lib/AI_Runtime/Npu/ll_aton/ll_aton_caches_interface.h ****     LL_ATON_OSAL_UNLOCK_MCU_CACHE();
 518              		.loc 2 73 5 view .LVU103
 519 000a FFF7FEFF 		bl	mcu_cache_invalidate_range
 520              	.LVL26:
 521              		.loc 2 74 36 is_stmt 1 view .LVU104
 522              		.loc 2 74 36 is_stmt 0 view .LVU105
 523              	.LBE53:
 524              	.LBE55:
 160:Model/hand_landmark.c ****     /* "general.input" tensor-related info: */
 525              		.loc 1 160 3 is_stmt 1 view .LVU106
 160:Model/hand_landmark.c ****     /* "general.input" tensor-related info: */
 526              		.loc 1 160 28 is_stmt 0 view .LVU107
 527 000e B422     		movs	r2, #180
 528 0010 0021     		movs	r1, #0
 529 0012 01A8     		add	r0, sp, #4
 530 0014 FFF7FEFF 		bl	memset
ARM GAS  C:\Users\DJESSOU\AppData\Local\Temp\ccZ709fi.s 			page 20


 531              	.LVL27:
 532 0018 2A23     		movs	r3, #42
 533 001a 3F22     		movs	r2, #63
 534 001c 8DF80430 		strb	r3, [sp, #4]
 535 0020 0123     		movs	r3, #1
 536 0022 1A49     		ldr	r1, .L17+8
 537 0024 CDE90423 		strd	r2, r3, [sp, #16]
 538 0028 CDE90F23 		strd	r2, r3, [sp, #60]
 539 002c CDE90622 		strd	r2, r2, [sp, #24]
 540 0030 0A92     		str	r2, [sp, #40]
 541 0032 0B91     		str	r1, [sp, #44]
 542 0034 1192     		str	r2, [sp, #68]
 543 0036 0421     		movs	r1, #4
 544 0038 FC22     		movs	r2, #252
 545 003a CDE91221 		strd	r2, r1, [sp, #72]
 546 003e CDE91412 		strd	r1, r2, [sp, #80]
 547 0042 134A     		ldr	r2, .L17+12
 548 0044 134C     		ldr	r4, .L17+16
 198:Model/hand_landmark.c ****   /* *** MCU cache clean (only) operation (SW, whole range) *** */
 549              		.loc 1 198 3 view .LVU108
 550 0046 0DEB0100 		add	r0, sp, r1
 160:Model/hand_landmark.c ****     /* "general.input" tensor-related info: */
 551              		.loc 1 160 28 view .LVU109
 552 004a 2192     		str	r2, [sp, #132]
 553 004c 4032     		adds	r2, r2, #64
 554 004e CDE90233 		strd	r3, r3, [sp, #8]
 555 0052 CDE90833 		strd	r3, r3, [sp, #32]
 556 0056 CDE90D33 		strd	r3, r3, [sp, #52]
 557 005a 8DF83030 		strb	r3, [sp, #48]
 558 005e 8DF85C30 		strb	r3, [sp, #92]
 559 0062 1C93     		str	r3, [sp, #112]
 560 0064 8DF88830 		strb	r3, [sp, #136]
 561 0068 2793     		str	r3, [sp, #156]
 562 006a 2C92     		str	r2, [sp, #176]
 563 006c 8DF8B430 		strb	r3, [sp, #180]
 198:Model/hand_landmark.c ****   /* *** MCU cache clean (only) operation (SW, whole range) *** */
 564              		.loc 1 198 3 is_stmt 1 view .LVU110
 160:Model/hand_landmark.c ****     /* "general.input" tensor-related info: */
 565              		.loc 1 160 28 is_stmt 0 view .LVU111
 566 0070 1694     		str	r4, [sp, #88]
 198:Model/hand_landmark.c ****   /* *** MCU cache clean (only) operation (SW, whole range) *** */
 567              		.loc 1 198 3 view .LVU112
 568 0072 FFF7FEFF 		bl	ll_sw_forward_dequantizelinear
 569              	.LVL28:
 203:Model/hand_landmark.c **** 
 570              		.loc 1 203 3 is_stmt 1 view .LVU113
 571              	.LBB56:
 572              	.LBI56:
  51:Lib/AI_Runtime/Npu/ll_aton/ll_aton_caches_interface.h ****   {
 573              		.loc 2 51 22 view .LVU114
 574              	.LBB57:
  53:Lib/AI_Runtime/Npu/ll_aton/ll_aton_caches_interface.h ****     mcu_cache_clean_range(virtual_addr, virtual_addr + size);
 575              		.loc 2 53 34 view .LVU115
  54:Lib/AI_Runtime/Npu/ll_aton/ll_aton_caches_interface.h ****     LL_ATON_OSAL_UNLOCK_MCU_CACHE();
 576              		.loc 2 54 5 view .LVU116
 577 0076 2946     		mov	r1, r5
 578 0078 2046     		mov	r0, r4
ARM GAS  C:\Users\DJESSOU\AppData\Local\Temp\ccZ709fi.s 			page 21


 579 007a FFF7FEFF 		bl	mcu_cache_clean_range
 580              	.LVL29:
  55:Lib/AI_Runtime/Npu/ll_aton/ll_aton_caches_interface.h ****   }
 581              		.loc 2 55 36 view .LVU117
  55:Lib/AI_Runtime/Npu/ll_aton/ll_aton_caches_interface.h ****   }
 582              		.loc 2 55 36 is_stmt 0 view .LVU118
 583              	.LBE57:
 584              	.LBE56:
 206:Model/hand_landmark.c **** 
 585              		.loc 1 206 1 view .LVU119
 586 007e 2FB0     		add	sp, sp, #188
 587              		.cfi_def_cfa_offset 12
 588              		@ sp needed
 589 0080 30BD     		pop	{r4, r5, pc}
 590              	.L18:
 591 0082 00BF     		.align	2
 592              	.L17:
 593 0084 00012E34 		.word	875430144
 594 0088 E0002E34 		.word	875430112
 595 008c 00122E34 		.word	875434496
 596 0090 50918870 		.word	1887998288
 597 0094 00002E34 		.word	875429888
 598              		.cfi_endproc
 599              	.LFE308:
 601              		.section	.text.LL_ATON_WeightEncryption_Info_hand_landmark,"ax",%progbits
 602              		.align	1
 603              		.global	LL_ATON_WeightEncryption_Info_hand_landmark
 604              		.syntax unified
 605              		.thumb
 606              		.thumb_func
 608              	LL_ATON_WeightEncryption_Info_hand_landmark:
 609              	.LFB299:
  80:Model/hand_landmark.c ****   static const LL_Streng_EncryptionTypedef LL_Streng_EncryptionStruct = {
 610              		.loc 1 80 1 is_stmt 1 view -0
 611              		.cfi_startproc
 612              		@ args = 0, pretend = 0, frame = 0
 613              		@ frame_needed = 0, uses_anonymous_args = 0
 614              		@ link register save eliminated.
  81:Model/hand_landmark.c ****     .enable = 0,
 615              		.loc 1 81 3 view .LVU121
  85:Model/hand_landmark.c **** }
 616              		.loc 1 85 3 view .LVU122
  86:Model/hand_landmark.c **** 
 617              		.loc 1 86 1 is_stmt 0 view .LVU123
 618 0000 0048     		ldr	r0, .L20
 619 0002 7047     		bx	lr
 620              	.L21:
 621              		.align	2
 622              	.L20:
 623 0004 00000000 		.word	LL_Streng_EncryptionStruct.288
 624              		.cfi_endproc
 625              	.LFE299:
 627              		.section	.text.LL_ATON_BlobEncryption_Info_hand_landmark,"ax",%progbits
 628              		.align	1
 629              		.global	LL_ATON_BlobEncryption_Info_hand_landmark
 630              		.syntax unified
 631              		.thumb
ARM GAS  C:\Users\DJESSOU\AppData\Local\Temp\ccZ709fi.s 			page 22


 632              		.thumb_func
 634              	LL_ATON_BlobEncryption_Info_hand_landmark:
 635              	.LFB300:
  89:Model/hand_landmark.c ****   static const LL_Streng_EncryptionTypedef LL_Streng_EncryptionStruct = {
 636              		.loc 1 89 1 is_stmt 1 view -0
 637              		.cfi_startproc
 638              		@ args = 0, pretend = 0, frame = 0
 639              		@ frame_needed = 0, uses_anonymous_args = 0
 640              		@ link register save eliminated.
  90:Model/hand_landmark.c ****     .enable = 0,
 641              		.loc 1 90 3 view .LVU125
  94:Model/hand_landmark.c **** }
 642              		.loc 1 94 3 view .LVU126
  95:Model/hand_landmark.c **** 
 643              		.loc 1 95 1 is_stmt 0 view .LVU127
 644 0000 0048     		ldr	r0, .L23
 645 0002 7047     		bx	lr
 646              	.L24:
 647              		.align	2
 648              	.L23:
 649 0004 00000000 		.word	LL_Streng_EncryptionStruct.287
 650              		.cfi_endproc
 651              	.LFE300:
 653              		.section	.text.LL_ATON_Set_User_Input_Buffer_hand_landmark,"ax",%progbits
 654              		.align	1
 655              		.global	LL_ATON_Set_User_Input_Buffer_hand_landmark
 656              		.syntax unified
 657              		.thumb
 658              		.thumb_func
 660              	LL_ATON_Set_User_Input_Buffer_hand_landmark:
 661              	.LVL30:
 662              	.LFB301:
  98:Model/hand_landmark.c ****   { 
 663              		.loc 1 98 1 is_stmt 1 view -0
 664              		.cfi_startproc
 665              		@ args = 0, pretend = 0, frame = 0
 666              		@ frame_needed = 0, uses_anonymous_args = 0
 667              		@ link register save eliminated.
 100:Model/hand_landmark.c ****   }
 668              		.loc 1 100 5 view .LVU129
 102:Model/hand_landmark.c **** 
 669              		.loc 1 102 1 is_stmt 0 view .LVU130
 670 0000 0320     		movs	r0, #3
 671              	.LVL31:
 102:Model/hand_landmark.c **** 
 672              		.loc 1 102 1 view .LVU131
 673 0002 7047     		bx	lr
 674              		.cfi_endproc
 675              	.LFE301:
 677              		.section	.text.LL_ATON_Get_User_Input_Buffer_hand_landmark,"ax",%progbits
 678              		.align	1
 679              		.global	LL_ATON_Get_User_Input_Buffer_hand_landmark
 680              		.syntax unified
 681              		.thumb
 682              		.thumb_func
 684              	LL_ATON_Get_User_Input_Buffer_hand_landmark:
 685              	.LVL32:
ARM GAS  C:\Users\DJESSOU\AppData\Local\Temp\ccZ709fi.s 			page 23


 686              	.LFB302:
 105:Model/hand_landmark.c ****   { 
 687              		.loc 1 105 1 is_stmt 1 view -0
 688              		.cfi_startproc
 689              		@ args = 0, pretend = 0, frame = 0
 690              		@ frame_needed = 0, uses_anonymous_args = 0
 691              		@ link register save eliminated.
 107:Model/hand_landmark.c ****   }
 692              		.loc 1 107 5 view .LVU133
 109:Model/hand_landmark.c **** 
 693              		.loc 1 109 1 is_stmt 0 view .LVU134
 694 0000 0020     		movs	r0, #0
 695              	.LVL33:
 109:Model/hand_landmark.c **** 
 696              		.loc 1 109 1 view .LVU135
 697 0002 7047     		bx	lr
 698              		.cfi_endproc
 699              	.LFE302:
 701              		.section	.text.LL_ATON_Set_User_Output_Buffer_hand_landmark,"ax",%progbits
 702              		.align	1
 703              		.global	LL_ATON_Set_User_Output_Buffer_hand_landmark
 704              		.syntax unified
 705              		.thumb
 706              		.thumb_func
 708              	LL_ATON_Set_User_Output_Buffer_hand_landmark:
 709              	.LFB318:
 710              		.cfi_startproc
 111:Model/hand_landmark.c **** {
 711              		.loc 1 111 26 is_stmt 1 view -0
 712              		@ args = 0, pretend = 0, frame = 0
 713              		@ frame_needed = 0, uses_anonymous_args = 0
 714              		@ link register save eliminated.
 715 0000 0320     		movs	r0, #3
 716 0002 7047     		bx	lr
 717              		.cfi_endproc
 718              	.LFE318:
 720              		.section	.text.LL_ATON_Get_User_Output_Buffer_hand_landmark,"ax",%progbits
 721              		.align	1
 722              		.global	LL_ATON_Get_User_Output_Buffer_hand_landmark
 723              		.syntax unified
 724              		.thumb
 725              		.thumb_func
 727              	LL_ATON_Get_User_Output_Buffer_hand_landmark:
 728              	.LFB320:
 729              		.cfi_startproc
 118:Model/hand_landmark.c **** {
 730              		.loc 1 118 7 view -0
 731              		@ args = 0, pretend = 0, frame = 0
 732              		@ frame_needed = 0, uses_anonymous_args = 0
 733              		@ link register save eliminated.
 734 0000 0020     		movs	r0, #0
 735 0002 7047     		bx	lr
 736              		.cfi_endproc
 737              	.LFE320:
 739              		.section	.text.LL_ATON_EC_Network_Init_hand_landmark,"ax",%progbits
 740              		.align	1
 741              		.global	LL_ATON_EC_Network_Init_hand_landmark
ARM GAS  C:\Users\DJESSOU\AppData\Local\Temp\ccZ709fi.s 			page 24


 742              		.syntax unified
 743              		.thumb
 744              		.thumb_func
 746              	LL_ATON_EC_Network_Init_hand_landmark:
 747              	.LFB305:
 748              		.file 3 "Model/hand_landmark_ecblobs.h"
   1:Model/hand_landmark_ecblobs.h **** /**
   2:Model/hand_landmark_ecblobs.h ****   ******************************************************************************
   3:Model/hand_landmark_ecblobs.h ****   * @file    hand_landmark_ecblobs.h
   4:Model/hand_landmark_ecblobs.h ****   * @brief   NN Code autogenerated DO NOT MODIFY IT
   5:Model/hand_landmark_ecblobs.h ****   ******************************************************************************
   6:Model/hand_landmark_ecblobs.h ****   * @attention
   7:Model/hand_landmark_ecblobs.h ****   *
   8:Model/hand_landmark_ecblobs.h ****   * Copyright (c) 2024 STMicroelectronics.
   9:Model/hand_landmark_ecblobs.h ****   * All rights reserved.
  10:Model/hand_landmark_ecblobs.h ****   *
  11:Model/hand_landmark_ecblobs.h ****   * This software is licensed under terms that can be found in the LICENSE file
  12:Model/hand_landmark_ecblobs.h ****   * in the root directory of this software component.
  13:Model/hand_landmark_ecblobs.h ****   * If no LICENSE file comes with this software, it is provided AS-IS.
  14:Model/hand_landmark_ecblobs.h ****   *
  15:Model/hand_landmark_ecblobs.h ****   ******************************************************************************
  16:Model/hand_landmark_ecblobs.h ****   */
  17:Model/hand_landmark_ecblobs.h **** 
  18:Model/hand_landmark_ecblobs.h **** 
  19:Model/hand_landmark_ecblobs.h **** #ifdef __cplusplus
  20:Model/hand_landmark_ecblobs.h **** extern "C" {
  21:Model/hand_landmark_ecblobs.h **** #endif
  22:Model/hand_landmark_ecblobs.h **** 
  23:Model/hand_landmark_ecblobs.h **** #include "ll_aton_caches_interface.h"
  24:Model/hand_landmark_ecblobs.h **** 
  25:Model/hand_landmark_ecblobs.h **** #include <string.h>
  26:Model/hand_landmark_ecblobs.h **** 
  27:Model/hand_landmark_ecblobs.h **** #if !defined(ECBLOB_CONST_SECTION)
  28:Model/hand_landmark_ecblobs.h **** #define ECBLOB_CONST_SECTION /* Empty */
  29:Model/hand_landmark_ecblobs.h **** #endif
  30:Model/hand_landmark_ecblobs.h **** #if !defined(ECBLOB_RUNTIME_SECTION)
  31:Model/hand_landmark_ecblobs.h **** #define ECBLOB_RUNTIME_SECTION /* Empty */
  32:Model/hand_landmark_ecblobs.h **** #endif
  33:Model/hand_landmark_ecblobs.h **** 
  34:Model/hand_landmark_ecblobs.h **** ECBLOB_CONST_SECTION
  35:Model/hand_landmark_ecblobs.h **** // aligned to the cache line size (equal to 64 bytes)
  36:Model/hand_landmark_ecblobs.h **** __attribute__((aligned(64)))
  37:Model/hand_landmark_ecblobs.h **** static const uint64_t _ec_blob_hand_landmark_1[17368] =
  38:Model/hand_landmark_ecblobs.h **** {
  39:Model/hand_landmark_ecblobs.h ****   0x000087a9ca057a7aUL, 0x0000005d0000003dUL, 0x5c00004200802241UL, 0x1500006008000000UL,
  40:Model/hand_landmark_ecblobs.h ****   0x000700005c027c00UL, 0x000040005c070043UL, 0x5c0c00430000ffe0UL, 0x1041204200000000UL,
  41:Model/hand_landmark_ecblobs.h ****   0x6000004200802261UL, 0x1500000008000000UL, 0x0007000060027c00UL, 0x0000400060070043UL,
  42:Model/hand_landmark_ecblobs.h ****   0x600c004300000020UL, 0x1041104100000000UL, 0x20007c0000802061UL, 0x2002004300080104UL,
  43:Model/hand_landmark_ecblobs.h ****   0x00024c00342e0000UL, 0x00000000200500c3UL, 0x0000000000024c00UL, 0x0000002400000000UL,
  44:Model/hand_landmark_ecblobs.h ****   0x200c004200100000UL, 0x0000000700000006UL, 0x00000001200d0043UL, 0x2011004334304c3fUL,
  45:Model/hand_landmark_ecblobs.h ****   0x0000000000000000UL, 0x38007c0000802121UL, 0x380200430008010cUL, 0x00024c0034304c00UL,
  46:Model/hand_landmark_ecblobs.h ****   0x00000000380500c3UL, 0x0000000000024c00UL, 0x0000002400000000UL, 0x380c004200100000UL,
  47:Model/hand_landmark_ecblobs.h ****   0x0000000700000006UL, 0x00000001380d0043UL, 0x381100433432983fUL, 0x0000000000000000UL,
  48:Model/hand_landmark_ecblobs.h ****   0x0000000210007c00UL, 0x0000006410000424UL, 0x10007c0000000000UL, 0x10007bc440000000UL,
  49:Model/hand_landmark_ecblobs.h ****   0x0000000000000064UL, 0x0000000110007c00UL, 0x00000027100b7c00UL, 0x00000007101e7c00UL,
  50:Model/hand_landmark_ecblobs.h ****   0x0000002510207c00UL, 0x5c00200138002001UL, 0x2000200160002001UL, 0x0000006438007fe4UL,
  51:Model/hand_landmark_ecblobs.h ****   0x100b7c0000000000UL, 0x101e7c0000000000UL, 0x10207c0000000000UL, 0x38007c0000000000UL,
ARM GAS  C:\Users\DJESSOU\AppData\Local\Temp\ccZ709fi.s 			page 25


  52:Model/hand_landmark_ecblobs.h ****   0x3800042400000002UL, 0x0000000000000064UL, 0x4000000038007c00UL, 0x0000006438007bc4UL,
  53:Model/hand_landmark_ecblobs.h ****   0x0080012100000000UL, 0x080000025c007c00UL, 0x000000645c000424UL, 0x5c007c0000000000UL,
  54:Model/hand_landmark_ecblobs.h ****   0x5c007bc448000000UL, 0x0000000000000064UL, 0x60007c0000800241UL, 0x6000042408000002UL,
  55:Model/hand_landmark_ecblobs.h ****   0x0000000000000064UL, 0x4800000060007c00UL, 0x0000006460007bc4UL, 0x0080026100000000UL,
  56:Model/hand_landmark_ecblobs.h ****   0x0000000220007c00UL, 0x0000006420000424UL, 0x20007c0000000000UL, 0x20007bc440000000UL,
  57:Model/hand_landmark_ecblobs.h ****   0x0000000000000064UL, 0x0000007d00800061UL, 0x3c007c0000802141UL, 0x3c0200e300100034UL,
  58:Model/hand_landmark_ecblobs.h ****   0x0000224406030303UL, 0x00e002a010634404UL, 0x00df0000029f0000UL, 0x3c0a7c0000000001UL,
  59:Model/hand_landmark_ecblobs.h ****   0x3c0d7c0000000000UL, 0x0080228100000000UL, 0x0800000064000042UL, 0x64020123156000fcUL,
  60:Model/hand_landmark_ecblobs.h ****   0x0000000000088000UL, 0x000125ff00000005UL, 0x0000000000024bffUL, 0x07d403fb00000000UL,
  61:Model/hand_landmark_ecblobs.h ****   0x640c004300000001UL, 0x2042204200000000UL, 0x00000001640b7c00UL, 0xff6903e265000303UL,
  62:Model/hand_landmark_ecblobs.h ****   0xff3e0d4d00009615UL, 0xff3001c2000096e4UL, 0xff5c090900004f80UL, 0xffa2622f0000b806UL,
  63:Model/hand_landmark_ecblobs.h ****   0xff7513610000db44UL, 0xffaf00000000df8fUL, 0xff1d045e00007a7fUL, 0xff6804cd0000b219UL,
  64:Model/hand_landmark_ecblobs.h ****   0xff3316220000ac3bUL, 0xff3504c4000076ffUL, 0xff2105f800009501UL, 0x008022a100001969UL,
  65:Model/hand_landmark_ecblobs.h ****   0x0800000068000042UL, 0x68027c0015000000UL, 0x6807004300070000UL, 0x0000002000004000UL,
  66:Model/hand_landmark_ecblobs.h ****   0x00000000680c0043UL, 0x0080216110411041UL, 0x0010003440007c00UL, 0x06030303400200e3UL,
  67:Model/hand_landmark_ecblobs.h ****   0x1063440400002244UL, 0x029f000000e002a0UL, 0x0000000100df0000UL, 0x00000000400a7c00UL,
  68:Model/hand_landmark_ecblobs.h ****   0x00000000400d7c00UL, 0x5c00004200802241UL, 0x156000fc08000000UL, 0x000800005c020123UL,
  69:Model/hand_landmark_ecblobs.h ****   0x0000000500000000UL, 0x00024bff000125ffUL, 0x0000000000000000UL, 0x0000000107d403fbUL,
  70:Model/hand_landmark_ecblobs.h ****   0x000000005c0c0043UL, 0x5c0b7c0020422042UL, 0x5d00030300000001UL, 0x0000bcb9ff9c30e2UL,
  71:Model/hand_landmark_ecblobs.h ****   0x0000afceff80002fUL, 0x0000ebb1ff9e029eUL, 0x0000beddff8d4265UL, 0x00008830ff970627UL,
  72:Model/hand_landmark_ecblobs.h ****   0x00003e7dffc10127UL, 0x00007282ff8d01e5UL, 0x0000fe80002a17e0UL, 0x00008fd3ff95065bUL,
  73:Model/hand_landmark_ecblobs.h ****   0x00004d73ffa20573UL, 0x0000c5b6fff90144UL, 0x000098a1ffbc2cdaUL, 0x6000004200802261UL,
  74:Model/hand_landmark_ecblobs.h ****   0x1500000008000000UL, 0x0007000060027c00UL, 0x0000400060070043UL, 0x600c004300000020UL,
  75:Model/hand_landmark_ecblobs.h ****   0x1041104100000000UL, 0x14007c0000802001UL, 0x1402004300080100UL, 0x00024c0034304c00UL,
  76:Model/hand_landmark_ecblobs.h ****   0x00000000140500c3UL, 0x0000000100024c00UL, 0x0000002400000000UL, 0x140c004200100000UL,
  77:Model/hand_landmark_ecblobs.h ****   0x0000000700000006UL, 0x00000002140d0043UL, 0x141100433432983fUL, 0x0000000000000000UL,
  78:Model/hand_landmark_ecblobs.h ****   0x2c007c00008020c1UL, 0x2c02004300080184UL, 0x0000014470888fd0UL, 0x000000002c0500c3UL,
  79:Model/hand_landmark_ecblobs.h ****   0x0000000000000000UL, 0x0000002400000000UL, 0x2c0c004200100000UL, 0x0000000700000006UL,
  80:Model/hand_landmark_ecblobs.h ****   0x000000012c0d0043UL, 0x2c11004370889157UL, 0x0000000800000000UL, 0x38007c0000802121UL,
  81:Model/hand_landmark_ecblobs.h ****   0x3802004300080100UL, 0x00024c0034304c00UL, 0x00000000380500c3UL, 0x0000000100024c00UL,
  82:Model/hand_landmark_ecblobs.h ****   0x0000002400000000UL, 0x380c004200100000UL, 0x0000000700000006UL, 0x00000002380d0043UL,
  83:Model/hand_landmark_ecblobs.h ****   0x381100433432983fUL, 0x0000000000000000UL, 0x1c007c0000802041UL, 0x1c02004300080184UL,
  84:Model/hand_landmark_ecblobs.h ****   0x0000014470888e80UL, 0x000000001c0500c3UL, 0x0000000000000000UL, 0x0000002400000000UL,
  85:Model/hand_landmark_ecblobs.h ****   0x1c0c004200100000UL, 0x0000000700000006UL, 0x000000011c0d0043UL, 0x1c11004370889007UL,
  86:Model/hand_landmark_ecblobs.h ****   0x0000000800000000UL, 0x30007c00008020e1UL, 0x3002012300080008UL, 0x0070007034270000UL,
  87:Model/hand_landmark_ecblobs.h ****   0x00000540000c0006UL, 0x0000000200000006UL, 0x0000002400024c00UL, 0x300c004200100000UL,
  88:Model/hand_landmark_ecblobs.h ****   0x0000000700000006UL, 0x00000002300d0043UL, 0x3011004334294c3fUL, 0x0000000000000000UL,
  89:Model/hand_landmark_ecblobs.h ****   0x20007c0000802061UL, 0x2002012300080008UL, 0x0070007034329800UL, 0x00000540000c0006UL,
  90:Model/hand_landmark_ecblobs.h ****   0x0000000200000006UL, 0x0000002400024c00UL, 0x200c004200100000UL, 0x0000000700000006UL,
  91:Model/hand_landmark_ecblobs.h ****   0x00000002200d0043UL, 0x201100433434e43fUL, 0x0000000000000000UL, 0x0000000210007c00UL,
  92:Model/hand_landmark_ecblobs.h ****   0x0000006410000424UL, 0x10007c0000000000UL, 0x10007bc440000000UL, 0x0000000000000064UL,
  93:Model/hand_landmark_ecblobs.h ****   0x0000000110007c00UL, 0x0000002710057c00UL, 0x0000002b10097c00UL, 0x00000001100c0043UL,
  94:Model/hand_landmark_ecblobs.h ****   0x100f00430000000dUL, 0x0000000500000013UL, 0x00000017101e7c00UL, 0x0000002510207c00UL,
  95:Model/hand_landmark_ecblobs.h ****   0x0000001510227c00UL, 0x0000002910247c00UL, 0x3000200120002001UL, 0x001000353c007c00UL,
  96:Model/hand_landmark_ecblobs.h ****   0x0010003540007c00UL, 0x600020015c002001UL, 0x6800200164002001UL, 0x1c00200114002001UL,
  97:Model/hand_landmark_ecblobs.h ****   0x380020012c002001UL, 0x0000006420007fe4UL, 0x30007fe400000000UL, 0x0000000000000064UL,
  98:Model/hand_landmark_ecblobs.h ****   0x0000000010057c00UL, 0x0000000010097c00UL, 0x00000000100c0043UL, 0x100f004300000000UL,
  99:Model/hand_landmark_ecblobs.h ****   0x0000000000000000UL, 0x00000000101e7c00UL, 0x0000000010207c00UL, 0x0000000010227c00UL,
 100:Model/hand_landmark_ecblobs.h ****   0x0000000010247c00UL, 0x0000000220007c00UL, 0x0000006420000424UL, 0x20007c0000000000UL,
 101:Model/hand_landmark_ecblobs.h ****   0x20007bc440000000UL, 0x0000000000000064UL, 0x30007c0000800061UL, 0x3000042400000002UL,
 102:Model/hand_landmark_ecblobs.h ****   0x0000000000000064UL, 0x4000000030007c00UL, 0x0000006430007bc4UL, 0x008000e100000000UL,
 103:Model/hand_landmark_ecblobs.h ****   0x000000023c007c00UL, 0x000000643c000424UL, 0x3c007c0000000000UL, 0x3c007bc440000000UL,
 104:Model/hand_landmark_ecblobs.h ****   0x0000000000000064UL, 0x40007c0000800141UL, 0x4000042400000002UL, 0x0000000000000064UL,
 105:Model/hand_landmark_ecblobs.h ****   0x4000000040007c00UL, 0x0000006440007bc4UL, 0x0080016100000000UL, 0x080000025c007c00UL,
 106:Model/hand_landmark_ecblobs.h ****   0x000000645c000424UL, 0x5c007c0000000000UL, 0x5c007bc448000000UL, 0x0000000000000064UL,
 107:Model/hand_landmark_ecblobs.h ****   0x60007c0000800241UL, 0x6000042408000002UL, 0x0000000000000064UL, 0x4800000060007c00UL,
 108:Model/hand_landmark_ecblobs.h ****   0x0000006460007bc4UL, 0x0080026100000000UL, 0x0800000264007c00UL, 0x0000006464000424UL,
ARM GAS  C:\Users\DJESSOU\AppData\Local\Temp\ccZ709fi.s 			page 26


 109:Model/hand_landmark_ecblobs.h ****   0x64007c0000000000UL, 0x64007bc448000000UL, 0x0000000000000064UL, 0x68007c0000800281UL,
 110:Model/hand_landmark_ecblobs.h ****   0x6800042408000002UL, 0x0000000000000064UL, 0x4800000068007c00UL, 0x0000006468007bc4UL,
 111:Model/hand_landmark_ecblobs.h ****   0x008002a100000000UL, 0x0000000214007c00UL, 0x0000006414000424UL, 0x14007c0000000000UL,
 112:Model/hand_landmark_ecblobs.h ****   0x14007bc440000000UL, 0x0000000000000064UL, 0x1c007c0000800001UL, 0x1c00042400000002UL,
 113:Model/hand_landmark_ecblobs.h ****   0x0000000000000064UL, 0x400000001c007c00UL, 0x000000641c007bc4UL, 0x0080004100000000UL,
 114:Model/hand_landmark_ecblobs.h ****   0x000000022c007c00UL, 0x000000642c000424UL, 0x2c007c0000000000UL, 0x2c007bc440000000UL,
 115:Model/hand_landmark_ecblobs.h ****   0x0000000000000064UL, 0x38007c00008000c1UL, 0x3800042400000002UL, 0x0000000000000064UL,
 116:Model/hand_landmark_ecblobs.h ****   0x4000000038007c00UL, 0x0000006438007bc4UL, 0x0080012100000000UL, 0x008021810000009dUL,
 117:Model/hand_landmark_ecblobs.h ****   0x0010003444007c00UL, 0x04040303440200e3UL, 0x1063420200001155UL, 0x01bf0000007001c0UL,
 118:Model/hand_landmark_ecblobs.h ****   0x00000001006f0000UL, 0x00000000440a7c00UL, 0x00000000440d7c00UL, 0x5c00004200802241UL,
 119:Model/hand_landmark_ecblobs.h ****   0x156000fc08000000UL, 0x000800005c020123UL, 0x0000000300000000UL, 0x00024bff0000c3ffUL,
 120:Model/hand_landmark_ecblobs.h ****   0x0000000000000000UL, 0x0000000107d403fdUL, 0x000000005c0c0043UL, 0x5c0b7c0020422042UL,
 121:Model/hand_landmark_ecblobs.h ****   0x5d00030300000001UL, 0x0000a24aff823bf0UL, 0x00000c4affbe028dUL, 0x0000f8ddfedd1b67UL,
 122:Model/hand_landmark_ecblobs.h ****   0x0000dfbfff7b07f5UL, 0x00004d21005c0914UL, 0x0000d2a7ff821d7fUL, 0x000051d0ff5e0000UL,
 123:Model/hand_landmark_ecblobs.h ****   0x000043edff4918deUL, 0x00002752ffd0567dUL, 0x0000977affb2094dUL, 0x000098a1ff7405ccUL,
 124:Model/hand_landmark_ecblobs.h ****   0x0000a674ffb73d9bUL, 0x6000004200802261UL, 0x1500000008000000UL, 0x0007000060027c00UL,
 125:Model/hand_landmark_ecblobs.h ****   0x0000400060070043UL, 0x600c004300000020UL, 0x1041104100000000UL, 0x48007c00008021a1UL,
 126:Model/hand_landmark_ecblobs.h ****   0x480200e300100034UL, 0x0000115504040303UL, 0x007001c010634202UL, 0x006f000001bf0000UL,
 127:Model/hand_landmark_ecblobs.h ****   0x480a7c0000000001UL, 0x480d7c0000000000UL, 0x0080228100000000UL, 0x0800000064000042UL,
 128:Model/hand_landmark_ecblobs.h ****   0x64020123156000fcUL, 0x0000000000068000UL, 0x0000c3ff00000003UL, 0x0000000000024bffUL,
 129:Model/hand_landmark_ecblobs.h ****   0x07d403fd00000000UL, 0x640c004300000001UL, 0x2042204200000000UL, 0x00000001640b7c00UL,
 130:Model/hand_landmark_ecblobs.h ****   0xfffa003565000303UL, 0xfff54dbb0000445cUL, 0xfff907be0000772eUL, 0xfff0003700002c65UL,
 131:Model/hand_landmark_ecblobs.h ****   0xfff50317000002b9UL, 0xfff10414000053b4UL, 0xfff7067700003e24UL, 0xfff0001b00006fd0UL,
 132:Model/hand_landmark_ecblobs.h ****   0xfff0010b000088f9UL, 0xfff20313000088acUL, 0xfff50e650000e37dUL, 0xfff0008e0000bfc1UL,
 133:Model/hand_landmark_ecblobs.h ****   0x008022a10000e808UL, 0x0800000068000042UL, 0x68027c0015000000UL, 0x6807004300070000UL,
 134:Model/hand_landmark_ecblobs.h ****   0x0000002000004000UL, 0x00000000680c0043UL, 0x008020a110411041UL, 0x0008000028007c00UL,
 135:Model/hand_landmark_ecblobs.h ****   0x3427000028020123UL, 0x000c000400700070UL, 0x0000000000000540UL, 0x0000000400000001UL,
 136:Model/hand_landmark_ecblobs.h ****   0x0010000000000024UL, 0x00000006280c0042UL, 0x280d004300000007UL, 0x34294c3f00000003UL,
 137:Model/hand_landmark_ecblobs.h ****   0x0000000028110043UL, 0x0080200100000000UL, 0x0008018414007c00UL, 0x70888b5014020043UL,
 138:Model/hand_landmark_ecblobs.h ****   0x140500c3000001b0UL, 0x0000000000000000UL, 0x0000000000000000UL, 0x0010000000000024UL,
 139:Model/hand_landmark_ecblobs.h ****   0x00000006140c0042UL, 0x140d004300000007UL, 0x70888d3f00000001UL, 0x0000000014110043UL,
 140:Model/hand_landmark_ecblobs.h ****   0x0080204100000008UL, 0x000800001c007c00UL, 0x343298001c020123UL, 0x000c000400700070UL,
 141:Model/hand_landmark_ecblobs.h ****   0x0000000000000540UL, 0x0000000400000001UL, 0x0010000000000024UL, 0x000000061c0c0042UL,
 142:Model/hand_landmark_ecblobs.h ****   0x1c0d004300000007UL, 0x3434e43f00000003UL, 0x000000001c110043UL, 0x0080212100000000UL,
 143:Model/hand_landmark_ecblobs.h ****   0x0008018438007c00UL, 0x708889a038020043UL, 0x380500c3000001b0UL, 0x0000000000000000UL,
 144:Model/hand_landmark_ecblobs.h ****   0x0000000000000000UL, 0x0010000000000024UL, 0x00000006380c0042UL, 0x380d004300000007UL,
 145:Model/hand_landmark_ecblobs.h ****   0x70888b8f00000001UL, 0x0000000038110043UL, 0x0080206100000008UL, 0x0008000820007c00UL,
 146:Model/hand_landmark_ecblobs.h ****   0x342e000c20020123UL, 0x0018000400700070UL, 0x0000000400000a80UL, 0x0004980000000006UL,
 147:Model/hand_landmark_ecblobs.h ****   0x0010000000000024UL, 0x00000006200c0042UL, 0x200d004300000007UL, 0x3432984f00000003UL,
 148:Model/hand_landmark_ecblobs.h ****   0x0000000020110043UL, 0x008020e100000000UL, 0x0008000830007c00UL, 0x342e000030020123UL,
 149:Model/hand_landmark_ecblobs.h ****   0x0018000400700070UL, 0x0000000400000a80UL, 0x0004980000000006UL, 0x0010000000000024UL,
 150:Model/hand_landmark_ecblobs.h ****   0x00000006300c0042UL, 0x300d004300000007UL, 0x3432983f00000003UL, 0x0000000030110043UL,
 151:Model/hand_landmark_ecblobs.h ****   0x10007c0000000000UL, 0x1000042400000002UL, 0x0000000000000064UL, 0x4000000010007c00UL,
 152:Model/hand_landmark_ecblobs.h ****   0x0000006410007bc4UL, 0x10007c0000000000UL, 0x10057c0000000001UL, 0x10097c0000000027UL,
 153:Model/hand_landmark_ecblobs.h ****   0x101200430000002bUL, 0x000000010000000bUL, 0x0000000510150043UL, 0x101e7c0000000013UL,
 154:Model/hand_landmark_ecblobs.h ****   0x10207c0000000019UL, 0x10227c0000000025UL, 0x10247c000000001bUL, 0x2000200100000029UL,
 155:Model/hand_landmark_ecblobs.h ****   0x44007c0030002001UL, 0x48007c0000100035UL, 0x5c00200100100035UL, 0x6400200160002001UL,
 156:Model/hand_landmark_ecblobs.h ****   0x1400200168002001UL, 0x280020011c002001UL, 0x20007fe438002001UL, 0x0000000000000064UL,
 157:Model/hand_landmark_ecblobs.h ****   0x0000006430007fe4UL, 0x10057c0000000000UL, 0x10097c0000000000UL, 0x1012004300000000UL,
 158:Model/hand_landmark_ecblobs.h ****   0x0000000000000000UL, 0x0000000010150043UL, 0x101e7c0000000000UL, 0x10207c0000000000UL,
 159:Model/hand_landmark_ecblobs.h ****   0x10227c0000000000UL, 0x10247c0000000000UL, 0x20007c0000000000UL, 0x2000042400000002UL,
 160:Model/hand_landmark_ecblobs.h ****   0x0000000000000064UL, 0x4000000020007c00UL, 0x0000006420007bc4UL, 0x0080006100000000UL,
 161:Model/hand_landmark_ecblobs.h ****   0x0000000230007c00UL, 0x0000006430000424UL, 0x30007c0000000000UL, 0x30007bc440000000UL,
 162:Model/hand_landmark_ecblobs.h ****   0x0000000000000064UL, 0x44007c00008000e1UL, 0x4400042400000002UL, 0x0000000000000064UL,
 163:Model/hand_landmark_ecblobs.h ****   0x4000000044007c00UL, 0x0000006444007bc4UL, 0x0080018100000000UL, 0x0000000248007c00UL,
 164:Model/hand_landmark_ecblobs.h ****   0x0000006448000424UL, 0x48007c0000000000UL, 0x48007bc440000000UL, 0x0000000000000064UL,
 165:Model/hand_landmark_ecblobs.h ****   0x5c007c00008001a1UL, 0x5c00042408000002UL, 0x0000000000000064UL, 0x480000005c007c00UL,
ARM GAS  C:\Users\DJESSOU\AppData\Local\Temp\ccZ709fi.s 			page 27


 166:Model/hand_landmark_ecblobs.h ****   0x000000645c007bc4UL, 0x0080024100000000UL, 0x0800000260007c00UL, 0x0000006460000424UL,
 167:Model/hand_landmark_ecblobs.h ****   0x60007c0000000000UL, 0x60007bc448000000UL, 0x0000000000000064UL, 0x64007c0000800261UL,
 168:Model/hand_landmark_ecblobs.h ****   0x6400042408000002UL, 0x0000000000000064UL, 0x4800000064007c00UL, 0x0000006464007bc4UL,
 169:Model/hand_landmark_ecblobs.h ****   0x0080028100000000UL, 0x0800000268007c00UL, 0x0000006468000424UL, 0x68007c0000000000UL,
 170:Model/hand_landmark_ecblobs.h ****   0x68007bc448000000UL, 0x0000000000000064UL, 0x14007c00008002a1UL, 0x1400042400000002UL,
 171:Model/hand_landmark_ecblobs.h ****   0x0000000000000064UL, 0x4000000014007c00UL, 0x0000006414007bc4UL, 0x0080000100000000UL,
 172:Model/hand_landmark_ecblobs.h ****   0x000000021c007c00UL, 0x000000641c000424UL, 0x1c007c0000000000UL, 0x1c007bc440000000UL,
 173:Model/hand_landmark_ecblobs.h ****   0x0000000000000064UL, 0x28007c0000800041UL, 0x2800042400000002UL, 0x0000000000000064UL,
 174:Model/hand_landmark_ecblobs.h ****   0x4000000028007c00UL, 0x0000006428007bc4UL, 0x008000a100000000UL, 0x0000000238007c00UL,
 175:Model/hand_landmark_ecblobs.h ****   0x0000006438000424UL, 0x38007c0000000000UL, 0x38007bc440000000UL, 0x0000000000000064UL,
 176:Model/hand_landmark_ecblobs.h ****   0x000000bd00800121UL, 0x00802141000000ddUL, 0x001000343c007c00UL, 0x101801013c0200e3UL,
 177:Model/hand_landmark_ecblobs.h ****   0x1063420200001100UL, 0x0a7f000000700a80UL, 0x00000001006f0000UL, 0x000000003c0a7c00UL,
 178:Model/hand_landmark_ecblobs.h ****   0x000000003c0d7c00UL, 0x5c00004200802241UL, 0x156000fc08000000UL, 0x000a80005c020123UL,
 179:Model/hand_landmark_ecblobs.h ****   0x0000000f00000000UL, 0x00030fff00030fffUL, 0x0000000000000000UL, 0x0000000107c403f1UL,
 180:Model/hand_landmark_ecblobs.h ****   0x000000005c0c0043UL, 0x5c0b7c0020422042UL, 0x5d00040300000001UL, 0x00004c90ffab2d51UL,
 181:Model/hand_landmark_ecblobs.h ****   0x00008aabfecd3de8UL, 0x0000a66afdad5ca0UL, 0x0000e48dff203baaUL, 0x00008d58fdf249b0UL,
 182:Model/hand_landmark_ecblobs.h ****   0x00007be6ff1b2decUL, 0x0000b7f903dd466aUL, 0x0000b01502983ef9UL, 0x0000af1d07b8318dUL,
 183:Model/hand_landmark_ecblobs.h ****   0x00008b12fc3d3dfaUL, 0x0000fdd902c7358aUL, 0x0000431a019a375bUL, 0x00007430fe362c52UL,
 184:Model/hand_landmark_ecblobs.h ****   0x0000366ffe843d68UL, 0x00008c16fdf22803UL, 0x00004bc8fd1b2eabUL, 0x38007c0000802121UL,
 185:Model/hand_landmark_ecblobs.h ****   0x3802004300080104UL, 0x00049800342e0000UL, 0x00000000380500c3UL, 0x0000000100049800UL,
 186:Model/hand_landmark_ecblobs.h ****   0x0000002400000000UL, 0x380c004200100000UL, 0x0000000700000006UL, 0x00000001380d0043UL,
 187:Model/hand_landmark_ecblobs.h ****   0x381100433432983fUL, 0x0000000000000000UL, 0x20007c0000802061UL, 0x2002004300080184UL,
 188:Model/hand_landmark_ecblobs.h ****   0x0000018070888d00UL, 0x00000000200500c3UL, 0x0000000000000000UL, 0x0000002400000000UL,
 189:Model/hand_landmark_ecblobs.h ****   0x200c004200100000UL, 0x0000000700000006UL, 0x00000001200d0043UL, 0x2011004370888ebfUL,
 190:Model/hand_landmark_ecblobs.h ****   0x0000000800000000UL, 0x24007c0000802081UL, 0x240200430008010cUL, 0x0003100034200000UL,
 191:Model/hand_landmark_ecblobs.h ****   0x00000000240500c3UL, 0x0000000000031000UL, 0x0000002400000000UL, 0x240c004200100000UL,
 192:Model/hand_landmark_ecblobs.h ****   0x0000000700000006UL, 0x00000001240d0043UL, 0x241100433423103fUL, 0x0000000000000000UL,
 193:Model/hand_landmark_ecblobs.h ****   0x0000000210007c00UL, 0x0000006410000424UL, 0x10007c0000000000UL, 0x10007bc440000000UL,
 194:Model/hand_landmark_ecblobs.h ****   0x0000000000000064UL, 0x0000000110007c00UL, 0x0000002510067c00UL, 0x00000013100c0043UL,
 195:Model/hand_landmark_ecblobs.h ****   0x101e7c0000000007UL, 0x2400200100000015UL, 0x001000353c007c00UL, 0x200020015c002001UL,
 196:Model/hand_landmark_ecblobs.h ****   0x24007fe438002001UL, 0x0000000000000064UL, 0x0000000010067c00UL, 0x00000000100c0043UL,
 197:Model/hand_landmark_ecblobs.h ****   0x101e7c0000000000UL, 0x24007c0000000000UL, 0x2400042400000002UL, 0x0000000000000064UL,
 198:Model/hand_landmark_ecblobs.h ****   0x4000000024007c00UL, 0x0000006424007bc4UL, 0x0080008100000000UL, 0x000000023c007c00UL,
 199:Model/hand_landmark_ecblobs.h ****   0x000000643c000424UL, 0x3c007c0000000000UL, 0x3c007bc440000000UL, 0x0000000000000064UL,
 200:Model/hand_landmark_ecblobs.h ****   0x5c007c0000800141UL, 0x5c00042408000002UL, 0x0000000000000064UL, 0x480000005c007c00UL,
 201:Model/hand_landmark_ecblobs.h ****   0x000000645c007bc4UL, 0x0080024100000000UL, 0x0000000220007c00UL, 0x0000006420000424UL,
 202:Model/hand_landmark_ecblobs.h ****   0x20007c0000000000UL, 0x20007bc440000000UL, 0x0000000000000064UL, 0x38007c0000800061UL,
 203:Model/hand_landmark_ecblobs.h ****   0x3800042400000002UL, 0x0000000000000064UL, 0x4000000038007c00UL, 0x0000006438007bc4UL,
 204:Model/hand_landmark_ecblobs.h ****   0x0080012100000000UL, 0x00802161000000fdUL, 0x0000005440007c00UL, 0x10100101400200e3UL,
 205:Model/hand_landmark_ecblobs.h ****   0x10a3420200001100UL, 0x06ff000000700700UL, 0x00000001006f0000UL, 0x00000000400a7c00UL,
 206:Model/hand_landmark_ecblobs.h ****   0x00fffff6400c0043UL, 0x0080226100000000UL, 0x0800000060000042UL, 0x60020123156000fcUL,
 207:Model/hand_landmark_ecblobs.h ****   0x0000000000088000UL, 0x00030fff0000000fUL, 0x0000000000061fffUL, 0x078403f100000000UL,
 208:Model/hand_landmark_ecblobs.h ****   0x600c004300000001UL, 0x2042204200000000UL, 0x00000001600b7c00UL, 0xfefe000261000803UL,
 209:Model/hand_landmark_ecblobs.h ****   0xfeed25bb00006745UL, 0xfecd246500005af1UL, 0xff1c09380000d9feUL, 0xff5614bc000073b2UL,
 210:Model/hand_landmark_ecblobs.h ****   0xfebe37ae0000bcf3UL, 0xff0a440d00002783UL, 0xffa109e500002af1UL, 0xff720e0100008794UL,
 211:Model/hand_landmark_ecblobs.h ****   0xff3606290000216bUL, 0xfe9131d300005e5dUL, 0xfdd3272e00004113UL, 0xfe713d8800008662UL,
 212:Model/hand_landmark_ecblobs.h ****   0x001514a30000a6e4UL, 0xfc9a6e2f0000e9a3UL, 0xff3a11e80000200eUL, 0xfebe2b0e00004fd2UL,
 213:Model/hand_landmark_ecblobs.h ****   0xff13061900008923UL, 0xfef60fcd000009a5UL, 0xff0200f300007eb9UL, 0xfeef1b3d00002683UL,
 214:Model/hand_landmark_ecblobs.h ****   0xfefd00690000d38cUL, 0xfe9b6aad0000dc76UL, 0xff14234f00009384UL, 0xfebd249700000861UL,
 215:Model/hand_landmark_ecblobs.h ****   0xfef70cc000005c50UL, 0xfedf1a1c0000fe96UL, 0xff841c100000f28dUL, 0xfed026a00000249bUL,
 216:Model/hand_landmark_ecblobs.h ****   0xff020082000022b9UL, 0xff8b184900001399UL, 0xfefa32f8000049d2UL, 0x008022810000ac98UL,
 217:Model/hand_landmark_ecblobs.h ****   0x0800000064000042UL, 0x64027c0015000000UL, 0x6407004300070000UL, 0x0000002000004000UL,
 218:Model/hand_landmark_ecblobs.h ****   0x00000000640c0043UL, 0x0080218110411041UL, 0x0000005444007c00UL, 0x10100101440200e3UL,
 219:Model/hand_landmark_ecblobs.h ****   0x10a3420200001100UL, 0x06ff000000700700UL, 0x00000001006f0000UL, 0x00000000440a7c00UL,
 220:Model/hand_landmark_ecblobs.h ****   0x00fffff6440c0043UL, 0x008022a100000000UL, 0x0800000068000042UL, 0x68020123156000fcUL,
 221:Model/hand_landmark_ecblobs.h ****   0x0000000000080000UL, 0x00030fff0000000fUL, 0x0000000000061fffUL, 0x078403f100000000UL,
 222:Model/hand_landmark_ecblobs.h ****   0x680c004300000001UL, 0x2042204200000000UL, 0x00000001680b7c00UL, 0xffdf0b9169000803UL,
ARM GAS  C:\Users\DJESSOU\AppData\Local\Temp\ccZ709fi.s 			page 28


 223:Model/hand_landmark_ecblobs.h ****   0xff7f000100008b67UL, 0xffcc07b100003a71UL, 0xffdf57720000de0bUL, 0xff7f000100003798UL,
 224:Model/hand_landmark_ecblobs.h ****   0xffa00ae50000906fUL, 0xff4e2d5700002526UL, 0xffe50a890000c3abUL, 0xff5e3455000045f7UL,
 225:Model/hand_landmark_ecblobs.h ****   0xffb5028700001da8UL, 0xff670e0f00007f60UL, 0xff841083000029e7UL, 0xffc602e10000eaf8UL,
 226:Model/hand_landmark_ecblobs.h ****   0xffcf091f00006436UL, 0xff411cc200009b9eUL, 0xff9a03610000d223UL, 0x00040a730000ba52UL,
 227:Model/hand_landmark_ecblobs.h ****   0xff99050100002573UL, 0xffa204760000a17fUL, 0xff9710580000ccbbUL, 0xff6a08d40000fd37UL,
 228:Model/hand_landmark_ecblobs.h ****   0xff82038500005af7UL, 0xff7d06320000bfa3UL, 0xff6a15d500005c8aUL, 0xffd91a040000b30bUL,
 229:Model/hand_landmark_ecblobs.h ****   0xff6c082c0000247fUL, 0xffcb057900000667UL, 0xff8a006c0000fe31UL, 0xff8a0d250000ea6cUL,
 230:Model/hand_landmark_ecblobs.h ****   0xff30242c00008064UL, 0xffd608300000d71fUL, 0xffa703a0000028d9UL, 0x008022410000980dUL,
 231:Model/hand_landmark_ecblobs.h ****   0x080000005c000042UL, 0x5c027c0015000000UL, 0x5c07004300070000UL, 0x0000002000004000UL,
 232:Model/hand_landmark_ecblobs.h ****   0x000000005c0c0043UL, 0x0080206110411041UL, 0x0008c10020007c00UL, 0x3420000020020043UL,
 233:Model/hand_landmark_ecblobs.h ****   0x200500c300031000UL, 0x0003100000000000UL, 0x0000000000000001UL, 0x0010000000000024UL,
 234:Model/hand_landmark_ecblobs.h ****   0x00000006200c0042UL, 0x200d004300000007UL, 0x3423103f00000002UL, 0x0000000020110043UL,
 235:Model/hand_landmark_ecblobs.h ****   0x0080208100000000UL, 0x0008c18424007c00UL, 0x708887a024020043UL, 0x240500c300000200UL,
 236:Model/hand_landmark_ecblobs.h ****   0x0000000000000000UL, 0x0000000000000000UL, 0x0010000000000024UL, 0x00000006240c0042UL,
 237:Model/hand_landmark_ecblobs.h ****   0x240d004300000007UL, 0x708889df00000001UL, 0x0000000024110043UL, 0x008020a100000008UL,
 238:Model/hand_landmark_ecblobs.h ****   0x0008c10028007c00UL, 0x3420000028020043UL, 0x280500c300031000UL, 0x0003100000000000UL,
 239:Model/hand_landmark_ecblobs.h ****   0x0000000000000001UL, 0x0010000000000024UL, 0x00000006280c0042UL, 0x280d004300000007UL,
 240:Model/hand_landmark_ecblobs.h ****   0x3423103f00000002UL, 0x0000000028110043UL, 0x008020c100000000UL, 0x0008c1842c007c00UL,
 241:Model/hand_landmark_ecblobs.h ****   0x708885a02c020043UL, 0x2c0500c300000200UL, 0x0000000000000000UL, 0x0000000000000000UL,
 242:Model/hand_landmark_ecblobs.h ****   0x0010000000000024UL, 0x000000062c0c0042UL, 0x2c0d004300000007UL, 0x708887df00000001UL,
 243:Model/hand_landmark_ecblobs.h ****   0x000000002c110043UL, 0x0080202100000008UL, 0x0008000818007c00UL, 0x3427000018020123UL,
 244:Model/hand_landmark_ecblobs.h ****   0x0020001000700070UL, 0x0000001000000e00UL, 0x0006200000000002UL, 0x0010000000000024UL,
 245:Model/hand_landmark_ecblobs.h ****   0x00000006180c0042UL, 0x180d004300000007UL, 0x342d203f00000002UL, 0x0000000018110043UL,
 246:Model/hand_landmark_ecblobs.h ****   0x008020e100000000UL, 0x0008000830007c00UL, 0x342e000030020123UL, 0x0020001000700070UL,
 247:Model/hand_landmark_ecblobs.h ****   0x0000001000000e00UL, 0x0006200000000002UL, 0x0010000000000024UL, 0x00000006300c0042UL,
 248:Model/hand_landmark_ecblobs.h ****   0x300d004300000007UL, 0x3434203f00000002UL, 0x0000000030110043UL, 0x10007c0000000000UL,
 249:Model/hand_landmark_ecblobs.h ****   0x1000042400000002UL, 0x0000000000000064UL, 0x4000000010007c00UL, 0x0000006410007bc4UL,
 250:Model/hand_landmark_ecblobs.h ****   0x10007c0000000000UL, 0x10037c0000000001UL, 0x10097c0000000029UL, 0x100f004300000025UL,
 251:Model/hand_landmark_ecblobs.h ****   0x0000000900000007UL, 0x0000000b10120043UL, 0x101e7c000000000dUL, 0x10207c000000002bUL,
 252:Model/hand_landmark_ecblobs.h ****   0x10227c0000000017UL, 0x10247c0000000027UL, 0x1800200100000019UL, 0x40007c0030002001UL,
 253:Model/hand_landmark_ecblobs.h ****   0x44007c0000000055UL, 0x5c00200100000055UL, 0x6400200160002001UL, 0x2000200168002001UL,
 254:Model/hand_landmark_ecblobs.h ****   0x2800200124002001UL, 0x18007fe42c002001UL, 0x0000000000000064UL, 0x0000006430007fe4UL,
 255:Model/hand_landmark_ecblobs.h ****   0x10037c0000000000UL, 0x10097c0000000000UL, 0x100f004300000000UL, 0x0000000000000000UL,
 256:Model/hand_landmark_ecblobs.h ****   0x0000000010120043UL, 0x101e7c0000000000UL, 0x10207c0000000000UL, 0x10227c0000000000UL,
 257:Model/hand_landmark_ecblobs.h ****   0x10247c0000000000UL, 0x18007c0000000000UL, 0x1800042400000002UL, 0x0000000000000064UL,
 258:Model/hand_landmark_ecblobs.h ****   0x4000000018007c00UL, 0x0000006418007bc4UL, 0x0080002100000000UL, 0x0000000230007c00UL,
 259:Model/hand_landmark_ecblobs.h ****   0x0000006430000424UL, 0x30007c0000000000UL, 0x30007bc440000000UL, 0x0000000000000064UL,
 260:Model/hand_landmark_ecblobs.h ****   0x40007c00008000e1UL, 0x4000042400000002UL, 0x0000000000000064UL, 0x4000000040007c00UL,
 261:Model/hand_landmark_ecblobs.h ****   0x0000006440007bc4UL, 0x0080016100000000UL, 0x0000000244007c00UL, 0x0000006444000424UL,
 262:Model/hand_landmark_ecblobs.h ****   0x44007c0000000000UL, 0x44007bc440000000UL, 0x0000000000000064UL, 0x5c007c0000800181UL,
 263:Model/hand_landmark_ecblobs.h ****   0x5c00042408000002UL, 0x0000000000000064UL, 0x480000005c007c00UL, 0x000000645c007bc4UL,
 264:Model/hand_landmark_ecblobs.h ****   0x0080024100000000UL, 0x0800000260007c00UL, 0x0000006460000424UL, 0x60007c0000000000UL,
 265:Model/hand_landmark_ecblobs.h ****   0x60007bc448000000UL, 0x0000000000000064UL, 0x64007c0000800261UL, 0x6400042408000002UL,
 266:Model/hand_landmark_ecblobs.h ****   0x0000000000000064UL, 0x4800000064007c00UL, 0x0000006464007bc4UL, 0x0080028100000000UL,
 267:Model/hand_landmark_ecblobs.h ****   0x0800000268007c00UL, 0x0000006468000424UL, 0x68007c0000000000UL, 0x68007bc448000000UL,
 268:Model/hand_landmark_ecblobs.h ****   0x0000000000000064UL, 0x20007c00008002a1UL, 0x2000042400000002UL, 0x0000000000000064UL,
 269:Model/hand_landmark_ecblobs.h ****   0x4000000020007c00UL, 0x0000006420007bc4UL, 0x0080006100000000UL, 0x0000000224007c00UL,
 270:Model/hand_landmark_ecblobs.h ****   0x0000006424000424UL, 0x24007c0000000000UL, 0x24007bc440000000UL, 0x0000000000000064UL,
 271:Model/hand_landmark_ecblobs.h ****   0x28007c0000800081UL, 0x2800042400000002UL, 0x0000000000000064UL, 0x4000000028007c00UL,
 272:Model/hand_landmark_ecblobs.h ****   0x0000006428007bc4UL, 0x008000a100000000UL, 0x000000022c007c00UL, 0x000000642c000424UL,
 273:Model/hand_landmark_ecblobs.h ****   0x2c007c0000000000UL, 0x2c007bc440000000UL, 0x0000000000000064UL, 0x0000011d008000c1UL,
 274:Model/hand_landmark_ecblobs.h ****   0x48007c00008021a1UL, 0x480200e320100034UL, 0x0000220004040303UL, 0x007001c010634303UL,
 275:Model/hand_landmark_ecblobs.h ****   0x006f000001bf0000UL, 0x480a7c0000000001UL, 0x480d7c0001000400UL, 0x0080224100000000UL,
 276:Model/hand_landmark_ecblobs.h ****   0x080000005c000042UL, 0x5c020123156000fcUL, 0x0000000000068000UL, 0x000030ff00000003UL,
 277:Model/hand_landmark_ecblobs.h ****   0x00000000000187ffUL, 0x078403fd00000000UL, 0x5c0c004300000001UL, 0x2042204200000000UL,
 278:Model/hand_landmark_ecblobs.h ****   0x000000015c0b7c00UL, 0xfff500005d000803UL, 0xffef00c700001c33UL, 0xfff100770000dbb3UL,
 279:Model/hand_landmark_ecblobs.h ****   0xffe9022100002338UL, 0xfff70345000002ecUL, 0xfffb0062000074adUL, 0xffed0127000071dbUL,
ARM GAS  C:\Users\DJESSOU\AppData\Local\Temp\ccZ709fi.s 			page 29


 280:Model/hand_landmark_ecblobs.h ****   0xffef026e0000396aUL, 0xfff001880000df7bUL, 0xfff0045b00002ab7UL, 0xfff700e600009380UL,
 281:Model/hand_landmark_ecblobs.h ****   0xffea032d0000573eUL, 0xfffa007e00000724UL, 0xfff003160000e510UL, 0xffef1608000072f9UL,
 282:Model/hand_landmark_ecblobs.h ****   0xfff501180000fd3eUL, 0xffef005e000028ddUL, 0xfffc03610000e944UL, 0xffef01190000ddedUL,
 283:Model/hand_landmark_ecblobs.h ****   0xfff10f6b00002a45UL, 0xfffa008e0000ef48UL, 0xfff57eee000046fbUL, 0x0003004f00001506UL,
 284:Model/hand_landmark_ecblobs.h ****   0xfff8015d000081c3UL, 0xfff700630000d87eUL, 0xffe7025d0000e2bdUL, 0xfff800bb00008353UL,
 285:Model/hand_landmark_ecblobs.h ****   0xfff000b600003512UL, 0xfffb01160000295dUL, 0xffe4235f00001a2dUL, 0xffee015b00002298UL,
 286:Model/hand_landmark_ecblobs.h ****   0xfffc00b00000f178UL, 0x008022610000f302UL, 0x0800000060000042UL, 0x60027c0015000000UL,
 287:Model/hand_landmark_ecblobs.h ****   0x6007004300070000UL, 0x0000002000004000UL, 0x00000000600c0043UL, 0x0080214110411041UL,
 288:Model/hand_landmark_ecblobs.h ****   0x201000343c007c00UL, 0x040403033c0200e3UL, 0x1063430300002200UL, 0x01bf0000007001c0UL,
 289:Model/hand_landmark_ecblobs.h ****   0x00000001006f0000UL, 0x010004003c0a7c00UL, 0x000000003c0d7c00UL, 0x6400004200802281UL,
 290:Model/hand_landmark_ecblobs.h ****   0x156000fc08000000UL, 0x0006800064020123UL, 0x0000000300000000UL, 0x000187ff000030ffUL,
 291:Model/hand_landmark_ecblobs.h ****   0x0000000000000000UL, 0x00000001078403fdUL, 0x00000000640c0043UL, 0x640b7c0020422042UL,
 292:Model/hand_landmark_ecblobs.h ****   0x6500080300000001UL, 0x00000f89fff0027cUL, 0x00006d3afff20000UL, 0x00008554fff10a0cUL,
 293:Model/hand_landmark_ecblobs.h ****   0x0000fddfffef00b5UL, 0x0000eb5ffff90000UL, 0x0000f6f1000000b4UL, 0x0000d17dfff7003dUL,
 294:Model/hand_landmark_ecblobs.h ****   0x0000d7dcffef0292UL, 0x00003572ffef00c5UL, 0x00007b95ffed05c8UL, 0x00007cc700080096UL,
 295:Model/hand_landmark_ecblobs.h ****   0x00008619fff800d6UL, 0x0000e59cffef078aUL, 0x00002da2fff00236UL, 0x00009cb1fff8005fUL,
 296:Model/hand_landmark_ecblobs.h ****   0x00002863fff002bdUL, 0x00006691000100baUL, 0x0000aa20fff10380UL, 0x0000466efff1217bUL,
 297:Model/hand_landmark_ecblobs.h ****   0x0000c78cffef00a0UL, 0x00005c4dfff100a6UL, 0x00003d91ffef021fUL, 0x0000e17affef01beUL,
 298:Model/hand_landmark_ecblobs.h ****   0x0000e6bf00030180UL, 0x00007eccfffe005eUL, 0x0000bb3cfffc01daUL, 0x0000a1e2ffef01e4UL,
 299:Model/hand_landmark_ecblobs.h ****   0x0000ceb5ffee43d8UL, 0x0000a75bfff800d4UL, 0x00002929fff80199UL, 0x0000c2b8ffef0163UL,
 300:Model/hand_landmark_ecblobs.h ****   0x0000ca09ffef0877UL, 0x68000042008022a1UL, 0x1500000008000000UL, 0x0007000068027c00UL,
 301:Model/hand_landmark_ecblobs.h ****   0x0000400068070043UL, 0x680c004300000020UL, 0x1041104100000000UL, 0x2c007c00008020c1UL,
 302:Model/hand_landmark_ecblobs.h ****   0x2c02012300880200UL, 0x0070007034270000UL, 0x00000e0000200002UL, 0x0000000100000000UL,
 303:Model/hand_landmark_ecblobs.h ****   0x0000002400000004UL, 0x2c0c004200100000UL, 0x0000000700000006UL, 0x000000082c0d0043UL,
 304:Model/hand_landmark_ecblobs.h ****   0x2c110043342d203fUL, 0x0000000000000000UL, 0x38007c0000802121UL, 0x3802004300080184UL,
 305:Model/hand_landmark_ecblobs.h ****   0x0000048070888120UL, 0x00000000380500c3UL, 0x0000000000000000UL, 0x0000002400000000UL,
 306:Model/hand_landmark_ecblobs.h ****   0x380c004200100000UL, 0x0000000700000006UL, 0x00000001380d0043UL, 0x38110043708885dfUL,
 307:Model/hand_landmark_ecblobs.h ****   0x0000000800000000UL, 0x1c007c0000802041UL, 0x1c02012300880200UL, 0x00700070342e0000UL,
 308:Model/hand_landmark_ecblobs.h ****   0x00000e0000200002UL, 0x0000000100000000UL, 0x0000002400000004UL, 0x1c0c004200100000UL,
 309:Model/hand_landmark_ecblobs.h ****   0x0000000700000006UL, 0x000000081c0d0043UL, 0x1c1100433434203fUL, 0x0000000000000000UL,
 310:Model/hand_landmark_ecblobs.h ****   0x18007c0000802021UL, 0x1802004300080184UL, 0x0000048070887ca0UL, 0x00000000180500c3UL,
 311:Model/hand_landmark_ecblobs.h ****   0x0000000000000000UL, 0x0000002400000000UL, 0x180c004200100000UL, 0x0000000700000006UL,
 312:Model/hand_landmark_ecblobs.h ****   0x00000001180d0043UL, 0x181100437088815fUL, 0x0000000800000000UL, 0x34007c0000802101UL,
 313:Model/hand_landmark_ecblobs.h ****   0x3402012300080008UL, 0x0038003834200020UL, 0x00000e0000400004UL, 0x0000001000000004UL,
 314:Model/hand_landmark_ecblobs.h ****   0x0000002400031000UL, 0x340c004200100000UL, 0x0000000700000006UL, 0x00000008340d0043UL,
 315:Model/hand_landmark_ecblobs.h ****   0x341100433423105fUL, 0x0000000000000000UL, 0x24007c0000802081UL, 0x2402012300080008UL,
 316:Model/hand_landmark_ecblobs.h ****   0x0038003834200000UL, 0x00000e0000400004UL, 0x0000001000000004UL, 0x0000002400031000UL,
 317:Model/hand_landmark_ecblobs.h ****   0x240c004200100000UL, 0x0000000700000006UL, 0x00000008240d0043UL, 0x241100433423103fUL,
 318:Model/hand_landmark_ecblobs.h ****   0x0000000000000000UL, 0x0000000210007c00UL, 0x0000006410000424UL, 0x10007c0000000000UL,
 319:Model/hand_landmark_ecblobs.h ****   0x10007bc440000000UL, 0x0000000000000064UL, 0x0000000110007c00UL, 0x0000002b10067c00UL,
 320:Model/hand_landmark_ecblobs.h ****   0x00000027100a7c00UL, 0x00000005100c0043UL, 0x1015004300000003UL, 0x000000130000000dUL,
 321:Model/hand_landmark_ecblobs.h ****   0x0000001b101e7c00UL, 0x0000002510207c00UL, 0x0000001510227c00UL, 0x0000002910247c00UL,
 322:Model/hand_landmark_ecblobs.h ****   0x3400200124002001UL, 0x201000353c007c00UL, 0x2010003548007c00UL, 0x600020015c002001UL,
 323:Model/hand_landmark_ecblobs.h ****   0x6800200164002001UL, 0x1c00200118002001UL, 0x380020012c002001UL, 0x0000006424007fe4UL,
 324:Model/hand_landmark_ecblobs.h ****   0x34007fe400000000UL, 0x0000000000000064UL, 0x0000000010067c00UL, 0x00000000100a7c00UL,
 325:Model/hand_landmark_ecblobs.h ****   0x00000000100c0043UL, 0x1015004300000000UL, 0x0000000000000000UL, 0x00000000101e7c00UL,
 326:Model/hand_landmark_ecblobs.h ****   0x0000000010207c00UL, 0x0000000010227c00UL, 0x0000000010247c00UL, 0x0000000224007c00UL,
 327:Model/hand_landmark_ecblobs.h ****   0x0000006424000424UL, 0x24007c0000000000UL, 0x24007bc440000000UL, 0x0000000000000064UL,
 328:Model/hand_landmark_ecblobs.h ****   0x34007c0000800081UL, 0x3400042400000002UL, 0x0000000000000064UL, 0x4000000034007c00UL,
 329:Model/hand_landmark_ecblobs.h ****   0x0000006434007bc4UL, 0x0080010100000000UL, 0x000000023c007c00UL, 0x000000643c000424UL,
 330:Model/hand_landmark_ecblobs.h ****   0x3c007c0000000000UL, 0x3c007bc440000000UL, 0x0000000000000064UL, 0x48007c0000800141UL,
 331:Model/hand_landmark_ecblobs.h ****   0x4800042400000002UL, 0x0000000000000064UL, 0x4000000048007c00UL, 0x0000006448007bc4UL,
 332:Model/hand_landmark_ecblobs.h ****   0x008001a100000000UL, 0x080000025c007c00UL, 0x000000645c000424UL, 0x5c007c0000000000UL,
 333:Model/hand_landmark_ecblobs.h ****   0x5c007bc448000000UL, 0x0000000000000064UL, 0x60007c0000800241UL, 0x6000042408000002UL,
 334:Model/hand_landmark_ecblobs.h ****   0x0000000000000064UL, 0x4800000060007c00UL, 0x0000006460007bc4UL, 0x0080026100000000UL,
 335:Model/hand_landmark_ecblobs.h ****   0x0800000264007c00UL, 0x0000006464000424UL, 0x64007c0000000000UL, 0x64007bc448000000UL,
 336:Model/hand_landmark_ecblobs.h ****   0x0000000000000064UL, 0x68007c0000800281UL, 0x6800042408000002UL, 0x0000000000000064UL,
ARM GAS  C:\Users\DJESSOU\AppData\Local\Temp\ccZ709fi.s 			page 30


 337:Model/hand_landmark_ecblobs.h ****   0x4800000068007c00UL, 0x0000006468007bc4UL, 0x008002a100000000UL, 0x0000000218007c00UL,
 338:Model/hand_landmark_ecblobs.h ****   0x0000006418000424UL, 0x18007c0000000000UL, 0x18007bc440000000UL, 0x0000000000000064UL,
 339:Model/hand_landmark_ecblobs.h ****   0x1c007c0000800021UL, 0x1c00042400000002UL, 0x0000000000000064UL, 0x400000001c007c00UL,
 340:Model/hand_landmark_ecblobs.h ****   0x000000641c007bc4UL, 0x0080004100000000UL, 0x000000022c007c00UL, 0x000000642c000424UL,
 341:Model/hand_landmark_ecblobs.h ****   0x2c007c0000000000UL, 0x2c007bc440000000UL, 0x0000000000000064UL, 0x38007c00008000c1UL,
 342:Model/hand_landmark_ecblobs.h ****   0x3800042400000002UL, 0x0000000000000064UL, 0x4000000038007c00UL, 0x0000006438007bc4UL,
 343:Model/hand_landmark_ecblobs.h ****   0x0080012100000000UL, 0x0000015d0000013dUL, 0x40007c0000802161UL, 0x400200e310d00034UL,
 344:Model/hand_landmark_ecblobs.h ****   0x0000110018400101UL, 0x00380e0010e34303UL, 0x003700000dff0000UL, 0x400a7c0000000001UL,
 345:Model/hand_landmark_ecblobs.h ****   0x400d7c0000000000UL, 0x0080224100000000UL, 0x080000005c000042UL, 0x5c020123156000fcUL,
 346:Model/hand_landmark_ecblobs.h ****   0x00000000000a0000UL, 0x000125ff00000017UL, 0x00000000000125ffUL, 0x07a403e900000000UL,
 347:Model/hand_landmark_ecblobs.h ****   0x5c0c004300000001UL, 0x2042204200000000UL, 0x000000015c0b7c00UL, 0xfd9148085d000603UL,
 348:Model/hand_landmark_ecblobs.h ****   0x00802857000047d2UL, 0xfea034ce0000a376UL, 0x03454fa80000b209UL, 0x02872cb00000a2dfUL,
 349:Model/hand_landmark_ecblobs.h ****   0xfeb14a3e0000e54cUL, 0xfb9937780000fab3UL, 0x022338740000c933UL, 0xfd49292400003334UL,
 350:Model/hand_landmark_ecblobs.h ****   0x0311264a0000f878UL, 0x0058359f0000c4ecUL, 0x00032b2100007592UL, 0x016e29f000009db8UL,
 351:Model/hand_landmark_ecblobs.h ****   0xffd553580000fc6eUL, 0xff5b25690000254bUL, 0xffb22ba90000d5ffUL, 0x0098365c000097cbUL,
 352:Model/hand_landmark_ecblobs.h ****   0xfdc430c90000b926UL, 0xfff63d9e0000b3cfUL, 0xfef43ec40000560dUL, 0xfdd84240000086c0UL,
 353:Model/hand_landmark_ecblobs.h ****   0x014b3b6700002805UL, 0x02703b6700005278UL, 0x017c332a00002223UL, 0x0080212100005eceUL,
 354:Model/hand_landmark_ecblobs.h ****   0x0888030438007c00UL, 0x3420000038020043UL, 0x380500c300010556UL, 0x0000000000000000UL,
 355:Model/hand_landmark_ecblobs.h ****   0x0003100000000001UL, 0x0010000000000024UL, 0x00000006380c0042UL, 0x380d004300000007UL,
 356:Model/hand_landmark_ecblobs.h ****   0x3423103f00000001UL, 0x0000000038110043UL, 0x0080202100000000UL, 0x0888018418007c00UL,
 357:Model/hand_landmark_ecblobs.h ****   0x708867e018020043UL, 0x180500c300000200UL, 0x0000000000000000UL, 0x0000000000000000UL,
 358:Model/hand_landmark_ecblobs.h ****   0x0010000000000024UL, 0x00000006180c0042UL, 0x180d004300000007UL, 0x70886e1f00000001UL,
 359:Model/hand_landmark_ecblobs.h ****   0x0000000018110043UL, 0x0080206100000008UL, 0x0008010c20007c00UL, 0x3423100020020043UL,
 360:Model/hand_landmark_ecblobs.h ****   0x200500c300012600UL, 0x0001260000000000UL, 0x0000000000000000UL, 0x0010000000000024UL,
 361:Model/hand_landmark_ecblobs.h ****   0x00000006200c0042UL, 0x200d004300000007UL, 0x3424363f00000001UL, 0x0000000020110043UL,
 362:Model/hand_landmark_ecblobs.h ****   0x10007c0000000000UL, 0x1000042400000002UL, 0x0000000000000064UL, 0x4000000010007c00UL,
 363:Model/hand_landmark_ecblobs.h ****   0x0000006410007bc4UL, 0x10007c0000000000UL, 0x10057c0000000001UL, 0x100f004300000025UL,
 364:Model/hand_landmark_ecblobs.h ****   0x0000000300000013UL, 0x00000017101e7c00UL, 0x40007c0020002001UL, 0x5c00200110d00035UL,
 365:Model/hand_landmark_ecblobs.h ****   0x3800200118002001UL, 0x0000006420007fe4UL, 0x10057c0000000000UL, 0x100f004300000000UL,
 366:Model/hand_landmark_ecblobs.h ****   0x0000000000000000UL, 0x00000000101e7c00UL, 0x0000000220007c00UL, 0x0000006420000424UL,
 367:Model/hand_landmark_ecblobs.h ****   0x20007c0000000000UL, 0x20007bc440000000UL, 0x0000000000000064UL, 0x40007c0000800061UL,
 368:Model/hand_landmark_ecblobs.h ****   0x4000042400000002UL, 0x0000000000000064UL, 0x4000000040007c00UL, 0x0000006440007bc4UL,
 369:Model/hand_landmark_ecblobs.h ****   0x0080016100000000UL, 0x080000025c007c00UL, 0x000000645c000424UL, 0x5c007c0000000000UL,
 370:Model/hand_landmark_ecblobs.h ****   0x5c007bc448000000UL, 0x0000000000000064UL, 0x18007c0000800241UL, 0x1800042400000002UL,
 371:Model/hand_landmark_ecblobs.h ****   0x0000000000000064UL, 0x4000000018007c00UL, 0x0000006418007bc4UL, 0x0080002100000000UL,
 372:Model/hand_landmark_ecblobs.h ****   0x0000000238007c00UL, 0x0000006438000424UL, 0x38007c0000000000UL, 0x38007bc440000000UL,
 373:Model/hand_landmark_ecblobs.h ****   0x0000000000000064UL, 0x0000017d00800121UL, 0x44007c0000802181UL, 0x440200e300000054UL,
 374:Model/hand_landmark_ecblobs.h ****   0x0000110018180101UL, 0x0038054010a34303UL, 0x00370000053f0000UL, 0x440a7c0000000001UL,
 375:Model/hand_landmark_ecblobs.h ****   0x440c004300000000UL, 0x0000000000000006UL, 0x6000004200802261UL, 0x156000fc08000000UL,
 376:Model/hand_landmark_ecblobs.h ****   0x0008000060020123UL, 0x0000001700000000UL, 0x000371ff000125ffUL, 0x0000000000000000UL,
 377:Model/hand_landmark_ecblobs.h ****   0x0000000106e403e9UL, 0x00000000600c0043UL, 0x600b7c0020422042UL, 0x6100120300000001UL,
 378:Model/hand_landmark_ecblobs.h ****   0x0000ceefffb00b3aUL, 0x00004dd9ff720ea4UL, 0x000035d6ff5f1668UL, 0x00009300ff910b6fUL,
 379:Model/hand_landmark_ecblobs.h ****   0x00000e82ff7a155bUL, 0x0000b239ff970afbUL, 0x000001a0ffd541b8UL, 0x00000618ff5f11f1UL,
 380:Model/hand_landmark_ecblobs.h ****   0x00005d6dffb70fc7UL, 0x0000c0b0ffaa0fa5UL, 0x00007ec9fed51dc9UL, 0x0000b2ccffac093dUL,
 381:Model/hand_landmark_ecblobs.h ****   0x0000b177ff6315f6UL, 0x000072c6ffc10f86UL, 0x00005f92ff7e193dUL, 0x000018f4ff68122fUL,
 382:Model/hand_landmark_ecblobs.h ****   0x00007d3eff9d043dUL, 0x00005e33ff740d4fUL, 0x00002646ff94038cUL, 0x000069b8ff8c1463UL,
 383:Model/hand_landmark_ecblobs.h ****   0x0000ddeaff8c0e8bUL, 0x00003207ff9e0802UL, 0x000031aaffb0218aUL, 0x0000b411ff8a15caUL,
 384:Model/hand_landmark_ecblobs.h ****   0x0000e105ffb306b7UL, 0x0000f7d7fff026fbUL, 0x000085b8ffaf0973UL, 0x00002652ff740a80UL,
 385:Model/hand_landmark_ecblobs.h ****   0x0000337fffcc083cUL, 0x0000315fffb90309UL, 0x000058bdff520ea1UL, 0x0000b5dcff9907d1UL,
 386:Model/hand_landmark_ecblobs.h ****   0x00000c1dffa9027aUL, 0x0000064bff8a1536UL, 0x0000a5e0ffba268cUL, 0x00002507ff801aefUL,
 387:Model/hand_landmark_ecblobs.h ****   0x0000d0c6ff7914ccUL, 0x0000c542ff890e63UL, 0x0000d66fff9105eeUL, 0x00001a00ff6823e9UL,
 388:Model/hand_landmark_ecblobs.h ****   0x0000945dffb51194UL, 0x000071c8ff9301bdUL, 0x0000ff6fffb4118bUL, 0x0000f953ff8b0d14UL,
 389:Model/hand_landmark_ecblobs.h ****   0x000078b9ff9c01cdUL, 0x00002d5cffa805eaUL, 0x00005587ffa41479UL, 0x00006272ff8d07daUL,
 390:Model/hand_landmark_ecblobs.h ****   0x0000536dffa70403UL, 0x00002a23ff9b058eUL, 0x00001c24ff9f1122UL, 0x0000d856ffa70cdcUL,
 391:Model/hand_landmark_ecblobs.h ****   0x0000aadaffb50bc9UL, 0x00004b29ff8402b8UL, 0x00001f0eff5b3e93UL, 0x0000496dff9607a4UL,
 392:Model/hand_landmark_ecblobs.h ****   0x0000a705ff7b1abdUL, 0x00002439ffb104fdUL, 0x0000af26ff8b0760UL, 0x00004c5fff7f0002UL,
 393:Model/hand_landmark_ecblobs.h ****   0x000011baffad106bUL, 0x0000a8beffa82392UL, 0x00000ab4ff9009d8UL, 0x00001c4bffae12e6UL,
ARM GAS  C:\Users\DJESSOU\AppData\Local\Temp\ccZ709fi.s 			page 31


 394:Model/hand_landmark_ecblobs.h ****   0x000075f0ffb405b4UL, 0x00005909ff880873UL, 0x00002f05ff9b05c2UL, 0x00005bb3ffaf0a39UL,
 395:Model/hand_landmark_ecblobs.h ****   0x00005c93ff801529UL, 0x000034c8ff8b0322UL, 0x0000d5c8ff82289aUL, 0x0000bf2fff9306c2UL,
 396:Model/hand_landmark_ecblobs.h ****   0x6400004200802281UL, 0x1500000008000000UL, 0x0007000064027c00UL, 0x0000400064070043UL,
 397:Model/hand_landmark_ecblobs.h ****   0x640c004300000020UL, 0x1041104100000000UL, 0x3c007c0000802141UL, 0x3c0200e300000054UL,
 398:Model/hand_landmark_ecblobs.h ****   0x0000110018180101UL, 0x0038054010a34303UL, 0x00370000053f0000UL, 0x3c0a7c0000000001UL,
 399:Model/hand_landmark_ecblobs.h ****   0x3c0c004300000000UL, 0x0000000000000006UL, 0x68000042008022a1UL, 0x156000fc08000000UL,
 400:Model/hand_landmark_ecblobs.h ****   0x0008800068020123UL, 0x0000001700000000UL, 0x000371ff000125ffUL, 0x0000000000000000UL,
 401:Model/hand_landmark_ecblobs.h ****   0x0000000106e403e9UL, 0x00000000680c0043UL, 0x680b7c0020422042UL, 0x6900120300000001UL,
 402:Model/hand_landmark_ecblobs.h ****   0x0000e3e7fefc43c1UL, 0x0000dbf2ff280addUL, 0x0000e53fff3a139aUL, 0x0000711aff1f0aedUL,
 403:Model/hand_landmark_ecblobs.h ****   0x0000cb43ff490872UL, 0x000009c7ff1601ddUL, 0x0000089dff37165cUL, 0x0000b50fff4a0a5aUL,
 404:Model/hand_landmark_ecblobs.h ****   0x000092b3ff361a9eUL, 0x000037b7feac70aaUL, 0x000096ccff814a62UL, 0x00006887ff1c104cUL,
 405:Model/hand_landmark_ecblobs.h ****   0x00008282ff320726UL, 0x00009640ff3e07afUL, 0x00000407feb3270eUL, 0x0000a47cff5a0e6cUL,
 406:Model/hand_landmark_ecblobs.h ****   0x0000b408ff160df0UL, 0x00004405ff660193UL, 0x00002169ff741924UL, 0x0000c92cff2109fdUL,
 407:Model/hand_landmark_ecblobs.h ****   0x00005025ff2a0635UL, 0x000050e2fee33365UL, 0x0000f5c6fec01a6cUL, 0x0000f07dfe3a3482UL,
 408:Model/hand_landmark_ecblobs.h ****   0x00008b2bfeff2563UL, 0x00002577ff2f0ab0UL, 0x0000cc1aff14165cUL, 0x0000f085fef52dafUL,
 409:Model/hand_landmark_ecblobs.h ****   0x00002562ff3b141cUL, 0x00008984fff24ddeUL, 0x0000af1bff0b0f01UL, 0x0000cce9ff342de1UL,
 410:Model/hand_landmark_ecblobs.h ****   0x00008c86ff281d73UL, 0x00000612ff2f1668UL, 0x00008dcfff3c084dUL, 0x0000bc85fedd318eUL,
 411:Model/hand_landmark_ecblobs.h ****   0x0000a75fff8311e5UL, 0x0000d697ff3d0f8cUL, 0x00000a7bff200304UL, 0x0000b485febe2ed2UL,
 412:Model/hand_landmark_ecblobs.h ****   0x0000725fff1021daUL, 0x00003740feb63548UL, 0x00004dfdff702badUL, 0x0000c743fe8f57caUL,
 413:Model/hand_landmark_ecblobs.h ****   0x0000f749ff731159UL, 0x00004042fefb37e5UL, 0x0000aa95feff0003UL, 0x0000a361fef316a0UL,
 414:Model/hand_landmark_ecblobs.h ****   0x00005ea3fee83c7eUL, 0x0000fe24ff6b101eUL, 0x0000e4dcff713eb8UL, 0x00006086ff240752UL,
 415:Model/hand_landmark_ecblobs.h ****   0x00002a00ff093c8bUL, 0x0000f8f5ff0904efUL, 0x0000f8c7ff2e3af2UL, 0x00007fe7ff1a12c1UL,
 416:Model/hand_landmark_ecblobs.h ****   0x0000e63aff0b3188UL, 0x0000cb09fec24ebdUL, 0x00006742ff1308dbUL, 0x000070b0fedf0003UL,
 417:Model/hand_landmark_ecblobs.h ****   0x00008ea9ff210db2UL, 0x0000f03dff203053UL, 0x0000fd0a002b08faUL, 0x000016f3ff3f107aUL,
 418:Model/hand_landmark_ecblobs.h ****   0x00009926ff4623b1UL, 0x00006784ff2803d1UL, 0x000075f9ff2c29b1UL, 0x0000d32bff6c150aUL,
 419:Model/hand_landmark_ecblobs.h ****   0x00003516fef31c05UL, 0x00009e17ff8a1798UL, 0x0000eec5ff1a18a8UL, 0x00007402ff360aeeUL,
 420:Model/hand_landmark_ecblobs.h ****   0x5c00004200802241UL, 0x1500000008000000UL, 0x000700005c027c00UL, 0x000040005c070043UL,
 421:Model/hand_landmark_ecblobs.h ****   0x5c0c004300000020UL, 0x1041104100000000UL, 0x34007c0000802101UL, 0x340200430008c100UL,
 422:Model/hand_landmark_ecblobs.h ****   0x0001260034231000UL, 0x00000000340500c3UL, 0x0000000100012600UL, 0x0000002400000000UL,
 423:Model/hand_landmark_ecblobs.h ****   0x340c004200100000UL, 0x0000000700000006UL, 0x00000003340d0043UL, 0x341100433424363fUL,
 424:Model/hand_landmark_ecblobs.h ****   0x0000000000000000UL, 0x24007c0000802081UL, 0x240200430008c184UL, 0x000006c0708853a0UL,
 425:Model/hand_landmark_ecblobs.h ****   0x00000000240500c3UL, 0x0000000000000000UL, 0x0000002400000000UL, 0x240c004200100000UL,
 426:Model/hand_landmark_ecblobs.h ****   0x0000000700000006UL, 0x00000001240d0043UL, 0x2411004370885a9fUL, 0x0000000800000000UL,
 427:Model/hand_landmark_ecblobs.h ****   0x20007c0000802061UL, 0x200200430008c100UL, 0x0001260034231000UL, 0x00000000200500c3UL,
 428:Model/hand_landmark_ecblobs.h ****   0x0000000100012600UL, 0x0000002400000000UL, 0x200c004200100000UL, 0x0000000700000006UL,
 429:Model/hand_landmark_ecblobs.h ****   0x00000003200d0043UL, 0x201100433424363fUL, 0x0000000000000000UL, 0x30007c00008020e1UL,
 430:Model/hand_landmark_ecblobs.h ****   0x300200430008c184UL, 0x000006c070884ce0UL, 0x00000000300500c3UL, 0x0000000000000000UL,
 431:Model/hand_landmark_ecblobs.h ****   0x0000002400000000UL, 0x300c004200100000UL, 0x0000000700000006UL, 0x00000001300d0043UL,
 432:Model/hand_landmark_ecblobs.h ****   0x30110043708853dfUL, 0x0000000800000000UL, 0x38007c0000802121UL, 0x3802012300080008UL,
 433:Model/hand_landmark_ecblobs.h ****   0x00380038342a7200UL, 0x00000fc000480018UL, 0x0000000300000018UL, 0x0000002400037200UL,
 434:Model/hand_landmark_ecblobs.h ****   0x380c004200100000UL, 0x0000000700000006UL, 0x00000003380d0043UL, 0x38110043342de43fUL,
 435:Model/hand_landmark_ecblobs.h ****   0x0000000000000000UL, 0x1c007c0000802041UL, 0x1c02012300080008UL, 0x0038003834270000UL,
 436:Model/hand_landmark_ecblobs.h ****   0x00000fc000480018UL, 0x0000000300000018UL, 0x0000002400037200UL, 0x1c0c004200100000UL,
 437:Model/hand_landmark_ecblobs.h ****   0x0000000700000006UL, 0x000000031c0d0043UL, 0x1c110043342a723fUL, 0x0000000000000000UL,
 438:Model/hand_landmark_ecblobs.h ****   0x0000000210007c00UL, 0x0000006410000424UL, 0x10007c0000000000UL, 0x10007bc440000000UL,
 439:Model/hand_landmark_ecblobs.h ****   0x0000000000000064UL, 0x0000000110007c00UL, 0x0000002510047c00UL, 0x00000029100b0063UL,
 440:Model/hand_landmark_ecblobs.h ****   0x0000000f00000007UL, 0x0000001110120043UL, 0x101e7c0000000009UL, 0x10207c000000002bUL,
 441:Model/hand_landmark_ecblobs.h ****   0x10227c0000000019UL, 0x10247c0000000027UL, 0x1c00200100000015UL, 0x3c007c0038002001UL,
 442:Model/hand_landmark_ecblobs.h ****   0x44007c0000000055UL, 0x5c00200100000055UL, 0x6400200160002001UL, 0x2000200168002001UL,
 443:Model/hand_landmark_ecblobs.h ****   0x3000200124002001UL, 0x1c007fe434002001UL, 0x0000000000000064UL, 0x0000006438007fe4UL,
 444:Model/hand_landmark_ecblobs.h ****   0x10047c0000000000UL, 0x100b006300000000UL, 0x0000000000000000UL, 0x1012004300000000UL,
 445:Model/hand_landmark_ecblobs.h ****   0x0000000000000000UL, 0x00000000101e7c00UL, 0x0000000010207c00UL, 0x0000000010227c00UL,
 446:Model/hand_landmark_ecblobs.h ****   0x0000000010247c00UL, 0x000000021c007c00UL, 0x000000641c000424UL, 0x1c007c0000000000UL,
 447:Model/hand_landmark_ecblobs.h ****   0x1c007bc440000000UL, 0x0000000000000064UL, 0x38007c0000800041UL, 0x3800042400000002UL,
 448:Model/hand_landmark_ecblobs.h ****   0x0000000000000064UL, 0x4000000038007c00UL, 0x0000006438007bc4UL, 0x0080012100000000UL,
 449:Model/hand_landmark_ecblobs.h ****   0x000000023c007c00UL, 0x000000643c000424UL, 0x3c007c0000000000UL, 0x3c007bc440000000UL,
 450:Model/hand_landmark_ecblobs.h ****   0x0000000000000064UL, 0x44007c0000800141UL, 0x4400042400000002UL, 0x0000000000000064UL,
ARM GAS  C:\Users\DJESSOU\AppData\Local\Temp\ccZ709fi.s 			page 32


 451:Model/hand_landmark_ecblobs.h ****   0x4000000044007c00UL, 0x0000006444007bc4UL, 0x0080018100000000UL, 0x080000025c007c00UL,
 452:Model/hand_landmark_ecblobs.h ****   0x000000645c000424UL, 0x5c007c0000000000UL, 0x5c007bc448000000UL, 0x0000000000000064UL,
 453:Model/hand_landmark_ecblobs.h ****   0x60007c0000800241UL, 0x6000042408000002UL, 0x0000000000000064UL, 0x4800000060007c00UL,
 454:Model/hand_landmark_ecblobs.h ****   0x0000006460007bc4UL, 0x0080026100000000UL, 0x0800000264007c00UL, 0x0000006464000424UL,
 455:Model/hand_landmark_ecblobs.h ****   0x64007c0000000000UL, 0x64007bc448000000UL, 0x0000000000000064UL, 0x68007c0000800281UL,
 456:Model/hand_landmark_ecblobs.h ****   0x6800042408000002UL, 0x0000000000000064UL, 0x4800000068007c00UL, 0x0000006468007bc4UL,
 457:Model/hand_landmark_ecblobs.h ****   0x008002a100000000UL, 0x0000000220007c00UL, 0x0000006420000424UL, 0x20007c0000000000UL,
 458:Model/hand_landmark_ecblobs.h ****   0x20007bc440000000UL, 0x0000000000000064UL, 0x24007c0000800061UL, 0x2400042400000002UL,
 459:Model/hand_landmark_ecblobs.h ****   0x0000000000000064UL, 0x4000000024007c00UL, 0x0000006424007bc4UL, 0x0080008100000000UL,
 460:Model/hand_landmark_ecblobs.h ****   0x0000000230007c00UL, 0x0000006430000424UL, 0x30007c0000000000UL, 0x30007bc440000000UL,
 461:Model/hand_landmark_ecblobs.h ****   0x0000000000000064UL, 0x34007c00008000e1UL, 0x3400042400000002UL, 0x0000000000000064UL,
 462:Model/hand_landmark_ecblobs.h ****   0x4000000034007c00UL, 0x0000006434007bc4UL, 0x0080010100000000UL, 0x008021a10000019dUL,
 463:Model/hand_landmark_ecblobs.h ****   0x0010003448007c00UL, 0x04040303480200e3UL, 0x1063430300001155UL, 0x00df0000003800e0UL,
 464:Model/hand_landmark_ecblobs.h ****   0x0000000100370000UL, 0x00000000480a7c00UL, 0x00000000480d7c00UL, 0x5c00004200802241UL,
 465:Model/hand_landmark_ecblobs.h ****   0x156000fc08000000UL, 0x000780005c020123UL, 0x0000000300000000UL, 0x000371ff000030ffUL,
 466:Model/hand_landmark_ecblobs.h ****   0x0000000000000000UL, 0x0000000106e403fdUL, 0x000000005c0c0043UL, 0x5c0b7c0020422042UL,
 467:Model/hand_landmark_ecblobs.h ****   0x5d00120300000001UL, 0x0000afbfffd412eaUL, 0x00006ee3ffcb051cUL, 0x00002332ffd708afUL,
 468:Model/hand_landmark_ecblobs.h ****   0x00002ccffff307e7UL, 0x0000ebbc00130809UL, 0x00008756ffc1165dUL, 0x00002837ffb50142UL,
 469:Model/hand_landmark_ecblobs.h ****   0x00005060ffcf0711UL, 0x000094bffff50401UL, 0x00000e32ffcc0615UL, 0x0000018effaa199fUL,
 470:Model/hand_landmark_ecblobs.h ****   0x00008033ffbb061bUL, 0x00007245ffbf03faUL, 0x0000672b001805b6UL, 0x0000e1d4ffbc03a0UL,
 471:Model/hand_landmark_ecblobs.h ****   0x0000d5f1002905d7UL, 0x0000544500160b41UL, 0x00001300ffbf04faUL, 0x00005e81ffaf1459UL,
 472:Model/hand_landmark_ecblobs.h ****   0x0000a65affd90321UL, 0x00006ec0ffb40d06UL, 0x0000ea74ffc212e6UL, 0x00003009ffc00387UL,
 473:Model/hand_landmark_ecblobs.h ****   0x0000c52affaa05a3UL, 0x0000751effba1e30UL, 0x0000100eff900159UL, 0x00006ca1ffe803e2UL,
 474:Model/hand_landmark_ecblobs.h ****   0x000034bdffc00ad2UL, 0x0000ae65ffc0085bUL, 0x0000899b00de1ea9UL, 0x0000f76affbd045fUL,
 475:Model/hand_landmark_ecblobs.h ****   0x0000b9daffd30ba5UL, 0x00000ab5ff341cfaUL, 0x0000523d00180450UL, 0x0000c4b6ffb001d4UL,
 476:Model/hand_landmark_ecblobs.h ****   0x0000f529ffc702f5UL, 0x0000ad88ffe2058aUL, 0x0000a79affab09feUL, 0x00009c78ffc03428UL,
 477:Model/hand_landmark_ecblobs.h ****   0x0000079fffe30413UL, 0x0000a7f5ffb9041bUL, 0x000005e900101ae6UL, 0x0000b9faffc10a1aUL,
 478:Model/hand_landmark_ecblobs.h ****   0x00006c5bffcb0c81UL, 0x0000ca1cffda3347UL, 0x000064e1ffc71845UL, 0x0000ac56ffe73b4fUL,
 479:Model/hand_landmark_ecblobs.h ****   0x00004a08ff9b0ab3UL, 0x000001a000290f14UL, 0x0000f76dffbd1bc4UL, 0x0000f402000b042bUL,
 480:Model/hand_landmark_ecblobs.h ****   0x00005ebaffe10537UL, 0x0000cab7ffc01112UL, 0x0000d220ffb34a75UL, 0x00002dc2fff20379UL,
 481:Model/hand_landmark_ecblobs.h ****   0x0000d8d6ffb71393UL, 0x00001004ffd00327UL, 0x0000e9aa002916e6UL, 0x0000d468ffbb0e0cUL,
 482:Model/hand_landmark_ecblobs.h ****   0x0000cdcfffcc0000UL, 0x0000ce32ffb90b61UL, 0x0000f0baffb50149UL, 0x00007a0affc01630UL,
 483:Model/hand_landmark_ecblobs.h ****   0x0000e6a8ffbc043aUL, 0x0000868c002306fcUL, 0x0000a36cffba1332UL, 0x00000602ffc114f6UL,
 484:Model/hand_landmark_ecblobs.h ****   0x000026cdffc11061UL, 0x0000bc75ffbc0989UL, 0x0000c922ffad27d0UL, 0x0000312effb4030cUL,
 485:Model/hand_landmark_ecblobs.h ****   0x000009e9ffeb07beUL, 0x6000004200802261UL, 0x1500000008000000UL, 0x0007000060027c00UL,
 486:Model/hand_landmark_ecblobs.h ****   0x0000400060070043UL, 0x600c004300000020UL, 0x1041104100000000UL, 0x40007c0000802161UL,
 487:Model/hand_landmark_ecblobs.h ****   0x400200e300100034UL, 0x0000115504040303UL, 0x003800e010634303UL, 0x0037000000df0000UL,
 488:Model/hand_landmark_ecblobs.h ****   0x400a7c0000000001UL, 0x400d7c0000000000UL, 0x0080228100000000UL, 0x0800000064000042UL,
 489:Model/hand_landmark_ecblobs.h ****   0x64020123156000fcUL, 0x0000000000070000UL, 0x000030ff00000003UL, 0x00000000000371ffUL,
 490:Model/hand_landmark_ecblobs.h ****   0x06e403fd00000000UL, 0x640c004300000001UL, 0x2042204200000000UL, 0x00000001640b7c00UL,
 491:Model/hand_landmark_ecblobs.h ****   0xffeb009665001203UL, 0xffdd0b280000fbf3UL, 0xffd80ada00003ce5UL, 0xffe107870000493aUL,
 492:Model/hand_landmark_ecblobs.h ****   0xffe513cc00000a49UL, 0xffde5b870000e563UL, 0xffdf18890000ed6aUL, 0xffc505cb00008e86UL,
 493:Model/hand_landmark_ecblobs.h ****   0xffe1072500003aacUL, 0xffeb00d400005534UL, 0xffdd020900000252UL, 0xffdc08810000f155UL,
 494:Model/hand_landmark_ecblobs.h ****   0xffda1b8f00006222UL, 0xffdc10de0000827cUL, 0xffe00272000040bcUL, 0xffec09e000004db0UL,
 495:Model/hand_landmark_ecblobs.h ****   0xffe01ce20000c310UL, 0x003e0c2a0000eaaaUL, 0xffe003df0000a043UL, 0xffde132600002923UL,
 496:Model/hand_landmark_ecblobs.h ****   0xfff50c2800006ddbUL, 0xffef01560000251eUL, 0xffee046c00007076UL, 0xffd315ab0000a41fUL,
 497:Model/hand_landmark_ecblobs.h ****   0xffe006f10000ca34UL, 0xffde07ee0000c258UL, 0xffd907d20000ae05UL, 0xffdf03a5000072d8UL,
 498:Model/hand_landmark_ecblobs.h ****   0xffc503f30000e591UL, 0xffdd024800002599UL, 0xffdf069400004f4cUL, 0xffe00294000075d8UL,
 499:Model/hand_landmark_ecblobs.h ****   0xffdc044f000078c9UL, 0xffd402930000d644UL, 0xffda0dea00008624UL, 0xffec02a100009cd5UL,
 500:Model/hand_landmark_ecblobs.h ****   0xffe60838000090b8UL, 0xffe5082c000015c7UL, 0xffe048f20000f349UL, 0xffd80432000036b5UL,
 501:Model/hand_landmark_ecblobs.h ****   0xffe801f60000591eUL, 0xffbe075d0000ddd5UL, 0xffd000d50000671aUL, 0xffe7012e00003fd9UL,
 502:Model/hand_landmark_ecblobs.h ****   0xffe4116b0000a9a9UL, 0xffdf024500003157UL, 0xffdf00000000cbd7UL, 0xffe605f700007dd8UL,
 503:Model/hand_landmark_ecblobs.h ****   0xffe502000000cc29UL, 0x000304310000c77fUL, 0xfff203460000b168UL, 0xffda1157000052bbUL,
 504:Model/hand_landmark_ecblobs.h ****   0xffde03170000a86bUL, 0xffef07e300001929UL, 0xfffd0153000030b2UL, 0xffd504c30000825fUL,
 505:Model/hand_landmark_ecblobs.h ****   0xffda01b90000b143UL, 0xffeb01270000b5f2UL, 0x000c061f0000b448UL, 0xffd900000000f327UL,
 506:Model/hand_landmark_ecblobs.h ****   0xffd905910000a50cUL, 0xffdf02760000b676UL, 0xff4b0e2a0000ef64UL, 0xffe006d30000ff37UL,
 507:Model/hand_landmark_ecblobs.h ****   0xffd201ac0000de98UL, 0xffd7143c000072faUL, 0xfff50316000009b7UL, 0xffe504cf00002d43UL,
ARM GAS  C:\Users\DJESSOU\AppData\Local\Temp\ccZ709fi.s 			page 33


 508:Model/hand_landmark_ecblobs.h ****   0xfff2062e0000d232UL, 0xffe1045e0000b7e6UL, 0x000204d5000020b6UL, 0xfff006040000f278UL,
 509:Model/hand_landmark_ecblobs.h ****   0x008022a1000079caUL, 0x0800000068000042UL, 0x68027c0015000000UL, 0x6807004300070000UL,
 510:Model/hand_landmark_ecblobs.h ****   0x0000002000004000UL, 0x00000000680c0043UL, 0x0080208110411041UL, 0x0008000024007c00UL,
 511:Model/hand_landmark_ecblobs.h ****   0x342a720024020123UL, 0x0048000400380038UL, 0x0000000000000fc0UL, 0x0000000400000001UL,
 512:Model/hand_landmark_ecblobs.h ****   0x0010000000000024UL, 0x00000006240c0042UL, 0x240d004300000007UL, 0x342de43f00000012UL,
 513:Model/hand_landmark_ecblobs.h ****   0x0000000024110043UL, 0x0080202100000000UL, 0x0008018418007c00UL, 0x708830f018020043UL,
 514:Model/hand_landmark_ecblobs.h ****   0x180500c300000a20UL, 0x0000000000000000UL, 0x0000000000000000UL, 0x0010000000000024UL,
 515:Model/hand_landmark_ecblobs.h ****   0x00000006180c0042UL, 0x180d004300000007UL, 0x70883b4f00000001UL, 0x0000000018110043UL,
 516:Model/hand_landmark_ecblobs.h ****   0x0080200100000008UL, 0x0008000014007c00UL, 0x3427000014020123UL, 0x0048000400380038UL,
 517:Model/hand_landmark_ecblobs.h ****   0x0000000000000fc0UL, 0x0000000400000001UL, 0x0010000000000024UL, 0x00000006140c0042UL,
 518:Model/hand_landmark_ecblobs.h ****   0x140d004300000007UL, 0x342a723f00000012UL, 0x0000000014110043UL, 0x008020c100000000UL,
 519:Model/hand_landmark_ecblobs.h ****   0x000801842c007c00UL, 0x708826d02c020043UL, 0x2c0500c300000a20UL, 0x0000000000000000UL,
 520:Model/hand_landmark_ecblobs.h ****   0x0000000000000000UL, 0x0010000000000024UL, 0x000000062c0c0042UL, 0x2c0d004300000007UL,
 521:Model/hand_landmark_ecblobs.h ****   0x7088312f00000001UL, 0x000000002c110043UL, 0x008020a100000008UL, 0x0008000828007c00UL,
 522:Model/hand_landmark_ecblobs.h ****   0x3431720028020123UL, 0x0048000400380038UL, 0x0000000400000fc0UL, 0x0003720000000012UL,
 523:Model/hand_landmark_ecblobs.h ****   0x0010000000000024UL, 0x00000006280c0042UL, 0x280d004300000007UL, 0x3434e43f00000012UL,
 524:Model/hand_landmark_ecblobs.h ****   0x0000000028110043UL, 0x0080212100000000UL, 0x0008000838007c00UL, 0x342e000038020123UL,
 525:Model/hand_landmark_ecblobs.h ****   0x0048000400380038UL, 0x0000000400000fc0UL, 0x0003720000000012UL, 0x0010000000000024UL,
 526:Model/hand_landmark_ecblobs.h ****   0x00000006380c0042UL, 0x380d004300000007UL, 0x3431723f00000012UL, 0x0000000038110043UL,
 527:Model/hand_landmark_ecblobs.h ****   0x10007c0000000000UL, 0x1000042400000002UL, 0x0000000000000064UL, 0x4000000010007c00UL,
 528:Model/hand_landmark_ecblobs.h ****   0x0000006410007bc4UL, 0x10007c0000000000UL, 0x10077c0000000001UL, 0x100b7c0000000027UL,
 529:Model/hand_landmark_ecblobs.h ****   0x100f00430000002bUL, 0x0000000d00000001UL, 0x0000000910150043UL, 0x101e7c0000000003UL,
 530:Model/hand_landmark_ecblobs.h ****   0x10207c000000001bUL, 0x10227c0000000025UL, 0x10247c0000000017UL, 0x2800200100000029UL,
 531:Model/hand_landmark_ecblobs.h ****   0x40007c0038002001UL, 0x48007c0000100035UL, 0x5c00200100100035UL, 0x6400200160002001UL,
 532:Model/hand_landmark_ecblobs.h ****   0x1400200168002001UL, 0x2400200118002001UL, 0x28007fe42c002001UL, 0x0000000000000064UL,
 533:Model/hand_landmark_ecblobs.h ****   0x0000006438007fe4UL, 0x10077c0000000000UL, 0x100b7c0000000000UL, 0x100f004300000000UL,
 534:Model/hand_landmark_ecblobs.h ****   0x0000000000000000UL, 0x0000000010150043UL, 0x101e7c0000000000UL, 0x10207c0000000000UL,
 535:Model/hand_landmark_ecblobs.h ****   0x10227c0000000000UL, 0x10247c0000000000UL, 0x28007c0000000000UL, 0x2800042400000002UL,
 536:Model/hand_landmark_ecblobs.h ****   0x0000000000000064UL, 0x4000000028007c00UL, 0x0000006428007bc4UL, 0x008000a100000000UL,
 537:Model/hand_landmark_ecblobs.h ****   0x0000000238007c00UL, 0x0000006438000424UL, 0x38007c0000000000UL, 0x38007bc440000000UL,
 538:Model/hand_landmark_ecblobs.h ****   0x0000000000000064UL, 0x40007c0000800121UL, 0x4000042400000002UL, 0x0000000000000064UL,
 539:Model/hand_landmark_ecblobs.h ****   0x4000000040007c00UL, 0x0000006440007bc4UL, 0x0080016100000000UL, 0x0000000248007c00UL,
 540:Model/hand_landmark_ecblobs.h ****   0x0000006448000424UL, 0x48007c0000000000UL, 0x48007bc440000000UL, 0x0000000000000064UL,
 541:Model/hand_landmark_ecblobs.h ****   0x5c007c00008001a1UL, 0x5c00042408000002UL, 0x0000000000000064UL, 0x480000005c007c00UL,
 542:Model/hand_landmark_ecblobs.h ****   0x000000645c007bc4UL, 0x0080024100000000UL, 0x0800000260007c00UL, 0x0000006460000424UL,
 543:Model/hand_landmark_ecblobs.h ****   0x60007c0000000000UL, 0x60007bc448000000UL, 0x0000000000000064UL, 0x64007c0000800261UL,
 544:Model/hand_landmark_ecblobs.h ****   0x6400042408000002UL, 0x0000000000000064UL, 0x4800000064007c00UL, 0x0000006464007bc4UL,
 545:Model/hand_landmark_ecblobs.h ****   0x0080028100000000UL, 0x0800000268007c00UL, 0x0000006468000424UL, 0x68007c0000000000UL,
 546:Model/hand_landmark_ecblobs.h ****   0x68007bc448000000UL, 0x0000000000000064UL, 0x14007c00008002a1UL, 0x1400042400000002UL,
 547:Model/hand_landmark_ecblobs.h ****   0x0000000000000064UL, 0x4000000014007c00UL, 0x0000006414007bc4UL, 0x0080000100000000UL,
 548:Model/hand_landmark_ecblobs.h ****   0x0000000218007c00UL, 0x0000006418000424UL, 0x18007c0000000000UL, 0x18007bc440000000UL,
 549:Model/hand_landmark_ecblobs.h ****   0x0000000000000064UL, 0x24007c0000800021UL, 0x2400042400000002UL, 0x0000000000000064UL,
 550:Model/hand_landmark_ecblobs.h ****   0x4000000024007c00UL, 0x0000006424007bc4UL, 0x0080008100000000UL, 0x000000022c007c00UL,
 551:Model/hand_landmark_ecblobs.h ****   0x000000642c000424UL, 0x2c007c0000000000UL, 0x2c007bc440000000UL, 0x0000000000000064UL,
 552:Model/hand_landmark_ecblobs.h ****   0x000001bd008000c1UL, 0x00802141000001ddUL, 0x10d000343c007c00UL, 0x184801013c0200e3UL,
 553:Model/hand_landmark_ecblobs.h ****   0x10f7400400001100UL, 0x0fbf000000380fc0UL, 0x0017003000370000UL, 0x000000003c0a7c00UL,
 554:Model/hand_landmark_ecblobs.h ****   0x000000003c0d7c00UL, 0x44007c0000802181UL, 0x440200e310d00020UL, 0x0000110018480101UL,
 555:Model/hand_landmark_ecblobs.h ****   0x00380fc010e34400UL, 0x003700000fbf0000UL, 0x440a7c00002f1830UL, 0x440d7c0000000000UL,
 556:Model/hand_landmark_ecblobs.h ****   0x0080224100000000UL, 0x080000005c000042UL, 0x5c020123156000fcUL, 0x0000000000098000UL,
 557:Model/hand_landmark_ecblobs.h ****   0x000125ff00000017UL, 0x00000000000125ffUL, 0x07a403e900000000UL, 0x5c0c004300000001UL,
 558:Model/hand_landmark_ecblobs.h ****   0x2042204200000000UL, 0x000000015c0b7c00UL, 0xff26184c5d000603UL, 0xffe1325b000023a0UL,
 559:Model/hand_landmark_ecblobs.h ****   0x000a202d000065c7UL, 0xff4a1bae00001f45UL, 0x00601f140000fdedUL, 0x00b921cd00009318UL,
 560:Model/hand_landmark_ecblobs.h ****   0xffd316d8000085c8UL, 0xfebd2da700008903UL, 0xffed7c3f0000dc24UL, 0x00201ca00000dbc2UL,
 561:Model/hand_landmark_ecblobs.h ****   0x001f26c10000abbdUL, 0xfef9231a00002856UL, 0xfeee1a720000c1d8UL, 0xfe8b77710000e1dfUL,
 562:Model/hand_landmark_ecblobs.h ****   0x009628af000068f9UL, 0xfe2a269f0000f056UL, 0x00a227d600001930UL, 0x00192869000085ddUL,
 563:Model/hand_landmark_ecblobs.h ****   0xffe61bf30000cf9aUL, 0x002020ec00003541UL, 0xffe328c900003a3dUL, 0xfe8b227600005ac9UL,
 564:Model/hand_landmark_ecblobs.h ****   0xfea21ed7000099eeUL, 0xff951f800000f313UL, 0x0080226100001ad2UL, 0x0800000060000042UL,
ARM GAS  C:\Users\DJESSOU\AppData\Local\Temp\ccZ709fi.s 			page 34


 565:Model/hand_landmark_ecblobs.h ****   0x60027c0005000160UL, 0x6007004300078c00UL, 0x00005df64f1a71e8UL, 0x00000000600c0043UL,
 566:Model/hand_landmark_ecblobs.h ****   0x0080200110411041UL, 0x0888030414007c00UL, 0x342e000014020043UL, 0x140500c300012600UL,
 567:Model/hand_landmark_ecblobs.h ****   0x0000000000000000UL, 0x0006e40000000001UL, 0x0010000000000024UL, 0x00000006140c0042UL,
 568:Model/hand_landmark_ecblobs.h ****   0x140d004300000007UL, 0x3434e43f00000001UL, 0x0000000014110043UL, 0x008020e100000000UL,
 569:Model/hand_landmark_ecblobs.h ****   0x0888018430007c00UL, 0x7088195030020043UL, 0x300500c300000480UL, 0x0000000000000000UL,
 570:Model/hand_landmark_ecblobs.h ****   0x0000000000000000UL, 0x0010000000000024UL, 0x00000006300c0042UL, 0x300d004300000007UL,
 571:Model/hand_landmark_ecblobs.h ****   0x7088270f00000001UL, 0x0000000030110043UL, 0x0080212100000008UL, 0x0888030438007c00UL,
 572:Model/hand_landmark_ecblobs.h ****   0x3431720038020043UL, 0x380500c300012600UL, 0x0000000000000000UL, 0x0006e40000000001UL,
 573:Model/hand_landmark_ecblobs.h ****   0x0010000000000024UL, 0x00000006380c0042UL, 0x380d004300000007UL, 0x3434e43f00000001UL,
 574:Model/hand_landmark_ecblobs.h ****   0x0000000038110043UL, 0x0080210100000000UL, 0x0008010434007c00UL, 0x3423100034020043UL,
 575:Model/hand_landmark_ecblobs.h ****   0x340500c300012600UL, 0x0001260000000000UL, 0x0000000000000000UL, 0x0010000000000024UL,
 576:Model/hand_landmark_ecblobs.h ****   0x00000006340c0042UL, 0x340d004300000007UL, 0x3424363f00000001UL, 0x0000000034110043UL,
 577:Model/hand_landmark_ecblobs.h ****   0x0080204100000000UL, 0x0008010c1c007c00UL, 0x342700001c020043UL, 0x1c0500c300012600UL,
 578:Model/hand_landmark_ecblobs.h ****   0x0001260000000000UL, 0x0000000000000000UL, 0x0010000000000024UL, 0x000000061c0c0042UL,
 579:Model/hand_landmark_ecblobs.h ****   0x1c0d004300000007UL, 0x3428263f00000001UL, 0x000000001c110043UL, 0x10007c0000000000UL,
 580:Model/hand_landmark_ecblobs.h ****   0x1000042400000002UL, 0x0000000000000064UL, 0x4000000010007c00UL, 0x0000006410007bc4UL,
 581:Model/hand_landmark_ecblobs.h ****   0x10007c0000000000UL, 0x10047c0000000001UL, 0x100c004300000027UL, 0x0000000f00000001UL,
 582:Model/hand_landmark_ecblobs.h ****   0x0000001310120063UL, 0x000000150000000fUL, 0x00000019101e7c00UL, 0x0000002510200043UL,
 583:Model/hand_landmark_ecblobs.h ****   0x1c00200100000011UL, 0x10d000353c007c00UL, 0x10d0002144007c00UL, 0x600020015c002001UL,
 584:Model/hand_landmark_ecblobs.h ****   0x3000200114002001UL, 0x3800200134002001UL, 0x000000641c007fe4UL, 0x10047c0000000000UL,
 585:Model/hand_landmark_ecblobs.h ****   0x100c004300000000UL, 0x0000000000000000UL, 0x0000000010120063UL, 0x0000000000000000UL,
 586:Model/hand_landmark_ecblobs.h ****   0x00000000101e7c00UL, 0x0000000010200043UL, 0x1c007c0000000000UL, 0x1c00042400000002UL,
 587:Model/hand_landmark_ecblobs.h ****   0x0000000000000064UL, 0x400000001c007c00UL, 0x000000641c007bc4UL, 0x0080004100000000UL,
 588:Model/hand_landmark_ecblobs.h ****   0x000000023c007c00UL, 0x000000643c000424UL, 0x3c007c0000000000UL, 0x3c007bc440000000UL,
 589:Model/hand_landmark_ecblobs.h ****   0x0000000000000064UL, 0x44007c0000800141UL, 0x4400042400000002UL, 0x0000000000000064UL,
 590:Model/hand_landmark_ecblobs.h ****   0x4000000044007c00UL, 0x0000006444007bc4UL, 0x0080018100000000UL, 0x080000025c007c00UL,
 591:Model/hand_landmark_ecblobs.h ****   0x000000645c000424UL, 0x5c007c0000000000UL, 0x5c007bc448000000UL, 0x0000000000000064UL,
 592:Model/hand_landmark_ecblobs.h ****   0x60007c0000800241UL, 0x6000042408000002UL, 0x0000000000000064UL, 0x4800000060007c00UL,
 593:Model/hand_landmark_ecblobs.h ****   0x0000006460007bc4UL, 0x0080026100000000UL, 0x0000000214007c00UL, 0x0000006414000424UL,
 594:Model/hand_landmark_ecblobs.h ****   0x14007c0000000000UL, 0x14007bc440000000UL, 0x0000000000000064UL, 0x30007c0000800001UL,
 595:Model/hand_landmark_ecblobs.h ****   0x3000042400000002UL, 0x0000000000000064UL, 0x4000000030007c00UL, 0x0000006430007bc4UL,
 596:Model/hand_landmark_ecblobs.h ****   0x008000e100000000UL, 0x0000000234007c00UL, 0x0000006434000424UL, 0x34007c0000000000UL,
 597:Model/hand_landmark_ecblobs.h ****   0x34007bc440000000UL, 0x0000000000000064UL, 0x38007c0000800101UL, 0x3800042400000002UL,
 598:Model/hand_landmark_ecblobs.h ****   0x0000000000000064UL, 0x4000000038007c00UL, 0x0000006438007bc4UL, 0x0080012100000000UL,
 599:Model/hand_landmark_ecblobs.h ****   0x00802161000001fdUL, 0x0000005440007c00UL, 0x18180101400200e3UL, 0x10a3430300001100UL,
 600:Model/hand_landmark_ecblobs.h ****   0x053f000000380540UL, 0x0000000100370000UL, 0x00000000400a7c00UL, 0x00fffffc400c0043UL,
 601:Model/hand_landmark_ecblobs.h ****   0x0080228100000000UL, 0x0800000064000042UL, 0x64020123156000fcUL, 0x0000000000088000UL,
 602:Model/hand_landmark_ecblobs.h ****   0x000125ff00000017UL, 0x00000000000371ffUL, 0x06e403e900000000UL, 0x640c004300000001UL,
 603:Model/hand_landmark_ecblobs.h ****   0x2042204200000000UL, 0x00000001640b7c00UL, 0xff1708b665001203UL, 0xff001f090000b309UL,
 604:Model/hand_landmark_ecblobs.h ****   0xff4a354e000007c2UL, 0xff5a38cc00005521UL, 0xff632b4000003e35UL, 0xff220a4000005bb9UL,
 605:Model/hand_landmark_ecblobs.h ****   0xff471e690000c7b5UL, 0xff1f0ba50000a4a2UL, 0xff7420c0000055a4UL, 0xff1f07450000e106UL,
 606:Model/hand_landmark_ecblobs.h ****   0xff4818210000fa3bUL, 0xfecc1ae60000426cUL, 0xff5c14310000d459UL, 0xff2f26dd0000b870UL,
 607:Model/hand_landmark_ecblobs.h ****   0xff3d1aee00004f30UL, 0xff2017d90000d86fUL, 0xff2712ec000050cbUL, 0xff31159c000008d9UL,
 608:Model/hand_landmark_ecblobs.h ****   0xff210d4700001a6bUL, 0xff1d17680000c97eUL, 0xff151fa90000f6d1UL, 0xff46344800006585UL,
 609:Model/hand_landmark_ecblobs.h ****   0xff200e980000b64bUL, 0xff5a11020000e538UL, 0xff3904d700005019UL, 0xff49211d00009b80UL,
 610:Model/hand_landmark_ecblobs.h ****   0xff3c122a000018a4UL, 0xff3c16380000c281UL, 0xff2348fc00004e93UL, 0xff4720dd0000908eUL,
 611:Model/hand_landmark_ecblobs.h ****   0xff45039a0000ecb5UL, 0xff1f0ab40000b9cfUL, 0xff4b379c00009fb7UL, 0xff1b43480000c910UL,
 612:Model/hand_landmark_ecblobs.h ****   0xff1a0b830000cad2UL, 0xff4b09390000cab0UL, 0xff0913e50000e991UL, 0xff0d122e0000cd1bUL,
 613:Model/hand_landmark_ecblobs.h ****   0xff561ce900001355UL, 0xff10262c00003f9dUL, 0xff0827e3000040caUL, 0xff4e0d140000bea1UL,
 614:Model/hand_landmark_ecblobs.h ****   0xff3e21b90000fb58UL, 0xfefd361800006c1fUL, 0xfefb277500001835UL, 0xff2922be0000b41bUL,
 615:Model/hand_landmark_ecblobs.h ****   0xff212c5600002c7fUL, 0xff2a2f23000024edUL, 0xfebd2d180000ed2fUL, 0xfef735120000593eUL,
 616:Model/hand_landmark_ecblobs.h ****   0xff5c2b2f0000519aUL, 0xff272b8c00000f13UL, 0xff0e109300004020UL, 0xff41138c0000867eUL,
 617:Model/hand_landmark_ecblobs.h ****   0xff132f130000e818UL, 0xff2207a80000ed80UL, 0xff2a0fad0000a83bUL, 0xff0b032400001a1dUL,
 618:Model/hand_landmark_ecblobs.h ****   0xfeb61d0200003a1eUL, 0xffb629e600008071UL, 0xff0f30a800001d3eUL, 0xff86336d00006b21UL,
 619:Model/hand_landmark_ecblobs.h ****   0xff382da80000e32bUL, 0xff4407bf0000b0a7UL, 0xff69287b0000e5efUL, 0xfefd397500006df3UL,
 620:Model/hand_landmark_ecblobs.h ****   0xff041b14000080ccUL, 0xff2e0de30000890dUL, 0xff652d64000086cfUL, 0xff0b269a0000719dUL,
 621:Model/hand_landmark_ecblobs.h ****   0xff1818360000f7f2UL, 0xfecd13bf0000b870UL, 0x008022a100009d45UL, 0x0800000068000042UL,
ARM GAS  C:\Users\DJESSOU\AppData\Local\Temp\ccZ709fi.s 			page 35


 622:Model/hand_landmark_ecblobs.h ****   0x68027c0015000000UL, 0x6807004300070000UL, 0x0000002000004000UL, 0x00000000680c0043UL,
 623:Model/hand_landmark_ecblobs.h ****   0x008021a110411041UL, 0x0000005448007c00UL, 0x18180101480200e3UL, 0x10a3430300001100UL,
 624:Model/hand_landmark_ecblobs.h ****   0x053f000000380540UL, 0x0000000100370000UL, 0x00000000480a7c00UL, 0x00fffffc480c0043UL,
 625:Model/hand_landmark_ecblobs.h ****   0x0080224100000000UL, 0x080000005c000042UL, 0x5c020123156000fcUL, 0x0000000000088000UL,
 626:Model/hand_landmark_ecblobs.h ****   0x000125ff00000017UL, 0x00000000000371ffUL, 0x06e403e900000000UL, 0x5c0c004300000001UL,
 627:Model/hand_landmark_ecblobs.h ****   0x2042204200000000UL, 0x000000015c0b7c00UL, 0xfef227e35d001203UL, 0xff202bf9000053f5UL,
 628:Model/hand_landmark_ecblobs.h ****   0xff470b5b00007199UL, 0xfec400040000f7e1UL, 0xff3d156d0000fb40UL, 0xff53328000000404UL,
 629:Model/hand_landmark_ecblobs.h ****   0xfefd000400008b25UL, 0xff0c3ffc0000b64bUL, 0xfefa274b00009727UL, 0xff5908de0000d6c4UL,
 630:Model/hand_landmark_ecblobs.h ****   0xff0612fd00007ba4UL, 0xff173b6700006807UL, 0xff3f2f0a0000fc9aUL, 0xff2e220500000c80UL,
 631:Model/hand_landmark_ecblobs.h ****   0xff3e08be0000a4a2UL, 0xff451f7f0000a0b2UL, 0xff3b15000000da82UL, 0xff86432e00005ac0UL,
 632:Model/hand_landmark_ecblobs.h ****   0xff2729c40000b8ebUL, 0xfeec1e860000fdc2UL, 0xff0c232400008506UL, 0xff9468a10000bf99UL,
 633:Model/hand_landmark_ecblobs.h ****   0xff2410a80000d1a4UL, 0xff411424000021d2UL, 0xff3c29240000e928UL, 0xfef80a7300004d76UL,
 634:Model/hand_landmark_ecblobs.h ****   0xff44159700006c4aUL, 0xff121ffa000099f3UL, 0xff180a1800001c65UL, 0xff0c1ced00000cd5UL,
 635:Model/hand_landmark_ecblobs.h ****   0xff20187600006a3dUL, 0xff20099300006ff1UL, 0xff2614d50000b511UL, 0xff6f37940000bf3fUL,
 636:Model/hand_landmark_ecblobs.h ****   0xff641f88000027a1UL, 0xff1539c100005d1cUL, 0xfed44d230000feebUL, 0xff5f32d5000075dcUL,
 637:Model/hand_landmark_ecblobs.h ****   0xff43126d000061bdUL, 0xff5f352c0000667fUL, 0xff3b10b600009e9cUL, 0xff8646cf00000ecbUL,
 638:Model/hand_landmark_ecblobs.h ****   0xff1a067f0000a135UL, 0xff451da700009032UL, 0xff3733c90000ede5UL, 0xff280b5d0000e881UL,
 639:Model/hand_landmark_ecblobs.h ****   0xff1d315900008bebUL, 0xff3e22590000c824UL, 0xff630f0e0000f60eUL, 0xff1836b800004717UL,
 640:Model/hand_landmark_ecblobs.h ****   0xffac018e0000edc2UL, 0xff0f12720000a811UL, 0xff32425300008d77UL, 0xff25138400005baaUL,
 641:Model/hand_landmark_ecblobs.h ****   0xff0e04560000ea22UL, 0xff2c1dc0000004a6UL, 0xff4a03f700001ddeUL, 0xff6f20ee00005555UL,
 642:Model/hand_landmark_ecblobs.h ****   0xffa002490000a413UL, 0xfef908f50000de72UL, 0xff38129700008c5fUL, 0xff410a5e00001c6fUL,
 643:Model/hand_landmark_ecblobs.h ****   0xff1b1a2000009315UL, 0xff2111b80000ffc6UL, 0xff8114a700001e26UL, 0xff54193c0000fe15UL,
 644:Model/hand_landmark_ecblobs.h ****   0xff0b1847000095eaUL, 0xfee1127a0000460cUL, 0xff3734be00004eeeUL, 0xff9b335c0000fcc5UL,
 645:Model/hand_landmark_ecblobs.h ****   0xff4323d50000baa6UL, 0xff4819d800005328UL, 0x00802261000041b6UL, 0x0800000060000042UL,
 646:Model/hand_landmark_ecblobs.h ****   0x60027c0015000000UL, 0x6007004300070000UL, 0x0000002000004000UL, 0x00000000600c0043UL,
 647:Model/hand_landmark_ecblobs.h ****   0x0080206110411041UL, 0x0008c10020007c00UL, 0x3427000020020043UL, 0x200500c300012600UL,
 648:Model/hand_landmark_ecblobs.h ****   0x0001260000000000UL, 0x0000000000000001UL, 0x0010000000000024UL, 0x00000006200c0042UL,
 649:Model/hand_landmark_ecblobs.h ****   0x200d004300000007UL, 0x3428263f00000003UL, 0x0000000020110043UL, 0x0080204100000000UL,
 650:Model/hand_landmark_ecblobs.h ****   0x0008c1841c007c00UL, 0x708861201c020043UL, 0x1c0500c3000006c0UL, 0x0000000000000000UL,
 651:Model/hand_landmark_ecblobs.h ****   0x0000000000000000UL, 0x0010000000000024UL, 0x000000061c0c0042UL, 0x1c0d004300000007UL,
 652:Model/hand_landmark_ecblobs.h ****   0x7088681f00000001UL, 0x000000001c110043UL, 0x008020a100000008UL, 0x0008c10028007c00UL,
 653:Model/hand_landmark_ecblobs.h ****   0x3427000028020043UL, 0x280500c300012600UL, 0x0001260000000000UL, 0x0000000000000001UL,
 654:Model/hand_landmark_ecblobs.h ****   0x0010000000000024UL, 0x00000006280c0042UL, 0x280d004300000007UL, 0x3428263f00000003UL,
 655:Model/hand_landmark_ecblobs.h ****   0x0000000028110043UL, 0x0080210100000000UL, 0x0008c18434007c00UL, 0x70885a6034020043UL,
 656:Model/hand_landmark_ecblobs.h ****   0x340500c3000006c0UL, 0x0000000000000000UL, 0x0000000000000000UL, 0x0010000000000024UL,
 657:Model/hand_landmark_ecblobs.h ****   0x00000006340c0042UL, 0x340d004300000007UL, 0x7088615f00000001UL, 0x0000000034110043UL,
 658:Model/hand_landmark_ecblobs.h ****   0x008020e100000008UL, 0x0008000830007c00UL, 0x342e004830020123UL, 0x0090001800380038UL,
 659:Model/hand_landmark_ecblobs.h ****   0x0000001800001f80UL, 0x0006e40000000006UL, 0x0010000000000024UL, 0x00000006300c0042UL,
 660:Model/hand_landmark_ecblobs.h ****   0x300d004300000007UL, 0x3434e48700000003UL, 0x0000000030110043UL, 0x0080208100000000UL,
 661:Model/hand_landmark_ecblobs.h ****   0x0008000824007c00UL, 0x342e000024020123UL, 0x0090001800380038UL, 0x0000001800001f80UL,
 662:Model/hand_landmark_ecblobs.h ****   0x0006e40000000006UL, 0x0010000000000024UL, 0x00000006240c0042UL, 0x240d004300000007UL,
 663:Model/hand_landmark_ecblobs.h ****   0x3434e43f00000003UL, 0x0000000024110043UL, 0x10007c0000000000UL, 0x1000042400000002UL,
 664:Model/hand_landmark_ecblobs.h ****   0x0000000000000064UL, 0x4000000010007c00UL, 0x0000006410007bc4UL, 0x10007c0000000000UL,
 665:Model/hand_landmark_ecblobs.h ****   0x10067c0000000001UL, 0x10097c0000000027UL, 0x100f00430000002bUL, 0x0000000500000007UL,
 666:Model/hand_landmark_ecblobs.h ****   0x0000000b10150043UL, 0x101e7c0000000011UL, 0x10207c000000001bUL, 0x10227c0000000025UL,
 667:Model/hand_landmark_ecblobs.h ****   0x10247c0000000017UL, 0x2400200100000029UL, 0x40007c0030002001UL, 0x48007c0000000055UL,
 668:Model/hand_landmark_ecblobs.h ****   0x5c00200100000055UL, 0x6400200160002001UL, 0x1c00200168002001UL, 0x2800200120002001UL,
 669:Model/hand_landmark_ecblobs.h ****   0x24007fe434002001UL, 0x0000000000000064UL, 0x0000006430007fe4UL, 0x10067c0000000000UL,
 670:Model/hand_landmark_ecblobs.h ****   0x10097c0000000000UL, 0x100f004300000000UL, 0x0000000000000000UL, 0x0000000010150043UL,
 671:Model/hand_landmark_ecblobs.h ****   0x101e7c0000000000UL, 0x10207c0000000000UL, 0x10227c0000000000UL, 0x10247c0000000000UL,
 672:Model/hand_landmark_ecblobs.h ****   0x24007c0000000000UL, 0x2400042400000002UL, 0x0000000000000064UL, 0x4000000024007c00UL,
 673:Model/hand_landmark_ecblobs.h ****   0x0000006424007bc4UL, 0x0080008100000000UL, 0x0000000230007c00UL, 0x0000006430000424UL,
 674:Model/hand_landmark_ecblobs.h ****   0x30007c0000000000UL, 0x30007bc440000000UL, 0x0000000000000064UL, 0x40007c00008000e1UL,
 675:Model/hand_landmark_ecblobs.h ****   0x4000042400000002UL, 0x0000000000000064UL, 0x4000000040007c00UL, 0x0000006440007bc4UL,
 676:Model/hand_landmark_ecblobs.h ****   0x0080016100000000UL, 0x0000000248007c00UL, 0x0000006448000424UL, 0x48007c0000000000UL,
 677:Model/hand_landmark_ecblobs.h ****   0x48007bc440000000UL, 0x0000000000000064UL, 0x5c007c00008001a1UL, 0x5c00042408000002UL,
 678:Model/hand_landmark_ecblobs.h ****   0x0000000000000064UL, 0x480000005c007c00UL, 0x000000645c007bc4UL, 0x0080024100000000UL,
ARM GAS  C:\Users\DJESSOU\AppData\Local\Temp\ccZ709fi.s 			page 36


 679:Model/hand_landmark_ecblobs.h ****   0x0800000260007c00UL, 0x0000006460000424UL, 0x60007c0000000000UL, 0x60007bc448000000UL,
 680:Model/hand_landmark_ecblobs.h ****   0x0000000000000064UL, 0x64007c0000800261UL, 0x6400042408000002UL, 0x0000000000000064UL,
 681:Model/hand_landmark_ecblobs.h ****   0x4800000064007c00UL, 0x0000006464007bc4UL, 0x0080028100000000UL, 0x0800000268007c00UL,
 682:Model/hand_landmark_ecblobs.h ****   0x0000006468000424UL, 0x68007c0000000000UL, 0x68007bc448000000UL, 0x0000000000000064UL,
 683:Model/hand_landmark_ecblobs.h ****   0x1c007c00008002a1UL, 0x1c00042400000002UL, 0x0000000000000064UL, 0x400000001c007c00UL,
 684:Model/hand_landmark_ecblobs.h ****   0x000000641c007bc4UL, 0x0080004100000000UL, 0x0000000220007c00UL, 0x0000006420000424UL,
 685:Model/hand_landmark_ecblobs.h ****   0x20007c0000000000UL, 0x20007bc440000000UL, 0x0000000000000064UL, 0x28007c0000800061UL,
 686:Model/hand_landmark_ecblobs.h ****   0x2800042400000002UL, 0x0000000000000064UL, 0x4000000028007c00UL, 0x0000006428007bc4UL,
 687:Model/hand_landmark_ecblobs.h ****   0x008000a100000000UL, 0x0000000234007c00UL, 0x0000006434000424UL, 0x34007c0000000000UL,
 688:Model/hand_landmark_ecblobs.h ****   0x34007bc440000000UL, 0x0000000000000064UL, 0x0000021d00800101UL, 0x008021410000023dUL,
 689:Model/hand_landmark_ecblobs.h ****   0x001000343c007c00UL, 0x010102053c0200e3UL, 0x1063440400002249UL, 0x0037000000380038UL,
 690:Model/hand_landmark_ecblobs.h ****   0x0000000100370002UL, 0x010000003c0a7c00UL, 0x000000003c0d7c00UL, 0x44007c0000802181UL,
 691:Model/hand_landmark_ecblobs.h ****   0x440200e300100034UL, 0x0000221901010305UL, 0x0038003810634404UL, 0x0037000000370000UL,
 692:Model/hand_landmark_ecblobs.h ****   0x440a7c0000000001UL, 0x440d7c0000000000UL, 0x0080224100000000UL, 0x080000005c000042UL,
 693:Model/hand_landmark_ecblobs.h ****   0x5c027c0009000160UL, 0x5c07004300000000UL, 0x0000000100000001UL, 0x000000005c0c0043UL,
 694:Model/hand_landmark_ecblobs.h ****   0x0080226120422042UL, 0x0800000060000042UL, 0x60020123156000fcUL, 0x0000000000080000UL,
 695:Model/hand_landmark_ecblobs.h ****   0x0000030f00000000UL, 0x000000000001b8ffUL, 0x05c4020000000000UL, 0x600c004300000001UL,
 696:Model/hand_landmark_ecblobs.h ****   0x2042204200000000UL, 0x00000001600b7c00UL, 0xff7f0ad261002403UL, 0xff7f22c60000a202UL,
 697:Model/hand_landmark_ecblobs.h ****   0x006f1a040000d8e1UL, 0xff7f00010000106cUL, 0x00010c360000ff09UL, 0xff78066d0000a851UL,
 698:Model/hand_landmark_ecblobs.h ****   0xff800001000083afUL, 0xff7f0c5f0000785cUL, 0xff780e670000b124UL, 0xff9d20da0000c64cUL,
 699:Model/hand_landmark_ecblobs.h ****   0xff832b6f0000480cUL, 0xff7c076d0000f9f6UL, 0xff680d430000055bUL, 0xff860c4f0000f783UL,
 700:Model/hand_landmark_ecblobs.h ****   0xffa3331600009174UL, 0xffc50b1600005254UL, 0xfff70dca0000252aUL, 0xff7f0b1600009cf4UL,
 701:Model/hand_landmark_ecblobs.h ****   0xffc107ca000047afUL, 0xff86180c0000e861UL, 0xff7a0e9f000043a6UL, 0xffdc04b100005b28UL,
 702:Model/hand_landmark_ecblobs.h ****   0xff9221430000cd94UL, 0x00290c0a000023e7UL, 0xff810fb30000160cUL, 0xffed351a00000ed6UL,
 703:Model/hand_landmark_ecblobs.h ****   0x0004184900009352UL, 0xff7f0e9f000065a5UL, 0xff882dcc00003608UL, 0xffbc0e220000517bUL,
 704:Model/hand_landmark_ecblobs.h ****   0xff751ca90000d865UL, 0xff8f3a4d0000adc6UL, 0xff8019e4000045b0UL, 0xff8007ea0000761fUL,
 705:Model/hand_landmark_ecblobs.h ****   0xffe80c430000b20dUL, 0xffb8079e00006c96UL, 0xff7c051d0000dc4dUL, 0xff7f0a0600008393UL,
 706:Model/hand_landmark_ecblobs.h ****   0x003c0aca00003c8aUL, 0xff950c180000c22aUL, 0xff9214bd0000152aUL, 0xff60070f000078c1UL,
 707:Model/hand_landmark_ecblobs.h ****   0x005625dc00008f5aUL, 0xff801679000029deUL, 0xffcd0ae0000036c6UL, 0xff983de400003d09UL,
 708:Model/hand_landmark_ecblobs.h ****   0xff5608ce0000215fUL, 0xffc70953000029deUL, 0xff8712e200008d9fUL, 0xffa008ee0000bd6bUL,
 709:Model/hand_landmark_ecblobs.h ****   0x02092912000054bfUL, 0xffac5e8d000073ffUL, 0xffd608360000c854UL, 0xff8120c200003e8bUL,
 710:Model/hand_landmark_ecblobs.h ****   0x00025dab00002ae5UL, 0xff7a0b5300002ad9UL, 0xff804069000095a9UL, 0xff700c6d0000a50cUL,
 711:Model/hand_landmark_ecblobs.h ****   0x00d9141c0000d205UL, 0xff75464d0000fa81UL, 0xfeed0e2600009dcfUL, 0xff8d1b970000535dUL,
 712:Model/hand_landmark_ecblobs.h ****   0xff7e20c20000d7a9UL, 0xff68222c0000a3f7UL, 0xff8617160000ec4dUL, 0xff920e6700004bbbUL,
 713:Model/hand_landmark_ecblobs.h ****   0xff7e156300003db5UL, 0xff4f2091000089bfUL, 0xff80075500005b38UL, 0xff4f05f90000929dUL,
 714:Model/hand_landmark_ecblobs.h ****   0xff460b5700002674UL, 0xff8e0d02000064c1UL, 0xffd42a7500001f60UL, 0xff7f1bf00000ff0dUL,
 715:Model/hand_landmark_ecblobs.h ****   0xff7d09f40000c661UL, 0xffd103a300009aa9UL, 0xff8109200000ae18UL, 0xff8b2d7b000004a9UL,
 716:Model/hand_landmark_ecblobs.h ****   0xff510e120000646cUL, 0xffb130510000443fUL, 0xffb9105500005a5cUL, 0xfffd24a90000c57fUL,
 717:Model/hand_landmark_ecblobs.h ****   0xff7126de00000320UL, 0xff7f20b1000089ffUL, 0xffd518a10000d30cUL, 0xff6a07520000d4f8UL,
 718:Model/hand_landmark_ecblobs.h ****   0xff130c4300009032UL, 0xffd20ef00000ec99UL, 0xff8a20e200006d53UL, 0xff8a18d200006d99UL,
 719:Model/hand_landmark_ecblobs.h ****   0xff8c14550000c78dUL, 0xff3814c200002e39UL, 0xff721be800001d4bUL, 0xff5905d000009263UL,
 720:Model/hand_landmark_ecblobs.h ****   0xff891f0e000001c0UL, 0xff99121000009b2dUL, 0xffdd36b5000066adUL, 0xff670e5d000022b7UL,
 721:Model/hand_landmark_ecblobs.h ****   0xff81124100003dc7UL, 0xff8f15d400006d0aUL, 0xffc307e500008061UL, 0xff240f2400009becUL,
 722:Model/hand_landmark_ecblobs.h ****   0x003f447900005bc7UL, 0xff8026c60000e8faUL, 0xff740b510000efe6UL, 0xff8e0b430000865aUL,
 723:Model/hand_landmark_ecblobs.h ****   0xffc21f4300008c31UL, 0xff973d630000f235UL, 0xff803abd00002f3dUL, 0xff4116340000631fUL,
 724:Model/hand_landmark_ecblobs.h ****   0xff600e1000007eb8UL, 0xff6211e80000a4abUL, 0xff8a1122000068d9UL, 0xff82165d000032c5UL,
 725:Model/hand_landmark_ecblobs.h ****   0xff820c550000dc5cUL, 0xff8d0af400005b6fUL, 0xff8308e80000aa09UL, 0xff7d0b5100008bceUL,
 726:Model/hand_landmark_ecblobs.h ****   0xff8012ad0000e95eUL, 0xff53067f0000255aUL, 0xff4c0bbb000037aaUL, 0xffb608a5000093a5UL,
 727:Model/hand_landmark_ecblobs.h ****   0xff850d410000344cUL, 0xff8012f20000c3f0UL, 0xff821c750000ef2dUL, 0xff2a0ac80000d76cUL,
 728:Model/hand_landmark_ecblobs.h ****   0xff950baf000055b9UL, 0xff56250a0000300cUL, 0xff8a20410000e430UL, 0xffba69630000c993UL,
 729:Model/hand_landmark_ecblobs.h ****   0xff831f870000a2e4UL, 0xff5e04d200001628UL, 0xff7f0fb30000f11cUL, 0xff630a5d000032e8UL,
 730:Model/hand_landmark_ecblobs.h ****   0xff570a5b0000a209UL, 0xffb8223c0000cdbcUL, 0xff5a17ab000026eeUL, 0xff8106e5000030bdUL,
 731:Model/hand_landmark_ecblobs.h ****   0xff7f25ec000019c7UL, 0xff832ade00002136UL, 0xff7e09e000004bedUL, 0xffa709590000ccabUL,
 732:Model/hand_landmark_ecblobs.h ****   0xff9a2aa50000b85cUL, 0xff82323c000064acUL, 0x008022810000d86cUL, 0x0800000064000042UL,
 733:Model/hand_landmark_ecblobs.h ****   0x64027c0015000000UL, 0x6407004300070000UL, 0x0000002000004000UL, 0x00000000640c0043UL,
 734:Model/hand_landmark_ecblobs.h ****   0x0080210110411041UL, 0x0008000034007c00UL, 0x342e000034020123UL, 0x0090000100380038UL,
 735:Model/hand_landmark_ecblobs.h ****   0x0000000000001f80UL, 0x0000000100000001UL, 0x0010000000000024UL, 0x00000006340c0042UL,
ARM GAS  C:\Users\DJESSOU\AppData\Local\Temp\ccZ709fi.s 			page 37


 736:Model/hand_landmark_ecblobs.h ****   0x340d004300000007UL, 0x3434e43f00000090UL, 0x0000000034110043UL, 0x0080212100000000UL,
 737:Model/hand_landmark_ecblobs.h ****   0x0008018438007c00UL, 0x70886de038020043UL, 0x380500c3000005a0UL, 0x0000000000000000UL,
 738:Model/hand_landmark_ecblobs.h ****   0x0000000000000000UL, 0x0010000000000024UL, 0x00000006380c0042UL, 0x380d004300000007UL,
 739:Model/hand_landmark_ecblobs.h ****   0x708873bf00000001UL, 0x0000000038110043UL, 0x0080206100000008UL, 0x0008000020007c00UL,
 740:Model/hand_landmark_ecblobs.h ****   0x342e000020020123UL, 0x0090000100380038UL, 0x0000000000001f80UL, 0x0000000100000001UL,
 741:Model/hand_landmark_ecblobs.h ****   0x0010000000000024UL, 0x00000006200c0042UL, 0x200d004300000007UL, 0x3434e43f00000090UL,
 742:Model/hand_landmark_ecblobs.h ****   0x0000000020110043UL, 0x0080208100000000UL, 0x0008018424007c00UL, 0x7088447024020043UL,
 743:Model/hand_landmark_ecblobs.h ****   0x240500c300000870UL, 0x0000000000000000UL, 0x0000000000000000UL, 0x0010000000000024UL,
 744:Model/hand_landmark_ecblobs.h ****   0x00000006240c0042UL, 0x240d004300000007UL, 0x70884d1f00000001UL, 0x0000000024110043UL,
 745:Model/hand_landmark_ecblobs.h ****   0x008020e100000008UL, 0x0008000830007c00UL, 0x3427000030020123UL, 0x00900001001c001cUL,
 746:Model/hand_landmark_ecblobs.h ****   0x0000000100000fc0UL, 0x0001b90000000090UL, 0x0010000000000024UL, 0x00000006300c0042UL,
 747:Model/hand_landmark_ecblobs.h ****   0x300d004300000007UL, 0x3428b93f00000090UL, 0x0000000030110043UL, 0x10007c0000000000UL,
 748:Model/hand_landmark_ecblobs.h ****   0x1000042400000002UL, 0x0000000000000064UL, 0x4000000010007c00UL, 0x0000006410007bc4UL,
 749:Model/hand_landmark_ecblobs.h ****   0x10007c0000000000UL, 0x10097c0000000001UL, 0x100c004300000029UL, 0x0000001300000011UL,
 750:Model/hand_landmark_ecblobs.h ****   0x0000000710120043UL, 0x101e006300000009UL, 0x0000001500000019UL, 0x10227c0000000025UL,
 751:Model/hand_landmark_ecblobs.h ****   0x3000200100000027UL, 0x001000353c007c00UL, 0x0010003544007c00UL, 0x600020015c002001UL,
 752:Model/hand_landmark_ecblobs.h ****   0x2000200164002001UL, 0x3400200124002001UL, 0x30007fe438002001UL, 0x0000000000000064UL,
 753:Model/hand_landmark_ecblobs.h ****   0x0000000010097c00UL, 0x00000000100c0043UL, 0x1012004300000000UL, 0x0000000000000000UL,
 754:Model/hand_landmark_ecblobs.h ****   0x00000000101e0063UL, 0x0000000000000000UL, 0x0000000010227c00UL, 0x0000000230007c00UL,
 755:Model/hand_landmark_ecblobs.h ****   0x0000006430000424UL, 0x30007c0000000000UL, 0x30007bc440000000UL, 0x0000000000000064UL,
 756:Model/hand_landmark_ecblobs.h ****   0x3c007c00008000e1UL, 0x3c00042400000002UL, 0x0000000000000064UL, 0x400000003c007c00UL,
 757:Model/hand_landmark_ecblobs.h ****   0x000000643c007bc4UL, 0x0080014100000000UL, 0x0000000244007c00UL, 0x0000006444000424UL,
 758:Model/hand_landmark_ecblobs.h ****   0x44007c0000000000UL, 0x44007bc440000000UL, 0x0000000000000064UL, 0x5c007c0000800181UL,
 759:Model/hand_landmark_ecblobs.h ****   0x5c00042408000002UL, 0x0000000000000064UL, 0x480000005c007c00UL, 0x000000645c007bc4UL,
 760:Model/hand_landmark_ecblobs.h ****   0x0080024100000000UL, 0x0800000260007c00UL, 0x0000006460000424UL, 0x60007c0000000000UL,
 761:Model/hand_landmark_ecblobs.h ****   0x60007bc448000000UL, 0x0000000000000064UL, 0x64007c0000800261UL, 0x6400042408000002UL,
 762:Model/hand_landmark_ecblobs.h ****   0x0000000000000064UL, 0x4800000064007c00UL, 0x0000006464007bc4UL, 0x0080028100000000UL,
 763:Model/hand_landmark_ecblobs.h ****   0x0000000220007c00UL, 0x0000006420000424UL, 0x20007c0000000000UL, 0x20007bc440000000UL,
 764:Model/hand_landmark_ecblobs.h ****   0x0000000000000064UL, 0x24007c0000800061UL, 0x2400042400000002UL, 0x0000000000000064UL,
 765:Model/hand_landmark_ecblobs.h ****   0x4000000024007c00UL, 0x0000006424007bc4UL, 0x0080008100000000UL, 0x0000000234007c00UL,
 766:Model/hand_landmark_ecblobs.h ****   0x0000006434000424UL, 0x34007c0000000000UL, 0x34007bc440000000UL, 0x0000000000000064UL,
 767:Model/hand_landmark_ecblobs.h ****   0x38007c0000800101UL, 0x3800042400000002UL, 0x0000000000000064UL, 0x4000000038007c00UL,
 768:Model/hand_landmark_ecblobs.h ****   0x0000006438007bc4UL, 0x0080012100000000UL, 0x008021610000025dUL, 0x10d0003440007c00UL,
 769:Model/hand_landmark_ecblobs.h ****   0x14480101400200e3UL, 0x1077400400001100UL, 0x07df0000001c07e0UL, 0x00130028001b0000UL,
 770:Model/hand_landmark_ecblobs.h ****   0x00000000400a7c00UL, 0x00000000400d7c00UL, 0x48007c00008021a1UL, 0x480200e310d00020UL,
 771:Model/hand_landmark_ecblobs.h ****   0x0000110014480101UL, 0x001c07e010634400UL, 0x001b000007df0000UL, 0x480a7c0000271428UL,
 772:Model/hand_landmark_ecblobs.h ****   0x480d7c0000000000UL, 0x008022a100000000UL, 0x0800000068000042UL, 0x68020123156000fcUL,
 773:Model/hand_landmark_ecblobs.h ****   0x00000000000a0000UL, 0x00003d3f00000013UL, 0x0000000000007a7fUL, 0x076403ed00000000UL,
 774:Model/hand_landmark_ecblobs.h ****   0x680c004300000001UL, 0x2042204200000000UL, 0x00000001680b7c00UL, 0xfdad414669000a03UL,
 775:Model/hand_landmark_ecblobs.h ****   0x0181495f0000df50UL, 0x018966710000711cUL, 0x011f3b8a000084dbUL, 0x00a155ce000098f9UL,
 776:Model/hand_landmark_ecblobs.h ****   0xfdcc4ea00000241dUL, 0x00894e1a0000cd07UL, 0x009c4bb100007c49UL, 0xff8b520b00004d13UL,
 777:Model/hand_landmark_ecblobs.h ****   0xff5762da00009b34UL, 0x012c48ce0000e95cUL, 0x008d497600000d3bUL, 0xff1a413b00001025UL,
 778:Model/hand_landmark_ecblobs.h ****   0xfe8336b900007a24UL, 0x00d7501d00008e71UL, 0x00b1511f0000997fUL, 0x01b15055000086a8UL,
 779:Model/hand_landmark_ecblobs.h ****   0xff6c5c330000a855UL, 0xfdfb3be4000061deUL, 0xfe1043f20000a3c7UL, 0xff5c42800000678bUL,
 780:Model/hand_landmark_ecblobs.h ****   0x001c42050000782fUL, 0xff465e36000057e0UL, 0x00314d720000c560UL, 0x013f49c400009264UL,
 781:Model/hand_landmark_ecblobs.h ****   0x00b55d990000aac7UL, 0x002e4e52000070e9UL, 0xffa85a020000729cUL, 0xff6244b000002d4dUL,
 782:Model/hand_landmark_ecblobs.h ****   0xff504f7500008626UL, 0xff3a417e00003a2eUL, 0xfff938f5000034a7UL, 0xff493f590000160aUL,
 783:Model/hand_landmark_ecblobs.h ****   0xfec442ce00004eb8UL, 0xfca33f2c0000f8b2UL, 0x01cd3ce500001e70UL, 0x00d34f540000d1fcUL,
 784:Model/hand_landmark_ecblobs.h ****   0xffb1586f0000e5e4UL, 0xff8046b40000ebe8UL, 0x017c40c00000dbf9UL, 0x00802121000021d8UL,
 785:Model/hand_landmark_ecblobs.h ****   0x0888020038007c00UL, 0x3427000038020123UL, 0x00900018001c001cUL, 0x0000000000000fc0UL,
 786:Model/hand_landmark_ecblobs.h ****   0x0000009000000002UL, 0x0010000000000024UL, 0x00000006380c0042UL, 0x380d004300000007UL,
 787:Model/hand_landmark_ecblobs.h ****   0x3428b93f00000002UL, 0x0000000038110043UL, 0x0080200100000000UL, 0x0888018414007c00UL,
 788:Model/hand_landmark_ecblobs.h ****   0x70877cc014020043UL, 0x140500c300000780UL, 0x0000000000000000UL, 0x0000000000000000UL,
 789:Model/hand_landmark_ecblobs.h ****   0x0010000000000024UL, 0x00000006140c0042UL, 0x140d004300000007UL, 0x7087937f00000001UL,
 790:Model/hand_landmark_ecblobs.h ****   0x0000000014110043UL, 0x0080204100000008UL, 0x088802001c007c00UL, 0x342700481c020123UL,
 791:Model/hand_landmark_ecblobs.h ****   0x00900018001c001cUL, 0x0000000000000fc0UL, 0x0000009000000002UL, 0x0010000000000024UL,
 792:Model/hand_landmark_ecblobs.h ****   0x000000061c0c0042UL, 0x1c0d004300000007UL, 0x3428b93f00000002UL, 0x000000001c110043UL,
ARM GAS  C:\Users\DJESSOU\AppData\Local\Temp\ccZ709fi.s 			page 38


 793:Model/hand_landmark_ecblobs.h ****   0x008020e100000000UL, 0x0008010830007c00UL, 0x3433be0030020043UL, 0x300500c300003d40UL,
 794:Model/hand_landmark_ecblobs.h ****   0x00003d4000000000UL, 0x0000000000000000UL, 0x0010000000000024UL, 0x00000006300c0042UL,
 795:Model/hand_landmark_ecblobs.h ****   0x300d004300000007UL, 0x343438bf00000002UL, 0x0000000030110043UL, 0x10007c0000000000UL,
 796:Model/hand_landmark_ecblobs.h ****   0x1000042400000002UL, 0x0000000000000064UL, 0x4000000010007c00UL, 0x0000006410007bc4UL,
 797:Model/hand_landmark_ecblobs.h ****   0x10007c0000000000UL, 0x10097c0000000001UL, 0x100f00430000002bUL, 0x0000000100000013UL,
 798:Model/hand_landmark_ecblobs.h ****   0x0000000510150063UL, 0x0000001700000001UL, 0x0000001b10247c00UL, 0x40007c0030002001UL,
 799:Model/hand_landmark_ecblobs.h ****   0x48007c0010d00035UL, 0x6800200110d00021UL, 0x1c00200114002001UL, 0x30007fe438002001UL,
 800:Model/hand_landmark_ecblobs.h ****   0x0000000000000064UL, 0x0000000010097c00UL, 0x00000000100f0043UL, 0x1015006300000000UL,
 801:Model/hand_landmark_ecblobs.h ****   0x0000000000000000UL, 0x10247c0000000000UL, 0x30007c0000000000UL, 0x3000042400000002UL,
 802:Model/hand_landmark_ecblobs.h ****   0x0000000000000064UL, 0x4000000030007c00UL, 0x0000006430007bc4UL, 0x008000e100000000UL,
 803:Model/hand_landmark_ecblobs.h ****   0x0000000240007c00UL, 0x0000006440000424UL, 0x40007c0000000000UL, 0x40007bc440000000UL,
 804:Model/hand_landmark_ecblobs.h ****   0x0000000000000064UL, 0x48007c0000800161UL, 0x4800042400000002UL, 0x0000000000000064UL,
 805:Model/hand_landmark_ecblobs.h ****   0x4000000048007c00UL, 0x0000006448007bc4UL, 0x008001a100000000UL, 0x0800000268007c00UL,
 806:Model/hand_landmark_ecblobs.h ****   0x0000006468000424UL, 0x68007c0000000000UL, 0x68007bc448000000UL, 0x0000000000000064UL,
 807:Model/hand_landmark_ecblobs.h ****   0x14007c00008002a1UL, 0x1400042400000002UL, 0x0000000000000064UL, 0x4000000014007c00UL,
 808:Model/hand_landmark_ecblobs.h ****   0x0000006414007bc4UL, 0x0080000100000000UL, 0x000000021c007c00UL, 0x000000641c000424UL,
 809:Model/hand_landmark_ecblobs.h ****   0x1c007c0000000000UL, 0x1c007bc440000000UL, 0x0000000000000064UL, 0x38007c0000800041UL,
 810:Model/hand_landmark_ecblobs.h ****   0x3800042400000002UL, 0x0000000000000064UL, 0x4000000038007c00UL, 0x0000006438007bc4UL,
 811:Model/hand_landmark_ecblobs.h ****   0x0080012100000000UL, 0x008021410000027dUL, 0x000000543c007c00UL, 0x181401013c0200e3UL,
 812:Model/hand_landmark_ecblobs.h ****   0x10b7400300001100UL, 0x022f0000001c0230UL, 0x00170030001b0000UL, 0x000000003c0a7c00UL,
 813:Model/hand_landmark_ecblobs.h ****   0x00fffffb3c0c0043UL, 0x0080218100000000UL, 0x0000004044007c00UL, 0x18140101440200e3UL,
 814:Model/hand_landmark_ecblobs.h ****   0x10a3430000001100UL, 0x022f0000001c0230UL, 0x002f1830001b0000UL, 0x00000000440a7c00UL,
 815:Model/hand_landmark_ecblobs.h ****   0x00fffffb440c0043UL, 0x0080224100000000UL, 0x080000005c000042UL, 0x5c020123156000fcUL,
 816:Model/hand_landmark_ecblobs.h ****   0x0000000000090000UL, 0x0000497f00000017UL, 0x000000000002deffUL, 0x044403e900000000UL,
 817:Model/hand_landmark_ecblobs.h ****   0x5c0c004300000001UL, 0x2042204200000000UL, 0x000000015c0b7c00UL, 0xfe1722265d003c03UL,
 818:Model/hand_landmark_ecblobs.h ****   0xfe4c17d100006d38UL, 0xfe2724700000f21aUL, 0xfdd02413000011d1UL, 0xfdb223650000e649UL,
 819:Model/hand_landmark_ecblobs.h ****   0xfdda23ab0000ccc9UL, 0xfe213dc50000fe33UL, 0xfe142c010000162fUL, 0xfe1c30440000068eUL,
 820:Model/hand_landmark_ecblobs.h ****   0xfdf4370400007e02UL, 0xfe79181c0000d9faUL, 0xfe59260c0000717bUL, 0xfe56186d0000d1a3UL,
 821:Model/hand_landmark_ecblobs.h ****   0xfe003c230000bf26UL, 0xfdec421300005a35UL, 0xfea42c6f00008b96UL, 0xfdf3255e0000c435UL,
 822:Model/hand_landmark_ecblobs.h ****   0xfdde3ba4000097eeUL, 0xfe28215b0000e3b0UL, 0xfe360dd300004af8UL, 0xfdea25ef00007e28UL,
 823:Model/hand_landmark_ecblobs.h ****   0xfe8d33fb00005471UL, 0xfe7b373300007334UL, 0xfe3f1fe80000712eUL, 0xfe255e1500000bbcUL,
 824:Model/hand_landmark_ecblobs.h ****   0xfe7e19160000ab6fUL, 0xfde72ef300001812UL, 0xfea3137d00004f49UL, 0xfe7815ac00008754UL,
 825:Model/hand_landmark_ecblobs.h ****   0xfe4027ad00001dbcUL, 0xfe352a9a00003e08UL, 0xfe6a1d6400004a9cUL, 0xfe2829fd00006bf5UL,
 826:Model/hand_landmark_ecblobs.h ****   0xfd9b1dc0000014d5UL, 0xfe6f213e00001071UL, 0xfde82baa0000650cUL, 0xfd953eb90000557fUL,
 827:Model/hand_landmark_ecblobs.h ****   0xfe3e1f2200009356UL, 0xfe461aa00000a9e1UL, 0xfe36459c0000053bUL, 0xfde21cb6000047e6UL,
 828:Model/hand_landmark_ecblobs.h ****   0xfe5b0e01000047f4UL, 0xfe6a1b4800004f78UL, 0xfe5117f90000eab7UL, 0xfded39df0000e20eUL,
 829:Model/hand_landmark_ecblobs.h ****   0xfe0c2c470000cd45UL, 0xfe5b29490000dd14UL, 0xfe5020790000cdd7UL, 0xfe581b20000039f5UL,
 830:Model/hand_landmark_ecblobs.h ****   0xfd9f258c0000125aUL, 0xfe631d0700000d8fUL, 0xfdf82e34000032daUL, 0xfde7214f0000430eUL,
 831:Model/hand_landmark_ecblobs.h ****   0xfde93eb900002e37UL, 0xfe6c1a3200003ebdUL, 0xfe02546200003e65UL, 0xfe711ac300004eb0UL,
 832:Model/hand_landmark_ecblobs.h ****   0xfdd4360500004d73UL, 0xfe7919330000df9bUL, 0xfe511e0000009b5bUL, 0xfe64219b00004213UL,
 833:Model/hand_landmark_ecblobs.h ****   0xfe1c38c90000304bUL, 0xfe352d1d0000f268UL, 0xfdbb27b30000f2daUL, 0xfe311a4f000065f3UL,
 834:Model/hand_landmark_ecblobs.h ****   0xfe3c4fb70000b9a2UL, 0xfe4e1c3c0000a4b8UL, 0xfe5967540000866eUL, 0xfe0c2a7700000c99UL,
 835:Model/hand_landmark_ecblobs.h ****   0xfdf23ff20000a5dfUL, 0xfe271b94000072f9UL, 0xfe0d4e6700006998UL, 0xfdcf40ac0000217bUL,
 836:Model/hand_landmark_ecblobs.h ****   0xfdf23d970000afd0UL, 0xfdfc1d4100009670UL, 0xfe293df30000df2fUL, 0xfda01a5a000042a9UL,
 837:Model/hand_landmark_ecblobs.h ****   0xfe47434100001f77UL, 0xfe582b8200006c86UL, 0xfe1f3b2400007a72UL, 0xfdec354c00004da6UL,
 838:Model/hand_landmark_ecblobs.h ****   0xfde23d45000038f5UL, 0xfdd426d100002467UL, 0xfe794a0d00002e40UL, 0xfddb2e7f0000c796UL,
 839:Model/hand_landmark_ecblobs.h ****   0xfd91223d0000b829UL, 0xfe002fdb0000edb2UL, 0xfe3d2b7c000065b2UL, 0xfe6d17a200002b87UL,
 840:Model/hand_landmark_ecblobs.h ****   0xfdba28f800006622UL, 0xfe3b444c0000b9ceUL, 0xfe2f13b10000b12dUL, 0xfe7f16c00000307fUL,
 841:Model/hand_landmark_ecblobs.h ****   0xfe0f2fa1000014b6UL, 0xfde82e5700001801UL, 0xfdf829150000e03bUL, 0xfd93377800009e3eUL,
 842:Model/hand_landmark_ecblobs.h ****   0xfe3b1ae00000afb1UL, 0xfe601d640000adf8UL, 0xfe08546e00006063UL, 0xfdef33f0000009f7UL,
 843:Model/hand_landmark_ecblobs.h ****   0xfe2e31370000e59cUL, 0xfdf12b2500005b51UL, 0xfe393a25000081a4UL, 0xfdd822d40000596fUL,
 844:Model/hand_landmark_ecblobs.h ****   0xfe76184a00003942UL, 0xfe25005f00005f04UL, 0xfe272cf500008a4eUL, 0xfe1339310000edfaUL,
 845:Model/hand_landmark_ecblobs.h ****   0xfe70341200004c02UL, 0xfdbd14ed0000e3b6UL, 0xfe1322fc0000e16fUL, 0xfdc52c240000a0e7UL,
 846:Model/hand_landmark_ecblobs.h ****   0xfde52fd000004490UL, 0xfda12a54000092a9UL, 0xfe2b54f9000086dcUL, 0xfe551bdf0000c5d5UL,
 847:Model/hand_landmark_ecblobs.h ****   0xfddd3c0c0000e9dbUL, 0xfe221bd9000039edUL, 0xfdef3b980000e7e6UL, 0xfe7e390f000087b0UL,
 848:Model/hand_landmark_ecblobs.h ****   0xfda2283e000057fbUL, 0xfe951d4100005e17UL, 0xfe2b3fc40000d2e7UL, 0xfe5f12af000066daUL,
 849:Model/hand_landmark_ecblobs.h ****   0xfe7e10e20000600aUL, 0xfe3c2e620000ea3dUL, 0xfe1129720000447bUL, 0xfe5e06720000fd7dUL,
ARM GAS  C:\Users\DJESSOU\AppData\Local\Temp\ccZ709fi.s 			page 39


 850:Model/hand_landmark_ecblobs.h ****   0xfe5f25cc0000b694UL, 0xfe0852b500007327UL, 0xfda628b200006663UL, 0xfd9e493100009951UL,
 851:Model/hand_landmark_ecblobs.h ****   0xfe0549820000f911UL, 0xfde6283e0000a295UL, 0xfe4e277f00008896UL, 0xfdcb2fdb0000334bUL,
 852:Model/hand_landmark_ecblobs.h ****   0xfdf032650000a216UL, 0xfe32261d0000e433UL, 0xfde5276d0000570fUL, 0xfe0a2df40000d151UL,
 853:Model/hand_landmark_ecblobs.h ****   0xfdf553060000359aUL, 0xfe4f1473000041d0UL, 0xfdce5c7f0000a4dbUL, 0xfe39590d00005d58UL,
 854:Model/hand_landmark_ecblobs.h ****   0xfdcb24fb00009216UL, 0xfe8b23b0000000d8UL, 0xfe4d285500003332UL, 0xfeae2027000051e0UL,
 855:Model/hand_landmark_ecblobs.h ****   0xfe581e29000079b5UL, 0xfe5b143c0000a741UL, 0xfe2a30950000a3e2UL, 0xfe254e950000a0baUL,
 856:Model/hand_landmark_ecblobs.h ****   0xfdac5f14000086cbUL, 0xfe044c8000006f27UL, 0xfe6714f00000f7c9UL, 0xfe1c444c00006df1UL,
 857:Model/hand_landmark_ecblobs.h ****   0xfe045c0b00003ed0UL, 0xfe341b5a00000b7bUL, 0xfe1823b000000ae1UL, 0xfe163f210000c7abUL,
 858:Model/hand_landmark_ecblobs.h ****   0xfdd41dcc0000fed0UL, 0xfe0f376100008a73UL, 0xfe472ef30000e66bUL, 0xfe473e160000c162UL,
 859:Model/hand_landmark_ecblobs.h ****   0xfe3622a50000c201UL, 0xfe930e58000033e1UL, 0xfda5267a0000eac2UL, 0xfe8e17e20000724dUL,
 860:Model/hand_landmark_ecblobs.h ****   0xfdff4f7200009c56UL, 0xfe62265d000007bcUL, 0xfe830ff400005c38UL, 0xfe5032fc0000a736UL,
 861:Model/hand_landmark_ecblobs.h ****   0xfdb32436000002c8UL, 0xfe032eb90000959aUL, 0xfdde3ef30000e6b9UL, 0xfdff3efe0000ed7aUL,
 862:Model/hand_landmark_ecblobs.h ****   0xfddf21ac00007a23UL, 0xfdcd33d80000d730UL, 0xfe3017c500001df3UL, 0xfe6f2183000003f8UL,
 863:Model/hand_landmark_ecblobs.h ****   0xfe7417bf0000d0a5UL, 0xfde3346f00003543UL, 0xfe631fa800006d71UL, 0xfe012eb900005b0fUL,
 864:Model/hand_landmark_ecblobs.h ****   0xfe3b2a2000002406UL, 0xfdeb2eb900009b6eUL, 0xfde41c0200006be0UL, 0xfe4335630000c5b8UL,
 865:Model/hand_landmark_ecblobs.h ****   0xfe3a21a00000b25eUL, 0xfe06206d00001b9dUL, 0xfe731bc200004d2eUL, 0xfea21edd0000a054UL,
 866:Model/hand_landmark_ecblobs.h ****   0xfe3819f80000f231UL, 0xfdfb3e7300005c5cUL, 0xfdbe5235000074e0UL, 0xfe710ee3000016a9UL,
 867:Model/hand_landmark_ecblobs.h ****   0xfe5a15cf0000e2e9UL, 0xfe751a0f00005117UL, 0xfd6d47ec0000c8deUL, 0xfe751fe20000fae9UL,
 868:Model/hand_landmark_ecblobs.h ****   0xfdbd17a2000048ceUL, 0xfe2c304f0000ce84UL, 0xfe4f307e0000d1a4UL, 0xfddd20e100008e5eUL,
 869:Model/hand_landmark_ecblobs.h ****   0xfe481f0b0000f2f7UL, 0xfe860c880000eccdUL, 0xfe431afd0000a348UL, 0xfe5c115300002705UL,
 870:Model/hand_landmark_ecblobs.h ****   0xfe7a327100007826UL, 0xfe263ad30000ec4cUL, 0xfe0f2ff30000eb54UL, 0xfe5f1b9f0000af9aUL,
 871:Model/hand_landmark_ecblobs.h ****   0xfe7328db00007682UL, 0xfe1a498e00009f84UL, 0xfdf83d7f0000a604UL, 0xfe107a740000e9cfUL,
 872:Model/hand_landmark_ecblobs.h ****   0xfdea337b0000ebbdUL, 0xfe3821ec00008840UL, 0xfe5e13f40000c745UL, 0xfe651bce0000371cUL,
 873:Model/hand_landmark_ecblobs.h ****   0xfe731289000099e9UL, 0xfe7b161500007774UL, 0xfe6d3bde000084fbUL, 0xfe5a1655000026a8UL,
 874:Model/hand_landmark_ecblobs.h ****   0xfd8224bb0000baf9UL, 0xfe4f33410000e719UL, 0xfe6f19840000efe2UL, 0xfde71fc50000272aUL,
 875:Model/hand_landmark_ecblobs.h ****   0xfdc0223d00000a88UL, 0xfe7713d400002baaUL, 0xfe7b2878000031ddUL, 0xfe7d0e6f000002a1UL,
 876:Model/hand_landmark_ecblobs.h ****   0xfe3d2ad40000d71fUL, 0xfe01216c00003fd7UL, 0xfe2c278a0000a1c8UL, 0xfe301cbb0000b221UL,
 877:Model/hand_landmark_ecblobs.h ****   0xfdf0567800001b5dUL, 0xfe28258c0000d7b7UL, 0xfe004c970000474aUL, 0x00802261000072e2UL,
 878:Model/hand_landmark_ecblobs.h ****   0x0800000060000042UL, 0x60027c0015000000UL, 0x6007004300070000UL, 0x0000002000004000UL,
 879:Model/hand_landmark_ecblobs.h ****   0x00000000600c0043UL, 0x008020c110411041UL, 0x0008c1002c007c00UL, 0x3433be002c020043UL,
 880:Model/hand_landmark_ecblobs.h ****   0x2c0500c300003d40UL, 0x00007a8000000000UL, 0x0000000000000001UL, 0x0010000000000024UL,
 881:Model/hand_landmark_ecblobs.h ****   0x000000062c0c0042UL, 0x2c0d004300000007UL, 0x343438bf0000000aUL, 0x000000002c110043UL,
 882:Model/hand_landmark_ecblobs.h ****   0x0080202100000000UL, 0x0008c18418007c00UL, 0x708657e018020043UL, 0x180500c300002580UL,
 883:Model/hand_landmark_ecblobs.h ****   0x0000000000000000UL, 0x0000000000000000UL, 0x0010000000000024UL, 0x00000006180c0042UL,
 884:Model/hand_landmark_ecblobs.h ****   0x180d004300000007UL, 0x70867d9f00000001UL, 0x0000000018110043UL, 0x008020e100000008UL,
 885:Model/hand_landmark_ecblobs.h ****   0x0008c10030007c00UL, 0x3433fb4030020043UL, 0x300500c300003d40UL, 0x00007a8000000000UL,
 886:Model/hand_landmark_ecblobs.h ****   0x0000000000000001UL, 0x0010000000000024UL, 0x00000006300c0042UL, 0x300d004300000007UL,
 887:Model/hand_landmark_ecblobs.h ****   0x343438bf0000000aUL, 0x0000000030110043UL, 0x0080206100000000UL, 0x0008000820007c00UL,
 888:Model/hand_landmark_ecblobs.h ****   0x3430df0020020123UL, 0x00f00018001c001cUL, 0x0000001800001a40UL, 0x0002df000000000aUL,
 889:Model/hand_landmark_ecblobs.h ****   0x0010000000000024UL, 0x00000006200c0042UL, 0x200d004300000007UL, 0x3433be3f0000000aUL,
 890:Model/hand_landmark_ecblobs.h ****   0x0000000020110043UL, 0x10007c0000000000UL, 0x1000042400000002UL, 0x0000000000000064UL,
 891:Model/hand_landmark_ecblobs.h ****   0x4000000010007c00UL, 0x0000006410007bc4UL, 0x10007c0000000000UL, 0x10057c0000000001UL,
 892:Model/hand_landmark_ecblobs.h ****   0x100c004300000027UL, 0x000000030000000dUL, 0x0000000f10120063UL, 0x0000001500000003UL,
 893:Model/hand_landmark_ecblobs.h ****   0x00000019101e7c00UL, 0x0000002510207c00UL, 0x3c007c0020002001UL, 0x44007c0000000055UL,
 894:Model/hand_landmark_ecblobs.h ****   0x5c00200100000041UL, 0x1800200160002001UL, 0x300020012c002001UL, 0x0000006420007fe4UL,
 895:Model/hand_landmark_ecblobs.h ****   0x10057c0000000000UL, 0x100c004300000000UL, 0x0000000000000000UL, 0x0000000010120063UL,
 896:Model/hand_landmark_ecblobs.h ****   0x0000000000000000UL, 0x00000000101e7c00UL, 0x0000000010207c00UL, 0x0000000220007c00UL,
 897:Model/hand_landmark_ecblobs.h ****   0x0000006420000424UL, 0x20007c0000000000UL, 0x20007bc440000000UL, 0x0000000000000064UL,
 898:Model/hand_landmark_ecblobs.h ****   0x3c007c0000800061UL, 0x3c00042400000002UL, 0x0000000000000064UL, 0x400000003c007c00UL,
 899:Model/hand_landmark_ecblobs.h ****   0x000000643c007bc4UL, 0x0080014100000000UL, 0x0000000244007c00UL, 0x0000006444000424UL,
 900:Model/hand_landmark_ecblobs.h ****   0x44007c0000000000UL, 0x44007bc440000000UL, 0x0000000000000064UL, 0x5c007c0000800181UL,
 901:Model/hand_landmark_ecblobs.h ****   0x5c00042408000002UL, 0x0000000000000064UL, 0x480000005c007c00UL, 0x000000645c007bc4UL,
 902:Model/hand_landmark_ecblobs.h ****   0x0080024100000000UL, 0x0800000260007c00UL, 0x0000006460000424UL, 0x60007c0000000000UL,
 903:Model/hand_landmark_ecblobs.h ****   0x60007bc448000000UL, 0x0000000000000064UL, 0x18007c0000800261UL, 0x1800042400000002UL,
 904:Model/hand_landmark_ecblobs.h ****   0x0000000000000064UL, 0x4000000018007c00UL, 0x0000006418007bc4UL, 0x0080002100000000UL,
 905:Model/hand_landmark_ecblobs.h ****   0x000000022c007c00UL, 0x000000642c000424UL, 0x2c007c0000000000UL, 0x2c007bc440000000UL,
 906:Model/hand_landmark_ecblobs.h ****   0x0000000000000064UL, 0x30007c00008000c1UL, 0x3000042400000002UL, 0x0000000000000064UL,
ARM GAS  C:\Users\DJESSOU\AppData\Local\Temp\ccZ709fi.s 			page 40


 907:Model/hand_landmark_ecblobs.h ****   0x4000000030007c00UL, 0x0000006430007bc4UL, 0x008000e100000000UL, 0x008021610000029dUL,
 908:Model/hand_landmark_ecblobs.h ****   0x0010003440007c00UL, 0x01010205400200e3UL, 0x106344040000114aUL, 0x001b0000001c001cUL,
 909:Model/hand_landmark_ecblobs.h ****   0x00000001001b0001UL, 0x01000000400a7c00UL, 0x00000000400d7c00UL, 0x48007c00008021a1UL,
 910:Model/hand_landmark_ecblobs.h ****   0x480200e300100034UL, 0x0000112a01010305UL, 0x001c001c10634404UL, 0x001b0000001b0000UL,
 911:Model/hand_landmark_ecblobs.h ****   0x480a7c0000000001UL, 0x480d7c0000000000UL, 0x0080228100000000UL, 0x0800000064000042UL,
 912:Model/hand_landmark_ecblobs.h ****   0x64027c0009000160UL, 0x6407004300000000UL, 0x0000000100000001UL, 0x00000000640c0043UL,
 913:Model/hand_landmark_ecblobs.h ****   0x008022a120422042UL, 0x0800000068000042UL, 0x68020123156000fcUL, 0x0000000000068000UL,
 914:Model/hand_landmark_ecblobs.h ****   0x0000030f00000000UL, 0x000000000002deffUL, 0x0444020000000000UL, 0x680c004300000001UL,
 915:Model/hand_landmark_ecblobs.h ****   0x2042204200000000UL, 0x00000001680b7c00UL, 0xffee01ca69003c03UL, 0xfff903a30000e6bbUL,
 916:Model/hand_landmark_ecblobs.h ****   0xfff2017a00007d2fUL, 0xfff00353000080dcUL, 0xffee095b000064fdUL, 0xffed02d500007145UL,
 917:Model/hand_landmark_ecblobs.h ****   0xffe603370000590aUL, 0xffea01fd00002338UL, 0xfff002a0000059b0UL, 0xffeb01c00000bd12UL,
 918:Model/hand_landmark_ecblobs.h ****   0xffe1041400007883UL, 0xffea03900000fe05UL, 0xffe4038b0000ff96UL, 0xffed019b00003916UL,
 919:Model/hand_landmark_ecblobs.h ****   0xffe802bb00009cbfUL, 0xfff903a5000067a3UL, 0xffe902b900004eacUL, 0xffeb015c0000d4d0UL,
 920:Model/hand_landmark_ecblobs.h ****   0xffeb02ee0000595bUL, 0xfff8082a000032c4UL, 0xffeb036900006504UL, 0xfff801f70000d76cUL,
 921:Model/hand_landmark_ecblobs.h ****   0xfffc020f0000bb4bUL, 0xfff902520000e852UL, 0xffef012f00004ff8UL, 0xffef02d900003e1cUL,
 922:Model/hand_landmark_ecblobs.h ****   0xffef03b00000063aUL, 0xfff704ec00009f72UL, 0xfff1040d0000eaa2UL, 0xfffb013d00001277UL,
 923:Model/hand_landmark_ecblobs.h ****   0xfff202f400004f53UL, 0xffe901ce0000475fUL, 0xffed021e00005eacUL, 0xfff407a10000d025UL,
 924:Model/hand_landmark_ecblobs.h ****   0xffed030600006d0bUL, 0xffee079f0000f4afUL, 0xfff7019c00004aafUL, 0xffe9030a0000f3faUL,
 925:Model/hand_landmark_ecblobs.h ****   0xffe702dd000073ecUL, 0xfff101a3000038cfUL, 0xffe907fd000001ffUL, 0xfff00ab70000be5eUL,
 926:Model/hand_landmark_ecblobs.h ****   0xfff0052e00001f7aUL, 0xffef045c00000fddUL, 0xfff0018c0000e54eUL, 0xffee025800003fddUL,
 927:Model/hand_landmark_ecblobs.h ****   0xfff801c200001250UL, 0xfff103240000e320UL, 0xffe8030200005a60UL, 0xffed04d700009cccUL,
 928:Model/hand_landmark_ecblobs.h ****   0xfff5042c0000d03cUL, 0xffee022c0000556dUL, 0xffee069c00009b74UL, 0xffee034b00004238UL,
 929:Model/hand_landmark_ecblobs.h ****   0xfffb03ab00006950UL, 0xffe7036d00001792UL, 0xffef046400000244UL, 0xfffa025f00002f7cUL,
 930:Model/hand_landmark_ecblobs.h ****   0xfff2048100001f2aUL, 0xfffd01e500002382UL, 0xffee040b0000df59UL, 0xfff103f70000717bUL,
 931:Model/hand_landmark_ecblobs.h ****   0xffef055600003a31UL, 0xffeb097f0000defdUL, 0xffe305dc0000f0c6UL, 0xfff6011c0000a489UL,
 932:Model/hand_landmark_ecblobs.h ****   0xffe3039000008c1dUL, 0xfffa013700002cf5UL, 0xffee034b000062e3UL, 0xfff30265000056f5UL,
 933:Model/hand_landmark_ecblobs.h ****   0xfff1022600007de2UL, 0xfff301f4000073e1UL, 0xffea07520000b8f3UL, 0xfff002d60000a589UL,
 934:Model/hand_landmark_ecblobs.h ****   0xffee02320000e926UL, 0xfff70209000042b6UL, 0xffed07ed0000f6acUL, 0xffee02a90000ad9cUL,
 935:Model/hand_landmark_ecblobs.h ****   0xfff001cc000035beUL, 0xfff001920000378aUL, 0xfff3024b0000da27UL, 0xffeb01e700007b30UL,
 936:Model/hand_landmark_ecblobs.h ****   0xfff0051200006f39UL, 0xfff700e100008e4dUL, 0xffef02dc0000b990UL, 0xffe8043a0000cc8dUL,
 937:Model/hand_landmark_ecblobs.h ****   0xffeb023c0000291fUL, 0xffe90260000030c9UL, 0x0002024e0000965eUL, 0xffef040f00004849UL,
 938:Model/hand_landmark_ecblobs.h ****   0xfff102690000f350UL, 0xffed07770000015bUL, 0xffec070c0000ef6aUL, 0xfff002c800002959UL,
 939:Model/hand_landmark_ecblobs.h ****   0xffe702ed00002e97UL, 0xfff2038500002788UL, 0xffea01ad00006efbUL, 0xffea04af00006440UL,
 940:Model/hand_landmark_ecblobs.h ****   0xfff505ef00007969UL, 0xffed018c0000a0feUL, 0xffea062a0000c4dfUL, 0xfff7014f000021f7UL,
 941:Model/hand_landmark_ecblobs.h ****   0xffed040b000054a1UL, 0xffe702f200004f5fUL, 0xffed053c000070a3UL, 0xffeb080700002b70UL,
 942:Model/hand_landmark_ecblobs.h ****   0x004041930000ad33UL, 0xffee047a0000c48eUL, 0xffef03350000238bUL, 0xfff2033e0000b935UL,
 943:Model/hand_landmark_ecblobs.h ****   0xfff00a41000067f8UL, 0xffef03dc00001ec1UL, 0xffec0bf400002300UL, 0xfff5025200002526UL,
 944:Model/hand_landmark_ecblobs.h ****   0xffee023a0000db75UL, 0xfff1012700000841UL, 0xffea07ca0000a4aeUL, 0xffec037b00001b30UL,
 945:Model/hand_landmark_ecblobs.h ****   0xfff003f3000026a2UL, 0xffe8025900005239UL, 0xfff401c500005f99UL, 0xffed07660000bc90UL,
 946:Model/hand_landmark_ecblobs.h ****   0xfff3033300006549UL, 0xffeb0397000057e2UL, 0xffe4078e00002b82UL, 0xfff10bd20000b887UL,
 947:Model/hand_landmark_ecblobs.h ****   0xfff601eb00005602UL, 0xfff6027900001ddaUL, 0xfffb0fa5000055aaUL, 0xfff405cb00005450UL,
 948:Model/hand_landmark_ecblobs.h ****   0xfff7010600001e62UL, 0xffef06a500005f3dUL, 0xffe903a700005e03UL, 0xffe7017d00008a8bUL,
 949:Model/hand_landmark_ecblobs.h ****   0xfff0047f000017a6UL, 0xffe601c600001d39UL, 0xffec02d30000a2bbUL, 0xffea049c00006658UL,
 950:Model/hand_landmark_ecblobs.h ****   0xffef02bb0000e063UL, 0xffee033f00007495UL, 0xffef02f7000096a8UL, 0xfff0028f000038d1UL,
 951:Model/hand_landmark_ecblobs.h ****   0xffec05110000766cUL, 0xffee010b00008d67UL, 0xffee02430000976fUL, 0xffe80a180000d1beUL,
 952:Model/hand_landmark_ecblobs.h ****   0xffec050400000520UL, 0xffef037600001489UL, 0xffef039c0000cba0UL, 0xffeb023e00009545UL,
 953:Model/hand_landmark_ecblobs.h ****   0xffeb03dc000003abUL, 0xffee030700004631UL, 0xffea01c4000090b8UL, 0xfffb011a00001f46UL,
 954:Model/hand_landmark_ecblobs.h ****   0xfff601170000a9a7UL, 0xffe903c60000d91dUL, 0xfff80181000019afUL, 0xfff60087000003efUL,
 955:Model/hand_landmark_ecblobs.h ****   0xfffc04080000cbdaUL, 0xffeb039900008387UL, 0xffe901d7000007bbUL, 0xfff0128900002ae6UL,
 956:Model/hand_landmark_ecblobs.h ****   0xfff0044200000cbeUL, 0xffef029e00001944UL, 0xffee020b00000b88UL, 0xffe90649000022e3UL,
 957:Model/hand_landmark_ecblobs.h ****   0x000106c2000042cbUL, 0xffef024b00004e9bUL, 0xffef03a10000f68cUL, 0xffee03fc0000b444UL,
 958:Model/hand_landmark_ecblobs.h ****   0xffed049100007bd7UL, 0xffdb072800002394UL, 0xffef04080000d453UL, 0xffef03e0000074fbUL,
 959:Model/hand_landmark_ecblobs.h ****   0xffee02ae00004df2UL, 0xfff1032900009e5aUL, 0xfff201860000fab2UL, 0xffef03b300000aa7UL,
 960:Model/hand_landmark_ecblobs.h ****   0xfff1024b0000300fUL, 0xffec07c4000041eeUL, 0xffee046e0000539cUL, 0xffe808910000d92fUL,
 961:Model/hand_landmark_ecblobs.h ****   0xffed047000000193UL, 0xfffc04c60000e412UL, 0xffef01720000e051UL, 0xffe8026c0000cc0aUL,
 962:Model/hand_landmark_ecblobs.h ****   0xffef01d400005264UL, 0xffed03d900004506UL, 0xffeb05cf000010faUL, 0xffe901ef0000d5acUL,
 963:Model/hand_landmark_ecblobs.h ****   0xffe603000000ee1bUL, 0xffeb083e0000bd3fUL, 0xfff9053b00004bd8UL, 0xffee04530000185dUL,
ARM GAS  C:\Users\DJESSOU\AppData\Local\Temp\ccZ709fi.s 			page 41


 964:Model/hand_landmark_ecblobs.h ****   0xfffa01d80000486bUL, 0xfff000ea0000208aUL, 0xfff008ad0000911aUL, 0xffd604d90000b041UL,
 965:Model/hand_landmark_ecblobs.h ****   0xffe904c40000fe6fUL, 0xfff501890000ba4eUL, 0xffef02610000ccdfUL, 0xffed071f00007614UL,
 966:Model/hand_landmark_ecblobs.h ****   0xfff70229000057d8UL, 0xffe602ae00000647UL, 0xffed04610000233dUL, 0xffed0253000078e2UL,
 967:Model/hand_landmark_ecblobs.h ****   0xffe506db000004f2UL, 0xfff1031a0000cba4UL, 0xfff0096500009370UL, 0xffef03160000577aUL,
 968:Model/hand_landmark_ecblobs.h ****   0xffee017a000026c7UL, 0xfff0031e00006b4bUL, 0xffef030b0000753eUL, 0xffe9030100001119UL,
 969:Model/hand_landmark_ecblobs.h ****   0xffea03580000158dUL, 0xfffe00f00000b5e6UL, 0xfff0012300005c3bUL, 0xfff3028f0000f096UL,
 970:Model/hand_landmark_ecblobs.h ****   0xfff702f10000eaabUL, 0xffe8079500004214UL, 0xffe503000000e594UL, 0xfffc095500008e6fUL,
 971:Model/hand_landmark_ecblobs.h ****   0xfff205c1000090c3UL, 0xffef028700000048UL, 0xfff203be0000ba2dUL, 0xfff00c5d0000ff9aUL,
 972:Model/hand_landmark_ecblobs.h ****   0xffef036f0000348aUL, 0xffe9027d0000f769UL, 0xffeb03d500004565UL, 0xffef058600007b40UL,
 973:Model/hand_landmark_ecblobs.h ****   0xffd804a500007538UL, 0xffe90286000012afUL, 0xfff10795000011b3UL, 0xffec022d00002f4eUL,
 974:Model/hand_landmark_ecblobs.h ****   0xffef03780000c538UL, 0xffec02400000d629UL, 0xfff0086b00000604UL, 0xffee025d000055c0UL,
 975:Model/hand_landmark_ecblobs.h ****   0xfff702db00002621UL, 0xfff701c00000f961UL, 0x008022410000f6a4UL, 0x080000005c000042UL,
 976:Model/hand_landmark_ecblobs.h ****   0x5c027c0015000000UL, 0x5c07004300070000UL, 0x0000002000004000UL, 0x000000005c0c0043UL,
 977:Model/hand_landmark_ecblobs.h ****   0x0080208110411041UL, 0x0008000024007c00UL, 0x3430df0024020123UL, 0x00f00001001c001cUL,
 978:Model/hand_landmark_ecblobs.h ****   0x0000000000001a40UL, 0x0000000100000001UL, 0x0010000000000024UL, 0x00000006240c0042UL,
 979:Model/hand_landmark_ecblobs.h ****   0x240d004300000007UL, 0x3433be3f000000f0UL, 0x0000000024110043UL, 0x0080202100000000UL,
 980:Model/hand_landmark_ecblobs.h ****   0x0008018418007c00UL, 0x70883b1018020043UL, 0x180500c300000960UL, 0x0000000000000000UL,
 981:Model/hand_landmark_ecblobs.h ****   0x0000000000000000UL, 0x0010000000000024UL, 0x00000006180c0042UL, 0x180d004300000007UL,
 982:Model/hand_landmark_ecblobs.h ****   0x708844af00000001UL, 0x0000000018110043UL, 0x0080204100000008UL, 0x000800001c007c00UL,
 983:Model/hand_landmark_ecblobs.h ****   0x3430df001c020123UL, 0x00f00001001c001cUL, 0x0000000000001a40UL, 0x0000000100000001UL,
 984:Model/hand_landmark_ecblobs.h ****   0x0010000000000024UL, 0x000000061c0c0042UL, 0x1c0d004300000007UL, 0x3433be3f000000f0UL,
 985:Model/hand_landmark_ecblobs.h ****   0x000000001c110043UL, 0x008020e100000000UL, 0x0008018430007c00UL, 0x70880b4030020043UL,
 986:Model/hand_landmark_ecblobs.h ****   0x300500c300000e10UL, 0x0000000000000000UL, 0x0000000000000000UL, 0x0010000000000024UL,
 987:Model/hand_landmark_ecblobs.h ****   0x00000006300c0042UL, 0x300d004300000007UL, 0x7088198f00000001UL, 0x0000000030110043UL,
 988:Model/hand_landmark_ecblobs.h ****   0x0080212100000008UL, 0x0008000838007c00UL, 0x342e000038020123UL, 0x00f00001001c001cUL,
 989:Model/hand_landmark_ecblobs.h ****   0x0000000100001a40UL, 0x0002df00000000f0UL, 0x0010000000000024UL, 0x00000006380c0042UL,
 990:Model/hand_landmark_ecblobs.h ****   0x380d004300000007UL, 0x3430df3f000000f0UL, 0x0000000038110043UL, 0x10007c0000000000UL,
 991:Model/hand_landmark_ecblobs.h ****   0x1000042400000002UL, 0x0000000000000064UL, 0x4000000010007c00UL, 0x0000006410007bc4UL,
 992:Model/hand_landmark_ecblobs.h ****   0x10007c0000000000UL, 0x100b7c0000000001UL, 0x100f004300000025UL, 0x0000000300000009UL,
 993:Model/hand_landmark_ecblobs.h ****   0x0000000510150043UL, 0x101e7c000000000fUL, 0x102200630000002bUL, 0x000000170000001bUL,
 994:Model/hand_landmark_ecblobs.h ****   0x3800200100000029UL, 0x0010003540007c00UL, 0x0010003548007c00UL, 0x640020015c002001UL,
 995:Model/hand_landmark_ecblobs.h ****   0x1800200168002001UL, 0x240020011c002001UL, 0x38007fe430002001UL, 0x0000000000000064UL,
 996:Model/hand_landmark_ecblobs.h ****   0x00000000100b7c00UL, 0x00000000100f0043UL, 0x1015004300000000UL, 0x0000000000000000UL,
 997:Model/hand_landmark_ecblobs.h ****   0x00000000101e7c00UL, 0x0000000010220063UL, 0x0000000000000000UL, 0x0000000238007c00UL,
 998:Model/hand_landmark_ecblobs.h ****   0x0000006438000424UL, 0x38007c0000000000UL, 0x38007bc440000000UL, 0x0000000000000064UL,
 999:Model/hand_landmark_ecblobs.h ****   0x40007c0000800121UL, 0x4000042400000002UL, 0x0000000000000064UL, 0x4000000040007c00UL,
1000:Model/hand_landmark_ecblobs.h ****   0x0000006440007bc4UL, 0x0080016100000000UL, 0x0000000248007c00UL, 0x0000006448000424UL,
1001:Model/hand_landmark_ecblobs.h ****   0x48007c0000000000UL, 0x48007bc440000000UL, 0x0000000000000064UL, 0x5c007c00008001a1UL,
1002:Model/hand_landmark_ecblobs.h ****   0x5c00042408000002UL, 0x0000000000000064UL, 0x480000005c007c00UL, 0x000000645c007bc4UL,
1003:Model/hand_landmark_ecblobs.h ****   0x0080024100000000UL, 0x0800000264007c00UL, 0x0000006464000424UL, 0x64007c0000000000UL,
1004:Model/hand_landmark_ecblobs.h ****   0x64007bc448000000UL, 0x0000000000000064UL, 0x68007c0000800281UL, 0x6800042408000002UL,
1005:Model/hand_landmark_ecblobs.h ****   0x0000000000000064UL, 0x4800000068007c00UL, 0x0000006468007bc4UL, 0x008002a100000000UL,
1006:Model/hand_landmark_ecblobs.h ****   0x0000000218007c00UL, 0x0000006418000424UL, 0x18007c0000000000UL, 0x18007bc440000000UL,
1007:Model/hand_landmark_ecblobs.h ****   0x0000000000000064UL, 0x1c007c0000800021UL, 0x1c00042400000002UL, 0x0000000000000064UL,
1008:Model/hand_landmark_ecblobs.h ****   0x400000001c007c00UL, 0x000000641c007bc4UL, 0x0080004100000000UL, 0x0000000224007c00UL,
1009:Model/hand_landmark_ecblobs.h ****   0x0000006424000424UL, 0x24007c0000000000UL, 0x24007bc440000000UL, 0x0000000000000064UL,
1010:Model/hand_landmark_ecblobs.h ****   0x30007c0000800081UL, 0x3000042400000002UL, 0x0000000000000064UL, 0x4000000030007c00UL,
1011:Model/hand_landmark_ecblobs.h ****   0x0000006430007bc4UL, 0x008000e100000000UL, 0x00802141000002bdUL, 0x10d000343c007c00UL,
1012:Model/hand_landmark_ecblobs.h ****   0x147801013c0200e3UL, 0x1077400500001100UL, 0x0d1f0000001c0d20UL, 0x00130028001b0000UL,
1013:Model/hand_landmark_ecblobs.h ****   0x000000003c0a7c00UL, 0x000000003c0d7c00UL, 0x44007c0000802181UL, 0x440200e310d00020UL,
1014:Model/hand_landmark_ecblobs.h ****   0x0000110014780101UL, 0x001c0d2010634500UL, 0x001b00000d1f0000UL, 0x440a7c0000271428UL,
1015:Model/hand_landmark_ecblobs.h ****   0x440d7c0000000000UL, 0x0080226100000000UL, 0x0800000060000042UL, 0x60020123156000fcUL,
1016:Model/hand_landmark_ecblobs.h ****   0x0000000000098000UL, 0x00003d3f00000013UL, 0x0000000000007a7fUL, 0x076403ed00000000UL,
1017:Model/hand_landmark_ecblobs.h ****   0x600c004300000001UL, 0x2042204200000000UL, 0x00000001600b7c00UL, 0x00883bb261000a03UL,
1018:Model/hand_landmark_ecblobs.h ****   0x00c23a9800004f7aUL, 0x00a7323b0000f29eUL, 0x008d38c80000b407UL, 0x006138e000005125UL,
1019:Model/hand_landmark_ecblobs.h ****   0x0008465a000025c2UL, 0x00893c9a00007554UL, 0x00b02f080000da3bUL, 0x00a9336100004d09UL,
1020:Model/hand_landmark_ecblobs.h ****   0xff6630a100000ebdUL, 0x0079385900004906UL, 0x000742f6000019a3UL, 0x00d531b5000021eaUL,
ARM GAS  C:\Users\DJESSOU\AppData\Local\Temp\ccZ709fi.s 			page 42


1021:Model/hand_landmark_ecblobs.h ****   0xffec3a680000a5e1UL, 0x013338c800001e5dUL, 0xfffc3f2f0000eef6UL, 0x00fb31160000ce71UL,
1022:Model/hand_landmark_ecblobs.h ****   0x00a236c600001f3eUL, 0x00aa34b80000fbfeUL, 0xffc04ec40000b1b6UL, 0x00b829820000b890UL,
1023:Model/hand_landmark_ecblobs.h ****   0x00843a120000fdddUL, 0xffb66c040000c79fUL, 0xfffb387e0000c664UL, 0x00d5462900003c26UL,
1024:Model/hand_landmark_ecblobs.h ****   0x002e44890000658aUL, 0x0066374000009720UL, 0x00bf377d00008427UL, 0x00493fda00002988UL,
1025:Model/hand_landmark_ecblobs.h ****   0x0024467f0000401eUL, 0x001f351900002bdaUL, 0x0185568e0000218aUL, 0x01553da80000eeb3UL,
1026:Model/hand_landmark_ecblobs.h ****   0x00a538d400000f49UL, 0xffce38bb000080b5UL, 0x012240aa0000f573UL, 0x00fb440300000c2eUL,
1027:Model/hand_landmark_ecblobs.h ****   0xfffd371b00003f28UL, 0x00483f6c00001f88UL, 0x01013b1f000061a7UL, 0x0080224100006b15UL,
1028:Model/hand_landmark_ecblobs.h ****   0x080000005c000042UL, 0x5c027c0005000160UL, 0x5c07004300078c00UL, 0x000063d4b9cd5b71UL,
1029:Model/hand_landmark_ecblobs.h ****   0x000000005c0c0043UL, 0x008020a110411041UL, 0x0888020028007c00UL, 0x342e000028020123UL,
1030:Model/hand_landmark_ecblobs.h ****   0x00f00028001c001cUL, 0x0000000000001a40UL, 0x000000f000000002UL, 0x0010000000000024UL,
1031:Model/hand_landmark_ecblobs.h ****   0x00000006280c0042UL, 0x280d004300000007UL, 0x3430df3f00000002UL, 0x0000000028110043UL,
1032:Model/hand_landmark_ecblobs.h ****   0x008020c100000000UL, 0x088801842c007c00UL, 0x70867d602c020043UL, 0x2c0500c300000c80UL,
1033:Model/hand_landmark_ecblobs.h ****   0x0000000000000000UL, 0x0000000000000000UL, 0x0010000000000024UL, 0x000000062c0c0042UL,
1034:Model/hand_landmark_ecblobs.h ****   0x2c0d004300000007UL, 0x7086a31f00000001UL, 0x000000002c110043UL, 0x0080204100000008UL,
1035:Model/hand_landmark_ecblobs.h ****   0x088802001c007c00UL, 0x342e00781c020123UL, 0x00f00028001c001cUL, 0x0000000000001a40UL,
1036:Model/hand_landmark_ecblobs.h ****   0x000000f000000002UL, 0x0010000000000024UL, 0x000000061c0c0042UL, 0x1c0d004300000007UL,
1037:Model/hand_landmark_ecblobs.h ****   0x3430df3f00000002UL, 0x000000001c110043UL, 0x0080210100000000UL, 0x0008010034007c00UL,
1038:Model/hand_landmark_ecblobs.h ****   0x3433be0034020043UL, 0x340500c300003d40UL, 0x00003d4000000000UL, 0x0000000000000000UL,
1039:Model/hand_landmark_ecblobs.h ****   0x0010000000000024UL, 0x00000006340c0042UL, 0x340d004300000007UL, 0x343438bf00000002UL,
1040:Model/hand_landmark_ecblobs.h ****   0x0000000034110043UL, 0x0080200100000000UL, 0x0008010814007c00UL, 0x3430df0014020043UL,
1041:Model/hand_landmark_ecblobs.h ****   0x140500c300003d40UL, 0x00003d4000000000UL, 0x0000000000000000UL, 0x0010000000000024UL,
1042:Model/hand_landmark_ecblobs.h ****   0x00000006140c0042UL, 0x140d004300000007UL, 0x343159bf00000002UL, 0x0000000014110043UL,
1043:Model/hand_landmark_ecblobs.h ****   0x10007c0000000000UL, 0x1000042400000002UL, 0x0000000000000064UL, 0x4000000010007c00UL,
1044:Model/hand_landmark_ecblobs.h ****   0x0000006410007bc4UL, 0x10007c0000000000UL, 0x10027c0000000001UL, 0x100c004300000025UL,
1045:Model/hand_landmark_ecblobs.h ****   0x0000000d0000000bUL, 0x0000000510120063UL, 0x000000150000000dUL, 0x00000027101e0063UL,
1046:Model/hand_landmark_ecblobs.h ****   0x0000001900000011UL, 0x3c007c0014002001UL, 0x44007c0010d00035UL, 0x5c00200110d00021UL,
1047:Model/hand_landmark_ecblobs.h ****   0x1c00200160002001UL, 0x2c00200128002001UL, 0x14007fe434002001UL, 0x0000000000000064UL,
1048:Model/hand_landmark_ecblobs.h ****   0x0000000010027c00UL, 0x00000000100c0043UL, 0x1012006300000000UL, 0x0000000000000000UL,
1049:Model/hand_landmark_ecblobs.h ****   0x101e006300000000UL, 0x0000000000000000UL, 0x14007c0000000000UL, 0x1400042400000002UL,
1050:Model/hand_landmark_ecblobs.h ****   0x0000000000000064UL, 0x4000000014007c00UL, 0x0000006414007bc4UL, 0x0080000100000000UL,
1051:Model/hand_landmark_ecblobs.h ****   0x000000023c007c00UL, 0x000000643c000424UL, 0x3c007c0000000000UL, 0x3c007bc440000000UL,
1052:Model/hand_landmark_ecblobs.h ****   0x0000000000000064UL, 0x44007c0000800141UL, 0x4400042400000002UL, 0x0000000000000064UL,
1053:Model/hand_landmark_ecblobs.h ****   0x4000000044007c00UL, 0x0000006444007bc4UL, 0x0080018100000000UL, 0x080000025c007c00UL,
1054:Model/hand_landmark_ecblobs.h ****   0x000000645c000424UL, 0x5c007c0000000000UL, 0x5c007bc448000000UL, 0x0000000000000064UL,
1055:Model/hand_landmark_ecblobs.h ****   0x60007c0000800241UL, 0x6000042408000002UL, 0x0000000000000064UL, 0x4800000060007c00UL,
1056:Model/hand_landmark_ecblobs.h ****   0x0000006460007bc4UL, 0x0080026100000000UL, 0x000000021c007c00UL, 0x000000641c000424UL,
1057:Model/hand_landmark_ecblobs.h ****   0x1c007c0000000000UL, 0x1c007bc440000000UL, 0x0000000000000064UL, 0x28007c0000800041UL,
1058:Model/hand_landmark_ecblobs.h ****   0x2800042400000002UL, 0x0000000000000064UL, 0x4000000028007c00UL, 0x0000006428007bc4UL,
1059:Model/hand_landmark_ecblobs.h ****   0x008000a100000000UL, 0x000000022c007c00UL, 0x000000642c000424UL, 0x2c007c0000000000UL,
1060:Model/hand_landmark_ecblobs.h ****   0x2c007bc440000000UL, 0x0000000000000064UL, 0x34007c00008000c1UL, 0x3400042400000002UL,
1061:Model/hand_landmark_ecblobs.h ****   0x0000000000000064UL, 0x4000000034007c00UL, 0x0000006434007bc4UL, 0x0080010100000000UL,
1062:Model/hand_landmark_ecblobs.h ****   0x00802161000002ddUL, 0x0000005440007c00UL, 0x18140101400200e3UL, 0x10b7400300001100UL,
1063:Model/hand_landmark_ecblobs.h ****   0x022f0000001c0230UL, 0x00170030001b0000UL, 0x00000000400a7c00UL, 0x00000001400c0043UL,
1064:Model/hand_landmark_ecblobs.h ****   0x008021a100000000UL, 0x0000004048007c00UL, 0x18140101480200e3UL, 0x10a3430000001100UL,
1065:Model/hand_landmark_ecblobs.h ****   0x022f0000001c0230UL, 0x002f1830001b0000UL, 0x00000000480a7c00UL, 0x00000001480c0043UL,
1066:Model/hand_landmark_ecblobs.h ****   0x0080228100000000UL, 0x0800000064000042UL, 0x64020123156000fcUL, 0x0000000000088000UL,
1067:Model/hand_landmark_ecblobs.h ****   0x0000497f00000017UL, 0x000000000002deffUL, 0x044403e900000000UL, 0x640c004300000001UL,
1068:Model/hand_landmark_ecblobs.h ****   0x2042204200000000UL, 0x00000001640b7c00UL, 0xff270a8865003c03UL, 0xfefc1fab00001d82UL,
1069:Model/hand_landmark_ecblobs.h ****   0xff140cce000059c1UL, 0xfee2156200005587UL, 0xff440a7000002334UL, 0xff1a128600009ae5UL,
1070:Model/hand_landmark_ecblobs.h ****   0xfed320dc000035a9UL, 0xff4217bd0000d7f9UL, 0xfe961bce0000494fUL, 0xfed61268000069ffUL,
1071:Model/hand_landmark_ecblobs.h ****   0xff01288000003a22UL, 0xfebf10670000d6d5UL, 0xff1211c100004ac6UL, 0xff2a18e3000012adUL,
1072:Model/hand_landmark_ecblobs.h ****   0xff8c24f50000d4ffUL, 0xff2f0dcd0000f417UL, 0xfefb000400005a50UL, 0xfef519ab000064a0UL,
1073:Model/hand_landmark_ecblobs.h ****   0xfebc1c200000287aUL, 0xff0503150000d8ccUL, 0xfeed19c50000ab82UL, 0xff2405fb000049c4UL,
1074:Model/hand_landmark_ecblobs.h ****   0xff133a7d0000fa97UL, 0xfee8120b00004e1cUL, 0xfede0edd0000320cUL, 0xfeed126400006c94UL,
1075:Model/hand_landmark_ecblobs.h ****   0xfeac0a490000c778UL, 0xff0c1b3600007e15UL, 0xfef30baa000079b5UL, 0xfef70e0a0000f3f9UL,
1076:Model/hand_landmark_ecblobs.h ****   0xff1216d60000d778UL, 0xff3c0b9a00005aaaUL, 0xfed813e00000e376UL, 0xff0013af0000e262UL,
1077:Model/hand_landmark_ecblobs.h ****   0xfe5e40e8000004ebUL, 0xfed421e100004d36UL, 0xff200a650000ad5fUL, 0xff2a1da30000f434UL,
ARM GAS  C:\Users\DJESSOU\AppData\Local\Temp\ccZ709fi.s 			page 43


1078:Model/hand_landmark_ecblobs.h ****   0xff040dbe00002706UL, 0xfeda175100006008UL, 0xff6923e90000a575UL, 0xff1305a90000c097UL,
1079:Model/hand_landmark_ecblobs.h ****   0xfee0162b0000af29UL, 0xfedd14ac00005ef3UL, 0xfed722930000ec53UL, 0xff36154c0000b814UL,
1080:Model/hand_landmark_ecblobs.h ****   0xfefd11f800000056UL, 0xff390d420000163dUL, 0xfec41edb00003b46UL, 0xff5d16b10000d1d0UL,
1081:Model/hand_landmark_ecblobs.h ****   0xff0a173700004da1UL, 0xff3310b500007c2cUL, 0xfed8167d0000215fUL, 0xff2d106a0000b631UL,
1082:Model/hand_landmark_ecblobs.h ****   0xfeea1e1a0000d10bUL, 0xff2d39ac0000bf5bUL, 0xfefa18380000651bUL, 0xff2b288800009595UL,
1083:Model/hand_landmark_ecblobs.h ****   0xfefb111d0000cbdcUL, 0xfef0145a00000b7eUL, 0xff1f10a200004c5bUL, 0xff4f0c860000b538UL,
1084:Model/hand_landmark_ecblobs.h ****   0xff2018df00007075UL, 0xfee61ba9000075e1UL, 0xfee80c0b00006f00UL, 0xfedb1b41000072f2UL,
1085:Model/hand_landmark_ecblobs.h ****   0xff35043300003143UL, 0xff45183b0000df18UL, 0xff460b3e0000b96fUL, 0xfee2110e000058c2UL,
1086:Model/hand_landmark_ecblobs.h ****   0xff1f1a7100009860UL, 0xfee00d310000e9ceUL, 0xfeee14f300006527UL, 0xff3b08590000216eUL,
1087:Model/hand_landmark_ecblobs.h ****   0xfee309cc0000ce83UL, 0xfed21c9b00008711UL, 0xfefe02bb0000174eUL, 0xfeda0d150000a561UL,
1088:Model/hand_landmark_ecblobs.h ****   0xfec8119800007fa1UL, 0xff3113560000821aUL, 0xff4b071d0000a465UL, 0xfed31cb10000946bUL,
1089:Model/hand_landmark_ecblobs.h ****   0xfeb712fd000076d2UL, 0xff3b0d61000012faUL, 0xfed20b3d000079eeUL, 0xfef611aa00000de3UL,
1090:Model/hand_landmark_ecblobs.h ****   0xfeec1ad900006423UL, 0xff240a700000a381UL, 0xfef201ac000056afUL, 0xfef710720000f7c1UL,
1091:Model/hand_landmark_ecblobs.h ****   0xfeea0f6e000097c9UL, 0xff661a8b0000069aUL, 0xff251422000099d5UL, 0xff291ac600004555UL,
1092:Model/hand_landmark_ecblobs.h ****   0xfec014ef0000a9f2UL, 0xfed421ca000000c3UL, 0xfebe1eae0000ac57UL, 0xff130b0300002c36UL,
1093:Model/hand_landmark_ecblobs.h ****   0xfee518340000ebc1UL, 0xfefd11e20000d908UL, 0xfee1146d00004454UL, 0xfee216e9000073aeUL,
1094:Model/hand_landmark_ecblobs.h ****   0xff6606a80000332bUL, 0xfecc0e2e0000ed99UL, 0xff300cd00000a87bUL, 0xfee111f10000595aUL,
1095:Model/hand_landmark_ecblobs.h ****   0xff19451700007869UL, 0xff210c1f0000c63aUL, 0xfef110f40000b2feUL, 0xff3410150000f1acUL,
1096:Model/hand_landmark_ecblobs.h ****   0xfed0109e0000ca96UL, 0xfef01b870000aebcUL, 0xfeec19000000381cUL, 0xff0612d000001d1bUL,
1097:Model/hand_landmark_ecblobs.h ****   0xfec326350000d0e1UL, 0xff2718980000a63aUL, 0xfedc142a0000d271UL, 0xfedc16cb00007a25UL,
1098:Model/hand_landmark_ecblobs.h ****   0xff2f100200004362UL, 0xff11056200001ac3UL, 0xff3f0fcb0000c0b4UL, 0xfed817900000557bUL,
1099:Model/hand_landmark_ecblobs.h ****   0xff3b0b4a00001c54UL, 0xff12278400000fcaUL, 0xfebf190800001904UL, 0xfede13520000cc6eUL,
1100:Model/hand_landmark_ecblobs.h ****   0xff11165b00007152UL, 0xfed9113e00005e52UL, 0xff0029e500007665UL, 0xfeed204f0000acd2UL,
1101:Model/hand_landmark_ecblobs.h ****   0xfee61dde0000a31dUL, 0xff5407310000bd97UL, 0xfede1af300008b02UL, 0xfef01097000090a7UL,
1102:Model/hand_landmark_ecblobs.h ****   0xfeff238900001f6fUL, 0xfed51c79000002d2UL, 0xfec70ad4000094fcUL, 0xfedf0c880000e351UL,
1103:Model/hand_landmark_ecblobs.h ****   0xff45219e00001c08UL, 0xfef10ac700006e6eUL, 0xff1d0ca700001c35UL, 0xff2b082a0000036cUL,
1104:Model/hand_landmark_ecblobs.h ****   0xff3c097300003ec6UL, 0xff2210f800009816UL, 0xfed30e6000000296UL, 0xfee810aa000056bfUL,
1105:Model/hand_landmark_ecblobs.h ****   0xff1814fe00007c99UL, 0xff1c11d30000c626UL, 0xfedf0e740000547fUL, 0xff2c0d310000011cUL,
1106:Model/hand_landmark_ecblobs.h ****   0xfe8a1fab0000286eUL, 0xfee01d060000c955UL, 0xff4905dd0000c383UL, 0xfeb807af000020e3UL,
1107:Model/hand_landmark_ecblobs.h ****   0xfead285b00005266UL, 0xfed20bfe0000744aUL, 0xfed40a470000389dUL, 0xfeef0bdd00008113UL,
1108:Model/hand_landmark_ecblobs.h ****   0xfee516e10000786cUL, 0xfea30fe50000410eUL, 0xfee115ec00009d95UL, 0xfee211ae0000f9c1UL,
1109:Model/hand_landmark_ecblobs.h ****   0xfee22337000018bbUL, 0xff4f0ddc000049c9UL, 0xfeec170a000065e2UL, 0xfef914480000da35UL,
1110:Model/hand_landmark_ecblobs.h ****   0xfee613380000fab8UL, 0xfefb0bed0000ba3dUL, 0xfeec0fa900005455UL, 0xfeda14570000e610UL,
1111:Model/hand_landmark_ecblobs.h ****   0xfefb166a000036b2UL, 0xff42207400005ec8UL, 0xfee711e600001ca4UL, 0xff200e400000493aUL,
1112:Model/hand_landmark_ecblobs.h ****   0xff341a4400005f10UL, 0xfee90d9b0000d691UL, 0xff3109b40000bb9eUL, 0xfec90e23000043c8UL,
1113:Model/hand_landmark_ecblobs.h ****   0xfefa0b140000ab30UL, 0xff281aa800009b87UL, 0xfef90f9a0000b70dUL, 0xfeea1268000095ddUL,
1114:Model/hand_landmark_ecblobs.h ****   0xfece081f0000c109UL, 0xff23143900002753UL, 0xff350c8d0000acb3UL, 0xfef01c6e00009539UL,
1115:Model/hand_landmark_ecblobs.h ****   0xff3706ed00005e83UL, 0xfec00a740000b295UL, 0xfefe0fd9000020a5UL, 0xfeee0d840000ec9eUL,
1116:Model/hand_landmark_ecblobs.h ****   0xff0f2022000012c9UL, 0xfec526960000202aUL, 0xff421af600008ef4UL, 0xff230a49000067d9UL,
1117:Model/hand_landmark_ecblobs.h ****   0xfef11fba00006d07UL, 0xfed60d4900007fe4UL, 0xfee1106300005906UL, 0xfef61760000058d3UL,
1118:Model/hand_landmark_ecblobs.h ****   0xfecb0e9000007563UL, 0xfee912f5000069d8UL, 0xff7211f500009218UL, 0xfed912600000b66cUL,
1119:Model/hand_landmark_ecblobs.h ****   0xfef50b530000eb0cUL, 0xff211440000090f6UL, 0xfee812980000ddecUL, 0xff0603960000c64eUL,
1120:Model/hand_landmark_ecblobs.h ****   0xff38135d0000b6cfUL, 0xff3005d30000a835UL, 0xff031c840000af75UL, 0xff671d2800008248UL,
1121:Model/hand_landmark_ecblobs.h ****   0xff111aef0000198eUL, 0xff0e120f000087c8UL, 0xfecc121a0000368cUL, 0xfee50dde0000fe77UL,
1122:Model/hand_landmark_ecblobs.h ****   0xff210ca3000094c0UL, 0xfec30f3600005e28UL, 0xfedd0d900000880aUL, 0xfef20f8b00004347UL,
1123:Model/hand_landmark_ecblobs.h ****   0xff20374a000010a0UL, 0xff16152e000050d8UL, 0xfed824fc0000ae26UL, 0xfed827840000d8b9UL,
1124:Model/hand_landmark_ecblobs.h ****   0xfed912e30000ee05UL, 0xfee716a20000b67eUL, 0xfef0231200006ebfUL, 0xff26059e00001344UL,
1125:Model/hand_landmark_ecblobs.h ****   0xfecd101500005f10UL, 0xfeae13520000c6bfUL, 0xff3919430000a62eUL, 0xff130ec400005c01UL,
1126:Model/hand_landmark_ecblobs.h ****   0xfef019ba00001427UL, 0xff5018b2000065c7UL, 0xff3a089a0000b895UL, 0xff071d2f000025b4UL,
1127:Model/hand_landmark_ecblobs.h ****   0xfec2290e00001c6cUL, 0xfecf10ff000032dcUL, 0xff0f1cd6000006b6UL, 0xff1a2cc60000a110UL,
1128:Model/hand_landmark_ecblobs.h ****   0xff0e131a00004cb7UL, 0xfecc12a300002d9fUL, 0x008022a10000685cUL, 0x0800000068000042UL,
1129:Model/hand_landmark_ecblobs.h ****   0x68027c0015000000UL, 0x6807004300070000UL, 0x0000002000004000UL, 0x00000000680c0043UL,
1130:Model/hand_landmark_ecblobs.h ****   0x0080204110411041UL, 0x0008c1001c007c00UL, 0x3430df001c020043UL, 0x1c0500c300003d40UL,
1131:Model/hand_landmark_ecblobs.h ****   0x00007a8000000000UL, 0x0000000000000001UL, 0x0010000000000024UL, 0x000000061c0c0042UL,
1132:Model/hand_landmark_ecblobs.h ****   0x1c0d004300000007UL, 0x343159bf0000000aUL, 0x000000001c110043UL, 0x0080212100000000UL,
1133:Model/hand_landmark_ecblobs.h ****   0x0008c18438007c00UL, 0x7086a2e038020043UL, 0x380500c300002580UL, 0x0000000000000000UL,
1134:Model/hand_landmark_ecblobs.h ****   0x0000000000000000UL, 0x0010000000000024UL, 0x00000006380c0042UL, 0x380d004300000007UL,
ARM GAS  C:\Users\DJESSOU\AppData\Local\Temp\ccZ709fi.s 			page 44


1135:Model/hand_landmark_ecblobs.h ****   0x7086c89f00000001UL, 0x0000000038110043UL, 0x0080202100000008UL, 0x0008c10018007c00UL,
1136:Model/hand_landmark_ecblobs.h ****   0x34311c4018020043UL, 0x180500c300003d40UL, 0x00007a8000000000UL, 0x0000000000000001UL,
1137:Model/hand_landmark_ecblobs.h ****   0x0010000000000024UL, 0x00000006180c0042UL, 0x180d004300000007UL, 0x343159bf0000000aUL,
1138:Model/hand_landmark_ecblobs.h ****   0x0000000018110043UL, 0x008020a100000000UL, 0x0008010828007c00UL, 0x342e000028020043UL,
1139:Model/hand_landmark_ecblobs.h ****   0x280500c300004980UL, 0x0000498000000000UL, 0x0000000000000000UL, 0x0010000000000024UL,
1140:Model/hand_landmark_ecblobs.h ****   0x00000006280c0042UL, 0x280d004300000007UL, 0x3430df3f0000000aUL, 0x0000000028110043UL,
1141:Model/hand_landmark_ecblobs.h ****   0x10007c0000000000UL, 0x1000042400000002UL, 0x0000000000000064UL, 0x4000000010007c00UL,
1142:Model/hand_landmark_ecblobs.h ****   0x0000006410007bc4UL, 0x10007c0000000000UL, 0x10077c0000000001UL, 0x100f00430000002bUL,
1143:Model/hand_landmark_ecblobs.h ****   0x0000001300000005UL, 0x0000000310150063UL, 0x0000001700000013UL, 0x0000001b10227c00UL,
1144:Model/hand_landmark_ecblobs.h ****   0x0000002910247c00UL, 0x40007c0028002001UL, 0x48007c0000000055UL, 0x6400200100000041UL,
1145:Model/hand_landmark_ecblobs.h ****   0x1800200168002001UL, 0x380020011c002001UL, 0x0000006428007fe4UL, 0x10077c0000000000UL,
1146:Model/hand_landmark_ecblobs.h ****   0x100f004300000000UL, 0x0000000000000000UL, 0x0000000010150063UL, 0x0000000000000000UL,
1147:Model/hand_landmark_ecblobs.h ****   0x0000000010227c00UL, 0x0000000010247c00UL, 0x0000000228007c00UL, 0x0000006428000424UL,
1148:Model/hand_landmark_ecblobs.h ****   0x28007c0000000000UL, 0x28007bc440000000UL, 0x0000000000000064UL, 0x40007c00008000a1UL,
1149:Model/hand_landmark_ecblobs.h ****   0x4000042400000002UL, 0x0000000000000064UL, 0x4000000040007c00UL, 0x0000006440007bc4UL,
1150:Model/hand_landmark_ecblobs.h ****   0x0080016100000000UL, 0x0000000248007c00UL, 0x0000006448000424UL, 0x48007c0000000000UL,
1151:Model/hand_landmark_ecblobs.h ****   0x48007bc440000000UL, 0x0000000000000064UL, 0x64007c00008001a1UL, 0x6400042408000002UL,
1152:Model/hand_landmark_ecblobs.h ****   0x0000000000000064UL, 0x4800000064007c00UL, 0x0000006464007bc4UL, 0x0080028100000000UL,
1153:Model/hand_landmark_ecblobs.h ****   0x0800000268007c00UL, 0x0000006468000424UL, 0x68007c0000000000UL, 0x68007bc448000000UL,
1154:Model/hand_landmark_ecblobs.h ****   0x0000000000000064UL, 0x18007c00008002a1UL, 0x1800042400000002UL, 0x0000000000000064UL,
1155:Model/hand_landmark_ecblobs.h ****   0x4000000018007c00UL, 0x0000006418007bc4UL, 0x0080002100000000UL, 0x000000021c007c00UL,
1156:Model/hand_landmark_ecblobs.h ****   0x000000641c000424UL, 0x1c007c0000000000UL, 0x1c007bc440000000UL, 0x0000000000000064UL,
1157:Model/hand_landmark_ecblobs.h ****   0x38007c0000800041UL, 0x3800042400000002UL, 0x0000000000000064UL, 0x4000000038007c00UL,
1158:Model/hand_landmark_ecblobs.h ****   0x0000006438007bc4UL, 0x0080012100000000UL, 0x0000031d000002fdUL, 0x18007c0000802021UL,
1159:Model/hand_landmark_ecblobs.h ****   0x1802004308880100UL, 0x00001880342e0000UL, 0x00000000180500c3UL, 0x0000000000004980UL,
1160:Model/hand_landmark_ecblobs.h ****   0x0000002400000000UL, 0x180c004200100000UL, 0x0000000700000006UL, 0x00000005180d0043UL,
1161:Model/hand_landmark_ecblobs.h ****   0x18110043342f6fbfUL, 0x0000000000000000UL, 0x24007c0000802081UL, 0x2402004308880100UL,
1162:Model/hand_landmark_ecblobs.h ****   0x00001880342f6f80UL, 0x00000000240500c3UL, 0x0000000000004980UL, 0x0000002400000000UL,
1163:Model/hand_landmark_ecblobs.h ****   0x240c004200100000UL, 0x0000000700000006UL, 0x00000005240d0043UL, 0x241100433430df3fUL,
1164:Model/hand_landmark_ecblobs.h ****   0x0000000000000000UL, 0x30007c00008020e1UL, 0x3002012308880008UL, 0x001c001c34324e80UL,
1165:Model/hand_landmark_ecblobs.h ****   0x00000d2000780008UL, 0x0000000500000018UL, 0x0000002400016f80UL, 0x300c004200100000UL,
1166:Model/hand_landmark_ecblobs.h ****   0x0000000700000006UL, 0x00000005300d0043UL, 0x301100433433be3fUL, 0x0000000000000000UL,
1167:Model/hand_landmark_ecblobs.h ****   0x2c007c00008020c1UL, 0x2c02012308880008UL, 0x001c001c3430df00UL, 0x00000d2000780008UL,
1168:Model/hand_landmark_ecblobs.h ****   0x0000000500000018UL, 0x0000002400016f80UL, 0x2c0c004200100000UL, 0x0000000700000006UL,
1169:Model/hand_landmark_ecblobs.h ****   0x000000052c0d0043UL, 0x2c11004334324ebfUL, 0x0000000000000000UL, 0x0000000210007c00UL,
1170:Model/hand_landmark_ecblobs.h ****   0x0000006410000424UL, 0x10007c0000000000UL, 0x10007bc440000000UL, 0x0000000000000064UL,
1171:Model/hand_landmark_ecblobs.h ****   0x0000000110007c00UL, 0x0000000910080043UL, 0x2c00200100000003UL, 0x1800200130002001UL,
1172:Model/hand_landmark_ecblobs.h ****   0x2c007fe424002001UL, 0x0000000000000064UL, 0x0000006430007fe4UL, 0x1008004300000000UL,
1173:Model/hand_landmark_ecblobs.h ****   0x0000000000000000UL, 0x000000022c007c00UL, 0x000000642c000424UL, 0x2c007c0000000000UL,
1174:Model/hand_landmark_ecblobs.h ****   0x2c007bc440000000UL, 0x0000000000000064UL, 0x30007c00008000c1UL, 0x3000042400000002UL,
1175:Model/hand_landmark_ecblobs.h ****   0x0000000000000064UL, 0x4000000030007c00UL, 0x0000006430007bc4UL, 0x008000e100000000UL,
1176:Model/hand_landmark_ecblobs.h ****   0x0000000218007c00UL, 0x0000006418000424UL, 0x18007c0000000000UL, 0x18007bc440000000UL,
1177:Model/hand_landmark_ecblobs.h ****   0x0000000000000064UL, 0x24007c0000800021UL, 0x2400042400000002UL, 0x0000000000000064UL,
1178:Model/hand_landmark_ecblobs.h ****   0x4000000024007c00UL, 0x0000006424007bc4UL, 0x0080008100000000UL, 0x008021410000033dUL,
1179:Model/hand_landmark_ecblobs.h ****   0x201000343c007c00UL, 0x040403033c0200e3UL, 0x1063430300002200UL, 0x006f0000001c0070UL,
1180:Model/hand_landmark_ecblobs.h ****   0x00000001001b0000UL, 0x010004003c0a7c00UL, 0x000000003c0d7c00UL, 0x5c00004200802241UL,
1181:Model/hand_landmark_ecblobs.h ****   0x156000fc08000000UL, 0x000780005c020123UL, 0x0000000300000000UL, 0x00005bdf0000030fUL,
1182:Model/hand_landmark_ecblobs.h ****   0x0000000000000000UL, 0x00000001062403fdUL, 0x000000005c0c0043UL, 0x5c0b7c0020422042UL,
1183:Model/hand_landmark_ecblobs.h ****   0x5d001e0300000001UL, 0x00000f6bfffb0512UL, 0x000029eeffc6023cUL, 0x0000de4fffa10783UL,
1184:Model/hand_landmark_ecblobs.h ****   0x0000944cffbe04e2UL, 0x00000859ffc006aeUL, 0x0000941dffbb07feUL, 0x000090dfffc30593UL,
1185:Model/hand_landmark_ecblobs.h ****   0x0000c9efffe50271UL, 0x0000d4a6ffbf03fcUL, 0x00002515ffc007cfUL, 0x00002f92fff001ceUL,
1186:Model/hand_landmark_ecblobs.h ****   0x0000e36affbf0a65UL, 0x0000bbffffbf0938UL, 0x00004406ffe102deUL, 0x0000fba4ffc4028eUL,
1187:Model/hand_landmark_ecblobs.h ****   0x0000c6beffe3039dUL, 0x00002ca8ffc00000UL, 0x00009b9dffc302deUL, 0x0000771affbc04a9UL,
1188:Model/hand_landmark_ecblobs.h ****   0x0000ec29ffe31259UL, 0x000092daffe701daUL, 0x0000f865fff107c2UL, 0x00007c4dffe301bfUL,
1189:Model/hand_landmark_ecblobs.h ****   0x00005f88ffb805ffUL, 0x00000ca8ffc005f5UL, 0x00003a90ffc1064fUL, 0x00002dd5ffa450d2UL,
1190:Model/hand_landmark_ecblobs.h ****   0x00006793ffb8043cUL, 0x00008d6dffc00c6fUL, 0x00004cf5ffc0088dUL, 0x0000bbf0ffae03d9UL,
1191:Model/hand_landmark_ecblobs.h ****   0x00003aeaffef0606UL, 0x00009604ffbf055eUL, 0x0000b5acff9f0773UL, 0x000022fdffad041bUL,
ARM GAS  C:\Users\DJESSOU\AppData\Local\Temp\ccZ709fi.s 			page 45


1192:Model/hand_landmark_ecblobs.h ****   0x0000081affed02a6UL, 0x0000ae51ffc807e7UL, 0x00009237ffa80227UL, 0x0000667a001904a0UL,
1193:Model/hand_landmark_ecblobs.h ****   0x00008a71ffc0056eUL, 0x00008cacffb80274UL, 0x00002c14ffe40875UL, 0x000039a4ffc40548UL,
1194:Model/hand_landmark_ecblobs.h ****   0x0000a200ffc005f9UL, 0x00006a1effbf031bUL, 0x00000129ffe4027bUL, 0x0000e9f0ffb80480UL,
1195:Model/hand_landmark_ecblobs.h ****   0x0000b993ffdb0633UL, 0x00007082ffdf02a8UL, 0x00003572ffbf03b7UL, 0x00002132ffd1055bUL,
1196:Model/hand_landmark_ecblobs.h ****   0x000092efffd2055dUL, 0x00002ca7ffc5047fUL, 0x00001b95ffdf0465UL, 0x00001644ffdf025dUL,
1197:Model/hand_landmark_ecblobs.h ****   0x0000252effbe01b6UL, 0x000007d5ffc403d0UL, 0x00001310ffe201deUL, 0x0000406cffff043cUL,
1198:Model/hand_landmark_ecblobs.h ****   0x00008866ffba0631UL, 0x0000367dffd90382UL, 0x00009660fffe0435UL, 0x000011e9ffde025cUL,
1199:Model/hand_landmark_ecblobs.h ****   0x0000cdbdffaf034fUL, 0x00002c03ffc0064aUL, 0x0000ebe8ffbf028dUL, 0x0000a27f00111071UL,
1200:Model/hand_landmark_ecblobs.h ****   0x0000dab0ffef0211UL, 0x000032f400020568UL, 0x00008fbaffc1071bUL, 0x000002bfffbf04c2UL,
1201:Model/hand_landmark_ecblobs.h ****   0x00001093ffea0632UL, 0x0000e8c9ffbe04f4UL, 0x0000ceeafffb0559UL, 0x0000e8c6ffbf0aeeUL,
1202:Model/hand_landmark_ecblobs.h ****   0x0000bf41ffe5038eUL, 0x0000a408ffbd2245UL, 0x0000ae34ffbe0902UL, 0x0000eb64ffbf05afUL,
1203:Model/hand_landmark_ecblobs.h ****   0x00000d02ffc30423UL, 0x00007e2effd60a71UL, 0x0000194dffbf04bbUL, 0x0000fdb0ffbf0628UL,
1204:Model/hand_landmark_ecblobs.h ****   0x00009aeeffb708ceUL, 0x0000a8cdffb50cdcUL, 0x0000cb4cffbf092aUL, 0x000023b9ffc50602UL,
1205:Model/hand_landmark_ecblobs.h ****   0x00002ac5ffd00914UL, 0x00000f62ffc17245UL, 0x0000d37bffb50477UL, 0x00000e00ffc00778UL,
1206:Model/hand_landmark_ecblobs.h ****   0x00005b7fffe40200UL, 0x00006a5affe003f1UL, 0x00004fb8ffb00238UL, 0x00002ef8ffc0092aUL,
1207:Model/hand_landmark_ecblobs.h ****   0x0000b6f6ffd303a2UL, 0x00002c40ffc30240UL, 0x00008570ffd5065cUL, 0x000035c6ffc10312UL,
1208:Model/hand_landmark_ecblobs.h ****   0x00000f4effc30517UL, 0x000031f0ffe30421UL, 0x0000b211ffbf0436UL, 0x00003c14ffd108e2UL,
1209:Model/hand_landmark_ecblobs.h ****   0x00004397ff9941e4UL, 0x000096f0ffe3036fUL, 0x000035d9ffb907b7UL, 0x0000d5a8ff9f0203UL,
1210:Model/hand_landmark_ecblobs.h ****   0x000070eaffbc07b4UL, 0x00004103ffbb05f2UL, 0x00007c6affb6079dUL, 0x000084afffbd063cUL,
1211:Model/hand_landmark_ecblobs.h ****   0x00006fd7000503a8UL, 0x000025ebffef03b5UL, 0x0000df1effe004ceUL, 0x0000cd97ffdc02b6UL,
1212:Model/hand_landmark_ecblobs.h ****   0x000061e1ffbe05e0UL, 0x0000063cffbf04ceUL, 0x0000d1c4ffe8027fUL, 0x0000786cffbd05ffUL,
1213:Model/hand_landmark_ecblobs.h ****   0x0000aa38ffe00d14UL, 0x6000004200802261UL, 0x1500000008000000UL, 0x0007000060027c00UL,
1214:Model/hand_landmark_ecblobs.h ****   0x0000400060070043UL, 0x600c004300000020UL, 0x1041104100000000UL, 0x44007c0000802181UL,
1215:Model/hand_landmark_ecblobs.h ****   0x440200e320100034UL, 0x0000220004040303UL, 0x001c007010634303UL, 0x001b0000006f0000UL,
1216:Model/hand_landmark_ecblobs.h ****   0x440a7c0000000001UL, 0x440d7c0001000400UL, 0x0080228100000000UL, 0x0800000064000042UL,
1217:Model/hand_landmark_ecblobs.h ****   0x64020123156000fcUL, 0x0000000000080000UL, 0x0000030f00000003UL, 0x0000000000005bdfUL,
1218:Model/hand_landmark_ecblobs.h ****   0x062403fd00000000UL, 0x640c004300000001UL, 0x2042204200000000UL, 0x00000001640b7c00UL,
1219:Model/hand_landmark_ecblobs.h ****   0xffda092865001e03UL, 0xff5409630000f9c2UL, 0xffd409ea00007654UL, 0xff6104db000020d4UL,
1220:Model/hand_landmark_ecblobs.h ****   0xff7f07940000e352UL, 0xff9008790000f1caUL, 0xffbb07ed0000e200UL, 0xff7c09f200008430UL,
1221:Model/hand_landmark_ecblobs.h ****   0xff4d066d00004f3cUL, 0xff7f051f0000fcfdUL, 0xff70070c00007ad3UL, 0xffad1b4b00000513UL,
1222:Model/hand_landmark_ecblobs.h ****   0xff93083a000047feUL, 0xff8109a700000f68UL, 0xffc4036a000050aaUL, 0xff7e08990000fab9UL,
1223:Model/hand_landmark_ecblobs.h ****   0xff7f18da0000ebc6UL, 0xff4a1bb30000fce4UL, 0xffd204820000b55cUL, 0xff80101e0000b7bdUL,
1224:Model/hand_landmark_ecblobs.h ****   0xffc005ec00001425UL, 0xffcc0ca700000a7dUL, 0xff820d89000052a7UL, 0xffc907c5000020cdUL,
1225:Model/hand_landmark_ecblobs.h ****   0xff8015cc00004135UL, 0xff8009fa00004162UL, 0xff6805120000fd26UL, 0xffc805af00001264UL,
1226:Model/hand_landmark_ecblobs.h ****   0xff740b930000f6e8UL, 0xff8a0cfe0000e7d5UL, 0xff7f05950000f30dUL, 0xff7c049000009fb2UL,
1227:Model/hand_landmark_ecblobs.h ****   0xffa416450000c21bUL, 0xff58728500007a86UL, 0x000503ad0000e9d7UL, 0xff5a165500002527UL,
1228:Model/hand_landmark_ecblobs.h ****   0xff8111160000d453UL, 0xff8016bd00001385UL, 0xff7f0b8b000090f7UL, 0xff640f4b0000f757UL,
1229:Model/hand_landmark_ecblobs.h ****   0xff7a092a0000a0beUL, 0xff8a092a0000f03fUL, 0xff7507710000f004UL, 0xffbf08d40000e645UL,
1230:Model/hand_landmark_ecblobs.h ****   0xff7f0b04000060b5UL, 0xff7f084300002931UL, 0xffc506a800003289UL, 0xff6b0d810000f99dUL,
1231:Model/hand_landmark_ecblobs.h ****   0xff840a1c0000bcccUL, 0xff7910b900003601UL, 0x000305680000cd45UL, 0x001704030000120aUL,
1232:Model/hand_landmark_ecblobs.h ****   0xff800c2e0000d266UL, 0xff9412950000354aUL, 0xff7b0710000057cbUL, 0xff810f2e00009263UL,
1233:Model/hand_landmark_ecblobs.h ****   0xffbd084b000097fdUL, 0xff8114da0000ec01UL, 0xff7919c800002683UL, 0xffd306770000711bUL,
1234:Model/hand_landmark_ecblobs.h ****   0xff810c220000ac57UL, 0xff8109d80000eb6bUL, 0xff7f278f0000bc24UL, 0xff8706ec000061c3UL,
1235:Model/hand_landmark_ecblobs.h ****   0xff8a1522000038d7UL, 0xffbe03590000a644UL, 0xff5c14180000b671UL, 0xff604a950000eec9UL,
1236:Model/hand_landmark_ecblobs.h ****   0xff6c08ee0000ef9fUL, 0xff81093a00006b68UL, 0xfffe036900008f20UL, 0xffab04760000d5e3UL,
1237:Model/hand_landmark_ecblobs.h ****   0xfffe0643000014e8UL, 0xffd109f40000814bUL, 0xffdc03ff00009858UL, 0xff81196f00008da7UL,
1238:Model/hand_landmark_ecblobs.h ****   0xff800d6f00002ad6UL, 0xff5b08fc00006163UL, 0xff91113a0000bf44UL, 0xff410de8000092c0UL,
1239:Model/hand_landmark_ecblobs.h ****   0xffe205d60000b41dUL, 0xff640cd600000845UL, 0xff83146900004670UL, 0xffb005620000078fUL,
1240:Model/hand_landmark_ecblobs.h ****   0xff720916000044d1UL, 0xffe728380000105eUL, 0xff9a08cc00009860UL, 0xff631f630000b53aUL,
1241:Model/hand_landmark_ecblobs.h ****   0xff7205310000d12eUL, 0xffd3036600003de8UL, 0xff7e05d40000f64eUL, 0xffc5084500006a4fUL,
1242:Model/hand_landmark_ecblobs.h ****   0xff7f0c8b0000eeb5UL, 0xff93115b00003c02UL, 0xff8c0c360000d64fUL, 0xff7f111e0000737cUL,
1243:Model/hand_landmark_ecblobs.h ****   0xff7f0ee80000cec9UL, 0xff7e0a5b0000a0faUL, 0xff7603390000ce8cUL, 0xffb705ba00002a10UL,
1244:Model/hand_landmark_ecblobs.h ****   0xff8004d80000d2caUL, 0xff80053800001bd8UL, 0xff80100800007d4aUL, 0xff820c630000c663UL,
1245:Model/hand_landmark_ecblobs.h ****   0xff7a03260000adddUL, 0x001816ea00000b32UL, 0xff4f11770000a6c7UL, 0xff540ce00000853eUL,
1246:Model/hand_landmark_ecblobs.h ****   0xff6a0aaf00008196UL, 0xff72073700000babUL, 0xff6f07d20000a7dfUL, 0xffc903cd0000a8e3UL,
1247:Model/hand_landmark_ecblobs.h ****   0xff7e0f4500002c04UL, 0x001904080000289bUL, 0xffd00551000090a1UL, 0xff800a1c00001a72UL,
1248:Model/hand_landmark_ecblobs.h ****   0xff8c06f000007588UL, 0xff8203a600002b95UL, 0xff8d07c5000010bcUL, 0xff880e1a00002273UL,
ARM GAS  C:\Users\DJESSOU\AppData\Local\Temp\ccZ709fi.s 			page 46


1249:Model/hand_landmark_ecblobs.h ****   0x008022a100003c4dUL, 0x0800000068000042UL, 0x68027c0015000000UL, 0x6807004300070000UL,
1250:Model/hand_landmark_ecblobs.h ****   0x0000002000004000UL, 0x00000000680c0043UL, 0x0080206110411041UL, 0x0088020020007c00UL,
1251:Model/hand_landmark_ecblobs.h ****   0x34324e8020020123UL, 0x00780002001c001cUL, 0x0000000000000d20UL, 0x0000000400000001UL,
1252:Model/hand_landmark_ecblobs.h ****   0x0010000000000024UL, 0x00000006200c0042UL, 0x200d004300000007UL, 0x3433be3f0000001eUL,
1253:Model/hand_landmark_ecblobs.h ****   0x0000000020110043UL, 0x008020a100000000UL, 0x0008018428007c00UL, 0x7087a60028020043UL,
1254:Model/hand_landmark_ecblobs.h ****   0x280500c3000010e0UL, 0x0000000000000000UL, 0x0000000000000000UL, 0x0010000000000024UL,
1255:Model/hand_landmark_ecblobs.h ****   0x00000006280c0042UL, 0x280d004300000007UL, 0x7087b71f00000001UL, 0x0000000028110043UL,
1256:Model/hand_landmark_ecblobs.h ****   0x008020e100000008UL, 0x0088020030007c00UL, 0x3430df0030020123UL, 0x00780002001c001cUL,
1257:Model/hand_landmark_ecblobs.h ****   0x0000000000000d20UL, 0x0000000400000001UL, 0x0010000000000024UL, 0x00000006300c0042UL,
1258:Model/hand_landmark_ecblobs.h ****   0x300d004300000007UL, 0x34324ebf0000001eUL, 0x0000000030110043UL, 0x0080204100000000UL,
1259:Model/hand_landmark_ecblobs.h ****   0x000801841c007c00UL, 0x7087b6e01c020043UL, 0x1c0500c3000010e0UL, 0x0000000000000000UL,
1260:Model/hand_landmark_ecblobs.h ****   0x0000000000000000UL, 0x0010000000000024UL, 0x000000061c0c0042UL, 0x1c0d004300000007UL,
1261:Model/hand_landmark_ecblobs.h ****   0x7087c7ff00000001UL, 0x000000001c110043UL, 0x0080212100000008UL, 0x0008000838007c00UL,
1262:Model/hand_landmark_ecblobs.h ****   0x3433be0038020123UL, 0x00780004000e000eUL, 0x0000000400000690UL, 0x00005be00000001eUL,
1263:Model/hand_landmark_ecblobs.h ****   0x0010000000000024UL, 0x00000006380c0042UL, 0x380d004300000007UL, 0x34341a1f0000001eUL,
1264:Model/hand_landmark_ecblobs.h ****   0x0000000038110043UL, 0x0080202100000000UL, 0x0008000818007c00UL, 0x343419e018020123UL,
1265:Model/hand_landmark_ecblobs.h ****   0x00780004000e000eUL, 0x0000000400000690UL, 0x00005be00000001eUL, 0x0010000000000024UL,
1266:Model/hand_landmark_ecblobs.h ****   0x00000006180c0042UL, 0x180d004300000007UL, 0x343475ff0000001eUL, 0x0000000018110043UL,
1267:Model/hand_landmark_ecblobs.h ****   0x10007c0000000000UL, 0x1000042400000002UL, 0x0000000000000064UL, 0x4000000010007c00UL,
1268:Model/hand_landmark_ecblobs.h ****   0x0000006410007bc4UL, 0x10007c0000000000UL, 0x10037c0000000001UL, 0x100b00630000002bUL,
1269:Model/hand_landmark_ecblobs.h ****   0x0000000700000027UL, 0x101200430000000bUL, 0x000000050000000fUL, 0x00000015101e7c00UL,
1270:Model/hand_landmark_ecblobs.h ****   0x0000002510207c00UL, 0x0000001910227c00UL, 0x0000002910247c00UL, 0x3800200118002001UL,
1271:Model/hand_landmark_ecblobs.h ****   0x201000353c007c00UL, 0x2010003544007c00UL, 0x600020015c002001UL, 0x6800200164002001UL,
1272:Model/hand_landmark_ecblobs.h ****   0x200020011c002001UL, 0x3000200128002001UL, 0x0000006418007fe4UL, 0x38007fe400000000UL,
1273:Model/hand_landmark_ecblobs.h ****   0x0000000000000064UL, 0x0000000010037c00UL, 0x00000000100b0063UL, 0x0000000000000000UL,
1274:Model/hand_landmark_ecblobs.h ****   0x0000000010120043UL, 0x101e7c0000000000UL, 0x10207c0000000000UL, 0x10227c0000000000UL,
1275:Model/hand_landmark_ecblobs.h ****   0x10247c0000000000UL, 0x18007c0000000000UL, 0x1800042400000002UL, 0x0000000000000064UL,
1276:Model/hand_landmark_ecblobs.h ****   0x4000000018007c00UL, 0x0000006418007bc4UL, 0x0080002100000000UL, 0x0000000238007c00UL,
1277:Model/hand_landmark_ecblobs.h ****   0x0000006438000424UL, 0x38007c0000000000UL, 0x38007bc440000000UL, 0x0000000000000064UL,
1278:Model/hand_landmark_ecblobs.h ****   0x3c007c0000800121UL, 0x3c00042400000002UL, 0x0000000000000064UL, 0x400000003c007c00UL,
1279:Model/hand_landmark_ecblobs.h ****   0x000000643c007bc4UL, 0x0080014100000000UL, 0x0000000244007c00UL, 0x0000006444000424UL,
1280:Model/hand_landmark_ecblobs.h ****   0x44007c0000000000UL, 0x44007bc440000000UL, 0x0000000000000064UL, 0x5c007c0000800181UL,
1281:Model/hand_landmark_ecblobs.h ****   0x5c00042408000002UL, 0x0000000000000064UL, 0x480000005c007c00UL, 0x000000645c007bc4UL,
1282:Model/hand_landmark_ecblobs.h ****   0x0080024100000000UL, 0x0800000260007c00UL, 0x0000006460000424UL, 0x60007c0000000000UL,
1283:Model/hand_landmark_ecblobs.h ****   0x60007bc448000000UL, 0x0000000000000064UL, 0x64007c0000800261UL, 0x6400042408000002UL,
1284:Model/hand_landmark_ecblobs.h ****   0x0000000000000064UL, 0x4800000064007c00UL, 0x0000006464007bc4UL, 0x0080028100000000UL,
1285:Model/hand_landmark_ecblobs.h ****   0x0800000268007c00UL, 0x0000006468000424UL, 0x68007c0000000000UL, 0x68007bc448000000UL,
1286:Model/hand_landmark_ecblobs.h ****   0x0000000000000064UL, 0x1c007c00008002a1UL, 0x1c00042400000002UL, 0x0000000000000064UL,
1287:Model/hand_landmark_ecblobs.h ****   0x400000001c007c00UL, 0x000000641c007bc4UL, 0x0080004100000000UL, 0x0000000220007c00UL,
1288:Model/hand_landmark_ecblobs.h ****   0x0000006420000424UL, 0x20007c0000000000UL, 0x20007bc440000000UL, 0x0000000000000064UL,
1289:Model/hand_landmark_ecblobs.h ****   0x28007c0000800061UL, 0x2800042400000002UL, 0x0000000000000064UL, 0x4000000028007c00UL,
1290:Model/hand_landmark_ecblobs.h ****   0x0000006428007bc4UL, 0x008000a100000000UL, 0x0000000230007c00UL, 0x0000006430000424UL,
1291:Model/hand_landmark_ecblobs.h ****   0x30007c0000000000UL, 0x30007bc440000000UL, 0x0000000000000064UL, 0x0000035d008000e1UL,
1292:Model/hand_landmark_ecblobs.h ****   0x008021610000037dUL, 0x10d0003440007c00UL, 0x14780101400200e3UL, 0x10f7400400001100UL,
1293:Model/hand_landmark_ecblobs.h ****   0x068f0000000e0690UL, 0x00130028000d0000UL, 0x00000000400a7c00UL, 0x00000000400d7c00UL,
1294:Model/hand_landmark_ecblobs.h ****   0x48007c00008021a1UL, 0x480200e310d00020UL, 0x0000110014780101UL, 0x000e069010e34400UL,
1295:Model/hand_landmark_ecblobs.h ****   0x000d0000068f0000UL, 0x480a7c0000271428UL, 0x480d7c0000000000UL, 0x0080224100000000UL,
1296:Model/hand_landmark_ecblobs.h ****   0x080000005c000042UL, 0x5c020123156000fcUL, 0x00000000000a0000UL, 0x00000f4f00000013UL,
1297:Model/hand_landmark_ecblobs.h ****   0x0000000000003d3fUL, 0x06c403ed00000000UL, 0x5c0c004300000001UL, 0x2042204200000000UL,
1298:Model/hand_landmark_ecblobs.h ****   0x000000015c0b7c00UL, 0x033634f05d001403UL, 0x00cc43fb0000c4f9UL, 0x018d3f460000f7d2UL,
1299:Model/hand_landmark_ecblobs.h ****   0xfe9355050000a2e7UL, 0xffcf2ce500000f0aUL, 0x010b34ff00009c72UL, 0x030d33540000630bUL,
1300:Model/hand_landmark_ecblobs.h ****   0x024c348500004f92UL, 0x00c73b0400007e8aUL, 0x02bf379e0000507bUL, 0x03403af400006f95UL,
1301:Model/hand_landmark_ecblobs.h ****   0x01f5309e00003052UL, 0x00ec35cd000081daUL, 0x009f35530000afdaUL, 0x026835710000f9eaUL,
1302:Model/hand_landmark_ecblobs.h ****   0x010e3e9e0000c251UL, 0x003831fd00008da8UL, 0x026f32230000a6a4UL, 0x028227fa0000a908UL,
1303:Model/hand_landmark_ecblobs.h ****   0x0246365e000082f8UL, 0x025e32950000ae37UL, 0x01853e8f00008d2cUL, 0x0115370d00005960UL,
1304:Model/hand_landmark_ecblobs.h ****   0x004d35ae0000097dUL, 0x017633e500006201UL, 0x02672c0f00005676UL, 0x00813bff0000d027UL,
1305:Model/hand_landmark_ecblobs.h ****   0x0095312000005d79UL, 0x0143362100009da6UL, 0x034e3a99000067fbUL, 0x00f03d2100005185UL,
ARM GAS  C:\Users\DJESSOU\AppData\Local\Temp\ccZ709fi.s 			page 47


1306:Model/hand_landmark_ecblobs.h ****   0x0293348500000da2UL, 0x016d2e440000c91dUL, 0x007837ad000074fdUL, 0x00be3de7000019c5UL,
1307:Model/hand_landmark_ecblobs.h ****   0x007a3d4f0000ac04UL, 0x0249342a00009b09UL, 0x00db3bb3000083d1UL, 0x03e3333d0000057cUL,
1308:Model/hand_landmark_ecblobs.h ****   0x02fe312000007f6eUL, 0xff9b30b50000dfeeUL, 0xff773bd90000cb29UL, 0x00613cb60000fefbUL,
1309:Model/hand_landmark_ecblobs.h ****   0x00d537d40000a4c6UL, 0xff8540f10000acecUL, 0x02022e9700007d54UL, 0x03232f9b00008a34UL,
1310:Model/hand_landmark_ecblobs.h ****   0x00a236c100009defUL, 0x016f34570000a5fbUL, 0x00f93a4d00007c7fUL, 0x01f1367c000001d3UL,
1311:Model/hand_landmark_ecblobs.h ****   0x027d34480000ba60UL, 0x02222dd100000364UL, 0x00f83cf300003f68UL, 0x001738200000386dUL,
1312:Model/hand_landmark_ecblobs.h ****   0x00db35dc00005eddUL, 0xfffe2b410000b826UL, 0x00dd36a200001778UL, 0x01493a100000874dUL,
1313:Model/hand_landmark_ecblobs.h ****   0x037934ab0000274bUL, 0x00db2b6000005772UL, 0x00dc35dc0000cd7aUL, 0x00d63fdf00006dedUL,
1314:Model/hand_landmark_ecblobs.h ****   0x010943350000db51UL, 0x0231354b000054f7UL, 0x002b39600000a438UL, 0x00a730fa000076c3UL,
1315:Model/hand_landmark_ecblobs.h ****   0x008b44290000d43bUL, 0x02cd413d0000e01fUL, 0x005530ad0000907eUL, 0x00a93fa200006411UL,
1316:Model/hand_landmark_ecblobs.h ****   0x012e365600006722UL, 0x015b2a5c00006ffdUL, 0x01f6438100002371UL, 0x01413e80000099daUL,
1317:Model/hand_landmark_ecblobs.h ****   0x003e37150000f64aUL, 0x02f52efb0000ee9aUL, 0x015230bc0000c3c3UL, 0xffde306900005b1cUL,
1318:Model/hand_landmark_ecblobs.h ****   0xfedd588900000e90UL, 0x0080208100007c1fUL, 0x0888030024007c00UL, 0x3433be0024020043UL,
1319:Model/hand_landmark_ecblobs.h ****   0x240500c300001ea0UL, 0x0000000000000000UL, 0x0000b7c000000004UL, 0x0010000000000024UL,
1320:Model/hand_landmark_ecblobs.h ****   0x00000006240c0042UL, 0x240d004300000007UL, 0x343475ff00000004UL, 0x0000000024110043UL,
1321:Model/hand_landmark_ecblobs.h ****   0x008020c100000000UL, 0x088801842c007c00UL, 0x707d4dc02c020043UL, 0x2c0500c300001900UL,
1322:Model/hand_landmark_ecblobs.h ****   0x0000000000000000UL, 0x0000000000000000UL, 0x0010000000000024UL, 0x000000062c0c0042UL,
1323:Model/hand_landmark_ecblobs.h ****   0x2c0d004300000007UL, 0x707d98ff00000001UL, 0x000000002c110043UL, 0x0080210100000008UL,
1324:Model/hand_landmark_ecblobs.h ****   0x0888030034007c00UL, 0x343419e034020043UL, 0x340500c300001ea0UL, 0x0000000000000000UL,
1325:Model/hand_landmark_ecblobs.h ****   0x0000b7c000000004UL, 0x0010000000000024UL, 0x00000006340c0042UL, 0x340d004300000007UL,
1326:Model/hand_landmark_ecblobs.h ****   0x343475ff00000004UL, 0x0000000034110043UL, 0x0080200100000000UL, 0x0008010814007c00UL,
1327:Model/hand_landmark_ecblobs.h ****   0x343475c014020043UL, 0x140500c300000f50UL, 0x00000f5000000000UL, 0x0000000000000000UL,
1328:Model/hand_landmark_ecblobs.h ****   0x0010000000000024UL, 0x00000006140c0042UL, 0x140d004300000007UL, 0x3434b33f00000004UL,
1329:Model/hand_landmark_ecblobs.h ****   0x0000000014110043UL, 0x10007c0000000000UL, 0x1000042400000002UL, 0x0000000000000064UL,
1330:Model/hand_landmark_ecblobs.h ****   0x4000000010007c00UL, 0x0000006410007bc4UL, 0x10007c0000000000UL, 0x10027c0000000001UL,
1331:Model/hand_landmark_ecblobs.h ****   0x100f004300000025UL, 0x0000000d00000009UL, 0x0000001110150063UL, 0x000000170000000dUL,
1332:Model/hand_landmark_ecblobs.h ****   0x0000001b101e7c00UL, 0x40007c0014002001UL, 0x48007c0010d00035UL, 0x5c00200110d00021UL,
1333:Model/hand_landmark_ecblobs.h ****   0x2c00200124002001UL, 0x14007fe434002001UL, 0x0000000000000064UL, 0x0000000010027c00UL,
1334:Model/hand_landmark_ecblobs.h ****   0x00000000100f0043UL, 0x1015006300000000UL, 0x0000000000000000UL, 0x101e7c0000000000UL,
1335:Model/hand_landmark_ecblobs.h ****   0x14007c0000000000UL, 0x1400042400000002UL, 0x0000000000000064UL, 0x4000000014007c00UL,
1336:Model/hand_landmark_ecblobs.h ****   0x0000006414007bc4UL, 0x0080000100000000UL, 0x0000000240007c00UL, 0x0000006440000424UL,
1337:Model/hand_landmark_ecblobs.h ****   0x40007c0000000000UL, 0x40007bc440000000UL, 0x0000000000000064UL, 0x48007c0000800161UL,
1338:Model/hand_landmark_ecblobs.h ****   0x4800042400000002UL, 0x0000000000000064UL, 0x4000000048007c00UL, 0x0000006448007bc4UL,
1339:Model/hand_landmark_ecblobs.h ****   0x008001a100000000UL, 0x080000025c007c00UL, 0x000000645c000424UL, 0x5c007c0000000000UL,
1340:Model/hand_landmark_ecblobs.h ****   0x5c007bc448000000UL, 0x0000000000000064UL, 0x24007c0000800241UL, 0x2400042400000002UL,
1341:Model/hand_landmark_ecblobs.h ****   0x0000000000000064UL, 0x4000000024007c00UL, 0x0000006424007bc4UL, 0x0080008100000000UL,
1342:Model/hand_landmark_ecblobs.h ****   0x000000022c007c00UL, 0x000000642c000424UL, 0x2c007c0000000000UL, 0x2c007bc440000000UL,
1343:Model/hand_landmark_ecblobs.h ****   0x0000000000000064UL, 0x34007c00008000c1UL, 0x3400042400000002UL, 0x0000000000000064UL,
