ARM GAS  C:\Users\DJESSOU\AppData\Local\Temp\ccWdjRoJ.s 			page 1


   1              		.arch armv8.1-m.main
   2              		.fpu fpv5-d16
   3              		.arch_extension dsp
   4              		.arch_extension fp
   5              		.arch_extension fp.dp
   6              		.arch_extension mve
   7              		.arch_extension mve.fp
   8              		.eabi_attribute 5, "cortex-m55"
   9              		.eabi_attribute 28, 1
  10              		.eabi_attribute 20, 1
  11              		.eabi_attribute 21, 1
  12              		.eabi_attribute 23, 3
  13              		.eabi_attribute 24, 1
  14              		.eabi_attribute 25, 1
  15              		.eabi_attribute 26, 1
  16              		.eabi_attribute 30, 4
  17              		.eabi_attribute 34, 1
  18              		.eabi_attribute 38, 1
  19              		.eabi_attribute 18, 4
  20              		.file	"imx335_reg.c"
  21              		.text
  22              	.Ltext0:
  23              		.cfi_sections	.debug_frame
  24              		.file 1 "Lib/Camera_Middleware/sensors/imx335/imx335_reg.c"
  25              		.section	.text.imx335_read_reg,"ax",%progbits
  26              		.align	1
  27              		.global	imx335_read_reg
  28              		.syntax unified
  29              		.thumb
  30              		.thumb_func
  32              	imx335_read_reg:
  33              	.LVL0:
  34              	.LFB167:
   1:Lib/Camera_Middleware/sensors/imx335/imx335_reg.c **** /**
   2:Lib/Camera_Middleware/sensors/imx335/imx335_reg.c ****   ******************************************************************************
   3:Lib/Camera_Middleware/sensors/imx335/imx335_reg.c ****   * @file    imx335_reg.c
   4:Lib/Camera_Middleware/sensors/imx335/imx335_reg.c ****   * @author  MCD Application Team
   5:Lib/Camera_Middleware/sensors/imx335/imx335_reg.c ****   * @brief   This file provides unitary register function to control the IMX335
   6:Lib/Camera_Middleware/sensors/imx335/imx335_reg.c ****   *          Camera driver.
   7:Lib/Camera_Middleware/sensors/imx335/imx335_reg.c ****   ******************************************************************************
   8:Lib/Camera_Middleware/sensors/imx335/imx335_reg.c ****   * @attention
   9:Lib/Camera_Middleware/sensors/imx335/imx335_reg.c ****   *
  10:Lib/Camera_Middleware/sensors/imx335/imx335_reg.c ****   * Copyright (c) 2022 STMicroelectronics.
  11:Lib/Camera_Middleware/sensors/imx335/imx335_reg.c ****   * All rights reserved.
  12:Lib/Camera_Middleware/sensors/imx335/imx335_reg.c ****   *
  13:Lib/Camera_Middleware/sensors/imx335/imx335_reg.c ****   * This software is licensed under terms that can be found in the LICENSE file
  14:Lib/Camera_Middleware/sensors/imx335/imx335_reg.c ****   * in the root directory of this software component.
  15:Lib/Camera_Middleware/sensors/imx335/imx335_reg.c ****   * If no LICENSE file comes with this software, it is provided AS-IS.
  16:Lib/Camera_Middleware/sensors/imx335/imx335_reg.c ****   *
  17:Lib/Camera_Middleware/sensors/imx335/imx335_reg.c ****   ******************************************************************************
  18:Lib/Camera_Middleware/sensors/imx335/imx335_reg.c ****   */
  19:Lib/Camera_Middleware/sensors/imx335/imx335_reg.c **** 
  20:Lib/Camera_Middleware/sensors/imx335/imx335_reg.c **** /* Includes ------------------------------------------------------------------*/
  21:Lib/Camera_Middleware/sensors/imx335/imx335_reg.c **** #include "imx335_reg.h"
  22:Lib/Camera_Middleware/sensors/imx335/imx335_reg.c **** 
  23:Lib/Camera_Middleware/sensors/imx335/imx335_reg.c **** /** @addtogroup BSP
  24:Lib/Camera_Middleware/sensors/imx335/imx335_reg.c ****   * @{
ARM GAS  C:\Users\DJESSOU\AppData\Local\Temp\ccWdjRoJ.s 			page 2


  25:Lib/Camera_Middleware/sensors/imx335/imx335_reg.c ****   */
  26:Lib/Camera_Middleware/sensors/imx335/imx335_reg.c **** 
  27:Lib/Camera_Middleware/sensors/imx335/imx335_reg.c **** /** @addtogroup Components
  28:Lib/Camera_Middleware/sensors/imx335/imx335_reg.c ****   * @{
  29:Lib/Camera_Middleware/sensors/imx335/imx335_reg.c ****   */
  30:Lib/Camera_Middleware/sensors/imx335/imx335_reg.c **** 
  31:Lib/Camera_Middleware/sensors/imx335/imx335_reg.c **** /** @addtogroup IMX335
  32:Lib/Camera_Middleware/sensors/imx335/imx335_reg.c ****   * @brief     This file provides a set of functions needed to drive the
  33:Lib/Camera_Middleware/sensors/imx335/imx335_reg.c ****   *            IMX335 Camera sensor.
  34:Lib/Camera_Middleware/sensors/imx335/imx335_reg.c ****   * @{
  35:Lib/Camera_Middleware/sensors/imx335/imx335_reg.c ****   */
  36:Lib/Camera_Middleware/sensors/imx335/imx335_reg.c **** 
  37:Lib/Camera_Middleware/sensors/imx335/imx335_reg.c **** /**
  38:Lib/Camera_Middleware/sensors/imx335/imx335_reg.c ****   * @brief  Read IMX335 component registers
  39:Lib/Camera_Middleware/sensors/imx335/imx335_reg.c ****   * @param  ctx component context
  40:Lib/Camera_Middleware/sensors/imx335/imx335_reg.c ****   * @param  reg Register to read from
  41:Lib/Camera_Middleware/sensors/imx335/imx335_reg.c ****   * @param  pdata Pointer to data buffer
  42:Lib/Camera_Middleware/sensors/imx335/imx335_reg.c ****   * @param  length Number of data to read
  43:Lib/Camera_Middleware/sensors/imx335/imx335_reg.c ****   * @retval Component status
  44:Lib/Camera_Middleware/sensors/imx335/imx335_reg.c ****   */
  45:Lib/Camera_Middleware/sensors/imx335/imx335_reg.c **** int32_t imx335_read_reg(imx335_ctx_t *ctx, uint16_t reg, uint8_t *pdata, uint16_t length)
  46:Lib/Camera_Middleware/sensors/imx335/imx335_reg.c **** {
  35              		.loc 1 46 1 view -0
  36              		.cfi_startproc
  37              		@ args = 0, pretend = 0, frame = 0
  38              		@ frame_needed = 0, uses_anonymous_args = 0
  39              		@ link register save eliminated.
  47:Lib/Camera_Middleware/sensors/imx335/imx335_reg.c ****   return ctx->ReadReg(ctx->handle, reg, pdata, length);
  40              		.loc 1 47 3 view .LVU1
  46:Lib/Camera_Middleware/sensors/imx335/imx335_reg.c ****   return ctx->ReadReg(ctx->handle, reg, pdata, length);
  41              		.loc 1 46 1 is_stmt 0 view .LVU2
  42 0000 10B4     		push	{r4}
  43              		.cfi_def_cfa_offset 4
  44              		.cfi_offset 4, -4
  45              		.loc 1 47 10 view .LVU3
  46 0002 D0E90140 		ldrd	r4, r0, [r0, #4]
  47              	.LVL1:
  48              		.loc 1 47 10 view .LVU4
  49 0006 A446     		mov	ip, r4
  48:Lib/Camera_Middleware/sensors/imx335/imx335_reg.c **** }
  50              		.loc 1 48 1 view .LVU5
  51 0008 5DF8044B 		ldr	r4, [sp], #4
  52              		.cfi_restore 4
  53              		.cfi_def_cfa_offset 0
  47:Lib/Camera_Middleware/sensors/imx335/imx335_reg.c ****   return ctx->ReadReg(ctx->handle, reg, pdata, length);
  54              		.loc 1 47 10 view .LVU6
  55 000c 6047     		bx	ip
  56              	.LVL2:
  47:Lib/Camera_Middleware/sensors/imx335/imx335_reg.c ****   return ctx->ReadReg(ctx->handle, reg, pdata, length);
  57              		.loc 1 47 10 view .LVU7
  58              		.cfi_endproc
  59              	.LFE167:
  61              		.section	.text.imx335_write_reg,"ax",%progbits
  62              		.align	1
  63              		.global	imx335_write_reg
  64              		.syntax unified
  65              		.thumb
ARM GAS  C:\Users\DJESSOU\AppData\Local\Temp\ccWdjRoJ.s 			page 3


  66              		.thumb_func
  68              	imx335_write_reg:
  69              	.LVL3:
  70              	.LFB168:
  49:Lib/Camera_Middleware/sensors/imx335/imx335_reg.c **** 
  50:Lib/Camera_Middleware/sensors/imx335/imx335_reg.c **** /**
  51:Lib/Camera_Middleware/sensors/imx335/imx335_reg.c ****   * @brief  Write IMX335 component registers
  52:Lib/Camera_Middleware/sensors/imx335/imx335_reg.c ****   * @param  ctx component context
  53:Lib/Camera_Middleware/sensors/imx335/imx335_reg.c ****   * @param  reg Register to write to
  54:Lib/Camera_Middleware/sensors/imx335/imx335_reg.c ****   * @param  pdata Pointer to data buffer
  55:Lib/Camera_Middleware/sensors/imx335/imx335_reg.c ****   * @param  length Number of data to write
  56:Lib/Camera_Middleware/sensors/imx335/imx335_reg.c ****   * @retval Component status
  57:Lib/Camera_Middleware/sensors/imx335/imx335_reg.c ****   */
  58:Lib/Camera_Middleware/sensors/imx335/imx335_reg.c **** int32_t imx335_write_reg(imx335_ctx_t *ctx, uint16_t reg, uint8_t *data, uint16_t length)
  59:Lib/Camera_Middleware/sensors/imx335/imx335_reg.c **** {
  71              		.loc 1 59 1 is_stmt 1 view -0
  72              		.cfi_startproc
  73              		@ args = 0, pretend = 0, frame = 0
  74              		@ frame_needed = 0, uses_anonymous_args = 0
  75              		@ link register save eliminated.
  60:Lib/Camera_Middleware/sensors/imx335/imx335_reg.c ****   return ctx->WriteReg(ctx->handle, reg, data, length);
  76              		.loc 1 60 3 view .LVU9
  59:Lib/Camera_Middleware/sensors/imx335/imx335_reg.c ****   return ctx->WriteReg(ctx->handle, reg, data, length);
  77              		.loc 1 59 1 is_stmt 0 view .LVU10
  78 0000 10B4     		push	{r4}
  79              		.cfi_def_cfa_offset 4
  80              		.cfi_offset 4, -4
  81              		.loc 1 60 10 view .LVU11
  82 0002 0468     		ldr	r4, [r0]
  83 0004 8068     		ldr	r0, [r0, #8]
  84              	.LVL4:
  85              		.loc 1 60 10 view .LVU12
  86 0006 A446     		mov	ip, r4
  61:Lib/Camera_Middleware/sensors/imx335/imx335_reg.c **** }
  87              		.loc 1 61 1 view .LVU13
  88 0008 5DF8044B 		ldr	r4, [sp], #4
  89              		.cfi_restore 4
  90              		.cfi_def_cfa_offset 0
  60:Lib/Camera_Middleware/sensors/imx335/imx335_reg.c ****   return ctx->WriteReg(ctx->handle, reg, data, length);
  91              		.loc 1 60 10 view .LVU14
  92 000c 6047     		bx	ip
  93              	.LVL5:
  60:Lib/Camera_Middleware/sensors/imx335/imx335_reg.c ****   return ctx->WriteReg(ctx->handle, reg, data, length);
  94              		.loc 1 60 10 view .LVU15
  95              		.cfi_endproc
  96              	.LFE168:
  98              		.text
  99              	.Letext0:
 100              		.file 2 "C:\\ST\\STM32CubeIDE_1.18.1\\STM32CubeIDE\\plugins\\com.st.stm32cube.ide.mcu.externaltool
 101              		.file 3 "C:\\ST\\STM32CubeIDE_1.18.1\\STM32CubeIDE\\plugins\\com.st.stm32cube.ide.mcu.externaltool
 102              		.file 4 "Lib/Camera_Middleware/sensors/imx335/imx335_reg.h"
ARM GAS  C:\Users\DJESSOU\AppData\Local\Temp\ccWdjRoJ.s 			page 4

