ARM GAS  C:\Users\DJESSOU\AppData\Local\Temp\ccch1XY5.s 			page 1


   1              		.arch armv8.1-m.main
   2              		.fpu fpv5-d16
   3              		.arch_extension dsp
   4              		.arch_extension fp
   5              		.arch_extension fp.dp
   6              		.arch_extension mve
   7              		.arch_extension mve.fp
   8              		.eabi_attribute 5, "cortex-m55"
   9              		.eabi_attribute 28, 1
  10              		.eabi_attribute 20, 1
  11              		.eabi_attribute 21, 1
  12              		.eabi_attribute 23, 3
  13              		.eabi_attribute 24, 1
  14              		.eabi_attribute 25, 1
  15              		.eabi_attribute 26, 1
  16              		.eabi_attribute 30, 4
  17              		.eabi_attribute 34, 1
  18              		.eabi_attribute 38, 1
  19              		.eabi_attribute 18, 4
  20              		.file	"isp_algo.c"
  21              		.text
  22              	.Ltext0:
  23              		.cfi_sections	.debug_frame
  24              		.file 1 "Lib/Camera_Middleware/ISP_Library/isp/Src/isp_algo.c"
  25              		.section	.text.ISP_Algo_BadPixel_Init,"ax",%progbits
  26              		.align	1
  27              		.global	ISP_Algo_BadPixel_Init
  28              		.syntax unified
  29              		.thumb
  30              		.thumb_func
  32              	ISP_Algo_BadPixel_Init:
  33              	.LVL0:
  34              	.LFB865:
   1:Lib/Camera_Middleware/ISP_Library/isp/Src/isp_algo.c **** /**
   2:Lib/Camera_Middleware/ISP_Library/isp/Src/isp_algo.c ****  ******************************************************************************
   3:Lib/Camera_Middleware/ISP_Library/isp/Src/isp_algo.c ****  * @file    isp_algo.c
   4:Lib/Camera_Middleware/ISP_Library/isp/Src/isp_algo.c ****  * @author  AIS Application Team
   5:Lib/Camera_Middleware/ISP_Library/isp/Src/isp_algo.c ****  * @brief   ISP algorithm
   6:Lib/Camera_Middleware/ISP_Library/isp/Src/isp_algo.c ****  ******************************************************************************
   7:Lib/Camera_Middleware/ISP_Library/isp/Src/isp_algo.c ****  * @attention
   8:Lib/Camera_Middleware/ISP_Library/isp/Src/isp_algo.c ****  *
   9:Lib/Camera_Middleware/ISP_Library/isp/Src/isp_algo.c ****  * Copyright (c) 2023 STMicroelectronics.
  10:Lib/Camera_Middleware/ISP_Library/isp/Src/isp_algo.c ****  * All rights reserved.
  11:Lib/Camera_Middleware/ISP_Library/isp/Src/isp_algo.c ****  *
  12:Lib/Camera_Middleware/ISP_Library/isp/Src/isp_algo.c ****  * This software is licensed under terms that can be found in the LICENSE file
  13:Lib/Camera_Middleware/ISP_Library/isp/Src/isp_algo.c ****  * in the root directory of this software component.
  14:Lib/Camera_Middleware/ISP_Library/isp/Src/isp_algo.c ****  * If no LICENSE file comes with this software, it is provided AS-IS.
  15:Lib/Camera_Middleware/ISP_Library/isp/Src/isp_algo.c ****  *
  16:Lib/Camera_Middleware/ISP_Library/isp/Src/isp_algo.c ****  ******************************************************************************
  17:Lib/Camera_Middleware/ISP_Library/isp/Src/isp_algo.c ****  */
  18:Lib/Camera_Middleware/ISP_Library/isp/Src/isp_algo.c **** 
  19:Lib/Camera_Middleware/ISP_Library/isp/Src/isp_algo.c **** /* Includes ------------------------------------------------------------------*/
  20:Lib/Camera_Middleware/ISP_Library/isp/Src/isp_algo.c **** #include "isp_core.h"
  21:Lib/Camera_Middleware/ISP_Library/isp/Src/isp_algo.c **** #include "isp_algo.h"
  22:Lib/Camera_Middleware/ISP_Library/isp/Src/isp_algo.c **** #include "isp_services.h"
  23:Lib/Camera_Middleware/ISP_Library/isp/Src/isp_algo.c **** #include "isp_ae_algo.h"
  24:Lib/Camera_Middleware/ISP_Library/isp/Src/isp_algo.c **** #include "isp_awb_algo.h"
ARM GAS  C:\Users\DJESSOU\AppData\Local\Temp\ccch1XY5.s 			page 2


  25:Lib/Camera_Middleware/ISP_Library/isp/Src/isp_algo.c **** #include <limits.h>
  26:Lib/Camera_Middleware/ISP_Library/isp/Src/isp_algo.c **** #include <math.h>
  27:Lib/Camera_Middleware/ISP_Library/isp/Src/isp_algo.c **** #include <inttypes.h>
  28:Lib/Camera_Middleware/ISP_Library/isp/Src/isp_algo.c **** 
  29:Lib/Camera_Middleware/ISP_Library/isp/Src/isp_algo.c **** /* Private types -------------------------------------------------------------*/
  30:Lib/Camera_Middleware/ISP_Library/isp/Src/isp_algo.c **** /* ISP algorithms identifier */
  31:Lib/Camera_Middleware/ISP_Library/isp/Src/isp_algo.c **** typedef enum
  32:Lib/Camera_Middleware/ISP_Library/isp/Src/isp_algo.c **** {
  33:Lib/Camera_Middleware/ISP_Library/isp/Src/isp_algo.c ****   ISP_ALGO_ID_BACKGROUND = 0U,
  34:Lib/Camera_Middleware/ISP_Library/isp/Src/isp_algo.c ****   ISP_ALGO_ID_BADPIXEL,
  35:Lib/Camera_Middleware/ISP_Library/isp/Src/isp_algo.c ****   ISP_ALGO_ID_AEC,
  36:Lib/Camera_Middleware/ISP_Library/isp/Src/isp_algo.c ****   ISP_ALGO_ID_AWB,
  37:Lib/Camera_Middleware/ISP_Library/isp/Src/isp_algo.c ****   ISP_ALGO_ID_SENSOR_DELAY = 255U,
  38:Lib/Camera_Middleware/ISP_Library/isp/Src/isp_algo.c **** } ISP_AlgoIDTypeDef;
  39:Lib/Camera_Middleware/ISP_Library/isp/Src/isp_algo.c **** 
  40:Lib/Camera_Middleware/ISP_Library/isp/Src/isp_algo.c **** /* Private constants ---------------------------------------------------------*/
  41:Lib/Camera_Middleware/ISP_Library/isp/Src/isp_algo.c **** /* Delay (in number of VSYNC) between the time an ISP control (e.g. ColorConv)
  42:Lib/Camera_Middleware/ISP_Library/isp/Src/isp_algo.c ****  * is updated and the time the frame is actually updated. Typical user = AWB algo. */
  43:Lib/Camera_Middleware/ISP_Library/isp/Src/isp_algo.c **** #define ALGO_ISP_LATENCY                             2
  44:Lib/Camera_Middleware/ISP_Library/isp/Src/isp_algo.c **** /* Additional delay to let things getting stable after an AWB update */
  45:Lib/Camera_Middleware/ISP_Library/isp/Src/isp_algo.c **** #define ALGO_AWB_ADDITIONAL_LATENCY                  3
  46:Lib/Camera_Middleware/ISP_Library/isp/Src/isp_algo.c **** 
  47:Lib/Camera_Middleware/ISP_Library/isp/Src/isp_algo.c **** /* Debug logs control */
  48:Lib/Camera_Middleware/ISP_Library/isp/Src/isp_algo.c **** //#define ALGO_AEC_DBG_LOGS
  49:Lib/Camera_Middleware/ISP_Library/isp/Src/isp_algo.c **** //#define ALGO_PERF_DBG_LOGS
  50:Lib/Camera_Middleware/ISP_Library/isp/Src/isp_algo.c **** 
  51:Lib/Camera_Middleware/ISP_Library/isp/Src/isp_algo.c **** #ifdef ALGO_PERF_DBG_LOGS
  52:Lib/Camera_Middleware/ISP_Library/isp/Src/isp_algo.c **** #define MEAS_ITERATION 30
  53:Lib/Camera_Middleware/ISP_Library/isp/Src/isp_algo.c **** #endif
  54:Lib/Camera_Middleware/ISP_Library/isp/Src/isp_algo.c **** 
  55:Lib/Camera_Middleware/ISP_Library/isp/Src/isp_algo.c **** /* Max acceptable sensor delay */
  56:Lib/Camera_Middleware/ISP_Library/isp/Src/isp_algo.c **** #define ALGO_DELAY_MAX               10
  57:Lib/Camera_Middleware/ISP_Library/isp/Src/isp_algo.c **** /* Number of delay test configurations */
  58:Lib/Camera_Middleware/ISP_Library/isp/Src/isp_algo.c **** #define ALGO_DELAY_NB_CONFIG         12
  59:Lib/Camera_Middleware/ISP_Library/isp/Src/isp_algo.c **** /* Minimum Luminance update during delay test measurements */
  60:Lib/Camera_Middleware/ISP_Library/isp/Src/isp_algo.c **** #define ALGO_DELAY_L_MARGIN          3
  61:Lib/Camera_Middleware/ISP_Library/isp/Src/isp_algo.c **** 
  62:Lib/Camera_Middleware/ISP_Library/isp/Src/isp_algo.c **** /* Private macro -------------------------------------------------------------*/
  63:Lib/Camera_Middleware/ISP_Library/isp/Src/isp_algo.c **** /* Private function prototypes -----------------------------------------------*/
  64:Lib/Camera_Middleware/ISP_Library/isp/Src/isp_algo.c **** ISP_StatusTypeDef ISP_Algo_BadPixel_Init(void *hIsp, void *pAlgo);
  65:Lib/Camera_Middleware/ISP_Library/isp/Src/isp_algo.c **** ISP_StatusTypeDef ISP_Algo_BadPixel_DeInit(void *hIsp, void *pAlgo);
  66:Lib/Camera_Middleware/ISP_Library/isp/Src/isp_algo.c **** ISP_StatusTypeDef ISP_Algo_BadPixel_Process(void *hIsp, void *pAlgo);
  67:Lib/Camera_Middleware/ISP_Library/isp/Src/isp_algo.c **** ISP_StatusTypeDef ISP_Algo_AEC_Init(void *hIsp, void *pAlgo);
  68:Lib/Camera_Middleware/ISP_Library/isp/Src/isp_algo.c **** ISP_StatusTypeDef ISP_Algo_AEC_DeInit(void *hIsp, void *pAlgo);
  69:Lib/Camera_Middleware/ISP_Library/isp/Src/isp_algo.c **** ISP_StatusTypeDef ISP_Algo_AEC_Process(void *hIsp, void *pAlgo);
  70:Lib/Camera_Middleware/ISP_Library/isp/Src/isp_algo.c **** ISP_StatusTypeDef ISP_Algo_AWB_Init(void *hIsp, void *pAlgo);
  71:Lib/Camera_Middleware/ISP_Library/isp/Src/isp_algo.c **** ISP_StatusTypeDef ISP_Algo_AWB_DeInit(void *hIsp, void *pAlgo);
  72:Lib/Camera_Middleware/ISP_Library/isp/Src/isp_algo.c **** ISP_StatusTypeDef ISP_Algo_AWB_Process(void *hIsp, void *pAlgo);
  73:Lib/Camera_Middleware/ISP_Library/isp/Src/isp_algo.c **** ISP_StatusTypeDef ISP_Algo_Background_Init(void *hIsp, void *pAlgo);
  74:Lib/Camera_Middleware/ISP_Library/isp/Src/isp_algo.c **** ISP_StatusTypeDef ISP_Algo_Background_DeInit(void *hIsp, void *pAlgo);
  75:Lib/Camera_Middleware/ISP_Library/isp/Src/isp_algo.c **** ISP_StatusTypeDef ISP_Algo_Background_Process(void *hIsp, void *pAlgo);
  76:Lib/Camera_Middleware/ISP_Library/isp/Src/isp_algo.c **** #ifdef ISP_MW_TUNING_TOOL_SUPPORT
  77:Lib/Camera_Middleware/ISP_Library/isp/Src/isp_algo.c **** ISP_StatusTypeDef ISP_Algo_SensorDelay_Init(void *hIsp, void *pAlgo);
  78:Lib/Camera_Middleware/ISP_Library/isp/Src/isp_algo.c **** ISP_StatusTypeDef ISP_Algo_SensorDelay_DeInit(void *hIsp, void *pAlgo);
  79:Lib/Camera_Middleware/ISP_Library/isp/Src/isp_algo.c **** ISP_StatusTypeDef ISP_Algo_SensorDelay_Process(void *hIsp, void *pAlgo);
  80:Lib/Camera_Middleware/ISP_Library/isp/Src/isp_algo.c **** #endif
  81:Lib/Camera_Middleware/ISP_Library/isp/Src/isp_algo.c **** 
ARM GAS  C:\Users\DJESSOU\AppData\Local\Temp\ccch1XY5.s 			page 3


  82:Lib/Camera_Middleware/ISP_Library/isp/Src/isp_algo.c **** /* Private variables ---------------------------------------------------------*/
  83:Lib/Camera_Middleware/ISP_Library/isp/Src/isp_algo.c **** /* Bad Pixel algorithm handle */
  84:Lib/Camera_Middleware/ISP_Library/isp/Src/isp_algo.c **** ISP_AlgoTypeDef ISP_Algo_BadPixel = {
  85:Lib/Camera_Middleware/ISP_Library/isp/Src/isp_algo.c ****     .id = ISP_ALGO_ID_BADPIXEL,
  86:Lib/Camera_Middleware/ISP_Library/isp/Src/isp_algo.c ****     .Init = ISP_Algo_BadPixel_Init,
  87:Lib/Camera_Middleware/ISP_Library/isp/Src/isp_algo.c ****     .DeInit = ISP_Algo_BadPixel_DeInit,
  88:Lib/Camera_Middleware/ISP_Library/isp/Src/isp_algo.c ****     .Process = ISP_Algo_BadPixel_Process,
  89:Lib/Camera_Middleware/ISP_Library/isp/Src/isp_algo.c **** };
  90:Lib/Camera_Middleware/ISP_Library/isp/Src/isp_algo.c **** 
  91:Lib/Camera_Middleware/ISP_Library/isp/Src/isp_algo.c **** #ifdef ISP_MW_SW_AEC_ALGO_SUPPORT
  92:Lib/Camera_Middleware/ISP_Library/isp/Src/isp_algo.c **** /* AEC algorithm handle */
  93:Lib/Camera_Middleware/ISP_Library/isp/Src/isp_algo.c **** ISP_AlgoTypeDef ISP_Algo_AEC = {
  94:Lib/Camera_Middleware/ISP_Library/isp/Src/isp_algo.c ****     .id = ISP_ALGO_ID_AEC,
  95:Lib/Camera_Middleware/ISP_Library/isp/Src/isp_algo.c ****     .Init = ISP_Algo_AEC_Init,
  96:Lib/Camera_Middleware/ISP_Library/isp/Src/isp_algo.c ****     .DeInit = ISP_Algo_AEC_DeInit,
  97:Lib/Camera_Middleware/ISP_Library/isp/Src/isp_algo.c ****     .Process = ISP_Algo_AEC_Process,
  98:Lib/Camera_Middleware/ISP_Library/isp/Src/isp_algo.c **** };
  99:Lib/Camera_Middleware/ISP_Library/isp/Src/isp_algo.c **** #endif /* ISP_MW_SW_AEC_ALGO_SUPPORT */
 100:Lib/Camera_Middleware/ISP_Library/isp/Src/isp_algo.c **** 
 101:Lib/Camera_Middleware/ISP_Library/isp/Src/isp_algo.c **** #ifdef ISP_MW_SW_AWB_ALGO_SUPPORT
 102:Lib/Camera_Middleware/ISP_Library/isp/Src/isp_algo.c **** /* AWB algorithm handle */
 103:Lib/Camera_Middleware/ISP_Library/isp/Src/isp_algo.c **** ISP_AlgoTypeDef ISP_Algo_AWB = {
 104:Lib/Camera_Middleware/ISP_Library/isp/Src/isp_algo.c ****     .id = ISP_ALGO_ID_AWB,
 105:Lib/Camera_Middleware/ISP_Library/isp/Src/isp_algo.c ****     .Init = ISP_Algo_AWB_Init,
 106:Lib/Camera_Middleware/ISP_Library/isp/Src/isp_algo.c ****     .DeInit = ISP_Algo_AWB_DeInit,
 107:Lib/Camera_Middleware/ISP_Library/isp/Src/isp_algo.c ****     .Process = ISP_Algo_AWB_Process,
 108:Lib/Camera_Middleware/ISP_Library/isp/Src/isp_algo.c **** };
 109:Lib/Camera_Middleware/ISP_Library/isp/Src/isp_algo.c **** #endif /* ISP_MW_SW_AWB_ALGO_SUPPORT */
 110:Lib/Camera_Middleware/ISP_Library/isp/Src/isp_algo.c **** 
 111:Lib/Camera_Middleware/ISP_Library/isp/Src/isp_algo.c **** #ifdef ISP_MW_TUNING_TOOL_SUPPORT
 112:Lib/Camera_Middleware/ISP_Library/isp/Src/isp_algo.c **** /* Sensor Delay measurement algorithm handle */
 113:Lib/Camera_Middleware/ISP_Library/isp/Src/isp_algo.c **** ISP_AlgoTypeDef ISP_Algo_SensorDelay = {
 114:Lib/Camera_Middleware/ISP_Library/isp/Src/isp_algo.c ****     .id = ISP_ALGO_ID_SENSOR_DELAY,
 115:Lib/Camera_Middleware/ISP_Library/isp/Src/isp_algo.c ****     .Init = ISP_Algo_SensorDelay_Init,
 116:Lib/Camera_Middleware/ISP_Library/isp/Src/isp_algo.c ****     .DeInit = ISP_Algo_SensorDelay_DeInit,
 117:Lib/Camera_Middleware/ISP_Library/isp/Src/isp_algo.c ****     .Process = ISP_Algo_SensorDelay_Process,
 118:Lib/Camera_Middleware/ISP_Library/isp/Src/isp_algo.c **** };
 119:Lib/Camera_Middleware/ISP_Library/isp/Src/isp_algo.c **** #endif
 120:Lib/Camera_Middleware/ISP_Library/isp/Src/isp_algo.c **** 
 121:Lib/Camera_Middleware/ISP_Library/isp/Src/isp_algo.c **** /* Background algorithm handle for statistics update */
 122:Lib/Camera_Middleware/ISP_Library/isp/Src/isp_algo.c **** ISP_AlgoTypeDef ISP_Algo_Background = {
 123:Lib/Camera_Middleware/ISP_Library/isp/Src/isp_algo.c ****     .id = ISP_ALGO_ID_BACKGROUND,
 124:Lib/Camera_Middleware/ISP_Library/isp/Src/isp_algo.c ****     .Init = ISP_Algo_Background_Init,
 125:Lib/Camera_Middleware/ISP_Library/isp/Src/isp_algo.c ****     .DeInit = ISP_Algo_Background_DeInit,
 126:Lib/Camera_Middleware/ISP_Library/isp/Src/isp_algo.c ****     .Process = ISP_Algo_Background_Process,
 127:Lib/Camera_Middleware/ISP_Library/isp/Src/isp_algo.c **** };
 128:Lib/Camera_Middleware/ISP_Library/isp/Src/isp_algo.c **** 
 129:Lib/Camera_Middleware/ISP_Library/isp/Src/isp_algo.c **** /* Registered algorithm list */
 130:Lib/Camera_Middleware/ISP_Library/isp/Src/isp_algo.c **** ISP_AlgoTypeDef *ISP_Algo_List[] = {
 131:Lib/Camera_Middleware/ISP_Library/isp/Src/isp_algo.c ****     &ISP_Algo_Background,
 132:Lib/Camera_Middleware/ISP_Library/isp/Src/isp_algo.c ****     &ISP_Algo_BadPixel,
 133:Lib/Camera_Middleware/ISP_Library/isp/Src/isp_algo.c **** #ifdef ISP_MW_SW_AEC_ALGO_SUPPORT
 134:Lib/Camera_Middleware/ISP_Library/isp/Src/isp_algo.c ****     &ISP_Algo_AEC,
 135:Lib/Camera_Middleware/ISP_Library/isp/Src/isp_algo.c **** #endif /* ISP_MW_SW_AEC_ALGO_SUPPORT */
 136:Lib/Camera_Middleware/ISP_Library/isp/Src/isp_algo.c **** #ifdef ISP_MW_SW_AWB_ALGO_SUPPORT
 137:Lib/Camera_Middleware/ISP_Library/isp/Src/isp_algo.c ****     &ISP_Algo_AWB,
 138:Lib/Camera_Middleware/ISP_Library/isp/Src/isp_algo.c **** #endif /* ISP_MW_SW_AWB_ALGO_SUPPORT */
ARM GAS  C:\Users\DJESSOU\AppData\Local\Temp\ccch1XY5.s 			page 4


 139:Lib/Camera_Middleware/ISP_Library/isp/Src/isp_algo.c **** #ifdef ISP_MW_TUNING_TOOL_SUPPORT
 140:Lib/Camera_Middleware/ISP_Library/isp/Src/isp_algo.c ****     &ISP_Algo_SensorDelay,
 141:Lib/Camera_Middleware/ISP_Library/isp/Src/isp_algo.c **** #endif /* ISP_MW_TUNING_TOOL_SUPPORT */
 142:Lib/Camera_Middleware/ISP_Library/isp/Src/isp_algo.c **** };
 143:Lib/Camera_Middleware/ISP_Library/isp/Src/isp_algo.c **** 
 144:Lib/Camera_Middleware/ISP_Library/isp/Src/isp_algo.c **** /* Global variables ----------------------------------------------------------*/
 145:Lib/Camera_Middleware/ISP_Library/isp/Src/isp_algo.c **** ISP_MetaTypeDef Meta = {0};
 146:Lib/Camera_Middleware/ISP_Library/isp/Src/isp_algo.c **** 
 147:Lib/Camera_Middleware/ISP_Library/isp/Src/isp_algo.c **** /* Private functions ---------------------------------------------------------*/
 148:Lib/Camera_Middleware/ISP_Library/isp/Src/isp_algo.c **** /**
 149:Lib/Camera_Middleware/ISP_Library/isp/Src/isp_algo.c ****   * @brief  ISP_Algo_BadPixel_Init
 150:Lib/Camera_Middleware/ISP_Library/isp/Src/isp_algo.c ****   *         Initialize the BadPixel algorithm
 151:Lib/Camera_Middleware/ISP_Library/isp/Src/isp_algo.c ****   * @param  hIsp:  ISP device handle. To cast in (ISP_HandleTypeDef *).
 152:Lib/Camera_Middleware/ISP_Library/isp/Src/isp_algo.c ****   * @param  pAlgo: ISP algorithm handle. To cast in (ISP_AlgoTypeDef *).
 153:Lib/Camera_Middleware/ISP_Library/isp/Src/isp_algo.c ****   * @retval operation result
 154:Lib/Camera_Middleware/ISP_Library/isp/Src/isp_algo.c ****   */
 155:Lib/Camera_Middleware/ISP_Library/isp/Src/isp_algo.c **** ISP_StatusTypeDef ISP_Algo_BadPixel_Init(void *hIsp, void *pAlgo)
 156:Lib/Camera_Middleware/ISP_Library/isp/Src/isp_algo.c **** {
  35              		.loc 1 156 1 view -0
  36              		.cfi_startproc
  37              		@ args = 0, pretend = 0, frame = 0
  38              		@ frame_needed = 0, uses_anonymous_args = 0
  39              		@ link register save eliminated.
 157:Lib/Camera_Middleware/ISP_Library/isp/Src/isp_algo.c ****   (void)hIsp; /* unused */
  40              		.loc 1 157 3 view .LVU1
 158:Lib/Camera_Middleware/ISP_Library/isp/Src/isp_algo.c **** 
 159:Lib/Camera_Middleware/ISP_Library/isp/Src/isp_algo.c ****   ((ISP_AlgoTypeDef *)pAlgo)->state = ISP_ALGO_STATE_INIT;
  41              		.loc 1 159 3 view .LVU2
  42              		.loc 1 159 37 is_stmt 0 view .LVU3
  43 0000 0020     		movs	r0, #0
  44              	.LVL1:
  45              		.loc 1 159 37 view .LVU4
  46 0002 4870     		strb	r0, [r1, #1]
 160:Lib/Camera_Middleware/ISP_Library/isp/Src/isp_algo.c **** 
 161:Lib/Camera_Middleware/ISP_Library/isp/Src/isp_algo.c ****   return ISP_OK;
  47              		.loc 1 161 3 is_stmt 1 view .LVU5
 162:Lib/Camera_Middleware/ISP_Library/isp/Src/isp_algo.c **** }
  48              		.loc 1 162 1 is_stmt 0 view .LVU6
  49 0004 7047     		bx	lr
  50              		.cfi_endproc
  51              	.LFE865:
  53              		.section	.text.ISP_Algo_BadPixel_DeInit,"ax",%progbits
  54              		.align	1
  55              		.global	ISP_Algo_BadPixel_DeInit
  56              		.syntax unified
  57              		.thumb
  58              		.thumb_func
  60              	ISP_Algo_BadPixel_DeInit:
  61              	.LVL2:
  62              	.LFB866:
 163:Lib/Camera_Middleware/ISP_Library/isp/Src/isp_algo.c **** 
 164:Lib/Camera_Middleware/ISP_Library/isp/Src/isp_algo.c **** /**
 165:Lib/Camera_Middleware/ISP_Library/isp/Src/isp_algo.c ****   * @brief  ISP_Algo_BadPixel_DeInit
 166:Lib/Camera_Middleware/ISP_Library/isp/Src/isp_algo.c ****   *         Deinitialize the BadPixel algorithm
 167:Lib/Camera_Middleware/ISP_Library/isp/Src/isp_algo.c ****   * @param  hIsp:  ISP device handle. To cast in (ISP_HandleTypeDef *).
 168:Lib/Camera_Middleware/ISP_Library/isp/Src/isp_algo.c ****   * @param  pAlgo: ISP algorithm handle. To cast in (ISP_AlgoTypeDef *).
 169:Lib/Camera_Middleware/ISP_Library/isp/Src/isp_algo.c ****   * @retval operation result
ARM GAS  C:\Users\DJESSOU\AppData\Local\Temp\ccch1XY5.s 			page 5


 170:Lib/Camera_Middleware/ISP_Library/isp/Src/isp_algo.c ****   */
 171:Lib/Camera_Middleware/ISP_Library/isp/Src/isp_algo.c **** ISP_StatusTypeDef ISP_Algo_BadPixel_DeInit(void *hIsp, void *pAlgo)
 172:Lib/Camera_Middleware/ISP_Library/isp/Src/isp_algo.c **** {
  63              		.loc 1 172 1 is_stmt 1 view -0
  64              		.cfi_startproc
  65              		@ args = 0, pretend = 0, frame = 0
  66              		@ frame_needed = 0, uses_anonymous_args = 0
  67              		@ link register save eliminated.
 173:Lib/Camera_Middleware/ISP_Library/isp/Src/isp_algo.c ****   (void)hIsp; /* unused */
  68              		.loc 1 173 3 view .LVU8
 174:Lib/Camera_Middleware/ISP_Library/isp/Src/isp_algo.c ****   (void)pAlgo; /* unused */
  69              		.loc 1 174 3 view .LVU9
 175:Lib/Camera_Middleware/ISP_Library/isp/Src/isp_algo.c **** 
 176:Lib/Camera_Middleware/ISP_Library/isp/Src/isp_algo.c ****   return ISP_OK;
  70              		.loc 1 176 3 view .LVU10
 177:Lib/Camera_Middleware/ISP_Library/isp/Src/isp_algo.c **** }
  71              		.loc 1 177 1 is_stmt 0 view .LVU11
  72 0000 0020     		movs	r0, #0
  73              	.LVL3:
  74              		.loc 1 177 1 view .LVU12
  75 0002 7047     		bx	lr
  76              		.cfi_endproc
  77              	.LFE866:
  79              		.section	.text.ISP_Algo_AEC_StatCb,"ax",%progbits
  80              		.align	1
  81              		.global	ISP_Algo_AEC_StatCb
  82              		.syntax unified
  83              		.thumb
  84              		.thumb_func
  86              	ISP_Algo_AEC_StatCb:
  87              	.LVL4:
  88              	.LFB870:
 178:Lib/Camera_Middleware/ISP_Library/isp/Src/isp_algo.c **** 
 179:Lib/Camera_Middleware/ISP_Library/isp/Src/isp_algo.c **** /**
 180:Lib/Camera_Middleware/ISP_Library/isp/Src/isp_algo.c ****   * @brief  ISP_Algo_BadPixel_Process
 181:Lib/Camera_Middleware/ISP_Library/isp/Src/isp_algo.c ****   *         Process the BadPixel algorithm
 182:Lib/Camera_Middleware/ISP_Library/isp/Src/isp_algo.c ****   * @param  hIsp:  ISP device handle. To cast in (ISP_HandleTypeDef *).
 183:Lib/Camera_Middleware/ISP_Library/isp/Src/isp_algo.c ****   * @param  pAlgo: ISP algorithm handle. To cast in (ISP_AlgoTypeDef *).
 184:Lib/Camera_Middleware/ISP_Library/isp/Src/isp_algo.c ****   * @retval operation result
 185:Lib/Camera_Middleware/ISP_Library/isp/Src/isp_algo.c ****   */
 186:Lib/Camera_Middleware/ISP_Library/isp/Src/isp_algo.c **** ISP_StatusTypeDef ISP_Algo_BadPixel_Process(void *hIsp, void *pAlgo)
 187:Lib/Camera_Middleware/ISP_Library/isp/Src/isp_algo.c **** {
 188:Lib/Camera_Middleware/ISP_Library/isp/Src/isp_algo.c ****   (void)hIsp; /* unused */
 189:Lib/Camera_Middleware/ISP_Library/isp/Src/isp_algo.c ****   (void)pAlgo; /* unused */
 190:Lib/Camera_Middleware/ISP_Library/isp/Src/isp_algo.c ****   static uint32_t BadPixelCount, LastFrameId;
 191:Lib/Camera_Middleware/ISP_Library/isp/Src/isp_algo.c ****   static int8_t Step;
 192:Lib/Camera_Middleware/ISP_Library/isp/Src/isp_algo.c ****   uint32_t CurrentFrameId;
 193:Lib/Camera_Middleware/ISP_Library/isp/Src/isp_algo.c ****   ISP_BadPixelTypeDef BadPixelConfig;
 194:Lib/Camera_Middleware/ISP_Library/isp/Src/isp_algo.c ****   ISP_IQParamTypeDef *IQParamConfig;
 195:Lib/Camera_Middleware/ISP_Library/isp/Src/isp_algo.c ****   ISP_StatusTypeDef ret;
 196:Lib/Camera_Middleware/ISP_Library/isp/Src/isp_algo.c **** 
 197:Lib/Camera_Middleware/ISP_Library/isp/Src/isp_algo.c ****   IQParamConfig = ISP_SVC_IQParam_Get(hIsp);
 198:Lib/Camera_Middleware/ISP_Library/isp/Src/isp_algo.c **** 
 199:Lib/Camera_Middleware/ISP_Library/isp/Src/isp_algo.c ****   if (IQParamConfig->badPixelAlgo.enable == false)
 200:Lib/Camera_Middleware/ISP_Library/isp/Src/isp_algo.c ****   {
 201:Lib/Camera_Middleware/ISP_Library/isp/Src/isp_algo.c ****     return ISP_OK;
 202:Lib/Camera_Middleware/ISP_Library/isp/Src/isp_algo.c ****   }
ARM GAS  C:\Users\DJESSOU\AppData\Local\Temp\ccch1XY5.s 			page 6


 203:Lib/Camera_Middleware/ISP_Library/isp/Src/isp_algo.c **** 
 204:Lib/Camera_Middleware/ISP_Library/isp/Src/isp_algo.c ****   /* Wait for a new frame */
 205:Lib/Camera_Middleware/ISP_Library/isp/Src/isp_algo.c ****   CurrentFrameId = ISP_SVC_Misc_GetMainFrameId(hIsp);
 206:Lib/Camera_Middleware/ISP_Library/isp/Src/isp_algo.c ****   if (CurrentFrameId == LastFrameId)
 207:Lib/Camera_Middleware/ISP_Library/isp/Src/isp_algo.c ****   {
 208:Lib/Camera_Middleware/ISP_Library/isp/Src/isp_algo.c ****     return ISP_OK;
 209:Lib/Camera_Middleware/ISP_Library/isp/Src/isp_algo.c ****   }
 210:Lib/Camera_Middleware/ISP_Library/isp/Src/isp_algo.c ****   LastFrameId = CurrentFrameId;
 211:Lib/Camera_Middleware/ISP_Library/isp/Src/isp_algo.c **** 
 212:Lib/Camera_Middleware/ISP_Library/isp/Src/isp_algo.c ****   if (Step++ >= 0)
 213:Lib/Camera_Middleware/ISP_Library/isp/Src/isp_algo.c ****   {
 214:Lib/Camera_Middleware/ISP_Library/isp/Src/isp_algo.c ****     /* Measure the number of bad pixels */
 215:Lib/Camera_Middleware/ISP_Library/isp/Src/isp_algo.c ****     ret = ISP_SVC_ISP_GetBadPixel(hIsp, &BadPixelConfig);
 216:Lib/Camera_Middleware/ISP_Library/isp/Src/isp_algo.c ****     if (ret != ISP_OK)
 217:Lib/Camera_Middleware/ISP_Library/isp/Src/isp_algo.c ****     {
 218:Lib/Camera_Middleware/ISP_Library/isp/Src/isp_algo.c ****       return ret;
 219:Lib/Camera_Middleware/ISP_Library/isp/Src/isp_algo.c ****     }
 220:Lib/Camera_Middleware/ISP_Library/isp/Src/isp_algo.c ****     BadPixelCount += BadPixelConfig.count;
 221:Lib/Camera_Middleware/ISP_Library/isp/Src/isp_algo.c ****   }
 222:Lib/Camera_Middleware/ISP_Library/isp/Src/isp_algo.c **** 
 223:Lib/Camera_Middleware/ISP_Library/isp/Src/isp_algo.c ****   if (Step == 10)
 224:Lib/Camera_Middleware/ISP_Library/isp/Src/isp_algo.c ****   {
 225:Lib/Camera_Middleware/ISP_Library/isp/Src/isp_algo.c ****     /* All measures done : make an average and compare with threshold */
 226:Lib/Camera_Middleware/ISP_Library/isp/Src/isp_algo.c ****     BadPixelCount /= 10;
 227:Lib/Camera_Middleware/ISP_Library/isp/Src/isp_algo.c **** 
 228:Lib/Camera_Middleware/ISP_Library/isp/Src/isp_algo.c ****     if ((BadPixelCount > IQParamConfig->badPixelAlgo.threshold) && (BadPixelConfig.strength > 0))
 229:Lib/Camera_Middleware/ISP_Library/isp/Src/isp_algo.c ****     {
 230:Lib/Camera_Middleware/ISP_Library/isp/Src/isp_algo.c ****       /* Bad pixel is above target : decrease strength */
 231:Lib/Camera_Middleware/ISP_Library/isp/Src/isp_algo.c ****       BadPixelConfig.strength--;
 232:Lib/Camera_Middleware/ISP_Library/isp/Src/isp_algo.c ****     }
 233:Lib/Camera_Middleware/ISP_Library/isp/Src/isp_algo.c ****     else if ((BadPixelCount < IQParamConfig->badPixelAlgo.threshold) && (BadPixelConfig.strength < 
 234:Lib/Camera_Middleware/ISP_Library/isp/Src/isp_algo.c ****     {
 235:Lib/Camera_Middleware/ISP_Library/isp/Src/isp_algo.c ****       /* Bad pixel is below target : increase strength. (exclude ISP_BADPIXEL_STRENGTH_MAX which gi
 236:Lib/Camera_Middleware/ISP_Library/isp/Src/isp_algo.c ****       BadPixelConfig.strength++;
 237:Lib/Camera_Middleware/ISP_Library/isp/Src/isp_algo.c ****     }
 238:Lib/Camera_Middleware/ISP_Library/isp/Src/isp_algo.c **** 
 239:Lib/Camera_Middleware/ISP_Library/isp/Src/isp_algo.c ****     /* Set updated Strength */
 240:Lib/Camera_Middleware/ISP_Library/isp/Src/isp_algo.c ****     BadPixelConfig.enable = 1;
 241:Lib/Camera_Middleware/ISP_Library/isp/Src/isp_algo.c ****     ret = ISP_SVC_ISP_SetBadPixel(hIsp, &BadPixelConfig);
 242:Lib/Camera_Middleware/ISP_Library/isp/Src/isp_algo.c ****     if (ret != ISP_OK)
 243:Lib/Camera_Middleware/ISP_Library/isp/Src/isp_algo.c ****     {
 244:Lib/Camera_Middleware/ISP_Library/isp/Src/isp_algo.c ****       return ret;
 245:Lib/Camera_Middleware/ISP_Library/isp/Src/isp_algo.c ****     }
 246:Lib/Camera_Middleware/ISP_Library/isp/Src/isp_algo.c **** 
 247:Lib/Camera_Middleware/ISP_Library/isp/Src/isp_algo.c ****     /* Set Step to -1 to wait for an extra frame before a new measurement (the ISP HW needs one fra
 248:Lib/Camera_Middleware/ISP_Library/isp/Src/isp_algo.c ****     Step = -1;
 249:Lib/Camera_Middleware/ISP_Library/isp/Src/isp_algo.c ****     BadPixelCount = 0;
 250:Lib/Camera_Middleware/ISP_Library/isp/Src/isp_algo.c ****   }
 251:Lib/Camera_Middleware/ISP_Library/isp/Src/isp_algo.c **** 
 252:Lib/Camera_Middleware/ISP_Library/isp/Src/isp_algo.c ****   return ISP_OK;
 253:Lib/Camera_Middleware/ISP_Library/isp/Src/isp_algo.c **** }
 254:Lib/Camera_Middleware/ISP_Library/isp/Src/isp_algo.c **** 
 255:Lib/Camera_Middleware/ISP_Library/isp/Src/isp_algo.c **** #ifdef ISP_MW_SW_AEC_ALGO_SUPPORT
 256:Lib/Camera_Middleware/ISP_Library/isp/Src/isp_algo.c **** /**
 257:Lib/Camera_Middleware/ISP_Library/isp/Src/isp_algo.c ****   * @brief  ISP_Algo_AEC_Init
 258:Lib/Camera_Middleware/ISP_Library/isp/Src/isp_algo.c ****   *         Initialize the AEC algorithm
 259:Lib/Camera_Middleware/ISP_Library/isp/Src/isp_algo.c ****   * @param  hIsp:  ISP device handle. To cast in (ISP_HandleTypeDef *).
ARM GAS  C:\Users\DJESSOU\AppData\Local\Temp\ccch1XY5.s 			page 7


 260:Lib/Camera_Middleware/ISP_Library/isp/Src/isp_algo.c ****   * @param  pAlgo: ISP algorithm handle. To cast in (ISP_AlgoTypeDef *).
 261:Lib/Camera_Middleware/ISP_Library/isp/Src/isp_algo.c ****   * @retval operation result
 262:Lib/Camera_Middleware/ISP_Library/isp/Src/isp_algo.c ****   */
 263:Lib/Camera_Middleware/ISP_Library/isp/Src/isp_algo.c **** ISP_StatusTypeDef ISP_Algo_AEC_Init(void *hIsp, void *pAlgo)
 264:Lib/Camera_Middleware/ISP_Library/isp/Src/isp_algo.c **** {
 265:Lib/Camera_Middleware/ISP_Library/isp/Src/isp_algo.c ****   ISP_HandleTypeDef *pIsp_handle = (ISP_HandleTypeDef*) hIsp;
 266:Lib/Camera_Middleware/ISP_Library/isp/Src/isp_algo.c ****   ISP_AlgoTypeDef *algo = (ISP_AlgoTypeDef *)pAlgo;
 267:Lib/Camera_Middleware/ISP_Library/isp/Src/isp_algo.c ****   ISP_SensorExposureTypeDef exposureConfig;
 268:Lib/Camera_Middleware/ISP_Library/isp/Src/isp_algo.c ****   ISP_SensorGainTypeDef gainConfig;
 269:Lib/Camera_Middleware/ISP_Library/isp/Src/isp_algo.c ****   ISP_IQParamTypeDef *IQParamConfig;
 270:Lib/Camera_Middleware/ISP_Library/isp/Src/isp_algo.c ****   ISP_RestartStateTypeDef *pRestartState;
 271:Lib/Camera_Middleware/ISP_Library/isp/Src/isp_algo.c **** 
 272:Lib/Camera_Middleware/ISP_Library/isp/Src/isp_algo.c ****   IQParamConfig = ISP_SVC_IQParam_Get(hIsp);
 273:Lib/Camera_Middleware/ISP_Library/isp/Src/isp_algo.c ****   pRestartState = ISP_SVC_GetRestartState(hIsp);
 274:Lib/Camera_Middleware/ISP_Library/isp/Src/isp_algo.c **** 
 275:Lib/Camera_Middleware/ISP_Library/isp/Src/isp_algo.c ****   if (IQParamConfig->sensorDelay.delay == 0)
 276:Lib/Camera_Middleware/ISP_Library/isp/Src/isp_algo.c ****   {
 277:Lib/Camera_Middleware/ISP_Library/isp/Src/isp_algo.c ****     /* A value of 0 is invalid, it would break the AEC algo */
 278:Lib/Camera_Middleware/ISP_Library/isp/Src/isp_algo.c ****     IQParamConfig->sensorDelay.delay = 1;
 279:Lib/Camera_Middleware/ISP_Library/isp/Src/isp_algo.c ****   }
 280:Lib/Camera_Middleware/ISP_Library/isp/Src/isp_algo.c **** 
 281:Lib/Camera_Middleware/ISP_Library/isp/Src/isp_algo.c ****   isp_ae_init(pIsp_handle);
 282:Lib/Camera_Middleware/ISP_Library/isp/Src/isp_algo.c **** 
 283:Lib/Camera_Middleware/ISP_Library/isp/Src/isp_algo.c ****   /* Initialize exposure and gain values */
 284:Lib/Camera_Middleware/ISP_Library/isp/Src/isp_algo.c ****   if (IQParamConfig->AECAlgo.enable == true)
 285:Lib/Camera_Middleware/ISP_Library/isp/Src/isp_algo.c ****   {
 286:Lib/Camera_Middleware/ISP_Library/isp/Src/isp_algo.c ****     if (pRestartState && pRestartState->sensorConfigured)
 287:Lib/Camera_Middleware/ISP_Library/isp/Src/isp_algo.c ****     {
 288:Lib/Camera_Middleware/ISP_Library/isp/Src/isp_algo.c ****       /* Resume from the latest applied config */
 289:Lib/Camera_Middleware/ISP_Library/isp/Src/isp_algo.c ****       exposureConfig.exposure = pRestartState->sensorExposure;
 290:Lib/Camera_Middleware/ISP_Library/isp/Src/isp_algo.c ****       gainConfig.gain = pRestartState->sensorGain;
 291:Lib/Camera_Middleware/ISP_Library/isp/Src/isp_algo.c ****     }
 292:Lib/Camera_Middleware/ISP_Library/isp/Src/isp_algo.c ****     else
 293:Lib/Camera_Middleware/ISP_Library/isp/Src/isp_algo.c ****     {
 294:Lib/Camera_Middleware/ISP_Library/isp/Src/isp_algo.c ****       /* Start from black frame */
 295:Lib/Camera_Middleware/ISP_Library/isp/Src/isp_algo.c ****       exposureConfig.exposure = pIsp_handle->sensorInfo.exposure_min;
 296:Lib/Camera_Middleware/ISP_Library/isp/Src/isp_algo.c ****       gainConfig.gain = pIsp_handle->sensorInfo.gain_min;
 297:Lib/Camera_Middleware/ISP_Library/isp/Src/isp_algo.c ****     }
 298:Lib/Camera_Middleware/ISP_Library/isp/Src/isp_algo.c **** 
 299:Lib/Camera_Middleware/ISP_Library/isp/Src/isp_algo.c ****     if ((ISP_SVC_Sensor_SetExposure(hIsp, &exposureConfig) != ISP_OK) || (ISP_SVC_Sensor_SetGain(hI
 300:Lib/Camera_Middleware/ISP_Library/isp/Src/isp_algo.c ****     {
 301:Lib/Camera_Middleware/ISP_Library/isp/Src/isp_algo.c ****       return ISP_ERR_ALGO;
 302:Lib/Camera_Middleware/ISP_Library/isp/Src/isp_algo.c ****     }
 303:Lib/Camera_Middleware/ISP_Library/isp/Src/isp_algo.c ****   }
 304:Lib/Camera_Middleware/ISP_Library/isp/Src/isp_algo.c **** 
 305:Lib/Camera_Middleware/ISP_Library/isp/Src/isp_algo.c ****   /* Update State */
 306:Lib/Camera_Middleware/ISP_Library/isp/Src/isp_algo.c ****   algo->state = ISP_ALGO_STATE_INIT;
 307:Lib/Camera_Middleware/ISP_Library/isp/Src/isp_algo.c **** 
 308:Lib/Camera_Middleware/ISP_Library/isp/Src/isp_algo.c ****   return ISP_OK;
 309:Lib/Camera_Middleware/ISP_Library/isp/Src/isp_algo.c **** }
 310:Lib/Camera_Middleware/ISP_Library/isp/Src/isp_algo.c **** 
 311:Lib/Camera_Middleware/ISP_Library/isp/Src/isp_algo.c **** /**
 312:Lib/Camera_Middleware/ISP_Library/isp/Src/isp_algo.c ****   * @brief  ISP_Algo_AEC_DeInit
 313:Lib/Camera_Middleware/ISP_Library/isp/Src/isp_algo.c ****   *         Deinitialize the AEC algorithm
 314:Lib/Camera_Middleware/ISP_Library/isp/Src/isp_algo.c ****   * @param  hIsp:  ISP device handle. To cast in (ISP_HandleTypeDef *).
 315:Lib/Camera_Middleware/ISP_Library/isp/Src/isp_algo.c ****   * @param  pAlgo: ISP algorithm handle. To cast in (ISP_AlgoTypeDef *).
 316:Lib/Camera_Middleware/ISP_Library/isp/Src/isp_algo.c ****   * @retval operation result
ARM GAS  C:\Users\DJESSOU\AppData\Local\Temp\ccch1XY5.s 			page 8


 317:Lib/Camera_Middleware/ISP_Library/isp/Src/isp_algo.c ****   */
 318:Lib/Camera_Middleware/ISP_Library/isp/Src/isp_algo.c **** ISP_StatusTypeDef ISP_Algo_AEC_DeInit(void *hIsp, void *pAlgo)
 319:Lib/Camera_Middleware/ISP_Library/isp/Src/isp_algo.c **** {
 320:Lib/Camera_Middleware/ISP_Library/isp/Src/isp_algo.c ****   (void)hIsp; /* unused */
 321:Lib/Camera_Middleware/ISP_Library/isp/Src/isp_algo.c ****   (void)pAlgo; /* unused */
 322:Lib/Camera_Middleware/ISP_Library/isp/Src/isp_algo.c **** 
 323:Lib/Camera_Middleware/ISP_Library/isp/Src/isp_algo.c ****   return ISP_OK;
 324:Lib/Camera_Middleware/ISP_Library/isp/Src/isp_algo.c **** }
 325:Lib/Camera_Middleware/ISP_Library/isp/Src/isp_algo.c **** 
 326:Lib/Camera_Middleware/ISP_Library/isp/Src/isp_algo.c **** /**
 327:Lib/Camera_Middleware/ISP_Library/isp/Src/isp_algo.c ****   * @brief  ISP_Algo_AEC_StatCb
 328:Lib/Camera_Middleware/ISP_Library/isp/Src/isp_algo.c ****   *         Callback informing that statistics are available
 329:Lib/Camera_Middleware/ISP_Library/isp/Src/isp_algo.c ****   * @param  pAlgo: ISP algorithm handle.
 330:Lib/Camera_Middleware/ISP_Library/isp/Src/isp_algo.c ****   * @retval operation result
 331:Lib/Camera_Middleware/ISP_Library/isp/Src/isp_algo.c ****   */
 332:Lib/Camera_Middleware/ISP_Library/isp/Src/isp_algo.c **** ISP_StatusTypeDef ISP_Algo_AEC_StatCb(ISP_AlgoTypeDef *pAlgo)
 333:Lib/Camera_Middleware/ISP_Library/isp/Src/isp_algo.c **** {
  89              		.loc 1 333 1 is_stmt 1 view -0
  90              		.cfi_startproc
  91              		@ args = 0, pretend = 0, frame = 0
  92              		@ frame_needed = 0, uses_anonymous_args = 0
  93              		@ link register save eliminated.
 334:Lib/Camera_Middleware/ISP_Library/isp/Src/isp_algo.c ****   /* Update State */
 335:Lib/Camera_Middleware/ISP_Library/isp/Src/isp_algo.c ****   pAlgo->state = ISP_ALGO_STATE_STAT_READY;
  94              		.loc 1 335 3 view .LVU14
  95              		.loc 1 335 16 is_stmt 0 view .LVU15
  96 0000 0323     		movs	r3, #3
  97 0002 4370     		strb	r3, [r0, #1]
 336:Lib/Camera_Middleware/ISP_Library/isp/Src/isp_algo.c **** 
 337:Lib/Camera_Middleware/ISP_Library/isp/Src/isp_algo.c ****   return ISP_OK;
  98              		.loc 1 337 3 is_stmt 1 view .LVU16
 338:Lib/Camera_Middleware/ISP_Library/isp/Src/isp_algo.c **** }
  99              		.loc 1 338 1 is_stmt 0 view .LVU17
 100 0004 0020     		movs	r0, #0
 101              	.LVL5:
 102              		.loc 1 338 1 view .LVU18
 103 0006 7047     		bx	lr
 104              		.cfi_endproc
 105              	.LFE870:
 107              		.section	.text.ISP_Algo_AWB_StatCb,"ax",%progbits
 108              		.align	1
 109              		.global	ISP_Algo_AWB_StatCb
 110              		.syntax unified
 111              		.thumb
 112              		.thumb_func
 114              	ISP_Algo_AWB_StatCb:
 115              	.LVL6:
 116              	.LFB876:
 339:Lib/Camera_Middleware/ISP_Library/isp/Src/isp_algo.c **** 
 340:Lib/Camera_Middleware/ISP_Library/isp/Src/isp_algo.c **** /**
 341:Lib/Camera_Middleware/ISP_Library/isp/Src/isp_algo.c ****   * @brief  ISP_Algo_AEC_Process
 342:Lib/Camera_Middleware/ISP_Library/isp/Src/isp_algo.c ****   *         Process the AEC algorithm. This basic algorithm controls the sensor exposure
 343:Lib/Camera_Middleware/ISP_Library/isp/Src/isp_algo.c ****   *         in order to reach an average luminance of exposureTarget.
 344:Lib/Camera_Middleware/ISP_Library/isp/Src/isp_algo.c ****   * @param  hIsp:  ISP device handle. To cast in (ISP_HandleTypeDef *).
 345:Lib/Camera_Middleware/ISP_Library/isp/Src/isp_algo.c ****   * @param  pAlgo: ISP algorithm handle. To cast in (ISP_AlgoTypeDef *).
 346:Lib/Camera_Middleware/ISP_Library/isp/Src/isp_algo.c ****   * @retval operation result
 347:Lib/Camera_Middleware/ISP_Library/isp/Src/isp_algo.c ****   */
ARM GAS  C:\Users\DJESSOU\AppData\Local\Temp\ccch1XY5.s 			page 9


 348:Lib/Camera_Middleware/ISP_Library/isp/Src/isp_algo.c **** ISP_StatusTypeDef ISP_Algo_AEC_Process(void *hIsp, void *pAlgo)
 349:Lib/Camera_Middleware/ISP_Library/isp/Src/isp_algo.c **** {
 350:Lib/Camera_Middleware/ISP_Library/isp/Src/isp_algo.c ****   static ISP_SVC_StatStateTypeDef stats;
 351:Lib/Camera_Middleware/ISP_Library/isp/Src/isp_algo.c ****   ISP_AlgoTypeDef *algo = (ISP_AlgoTypeDef *)pAlgo;
 352:Lib/Camera_Middleware/ISP_Library/isp/Src/isp_algo.c ****   ISP_IQParamTypeDef *IQParamConfig;
 353:Lib/Camera_Middleware/ISP_Library/isp/Src/isp_algo.c ****   ISP_RestartStateTypeDef *pRestartState;
 354:Lib/Camera_Middleware/ISP_Library/isp/Src/isp_algo.c ****   ISP_StatusTypeDef ret = ISP_OK;
 355:Lib/Camera_Middleware/ISP_Library/isp/Src/isp_algo.c ****   ISP_SensorGainTypeDef gainConfig;
 356:Lib/Camera_Middleware/ISP_Library/isp/Src/isp_algo.c ****   ISP_SensorExposureTypeDef exposureConfig;
 357:Lib/Camera_Middleware/ISP_Library/isp/Src/isp_algo.c ****   uint32_t avgL, newExposure, newGain;
 358:Lib/Camera_Middleware/ISP_Library/isp/Src/isp_algo.c **** #ifdef ALGO_AEC_DBG_LOGS
 359:Lib/Camera_Middleware/ISP_Library/isp/Src/isp_algo.c ****   static uint32_t currentL;
 360:Lib/Camera_Middleware/ISP_Library/isp/Src/isp_algo.c **** #endif
 361:Lib/Camera_Middleware/ISP_Library/isp/Src/isp_algo.c ****   int32_t estimated_lux;
 362:Lib/Camera_Middleware/ISP_Library/isp/Src/isp_algo.c ****  ISP_HandleTypeDef *pIsp_handle = (ISP_HandleTypeDef *)hIsp;
 363:Lib/Camera_Middleware/ISP_Library/isp/Src/isp_algo.c **** 
 364:Lib/Camera_Middleware/ISP_Library/isp/Src/isp_algo.c ****   IQParamConfig = ISP_SVC_IQParam_Get(hIsp);
 365:Lib/Camera_Middleware/ISP_Library/isp/Src/isp_algo.c ****   if (IQParamConfig->AECAlgo.enable == false)
 366:Lib/Camera_Middleware/ISP_Library/isp/Src/isp_algo.c ****   {
 367:Lib/Camera_Middleware/ISP_Library/isp/Src/isp_algo.c ****     return ISP_OK;
 368:Lib/Camera_Middleware/ISP_Library/isp/Src/isp_algo.c ****   }
 369:Lib/Camera_Middleware/ISP_Library/isp/Src/isp_algo.c **** 
 370:Lib/Camera_Middleware/ISP_Library/isp/Src/isp_algo.c ****   switch(algo->state)
 371:Lib/Camera_Middleware/ISP_Library/isp/Src/isp_algo.c ****   {
 372:Lib/Camera_Middleware/ISP_Library/isp/Src/isp_algo.c ****   case ISP_ALGO_STATE_INIT:
 373:Lib/Camera_Middleware/ISP_Library/isp/Src/isp_algo.c ****     /* Update Sensor Info in case calculated exposure limits are changed*/
 374:Lib/Camera_Middleware/ISP_Library/isp/Src/isp_algo.c ****     ret = ISP_SVC_Sensor_GetInfo(hIsp, &pIsp_handle->sensorInfo);
 375:Lib/Camera_Middleware/ISP_Library/isp/Src/isp_algo.c ****     if (ret != ISP_OK)
 376:Lib/Camera_Middleware/ISP_Library/isp/Src/isp_algo.c ****     {
 377:Lib/Camera_Middleware/ISP_Library/isp/Src/isp_algo.c ****       return ret;
 378:Lib/Camera_Middleware/ISP_Library/isp/Src/isp_algo.c ****     }
 379:Lib/Camera_Middleware/ISP_Library/isp/Src/isp_algo.c ****   case ISP_ALGO_STATE_NEED_STAT:
 380:Lib/Camera_Middleware/ISP_Library/isp/Src/isp_algo.c ****     /* Ask for stats */
 381:Lib/Camera_Middleware/ISP_Library/isp/Src/isp_algo.c ****     ret = ISP_SVC_Stats_GetNext(hIsp, &ISP_Algo_AEC_StatCb, pAlgo, &stats, ISP_STAT_LOC_DOWN,
 382:Lib/Camera_Middleware/ISP_Library/isp/Src/isp_algo.c ****                                 ISP_STAT_TYPE_AVG, IQParamConfig->sensorDelay.delay);
 383:Lib/Camera_Middleware/ISP_Library/isp/Src/isp_algo.c ****     if (ret != ISP_OK)
 384:Lib/Camera_Middleware/ISP_Library/isp/Src/isp_algo.c ****     {
 385:Lib/Camera_Middleware/ISP_Library/isp/Src/isp_algo.c ****       return ret;
 386:Lib/Camera_Middleware/ISP_Library/isp/Src/isp_algo.c ****     }
 387:Lib/Camera_Middleware/ISP_Library/isp/Src/isp_algo.c **** 
 388:Lib/Camera_Middleware/ISP_Library/isp/Src/isp_algo.c ****     /* Wait for stats to be ready */
 389:Lib/Camera_Middleware/ISP_Library/isp/Src/isp_algo.c ****     algo->state = ISP_ALGO_STATE_WAITING_STAT;
 390:Lib/Camera_Middleware/ISP_Library/isp/Src/isp_algo.c ****     break;
 391:Lib/Camera_Middleware/ISP_Library/isp/Src/isp_algo.c **** 
 392:Lib/Camera_Middleware/ISP_Library/isp/Src/isp_algo.c ****   case ISP_ALGO_STATE_WAITING_STAT:
 393:Lib/Camera_Middleware/ISP_Library/isp/Src/isp_algo.c ****     /* Do nothing */
 394:Lib/Camera_Middleware/ISP_Library/isp/Src/isp_algo.c ****     break;
 395:Lib/Camera_Middleware/ISP_Library/isp/Src/isp_algo.c **** 
 396:Lib/Camera_Middleware/ISP_Library/isp/Src/isp_algo.c ****   case ISP_ALGO_STATE_STAT_READY:
 397:Lib/Camera_Middleware/ISP_Library/isp/Src/isp_algo.c **** #ifdef ALGO_PERF_DBG_LOGS
 398:Lib/Camera_Middleware/ISP_Library/isp/Src/isp_algo.c ****     static float sum_calc, sum_process = 0;
 399:Lib/Camera_Middleware/ISP_Library/isp/Src/isp_algo.c ****     static uint32_t iter = 0;
 400:Lib/Camera_Middleware/ISP_Library/isp/Src/isp_algo.c ****     uint32_t end_algo_calc, end_algo_process = 20;
 401:Lib/Camera_Middleware/ISP_Library/isp/Src/isp_algo.c ****     uint32_t start_algo = DWT->CYCCNT;
 402:Lib/Camera_Middleware/ISP_Library/isp/Src/isp_algo.c **** #endif
 403:Lib/Camera_Middleware/ISP_Library/isp/Src/isp_algo.c ****     avgL = stats.down.averageL;
 404:Lib/Camera_Middleware/ISP_Library/isp/Src/isp_algo.c **** #ifdef ALGO_AEC_DBG_LOGS
ARM GAS  C:\Users\DJESSOU\AppData\Local\Temp\ccch1XY5.s 			page 10


 405:Lib/Camera_Middleware/ISP_Library/isp/Src/isp_algo.c ****     if (avgL != currentL)
 406:Lib/Camera_Middleware/ISP_Library/isp/Src/isp_algo.c ****     {
 407:Lib/Camera_Middleware/ISP_Library/isp/Src/isp_algo.c ****       printf("L = %"PRIu32"\r\n", avgL);
 408:Lib/Camera_Middleware/ISP_Library/isp/Src/isp_algo.c ****       currentL = avgL;
 409:Lib/Camera_Middleware/ISP_Library/isp/Src/isp_algo.c ****     }
 410:Lib/Camera_Middleware/ISP_Library/isp/Src/isp_algo.c **** #endif
 411:Lib/Camera_Middleware/ISP_Library/isp/Src/isp_algo.c ****     /* Read the current sensor gain */
 412:Lib/Camera_Middleware/ISP_Library/isp/Src/isp_algo.c ****     ret = ISP_SVC_Sensor_GetGain(hIsp, &gainConfig);
 413:Lib/Camera_Middleware/ISP_Library/isp/Src/isp_algo.c ****     if (ret != ISP_OK)
 414:Lib/Camera_Middleware/ISP_Library/isp/Src/isp_algo.c ****     {
 415:Lib/Camera_Middleware/ISP_Library/isp/Src/isp_algo.c ****       return ret;
 416:Lib/Camera_Middleware/ISP_Library/isp/Src/isp_algo.c ****     }
 417:Lib/Camera_Middleware/ISP_Library/isp/Src/isp_algo.c **** 
 418:Lib/Camera_Middleware/ISP_Library/isp/Src/isp_algo.c ****     ret = ISP_SVC_Sensor_GetExposure(hIsp, &exposureConfig);
 419:Lib/Camera_Middleware/ISP_Library/isp/Src/isp_algo.c ****     if (ret != ISP_OK)
 420:Lib/Camera_Middleware/ISP_Library/isp/Src/isp_algo.c ****     {
 421:Lib/Camera_Middleware/ISP_Library/isp/Src/isp_algo.c ****       return ret;
 422:Lib/Camera_Middleware/ISP_Library/isp/Src/isp_algo.c ****     }
 423:Lib/Camera_Middleware/ISP_Library/isp/Src/isp_algo.c **** 
 424:Lib/Camera_Middleware/ISP_Library/isp/Src/isp_algo.c ****     estimated_lux = ISP_SVC_Misc_GetEstimatedLux(hIsp);
 425:Lib/Camera_Middleware/ISP_Library/isp/Src/isp_algo.c **** 
 426:Lib/Camera_Middleware/ISP_Library/isp/Src/isp_algo.c **** #ifdef ALGO_AEC_DBG_LOGS
 427:Lib/Camera_Middleware/ISP_Library/isp/Src/isp_algo.c ****     printf("Lux = %"PRIu32", L = %"PRIu32", E = %"PRIu32", G = %"PRIu32"\r\n", estimated_lux, avgL,
 428:Lib/Camera_Middleware/ISP_Library/isp/Src/isp_algo.c **** #endif
 429:Lib/Camera_Middleware/ISP_Library/isp/Src/isp_algo.c **** 
 430:Lib/Camera_Middleware/ISP_Library/isp/Src/isp_algo.c ****     if (estimated_lux >= 0)
 431:Lib/Camera_Middleware/ISP_Library/isp/Src/isp_algo.c ****     {
 432:Lib/Camera_Middleware/ISP_Library/isp/Src/isp_algo.c ****       isp_ae_get_new_exposure((uint32_t)estimated_lux, avgL, &newExposure, &newGain, exposureConfig
 433:Lib/Camera_Middleware/ISP_Library/isp/Src/isp_algo.c **** #ifdef ALGO_PERF_DBG_LOGS
 434:Lib/Camera_Middleware/ISP_Library/isp/Src/isp_algo.c ****       end_algo_calc = DWT->CYCCNT;
 435:Lib/Camera_Middleware/ISP_Library/isp/Src/isp_algo.c **** #endif
 436:Lib/Camera_Middleware/ISP_Library/isp/Src/isp_algo.c ****       if (gainConfig.gain != newGain)
 437:Lib/Camera_Middleware/ISP_Library/isp/Src/isp_algo.c ****       {
 438:Lib/Camera_Middleware/ISP_Library/isp/Src/isp_algo.c ****         /* Set new gain */
 439:Lib/Camera_Middleware/ISP_Library/isp/Src/isp_algo.c ****         gainConfig.gain = newGain;
 440:Lib/Camera_Middleware/ISP_Library/isp/Src/isp_algo.c **** 
 441:Lib/Camera_Middleware/ISP_Library/isp/Src/isp_algo.c ****         ret = ISP_SVC_Sensor_SetGain(hIsp, &gainConfig);
 442:Lib/Camera_Middleware/ISP_Library/isp/Src/isp_algo.c ****         if (ret != ISP_OK)
 443:Lib/Camera_Middleware/ISP_Library/isp/Src/isp_algo.c ****         {
 444:Lib/Camera_Middleware/ISP_Library/isp/Src/isp_algo.c ****           return ret;
 445:Lib/Camera_Middleware/ISP_Library/isp/Src/isp_algo.c ****         }
 446:Lib/Camera_Middleware/ISP_Library/isp/Src/isp_algo.c **** 
 447:Lib/Camera_Middleware/ISP_Library/isp/Src/isp_algo.c **** #ifdef ALGO_AEC_DBG_LOGS
 448:Lib/Camera_Middleware/ISP_Library/isp/Src/isp_algo.c ****         printf("New gain = %"PRIu32"\r\n", gainConfig.gain);
 449:Lib/Camera_Middleware/ISP_Library/isp/Src/isp_algo.c **** #endif
 450:Lib/Camera_Middleware/ISP_Library/isp/Src/isp_algo.c ****       }
 451:Lib/Camera_Middleware/ISP_Library/isp/Src/isp_algo.c **** 
 452:Lib/Camera_Middleware/ISP_Library/isp/Src/isp_algo.c ****       if (exposureConfig.exposure != newExposure)
 453:Lib/Camera_Middleware/ISP_Library/isp/Src/isp_algo.c ****       {
 454:Lib/Camera_Middleware/ISP_Library/isp/Src/isp_algo.c ****         /* Set new exposure */
 455:Lib/Camera_Middleware/ISP_Library/isp/Src/isp_algo.c ****         exposureConfig.exposure = newExposure;
 456:Lib/Camera_Middleware/ISP_Library/isp/Src/isp_algo.c **** 
 457:Lib/Camera_Middleware/ISP_Library/isp/Src/isp_algo.c ****         ret = ISP_SVC_Sensor_SetExposure(hIsp, &exposureConfig);
 458:Lib/Camera_Middleware/ISP_Library/isp/Src/isp_algo.c ****         if (ret != ISP_OK)
 459:Lib/Camera_Middleware/ISP_Library/isp/Src/isp_algo.c ****         {
 460:Lib/Camera_Middleware/ISP_Library/isp/Src/isp_algo.c ****           return ret;
 461:Lib/Camera_Middleware/ISP_Library/isp/Src/isp_algo.c ****         }
ARM GAS  C:\Users\DJESSOU\AppData\Local\Temp\ccch1XY5.s 			page 11


 462:Lib/Camera_Middleware/ISP_Library/isp/Src/isp_algo.c **** 
 463:Lib/Camera_Middleware/ISP_Library/isp/Src/isp_algo.c **** #ifdef ALGO_AEC_DBG_LOGS
 464:Lib/Camera_Middleware/ISP_Library/isp/Src/isp_algo.c ****         printf("New exposure = %"PRIu32"\r\n", exposureConfig.exposure);
 465:Lib/Camera_Middleware/ISP_Library/isp/Src/isp_algo.c **** #endif
 466:Lib/Camera_Middleware/ISP_Library/isp/Src/isp_algo.c ****       }
 467:Lib/Camera_Middleware/ISP_Library/isp/Src/isp_algo.c **** 
 468:Lib/Camera_Middleware/ISP_Library/isp/Src/isp_algo.c ****       /* Update the restart state config */
 469:Lib/Camera_Middleware/ISP_Library/isp/Src/isp_algo.c ****       pRestartState = ISP_SVC_GetRestartState(hIsp);
 470:Lib/Camera_Middleware/ISP_Library/isp/Src/isp_algo.c ****       if (pRestartState)
 471:Lib/Camera_Middleware/ISP_Library/isp/Src/isp_algo.c ****       {
 472:Lib/Camera_Middleware/ISP_Library/isp/Src/isp_algo.c ****         pRestartState->sensorGain = newGain;
 473:Lib/Camera_Middleware/ISP_Library/isp/Src/isp_algo.c ****         pRestartState->sensorExposure = newExposure;
 474:Lib/Camera_Middleware/ISP_Library/isp/Src/isp_algo.c ****         pRestartState->sensorConfigured = 1;
 475:Lib/Camera_Middleware/ISP_Library/isp/Src/isp_algo.c ****       }
 476:Lib/Camera_Middleware/ISP_Library/isp/Src/isp_algo.c ****     }
 477:Lib/Camera_Middleware/ISP_Library/isp/Src/isp_algo.c ****     else
 478:Lib/Camera_Middleware/ISP_Library/isp/Src/isp_algo.c ****     {
 479:Lib/Camera_Middleware/ISP_Library/isp/Src/isp_algo.c ****       ret = ISP_ERR_ALGO;
 480:Lib/Camera_Middleware/ISP_Library/isp/Src/isp_algo.c ****       printf("ERROR: Lux value of the scene cannot be estimated\r\n");
 481:Lib/Camera_Middleware/ISP_Library/isp/Src/isp_algo.c ****     }
 482:Lib/Camera_Middleware/ISP_Library/isp/Src/isp_algo.c **** 
 483:Lib/Camera_Middleware/ISP_Library/isp/Src/isp_algo.c **** #ifdef ALGO_PERF_DBG_LOGS
 484:Lib/Camera_Middleware/ISP_Library/isp/Src/isp_algo.c ****     end_algo_process = DWT->CYCCNT;
 485:Lib/Camera_Middleware/ISP_Library/isp/Src/isp_algo.c ****     sum_calc += (float)(end_algo_calc - start_algo) / (SystemCoreClock / 1e6);
 486:Lib/Camera_Middleware/ISP_Library/isp/Src/isp_algo.c ****     sum_process += (float)(end_algo_process - start_algo) / (SystemCoreClock / 1e6);
 487:Lib/Camera_Middleware/ISP_Library/isp/Src/isp_algo.c ****     iter++;
 488:Lib/Camera_Middleware/ISP_Library/isp/Src/isp_algo.c **** 
 489:Lib/Camera_Middleware/ISP_Library/isp/Src/isp_algo.c ****     if (iter == MEAS_ITERATION)
 490:Lib/Camera_Middleware/ISP_Library/isp/Src/isp_algo.c ****     {
 491:Lib/Camera_Middleware/ISP_Library/isp/Src/isp_algo.c ****       printf("AEC time  = %.3f us (calc in %.3f us)\r\n", sum_process / MEAS_ITERATION, sum_calc / 
 492:Lib/Camera_Middleware/ISP_Library/isp/Src/isp_algo.c ****       sum_process = 0;
 493:Lib/Camera_Middleware/ISP_Library/isp/Src/isp_algo.c ****       sum_calc = 0;
 494:Lib/Camera_Middleware/ISP_Library/isp/Src/isp_algo.c ****       iter = 0;
 495:Lib/Camera_Middleware/ISP_Library/isp/Src/isp_algo.c ****     }
 496:Lib/Camera_Middleware/ISP_Library/isp/Src/isp_algo.c **** #endif
 497:Lib/Camera_Middleware/ISP_Library/isp/Src/isp_algo.c **** 
 498:Lib/Camera_Middleware/ISP_Library/isp/Src/isp_algo.c ****     /* Ask for stats */
 499:Lib/Camera_Middleware/ISP_Library/isp/Src/isp_algo.c ****     ret = ISP_SVC_Stats_GetNext(hIsp, &ISP_Algo_AEC_StatCb, pAlgo, &stats, ISP_STAT_LOC_DOWN,
 500:Lib/Camera_Middleware/ISP_Library/isp/Src/isp_algo.c ****                                 ISP_STAT_TYPE_AVG, IQParamConfig->sensorDelay.delay);
 501:Lib/Camera_Middleware/ISP_Library/isp/Src/isp_algo.c **** 
 502:Lib/Camera_Middleware/ISP_Library/isp/Src/isp_algo.c ****     /* Wait for stats to be ready */
 503:Lib/Camera_Middleware/ISP_Library/isp/Src/isp_algo.c ****     algo->state = ISP_ALGO_STATE_WAITING_STAT;
 504:Lib/Camera_Middleware/ISP_Library/isp/Src/isp_algo.c ****     break;
 505:Lib/Camera_Middleware/ISP_Library/isp/Src/isp_algo.c **** 
 506:Lib/Camera_Middleware/ISP_Library/isp/Src/isp_algo.c ****   default:
 507:Lib/Camera_Middleware/ISP_Library/isp/Src/isp_algo.c ****     printf("WARNING: Unknown AE algo state\r\n");
 508:Lib/Camera_Middleware/ISP_Library/isp/Src/isp_algo.c ****     /* Reset state to ISP_ALGO_STATE_INIT */
 509:Lib/Camera_Middleware/ISP_Library/isp/Src/isp_algo.c ****     algo->state = ISP_ALGO_STATE_INIT;
 510:Lib/Camera_Middleware/ISP_Library/isp/Src/isp_algo.c ****     break;
 511:Lib/Camera_Middleware/ISP_Library/isp/Src/isp_algo.c **** 
 512:Lib/Camera_Middleware/ISP_Library/isp/Src/isp_algo.c ****   }
 513:Lib/Camera_Middleware/ISP_Library/isp/Src/isp_algo.c **** 
 514:Lib/Camera_Middleware/ISP_Library/isp/Src/isp_algo.c ****   return ret;
 515:Lib/Camera_Middleware/ISP_Library/isp/Src/isp_algo.c **** }
 516:Lib/Camera_Middleware/ISP_Library/isp/Src/isp_algo.c **** #endif /* ISP_MW_SW_AEC_ALGO_SUPPORT */
 517:Lib/Camera_Middleware/ISP_Library/isp/Src/isp_algo.c **** 
 518:Lib/Camera_Middleware/ISP_Library/isp/Src/isp_algo.c **** #ifdef ISP_MW_SW_AWB_ALGO_SUPPORT
ARM GAS  C:\Users\DJESSOU\AppData\Local\Temp\ccch1XY5.s 			page 12


 519:Lib/Camera_Middleware/ISP_Library/isp/Src/isp_algo.c **** /**
 520:Lib/Camera_Middleware/ISP_Library/isp/Src/isp_algo.c ****   * @brief  ISP_Algo_ApplyGammaInverse
 521:Lib/Camera_Middleware/ISP_Library/isp/Src/isp_algo.c ****   *         Apply Gamma 1/2.2 correction to a component value
 522:Lib/Camera_Middleware/ISP_Library/isp/Src/isp_algo.c ****   * @param  hIsp:  ISP device handle.
 523:Lib/Camera_Middleware/ISP_Library/isp/Src/isp_algo.c ****   * @param  comp: component value
 524:Lib/Camera_Middleware/ISP_Library/isp/Src/isp_algo.c ****   * @retval gamma corrected value
 525:Lib/Camera_Middleware/ISP_Library/isp/Src/isp_algo.c ****   */
 526:Lib/Camera_Middleware/ISP_Library/isp/Src/isp_algo.c **** double ISP_Algo_ApplyGammaInverse(ISP_HandleTypeDef *hIsp, uint32_t comp)
 527:Lib/Camera_Middleware/ISP_Library/isp/Src/isp_algo.c **** {
 528:Lib/Camera_Middleware/ISP_Library/isp/Src/isp_algo.c ****   double out;
 529:Lib/Camera_Middleware/ISP_Library/isp/Src/isp_algo.c **** 
 530:Lib/Camera_Middleware/ISP_Library/isp/Src/isp_algo.c ****   /* Check if gamma is enabled */
 531:Lib/Camera_Middleware/ISP_Library/isp/Src/isp_algo.c ****   if (ISP_SVC_Misc_IsGammaEnabled(hIsp, 1 /*main pipe*/)) {
 532:Lib/Camera_Middleware/ISP_Library/isp/Src/isp_algo.c ****     out = 255 * pow((float)comp / 255, 1.0 / 2.2);
 533:Lib/Camera_Middleware/ISP_Library/isp/Src/isp_algo.c ****   }
 534:Lib/Camera_Middleware/ISP_Library/isp/Src/isp_algo.c ****   else
 535:Lib/Camera_Middleware/ISP_Library/isp/Src/isp_algo.c ****   {
 536:Lib/Camera_Middleware/ISP_Library/isp/Src/isp_algo.c ****     out = (double) comp;
 537:Lib/Camera_Middleware/ISP_Library/isp/Src/isp_algo.c ****   }
 538:Lib/Camera_Middleware/ISP_Library/isp/Src/isp_algo.c ****   return out;
 539:Lib/Camera_Middleware/ISP_Library/isp/Src/isp_algo.c **** }
 540:Lib/Camera_Middleware/ISP_Library/isp/Src/isp_algo.c **** 
 541:Lib/Camera_Middleware/ISP_Library/isp/Src/isp_algo.c **** /**
 542:Lib/Camera_Middleware/ISP_Library/isp/Src/isp_algo.c ****   * @brief  ISP_Algo_ApplyCConv
 543:Lib/Camera_Middleware/ISP_Library/isp/Src/isp_algo.c ****   *         Apply Color Conversion matrix to RGB components, clamping output values to [0-255]
 544:Lib/Camera_Middleware/ISP_Library/isp/Src/isp_algo.c ****   * @param  hIsp:  ISP device handle.
 545:Lib/Camera_Middleware/ISP_Library/isp/Src/isp_algo.c ****   * @param  inR: Red component value
 546:Lib/Camera_Middleware/ISP_Library/isp/Src/isp_algo.c ****   * @param  inG: Green component value
 547:Lib/Camera_Middleware/ISP_Library/isp/Src/isp_algo.c ****   * @param  inB: Blue component value
 548:Lib/Camera_Middleware/ISP_Library/isp/Src/isp_algo.c ****   * @param  outR: pointer to Red component value after color conversion
 549:Lib/Camera_Middleware/ISP_Library/isp/Src/isp_algo.c ****   * @param  outG: pointer to Green component value after color conversion
 550:Lib/Camera_Middleware/ISP_Library/isp/Src/isp_algo.c ****   * @param  outB: pointer to Blue component value after color conversion
 551:Lib/Camera_Middleware/ISP_Library/isp/Src/isp_algo.c ****   * @retval None
 552:Lib/Camera_Middleware/ISP_Library/isp/Src/isp_algo.c ****   */
 553:Lib/Camera_Middleware/ISP_Library/isp/Src/isp_algo.c **** void ISP_Algo_ApplyCConv(ISP_HandleTypeDef *hIsp, uint32_t inR, uint32_t inG, uint32_t inB, uint32_
 554:Lib/Camera_Middleware/ISP_Library/isp/Src/isp_algo.c **** {
 555:Lib/Camera_Middleware/ISP_Library/isp/Src/isp_algo.c ****   ISP_ColorConvTypeDef colorConv;
 556:Lib/Camera_Middleware/ISP_Library/isp/Src/isp_algo.c ****   int64_t ccR, ccG, ccB;
 557:Lib/Camera_Middleware/ISP_Library/isp/Src/isp_algo.c **** 
 558:Lib/Camera_Middleware/ISP_Library/isp/Src/isp_algo.c ****   if ((ISP_SVC_ISP_GetColorConv(hIsp, &colorConv) == ISP_OK) && (colorConv.enable == 1))
 559:Lib/Camera_Middleware/ISP_Library/isp/Src/isp_algo.c ****   {
 560:Lib/Camera_Middleware/ISP_Library/isp/Src/isp_algo.c ****     /* Apply ColorConversion matrix to the input components */
 561:Lib/Camera_Middleware/ISP_Library/isp/Src/isp_algo.c ****     ccR = (int64_t) inR * colorConv.coeff[0][0] + (int64_t) inG * colorConv.coeff[0][1] + (int64_t)
 562:Lib/Camera_Middleware/ISP_Library/isp/Src/isp_algo.c ****     ccG = (int64_t) inR * colorConv.coeff[1][0] + (int64_t) inG * colorConv.coeff[1][1] + (int64_t)
 563:Lib/Camera_Middleware/ISP_Library/isp/Src/isp_algo.c ****     ccB = (int64_t) inR * colorConv.coeff[2][0] + (int64_t) inG * colorConv.coeff[2][1] + (int64_t)
 564:Lib/Camera_Middleware/ISP_Library/isp/Src/isp_algo.c **** 
 565:Lib/Camera_Middleware/ISP_Library/isp/Src/isp_algo.c ****     ccR /= ISP_CCM_PRECISION_FACTOR;
 566:Lib/Camera_Middleware/ISP_Library/isp/Src/isp_algo.c ****     ccG /= ISP_CCM_PRECISION_FACTOR;
 567:Lib/Camera_Middleware/ISP_Library/isp/Src/isp_algo.c ****     ccB /= ISP_CCM_PRECISION_FACTOR;
 568:Lib/Camera_Middleware/ISP_Library/isp/Src/isp_algo.c **** 
 569:Lib/Camera_Middleware/ISP_Library/isp/Src/isp_algo.c ****     /* Clamp values to 0-255 */
 570:Lib/Camera_Middleware/ISP_Library/isp/Src/isp_algo.c ****     ccR = (ccR < 0) ? 0 : (ccR > 255) ? 255 : ccR;
 571:Lib/Camera_Middleware/ISP_Library/isp/Src/isp_algo.c ****     ccG = (ccG < 0) ? 0 : (ccG > 255) ? 255 : ccG;
 572:Lib/Camera_Middleware/ISP_Library/isp/Src/isp_algo.c ****     ccB = (ccB < 0) ? 0 : (ccB > 255) ? 255 : ccB;
 573:Lib/Camera_Middleware/ISP_Library/isp/Src/isp_algo.c **** 
 574:Lib/Camera_Middleware/ISP_Library/isp/Src/isp_algo.c ****     *outR = (uint32_t) ccR;
 575:Lib/Camera_Middleware/ISP_Library/isp/Src/isp_algo.c ****     *outG = (uint32_t) ccG;
ARM GAS  C:\Users\DJESSOU\AppData\Local\Temp\ccch1XY5.s 			page 13


 576:Lib/Camera_Middleware/ISP_Library/isp/Src/isp_algo.c ****     *outB = (uint32_t) ccB;
 577:Lib/Camera_Middleware/ISP_Library/isp/Src/isp_algo.c ****   }
 578:Lib/Camera_Middleware/ISP_Library/isp/Src/isp_algo.c ****   else
 579:Lib/Camera_Middleware/ISP_Library/isp/Src/isp_algo.c ****   {
 580:Lib/Camera_Middleware/ISP_Library/isp/Src/isp_algo.c ****     *outR = inR;
 581:Lib/Camera_Middleware/ISP_Library/isp/Src/isp_algo.c ****     *outG = inG;
 582:Lib/Camera_Middleware/ISP_Library/isp/Src/isp_algo.c ****     *outB = inB;
 583:Lib/Camera_Middleware/ISP_Library/isp/Src/isp_algo.c ****   }
 584:Lib/Camera_Middleware/ISP_Library/isp/Src/isp_algo.c **** }
 585:Lib/Camera_Middleware/ISP_Library/isp/Src/isp_algo.c **** 
 586:Lib/Camera_Middleware/ISP_Library/isp/Src/isp_algo.c **** /**
 587:Lib/Camera_Middleware/ISP_Library/isp/Src/isp_algo.c ****   * @brief  ISP_Algo_AWB_Init
 588:Lib/Camera_Middleware/ISP_Library/isp/Src/isp_algo.c ****   *         Initialize the AWB algorithm
 589:Lib/Camera_Middleware/ISP_Library/isp/Src/isp_algo.c ****   * @param  hIsp:  ISP device handle. To cast in (ISP_HandleTypeDef *).
 590:Lib/Camera_Middleware/ISP_Library/isp/Src/isp_algo.c ****   * @param  pAlgo: ISP algorithm handle. To cast in (ISP_AlgoTypeDef *).
 591:Lib/Camera_Middleware/ISP_Library/isp/Src/isp_algo.c ****   * @retval operation result
 592:Lib/Camera_Middleware/ISP_Library/isp/Src/isp_algo.c ****   */
 593:Lib/Camera_Middleware/ISP_Library/isp/Src/isp_algo.c **** ISP_StatusTypeDef ISP_Algo_AWB_Init(void *hIsp, void *pAlgo)
 594:Lib/Camera_Middleware/ISP_Library/isp/Src/isp_algo.c **** {
 595:Lib/Camera_Middleware/ISP_Library/isp/Src/isp_algo.c ****   (void)hIsp; /* unused */
 596:Lib/Camera_Middleware/ISP_Library/isp/Src/isp_algo.c ****   ISP_AlgoTypeDef *algo = (ISP_AlgoTypeDef *)pAlgo;
 597:Lib/Camera_Middleware/ISP_Library/isp/Src/isp_algo.c ****   ISP_RestartStateTypeDef *pRestartState;
 598:Lib/Camera_Middleware/ISP_Library/isp/Src/isp_algo.c **** 
 599:Lib/Camera_Middleware/ISP_Library/isp/Src/isp_algo.c ****   pRestartState = ISP_SVC_GetRestartState(hIsp);
 600:Lib/Camera_Middleware/ISP_Library/isp/Src/isp_algo.c ****   if (pRestartState && pRestartState->awbConfigured)
 601:Lib/Camera_Middleware/ISP_Library/isp/Src/isp_algo.c ****   {
 602:Lib/Camera_Middleware/ISP_Library/isp/Src/isp_algo.c ****     /* Resume from the latest applied config */
 603:Lib/Camera_Middleware/ISP_Library/isp/Src/isp_algo.c ****     ISP_SVC_ISP_SetColorConv(hIsp, &pRestartState->colorConv);
 604:Lib/Camera_Middleware/ISP_Library/isp/Src/isp_algo.c ****     ISP_SVC_ISP_SetGain(hIsp, &pRestartState->ISPGain);
 605:Lib/Camera_Middleware/ISP_Library/isp/Src/isp_algo.c ****   }
 606:Lib/Camera_Middleware/ISP_Library/isp/Src/isp_algo.c **** 
 607:Lib/Camera_Middleware/ISP_Library/isp/Src/isp_algo.c ****   /* Continue the initialization in ISP_Algo_AWB_Process() function when state is ISP_ALGO_STATE_IN
 608:Lib/Camera_Middleware/ISP_Library/isp/Src/isp_algo.c ****    * This allows to read the IQ params after an algo stop/start cycle */
 609:Lib/Camera_Middleware/ISP_Library/isp/Src/isp_algo.c ****   algo->state = ISP_ALGO_STATE_INIT;
 610:Lib/Camera_Middleware/ISP_Library/isp/Src/isp_algo.c **** 
 611:Lib/Camera_Middleware/ISP_Library/isp/Src/isp_algo.c ****   return ISP_OK;
 612:Lib/Camera_Middleware/ISP_Library/isp/Src/isp_algo.c **** }
 613:Lib/Camera_Middleware/ISP_Library/isp/Src/isp_algo.c **** 
 614:Lib/Camera_Middleware/ISP_Library/isp/Src/isp_algo.c **** /**
 615:Lib/Camera_Middleware/ISP_Library/isp/Src/isp_algo.c ****   * @brief  ISP_Algo_AWB_DeInit
 616:Lib/Camera_Middleware/ISP_Library/isp/Src/isp_algo.c ****   *         Deinitialize the AWB algorithm
 617:Lib/Camera_Middleware/ISP_Library/isp/Src/isp_algo.c ****   * @param  hIsp:  ISP device handle. To cast in (ISP_HandleTypeDef *).
 618:Lib/Camera_Middleware/ISP_Library/isp/Src/isp_algo.c ****   * @param  pAlgo: ISP algorithm handle. To cast in (ISP_AlgoTypeDef *).
 619:Lib/Camera_Middleware/ISP_Library/isp/Src/isp_algo.c ****   * @retval operation result
 620:Lib/Camera_Middleware/ISP_Library/isp/Src/isp_algo.c ****   */
 621:Lib/Camera_Middleware/ISP_Library/isp/Src/isp_algo.c **** ISP_StatusTypeDef ISP_Algo_AWB_DeInit(void *hIsp, void *pAlgo)
 622:Lib/Camera_Middleware/ISP_Library/isp/Src/isp_algo.c **** {
 623:Lib/Camera_Middleware/ISP_Library/isp/Src/isp_algo.c ****   (void)hIsp; /* unused */
 624:Lib/Camera_Middleware/ISP_Library/isp/Src/isp_algo.c ****   (void)pAlgo; /* unused */
 625:Lib/Camera_Middleware/ISP_Library/isp/Src/isp_algo.c **** 
 626:Lib/Camera_Middleware/ISP_Library/isp/Src/isp_algo.c ****   return ISP_OK;
 627:Lib/Camera_Middleware/ISP_Library/isp/Src/isp_algo.c **** }
 628:Lib/Camera_Middleware/ISP_Library/isp/Src/isp_algo.c **** 
 629:Lib/Camera_Middleware/ISP_Library/isp/Src/isp_algo.c **** /**
 630:Lib/Camera_Middleware/ISP_Library/isp/Src/isp_algo.c ****   * @brief  ISP_Algo_AWB_StatCb
 631:Lib/Camera_Middleware/ISP_Library/isp/Src/isp_algo.c ****   *         Callback informing that statistics are available
 632:Lib/Camera_Middleware/ISP_Library/isp/Src/isp_algo.c ****   * @param  pAlgo: ISP algorithm handle.
ARM GAS  C:\Users\DJESSOU\AppData\Local\Temp\ccch1XY5.s 			page 14


 633:Lib/Camera_Middleware/ISP_Library/isp/Src/isp_algo.c ****   * @retval operation result
 634:Lib/Camera_Middleware/ISP_Library/isp/Src/isp_algo.c ****   */
 635:Lib/Camera_Middleware/ISP_Library/isp/Src/isp_algo.c **** ISP_StatusTypeDef ISP_Algo_AWB_StatCb(ISP_AlgoTypeDef *pAlgo)
 636:Lib/Camera_Middleware/ISP_Library/isp/Src/isp_algo.c **** {
 117              		.loc 1 636 1 is_stmt 1 view -0
 118              		.cfi_startproc
 119              		@ args = 0, pretend = 0, frame = 0
 120              		@ frame_needed = 0, uses_anonymous_args = 0
 121              		@ link register save eliminated.
 637:Lib/Camera_Middleware/ISP_Library/isp/Src/isp_algo.c ****   /* Update State */
 638:Lib/Camera_Middleware/ISP_Library/isp/Src/isp_algo.c ****   if (pAlgo->state != ISP_ALGO_STATE_INIT)
 122              		.loc 1 638 3 view .LVU20
 123              		.loc 1 638 6 is_stmt 0 view .LVU21
 124 0000 4378     		ldrb	r3, [r0, #1]	@ zero_extendqisi2
 125 0002 0BB1     		cbz	r3, .L5
 639:Lib/Camera_Middleware/ISP_Library/isp/Src/isp_algo.c ****   {
 640:Lib/Camera_Middleware/ISP_Library/isp/Src/isp_algo.c ****     pAlgo->state = ISP_ALGO_STATE_STAT_READY;
 126              		.loc 1 640 5 is_stmt 1 view .LVU22
 127              		.loc 1 640 18 is_stmt 0 view .LVU23
 128 0004 0323     		movs	r3, #3
 129 0006 4370     		strb	r3, [r0, #1]
 130              	.L5:
 641:Lib/Camera_Middleware/ISP_Library/isp/Src/isp_algo.c ****   }
 642:Lib/Camera_Middleware/ISP_Library/isp/Src/isp_algo.c **** 
 643:Lib/Camera_Middleware/ISP_Library/isp/Src/isp_algo.c ****   return ISP_OK;
 131              		.loc 1 643 3 is_stmt 1 view .LVU24
 644:Lib/Camera_Middleware/ISP_Library/isp/Src/isp_algo.c **** }
 132              		.loc 1 644 1 is_stmt 0 view .LVU25
 133 0008 0020     		movs	r0, #0
 134              	.LVL7:
 135              		.loc 1 644 1 view .LVU26
 136 000a 7047     		bx	lr
 137              		.cfi_endproc
 138              	.LFE876:
 140              		.section	.text.ISP_Algo_BadPixel_Process,"ax",%progbits
 141              		.align	1
 142              		.global	ISP_Algo_BadPixel_Process
 143              		.syntax unified
 144              		.thumb
 145              		.thumb_func
 147              	ISP_Algo_BadPixel_Process:
 148              	.LVL8:
 149              	.LFB867:
 187:Lib/Camera_Middleware/ISP_Library/isp/Src/isp_algo.c ****   (void)hIsp; /* unused */
 150              		.loc 1 187 1 is_stmt 1 view -0
 151              		.cfi_startproc
 152              		@ args = 0, pretend = 0, frame = 8
 153              		@ frame_needed = 0, uses_anonymous_args = 0
 188:Lib/Camera_Middleware/ISP_Library/isp/Src/isp_algo.c ****   (void)pAlgo; /* unused */
 154              		.loc 1 188 3 view .LVU28
 189:Lib/Camera_Middleware/ISP_Library/isp/Src/isp_algo.c ****   static uint32_t BadPixelCount, LastFrameId;
 155              		.loc 1 189 3 view .LVU29
 190:Lib/Camera_Middleware/ISP_Library/isp/Src/isp_algo.c ****   static int8_t Step;
 156              		.loc 1 190 3 view .LVU30
 191:Lib/Camera_Middleware/ISP_Library/isp/Src/isp_algo.c ****   uint32_t CurrentFrameId;
 157              		.loc 1 191 3 view .LVU31
 192:Lib/Camera_Middleware/ISP_Library/isp/Src/isp_algo.c ****   ISP_BadPixelTypeDef BadPixelConfig;
ARM GAS  C:\Users\DJESSOU\AppData\Local\Temp\ccch1XY5.s 			page 15


 158              		.loc 1 192 3 view .LVU32
 193:Lib/Camera_Middleware/ISP_Library/isp/Src/isp_algo.c ****   ISP_IQParamTypeDef *IQParamConfig;
 159              		.loc 1 193 3 view .LVU33
 194:Lib/Camera_Middleware/ISP_Library/isp/Src/isp_algo.c ****   ISP_StatusTypeDef ret;
 160              		.loc 1 194 3 view .LVU34
 195:Lib/Camera_Middleware/ISP_Library/isp/Src/isp_algo.c **** 
 161              		.loc 1 195 3 view .LVU35
 197:Lib/Camera_Middleware/ISP_Library/isp/Src/isp_algo.c **** 
 162              		.loc 1 197 3 view .LVU36
 187:Lib/Camera_Middleware/ISP_Library/isp/Src/isp_algo.c ****   (void)hIsp; /* unused */
 163              		.loc 1 187 1 is_stmt 0 view .LVU37
 164 0000 F7B5     		push	{r0, r1, r2, r4, r5, r6, r7, lr}
 165              		.cfi_def_cfa_offset 32
 166              		.cfi_offset 4, -20
 167              		.cfi_offset 5, -16
 168              		.cfi_offset 6, -12
 169              		.cfi_offset 7, -8
 170              		.cfi_offset 14, -4
 187:Lib/Camera_Middleware/ISP_Library/isp/Src/isp_algo.c ****   (void)hIsp; /* unused */
 171              		.loc 1 187 1 view .LVU38
 172 0002 0446     		mov	r4, r0
 197:Lib/Camera_Middleware/ISP_Library/isp/Src/isp_algo.c **** 
 173              		.loc 1 197 19 view .LVU39
 174 0004 FFF7FEFF 		bl	ISP_SVC_IQParam_Get
 175              	.LVL9:
 199:Lib/Camera_Middleware/ISP_Library/isp/Src/isp_algo.c ****   {
 176              		.loc 1 199 6 view .LVU40
 177 0008 90F85430 		ldrb	r3, [r0, #84]	@ zero_extendqisi2
 197:Lib/Camera_Middleware/ISP_Library/isp/Src/isp_algo.c **** 
 178              		.loc 1 197 19 view .LVU41
 179 000c 0746     		mov	r7, r0
 180              	.LVL10:
 199:Lib/Camera_Middleware/ISP_Library/isp/Src/isp_algo.c ****   {
 181              		.loc 1 199 3 is_stmt 1 view .LVU42
 199:Lib/Camera_Middleware/ISP_Library/isp/Src/isp_algo.c ****   {
 182              		.loc 1 199 6 is_stmt 0 view .LVU43
 183 000e 13B9     		cbnz	r3, .L10
 184              	.LVL11:
 185              	.L12:
 201:Lib/Camera_Middleware/ISP_Library/isp/Src/isp_algo.c ****   }
 186              		.loc 1 201 12 view .LVU44
 187 0010 0020     		movs	r0, #0
 188              	.L11:
 253:Lib/Camera_Middleware/ISP_Library/isp/Src/isp_algo.c **** 
 189              		.loc 1 253 1 view .LVU45
 190 0012 03B0     		add	sp, sp, #12
 191              		.cfi_remember_state
 192              		.cfi_def_cfa_offset 20
 193              		@ sp needed
 194 0014 F0BD     		pop	{r4, r5, r6, r7, pc}
 195              	.LVL12:
 196              	.L10:
 197              		.cfi_restore_state
 205:Lib/Camera_Middleware/ISP_Library/isp/Src/isp_algo.c ****   if (CurrentFrameId == LastFrameId)
 198              		.loc 1 205 3 is_stmt 1 view .LVU46
 205:Lib/Camera_Middleware/ISP_Library/isp/Src/isp_algo.c ****   if (CurrentFrameId == LastFrameId)
 199              		.loc 1 205 20 is_stmt 0 view .LVU47
ARM GAS  C:\Users\DJESSOU\AppData\Local\Temp\ccch1XY5.s 			page 16


 200 0016 2046     		mov	r0, r4
 201              	.LVL13:
 205:Lib/Camera_Middleware/ISP_Library/isp/Src/isp_algo.c ****   if (CurrentFrameId == LastFrameId)
 202              		.loc 1 205 20 view .LVU48
 203 0018 FFF7FEFF 		bl	ISP_SVC_Misc_GetMainFrameId
 204              	.LVL14:
 206:Lib/Camera_Middleware/ISP_Library/isp/Src/isp_algo.c ****   {
 205              		.loc 1 206 3 is_stmt 1 view .LVU49
 206:Lib/Camera_Middleware/ISP_Library/isp/Src/isp_algo.c ****   {
 206              		.loc 1 206 22 is_stmt 0 view .LVU50
 207 001c 1E4B     		ldr	r3, .L21
 206:Lib/Camera_Middleware/ISP_Library/isp/Src/isp_algo.c ****   {
 208              		.loc 1 206 6 view .LVU51
 209 001e 1A68     		ldr	r2, [r3]
 210 0020 8242     		cmp	r2, r0
 211 0022 F5D0     		beq	.L12
 210:Lib/Camera_Middleware/ISP_Library/isp/Src/isp_algo.c **** 
 212              		.loc 1 210 3 is_stmt 1 view .LVU52
 212:Lib/Camera_Middleware/ISP_Library/isp/Src/isp_algo.c ****   {
 213              		.loc 1 212 11 is_stmt 0 view .LVU53
 214 0024 1D4D     		ldr	r5, .L21+4
 210:Lib/Camera_Middleware/ISP_Library/isp/Src/isp_algo.c **** 
 215              		.loc 1 210 15 view .LVU54
 216 0026 1860     		str	r0, [r3]
 212:Lib/Camera_Middleware/ISP_Library/isp/Src/isp_algo.c ****   {
 217              		.loc 1 212 3 is_stmt 1 view .LVU55
 212:Lib/Camera_Middleware/ISP_Library/isp/Src/isp_algo.c ****   {
 218              		.loc 1 212 11 is_stmt 0 view .LVU56
 219 0028 95F90030 		ldrsb	r3, [r5]
 220 002c 5A1C     		adds	r2, r3, #1
 212:Lib/Camera_Middleware/ISP_Library/isp/Src/isp_algo.c ****   {
 221              		.loc 1 212 6 view .LVU57
 222 002e 002B     		cmp	r3, #0
 212:Lib/Camera_Middleware/ISP_Library/isp/Src/isp_algo.c ****   {
 223              		.loc 1 212 11 view .LVU58
 224 0030 2A70     		strb	r2, [r5]
 212:Lib/Camera_Middleware/ISP_Library/isp/Src/isp_algo.c ****   {
 225              		.loc 1 212 6 view .LVU59
 226 0032 0ADB     		blt	.L13
 215:Lib/Camera_Middleware/ISP_Library/isp/Src/isp_algo.c ****     if (ret != ISP_OK)
 227              		.loc 1 215 5 is_stmt 1 view .LVU60
 215:Lib/Camera_Middleware/ISP_Library/isp/Src/isp_algo.c ****     if (ret != ISP_OK)
 228              		.loc 1 215 11 is_stmt 0 view .LVU61
 229 0034 6946     		mov	r1, sp
 230 0036 2046     		mov	r0, r4
 231              	.LVL15:
 215:Lib/Camera_Middleware/ISP_Library/isp/Src/isp_algo.c ****     if (ret != ISP_OK)
 232              		.loc 1 215 11 view .LVU62
 233 0038 FFF7FEFF 		bl	ISP_SVC_ISP_GetBadPixel
 234              	.LVL16:
 216:Lib/Camera_Middleware/ISP_Library/isp/Src/isp_algo.c ****     {
 235              		.loc 1 216 5 is_stmt 1 view .LVU63
 216:Lib/Camera_Middleware/ISP_Library/isp/Src/isp_algo.c ****     {
 236              		.loc 1 216 8 is_stmt 0 view .LVU64
 237 003c 0028     		cmp	r0, #0
 238 003e E8D1     		bne	.L11
 220:Lib/Camera_Middleware/ISP_Library/isp/Src/isp_algo.c ****   }
ARM GAS  C:\Users\DJESSOU\AppData\Local\Temp\ccch1XY5.s 			page 17


 239              		.loc 1 220 5 is_stmt 1 view .LVU65
 220:Lib/Camera_Middleware/ISP_Library/isp/Src/isp_algo.c ****   }
 240              		.loc 1 220 19 is_stmt 0 view .LVU66
 241 0040 174A     		ldr	r2, .L21+8
 242 0042 019B     		ldr	r3, [sp, #4]
 243 0044 1168     		ldr	r1, [r2]
 244 0046 0B44     		add	r3, r3, r1
 245 0048 1360     		str	r3, [r2]
 246              	.LVL17:
 247              	.L13:
 223:Lib/Camera_Middleware/ISP_Library/isp/Src/isp_algo.c ****   {
 248              		.loc 1 223 3 is_stmt 1 view .LVU67
 223:Lib/Camera_Middleware/ISP_Library/isp/Src/isp_algo.c ****   {
 249              		.loc 1 223 6 is_stmt 0 view .LVU68
 250 004a 95F90020 		ldrsb	r2, [r5]
 251 004e 0A2A     		cmp	r2, #10
 252 0050 DED1     		bne	.L12
 226:Lib/Camera_Middleware/ISP_Library/isp/Src/isp_algo.c **** 
 253              		.loc 1 226 5 is_stmt 1 view .LVU69
 226:Lib/Camera_Middleware/ISP_Library/isp/Src/isp_algo.c **** 
 254              		.loc 1 226 19 is_stmt 0 view .LVU70
 255 0052 134E     		ldr	r6, .L21+8
 256 0054 3368     		ldr	r3, [r6]
 257 0056 B3FBF2F3 		udiv	r3, r3, r2
 228:Lib/Camera_Middleware/ISP_Library/isp/Src/isp_algo.c ****     {
 258              		.loc 1 228 53 view .LVU71
 259 005a BA6D     		ldr	r2, [r7, #88]
 226:Lib/Camera_Middleware/ISP_Library/isp/Src/isp_algo.c **** 
 260              		.loc 1 226 19 view .LVU72
 261 005c 3360     		str	r3, [r6]
 228:Lib/Camera_Middleware/ISP_Library/isp/Src/isp_algo.c ****     {
 262              		.loc 1 228 5 is_stmt 1 view .LVU73
 228:Lib/Camera_Middleware/ISP_Library/isp/Src/isp_algo.c ****     {
 263              		.loc 1 228 8 is_stmt 0 view .LVU74
 264 005e 9342     		cmp	r3, r2
 265 0060 12D9     		bls	.L14
 228:Lib/Camera_Middleware/ISP_Library/isp/Src/isp_algo.c ****     {
 266              		.loc 1 228 83 discriminator 1 view .LVU75
 267 0062 9DF80130 		ldrb	r3, [sp, #1]	@ zero_extendqisi2
 228:Lib/Camera_Middleware/ISP_Library/isp/Src/isp_algo.c ****     {
 268              		.loc 1 228 65 discriminator 1 view .LVU76
 269 0066 13B1     		cbz	r3, .L15
 231:Lib/Camera_Middleware/ISP_Library/isp/Src/isp_algo.c ****     }
 270              		.loc 1 231 7 is_stmt 1 view .LVU77
 231:Lib/Camera_Middleware/ISP_Library/isp/Src/isp_algo.c ****     }
 271              		.loc 1 231 30 is_stmt 0 view .LVU78
 272 0068 013B     		subs	r3, r3, #1
 273              	.L20:
 236:Lib/Camera_Middleware/ISP_Library/isp/Src/isp_algo.c ****     }
 274              		.loc 1 236 30 view .LVU79
 275 006a 8DF80130 		strb	r3, [sp, #1]
 276              	.L15:
 240:Lib/Camera_Middleware/ISP_Library/isp/Src/isp_algo.c ****     ret = ISP_SVC_ISP_SetBadPixel(hIsp, &BadPixelConfig);
 277              		.loc 1 240 5 is_stmt 1 view .LVU80
 240:Lib/Camera_Middleware/ISP_Library/isp/Src/isp_algo.c ****     ret = ISP_SVC_ISP_SetBadPixel(hIsp, &BadPixelConfig);
 278              		.loc 1 240 27 is_stmt 0 view .LVU81
 279 006e 0123     		movs	r3, #1
ARM GAS  C:\Users\DJESSOU\AppData\Local\Temp\ccch1XY5.s 			page 18


 241:Lib/Camera_Middleware/ISP_Library/isp/Src/isp_algo.c ****     if (ret != ISP_OK)
 280              		.loc 1 241 11 view .LVU82
 281 0070 6946     		mov	r1, sp
 282 0072 2046     		mov	r0, r4
 240:Lib/Camera_Middleware/ISP_Library/isp/Src/isp_algo.c ****     ret = ISP_SVC_ISP_SetBadPixel(hIsp, &BadPixelConfig);
 283              		.loc 1 240 27 view .LVU83
 284 0074 8DF80030 		strb	r3, [sp]
 241:Lib/Camera_Middleware/ISP_Library/isp/Src/isp_algo.c ****     if (ret != ISP_OK)
 285              		.loc 1 241 5 is_stmt 1 view .LVU84
 241:Lib/Camera_Middleware/ISP_Library/isp/Src/isp_algo.c ****     if (ret != ISP_OK)
 286              		.loc 1 241 11 is_stmt 0 view .LVU85
 287 0078 FFF7FEFF 		bl	ISP_SVC_ISP_SetBadPixel
 288              	.LVL18:
 242:Lib/Camera_Middleware/ISP_Library/isp/Src/isp_algo.c ****     {
 289              		.loc 1 242 5 is_stmt 1 view .LVU86
 242:Lib/Camera_Middleware/ISP_Library/isp/Src/isp_algo.c ****     {
 290              		.loc 1 242 8 is_stmt 0 view .LVU87
 291 007c 0028     		cmp	r0, #0
 292 007e C8D1     		bne	.L11
 248:Lib/Camera_Middleware/ISP_Library/isp/Src/isp_algo.c ****     BadPixelCount = 0;
 293              		.loc 1 248 5 is_stmt 1 view .LVU88
 248:Lib/Camera_Middleware/ISP_Library/isp/Src/isp_algo.c ****     BadPixelCount = 0;
 294              		.loc 1 248 10 is_stmt 0 view .LVU89
 295 0080 FF23     		movs	r3, #255
 249:Lib/Camera_Middleware/ISP_Library/isp/Src/isp_algo.c ****   }
 296              		.loc 1 249 19 view .LVU90
 297 0082 3060     		str	r0, [r6]
 248:Lib/Camera_Middleware/ISP_Library/isp/Src/isp_algo.c ****     BadPixelCount = 0;
 298              		.loc 1 248 10 view .LVU91
 299 0084 2B70     		strb	r3, [r5]
 249:Lib/Camera_Middleware/ISP_Library/isp/Src/isp_algo.c ****   }
 300              		.loc 1 249 5 is_stmt 1 view .LVU92
 301 0086 C4E7     		b	.L11
 302              	.LVL19:
 303              	.L14:
 233:Lib/Camera_Middleware/ISP_Library/isp/Src/isp_algo.c ****     {
 304              		.loc 1 233 10 view .LVU93
 233:Lib/Camera_Middleware/ISP_Library/isp/Src/isp_algo.c ****     {
 305              		.loc 1 233 13 is_stmt 0 view .LVU94
 306 0088 F1D2     		bcs	.L15
 233:Lib/Camera_Middleware/ISP_Library/isp/Src/isp_algo.c ****     {
 307              		.loc 1 233 88 discriminator 1 view .LVU95
 308 008a 9DF80130 		ldrb	r3, [sp, #1]	@ zero_extendqisi2
 233:Lib/Camera_Middleware/ISP_Library/isp/Src/isp_algo.c ****     {
 309              		.loc 1 233 70 discriminator 1 view .LVU96
 310 008e 052B     		cmp	r3, #5
 311 0090 EDD8     		bhi	.L15
 236:Lib/Camera_Middleware/ISP_Library/isp/Src/isp_algo.c ****     }
 312              		.loc 1 236 7 is_stmt 1 view .LVU97
 236:Lib/Camera_Middleware/ISP_Library/isp/Src/isp_algo.c ****     }
 313              		.loc 1 236 30 is_stmt 0 view .LVU98
 314 0092 0133     		adds	r3, r3, #1
 315 0094 E9E7     		b	.L20
 316              	.L22:
 317 0096 00BF     		.align	2
 318              	.L21:
 319 0098 00000000 		.word	LastFrameId.8
ARM GAS  C:\Users\DJESSOU\AppData\Local\Temp\ccch1XY5.s 			page 19


 320 009c 00000000 		.word	Step.7
 321 00a0 00000000 		.word	BadPixelCount.6
 322              		.cfi_endproc
 323              	.LFE867:
 325              		.section	.text.ISP_Algo_AEC_Init,"ax",%progbits
 326              		.align	1
 327              		.global	ISP_Algo_AEC_Init
 328              		.syntax unified
 329              		.thumb
 330              		.thumb_func
 332              	ISP_Algo_AEC_Init:
 333              	.LVL20:
 334              	.LFB868:
 264:Lib/Camera_Middleware/ISP_Library/isp/Src/isp_algo.c ****   ISP_HandleTypeDef *pIsp_handle = (ISP_HandleTypeDef*) hIsp;
 335              		.loc 1 264 1 is_stmt 1 view -0
 336              		.cfi_startproc
 337              		@ args = 0, pretend = 0, frame = 8
 338              		@ frame_needed = 0, uses_anonymous_args = 0
 265:Lib/Camera_Middleware/ISP_Library/isp/Src/isp_algo.c ****   ISP_AlgoTypeDef *algo = (ISP_AlgoTypeDef *)pAlgo;
 339              		.loc 1 265 3 view .LVU100
 264:Lib/Camera_Middleware/ISP_Library/isp/Src/isp_algo.c ****   ISP_HandleTypeDef *pIsp_handle = (ISP_HandleTypeDef*) hIsp;
 340              		.loc 1 264 1 is_stmt 0 view .LVU101
 341 0000 F7B5     		push	{r0, r1, r2, r4, r5, r6, r7, lr}
 342              		.cfi_def_cfa_offset 32
 343              		.cfi_offset 4, -20
 344              		.cfi_offset 5, -16
 345              		.cfi_offset 6, -12
 346              		.cfi_offset 7, -8
 347              		.cfi_offset 14, -4
 264:Lib/Camera_Middleware/ISP_Library/isp/Src/isp_algo.c ****   ISP_HandleTypeDef *pIsp_handle = (ISP_HandleTypeDef*) hIsp;
 348              		.loc 1 264 1 view .LVU102
 349 0002 0446     		mov	r4, r0
 350              	.LVL21:
 266:Lib/Camera_Middleware/ISP_Library/isp/Src/isp_algo.c ****   ISP_SensorExposureTypeDef exposureConfig;
 351              		.loc 1 266 3 is_stmt 1 view .LVU103
 264:Lib/Camera_Middleware/ISP_Library/isp/Src/isp_algo.c ****   ISP_HandleTypeDef *pIsp_handle = (ISP_HandleTypeDef*) hIsp;
 352              		.loc 1 264 1 is_stmt 0 view .LVU104
 353 0004 0F46     		mov	r7, r1
 354              	.LVL22:
 267:Lib/Camera_Middleware/ISP_Library/isp/Src/isp_algo.c ****   ISP_SensorGainTypeDef gainConfig;
 355              		.loc 1 267 3 is_stmt 1 view .LVU105
 268:Lib/Camera_Middleware/ISP_Library/isp/Src/isp_algo.c ****   ISP_IQParamTypeDef *IQParamConfig;
 356              		.loc 1 268 3 view .LVU106
 269:Lib/Camera_Middleware/ISP_Library/isp/Src/isp_algo.c ****   ISP_RestartStateTypeDef *pRestartState;
 357              		.loc 1 269 3 view .LVU107
 270:Lib/Camera_Middleware/ISP_Library/isp/Src/isp_algo.c **** 
 358              		.loc 1 270 3 view .LVU108
 272:Lib/Camera_Middleware/ISP_Library/isp/Src/isp_algo.c ****   pRestartState = ISP_SVC_GetRestartState(hIsp);
 359              		.loc 1 272 3 view .LVU109
 272:Lib/Camera_Middleware/ISP_Library/isp/Src/isp_algo.c ****   pRestartState = ISP_SVC_GetRestartState(hIsp);
 360              		.loc 1 272 19 is_stmt 0 view .LVU110
 361 0006 FFF7FEFF 		bl	ISP_SVC_IQParam_Get
 362              	.LVL23:
 272:Lib/Camera_Middleware/ISP_Library/isp/Src/isp_algo.c ****   pRestartState = ISP_SVC_GetRestartState(hIsp);
 363              		.loc 1 272 19 view .LVU111
 364 000a 0646     		mov	r6, r0
 365              	.LVL24:
ARM GAS  C:\Users\DJESSOU\AppData\Local\Temp\ccch1XY5.s 			page 20


 273:Lib/Camera_Middleware/ISP_Library/isp/Src/isp_algo.c **** 
 366              		.loc 1 273 3 is_stmt 1 view .LVU112
 273:Lib/Camera_Middleware/ISP_Library/isp/Src/isp_algo.c **** 
 367              		.loc 1 273 19 is_stmt 0 view .LVU113
 368 000c 2046     		mov	r0, r4
 369              	.LVL25:
 273:Lib/Camera_Middleware/ISP_Library/isp/Src/isp_algo.c **** 
 370              		.loc 1 273 19 view .LVU114
 371 000e FFF7FEFF 		bl	ISP_SVC_GetRestartState
 372              	.LVL26:
 275:Lib/Camera_Middleware/ISP_Library/isp/Src/isp_algo.c ****   {
 373              		.loc 1 275 6 view .LVU115
 374 0012 96F86532 		ldrb	r3, [r6, #613]	@ zero_extendqisi2
 273:Lib/Camera_Middleware/ISP_Library/isp/Src/isp_algo.c **** 
 375              		.loc 1 273 19 view .LVU116
 376 0016 0546     		mov	r5, r0
 377              	.LVL27:
 275:Lib/Camera_Middleware/ISP_Library/isp/Src/isp_algo.c ****   {
 378              		.loc 1 275 3 is_stmt 1 view .LVU117
 275:Lib/Camera_Middleware/ISP_Library/isp/Src/isp_algo.c ****   {
 379              		.loc 1 275 6 is_stmt 0 view .LVU118
 380 0018 13B9     		cbnz	r3, .L24
 278:Lib/Camera_Middleware/ISP_Library/isp/Src/isp_algo.c ****   }
 381              		.loc 1 278 5 is_stmt 1 view .LVU119
 278:Lib/Camera_Middleware/ISP_Library/isp/Src/isp_algo.c ****   }
 382              		.loc 1 278 38 is_stmt 0 view .LVU120
 383 001a 0123     		movs	r3, #1
 384 001c 86F86532 		strb	r3, [r6, #613]
 385              	.L24:
 281:Lib/Camera_Middleware/ISP_Library/isp/Src/isp_algo.c **** 
 386              		.loc 1 281 3 is_stmt 1 view .LVU121
 387 0020 2046     		mov	r0, r4
 388              	.LVL28:
 281:Lib/Camera_Middleware/ISP_Library/isp/Src/isp_algo.c **** 
 389              		.loc 1 281 3 is_stmt 0 view .LVU122
 390 0022 FFF7FEFF 		bl	isp_ae_init
 391              	.LVL29:
 284:Lib/Camera_Middleware/ISP_Library/isp/Src/isp_algo.c ****   {
 392              		.loc 1 284 3 is_stmt 1 view .LVU123
 284:Lib/Camera_Middleware/ISP_Library/isp/Src/isp_algo.c ****   {
 393              		.loc 1 284 6 is_stmt 0 view .LVU124
 394 0026 96F86830 		ldrb	r3, [r6, #104]	@ zero_extendqisi2
 395 002a 012B     		cmp	r3, #1
 396 002c 03D0     		beq	.L25
 397              	.L31:
 306:Lib/Camera_Middleware/ISP_Library/isp/Src/isp_algo.c **** 
 398              		.loc 1 306 3 is_stmt 1 view .LVU125
 306:Lib/Camera_Middleware/ISP_Library/isp/Src/isp_algo.c **** 
 399              		.loc 1 306 15 is_stmt 0 view .LVU126
 400 002e 0020     		movs	r0, #0
 401 0030 7870     		strb	r0, [r7, #1]
 308:Lib/Camera_Middleware/ISP_Library/isp/Src/isp_algo.c **** }
 402              		.loc 1 308 3 is_stmt 1 view .LVU127
 403              	.L26:
 309:Lib/Camera_Middleware/ISP_Library/isp/Src/isp_algo.c **** 
 404              		.loc 1 309 1 is_stmt 0 view .LVU128
 405 0032 03B0     		add	sp, sp, #12
ARM GAS  C:\Users\DJESSOU\AppData\Local\Temp\ccch1XY5.s 			page 21


 406              		.cfi_remember_state
 407              		.cfi_def_cfa_offset 20
 408              		@ sp needed
 409 0034 F0BD     		pop	{r4, r5, r6, r7, pc}
 410              	.LVL30:
 411              	.L25:
 412              		.cfi_restore_state
 286:Lib/Camera_Middleware/ISP_Library/isp/Src/isp_algo.c ****     {
 413              		.loc 1 286 5 is_stmt 1 view .LVU129
 286:Lib/Camera_Middleware/ISP_Library/isp/Src/isp_algo.c ****     {
 414              		.loc 1 286 8 is_stmt 0 view .LVU130
 415 0036 65B1     		cbz	r5, .L27
 286:Lib/Camera_Middleware/ISP_Library/isp/Src/isp_algo.c ****     {
 416              		.loc 1 286 23 discriminator 1 view .LVU131
 417 0038 2B78     		ldrb	r3, [r5]	@ zero_extendqisi2
 418 003a 53B1     		cbz	r3, .L27
 289:Lib/Camera_Middleware/ISP_Library/isp/Src/isp_algo.c ****       gainConfig.gain = pRestartState->sensorGain;
 419              		.loc 1 289 7 is_stmt 1 view .LVU132
 289:Lib/Camera_Middleware/ISP_Library/isp/Src/isp_algo.c ****       gainConfig.gain = pRestartState->sensorGain;
 420              		.loc 1 289 31 is_stmt 0 view .LVU133
 421 003c AB68     		ldr	r3, [r5, #8]
 422 003e 0093     		str	r3, [sp]
 290:Lib/Camera_Middleware/ISP_Library/isp/Src/isp_algo.c ****     }
 423              		.loc 1 290 7 is_stmt 1 view .LVU134
 290:Lib/Camera_Middleware/ISP_Library/isp/Src/isp_algo.c ****     }
 424              		.loc 1 290 38 is_stmt 0 view .LVU135
 425 0040 6B68     		ldr	r3, [r5, #4]
 426              	.L28:
 299:Lib/Camera_Middleware/ISP_Library/isp/Src/isp_algo.c ****     {
 427              		.loc 1 299 10 view .LVU136
 428 0042 6946     		mov	r1, sp
 429 0044 2046     		mov	r0, r4
 290:Lib/Camera_Middleware/ISP_Library/isp/Src/isp_algo.c ****     }
 430              		.loc 1 290 23 view .LVU137
 431 0046 0193     		str	r3, [sp, #4]
 299:Lib/Camera_Middleware/ISP_Library/isp/Src/isp_algo.c ****     {
 432              		.loc 1 299 5 is_stmt 1 view .LVU138
 299:Lib/Camera_Middleware/ISP_Library/isp/Src/isp_algo.c ****     {
 433              		.loc 1 299 10 is_stmt 0 view .LVU139
 434 0048 FFF7FEFF 		bl	ISP_SVC_Sensor_SetExposure
 435              	.LVL31:
 299:Lib/Camera_Middleware/ISP_Library/isp/Src/isp_algo.c ****     {
 436              		.loc 1 299 8 discriminator 1 view .LVU140
 437 004c 30B1     		cbz	r0, .L29
 438              	.L30:
 301:Lib/Camera_Middleware/ISP_Library/isp/Src/isp_algo.c ****     }
 439              		.loc 1 301 14 view .LVU141
 440 004e BE20     		movs	r0, #190
 441 0050 EFE7     		b	.L26
 442              	.L27:
 295:Lib/Camera_Middleware/ISP_Library/isp/Src/isp_algo.c ****       gainConfig.gain = pIsp_handle->sensorInfo.gain_min;
 443              		.loc 1 295 7 is_stmt 1 view .LVU142
 295:Lib/Camera_Middleware/ISP_Library/isp/Src/isp_algo.c ****       gainConfig.gain = pIsp_handle->sensorInfo.gain_min;
 444              		.loc 1 295 31 is_stmt 0 view .LVU143
 445 0052 D4F88430 		ldr	r3, [r4, #132]
 446 0056 0093     		str	r3, [sp]
 296:Lib/Camera_Middleware/ISP_Library/isp/Src/isp_algo.c ****     }
ARM GAS  C:\Users\DJESSOU\AppData\Local\Temp\ccch1XY5.s 			page 22


 447              		.loc 1 296 7 is_stmt 1 view .LVU144
 296:Lib/Camera_Middleware/ISP_Library/isp/Src/isp_algo.c ****     }
 448              		.loc 1 296 48 is_stmt 0 view .LVU145
 449 0058 A36F     		ldr	r3, [r4, #120]
 450 005a F2E7     		b	.L28
 451              	.L29:
 299:Lib/Camera_Middleware/ISP_Library/isp/Src/isp_algo.c ****     {
 452              		.loc 1 299 75 discriminator 1 view .LVU146
 453 005c 2046     		mov	r0, r4
 454 005e 01A9     		add	r1, sp, #4
 455 0060 FFF7FEFF 		bl	ISP_SVC_Sensor_SetGain
 456              	.LVL32:
 299:Lib/Camera_Middleware/ISP_Library/isp/Src/isp_algo.c ****     {
 457              		.loc 1 299 71 discriminator 1 view .LVU147
 458 0064 0028     		cmp	r0, #0
 459 0066 E2D0     		beq	.L31
 460 0068 F1E7     		b	.L30
 461              		.cfi_endproc
 462              	.LFE868:
 464              		.section	.rodata.ISP_Algo_AEC_Process.str1.1,"aMS",%progbits,1
 465              	.LC0:
 466 0000 4552524F 		.ascii	"ERROR: Lux value of the scene cannot be estimated\015"
 466      523A204C 
 466      75782076 
 466      616C7565 
 466      206F6620 
 467 0032 00       		.ascii	"\000"
 468              	.LC1:
 469 0033 5741524E 		.ascii	"WARNING: Unknown AE algo state\015\000"
 469      494E473A 
 469      20556E6B 
 469      6E6F776E 
 469      20414520 
 470              		.section	.text.ISP_Algo_AEC_Process,"ax",%progbits
 471              		.align	1
 472              		.global	ISP_Algo_AEC_Process
 473              		.syntax unified
 474              		.thumb
 475              		.thumb_func
 477              	ISP_Algo_AEC_Process:
 478              	.LVL33:
 479              	.LFB871:
 349:Lib/Camera_Middleware/ISP_Library/isp/Src/isp_algo.c ****   static ISP_SVC_StatStateTypeDef stats;
 480              		.loc 1 349 1 is_stmt 1 view -0
 481              		.cfi_startproc
 482              		@ args = 0, pretend = 0, frame = 16
 483              		@ frame_needed = 0, uses_anonymous_args = 0
 350:Lib/Camera_Middleware/ISP_Library/isp/Src/isp_algo.c ****   ISP_AlgoTypeDef *algo = (ISP_AlgoTypeDef *)pAlgo;
 484              		.loc 1 350 3 view .LVU149
 351:Lib/Camera_Middleware/ISP_Library/isp/Src/isp_algo.c ****   ISP_IQParamTypeDef *IQParamConfig;
 485              		.loc 1 351 3 view .LVU150
 349:Lib/Camera_Middleware/ISP_Library/isp/Src/isp_algo.c ****   static ISP_SVC_StatStateTypeDef stats;
 486              		.loc 1 349 1 is_stmt 0 view .LVU151
 487 0000 F0B5     		push	{r4, r5, r6, r7, lr}
 488              		.cfi_def_cfa_offset 20
 489              		.cfi_offset 4, -20
 490              		.cfi_offset 5, -16
ARM GAS  C:\Users\DJESSOU\AppData\Local\Temp\ccch1XY5.s 			page 23


 491              		.cfi_offset 6, -12
 492              		.cfi_offset 7, -8
 493              		.cfi_offset 14, -4
 494 0002 89B0     		sub	sp, sp, #36
 495              		.cfi_def_cfa_offset 56
 349:Lib/Camera_Middleware/ISP_Library/isp/Src/isp_algo.c ****   static ISP_SVC_StatStateTypeDef stats;
 496              		.loc 1 349 1 view .LVU152
 497 0004 0546     		mov	r5, r0
 498 0006 0C46     		mov	r4, r1
 499              	.LVL34:
 352:Lib/Camera_Middleware/ISP_Library/isp/Src/isp_algo.c ****   ISP_RestartStateTypeDef *pRestartState;
 500              		.loc 1 352 3 is_stmt 1 view .LVU153
 353:Lib/Camera_Middleware/ISP_Library/isp/Src/isp_algo.c ****   ISP_StatusTypeDef ret = ISP_OK;
 501              		.loc 1 353 3 view .LVU154
 354:Lib/Camera_Middleware/ISP_Library/isp/Src/isp_algo.c ****   ISP_SensorGainTypeDef gainConfig;
 502              		.loc 1 354 3 view .LVU155
 355:Lib/Camera_Middleware/ISP_Library/isp/Src/isp_algo.c ****   ISP_SensorExposureTypeDef exposureConfig;
 503              		.loc 1 355 3 view .LVU156
 356:Lib/Camera_Middleware/ISP_Library/isp/Src/isp_algo.c ****   uint32_t avgL, newExposure, newGain;
 504              		.loc 1 356 3 view .LVU157
 357:Lib/Camera_Middleware/ISP_Library/isp/Src/isp_algo.c **** #ifdef ALGO_AEC_DBG_LOGS
 505              		.loc 1 357 3 view .LVU158
 361:Lib/Camera_Middleware/ISP_Library/isp/Src/isp_algo.c ****  ISP_HandleTypeDef *pIsp_handle = (ISP_HandleTypeDef *)hIsp;
 506              		.loc 1 361 3 view .LVU159
 362:Lib/Camera_Middleware/ISP_Library/isp/Src/isp_algo.c **** 
 507              		.loc 1 362 2 view .LVU160
 364:Lib/Camera_Middleware/ISP_Library/isp/Src/isp_algo.c ****   if (IQParamConfig->AECAlgo.enable == false)
 508              		.loc 1 364 3 view .LVU161
 364:Lib/Camera_Middleware/ISP_Library/isp/Src/isp_algo.c ****   if (IQParamConfig->AECAlgo.enable == false)
 509              		.loc 1 364 19 is_stmt 0 view .LVU162
 510 0008 FFF7FEFF 		bl	ISP_SVC_IQParam_Get
 511              	.LVL35:
 365:Lib/Camera_Middleware/ISP_Library/isp/Src/isp_algo.c ****   {
 512              		.loc 1 365 6 view .LVU163
 513 000c 90F86830 		ldrb	r3, [r0, #104]	@ zero_extendqisi2
 364:Lib/Camera_Middleware/ISP_Library/isp/Src/isp_algo.c ****   if (IQParamConfig->AECAlgo.enable == false)
 514              		.loc 1 364 19 view .LVU164
 515 0010 0646     		mov	r6, r0
 516              	.LVL36:
 365:Lib/Camera_Middleware/ISP_Library/isp/Src/isp_algo.c ****   {
 517              		.loc 1 365 3 is_stmt 1 view .LVU165
 365:Lib/Camera_Middleware/ISP_Library/isp/Src/isp_algo.c ****   {
 518              		.loc 1 365 6 is_stmt 0 view .LVU166
 519 0012 002B     		cmp	r3, #0
 520 0014 75D0     		beq	.L39
 370:Lib/Camera_Middleware/ISP_Library/isp/Src/isp_algo.c ****   {
 521              		.loc 1 370 3 is_stmt 1 view .LVU167
 522 0016 6378     		ldrb	r3, [r4, #1]	@ zero_extendqisi2
 523 0018 032B     		cmp	r3, #3
 524 001a 6DD8     		bhi	.L40
 525 001c DFE803F0 		tbb	[pc, r3]
 526              	.L42:
 527 0020 02       		.byte	(.L44-.L42)/2
 528 0021 09       		.byte	(.L43-.L42)/2
 529 0022 71       		.byte	(.L39-.L42)/2
 530 0023 1A       		.byte	(.L41-.L42)/2
 531              		.p2align 1
ARM GAS  C:\Users\DJESSOU\AppData\Local\Temp\ccch1XY5.s 			page 24


 532              	.L44:
 374:Lib/Camera_Middleware/ISP_Library/isp/Src/isp_algo.c ****     if (ret != ISP_OK)
 533              		.loc 1 374 5 view .LVU168
 374:Lib/Camera_Middleware/ISP_Library/isp/Src/isp_algo.c ****     if (ret != ISP_OK)
 534              		.loc 1 374 11 is_stmt 0 view .LVU169
 535 0024 2846     		mov	r0, r5
 536              	.LVL37:
 374:Lib/Camera_Middleware/ISP_Library/isp/Src/isp_algo.c ****     if (ret != ISP_OK)
 537              		.loc 1 374 11 view .LVU170
 538 0026 05F14C01 		add	r1, r5, #76
 539 002a FFF7FEFF 		bl	ISP_SVC_Sensor_GetInfo
 540              	.LVL38:
 375:Lib/Camera_Middleware/ISP_Library/isp/Src/isp_algo.c ****     {
 541              		.loc 1 375 5 is_stmt 1 view .LVU171
 375:Lib/Camera_Middleware/ISP_Library/isp/Src/isp_algo.c ****     {
 542              		.loc 1 375 8 is_stmt 0 view .LVU172
 543 002e 0028     		cmp	r0, #0
 544 0030 68D1     		bne	.L45
 545              	.LVL39:
 546              	.L43:
 381:Lib/Camera_Middleware/ISP_Library/isp/Src/isp_algo.c ****                                 ISP_STAT_TYPE_AVG, IQParamConfig->sensorDelay.delay);
 547              		.loc 1 381 5 is_stmt 1 view .LVU173
 381:Lib/Camera_Middleware/ISP_Library/isp/Src/isp_algo.c ****                                 ISP_STAT_TYPE_AVG, IQParamConfig->sensorDelay.delay);
 548              		.loc 1 381 11 is_stmt 0 view .LVU174
 549 0032 96F86532 		ldrb	r3, [r6, #613]	@ zero_extendqisi2
 550 0036 0226     		movs	r6, #2
 551              	.LVL40:
 381:Lib/Camera_Middleware/ISP_Library/isp/Src/isp_algo.c ****                                 ISP_STAT_TYPE_AVG, IQParamConfig->sensorDelay.delay);
 552              		.loc 1 381 11 view .LVU175
 553 0038 0293     		str	r3, [sp, #8]
 554 003a 0123     		movs	r3, #1
 555 003c 2246     		mov	r2, r4
 556 003e CDE90063 		strd	r6, r3, [sp]
 557 0042 2846     		mov	r0, r5
 558 0044 304B     		ldr	r3, .L60
 559 0046 3149     		ldr	r1, .L60+4
 560 0048 FFF7FEFF 		bl	ISP_SVC_Stats_GetNext
 561              	.LVL41:
 383:Lib/Camera_Middleware/ISP_Library/isp/Src/isp_algo.c ****     {
 562              		.loc 1 383 5 is_stmt 1 view .LVU176
 383:Lib/Camera_Middleware/ISP_Library/isp/Src/isp_algo.c ****     {
 563              		.loc 1 383 8 is_stmt 0 view .LVU177
 564 004c 0028     		cmp	r0, #0
 565 004e 59D1     		bne	.L45
 566              	.LVL42:
 567              	.L59:
 503:Lib/Camera_Middleware/ISP_Library/isp/Src/isp_algo.c ****     break;
 568              		.loc 1 503 5 is_stmt 1 view .LVU178
 503:Lib/Camera_Middleware/ISP_Library/isp/Src/isp_algo.c ****     break;
 569              		.loc 1 503 17 is_stmt 0 view .LVU179
 570 0050 6670     		strb	r6, [r4, #1]
 504:Lib/Camera_Middleware/ISP_Library/isp/Src/isp_algo.c **** 
 571              		.loc 1 504 5 is_stmt 1 view .LVU180
 572 0052 57E0     		b	.L45
 573              	.LVL43:
 574              	.L41:
 403:Lib/Camera_Middleware/ISP_Library/isp/Src/isp_algo.c **** #ifdef ALGO_AEC_DBG_LOGS
ARM GAS  C:\Users\DJESSOU\AppData\Local\Temp\ccch1XY5.s 			page 25


 575              		.loc 1 403 5 view .LVU181
 403:Lib/Camera_Middleware/ISP_Library/isp/Src/isp_algo.c **** #ifdef ALGO_AEC_DBG_LOGS
 576              		.loc 1 403 22 is_stmt 0 view .LVU182
 577 0054 2C4B     		ldr	r3, .L60
 412:Lib/Camera_Middleware/ISP_Library/isp/Src/isp_algo.c ****     if (ret != ISP_OK)
 578              		.loc 1 412 11 view .LVU183
 579 0056 2846     		mov	r0, r5
 580              	.LVL44:
 412:Lib/Camera_Middleware/ISP_Library/isp/Src/isp_algo.c ****     if (ret != ISP_OK)
 581              		.loc 1 412 11 view .LVU184
 582 0058 04A9     		add	r1, sp, #16
 403:Lib/Camera_Middleware/ISP_Library/isp/Src/isp_algo.c **** #ifdef ALGO_AEC_DBG_LOGS
 583              		.loc 1 403 22 view .LVU185
 584 005a 93F83770 		ldrb	r7, [r3, #55]	@ zero_extendqisi2
 585              	.LVL45:
 412:Lib/Camera_Middleware/ISP_Library/isp/Src/isp_algo.c ****     if (ret != ISP_OK)
 586              		.loc 1 412 5 is_stmt 1 view .LVU186
 412:Lib/Camera_Middleware/ISP_Library/isp/Src/isp_algo.c ****     if (ret != ISP_OK)
 587              		.loc 1 412 11 is_stmt 0 view .LVU187
 588 005e FFF7FEFF 		bl	ISP_SVC_Sensor_GetGain
 589              	.LVL46:
 413:Lib/Camera_Middleware/ISP_Library/isp/Src/isp_algo.c ****     {
 590              		.loc 1 413 5 is_stmt 1 view .LVU188
 413:Lib/Camera_Middleware/ISP_Library/isp/Src/isp_algo.c ****     {
 591              		.loc 1 413 8 is_stmt 0 view .LVU189
 592 0062 0028     		cmp	r0, #0
 593 0064 4ED1     		bne	.L45
 418:Lib/Camera_Middleware/ISP_Library/isp/Src/isp_algo.c ****     if (ret != ISP_OK)
 594              		.loc 1 418 5 is_stmt 1 view .LVU190
 418:Lib/Camera_Middleware/ISP_Library/isp/Src/isp_algo.c ****     if (ret != ISP_OK)
 595              		.loc 1 418 11 is_stmt 0 view .LVU191
 596 0066 2846     		mov	r0, r5
 597              	.LVL47:
 418:Lib/Camera_Middleware/ISP_Library/isp/Src/isp_algo.c ****     if (ret != ISP_OK)
 598              		.loc 1 418 11 view .LVU192
 599 0068 05A9     		add	r1, sp, #20
 600 006a FFF7FEFF 		bl	ISP_SVC_Sensor_GetExposure
 601              	.LVL48:
 419:Lib/Camera_Middleware/ISP_Library/isp/Src/isp_algo.c ****     {
 602              		.loc 1 419 5 is_stmt 1 view .LVU193
 419:Lib/Camera_Middleware/ISP_Library/isp/Src/isp_algo.c ****     {
 603              		.loc 1 419 8 is_stmt 0 view .LVU194
 604 006e 0028     		cmp	r0, #0
 605 0070 48D1     		bne	.L45
 424:Lib/Camera_Middleware/ISP_Library/isp/Src/isp_algo.c **** 
 606              		.loc 1 424 5 is_stmt 1 view .LVU195
 424:Lib/Camera_Middleware/ISP_Library/isp/Src/isp_algo.c **** 
 607              		.loc 1 424 21 is_stmt 0 view .LVU196
 608 0072 2846     		mov	r0, r5
 609              	.LVL49:
 424:Lib/Camera_Middleware/ISP_Library/isp/Src/isp_algo.c **** 
 610              		.loc 1 424 21 view .LVU197
 611 0074 FFF7FEFF 		bl	ISP_SVC_Misc_GetEstimatedLux
 612              	.LVL50:
 430:Lib/Camera_Middleware/ISP_Library/isp/Src/isp_algo.c ****     {
 613              		.loc 1 430 5 is_stmt 1 view .LVU198
 430:Lib/Camera_Middleware/ISP_Library/isp/Src/isp_algo.c ****     {
ARM GAS  C:\Users\DJESSOU\AppData\Local\Temp\ccch1XY5.s 			page 26


 614              		.loc 1 430 8 is_stmt 0 view .LVU199
 615 0078 0028     		cmp	r0, #0
 616 007a 39DB     		blt	.L47
 432:Lib/Camera_Middleware/ISP_Library/isp/Src/isp_algo.c **** #ifdef ALGO_PERF_DBG_LOGS
 617              		.loc 1 432 7 is_stmt 1 view .LVU200
 618 007c 049B     		ldr	r3, [sp, #16]
 619 007e 06AA     		add	r2, sp, #24
 620 0080 0193     		str	r3, [sp, #4]
 621 0082 059B     		ldr	r3, [sp, #20]
 622 0084 3946     		mov	r1, r7
 623 0086 0093     		str	r3, [sp]
 624 0088 07AB     		add	r3, sp, #28
 625 008a FFF7FEFF 		bl	isp_ae_get_new_exposure
 626              	.LVL51:
 436:Lib/Camera_Middleware/ISP_Library/isp/Src/isp_algo.c ****       {
 627              		.loc 1 436 7 view .LVU201
 436:Lib/Camera_Middleware/ISP_Library/isp/Src/isp_algo.c ****       {
 628              		.loc 1 436 27 is_stmt 0 view .LVU202
 629 008e 079B     		ldr	r3, [sp, #28]
 436:Lib/Camera_Middleware/ISP_Library/isp/Src/isp_algo.c ****       {
 630              		.loc 1 436 10 view .LVU203
 631 0090 049A     		ldr	r2, [sp, #16]
 632 0092 9A42     		cmp	r2, r3
 633 0094 15D1     		bne	.L48
 634              	.LVL52:
 635              	.L51:
 452:Lib/Camera_Middleware/ISP_Library/isp/Src/isp_algo.c ****       {
 636              		.loc 1 452 7 is_stmt 1 view .LVU204
 452:Lib/Camera_Middleware/ISP_Library/isp/Src/isp_algo.c ****       {
 637              		.loc 1 452 10 is_stmt 0 view .LVU205
 638 0096 DDE90523 		ldrd	r2, r3, [sp, #20]
 639 009a 9A42     		cmp	r2, r3
 640 009c 19D1     		bne	.L49
 641              	.L50:
 469:Lib/Camera_Middleware/ISP_Library/isp/Src/isp_algo.c ****       if (pRestartState)
 642              		.loc 1 469 7 is_stmt 1 view .LVU206
 469:Lib/Camera_Middleware/ISP_Library/isp/Src/isp_algo.c ****       if (pRestartState)
 643              		.loc 1 469 23 is_stmt 0 view .LVU207
 644 009e 2846     		mov	r0, r5
 645 00a0 FFF7FEFF 		bl	ISP_SVC_GetRestartState
 646              	.LVL53:
 470:Lib/Camera_Middleware/ISP_Library/isp/Src/isp_algo.c ****       {
 647              		.loc 1 470 7 is_stmt 1 view .LVU208
 470:Lib/Camera_Middleware/ISP_Library/isp/Src/isp_algo.c ****       {
 648              		.loc 1 470 10 is_stmt 0 view .LVU209
 649 00a4 E8B9     		cbnz	r0, .L52
 650              	.LVL54:
 651              	.L53:
 499:Lib/Camera_Middleware/ISP_Library/isp/Src/isp_algo.c ****                                 ISP_STAT_TYPE_AVG, IQParamConfig->sensorDelay.delay);
 652              		.loc 1 499 5 is_stmt 1 view .LVU210
 499:Lib/Camera_Middleware/ISP_Library/isp/Src/isp_algo.c ****                                 ISP_STAT_TYPE_AVG, IQParamConfig->sensorDelay.delay);
 653              		.loc 1 499 11 is_stmt 0 view .LVU211
 654 00a6 96F86532 		ldrb	r3, [r6, #613]	@ zero_extendqisi2
 655 00aa 0226     		movs	r6, #2
 656              	.LVL55:
 499:Lib/Camera_Middleware/ISP_Library/isp/Src/isp_algo.c ****                                 ISP_STAT_TYPE_AVG, IQParamConfig->sensorDelay.delay);
 657              		.loc 1 499 11 view .LVU212
ARM GAS  C:\Users\DJESSOU\AppData\Local\Temp\ccch1XY5.s 			page 27


 658 00ac 0293     		str	r3, [sp, #8]
 659 00ae 0123     		movs	r3, #1
 660 00b0 2246     		mov	r2, r4
 661 00b2 CDE90063 		strd	r6, r3, [sp]
 662 00b6 2846     		mov	r0, r5
 663 00b8 134B     		ldr	r3, .L60
 664 00ba 1449     		ldr	r1, .L60+4
 665 00bc FFF7FEFF 		bl	ISP_SVC_Stats_GetNext
 666              	.LVL56:
 667 00c0 C6E7     		b	.L59
 668              	.LVL57:
 669              	.L48:
 439:Lib/Camera_Middleware/ISP_Library/isp/Src/isp_algo.c **** 
 670              		.loc 1 439 9 is_stmt 1 view .LVU213
 441:Lib/Camera_Middleware/ISP_Library/isp/Src/isp_algo.c ****         if (ret != ISP_OK)
 671              		.loc 1 441 15 is_stmt 0 view .LVU214
 672 00c2 2846     		mov	r0, r5
 673 00c4 04A9     		add	r1, sp, #16
 439:Lib/Camera_Middleware/ISP_Library/isp/Src/isp_algo.c **** 
 674              		.loc 1 439 25 view .LVU215
 675 00c6 0493     		str	r3, [sp, #16]
 441:Lib/Camera_Middleware/ISP_Library/isp/Src/isp_algo.c ****         if (ret != ISP_OK)
 676              		.loc 1 441 9 is_stmt 1 view .LVU216
 441:Lib/Camera_Middleware/ISP_Library/isp/Src/isp_algo.c ****         if (ret != ISP_OK)
 677              		.loc 1 441 15 is_stmt 0 view .LVU217
 678 00c8 FFF7FEFF 		bl	ISP_SVC_Sensor_SetGain
 679              	.LVL58:
 442:Lib/Camera_Middleware/ISP_Library/isp/Src/isp_algo.c ****         {
 680              		.loc 1 442 9 is_stmt 1 view .LVU218
 442:Lib/Camera_Middleware/ISP_Library/isp/Src/isp_algo.c ****         {
 681              		.loc 1 442 12 is_stmt 0 view .LVU219
 682 00cc 0028     		cmp	r0, #0
 683 00ce E2D0     		beq	.L51
 684 00d0 18E0     		b	.L45
 685              	.LVL59:
 686              	.L49:
 455:Lib/Camera_Middleware/ISP_Library/isp/Src/isp_algo.c **** 
 687              		.loc 1 455 9 is_stmt 1 view .LVU220
 457:Lib/Camera_Middleware/ISP_Library/isp/Src/isp_algo.c ****         if (ret != ISP_OK)
 688              		.loc 1 457 15 is_stmt 0 view .LVU221
 689 00d2 2846     		mov	r0, r5
 690 00d4 05A9     		add	r1, sp, #20
 455:Lib/Camera_Middleware/ISP_Library/isp/Src/isp_algo.c **** 
 691              		.loc 1 455 33 view .LVU222
 692 00d6 0593     		str	r3, [sp, #20]
 457:Lib/Camera_Middleware/ISP_Library/isp/Src/isp_algo.c ****         if (ret != ISP_OK)
 693              		.loc 1 457 9 is_stmt 1 view .LVU223
 457:Lib/Camera_Middleware/ISP_Library/isp/Src/isp_algo.c ****         if (ret != ISP_OK)
 694              		.loc 1 457 15 is_stmt 0 view .LVU224
 695 00d8 FFF7FEFF 		bl	ISP_SVC_Sensor_SetExposure
 696              	.LVL60:
 458:Lib/Camera_Middleware/ISP_Library/isp/Src/isp_algo.c ****         {
 697              		.loc 1 458 9 is_stmt 1 view .LVU225
 458:Lib/Camera_Middleware/ISP_Library/isp/Src/isp_algo.c ****         {
 698              		.loc 1 458 12 is_stmt 0 view .LVU226
 699 00dc 0028     		cmp	r0, #0
 700 00de DED0     		beq	.L50
ARM GAS  C:\Users\DJESSOU\AppData\Local\Temp\ccch1XY5.s 			page 28


 701 00e0 10E0     		b	.L45
 702              	.LVL61:
 703              	.L52:
 472:Lib/Camera_Middleware/ISP_Library/isp/Src/isp_algo.c ****         pRestartState->sensorExposure = newExposure;
 704              		.loc 1 472 9 is_stmt 1 view .LVU227
 472:Lib/Camera_Middleware/ISP_Library/isp/Src/isp_algo.c ****         pRestartState->sensorExposure = newExposure;
 705              		.loc 1 472 35 is_stmt 0 view .LVU228
 706 00e2 079B     		ldr	r3, [sp, #28]
 707 00e4 4360     		str	r3, [r0, #4]
 473:Lib/Camera_Middleware/ISP_Library/isp/Src/isp_algo.c ****         pRestartState->sensorConfigured = 1;
 708              		.loc 1 473 9 is_stmt 1 view .LVU229
 473:Lib/Camera_Middleware/ISP_Library/isp/Src/isp_algo.c ****         pRestartState->sensorConfigured = 1;
 709              		.loc 1 473 39 is_stmt 0 view .LVU230
 710 00e6 069B     		ldr	r3, [sp, #24]
 711 00e8 8360     		str	r3, [r0, #8]
 474:Lib/Camera_Middleware/ISP_Library/isp/Src/isp_algo.c ****       }
 712              		.loc 1 474 9 is_stmt 1 view .LVU231
 474:Lib/Camera_Middleware/ISP_Library/isp/Src/isp_algo.c ****       }
 713              		.loc 1 474 41 is_stmt 0 view .LVU232
 714 00ea 0123     		movs	r3, #1
 715 00ec 0370     		strb	r3, [r0]
 716 00ee DAE7     		b	.L53
 717              	.LVL62:
 718              	.L47:
 479:Lib/Camera_Middleware/ISP_Library/isp/Src/isp_algo.c ****       printf("ERROR: Lux value of the scene cannot be estimated\r\n");
 719              		.loc 1 479 7 is_stmt 1 view .LVU233
 480:Lib/Camera_Middleware/ISP_Library/isp/Src/isp_algo.c ****     }
 720              		.loc 1 480 7 view .LVU234
 721 00f0 0748     		ldr	r0, .L60+8
 722              	.LVL63:
 480:Lib/Camera_Middleware/ISP_Library/isp/Src/isp_algo.c ****     }
 723              		.loc 1 480 7 is_stmt 0 view .LVU235
 724 00f2 FFF7FEFF 		bl	puts
 725              	.LVL64:
 726 00f6 D6E7     		b	.L53
 727              	.LVL65:
 728              	.L40:
 507:Lib/Camera_Middleware/ISP_Library/isp/Src/isp_algo.c ****     /* Reset state to ISP_ALGO_STATE_INIT */
 729              		.loc 1 507 5 is_stmt 1 view .LVU236
 730 00f8 0648     		ldr	r0, .L60+12
 731              	.LVL66:
 507:Lib/Camera_Middleware/ISP_Library/isp/Src/isp_algo.c ****     /* Reset state to ISP_ALGO_STATE_INIT */
 732              		.loc 1 507 5 is_stmt 0 view .LVU237
 733 00fa FFF7FEFF 		bl	puts
 734              	.LVL67:
 509:Lib/Camera_Middleware/ISP_Library/isp/Src/isp_algo.c ****     break;
 735              		.loc 1 509 5 is_stmt 1 view .LVU238
 509:Lib/Camera_Middleware/ISP_Library/isp/Src/isp_algo.c ****     break;
 736              		.loc 1 509 17 is_stmt 0 view .LVU239
 737 00fe 0023     		movs	r3, #0
 738 0100 6370     		strb	r3, [r4, #1]
 510:Lib/Camera_Middleware/ISP_Library/isp/Src/isp_algo.c **** 
 739              		.loc 1 510 5 is_stmt 1 view .LVU240
 740              	.L39:
 349:Lib/Camera_Middleware/ISP_Library/isp/Src/isp_algo.c ****   static ISP_SVC_StatStateTypeDef stats;
 741              		.loc 1 349 1 is_stmt 0 view .LVU241
 742 0102 0020     		movs	r0, #0
ARM GAS  C:\Users\DJESSOU\AppData\Local\Temp\ccch1XY5.s 			page 29


 743              	.LVL68:
 744              	.L45:
 515:Lib/Camera_Middleware/ISP_Library/isp/Src/isp_algo.c **** #endif /* ISP_MW_SW_AEC_ALGO_SUPPORT */
 745              		.loc 1 515 1 view .LVU242
 746 0104 09B0     		add	sp, sp, #36
 747              		.cfi_def_cfa_offset 20
 748              		@ sp needed
 749 0106 F0BD     		pop	{r4, r5, r6, r7, pc}
 750              	.LVL69:
 751              	.L61:
 515:Lib/Camera_Middleware/ISP_Library/isp/Src/isp_algo.c **** #endif /* ISP_MW_SW_AEC_ALGO_SUPPORT */
 752              		.loc 1 515 1 view .LVU243
 753              		.align	2
 754              	.L60:
 755 0108 00000000 		.word	stats.5
 756 010c 00000000 		.word	ISP_Algo_AEC_StatCb
 757 0110 00000000 		.word	.LC0
 758 0114 33000000 		.word	.LC1
 759              		.cfi_endproc
 760              	.LFE871:
 762              		.section	.rodata.ISP_Algo_Background_Process.str1.1,"aMS",%progbits,1
 763              	.LC2:
 764 0000 5741524E 		.ascii	"WARNING: Unknown background algo state\015\000"
 764      494E473A 
 764      20556E6B 
 764      6E6F776E 
 764      20626163 
 765              		.section	.text.ISP_Algo_Background_Process,"ax",%progbits
 766              		.align	1
 767              		.global	ISP_Algo_Background_Process
 768              		.syntax unified
 769              		.thumb
 770              		.thumb_func
 772              	ISP_Algo_Background_Process:
 773              	.LVL70:
 774              	.LFB881:
 645:Lib/Camera_Middleware/ISP_Library/isp/Src/isp_algo.c **** 
 646:Lib/Camera_Middleware/ISP_Library/isp/Src/isp_algo.c **** /**
 647:Lib/Camera_Middleware/ISP_Library/isp/Src/isp_algo.c ****   * @brief  ISP_Algo_AWB_Process
 648:Lib/Camera_Middleware/ISP_Library/isp/Src/isp_algo.c ****   *         Process the AWB algorithm. This algorithm controls the ISP gain and color conversion
 649:Lib/Camera_Middleware/ISP_Library/isp/Src/isp_algo.c ****   *         in order to output realistic colors (white balance).
 650:Lib/Camera_Middleware/ISP_Library/isp/Src/isp_algo.c ****   * @param  hIsp:  ISP device handle. To cast in (ISP_HandleTypeDef *).
 651:Lib/Camera_Middleware/ISP_Library/isp/Src/isp_algo.c ****   * @param  pAlgo: ISP algorithm handle. To cast in (ISP_AlgoTypeDef *).
 652:Lib/Camera_Middleware/ISP_Library/isp/Src/isp_algo.c ****   * @retval operation result
 653:Lib/Camera_Middleware/ISP_Library/isp/Src/isp_algo.c ****   */
 654:Lib/Camera_Middleware/ISP_Library/isp/Src/isp_algo.c **** ISP_StatusTypeDef ISP_Algo_AWB_Process(void *hIsp, void *pAlgo)
 655:Lib/Camera_Middleware/ISP_Library/isp/Src/isp_algo.c **** {
 656:Lib/Camera_Middleware/ISP_Library/isp/Src/isp_algo.c ****   static ISP_SVC_StatStateTypeDef stats;
 657:Lib/Camera_Middleware/ISP_Library/isp/Src/isp_algo.c ****   static uint8_t enableCurrent = false;
 658:Lib/Camera_Middleware/ISP_Library/isp/Src/isp_algo.c ****   static uint8_t reconfigureRequest = false;
 659:Lib/Camera_Middleware/ISP_Library/isp/Src/isp_algo.c ****   static uint32_t currentColorTemp = 0;
 660:Lib/Camera_Middleware/ISP_Library/isp/Src/isp_algo.c ****   ISP_IQParamTypeDef *IQParamConfig;
 661:Lib/Camera_Middleware/ISP_Library/isp/Src/isp_algo.c ****   ISP_RestartStateTypeDef *pRestartState;
 662:Lib/Camera_Middleware/ISP_Library/isp/Src/isp_algo.c ****   ISP_ColorConvTypeDef ColorConvConfig;
 663:Lib/Camera_Middleware/ISP_Library/isp/Src/isp_algo.c ****   ISP_ISPGainTypeDef ISPGainConfig;
 664:Lib/Camera_Middleware/ISP_Library/isp/Src/isp_algo.c ****   ISP_AlgoTypeDef *algo = (ISP_AlgoTypeDef *)pAlgo;
 665:Lib/Camera_Middleware/ISP_Library/isp/Src/isp_algo.c ****   ISP_StatusTypeDef ret_stat, ret = ISP_OK;
ARM GAS  C:\Users\DJESSOU\AppData\Local\Temp\ccch1XY5.s 			page 30


 666:Lib/Camera_Middleware/ISP_Library/isp/Src/isp_algo.c ****   uint32_t estimatedColorTemp = 0;
 667:Lib/Camera_Middleware/ISP_Library/isp/Src/isp_algo.c **** 
 668:Lib/Camera_Middleware/ISP_Library/isp/Src/isp_algo.c ****   IQParamConfig = ISP_SVC_IQParam_Get(hIsp);
 669:Lib/Camera_Middleware/ISP_Library/isp/Src/isp_algo.c **** 
 670:Lib/Camera_Middleware/ISP_Library/isp/Src/isp_algo.c ****   if (IQParamConfig->AWBAlgo.enable == false)
 671:Lib/Camera_Middleware/ISP_Library/isp/Src/isp_algo.c ****   {
 672:Lib/Camera_Middleware/ISP_Library/isp/Src/isp_algo.c ****     enableCurrent = false;
 673:Lib/Camera_Middleware/ISP_Library/isp/Src/isp_algo.c ****     return ISP_OK;
 674:Lib/Camera_Middleware/ISP_Library/isp/Src/isp_algo.c ****   }
 675:Lib/Camera_Middleware/ISP_Library/isp/Src/isp_algo.c ****   else if ((enableCurrent == false) || (IQParamConfig->AWBAlgo.enable == ISP_AWB_ENABLE_RECONFIGURE
 676:Lib/Camera_Middleware/ISP_Library/isp/Src/isp_algo.c ****   {
 677:Lib/Camera_Middleware/ISP_Library/isp/Src/isp_algo.c ****     /* Start or resume algo : set state to INIT in order to read the IQ params */
 678:Lib/Camera_Middleware/ISP_Library/isp/Src/isp_algo.c ****     algo->state = ISP_ALGO_STATE_INIT;
 679:Lib/Camera_Middleware/ISP_Library/isp/Src/isp_algo.c ****     IQParamConfig->AWBAlgo.enable = true;
 680:Lib/Camera_Middleware/ISP_Library/isp/Src/isp_algo.c ****     reconfigureRequest = true;
 681:Lib/Camera_Middleware/ISP_Library/isp/Src/isp_algo.c ****     enableCurrent = true;
 682:Lib/Camera_Middleware/ISP_Library/isp/Src/isp_algo.c ****   }
 683:Lib/Camera_Middleware/ISP_Library/isp/Src/isp_algo.c **** 
 684:Lib/Camera_Middleware/ISP_Library/isp/Src/isp_algo.c ****   switch(algo->state)
 685:Lib/Camera_Middleware/ISP_Library/isp/Src/isp_algo.c ****   {
 686:Lib/Camera_Middleware/ISP_Library/isp/Src/isp_algo.c ****   case ISP_ALGO_STATE_INIT:
 687:Lib/Camera_Middleware/ISP_Library/isp/Src/isp_algo.c ****     ret = ISP_AWB_Init(&IQParamConfig->AWBAlgo);
 688:Lib/Camera_Middleware/ISP_Library/isp/Src/isp_algo.c ****     if (ret != ISP_OK)
 689:Lib/Camera_Middleware/ISP_Library/isp/Src/isp_algo.c ****     {
 690:Lib/Camera_Middleware/ISP_Library/isp/Src/isp_algo.c ****       return ret;
 691:Lib/Camera_Middleware/ISP_Library/isp/Src/isp_algo.c ****     }
 692:Lib/Camera_Middleware/ISP_Library/isp/Src/isp_algo.c **** 
 693:Lib/Camera_Middleware/ISP_Library/isp/Src/isp_algo.c ****     /* Ask for stats */
 694:Lib/Camera_Middleware/ISP_Library/isp/Src/isp_algo.c ****     ret = ISP_SVC_Stats_GetNext(hIsp, &ISP_Algo_AWB_StatCb, pAlgo, &stats, ISP_STAT_LOC_DOWN,
 695:Lib/Camera_Middleware/ISP_Library/isp/Src/isp_algo.c ****                                 ISP_STAT_TYPE_AVG, ALGO_ISP_LATENCY + ALGO_AWB_ADDITIONAL_LATENCY);
 696:Lib/Camera_Middleware/ISP_Library/isp/Src/isp_algo.c ****     if (ret != ISP_OK)
 697:Lib/Camera_Middleware/ISP_Library/isp/Src/isp_algo.c ****     {
 698:Lib/Camera_Middleware/ISP_Library/isp/Src/isp_algo.c ****       return ret;
 699:Lib/Camera_Middleware/ISP_Library/isp/Src/isp_algo.c ****     }
 700:Lib/Camera_Middleware/ISP_Library/isp/Src/isp_algo.c **** 
 701:Lib/Camera_Middleware/ISP_Library/isp/Src/isp_algo.c ****     /* Wait for stats to be ready */
 702:Lib/Camera_Middleware/ISP_Library/isp/Src/isp_algo.c ****     algo->state = ISP_ALGO_STATE_WAITING_STAT;
 703:Lib/Camera_Middleware/ISP_Library/isp/Src/isp_algo.c ****     break;
 704:Lib/Camera_Middleware/ISP_Library/isp/Src/isp_algo.c **** 
 705:Lib/Camera_Middleware/ISP_Library/isp/Src/isp_algo.c ****   case ISP_ALGO_STATE_NEED_STAT:
 706:Lib/Camera_Middleware/ISP_Library/isp/Src/isp_algo.c ****     ret = ISP_SVC_Stats_GetNext(hIsp, &ISP_Algo_AWB_StatCb, pAlgo, &stats, ISP_STAT_LOC_DOWN,
 707:Lib/Camera_Middleware/ISP_Library/isp/Src/isp_algo.c ****                                 ISP_STAT_TYPE_AVG, ALGO_ISP_LATENCY + ALGO_AWB_ADDITIONAL_LATENCY);
 708:Lib/Camera_Middleware/ISP_Library/isp/Src/isp_algo.c ****     if (ret != ISP_OK)
 709:Lib/Camera_Middleware/ISP_Library/isp/Src/isp_algo.c ****     {
 710:Lib/Camera_Middleware/ISP_Library/isp/Src/isp_algo.c ****       return ret;
 711:Lib/Camera_Middleware/ISP_Library/isp/Src/isp_algo.c ****     }
 712:Lib/Camera_Middleware/ISP_Library/isp/Src/isp_algo.c **** 
 713:Lib/Camera_Middleware/ISP_Library/isp/Src/isp_algo.c ****     /* Wait for stats to be ready */
 714:Lib/Camera_Middleware/ISP_Library/isp/Src/isp_algo.c ****     algo->state = ISP_ALGO_STATE_WAITING_STAT;
 715:Lib/Camera_Middleware/ISP_Library/isp/Src/isp_algo.c ****     break;
 716:Lib/Camera_Middleware/ISP_Library/isp/Src/isp_algo.c **** 
 717:Lib/Camera_Middleware/ISP_Library/isp/Src/isp_algo.c ****   case ISP_ALGO_STATE_WAITING_STAT:
 718:Lib/Camera_Middleware/ISP_Library/isp/Src/isp_algo.c ****     /* Do nothing */
 719:Lib/Camera_Middleware/ISP_Library/isp/Src/isp_algo.c ****     break;
 720:Lib/Camera_Middleware/ISP_Library/isp/Src/isp_algo.c **** 
 721:Lib/Camera_Middleware/ISP_Library/isp/Src/isp_algo.c ****   case ISP_ALGO_STATE_STAT_READY:
 722:Lib/Camera_Middleware/ISP_Library/isp/Src/isp_algo.c **** #ifdef ALGO_PERF_DBG_LOGS
ARM GAS  C:\Users\DJESSOU\AppData\Local\Temp\ccch1XY5.s 			page 31


 723:Lib/Camera_Middleware/ISP_Library/isp/Src/isp_algo.c ****     static float sum_calc, sum_process = 0;
 724:Lib/Camera_Middleware/ISP_Library/isp/Src/isp_algo.c ****     static uint32_t iter = 0;
 725:Lib/Camera_Middleware/ISP_Library/isp/Src/isp_algo.c ****     uint32_t end_algo_calc, end_algo_process = 20;
 726:Lib/Camera_Middleware/ISP_Library/isp/Src/isp_algo.c ****     uint32_t start_algo = DWT->CYCCNT;
 727:Lib/Camera_Middleware/ISP_Library/isp/Src/isp_algo.c **** #endif
 728:Lib/Camera_Middleware/ISP_Library/isp/Src/isp_algo.c ****     /* Optimization: do not ask for Up stats, but evaluate them from the down stats */
 729:Lib/Camera_Middleware/ISP_Library/isp/Src/isp_algo.c ****     ISP_SVC_Stats_EvaluateUp(hIsp, &stats.down, &stats.up);
 730:Lib/Camera_Middleware/ISP_Library/isp/Src/isp_algo.c **** 
 731:Lib/Camera_Middleware/ISP_Library/isp/Src/isp_algo.c ****     ret = ISP_AWB_GetConfig(&stats.up, &ColorConvConfig, &ISPGainConfig, &estimatedColorTemp);
 732:Lib/Camera_Middleware/ISP_Library/isp/Src/isp_algo.c **** #ifdef ALGO_PERF_DBG_LOGS
 733:Lib/Camera_Middleware/ISP_Library/isp/Src/isp_algo.c ****       end_algo_calc = DWT->CYCCNT;
 734:Lib/Camera_Middleware/ISP_Library/isp/Src/isp_algo.c **** #endif
 735:Lib/Camera_Middleware/ISP_Library/isp/Src/isp_algo.c ****     if (ret == ISP_OK)
 736:Lib/Camera_Middleware/ISP_Library/isp/Src/isp_algo.c ****     {
 737:Lib/Camera_Middleware/ISP_Library/isp/Src/isp_algo.c ****       if (estimatedColorTemp != currentColorTemp || reconfigureRequest == true)
 738:Lib/Camera_Middleware/ISP_Library/isp/Src/isp_algo.c ****       {
 739:Lib/Camera_Middleware/ISP_Library/isp/Src/isp_algo.c ****         /* Apply Color Conversion */
 740:Lib/Camera_Middleware/ISP_Library/isp/Src/isp_algo.c ****         ret = ISP_SVC_ISP_SetColorConv(hIsp, &ColorConvConfig);
 741:Lib/Camera_Middleware/ISP_Library/isp/Src/isp_algo.c ****         if (ret == ISP_OK)
 742:Lib/Camera_Middleware/ISP_Library/isp/Src/isp_algo.c ****         {
 743:Lib/Camera_Middleware/ISP_Library/isp/Src/isp_algo.c ****           /* Apply gain */
 744:Lib/Camera_Middleware/ISP_Library/isp/Src/isp_algo.c ****           ret = ISP_SVC_ISP_SetGain(hIsp, &ISPGainConfig);
 745:Lib/Camera_Middleware/ISP_Library/isp/Src/isp_algo.c ****           if (ret == ISP_OK)
 746:Lib/Camera_Middleware/ISP_Library/isp/Src/isp_algo.c ****           {
 747:Lib/Camera_Middleware/ISP_Library/isp/Src/isp_algo.c ****             Meta.colorTemp = estimatedColorTemp;
 748:Lib/Camera_Middleware/ISP_Library/isp/Src/isp_algo.c ****             currentColorTemp = estimatedColorTemp ;
 749:Lib/Camera_Middleware/ISP_Library/isp/Src/isp_algo.c **** 
 750:Lib/Camera_Middleware/ISP_Library/isp/Src/isp_algo.c ****             /* Update the restart state */
 751:Lib/Camera_Middleware/ISP_Library/isp/Src/isp_algo.c ****             pRestartState = ISP_SVC_GetRestartState(hIsp);
 752:Lib/Camera_Middleware/ISP_Library/isp/Src/isp_algo.c ****             if (pRestartState)
 753:Lib/Camera_Middleware/ISP_Library/isp/Src/isp_algo.c ****             {
 754:Lib/Camera_Middleware/ISP_Library/isp/Src/isp_algo.c ****               pRestartState->awbConfigured = 1;
 755:Lib/Camera_Middleware/ISP_Library/isp/Src/isp_algo.c ****               pRestartState->colorConv = ColorConvConfig;
 756:Lib/Camera_Middleware/ISP_Library/isp/Src/isp_algo.c ****               pRestartState->ISPGain = ISPGainConfig;
 757:Lib/Camera_Middleware/ISP_Library/isp/Src/isp_algo.c ****             }
 758:Lib/Camera_Middleware/ISP_Library/isp/Src/isp_algo.c ****           }
 759:Lib/Camera_Middleware/ISP_Library/isp/Src/isp_algo.c ****         }
 760:Lib/Camera_Middleware/ISP_Library/isp/Src/isp_algo.c ****       }
 761:Lib/Camera_Middleware/ISP_Library/isp/Src/isp_algo.c ****     }
 762:Lib/Camera_Middleware/ISP_Library/isp/Src/isp_algo.c ****     if (ret != ISP_OK)
 763:Lib/Camera_Middleware/ISP_Library/isp/Src/isp_algo.c ****     {
 764:Lib/Camera_Middleware/ISP_Library/isp/Src/isp_algo.c ****       ret = ISP_ERR_ALGO;
 765:Lib/Camera_Middleware/ISP_Library/isp/Src/isp_algo.c ****     }
 766:Lib/Camera_Middleware/ISP_Library/isp/Src/isp_algo.c **** 
 767:Lib/Camera_Middleware/ISP_Library/isp/Src/isp_algo.c ****     /* Reset reconfigureRequest */
 768:Lib/Camera_Middleware/ISP_Library/isp/Src/isp_algo.c ****     reconfigureRequest = false;
 769:Lib/Camera_Middleware/ISP_Library/isp/Src/isp_algo.c **** 
 770:Lib/Camera_Middleware/ISP_Library/isp/Src/isp_algo.c **** #ifdef ALGO_PERF_DBG_LOGS
 771:Lib/Camera_Middleware/ISP_Library/isp/Src/isp_algo.c ****     end_algo_process = DWT->CYCCNT;
 772:Lib/Camera_Middleware/ISP_Library/isp/Src/isp_algo.c ****     sum_calc += (float)(end_algo_calc - start_algo) / (SystemCoreClock / 1e6);
 773:Lib/Camera_Middleware/ISP_Library/isp/Src/isp_algo.c ****     sum_process += (float)(end_algo_process - start_algo) / (SystemCoreClock / 1e6);
 774:Lib/Camera_Middleware/ISP_Library/isp/Src/isp_algo.c ****     iter++;
 775:Lib/Camera_Middleware/ISP_Library/isp/Src/isp_algo.c **** 
 776:Lib/Camera_Middleware/ISP_Library/isp/Src/isp_algo.c ****     if (iter == MEAS_ITERATION)
 777:Lib/Camera_Middleware/ISP_Library/isp/Src/isp_algo.c ****     {
 778:Lib/Camera_Middleware/ISP_Library/isp/Src/isp_algo.c ****       printf("AWB time  = %.3f us (calc in %.3f us)\r\n", sum_process / MEAS_ITERATION, sum_calc / 
 779:Lib/Camera_Middleware/ISP_Library/isp/Src/isp_algo.c ****       sum_process = 0;
ARM GAS  C:\Users\DJESSOU\AppData\Local\Temp\ccch1XY5.s 			page 32


 780:Lib/Camera_Middleware/ISP_Library/isp/Src/isp_algo.c ****       sum_calc = 0;
 781:Lib/Camera_Middleware/ISP_Library/isp/Src/isp_algo.c ****       iter = 0;
 782:Lib/Camera_Middleware/ISP_Library/isp/Src/isp_algo.c ****     }
 783:Lib/Camera_Middleware/ISP_Library/isp/Src/isp_algo.c **** #endif
 784:Lib/Camera_Middleware/ISP_Library/isp/Src/isp_algo.c **** 
 785:Lib/Camera_Middleware/ISP_Library/isp/Src/isp_algo.c ****     /* Ask for stats */
 786:Lib/Camera_Middleware/ISP_Library/isp/Src/isp_algo.c ****     ret_stat = ISP_SVC_Stats_GetNext(hIsp, &ISP_Algo_AWB_StatCb, pAlgo, &stats, ISP_STAT_LOC_DOWN,
 787:Lib/Camera_Middleware/ISP_Library/isp/Src/isp_algo.c ****                                      ISP_STAT_TYPE_AVG, ALGO_ISP_LATENCY + ALGO_AWB_ADDITIONAL_LATE
 788:Lib/Camera_Middleware/ISP_Library/isp/Src/isp_algo.c ****     ret = (ret != ISP_OK) ? ret : ret_stat;
 789:Lib/Camera_Middleware/ISP_Library/isp/Src/isp_algo.c **** 
 790:Lib/Camera_Middleware/ISP_Library/isp/Src/isp_algo.c ****     /* Wait for stats to be ready */
 791:Lib/Camera_Middleware/ISP_Library/isp/Src/isp_algo.c ****     algo->state = ISP_ALGO_STATE_WAITING_STAT;
 792:Lib/Camera_Middleware/ISP_Library/isp/Src/isp_algo.c ****     break;
 793:Lib/Camera_Middleware/ISP_Library/isp/Src/isp_algo.c **** 
 794:Lib/Camera_Middleware/ISP_Library/isp/Src/isp_algo.c ****   default:
 795:Lib/Camera_Middleware/ISP_Library/isp/Src/isp_algo.c ****     printf("WARNING: Unknown AWB algo state\r\n");
 796:Lib/Camera_Middleware/ISP_Library/isp/Src/isp_algo.c ****     /* Reset state to ISP_ALGO_STATE_INIT */
 797:Lib/Camera_Middleware/ISP_Library/isp/Src/isp_algo.c ****     algo->state = ISP_ALGO_STATE_INIT;
 798:Lib/Camera_Middleware/ISP_Library/isp/Src/isp_algo.c ****     break;
 799:Lib/Camera_Middleware/ISP_Library/isp/Src/isp_algo.c ****   }
 800:Lib/Camera_Middleware/ISP_Library/isp/Src/isp_algo.c **** 
 801:Lib/Camera_Middleware/ISP_Library/isp/Src/isp_algo.c ****   return ret;
 802:Lib/Camera_Middleware/ISP_Library/isp/Src/isp_algo.c **** }
 803:Lib/Camera_Middleware/ISP_Library/isp/Src/isp_algo.c **** #endif /* ISP_MW_SW_AWB_ALGO_SUPPORT */
 804:Lib/Camera_Middleware/ISP_Library/isp/Src/isp_algo.c **** 
 805:Lib/Camera_Middleware/ISP_Library/isp/Src/isp_algo.c **** #ifdef ISP_MW_TUNING_TOOL_SUPPORT
 806:Lib/Camera_Middleware/ISP_Library/isp/Src/isp_algo.c **** /**
 807:Lib/Camera_Middleware/ISP_Library/isp/Src/isp_algo.c ****   * @brief  ISP_Algo_SensorDelay_Init
 808:Lib/Camera_Middleware/ISP_Library/isp/Src/isp_algo.c ****   *         Initialize the SensorDelay algorithm
 809:Lib/Camera_Middleware/ISP_Library/isp/Src/isp_algo.c ****   * @param  hIsp:  ISP device handle. To cast in (ISP_HandleTypeDef *).
 810:Lib/Camera_Middleware/ISP_Library/isp/Src/isp_algo.c ****   * @param  pAlgo: ISP algorithm handle. To cast in (ISP_AlgoTypeDef *).
 811:Lib/Camera_Middleware/ISP_Library/isp/Src/isp_algo.c ****   * @retval operation result
 812:Lib/Camera_Middleware/ISP_Library/isp/Src/isp_algo.c ****   */
 813:Lib/Camera_Middleware/ISP_Library/isp/Src/isp_algo.c **** ISP_StatusTypeDef ISP_Algo_SensorDelay_Init(void *hIsp, void *pAlgo)
 814:Lib/Camera_Middleware/ISP_Library/isp/Src/isp_algo.c **** {
 815:Lib/Camera_Middleware/ISP_Library/isp/Src/isp_algo.c ****   (void)hIsp; /* unused */
 816:Lib/Camera_Middleware/ISP_Library/isp/Src/isp_algo.c **** 
 817:Lib/Camera_Middleware/ISP_Library/isp/Src/isp_algo.c ****   ((ISP_AlgoTypeDef *)pAlgo)->state = ISP_ALGO_STATE_INIT;
 818:Lib/Camera_Middleware/ISP_Library/isp/Src/isp_algo.c **** 
 819:Lib/Camera_Middleware/ISP_Library/isp/Src/isp_algo.c ****   return ISP_OK;
 820:Lib/Camera_Middleware/ISP_Library/isp/Src/isp_algo.c **** }
 821:Lib/Camera_Middleware/ISP_Library/isp/Src/isp_algo.c **** 
 822:Lib/Camera_Middleware/ISP_Library/isp/Src/isp_algo.c **** /**
 823:Lib/Camera_Middleware/ISP_Library/isp/Src/isp_algo.c ****   * @brief  ISP_Algo_SensorDelay_DeInit
 824:Lib/Camera_Middleware/ISP_Library/isp/Src/isp_algo.c ****   *         Deinitialize the SensorDelay algorithm
 825:Lib/Camera_Middleware/ISP_Library/isp/Src/isp_algo.c ****   * @param  hIsp:  ISP device handle. To cast in (ISP_HandleTypeDef *).
 826:Lib/Camera_Middleware/ISP_Library/isp/Src/isp_algo.c ****   * @param  pAlgo: ISP algorithm handle. To cast in (ISP_AlgoTypeDef *).
 827:Lib/Camera_Middleware/ISP_Library/isp/Src/isp_algo.c ****   * @retval operation result
 828:Lib/Camera_Middleware/ISP_Library/isp/Src/isp_algo.c ****   */
 829:Lib/Camera_Middleware/ISP_Library/isp/Src/isp_algo.c **** ISP_StatusTypeDef ISP_Algo_SensorDelay_DeInit(void *hIsp, void *pAlgo)
 830:Lib/Camera_Middleware/ISP_Library/isp/Src/isp_algo.c **** {
 831:Lib/Camera_Middleware/ISP_Library/isp/Src/isp_algo.c ****   (void)hIsp; /* unused */
 832:Lib/Camera_Middleware/ISP_Library/isp/Src/isp_algo.c **** 
 833:Lib/Camera_Middleware/ISP_Library/isp/Src/isp_algo.c ****   ((ISP_AlgoTypeDef *)pAlgo)->state = ISP_ALGO_STATE_INIT;
 834:Lib/Camera_Middleware/ISP_Library/isp/Src/isp_algo.c **** 
 835:Lib/Camera_Middleware/ISP_Library/isp/Src/isp_algo.c ****   return ISP_OK;
 836:Lib/Camera_Middleware/ISP_Library/isp/Src/isp_algo.c **** }
ARM GAS  C:\Users\DJESSOU\AppData\Local\Temp\ccch1XY5.s 			page 33


 837:Lib/Camera_Middleware/ISP_Library/isp/Src/isp_algo.c **** 
 838:Lib/Camera_Middleware/ISP_Library/isp/Src/isp_algo.c **** /**
 839:Lib/Camera_Middleware/ISP_Library/isp/Src/isp_algo.c ****   * @brief  ISP_Algo_SensorDelay_StatCb
 840:Lib/Camera_Middleware/ISP_Library/isp/Src/isp_algo.c ****   *         Callback informing that statistics are available
 841:Lib/Camera_Middleware/ISP_Library/isp/Src/isp_algo.c ****   * @param  pAlgo: ISP algorithm handle.
 842:Lib/Camera_Middleware/ISP_Library/isp/Src/isp_algo.c ****   * @retval operation result
 843:Lib/Camera_Middleware/ISP_Library/isp/Src/isp_algo.c ****   */
 844:Lib/Camera_Middleware/ISP_Library/isp/Src/isp_algo.c **** ISP_StatusTypeDef ISP_Algo_SensorDelay_StatCb(ISP_AlgoTypeDef *pAlgo)
 845:Lib/Camera_Middleware/ISP_Library/isp/Src/isp_algo.c **** {
 846:Lib/Camera_Middleware/ISP_Library/isp/Src/isp_algo.c ****   /* Update State */
 847:Lib/Camera_Middleware/ISP_Library/isp/Src/isp_algo.c ****   pAlgo->state = ISP_ALGO_STATE_STAT_READY;
 848:Lib/Camera_Middleware/ISP_Library/isp/Src/isp_algo.c **** 
 849:Lib/Camera_Middleware/ISP_Library/isp/Src/isp_algo.c ****   return ISP_OK;
 850:Lib/Camera_Middleware/ISP_Library/isp/Src/isp_algo.c **** }
 851:Lib/Camera_Middleware/ISP_Library/isp/Src/isp_algo.c **** 
 852:Lib/Camera_Middleware/ISP_Library/isp/Src/isp_algo.c **** /**
 853:Lib/Camera_Middleware/ISP_Library/isp/Src/isp_algo.c ****   * @brief  ISP_Algo_SensorDelay_Process
 854:Lib/Camera_Middleware/ISP_Library/isp/Src/isp_algo.c ****   *         Process the SensorDelay algorithm. Change the sensor gain and exposure and
 855:Lib/Camera_Middleware/ISP_Library/isp/Src/isp_algo.c ****   *         measure the number of frames it takes to have the frame updated.
 856:Lib/Camera_Middleware/ISP_Library/isp/Src/isp_algo.c ****   * @param  hIsp:  ISP device handle. To cast in (ISP_HandleTypeDef *).
 857:Lib/Camera_Middleware/ISP_Library/isp/Src/isp_algo.c ****   * @param  pAlgo: ISP algorithm handle. To cast in (ISP_AlgoTypeDef *).
 858:Lib/Camera_Middleware/ISP_Library/isp/Src/isp_algo.c ****   * @retval operation result
 859:Lib/Camera_Middleware/ISP_Library/isp/Src/isp_algo.c ****   */
 860:Lib/Camera_Middleware/ISP_Library/isp/Src/isp_algo.c **** ISP_StatusTypeDef ISP_Algo_SensorDelay_Process(void *hIsp, void *pAlgo)
 861:Lib/Camera_Middleware/ISP_Library/isp/Src/isp_algo.c **** {
 862:Lib/Camera_Middleware/ISP_Library/isp/Src/isp_algo.c ****   ISP_AlgoTypeDef *algo = (ISP_AlgoTypeDef *)pAlgo;
 863:Lib/Camera_Middleware/ISP_Library/isp/Src/isp_algo.c ****   ISP_SensorInfoTypeDef *pSensorInfo;
 864:Lib/Camera_Middleware/ISP_Library/isp/Src/isp_algo.c ****   ISP_IQParamTypeDef *IQParamConfig;
 865:Lib/Camera_Middleware/ISP_Library/isp/Src/isp_algo.c ****   ISP_StatusTypeDef ret = ISP_OK;
 866:Lib/Camera_Middleware/ISP_Library/isp/Src/isp_algo.c ****   uint8_t sensorDelay;
 867:Lib/Camera_Middleware/ISP_Library/isp/Src/isp_algo.c ****   int32_t avgL;
 868:Lib/Camera_Middleware/ISP_Library/isp/Src/isp_algo.c ****   uint32_t i;
 869:Lib/Camera_Middleware/ISP_Library/isp/Src/isp_algo.c ****   static int32_t refL, delay, delays[ALGO_DELAY_NB_CONFIG - 1], configId;
 870:Lib/Camera_Middleware/ISP_Library/isp/Src/isp_algo.c ****   static ISP_SensorExposureTypeDef configExposure[ALGO_DELAY_NB_CONFIG];
 871:Lib/Camera_Middleware/ISP_Library/isp/Src/isp_algo.c ****   static ISP_SensorGainTypeDef configGain[ALGO_DELAY_NB_CONFIG];
 872:Lib/Camera_Middleware/ISP_Library/isp/Src/isp_algo.c ****   static ISP_SensorExposureTypeDef prevExposureConfig;
 873:Lib/Camera_Middleware/ISP_Library/isp/Src/isp_algo.c ****   static ISP_SensorGainTypeDef prevGainConfig;
 874:Lib/Camera_Middleware/ISP_Library/isp/Src/isp_algo.c ****   static uint8_t prevAECStatus, prevAWBStatus;
 875:Lib/Camera_Middleware/ISP_Library/isp/Src/isp_algo.c ****   static ISP_SVC_StatStateTypeDef stats;
 876:Lib/Camera_Middleware/ISP_Library/isp/Src/isp_algo.c **** 
 877:Lib/Camera_Middleware/ISP_Library/isp/Src/isp_algo.c ****   if (ISP_SVC_Misc_SensorDelayMeasureIsRunning() == false)
 878:Lib/Camera_Middleware/ISP_Library/isp/Src/isp_algo.c ****   {
 879:Lib/Camera_Middleware/ISP_Library/isp/Src/isp_algo.c ****     return ISP_OK;
 880:Lib/Camera_Middleware/ISP_Library/isp/Src/isp_algo.c ****   }
 881:Lib/Camera_Middleware/ISP_Library/isp/Src/isp_algo.c **** 
 882:Lib/Camera_Middleware/ISP_Library/isp/Src/isp_algo.c ****   IQParamConfig = ISP_SVC_IQParam_Get(hIsp);
 883:Lib/Camera_Middleware/ISP_Library/isp/Src/isp_algo.c **** 
 884:Lib/Camera_Middleware/ISP_Library/isp/Src/isp_algo.c ****   switch(algo->state)
 885:Lib/Camera_Middleware/ISP_Library/isp/Src/isp_algo.c ****   {
 886:Lib/Camera_Middleware/ISP_Library/isp/Src/isp_algo.c ****   case ISP_ALGO_STATE_INIT:
 887:Lib/Camera_Middleware/ISP_Library/isp/Src/isp_algo.c ****     /* Get current AEC and AWB algo status and sensor configuration */
 888:Lib/Camera_Middleware/ISP_Library/isp/Src/isp_algo.c ****     prevAECStatus = IQParamConfig->AECAlgo.enable;
 889:Lib/Camera_Middleware/ISP_Library/isp/Src/isp_algo.c ****     prevAWBStatus = IQParamConfig->AWBAlgo.enable;
 890:Lib/Camera_Middleware/ISP_Library/isp/Src/isp_algo.c ****     ret = ISP_SVC_Sensor_GetGain(hIsp, &prevGainConfig);
 891:Lib/Camera_Middleware/ISP_Library/isp/Src/isp_algo.c ****     if (ret != ISP_OK)
 892:Lib/Camera_Middleware/ISP_Library/isp/Src/isp_algo.c ****     {
 893:Lib/Camera_Middleware/ISP_Library/isp/Src/isp_algo.c ****       return ret;
ARM GAS  C:\Users\DJESSOU\AppData\Local\Temp\ccch1XY5.s 			page 34


 894:Lib/Camera_Middleware/ISP_Library/isp/Src/isp_algo.c ****     }
 895:Lib/Camera_Middleware/ISP_Library/isp/Src/isp_algo.c ****     ret = ISP_SVC_Sensor_GetExposure(hIsp, &prevExposureConfig);
 896:Lib/Camera_Middleware/ISP_Library/isp/Src/isp_algo.c ****     if (ret != ISP_OK)
 897:Lib/Camera_Middleware/ISP_Library/isp/Src/isp_algo.c ****     {
 898:Lib/Camera_Middleware/ISP_Library/isp/Src/isp_algo.c ****       return ret;
 899:Lib/Camera_Middleware/ISP_Library/isp/Src/isp_algo.c ****     }
 900:Lib/Camera_Middleware/ISP_Library/isp/Src/isp_algo.c **** 
 901:Lib/Camera_Middleware/ISP_Library/isp/Src/isp_algo.c ****     /* Disable AEC and AWB algo to avoid interferences */
 902:Lib/Camera_Middleware/ISP_Library/isp/Src/isp_algo.c ****     IQParamConfig->AECAlgo.enable = false;
 903:Lib/Camera_Middleware/ISP_Library/isp/Src/isp_algo.c ****     IQParamConfig->AWBAlgo.enable = false;
 904:Lib/Camera_Middleware/ISP_Library/isp/Src/isp_algo.c **** 
 905:Lib/Camera_Middleware/ISP_Library/isp/Src/isp_algo.c ****     /* Initialize the sensor test configurations */
 906:Lib/Camera_Middleware/ISP_Library/isp/Src/isp_algo.c ****     pSensorInfo = &((ISP_HandleTypeDef*) hIsp)->sensorInfo;
 907:Lib/Camera_Middleware/ISP_Library/isp/Src/isp_algo.c ****     /* Config  0: Exposure =   0%  -  Gain =  0%
 908:Lib/Camera_Middleware/ISP_Library/isp/Src/isp_algo.c ****      *    .................. +20% ...........
 909:Lib/Camera_Middleware/ISP_Library/isp/Src/isp_algo.c ****      * Config  5: Exposure = 100%  -  Gain =  0%
 910:Lib/Camera_Middleware/ISP_Library/isp/Src/isp_algo.c ****      *    ................................. +10%
 911:Lib/Camera_Middleware/ISP_Library/isp/Src/isp_algo.c ****      * Config 11: Exposure = 100%  -  Gain = 60%
 912:Lib/Camera_Middleware/ISP_Library/isp/Src/isp_algo.c ****      */
 913:Lib/Camera_Middleware/ISP_Library/isp/Src/isp_algo.c ****     for (i = 0; i < 6; i++)
 914:Lib/Camera_Middleware/ISP_Library/isp/Src/isp_algo.c ****     {
 915:Lib/Camera_Middleware/ISP_Library/isp/Src/isp_algo.c ****       configExposure[i].exposure = i ? (pSensorInfo->exposure_max * 20 * i) / 100 : pSensorInfo->ex
 916:Lib/Camera_Middleware/ISP_Library/isp/Src/isp_algo.c ****       configGain[i].gain = pSensorInfo->gain_min;
 917:Lib/Camera_Middleware/ISP_Library/isp/Src/isp_algo.c ****       configExposure[i + 6].exposure = pSensorInfo->exposure_max;
 918:Lib/Camera_Middleware/ISP_Library/isp/Src/isp_algo.c ****       configGain[i + 6].gain = (pSensorInfo->gain_max * 10 * (i + 1)) / 100;
 919:Lib/Camera_Middleware/ISP_Library/isp/Src/isp_algo.c ****     }
 920:Lib/Camera_Middleware/ISP_Library/isp/Src/isp_algo.c **** 
 921:Lib/Camera_Middleware/ISP_Library/isp/Src/isp_algo.c ****     /* Apply first test configuration */
 922:Lib/Camera_Middleware/ISP_Library/isp/Src/isp_algo.c ****     configId = 0;
 923:Lib/Camera_Middleware/ISP_Library/isp/Src/isp_algo.c ****     ret = ISP_SVC_Sensor_SetGain(hIsp, &configGain[configId]);
 924:Lib/Camera_Middleware/ISP_Library/isp/Src/isp_algo.c ****     if (ret != ISP_OK)
 925:Lib/Camera_Middleware/ISP_Library/isp/Src/isp_algo.c ****     {
 926:Lib/Camera_Middleware/ISP_Library/isp/Src/isp_algo.c ****       return ret;
 927:Lib/Camera_Middleware/ISP_Library/isp/Src/isp_algo.c ****     }
 928:Lib/Camera_Middleware/ISP_Library/isp/Src/isp_algo.c ****     ret = ISP_SVC_Sensor_SetExposure(hIsp, &configExposure[configId]);
 929:Lib/Camera_Middleware/ISP_Library/isp/Src/isp_algo.c ****     if (ret != ISP_OK)
 930:Lib/Camera_Middleware/ISP_Library/isp/Src/isp_algo.c ****     {
 931:Lib/Camera_Middleware/ISP_Library/isp/Src/isp_algo.c ****       return ret;
 932:Lib/Camera_Middleware/ISP_Library/isp/Src/isp_algo.c ****     }
 933:Lib/Camera_Middleware/ISP_Library/isp/Src/isp_algo.c **** 
 934:Lib/Camera_Middleware/ISP_Library/isp/Src/isp_algo.c ****     /* Ask for stats lately (just to define a test starting point) */
 935:Lib/Camera_Middleware/ISP_Library/isp/Src/isp_algo.c ****     delay = 0;
 936:Lib/Camera_Middleware/ISP_Library/isp/Src/isp_algo.c ****     refL = 0;
 937:Lib/Camera_Middleware/ISP_Library/isp/Src/isp_algo.c ****     memset(delays, 0, sizeof(delays));
 938:Lib/Camera_Middleware/ISP_Library/isp/Src/isp_algo.c ****     ret = ISP_SVC_Stats_GetNext(hIsp, &ISP_Algo_SensorDelay_StatCb, pAlgo, &stats, ISP_STAT_LOC_DOW
 939:Lib/Camera_Middleware/ISP_Library/isp/Src/isp_algo.c ****     if (ret != ISP_OK)
 940:Lib/Camera_Middleware/ISP_Library/isp/Src/isp_algo.c ****     {
 941:Lib/Camera_Middleware/ISP_Library/isp/Src/isp_algo.c ****       return ret;
 942:Lib/Camera_Middleware/ISP_Library/isp/Src/isp_algo.c ****     }
 943:Lib/Camera_Middleware/ISP_Library/isp/Src/isp_algo.c **** 
 944:Lib/Camera_Middleware/ISP_Library/isp/Src/isp_algo.c ****     /* Wait for stats to be ready */
 945:Lib/Camera_Middleware/ISP_Library/isp/Src/isp_algo.c ****     algo->state = ISP_ALGO_STATE_WAITING_STAT;
 946:Lib/Camera_Middleware/ISP_Library/isp/Src/isp_algo.c ****     break;
 947:Lib/Camera_Middleware/ISP_Library/isp/Src/isp_algo.c **** 
 948:Lib/Camera_Middleware/ISP_Library/isp/Src/isp_algo.c ****   case ISP_ALGO_STATE_NEED_STAT:
 949:Lib/Camera_Middleware/ISP_Library/isp/Src/isp_algo.c ****     break;
 950:Lib/Camera_Middleware/ISP_Library/isp/Src/isp_algo.c **** 
ARM GAS  C:\Users\DJESSOU\AppData\Local\Temp\ccch1XY5.s 			page 35


 951:Lib/Camera_Middleware/ISP_Library/isp/Src/isp_algo.c ****   case ISP_ALGO_STATE_WAITING_STAT:
 952:Lib/Camera_Middleware/ISP_Library/isp/Src/isp_algo.c ****     /* Do nothing */
 953:Lib/Camera_Middleware/ISP_Library/isp/Src/isp_algo.c ****     break;
 954:Lib/Camera_Middleware/ISP_Library/isp/Src/isp_algo.c **** 
 955:Lib/Camera_Middleware/ISP_Library/isp/Src/isp_algo.c ****   case ISP_ALGO_STATE_STAT_READY:
 956:Lib/Camera_Middleware/ISP_Library/isp/Src/isp_algo.c ****     avgL = (int32_t)stats.down.averageL;
 957:Lib/Camera_Middleware/ISP_Library/isp/Src/isp_algo.c ****     if (configId > 0)
 958:Lib/Camera_Middleware/ISP_Library/isp/Src/isp_algo.c ****     {
 959:Lib/Camera_Middleware/ISP_Library/isp/Src/isp_algo.c ****       /* New stat available, check if Luminance has changed */
 960:Lib/Camera_Middleware/ISP_Library/isp/Src/isp_algo.c ****       delay++;
 961:Lib/Camera_Middleware/ISP_Library/isp/Src/isp_algo.c **** 
 962:Lib/Camera_Middleware/ISP_Library/isp/Src/isp_algo.c ****       if (abs(avgL- refL) <= ALGO_DELAY_L_MARGIN && delay != ALGO_DELAY_MAX)
 963:Lib/Camera_Middleware/ISP_Library/isp/Src/isp_algo.c ****       {
 964:Lib/Camera_Middleware/ISP_Library/isp/Src/isp_algo.c ****         /* No change, wait for next frame */
 965:Lib/Camera_Middleware/ISP_Library/isp/Src/isp_algo.c ****         ret = ISP_SVC_Stats_GetNext(hIsp, &ISP_Algo_SensorDelay_StatCb, pAlgo, &stats, ISP_STAT_LOC
 966:Lib/Camera_Middleware/ISP_Library/isp/Src/isp_algo.c ****         algo->state = ISP_ALGO_STATE_WAITING_STAT;
 967:Lib/Camera_Middleware/ISP_Library/isp/Src/isp_algo.c ****         return ret;
 968:Lib/Camera_Middleware/ISP_Library/isp/Src/isp_algo.c ****       }
 969:Lib/Camera_Middleware/ISP_Library/isp/Src/isp_algo.c **** 
 970:Lib/Camera_Middleware/ISP_Library/isp/Src/isp_algo.c ****       /* Luminance was updated since we applied a new sensor configuration : store the result for t
 971:Lib/Camera_Middleware/ISP_Library/isp/Src/isp_algo.c ****        * Reaching ALGO_DELAY_MAX happens when we have a totally black or white frame. The measure s
 972:Lib/Camera_Middleware/ISP_Library/isp/Src/isp_algo.c ****       delays[configId - 1] = delay;
 973:Lib/Camera_Middleware/ISP_Library/isp/Src/isp_algo.c ****     }
 974:Lib/Camera_Middleware/ISP_Library/isp/Src/isp_algo.c **** 
 975:Lib/Camera_Middleware/ISP_Library/isp/Src/isp_algo.c ****     /* New delay measure available */
 976:Lib/Camera_Middleware/ISP_Library/isp/Src/isp_algo.c ****     if (++configId != ALGO_DELAY_NB_CONFIG)
 977:Lib/Camera_Middleware/ISP_Library/isp/Src/isp_algo.c ****     {
 978:Lib/Camera_Middleware/ISP_Library/isp/Src/isp_algo.c ****       /* Apply new sensor test configuration  */
 979:Lib/Camera_Middleware/ISP_Library/isp/Src/isp_algo.c ****       ret = ISP_SVC_Sensor_SetGain(hIsp, &configGain[configId]);
 980:Lib/Camera_Middleware/ISP_Library/isp/Src/isp_algo.c ****       if (ret != ISP_OK)
 981:Lib/Camera_Middleware/ISP_Library/isp/Src/isp_algo.c ****       {
 982:Lib/Camera_Middleware/ISP_Library/isp/Src/isp_algo.c ****         return ret;
 983:Lib/Camera_Middleware/ISP_Library/isp/Src/isp_algo.c ****       }
 984:Lib/Camera_Middleware/ISP_Library/isp/Src/isp_algo.c ****       ret = ISP_SVC_Sensor_SetExposure(hIsp, &configExposure[configId]);
 985:Lib/Camera_Middleware/ISP_Library/isp/Src/isp_algo.c ****       if (ret != ISP_OK)
 986:Lib/Camera_Middleware/ISP_Library/isp/Src/isp_algo.c ****       {
 987:Lib/Camera_Middleware/ISP_Library/isp/Src/isp_algo.c ****         return ret;
 988:Lib/Camera_Middleware/ISP_Library/isp/Src/isp_algo.c ****       }
 989:Lib/Camera_Middleware/ISP_Library/isp/Src/isp_algo.c **** 
 990:Lib/Camera_Middleware/ISP_Library/isp/Src/isp_algo.c ****       /* Ask for stats at next frame */
 991:Lib/Camera_Middleware/ISP_Library/isp/Src/isp_algo.c ****       delay = 0;
 992:Lib/Camera_Middleware/ISP_Library/isp/Src/isp_algo.c ****       refL = avgL;
 993:Lib/Camera_Middleware/ISP_Library/isp/Src/isp_algo.c ****       ret = ISP_SVC_Stats_GetNext(hIsp, &ISP_Algo_SensorDelay_StatCb, pAlgo, &stats, ISP_STAT_LOC_D
 994:Lib/Camera_Middleware/ISP_Library/isp/Src/isp_algo.c ****       if (ret != ISP_OK)
 995:Lib/Camera_Middleware/ISP_Library/isp/Src/isp_algo.c ****       {
 996:Lib/Camera_Middleware/ISP_Library/isp/Src/isp_algo.c ****         return ret;
 997:Lib/Camera_Middleware/ISP_Library/isp/Src/isp_algo.c ****       }
 998:Lib/Camera_Middleware/ISP_Library/isp/Src/isp_algo.c **** 
 999:Lib/Camera_Middleware/ISP_Library/isp/Src/isp_algo.c ****       /* Wait for stats to be ready */
1000:Lib/Camera_Middleware/ISP_Library/isp/Src/isp_algo.c ****       algo->state = ISP_ALGO_STATE_WAITING_STAT;
1001:Lib/Camera_Middleware/ISP_Library/isp/Src/isp_algo.c ****     }
1002:Lib/Camera_Middleware/ISP_Library/isp/Src/isp_algo.c ****     else
1003:Lib/Camera_Middleware/ISP_Library/isp/Src/isp_algo.c ****     {
1004:Lib/Camera_Middleware/ISP_Library/isp/Src/isp_algo.c ****       /* All the configurations have been tested, finalize the test procedure */
1005:Lib/Camera_Middleware/ISP_Library/isp/Src/isp_algo.c ****       /* Find the max valid delay (ALGO_DELAY_MAX being considered as invalid) */
1006:Lib/Camera_Middleware/ISP_Library/isp/Src/isp_algo.c ****       sensorDelay = 0;
1007:Lib/Camera_Middleware/ISP_Library/isp/Src/isp_algo.c ****       for (i = 0; i < ALGO_DELAY_NB_CONFIG - 1; i++)
ARM GAS  C:\Users\DJESSOU\AppData\Local\Temp\ccch1XY5.s 			page 36


1008:Lib/Camera_Middleware/ISP_Library/isp/Src/isp_algo.c ****       {
1009:Lib/Camera_Middleware/ISP_Library/isp/Src/isp_algo.c ****         if ((delays[i] != ALGO_DELAY_MAX) && (delays[i] > sensorDelay))
1010:Lib/Camera_Middleware/ISP_Library/isp/Src/isp_algo.c ****         {
1011:Lib/Camera_Middleware/ISP_Library/isp/Src/isp_algo.c ****           sensorDelay = (uint8_t)delays[i];
1012:Lib/Camera_Middleware/ISP_Library/isp/Src/isp_algo.c ****         }
1013:Lib/Camera_Middleware/ISP_Library/isp/Src/isp_algo.c ****       }
1014:Lib/Camera_Middleware/ISP_Library/isp/Src/isp_algo.c **** 
1015:Lib/Camera_Middleware/ISP_Library/isp/Src/isp_algo.c ****       /* Restore initial AEC, AWB and sensor states */
1016:Lib/Camera_Middleware/ISP_Library/isp/Src/isp_algo.c ****       IQParamConfig->AECAlgo.enable = prevAECStatus;
1017:Lib/Camera_Middleware/ISP_Library/isp/Src/isp_algo.c ****       IQParamConfig->AWBAlgo.enable = prevAWBStatus;
1018:Lib/Camera_Middleware/ISP_Library/isp/Src/isp_algo.c ****       ret = ISP_SVC_Sensor_SetGain(hIsp, &prevGainConfig);
1019:Lib/Camera_Middleware/ISP_Library/isp/Src/isp_algo.c ****       if (ret != ISP_OK)
1020:Lib/Camera_Middleware/ISP_Library/isp/Src/isp_algo.c ****       {
1021:Lib/Camera_Middleware/ISP_Library/isp/Src/isp_algo.c ****         return ret;
1022:Lib/Camera_Middleware/ISP_Library/isp/Src/isp_algo.c ****       }
1023:Lib/Camera_Middleware/ISP_Library/isp/Src/isp_algo.c ****       ret = ISP_SVC_Sensor_SetExposure(hIsp, &prevExposureConfig);
1024:Lib/Camera_Middleware/ISP_Library/isp/Src/isp_algo.c ****       if (ret != ISP_OK)
1025:Lib/Camera_Middleware/ISP_Library/isp/Src/isp_algo.c ****       {
1026:Lib/Camera_Middleware/ISP_Library/isp/Src/isp_algo.c ****         return ret;
1027:Lib/Camera_Middleware/ISP_Library/isp/Src/isp_algo.c ****       }
1028:Lib/Camera_Middleware/ISP_Library/isp/Src/isp_algo.c **** 
1029:Lib/Camera_Middleware/ISP_Library/isp/Src/isp_algo.c ****       /* Apply the measure (if valid) and send answer to the remote IQTune */
1030:Lib/Camera_Middleware/ISP_Library/isp/Src/isp_algo.c ****       if (sensorDelay)
1031:Lib/Camera_Middleware/ISP_Library/isp/Src/isp_algo.c ****       {
1032:Lib/Camera_Middleware/ISP_Library/isp/Src/isp_algo.c ****         IQParamConfig->sensorDelay.delay = sensorDelay;
1033:Lib/Camera_Middleware/ISP_Library/isp/Src/isp_algo.c ****       }
1034:Lib/Camera_Middleware/ISP_Library/isp/Src/isp_algo.c ****       ret = ISP_SVC_Misc_SendSensorDelayMeasure(hIsp, (ISP_SensorDelayTypeDef *)&sensorDelay);
1035:Lib/Camera_Middleware/ISP_Library/isp/Src/isp_algo.c **** 
1036:Lib/Camera_Middleware/ISP_Library/isp/Src/isp_algo.c ****       /* Stop delay algo */
1037:Lib/Camera_Middleware/ISP_Library/isp/Src/isp_algo.c ****       ISP_SVC_Misc_SensorDelayMeasureStop();
1038:Lib/Camera_Middleware/ISP_Library/isp/Src/isp_algo.c **** 
1039:Lib/Camera_Middleware/ISP_Library/isp/Src/isp_algo.c ****       algo->state = ISP_ALGO_STATE_INIT;
1040:Lib/Camera_Middleware/ISP_Library/isp/Src/isp_algo.c ****     }
1041:Lib/Camera_Middleware/ISP_Library/isp/Src/isp_algo.c ****     break;
1042:Lib/Camera_Middleware/ISP_Library/isp/Src/isp_algo.c **** 
1043:Lib/Camera_Middleware/ISP_Library/isp/Src/isp_algo.c ****   default:
1044:Lib/Camera_Middleware/ISP_Library/isp/Src/isp_algo.c ****     printf("WARNING: Unknown Sensor Delay algo state\r\n");
1045:Lib/Camera_Middleware/ISP_Library/isp/Src/isp_algo.c ****     /* Reset state to ISP_ALGO_STATE_INIT */
1046:Lib/Camera_Middleware/ISP_Library/isp/Src/isp_algo.c ****     algo->state = ISP_ALGO_STATE_INIT;
1047:Lib/Camera_Middleware/ISP_Library/isp/Src/isp_algo.c ****     break;
1048:Lib/Camera_Middleware/ISP_Library/isp/Src/isp_algo.c ****   }
1049:Lib/Camera_Middleware/ISP_Library/isp/Src/isp_algo.c **** 
1050:Lib/Camera_Middleware/ISP_Library/isp/Src/isp_algo.c ****   return ret;
1051:Lib/Camera_Middleware/ISP_Library/isp/Src/isp_algo.c **** }
1052:Lib/Camera_Middleware/ISP_Library/isp/Src/isp_algo.c **** #endif /* ISP_MW_TUNING_TOOL_SUPPORT */
1053:Lib/Camera_Middleware/ISP_Library/isp/Src/isp_algo.c **** 
1054:Lib/Camera_Middleware/ISP_Library/isp/Src/isp_algo.c **** 
1055:Lib/Camera_Middleware/ISP_Library/isp/Src/isp_algo.c **** /**
1056:Lib/Camera_Middleware/ISP_Library/isp/Src/isp_algo.c ****   * @brief  ISP_Algo_Background_StatCb
1057:Lib/Camera_Middleware/ISP_Library/isp/Src/isp_algo.c ****   *         Callback informing that statistics are available
1058:Lib/Camera_Middleware/ISP_Library/isp/Src/isp_algo.c ****   * @param  pAlgo: ISP algorithm handle.
1059:Lib/Camera_Middleware/ISP_Library/isp/Src/isp_algo.c ****   * @retval operation result
1060:Lib/Camera_Middleware/ISP_Library/isp/Src/isp_algo.c ****   */
1061:Lib/Camera_Middleware/ISP_Library/isp/Src/isp_algo.c **** ISP_StatusTypeDef ISP_Algo_Background_StatCb(ISP_AlgoTypeDef *pAlgo)
1062:Lib/Camera_Middleware/ISP_Library/isp/Src/isp_algo.c **** {
1063:Lib/Camera_Middleware/ISP_Library/isp/Src/isp_algo.c ****   /* Update State */
1064:Lib/Camera_Middleware/ISP_Library/isp/Src/isp_algo.c ****   pAlgo->state = ISP_ALGO_STATE_STAT_READY;
ARM GAS  C:\Users\DJESSOU\AppData\Local\Temp\ccch1XY5.s 			page 37


1065:Lib/Camera_Middleware/ISP_Library/isp/Src/isp_algo.c **** 
1066:Lib/Camera_Middleware/ISP_Library/isp/Src/isp_algo.c ****   return ISP_OK;
1067:Lib/Camera_Middleware/ISP_Library/isp/Src/isp_algo.c **** }
1068:Lib/Camera_Middleware/ISP_Library/isp/Src/isp_algo.c **** 
1069:Lib/Camera_Middleware/ISP_Library/isp/Src/isp_algo.c **** /**
1070:Lib/Camera_Middleware/ISP_Library/isp/Src/isp_algo.c ****   * @brief  ISP_Algo_Background_Init
1071:Lib/Camera_Middleware/ISP_Library/isp/Src/isp_algo.c ****   *         Initialize the Background algorithm
1072:Lib/Camera_Middleware/ISP_Library/isp/Src/isp_algo.c ****   * @param  hIsp:  ISP device handle. To cast in (ISP_HandleTypeDef *).
1073:Lib/Camera_Middleware/ISP_Library/isp/Src/isp_algo.c ****   * @param  pAlgo: ISP algorithm handle. To cast in (ISP_AlgoTypeDef *).
1074:Lib/Camera_Middleware/ISP_Library/isp/Src/isp_algo.c ****   * @retval operation result
1075:Lib/Camera_Middleware/ISP_Library/isp/Src/isp_algo.c ****   */
1076:Lib/Camera_Middleware/ISP_Library/isp/Src/isp_algo.c **** ISP_StatusTypeDef ISP_Algo_Background_Init(void *hIsp, void *pAlgo)
1077:Lib/Camera_Middleware/ISP_Library/isp/Src/isp_algo.c **** {
1078:Lib/Camera_Middleware/ISP_Library/isp/Src/isp_algo.c ****   (void)hIsp; /* unused */
1079:Lib/Camera_Middleware/ISP_Library/isp/Src/isp_algo.c **** 
1080:Lib/Camera_Middleware/ISP_Library/isp/Src/isp_algo.c ****   ((ISP_AlgoTypeDef *)pAlgo)->state = ISP_ALGO_STATE_INIT;
1081:Lib/Camera_Middleware/ISP_Library/isp/Src/isp_algo.c **** 
1082:Lib/Camera_Middleware/ISP_Library/isp/Src/isp_algo.c ****   return ISP_OK;
1083:Lib/Camera_Middleware/ISP_Library/isp/Src/isp_algo.c **** }
1084:Lib/Camera_Middleware/ISP_Library/isp/Src/isp_algo.c **** 
1085:Lib/Camera_Middleware/ISP_Library/isp/Src/isp_algo.c **** /**
1086:Lib/Camera_Middleware/ISP_Library/isp/Src/isp_algo.c ****   * @brief  ISP_Algo_Background_DeInit
1087:Lib/Camera_Middleware/ISP_Library/isp/Src/isp_algo.c ****   *         Deinitialize the Background algorithm
1088:Lib/Camera_Middleware/ISP_Library/isp/Src/isp_algo.c ****   * @param  hIsp:  ISP device handle. To cast in (ISP_HandleTypeDef *).
1089:Lib/Camera_Middleware/ISP_Library/isp/Src/isp_algo.c ****   * @param  pAlgo: ISP algorithm handle. To cast in (ISP_AlgoTypeDef *).
1090:Lib/Camera_Middleware/ISP_Library/isp/Src/isp_algo.c ****   * @retval operation result
1091:Lib/Camera_Middleware/ISP_Library/isp/Src/isp_algo.c ****   */
1092:Lib/Camera_Middleware/ISP_Library/isp/Src/isp_algo.c **** ISP_StatusTypeDef ISP_Algo_Background_DeInit(void *hIsp, void *pAlgo)
1093:Lib/Camera_Middleware/ISP_Library/isp/Src/isp_algo.c **** {
1094:Lib/Camera_Middleware/ISP_Library/isp/Src/isp_algo.c ****   (void)hIsp; /* unused */
1095:Lib/Camera_Middleware/ISP_Library/isp/Src/isp_algo.c ****   (void)pAlgo; /* unused */
1096:Lib/Camera_Middleware/ISP_Library/isp/Src/isp_algo.c **** 
1097:Lib/Camera_Middleware/ISP_Library/isp/Src/isp_algo.c ****   return ISP_OK;
1098:Lib/Camera_Middleware/ISP_Library/isp/Src/isp_algo.c **** }
1099:Lib/Camera_Middleware/ISP_Library/isp/Src/isp_algo.c **** 
1100:Lib/Camera_Middleware/ISP_Library/isp/Src/isp_algo.c **** /**
1101:Lib/Camera_Middleware/ISP_Library/isp/Src/isp_algo.c ****   * @brief  ISP_Algo_Background_Process
1102:Lib/Camera_Middleware/ISP_Library/isp/Src/isp_algo.c ****   *         Process called in case no algorithm is enabled to collect average statistics
1103:Lib/Camera_Middleware/ISP_Library/isp/Src/isp_algo.c ****   *         for regular update
1104:Lib/Camera_Middleware/ISP_Library/isp/Src/isp_algo.c ****   * @param  hIsp:  ISP device handle. To cast in (ISP_HandleTypeDef *).
1105:Lib/Camera_Middleware/ISP_Library/isp/Src/isp_algo.c ****   * @param  pAlgo: ISP algorithm handle. To cast in (ISP_AlgoTypeDef *).
1106:Lib/Camera_Middleware/ISP_Library/isp/Src/isp_algo.c ****   * @retval operation result
1107:Lib/Camera_Middleware/ISP_Library/isp/Src/isp_algo.c ****   */
1108:Lib/Camera_Middleware/ISP_Library/isp/Src/isp_algo.c **** ISP_StatusTypeDef ISP_Algo_Background_Process(void *hIsp, void *pAlgo)
1109:Lib/Camera_Middleware/ISP_Library/isp/Src/isp_algo.c **** {
 775              		.loc 1 1109 1 is_stmt 1 view -0
 776              		.cfi_startproc
 777              		@ args = 0, pretend = 0, frame = 0
 778              		@ frame_needed = 0, uses_anonymous_args = 0
1110:Lib/Camera_Middleware/ISP_Library/isp/Src/isp_algo.c ****   static ISP_SVC_StatStateTypeDef stats;
 779              		.loc 1 1110 3 view .LVU245
1111:Lib/Camera_Middleware/ISP_Library/isp/Src/isp_algo.c ****   ISP_AlgoTypeDef *algo = (ISP_AlgoTypeDef *)pAlgo;
 780              		.loc 1 1111 3 view .LVU246
1109:Lib/Camera_Middleware/ISP_Library/isp/Src/isp_algo.c ****   static ISP_SVC_StatStateTypeDef stats;
 781              		.loc 1 1109 1 is_stmt 0 view .LVU247
 782 0000 7FB5     		push	{r0, r1, r2, r3, r4, r5, r6, lr}
 783              		.cfi_def_cfa_offset 32
ARM GAS  C:\Users\DJESSOU\AppData\Local\Temp\ccch1XY5.s 			page 38


 784              		.cfi_offset 4, -16
 785              		.cfi_offset 5, -12
 786              		.cfi_offset 6, -8
 787              		.cfi_offset 14, -4
1109:Lib/Camera_Middleware/ISP_Library/isp/Src/isp_algo.c ****   static ISP_SVC_StatStateTypeDef stats;
 788              		.loc 1 1109 1 view .LVU248
 789 0002 0546     		mov	r5, r0
 790 0004 0C46     		mov	r4, r1
 791              	.LVL71:
1112:Lib/Camera_Middleware/ISP_Library/isp/Src/isp_algo.c ****   ISP_IQParamTypeDef *IQParamConfig;
 792              		.loc 1 1112 3 is_stmt 1 view .LVU249
1113:Lib/Camera_Middleware/ISP_Library/isp/Src/isp_algo.c ****   ISP_StatusTypeDef ret = ISP_OK;
 793              		.loc 1 1113 3 view .LVU250
1114:Lib/Camera_Middleware/ISP_Library/isp/Src/isp_algo.c **** 
1115:Lib/Camera_Middleware/ISP_Library/isp/Src/isp_algo.c ****   IQParamConfig = ISP_SVC_IQParam_Get(hIsp);
 794              		.loc 1 1115 3 view .LVU251
 795              		.loc 1 1115 19 is_stmt 0 view .LVU252
 796 0006 FFF7FEFF 		bl	ISP_SVC_IQParam_Get
 797              	.LVL72:
1116:Lib/Camera_Middleware/ISP_Library/isp/Src/isp_algo.c **** 
1117:Lib/Camera_Middleware/ISP_Library/isp/Src/isp_algo.c **** #ifdef ISP_MW_SW_AEC_ALGO_SUPPORT
1118:Lib/Camera_Middleware/ISP_Library/isp/Src/isp_algo.c ****   if (IQParamConfig->AECAlgo.enable == true)
 798              		.loc 1 1118 3 is_stmt 1 view .LVU253
 799              		.loc 1 1118 6 is_stmt 0 view .LVU254
 800 000a 90F86830 		ldrb	r3, [r0, #104]	@ zero_extendqisi2
 801 000e 012B     		cmp	r3, #1
 802 0010 06D0     		beq	.L63
1119:Lib/Camera_Middleware/ISP_Library/isp/Src/isp_algo.c ****   {
1120:Lib/Camera_Middleware/ISP_Library/isp/Src/isp_algo.c ****     /* No need to collect other statistics for regular update*/
1121:Lib/Camera_Middleware/ISP_Library/isp/Src/isp_algo.c ****     return ISP_OK;
1122:Lib/Camera_Middleware/ISP_Library/isp/Src/isp_algo.c ****   }
1123:Lib/Camera_Middleware/ISP_Library/isp/Src/isp_algo.c **** #endif /* ISP_MW_SW_AEC_ALGO_SUPPORT */
1124:Lib/Camera_Middleware/ISP_Library/isp/Src/isp_algo.c **** #ifdef ISP_MW_SW_AWB_ALGO_SUPPORT
1125:Lib/Camera_Middleware/ISP_Library/isp/Src/isp_algo.c ****   if (IQParamConfig->AWBAlgo.enable == true)
 803              		.loc 1 1125 3 is_stmt 1 view .LVU255
 804              		.loc 1 1125 6 is_stmt 0 view .LVU256
 805 0012 90F87430 		ldrb	r3, [r0, #116]	@ zero_extendqisi2
 806 0016 012B     		cmp	r3, #1
 807 0018 02D0     		beq	.L63
1126:Lib/Camera_Middleware/ISP_Library/isp/Src/isp_algo.c ****   {
1127:Lib/Camera_Middleware/ISP_Library/isp/Src/isp_algo.c ****     /* No need to collect other statistics for regular update*/
1128:Lib/Camera_Middleware/ISP_Library/isp/Src/isp_algo.c ****     return ISP_OK;
1129:Lib/Camera_Middleware/ISP_Library/isp/Src/isp_algo.c ****   }
1130:Lib/Camera_Middleware/ISP_Library/isp/Src/isp_algo.c **** #endif /* ISP_MW_SW_AWB_ALGO_SUPPORT */
1131:Lib/Camera_Middleware/ISP_Library/isp/Src/isp_algo.c **** 
1132:Lib/Camera_Middleware/ISP_Library/isp/Src/isp_algo.c ****   switch(algo->state)
 808              		.loc 1 1132 3 is_stmt 1 view .LVU257
 809              		.loc 1 1132 14 is_stmt 0 view .LVU258
 810 001a 6378     		ldrb	r3, [r4, #1]	@ zero_extendqisi2
 811              		.loc 1 1132 3 view .LVU259
 812 001c 022B     		cmp	r3, #2
 813 001e 02D1     		bne	.L64
 814              	.LVL73:
 815              	.L63:
1109:Lib/Camera_Middleware/ISP_Library/isp/Src/isp_algo.c ****   static ISP_SVC_StatStateTypeDef stats;
 816              		.loc 1 1109 1 view .LVU260
 817 0020 0020     		movs	r0, #0
ARM GAS  C:\Users\DJESSOU\AppData\Local\Temp\ccch1XY5.s 			page 39


 818              	.LVL74:
 819              	.L65:
1133:Lib/Camera_Middleware/ISP_Library/isp/Src/isp_algo.c ****   {
1134:Lib/Camera_Middleware/ISP_Library/isp/Src/isp_algo.c ****   case ISP_ALGO_STATE_INIT:
1135:Lib/Camera_Middleware/ISP_Library/isp/Src/isp_algo.c ****   case ISP_ALGO_STATE_NEED_STAT:
1136:Lib/Camera_Middleware/ISP_Library/isp/Src/isp_algo.c ****     /* Ask for stats */
1137:Lib/Camera_Middleware/ISP_Library/isp/Src/isp_algo.c ****     ret = ISP_SVC_Stats_GetNext(hIsp, &ISP_Algo_Background_StatCb, pAlgo, &stats, ISP_STAT_LOC_DOWN
1138:Lib/Camera_Middleware/ISP_Library/isp/Src/isp_algo.c ****                                 ISP_STAT_TYPE_AVG, IQParamConfig->sensorDelay.delay);
1139:Lib/Camera_Middleware/ISP_Library/isp/Src/isp_algo.c ****     if (ret != ISP_OK)
1140:Lib/Camera_Middleware/ISP_Library/isp/Src/isp_algo.c ****     {
1141:Lib/Camera_Middleware/ISP_Library/isp/Src/isp_algo.c ****       return ret;
1142:Lib/Camera_Middleware/ISP_Library/isp/Src/isp_algo.c ****     }
1143:Lib/Camera_Middleware/ISP_Library/isp/Src/isp_algo.c **** 
1144:Lib/Camera_Middleware/ISP_Library/isp/Src/isp_algo.c ****     /* Wait for stats to be ready */
1145:Lib/Camera_Middleware/ISP_Library/isp/Src/isp_algo.c ****     algo->state = ISP_ALGO_STATE_WAITING_STAT;
1146:Lib/Camera_Middleware/ISP_Library/isp/Src/isp_algo.c ****     break;
1147:Lib/Camera_Middleware/ISP_Library/isp/Src/isp_algo.c **** 
1148:Lib/Camera_Middleware/ISP_Library/isp/Src/isp_algo.c ****   case ISP_ALGO_STATE_WAITING_STAT:
1149:Lib/Camera_Middleware/ISP_Library/isp/Src/isp_algo.c ****     /* Do nothing */
1150:Lib/Camera_Middleware/ISP_Library/isp/Src/isp_algo.c ****     break;
1151:Lib/Camera_Middleware/ISP_Library/isp/Src/isp_algo.c **** 
1152:Lib/Camera_Middleware/ISP_Library/isp/Src/isp_algo.c ****   case ISP_ALGO_STATE_STAT_READY:
1153:Lib/Camera_Middleware/ISP_Library/isp/Src/isp_algo.c ****     /* Ask for stats */
1154:Lib/Camera_Middleware/ISP_Library/isp/Src/isp_algo.c ****     ret = ISP_SVC_Stats_GetNext(hIsp, &ISP_Algo_Background_StatCb, pAlgo, &stats, ISP_STAT_LOC_DOWN
1155:Lib/Camera_Middleware/ISP_Library/isp/Src/isp_algo.c ****                                 ISP_STAT_TYPE_AVG, IQParamConfig->sensorDelay.delay);
1156:Lib/Camera_Middleware/ISP_Library/isp/Src/isp_algo.c **** 
1157:Lib/Camera_Middleware/ISP_Library/isp/Src/isp_algo.c ****     /* Wait for stats to be ready */
1158:Lib/Camera_Middleware/ISP_Library/isp/Src/isp_algo.c ****     algo->state = ISP_ALGO_STATE_WAITING_STAT;
1159:Lib/Camera_Middleware/ISP_Library/isp/Src/isp_algo.c ****     break;
1160:Lib/Camera_Middleware/ISP_Library/isp/Src/isp_algo.c **** 
1161:Lib/Camera_Middleware/ISP_Library/isp/Src/isp_algo.c ****   default:
1162:Lib/Camera_Middleware/ISP_Library/isp/Src/isp_algo.c ****     printf("WARNING: Unknown background algo state\r\n");
1163:Lib/Camera_Middleware/ISP_Library/isp/Src/isp_algo.c ****     /* Reset state to ISP_ALGO_STATE_INIT */
1164:Lib/Camera_Middleware/ISP_Library/isp/Src/isp_algo.c ****     algo->state = ISP_ALGO_STATE_INIT;
1165:Lib/Camera_Middleware/ISP_Library/isp/Src/isp_algo.c ****     break;
1166:Lib/Camera_Middleware/ISP_Library/isp/Src/isp_algo.c **** 
1167:Lib/Camera_Middleware/ISP_Library/isp/Src/isp_algo.c ****   }
1168:Lib/Camera_Middleware/ISP_Library/isp/Src/isp_algo.c **** 
1169:Lib/Camera_Middleware/ISP_Library/isp/Src/isp_algo.c ****   return ret;
1170:Lib/Camera_Middleware/ISP_Library/isp/Src/isp_algo.c **** }
 820              		.loc 1 1170 1 view .LVU261
 821 0022 04B0     		add	sp, sp, #16
 822              		.cfi_remember_state
 823              		.cfi_def_cfa_offset 16
 824              		@ sp needed
 825 0024 70BD     		pop	{r4, r5, r6, pc}
 826              	.LVL75:
 827              	.L64:
 828              		.cfi_restore_state
1132:Lib/Camera_Middleware/ISP_Library/isp/Src/isp_algo.c ****   {
 829              		.loc 1 1132 3 view .LVU262
 830 0026 07D9     		bls	.L66
 831 0028 032B     		cmp	r3, #3
 832 002a 16D0     		beq	.L67
1162:Lib/Camera_Middleware/ISP_Library/isp/Src/isp_algo.c ****     /* Reset state to ISP_ALGO_STATE_INIT */
 833              		.loc 1 1162 5 is_stmt 1 view .LVU263
 834 002c 1248     		ldr	r0, .L78
ARM GAS  C:\Users\DJESSOU\AppData\Local\Temp\ccch1XY5.s 			page 40


 835              	.LVL76:
1162:Lib/Camera_Middleware/ISP_Library/isp/Src/isp_algo.c ****     /* Reset state to ISP_ALGO_STATE_INIT */
 836              		.loc 1 1162 5 is_stmt 0 view .LVU264
 837 002e FFF7FEFF 		bl	puts
 838              	.LVL77:
1164:Lib/Camera_Middleware/ISP_Library/isp/Src/isp_algo.c ****     break;
 839              		.loc 1 1164 5 is_stmt 1 view .LVU265
1164:Lib/Camera_Middleware/ISP_Library/isp/Src/isp_algo.c ****     break;
 840              		.loc 1 1164 17 is_stmt 0 view .LVU266
 841 0032 0023     		movs	r3, #0
 842 0034 6370     		strb	r3, [r4, #1]
1165:Lib/Camera_Middleware/ISP_Library/isp/Src/isp_algo.c **** 
 843              		.loc 1 1165 5 is_stmt 1 view .LVU267
 844 0036 F3E7     		b	.L63
 845              	.LVL78:
 846              	.L66:
1137:Lib/Camera_Middleware/ISP_Library/isp/Src/isp_algo.c ****                                 ISP_STAT_TYPE_AVG, IQParamConfig->sensorDelay.delay);
 847              		.loc 1 1137 5 view .LVU268
1137:Lib/Camera_Middleware/ISP_Library/isp/Src/isp_algo.c ****                                 ISP_STAT_TYPE_AVG, IQParamConfig->sensorDelay.delay);
 848              		.loc 1 1137 11 is_stmt 0 view .LVU269
 849 0038 90F86532 		ldrb	r3, [r0, #613]	@ zero_extendqisi2
 850 003c 0226     		movs	r6, #2
 851 003e 0293     		str	r3, [sp, #8]
 852 0040 0123     		movs	r3, #1
 853 0042 2246     		mov	r2, r4
 854 0044 CDE90063 		strd	r6, r3, [sp]
 855 0048 2846     		mov	r0, r5
 856              	.LVL79:
1137:Lib/Camera_Middleware/ISP_Library/isp/Src/isp_algo.c ****                                 ISP_STAT_TYPE_AVG, IQParamConfig->sensorDelay.delay);
 857              		.loc 1 1137 11 view .LVU270
 858 004a 0C4B     		ldr	r3, .L78+4
 859 004c 0C49     		ldr	r1, .L78+8
 860 004e FFF7FEFF 		bl	ISP_SVC_Stats_GetNext
 861              	.LVL80:
1139:Lib/Camera_Middleware/ISP_Library/isp/Src/isp_algo.c ****     {
 862              		.loc 1 1139 5 is_stmt 1 view .LVU271
1139:Lib/Camera_Middleware/ISP_Library/isp/Src/isp_algo.c ****     {
 863              		.loc 1 1139 8 is_stmt 0 view .LVU272
 864 0052 0028     		cmp	r0, #0
 865 0054 E5D1     		bne	.L65
 866              	.LVL81:
 867              	.L77:
1158:Lib/Camera_Middleware/ISP_Library/isp/Src/isp_algo.c ****     break;
 868              		.loc 1 1158 5 is_stmt 1 view .LVU273
1158:Lib/Camera_Middleware/ISP_Library/isp/Src/isp_algo.c ****     break;
 869              		.loc 1 1158 17 is_stmt 0 view .LVU274
 870 0056 6670     		strb	r6, [r4, #1]
1159:Lib/Camera_Middleware/ISP_Library/isp/Src/isp_algo.c **** 
 871              		.loc 1 1159 5 is_stmt 1 view .LVU275
 872 0058 E3E7     		b	.L65
 873              	.LVL82:
 874              	.L67:
1154:Lib/Camera_Middleware/ISP_Library/isp/Src/isp_algo.c ****                                 ISP_STAT_TYPE_AVG, IQParamConfig->sensorDelay.delay);
 875              		.loc 1 1154 5 view .LVU276
1154:Lib/Camera_Middleware/ISP_Library/isp/Src/isp_algo.c ****                                 ISP_STAT_TYPE_AVG, IQParamConfig->sensorDelay.delay);
 876              		.loc 1 1154 11 is_stmt 0 view .LVU277
 877 005a 90F86532 		ldrb	r3, [r0, #613]	@ zero_extendqisi2
ARM GAS  C:\Users\DJESSOU\AppData\Local\Temp\ccch1XY5.s 			page 41


 878 005e 0226     		movs	r6, #2
 879 0060 0293     		str	r3, [sp, #8]
 880 0062 0123     		movs	r3, #1
 881 0064 2246     		mov	r2, r4
 882 0066 CDE90063 		strd	r6, r3, [sp]
 883 006a 2846     		mov	r0, r5
 884              	.LVL83:
1154:Lib/Camera_Middleware/ISP_Library/isp/Src/isp_algo.c ****                                 ISP_STAT_TYPE_AVG, IQParamConfig->sensorDelay.delay);
 885              		.loc 1 1154 11 view .LVU278
 886 006c 034B     		ldr	r3, .L78+4
 887 006e 0449     		ldr	r1, .L78+8
 888 0070 FFF7FEFF 		bl	ISP_SVC_Stats_GetNext
 889              	.LVL84:
 890 0074 EFE7     		b	.L77
 891              	.L79:
 892 0076 00BF     		.align	2
 893              	.L78:
 894 0078 00000000 		.word	.LC2
 895 007c 00000000 		.word	stats.0
 896 0080 00000000 		.word	ISP_Algo_Background_StatCb
 897              		.cfi_endproc
 898              	.LFE881:
 900              		.section	.text.ISP_Algo_AWB_Init,"ax",%progbits
 901              		.align	1
 902              		.global	ISP_Algo_AWB_Init
 903              		.syntax unified
 904              		.thumb
 905              		.thumb_func
 907              	ISP_Algo_AWB_Init:
 908              	.LVL85:
 909              	.LFB874:
 594:Lib/Camera_Middleware/ISP_Library/isp/Src/isp_algo.c ****   (void)hIsp; /* unused */
 910              		.loc 1 594 1 is_stmt 1 view -0
 911              		.cfi_startproc
 912              		@ args = 0, pretend = 0, frame = 0
 913              		@ frame_needed = 0, uses_anonymous_args = 0
 595:Lib/Camera_Middleware/ISP_Library/isp/Src/isp_algo.c ****   ISP_AlgoTypeDef *algo = (ISP_AlgoTypeDef *)pAlgo;
 914              		.loc 1 595 3 view .LVU280
 596:Lib/Camera_Middleware/ISP_Library/isp/Src/isp_algo.c ****   ISP_RestartStateTypeDef *pRestartState;
 915              		.loc 1 596 3 view .LVU281
 594:Lib/Camera_Middleware/ISP_Library/isp/Src/isp_algo.c ****   (void)hIsp; /* unused */
 916              		.loc 1 594 1 is_stmt 0 view .LVU282
 917 0000 70B5     		push	{r4, r5, r6, lr}
 918              		.cfi_def_cfa_offset 16
 919              		.cfi_offset 4, -16
 920              		.cfi_offset 5, -12
 921              		.cfi_offset 6, -8
 922              		.cfi_offset 14, -4
 594:Lib/Camera_Middleware/ISP_Library/isp/Src/isp_algo.c ****   (void)hIsp; /* unused */
 923              		.loc 1 594 1 view .LVU283
 924 0002 0546     		mov	r5, r0
 925 0004 0E46     		mov	r6, r1
 926              	.LVL86:
 597:Lib/Camera_Middleware/ISP_Library/isp/Src/isp_algo.c **** 
 927              		.loc 1 597 3 is_stmt 1 view .LVU284
 599:Lib/Camera_Middleware/ISP_Library/isp/Src/isp_algo.c ****   if (pRestartState && pRestartState->awbConfigured)
 928              		.loc 1 599 3 view .LVU285
ARM GAS  C:\Users\DJESSOU\AppData\Local\Temp\ccch1XY5.s 			page 42


 599:Lib/Camera_Middleware/ISP_Library/isp/Src/isp_algo.c ****   if (pRestartState && pRestartState->awbConfigured)
 929              		.loc 1 599 19 is_stmt 0 view .LVU286
 930 0006 FFF7FEFF 		bl	ISP_SVC_GetRestartState
 931              	.LVL87:
 600:Lib/Camera_Middleware/ISP_Library/isp/Src/isp_algo.c ****   {
 932              		.loc 1 600 3 is_stmt 1 view .LVU287
 600:Lib/Camera_Middleware/ISP_Library/isp/Src/isp_algo.c ****   {
 933              		.loc 1 600 6 is_stmt 0 view .LVU288
 934 000a 0446     		mov	r4, r0
 935 000c 58B1     		cbz	r0, .L81
 600:Lib/Camera_Middleware/ISP_Library/isp/Src/isp_algo.c ****   {
 936              		.loc 1 600 21 discriminator 1 view .LVU289
 937 000e 037B     		ldrb	r3, [r0, #12]	@ zero_extendqisi2
 938 0010 4BB1     		cbz	r3, .L81
 603:Lib/Camera_Middleware/ISP_Library/isp/Src/isp_algo.c ****     ISP_SVC_ISP_SetGain(hIsp, &pRestartState->ISPGain);
 939              		.loc 1 603 5 is_stmt 1 view .LVU290
 940 0012 00F11001 		add	r1, r0, #16
 941 0016 2846     		mov	r0, r5
 942              	.LVL88:
 603:Lib/Camera_Middleware/ISP_Library/isp/Src/isp_algo.c ****     ISP_SVC_ISP_SetGain(hIsp, &pRestartState->ISPGain);
 943              		.loc 1 603 5 is_stmt 0 view .LVU291
 944 0018 FFF7FEFF 		bl	ISP_SVC_ISP_SetColorConv
 945              	.LVL89:
 604:Lib/Camera_Middleware/ISP_Library/isp/Src/isp_algo.c ****   }
 946              		.loc 1 604 5 is_stmt 1 view .LVU292
 947 001c 2846     		mov	r0, r5
 948 001e 04F13801 		add	r1, r4, #56
 949 0022 FFF7FEFF 		bl	ISP_SVC_ISP_SetGain
 950              	.LVL90:
 951              	.L81:
 609:Lib/Camera_Middleware/ISP_Library/isp/Src/isp_algo.c **** 
 952              		.loc 1 609 3 view .LVU293
 609:Lib/Camera_Middleware/ISP_Library/isp/Src/isp_algo.c **** 
 953              		.loc 1 609 15 is_stmt 0 view .LVU294
 954 0026 0020     		movs	r0, #0
 955 0028 7070     		strb	r0, [r6, #1]
 611:Lib/Camera_Middleware/ISP_Library/isp/Src/isp_algo.c **** }
 956              		.loc 1 611 3 is_stmt 1 view .LVU295
 612:Lib/Camera_Middleware/ISP_Library/isp/Src/isp_algo.c **** 
 957              		.loc 1 612 1 is_stmt 0 view .LVU296
 958 002a 70BD     		pop	{r4, r5, r6, pc}
 612:Lib/Camera_Middleware/ISP_Library/isp/Src/isp_algo.c **** 
 959              		.loc 1 612 1 view .LVU297
 960              		.cfi_endproc
 961              	.LFE874:
 963              		.section	.rodata.ISP_Algo_AWB_Process.str1.1,"aMS",%progbits,1
 964              	.LC3:
 965 0000 5741524E 		.ascii	"WARNING: Unknown AWB algo state\015\000"
 965      494E473A 
 965      20556E6B 
 965      6E6F776E 
 965      20415742 
 966              		.section	.text.ISP_Algo_AWB_Process,"ax",%progbits
 967              		.align	1
 968              		.global	ISP_Algo_AWB_Process
 969              		.syntax unified
 970              		.thumb
ARM GAS  C:\Users\DJESSOU\AppData\Local\Temp\ccch1XY5.s 			page 43


 971              		.thumb_func
 973              	ISP_Algo_AWB_Process:
 974              	.LVL91:
 975              	.LFB877:
 655:Lib/Camera_Middleware/ISP_Library/isp/Src/isp_algo.c ****   static ISP_SVC_StatStateTypeDef stats;
 976              		.loc 1 655 1 is_stmt 1 view -0
 977              		.cfi_startproc
 978              		@ args = 0, pretend = 0, frame = 64
 979              		@ frame_needed = 0, uses_anonymous_args = 0
 656:Lib/Camera_Middleware/ISP_Library/isp/Src/isp_algo.c ****   static uint8_t enableCurrent = false;
 980              		.loc 1 656 3 view .LVU299
 657:Lib/Camera_Middleware/ISP_Library/isp/Src/isp_algo.c ****   static uint8_t reconfigureRequest = false;
 981              		.loc 1 657 3 view .LVU300
 658:Lib/Camera_Middleware/ISP_Library/isp/Src/isp_algo.c ****   static uint32_t currentColorTemp = 0;
 982              		.loc 1 658 3 view .LVU301
 659:Lib/Camera_Middleware/ISP_Library/isp/Src/isp_algo.c ****   ISP_IQParamTypeDef *IQParamConfig;
 983              		.loc 1 659 3 view .LVU302
 660:Lib/Camera_Middleware/ISP_Library/isp/Src/isp_algo.c ****   ISP_RestartStateTypeDef *pRestartState;
 984              		.loc 1 660 3 view .LVU303
 661:Lib/Camera_Middleware/ISP_Library/isp/Src/isp_algo.c ****   ISP_ColorConvTypeDef ColorConvConfig;
 985              		.loc 1 661 3 view .LVU304
 662:Lib/Camera_Middleware/ISP_Library/isp/Src/isp_algo.c ****   ISP_ISPGainTypeDef ISPGainConfig;
 986              		.loc 1 662 3 view .LVU305
 663:Lib/Camera_Middleware/ISP_Library/isp/Src/isp_algo.c ****   ISP_AlgoTypeDef *algo = (ISP_AlgoTypeDef *)pAlgo;
 987              		.loc 1 663 3 view .LVU306
 664:Lib/Camera_Middleware/ISP_Library/isp/Src/isp_algo.c ****   ISP_StatusTypeDef ret_stat, ret = ISP_OK;
 988              		.loc 1 664 3 view .LVU307
 666:Lib/Camera_Middleware/ISP_Library/isp/Src/isp_algo.c **** 
 989              		.loc 1 666 12 is_stmt 0 view .LVU308
 990 0000 0023     		movs	r3, #0
 655:Lib/Camera_Middleware/ISP_Library/isp/Src/isp_algo.c ****   static ISP_SVC_StatStateTypeDef stats;
 991              		.loc 1 655 1 view .LVU309
 992 0002 2DE9F047 		push	{r4, r5, r6, r7, r8, r9, r10, lr}
 993              		.cfi_def_cfa_offset 32
 994              		.cfi_offset 4, -32
 995              		.cfi_offset 5, -28
 996              		.cfi_offset 6, -24
 997              		.cfi_offset 7, -20
 998              		.cfi_offset 8, -16
 999              		.cfi_offset 9, -12
 1000              		.cfi_offset 10, -8
 1001              		.cfi_offset 14, -4
 1002 0006 94B0     		sub	sp, sp, #80
 1003              		.cfi_def_cfa_offset 112
 666:Lib/Camera_Middleware/ISP_Library/isp/Src/isp_algo.c **** 
 1004              		.loc 1 666 12 view .LVU310
 1005 0008 0593     		str	r3, [sp, #20]
 655:Lib/Camera_Middleware/ISP_Library/isp/Src/isp_algo.c ****   static ISP_SVC_StatStateTypeDef stats;
 1006              		.loc 1 655 1 view .LVU311
 1007 000a 0746     		mov	r7, r0
 1008 000c 0E46     		mov	r6, r1
 1009              	.LVL92:
 665:Lib/Camera_Middleware/ISP_Library/isp/Src/isp_algo.c ****   uint32_t estimatedColorTemp = 0;
 1010              		.loc 1 665 3 is_stmt 1 view .LVU312
 666:Lib/Camera_Middleware/ISP_Library/isp/Src/isp_algo.c **** 
 1011              		.loc 1 666 3 view .LVU313
 668:Lib/Camera_Middleware/ISP_Library/isp/Src/isp_algo.c **** 
ARM GAS  C:\Users\DJESSOU\AppData\Local\Temp\ccch1XY5.s 			page 44


 1012              		.loc 1 668 3 view .LVU314
 668:Lib/Camera_Middleware/ISP_Library/isp/Src/isp_algo.c **** 
 1013              		.loc 1 668 19 is_stmt 0 view .LVU315
 1014 000e FFF7FEFF 		bl	ISP_SVC_IQParam_Get
 1015              	.LVL93:
 670:Lib/Camera_Middleware/ISP_Library/isp/Src/isp_algo.c ****   {
 1016              		.loc 1 670 3 is_stmt 1 view .LVU316
 670:Lib/Camera_Middleware/ISP_Library/isp/Src/isp_algo.c ****   {
 1017              		.loc 1 670 29 is_stmt 0 view .LVU317
 1018 0012 90F87420 		ldrb	r2, [r0, #116]	@ zero_extendqisi2
 1019 0016 4C4B     		ldr	r3, .L124
 670:Lib/Camera_Middleware/ISP_Library/isp/Src/isp_algo.c ****   {
 1020              		.loc 1 670 6 view .LVU318
 1021 0018 22B9     		cbnz	r2, .L89
 672:Lib/Camera_Middleware/ISP_Library/isp/Src/isp_algo.c ****     return ISP_OK;
 1022              		.loc 1 672 5 is_stmt 1 view .LVU319
 672:Lib/Camera_Middleware/ISP_Library/isp/Src/isp_algo.c ****     return ISP_OK;
 1023              		.loc 1 672 19 is_stmt 0 view .LVU320
 1024 001a 1A70     		strb	r2, [r3]
 673:Lib/Camera_Middleware/ISP_Library/isp/Src/isp_algo.c ****   }
 1025              		.loc 1 673 5 is_stmt 1 view .LVU321
 1026              	.LVL94:
 1027              	.L90:
 673:Lib/Camera_Middleware/ISP_Library/isp/Src/isp_algo.c ****   }
 1028              		.loc 1 673 12 is_stmt 0 view .LVU322
 1029 001c 0020     		movs	r0, #0
 1030              	.LVL95:
 1031              	.L91:
 802:Lib/Camera_Middleware/ISP_Library/isp/Src/isp_algo.c **** #endif /* ISP_MW_SW_AWB_ALGO_SUPPORT */
 1032              		.loc 1 802 1 view .LVU323
 1033 001e 14B0     		add	sp, sp, #80
 1034              		.cfi_remember_state
 1035              		.cfi_def_cfa_offset 32
 1036              		@ sp needed
 1037 0020 BDE8F087 		pop	{r4, r5, r6, r7, r8, r9, r10, pc}
 1038              	.LVL96:
 1039              	.L89:
 1040              		.cfi_restore_state
 675:Lib/Camera_Middleware/ISP_Library/isp/Src/isp_algo.c ****   {
 1041              		.loc 1 675 8 is_stmt 1 view .LVU324
 675:Lib/Camera_Middleware/ISP_Library/isp/Src/isp_algo.c ****   {
 1042              		.loc 1 675 11 is_stmt 0 view .LVU325
 1043 0024 1978     		ldrb	r1, [r3]	@ zero_extendqisi2
 1044 0026 09B1     		cbz	r1, .L92
 675:Lib/Camera_Middleware/ISP_Library/isp/Src/isp_algo.c ****   {
 1045              		.loc 1 675 37 discriminator 1 view .LVU326
 1046 0028 FF2A     		cmp	r2, #255
 1047 002a 1CD1     		bne	.L93
 1048              	.L92:
 678:Lib/Camera_Middleware/ISP_Library/isp/Src/isp_algo.c ****     IQParamConfig->AWBAlgo.enable = true;
 1049              		.loc 1 678 5 is_stmt 1 view .LVU327
 678:Lib/Camera_Middleware/ISP_Library/isp/Src/isp_algo.c ****     IQParamConfig->AWBAlgo.enable = true;
 1050              		.loc 1 678 17 is_stmt 0 view .LVU328
 1051 002c 0022     		movs	r2, #0
 1052 002e 7270     		strb	r2, [r6, #1]
 679:Lib/Camera_Middleware/ISP_Library/isp/Src/isp_algo.c ****     reconfigureRequest = true;
 1053              		.loc 1 679 5 is_stmt 1 view .LVU329
ARM GAS  C:\Users\DJESSOU\AppData\Local\Temp\ccch1XY5.s 			page 45


 679:Lib/Camera_Middleware/ISP_Library/isp/Src/isp_algo.c ****     reconfigureRequest = true;
 1054              		.loc 1 679 35 is_stmt 0 view .LVU330
 1055 0030 0122     		movs	r2, #1
 680:Lib/Camera_Middleware/ISP_Library/isp/Src/isp_algo.c ****     enableCurrent = true;
 1056              		.loc 1 680 24 view .LVU331
 1057 0032 4649     		ldr	r1, .L124+4
 679:Lib/Camera_Middleware/ISP_Library/isp/Src/isp_algo.c ****     reconfigureRequest = true;
 1058              		.loc 1 679 35 view .LVU332
 1059 0034 80F87420 		strb	r2, [r0, #116]
 680:Lib/Camera_Middleware/ISP_Library/isp/Src/isp_algo.c ****     enableCurrent = true;
 1060              		.loc 1 680 5 is_stmt 1 view .LVU333
 680:Lib/Camera_Middleware/ISP_Library/isp/Src/isp_algo.c ****     enableCurrent = true;
 1061              		.loc 1 680 24 is_stmt 0 view .LVU334
 1062 0038 0A70     		strb	r2, [r1]
 681:Lib/Camera_Middleware/ISP_Library/isp/Src/isp_algo.c ****   }
 1063              		.loc 1 681 5 is_stmt 1 view .LVU335
 681:Lib/Camera_Middleware/ISP_Library/isp/Src/isp_algo.c ****   }
 1064              		.loc 1 681 19 is_stmt 0 view .LVU336
 1065 003a 1A70     		strb	r2, [r3]
 684:Lib/Camera_Middleware/ISP_Library/isp/Src/isp_algo.c ****   {
 1066              		.loc 1 684 3 is_stmt 1 view .LVU337
 1067              	.L94:
 687:Lib/Camera_Middleware/ISP_Library/isp/Src/isp_algo.c ****     if (ret != ISP_OK)
 1068              		.loc 1 687 5 view .LVU338
 687:Lib/Camera_Middleware/ISP_Library/isp/Src/isp_algo.c ****     if (ret != ISP_OK)
 1069              		.loc 1 687 11 is_stmt 0 view .LVU339
 1070 003c 7430     		adds	r0, r0, #116
 1071              	.LVL97:
 687:Lib/Camera_Middleware/ISP_Library/isp/Src/isp_algo.c ****     if (ret != ISP_OK)
 1072              		.loc 1 687 11 view .LVU340
 1073 003e FFF7FEFF 		bl	ISP_AWB_Init
 1074              	.LVL98:
 688:Lib/Camera_Middleware/ISP_Library/isp/Src/isp_algo.c ****     {
 1075              		.loc 1 688 5 is_stmt 1 view .LVU341
 688:Lib/Camera_Middleware/ISP_Library/isp/Src/isp_algo.c ****     {
 1076              		.loc 1 688 8 is_stmt 0 view .LVU342
 1077 0042 0028     		cmp	r0, #0
 1078 0044 EBD1     		bne	.L91
 1079              	.LVL99:
 1080              	.L98:
 706:Lib/Camera_Middleware/ISP_Library/isp/Src/isp_algo.c ****                                 ISP_STAT_TYPE_AVG, ALGO_ISP_LATENCY + ALGO_AWB_ADDITIONAL_LATENCY);
 1081              		.loc 1 706 5 is_stmt 1 view .LVU343
 706:Lib/Camera_Middleware/ISP_Library/isp/Src/isp_algo.c ****                                 ISP_STAT_TYPE_AVG, ALGO_ISP_LATENCY + ALGO_AWB_ADDITIONAL_LATENCY);
 1082              		.loc 1 706 11 is_stmt 0 view .LVU344
 1083 0046 0123     		movs	r3, #1
 1084 0048 0521     		movs	r1, #5
 1085 004a 0224     		movs	r4, #2
 1086 004c CDE90131 		strd	r3, r1, [sp, #4]
 1087 0050 3246     		mov	r2, r6
 1088 0052 3846     		mov	r0, r7
 1089 0054 3E4B     		ldr	r3, .L124+8
 1090 0056 3F49     		ldr	r1, .L124+12
 1091 0058 0094     		str	r4, [sp]
 1092 005a FFF7FEFF 		bl	ISP_SVC_Stats_GetNext
 1093              	.LVL100:
 708:Lib/Camera_Middleware/ISP_Library/isp/Src/isp_algo.c ****     {
 1094              		.loc 1 708 5 is_stmt 1 view .LVU345
ARM GAS  C:\Users\DJESSOU\AppData\Local\Temp\ccch1XY5.s 			page 46


 708:Lib/Camera_Middleware/ISP_Library/isp/Src/isp_algo.c ****     {
 1095              		.loc 1 708 8 is_stmt 0 view .LVU346
 1096 005e 0028     		cmp	r0, #0
 1097 0060 DDD1     		bne	.L91
 1098              	.LVL101:
 1099              	.L122:
 791:Lib/Camera_Middleware/ISP_Library/isp/Src/isp_algo.c ****     break;
 1100              		.loc 1 791 5 is_stmt 1 view .LVU347
 791:Lib/Camera_Middleware/ISP_Library/isp/Src/isp_algo.c ****     break;
 1101              		.loc 1 791 17 is_stmt 0 view .LVU348
 1102 0062 7470     		strb	r4, [r6, #1]
 792:Lib/Camera_Middleware/ISP_Library/isp/Src/isp_algo.c **** 
 1103              		.loc 1 792 5 is_stmt 1 view .LVU349
 1104 0064 DBE7     		b	.L91
 1105              	.LVL102:
 1106              	.L93:
 684:Lib/Camera_Middleware/ISP_Library/isp/Src/isp_algo.c ****   {
 1107              		.loc 1 684 3 view .LVU350
 1108 0066 7378     		ldrb	r3, [r6, #1]	@ zero_extendqisi2
 1109 0068 032B     		cmp	r3, #3
 1110 006a 66D8     		bhi	.L95
 1111 006c 01A2     		adr	r2, .L97
 1112 006e 52F823F0 		ldr	pc, [r2, r3, lsl #2]
 1113 0072 00BF     		.p2align 2
 1114              	.L97:
 1115 0074 3D000000 		.word	.L94+1
 1116 0078 47000000 		.word	.L98+1
 1117 007c 1D000000 		.word	.L90+1
 1118 0080 85000000 		.word	.L96+1
 1119              		.p2align 1
 1120              	.L96:
 729:Lib/Camera_Middleware/ISP_Library/isp/Src/isp_algo.c **** 
 1121              		.loc 1 729 5 view .LVU351
 1122 0084 324A     		ldr	r2, .L124+8
 1123 0086 3846     		mov	r0, r7
 1124              	.LVL103:
 729:Lib/Camera_Middleware/ISP_Library/isp/Src/isp_algo.c **** 
 1125              		.loc 1 729 5 is_stmt 0 view .LVU352
 1126 0088 02F13401 		add	r1, r2, #52
 731:Lib/Camera_Middleware/ISP_Library/isp/Src/isp_algo.c **** #ifdef ALGO_PERF_DBG_LOGS
 1127              		.loc 1 731 11 view .LVU353
 1128 008c 0DF11808 		add	r8, sp, #24
 729:Lib/Camera_Middleware/ISP_Library/isp/Src/isp_algo.c **** 
 1129              		.loc 1 729 5 view .LVU354
 1130 0090 FFF7FEFF 		bl	ISP_SVC_Stats_EvaluateUp
 1131              	.LVL104:
 731:Lib/Camera_Middleware/ISP_Library/isp/Src/isp_algo.c **** #ifdef ALGO_PERF_DBG_LOGS
 1132              		.loc 1 731 5 is_stmt 1 view .LVU355
 731:Lib/Camera_Middleware/ISP_Library/isp/Src/isp_algo.c **** #ifdef ALGO_PERF_DBG_LOGS
 1133              		.loc 1 731 11 is_stmt 0 view .LVU356
 1134 0094 4246     		mov	r2, r8
 1135 0096 2E48     		ldr	r0, .L124+8
 1136 0098 05AB     		add	r3, sp, #20
 1137 009a 0AA9     		add	r1, sp, #40
 1138 009c FFF7FEFF 		bl	ISP_AWB_GetConfig
 1139              	.LVL105:
 735:Lib/Camera_Middleware/ISP_Library/isp/Src/isp_algo.c ****     {
ARM GAS  C:\Users\DJESSOU\AppData\Local\Temp\ccch1XY5.s 			page 47


 1140              		.loc 1 735 5 is_stmt 1 view .LVU357
 1141 00a0 DFF8A8A0 		ldr	r10, .L124+4
 735:Lib/Camera_Middleware/ISP_Library/isp/Src/isp_algo.c ****     {
 1142              		.loc 1 735 8 is_stmt 0 view .LVU358
 1143 00a4 8146     		mov	r9, r0
 1144 00a6 A8B1     		cbz	r0, .L101
 1145              	.L105:
 764:Lib/Camera_Middleware/ISP_Library/isp/Src/isp_algo.c ****     }
 1146              		.loc 1 764 11 view .LVU359
 1147 00a8 4FF0BE09 		mov	r9, #190
 1148              	.LVL106:
 1149              	.L102:
 768:Lib/Camera_Middleware/ISP_Library/isp/Src/isp_algo.c **** 
 1150              		.loc 1 768 5 is_stmt 1 view .LVU360
 768:Lib/Camera_Middleware/ISP_Library/isp/Src/isp_algo.c **** 
 1151              		.loc 1 768 24 is_stmt 0 view .LVU361
 1152 00ac 0023     		movs	r3, #0
 786:Lib/Camera_Middleware/ISP_Library/isp/Src/isp_algo.c ****                                      ISP_STAT_TYPE_AVG, ALGO_ISP_LATENCY + ALGO_AWB_ADDITIONAL_LATE
 1153              		.loc 1 786 16 view .LVU362
 1154 00ae 0522     		movs	r2, #5
 768:Lib/Camera_Middleware/ISP_Library/isp/Src/isp_algo.c **** 
 1155              		.loc 1 768 24 view .LVU363
 1156 00b0 8AF80030 		strb	r3, [r10]
 786:Lib/Camera_Middleware/ISP_Library/isp/Src/isp_algo.c ****                                      ISP_STAT_TYPE_AVG, ALGO_ISP_LATENCY + ALGO_AWB_ADDITIONAL_LATE
 1157              		.loc 1 786 5 is_stmt 1 view .LVU364
 786:Lib/Camera_Middleware/ISP_Library/isp/Src/isp_algo.c ****                                      ISP_STAT_TYPE_AVG, ALGO_ISP_LATENCY + ALGO_AWB_ADDITIONAL_LATE
 1158              		.loc 1 786 16 is_stmt 0 view .LVU365
 1159 00b4 0224     		movs	r4, #2
 1160 00b6 0123     		movs	r3, #1
 1161 00b8 3846     		mov	r0, r7
 1162 00ba CDE90132 		strd	r3, r2, [sp, #4]
 1163 00be 2549     		ldr	r1, .L124+12
 1164 00c0 3246     		mov	r2, r6
 1165 00c2 234B     		ldr	r3, .L124+8
 1166 00c4 0094     		str	r4, [sp]
 1167 00c6 FFF7FEFF 		bl	ISP_SVC_Stats_GetNext
 1168              	.LVL107:
 788:Lib/Camera_Middleware/ISP_Library/isp/Src/isp_algo.c **** 
 1169              		.loc 1 788 5 is_stmt 1 view .LVU366
 788:Lib/Camera_Middleware/ISP_Library/isp/Src/isp_algo.c **** 
 1170              		.loc 1 788 33 is_stmt 0 discriminator 1 view .LVU367
 1171 00ca B9F1000F 		cmp	r9, #0
 1172 00ce 18BF     		it	ne
 1173 00d0 BE20     		movne	r0, #190
 1174              	.LVL108:
 788:Lib/Camera_Middleware/ISP_Library/isp/Src/isp_algo.c **** 
 1175              		.loc 1 788 33 discriminator 1 view .LVU368
 1176 00d2 C6E7     		b	.L122
 1177              	.LVL109:
 1178              	.L101:
 737:Lib/Camera_Middleware/ISP_Library/isp/Src/isp_algo.c ****       {
 1179              		.loc 1 737 7 is_stmt 1 view .LVU369
 737:Lib/Camera_Middleware/ISP_Library/isp/Src/isp_algo.c ****       {
 1180              		.loc 1 737 30 is_stmt 0 view .LVU370
 1181 00d4 204C     		ldr	r4, .L124+16
 737:Lib/Camera_Middleware/ISP_Library/isp/Src/isp_algo.c ****       {
 1182              		.loc 1 737 10 view .LVU371
ARM GAS  C:\Users\DJESSOU\AppData\Local\Temp\ccch1XY5.s 			page 48


 1183 00d6 059A     		ldr	r2, [sp, #20]
 1184 00d8 2368     		ldr	r3, [r4]
 1185 00da 9A42     		cmp	r2, r3
 1186 00dc 03D1     		bne	.L103
 737:Lib/Camera_Middleware/ISP_Library/isp/Src/isp_algo.c ****       {
 1187              		.loc 1 737 50 discriminator 1 view .LVU372
 1188 00de 9AF80030 		ldrb	r3, [r10]	@ zero_extendqisi2
 1189 00e2 012B     		cmp	r3, #1
 1190 00e4 E2D1     		bne	.L102
 1191              	.L103:
 740:Lib/Camera_Middleware/ISP_Library/isp/Src/isp_algo.c ****         if (ret == ISP_OK)
 1192              		.loc 1 740 9 is_stmt 1 view .LVU373
 740:Lib/Camera_Middleware/ISP_Library/isp/Src/isp_algo.c ****         if (ret == ISP_OK)
 1193              		.loc 1 740 15 is_stmt 0 view .LVU374
 1194 00e6 3846     		mov	r0, r7
 1195              	.LVL110:
 740:Lib/Camera_Middleware/ISP_Library/isp/Src/isp_algo.c ****         if (ret == ISP_OK)
 1196              		.loc 1 740 15 view .LVU375
 1197 00e8 0AA9     		add	r1, sp, #40
 1198 00ea FFF7FEFF 		bl	ISP_SVC_ISP_SetColorConv
 1199              	.LVL111:
 741:Lib/Camera_Middleware/ISP_Library/isp/Src/isp_algo.c ****         {
 1200              		.loc 1 741 9 is_stmt 1 view .LVU376
 741:Lib/Camera_Middleware/ISP_Library/isp/Src/isp_algo.c ****         {
 1201              		.loc 1 741 12 is_stmt 0 view .LVU377
 1202 00ee 0028     		cmp	r0, #0
 1203 00f0 DAD1     		bne	.L105
 744:Lib/Camera_Middleware/ISP_Library/isp/Src/isp_algo.c ****           if (ret == ISP_OK)
 1204              		.loc 1 744 11 is_stmt 1 view .LVU378
 744:Lib/Camera_Middleware/ISP_Library/isp/Src/isp_algo.c ****           if (ret == ISP_OK)
 1205              		.loc 1 744 17 is_stmt 0 view .LVU379
 1206 00f2 4146     		mov	r1, r8
 1207 00f4 3846     		mov	r0, r7
 1208              	.LVL112:
 744:Lib/Camera_Middleware/ISP_Library/isp/Src/isp_algo.c ****           if (ret == ISP_OK)
 1209              		.loc 1 744 17 view .LVU380
 1210 00f6 FFF7FEFF 		bl	ISP_SVC_ISP_SetGain
 1211              	.LVL113:
 745:Lib/Camera_Middleware/ISP_Library/isp/Src/isp_algo.c ****           {
 1212              		.loc 1 745 11 is_stmt 1 view .LVU381
 745:Lib/Camera_Middleware/ISP_Library/isp/Src/isp_algo.c ****           {
 1213              		.loc 1 745 14 is_stmt 0 view .LVU382
 1214 00fa 0028     		cmp	r0, #0
 1215 00fc D4D1     		bne	.L105
 747:Lib/Camera_Middleware/ISP_Library/isp/Src/isp_algo.c ****             currentColorTemp = estimatedColorTemp ;
 1216              		.loc 1 747 13 is_stmt 1 view .LVU383
 747:Lib/Camera_Middleware/ISP_Library/isp/Src/isp_algo.c ****             currentColorTemp = estimatedColorTemp ;
 1217              		.loc 1 747 28 is_stmt 0 view .LVU384
 1218 00fe 059B     		ldr	r3, [sp, #20]
 1219 0100 164A     		ldr	r2, .L124+20
 751:Lib/Camera_Middleware/ISP_Library/isp/Src/isp_algo.c ****             if (pRestartState)
 1220              		.loc 1 751 29 view .LVU385
 1221 0102 3846     		mov	r0, r7
 1222              	.LVL114:
 747:Lib/Camera_Middleware/ISP_Library/isp/Src/isp_algo.c ****             currentColorTemp = estimatedColorTemp ;
 1223              		.loc 1 747 28 view .LVU386
 1224 0104 1361     		str	r3, [r2, #16]
ARM GAS  C:\Users\DJESSOU\AppData\Local\Temp\ccch1XY5.s 			page 49


 748:Lib/Camera_Middleware/ISP_Library/isp/Src/isp_algo.c **** 
 1225              		.loc 1 748 13 is_stmt 1 view .LVU387
 748:Lib/Camera_Middleware/ISP_Library/isp/Src/isp_algo.c **** 
 1226              		.loc 1 748 30 is_stmt 0 view .LVU388
 1227 0106 2360     		str	r3, [r4]
 751:Lib/Camera_Middleware/ISP_Library/isp/Src/isp_algo.c ****             if (pRestartState)
 1228              		.loc 1 751 13 is_stmt 1 view .LVU389
 751:Lib/Camera_Middleware/ISP_Library/isp/Src/isp_algo.c ****             if (pRestartState)
 1229              		.loc 1 751 29 is_stmt 0 view .LVU390
 1230 0108 FFF7FEFF 		bl	ISP_SVC_GetRestartState
 1231              	.LVL115:
 752:Lib/Camera_Middleware/ISP_Library/isp/Src/isp_algo.c ****             {
 1232              		.loc 1 752 13 is_stmt 1 view .LVU391
 752:Lib/Camera_Middleware/ISP_Library/isp/Src/isp_algo.c ****             {
 1233              		.loc 1 752 16 is_stmt 0 view .LVU392
 1234 010c 8446     		mov	ip, r0
 1235 010e 0028     		cmp	r0, #0
 1236 0110 CCD0     		beq	.L102
 754:Lib/Camera_Middleware/ISP_Library/isp/Src/isp_algo.c ****               pRestartState->colorConv = ColorConvConfig;
 1237              		.loc 1 754 15 is_stmt 1 view .LVU393
 754:Lib/Camera_Middleware/ISP_Library/isp/Src/isp_algo.c ****               pRestartState->colorConv = ColorConvConfig;
 1238              		.loc 1 754 44 is_stmt 0 view .LVU394
 1239 0112 0123     		movs	r3, #1
 755:Lib/Camera_Middleware/ISP_Library/isp/Src/isp_algo.c ****               pRestartState->ISPGain = ISPGainConfig;
 1240              		.loc 1 755 40 view .LVU395
 1241 0114 00F11005 		add	r5, r0, #16
 754:Lib/Camera_Middleware/ISP_Library/isp/Src/isp_algo.c ****               pRestartState->colorConv = ColorConvConfig;
 1242              		.loc 1 754 44 view .LVU396
 1243 0118 0373     		strb	r3, [r0, #12]
 755:Lib/Camera_Middleware/ISP_Library/isp/Src/isp_algo.c ****               pRestartState->ISPGain = ISPGainConfig;
 1244              		.loc 1 755 15 is_stmt 1 view .LVU397
 755:Lib/Camera_Middleware/ISP_Library/isp/Src/isp_algo.c ****               pRestartState->ISPGain = ISPGainConfig;
 1245              		.loc 1 755 40 is_stmt 0 view .LVU398
 1246 011a 0AAC     		add	r4, sp, #40
 1247 011c 0FCC     		ldmia	r4!, {r0, r1, r2, r3}
 1248              	.LVL116:
 755:Lib/Camera_Middleware/ISP_Library/isp/Src/isp_algo.c ****               pRestartState->ISPGain = ISPGainConfig;
 1249              		.loc 1 755 40 view .LVU399
 1250 011e 0FC5     		stmia	r5!, {r0, r1, r2, r3}
 1251 0120 0FCC     		ldmia	r4!, {r0, r1, r2, r3}
 1252 0122 0FC5     		stmia	r5!, {r0, r1, r2, r3}
 1253 0124 94E80300 		ldm	r4, {r0, r1}
 756:Lib/Camera_Middleware/ISP_Library/isp/Src/isp_algo.c ****             }
 1254              		.loc 1 756 38 view .LVU400
 1255 0128 0CF13804 		add	r4, ip, #56
 755:Lib/Camera_Middleware/ISP_Library/isp/Src/isp_algo.c ****               pRestartState->ISPGain = ISPGainConfig;
 1256              		.loc 1 755 40 view .LVU401
 1257 012c 85E80300 		stm	r5, {r0, r1}
 756:Lib/Camera_Middleware/ISP_Library/isp/Src/isp_algo.c ****             }
 1258              		.loc 1 756 15 is_stmt 1 view .LVU402
 756:Lib/Camera_Middleware/ISP_Library/isp/Src/isp_algo.c ****             }
 1259              		.loc 1 756 38 is_stmt 0 view .LVU403
 1260 0130 98E80F00 		ldm	r8, {r0, r1, r2, r3}
 1261 0134 84E80F00 		stm	r4, {r0, r1, r2, r3}
 1262 0138 B8E7     		b	.L102
 1263              	.LVL117:
 1264              	.L95:
ARM GAS  C:\Users\DJESSOU\AppData\Local\Temp\ccch1XY5.s 			page 50


 795:Lib/Camera_Middleware/ISP_Library/isp/Src/isp_algo.c ****     /* Reset state to ISP_ALGO_STATE_INIT */
 1265              		.loc 1 795 5 is_stmt 1 view .LVU404
 1266 013a 0948     		ldr	r0, .L124+24
 1267              	.LVL118:
 795:Lib/Camera_Middleware/ISP_Library/isp/Src/isp_algo.c ****     /* Reset state to ISP_ALGO_STATE_INIT */
 1268              		.loc 1 795 5 is_stmt 0 view .LVU405
 1269 013c FFF7FEFF 		bl	puts
 1270              	.LVL119:
 797:Lib/Camera_Middleware/ISP_Library/isp/Src/isp_algo.c ****     break;
 1271              		.loc 1 797 5 is_stmt 1 view .LVU406
 797:Lib/Camera_Middleware/ISP_Library/isp/Src/isp_algo.c ****     break;
 1272              		.loc 1 797 17 is_stmt 0 view .LVU407
 1273 0140 0023     		movs	r3, #0
 1274 0142 7370     		strb	r3, [r6, #1]
 798:Lib/Camera_Middleware/ISP_Library/isp/Src/isp_algo.c ****   }
 1275              		.loc 1 798 5 is_stmt 1 view .LVU408
 1276 0144 6AE7     		b	.L90
 1277              	.L125:
 1278 0146 00BF     		.align	2
 1279              	.L124:
 1280 0148 00000000 		.word	enableCurrent.4
 1281 014c 00000000 		.word	reconfigureRequest.3
 1282 0150 00000000 		.word	stats.2
 1283 0154 00000000 		.word	ISP_Algo_AWB_StatCb
 1284 0158 00000000 		.word	currentColorTemp.1
 1285 015c 00000000 		.word	Meta
 1286 0160 00000000 		.word	.LC3
 1287              		.cfi_endproc
 1288              	.LFE877:
 1290              		.section	.text.ISP_Algo_AWB_DeInit,"ax",%progbits
 1291              		.align	1
 1292              		.global	ISP_Algo_AWB_DeInit
 1293              		.syntax unified
 1294              		.thumb
 1295              		.thumb_func
 1297              	ISP_Algo_AWB_DeInit:
 1298              	.LFB890:
 1299              		.cfi_startproc
 621:Lib/Camera_Middleware/ISP_Library/isp/Src/isp_algo.c **** {
 1300              		.loc 1 621 19 view -0
 1301              		@ args = 0, pretend = 0, frame = 0
 1302              		@ frame_needed = 0, uses_anonymous_args = 0
 1303              		@ link register save eliminated.
 1304 0000 0020     		movs	r0, #0
 1305 0002 7047     		bx	lr
 1306              		.cfi_endproc
 1307              	.LFE890:
 1309              		.section	.text.ISP_Algo_Background_DeInit,"ax",%progbits
 1310              		.align	1
 1311              		.global	ISP_Algo_Background_DeInit
 1312              		.syntax unified
 1313              		.thumb
 1314              		.thumb_func
 1316              	ISP_Algo_Background_DeInit:
 1317              	.LFB892:
 1318              		.cfi_startproc
1092:Lib/Camera_Middleware/ISP_Library/isp/Src/isp_algo.c **** {
ARM GAS  C:\Users\DJESSOU\AppData\Local\Temp\ccch1XY5.s 			page 51


 1319              		.loc 1 1092 19 view -0
 1320              		@ args = 0, pretend = 0, frame = 0
 1321              		@ frame_needed = 0, uses_anonymous_args = 0
 1322              		@ link register save eliminated.
 1323 0000 0020     		movs	r0, #0
 1324 0002 7047     		bx	lr
 1325              		.cfi_endproc
 1326              	.LFE892:
 1328              		.section	.text.ISP_Algo_AEC_DeInit,"ax",%progbits
 1329              		.align	1
 1330              		.global	ISP_Algo_AEC_DeInit
 1331              		.syntax unified
 1332              		.thumb
 1333              		.thumb_func
 1335              	ISP_Algo_AEC_DeInit:
 1336              	.LFB888:
 1337              		.cfi_startproc
 318:Lib/Camera_Middleware/ISP_Library/isp/Src/isp_algo.c **** {
 1338              		.loc 1 318 19 view -0
 1339              		@ args = 0, pretend = 0, frame = 0
 1340              		@ frame_needed = 0, uses_anonymous_args = 0
 1341              		@ link register save eliminated.
 1342 0000 0020     		movs	r0, #0
 1343 0002 7047     		bx	lr
 1344              		.cfi_endproc
 1345              	.LFE888:
 1347              		.section	.text.ISP_Algo_Background_Init,"ax",%progbits
 1348              		.align	1
 1349              		.global	ISP_Algo_Background_Init
 1350              		.syntax unified
 1351              		.thumb
 1352              		.thumb_func
 1354              	ISP_Algo_Background_Init:
 1355              	.LFB886:
 1356              		.cfi_startproc
1076:Lib/Camera_Middleware/ISP_Library/isp/Src/isp_algo.c **** {
 1357              		.loc 1 1076 19 view -0
 1358              		@ args = 0, pretend = 0, frame = 0
 1359              		@ frame_needed = 0, uses_anonymous_args = 0
 1360              		@ link register save eliminated.
 1361 0000 0020     		movs	r0, #0
 1362 0002 4870     		strb	r0, [r1, #1]
 1363 0004 7047     		bx	lr
 1364              		.cfi_endproc
 1365              	.LFE886:
 1367              		.section	.text.ISP_Algo_Background_StatCb,"ax",%progbits
 1368              		.align	1
 1369              		.global	ISP_Algo_Background_StatCb
 1370              		.syntax unified
 1371              		.thumb
 1372              		.thumb_func
 1374              	ISP_Algo_Background_StatCb:
 1375              	.LFB894:
 1376              		.cfi_startproc
1061:Lib/Camera_Middleware/ISP_Library/isp/Src/isp_algo.c **** {
 1377              		.loc 1 1061 19 view -0
 1378              		@ args = 0, pretend = 0, frame = 0
ARM GAS  C:\Users\DJESSOU\AppData\Local\Temp\ccch1XY5.s 			page 52


 1379              		@ frame_needed = 0, uses_anonymous_args = 0
 1380              		@ link register save eliminated.
 1381 0000 0323     		movs	r3, #3
 1382 0002 4370     		strb	r3, [r0, #1]
 1383 0004 0020     		movs	r0, #0
 1384 0006 7047     		bx	lr
 1385              		.cfi_endproc
 1386              	.LFE894:
 1388              		.section	.text.ISP_Algo_ApplyGammaInverse,"ax",%progbits
 1389              		.align	1
 1390              		.global	ISP_Algo_ApplyGammaInverse
 1391              		.syntax unified
 1392              		.thumb
 1393              		.thumb_func
 1395              	ISP_Algo_ApplyGammaInverse:
 1396              	.LVL120:
 1397              	.LFB872:
 527:Lib/Camera_Middleware/ISP_Library/isp/Src/isp_algo.c ****   double out;
 1398              		.loc 1 527 1 view -0
 1399              		.cfi_startproc
 1400              		@ args = 0, pretend = 0, frame = 0
 1401              		@ frame_needed = 0, uses_anonymous_args = 0
 528:Lib/Camera_Middleware/ISP_Library/isp/Src/isp_algo.c **** 
 1402              		.loc 1 528 3 view .LVU415
 531:Lib/Camera_Middleware/ISP_Library/isp/Src/isp_algo.c ****     out = 255 * pow((float)comp / 255, 1.0 / 2.2);
 1403              		.loc 1 531 3 view .LVU416
 527:Lib/Camera_Middleware/ISP_Library/isp/Src/isp_algo.c ****   double out;
 1404              		.loc 1 527 1 is_stmt 0 view .LVU417
 1405 0000 08B5     		push	{r3, lr}
 1406              		.cfi_def_cfa_offset 8
 1407              		.cfi_offset 3, -8
 1408              		.cfi_offset 14, -4
 1409 0002 2DED028B 		vpush.64	{d8}
 1410              		.cfi_def_cfa_offset 16
 1411              		.cfi_offset 80, -16
 1412              		.cfi_offset 81, -12
 527:Lib/Camera_Middleware/ISP_Library/isp/Src/isp_algo.c ****   double out;
 1413              		.loc 1 527 1 view .LVU418
 1414 0006 08EE101A 		vmov	s16, r1	@ int
 531:Lib/Camera_Middleware/ISP_Library/isp/Src/isp_algo.c ****     out = 255 * pow((float)comp / 255, 1.0 / 2.2);
 1415              		.loc 1 531 7 view .LVU419
 1416 000a 0121     		movs	r1, #1
 1417              	.LVL121:
 531:Lib/Camera_Middleware/ISP_Library/isp/Src/isp_algo.c ****     out = 255 * pow((float)comp / 255, 1.0 / 2.2);
 1418              		.loc 1 531 7 view .LVU420
 1419 000c FFF7FEFF 		bl	ISP_SVC_Misc_IsGammaEnabled
 1420              	.LVL122:
 531:Lib/Camera_Middleware/ISP_Library/isp/Src/isp_algo.c ****     out = 255 * pow((float)comp / 255, 1.0 / 2.2);
 1421              		.loc 1 531 6 discriminator 1 view .LVU421
 1422 0010 90B1     		cbz	r0, .L132
 532:Lib/Camera_Middleware/ISP_Library/isp/Src/isp_algo.c ****   }
 1423              		.loc 1 532 5 is_stmt 1 view .LVU422
 532:Lib/Camera_Middleware/ISP_Library/isp/Src/isp_algo.c ****   }
 1424              		.loc 1 532 33 is_stmt 0 view .LVU423
 1425 0012 DFED0F7A 		vldr.32	s15, .L134+16
 532:Lib/Camera_Middleware/ISP_Library/isp/Src/isp_algo.c ****   }
 1426              		.loc 1 532 21 view .LVU424
ARM GAS  C:\Users\DJESSOU\AppData\Local\Temp\ccch1XY5.s 			page 53


 1427 0016 B8EE488A 		vcvt.f32.u32	s16, s16
 1428              	.LVL123:
 532:Lib/Camera_Middleware/ISP_Library/isp/Src/isp_algo.c ****   }
 1429              		.loc 1 532 33 view .LVU425
 1430 001a 88EE270A 		vdiv.f32	s0, s16, s15
 532:Lib/Camera_Middleware/ISP_Library/isp/Src/isp_algo.c ****   }
 1431              		.loc 1 532 17 view .LVU426
 1432 001e 9FED081B 		vldr.64	d1, .L134
 1433 0022 B7EEC00A 		vcvt.f64.f32	d0, s0
 1434 0026 FFF7FEFF 		bl	pow
 1435              	.LVL124:
 532:Lib/Camera_Middleware/ISP_Library/isp/Src/isp_algo.c ****   }
 1436              		.loc 1 532 9 discriminator 1 view .LVU427
 1437 002a 9FED077B 		vldr.64	d7, .L134+8
 1438 002e 20EE070B 		vmul.f64	d0, d0, d7
 1439              	.LVL125:
 1440              	.L131:
 539:Lib/Camera_Middleware/ISP_Library/isp/Src/isp_algo.c **** 
 1441              		.loc 1 539 1 view .LVU428
 1442 0032 BDEC028B 		vldm	sp!, {d8}
 1443              		.cfi_remember_state
 1444              		.cfi_restore 80
 1445              		.cfi_restore 81
 1446              		.cfi_def_cfa_offset 8
 1447 0036 08BD     		pop	{r3, pc}
 1448              	.LVL126:
 1449              	.L132:
 1450              		.cfi_restore_state
 536:Lib/Camera_Middleware/ISP_Library/isp/Src/isp_algo.c ****   }
 1451              		.loc 1 536 5 is_stmt 1 view .LVU429
 536:Lib/Camera_Middleware/ISP_Library/isp/Src/isp_algo.c ****   }
 1452              		.loc 1 536 9 is_stmt 0 view .LVU430
 1453 0038 B8EE480B 		vcvt.f64.u32	d0, s16
 1454              	.LVL127:
 538:Lib/Camera_Middleware/ISP_Library/isp/Src/isp_algo.c **** }
 1455              		.loc 1 538 3 is_stmt 1 view .LVU431
 538:Lib/Camera_Middleware/ISP_Library/isp/Src/isp_algo.c **** }
 1456              		.loc 1 538 10 is_stmt 0 view .LVU432
 1457 003c F9E7     		b	.L131
 1458              	.L135:
 1459 003e 00BF     		.align	3
 1460              	.L134:
 1461 0040 175D74D1 		.word	-780903145
 1462 0044 4517DD3F 		.word	1071454021
 1463 0048 00000000 		.word	0
 1464 004c 00E06F40 		.word	1081073664
 1465 0050 00007F43 		.word	1132396544
 1466              		.cfi_endproc
 1467              	.LFE872:
 1469              		.global	__aeabi_ldivmod
 1470              		.section	.text.ISP_Algo_ApplyCConv,"ax",%progbits
 1471              		.align	1
 1472              		.global	ISP_Algo_ApplyCConv
 1473              		.syntax unified
 1474              		.thumb
 1475              		.thumb_func
 1477              	ISP_Algo_ApplyCConv:
ARM GAS  C:\Users\DJESSOU\AppData\Local\Temp\ccch1XY5.s 			page 54


 1478              	.LVL128:
 1479              	.LFB873:
 554:Lib/Camera_Middleware/ISP_Library/isp/Src/isp_algo.c ****   ISP_ColorConvTypeDef colorConv;
 1480              		.loc 1 554 1 is_stmt 1 view -0
 1481              		.cfi_startproc
 1482              		@ args = 12, pretend = 0, frame = 40
 1483              		@ frame_needed = 0, uses_anonymous_args = 0
 555:Lib/Camera_Middleware/ISP_Library/isp/Src/isp_algo.c ****   int64_t ccR, ccG, ccB;
 1484              		.loc 1 555 3 view .LVU434
 556:Lib/Camera_Middleware/ISP_Library/isp/Src/isp_algo.c **** 
 1485              		.loc 1 556 3 view .LVU435
 558:Lib/Camera_Middleware/ISP_Library/isp/Src/isp_algo.c ****   {
 1486              		.loc 1 558 3 view .LVU436
 554:Lib/Camera_Middleware/ISP_Library/isp/Src/isp_algo.c ****   ISP_ColorConvTypeDef colorConv;
 1487              		.loc 1 554 1 is_stmt 0 view .LVU437
 1488 0000 2DE9F043 		push	{r4, r5, r6, r7, r8, r9, lr}
 1489              		.cfi_def_cfa_offset 28
 1490              		.cfi_offset 4, -28
 1491              		.cfi_offset 5, -24
 1492              		.cfi_offset 6, -20
 1493              		.cfi_offset 7, -16
 1494              		.cfi_offset 8, -12
 1495              		.cfi_offset 9, -8
 1496              		.cfi_offset 14, -4
 1497 0004 8BB0     		sub	sp, sp, #44
 1498              		.cfi_def_cfa_offset 72
 554:Lib/Camera_Middleware/ISP_Library/isp/Src/isp_algo.c ****   ISP_ColorConvTypeDef colorConv;
 1499              		.loc 1 554 1 view .LVU438
 1500 0006 0E46     		mov	r6, r1
 558:Lib/Camera_Middleware/ISP_Library/isp/Src/isp_algo.c ****   {
 1501              		.loc 1 558 8 view .LVU439
 1502 0008 6946     		mov	r1, sp
 1503              	.LVL129:
 554:Lib/Camera_Middleware/ISP_Library/isp/Src/isp_algo.c ****   ISP_ColorConvTypeDef colorConv;
 1504              		.loc 1 554 1 view .LVU440
 1505 000a 1546     		mov	r5, r2
 1506 000c 1C46     		mov	r4, r3
 558:Lib/Camera_Middleware/ISP_Library/isp/Src/isp_algo.c ****   {
 1507              		.loc 1 558 8 view .LVU441
 1508 000e FFF7FEFF 		bl	ISP_SVC_ISP_GetColorConv
 1509              	.LVL130:
 558:Lib/Camera_Middleware/ISP_Library/isp/Src/isp_algo.c ****   {
 1510              		.loc 1 558 6 discriminator 1 view .LVU442
 1511 0012 0246     		mov	r2, r0
 1512 0014 0028     		cmp	r0, #0
 1513 0016 40F09680 		bne	.L137
 558:Lib/Camera_Middleware/ISP_Library/isp/Src/isp_algo.c ****   {
 1514              		.loc 1 558 62 discriminator 1 view .LVU443
 1515 001a 9DF80030 		ldrb	r3, [sp]	@ zero_extendqisi2
 1516 001e 012B     		cmp	r3, #1
 1517 0020 40F09180 		bne	.L137
 561:Lib/Camera_Middleware/ISP_Library/isp/Src/isp_algo.c ****     ccG = (int64_t) inR * colorConv.coeff[1][0] + (int64_t) inG * colorConv.coeff[1][1] + (int64_t)
 1518              		.loc 1 561 5 is_stmt 1 view .LVU444
 561:Lib/Camera_Middleware/ISP_Library/isp/Src/isp_algo.c ****     ccG = (int64_t) inR * colorConv.coeff[1][0] + (int64_t) inG * colorConv.coeff[1][1] + (int64_t)
 1519              		.loc 1 561 45 is_stmt 0 view .LVU445
 1520 0024 019B     		ldr	r3, [sp, #4]
 1521 0026 D917     		asrs	r1, r3, #31
ARM GAS  C:\Users\DJESSOU\AppData\Local\Temp\ccch1XY5.s 			page 55


 561:Lib/Camera_Middleware/ISP_Library/isp/Src/isp_algo.c ****     ccG = (int64_t) inR * colorConv.coeff[1][0] + (int64_t) inG * colorConv.coeff[1][1] + (int64_t)
 1522              		.loc 1 561 25 view .LVU446
 1523 0028 A3FB0637 		umull	r3, r7, r3, r6
 1524 002c 06FB0177 		mla	r7, r6, r1, r7
 561:Lib/Camera_Middleware/ISP_Library/isp/Src/isp_algo.c ****     ccG = (int64_t) inR * colorConv.coeff[1][0] + (int64_t) inG * colorConv.coeff[1][1] + (int64_t)
 1525              		.loc 1 561 85 view .LVU447
 1526 0030 0299     		ldr	r1, [sp, #8]
 1527 0032 4FEAE17C 		asr	ip, r1, #31
 561:Lib/Camera_Middleware/ISP_Library/isp/Src/isp_algo.c ****     ccG = (int64_t) inR * colorConv.coeff[1][0] + (int64_t) inG * colorConv.coeff[1][1] + (int64_t)
 1528              		.loc 1 561 65 view .LVU448
 1529 0036 A1FB0510 		umull	r1, r0, r1, r5
 1530 003a 05FB0C00 		mla	r0, r5, ip, r0
 561:Lib/Camera_Middleware/ISP_Library/isp/Src/isp_algo.c ****     ccG = (int64_t) inR * colorConv.coeff[1][0] + (int64_t) inG * colorConv.coeff[1][1] + (int64_t)
 1531              		.loc 1 561 49 view .LVU449
 1532 003e 5B18     		adds	r3, r3, r1
 1533 0040 47EB0007 		adc	r7, r7, r0
 561:Lib/Camera_Middleware/ISP_Library/isp/Src/isp_algo.c ****     ccG = (int64_t) inR * colorConv.coeff[1][0] + (int64_t) inG * colorConv.coeff[1][1] + (int64_t)
 1534              		.loc 1 561 125 view .LVU450
 1535 0044 0398     		ldr	r0, [sp, #12]
 1536 0046 4FEAE07C 		asr	ip, r0, #31
 561:Lib/Camera_Middleware/ISP_Library/isp/Src/isp_algo.c ****     ccG = (int64_t) inR * colorConv.coeff[1][0] + (int64_t) inG * colorConv.coeff[1][1] + (int64_t)
 1537              		.loc 1 561 105 view .LVU451
 1538 004a A0FB0401 		umull	r0, r1, r0, r4
 1539 004e 04FB0C11 		mla	r1, r4, ip, r1
 561:Lib/Camera_Middleware/ISP_Library/isp/Src/isp_algo.c ****     ccG = (int64_t) inR * colorConv.coeff[1][0] + (int64_t) inG * colorConv.coeff[1][1] + (int64_t)
 1540              		.loc 1 561 9 view .LVU452
 1541 0052 1818     		adds	r0, r3, r0
 562:Lib/Camera_Middleware/ISP_Library/isp/Src/isp_algo.c ****     ccB = (int64_t) inR * colorConv.coeff[2][0] + (int64_t) inG * colorConv.coeff[2][1] + (int64_t)
 1542              		.loc 1 562 45 view .LVU453
 1543 0054 049B     		ldr	r3, [sp, #16]
 561:Lib/Camera_Middleware/ISP_Library/isp/Src/isp_algo.c ****     ccG = (int64_t) inR * colorConv.coeff[1][0] + (int64_t) inG * colorConv.coeff[1][1] + (int64_t)
 1544              		.loc 1 561 9 view .LVU454
 1545 0056 41EB0701 		adc	r1, r1, r7
 1546              	.LVL131:
 562:Lib/Camera_Middleware/ISP_Library/isp/Src/isp_algo.c ****     ccB = (int64_t) inR * colorConv.coeff[2][0] + (int64_t) inG * colorConv.coeff[2][1] + (int64_t)
 1547              		.loc 1 562 5 is_stmt 1 view .LVU455
 562:Lib/Camera_Middleware/ISP_Library/isp/Src/isp_algo.c ****     ccB = (int64_t) inR * colorConv.coeff[2][0] + (int64_t) inG * colorConv.coeff[2][1] + (int64_t)
 1548              		.loc 1 562 45 is_stmt 0 view .LVU456
 1549 005a DF17     		asrs	r7, r3, #31
 562:Lib/Camera_Middleware/ISP_Library/isp/Src/isp_algo.c ****     ccB = (int64_t) inR * colorConv.coeff[2][0] + (int64_t) inG * colorConv.coeff[2][1] + (int64_t)
 1550              		.loc 1 562 25 view .LVU457
 1551 005c A3FB0683 		umull	r8, r3, r3, r6
 1552 0060 06FB0733 		mla	r3, r6, r7, r3
 562:Lib/Camera_Middleware/ISP_Library/isp/Src/isp_algo.c ****     ccB = (int64_t) inR * colorConv.coeff[2][0] + (int64_t) inG * colorConv.coeff[2][1] + (int64_t)
 1553              		.loc 1 562 85 view .LVU458
 1554 0064 059F     		ldr	r7, [sp, #20]
 562:Lib/Camera_Middleware/ISP_Library/isp/Src/isp_algo.c ****     ccB = (int64_t) inR * colorConv.coeff[2][0] + (int64_t) inG * colorConv.coeff[2][1] + (int64_t)
 1555              		.loc 1 562 65 view .LVU459
 1556 0066 A7FB05CE 		umull	ip, lr, r7, r5
 562:Lib/Camera_Middleware/ISP_Library/isp/Src/isp_algo.c ****     ccB = (int64_t) inR * colorConv.coeff[2][0] + (int64_t) inG * colorConv.coeff[2][1] + (int64_t)
 1557              		.loc 1 562 85 view .LVU460
 1558 006a 4FEAE779 		asr	r9, r7, #31
 562:Lib/Camera_Middleware/ISP_Library/isp/Src/isp_algo.c ****     ccB = (int64_t) inR * colorConv.coeff[2][0] + (int64_t) inG * colorConv.coeff[2][1] + (int64_t)
 1559              		.loc 1 562 65 view .LVU461
 1560 006e 05FB09EE 		mla	lr, r5, r9, lr
 562:Lib/Camera_Middleware/ISP_Library/isp/Src/isp_algo.c ****     ccB = (int64_t) inR * colorConv.coeff[2][0] + (int64_t) inG * colorConv.coeff[2][1] + (int64_t)
 1561              		.loc 1 562 49 view .LVU462
ARM GAS  C:\Users\DJESSOU\AppData\Local\Temp\ccch1XY5.s 			page 56


 1562 0072 18EB0C07 		adds	r7, r8, ip
 562:Lib/Camera_Middleware/ISP_Library/isp/Src/isp_algo.c ****     ccB = (int64_t) inR * colorConv.coeff[2][0] + (int64_t) inG * colorConv.coeff[2][1] + (int64_t)
 1563              		.loc 1 562 125 view .LVU463
 1564 0076 DDF818C0 		ldr	ip, [sp, #24]
 562:Lib/Camera_Middleware/ISP_Library/isp/Src/isp_algo.c ****     ccB = (int64_t) inR * colorConv.coeff[2][0] + (int64_t) inG * colorConv.coeff[2][1] + (int64_t)
 1565              		.loc 1 562 49 view .LVU464
 1566 007a 43EB0E03 		adc	r3, r3, lr
 562:Lib/Camera_Middleware/ISP_Library/isp/Src/isp_algo.c ****     ccB = (int64_t) inR * colorConv.coeff[2][0] + (int64_t) inG * colorConv.coeff[2][1] + (int64_t)
 1567              		.loc 1 562 125 view .LVU465
 1568 007e 4FEAEC7E 		asr	lr, ip, #31
 562:Lib/Camera_Middleware/ISP_Library/isp/Src/isp_algo.c ****     ccB = (int64_t) inR * colorConv.coeff[2][0] + (int64_t) inG * colorConv.coeff[2][1] + (int64_t)
 1569              		.loc 1 562 105 view .LVU466
 1570 0082 ACFB04C8 		umull	ip, r8, ip, r4
 1571 0086 04FB0E88 		mla	r8, r4, lr, r8
 562:Lib/Camera_Middleware/ISP_Library/isp/Src/isp_algo.c ****     ccB = (int64_t) inR * colorConv.coeff[2][0] + (int64_t) inG * colorConv.coeff[2][1] + (int64_t)
 1572              		.loc 1 562 9 view .LVU467
 1573 008a 17EB0C07 		adds	r7, r7, ip
 1574 008e 48EB0308 		adc	r8, r8, r3
 1575              	.LVL132:
 563:Lib/Camera_Middleware/ISP_Library/isp/Src/isp_algo.c **** 
 1576              		.loc 1 563 5 is_stmt 1 view .LVU468
 563:Lib/Camera_Middleware/ISP_Library/isp/Src/isp_algo.c **** 
 1577              		.loc 1 563 45 is_stmt 0 view .LVU469
 1578 0092 079B     		ldr	r3, [sp, #28]
 1579 0094 4FEAE37C 		asr	ip, r3, #31
 563:Lib/Camera_Middleware/ISP_Library/isp/Src/isp_algo.c **** 
 1580              		.loc 1 563 25 view .LVU470
 1581 0098 A3FB06E3 		umull	lr, r3, r3, r6
 1582 009c 06FB0C3C 		mla	ip, r6, ip, r3
 563:Lib/Camera_Middleware/ISP_Library/isp/Src/isp_algo.c **** 
 1583              		.loc 1 563 85 view .LVU471
 1584 00a0 089B     		ldr	r3, [sp, #32]
 1585 00a2 4FEAE379 		asr	r9, r3, #31
 563:Lib/Camera_Middleware/ISP_Library/isp/Src/isp_algo.c **** 
 1586              		.loc 1 563 65 view .LVU472
 1587 00a6 A3FB0536 		umull	r3, r6, r3, r5
 1588              	.LVL133:
 563:Lib/Camera_Middleware/ISP_Library/isp/Src/isp_algo.c **** 
 1589              		.loc 1 563 65 view .LVU473
 1590 00aa 05FB0965 		mla	r5, r5, r9, r6
 1591              	.LVL134:
 563:Lib/Camera_Middleware/ISP_Library/isp/Src/isp_algo.c **** 
 1592              		.loc 1 563 49 view .LVU474
 1593 00ae 1EEB0303 		adds	r3, lr, r3
 1594 00b2 4CEB050C 		adc	ip, ip, r5
 563:Lib/Camera_Middleware/ISP_Library/isp/Src/isp_algo.c **** 
 1595              		.loc 1 563 125 view .LVU475
 1596 00b6 099D     		ldr	r5, [sp, #36]
 1597 00b8 4FEAE57E 		asr	lr, r5, #31
 563:Lib/Camera_Middleware/ISP_Library/isp/Src/isp_algo.c **** 
 1598              		.loc 1 563 105 view .LVU476
 1599 00bc A5FB0456 		umull	r5, r6, r5, r4
 1600 00c0 04FB0E66 		mla	r6, r4, lr, r6
 563:Lib/Camera_Middleware/ISP_Library/isp/Src/isp_algo.c **** 
 1601              		.loc 1 563 9 view .LVU477
 1602 00c4 5C19     		adds	r4, r3, r5
 1603              	.LVL135:
ARM GAS  C:\Users\DJESSOU\AppData\Local\Temp\ccch1XY5.s 			page 57


 570:Lib/Camera_Middleware/ISP_Library/isp/Src/isp_algo.c ****     ccG = (ccG < 0) ? 0 : (ccG > 255) ? 255 : ccG;
 1604              		.loc 1 570 25 view .LVU478
 1605 00c6 4FF0FF33 		mov	r3, #-1
 1606 00ca 294D     		ldr	r5, .L147+8
 563:Lib/Camera_Middleware/ISP_Library/isp/Src/isp_algo.c **** 
 1607              		.loc 1 563 9 view .LVU479
 1608 00cc 46EB0C06 		adc	r6, r6, ip
 1609              	.LVL136:
 565:Lib/Camera_Middleware/ISP_Library/isp/Src/isp_algo.c ****     ccG /= ISP_CCM_PRECISION_FACTOR;
 1610              		.loc 1 565 5 is_stmt 1 view .LVU480
 566:Lib/Camera_Middleware/ISP_Library/isp/Src/isp_algo.c ****     ccB /= ISP_CCM_PRECISION_FACTOR;
 1611              		.loc 1 566 5 view .LVU481
 567:Lib/Camera_Middleware/ISP_Library/isp/Src/isp_algo.c **** 
 1612              		.loc 1 567 5 view .LVU482
 570:Lib/Camera_Middleware/ISP_Library/isp/Src/isp_algo.c ****     ccG = (ccG < 0) ? 0 : (ccG > 255) ? 255 : ccG;
 1613              		.loc 1 570 5 view .LVU483
 570:Lib/Camera_Middleware/ISP_Library/isp/Src/isp_algo.c ****     ccG = (ccG < 0) ? 0 : (ccG > 255) ? 255 : ccG;
 1614              		.loc 1 570 25 is_stmt 0 view .LVU484
 1615 00d0 A842     		cmp	r0, r5
 1616 00d2 71EB0303 		sbcs	r3, r1, r3
 1617 00d6 3FDB     		blt	.L144
 565:Lib/Camera_Middleware/ISP_Library/isp/Src/isp_algo.c ****     ccG /= ISP_CCM_PRECISION_FACTOR;
 1618              		.loc 1 565 9 view .LVU485
 1619 00d8 23A3     		adr	r3, .L147
 1620 00da D3E90023 		ldrd	r2, [r3]
 1621 00de FFF7FEFF 		bl	__aeabi_ldivmod
 1622              	.LVL137:
 570:Lib/Camera_Middleware/ISP_Library/isp/Src/isp_algo.c ****     ccG = (ccG < 0) ? 0 : (ccG > 255) ? 255 : ccG;
 1623              		.loc 1 570 25 discriminator 1 view .LVU486
 1624 00e2 B0F5807F 		cmp	r0, #256
 1625 00e6 71F10001 		sbcs	r1, r1, #0
 1626 00ea 8146     		mov	r9, r0
 1627 00ec 01DB     		blt	.L138
 1628 00ee 4FF0FF09 		mov	r9, #255
 1629              	.L138:
 571:Lib/Camera_Middleware/ISP_Library/isp/Src/isp_algo.c ****     ccB = (ccB < 0) ? 0 : (ccB > 255) ? 255 : ccB;
 1630              		.loc 1 571 5 is_stmt 1 view .LVU487
 571:Lib/Camera_Middleware/ISP_Library/isp/Src/isp_algo.c ****     ccB = (ccB < 0) ? 0 : (ccB > 255) ? 255 : ccB;
 1631              		.loc 1 571 25 is_stmt 0 view .LVU488
 1632 00f2 4FF0FF33 		mov	r3, #-1
 1633 00f6 AF42     		cmp	r7, r5
 1634 00f8 78EB0303 		sbcs	r3, r8, r3
 1635 00fc 2EDB     		blt	.L145
 566:Lib/Camera_Middleware/ISP_Library/isp/Src/isp_algo.c ****     ccB /= ISP_CCM_PRECISION_FACTOR;
 1636              		.loc 1 566 9 view .LVU489
 1637 00fe 1AA3     		adr	r3, .L147
 1638 0100 D3E90023 		ldrd	r2, [r3]
 1639 0104 3846     		mov	r0, r7
 1640 0106 4146     		mov	r1, r8
 1641 0108 FFF7FEFF 		bl	__aeabi_ldivmod
 1642              	.LVL138:
 571:Lib/Camera_Middleware/ISP_Library/isp/Src/isp_algo.c ****     ccB = (ccB < 0) ? 0 : (ccB > 255) ? 255 : ccB;
 1643              		.loc 1 571 25 discriminator 1 view .LVU490
 1644 010c B0F5807F 		cmp	r0, #256
 1645 0110 71F10001 		sbcs	r1, r1, #0
 1646 0114 0746     		mov	r7, r0
 1647              	.LVL139:
ARM GAS  C:\Users\DJESSOU\AppData\Local\Temp\ccch1XY5.s 			page 58


 571:Lib/Camera_Middleware/ISP_Library/isp/Src/isp_algo.c ****     ccB = (ccB < 0) ? 0 : (ccB > 255) ? 255 : ccB;
 1648              		.loc 1 571 25 discriminator 1 view .LVU491
 1649 0116 00DB     		blt	.L140
 1650 0118 FF27     		movs	r7, #255
 1651              	.L140:
 572:Lib/Camera_Middleware/ISP_Library/isp/Src/isp_algo.c **** 
 1652              		.loc 1 572 5 is_stmt 1 view .LVU492
 572:Lib/Camera_Middleware/ISP_Library/isp/Src/isp_algo.c **** 
 1653              		.loc 1 572 25 is_stmt 0 view .LVU493
 1654 011a 4FF0FF33 		mov	r3, #-1
 1655 011e AC42     		cmp	r4, r5
 1656 0120 76EB0303 		sbcs	r3, r6, r3
 1657 0124 1CDB     		blt	.L146
 567:Lib/Camera_Middleware/ISP_Library/isp/Src/isp_algo.c **** 
 1658              		.loc 1 567 9 view .LVU494
 1659 0126 10A3     		adr	r3, .L147
 1660 0128 D3E90023 		ldrd	r2, [r3]
 1661 012c 2046     		mov	r0, r4
 1662 012e 3146     		mov	r1, r6
 1663 0130 FFF7FEFF 		bl	__aeabi_ldivmod
 1664              	.LVL140:
 572:Lib/Camera_Middleware/ISP_Library/isp/Src/isp_algo.c **** 
 1665              		.loc 1 572 25 discriminator 1 view .LVU495
 1666 0134 B0F5807F 		cmp	r0, #256
 1667 0138 71F10001 		sbcs	r1, r1, #0
 1668 013c 0446     		mov	r4, r0
 1669              	.LVL141:
 572:Lib/Camera_Middleware/ISP_Library/isp/Src/isp_algo.c **** 
 1670              		.loc 1 572 25 discriminator 1 view .LVU496
 1671 013e 00DB     		blt	.L142
 1672 0140 FF24     		movs	r4, #255
 1673              	.L142:
 574:Lib/Camera_Middleware/ISP_Library/isp/Src/isp_algo.c ****     *outG = (uint32_t) ccG;
 1674              		.loc 1 574 5 is_stmt 1 view .LVU497
 574:Lib/Camera_Middleware/ISP_Library/isp/Src/isp_algo.c ****     *outG = (uint32_t) ccG;
 1675              		.loc 1 574 13 is_stmt 0 view .LVU498
 1676 0142 4E46     		mov	r6, r9
 575:Lib/Camera_Middleware/ISP_Library/isp/Src/isp_algo.c ****     *outB = (uint32_t) ccB;
 1677              		.loc 1 575 5 is_stmt 1 view .LVU499
 575:Lib/Camera_Middleware/ISP_Library/isp/Src/isp_algo.c ****     *outB = (uint32_t) ccB;
 1678              		.loc 1 575 13 is_stmt 0 view .LVU500
 1679 0144 3D46     		mov	r5, r7
 576:Lib/Camera_Middleware/ISP_Library/isp/Src/isp_algo.c ****   }
 1680              		.loc 1 576 5 is_stmt 1 view .LVU501
 1681              	.LVL142:
 1682              	.L137:
 574:Lib/Camera_Middleware/ISP_Library/isp/Src/isp_algo.c ****     *outG = (uint32_t) ccG;
 1683              		.loc 1 574 11 is_stmt 0 view .LVU502
 1684 0146 129B     		ldr	r3, [sp, #72]
 1685 0148 1E60     		str	r6, [r3]
 575:Lib/Camera_Middleware/ISP_Library/isp/Src/isp_algo.c ****     *outB = (uint32_t) ccB;
 1686              		.loc 1 575 11 view .LVU503
 1687 014a 139B     		ldr	r3, [sp, #76]
 1688 014c 1D60     		str	r5, [r3]
 576:Lib/Camera_Middleware/ISP_Library/isp/Src/isp_algo.c ****   }
 1689              		.loc 1 576 11 view .LVU504
 1690 014e 149B     		ldr	r3, [sp, #80]
ARM GAS  C:\Users\DJESSOU\AppData\Local\Temp\ccch1XY5.s 			page 59


 1691 0150 1C60     		str	r4, [r3]
 584:Lib/Camera_Middleware/ISP_Library/isp/Src/isp_algo.c **** 
 1692              		.loc 1 584 1 view .LVU505
 1693 0152 0BB0     		add	sp, sp, #44
 1694              		.cfi_remember_state
 1695              		.cfi_def_cfa_offset 28
 1696              		@ sp needed
 1697 0154 BDE8F083 		pop	{r4, r5, r6, r7, r8, r9, pc}
 1698              	.LVL143:
 1699              	.L144:
 1700              		.cfi_restore_state
 570:Lib/Camera_Middleware/ISP_Library/isp/Src/isp_algo.c ****     ccG = (ccG < 0) ? 0 : (ccG > 255) ? 255 : ccG;
 1701              		.loc 1 570 25 discriminator 2 view .LVU506
 1702 0158 9146     		mov	r9, r2
 1703 015a CAE7     		b	.L138
 1704              	.LVL144:
 1705              	.L145:
 571:Lib/Camera_Middleware/ISP_Library/isp/Src/isp_algo.c ****     ccB = (ccB < 0) ? 0 : (ccB > 255) ? 255 : ccB;
 1706              		.loc 1 571 25 discriminator 2 view .LVU507
 1707 015c 0027     		movs	r7, #0
 1708              	.LVL145:
 571:Lib/Camera_Middleware/ISP_Library/isp/Src/isp_algo.c ****     ccB = (ccB < 0) ? 0 : (ccB > 255) ? 255 : ccB;
 1709              		.loc 1 571 25 discriminator 2 view .LVU508
 1710 015e DCE7     		b	.L140
 1711              	.L146:
 572:Lib/Camera_Middleware/ISP_Library/isp/Src/isp_algo.c **** 
 1712              		.loc 1 572 25 discriminator 2 view .LVU509
 1713 0160 0024     		movs	r4, #0
 1714              	.LVL146:
 572:Lib/Camera_Middleware/ISP_Library/isp/Src/isp_algo.c **** 
 1715              		.loc 1 572 25 discriminator 2 view .LVU510
 1716 0162 EEE7     		b	.L142
 1717              	.L148:
 1718 0164 AFF30080 		.align	3
 1719              	.L147:
 1720 0168 00E1F505 		.word	100000000
 1721 016c 00000000 		.word	0
 1722 0170 011F0AFA 		.word	-99999999
 1723              		.cfi_endproc
 1724              	.LFE873:
 1726              		.section	.text.ISP_Algo_Init,"ax",%progbits
 1727              		.align	1
 1728              		.global	ISP_Algo_Init
 1729              		.syntax unified
 1730              		.thumb
 1731              		.thumb_func
 1733              	ISP_Algo_Init:
 1734              	.LVL147:
 1735              	.LFB882:
1171:Lib/Camera_Middleware/ISP_Library/isp/Src/isp_algo.c **** 
1172:Lib/Camera_Middleware/ISP_Library/isp/Src/isp_algo.c **** /* Exported functions --------------------------------------------------------*/
1173:Lib/Camera_Middleware/ISP_Library/isp/Src/isp_algo.c **** /**
1174:Lib/Camera_Middleware/ISP_Library/isp/Src/isp_algo.c ****   * @brief  ISP_Algo_Init
1175:Lib/Camera_Middleware/ISP_Library/isp/Src/isp_algo.c ****   *         Register and initialize all the algorithms
1176:Lib/Camera_Middleware/ISP_Library/isp/Src/isp_algo.c ****   * @param  hIsp: ISP device handle
1177:Lib/Camera_Middleware/ISP_Library/isp/Src/isp_algo.c ****   * @retval operation result
1178:Lib/Camera_Middleware/ISP_Library/isp/Src/isp_algo.c ****   */
ARM GAS  C:\Users\DJESSOU\AppData\Local\Temp\ccch1XY5.s 			page 60


1179:Lib/Camera_Middleware/ISP_Library/isp/Src/isp_algo.c **** ISP_StatusTypeDef ISP_Algo_Init(ISP_HandleTypeDef *hIsp)
1180:Lib/Camera_Middleware/ISP_Library/isp/Src/isp_algo.c **** {
 1736              		.loc 1 1180 1 is_stmt 1 view -0
 1737              		.cfi_startproc
 1738              		@ args = 0, pretend = 0, frame = 0
 1739              		@ frame_needed = 0, uses_anonymous_args = 0
1181:Lib/Camera_Middleware/ISP_Library/isp/Src/isp_algo.c ****   ISP_AlgoTypeDef *algo;
 1740              		.loc 1 1181 3 view .LVU512
1182:Lib/Camera_Middleware/ISP_Library/isp/Src/isp_algo.c ****   ISP_StatusTypeDef ret;
 1741              		.loc 1 1182 3 view .LVU513
1183:Lib/Camera_Middleware/ISP_Library/isp/Src/isp_algo.c ****   uint8_t i;
 1742              		.loc 1 1183 3 view .LVU514
1184:Lib/Camera_Middleware/ISP_Library/isp/Src/isp_algo.c **** 
1185:Lib/Camera_Middleware/ISP_Library/isp/Src/isp_algo.c ****   hIsp->algorithm = ISP_Algo_List;
 1743              		.loc 1 1185 3 view .LVU515
1180:Lib/Camera_Middleware/ISP_Library/isp/Src/isp_algo.c ****   ISP_AlgoTypeDef *algo;
 1744              		.loc 1 1180 1 is_stmt 0 view .LVU516
 1745 0000 38B5     		push	{r3, r4, r5, lr}
 1746              		.cfi_def_cfa_offset 16
 1747              		.cfi_offset 3, -16
 1748              		.cfi_offset 4, -12
 1749              		.cfi_offset 5, -8
 1750              		.cfi_offset 14, -4
1180:Lib/Camera_Middleware/ISP_Library/isp/Src/isp_algo.c ****   ISP_AlgoTypeDef *algo;
 1751              		.loc 1 1180 1 view .LVU517
 1752 0002 0446     		mov	r4, r0
 1753              		.loc 1 1185 19 view .LVU518
 1754 0004 0025     		movs	r5, #0
 1755 0006 094B     		ldr	r3, .L161
 1756 0008 8361     		str	r3, [r0, #24]
1186:Lib/Camera_Middleware/ISP_Library/isp/Src/isp_algo.c **** 
1187:Lib/Camera_Middleware/ISP_Library/isp/Src/isp_algo.c ****   for (i = 0; i < sizeof(ISP_Algo_List) / sizeof(*ISP_Algo_List); i++)
 1757              		.loc 1 1187 3 is_stmt 1 view .LVU519
 1758              	.LVL148:
 1759              		.loc 1 1187 17 discriminator 1 view .LVU520
 1760              	.L151:
1188:Lib/Camera_Middleware/ISP_Library/isp/Src/isp_algo.c ****   {
1189:Lib/Camera_Middleware/ISP_Library/isp/Src/isp_algo.c ****     algo = hIsp->algorithm[i];
 1761              		.loc 1 1189 5 view .LVU521
 1762              		.loc 1 1189 10 is_stmt 0 view .LVU522
 1763 000a A369     		ldr	r3, [r4, #24]
 1764 000c 5959     		ldr	r1, [r3, r5]
 1765              	.LVL149:
1190:Lib/Camera_Middleware/ISP_Library/isp/Src/isp_algo.c ****     if ((algo != NULL) && (algo->Init != NULL))
 1766              		.loc 1 1190 5 is_stmt 1 view .LVU523
 1767              		.loc 1 1190 8 is_stmt 0 view .LVU524
 1768 000e 21B9     		cbnz	r1, .L150
 1769              	.LVL150:
 1770              	.L153:
1187:Lib/Camera_Middleware/ISP_Library/isp/Src/isp_algo.c ****   {
 1771              		.loc 1 1187 68 is_stmt 1 discriminator 2 view .LVU525
1187:Lib/Camera_Middleware/ISP_Library/isp/Src/isp_algo.c ****   {
 1772              		.loc 1 1187 17 discriminator 1 view .LVU526
 1773 0010 0435     		adds	r5, r5, #4
 1774              	.LVL151:
1187:Lib/Camera_Middleware/ISP_Library/isp/Src/isp_algo.c ****   {
 1775              		.loc 1 1187 17 is_stmt 0 discriminator 1 view .LVU527
ARM GAS  C:\Users\DJESSOU\AppData\Local\Temp\ccch1XY5.s 			page 61


 1776 0012 102D     		cmp	r5, #16
 1777 0014 F9D1     		bne	.L151
1191:Lib/Camera_Middleware/ISP_Library/isp/Src/isp_algo.c ****     {
1192:Lib/Camera_Middleware/ISP_Library/isp/Src/isp_algo.c ****       ret = algo->Init((void*)hIsp, (void*)algo);
1193:Lib/Camera_Middleware/ISP_Library/isp/Src/isp_algo.c ****       if (ret != ISP_OK)
1194:Lib/Camera_Middleware/ISP_Library/isp/Src/isp_algo.c ****       {
1195:Lib/Camera_Middleware/ISP_Library/isp/Src/isp_algo.c ****         return ret;
1196:Lib/Camera_Middleware/ISP_Library/isp/Src/isp_algo.c ****       }
1197:Lib/Camera_Middleware/ISP_Library/isp/Src/isp_algo.c ****     }
1198:Lib/Camera_Middleware/ISP_Library/isp/Src/isp_algo.c ****   }
1199:Lib/Camera_Middleware/ISP_Library/isp/Src/isp_algo.c **** 
1200:Lib/Camera_Middleware/ISP_Library/isp/Src/isp_algo.c **** #ifdef ALGO_PERF_DBG_LOGS
1201:Lib/Camera_Middleware/ISP_Library/isp/Src/isp_algo.c ****   CoreDebug->DEMCR |= CoreDebug_DEMCR_TRCENA_Msk;
1202:Lib/Camera_Middleware/ISP_Library/isp/Src/isp_algo.c ****   DWT->CYCCNT = 0;
1203:Lib/Camera_Middleware/ISP_Library/isp/Src/isp_algo.c ****   DWT->CTRL |= DWT_CTRL_CYCCNTENA_Msk;
1204:Lib/Camera_Middleware/ISP_Library/isp/Src/isp_algo.c **** #endif
1205:Lib/Camera_Middleware/ISP_Library/isp/Src/isp_algo.c **** 
1206:Lib/Camera_Middleware/ISP_Library/isp/Src/isp_algo.c ****   return ISP_OK;
 1778              		.loc 1 1206 10 view .LVU528
 1779 0016 0020     		movs	r0, #0
 1780              	.LVL152:
 1781              	.L152:
1207:Lib/Camera_Middleware/ISP_Library/isp/Src/isp_algo.c **** }
 1782              		.loc 1 1207 1 view .LVU529
 1783 0018 38BD     		pop	{r3, r4, r5, pc}
 1784              	.LVL153:
 1785              	.L150:
1190:Lib/Camera_Middleware/ISP_Library/isp/Src/isp_algo.c ****     {
 1786              		.loc 1 1190 32 discriminator 1 view .LVU530
 1787 001a 4B68     		ldr	r3, [r1, #4]
1190:Lib/Camera_Middleware/ISP_Library/isp/Src/isp_algo.c ****     {
 1788              		.loc 1 1190 24 discriminator 1 view .LVU531
 1789 001c 002B     		cmp	r3, #0
 1790 001e F7D0     		beq	.L153
1192:Lib/Camera_Middleware/ISP_Library/isp/Src/isp_algo.c ****       if (ret != ISP_OK)
 1791              		.loc 1 1192 7 is_stmt 1 view .LVU532
1192:Lib/Camera_Middleware/ISP_Library/isp/Src/isp_algo.c ****       if (ret != ISP_OK)
 1792              		.loc 1 1192 13 is_stmt 0 view .LVU533
 1793 0020 2046     		mov	r0, r4
 1794 0022 9847     		blx	r3
 1795              	.LVL154:
1193:Lib/Camera_Middleware/ISP_Library/isp/Src/isp_algo.c ****       {
 1796              		.loc 1 1193 7 is_stmt 1 view .LVU534
1193:Lib/Camera_Middleware/ISP_Library/isp/Src/isp_algo.c ****       {
 1797              		.loc 1 1193 10 is_stmt 0 view .LVU535
 1798 0024 0028     		cmp	r0, #0
 1799 0026 F3D0     		beq	.L153
 1800 0028 F6E7     		b	.L152
 1801              	.L162:
 1802 002a 00BF     		.align	2
 1803              	.L161:
 1804 002c 00000000 		.word	ISP_Algo_List
 1805              		.cfi_endproc
 1806              	.LFE882:
 1808              		.section	.text.ISP_Algo_DeInit,"ax",%progbits
 1809              		.align	1
 1810              		.global	ISP_Algo_DeInit
ARM GAS  C:\Users\DJESSOU\AppData\Local\Temp\ccch1XY5.s 			page 62


 1811              		.syntax unified
 1812              		.thumb
 1813              		.thumb_func
 1815              	ISP_Algo_DeInit:
 1816              	.LVL155:
 1817              	.LFB883:
1208:Lib/Camera_Middleware/ISP_Library/isp/Src/isp_algo.c **** 
1209:Lib/Camera_Middleware/ISP_Library/isp/Src/isp_algo.c **** /**
1210:Lib/Camera_Middleware/ISP_Library/isp/Src/isp_algo.c ****   * @brief  ISP_Algo_DeInit
1211:Lib/Camera_Middleware/ISP_Library/isp/Src/isp_algo.c ****   *         Deinitialize all the algorithms
1212:Lib/Camera_Middleware/ISP_Library/isp/Src/isp_algo.c ****   * @param  hIsp: ISP device handle
1213:Lib/Camera_Middleware/ISP_Library/isp/Src/isp_algo.c ****   * @retval operation result
1214:Lib/Camera_Middleware/ISP_Library/isp/Src/isp_algo.c ****   */
1215:Lib/Camera_Middleware/ISP_Library/isp/Src/isp_algo.c **** ISP_StatusTypeDef ISP_Algo_DeInit(ISP_HandleTypeDef *hIsp)
1216:Lib/Camera_Middleware/ISP_Library/isp/Src/isp_algo.c **** {
 1818              		.loc 1 1216 1 is_stmt 1 view -0
 1819              		.cfi_startproc
 1820              		@ args = 0, pretend = 0, frame = 0
 1821              		@ frame_needed = 0, uses_anonymous_args = 0
1217:Lib/Camera_Middleware/ISP_Library/isp/Src/isp_algo.c ****   ISP_AlgoTypeDef *algo;
 1822              		.loc 1 1217 3 view .LVU537
1218:Lib/Camera_Middleware/ISP_Library/isp/Src/isp_algo.c ****   ISP_StatusTypeDef ret;
 1823              		.loc 1 1218 3 view .LVU538
1219:Lib/Camera_Middleware/ISP_Library/isp/Src/isp_algo.c ****   uint8_t i;
 1824              		.loc 1 1219 3 view .LVU539
1220:Lib/Camera_Middleware/ISP_Library/isp/Src/isp_algo.c **** 
1221:Lib/Camera_Middleware/ISP_Library/isp/Src/isp_algo.c ****   for (i = 0; i < sizeof(ISP_Algo_List) / sizeof(*ISP_Algo_List); i++)
 1825              		.loc 1 1221 3 view .LVU540
 1826              		.loc 1 1221 17 discriminator 1 view .LVU541
1216:Lib/Camera_Middleware/ISP_Library/isp/Src/isp_algo.c ****   ISP_AlgoTypeDef *algo;
 1827              		.loc 1 1216 1 is_stmt 0 view .LVU542
 1828 0000 38B5     		push	{r3, r4, r5, lr}
 1829              		.cfi_def_cfa_offset 16
 1830              		.cfi_offset 3, -16
 1831              		.cfi_offset 4, -12
 1832              		.cfi_offset 5, -8
 1833              		.cfi_offset 14, -4
1216:Lib/Camera_Middleware/ISP_Library/isp/Src/isp_algo.c ****   ISP_AlgoTypeDef *algo;
 1834              		.loc 1 1216 1 view .LVU543
 1835 0002 0446     		mov	r4, r0
 1836 0004 0025     		movs	r5, #0
 1837              	.LVL156:
 1838              	.L165:
1222:Lib/Camera_Middleware/ISP_Library/isp/Src/isp_algo.c ****   {
1223:Lib/Camera_Middleware/ISP_Library/isp/Src/isp_algo.c ****     algo = hIsp->algorithm[i];
 1839              		.loc 1 1223 5 is_stmt 1 view .LVU544
 1840              		.loc 1 1223 10 is_stmt 0 view .LVU545
 1841 0006 A369     		ldr	r3, [r4, #24]
 1842 0008 5959     		ldr	r1, [r3, r5]
 1843              	.LVL157:
1224:Lib/Camera_Middleware/ISP_Library/isp/Src/isp_algo.c ****     if ((algo != NULL) && (algo->DeInit != NULL))
 1844              		.loc 1 1224 5 is_stmt 1 view .LVU546
 1845              		.loc 1 1224 8 is_stmt 0 view .LVU547
 1846 000a 21B9     		cbnz	r1, .L164
 1847              	.LVL158:
 1848              	.L167:
1221:Lib/Camera_Middleware/ISP_Library/isp/Src/isp_algo.c ****   {
ARM GAS  C:\Users\DJESSOU\AppData\Local\Temp\ccch1XY5.s 			page 63


 1849              		.loc 1 1221 68 is_stmt 1 discriminator 2 view .LVU548
1221:Lib/Camera_Middleware/ISP_Library/isp/Src/isp_algo.c ****   {
 1850              		.loc 1 1221 17 discriminator 1 view .LVU549
 1851 000c 0435     		adds	r5, r5, #4
 1852              	.LVL159:
1221:Lib/Camera_Middleware/ISP_Library/isp/Src/isp_algo.c ****   {
 1853              		.loc 1 1221 17 is_stmt 0 discriminator 1 view .LVU550
 1854 000e 102D     		cmp	r5, #16
 1855 0010 F9D1     		bne	.L165
1225:Lib/Camera_Middleware/ISP_Library/isp/Src/isp_algo.c ****     {
1226:Lib/Camera_Middleware/ISP_Library/isp/Src/isp_algo.c ****       ret = algo->DeInit((void*)hIsp, (void*)algo);
1227:Lib/Camera_Middleware/ISP_Library/isp/Src/isp_algo.c ****       if (ret != ISP_OK)
1228:Lib/Camera_Middleware/ISP_Library/isp/Src/isp_algo.c ****       {
1229:Lib/Camera_Middleware/ISP_Library/isp/Src/isp_algo.c ****         return ret;
1230:Lib/Camera_Middleware/ISP_Library/isp/Src/isp_algo.c ****       }
1231:Lib/Camera_Middleware/ISP_Library/isp/Src/isp_algo.c ****     }
1232:Lib/Camera_Middleware/ISP_Library/isp/Src/isp_algo.c ****   }
1233:Lib/Camera_Middleware/ISP_Library/isp/Src/isp_algo.c **** 
1234:Lib/Camera_Middleware/ISP_Library/isp/Src/isp_algo.c ****   return ISP_OK;
 1856              		.loc 1 1234 10 view .LVU551
 1857 0012 0020     		movs	r0, #0
 1858              	.LVL160:
 1859              	.L166:
1235:Lib/Camera_Middleware/ISP_Library/isp/Src/isp_algo.c **** }
 1860              		.loc 1 1235 1 view .LVU552
 1861 0014 38BD     		pop	{r3, r4, r5, pc}
 1862              	.LVL161:
 1863              	.L164:
1224:Lib/Camera_Middleware/ISP_Library/isp/Src/isp_algo.c ****     {
 1864              		.loc 1 1224 32 discriminator 1 view .LVU553
 1865 0016 8B68     		ldr	r3, [r1, #8]
1224:Lib/Camera_Middleware/ISP_Library/isp/Src/isp_algo.c ****     {
 1866              		.loc 1 1224 24 discriminator 1 view .LVU554
 1867 0018 002B     		cmp	r3, #0
 1868 001a F7D0     		beq	.L167
1226:Lib/Camera_Middleware/ISP_Library/isp/Src/isp_algo.c ****       if (ret != ISP_OK)
 1869              		.loc 1 1226 7 is_stmt 1 view .LVU555
1226:Lib/Camera_Middleware/ISP_Library/isp/Src/isp_algo.c ****       if (ret != ISP_OK)
 1870              		.loc 1 1226 13 is_stmt 0 view .LVU556
 1871 001c 2046     		mov	r0, r4
 1872 001e 9847     		blx	r3
 1873              	.LVL162:
1227:Lib/Camera_Middleware/ISP_Library/isp/Src/isp_algo.c ****       {
 1874              		.loc 1 1227 7 is_stmt 1 view .LVU557
1227:Lib/Camera_Middleware/ISP_Library/isp/Src/isp_algo.c ****       {
 1875              		.loc 1 1227 10 is_stmt 0 view .LVU558
 1876 0020 0028     		cmp	r0, #0
 1877 0022 F3D0     		beq	.L167
 1878 0024 F6E7     		b	.L166
 1879              		.cfi_endproc
 1880              	.LFE883:
 1882              		.section	.text.ISP_Algo_Process,"ax",%progbits
 1883              		.align	1
 1884              		.global	ISP_Algo_Process
 1885              		.syntax unified
 1886              		.thumb
 1887              		.thumb_func
ARM GAS  C:\Users\DJESSOU\AppData\Local\Temp\ccch1XY5.s 			page 64


 1889              	ISP_Algo_Process:
 1890              	.LVL163:
 1891              	.LFB884:
1236:Lib/Camera_Middleware/ISP_Library/isp/Src/isp_algo.c **** 
1237:Lib/Camera_Middleware/ISP_Library/isp/Src/isp_algo.c **** /**
1238:Lib/Camera_Middleware/ISP_Library/isp/Src/isp_algo.c ****   * @brief  ISP_Algo_Process
1239:Lib/Camera_Middleware/ISP_Library/isp/Src/isp_algo.c ****   *         Process all the algorithms
1240:Lib/Camera_Middleware/ISP_Library/isp/Src/isp_algo.c ****   * @param  hIsp: ISP device handle
1241:Lib/Camera_Middleware/ISP_Library/isp/Src/isp_algo.c ****   * @retval operation result
1242:Lib/Camera_Middleware/ISP_Library/isp/Src/isp_algo.c ****   */
1243:Lib/Camera_Middleware/ISP_Library/isp/Src/isp_algo.c **** ISP_StatusTypeDef ISP_Algo_Process(ISP_HandleTypeDef *hIsp)
1244:Lib/Camera_Middleware/ISP_Library/isp/Src/isp_algo.c **** {
 1892              		.loc 1 1244 1 is_stmt 1 view -0
 1893              		.cfi_startproc
 1894              		@ args = 0, pretend = 0, frame = 0
 1895              		@ frame_needed = 0, uses_anonymous_args = 0
1245:Lib/Camera_Middleware/ISP_Library/isp/Src/isp_algo.c ****   ISP_AlgoTypeDef *algo;
 1896              		.loc 1 1245 3 view .LVU560
1246:Lib/Camera_Middleware/ISP_Library/isp/Src/isp_algo.c ****   ISP_StatusTypeDef ret;
 1897              		.loc 1 1246 3 view .LVU561
1247:Lib/Camera_Middleware/ISP_Library/isp/Src/isp_algo.c ****   uint8_t i;
 1898              		.loc 1 1247 3 view .LVU562
1248:Lib/Camera_Middleware/ISP_Library/isp/Src/isp_algo.c **** 
1249:Lib/Camera_Middleware/ISP_Library/isp/Src/isp_algo.c ****   for (i = 0; i < sizeof(ISP_Algo_List) / sizeof(*ISP_Algo_List); i++)
 1899              		.loc 1 1249 3 view .LVU563
 1900              		.loc 1 1249 17 discriminator 1 view .LVU564
1244:Lib/Camera_Middleware/ISP_Library/isp/Src/isp_algo.c ****   ISP_AlgoTypeDef *algo;
 1901              		.loc 1 1244 1 is_stmt 0 view .LVU565
 1902 0000 38B5     		push	{r3, r4, r5, lr}
 1903              		.cfi_def_cfa_offset 16
 1904              		.cfi_offset 3, -16
 1905              		.cfi_offset 4, -12
 1906              		.cfi_offset 5, -8
 1907              		.cfi_offset 14, -4
1244:Lib/Camera_Middleware/ISP_Library/isp/Src/isp_algo.c ****   ISP_AlgoTypeDef *algo;
 1908              		.loc 1 1244 1 view .LVU566
 1909 0002 0446     		mov	r4, r0
 1910 0004 0025     		movs	r5, #0
 1911              	.LVL164:
 1912              	.L177:
1250:Lib/Camera_Middleware/ISP_Library/isp/Src/isp_algo.c ****   {
1251:Lib/Camera_Middleware/ISP_Library/isp/Src/isp_algo.c ****     algo = hIsp->algorithm[i];
 1913              		.loc 1 1251 5 is_stmt 1 view .LVU567
 1914              		.loc 1 1251 10 is_stmt 0 view .LVU568
 1915 0006 A369     		ldr	r3, [r4, #24]
 1916 0008 5959     		ldr	r1, [r3, r5]
 1917              	.LVL165:
1252:Lib/Camera_Middleware/ISP_Library/isp/Src/isp_algo.c ****     if ((algo != NULL) && (algo->Process != NULL))
 1918              		.loc 1 1252 5 is_stmt 1 view .LVU569
 1919              		.loc 1 1252 8 is_stmt 0 view .LVU570
 1920 000a 21B9     		cbnz	r1, .L176
 1921              	.LVL166:
 1922              	.L179:
1249:Lib/Camera_Middleware/ISP_Library/isp/Src/isp_algo.c ****   {
 1923              		.loc 1 1249 68 is_stmt 1 discriminator 2 view .LVU571
1249:Lib/Camera_Middleware/ISP_Library/isp/Src/isp_algo.c ****   {
 1924              		.loc 1 1249 17 discriminator 1 view .LVU572
ARM GAS  C:\Users\DJESSOU\AppData\Local\Temp\ccch1XY5.s 			page 65


 1925 000c 0435     		adds	r5, r5, #4
 1926              	.LVL167:
1249:Lib/Camera_Middleware/ISP_Library/isp/Src/isp_algo.c ****   {
 1927              		.loc 1 1249 17 is_stmt 0 discriminator 1 view .LVU573
 1928 000e 102D     		cmp	r5, #16
 1929 0010 F9D1     		bne	.L177
1253:Lib/Camera_Middleware/ISP_Library/isp/Src/isp_algo.c ****     {
1254:Lib/Camera_Middleware/ISP_Library/isp/Src/isp_algo.c ****       ret = algo->Process((void*)hIsp, (void*)algo);
1255:Lib/Camera_Middleware/ISP_Library/isp/Src/isp_algo.c ****       if (ret != ISP_OK)
1256:Lib/Camera_Middleware/ISP_Library/isp/Src/isp_algo.c ****       {
1257:Lib/Camera_Middleware/ISP_Library/isp/Src/isp_algo.c ****         return ret;
1258:Lib/Camera_Middleware/ISP_Library/isp/Src/isp_algo.c ****       }
1259:Lib/Camera_Middleware/ISP_Library/isp/Src/isp_algo.c ****     }
1260:Lib/Camera_Middleware/ISP_Library/isp/Src/isp_algo.c ****   }
1261:Lib/Camera_Middleware/ISP_Library/isp/Src/isp_algo.c **** 
1262:Lib/Camera_Middleware/ISP_Library/isp/Src/isp_algo.c ****   return ISP_OK;
 1930              		.loc 1 1262 10 view .LVU574
 1931 0012 0020     		movs	r0, #0
 1932              	.LVL168:
 1933              	.L178:
1263:Lib/Camera_Middleware/ISP_Library/isp/Src/isp_algo.c **** }
 1934              		.loc 1 1263 1 view .LVU575
 1935 0014 38BD     		pop	{r3, r4, r5, pc}
 1936              	.LVL169:
 1937              	.L176:
1252:Lib/Camera_Middleware/ISP_Library/isp/Src/isp_algo.c ****     {
 1938              		.loc 1 1252 32 discriminator 1 view .LVU576
 1939 0016 CB68     		ldr	r3, [r1, #12]
1252:Lib/Camera_Middleware/ISP_Library/isp/Src/isp_algo.c ****     {
 1940              		.loc 1 1252 24 discriminator 1 view .LVU577
 1941 0018 002B     		cmp	r3, #0
 1942 001a F7D0     		beq	.L179
1254:Lib/Camera_Middleware/ISP_Library/isp/Src/isp_algo.c ****       if (ret != ISP_OK)
 1943              		.loc 1 1254 7 is_stmt 1 view .LVU578
1254:Lib/Camera_Middleware/ISP_Library/isp/Src/isp_algo.c ****       if (ret != ISP_OK)
 1944              		.loc 1 1254 13 is_stmt 0 view .LVU579
 1945 001c 2046     		mov	r0, r4
 1946 001e 9847     		blx	r3
 1947              	.LVL170:
1255:Lib/Camera_Middleware/ISP_Library/isp/Src/isp_algo.c ****       {
 1948              		.loc 1 1255 7 is_stmt 1 view .LVU580
1255:Lib/Camera_Middleware/ISP_Library/isp/Src/isp_algo.c ****       {
 1949              		.loc 1 1255 10 is_stmt 0 view .LVU581
 1950 0020 0028     		cmp	r0, #0
 1951 0022 F3D0     		beq	.L179
 1952 0024 F6E7     		b	.L178
 1953              		.cfi_endproc
 1954              	.LFE884:
 1956              		.section	.bss.stats.0,"aw",%nobits
 1957              		.align	2
 1960              	stats.0:
 1961 0000 00000000 		.space	120
 1961      00000000 
 1961      00000000 
 1961      00000000 
 1961      00000000 
 1962              		.section	.bss.currentColorTemp.1,"aw",%nobits
ARM GAS  C:\Users\DJESSOU\AppData\Local\Temp\ccch1XY5.s 			page 66


 1963              		.align	2
 1966              	currentColorTemp.1:
 1967 0000 00000000 		.space	4
 1968              		.section	.bss.stats.2,"aw",%nobits
 1969              		.align	2
 1972              	stats.2:
 1973 0000 00000000 		.space	120
 1973      00000000 
 1973      00000000 
 1973      00000000 
 1973      00000000 
 1974              		.section	.bss.reconfigureRequest.3,"aw",%nobits
 1977              	reconfigureRequest.3:
 1978 0000 00       		.space	1
 1979              		.section	.bss.enableCurrent.4,"aw",%nobits
 1982              	enableCurrent.4:
 1983 0000 00       		.space	1
 1984              		.section	.bss.stats.5,"aw",%nobits
 1985              		.align	2
 1988              	stats.5:
 1989 0000 00000000 		.space	120
 1989      00000000 
 1989      00000000 
 1989      00000000 
 1989      00000000 
 1990              		.section	.bss.BadPixelCount.6,"aw",%nobits
 1991              		.align	2
 1994              	BadPixelCount.6:
 1995 0000 00000000 		.space	4
 1996              		.section	.bss.Step.7,"aw",%nobits
 1999              	Step.7:
 2000 0000 00       		.space	1
 2001              		.section	.bss.LastFrameId.8,"aw",%nobits
 2002              		.align	2
 2005              	LastFrameId.8:
 2006 0000 00000000 		.space	4
 2007              		.global	Meta
 2008              		.section	.bss.Meta,"aw",%nobits
 2009              		.align	2
 2012              	Meta:
 2013 0000 00000000 		.space	24
 2013      00000000 
 2013      00000000 
 2013      00000000 
 2013      00000000 
 2014              		.global	ISP_Algo_List
 2015              		.section	.data.ISP_Algo_List,"aw"
 2016              		.align	2
 2019              	ISP_Algo_List:
 2020 0000 00000000 		.word	ISP_Algo_Background
 2021 0004 00000000 		.word	ISP_Algo_BadPixel
 2022 0008 00000000 		.word	ISP_Algo_AEC
 2023 000c 00000000 		.word	ISP_Algo_AWB
 2024              		.global	ISP_Algo_Background
 2025              		.section	.data.ISP_Algo_Background,"aw"
 2026              		.align	2
 2029              	ISP_Algo_Background:
ARM GAS  C:\Users\DJESSOU\AppData\Local\Temp\ccch1XY5.s 			page 67


 2030 0000 00       		.byte	0
 2031 0001 000000   		.space	3
 2032 0004 00000000 		.word	ISP_Algo_Background_Init
 2033 0008 00000000 		.word	ISP_Algo_Background_DeInit
 2034 000c 00000000 		.word	ISP_Algo_Background_Process
 2035 0010 00000000 		.space	44
 2035      00000000 
 2035      00000000 
 2035      00000000 
 2035      00000000 
 2036              		.global	ISP_Algo_AWB
 2037              		.section	.data.ISP_Algo_AWB,"aw"
 2038              		.align	2
 2041              	ISP_Algo_AWB:
 2042 0000 03       		.byte	3
 2043 0001 000000   		.space	3
 2044 0004 00000000 		.word	ISP_Algo_AWB_Init
 2045 0008 00000000 		.word	ISP_Algo_AWB_DeInit
 2046 000c 00000000 		.word	ISP_Algo_AWB_Process
 2047 0010 00000000 		.space	44
 2047      00000000 
 2047      00000000 
 2047      00000000 
 2047      00000000 
 2048              		.global	ISP_Algo_AEC
 2049              		.section	.data.ISP_Algo_AEC,"aw"
 2050              		.align	2
 2053              	ISP_Algo_AEC:
 2054 0000 02       		.byte	2
 2055 0001 000000   		.space	3
 2056 0004 00000000 		.word	ISP_Algo_AEC_Init
 2057 0008 00000000 		.word	ISP_Algo_AEC_DeInit
 2058 000c 00000000 		.word	ISP_Algo_AEC_Process
 2059 0010 00000000 		.space	44
 2059      00000000 
 2059      00000000 
 2059      00000000 
 2059      00000000 
 2060              		.global	ISP_Algo_BadPixel
 2061              		.section	.data.ISP_Algo_BadPixel,"aw"
 2062              		.align	2
 2065              	ISP_Algo_BadPixel:
 2066 0000 01       		.byte	1
 2067 0001 000000   		.space	3
 2068 0004 00000000 		.word	ISP_Algo_BadPixel_Init
 2069 0008 00000000 		.word	ISP_Algo_BadPixel_DeInit
 2070 000c 00000000 		.word	ISP_Algo_BadPixel_Process
 2071 0010 00000000 		.space	44
 2071      00000000 
 2071      00000000 
 2071      00000000 
 2071      00000000 
 2072              		.text
 2073              	.Letext0:
 2074              		.file 2 "C:\\ST\\STM32CubeIDE_1.18.1\\STM32CubeIDE\\plugins\\com.st.stm32cube.ide.mcu.externaltool
 2075              		.file 3 "C:\\ST\\STM32CubeIDE_1.18.1\\STM32CubeIDE\\plugins\\com.st.stm32cube.ide.mcu.externaltool
 2076              		.file 4 "Lib/Camera_Middleware/ISP_Library/isp/Inc/isp_core.h"
