ARM GAS  C:\Users\DJESSOU\AppData\Local\Temp\ccFxekaC.s 			page 1


   1              		.arch armv8.1-m.main
   2              		.fpu fpv5-d16
   3              		.arch_extension dsp
   4              		.arch_extension fp
   5              		.arch_extension fp.dp
   6              		.arch_extension mve
   7              		.arch_extension mve.fp
   8              		.eabi_attribute 5, "cortex-m55"
   9              		.eabi_attribute 28, 1
  10              		.eabi_attribute 20, 1
  11              		.eabi_attribute 21, 1
  12              		.eabi_attribute 23, 3
  13              		.eabi_attribute 24, 1
  14              		.eabi_attribute 25, 1
  15              		.eabi_attribute 26, 1
  16              		.eabi_attribute 30, 4
  17              		.eabi_attribute 34, 1
  18              		.eabi_attribute 38, 1
  19              		.eabi_attribute 18, 4
  20              		.file	"ll_aton.c"
  21              		.text
  22              	.Ltext0:
  23              		.cfi_sections	.debug_frame
  24              		.file 1 "Lib/AI_Runtime/Npu/ll_aton/ll_aton.c"
  25              		.section	.text.decun_inc_page_addr,"ax",%progbits
  26              		.align	1
  27              		.syntax unified
  28              		.thumb
  29              		.thumb_func
  31              	decun_inc_page_addr:
  32              	.LVL0:
  33              	.LFB302:
   1:Lib/AI_Runtime/Npu/ll_aton/ll_aton.c **** /**
   2:Lib/AI_Runtime/Npu/ll_aton/ll_aton.c ****  ******************************************************************************
   3:Lib/AI_Runtime/Npu/ll_aton/ll_aton.c ****  * @file    ll_aton.c
   4:Lib/AI_Runtime/Npu/ll_aton/ll_aton.c ****  * @author  SRA Artificial Intelligence & Embedded Architectures
   5:Lib/AI_Runtime/Npu/ll_aton/ll_aton.c ****  * @brief   ATON LL module driver.
   6:Lib/AI_Runtime/Npu/ll_aton/ll_aton.c ****  ******************************************************************************
   7:Lib/AI_Runtime/Npu/ll_aton/ll_aton.c ****  * @attention
   8:Lib/AI_Runtime/Npu/ll_aton/ll_aton.c ****  *
   9:Lib/AI_Runtime/Npu/ll_aton/ll_aton.c ****  * Copyright (c) 2024 STMicroelectronics.
  10:Lib/AI_Runtime/Npu/ll_aton/ll_aton.c ****  * All rights reserved.
  11:Lib/AI_Runtime/Npu/ll_aton/ll_aton.c ****  *
  12:Lib/AI_Runtime/Npu/ll_aton/ll_aton.c ****  * This software is licensed under terms that can be found in the LICENSE file
  13:Lib/AI_Runtime/Npu/ll_aton/ll_aton.c ****  * in the root directory of this software component.
  14:Lib/AI_Runtime/Npu/ll_aton/ll_aton.c ****  * If no LICENSE file comes with this software, it is provided AS-IS.
  15:Lib/AI_Runtime/Npu/ll_aton/ll_aton.c ****  *
  16:Lib/AI_Runtime/Npu/ll_aton/ll_aton.c ****  ******************************************************************************
  17:Lib/AI_Runtime/Npu/ll_aton/ll_aton.c ****  */
  18:Lib/AI_Runtime/Npu/ll_aton/ll_aton.c **** 
  19:Lib/AI_Runtime/Npu/ll_aton/ll_aton.c **** #include <inttypes.h>
  20:Lib/AI_Runtime/Npu/ll_aton/ll_aton.c **** #include <stddef.h>
  21:Lib/AI_Runtime/Npu/ll_aton/ll_aton.c **** #include <stdint.h>
  22:Lib/AI_Runtime/Npu/ll_aton/ll_aton.c **** #include <stdlib.h>
  23:Lib/AI_Runtime/Npu/ll_aton/ll_aton.c **** 
  24:Lib/AI_Runtime/Npu/ll_aton/ll_aton.c **** #include "ll_aton.h"
  25:Lib/AI_Runtime/Npu/ll_aton/ll_aton.c **** #include "ll_aton_caches_interface.h"
ARM GAS  C:\Users\DJESSOU\AppData\Local\Temp\ccFxekaC.s 			page 2


  26:Lib/AI_Runtime/Npu/ll_aton/ll_aton.c **** #include "ll_aton_util.h"
  27:Lib/AI_Runtime/Npu/ll_aton/ll_aton.c **** 
  28:Lib/AI_Runtime/Npu/ll_aton/ll_aton.c **** #define ATONN_CONST_SRCPORT(S, J, U, I, P) ATON_##S##_##J##_LINK_##U##_##I##_##P
  29:Lib/AI_Runtime/Npu/ll_aton/ll_aton.c **** #define ATONN_CONST_DSTPORT(S, J, U, I, P) ATON_##S##_DST_OFFSET(J, ATON_##S##_##J##_DST##U##_##I##
  30:Lib/AI_Runtime/Npu/ll_aton/ll_aton.c **** 
  31:Lib/AI_Runtime/Npu/ll_aton/ll_aton.c **** #ifdef ATON_CONVACC_NUM
  32:Lib/AI_Runtime/Npu/ll_aton/ll_aton.c **** static uint32_t Conv_ctrl_bits[ATON_CONVACC_NUM]; // this is an hack FIXME !!!
  33:Lib/AI_Runtime/Npu/ll_aton/ll_aton.c **** #endif
  34:Lib/AI_Runtime/Npu/ll_aton/ll_aton.c **** 
  35:Lib/AI_Runtime/Npu/ll_aton/ll_aton.c **** #if (ATON_POOL_VERSION_MAJOR_DT < 1) || ((ATON_POOL_VERSION_MAJOR_DT == 1) && (ATON_POOL_VERSION_MI
  36:Lib/AI_Runtime/Npu/ll_aton/ll_aton.c **** #define POOL_RC14    /* Pooling unit is not yet patched with respect to auto-clearing of `CLR` bit 
  37:Lib/AI_Runtime/Npu/ll_aton/ll_aton.c ****                         reset values */
  38:Lib/AI_Runtime/Npu/ll_aton/ll_aton.c **** #endif
  39:Lib/AI_Runtime/Npu/ll_aton/ll_aton.c **** 
  40:Lib/AI_Runtime/Npu/ll_aton/ll_aton.c **** #define ASSERT_UNITS_VERS_W_MSG(unitname, rtl_unitver)                                             
  41:Lib/AI_Runtime/Npu/ll_aton/ll_aton.c ****   do                                                                                               
  42:Lib/AI_Runtime/Npu/ll_aton/ll_aton.c ****   {                                                                                                
  43:Lib/AI_Runtime/Npu/ll_aton/ll_aton.c ****     rtl_unitver = ATON_##unitname##_VERSION_GET(0);                                                
  44:Lib/AI_Runtime/Npu/ll_aton/ll_aton.c ****   } while (rtl_unitver == 0);                                                                      
  45:Lib/AI_Runtime/Npu/ll_aton/ll_aton.c ****   assertf(ATON_##unitname##_VERSION_GET_TYPE(rtl_unitver) == ATON_##unitname##_VERSION_TYPE_DT &&  
  46:Lib/AI_Runtime/Npu/ll_aton/ll_aton.c ****               ATON_##unitname##_VERSION_GET_MAJOR(rtl_unitver) == ATON_##unitname##_VERSION_MAJOR_D
  47:Lib/AI_Runtime/Npu/ll_aton/ll_aton.c ****               ATON_##unitname##_VERSION_GET_MINOR(rtl_unitver) == ATON_##unitname##_VERSION_MINOR_D
  48:Lib/AI_Runtime/Npu/ll_aton/ll_aton.c ****           0,                                                                                       
  49:Lib/AI_Runtime/Npu/ll_aton/ll_aton.c ****           "%s unit ver mismatch: RTL:t=%" PRIu32 ",ver=%" PRIu32 ".%" PRIu32 "  ATON.h:t=%" PRIu32 
  50:Lib/AI_Runtime/Npu/ll_aton/ll_aton.c ****           ".%" PRIu32 "\n\r",                                                                      
  51:Lib/AI_Runtime/Npu/ll_aton/ll_aton.c ****           #unitname, ATON_##unitname##_VERSION_GET_TYPE(rtl_unitver),                              
  52:Lib/AI_Runtime/Npu/ll_aton/ll_aton.c ****           ATON_##unitname##_VERSION_GET_MAJOR(rtl_unitver), ATON_##unitname##_VERSION_GET_MINOR(rtl
  53:Lib/AI_Runtime/Npu/ll_aton/ll_aton.c ****           (uint32_t)ATON_##unitname##_VERSION_TYPE_DT, (uint32_t)ATON_##unitname##_VERSION_MAJOR_DT
  54:Lib/AI_Runtime/Npu/ll_aton/ll_aton.c ****           (uint32_t)ATON_##unitname##_VERSION_MINOR_DT)
  55:Lib/AI_Runtime/Npu/ll_aton/ll_aton.c **** 
  56:Lib/AI_Runtime/Npu/ll_aton/ll_aton.c **** /** @defgroup Simple watchdog management functions.
  57:Lib/AI_Runtime/Npu/ll_aton/ll_aton.c ****  *  Used to exit from LL_Streng_Wait() in case epoch locks
  58:Lib/AI_Runtime/Npu/ll_aton/ll_aton.c ****  * @{
  59:Lib/AI_Runtime/Npu/ll_aton/ll_aton.c ****  */
  60:Lib/AI_Runtime/Npu/ll_aton/ll_aton.c **** 
  61:Lib/AI_Runtime/Npu/ll_aton/ll_aton.c **** static inline void ll_aton_static_checks(void)
  62:Lib/AI_Runtime/Npu/ll_aton/ll_aton.c **** {
  63:Lib/AI_Runtime/Npu/ll_aton/ll_aton.c ****   static char done = 0;
  64:Lib/AI_Runtime/Npu/ll_aton/ll_aton.c **** 
  65:Lib/AI_Runtime/Npu/ll_aton/ll_aton.c ****   if (done != 0)
  66:Lib/AI_Runtime/Npu/ll_aton/ll_aton.c ****     return;
  67:Lib/AI_Runtime/Npu/ll_aton/ll_aton.c ****   done = 1;
  68:Lib/AI_Runtime/Npu/ll_aton/ll_aton.c **** 
  69:Lib/AI_Runtime/Npu/ll_aton/ll_aton.c **** #define ASSERT_ATONN_SRCPORT(S, J, U, I, P)                                                        
  70:Lib/AI_Runtime/Npu/ll_aton/ll_aton.c ****   LL_ATON_ASSERT(ATONN_CONST_SRCPORT(S, J, U, I, P) == __atonn_getSrcPortID(S, J, U, I, P))
  71:Lib/AI_Runtime/Npu/ll_aton/ll_aton.c **** #define ASSERT_ATONN_DSTPORT(S, J, U, I, P)                                                        
  72:Lib/AI_Runtime/Npu/ll_aton/ll_aton.c ****   LL_ATON_ASSERT(ATONN_CONST_DSTPORT(S, J, U, I, P) == __atonn_getDstPortID(S, J, U, I, P))
  73:Lib/AI_Runtime/Npu/ll_aton/ll_aton.c **** 
  74:Lib/AI_Runtime/Npu/ll_aton/ll_aton.c **** #if ATON_STRENG_NUM > 1
  75:Lib/AI_Runtime/Npu/ll_aton/ll_aton.c ****   ASSERT_ATONN_SRCPORT(STRSWITCH, 0, STRENG, 1, 0);
  76:Lib/AI_Runtime/Npu/ll_aton/ll_aton.c ****   ASSERT_ATONN_DSTPORT(STRSWITCH, 0, STRENG, 1, 0);
  77:Lib/AI_Runtime/Npu/ll_aton/ll_aton.c **** #endif
  78:Lib/AI_Runtime/Npu/ll_aton/ll_aton.c **** #if ATON_STRENG_NUM > 2
  79:Lib/AI_Runtime/Npu/ll_aton/ll_aton.c ****   ASSERT_ATONN_SRCPORT(STRSWITCH, 0, STRENG, 2, 0);
  80:Lib/AI_Runtime/Npu/ll_aton/ll_aton.c ****   ASSERT_ATONN_DSTPORT(STRSWITCH, 0, STRENG, 2, 0);
  81:Lib/AI_Runtime/Npu/ll_aton/ll_aton.c **** #endif
  82:Lib/AI_Runtime/Npu/ll_aton/ll_aton.c **** 
ARM GAS  C:\Users\DJESSOU\AppData\Local\Temp\ccFxekaC.s 			page 3


  83:Lib/AI_Runtime/Npu/ll_aton/ll_aton.c **** #if (LL_ATON_PLATFORM == LL_ATON_PLAT_EC_TRACE)
  84:Lib/AI_Runtime/Npu/ll_aton/ll_aton.c **** 
  85:Lib/AI_Runtime/Npu/ll_aton/ll_aton.c **** #if ATON_CONVACC_NUM > 1
  86:Lib/AI_Runtime/Npu/ll_aton/ll_aton.c ****   ASSERT_ATONN_SRCPORT(STRSWITCH, 0, CONVACC, 1, 0);
  87:Lib/AI_Runtime/Npu/ll_aton/ll_aton.c ****   ASSERT_ATONN_DSTPORT(STRSWITCH, 0, CONVACC, 1, 0);
  88:Lib/AI_Runtime/Npu/ll_aton/ll_aton.c ****   ASSERT_ATONN_DSTPORT(STRSWITCH, 0, CONVACC, 1, 1);
  89:Lib/AI_Runtime/Npu/ll_aton/ll_aton.c ****   ASSERT_ATONN_DSTPORT(STRSWITCH, 0, CONVACC, 1, 2);
  90:Lib/AI_Runtime/Npu/ll_aton/ll_aton.c **** #endif
  91:Lib/AI_Runtime/Npu/ll_aton/ll_aton.c **** 
  92:Lib/AI_Runtime/Npu/ll_aton/ll_aton.c **** #if ATON_CONVACC_NUM > 2
  93:Lib/AI_Runtime/Npu/ll_aton/ll_aton.c ****   ASSERT_ATONN_SRCPORT(STRSWITCH, 0, CONVACC, 2, 0);
  94:Lib/AI_Runtime/Npu/ll_aton/ll_aton.c ****   ASSERT_ATONN_DSTPORT(STRSWITCH, 0, CONVACC, 2, 0);
  95:Lib/AI_Runtime/Npu/ll_aton/ll_aton.c ****   ASSERT_ATONN_DSTPORT(STRSWITCH, 0, CONVACC, 2, 1);
  96:Lib/AI_Runtime/Npu/ll_aton/ll_aton.c ****   ASSERT_ATONN_DSTPORT(STRSWITCH, 0, CONVACC, 2, 2);
  97:Lib/AI_Runtime/Npu/ll_aton/ll_aton.c **** #endif
  98:Lib/AI_Runtime/Npu/ll_aton/ll_aton.c **** 
  99:Lib/AI_Runtime/Npu/ll_aton/ll_aton.c **** #if ATON_POOL_NUM > 1
 100:Lib/AI_Runtime/Npu/ll_aton/ll_aton.c ****   ASSERT_ATONN_SRCPORT(STRSWITCH, 0, POOL, 1, 0);
 101:Lib/AI_Runtime/Npu/ll_aton/ll_aton.c ****   ASSERT_ATONN_DSTPORT(STRSWITCH, 0, POOL, 1, 0);
 102:Lib/AI_Runtime/Npu/ll_aton/ll_aton.c **** #endif
 103:Lib/AI_Runtime/Npu/ll_aton/ll_aton.c **** 
 104:Lib/AI_Runtime/Npu/ll_aton/ll_aton.c **** #if ATON_ARITH_NUM > 1
 105:Lib/AI_Runtime/Npu/ll_aton/ll_aton.c ****   ASSERT_ATONN_SRCPORT(STRSWITCH, 0, ARITH, 1, 0);
 106:Lib/AI_Runtime/Npu/ll_aton/ll_aton.c ****   ASSERT_ATONN_DSTPORT(STRSWITCH, 0, ARITH, 1, 0);
 107:Lib/AI_Runtime/Npu/ll_aton/ll_aton.c ****   ASSERT_ATONN_DSTPORT(STRSWITCH, 0, ARITH, 1, 1);
 108:Lib/AI_Runtime/Npu/ll_aton/ll_aton.c **** #endif
 109:Lib/AI_Runtime/Npu/ll_aton/ll_aton.c **** 
 110:Lib/AI_Runtime/Npu/ll_aton/ll_aton.c **** #if ATON_ACTIV_NUM > 1
 111:Lib/AI_Runtime/Npu/ll_aton/ll_aton.c ****   ASSERT_ATONN_SRCPORT(STRSWITCH, 0, ACTIV, 1, 0);
 112:Lib/AI_Runtime/Npu/ll_aton/ll_aton.c ****   ASSERT_ATONN_DSTPORT(STRSWITCH, 0, ACTIV, 1, 0);
 113:Lib/AI_Runtime/Npu/ll_aton/ll_aton.c **** #endif
 114:Lib/AI_Runtime/Npu/ll_aton/ll_aton.c **** 
 115:Lib/AI_Runtime/Npu/ll_aton/ll_aton.c **** #if ATON_DECUN_NUM > 1
 116:Lib/AI_Runtime/Npu/ll_aton/ll_aton.c ****   ASSERT_ATONN_SRCPORT(STRSWITCH, 0, DECUN, 1, 0);
 117:Lib/AI_Runtime/Npu/ll_aton/ll_aton.c ****   ASSERT_ATONN_DSTPORT(STRSWITCH, 0, DECUN, 1, 0);
 118:Lib/AI_Runtime/Npu/ll_aton/ll_aton.c ****   ASSERT_ATONN_DSTPORT(STRSWITCH, 0, DECUN, 1, 1);
 119:Lib/AI_Runtime/Npu/ll_aton/ll_aton.c **** #endif
 120:Lib/AI_Runtime/Npu/ll_aton/ll_aton.c **** 
 121:Lib/AI_Runtime/Npu/ll_aton/ll_aton.c **** #endif // (LL_ATON_PLATFORM == LL_ATON_PLAT_EC_TRACE)
 122:Lib/AI_Runtime/Npu/ll_aton/ll_aton.c **** 
 123:Lib/AI_Runtime/Npu/ll_aton/ll_aton.c **** #undef ASSERT_ATONN_SRCPORT
 124:Lib/AI_Runtime/Npu/ll_aton/ll_aton.c **** #undef ASSERT_ATONN_DSTPORT
 125:Lib/AI_Runtime/Npu/ll_aton/ll_aton.c **** }
 126:Lib/AI_Runtime/Npu/ll_aton/ll_aton.c **** 
 127:Lib/AI_Runtime/Npu/ll_aton/ll_aton.c **** unsigned char *LL_Address_Physical2Virtual(unsigned char *address)
 128:Lib/AI_Runtime/Npu/ll_aton/ll_aton.c **** {
 129:Lib/AI_Runtime/Npu/ll_aton/ll_aton.c ****   return ATON_LIB_PHYSICAL_TO_VIRTUAL_ADDR(address);
 130:Lib/AI_Runtime/Npu/ll_aton/ll_aton.c **** }
 131:Lib/AI_Runtime/Npu/ll_aton/ll_aton.c **** 
 132:Lib/AI_Runtime/Npu/ll_aton/ll_aton.c **** unsigned char *LL_Address_Virtual2Physical(unsigned char *address)
 133:Lib/AI_Runtime/Npu/ll_aton/ll_aton.c **** {
 134:Lib/AI_Runtime/Npu/ll_aton/ll_aton.c ****   return ATON_LIB_VIRTUAL_TO_PHYSICAL_ADDR(address);
 135:Lib/AI_Runtime/Npu/ll_aton/ll_aton.c **** }
 136:Lib/AI_Runtime/Npu/ll_aton/ll_aton.c **** 
 137:Lib/AI_Runtime/Npu/ll_aton/ll_aton.c **** /**
 138:Lib/AI_Runtime/Npu/ll_aton/ll_aton.c ****  * @brief Starts watchdog
 139:Lib/AI_Runtime/Npu/ll_aton/ll_aton.c ****  * @param timeout Watchdog timeout in cycles
ARM GAS  C:\Users\DJESSOU\AppData\Local\Temp\ccFxekaC.s 			page 4


 140:Lib/AI_Runtime/Npu/ll_aton/ll_aton.c ****  * @retval ATON Error code
 141:Lib/AI_Runtime/Npu/ll_aton/ll_aton.c ****  */
 142:Lib/AI_Runtime/Npu/ll_aton/ll_aton.c **** LL_ATON_WEAK int startWatchdog(uint32_t timeout)
 143:Lib/AI_Runtime/Npu/ll_aton/ll_aton.c **** {
 144:Lib/AI_Runtime/Npu/ll_aton/ll_aton.c ****   (void)timeout;
 145:Lib/AI_Runtime/Npu/ll_aton/ll_aton.c **** 
 146:Lib/AI_Runtime/Npu/ll_aton/ll_aton.c ****   return 0;
 147:Lib/AI_Runtime/Npu/ll_aton/ll_aton.c **** }
 148:Lib/AI_Runtime/Npu/ll_aton/ll_aton.c **** 
 149:Lib/AI_Runtime/Npu/ll_aton/ll_aton.c **** /**
 150:Lib/AI_Runtime/Npu/ll_aton/ll_aton.c ****  * @brief Checks whether watchdog has expired or not
 151:Lib/AI_Runtime/Npu/ll_aton/ll_aton.c ****  * @retval ATON Error code
 152:Lib/AI_Runtime/Npu/ll_aton/ll_aton.c ****  */
 153:Lib/AI_Runtime/Npu/ll_aton/ll_aton.c **** LL_ATON_WEAK int checkWatchdog(void)
 154:Lib/AI_Runtime/Npu/ll_aton/ll_aton.c **** {
 155:Lib/AI_Runtime/Npu/ll_aton/ll_aton.c ****   return 0;
 156:Lib/AI_Runtime/Npu/ll_aton/ll_aton.c **** }
 157:Lib/AI_Runtime/Npu/ll_aton/ll_aton.c **** 
 158:Lib/AI_Runtime/Npu/ll_aton/ll_aton.c **** /**
 159:Lib/AI_Runtime/Npu/ll_aton/ll_aton.c ****  * @}
 160:Lib/AI_Runtime/Npu/ll_aton/ll_aton.c ****  */
 161:Lib/AI_Runtime/Npu/ll_aton/ll_aton.c **** 
 162:Lib/AI_Runtime/Npu/ll_aton/ll_aton.c **** /**
 163:Lib/AI_Runtime/Npu/ll_aton/ll_aton.c ****  * @brief  ATON global initialization. Initializes clocks and bus interfaces. Must be called before
 164:Lib/AI_Runtime/Npu/ll_aton/ll_aton.c ****  * @retval Always zero
 165:Lib/AI_Runtime/Npu/ll_aton/ll_aton.c ****  */
 166:Lib/AI_Runtime/Npu/ll_aton/ll_aton.c **** int LL_ATON_Init(void)
 167:Lib/AI_Runtime/Npu/ll_aton/ll_aton.c **** {
 168:Lib/AI_Runtime/Npu/ll_aton/ll_aton.c ****   uint32_t t;
 169:Lib/AI_Runtime/Npu/ll_aton/ll_aton.c ****   int i;
 170:Lib/AI_Runtime/Npu/ll_aton/ll_aton.c **** 
 171:Lib/AI_Runtime/Npu/ll_aton/ll_aton.c ****   ll_aton_static_checks();
 172:Lib/AI_Runtime/Npu/ll_aton/ll_aton.c **** 
 173:Lib/AI_Runtime/Npu/ll_aton/ll_aton.c ****   /* Clear pipeline */
 174:Lib/AI_Runtime/Npu/ll_aton/ll_aton.c ****   t = ATON_CLKCTRL_CTRL_GET(0);
 175:Lib/AI_Runtime/Npu/ll_aton/ll_aton.c ****   t = ATON_CLKCTRL_CTRL_SET_CLR(t, 1);
 176:Lib/AI_Runtime/Npu/ll_aton/ll_aton.c ****   ATON_CLKCTRL_CTRL_SET(0, t);
 177:Lib/AI_Runtime/Npu/ll_aton/ll_aton.c **** 
 178:Lib/AI_Runtime/Npu/ll_aton/ll_aton.c ****   /* Enable all ATON clocks */
 179:Lib/AI_Runtime/Npu/ll_aton/ll_aton.c ****   ATON_CLKCTRL_CTRL_SET(0, 1);
 180:Lib/AI_Runtime/Npu/ll_aton/ll_aton.c ****   ATON_CLKCTRL_AGATES0_SET(0, 0xffffffff);
 181:Lib/AI_Runtime/Npu/ll_aton/ll_aton.c ****   ATON_CLKCTRL_AGATES1_SET(0, 0xffffffff);
 182:Lib/AI_Runtime/Npu/ll_aton/ll_aton.c **** 
 183:Lib/AI_Runtime/Npu/ll_aton/ll_aton.c **** #if (LL_ATON_ENABLE_CLOCK_GATING == 1)
 184:Lib/AI_Runtime/Npu/ll_aton/ll_aton.c **** #if (LL_ATON_PLATFORM == LL_ATON_PLAT_EC_TRACE)
 185:Lib/AI_Runtime/Npu/ll_aton/ll_aton.c ****   ATON_CLKCTRL_BGATES_SET(0, (1 << ATON_EPOCHCTRL_CLKB_CLK(0)));
 186:Lib/AI_Runtime/Npu/ll_aton/ll_aton.c **** #else
 187:Lib/AI_Runtime/Npu/ll_aton/ll_aton.c ****   ATON_CLKCTRL_BGATES_SET(0, 0x0);
 188:Lib/AI_Runtime/Npu/ll_aton/ll_aton.c **** #endif
 189:Lib/AI_Runtime/Npu/ll_aton/ll_aton.c **** #else
 190:Lib/AI_Runtime/Npu/ll_aton/ll_aton.c ****   ATON_CLKCTRL_BGATES_SET(0, 0xffffffff);
 191:Lib/AI_Runtime/Npu/ll_aton/ll_aton.c **** #endif
 192:Lib/AI_Runtime/Npu/ll_aton/ll_aton.c **** 
 193:Lib/AI_Runtime/Npu/ll_aton/ll_aton.c **** #ifdef ATON_CLKCTRL_BGATES1_OFFSET
 194:Lib/AI_Runtime/Npu/ll_aton/ll_aton.c ****   ATON_CLKCTRL_BGATES1_SET(0, 0xffffffff);
 195:Lib/AI_Runtime/Npu/ll_aton/ll_aton.c **** #endif
 196:Lib/AI_Runtime/Npu/ll_aton/ll_aton.c **** 
ARM GAS  C:\Users\DJESSOU\AppData\Local\Temp\ccFxekaC.s 			page 5


 197:Lib/AI_Runtime/Npu/ll_aton/ll_aton.c ****   /* Check that RTL and ATON.h match. Only check first unit */
 198:Lib/AI_Runtime/Npu/ll_aton/ll_aton.c ****   ASSERT_UNITS_VERS_W_MSG(STRENG, t);
 199:Lib/AI_Runtime/Npu/ll_aton/ll_aton.c **** 
 200:Lib/AI_Runtime/Npu/ll_aton/ll_aton.c **** #ifdef ATON_CONVACC_NUM
 201:Lib/AI_Runtime/Npu/ll_aton/ll_aton.c ****   ASSERT_UNITS_VERS_W_MSG(CONVACC, t);
 202:Lib/AI_Runtime/Npu/ll_aton/ll_aton.c **** #endif
 203:Lib/AI_Runtime/Npu/ll_aton/ll_aton.c **** 
 204:Lib/AI_Runtime/Npu/ll_aton/ll_aton.c **** #ifdef ATON_POOL_NUM
 205:Lib/AI_Runtime/Npu/ll_aton/ll_aton.c ****   ASSERT_UNITS_VERS_W_MSG(POOL, t);
 206:Lib/AI_Runtime/Npu/ll_aton/ll_aton.c **** #endif
 207:Lib/AI_Runtime/Npu/ll_aton/ll_aton.c **** 
 208:Lib/AI_Runtime/Npu/ll_aton/ll_aton.c **** #ifdef ATON_ARITH_NUM
 209:Lib/AI_Runtime/Npu/ll_aton/ll_aton.c ****   ASSERT_UNITS_VERS_W_MSG(ARITH, t);
 210:Lib/AI_Runtime/Npu/ll_aton/ll_aton.c **** #endif
 211:Lib/AI_Runtime/Npu/ll_aton/ll_aton.c **** 
 212:Lib/AI_Runtime/Npu/ll_aton/ll_aton.c **** #ifdef ATON_ACTIV_NUM
 213:Lib/AI_Runtime/Npu/ll_aton/ll_aton.c ****   ASSERT_UNITS_VERS_W_MSG(ACTIV, t);
 214:Lib/AI_Runtime/Npu/ll_aton/ll_aton.c **** #endif
 215:Lib/AI_Runtime/Npu/ll_aton/ll_aton.c **** 
 216:Lib/AI_Runtime/Npu/ll_aton/ll_aton.c **** #ifdef ATON_DECUN_NUM
 217:Lib/AI_Runtime/Npu/ll_aton/ll_aton.c ****   ASSERT_UNITS_VERS_W_MSG(DECUN, t);
 218:Lib/AI_Runtime/Npu/ll_aton/ll_aton.c **** #endif
 219:Lib/AI_Runtime/Npu/ll_aton/ll_aton.c **** 
 220:Lib/AI_Runtime/Npu/ll_aton/ll_aton.c **** #ifdef ATON_EPOCHCTRL_VERSION_TYPE_DT
 221:Lib/AI_Runtime/Npu/ll_aton/ll_aton.c ****   ASSERT_UNITS_VERS_W_MSG(EPOCHCTRL, t);
 222:Lib/AI_Runtime/Npu/ll_aton/ll_aton.c **** #endif
 223:Lib/AI_Runtime/Npu/ll_aton/ll_aton.c **** 
 224:Lib/AI_Runtime/Npu/ll_aton/ll_aton.c **** #ifdef ATON_RECBUF_VERSION_TYPE_DT
 225:Lib/AI_Runtime/Npu/ll_aton/ll_aton.c ****   ASSERT_UNITS_VERS_W_MSG(RECBUF, t);
 226:Lib/AI_Runtime/Npu/ll_aton/ll_aton.c **** #endif
 227:Lib/AI_Runtime/Npu/ll_aton/ll_aton.c **** 
 228:Lib/AI_Runtime/Npu/ll_aton/ll_aton.c **** #ifdef ATON_STRENG64_NUM
 229:Lib/AI_Runtime/Npu/ll_aton/ll_aton.c ****   ASSERT_UNITS_VERS_W_MSG(STRENG64, t);
 230:Lib/AI_Runtime/Npu/ll_aton/ll_aton.c **** #endif
 231:Lib/AI_Runtime/Npu/ll_aton/ll_aton.c **** 
 232:Lib/AI_Runtime/Npu/ll_aton/ll_aton.c **** #ifdef ATON_STRSWITCH64_NUM
 233:Lib/AI_Runtime/Npu/ll_aton/ll_aton.c ****   ASSERT_UNITS_VERS_W_MSG(STRSWITCH64, t);
 234:Lib/AI_Runtime/Npu/ll_aton/ll_aton.c **** #endif
 235:Lib/AI_Runtime/Npu/ll_aton/ll_aton.c **** 
 236:Lib/AI_Runtime/Npu/ll_aton/ll_aton.c **** #ifdef ATON_STRSWITCH_VC_NUM
 237:Lib/AI_Runtime/Npu/ll_aton/ll_aton.c ****   ASSERT_UNITS_VERS_W_MSG(STRSWITCH_VC, t);
 238:Lib/AI_Runtime/Npu/ll_aton/ll_aton.c **** #endif
 239:Lib/AI_Runtime/Npu/ll_aton/ll_aton.c **** 
 240:Lib/AI_Runtime/Npu/ll_aton/ll_aton.c **** #ifdef ATON_IMC_NUM
 241:Lib/AI_Runtime/Npu/ll_aton/ll_aton.c ****   ASSERT_UNITS_VERS_W_MSG(IMC, t);
 242:Lib/AI_Runtime/Npu/ll_aton/ll_aton.c **** #endif
 243:Lib/AI_Runtime/Npu/ll_aton/ll_aton.c **** 
 244:Lib/AI_Runtime/Npu/ll_aton/ll_aton.c ****   ASSERT_UNITS_VERS_W_MSG(CLKCTRL, t);
 245:Lib/AI_Runtime/Npu/ll_aton/ll_aton.c **** 
 246:Lib/AI_Runtime/Npu/ll_aton/ll_aton.c ****   ASSERT_UNITS_VERS_W_MSG(INTCTRL, t);
 247:Lib/AI_Runtime/Npu/ll_aton/ll_aton.c **** 
 248:Lib/AI_Runtime/Npu/ll_aton/ll_aton.c ****   ASSERT_UNITS_VERS_W_MSG(STRSWITCH, t);
 249:Lib/AI_Runtime/Npu/ll_aton/ll_aton.c **** 
 250:Lib/AI_Runtime/Npu/ll_aton/ll_aton.c ****   ASSERT_UNITS_VERS_W_MSG(BUSIF, t);
 251:Lib/AI_Runtime/Npu/ll_aton/ll_aton.c **** 
 252:Lib/AI_Runtime/Npu/ll_aton/ll_aton.c ****   /* Enable Bus Interfaces */
 253:Lib/AI_Runtime/Npu/ll_aton/ll_aton.c ****   for (i = 0; i < ATON_BUSIF_NUM; i++)
ARM GAS  C:\Users\DJESSOU\AppData\Local\Temp\ccFxekaC.s 			page 6


 254:Lib/AI_Runtime/Npu/ll_aton/ll_aton.c ****   {
 255:Lib/AI_Runtime/Npu/ll_aton/ll_aton.c ****     ATON_BUSIF_CTRL_SET(i, 1);
 256:Lib/AI_Runtime/Npu/ll_aton/ll_aton.c ****   }
 257:Lib/AI_Runtime/Npu/ll_aton/ll_aton.c **** 
 258:Lib/AI_Runtime/Npu/ll_aton/ll_aton.c ****   /* Enable Interrupt Controller */
 259:Lib/AI_Runtime/Npu/ll_aton/ll_aton.c ****   ATON_INTCTRL_CTRL_SET(0, 1);
 260:Lib/AI_Runtime/Npu/ll_aton/ll_aton.c **** 
 261:Lib/AI_Runtime/Npu/ll_aton/ll_aton.c ****   return 0;
 262:Lib/AI_Runtime/Npu/ll_aton/ll_aton.c **** }
 263:Lib/AI_Runtime/Npu/ll_aton/ll_aton.c **** 
 264:Lib/AI_Runtime/Npu/ll_aton/ll_aton.c **** /**
 265:Lib/AI_Runtime/Npu/ll_aton/ll_aton.c ****  * @brief  ATON global de-initialization. Must be called at the very end
 266:Lib/AI_Runtime/Npu/ll_aton/ll_aton.c ****  * @retval Always zero
 267:Lib/AI_Runtime/Npu/ll_aton/ll_aton.c ****  */
 268:Lib/AI_Runtime/Npu/ll_aton/ll_aton.c **** int LL_ATON_DeInit(void)
 269:Lib/AI_Runtime/Npu/ll_aton/ll_aton.c **** {
 270:Lib/AI_Runtime/Npu/ll_aton/ll_aton.c ****   int i;
 271:Lib/AI_Runtime/Npu/ll_aton/ll_aton.c **** 
 272:Lib/AI_Runtime/Npu/ll_aton/ll_aton.c ****   /* Disable Interrupt Controller */
 273:Lib/AI_Runtime/Npu/ll_aton/ll_aton.c ****   ATON_INTCTRL_CTRL_SET(0, 0);
 274:Lib/AI_Runtime/Npu/ll_aton/ll_aton.c **** 
 275:Lib/AI_Runtime/Npu/ll_aton/ll_aton.c ****   /* Disable Bus Interfaces */
 276:Lib/AI_Runtime/Npu/ll_aton/ll_aton.c ****   for (i = 0; i < ATON_BUSIF_NUM; i++)
 277:Lib/AI_Runtime/Npu/ll_aton/ll_aton.c ****   {
 278:Lib/AI_Runtime/Npu/ll_aton/ll_aton.c ****     ATON_BUSIF_CTRL_SET(i, 0);
 279:Lib/AI_Runtime/Npu/ll_aton/ll_aton.c ****   }
 280:Lib/AI_Runtime/Npu/ll_aton/ll_aton.c **** 
 281:Lib/AI_Runtime/Npu/ll_aton/ll_aton.c ****   /* Disable all ATON clocks */
 282:Lib/AI_Runtime/Npu/ll_aton/ll_aton.c ****   ATON_CLKCTRL_AGATES0_SET(0, 0);
 283:Lib/AI_Runtime/Npu/ll_aton/ll_aton.c ****   ATON_CLKCTRL_AGATES1_SET(0, 0);
 284:Lib/AI_Runtime/Npu/ll_aton/ll_aton.c ****   ATON_CLKCTRL_BGATES_SET(0, 0);
 285:Lib/AI_Runtime/Npu/ll_aton/ll_aton.c **** #ifdef ATON_CLKCTRL_BGATES1_OFFSET
 286:Lib/AI_Runtime/Npu/ll_aton/ll_aton.c ****   ATON_CLKCTRL_BGATES1_SET(0, 0);
 287:Lib/AI_Runtime/Npu/ll_aton/ll_aton.c **** #endif
 288:Lib/AI_Runtime/Npu/ll_aton/ll_aton.c ****   ATON_CLKCTRL_CTRL_SET(0, 0);
 289:Lib/AI_Runtime/Npu/ll_aton/ll_aton.c **** 
 290:Lib/AI_Runtime/Npu/ll_aton/ll_aton.c ****   return 0;
 291:Lib/AI_Runtime/Npu/ll_aton/ll_aton.c **** }
 292:Lib/AI_Runtime/Npu/ll_aton/ll_aton.c **** 
 293:Lib/AI_Runtime/Npu/ll_aton/ll_aton.c **** /**
 294:Lib/AI_Runtime/Npu/ll_aton/ll_aton.c ****  * @brief  Enables a set of ATON units
 295:Lib/AI_Runtime/Npu/ll_aton/ll_aton.c ****  * @param  LL_ATON_EnableUnits_InitStruct Array of units to enable
 296:Lib/AI_Runtime/Npu/ll_aton/ll_aton.c ****  * @param  n Length of the initialization array
 297:Lib/AI_Runtime/Npu/ll_aton/ll_aton.c ****  * @retval Error code
 298:Lib/AI_Runtime/Npu/ll_aton/ll_aton.c ****  * @todo   Add boundary checks
 299:Lib/AI_Runtime/Npu/ll_aton/ll_aton.c ****  */
 300:Lib/AI_Runtime/Npu/ll_aton/ll_aton.c **** int LL_ATON_EnableUnits_Init(const LL_ATON_EnableUnits_InitTypeDef *LL_ATON_EnableUnits_InitStruct,
 301:Lib/AI_Runtime/Npu/ll_aton/ll_aton.c **** {
 302:Lib/AI_Runtime/Npu/ll_aton/ll_aton.c ****   int i;
 303:Lib/AI_Runtime/Npu/ll_aton/ll_aton.c ****   enum AccelUnitsType unitType;
 304:Lib/AI_Runtime/Npu/ll_aton/ll_aton.c ****   uint32_t unitId;
 305:Lib/AI_Runtime/Npu/ll_aton/ll_aton.c **** 
 306:Lib/AI_Runtime/Npu/ll_aton/ll_aton.c ****   for (i = 0; i < n; i++)
 307:Lib/AI_Runtime/Npu/ll_aton/ll_aton.c ****   {
 308:Lib/AI_Runtime/Npu/ll_aton/ll_aton.c ****     unitType = LL_ATON_EnableUnits_InitStruct[i].unit.unit_type;
 309:Lib/AI_Runtime/Npu/ll_aton/ll_aton.c ****     unitId = LL_ATON_EnableUnits_InitStruct[i].unit.unit_num;
 310:Lib/AI_Runtime/Npu/ll_aton/ll_aton.c **** 
ARM GAS  C:\Users\DJESSOU\AppData\Local\Temp\ccFxekaC.s 			page 7


 311:Lib/AI_Runtime/Npu/ll_aton/ll_aton.c ****     switch (unitType)
 312:Lib/AI_Runtime/Npu/ll_aton/ll_aton.c ****     {
 313:Lib/AI_Runtime/Npu/ll_aton/ll_aton.c ****     case STRENG:
 314:Lib/AI_Runtime/Npu/ll_aton/ll_aton.c ****       ATON_ENABLE(STRENG, unitId);
 315:Lib/AI_Runtime/Npu/ll_aton/ll_aton.c ****       break;
 316:Lib/AI_Runtime/Npu/ll_aton/ll_aton.c **** 
 317:Lib/AI_Runtime/Npu/ll_aton/ll_aton.c **** #ifdef ATON_STRENG64_NUM
 318:Lib/AI_Runtime/Npu/ll_aton/ll_aton.c ****     case STRENG64:
 319:Lib/AI_Runtime/Npu/ll_aton/ll_aton.c ****       ATON_ENABLE(STRENG64, unitId);
 320:Lib/AI_Runtime/Npu/ll_aton/ll_aton.c ****       break;
 321:Lib/AI_Runtime/Npu/ll_aton/ll_aton.c **** #endif
 322:Lib/AI_Runtime/Npu/ll_aton/ll_aton.c **** 
 323:Lib/AI_Runtime/Npu/ll_aton/ll_aton.c **** #ifdef ATON_CONVACC_NUM
 324:Lib/AI_Runtime/Npu/ll_aton/ll_aton.c ****     case CONVACC:
 325:Lib/AI_Runtime/Npu/ll_aton/ll_aton.c **** #if 0
 326:Lib/AI_Runtime/Npu/ll_aton/ll_aton.c ****       ATON_ENABLE(CONVACC, unitId);
 327:Lib/AI_Runtime/Npu/ll_aton/ll_aton.c **** #else
 328:Lib/AI_Runtime/Npu/ll_aton/ll_aton.c ****       ATON_CONVACC_CTRL_SET(unitId, ATON_CONVACC_CTRL_SET_EN(Conv_ctrl_bits[unitId], 1));
 329:Lib/AI_Runtime/Npu/ll_aton/ll_aton.c **** #endif
 330:Lib/AI_Runtime/Npu/ll_aton/ll_aton.c ****       break;
 331:Lib/AI_Runtime/Npu/ll_aton/ll_aton.c **** #endif
 332:Lib/AI_Runtime/Npu/ll_aton/ll_aton.c **** 
 333:Lib/AI_Runtime/Npu/ll_aton/ll_aton.c **** #ifdef ATON_DECUN_NUM
 334:Lib/AI_Runtime/Npu/ll_aton/ll_aton.c ****     case DECUN:
 335:Lib/AI_Runtime/Npu/ll_aton/ll_aton.c ****       ATON_ENABLE(DECUN, unitId);
 336:Lib/AI_Runtime/Npu/ll_aton/ll_aton.c ****       break;
 337:Lib/AI_Runtime/Npu/ll_aton/ll_aton.c **** #endif
 338:Lib/AI_Runtime/Npu/ll_aton/ll_aton.c **** 
 339:Lib/AI_Runtime/Npu/ll_aton/ll_aton.c **** #ifdef ATON_ACTIV_NUM
 340:Lib/AI_Runtime/Npu/ll_aton/ll_aton.c ****     case ACTIV:
 341:Lib/AI_Runtime/Npu/ll_aton/ll_aton.c ****       ATON_ENABLE(ACTIV, unitId);
 342:Lib/AI_Runtime/Npu/ll_aton/ll_aton.c ****       break;
 343:Lib/AI_Runtime/Npu/ll_aton/ll_aton.c **** #endif
 344:Lib/AI_Runtime/Npu/ll_aton/ll_aton.c **** 
 345:Lib/AI_Runtime/Npu/ll_aton/ll_aton.c **** #ifdef ATON_ARITH_NUM
 346:Lib/AI_Runtime/Npu/ll_aton/ll_aton.c ****     case ARITH:
 347:Lib/AI_Runtime/Npu/ll_aton/ll_aton.c ****       ATON_ENABLE(ARITH, unitId);
 348:Lib/AI_Runtime/Npu/ll_aton/ll_aton.c ****       break;
 349:Lib/AI_Runtime/Npu/ll_aton/ll_aton.c **** #endif
 350:Lib/AI_Runtime/Npu/ll_aton/ll_aton.c **** 
 351:Lib/AI_Runtime/Npu/ll_aton/ll_aton.c **** #ifdef ATON_POOL_NUM
 352:Lib/AI_Runtime/Npu/ll_aton/ll_aton.c ****     case POOL:
 353:Lib/AI_Runtime/Npu/ll_aton/ll_aton.c **** #ifdef POOL_RC14
 354:Lib/AI_Runtime/Npu/ll_aton/ll_aton.c ****       ATON_POOL_CTRL_SET(unitId, ATON_POOL_CTRL_SET_EN(ATON_POOL_CTRL_GET(unitId), 1));
 355:Lib/AI_Runtime/Npu/ll_aton/ll_aton.c **** #else  // !POOL_RC14
 356:Lib/AI_Runtime/Npu/ll_aton/ll_aton.c ****       ATON_ENABLE(POOL, unitId);
 357:Lib/AI_Runtime/Npu/ll_aton/ll_aton.c **** #endif // !POOL_RC14
 358:Lib/AI_Runtime/Npu/ll_aton/ll_aton.c ****       break;
 359:Lib/AI_Runtime/Npu/ll_aton/ll_aton.c **** #endif
 360:Lib/AI_Runtime/Npu/ll_aton/ll_aton.c **** #ifdef ATON_RECBUF_NUM
 361:Lib/AI_Runtime/Npu/ll_aton/ll_aton.c ****     case RECBUF:
 362:Lib/AI_Runtime/Npu/ll_aton/ll_aton.c ****       ATON_ENABLE(RECBUF, unitId);
 363:Lib/AI_Runtime/Npu/ll_aton/ll_aton.c ****       break;
 364:Lib/AI_Runtime/Npu/ll_aton/ll_aton.c **** #endif
 365:Lib/AI_Runtime/Npu/ll_aton/ll_aton.c **** 
 366:Lib/AI_Runtime/Npu/ll_aton/ll_aton.c ****     default:
 367:Lib/AI_Runtime/Npu/ll_aton/ll_aton.c ****       break;
ARM GAS  C:\Users\DJESSOU\AppData\Local\Temp\ccFxekaC.s 			page 8


 368:Lib/AI_Runtime/Npu/ll_aton/ll_aton.c ****     }
 369:Lib/AI_Runtime/Npu/ll_aton/ll_aton.c ****   }
 370:Lib/AI_Runtime/Npu/ll_aton/ll_aton.c **** 
 371:Lib/AI_Runtime/Npu/ll_aton/ll_aton.c ****   return 0;
 372:Lib/AI_Runtime/Npu/ll_aton/ll_aton.c **** }
 373:Lib/AI_Runtime/Npu/ll_aton/ll_aton.c **** 
 374:Lib/AI_Runtime/Npu/ll_aton/ll_aton.c **** /**
 375:Lib/AI_Runtime/Npu/ll_aton/ll_aton.c ****  * @brief  Disables a set of ATON units
 376:Lib/AI_Runtime/Npu/ll_aton/ll_aton.c ****  * @param  LL_ATON_DisableUnits_InitTypeDef Array of units to disable
 377:Lib/AI_Runtime/Npu/ll_aton/ll_aton.c ****  * @param  n Length of the initialization array
 378:Lib/AI_Runtime/Npu/ll_aton/ll_aton.c ****  * @retval Error code
 379:Lib/AI_Runtime/Npu/ll_aton/ll_aton.c ****  */
 380:Lib/AI_Runtime/Npu/ll_aton/ll_aton.c **** int LL_ATON_DisableUnits_Init(const LL_ATON_DisableUnits_InitTypeDef *LL_ATON_DisableUnits_InitStru
 381:Lib/AI_Runtime/Npu/ll_aton/ll_aton.c **** {
 382:Lib/AI_Runtime/Npu/ll_aton/ll_aton.c ****   int i;
 383:Lib/AI_Runtime/Npu/ll_aton/ll_aton.c ****   enum AccelUnitsType unitType;
 384:Lib/AI_Runtime/Npu/ll_aton/ll_aton.c ****   uint32_t unitId;
 385:Lib/AI_Runtime/Npu/ll_aton/ll_aton.c ****   uint32_t t;
 386:Lib/AI_Runtime/Npu/ll_aton/ll_aton.c **** 
 387:Lib/AI_Runtime/Npu/ll_aton/ll_aton.c ****   for (i = 0; i < n; i++)
 388:Lib/AI_Runtime/Npu/ll_aton/ll_aton.c ****   {
 389:Lib/AI_Runtime/Npu/ll_aton/ll_aton.c ****     unitType = LL_ATON_DisableUnits_InitStruct[i].unit.unit_type;
 390:Lib/AI_Runtime/Npu/ll_aton/ll_aton.c ****     unitId = LL_ATON_DisableUnits_InitStruct[i].unit.unit_num;
 391:Lib/AI_Runtime/Npu/ll_aton/ll_aton.c **** 
 392:Lib/AI_Runtime/Npu/ll_aton/ll_aton.c ****     switch (unitType)
 393:Lib/AI_Runtime/Npu/ll_aton/ll_aton.c ****     {
 394:Lib/AI_Runtime/Npu/ll_aton/ll_aton.c **** #ifdef ATON_STRENG_NUM
 395:Lib/AI_Runtime/Npu/ll_aton/ll_aton.c ****     case STRENG:
 396:Lib/AI_Runtime/Npu/ll_aton/ll_aton.c ****       ATON_DISABLE(STRENG, unitId);
 397:Lib/AI_Runtime/Npu/ll_aton/ll_aton.c ****       LL_ATON_DisableClock(ATON_STRENG_CLKB_CLK(unitId));
 398:Lib/AI_Runtime/Npu/ll_aton/ll_aton.c ****       break;
 399:Lib/AI_Runtime/Npu/ll_aton/ll_aton.c **** #endif
 400:Lib/AI_Runtime/Npu/ll_aton/ll_aton.c **** 
 401:Lib/AI_Runtime/Npu/ll_aton/ll_aton.c **** #ifdef ATON_CONVACC_NUM
 402:Lib/AI_Runtime/Npu/ll_aton/ll_aton.c ****     case CONVACC:
 403:Lib/AI_Runtime/Npu/ll_aton/ll_aton.c ****       ATON_DISABLE(CONVACC, unitId);
 404:Lib/AI_Runtime/Npu/ll_aton/ll_aton.c ****       LL_ATON_DisableClock(ATON_CONVACC_CLKB_CLK(unitId));
 405:Lib/AI_Runtime/Npu/ll_aton/ll_aton.c ****       break;
 406:Lib/AI_Runtime/Npu/ll_aton/ll_aton.c **** #endif
 407:Lib/AI_Runtime/Npu/ll_aton/ll_aton.c **** 
 408:Lib/AI_Runtime/Npu/ll_aton/ll_aton.c **** #ifdef ATON_DECUN_NUM
 409:Lib/AI_Runtime/Npu/ll_aton/ll_aton.c ****     case DECUN:
 410:Lib/AI_Runtime/Npu/ll_aton/ll_aton.c ****       ATON_DISABLE(DECUN, unitId);
 411:Lib/AI_Runtime/Npu/ll_aton/ll_aton.c ****       LL_ATON_DisableClock(ATON_DECUN_CLKB_CLK(unitId));
 412:Lib/AI_Runtime/Npu/ll_aton/ll_aton.c ****       break;
 413:Lib/AI_Runtime/Npu/ll_aton/ll_aton.c **** #endif
 414:Lib/AI_Runtime/Npu/ll_aton/ll_aton.c **** 
 415:Lib/AI_Runtime/Npu/ll_aton/ll_aton.c **** #ifdef ATON_ACTIV_NUM
 416:Lib/AI_Runtime/Npu/ll_aton/ll_aton.c ****     case ACTIV:
 417:Lib/AI_Runtime/Npu/ll_aton/ll_aton.c ****       ATON_DISABLE(ACTIV, unitId);
 418:Lib/AI_Runtime/Npu/ll_aton/ll_aton.c ****       LL_ATON_DisableClock(ATON_ACTIV_CLKB_CLK(unitId));
 419:Lib/AI_Runtime/Npu/ll_aton/ll_aton.c ****       break;
 420:Lib/AI_Runtime/Npu/ll_aton/ll_aton.c **** #endif
 421:Lib/AI_Runtime/Npu/ll_aton/ll_aton.c **** 
 422:Lib/AI_Runtime/Npu/ll_aton/ll_aton.c **** #ifdef ATON_ARITH_NUM
 423:Lib/AI_Runtime/Npu/ll_aton/ll_aton.c ****     case ARITH:
 424:Lib/AI_Runtime/Npu/ll_aton/ll_aton.c ****       ATON_DISABLE(ARITH, unitId);
ARM GAS  C:\Users\DJESSOU\AppData\Local\Temp\ccFxekaC.s 			page 9


 425:Lib/AI_Runtime/Npu/ll_aton/ll_aton.c ****       LL_ATON_DisableClock(ATON_ARITH_CLKB_CLK(unitId));
 426:Lib/AI_Runtime/Npu/ll_aton/ll_aton.c ****       break;
 427:Lib/AI_Runtime/Npu/ll_aton/ll_aton.c **** #endif
 428:Lib/AI_Runtime/Npu/ll_aton/ll_aton.c **** 
 429:Lib/AI_Runtime/Npu/ll_aton/ll_aton.c **** #ifdef ATON_POOL_NUM
 430:Lib/AI_Runtime/Npu/ll_aton/ll_aton.c ****     case POOL:
 431:Lib/AI_Runtime/Npu/ll_aton/ll_aton.c **** #ifdef POOL_RC14
 432:Lib/AI_Runtime/Npu/ll_aton/ll_aton.c ****       ATON_POOL_CTRL_SET(unitId, ATON_POOL_CTRL_SET_EN(ATON_POOL_CTRL_GET(unitId), 0));
 433:Lib/AI_Runtime/Npu/ll_aton/ll_aton.c **** #else  // !POOL_RC14
 434:Lib/AI_Runtime/Npu/ll_aton/ll_aton.c ****       ATON_DISABLE(POOL, unitId);
 435:Lib/AI_Runtime/Npu/ll_aton/ll_aton.c **** #endif // !POOL_RC14
 436:Lib/AI_Runtime/Npu/ll_aton/ll_aton.c **** 
 437:Lib/AI_Runtime/Npu/ll_aton/ll_aton.c ****       LL_ATON_DisableClock(ATON_POOL_CLKB_CLK(unitId));
 438:Lib/AI_Runtime/Npu/ll_aton/ll_aton.c ****       break;
 439:Lib/AI_Runtime/Npu/ll_aton/ll_aton.c **** #endif
 440:Lib/AI_Runtime/Npu/ll_aton/ll_aton.c **** 
 441:Lib/AI_Runtime/Npu/ll_aton/ll_aton.c **** #ifdef ATON_RECBUF_NUM
 442:Lib/AI_Runtime/Npu/ll_aton/ll_aton.c ****     case RECBUF:
 443:Lib/AI_Runtime/Npu/ll_aton/ll_aton.c ****       ATON_DISABLE(RECBUF, unitId);
 444:Lib/AI_Runtime/Npu/ll_aton/ll_aton.c ****       LL_ATON_DisableClock(ATON_RECBUF_CLKB_CLK(unitId));
 445:Lib/AI_Runtime/Npu/ll_aton/ll_aton.c ****       break;
 446:Lib/AI_Runtime/Npu/ll_aton/ll_aton.c **** #endif
 447:Lib/AI_Runtime/Npu/ll_aton/ll_aton.c **** 
 448:Lib/AI_Runtime/Npu/ll_aton/ll_aton.c ****     default:
 449:Lib/AI_Runtime/Npu/ll_aton/ll_aton.c ****       return LL_ATON_INVALID_PARAM;
 450:Lib/AI_Runtime/Npu/ll_aton/ll_aton.c ****     }
 451:Lib/AI_Runtime/Npu/ll_aton/ll_aton.c ****   }
 452:Lib/AI_Runtime/Npu/ll_aton/ll_aton.c **** 
 453:Lib/AI_Runtime/Npu/ll_aton/ll_aton.c ****   return LL_ATON_OK;
 454:Lib/AI_Runtime/Npu/ll_aton/ll_aton.c **** }
 455:Lib/AI_Runtime/Npu/ll_aton/ll_aton.c **** 
 456:Lib/AI_Runtime/Npu/ll_aton/ll_aton.c **** /**
 457:Lib/AI_Runtime/Npu/ll_aton/ll_aton.c ****  * @brief  Waits for streaming engine(s) to become idle
 458:Lib/AI_Runtime/Npu/ll_aton/ll_aton.c ****  * @param  mask Bitmask of DMA identifiers
 459:Lib/AI_Runtime/Npu/ll_aton/ll_aton.c ****  * @retval Error code
 460:Lib/AI_Runtime/Npu/ll_aton/ll_aton.c ****  */
 461:Lib/AI_Runtime/Npu/ll_aton/ll_aton.c **** int LL_Streng_Wait(uint32_t mask)
 462:Lib/AI_Runtime/Npu/ll_aton/ll_aton.c **** {
 463:Lib/AI_Runtime/Npu/ll_aton/ll_aton.c ****   int i;
 464:Lib/AI_Runtime/Npu/ll_aton/ll_aton.c ****   uint32_t enableFlags;
 465:Lib/AI_Runtime/Npu/ll_aton/ll_aton.c **** 
 466:Lib/AI_Runtime/Npu/ll_aton/ll_aton.c ****   startWatchdog(ATON_EPOCH_TIMEOUT);
 467:Lib/AI_Runtime/Npu/ll_aton/ll_aton.c **** 
 468:Lib/AI_Runtime/Npu/ll_aton/ll_aton.c ****   do
 469:Lib/AI_Runtime/Npu/ll_aton/ll_aton.c ****   {
 470:Lib/AI_Runtime/Npu/ll_aton/ll_aton.c ****     enableFlags = 0;
 471:Lib/AI_Runtime/Npu/ll_aton/ll_aton.c ****     for (i = 0; i < ATON_STRENG_NUM; i++)
 472:Lib/AI_Runtime/Npu/ll_aton/ll_aton.c ****     {
 473:Lib/AI_Runtime/Npu/ll_aton/ll_aton.c ****       if (mask & (1 << i))
 474:Lib/AI_Runtime/Npu/ll_aton/ll_aton.c ****       {
 475:Lib/AI_Runtime/Npu/ll_aton/ll_aton.c ****         enableFlags |= (ATON_STRENG_CTRL_GET(i) & (1U << ATON_STRENG_CTRL_RUNNING_LSB));
 476:Lib/AI_Runtime/Npu/ll_aton/ll_aton.c ****       }
 477:Lib/AI_Runtime/Npu/ll_aton/ll_aton.c ****     }
 478:Lib/AI_Runtime/Npu/ll_aton/ll_aton.c **** 
 479:Lib/AI_Runtime/Npu/ll_aton/ll_aton.c ****     LL_ATON_ASSERT(checkWatchdog() == 0);
 480:Lib/AI_Runtime/Npu/ll_aton/ll_aton.c **** 
 481:Lib/AI_Runtime/Npu/ll_aton/ll_aton.c ****   } while (enableFlags);
ARM GAS  C:\Users\DJESSOU\AppData\Local\Temp\ccFxekaC.s 			page 10


 482:Lib/AI_Runtime/Npu/ll_aton/ll_aton.c **** 
 483:Lib/AI_Runtime/Npu/ll_aton/ll_aton.c ****   return LL_ATON_OK;
 484:Lib/AI_Runtime/Npu/ll_aton/ll_aton.c **** }
 485:Lib/AI_Runtime/Npu/ll_aton/ll_aton.c **** 
 486:Lib/AI_Runtime/Npu/ll_aton/ll_aton.c **** /**
 487:Lib/AI_Runtime/Npu/ll_aton/ll_aton.c ****  * @brief  Configures streaming engine
 488:Lib/AI_Runtime/Npu/ll_aton/ll_aton.c ****  * @param  id Streaming engine identifier [0..ATON_STRENG_NUM-1]
 489:Lib/AI_Runtime/Npu/ll_aton/ll_aton.c ****  * @param  conf Pointer to structure(s) describing initialization parameters
 490:Lib/AI_Runtime/Npu/ll_aton/ll_aton.c ****  * @param  n Number of elements in initialization structure array
 491:Lib/AI_Runtime/Npu/ll_aton/ll_aton.c ****  * @retval error code. E.g.: Invalid ID, invalid parameters, not idle,..
 492:Lib/AI_Runtime/Npu/ll_aton/ll_aton.c ****  */
 493:Lib/AI_Runtime/Npu/ll_aton/ll_aton.c **** int LL_Streng_TensorInit(int id, const LL_Streng_TensorInitTypeDef *conf, int n)
 494:Lib/AI_Runtime/Npu/ll_aton/ll_aton.c **** {
 495:Lib/AI_Runtime/Npu/ll_aton/ll_aton.c ****   uint32_t t;
 496:Lib/AI_Runtime/Npu/ll_aton/ll_aton.c **** 
 497:Lib/AI_Runtime/Npu/ll_aton/ll_aton.c ****   /* deferred register values */
 498:Lib/AI_Runtime/Npu/ll_aton/ll_aton.c ****   uint32_t t_streng_strd = ATON_STRENG_STRD_DT;
 499:Lib/AI_Runtime/Npu/ll_aton/ll_aton.c ****   uint32_t t_streng_cid_cache = ATON_STRENG_CID_CACHE_DT;
 500:Lib/AI_Runtime/Npu/ll_aton/ll_aton.c ****   uint32_t t_streng_event = ATON_STRENG_EVENT_DT;
 501:Lib/AI_Runtime/Npu/ll_aton/ll_aton.c **** 
 502:Lib/AI_Runtime/Npu/ll_aton/ll_aton.c ****   if (id >= ATON_STRENG_NUM)
 503:Lib/AI_Runtime/Npu/ll_aton/ll_aton.c ****     return LL_ATON_INVALID_ID;
 504:Lib/AI_Runtime/Npu/ll_aton/ll_aton.c **** 
 505:Lib/AI_Runtime/Npu/ll_aton/ll_aton.c ****   LL_ATON_EnableClock(ATON_STRENG_CLKB_CLK(id));
 506:Lib/AI_Runtime/Npu/ll_aton/ll_aton.c **** 
 507:Lib/AI_Runtime/Npu/ll_aton/ll_aton.c **** #define _LL_min(x, y) ((x) > (y) ? (y) : (x))
 508:Lib/AI_Runtime/Npu/ll_aton/ll_aton.c **** 
 509:Lib/AI_Runtime/Npu/ll_aton/ll_aton.c ****   if (n != 1)
 510:Lib/AI_Runtime/Npu/ll_aton/ll_aton.c ****     return -1;
 511:Lib/AI_Runtime/Npu/ll_aton/ll_aton.c ****     // if (conf->dir == 0 && (conf->nbits_in > conf->nbits_out)) return -1;
 512:Lib/AI_Runtime/Npu/ll_aton/ll_aton.c **** #ifndef ATON_IMC_NUM
 513:Lib/AI_Runtime/Npu/ll_aton/ll_aton.c ****   if (conf->nbits_in > 24 || conf->nbits_out > 24)
 514:Lib/AI_Runtime/Npu/ll_aton/ll_aton.c ****     return -1;
 515:Lib/AI_Runtime/Npu/ll_aton/ll_aton.c **** #endif
 516:Lib/AI_Runtime/Npu/ll_aton/ll_aton.c **** 
 517:Lib/AI_Runtime/Npu/ll_aton/ll_aton.c ****   t = ATON_STRENG_CTRL_DT;
 518:Lib/AI_Runtime/Npu/ll_aton/ll_aton.c ****   t = ATON_STRENG_CTRL_SET_DIR(t, (conf->dir != 0));
 519:Lib/AI_Runtime/Npu/ll_aton/ll_aton.c ****   t = ATON_STRENG_CTRL_SET_RAW(t, (conf->raw != 0));
 520:Lib/AI_Runtime/Npu/ll_aton/ll_aton.c **** #ifdef ATON_STRENG_CTRL_SET_RAW_OUT
 521:Lib/AI_Runtime/Npu/ll_aton/ll_aton.c ****   t = ATON_STRENG_CTRL_SET_RAW_OUT(t, conf->raw_out);
 522:Lib/AI_Runtime/Npu/ll_aton/ll_aton.c **** #else
 523:Lib/AI_Runtime/Npu/ll_aton/ll_aton.c ****   /* Hardware feature not supported */
 524:Lib/AI_Runtime/Npu/ll_aton/ll_aton.c ****   LL_ATON_ASSERT(conf->raw_out == 0);
 525:Lib/AI_Runtime/Npu/ll_aton/ll_aton.c **** #endif
 526:Lib/AI_Runtime/Npu/ll_aton/ll_aton.c ****   t = ATON_STRENG_CTRL_SET_NOBLK(t, (conf->noblk != 0));
 527:Lib/AI_Runtime/Npu/ll_aton/ll_aton.c ****   t = ATON_STRENG_CTRL_SET_NOINC(t, (conf->noinc == 1));
 528:Lib/AI_Runtime/Npu/ll_aton/ll_aton.c ****   t = ATON_STRENG_CTRL_SET_SINGLE(t, conf->frame_tot_cnt == 1);
 529:Lib/AI_Runtime/Npu/ll_aton/ll_aton.c ****   t = ATON_STRENG_CTRL_SET_CONT(t, conf->continuous == 1);
 530:Lib/AI_Runtime/Npu/ll_aton/ll_aton.c ****   t = ATON_STRENG_CTRL_SET_LSBMODE(t, conf->align_right == 1);
 531:Lib/AI_Runtime/Npu/ll_aton/ll_aton.c ****   t = ATON_STRENG_CTRL_SET_SIGNEXT(t, conf->align_right == 1 && conf->nbits_unsigned == 0);
 532:Lib/AI_Runtime/Npu/ll_aton/ll_aton.c **** 
 533:Lib/AI_Runtime/Npu/ll_aton/ll_aton.c ****   int ch_bits[3] = {0, 0, 0};
 534:Lib/AI_Runtime/Npu/ll_aton/ll_aton.c ****   int in_bits[3];
 535:Lib/AI_Runtime/Npu/ll_aton/ll_aton.c ****   int out_bits[3];
 536:Lib/AI_Runtime/Npu/ll_aton/ll_aton.c ****   int nbits_out = conf->nbits_out;
 537:Lib/AI_Runtime/Npu/ll_aton/ll_aton.c ****   int nbits_in = conf->nbits_in;
 538:Lib/AI_Runtime/Npu/ll_aton/ll_aton.c **** 
ARM GAS  C:\Users\DJESSOU\AppData\Local\Temp\ccFxekaC.s 			page 11


 539:Lib/AI_Runtime/Npu/ll_aton/ll_aton.c ****   // case 0: bus -> stream --> in_bits > out_bits -> use FRONT_GAP
 540:Lib/AI_Runtime/Npu/ll_aton/ll_aton.c ****   //                      |
 541:Lib/AI_Runtime/Npu/ll_aton/ll_aton.c ****   // case 1:              --> in_bits <= out_bits -> use lanes but valid for out_bits=8,16,24 for o
 542:Lib/AI_Runtime/Npu/ll_aton/ll_aton.c ****   // is right shifted by (8,16,24) - out_bits
 543:Lib/AI_Runtime/Npu/ll_aton/ll_aton.c ****   //
 544:Lib/AI_Runtime/Npu/ll_aton/ll_aton.c ****   // case 2: stream->bus  --> in_bits >= out_bits -> use lanes but valid for in_bits=8,16,24 for ot
 545:Lib/AI_Runtime/Npu/ll_aton/ll_aton.c ****   // right shifted by (8,16,24) - out_bits
 546:Lib/AI_Runtime/Npu/ll_aton/ll_aton.c ****   //                      |
 547:Lib/AI_Runtime/Npu/ll_aton/ll_aton.c ****   // case 3:              --> in_bits < out_bits -> use FRONT_GAP
 548:Lib/AI_Runtime/Npu/ll_aton/ll_aton.c **** 
 549:Lib/AI_Runtime/Npu/ll_aton/ll_aton.c ****   int io_case = ((conf->dir != 0) << 1);
 550:Lib/AI_Runtime/Npu/ll_aton/ll_aton.c ****   io_case += (conf->dir == 0 ? (conf->nbits_in <= conf->nbits_out) : (conf->nbits_in < conf->nbits_
 551:Lib/AI_Runtime/Npu/ll_aton/ll_aton.c **** 
 552:Lib/AI_Runtime/Npu/ll_aton/ll_aton.c ****   switch (io_case)
 553:Lib/AI_Runtime/Npu/ll_aton/ll_aton.c ****   {
 554:Lib/AI_Runtime/Npu/ll_aton/ll_aton.c ****   case 0: // in_bits > out_bits && bus->stream
 555:Lib/AI_Runtime/Npu/ll_aton/ll_aton.c ****           // must use FRONT_GAP
 556:Lib/AI_Runtime/Npu/ll_aton/ll_aton.c ****   {
 557:Lib/AI_Runtime/Npu/ll_aton/ll_aton.c ****     if (conf->mem_lsb)
 558:Lib/AI_Runtime/Npu/ll_aton/ll_aton.c ****       t_streng_strd = ATON_STRENG_STRD_SET_FGAP(t_streng_strd, (nbits_in - nbits_out));
 559:Lib/AI_Runtime/Npu/ll_aton/ll_aton.c ****     else
 560:Lib/AI_Runtime/Npu/ll_aton/ll_aton.c ****       t_streng_strd = ATON_STRENG_STRD_SET_BGAP(t_streng_strd, (nbits_in - nbits_out));
 561:Lib/AI_Runtime/Npu/ll_aton/ll_aton.c ****     nbits_in = nbits_out;
 562:Lib/AI_Runtime/Npu/ll_aton/ll_aton.c ****   }
 563:Lib/AI_Runtime/Npu/ll_aton/ll_aton.c ****   // intentional fall through
 564:Lib/AI_Runtime/Npu/ll_aton/ll_aton.c ****   case 1: // in_bits <= out_bits && bus->stream
 565:Lib/AI_Runtime/Npu/ll_aton/ll_aton.c ****     in_bits[0] = _LL_min(8, nbits_in);
 566:Lib/AI_Runtime/Npu/ll_aton/ll_aton.c ****     in_bits[1] = nbits_in > 8 ? _LL_min(8, nbits_in - 8) : 0;
 567:Lib/AI_Runtime/Npu/ll_aton/ll_aton.c ****     in_bits[2] = nbits_in > 16 ? _LL_min(8, nbits_in - 16) : 0;
 568:Lib/AI_Runtime/Npu/ll_aton/ll_aton.c ****     if (conf->align_right)
 569:Lib/AI_Runtime/Npu/ll_aton/ll_aton.c ****     {
 570:Lib/AI_Runtime/Npu/ll_aton/ll_aton.c ****       ch_bits[0] = in_bits[0];
 571:Lib/AI_Runtime/Npu/ll_aton/ll_aton.c ****       ch_bits[1] = in_bits[1];
 572:Lib/AI_Runtime/Npu/ll_aton/ll_aton.c ****       ch_bits[2] = in_bits[2];
 573:Lib/AI_Runtime/Npu/ll_aton/ll_aton.c ****     }
 574:Lib/AI_Runtime/Npu/ll_aton/ll_aton.c ****     else
 575:Lib/AI_Runtime/Npu/ll_aton/ll_aton.c ****     {
 576:Lib/AI_Runtime/Npu/ll_aton/ll_aton.c ****       if (nbits_out > 16)
 577:Lib/AI_Runtime/Npu/ll_aton/ll_aton.c ****       {
 578:Lib/AI_Runtime/Npu/ll_aton/ll_aton.c ****         ch_bits[2] = in_bits[0];
 579:Lib/AI_Runtime/Npu/ll_aton/ll_aton.c ****         ch_bits[1] = in_bits[1];
 580:Lib/AI_Runtime/Npu/ll_aton/ll_aton.c ****         ch_bits[0] = in_bits[2];
 581:Lib/AI_Runtime/Npu/ll_aton/ll_aton.c ****       }
 582:Lib/AI_Runtime/Npu/ll_aton/ll_aton.c ****       else if (nbits_out > 8)
 583:Lib/AI_Runtime/Npu/ll_aton/ll_aton.c ****       {
 584:Lib/AI_Runtime/Npu/ll_aton/ll_aton.c ****         ch_bits[1] = in_bits[0];
 585:Lib/AI_Runtime/Npu/ll_aton/ll_aton.c ****         ch_bits[0] = in_bits[1];
 586:Lib/AI_Runtime/Npu/ll_aton/ll_aton.c ****       } // N.B. the DMA stuffs the bits to the left of the channel
 587:Lib/AI_Runtime/Npu/ll_aton/ll_aton.c ****       else
 588:Lib/AI_Runtime/Npu/ll_aton/ll_aton.c ****         ch_bits[0] = in_bits[0];
 589:Lib/AI_Runtime/Npu/ll_aton/ll_aton.c ****     }
 590:Lib/AI_Runtime/Npu/ll_aton/ll_aton.c ****     break;
 591:Lib/AI_Runtime/Npu/ll_aton/ll_aton.c ****   case 3: // in_bits < out_bits && stream->bus
 592:Lib/AI_Runtime/Npu/ll_aton/ll_aton.c ****   {
 593:Lib/AI_Runtime/Npu/ll_aton/ll_aton.c ****     if (conf->mem_lsb)
 594:Lib/AI_Runtime/Npu/ll_aton/ll_aton.c ****       t_streng_strd = ATON_STRENG_STRD_SET_FGAP(t_streng_strd, (nbits_out - nbits_in));
 595:Lib/AI_Runtime/Npu/ll_aton/ll_aton.c ****     else
ARM GAS  C:\Users\DJESSOU\AppData\Local\Temp\ccFxekaC.s 			page 12


 596:Lib/AI_Runtime/Npu/ll_aton/ll_aton.c ****       t_streng_strd = ATON_STRENG_STRD_SET_BGAP(t_streng_strd, (nbits_out - nbits_in));
 597:Lib/AI_Runtime/Npu/ll_aton/ll_aton.c ****     nbits_out = nbits_in;
 598:Lib/AI_Runtime/Npu/ll_aton/ll_aton.c ****   }
 599:Lib/AI_Runtime/Npu/ll_aton/ll_aton.c ****   // intentional fall through
 600:Lib/AI_Runtime/Npu/ll_aton/ll_aton.c ****   case 2: // in_bits >= out_bits && stream->bus
 601:Lib/AI_Runtime/Npu/ll_aton/ll_aton.c ****     out_bits[0] = _LL_min(8, nbits_out);
 602:Lib/AI_Runtime/Npu/ll_aton/ll_aton.c ****     out_bits[1] = nbits_out > 8 ? _LL_min(8, nbits_out - 8) : 0;
 603:Lib/AI_Runtime/Npu/ll_aton/ll_aton.c ****     out_bits[2] = nbits_out > 16 ? _LL_min(8, nbits_out - 16) : 0;
 604:Lib/AI_Runtime/Npu/ll_aton/ll_aton.c ****     if (conf->align_right)
 605:Lib/AI_Runtime/Npu/ll_aton/ll_aton.c ****     {
 606:Lib/AI_Runtime/Npu/ll_aton/ll_aton.c ****       ch_bits[0] = out_bits[0];
 607:Lib/AI_Runtime/Npu/ll_aton/ll_aton.c ****       ch_bits[1] = out_bits[1];
 608:Lib/AI_Runtime/Npu/ll_aton/ll_aton.c ****       ch_bits[2] = out_bits[2];
 609:Lib/AI_Runtime/Npu/ll_aton/ll_aton.c ****     }
 610:Lib/AI_Runtime/Npu/ll_aton/ll_aton.c ****     else
 611:Lib/AI_Runtime/Npu/ll_aton/ll_aton.c ****     {
 612:Lib/AI_Runtime/Npu/ll_aton/ll_aton.c ****       if (nbits_in > 16)
 613:Lib/AI_Runtime/Npu/ll_aton/ll_aton.c ****       {
 614:Lib/AI_Runtime/Npu/ll_aton/ll_aton.c ****         ch_bits[2] = out_bits[0];
 615:Lib/AI_Runtime/Npu/ll_aton/ll_aton.c ****         ch_bits[1] = out_bits[1];
 616:Lib/AI_Runtime/Npu/ll_aton/ll_aton.c ****         ch_bits[0] = out_bits[2];
 617:Lib/AI_Runtime/Npu/ll_aton/ll_aton.c ****       }
 618:Lib/AI_Runtime/Npu/ll_aton/ll_aton.c ****       else if (nbits_in > 8)
 619:Lib/AI_Runtime/Npu/ll_aton/ll_aton.c ****       {
 620:Lib/AI_Runtime/Npu/ll_aton/ll_aton.c ****         ch_bits[1] = out_bits[0];
 621:Lib/AI_Runtime/Npu/ll_aton/ll_aton.c ****         ch_bits[0] = out_bits[1];
 622:Lib/AI_Runtime/Npu/ll_aton/ll_aton.c ****       } // N.B. the DMA stuffs the bits to the left of the channel
 623:Lib/AI_Runtime/Npu/ll_aton/ll_aton.c ****       else
 624:Lib/AI_Runtime/Npu/ll_aton/ll_aton.c ****         ch_bits[0] = out_bits[0];
 625:Lib/AI_Runtime/Npu/ll_aton/ll_aton.c ****     }
 626:Lib/AI_Runtime/Npu/ll_aton/ll_aton.c ****     break;
 627:Lib/AI_Runtime/Npu/ll_aton/ll_aton.c ****   }
 628:Lib/AI_Runtime/Npu/ll_aton/ll_aton.c **** 
 629:Lib/AI_Runtime/Npu/ll_aton/ll_aton.c **** /* Take care of N64 single size register. TODO: double check this  */
 630:Lib/AI_Runtime/Npu/ll_aton/ll_aton.c **** #ifdef ATON_STRENG_CTRL_SET_SIZE1
 631:Lib/AI_Runtime/Npu/ll_aton/ll_aton.c ****   t = ATON_STRENG_CTRL_SET_SIZE0(t, ch_bits[0]);
 632:Lib/AI_Runtime/Npu/ll_aton/ll_aton.c ****   t = ATON_STRENG_CTRL_SET_SIZE1(t, ch_bits[1]);
 633:Lib/AI_Runtime/Npu/ll_aton/ll_aton.c ****   t = ATON_STRENG_CTRL_SET_SIZE2(t, ch_bits[2]);
 634:Lib/AI_Runtime/Npu/ll_aton/ll_aton.c **** #else
 635:Lib/AI_Runtime/Npu/ll_aton/ll_aton.c ****   if (conf->dir)
 636:Lib/AI_Runtime/Npu/ll_aton/ll_aton.c ****     t = ATON_STRENG_CTRL_SET_SIZE0(t, conf->nbits_out);
 637:Lib/AI_Runtime/Npu/ll_aton/ll_aton.c ****   else
 638:Lib/AI_Runtime/Npu/ll_aton/ll_aton.c ****     t = ATON_STRENG_CTRL_SET_SIZE0(t, conf->nbits_in);
 639:Lib/AI_Runtime/Npu/ll_aton/ll_aton.c **** #endif
 640:Lib/AI_Runtime/Npu/ll_aton/ll_aton.c **** 
 641:Lib/AI_Runtime/Npu/ll_aton/ll_aton.c ****   ATON_STRENG_CTRL_SET(id, t);
 642:Lib/AI_Runtime/Npu/ll_aton/ll_aton.c **** 
 643:Lib/AI_Runtime/Npu/ll_aton/ll_aton.c ****   // ATON_STRENG_ADDR_SET(id, conf->addr_start.i);
 644:Lib/AI_Runtime/Npu/ll_aton/ll_aton.c ****   ATON_REG_WRITE_RELOC(((volatile uint32_t *)(uintptr_t)ATON_STRENG_ADDR_ADDR(id)), conf->addr_base
 645:Lib/AI_Runtime/Npu/ll_aton/ll_aton.c ****                        conf->offset_start);
 646:Lib/AI_Runtime/Npu/ll_aton/ll_aton.c **** 
 647:Lib/AI_Runtime/Npu/ll_aton/ll_aton.c ****   if (conf->raw)
 648:Lib/AI_Runtime/Npu/ll_aton/ll_aton.c ****   {
 649:Lib/AI_Runtime/Npu/ll_aton/ll_aton.c ****     if (conf->frame_count)
 650:Lib/AI_Runtime/Npu/ll_aton/ll_aton.c ****       t = conf->frame_count;
 651:Lib/AI_Runtime/Npu/ll_aton/ll_aton.c ****     else
 652:Lib/AI_Runtime/Npu/ll_aton/ll_aton.c ****     {
ARM GAS  C:\Users\DJESSOU\AppData\Local\Temp\ccFxekaC.s 			page 13


 653:Lib/AI_Runtime/Npu/ll_aton/ll_aton.c ****       // N.B. end - start must contain padding if nbits_in is not power of two
 654:Lib/AI_Runtime/Npu/ll_aton/ll_aton.c ****       t = (LL_Streng_len(conf) * 8) / (conf->dir == 0 ? conf->nbits_in : conf->nbits_out);
 655:Lib/AI_Runtime/Npu/ll_aton/ll_aton.c ****     }
 656:Lib/AI_Runtime/Npu/ll_aton/ll_aton.c ****     ATON_STRENG_FSIZE_SET(id, t);
 657:Lib/AI_Runtime/Npu/ll_aton/ll_aton.c ****   }
 658:Lib/AI_Runtime/Npu/ll_aton/ll_aton.c ****   else
 659:Lib/AI_Runtime/Npu/ll_aton/ll_aton.c ****   {
 660:Lib/AI_Runtime/Npu/ll_aton/ll_aton.c ****     t = ATON_STRENG_FSIZE_DT;
 661:Lib/AI_Runtime/Npu/ll_aton/ll_aton.c ****     t = ATON_STRENG_FSIZE_SET_WIDTH(t, conf->fwidth);
 662:Lib/AI_Runtime/Npu/ll_aton/ll_aton.c ****     t = ATON_STRENG_FSIZE_SET_HEIGHT(t, conf->fheight);
 663:Lib/AI_Runtime/Npu/ll_aton/ll_aton.c ****     ATON_STRENG_FSIZE_SET(id, t);
 664:Lib/AI_Runtime/Npu/ll_aton/ll_aton.c **** 
 665:Lib/AI_Runtime/Npu/ll_aton/ll_aton.c ****     uint32_t line_offset = conf->line_offset == 0 ? conf->fwidth * conf->batch_offset : conf->line_
 666:Lib/AI_Runtime/Npu/ll_aton/ll_aton.c ****     // if line_offset is left=0 then it's computed from the standard geometry of lines and batch
 667:Lib/AI_Runtime/Npu/ll_aton/ll_aton.c ****     t_streng_strd = ATON_STRENG_STRD_SET_LOFF(t_streng_strd, line_offset);
 668:Lib/AI_Runtime/Npu/ll_aton/ll_aton.c **** 
 669:Lib/AI_Runtime/Npu/ll_aton/ll_aton.c **** #if defined(ATON_STRENG_CID_CACHE_SET_LOFF_MSB)
 670:Lib/AI_Runtime/Npu/ll_aton/ll_aton.c ****     t = t_streng_cid_cache;
 671:Lib/AI_Runtime/Npu/ll_aton/ll_aton.c ****     t = ATON_STRENG_CID_CACHE_SET_LOFF_MSB(t, (line_offset >> ATON_STRENG_STRD_LOFF_W));
 672:Lib/AI_Runtime/Npu/ll_aton/ll_aton.c ****     t_streng_cid_cache = t;
 673:Lib/AI_Runtime/Npu/ll_aton/ll_aton.c **** #endif
 674:Lib/AI_Runtime/Npu/ll_aton/ll_aton.c **** 
 675:Lib/AI_Runtime/Npu/ll_aton/ll_aton.c ****     t = ATON_STRENG_DEPTH_DT;
 676:Lib/AI_Runtime/Npu/ll_aton/ll_aton.c ****     t = ATON_STRENG_DEPTH_SET_SIZE(t, conf->batch_depth);
 677:Lib/AI_Runtime/Npu/ll_aton/ll_aton.c ****     t = ATON_STRENG_DEPTH_SET_OFFSET(t, conf->batch_offset);
 678:Lib/AI_Runtime/Npu/ll_aton/ll_aton.c ****     ATON_STRENG_DEPTH_SET(id, t);
 679:Lib/AI_Runtime/Npu/ll_aton/ll_aton.c ****   }
 680:Lib/AI_Runtime/Npu/ll_aton/ll_aton.c **** 
 681:Lib/AI_Runtime/Npu/ll_aton/ll_aton.c ****   ATON_STRENG_FOFFSET_SET(id, conf->frame_offset);
 682:Lib/AI_Runtime/Npu/ll_aton/ll_aton.c **** 
 683:Lib/AI_Runtime/Npu/ll_aton/ll_aton.c ****   /* Frame repetition loop configuration */
 684:Lib/AI_Runtime/Npu/ll_aton/ll_aton.c ****   ATON_STRENG_FRPTOFF_SET(id, conf->loop_offset);
 685:Lib/AI_Runtime/Npu/ll_aton/ll_aton.c ****   ATON_STRENG_FRAME_RPT_SET(id, conf->frame_loop_cnt);
 686:Lib/AI_Runtime/Npu/ll_aton/ll_aton.c **** 
 687:Lib/AI_Runtime/Npu/ll_aton/ll_aton.c ****   /* Second level frame repetition loop configuration (if available) */
 688:Lib/AI_Runtime/Npu/ll_aton/ll_aton.c **** #ifdef ATON_STRENG_FRAME_RPT2_DT
 689:Lib/AI_Runtime/Npu/ll_aton/ll_aton.c ****   if (conf->frame_loop_cnt2 != ATON_STRENG_FRAME_RPT2_DT)
 690:Lib/AI_Runtime/Npu/ll_aton/ll_aton.c ****     ATON_STRENG_FRAME_RPT2_SET(id, conf->frame_loop_cnt2);
 691:Lib/AI_Runtime/Npu/ll_aton/ll_aton.c ****   if (conf->loop_offset2 != ATON_STRENG_FRPTOFF2_DT)
 692:Lib/AI_Runtime/Npu/ll_aton/ll_aton.c ****     ATON_STRENG_FRPTOFF2_SET(id, conf->loop_offset2);
 693:Lib/AI_Runtime/Npu/ll_aton/ll_aton.c **** #endif
 694:Lib/AI_Runtime/Npu/ll_aton/ll_aton.c **** 
 695:Lib/AI_Runtime/Npu/ll_aton/ll_aton.c ****   t = ATON_STRENG_LIMITEN_DT; // all other fields set to zero
 696:Lib/AI_Runtime/Npu/ll_aton/ll_aton.c ****   t = ATON_STRENG_LIMITEN_SET_FRAMELIMIT(t, 1);
 697:Lib/AI_Runtime/Npu/ll_aton/ll_aton.c **** #if defined(ATON_STRENG_LIMITEN_SET_DOFF_MSB)
 698:Lib/AI_Runtime/Npu/ll_aton/ll_aton.c ****   t = ATON_STRENG_LIMITEN_SET_DOFF_MSB(t, conf->batch_offset >> ATON_STRENG_DEPTH_OFFSET_W);
 699:Lib/AI_Runtime/Npu/ll_aton/ll_aton.c **** #endif
 700:Lib/AI_Runtime/Npu/ll_aton/ll_aton.c ****   ATON_STRENG_LIMITEN_SET(id, t);
 701:Lib/AI_Runtime/Npu/ll_aton/ll_aton.c **** 
 702:Lib/AI_Runtime/Npu/ll_aton/ll_aton.c ****   if (/*(conf->dir == 0) && */ (conf->offset_limit != 0x0))
 703:Lib/AI_Runtime/Npu/ll_aton/ll_aton.c ****   {
 704:Lib/AI_Runtime/Npu/ll_aton/ll_aton.c ****     t = ATON_STRENG_LIMITEN_SET_ADDRLIMIT(t, 1);
 705:Lib/AI_Runtime/Npu/ll_aton/ll_aton.c ****     t = ATON_STRENG_LIMITEN_SET_STOPPREFTC(t, 1);
 706:Lib/AI_Runtime/Npu/ll_aton/ll_aton.c ****     ATON_STRENG_LIMITEN_SET(id, t);
 707:Lib/AI_Runtime/Npu/ll_aton/ll_aton.c ****     // NOTE: limiter is to be set to last accessible byte address
 708:Lib/AI_Runtime/Npu/ll_aton/ll_aton.c ****     // ATON_STRENG_LIMITADDR_SET(id, (conf->addr_limit.i - 1));
 709:Lib/AI_Runtime/Npu/ll_aton/ll_aton.c ****     ATON_REG_WRITE_RELOC(((volatile uint32_t *)(uintptr_t)ATON_STRENG_LIMITADDR_ADDR(id)), conf->ad
ARM GAS  C:\Users\DJESSOU\AppData\Local\Temp\ccFxekaC.s 			page 14


 710:Lib/AI_Runtime/Npu/ll_aton/ll_aton.c ****                          conf->offset_limit - 1);
 711:Lib/AI_Runtime/Npu/ll_aton/ll_aton.c ****   }
 712:Lib/AI_Runtime/Npu/ll_aton/ll_aton.c **** 
 713:Lib/AI_Runtime/Npu/ll_aton/ll_aton.c ****   ATON_STRENG_LIMIT_SET(id, conf->frame_tot_cnt);
 714:Lib/AI_Runtime/Npu/ll_aton/ll_aton.c ****   // LL_ATON_PRINTF("frame_tot_cnt=%d\n", conf->frame_tot_cnt);
 715:Lib/AI_Runtime/Npu/ll_aton/ll_aton.c **** 
 716:Lib/AI_Runtime/Npu/ll_aton/ll_aton.c **** #if defined(ATON_STRENG_CID_CACHE_SET_CID)
 717:Lib/AI_Runtime/Npu/ll_aton/ll_aton.c ****   t_streng_cid_cache = ATON_STRENG_CID_CACHE_SET_CID(t_streng_cid_cache, conf->bus_cid);
 718:Lib/AI_Runtime/Npu/ll_aton/ll_aton.c ****   t_streng_cid_cache = ATON_STRENG_CID_CACHE_SET_CACHEABLE(t_streng_cid_cache, conf->cacheable);
 719:Lib/AI_Runtime/Npu/ll_aton/ll_aton.c ****   t_streng_cid_cache = ATON_STRENG_CID_CACHE_SET_ALLOC(t_streng_cid_cache, conf->cache_allocate);
 720:Lib/AI_Runtime/Npu/ll_aton/ll_aton.c ****   t_streng_cid_cache = ATON_STRENG_CID_CACHE_SET_PFETCH(t_streng_cid_cache, conf->bus_pfetch);
 721:Lib/AI_Runtime/Npu/ll_aton/ll_aton.c ****   t_streng_cid_cache = ATON_STRENG_CID_CACHE_SET_LINESIZE(t_streng_cid_cache, conf->cache_linesize)
 722:Lib/AI_Runtime/Npu/ll_aton/ll_aton.c **** #endif
 723:Lib/AI_Runtime/Npu/ll_aton/ll_aton.c **** 
 724:Lib/AI_Runtime/Npu/ll_aton/ll_aton.c ****   /* Enable event interrupts */
 725:Lib/AI_Runtime/Npu/ll_aton/ll_aton.c ****   if (conf->dir == 1)
 726:Lib/AI_Runtime/Npu/ll_aton/ll_aton.c ****   {
 727:Lib/AI_Runtime/Npu/ll_aton/ll_aton.c **** #if LL_ATON_EN_EVENT_IRQ
 728:Lib/AI_Runtime/Npu/ll_aton/ll_aton.c ****     t_streng_event = 0;
 729:Lib/AI_Runtime/Npu/ll_aton/ll_aton.c ****     t_streng_event = ATON_STRENG_EVENT_SET_EN_OFLOW_FRM(t_streng_event, 1); // enable frame overflo
 730:Lib/AI_Runtime/Npu/ll_aton/ll_aton.c **** #if 0
 731:Lib/AI_Runtime/Npu/ll_aton/ll_aton.c ****     t_streng_event = ATON_STRENG_EVENT_SET_EN_OFLOW_ADD(t_streng_event, 1); // enable address limit
 732:Lib/AI_Runtime/Npu/ll_aton/ll_aton.c **** #endif
 733:Lib/AI_Runtime/Npu/ll_aton/ll_aton.c **** #endif // LL_ATON_EN_EVENT_IRQ
 734:Lib/AI_Runtime/Npu/ll_aton/ll_aton.c ****   }
 735:Lib/AI_Runtime/Npu/ll_aton/ll_aton.c **** 
 736:Lib/AI_Runtime/Npu/ll_aton/ll_aton.c ****   /* Enable illegal configuration interrupts */
 737:Lib/AI_Runtime/Npu/ll_aton/ll_aton.c **** #if LL_ATON_EN_ERROR_IRQ
 738:Lib/AI_Runtime/Npu/ll_aton/ll_aton.c ****   t = t_streng_event;
 739:Lib/AI_Runtime/Npu/ll_aton/ll_aton.c ****   t = ATON_STRENG_EVENT_SET_EN_ILLCFG(t, 1); // Enable Illegal Configuration interrupt
 740:Lib/AI_Runtime/Npu/ll_aton/ll_aton.c ****   // t = ATON_STRENG_EVENT_SET_EN_FMTMM(t, 1); // Enable Format Mismatch interrupt (intentionally n
 741:Lib/AI_Runtime/Npu/ll_aton/ll_aton.c ****   t_streng_event = t;
 742:Lib/AI_Runtime/Npu/ll_aton/ll_aton.c **** #endif // LL_ATON_EN_ERROR_IRQ
 743:Lib/AI_Runtime/Npu/ll_aton/ll_aton.c **** 
 744:Lib/AI_Runtime/Npu/ll_aton/ll_aton.c ****   if ((conf->dir == 0) && conf->sync_with_other)
 745:Lib/AI_Runtime/Npu/ll_aton/ll_aton.c ****   {
 746:Lib/AI_Runtime/Npu/ll_aton/ll_aton.c ****     t = t_streng_event;
 747:Lib/AI_Runtime/Npu/ll_aton/ll_aton.c ****     t = ATON_STRENG_EVENT_SET_FRMTRG_EN(t, 1);               // Enable synchronizations of frames w
 748:Lib/AI_Runtime/Npu/ll_aton/ll_aton.c ****     t = ATON_STRENG_EVENT_SET_FRMTRG_SRC(t, conf->sync_dma); // Enable synchronizations of frames w
 749:Lib/AI_Runtime/Npu/ll_aton/ll_aton.c ****     t_streng_event = t;
 750:Lib/AI_Runtime/Npu/ll_aton/ll_aton.c ****   }
 751:Lib/AI_Runtime/Npu/ll_aton/ll_aton.c **** 
 752:Lib/AI_Runtime/Npu/ll_aton/ll_aton.c **** #if 1
 753:Lib/AI_Runtime/Npu/ll_aton/ll_aton.c ****   t = ATON_STRENG_POS_DT;
 754:Lib/AI_Runtime/Npu/ll_aton/ll_aton.c ****   t = ATON_STRENG_POS_SET_GAPCYCLES(t, 0); // set interline gap cycle to 0, as it should be safe to
 755:Lib/AI_Runtime/Npu/ll_aton/ll_aton.c ****   ATON_STRENG_POS_SET(id, t);
 756:Lib/AI_Runtime/Npu/ll_aton/ll_aton.c **** #endif
 757:Lib/AI_Runtime/Npu/ll_aton/ll_aton.c **** 
 758:Lib/AI_Runtime/Npu/ll_aton/ll_aton.c ****   /* deferred register setting */
 759:Lib/AI_Runtime/Npu/ll_aton/ll_aton.c ****   ATON_STRENG_STRD_SET(id, t_streng_strd);
 760:Lib/AI_Runtime/Npu/ll_aton/ll_aton.c ****   ATON_STRENG_CID_CACHE_SET(id, t_streng_cid_cache);
 761:Lib/AI_Runtime/Npu/ll_aton/ll_aton.c ****   ATON_STRENG_EVENT_SET(id, t_streng_event);
 762:Lib/AI_Runtime/Npu/ll_aton/ll_aton.c **** 
 763:Lib/AI_Runtime/Npu/ll_aton/ll_aton.c ****   /* Ciphering settings */
 764:Lib/AI_Runtime/Npu/ll_aton/ll_aton.c ****   if (ATON_STRENG_ENCRYPTION_EN(id))
 765:Lib/AI_Runtime/Npu/ll_aton/ll_aton.c ****   {
 766:Lib/AI_Runtime/Npu/ll_aton/ll_aton.c ****     t = ATON_STRENG_ENCR_MSB_DT;
ARM GAS  C:\Users\DJESSOU\AppData\Local\Temp\ccFxekaC.s 			page 15


 767:Lib/AI_Runtime/Npu/ll_aton/ll_aton.c ****     t = ATON_STRENG_ENCR_MSB_SET_EN(t, conf->cipher_en);
 768:Lib/AI_Runtime/Npu/ll_aton/ll_aton.c ****     t = ATON_STRENG_ENCR_MSB_SET_KEY_SEL(t, conf->key_sel);
 769:Lib/AI_Runtime/Npu/ll_aton/ll_aton.c ****     ATON_STRENG_ENCR_MSB_SET(id, t);
 770:Lib/AI_Runtime/Npu/ll_aton/ll_aton.c ****   }
 771:Lib/AI_Runtime/Npu/ll_aton/ll_aton.c **** 
 772:Lib/AI_Runtime/Npu/ll_aton/ll_aton.c ****   return 0;
 773:Lib/AI_Runtime/Npu/ll_aton/ll_aton.c **** }
 774:Lib/AI_Runtime/Npu/ll_aton/ll_aton.c **** 
 775:Lib/AI_Runtime/Npu/ll_aton/ll_aton.c **** /**
 776:Lib/AI_Runtime/Npu/ll_aton/ll_aton.c ****  * @brief Configures the Streaming Engine External trigger source
 777:Lib/AI_Runtime/Npu/ll_aton/ll_aton.c ****  *        To be used, for example, for configuring synchronization with DCMIPP
 778:Lib/AI_Runtime/Npu/ll_aton/ll_aton.c ****  * @param id Streaming engine identifier [0..ATON_STRENG_NUM-1]
 779:Lib/AI_Runtime/Npu/ll_aton/ll_aton.c ****  * @param conf Pointer to structure describing External Sync configuration
 780:Lib/AI_Runtime/Npu/ll_aton/ll_aton.c ****  */
 781:Lib/AI_Runtime/Npu/ll_aton/ll_aton.c **** int LL_Streng_ExtSyncInit(int id, LL_Streng_ExtSyncTypedef *conf)
 782:Lib/AI_Runtime/Npu/ll_aton/ll_aton.c **** {
 783:Lib/AI_Runtime/Npu/ll_aton/ll_aton.c **** #ifdef ATON_STRENG_EXTSYNC_SET
 784:Lib/AI_Runtime/Npu/ll_aton/ll_aton.c ****   uint32_t t;
 785:Lib/AI_Runtime/Npu/ll_aton/ll_aton.c **** 
 786:Lib/AI_Runtime/Npu/ll_aton/ll_aton.c ****   if (id >= ATON_STRENG_NUM)
 787:Lib/AI_Runtime/Npu/ll_aton/ll_aton.c ****     return LL_ATON_INVALID_ID;
 788:Lib/AI_Runtime/Npu/ll_aton/ll_aton.c **** 
 789:Lib/AI_Runtime/Npu/ll_aton/ll_aton.c ****   LL_ATON_EnableClock(ATON_STRENG_CLKB_CLK(id));
 790:Lib/AI_Runtime/Npu/ll_aton/ll_aton.c **** 
 791:Lib/AI_Runtime/Npu/ll_aton/ll_aton.c ****   t = ATON_STRENG_EXTSYNC_DT;
 792:Lib/AI_Runtime/Npu/ll_aton/ll_aton.c ****   t = ATON_STRENG_EXTSYNC_SET_EN(t, conf->enable);
 793:Lib/AI_Runtime/Npu/ll_aton/ll_aton.c ****   t = ATON_STRENG_EXTSYNC_SET_SRC(t, conf->trig_source);
 794:Lib/AI_Runtime/Npu/ll_aton/ll_aton.c ****   t = ATON_STRENG_EXTSYNC_SET_LINES(t, conf->lines);
 795:Lib/AI_Runtime/Npu/ll_aton/ll_aton.c ****   ATON_STRENG_EXTSYNC_SET(id, t);
 796:Lib/AI_Runtime/Npu/ll_aton/ll_aton.c **** 
 797:Lib/AI_Runtime/Npu/ll_aton/ll_aton.c ****   t = ATON_STRENG_EXTSYNC2_DT;
 798:Lib/AI_Runtime/Npu/ll_aton/ll_aton.c ****   t = ATON_STRENG_EXTSYNC2_SET_LINES(t, conf->lines_offset);
 799:Lib/AI_Runtime/Npu/ll_aton/ll_aton.c ****   t = ATON_STRENG_EXTSYNC2_SET_OFF(t, conf->offset);
 800:Lib/AI_Runtime/Npu/ll_aton/ll_aton.c ****   ATON_STRENG_EXTSYNC2_SET(id, t);
 801:Lib/AI_Runtime/Npu/ll_aton/ll_aton.c **** #endif
 802:Lib/AI_Runtime/Npu/ll_aton/ll_aton.c ****   return 0;
 803:Lib/AI_Runtime/Npu/ll_aton/ll_aton.c **** }
 804:Lib/AI_Runtime/Npu/ll_aton/ll_aton.c **** 
 805:Lib/AI_Runtime/Npu/ll_aton/ll_aton.c **** #if defined(ATON_EPOCHCTRL_NUM)
 806:Lib/AI_Runtime/Npu/ll_aton/ll_aton.c **** /**
 807:Lib/AI_Runtime/Npu/ll_aton/ll_aton.c ****  * @brief Sets external trigger signal to hi. Used to synchronize with external units, e.g.: HSP
 808:Lib/AI_Runtime/Npu/ll_aton/ll_aton.c ****  * @param irq Interrupt line used as trigger signal
 809:Lib/AI_Runtime/Npu/ll_aton/ll_aton.c ****  * @note uses Epoch Controller noack interrupt as irq source
 810:Lib/AI_Runtime/Npu/ll_aton/ll_aton.c ****  */
 811:Lib/AI_Runtime/Npu/ll_aton/ll_aton.c **** int LL_TriggerHigh(int irq)
 812:Lib/AI_Runtime/Npu/ll_aton/ll_aton.c **** {
 813:Lib/AI_Runtime/Npu/ll_aton/ll_aton.c ****   if (irq >= ATON_INTCTRL_INTS(0))
 814:Lib/AI_Runtime/Npu/ll_aton/ll_aton.c ****     return LL_ATON_INVALID_PARAM;
 815:Lib/AI_Runtime/Npu/ll_aton/ll_aton.c **** 
 816:Lib/AI_Runtime/Npu/ll_aton/ll_aton.c ****   ATON_INTCTRL_INTORMSK_SET(0, irq, ~(1 << ATON_INTCTRL_0_INTORMSK_EPOCHCTRL_0_1_IDX));
 817:Lib/AI_Runtime/Npu/ll_aton/ll_aton.c ****   ATON_INTCTRL_INTSET_SET(0, (1 << ATON_INTCTRL_0_INTSET_EPOCHCTRL_0_1_IDX));
 818:Lib/AI_Runtime/Npu/ll_aton/ll_aton.c ****   return 0;
 819:Lib/AI_Runtime/Npu/ll_aton/ll_aton.c **** }
 820:Lib/AI_Runtime/Npu/ll_aton/ll_aton.c **** 
 821:Lib/AI_Runtime/Npu/ll_aton/ll_aton.c **** /**
 822:Lib/AI_Runtime/Npu/ll_aton/ll_aton.c ****  * @brief Sets external trigger signal to low. Used to synchronize with external units, e.g.: HSP
 823:Lib/AI_Runtime/Npu/ll_aton/ll_aton.c ****  * @param irq Interrupt line used as trigger signal
ARM GAS  C:\Users\DJESSOU\AppData\Local\Temp\ccFxekaC.s 			page 16


 824:Lib/AI_Runtime/Npu/ll_aton/ll_aton.c ****  * @note uses Epoch Controller noack interrupt as irq source
 825:Lib/AI_Runtime/Npu/ll_aton/ll_aton.c ****  */
 826:Lib/AI_Runtime/Npu/ll_aton/ll_aton.c **** int LL_TriggerLow(int irq)
 827:Lib/AI_Runtime/Npu/ll_aton/ll_aton.c **** {
 828:Lib/AI_Runtime/Npu/ll_aton/ll_aton.c ****   if (irq >= ATON_INTCTRL_INTS(0))
 829:Lib/AI_Runtime/Npu/ll_aton/ll_aton.c ****     return LL_ATON_INVALID_PARAM;
 830:Lib/AI_Runtime/Npu/ll_aton/ll_aton.c **** 
 831:Lib/AI_Runtime/Npu/ll_aton/ll_aton.c ****   ATON_INTCTRL_INTCLR_SET(0, (1 << ATON_INTCTRL_0_INTCLR_EPOCHCTRL_0_1_IDX));
 832:Lib/AI_Runtime/Npu/ll_aton/ll_aton.c ****   return 0;
 833:Lib/AI_Runtime/Npu/ll_aton/ll_aton.c **** }
 834:Lib/AI_Runtime/Npu/ll_aton/ll_aton.c **** #endif
 835:Lib/AI_Runtime/Npu/ll_aton/ll_aton.c **** 
 836:Lib/AI_Runtime/Npu/ll_aton/ll_aton.c **** unsigned __atonn_getSrcPortID(enum SwitchUnitsType sut, unsigned char su_num, enum AccelUnitsType a
 837:Lib/AI_Runtime/Npu/ll_aton/ll_aton.c ****                               unsigned char au_num, unsigned char port)
 838:Lib/AI_Runtime/Npu/ll_aton/ll_aton.c **** {
 839:Lib/AI_Runtime/Npu/ll_aton/ll_aton.c ****   // FIXME
 840:Lib/AI_Runtime/Npu/ll_aton/ll_aton.c ****   LL_ATON_ASSERT(su_num == 0);
 841:Lib/AI_Runtime/Npu/ll_aton/ll_aton.c ****   switch (sut)
 842:Lib/AI_Runtime/Npu/ll_aton/ll_aton.c ****   {
 843:Lib/AI_Runtime/Npu/ll_aton/ll_aton.c ****   case STRSWITCH:
 844:Lib/AI_Runtime/Npu/ll_aton/ll_aton.c ****     switch (aut)
 845:Lib/AI_Runtime/Npu/ll_aton/ll_aton.c ****     {
 846:Lib/AI_Runtime/Npu/ll_aton/ll_aton.c **** #if defined(ATON_STRENG_NUM)
 847:Lib/AI_Runtime/Npu/ll_aton/ll_aton.c ****     case STRENG:
 848:Lib/AI_Runtime/Npu/ll_aton/ll_aton.c ****       LL_ATON_ASSERT(port == 0);
 849:Lib/AI_Runtime/Npu/ll_aton/ll_aton.c ****       LL_ATON_ASSERT(au_num < ATON_STRENG_NUM);
 850:Lib/AI_Runtime/Npu/ll_aton/ll_aton.c ****       return ATONN_CONST_SRCPORT(STRSWITCH, 0, STRENG, 0, 0) + au_num;
 851:Lib/AI_Runtime/Npu/ll_aton/ll_aton.c ****       break;
 852:Lib/AI_Runtime/Npu/ll_aton/ll_aton.c **** #endif
 853:Lib/AI_Runtime/Npu/ll_aton/ll_aton.c **** #if defined(ATON_CONVACC_NUM)
 854:Lib/AI_Runtime/Npu/ll_aton/ll_aton.c ****     case CONVACC:
 855:Lib/AI_Runtime/Npu/ll_aton/ll_aton.c ****       LL_ATON_ASSERT(port == 0);
 856:Lib/AI_Runtime/Npu/ll_aton/ll_aton.c ****       LL_ATON_ASSERT(au_num < ATON_CONVACC_NUM);
 857:Lib/AI_Runtime/Npu/ll_aton/ll_aton.c ****       return ATONN_CONST_SRCPORT(STRSWITCH, 0, CONVACC, 0, 0) + au_num;
 858:Lib/AI_Runtime/Npu/ll_aton/ll_aton.c ****       break;
 859:Lib/AI_Runtime/Npu/ll_aton/ll_aton.c **** #endif
 860:Lib/AI_Runtime/Npu/ll_aton/ll_aton.c **** #if defined(ATON_DECUN_NUM)
 861:Lib/AI_Runtime/Npu/ll_aton/ll_aton.c ****     case DECUN:
 862:Lib/AI_Runtime/Npu/ll_aton/ll_aton.c ****       LL_ATON_ASSERT(port == 0);
 863:Lib/AI_Runtime/Npu/ll_aton/ll_aton.c ****       LL_ATON_ASSERT(au_num < ATON_DECUN_NUM);
 864:Lib/AI_Runtime/Npu/ll_aton/ll_aton.c ****       return ATONN_CONST_SRCPORT(STRSWITCH, 0, DECUN, 0, 0) + au_num;
 865:Lib/AI_Runtime/Npu/ll_aton/ll_aton.c ****       break;
 866:Lib/AI_Runtime/Npu/ll_aton/ll_aton.c **** #endif
 867:Lib/AI_Runtime/Npu/ll_aton/ll_aton.c **** #if defined(ATON_ACTIV_NUM)
 868:Lib/AI_Runtime/Npu/ll_aton/ll_aton.c ****     case ACTIV:
 869:Lib/AI_Runtime/Npu/ll_aton/ll_aton.c ****       LL_ATON_ASSERT(port == 0);
 870:Lib/AI_Runtime/Npu/ll_aton/ll_aton.c ****       LL_ATON_ASSERT(au_num < ATON_ACTIV_NUM);
 871:Lib/AI_Runtime/Npu/ll_aton/ll_aton.c ****       return ATONN_CONST_SRCPORT(STRSWITCH, 0, ACTIV, 0, 0) + au_num;
 872:Lib/AI_Runtime/Npu/ll_aton/ll_aton.c ****       break;
 873:Lib/AI_Runtime/Npu/ll_aton/ll_aton.c **** #endif
 874:Lib/AI_Runtime/Npu/ll_aton/ll_aton.c **** #if defined(ATON_ARITH_NUM)
 875:Lib/AI_Runtime/Npu/ll_aton/ll_aton.c ****     case ARITH:
 876:Lib/AI_Runtime/Npu/ll_aton/ll_aton.c ****       LL_ATON_ASSERT(port == 0);
 877:Lib/AI_Runtime/Npu/ll_aton/ll_aton.c ****       LL_ATON_ASSERT(au_num < ATON_ARITH_NUM);
 878:Lib/AI_Runtime/Npu/ll_aton/ll_aton.c ****       return ATONN_CONST_SRCPORT(STRSWITCH, 0, ARITH, 0, 0) + au_num;
 879:Lib/AI_Runtime/Npu/ll_aton/ll_aton.c ****       break;
 880:Lib/AI_Runtime/Npu/ll_aton/ll_aton.c **** #endif
ARM GAS  C:\Users\DJESSOU\AppData\Local\Temp\ccFxekaC.s 			page 17


 881:Lib/AI_Runtime/Npu/ll_aton/ll_aton.c **** #if defined(ATON_POOL_NUM)
 882:Lib/AI_Runtime/Npu/ll_aton/ll_aton.c ****     case POOL:
 883:Lib/AI_Runtime/Npu/ll_aton/ll_aton.c ****       LL_ATON_ASSERT(port == 0);
 884:Lib/AI_Runtime/Npu/ll_aton/ll_aton.c ****       LL_ATON_ASSERT(au_num < ATON_POOL_NUM);
 885:Lib/AI_Runtime/Npu/ll_aton/ll_aton.c ****       return ATONN_CONST_SRCPORT(STRSWITCH, 0, POOL, 0, 0) + au_num;
 886:Lib/AI_Runtime/Npu/ll_aton/ll_aton.c ****       break;
 887:Lib/AI_Runtime/Npu/ll_aton/ll_aton.c **** #endif
 888:Lib/AI_Runtime/Npu/ll_aton/ll_aton.c ****     default:
 889:Lib/AI_Runtime/Npu/ll_aton/ll_aton.c ****       LL_ATON_ASSERT(0);
 890:Lib/AI_Runtime/Npu/ll_aton/ll_aton.c ****       break;
 891:Lib/AI_Runtime/Npu/ll_aton/ll_aton.c ****     }
 892:Lib/AI_Runtime/Npu/ll_aton/ll_aton.c ****     break;
 893:Lib/AI_Runtime/Npu/ll_aton/ll_aton.c ****   case STRSWITCH64:
 894:Lib/AI_Runtime/Npu/ll_aton/ll_aton.c ****     // TODO
 895:Lib/AI_Runtime/Npu/ll_aton/ll_aton.c ****     LL_ATON_ASSERT(0);
 896:Lib/AI_Runtime/Npu/ll_aton/ll_aton.c ****     break;
 897:Lib/AI_Runtime/Npu/ll_aton/ll_aton.c ****   case STRSWITCH_VC:
 898:Lib/AI_Runtime/Npu/ll_aton/ll_aton.c ****     // TODO
 899:Lib/AI_Runtime/Npu/ll_aton/ll_aton.c ****     LL_ATON_ASSERT(0);
 900:Lib/AI_Runtime/Npu/ll_aton/ll_aton.c ****     break;
 901:Lib/AI_Runtime/Npu/ll_aton/ll_aton.c ****   }
 902:Lib/AI_Runtime/Npu/ll_aton/ll_aton.c ****   return 0;
 903:Lib/AI_Runtime/Npu/ll_aton/ll_aton.c **** }
 904:Lib/AI_Runtime/Npu/ll_aton/ll_aton.c **** 
 905:Lib/AI_Runtime/Npu/ll_aton/ll_aton.c **** unsigned __atonn_getDstPortID(enum SwitchUnitsType sut, unsigned char su_num, enum AccelUnitsType a
 906:Lib/AI_Runtime/Npu/ll_aton/ll_aton.c ****                               unsigned char au_num, unsigned char port)
 907:Lib/AI_Runtime/Npu/ll_aton/ll_aton.c **** {
 908:Lib/AI_Runtime/Npu/ll_aton/ll_aton.c ****   // FIXME
 909:Lib/AI_Runtime/Npu/ll_aton/ll_aton.c ****   LL_ATON_ASSERT(su_num == 0);
 910:Lib/AI_Runtime/Npu/ll_aton/ll_aton.c ****   switch (sut)
 911:Lib/AI_Runtime/Npu/ll_aton/ll_aton.c ****   {
 912:Lib/AI_Runtime/Npu/ll_aton/ll_aton.c ****   case STRSWITCH:
 913:Lib/AI_Runtime/Npu/ll_aton/ll_aton.c ****     switch (aut)
 914:Lib/AI_Runtime/Npu/ll_aton/ll_aton.c ****     {
 915:Lib/AI_Runtime/Npu/ll_aton/ll_aton.c **** #if defined(ATON_STRENG_NUM)
 916:Lib/AI_Runtime/Npu/ll_aton/ll_aton.c ****     case STRENG:
 917:Lib/AI_Runtime/Npu/ll_aton/ll_aton.c ****       LL_ATON_ASSERT(port == 0);
 918:Lib/AI_Runtime/Npu/ll_aton/ll_aton.c ****       LL_ATON_ASSERT(au_num < ATON_STRENG_NUM);
 919:Lib/AI_Runtime/Npu/ll_aton/ll_aton.c ****       return ATONN_CONST_DSTPORT(STRSWITCH, 0, STRENG, 0, 0) + (0x4 * au_num);
 920:Lib/AI_Runtime/Npu/ll_aton/ll_aton.c ****       break;
 921:Lib/AI_Runtime/Npu/ll_aton/ll_aton.c **** #endif
 922:Lib/AI_Runtime/Npu/ll_aton/ll_aton.c **** #if defined(ATON_CONVACC_NUM)
 923:Lib/AI_Runtime/Npu/ll_aton/ll_aton.c ****     case CONVACC:
 924:Lib/AI_Runtime/Npu/ll_aton/ll_aton.c ****       LL_ATON_ASSERT(port < 3);
 925:Lib/AI_Runtime/Npu/ll_aton/ll_aton.c ****       LL_ATON_ASSERT(au_num < ATON_CONVACC_NUM);
 926:Lib/AI_Runtime/Npu/ll_aton/ll_aton.c ****       return ATONN_CONST_DSTPORT(STRSWITCH, 0, CONVACC, 0, 0) + (0x4 * (3 * au_num + port));
 927:Lib/AI_Runtime/Npu/ll_aton/ll_aton.c ****       break;
 928:Lib/AI_Runtime/Npu/ll_aton/ll_aton.c **** #endif
 929:Lib/AI_Runtime/Npu/ll_aton/ll_aton.c **** #if defined(ATON_DECUN_NUM)
 930:Lib/AI_Runtime/Npu/ll_aton/ll_aton.c ****     case DECUN:
 931:Lib/AI_Runtime/Npu/ll_aton/ll_aton.c ****       LL_ATON_ASSERT(port < 2);
 932:Lib/AI_Runtime/Npu/ll_aton/ll_aton.c ****       LL_ATON_ASSERT(au_num < ATON_DECUN_NUM);
 933:Lib/AI_Runtime/Npu/ll_aton/ll_aton.c ****       return ATONN_CONST_DSTPORT(STRSWITCH, 0, DECUN, 0, 0) + (0x4 * (2 * au_num + port));
 934:Lib/AI_Runtime/Npu/ll_aton/ll_aton.c ****       break;
 935:Lib/AI_Runtime/Npu/ll_aton/ll_aton.c **** #endif
 936:Lib/AI_Runtime/Npu/ll_aton/ll_aton.c **** #if defined(ATON_ACTIV_NUM)
 937:Lib/AI_Runtime/Npu/ll_aton/ll_aton.c ****     case ACTIV:
ARM GAS  C:\Users\DJESSOU\AppData\Local\Temp\ccFxekaC.s 			page 18


 938:Lib/AI_Runtime/Npu/ll_aton/ll_aton.c ****       LL_ATON_ASSERT(port == 0);
 939:Lib/AI_Runtime/Npu/ll_aton/ll_aton.c ****       LL_ATON_ASSERT(au_num < ATON_ACTIV_NUM);
 940:Lib/AI_Runtime/Npu/ll_aton/ll_aton.c ****       return ATONN_CONST_DSTPORT(STRSWITCH, 0, ACTIV, 0, 0) + (0x4 * au_num);
 941:Lib/AI_Runtime/Npu/ll_aton/ll_aton.c ****       break;
 942:Lib/AI_Runtime/Npu/ll_aton/ll_aton.c **** #endif
 943:Lib/AI_Runtime/Npu/ll_aton/ll_aton.c **** #if defined(ATON_ARITH_NUM)
 944:Lib/AI_Runtime/Npu/ll_aton/ll_aton.c ****     case ARITH:
 945:Lib/AI_Runtime/Npu/ll_aton/ll_aton.c ****       LL_ATON_ASSERT(port < 2);
 946:Lib/AI_Runtime/Npu/ll_aton/ll_aton.c ****       LL_ATON_ASSERT(au_num < ATON_ARITH_NUM);
 947:Lib/AI_Runtime/Npu/ll_aton/ll_aton.c ****       return ATONN_CONST_DSTPORT(STRSWITCH, 0, ARITH, 0, 0) + (0x4 * (2 * au_num + port));
 948:Lib/AI_Runtime/Npu/ll_aton/ll_aton.c ****       break;
 949:Lib/AI_Runtime/Npu/ll_aton/ll_aton.c **** #endif
 950:Lib/AI_Runtime/Npu/ll_aton/ll_aton.c **** #if defined(ATON_POOL_NUM)
 951:Lib/AI_Runtime/Npu/ll_aton/ll_aton.c ****     case POOL:
 952:Lib/AI_Runtime/Npu/ll_aton/ll_aton.c ****       LL_ATON_ASSERT(port == 0);
 953:Lib/AI_Runtime/Npu/ll_aton/ll_aton.c ****       LL_ATON_ASSERT(au_num < ATON_POOL_NUM);
 954:Lib/AI_Runtime/Npu/ll_aton/ll_aton.c ****       return ATONN_CONST_DSTPORT(STRSWITCH, 0, POOL, 0, 0) + (0x4 * au_num);
 955:Lib/AI_Runtime/Npu/ll_aton/ll_aton.c ****       break;
 956:Lib/AI_Runtime/Npu/ll_aton/ll_aton.c **** #endif
 957:Lib/AI_Runtime/Npu/ll_aton/ll_aton.c ****     default:
 958:Lib/AI_Runtime/Npu/ll_aton/ll_aton.c ****       LL_ATON_ASSERT(0);
 959:Lib/AI_Runtime/Npu/ll_aton/ll_aton.c ****       break;
 960:Lib/AI_Runtime/Npu/ll_aton/ll_aton.c ****     }
 961:Lib/AI_Runtime/Npu/ll_aton/ll_aton.c ****     break;
 962:Lib/AI_Runtime/Npu/ll_aton/ll_aton.c ****   case STRSWITCH64:
 963:Lib/AI_Runtime/Npu/ll_aton/ll_aton.c ****     // TODO
 964:Lib/AI_Runtime/Npu/ll_aton/ll_aton.c ****     LL_ATON_ASSERT(0);
 965:Lib/AI_Runtime/Npu/ll_aton/ll_aton.c ****     break;
 966:Lib/AI_Runtime/Npu/ll_aton/ll_aton.c ****   case STRSWITCH_VC:
 967:Lib/AI_Runtime/Npu/ll_aton/ll_aton.c ****     // TODO
 968:Lib/AI_Runtime/Npu/ll_aton/ll_aton.c ****     LL_ATON_ASSERT(0);
 969:Lib/AI_Runtime/Npu/ll_aton/ll_aton.c ****     break;
 970:Lib/AI_Runtime/Npu/ll_aton/ll_aton.c ****   }
 971:Lib/AI_Runtime/Npu/ll_aton/ll_aton.c ****   return 0;
 972:Lib/AI_Runtime/Npu/ll_aton/ll_aton.c **** }
 973:Lib/AI_Runtime/Npu/ll_aton/ll_aton.c **** 
 974:Lib/AI_Runtime/Npu/ll_aton/ll_aton.c **** /**
 975:Lib/AI_Runtime/Npu/ll_aton/ll_aton.c ****  * @brief  Connects input and output port(s) on the streaming switch (without clearing configuratio
 976:Lib/AI_Runtime/Npu/ll_aton/ll_aton.c ****  * @param  LL_Switch_InitStruct Pointer to structure(s) describing ports to be connected
 977:Lib/AI_Runtime/Npu/ll_aton/ll_aton.c ****  * @param  n Number of entries in configuration array
 978:Lib/AI_Runtime/Npu/ll_aton/ll_aton.c ****  * @retval Error code
 979:Lib/AI_Runtime/Npu/ll_aton/ll_aton.c ****  */
 980:Lib/AI_Runtime/Npu/ll_aton/ll_aton.c **** int LL_Switch_Init_NoReset(const LL_Switch_InitTypeDef *LL_Switch_InitStruct, int n)
 981:Lib/AI_Runtime/Npu/ll_aton/ll_aton.c **** {
 982:Lib/AI_Runtime/Npu/ll_aton/ll_aton.c ****   int i;
 983:Lib/AI_Runtime/Npu/ll_aton/ll_aton.c ****   volatile uint32_t *reg;
 984:Lib/AI_Runtime/Npu/ll_aton/ll_aton.c ****   uint32_t t;
 985:Lib/AI_Runtime/Npu/ll_aton/ll_aton.c ****   unsigned int en_shift[ATON_SWITCH_CONTEXT_NUM] = {ATON_STRSWITCH_DST_EN0_LSB, ATON_STRSWITCH_DST_
 986:Lib/AI_Runtime/Npu/ll_aton/ll_aton.c ****   unsigned int link_shift[ATON_SWITCH_CONTEXT_NUM] = {ATON_STRSWITCH_DST_LINK0_LSB, ATON_STRSWITCH_
 987:Lib/AI_Runtime/Npu/ll_aton/ll_aton.c ****   unsigned int fnr_shift[ATON_SWITCH_CONTEXT_NUM] = {ATON_STRSWITCH_DST_FNR0_LSB, ATON_STRSWITCH_DS
 988:Lib/AI_Runtime/Npu/ll_aton/ll_aton.c ****   unsigned int fnr_mask[ATON_SWITCH_CONTEXT_NUM] = {ATON_STRSWITCH_DST_FNR0_MASK, ATON_STRSWITCH_DS
 989:Lib/AI_Runtime/Npu/ll_aton/ll_aton.c **** 
 990:Lib/AI_Runtime/Npu/ll_aton/ll_aton.c ****   /* Enable Switch */
 991:Lib/AI_Runtime/Npu/ll_aton/ll_aton.c ****   t = ATON_STRSWITCH_CTRL_DT;
 992:Lib/AI_Runtime/Npu/ll_aton/ll_aton.c ****   t = ATON_STRSWITCH_CTRL_SET_EN(t, 1);
 993:Lib/AI_Runtime/Npu/ll_aton/ll_aton.c ****   ATON_STRSWITCH_CTRL_SET(0, t);
 994:Lib/AI_Runtime/Npu/ll_aton/ll_aton.c **** 
ARM GAS  C:\Users\DJESSOU\AppData\Local\Temp\ccFxekaC.s 			page 19


 995:Lib/AI_Runtime/Npu/ll_aton/ll_aton.c ****   for (i = 0; i < n; i++)
 996:Lib/AI_Runtime/Npu/ll_aton/ll_aton.c ****   {
 997:Lib/AI_Runtime/Npu/ll_aton/ll_aton.c ****     /* Compute target destination configuration register */
 998:Lib/AI_Runtime/Npu/ll_aton/ll_aton.c ****     reg = (uint32_t *)(ATON_STRSWITCH_BASE(0) + ATONN_DSTPORT_ID(LL_Switch_InitStruct[i].dest));
 999:Lib/AI_Runtime/Npu/ll_aton/ll_aton.c ****     t = 0;
1000:Lib/AI_Runtime/Npu/ll_aton/ll_aton.c ****     /* Enable Context and create link */
1001:Lib/AI_Runtime/Npu/ll_aton/ll_aton.c **** #if ATON_SWITCH_CONTEXT_NUM == 2
1002:Lib/AI_Runtime/Npu/ll_aton/ll_aton.c ****     t |= ((LL_Switch_InitStruct[i].context0 != 0) << en_shift[0]);
1003:Lib/AI_Runtime/Npu/ll_aton/ll_aton.c ****     t |= (ATONN_SRCPORT_ID(LL_Switch_InitStruct[i].source0) << link_shift[0]);
1004:Lib/AI_Runtime/Npu/ll_aton/ll_aton.c ****     t |= ((LL_Switch_InitStruct[i].frames0 << fnr_shift[0]) & fnr_mask[0]);
1005:Lib/AI_Runtime/Npu/ll_aton/ll_aton.c ****     t |= ((LL_Switch_InitStruct[i].context1 != 0) << en_shift[1]);
1006:Lib/AI_Runtime/Npu/ll_aton/ll_aton.c ****     t |= (ATONN_SRCPORT_ID(LL_Switch_InitStruct[i].source1) << link_shift[1]);
1007:Lib/AI_Runtime/Npu/ll_aton/ll_aton.c ****     t |= ((LL_Switch_InitStruct[i].frames1 << fnr_shift[1]) & fnr_mask[1]);
1008:Lib/AI_Runtime/Npu/ll_aton/ll_aton.c **** #else
1009:Lib/AI_Runtime/Npu/ll_aton/ll_aton.c ****     int c;
1010:Lib/AI_Runtime/Npu/ll_aton/ll_aton.c ****     for (c = 0; c < ATON_SWITCH_CONTEXT_NUM; c++)
1011:Lib/AI_Runtime/Npu/ll_aton/ll_aton.c ****     {
1012:Lib/AI_Runtime/Npu/ll_aton/ll_aton.c ****       t |= ((LL_Switch_InitStruct[i].context[c] != 0) << en_shift[c]);
1013:Lib/AI_Runtime/Npu/ll_aton/ll_aton.c ****       t |= (ATONN_SRCPORT_ID(LL_Switch_InitStruct[i].source[c]) << link_shift[c]);
1014:Lib/AI_Runtime/Npu/ll_aton/ll_aton.c ****       t |= ((LL_Switch_InitStruct[i].frames[c] << fnr_shift[c]) & fnr_mask[c]);
1015:Lib/AI_Runtime/Npu/ll_aton/ll_aton.c ****     }
1016:Lib/AI_Runtime/Npu/ll_aton/ll_aton.c **** #endif
1017:Lib/AI_Runtime/Npu/ll_aton/ll_aton.c **** 
1018:Lib/AI_Runtime/Npu/ll_aton/ll_aton.c ****     ATON_REG_WRITE(reg, t);
1019:Lib/AI_Runtime/Npu/ll_aton/ll_aton.c ****   }
1020:Lib/AI_Runtime/Npu/ll_aton/ll_aton.c **** 
1021:Lib/AI_Runtime/Npu/ll_aton/ll_aton.c ****   return 0;
1022:Lib/AI_Runtime/Npu/ll_aton/ll_aton.c **** }
1023:Lib/AI_Runtime/Npu/ll_aton/ll_aton.c **** 
1024:Lib/AI_Runtime/Npu/ll_aton/ll_aton.c **** /**
1025:Lib/AI_Runtime/Npu/ll_aton/ll_aton.c ****  * @brief  Connects input and output port(s) on the streaming switch (clearing configuration at the
1026:Lib/AI_Runtime/Npu/ll_aton/ll_aton.c ****  * @param  LL_Switch_InitStruct Pointer to structure(s) describing ports to be connected
1027:Lib/AI_Runtime/Npu/ll_aton/ll_aton.c ****  * @param  n Number of entries in configuration array
1028:Lib/AI_Runtime/Npu/ll_aton/ll_aton.c ****  * @retval Error code
1029:Lib/AI_Runtime/Npu/ll_aton/ll_aton.c ****  */
1030:Lib/AI_Runtime/Npu/ll_aton/ll_aton.c **** int LL_Switch_Init(const LL_Switch_InitTypeDef *LL_Switch_InitStruct, int n)
1031:Lib/AI_Runtime/Npu/ll_aton/ll_aton.c **** {
1032:Lib/AI_Runtime/Npu/ll_aton/ll_aton.c ****   uint32_t t;
1033:Lib/AI_Runtime/Npu/ll_aton/ll_aton.c **** 
1034:Lib/AI_Runtime/Npu/ll_aton/ll_aton.c **** #if (LL_ATON_PLATFORM == LL_ATON_PLAT_EC_TRACE)
1035:Lib/AI_Runtime/Npu/ll_aton/ll_aton.c ****   ll_aton_static_checks();
1036:Lib/AI_Runtime/Npu/ll_aton/ll_aton.c **** #endif
1037:Lib/AI_Runtime/Npu/ll_aton/ll_aton.c **** 
1038:Lib/AI_Runtime/Npu/ll_aton/ll_aton.c ****   /* Clear Configuration */
1039:Lib/AI_Runtime/Npu/ll_aton/ll_aton.c ****   ATON_DISABLE_CLR_CONFCLR(STRSWITCH, 0);
1040:Lib/AI_Runtime/Npu/ll_aton/ll_aton.c **** 
1041:Lib/AI_Runtime/Npu/ll_aton/ll_aton.c ****   return LL_Switch_Init_NoReset(LL_Switch_InitStruct, n);
1042:Lib/AI_Runtime/Npu/ll_aton/ll_aton.c **** }
1043:Lib/AI_Runtime/Npu/ll_aton/ll_aton.c **** 
1044:Lib/AI_Runtime/Npu/ll_aton/ll_aton.c **** /**
1045:Lib/AI_Runtime/Npu/ll_aton/ll_aton.c ****  * @brief  Fully disconnect a destination port from source ports on the streaming switch
1046:Lib/AI_Runtime/Npu/ll_aton/ll_aton.c ****  * @param  LL_Switch_InitStruct Pointer to structure(s) describing ports to be disconnected
1047:Lib/AI_Runtime/Npu/ll_aton/ll_aton.c ****  * @param  n Number of entries in configuration array
1048:Lib/AI_Runtime/Npu/ll_aton/ll_aton.c ****  * @retval Error code
1049:Lib/AI_Runtime/Npu/ll_aton/ll_aton.c ****  */
1050:Lib/AI_Runtime/Npu/ll_aton/ll_aton.c **** int LL_Switch_Deinit(const LL_Switch_InitTypeDef *LL_Switch_InitStruct, int n)
1051:Lib/AI_Runtime/Npu/ll_aton/ll_aton.c **** {
ARM GAS  C:\Users\DJESSOU\AppData\Local\Temp\ccFxekaC.s 			page 20


1052:Lib/AI_Runtime/Npu/ll_aton/ll_aton.c ****   int i;
1053:Lib/AI_Runtime/Npu/ll_aton/ll_aton.c ****   volatile uint32_t *reg;
1054:Lib/AI_Runtime/Npu/ll_aton/ll_aton.c **** 
1055:Lib/AI_Runtime/Npu/ll_aton/ll_aton.c ****   for (i = 0; i < n; i++)
1056:Lib/AI_Runtime/Npu/ll_aton/ll_aton.c ****   {
1057:Lib/AI_Runtime/Npu/ll_aton/ll_aton.c ****     /* Compute target destination configuration register */
1058:Lib/AI_Runtime/Npu/ll_aton/ll_aton.c ****     reg = (uint32_t *)(ATON_STRSWITCH_BASE(0) + ATONN_DSTPORT_ID(LL_Switch_InitStruct[i].dest));
1059:Lib/AI_Runtime/Npu/ll_aton/ll_aton.c **** 
1060:Lib/AI_Runtime/Npu/ll_aton/ll_aton.c ****     /* Disable contexts */
1061:Lib/AI_Runtime/Npu/ll_aton/ll_aton.c ****     ATON_REG_WRITE(reg, 0);
1062:Lib/AI_Runtime/Npu/ll_aton/ll_aton.c ****   }
1063:Lib/AI_Runtime/Npu/ll_aton/ll_aton.c **** 
1064:Lib/AI_Runtime/Npu/ll_aton/ll_aton.c ****   return 0;
1065:Lib/AI_Runtime/Npu/ll_aton/ll_aton.c **** }
1066:Lib/AI_Runtime/Npu/ll_aton/ll_aton.c **** 
1067:Lib/AI_Runtime/Npu/ll_aton/ll_aton.c **** /**
1068:Lib/AI_Runtime/Npu/ll_aton/ll_aton.c ****  * @brief  Disconnects destination and source port(s) on the streaming switch
1069:Lib/AI_Runtime/Npu/ll_aton/ll_aton.c ****  * @param  LL_Switch_InitStruct Pointer to structure(s) describing ports to be disconnected
1070:Lib/AI_Runtime/Npu/ll_aton/ll_aton.c ****  * @param  n Number of entries in configuration array
1071:Lib/AI_Runtime/Npu/ll_aton/ll_aton.c ****  * @retval Error code
1072:Lib/AI_Runtime/Npu/ll_aton/ll_aton.c ****  */
1073:Lib/AI_Runtime/Npu/ll_aton/ll_aton.c **** int LL_Switch_Deinit_Fine_Grained(const LL_Switch_InitTypeDef *LL_Switch_InitStruct, int n)
1074:Lib/AI_Runtime/Npu/ll_aton/ll_aton.c **** {
1075:Lib/AI_Runtime/Npu/ll_aton/ll_aton.c ****   int i;
1076:Lib/AI_Runtime/Npu/ll_aton/ll_aton.c ****   volatile uint32_t *reg;
1077:Lib/AI_Runtime/Npu/ll_aton/ll_aton.c ****   unsigned int en_shift[ATON_SWITCH_CONTEXT_NUM] = {ATON_STRSWITCH_DST_EN0_LSB, ATON_STRSWITCH_DST_
1078:Lib/AI_Runtime/Npu/ll_aton/ll_aton.c **** 
1079:Lib/AI_Runtime/Npu/ll_aton/ll_aton.c ****   for (i = 0; i < n; i++)
1080:Lib/AI_Runtime/Npu/ll_aton/ll_aton.c ****   {
1081:Lib/AI_Runtime/Npu/ll_aton/ll_aton.c ****     /* Compute target destination configuration register */
1082:Lib/AI_Runtime/Npu/ll_aton/ll_aton.c ****     reg = (uint32_t *)(ATON_STRSWITCH_BASE(0) + ATONN_DSTPORT_ID(LL_Switch_InitStruct[i].dest));
1083:Lib/AI_Runtime/Npu/ll_aton/ll_aton.c **** 
1084:Lib/AI_Runtime/Npu/ll_aton/ll_aton.c ****     /* Disable context */
1085:Lib/AI_Runtime/Npu/ll_aton/ll_aton.c ****     uint32_t t = *reg;
1086:Lib/AI_Runtime/Npu/ll_aton/ll_aton.c **** #if ATON_SWITCH_CONTEXT_NUM == 2
1087:Lib/AI_Runtime/Npu/ll_aton/ll_aton.c ****     t &= ~((LL_Switch_InitStruct[i].context0 != 0) << en_shift[0]);
1088:Lib/AI_Runtime/Npu/ll_aton/ll_aton.c ****     t &= ~((LL_Switch_InitStruct[i].context1 != 0) << en_shift[1]);
1089:Lib/AI_Runtime/Npu/ll_aton/ll_aton.c **** #else
1090:Lib/AI_Runtime/Npu/ll_aton/ll_aton.c ****     int c;
1091:Lib/AI_Runtime/Npu/ll_aton/ll_aton.c ****     for (c = 0; c < ATON_SWITCH_CONTEXT_NUM; c++)
1092:Lib/AI_Runtime/Npu/ll_aton/ll_aton.c ****       t &= ~((LL_Switch_InitStruct[i].context[c] != 0) << en_shift[c]);
1093:Lib/AI_Runtime/Npu/ll_aton/ll_aton.c **** #endif
1094:Lib/AI_Runtime/Npu/ll_aton/ll_aton.c ****     ATON_REG_WRITE(reg, t);
1095:Lib/AI_Runtime/Npu/ll_aton/ll_aton.c ****   }
1096:Lib/AI_Runtime/Npu/ll_aton/ll_aton.c **** 
1097:Lib/AI_Runtime/Npu/ll_aton/ll_aton.c ****   return 0;
1098:Lib/AI_Runtime/Npu/ll_aton/ll_aton.c **** }
1099:Lib/AI_Runtime/Npu/ll_aton/ll_aton.c **** 
1100:Lib/AI_Runtime/Npu/ll_aton/ll_aton.c **** #ifdef ATON_STRSWITCH_VC_NUM
1101:Lib/AI_Runtime/Npu/ll_aton/ll_aton.c **** 
1102:Lib/AI_Runtime/Npu/ll_aton/ll_aton.c **** /**
1103:Lib/AI_Runtime/Npu/ll_aton/ll_aton.c ****  * @brief  Connects input and output port(s) on the streaming switch with virtual channels (without
1104:Lib/AI_Runtime/Npu/ll_aton/ll_aton.c ****  * configuration)
1105:Lib/AI_Runtime/Npu/ll_aton/ll_aton.c ****  * @param  LL_SwitchVC_InitStruct Pointer to structure(s) describing ports to be connected
1106:Lib/AI_Runtime/Npu/ll_aton/ll_aton.c ****  * @param  n Number of entries in configuration array
1107:Lib/AI_Runtime/Npu/ll_aton/ll_aton.c ****  * @retval Error code
1108:Lib/AI_Runtime/Npu/ll_aton/ll_aton.c ****  */
ARM GAS  C:\Users\DJESSOU\AppData\Local\Temp\ccFxekaC.s 			page 21


1109:Lib/AI_Runtime/Npu/ll_aton/ll_aton.c **** int LL_SwitchVC_Init_NoReset(const LL_SwitchVC_InitTypeDef *LL_SwitchVC_InitStruct, int n)
1110:Lib/AI_Runtime/Npu/ll_aton/ll_aton.c **** {
1111:Lib/AI_Runtime/Npu/ll_aton/ll_aton.c ****   int i;
1112:Lib/AI_Runtime/Npu/ll_aton/ll_aton.c ****   volatile uint32_t *reg;
1113:Lib/AI_Runtime/Npu/ll_aton/ll_aton.c ****   uint32_t t;
1114:Lib/AI_Runtime/Npu/ll_aton/ll_aton.c ****   unsigned int en_shift = ATON_STRSWITCH_VC_DST_EN_LSB;
1115:Lib/AI_Runtime/Npu/ll_aton/ll_aton.c ****   unsigned int src_shift = ATON_STRSWITCH_VC_DST_SRC_LSB;
1116:Lib/AI_Runtime/Npu/ll_aton/ll_aton.c **** 
1117:Lib/AI_Runtime/Npu/ll_aton/ll_aton.c ****   /* Enable Switch */
1118:Lib/AI_Runtime/Npu/ll_aton/ll_aton.c ****   t = ATON_STRSWITCH_VC_CTRL_DT;
1119:Lib/AI_Runtime/Npu/ll_aton/ll_aton.c ****   t = ATON_STRSWITCH_VC_CTRL_SET_EN(t, 1);
1120:Lib/AI_Runtime/Npu/ll_aton/ll_aton.c ****   ATON_STRSWITCH_VC_CTRL_SET(0, t);
1121:Lib/AI_Runtime/Npu/ll_aton/ll_aton.c **** 
1122:Lib/AI_Runtime/Npu/ll_aton/ll_aton.c ****   for (i = 0; i < n; i++)
1123:Lib/AI_Runtime/Npu/ll_aton/ll_aton.c ****   {
1124:Lib/AI_Runtime/Npu/ll_aton/ll_aton.c ****     /* Compute target destination configuration register */
1125:Lib/AI_Runtime/Npu/ll_aton/ll_aton.c ****     reg = (uint32_t *)(ATON_STRSWITCH_VC_BASE(0) + ATONN_DSTPORT_ID(LL_SwitchVC_InitStruct[i].dest)
1126:Lib/AI_Runtime/Npu/ll_aton/ll_aton.c ****     t = 0;
1127:Lib/AI_Runtime/Npu/ll_aton/ll_aton.c ****     /* Enable Context and create link */
1128:Lib/AI_Runtime/Npu/ll_aton/ll_aton.c ****     t |= (1 << en_shift);
1129:Lib/AI_Runtime/Npu/ll_aton/ll_aton.c ****     t |= (ATONN_SRCPORT_ID(LL_SwitchVC_InitStruct[i].source) << src_shift);
1130:Lib/AI_Runtime/Npu/ll_aton/ll_aton.c ****     ATON_REG_WRITE(reg, t);
1131:Lib/AI_Runtime/Npu/ll_aton/ll_aton.c ****   }
1132:Lib/AI_Runtime/Npu/ll_aton/ll_aton.c **** 
1133:Lib/AI_Runtime/Npu/ll_aton/ll_aton.c ****   return 0;
1134:Lib/AI_Runtime/Npu/ll_aton/ll_aton.c **** }
1135:Lib/AI_Runtime/Npu/ll_aton/ll_aton.c **** 
1136:Lib/AI_Runtime/Npu/ll_aton/ll_aton.c **** /**
1137:Lib/AI_Runtime/Npu/ll_aton/ll_aton.c ****  * @brief  Connects input and output port(s) on the streaming switch with virtual channels (clearin
1138:Lib/AI_Runtime/Npu/ll_aton/ll_aton.c ****  * the beginning)
1139:Lib/AI_Runtime/Npu/ll_aton/ll_aton.c ****  * @param  LL_SwitchVC_InitStruct Pointer to structure(s) describing ports to be connected
1140:Lib/AI_Runtime/Npu/ll_aton/ll_aton.c ****  * @param  n Number of entries in configuration array
1141:Lib/AI_Runtime/Npu/ll_aton/ll_aton.c ****  * @retval Error code
1142:Lib/AI_Runtime/Npu/ll_aton/ll_aton.c ****  */
1143:Lib/AI_Runtime/Npu/ll_aton/ll_aton.c **** int LL_SwitchVC_Init(const LL_SwitchVC_InitTypeDef *LL_SwitchVC_InitStruct, int n)
1144:Lib/AI_Runtime/Npu/ll_aton/ll_aton.c **** {
1145:Lib/AI_Runtime/Npu/ll_aton/ll_aton.c ****   uint32_t t;
1146:Lib/AI_Runtime/Npu/ll_aton/ll_aton.c **** 
1147:Lib/AI_Runtime/Npu/ll_aton/ll_aton.c ****   /* Clear Configuration */
1148:Lib/AI_Runtime/Npu/ll_aton/ll_aton.c ****   ATON_DISABLE_CLR_CONFCLR(STRSWITCH_VC, 0);
1149:Lib/AI_Runtime/Npu/ll_aton/ll_aton.c **** 
1150:Lib/AI_Runtime/Npu/ll_aton/ll_aton.c ****   return LL_SwitchVC_Init_NoReset(LL_SwitchVC_InitStruct, n);
1151:Lib/AI_Runtime/Npu/ll_aton/ll_aton.c **** }
1152:Lib/AI_Runtime/Npu/ll_aton/ll_aton.c **** 
1153:Lib/AI_Runtime/Npu/ll_aton/ll_aton.c **** /**
1154:Lib/AI_Runtime/Npu/ll_aton/ll_aton.c ****  * @brief  Fully disconnect a destination port from source ports on the streaming switch with virtu
1155:Lib/AI_Runtime/Npu/ll_aton/ll_aton.c ****  * @param  LL_SwitchVC_InitStruct Pointer to structure(s) describing ports to be disconnected
1156:Lib/AI_Runtime/Npu/ll_aton/ll_aton.c ****  * @param  n Number of entries in configuration array
1157:Lib/AI_Runtime/Npu/ll_aton/ll_aton.c ****  * @retval Error code
1158:Lib/AI_Runtime/Npu/ll_aton/ll_aton.c ****  */
1159:Lib/AI_Runtime/Npu/ll_aton/ll_aton.c **** int LL_SwitchVC_Deinit(const LL_SwitchVC_InitTypeDef *LL_SwitchVC_InitStruct, int n)
1160:Lib/AI_Runtime/Npu/ll_aton/ll_aton.c **** {
1161:Lib/AI_Runtime/Npu/ll_aton/ll_aton.c ****   int i;
1162:Lib/AI_Runtime/Npu/ll_aton/ll_aton.c ****   volatile uint32_t *reg;
1163:Lib/AI_Runtime/Npu/ll_aton/ll_aton.c **** 
1164:Lib/AI_Runtime/Npu/ll_aton/ll_aton.c ****   for (i = 0; i < n; i++)
1165:Lib/AI_Runtime/Npu/ll_aton/ll_aton.c ****   {
ARM GAS  C:\Users\DJESSOU\AppData\Local\Temp\ccFxekaC.s 			page 22


1166:Lib/AI_Runtime/Npu/ll_aton/ll_aton.c ****     /* Compute target destination configuration register */
1167:Lib/AI_Runtime/Npu/ll_aton/ll_aton.c ****     reg = (uint32_t *)(ATON_STRSWITCH_VC_BASE(0) + ATONN_DSTPORT_ID(LL_SwitchVC_InitStruct[i].dest)
1168:Lib/AI_Runtime/Npu/ll_aton/ll_aton.c **** 
1169:Lib/AI_Runtime/Npu/ll_aton/ll_aton.c ****     /* Disable contexts */
1170:Lib/AI_Runtime/Npu/ll_aton/ll_aton.c ****     ATON_REG_WRITE(reg, 0);
1171:Lib/AI_Runtime/Npu/ll_aton/ll_aton.c ****   }
1172:Lib/AI_Runtime/Npu/ll_aton/ll_aton.c **** 
1173:Lib/AI_Runtime/Npu/ll_aton/ll_aton.c ****   return 0;
1174:Lib/AI_Runtime/Npu/ll_aton/ll_aton.c **** }
1175:Lib/AI_Runtime/Npu/ll_aton/ll_aton.c **** 
1176:Lib/AI_Runtime/Npu/ll_aton/ll_aton.c **** /**
1177:Lib/AI_Runtime/Npu/ll_aton/ll_aton.c ****  * @brief  Disconnects destination and source port(s) on the streaming switch with virtual channels
1178:Lib/AI_Runtime/Npu/ll_aton/ll_aton.c ****  * @param  LL_SwitchVC_InitStruct Pointer to structure(s) describing ports to be disconnected
1179:Lib/AI_Runtime/Npu/ll_aton/ll_aton.c ****  * @param  n Number of entries in configuration array
1180:Lib/AI_Runtime/Npu/ll_aton/ll_aton.c ****  * @retval Error code
1181:Lib/AI_Runtime/Npu/ll_aton/ll_aton.c ****  */
1182:Lib/AI_Runtime/Npu/ll_aton/ll_aton.c **** int LL_SwitchVC_Deinit_Fine_Grained(const LL_SwitchVC_InitTypeDef *LL_SwitchVC_InitStruct, int n)
1183:Lib/AI_Runtime/Npu/ll_aton/ll_aton.c **** {
1184:Lib/AI_Runtime/Npu/ll_aton/ll_aton.c ****   int i;
1185:Lib/AI_Runtime/Npu/ll_aton/ll_aton.c ****   volatile uint32_t *reg;
1186:Lib/AI_Runtime/Npu/ll_aton/ll_aton.c ****   unsigned int en_shift = ATON_STRSWITCH_VC_DST_EN_LSB;
1187:Lib/AI_Runtime/Npu/ll_aton/ll_aton.c **** 
1188:Lib/AI_Runtime/Npu/ll_aton/ll_aton.c ****   for (i = 0; i < n; i++)
1189:Lib/AI_Runtime/Npu/ll_aton/ll_aton.c ****   {
1190:Lib/AI_Runtime/Npu/ll_aton/ll_aton.c ****     /* Compute target destination configuration register */
1191:Lib/AI_Runtime/Npu/ll_aton/ll_aton.c ****     reg = (uint32_t *)(ATON_STRSWITCH_VC_BASE(0) + ATONN_DSTPORT_ID(LL_SwitchVC_InitStruct[i].dest)
1192:Lib/AI_Runtime/Npu/ll_aton/ll_aton.c **** 
1193:Lib/AI_Runtime/Npu/ll_aton/ll_aton.c ****     /* Disable context */
1194:Lib/AI_Runtime/Npu/ll_aton/ll_aton.c ****     uint32_t t = *reg;
1195:Lib/AI_Runtime/Npu/ll_aton/ll_aton.c ****     t &= ~(1 << en_shift);
1196:Lib/AI_Runtime/Npu/ll_aton/ll_aton.c ****     ATON_REG_WRITE(reg, t);
1197:Lib/AI_Runtime/Npu/ll_aton/ll_aton.c ****   }
1198:Lib/AI_Runtime/Npu/ll_aton/ll_aton.c **** 
1199:Lib/AI_Runtime/Npu/ll_aton/ll_aton.c ****   return 0;
1200:Lib/AI_Runtime/Npu/ll_aton/ll_aton.c **** }
1201:Lib/AI_Runtime/Npu/ll_aton/ll_aton.c **** #endif // ATON_STRSWITCH_VC_NUM
1202:Lib/AI_Runtime/Npu/ll_aton/ll_aton.c **** 
1203:Lib/AI_Runtime/Npu/ll_aton/ll_aton.c **** #ifdef ATON_DECUN_NUM
1204:Lib/AI_Runtime/Npu/ll_aton/ll_aton.c **** 
1205:Lib/AI_Runtime/Npu/ll_aton/ll_aton.c **** static inline uint32_t decun_inc_page_addr(int id, uint32_t ctrl_val)
1206:Lib/AI_Runtime/Npu/ll_aton/ll_aton.c **** {
  34              		.loc 1 1206 1 view -0
  35              		.cfi_startproc
  36              		@ args = 0, pretend = 0, frame = 0
  37              		@ frame_needed = 0, uses_anonymous_args = 0
  38              		@ link register save eliminated.
1207:Lib/AI_Runtime/Npu/ll_aton/ll_aton.c ****   uint32_t page_addr = ATON_DECUN_CTRL_GET_PAGEADDR(ctrl_val);
  39              		.loc 1 1207 3 view .LVU1
1208:Lib/AI_Runtime/Npu/ll_aton/ll_aton.c ****   page_addr++;
  40              		.loc 1 1208 3 view .LVU2
1209:Lib/AI_Runtime/Npu/ll_aton/ll_aton.c ****   ctrl_val = ATON_DECUN_CTRL_SET_PAGEADDR(ctrl_val, page_addr);
  41              		.loc 1 1209 3 view .LVU3
1210:Lib/AI_Runtime/Npu/ll_aton/ll_aton.c ****   ATON_DECUN_CTRL_SET(id, ctrl_val);
  42              		.loc 1 1210 3 view .LVU4
  43              		.loc 1 1210 3 view .LVU5
  44              		.loc 1 1210 3 view .LVU6
  45 0000 0128     		cmp	r0, #1
ARM GAS  C:\Users\DJESSOU\AppData\Local\Temp\ccFxekaC.s 			page 23


1206:Lib/AI_Runtime/Npu/ll_aton/ll_aton.c ****   uint32_t page_addr = ATON_DECUN_CTRL_GET_PAGEADDR(ctrl_val);
  46              		.loc 1 1206 1 is_stmt 0 view .LVU7
  47 0002 0346     		mov	r3, r0
  48              		.loc 1 1210 3 view .LVU8
  49 0004 02DD     		ble	.L4
  50              		.loc 1 1210 3 discriminator 4 view .LVU9
  51 0006 0023     		movs	r3, #0
  52 0008 1B60     		str	r3, [r3]
  53 000a FFDE     		.inst	0xdeff
  54              	.L4:
1209:Lib/AI_Runtime/Npu/ll_aton/ll_aton.c ****   ctrl_val = ATON_DECUN_CTRL_SET_PAGEADDR(ctrl_val, page_addr);
  55              		.loc 1 1209 14 view .LVU10
  56 000c 21F03002 		bic	r2, r1, #48
1208:Lib/AI_Runtime/Npu/ll_aton/ll_aton.c ****   ctrl_val = ATON_DECUN_CTRL_SET_PAGEADDR(ctrl_val, page_addr);
  57              		.loc 1 1208 12 view .LVU11
  58 0010 01F03001 		and	r1, r1, #48
  59              	.LVL1:
1209:Lib/AI_Runtime/Npu/ll_aton/ll_aton.c ****   ATON_DECUN_CTRL_SET(id, ctrl_val);
  60              		.loc 1 1209 14 view .LVU12
  61 0014 1031     		adds	r1, r1, #16
  62              		.loc 1 1210 3 discriminator 1 view .LVU13
  63 0016 1B03     		lsls	r3, r3, #12
1209:Lib/AI_Runtime/Npu/ll_aton/ll_aton.c ****   ATON_DECUN_CTRL_SET(id, ctrl_val);
  64              		.loc 1 1209 14 view .LVU14
  65 0018 01F03001 		and	r1, r1, #48
  66              		.loc 1 1210 3 discriminator 1 view .LVU15
  67 001c 03F1B043 		add	r3, r3, #1476395008
1209:Lib/AI_Runtime/Npu/ll_aton/ll_aton.c ****   ATON_DECUN_CTRL_SET(id, ctrl_val);
  68              		.loc 1 1209 12 view .LVU16
  69 0020 41EA0200 		orr	r0, r1, r2
  70              	.LVL2:
  71              		.loc 1 1210 3 discriminator 1 view .LVU17
  72 0024 03F57323 		add	r3, r3, #995328
  73              		.loc 1 1210 3 discriminator 4 view .LVU18
  74 0028 1860     		str	r0, [r3]
  75              		.loc 1 1210 3 is_stmt 1 discriminator 4 view .LVU19
  76              		.loc 1 1210 3 discriminator 4 view .LVU20
1211:Lib/AI_Runtime/Npu/ll_aton/ll_aton.c ****   return ctrl_val;
  77              		.loc 1 1211 3 view .LVU21
1212:Lib/AI_Runtime/Npu/ll_aton/ll_aton.c **** }
  78              		.loc 1 1212 1 is_stmt 0 view .LVU22
  79 002a 7047     		bx	lr
  80              		.cfi_endproc
  81              	.LFE302:
  83              		.section	.text.LL_Address_Physical2Virtual,"ax",%progbits
  84              		.align	1
  85              		.global	LL_Address_Physical2Virtual
  86              		.syntax unified
  87              		.thumb
  88              		.thumb_func
  90              	LL_Address_Physical2Virtual:
  91              	.LVL3:
  92              	.LFB283:
 128:Lib/AI_Runtime/Npu/ll_aton/ll_aton.c ****   return ATON_LIB_PHYSICAL_TO_VIRTUAL_ADDR(address);
  93              		.loc 1 128 1 is_stmt 1 view -0
  94              		.cfi_startproc
  95              		@ args = 0, pretend = 0, frame = 0
ARM GAS  C:\Users\DJESSOU\AppData\Local\Temp\ccFxekaC.s 			page 24


  96              		@ frame_needed = 0, uses_anonymous_args = 0
  97              		@ link register save eliminated.
 129:Lib/AI_Runtime/Npu/ll_aton/ll_aton.c **** }
  98              		.loc 1 129 3 view .LVU24
 130:Lib/AI_Runtime/Npu/ll_aton/ll_aton.c **** 
  99              		.loc 1 130 1 is_stmt 0 view .LVU25
 100 0000 7047     		bx	lr
 101              		.cfi_endproc
 102              	.LFE283:
 104              		.section	.text.LL_Address_Virtual2Physical,"ax",%progbits
 105              		.align	1
 106              		.global	LL_Address_Virtual2Physical
 107              		.syntax unified
 108              		.thumb
 109              		.thumb_func
 111              	LL_Address_Virtual2Physical:
 112              	.LFB324:
 113              		.cfi_startproc
 132:Lib/AI_Runtime/Npu/ll_aton/ll_aton.c **** {
 114              		.loc 1 132 16 is_stmt 1 view -0
 115              		@ args = 0, pretend = 0, frame = 0
 116              		@ frame_needed = 0, uses_anonymous_args = 0
 117              		@ link register save eliminated.
 118 0000 7047     		bx	lr
 119              		.cfi_endproc
 120              	.LFE324:
 122              		.section	.text.startWatchdog,"ax",%progbits
 123              		.align	1
 124              		.weak	startWatchdog
 125              		.syntax unified
 126              		.thumb
 127              		.thumb_func
 129              	startWatchdog:
 130              	.LVL4:
 131              	.LFB285:
 143:Lib/AI_Runtime/Npu/ll_aton/ll_aton.c ****   (void)timeout;
 132              		.loc 1 143 1 view -0
 133              		.cfi_startproc
 134              		@ args = 0, pretend = 0, frame = 0
 135              		@ frame_needed = 0, uses_anonymous_args = 0
 136              		@ link register save eliminated.
 144:Lib/AI_Runtime/Npu/ll_aton/ll_aton.c **** 
 137              		.loc 1 144 3 view .LVU28
 146:Lib/AI_Runtime/Npu/ll_aton/ll_aton.c **** }
 138              		.loc 1 146 3 view .LVU29
 147:Lib/AI_Runtime/Npu/ll_aton/ll_aton.c **** 
 139              		.loc 1 147 1 is_stmt 0 view .LVU30
 140 0000 0020     		movs	r0, #0
 141              	.LVL5:
 147:Lib/AI_Runtime/Npu/ll_aton/ll_aton.c **** 
 142              		.loc 1 147 1 view .LVU31
 143 0002 7047     		bx	lr
 144              		.cfi_endproc
 145              	.LFE285:
 147              		.section	.text.checkWatchdog,"ax",%progbits
 148              		.align	1
 149              		.weak	checkWatchdog
ARM GAS  C:\Users\DJESSOU\AppData\Local\Temp\ccFxekaC.s 			page 25


 150              		.syntax unified
 151              		.thumb
 152              		.thumb_func
 154              	checkWatchdog:
 155              	.LFB286:
 154:Lib/AI_Runtime/Npu/ll_aton/ll_aton.c ****   return 0;
 156              		.loc 1 154 1 is_stmt 1 view -0
 157              		.cfi_startproc
 158              		@ args = 0, pretend = 0, frame = 0
 159              		@ frame_needed = 0, uses_anonymous_args = 0
 160              		@ link register save eliminated.
 155:Lib/AI_Runtime/Npu/ll_aton/ll_aton.c **** }
 161              		.loc 1 155 3 view .LVU33
 156:Lib/AI_Runtime/Npu/ll_aton/ll_aton.c **** 
 162              		.loc 1 156 1 is_stmt 0 view .LVU34
 163 0000 0020     		movs	r0, #0
 164 0002 7047     		bx	lr
 165              		.cfi_endproc
 166              	.LFE286:
 168              		.section	.rodata.LL_ATON_Init.str1.1,"aMS",%progbits,1
 169              	.LC3:
 170 0000 4E6F6E65 		.ascii	"None\000"
 170      00
 171              	.LC4:
 172 0005 4C69622F 		.ascii	"Lib/AI_Runtime/Npu/ll_aton/ll_aton.c\000"
 172      41495F52 
 172      756E7469 
 172      6D652F4E 
 172      70752F6C 
 173              	.LC5:
 174 002a 5B455252 		.ascii	"[ERROR] (%s:%d: errno: %s) %s unit ver mismatch: RT"
 174      4F525D20 
 174      2825733A 
 174      25643A20 
 174      6572726E 
 175 005d 4C3A743D 		.ascii	"L:t=%lu,ver=%lu.%lu  ATON.h:t=%lu,ver=%lu.%lu\012\015"
 175      256C752C 
 175      7665723D 
 175      256C752E 
 175      256C7520 
 176 008c 0A00     		.ascii	"\012\000"
 177              	.LC6:
 178 008e 53545245 		.ascii	"STRENG\000"
 178      4E4700
 179              	.LC7:
 180 0095 3000     		.ascii	"0\000"
 181              	.LC8:
 182 0097 434F4E56 		.ascii	"CONVACC\000"
 182      41434300 
 183              	.LC9:
 184 009f 504F4F4C 		.ascii	"POOL\000"
 184      00
 185              	.LC10:
 186 00a4 41524954 		.ascii	"ARITH\000"
 186      4800
 187              	.LC11:
 188 00aa 41435449 		.ascii	"ACTIV\000"
ARM GAS  C:\Users\DJESSOU\AppData\Local\Temp\ccFxekaC.s 			page 26


 188      5600
 189              	.LC12:
 190 00b0 44454355 		.ascii	"DECUN\000"
 190      4E00
 191              	.LC13:
 192 00b6 45504F43 		.ascii	"EPOCHCTRL\000"
 192      48435452 
 192      4C00
 193              	.LC14:
 194 00c0 52454342 		.ascii	"RECBUF\000"
 194      554600
 195              	.LC15:
 196 00c7 434C4B43 		.ascii	"CLKCTRL\000"
 196      54524C00 
 197              	.LC16:
 198 00cf 494E5443 		.ascii	"INTCTRL\000"
 198      54524C00 
 199              	.LC17:
 200 00d7 53545253 		.ascii	"STRSWITCH\000"
 200      57495443 
 200      4800
 201              	.LC18:
 202 00e1 42555349 		.ascii	"BUSIF\000"
 202      4600
 203              		.section	.text.LL_ATON_Init,"ax",%progbits
 204              		.align	1
 205              		.global	LL_ATON_Init
 206              		.syntax unified
 207              		.thumb
 208              		.thumb_func
 210              	LL_ATON_Init:
 211              	.LFB287:
 167:Lib/AI_Runtime/Npu/ll_aton/ll_aton.c ****   uint32_t t;
 212              		.loc 1 167 1 is_stmt 1 view -0
 213              		.cfi_startproc
 214              		@ args = 0, pretend = 0, frame = 0
 215              		@ frame_needed = 0, uses_anonymous_args = 0
 168:Lib/AI_Runtime/Npu/ll_aton/ll_aton.c ****   int i;
 216              		.loc 1 168 3 view .LVU36
 169:Lib/AI_Runtime/Npu/ll_aton/ll_aton.c **** 
 217              		.loc 1 169 3 view .LVU37
 171:Lib/AI_Runtime/Npu/ll_aton/ll_aton.c **** 
 218              		.loc 1 171 3 view .LVU38
 219              	.LBB17:
 220              	.LBI17:
  61:Lib/AI_Runtime/Npu/ll_aton/ll_aton.c **** {
 221              		.loc 1 61 20 view .LVU39
 222              	.LBB18:
  63:Lib/AI_Runtime/Npu/ll_aton/ll_aton.c **** 
 223              		.loc 1 63 3 view .LVU40
  65:Lib/AI_Runtime/Npu/ll_aton/ll_aton.c ****     return;
 224              		.loc 1 65 3 view .LVU41
 225              	.LBE18:
 226              	.LBE17:
 167:Lib/AI_Runtime/Npu/ll_aton/ll_aton.c ****   uint32_t t;
 227              		.loc 1 167 1 is_stmt 0 view .LVU42
 228 0000 10B5     		push	{r4, lr}
ARM GAS  C:\Users\DJESSOU\AppData\Local\Temp\ccFxekaC.s 			page 27


 229              		.cfi_def_cfa_offset 8
 230              		.cfi_offset 4, -8
 231              		.cfi_offset 14, -4
 232              	.LBB21:
 233              	.LBB19:
  65:Lib/AI_Runtime/Npu/ll_aton/ll_aton.c ****     return;
 234              		.loc 1 65 12 view .LVU43
 235 0002 A34B     		ldr	r3, .L98
 236              	.LBE19:
 237              	.LBE21:
 167:Lib/AI_Runtime/Npu/ll_aton/ll_aton.c ****   uint32_t t;
 238              		.loc 1 167 1 view .LVU44
 239 0004 88B0     		sub	sp, sp, #32
 240              		.cfi_def_cfa_offset 40
 241              	.LBB22:
 242              	.LBB20:
  65:Lib/AI_Runtime/Npu/ll_aton/ll_aton.c ****     return;
 243              		.loc 1 65 6 view .LVU45
 244 0006 1A78     		ldrb	r2, [r3]	@ zero_extendqisi2
 245 0008 0AB9     		cbnz	r2, .L10
  67:Lib/AI_Runtime/Npu/ll_aton/ll_aton.c **** 
 246              		.loc 1 67 3 is_stmt 1 view .LVU46
  67:Lib/AI_Runtime/Npu/ll_aton/ll_aton.c **** 
 247              		.loc 1 67 8 is_stmt 0 view .LVU47
 248 000a 0122     		movs	r2, #1
 249 000c 1A70     		strb	r2, [r3]
  75:Lib/AI_Runtime/Npu/ll_aton/ll_aton.c ****   ASSERT_ATONN_DSTPORT(STRSWITCH, 0, STRENG, 1, 0);
 250              		.loc 1 75 3 is_stmt 1 view .LVU48
  76:Lib/AI_Runtime/Npu/ll_aton/ll_aton.c **** #endif
 251              		.loc 1 76 3 view .LVU49
  79:Lib/AI_Runtime/Npu/ll_aton/ll_aton.c ****   ASSERT_ATONN_DSTPORT(STRSWITCH, 0, STRENG, 2, 0);
 252              		.loc 1 79 3 view .LVU50
  80:Lib/AI_Runtime/Npu/ll_aton/ll_aton.c **** #endif
 253              		.loc 1 80 3 view .LVU51
 254              	.L10:
 255              	.LBE20:
 256              	.LBE22:
 174:Lib/AI_Runtime/Npu/ll_aton/ll_aton.c ****   t = ATON_CLKCTRL_CTRL_SET_CLR(t, 1);
 257              		.loc 1 174 3 view .LVU52
 174:Lib/AI_Runtime/Npu/ll_aton/ll_aton.c ****   t = ATON_CLKCTRL_CTRL_SET_CLR(t, 1);
 258              		.loc 1 174 5 is_stmt 0 view .LVU53
 259 000e A14B     		ldr	r3, .L98+4
 260 0010 1A68     		ldr	r2, [r3]
 261              	.LVL6:
 175:Lib/AI_Runtime/Npu/ll_aton/ll_aton.c ****   ATON_CLKCTRL_CTRL_SET(0, t);
 262              		.loc 1 175 3 is_stmt 1 view .LVU54
 175:Lib/AI_Runtime/Npu/ll_aton/ll_aton.c ****   ATON_CLKCTRL_CTRL_SET(0, t);
 263              		.loc 1 175 5 is_stmt 0 view .LVU55
 264 0012 42F00202 		orr	r2, r2, #2
 265              	.LVL7:
 176:Lib/AI_Runtime/Npu/ll_aton/ll_aton.c **** 
 266              		.loc 1 176 3 is_stmt 1 view .LVU56
 176:Lib/AI_Runtime/Npu/ll_aton/ll_aton.c **** 
 267              		.loc 1 176 3 view .LVU57
 176:Lib/AI_Runtime/Npu/ll_aton/ll_aton.c **** 
 268              		.loc 1 176 3 view .LVU58
 269 0016 1A60     		str	r2, [r3]
ARM GAS  C:\Users\DJESSOU\AppData\Local\Temp\ccFxekaC.s 			page 28


 176:Lib/AI_Runtime/Npu/ll_aton/ll_aton.c **** 
 270              		.loc 1 176 3 view .LVU59
 176:Lib/AI_Runtime/Npu/ll_aton/ll_aton.c **** 
 271              		.loc 1 176 3 view .LVU60
 179:Lib/AI_Runtime/Npu/ll_aton/ll_aton.c ****   ATON_CLKCTRL_AGATES0_SET(0, 0xffffffff);
 272              		.loc 1 179 3 view .LVU61
 179:Lib/AI_Runtime/Npu/ll_aton/ll_aton.c ****   ATON_CLKCTRL_AGATES0_SET(0, 0xffffffff);
 273              		.loc 1 179 3 view .LVU62
 179:Lib/AI_Runtime/Npu/ll_aton/ll_aton.c ****   ATON_CLKCTRL_AGATES0_SET(0, 0xffffffff);
 274              		.loc 1 179 3 view .LVU63
 275 0018 0122     		movs	r2, #1
 276              	.LVL8:
 179:Lib/AI_Runtime/Npu/ll_aton/ll_aton.c ****   ATON_CLKCTRL_AGATES0_SET(0, 0xffffffff);
 277              		.loc 1 179 3 is_stmt 0 view .LVU64
 278 001a 1A60     		str	r2, [r3]
 279              	.LVL9:
 179:Lib/AI_Runtime/Npu/ll_aton/ll_aton.c ****   ATON_CLKCTRL_AGATES0_SET(0, 0xffffffff);
 280              		.loc 1 179 3 is_stmt 1 view .LVU65
 179:Lib/AI_Runtime/Npu/ll_aton/ll_aton.c ****   ATON_CLKCTRL_AGATES0_SET(0, 0xffffffff);
 281              		.loc 1 179 3 view .LVU66
 180:Lib/AI_Runtime/Npu/ll_aton/ll_aton.c ****   ATON_CLKCTRL_AGATES1_SET(0, 0xffffffff);
 282              		.loc 1 180 3 view .LVU67
 180:Lib/AI_Runtime/Npu/ll_aton/ll_aton.c ****   ATON_CLKCTRL_AGATES1_SET(0, 0xffffffff);
 283              		.loc 1 180 3 view .LVU68
 180:Lib/AI_Runtime/Npu/ll_aton/ll_aton.c ****   ATON_CLKCTRL_AGATES1_SET(0, 0xffffffff);
 284              		.loc 1 180 3 view .LVU69
 285 001c 4FF0FF32 		mov	r2, #-1
 286 0020 9A60     		str	r2, [r3, #8]
 180:Lib/AI_Runtime/Npu/ll_aton/ll_aton.c ****   ATON_CLKCTRL_AGATES1_SET(0, 0xffffffff);
 287              		.loc 1 180 3 view .LVU70
 180:Lib/AI_Runtime/Npu/ll_aton/ll_aton.c ****   ATON_CLKCTRL_AGATES1_SET(0, 0xffffffff);
 288              		.loc 1 180 3 view .LVU71
 181:Lib/AI_Runtime/Npu/ll_aton/ll_aton.c **** 
 289              		.loc 1 181 3 view .LVU72
 181:Lib/AI_Runtime/Npu/ll_aton/ll_aton.c **** 
 290              		.loc 1 181 3 view .LVU73
 181:Lib/AI_Runtime/Npu/ll_aton/ll_aton.c **** 
 291              		.loc 1 181 3 view .LVU74
 292 0022 DA60     		str	r2, [r3, #12]
 181:Lib/AI_Runtime/Npu/ll_aton/ll_aton.c **** 
 293              		.loc 1 181 3 view .LVU75
 181:Lib/AI_Runtime/Npu/ll_aton/ll_aton.c **** 
 294              		.loc 1 181 3 view .LVU76
 187:Lib/AI_Runtime/Npu/ll_aton/ll_aton.c **** #endif
 295              		.loc 1 187 3 view .LVU77
 187:Lib/AI_Runtime/Npu/ll_aton/ll_aton.c **** #endif
 296              		.loc 1 187 3 view .LVU78
 187:Lib/AI_Runtime/Npu/ll_aton/ll_aton.c **** #endif
 297              		.loc 1 187 3 view .LVU79
 298 0024 0022     		movs	r2, #0
 299 0026 1A61     		str	r2, [r3, #16]
 198:Lib/AI_Runtime/Npu/ll_aton/ll_aton.c **** 
 300              		.loc 1 198 3 is_stmt 0 discriminator 1 view .LVU80
 301 0028 03F5A043 		add	r3, r3, #20480
 302              	.LVL10:
 303              	.L11:
 187:Lib/AI_Runtime/Npu/ll_aton/ll_aton.c **** #endif
ARM GAS  C:\Users\DJESSOU\AppData\Local\Temp\ccFxekaC.s 			page 29


 304              		.loc 1 187 3 is_stmt 1 discriminator 1 view .LVU81
 187:Lib/AI_Runtime/Npu/ll_aton/ll_aton.c **** #endif
 305              		.loc 1 187 3 discriminator 1 view .LVU82
 198:Lib/AI_Runtime/Npu/ll_aton/ll_aton.c **** 
 306              		.loc 1 198 3 discriminator 1 view .LVU83
 198:Lib/AI_Runtime/Npu/ll_aton/ll_aton.c **** 
 307              		.loc 1 198 3 discriminator 1 view .LVU84
 308 002c 5C68     		ldr	r4, [r3, #4]
 309              	.LVL11:
 198:Lib/AI_Runtime/Npu/ll_aton/ll_aton.c **** 
 310              		.loc 1 198 3 discriminator 1 view .LVU85
 311 002e 002C     		cmp	r4, #0
 312 0030 FCD0     		beq	.L11
 198:Lib/AI_Runtime/Npu/ll_aton/ll_aton.c **** 
 313              		.loc 1 198 3 discriminator 2 view .LVU86
 314 0032 45F20103 		movw	r3, #20481
 315 0036 A2B2     		uxth	r2, r4
 316 0038 9A42     		cmp	r2, r3
 317 003a 40F09280 		bne	.L84
 201:Lib/AI_Runtime/Npu/ll_aton/ll_aton.c **** #endif
 318              		.loc 1 201 3 is_stmt 0 discriminator 1 view .LVU87
 319 003e 964B     		ldr	r3, .L98+8
 320              	.L12:
 198:Lib/AI_Runtime/Npu/ll_aton/ll_aton.c **** 
 321              		.loc 1 198 37 is_stmt 1 discriminator 4 view .LVU88
 201:Lib/AI_Runtime/Npu/ll_aton/ll_aton.c **** #endif
 322              		.loc 1 201 3 discriminator 1 view .LVU89
 201:Lib/AI_Runtime/Npu/ll_aton/ll_aton.c **** #endif
 323              		.loc 1 201 3 discriminator 1 view .LVU90
 324 0040 5C68     		ldr	r4, [r3, #4]
 325              	.LVL12:
 201:Lib/AI_Runtime/Npu/ll_aton/ll_aton.c **** #endif
 326              		.loc 1 201 3 discriminator 1 view .LVU91
 327 0042 002C     		cmp	r4, #0
 328 0044 FCD0     		beq	.L12
 201:Lib/AI_Runtime/Npu/ll_aton/ll_aton.c **** #endif
 329              		.loc 1 201 3 discriminator 2 view .LVU92
 330 0046 45F21713 		movw	r3, #20759
 331 004a A2B2     		uxth	r2, r4
 332 004c 9A42     		cmp	r2, r3
 333 004e 40F0B080 		bne	.L85
 205:Lib/AI_Runtime/Npu/ll_aton/ll_aton.c **** #endif
 334              		.loc 1 205 3 is_stmt 0 discriminator 1 view .LVU93
 335 0052 924B     		ldr	r3, .L98+12
 336              	.L14:
 201:Lib/AI_Runtime/Npu/ll_aton/ll_aton.c **** #endif
 337              		.loc 1 201 38 is_stmt 1 discriminator 4 view .LVU94
 205:Lib/AI_Runtime/Npu/ll_aton/ll_aton.c **** #endif
 338              		.loc 1 205 3 discriminator 1 view .LVU95
 205:Lib/AI_Runtime/Npu/ll_aton/ll_aton.c **** #endif
 339              		.loc 1 205 3 discriminator 1 view .LVU96
 340 0054 5C68     		ldr	r4, [r3, #4]
 341              	.LVL13:
 205:Lib/AI_Runtime/Npu/ll_aton/ll_aton.c **** #endif
 342              		.loc 1 205 3 discriminator 1 view .LVU97
 343 0056 002C     		cmp	r4, #0
 344 0058 FCD0     		beq	.L14
ARM GAS  C:\Users\DJESSOU\AppData\Local\Temp\ccFxekaC.s 			page 30


 205:Lib/AI_Runtime/Npu/ll_aton/ll_aton.c **** #endif
 345              		.loc 1 205 3 discriminator 2 view .LVU98
 346 005a 41F21C13 		movw	r3, #4380
 347 005e A2B2     		uxth	r2, r4
 348 0060 9A42     		cmp	r2, r3
 349 0062 40F0CC80 		bne	.L86
 209:Lib/AI_Runtime/Npu/ll_aton/ll_aton.c **** #endif
 350              		.loc 1 209 3 is_stmt 0 discriminator 1 view .LVU99
 351 0066 8E4B     		ldr	r3, .L98+16
 352              	.L16:
 205:Lib/AI_Runtime/Npu/ll_aton/ll_aton.c **** #endif
 353              		.loc 1 205 35 is_stmt 1 discriminator 4 view .LVU100
 209:Lib/AI_Runtime/Npu/ll_aton/ll_aton.c **** #endif
 354              		.loc 1 209 3 discriminator 1 view .LVU101
 209:Lib/AI_Runtime/Npu/ll_aton/ll_aton.c **** #endif
 355              		.loc 1 209 3 discriminator 1 view .LVU102
 356 0068 5C68     		ldr	r4, [r3, #4]
 357              	.LVL14:
 209:Lib/AI_Runtime/Npu/ll_aton/ll_aton.c **** #endif
 358              		.loc 1 209 3 discriminator 1 view .LVU103
 359 006a 002C     		cmp	r4, #0
 360 006c FCD0     		beq	.L16
 209:Lib/AI_Runtime/Npu/ll_aton/ll_aton.c **** #endif
 361              		.loc 1 209 3 discriminator 2 view .LVU104
 362 006e 41F21A03 		movw	r3, #4122
 363 0072 A2B2     		uxth	r2, r4
 364 0074 9A42     		cmp	r2, r3
 365 0076 40F0E680 		bne	.L87
 213:Lib/AI_Runtime/Npu/ll_aton/ll_aton.c **** #endif
 366              		.loc 1 213 3 is_stmt 0 discriminator 1 view .LVU105
 367 007a 8A4B     		ldr	r3, .L98+20
 368              	.L18:
 209:Lib/AI_Runtime/Npu/ll_aton/ll_aton.c **** #endif
 369              		.loc 1 209 36 is_stmt 1 discriminator 4 view .LVU106
 213:Lib/AI_Runtime/Npu/ll_aton/ll_aton.c **** #endif
 370              		.loc 1 213 3 discriminator 1 view .LVU107
 213:Lib/AI_Runtime/Npu/ll_aton/ll_aton.c **** #endif
 371              		.loc 1 213 3 discriminator 1 view .LVU108
 372 007c 5C68     		ldr	r4, [r3, #4]
 373              	.LVL15:
 213:Lib/AI_Runtime/Npu/ll_aton/ll_aton.c **** #endif
 374              		.loc 1 213 3 discriminator 1 view .LVU109
 375 007e 002C     		cmp	r4, #0
 376 0080 FCD0     		beq	.L18
 213:Lib/AI_Runtime/Npu/ll_aton/ll_aton.c **** #endif
 377              		.loc 1 213 3 discriminator 2 view .LVU110
 378 0082 41F21B13 		movw	r3, #4379
 379 0086 A2B2     		uxth	r2, r4
 380 0088 9A42     		cmp	r2, r3
 381 008a 40F02D81 		bne	.L88
 217:Lib/AI_Runtime/Npu/ll_aton/ll_aton.c **** #endif
 382              		.loc 1 217 3 is_stmt 0 discriminator 1 view .LVU111
 383 008e 864B     		ldr	r3, .L98+24
 384              	.L20:
 213:Lib/AI_Runtime/Npu/ll_aton/ll_aton.c **** #endif
 385              		.loc 1 213 36 is_stmt 1 discriminator 4 view .LVU112
 217:Lib/AI_Runtime/Npu/ll_aton/ll_aton.c **** #endif
ARM GAS  C:\Users\DJESSOU\AppData\Local\Temp\ccFxekaC.s 			page 31


 386              		.loc 1 217 3 discriminator 1 view .LVU113
 217:Lib/AI_Runtime/Npu/ll_aton/ll_aton.c **** #endif
 387              		.loc 1 217 3 discriminator 1 view .LVU114
 388 0090 5C68     		ldr	r4, [r3, #4]
 389              	.LVL16:
 217:Lib/AI_Runtime/Npu/ll_aton/ll_aton.c **** #endif
 390              		.loc 1 217 3 discriminator 1 view .LVU115
 391 0092 002C     		cmp	r4, #0
 392 0094 FCD0     		beq	.L20
 217:Lib/AI_Runtime/Npu/ll_aton/ll_aton.c **** #endif
 393              		.loc 1 217 3 discriminator 2 view .LVU116
 394 0096 41F61923 		movw	r3, #6681
 395 009a A2B2     		uxth	r2, r4
 396 009c 9A42     		cmp	r2, r3
 397 009e 40F04781 		bne	.L89
 221:Lib/AI_Runtime/Npu/ll_aton/ll_aton.c **** #endif
 398              		.loc 1 221 3 is_stmt 0 discriminator 1 view .LVU117
 399 00a2 824B     		ldr	r3, .L98+28
 400              	.L22:
 217:Lib/AI_Runtime/Npu/ll_aton/ll_aton.c **** #endif
 401              		.loc 1 217 36 is_stmt 1 discriminator 4 view .LVU118
 221:Lib/AI_Runtime/Npu/ll_aton/ll_aton.c **** #endif
 402              		.loc 1 221 3 discriminator 1 view .LVU119
 221:Lib/AI_Runtime/Npu/ll_aton/ll_aton.c **** #endif
 403              		.loc 1 221 3 discriminator 1 view .LVU120
 404 00a4 5C68     		ldr	r4, [r3, #4]
 405              	.LVL17:
 221:Lib/AI_Runtime/Npu/ll_aton/ll_aton.c **** #endif
 406              		.loc 1 221 3 discriminator 1 view .LVU121
 407 00a6 002C     		cmp	r4, #0
 408 00a8 FCD0     		beq	.L22
 221:Lib/AI_Runtime/Npu/ll_aton/ll_aton.c **** #endif
 409              		.loc 1 221 3 discriminator 2 view .LVU122
 410 00aa 41F22113 		movw	r3, #4385
 411 00ae A2B2     		uxth	r2, r4
 412 00b0 9A42     		cmp	r2, r3
 413 00b2 40F06281 		bne	.L90
 225:Lib/AI_Runtime/Npu/ll_aton/ll_aton.c **** #endif
 414              		.loc 1 225 3 is_stmt 0 discriminator 1 view .LVU123
 415 00b6 7E4B     		ldr	r3, .L98+32
 416              	.L24:
 221:Lib/AI_Runtime/Npu/ll_aton/ll_aton.c **** #endif
 417              		.loc 1 221 40 is_stmt 1 discriminator 4 view .LVU124
 225:Lib/AI_Runtime/Npu/ll_aton/ll_aton.c **** #endif
 418              		.loc 1 225 3 discriminator 1 view .LVU125
 225:Lib/AI_Runtime/Npu/ll_aton/ll_aton.c **** #endif
 419              		.loc 1 225 3 discriminator 1 view .LVU126
 420 00b8 5C68     		ldr	r4, [r3, #4]
 421              	.LVL18:
 225:Lib/AI_Runtime/Npu/ll_aton/ll_aton.c **** #endif
 422              		.loc 1 225 3 discriminator 1 view .LVU127
 423 00ba 002C     		cmp	r4, #0
 424 00bc FCD0     		beq	.L24
 225:Lib/AI_Runtime/Npu/ll_aton/ll_aton.c **** #endif
 425              		.loc 1 225 3 discriminator 2 view .LVU128
 426 00be 43F22023 		movw	r3, #12832
 427 00c2 A2B2     		uxth	r2, r4
ARM GAS  C:\Users\DJESSOU\AppData\Local\Temp\ccFxekaC.s 			page 32


 428 00c4 9A42     		cmp	r2, r3
 429 00c6 40F07C81 		bne	.L91
 244:Lib/AI_Runtime/Npu/ll_aton/ll_aton.c **** 
 430              		.loc 1 244 3 is_stmt 0 discriminator 1 view .LVU129
 431 00ca 724B     		ldr	r3, .L98+4
 432              	.L26:
 225:Lib/AI_Runtime/Npu/ll_aton/ll_aton.c **** #endif
 433              		.loc 1 225 37 is_stmt 1 discriminator 4 view .LVU130
 244:Lib/AI_Runtime/Npu/ll_aton/ll_aton.c **** 
 434              		.loc 1 244 3 discriminator 1 view .LVU131
 244:Lib/AI_Runtime/Npu/ll_aton/ll_aton.c **** 
 435              		.loc 1 244 3 discriminator 1 view .LVU132
 436 00cc 5C68     		ldr	r4, [r3, #4]
 437              	.LVL19:
 244:Lib/AI_Runtime/Npu/ll_aton/ll_aton.c **** 
 438              		.loc 1 244 3 discriminator 1 view .LVU133
 439 00ce 002C     		cmp	r4, #0
 440 00d0 FCD0     		beq	.L26
 244:Lib/AI_Runtime/Npu/ll_aton/ll_aton.c **** 
 441              		.loc 1 244 3 discriminator 2 view .LVU134
 442 00d2 41F21F23 		movw	r3, #4639
 443 00d6 A2B2     		uxth	r2, r4
 444 00d8 9A42     		cmp	r2, r3
 445 00da 40F09881 		bne	.L92
 246:Lib/AI_Runtime/Npu/ll_aton/ll_aton.c **** 
 446              		.loc 1 246 3 is_stmt 0 discriminator 1 view .LVU135
 447 00de 754B     		ldr	r3, .L98+36
 448              	.L28:
 244:Lib/AI_Runtime/Npu/ll_aton/ll_aton.c **** 
 449              		.loc 1 244 38 is_stmt 1 discriminator 4 view .LVU136
 246:Lib/AI_Runtime/Npu/ll_aton/ll_aton.c **** 
 450              		.loc 1 246 3 discriminator 1 view .LVU137
 246:Lib/AI_Runtime/Npu/ll_aton/ll_aton.c **** 
 451              		.loc 1 246 3 discriminator 1 view .LVU138
 452 00e0 5C68     		ldr	r4, [r3, #4]
 453              	.LVL20:
 246:Lib/AI_Runtime/Npu/ll_aton/ll_aton.c **** 
 454              		.loc 1 246 3 discriminator 1 view .LVU139
 455 00e2 002C     		cmp	r4, #0
 456 00e4 FCD0     		beq	.L28
 246:Lib/AI_Runtime/Npu/ll_aton/ll_aton.c **** 
 457              		.loc 1 246 3 discriminator 2 view .LVU140
 458 00e6 41F21E13 		movw	r3, #4382
 459 00ea A2B2     		uxth	r2, r4
 460 00ec 9A42     		cmp	r2, r3
 461 00ee 40F0B481 		bne	.L93
 248:Lib/AI_Runtime/Npu/ll_aton/ll_aton.c **** 
 462              		.loc 1 248 3 is_stmt 0 discriminator 1 view .LVU141
 463 00f2 714B     		ldr	r3, .L98+40
 464              	.L30:
 246:Lib/AI_Runtime/Npu/ll_aton/ll_aton.c **** 
 465              		.loc 1 246 38 is_stmt 1 discriminator 4 view .LVU142
 248:Lib/AI_Runtime/Npu/ll_aton/ll_aton.c **** 
 466              		.loc 1 248 3 discriminator 1 view .LVU143
 248:Lib/AI_Runtime/Npu/ll_aton/ll_aton.c **** 
 467              		.loc 1 248 3 discriminator 1 view .LVU144
 468 00f4 5C68     		ldr	r4, [r3, #4]
ARM GAS  C:\Users\DJESSOU\AppData\Local\Temp\ccFxekaC.s 			page 33


 469              	.LVL21:
 248:Lib/AI_Runtime/Npu/ll_aton/ll_aton.c **** 
 470              		.loc 1 248 3 discriminator 1 view .LVU145
 471 00f6 002C     		cmp	r4, #0
 472 00f8 FCD0     		beq	.L30
 248:Lib/AI_Runtime/Npu/ll_aton/ll_aton.c **** 
 473              		.loc 1 248 3 discriminator 2 view .LVU146
 474 00fa A3B2     		uxth	r3, r4
 475 00fc B3F5B05F 		cmp	r3, #5632
 476 0100 40F0CF81 		bne	.L94
 250:Lib/AI_Runtime/Npu/ll_aton/ll_aton.c **** 
 477              		.loc 1 250 3 is_stmt 0 discriminator 1 view .LVU147
 478 0104 6D4A     		ldr	r2, .L98+44
 479              	.L32:
 248:Lib/AI_Runtime/Npu/ll_aton/ll_aton.c **** 
 480              		.loc 1 248 40 is_stmt 1 discriminator 4 view .LVU148
 250:Lib/AI_Runtime/Npu/ll_aton/ll_aton.c **** 
 481              		.loc 1 250 3 discriminator 1 view .LVU149
 250:Lib/AI_Runtime/Npu/ll_aton/ll_aton.c **** 
 482              		.loc 1 250 3 discriminator 1 view .LVU150
 483 0106 5468     		ldr	r4, [r2, #4]
 484              	.LVL22:
 250:Lib/AI_Runtime/Npu/ll_aton/ll_aton.c **** 
 485              		.loc 1 250 3 discriminator 1 view .LVU151
 486 0108 002C     		cmp	r4, #0
 487 010a FCD0     		beq	.L32
 250:Lib/AI_Runtime/Npu/ll_aton/ll_aton.c **** 
 488              		.loc 1 250 3 discriminator 2 view .LVU152
 489 010c 45F21D03 		movw	r3, #20509
 490 0110 A1B2     		uxth	r1, r4
 491 0112 9942     		cmp	r1, r3
 492 0114 00F0EC81 		beq	.L96
 250:Lib/AI_Runtime/Npu/ll_aton/ll_aton.c **** 
 493              		.loc 1 250 3 discriminator 3 view .LVU153
 494 0118 FFF7FEFF 		bl	__errno
 495              	.LVL23:
 250:Lib/AI_Runtime/Npu/ll_aton/ll_aton.c **** 
 496              		.loc 1 250 3 is_stmt 0 discriminator 1 view .LVU154
 497 011c 0368     		ldr	r3, [r0]
 498 011e 002B     		cmp	r3, #0
 499 0120 00F0E481 		beq	.L47
 250:Lib/AI_Runtime/Npu/ll_aton/ll_aton.c **** 
 500              		.loc 1 250 3 discriminator 5 view .LVU155
 501 0124 FFF7FEFF 		bl	__errno
 502              	.LVL24:
 250:Lib/AI_Runtime/Npu/ll_aton/ll_aton.c **** 
 503              		.loc 1 250 3 discriminator 1 view .LVU156
 504 0128 0068     		ldr	r0, [r0]
 505 012a FFF7FEFF 		bl	strerror
 506              	.LVL25:
 507 012e 0346     		mov	r3, r0
 508              	.L35:
 250:Lib/AI_Runtime/Npu/ll_aton/ll_aton.c **** 
 509              		.loc 1 250 3 discriminator 8 view .LVU157
 510 0130 0522     		movs	r2, #5
 511 0132 0021     		movs	r1, #0
 512 0134 CDE90521 		strd	r2, r1, [sp, #20]
ARM GAS  C:\Users\DJESSOU\AppData\Local\Temp\ccFxekaC.s 			page 34


 513 0138 1D22     		movs	r2, #29
 514 013a 0492     		str	r2, [sp, #16]
 515 013c C4F30322 		ubfx	r2, r4, #8, #4
 516 0140 0392     		str	r2, [sp, #12]
 517 0142 C4F30332 		ubfx	r2, r4, #12, #4
 518 0146 0292     		str	r2, [sp, #8]
 519 0148 5D4A     		ldr	r2, .L98+48
 520 014a E4B2     		uxtb	r4, r4
 521              	.LVL26:
 250:Lib/AI_Runtime/Npu/ll_aton/ll_aton.c **** 
 522              		.loc 1 250 3 discriminator 8 view .LVU158
 523 014c 5D49     		ldr	r1, .L98+52
 524 014e 0092     		str	r2, [sp]
 525 0150 5D48     		ldr	r0, .L98+56
 526 0152 FA22     		movs	r2, #250
 527 0154 0194     		str	r4, [sp, #4]
 528 0156 FFF7FEFF 		bl	printf
 529              	.LVL27:
 250:Lib/AI_Runtime/Npu/ll_aton/ll_aton.c **** 
 530              		.loc 1 250 3 is_stmt 1 discriminator 1 view .LVU159
 250:Lib/AI_Runtime/Npu/ll_aton/ll_aton.c **** 
 531              		.loc 1 250 3 discriminator 10 view .LVU160
 532 015a FA21     		movs	r1, #250
 533 015c 5B4B     		ldr	r3, .L98+60
 534 015e 5C4A     		ldr	r2, .L98+64
 535 0160 22E0     		b	.L97
 536              	.LVL28:
 537              	.L84:
 198:Lib/AI_Runtime/Npu/ll_aton/ll_aton.c **** 
 538              		.loc 1 198 3 discriminator 3 view .LVU161
 539 0162 FFF7FEFF 		bl	__errno
 540              	.LVL29:
 198:Lib/AI_Runtime/Npu/ll_aton/ll_aton.c **** 
 541              		.loc 1 198 3 is_stmt 0 discriminator 1 view .LVU162
 542 0166 0368     		ldr	r3, [r0]
 543 0168 0BB3     		cbz	r3, .L36
 198:Lib/AI_Runtime/Npu/ll_aton/ll_aton.c **** 
 544              		.loc 1 198 3 discriminator 5 view .LVU163
 545 016a FFF7FEFF 		bl	__errno
 546              	.LVL30:
 198:Lib/AI_Runtime/Npu/ll_aton/ll_aton.c **** 
 547              		.loc 1 198 3 discriminator 1 view .LVU164
 548 016e 0068     		ldr	r0, [r0]
 549 0170 FFF7FEFF 		bl	strerror
 550              	.LVL31:
 551 0174 0346     		mov	r3, r0
 552              	.L13:
 198:Lib/AI_Runtime/Npu/ll_aton/ll_aton.c **** 
 553              		.loc 1 198 3 discriminator 8 view .LVU165
 554 0176 0522     		movs	r2, #5
 555 0178 4FF0000E 		mov	lr, #0
 556 017c CDE9052E 		strd	r2, lr, [sp, #20]
 557 0180 0122     		movs	r2, #1
 558 0182 0492     		str	r2, [sp, #16]
 559 0184 C4F30322 		ubfx	r2, r4, #8, #4
 560 0188 0392     		str	r2, [sp, #12]
 561 018a C4F30332 		ubfx	r2, r4, #12, #4
ARM GAS  C:\Users\DJESSOU\AppData\Local\Temp\ccFxekaC.s 			page 35


 562 018e 0292     		str	r2, [sp, #8]
 563 0190 504A     		ldr	r2, .L98+68
 564 0192 E4B2     		uxtb	r4, r4
 565              	.LVL32:
 198:Lib/AI_Runtime/Npu/ll_aton/ll_aton.c **** 
 566              		.loc 1 198 3 discriminator 8 view .LVU166
 567 0194 4B49     		ldr	r1, .L98+52
 568 0196 0092     		str	r2, [sp]
 569 0198 4B48     		ldr	r0, .L98+56
 570 019a C622     		movs	r2, #198
 571 019c 0194     		str	r4, [sp, #4]
 572 019e FFF7FEFF 		bl	printf
 573              	.LVL33:
 198:Lib/AI_Runtime/Npu/ll_aton/ll_aton.c **** 
 574              		.loc 1 198 3 is_stmt 1 discriminator 1 view .LVU167
 198:Lib/AI_Runtime/Npu/ll_aton/ll_aton.c **** 
 575              		.loc 1 198 3 discriminator 10 view .LVU168
 576 01a2 C621     		movs	r1, #198
 577 01a4 494B     		ldr	r3, .L98+60
 578 01a6 4A4A     		ldr	r2, .L98+64
 579              	.LVL34:
 580              	.L97:
 201:Lib/AI_Runtime/Npu/ll_aton/ll_aton.c **** #endif
 581              		.loc 1 201 3 is_stmt 0 discriminator 10 view .LVU169
 582 01a8 4648     		ldr	r0, .L98+52
 583 01aa FFF7FEFF 		bl	__assert_func
 584              	.LVL35:
 585              	.L36:
 198:Lib/AI_Runtime/Npu/ll_aton/ll_aton.c **** 
 586              		.loc 1 198 3 discriminator 6 view .LVU170
 587 01ae 4A4B     		ldr	r3, .L98+72
 588 01b0 E1E7     		b	.L13
 589              	.L85:
 201:Lib/AI_Runtime/Npu/ll_aton/ll_aton.c **** #endif
 590              		.loc 1 201 3 is_stmt 1 discriminator 3 view .LVU171
 591 01b2 FFF7FEFF 		bl	__errno
 592              	.LVL36:
 201:Lib/AI_Runtime/Npu/ll_aton/ll_aton.c **** #endif
 593              		.loc 1 201 3 is_stmt 0 discriminator 1 view .LVU172
 594 01b6 0368     		ldr	r3, [r0]
 595 01b8 FBB1     		cbz	r3, .L37
 201:Lib/AI_Runtime/Npu/ll_aton/ll_aton.c **** #endif
 596              		.loc 1 201 3 discriminator 5 view .LVU173
 597 01ba FFF7FEFF 		bl	__errno
 598              	.LVL37:
 201:Lib/AI_Runtime/Npu/ll_aton/ll_aton.c **** #endif
 599              		.loc 1 201 3 discriminator 1 view .LVU174
 600 01be 0068     		ldr	r0, [r0]
 601 01c0 FFF7FEFF 		bl	strerror
 602              	.LVL38:
 603 01c4 0346     		mov	r3, r0
 604              	.L15:
 201:Lib/AI_Runtime/Npu/ll_aton/ll_aton.c **** #endif
 605              		.loc 1 201 3 discriminator 8 view .LVU175
 606 01c6 0522     		movs	r2, #5
 607 01c8 4FF0010C 		mov	ip, #1
 608 01cc CDE9052C 		strd	r2, ip, [sp, #20]
ARM GAS  C:\Users\DJESSOU\AppData\Local\Temp\ccFxekaC.s 			page 36


 609 01d0 1722     		movs	r2, #23
 610 01d2 0492     		str	r2, [sp, #16]
 611 01d4 C4F30322 		ubfx	r2, r4, #8, #4
 612 01d8 0392     		str	r2, [sp, #12]
 613 01da C4F30332 		ubfx	r2, r4, #12, #4
 614 01de 0292     		str	r2, [sp, #8]
 615 01e0 3E4A     		ldr	r2, .L98+76
 616 01e2 E4B2     		uxtb	r4, r4
 617              	.LVL39:
 201:Lib/AI_Runtime/Npu/ll_aton/ll_aton.c **** #endif
 618              		.loc 1 201 3 discriminator 8 view .LVU176
 619 01e4 3749     		ldr	r1, .L98+52
 620 01e6 0092     		str	r2, [sp]
 621 01e8 3748     		ldr	r0, .L98+56
 622 01ea C922     		movs	r2, #201
 623 01ec 0194     		str	r4, [sp, #4]
 624 01ee FFF7FEFF 		bl	printf
 625              	.LVL40:
 201:Lib/AI_Runtime/Npu/ll_aton/ll_aton.c **** #endif
 626              		.loc 1 201 3 is_stmt 1 discriminator 1 view .LVU177
 201:Lib/AI_Runtime/Npu/ll_aton/ll_aton.c **** #endif
 627              		.loc 1 201 3 discriminator 10 view .LVU178
 628 01f2 C921     		movs	r1, #201
 629 01f4 354B     		ldr	r3, .L98+60
 630 01f6 364A     		ldr	r2, .L98+64
 631 01f8 D6E7     		b	.L97
 632              	.LVL41:
 633              	.L37:
 201:Lib/AI_Runtime/Npu/ll_aton/ll_aton.c **** #endif
 634              		.loc 1 201 3 is_stmt 0 discriminator 6 view .LVU179
 635 01fa 374B     		ldr	r3, .L98+72
 636 01fc E3E7     		b	.L15
 637              	.L86:
 205:Lib/AI_Runtime/Npu/ll_aton/ll_aton.c **** #endif
 638              		.loc 1 205 3 is_stmt 1 discriminator 3 view .LVU180
 639 01fe FFF7FEFF 		bl	__errno
 640              	.LVL42:
 205:Lib/AI_Runtime/Npu/ll_aton/ll_aton.c **** #endif
 641              		.loc 1 205 3 is_stmt 0 discriminator 1 view .LVU181
 642 0202 0368     		ldr	r3, [r0]
 643 0204 EBB1     		cbz	r3, .L38
 205:Lib/AI_Runtime/Npu/ll_aton/ll_aton.c **** #endif
 644              		.loc 1 205 3 discriminator 5 view .LVU182
 645 0206 FFF7FEFF 		bl	__errno
 646              	.LVL43:
 205:Lib/AI_Runtime/Npu/ll_aton/ll_aton.c **** #endif
 647              		.loc 1 205 3 discriminator 1 view .LVU183
 648 020a 0068     		ldr	r0, [r0]
 649 020c FFF7FEFF 		bl	strerror
 650              	.LVL44:
 651 0210 0346     		mov	r3, r0
 652              	.L17:
 205:Lib/AI_Runtime/Npu/ll_aton/ll_aton.c **** #endif
 653              		.loc 1 205 3 discriminator 8 view .LVU184
 654 0212 0122     		movs	r2, #1
 655 0214 CDE90522 		strd	r2, r2, [sp, #20]
 656 0218 1C22     		movs	r2, #28
ARM GAS  C:\Users\DJESSOU\AppData\Local\Temp\ccFxekaC.s 			page 37


 657 021a 0492     		str	r2, [sp, #16]
 658 021c C4F30322 		ubfx	r2, r4, #8, #4
 659 0220 0392     		str	r2, [sp, #12]
 660 0222 C4F30332 		ubfx	r2, r4, #12, #4
 661 0226 0292     		str	r2, [sp, #8]
 662 0228 2D4A     		ldr	r2, .L98+80
 663 022a E4B2     		uxtb	r4, r4
 664              	.LVL45:
 205:Lib/AI_Runtime/Npu/ll_aton/ll_aton.c **** #endif
 665              		.loc 1 205 3 discriminator 8 view .LVU185
 666 022c 2549     		ldr	r1, .L98+52
 667 022e 0092     		str	r2, [sp]
 668 0230 2548     		ldr	r0, .L98+56
 669 0232 CD22     		movs	r2, #205
 670 0234 0194     		str	r4, [sp, #4]
 671 0236 FFF7FEFF 		bl	printf
 672              	.LVL46:
 205:Lib/AI_Runtime/Npu/ll_aton/ll_aton.c **** #endif
 673              		.loc 1 205 3 is_stmt 1 discriminator 1 view .LVU186
 205:Lib/AI_Runtime/Npu/ll_aton/ll_aton.c **** #endif
 674              		.loc 1 205 3 discriminator 10 view .LVU187
 675 023a CD21     		movs	r1, #205
 676 023c 234B     		ldr	r3, .L98+60
 677 023e 244A     		ldr	r2, .L98+64
 678 0240 B2E7     		b	.L97
 679              	.LVL47:
 680              	.L38:
 205:Lib/AI_Runtime/Npu/ll_aton/ll_aton.c **** #endif
 681              		.loc 1 205 3 is_stmt 0 discriminator 6 view .LVU188
 682 0242 254B     		ldr	r3, .L98+72
 683 0244 E5E7     		b	.L17
 684              	.L87:
 209:Lib/AI_Runtime/Npu/ll_aton/ll_aton.c **** #endif
 685              		.loc 1 209 3 is_stmt 1 discriminator 3 view .LVU189
 686 0246 FFF7FEFF 		bl	__errno
 687              	.LVL48:
 209:Lib/AI_Runtime/Npu/ll_aton/ll_aton.c **** #endif
 688              		.loc 1 209 3 is_stmt 0 discriminator 1 view .LVU190
 689 024a 0368     		ldr	r3, [r0]
 690 024c F3B1     		cbz	r3, .L39
 209:Lib/AI_Runtime/Npu/ll_aton/ll_aton.c **** #endif
 691              		.loc 1 209 3 discriminator 5 view .LVU191
 692 024e FFF7FEFF 		bl	__errno
 693              	.LVL49:
 209:Lib/AI_Runtime/Npu/ll_aton/ll_aton.c **** #endif
 694              		.loc 1 209 3 discriminator 1 view .LVU192
 695 0252 0068     		ldr	r0, [r0]
 696 0254 FFF7FEFF 		bl	strerror
 697              	.LVL50:
 698 0258 0346     		mov	r3, r0
 699              	.L19:
 209:Lib/AI_Runtime/Npu/ll_aton/ll_aton.c **** #endif
 700              		.loc 1 209 3 discriminator 8 view .LVU193
 701 025a 0122     		movs	r2, #1
 702 025c 0020     		movs	r0, #0
 703 025e CDE90520 		strd	r2, r0, [sp, #20]
 704 0262 1A22     		movs	r2, #26
ARM GAS  C:\Users\DJESSOU\AppData\Local\Temp\ccFxekaC.s 			page 38


 705 0264 0492     		str	r2, [sp, #16]
 706 0266 C4F30322 		ubfx	r2, r4, #8, #4
 707 026a 0392     		str	r2, [sp, #12]
 708 026c C4F30332 		ubfx	r2, r4, #12, #4
 709 0270 0292     		str	r2, [sp, #8]
 710 0272 1C4A     		ldr	r2, .L98+84
 711 0274 E4B2     		uxtb	r4, r4
 712              	.LVL51:
 209:Lib/AI_Runtime/Npu/ll_aton/ll_aton.c **** #endif
 713              		.loc 1 209 3 discriminator 8 view .LVU194
 714 0276 1349     		ldr	r1, .L98+52
 715 0278 0092     		str	r2, [sp]
 716 027a 1348     		ldr	r0, .L98+56
 717 027c D122     		movs	r2, #209
 718 027e 0194     		str	r4, [sp, #4]
 719 0280 FFF7FEFF 		bl	printf
 720              	.LVL52:
 209:Lib/AI_Runtime/Npu/ll_aton/ll_aton.c **** #endif
 721              		.loc 1 209 3 is_stmt 1 discriminator 1 view .LVU195
 209:Lib/AI_Runtime/Npu/ll_aton/ll_aton.c **** #endif
 722              		.loc 1 209 3 discriminator 10 view .LVU196
 723 0284 D121     		movs	r1, #209
 724 0286 114B     		ldr	r3, .L98+60
 725 0288 114A     		ldr	r2, .L98+64
 726 028a 8DE7     		b	.L97
 727              	.LVL53:
 728              	.L39:
 209:Lib/AI_Runtime/Npu/ll_aton/ll_aton.c **** #endif
 729              		.loc 1 209 3 is_stmt 0 discriminator 6 view .LVU197
 730 028c 124B     		ldr	r3, .L98+72
 731 028e E4E7     		b	.L19
 732              	.L99:
 733              		.align	2
 734              	.L98:
 735 0290 00000000 		.word	done.10
 736 0294 00000E58 		.word	1477312512
 737 0298 00F00E58 		.word	1477373952
 738 029c 00B00F58 		.word	1477423104
 739 02a0 00700F58 		.word	1477406720
 740 02a4 00500F58 		.word	1477398528
 741 02a8 00300F58 		.word	1477390336
 742 02ac 00E00F58 		.word	1477435392
 743 02b0 00D00F58 		.word	1477431296
 744 02b4 00100E58 		.word	1477316608
 745 02b8 00400E58 		.word	1477328896
 746 02bc 00200E58 		.word	1477320704
 747 02c0 E1000000 		.word	.LC18
 748 02c4 05000000 		.word	.LC4
 749 02c8 2A000000 		.word	.LC5
 750 02cc 95000000 		.word	.LC7
 751 02d0 00000000 		.word	__func__.11
 752 02d4 8E000000 		.word	.LC6
 753 02d8 00000000 		.word	.LC3
 754 02dc 97000000 		.word	.LC8
 755 02e0 9F000000 		.word	.LC9
 756 02e4 A4000000 		.word	.LC10
 757              	.L88:
ARM GAS  C:\Users\DJESSOU\AppData\Local\Temp\ccFxekaC.s 			page 39


 213:Lib/AI_Runtime/Npu/ll_aton/ll_aton.c **** #endif
 758              		.loc 1 213 3 is_stmt 1 discriminator 3 view .LVU198
 759 02e8 FFF7FEFF 		bl	__errno
 760              	.LVL54:
 213:Lib/AI_Runtime/Npu/ll_aton/ll_aton.c **** #endif
 761              		.loc 1 213 3 is_stmt 0 discriminator 1 view .LVU199
 762 02ec 0368     		ldr	r3, [r0]
 763 02ee EBB1     		cbz	r3, .L40
 213:Lib/AI_Runtime/Npu/ll_aton/ll_aton.c **** #endif
 764              		.loc 1 213 3 discriminator 5 view .LVU200
 765 02f0 FFF7FEFF 		bl	__errno
 766              	.LVL55:
 213:Lib/AI_Runtime/Npu/ll_aton/ll_aton.c **** #endif
 767              		.loc 1 213 3 discriminator 1 view .LVU201
 768 02f4 0068     		ldr	r0, [r0]
 769 02f6 FFF7FEFF 		bl	strerror
 770              	.LVL56:
 771 02fa 0346     		mov	r3, r0
 772              	.L21:
 213:Lib/AI_Runtime/Npu/ll_aton/ll_aton.c **** #endif
 773              		.loc 1 213 3 discriminator 8 view .LVU202
 774 02fc 0122     		movs	r2, #1
 775 02fe CDE90522 		strd	r2, r2, [sp, #20]
 776 0302 1B22     		movs	r2, #27
 777 0304 0492     		str	r2, [sp, #16]
 778 0306 C4F30322 		ubfx	r2, r4, #8, #4
 779 030a 0392     		str	r2, [sp, #12]
 780 030c C4F30332 		ubfx	r2, r4, #12, #4
 781 0310 0292     		str	r2, [sp, #8]
 782 0312 7C4A     		ldr	r2, .L100
 783 0314 E4B2     		uxtb	r4, r4
 784              	.LVL57:
 213:Lib/AI_Runtime/Npu/ll_aton/ll_aton.c **** #endif
 785              		.loc 1 213 3 discriminator 8 view .LVU203
 786 0316 7C49     		ldr	r1, .L100+4
 787 0318 0092     		str	r2, [sp]
 788 031a 7C48     		ldr	r0, .L100+8
 789 031c D522     		movs	r2, #213
 790 031e 0194     		str	r4, [sp, #4]
 791 0320 FFF7FEFF 		bl	printf
 792              	.LVL58:
 213:Lib/AI_Runtime/Npu/ll_aton/ll_aton.c **** #endif
 793              		.loc 1 213 3 is_stmt 1 discriminator 1 view .LVU204
 213:Lib/AI_Runtime/Npu/ll_aton/ll_aton.c **** #endif
 794              		.loc 1 213 3 discriminator 10 view .LVU205
 795 0324 D521     		movs	r1, #213
 796 0326 7A4B     		ldr	r3, .L100+12
 797 0328 7A4A     		ldr	r2, .L100+16
 798 032a 3DE7     		b	.L97
 799              	.LVL59:
 800              	.L40:
 213:Lib/AI_Runtime/Npu/ll_aton/ll_aton.c **** #endif
 801              		.loc 1 213 3 is_stmt 0 discriminator 6 view .LVU206
 802 032c 7A4B     		ldr	r3, .L100+20
 803 032e E5E7     		b	.L21
 804              	.L89:
 217:Lib/AI_Runtime/Npu/ll_aton/ll_aton.c **** #endif
ARM GAS  C:\Users\DJESSOU\AppData\Local\Temp\ccFxekaC.s 			page 40


 805              		.loc 1 217 3 is_stmt 1 discriminator 3 view .LVU207
 806 0330 FFF7FEFF 		bl	__errno
 807              	.LVL60:
 217:Lib/AI_Runtime/Npu/ll_aton/ll_aton.c **** #endif
 808              		.loc 1 217 3 is_stmt 0 discriminator 1 view .LVU208
 809 0334 0368     		ldr	r3, [r0]
 810 0336 F3B1     		cbz	r3, .L41
 217:Lib/AI_Runtime/Npu/ll_aton/ll_aton.c **** #endif
 811              		.loc 1 217 3 discriminator 5 view .LVU209
 812 0338 FFF7FEFF 		bl	__errno
 813              	.LVL61:
 217:Lib/AI_Runtime/Npu/ll_aton/ll_aton.c **** #endif
 814              		.loc 1 217 3 discriminator 1 view .LVU210
 815 033c 0068     		ldr	r0, [r0]
 816 033e FFF7FEFF 		bl	strerror
 817              	.LVL62:
 818 0342 0346     		mov	r3, r0
 819              	.L23:
 217:Lib/AI_Runtime/Npu/ll_aton/ll_aton.c **** #endif
 820              		.loc 1 217 3 discriminator 8 view .LVU211
 821 0344 0122     		movs	r2, #1
 822 0346 0A21     		movs	r1, #10
 823 0348 CDE90521 		strd	r2, r1, [sp, #20]
 824 034c 1922     		movs	r2, #25
 825 034e 0492     		str	r2, [sp, #16]
 826 0350 C4F30322 		ubfx	r2, r4, #8, #4
 827 0354 0392     		str	r2, [sp, #12]
 828 0356 C4F30332 		ubfx	r2, r4, #12, #4
 829 035a 0292     		str	r2, [sp, #8]
 830 035c 6F4A     		ldr	r2, .L100+24
 831 035e E4B2     		uxtb	r4, r4
 832              	.LVL63:
 217:Lib/AI_Runtime/Npu/ll_aton/ll_aton.c **** #endif
 833              		.loc 1 217 3 discriminator 8 view .LVU212
 834 0360 6949     		ldr	r1, .L100+4
 835 0362 0092     		str	r2, [sp]
 836 0364 6948     		ldr	r0, .L100+8
 837 0366 D922     		movs	r2, #217
 838 0368 0194     		str	r4, [sp, #4]
 839 036a FFF7FEFF 		bl	printf
 840              	.LVL64:
 217:Lib/AI_Runtime/Npu/ll_aton/ll_aton.c **** #endif
 841              		.loc 1 217 3 is_stmt 1 discriminator 1 view .LVU213
 217:Lib/AI_Runtime/Npu/ll_aton/ll_aton.c **** #endif
 842              		.loc 1 217 3 discriminator 10 view .LVU214
 843 036e D921     		movs	r1, #217
 844 0370 674B     		ldr	r3, .L100+12
 845 0372 684A     		ldr	r2, .L100+16
 846 0374 18E7     		b	.L97
 847              	.LVL65:
 848              	.L41:
 217:Lib/AI_Runtime/Npu/ll_aton/ll_aton.c **** #endif
 849              		.loc 1 217 3 is_stmt 0 discriminator 6 view .LVU215
 850 0376 684B     		ldr	r3, .L100+20
 851 0378 E4E7     		b	.L23
 852              	.L90:
 221:Lib/AI_Runtime/Npu/ll_aton/ll_aton.c **** #endif
ARM GAS  C:\Users\DJESSOU\AppData\Local\Temp\ccFxekaC.s 			page 41


 853              		.loc 1 221 3 is_stmt 1 discriminator 3 view .LVU216
 854 037a FFF7FEFF 		bl	__errno
 855              	.LVL66:
 221:Lib/AI_Runtime/Npu/ll_aton/ll_aton.c **** #endif
 856              		.loc 1 221 3 is_stmt 0 discriminator 1 view .LVU217
 857 037e 0368     		ldr	r3, [r0]
 858 0380 EBB1     		cbz	r3, .L42
 221:Lib/AI_Runtime/Npu/ll_aton/ll_aton.c **** #endif
 859              		.loc 1 221 3 discriminator 5 view .LVU218
 860 0382 FFF7FEFF 		bl	__errno
 861              	.LVL67:
 221:Lib/AI_Runtime/Npu/ll_aton/ll_aton.c **** #endif
 862              		.loc 1 221 3 discriminator 1 view .LVU219
 863 0386 0068     		ldr	r0, [r0]
 864 0388 FFF7FEFF 		bl	strerror
 865              	.LVL68:
 866 038c 0346     		mov	r3, r0
 867              	.L25:
 221:Lib/AI_Runtime/Npu/ll_aton/ll_aton.c **** #endif
 868              		.loc 1 221 3 discriminator 8 view .LVU220
 869 038e 0122     		movs	r2, #1
 870 0390 CDE90522 		strd	r2, r2, [sp, #20]
 871 0394 2122     		movs	r2, #33
 872 0396 0492     		str	r2, [sp, #16]
 873 0398 C4F30322 		ubfx	r2, r4, #8, #4
 874 039c 0392     		str	r2, [sp, #12]
 875 039e C4F30332 		ubfx	r2, r4, #12, #4
 876 03a2 0292     		str	r2, [sp, #8]
 877 03a4 5E4A     		ldr	r2, .L100+28
 878 03a6 E4B2     		uxtb	r4, r4
 879              	.LVL69:
 221:Lib/AI_Runtime/Npu/ll_aton/ll_aton.c **** #endif
 880              		.loc 1 221 3 discriminator 8 view .LVU221
 881 03a8 5749     		ldr	r1, .L100+4
 882 03aa 0092     		str	r2, [sp]
 883 03ac 5748     		ldr	r0, .L100+8
 884 03ae DD22     		movs	r2, #221
 885 03b0 0194     		str	r4, [sp, #4]
 886 03b2 FFF7FEFF 		bl	printf
 887              	.LVL70:
 221:Lib/AI_Runtime/Npu/ll_aton/ll_aton.c **** #endif
 888              		.loc 1 221 3 is_stmt 1 discriminator 1 view .LVU222
 221:Lib/AI_Runtime/Npu/ll_aton/ll_aton.c **** #endif
 889              		.loc 1 221 3 discriminator 10 view .LVU223
 890 03b6 DD21     		movs	r1, #221
 891 03b8 554B     		ldr	r3, .L100+12
 892 03ba 564A     		ldr	r2, .L100+16
 893 03bc F4E6     		b	.L97
 894              	.LVL71:
 895              	.L42:
 221:Lib/AI_Runtime/Npu/ll_aton/ll_aton.c **** #endif
 896              		.loc 1 221 3 is_stmt 0 discriminator 6 view .LVU224
 897 03be 564B     		ldr	r3, .L100+20
 898 03c0 E5E7     		b	.L25
 899              	.L91:
 225:Lib/AI_Runtime/Npu/ll_aton/ll_aton.c **** #endif
 900              		.loc 1 225 3 is_stmt 1 discriminator 3 view .LVU225
ARM GAS  C:\Users\DJESSOU\AppData\Local\Temp\ccFxekaC.s 			page 42


 901 03c2 FFF7FEFF 		bl	__errno
 902              	.LVL72:
 225:Lib/AI_Runtime/Npu/ll_aton/ll_aton.c **** #endif
 903              		.loc 1 225 3 is_stmt 0 discriminator 1 view .LVU226
 904 03c6 0368     		ldr	r3, [r0]
 905 03c8 FBB1     		cbz	r3, .L43
 225:Lib/AI_Runtime/Npu/ll_aton/ll_aton.c **** #endif
 906              		.loc 1 225 3 discriminator 5 view .LVU227
 907 03ca FFF7FEFF 		bl	__errno
 908              	.LVL73:
 225:Lib/AI_Runtime/Npu/ll_aton/ll_aton.c **** #endif
 909              		.loc 1 225 3 discriminator 1 view .LVU228
 910 03ce 0068     		ldr	r0, [r0]
 911 03d0 FFF7FEFF 		bl	strerror
 912              	.LVL74:
 913 03d4 0346     		mov	r3, r0
 914              	.L27:
 225:Lib/AI_Runtime/Npu/ll_aton/ll_aton.c **** #endif
 915              		.loc 1 225 3 discriminator 8 view .LVU229
 916 03d6 0322     		movs	r2, #3
 917 03d8 4FF0020E 		mov	lr, #2
 918 03dc CDE9052E 		strd	r2, lr, [sp, #20]
 919 03e0 2022     		movs	r2, #32
 920 03e2 0492     		str	r2, [sp, #16]
 921 03e4 C4F30322 		ubfx	r2, r4, #8, #4
 922 03e8 0392     		str	r2, [sp, #12]
 923 03ea C4F30332 		ubfx	r2, r4, #12, #4
 924 03ee 0292     		str	r2, [sp, #8]
 925 03f0 4C4A     		ldr	r2, .L100+32
 926 03f2 E4B2     		uxtb	r4, r4
 927              	.LVL75:
 225:Lib/AI_Runtime/Npu/ll_aton/ll_aton.c **** #endif
 928              		.loc 1 225 3 discriminator 8 view .LVU230
 929 03f4 4449     		ldr	r1, .L100+4
 930 03f6 0092     		str	r2, [sp]
 931 03f8 4448     		ldr	r0, .L100+8
 932 03fa E122     		movs	r2, #225
 933 03fc 0194     		str	r4, [sp, #4]
 934 03fe FFF7FEFF 		bl	printf
 935              	.LVL76:
 225:Lib/AI_Runtime/Npu/ll_aton/ll_aton.c **** #endif
 936              		.loc 1 225 3 is_stmt 1 discriminator 1 view .LVU231
 225:Lib/AI_Runtime/Npu/ll_aton/ll_aton.c **** #endif
 937              		.loc 1 225 3 discriminator 10 view .LVU232
 938 0402 E121     		movs	r1, #225
 939 0404 424B     		ldr	r3, .L100+12
 940 0406 434A     		ldr	r2, .L100+16
 941 0408 CEE6     		b	.L97
 942              	.LVL77:
 943              	.L43:
 225:Lib/AI_Runtime/Npu/ll_aton/ll_aton.c **** #endif
 944              		.loc 1 225 3 is_stmt 0 discriminator 6 view .LVU233
 945 040a 434B     		ldr	r3, .L100+20
 946 040c E3E7     		b	.L27
 947              	.L92:
 244:Lib/AI_Runtime/Npu/ll_aton/ll_aton.c **** 
 948              		.loc 1 244 3 is_stmt 1 discriminator 3 view .LVU234
ARM GAS  C:\Users\DJESSOU\AppData\Local\Temp\ccFxekaC.s 			page 43


 949 040e FFF7FEFF 		bl	__errno
 950              	.LVL78:
 244:Lib/AI_Runtime/Npu/ll_aton/ll_aton.c **** 
 951              		.loc 1 244 3 is_stmt 0 discriminator 1 view .LVU235
 952 0412 0368     		ldr	r3, [r0]
 953 0414 FBB1     		cbz	r3, .L44
 244:Lib/AI_Runtime/Npu/ll_aton/ll_aton.c **** 
 954              		.loc 1 244 3 discriminator 5 view .LVU236
 955 0416 FFF7FEFF 		bl	__errno
 956              	.LVL79:
 244:Lib/AI_Runtime/Npu/ll_aton/ll_aton.c **** 
 957              		.loc 1 244 3 discriminator 1 view .LVU237
 958 041a 0068     		ldr	r0, [r0]
 959 041c FFF7FEFF 		bl	strerror
 960              	.LVL80:
 961 0420 0346     		mov	r3, r0
 962              	.L29:
 244:Lib/AI_Runtime/Npu/ll_aton/ll_aton.c **** 
 963              		.loc 1 244 3 discriminator 8 view .LVU238
 964 0422 0122     		movs	r2, #1
 965 0424 4FF0020C 		mov	ip, #2
 966 0428 CDE9052C 		strd	r2, ip, [sp, #20]
 967 042c 1F22     		movs	r2, #31
 968 042e 0492     		str	r2, [sp, #16]
 969 0430 C4F30322 		ubfx	r2, r4, #8, #4
 970 0434 0392     		str	r2, [sp, #12]
 971 0436 C4F30332 		ubfx	r2, r4, #12, #4
 972 043a 0292     		str	r2, [sp, #8]
 973 043c 3A4A     		ldr	r2, .L100+36
 974 043e E4B2     		uxtb	r4, r4
 975              	.LVL81:
 244:Lib/AI_Runtime/Npu/ll_aton/ll_aton.c **** 
 976              		.loc 1 244 3 discriminator 8 view .LVU239
 977 0440 3149     		ldr	r1, .L100+4
 978 0442 0092     		str	r2, [sp]
 979 0444 3148     		ldr	r0, .L100+8
 980 0446 F422     		movs	r2, #244
 981 0448 0194     		str	r4, [sp, #4]
 982 044a FFF7FEFF 		bl	printf
 983              	.LVL82:
 244:Lib/AI_Runtime/Npu/ll_aton/ll_aton.c **** 
 984              		.loc 1 244 3 is_stmt 1 discriminator 1 view .LVU240
 244:Lib/AI_Runtime/Npu/ll_aton/ll_aton.c **** 
 985              		.loc 1 244 3 discriminator 10 view .LVU241
 986 044e F421     		movs	r1, #244
 987 0450 2F4B     		ldr	r3, .L100+12
 988 0452 304A     		ldr	r2, .L100+16
 989 0454 A8E6     		b	.L97
 990              	.LVL83:
 991              	.L44:
 244:Lib/AI_Runtime/Npu/ll_aton/ll_aton.c **** 
 992              		.loc 1 244 3 is_stmt 0 discriminator 6 view .LVU242
 993 0456 304B     		ldr	r3, .L100+20
 994 0458 E3E7     		b	.L29
 995              	.L93:
 246:Lib/AI_Runtime/Npu/ll_aton/ll_aton.c **** 
 996              		.loc 1 246 3 is_stmt 1 discriminator 3 view .LVU243
ARM GAS  C:\Users\DJESSOU\AppData\Local\Temp\ccFxekaC.s 			page 44


 997 045a FFF7FEFF 		bl	__errno
 998              	.LVL84:
 246:Lib/AI_Runtime/Npu/ll_aton/ll_aton.c **** 
 999              		.loc 1 246 3 is_stmt 0 discriminator 1 view .LVU244
 1000 045e 0368     		ldr	r3, [r0]
 1001 0460 EBB1     		cbz	r3, .L45
 246:Lib/AI_Runtime/Npu/ll_aton/ll_aton.c **** 
 1002              		.loc 1 246 3 discriminator 5 view .LVU245
 1003 0462 FFF7FEFF 		bl	__errno
 1004              	.LVL85:
 246:Lib/AI_Runtime/Npu/ll_aton/ll_aton.c **** 
 1005              		.loc 1 246 3 discriminator 1 view .LVU246
 1006 0466 0068     		ldr	r0, [r0]
 1007 0468 FFF7FEFF 		bl	strerror
 1008              	.LVL86:
 1009 046c 0346     		mov	r3, r0
 1010              	.L31:
 246:Lib/AI_Runtime/Npu/ll_aton/ll_aton.c **** 
 1011              		.loc 1 246 3 discriminator 8 view .LVU247
 1012 046e 0122     		movs	r2, #1
 1013 0470 CDE90522 		strd	r2, r2, [sp, #20]
 1014 0474 1E22     		movs	r2, #30
 1015 0476 0492     		str	r2, [sp, #16]
 1016 0478 C4F30322 		ubfx	r2, r4, #8, #4
 1017 047c 0392     		str	r2, [sp, #12]
 1018 047e C4F30332 		ubfx	r2, r4, #12, #4
 1019 0482 0292     		str	r2, [sp, #8]
 1020 0484 294A     		ldr	r2, .L100+40
 1021 0486 E4B2     		uxtb	r4, r4
 1022              	.LVL87:
 246:Lib/AI_Runtime/Npu/ll_aton/ll_aton.c **** 
 1023              		.loc 1 246 3 discriminator 8 view .LVU248
 1024 0488 1F49     		ldr	r1, .L100+4
 1025 048a 0092     		str	r2, [sp]
 1026 048c 1F48     		ldr	r0, .L100+8
 1027 048e F622     		movs	r2, #246
 1028 0490 0194     		str	r4, [sp, #4]
 1029 0492 FFF7FEFF 		bl	printf
 1030              	.LVL88:
 246:Lib/AI_Runtime/Npu/ll_aton/ll_aton.c **** 
 1031              		.loc 1 246 3 is_stmt 1 discriminator 1 view .LVU249
 246:Lib/AI_Runtime/Npu/ll_aton/ll_aton.c **** 
 1032              		.loc 1 246 3 discriminator 10 view .LVU250
 1033 0496 F621     		movs	r1, #246
 1034 0498 1D4B     		ldr	r3, .L100+12
 1035 049a 1E4A     		ldr	r2, .L100+16
 1036 049c 84E6     		b	.L97
 1037              	.LVL89:
 1038              	.L45:
 246:Lib/AI_Runtime/Npu/ll_aton/ll_aton.c **** 
 1039              		.loc 1 246 3 is_stmt 0 discriminator 6 view .LVU251
 1040 049e 1E4B     		ldr	r3, .L100+20
 1041 04a0 E5E7     		b	.L31
 1042              	.L94:
 248:Lib/AI_Runtime/Npu/ll_aton/ll_aton.c **** 
 1043              		.loc 1 248 3 is_stmt 1 discriminator 3 view .LVU252
 1044 04a2 FFF7FEFF 		bl	__errno
ARM GAS  C:\Users\DJESSOU\AppData\Local\Temp\ccFxekaC.s 			page 45


 1045              	.LVL90:
 248:Lib/AI_Runtime/Npu/ll_aton/ll_aton.c **** 
 1046              		.loc 1 248 3 is_stmt 0 discriminator 1 view .LVU253
 1047 04a6 0368     		ldr	r3, [r0]
 1048 04a8 F3B1     		cbz	r3, .L46
 248:Lib/AI_Runtime/Npu/ll_aton/ll_aton.c **** 
 1049              		.loc 1 248 3 discriminator 5 view .LVU254
 1050 04aa FFF7FEFF 		bl	__errno
 1051              	.LVL91:
 248:Lib/AI_Runtime/Npu/ll_aton/ll_aton.c **** 
 1052              		.loc 1 248 3 discriminator 1 view .LVU255
 1053 04ae 0068     		ldr	r0, [r0]
 1054 04b0 FFF7FEFF 		bl	strerror
 1055              	.LVL92:
 1056 04b4 0346     		mov	r3, r0
 1057              	.L33:
 248:Lib/AI_Runtime/Npu/ll_aton/ll_aton.c **** 
 1058              		.loc 1 248 3 discriminator 8 view .LVU256
 1059 04b6 0122     		movs	r2, #1
 1060 04b8 0620     		movs	r0, #6
 1061 04ba CDE90520 		strd	r2, r0, [sp, #20]
 1062 04be 0022     		movs	r2, #0
 1063 04c0 0492     		str	r2, [sp, #16]
 1064 04c2 C4F30322 		ubfx	r2, r4, #8, #4
 1065 04c6 0392     		str	r2, [sp, #12]
 1066 04c8 C4F30332 		ubfx	r2, r4, #12, #4
 1067 04cc 0292     		str	r2, [sp, #8]
 1068 04ce 184A     		ldr	r2, .L100+44
 1069 04d0 E4B2     		uxtb	r4, r4
 1070              	.LVL93:
 248:Lib/AI_Runtime/Npu/ll_aton/ll_aton.c **** 
 1071              		.loc 1 248 3 discriminator 8 view .LVU257
 1072 04d2 0D49     		ldr	r1, .L100+4
 1073 04d4 0092     		str	r2, [sp]
 1074 04d6 0D48     		ldr	r0, .L100+8
 1075 04d8 F822     		movs	r2, #248
 1076 04da 0194     		str	r4, [sp, #4]
 1077 04dc FFF7FEFF 		bl	printf
 1078              	.LVL94:
 248:Lib/AI_Runtime/Npu/ll_aton/ll_aton.c **** 
 1079              		.loc 1 248 3 is_stmt 1 discriminator 1 view .LVU258
 248:Lib/AI_Runtime/Npu/ll_aton/ll_aton.c **** 
 1080              		.loc 1 248 3 discriminator 10 view .LVU259
 1081 04e0 F821     		movs	r1, #248
 1082 04e2 0B4B     		ldr	r3, .L100+12
 1083 04e4 0B4A     		ldr	r2, .L100+16
 1084 04e6 5FE6     		b	.L97
 1085              	.LVL95:
 1086              	.L46:
 248:Lib/AI_Runtime/Npu/ll_aton/ll_aton.c **** 
 1087              		.loc 1 248 3 is_stmt 0 discriminator 6 view .LVU260
 1088 04e8 0B4B     		ldr	r3, .L100+20
 1089 04ea E4E7     		b	.L33
 1090              	.L47:
 250:Lib/AI_Runtime/Npu/ll_aton/ll_aton.c **** 
 1091              		.loc 1 250 3 discriminator 6 view .LVU261
 1092 04ec 0A4B     		ldr	r3, .L100+20
ARM GAS  C:\Users\DJESSOU\AppData\Local\Temp\ccFxekaC.s 			page 46


 1093 04ee 1FE6     		b	.L35
 1094              	.L96:
 1095              	.LVL96:
 253:Lib/AI_Runtime/Npu/ll_aton/ll_aton.c ****   {
 1096              		.loc 1 253 17 is_stmt 1 discriminator 1 view .LVU262
 255:Lib/AI_Runtime/Npu/ll_aton/ll_aton.c ****   }
 1097              		.loc 1 255 5 view .LVU263
 255:Lib/AI_Runtime/Npu/ll_aton/ll_aton.c ****   }
 1098              		.loc 1 255 5 view .LVU264
 255:Lib/AI_Runtime/Npu/ll_aton/ll_aton.c ****   }
 1099              		.loc 1 255 5 view .LVU265
 255:Lib/AI_Runtime/Npu/ll_aton/ll_aton.c ****   }
 1100              		.loc 1 255 5 is_stmt 0 discriminator 4 view .LVU266
 1101 04f0 0123     		movs	r3, #1
 262:Lib/AI_Runtime/Npu/ll_aton/ll_aton.c **** 
 1102              		.loc 1 262 1 view .LVU267
 1103 04f2 0020     		movs	r0, #0
 255:Lib/AI_Runtime/Npu/ll_aton/ll_aton.c ****   }
 1104              		.loc 1 255 5 discriminator 4 view .LVU268
 1105 04f4 1360     		str	r3, [r2]
 255:Lib/AI_Runtime/Npu/ll_aton/ll_aton.c ****   }
 1106              		.loc 1 255 5 is_stmt 1 discriminator 4 view .LVU269
 255:Lib/AI_Runtime/Npu/ll_aton/ll_aton.c ****   }
 1107              		.loc 1 255 5 discriminator 4 view .LVU270
 253:Lib/AI_Runtime/Npu/ll_aton/ll_aton.c ****   {
 1108              		.loc 1 253 36 discriminator 2 view .LVU271
 1109              	.LVL97:
 253:Lib/AI_Runtime/Npu/ll_aton/ll_aton.c ****   {
 1110              		.loc 1 253 17 discriminator 1 view .LVU272
 255:Lib/AI_Runtime/Npu/ll_aton/ll_aton.c ****   }
 1111              		.loc 1 255 5 view .LVU273
 255:Lib/AI_Runtime/Npu/ll_aton/ll_aton.c ****   }
 1112              		.loc 1 255 5 view .LVU274
 255:Lib/AI_Runtime/Npu/ll_aton/ll_aton.c ****   }
 1113              		.loc 1 255 5 view .LVU275
 255:Lib/AI_Runtime/Npu/ll_aton/ll_aton.c ****   }
 1114              		.loc 1 255 5 is_stmt 0 discriminator 4 view .LVU276
 1115 04f6 0F4A     		ldr	r2, .L100+48
 1116 04f8 1360     		str	r3, [r2]
 255:Lib/AI_Runtime/Npu/ll_aton/ll_aton.c ****   }
 1117              		.loc 1 255 5 is_stmt 1 discriminator 4 view .LVU277
 255:Lib/AI_Runtime/Npu/ll_aton/ll_aton.c ****   }
 1118              		.loc 1 255 5 discriminator 4 view .LVU278
 253:Lib/AI_Runtime/Npu/ll_aton/ll_aton.c ****   {
 1119              		.loc 1 253 36 discriminator 2 view .LVU279
 1120              	.LVL98:
 253:Lib/AI_Runtime/Npu/ll_aton/ll_aton.c ****   {
 1121              		.loc 1 253 17 discriminator 1 view .LVU280
 259:Lib/AI_Runtime/Npu/ll_aton/ll_aton.c **** 
 1122              		.loc 1 259 3 view .LVU281
 259:Lib/AI_Runtime/Npu/ll_aton/ll_aton.c **** 
 1123              		.loc 1 259 3 view .LVU282
 259:Lib/AI_Runtime/Npu/ll_aton/ll_aton.c **** 
 1124              		.loc 1 259 3 view .LVU283
 1125 04fa A2F50052 		sub	r2, r2, #8192
 1126 04fe 1360     		str	r3, [r2]
 259:Lib/AI_Runtime/Npu/ll_aton/ll_aton.c **** 
ARM GAS  C:\Users\DJESSOU\AppData\Local\Temp\ccFxekaC.s 			page 47


 1127              		.loc 1 259 3 view .LVU284
 259:Lib/AI_Runtime/Npu/ll_aton/ll_aton.c **** 
 1128              		.loc 1 259 3 view .LVU285
 261:Lib/AI_Runtime/Npu/ll_aton/ll_aton.c **** }
 1129              		.loc 1 261 3 view .LVU286
 262:Lib/AI_Runtime/Npu/ll_aton/ll_aton.c **** 
 1130              		.loc 1 262 1 is_stmt 0 view .LVU287
 1131 0500 08B0     		add	sp, sp, #32
 1132              		.cfi_def_cfa_offset 8
 1133              		@ sp needed
 1134 0502 10BD     		pop	{r4, pc}
 1135              	.LVL99:
 1136              	.L101:
 262:Lib/AI_Runtime/Npu/ll_aton/ll_aton.c **** 
 1137              		.loc 1 262 1 view .LVU288
 1138              		.align	2
 1139              	.L100:
 1140 0504 AA000000 		.word	.LC11
 1141 0508 05000000 		.word	.LC4
 1142 050c 2A000000 		.word	.LC5
 1143 0510 95000000 		.word	.LC7
 1144 0514 00000000 		.word	__func__.11
 1145 0518 00000000 		.word	.LC3
 1146 051c B0000000 		.word	.LC12
 1147 0520 B6000000 		.word	.LC13
 1148 0524 C0000000 		.word	.LC14
 1149 0528 C7000000 		.word	.LC15
 1150 052c CF000000 		.word	.LC16
 1151 0530 D7000000 		.word	.LC17
 1152 0534 00300E58 		.word	1477324800
 1153              		.cfi_endproc
 1154              	.LFE287:
 1156              		.section	.text.LL_ATON_DeInit,"ax",%progbits
 1157              		.align	1
 1158              		.global	LL_ATON_DeInit
 1159              		.syntax unified
 1160              		.thumb
 1161              		.thumb_func
 1163              	LL_ATON_DeInit:
 1164              	.LFB288:
 269:Lib/AI_Runtime/Npu/ll_aton/ll_aton.c ****   int i;
 1165              		.loc 1 269 1 is_stmt 1 view -0
 1166              		.cfi_startproc
 1167              		@ args = 0, pretend = 0, frame = 0
 1168              		@ frame_needed = 0, uses_anonymous_args = 0
 1169              		@ link register save eliminated.
 270:Lib/AI_Runtime/Npu/ll_aton/ll_aton.c **** 
 1170              		.loc 1 270 3 view .LVU290
 273:Lib/AI_Runtime/Npu/ll_aton/ll_aton.c **** 
 1171              		.loc 1 273 3 view .LVU291
 273:Lib/AI_Runtime/Npu/ll_aton/ll_aton.c **** 
 1172              		.loc 1 273 3 view .LVU292
 273:Lib/AI_Runtime/Npu/ll_aton/ll_aton.c **** 
 1173              		.loc 1 273 3 view .LVU293
 1174 0000 0020     		movs	r0, #0
 1175 0002 074B     		ldr	r3, .L103
 1176 0004 1860     		str	r0, [r3]
ARM GAS  C:\Users\DJESSOU\AppData\Local\Temp\ccFxekaC.s 			page 48


 273:Lib/AI_Runtime/Npu/ll_aton/ll_aton.c **** 
 1177              		.loc 1 273 3 view .LVU294
 273:Lib/AI_Runtime/Npu/ll_aton/ll_aton.c **** 
 1178              		.loc 1 273 3 view .LVU295
 276:Lib/AI_Runtime/Npu/ll_aton/ll_aton.c ****   {
 1179              		.loc 1 276 3 view .LVU296
 1180              	.LVL100:
 276:Lib/AI_Runtime/Npu/ll_aton/ll_aton.c ****   {
 1181              		.loc 1 276 17 discriminator 1 view .LVU297
 278:Lib/AI_Runtime/Npu/ll_aton/ll_aton.c ****   }
 1182              		.loc 1 278 5 view .LVU298
 278:Lib/AI_Runtime/Npu/ll_aton/ll_aton.c ****   }
 1183              		.loc 1 278 5 view .LVU299
 278:Lib/AI_Runtime/Npu/ll_aton/ll_aton.c ****   }
 1184              		.loc 1 278 5 view .LVU300
 278:Lib/AI_Runtime/Npu/ll_aton/ll_aton.c ****   }
 1185              		.loc 1 278 5 is_stmt 0 discriminator 4 view .LVU301
 1186 0006 03F58053 		add	r3, r3, #4096
 1187 000a 1860     		str	r0, [r3]
 278:Lib/AI_Runtime/Npu/ll_aton/ll_aton.c ****   }
 1188              		.loc 1 278 5 is_stmt 1 discriminator 4 view .LVU302
 278:Lib/AI_Runtime/Npu/ll_aton/ll_aton.c ****   }
 1189              		.loc 1 278 5 discriminator 4 view .LVU303
 276:Lib/AI_Runtime/Npu/ll_aton/ll_aton.c ****   {
 1190              		.loc 1 276 36 discriminator 2 view .LVU304
 1191              	.LVL101:
 276:Lib/AI_Runtime/Npu/ll_aton/ll_aton.c ****   {
 1192              		.loc 1 276 17 discriminator 1 view .LVU305
 278:Lib/AI_Runtime/Npu/ll_aton/ll_aton.c ****   }
 1193              		.loc 1 278 5 view .LVU306
 278:Lib/AI_Runtime/Npu/ll_aton/ll_aton.c ****   }
 1194              		.loc 1 278 5 view .LVU307
 278:Lib/AI_Runtime/Npu/ll_aton/ll_aton.c ****   }
 1195              		.loc 1 278 5 view .LVU308
 278:Lib/AI_Runtime/Npu/ll_aton/ll_aton.c ****   }
 1196              		.loc 1 278 5 is_stmt 0 discriminator 4 view .LVU309
 1197 000c 03F58053 		add	r3, r3, #4096
 1198 0010 1860     		str	r0, [r3]
 278:Lib/AI_Runtime/Npu/ll_aton/ll_aton.c ****   }
 1199              		.loc 1 278 5 is_stmt 1 discriminator 4 view .LVU310
 278:Lib/AI_Runtime/Npu/ll_aton/ll_aton.c ****   }
 1200              		.loc 1 278 5 discriminator 4 view .LVU311
 276:Lib/AI_Runtime/Npu/ll_aton/ll_aton.c ****   {
 1201              		.loc 1 276 36 discriminator 2 view .LVU312
 1202              	.LVL102:
 276:Lib/AI_Runtime/Npu/ll_aton/ll_aton.c ****   {
 1203              		.loc 1 276 17 discriminator 1 view .LVU313
 282:Lib/AI_Runtime/Npu/ll_aton/ll_aton.c ****   ATON_CLKCTRL_AGATES1_SET(0, 0);
 1204              		.loc 1 282 3 view .LVU314
 282:Lib/AI_Runtime/Npu/ll_aton/ll_aton.c ****   ATON_CLKCTRL_AGATES1_SET(0, 0);
 1205              		.loc 1 282 3 view .LVU315
 282:Lib/AI_Runtime/Npu/ll_aton/ll_aton.c ****   ATON_CLKCTRL_AGATES1_SET(0, 0);
 1206              		.loc 1 282 3 view .LVU316
 1207 0012 A3F54053 		sub	r3, r3, #12288
 1208 0016 9860     		str	r0, [r3, #8]
 282:Lib/AI_Runtime/Npu/ll_aton/ll_aton.c ****   ATON_CLKCTRL_AGATES1_SET(0, 0);
 1209              		.loc 1 282 3 view .LVU317
ARM GAS  C:\Users\DJESSOU\AppData\Local\Temp\ccFxekaC.s 			page 49


 282:Lib/AI_Runtime/Npu/ll_aton/ll_aton.c ****   ATON_CLKCTRL_AGATES1_SET(0, 0);
 1210              		.loc 1 282 3 view .LVU318
 283:Lib/AI_Runtime/Npu/ll_aton/ll_aton.c ****   ATON_CLKCTRL_BGATES_SET(0, 0);
 1211              		.loc 1 283 3 view .LVU319
 283:Lib/AI_Runtime/Npu/ll_aton/ll_aton.c ****   ATON_CLKCTRL_BGATES_SET(0, 0);
 1212              		.loc 1 283 3 view .LVU320
 283:Lib/AI_Runtime/Npu/ll_aton/ll_aton.c ****   ATON_CLKCTRL_BGATES_SET(0, 0);
 1213              		.loc 1 283 3 view .LVU321
 1214 0018 D860     		str	r0, [r3, #12]
 283:Lib/AI_Runtime/Npu/ll_aton/ll_aton.c ****   ATON_CLKCTRL_BGATES_SET(0, 0);
 1215              		.loc 1 283 3 view .LVU322
 283:Lib/AI_Runtime/Npu/ll_aton/ll_aton.c ****   ATON_CLKCTRL_BGATES_SET(0, 0);
 1216              		.loc 1 283 3 view .LVU323
 284:Lib/AI_Runtime/Npu/ll_aton/ll_aton.c **** #ifdef ATON_CLKCTRL_BGATES1_OFFSET
 1217              		.loc 1 284 3 view .LVU324
 284:Lib/AI_Runtime/Npu/ll_aton/ll_aton.c **** #ifdef ATON_CLKCTRL_BGATES1_OFFSET
 1218              		.loc 1 284 3 view .LVU325
 284:Lib/AI_Runtime/Npu/ll_aton/ll_aton.c **** #ifdef ATON_CLKCTRL_BGATES1_OFFSET
 1219              		.loc 1 284 3 view .LVU326
 1220 001a 1861     		str	r0, [r3, #16]
 284:Lib/AI_Runtime/Npu/ll_aton/ll_aton.c **** #ifdef ATON_CLKCTRL_BGATES1_OFFSET
 1221              		.loc 1 284 3 view .LVU327
 284:Lib/AI_Runtime/Npu/ll_aton/ll_aton.c **** #ifdef ATON_CLKCTRL_BGATES1_OFFSET
 1222              		.loc 1 284 3 view .LVU328
 288:Lib/AI_Runtime/Npu/ll_aton/ll_aton.c **** 
 1223              		.loc 1 288 3 view .LVU329
 288:Lib/AI_Runtime/Npu/ll_aton/ll_aton.c **** 
 1224              		.loc 1 288 3 view .LVU330
 288:Lib/AI_Runtime/Npu/ll_aton/ll_aton.c **** 
 1225              		.loc 1 288 3 view .LVU331
 1226 001c 1860     		str	r0, [r3]
 288:Lib/AI_Runtime/Npu/ll_aton/ll_aton.c **** 
 1227              		.loc 1 288 3 view .LVU332
 288:Lib/AI_Runtime/Npu/ll_aton/ll_aton.c **** 
 1228              		.loc 1 288 3 view .LVU333
 290:Lib/AI_Runtime/Npu/ll_aton/ll_aton.c **** }
 1229              		.loc 1 290 3 view .LVU334
 291:Lib/AI_Runtime/Npu/ll_aton/ll_aton.c **** 
 1230              		.loc 1 291 1 is_stmt 0 view .LVU335
 1231 001e 7047     		bx	lr
 1232              	.L104:
 1233              		.align	2
 1234              	.L103:
 1235 0020 00100E58 		.word	1477316608
 1236              		.cfi_endproc
 1237              	.LFE288:
 1239              		.section	.text.LL_ATON_EnableUnits_Init,"ax",%progbits
 1240              		.align	1
 1241              		.global	LL_ATON_EnableUnits_Init
 1242              		.syntax unified
 1243              		.thumb
 1244              		.thumb_func
 1246              	LL_ATON_EnableUnits_Init:
 1247              	.LVL103:
 1248              	.LFB289:
 301:Lib/AI_Runtime/Npu/ll_aton/ll_aton.c ****   int i;
 1249              		.loc 1 301 1 is_stmt 1 view -0
ARM GAS  C:\Users\DJESSOU\AppData\Local\Temp\ccFxekaC.s 			page 50


 1250              		.cfi_startproc
 1251              		@ args = 0, pretend = 0, frame = 0
 1252              		@ frame_needed = 0, uses_anonymous_args = 0
 302:Lib/AI_Runtime/Npu/ll_aton/ll_aton.c ****   enum AccelUnitsType unitType;
 1253              		.loc 1 302 3 view .LVU337
 303:Lib/AI_Runtime/Npu/ll_aton/ll_aton.c ****   uint32_t unitId;
 1254              		.loc 1 303 3 view .LVU338
 304:Lib/AI_Runtime/Npu/ll_aton/ll_aton.c **** 
 1255              		.loc 1 304 3 view .LVU339
 306:Lib/AI_Runtime/Npu/ll_aton/ll_aton.c ****   {
 1256              		.loc 1 306 3 view .LVU340
 301:Lib/AI_Runtime/Npu/ll_aton/ll_aton.c ****   int i;
 1257              		.loc 1 301 1 is_stmt 0 view .LVU341
 1258 0000 F0B5     		push	{r4, r5, r6, r7, lr}
 1259              		.cfi_def_cfa_offset 20
 1260              		.cfi_offset 4, -20
 1261              		.cfi_offset 5, -16
 1262              		.cfi_offset 6, -12
 1263              		.cfi_offset 7, -8
 1264              		.cfi_offset 14, -4
 306:Lib/AI_Runtime/Npu/ll_aton/ll_aton.c ****   {
 1265              		.loc 1 306 10 view .LVU342
 1266 0002 0024     		movs	r4, #0
 1267 0004 A142     		cmp	r1, r4
 1268 0006 01F10102 		add	r2, r1, #1
 1269 000a B8BF     		it	lt
 1270 000c 0122     		movlt	r2, #1
 328:Lib/AI_Runtime/Npu/ll_aton/ll_aton.c **** #endif
 1271              		.loc 1 328 7 view .LVU343
 1272 000e 264E     		ldr	r6, .L125
 309:Lib/AI_Runtime/Npu/ll_aton/ll_aton.c **** 
 1273              		.loc 1 309 52 view .LVU344
 1274 0010 851C     		adds	r5, r0, #2
 1275              	.LVL104:
 1276              	.L106:
 306:Lib/AI_Runtime/Npu/ll_aton/ll_aton.c ****   {
 1277              		.loc 1 306 17 is_stmt 1 discriminator 1 view .LVU345
 1278 0012 013A     		subs	r2, r2, #1
 1279 0014 01D1     		bne	.L118
 372:Lib/AI_Runtime/Npu/ll_aton/ll_aton.c **** 
 1280              		.loc 1 372 1 is_stmt 0 view .LVU346
 1281 0016 0020     		movs	r0, #0
 1282              	.LVL105:
 372:Lib/AI_Runtime/Npu/ll_aton/ll_aton.c **** 
 1283              		.loc 1 372 1 view .LVU347
 1284 0018 F0BD     		pop	{r4, r5, r6, r7, pc}
 1285              	.LVL106:
 1286              	.L118:
 308:Lib/AI_Runtime/Npu/ll_aton/ll_aton.c ****     unitId = LL_ATON_EnableUnits_InitStruct[i].unit.unit_num;
 1287              		.loc 1 308 5 is_stmt 1 view .LVU348
 309:Lib/AI_Runtime/Npu/ll_aton/ll_aton.c **** 
 1288              		.loc 1 309 5 view .LVU349
 311:Lib/AI_Runtime/Npu/ll_aton/ll_aton.c ****     {
 1289              		.loc 1 311 5 is_stmt 0 view .LVU350
 1290 001a 10F82410 		ldrb	r1, [r0, r4, lsl #2]	@ zero_extendqisi2
 309:Lib/AI_Runtime/Npu/ll_aton/ll_aton.c **** 
 1291              		.loc 1 309 12 view .LVU351
ARM GAS  C:\Users\DJESSOU\AppData\Local\Temp\ccFxekaC.s 			page 51


 1292 001e 35F82430 		ldrh	r3, [r5, r4, lsl #2]
 1293              	.LVL107:
 311:Lib/AI_Runtime/Npu/ll_aton/ll_aton.c ****     {
 1294              		.loc 1 311 5 is_stmt 1 view .LVU352
 1295 0022 0829     		cmp	r1, #8
 1296 0024 19D8     		bhi	.L107
 1297 0026 DFE801F0 		tbb	[pc, r1]
 1298              	.L109:
 1299 002a 05       		.byte	(.L115-.L109)/2
 1300 002b 18       		.byte	(.L107-.L109)/2
 1301 002c 0D       		.byte	(.L114-.L109)/2
 1302 002d 1A       		.byte	(.L113-.L109)/2
 1303 002e 20       		.byte	(.L112-.L109)/2
 1304 002f 26       		.byte	(.L111-.L109)/2
 1305 0030 2C       		.byte	(.L110-.L109)/2
 1306 0031 18       		.byte	(.L107-.L109)/2
 1307 0032 32       		.byte	(.L108-.L109)/2
 1308 0033 00       		.p2align 1
 1309              	.L115:
 314:Lib/AI_Runtime/Npu/ll_aton/ll_aton.c ****       break;
 1310              		.loc 1 314 7 view .LVU353
 1311              	.LBB23:
 314:Lib/AI_Runtime/Npu/ll_aton/ll_aton.c ****       break;
 1312              		.loc 1 314 7 view .LVU354
 1313 0034 092B     		cmp	r3, #9
 1314 0036 31D8     		bhi	.L116
 314:Lib/AI_Runtime/Npu/ll_aton/ll_aton.c ****       break;
 1315              		.loc 1 314 7 is_stmt 0 discriminator 1 view .LVU355
 1316 0038 03F5B023 		add	r3, r3, #360448
 1317              	.LVL108:
 314:Lib/AI_Runtime/Npu/ll_aton/ll_aton.c ****       break;
 1318              		.loc 1 314 7 discriminator 1 view .LVU356
 1319 003c E533     		adds	r3, r3, #229
 1320              	.LVL109:
 1321              	.L124:
 314:Lib/AI_Runtime/Npu/ll_aton/ll_aton.c ****       break;
 1322              		.loc 1 314 7 discriminator 1 view .LVU357
 1323              	.LBE23:
 1324              	.LBB24:
 335:Lib/AI_Runtime/Npu/ll_aton/ll_aton.c ****       break;
 1325              		.loc 1 335 7 discriminator 1 view .LVU358
 1326 003e 1B03     		lsls	r3, r3, #12
 335:Lib/AI_Runtime/Npu/ll_aton/ll_aton.c ****       break;
 1327              		.loc 1 335 7 discriminator 4 view .LVU359
 1328 0040 1968     		ldr	r1, [r3]
 1329              	.LVL110:
 335:Lib/AI_Runtime/Npu/ll_aton/ll_aton.c ****       break;
 1330              		.loc 1 335 7 is_stmt 1 discriminator 4 view .LVU360
 1331 0042 07E0     		b	.L122
 1332              	.LVL111:
 1333              	.L114:
 335:Lib/AI_Runtime/Npu/ll_aton/ll_aton.c ****       break;
 1334              		.loc 1 335 7 is_stmt 0 discriminator 4 view .LVU361
 1335              	.LBE24:
 328:Lib/AI_Runtime/Npu/ll_aton/ll_aton.c **** #endif
 1336              		.loc 1 328 7 is_stmt 1 view .LVU362
 328:Lib/AI_Runtime/Npu/ll_aton/ll_aton.c **** #endif
ARM GAS  C:\Users\DJESSOU\AppData\Local\Temp\ccFxekaC.s 			page 52


 1337              		.loc 1 328 7 view .LVU363
 328:Lib/AI_Runtime/Npu/ll_aton/ll_aton.c **** #endif
 1338              		.loc 1 328 7 view .LVU364
 1339 0044 032B     		cmp	r3, #3
 1340 0046 56F82310 		ldr	r1, [r6, r3, lsl #2]
 1341 004a 2AD8     		bhi	.L117
 328:Lib/AI_Runtime/Npu/ll_aton/ll_aton.c **** #endif
 1342              		.loc 1 328 7 is_stmt 0 discriminator 1 view .LVU365
 1343 004c 03F5B023 		add	r3, r3, #360448
 1344              	.LVL112:
 328:Lib/AI_Runtime/Npu/ll_aton/ll_aton.c **** #endif
 1345              		.loc 1 328 7 discriminator 1 view .LVU366
 1346 0050 EF33     		adds	r3, r3, #239
 1347              	.LVL113:
 328:Lib/AI_Runtime/Npu/ll_aton/ll_aton.c **** #endif
 1348              		.loc 1 328 7 discriminator 1 view .LVU367
 1349 0052 1B03     		lsls	r3, r3, #12
 1350              	.LVL114:
 1351              	.L122:
 328:Lib/AI_Runtime/Npu/ll_aton/ll_aton.c **** #endif
 1352              		.loc 1 328 7 discriminator 4 view .LVU368
 1353 0054 41F00101 		orr	r1, r1, #1
 1354 0058 1960     		str	r1, [r3]
 1355              	.LVL115:
 328:Lib/AI_Runtime/Npu/ll_aton/ll_aton.c **** #endif
 1356              		.loc 1 328 7 is_stmt 1 discriminator 4 view .LVU369
 328:Lib/AI_Runtime/Npu/ll_aton/ll_aton.c **** #endif
 1357              		.loc 1 328 7 discriminator 4 view .LVU370
 330:Lib/AI_Runtime/Npu/ll_aton/ll_aton.c **** #endif
 1358              		.loc 1 330 7 view .LVU371
 1359              	.L107:
 306:Lib/AI_Runtime/Npu/ll_aton/ll_aton.c ****   {
 1360              		.loc 1 306 23 discriminator 2 view .LVU372
 1361 005a 0134     		adds	r4, r4, #1
 1362              	.LVL116:
 306:Lib/AI_Runtime/Npu/ll_aton/ll_aton.c ****   {
 1363              		.loc 1 306 23 is_stmt 0 discriminator 2 view .LVU373
 1364 005c D9E7     		b	.L106
 1365              	.LVL117:
 1366              	.L113:
 335:Lib/AI_Runtime/Npu/ll_aton/ll_aton.c ****       break;
 1367              		.loc 1 335 7 is_stmt 1 view .LVU374
 1368              	.LBB25:
 335:Lib/AI_Runtime/Npu/ll_aton/ll_aton.c ****       break;
 1369              		.loc 1 335 7 view .LVU375
 1370 005e 012B     		cmp	r3, #1
 1371 0060 1CD8     		bhi	.L116
 335:Lib/AI_Runtime/Npu/ll_aton/ll_aton.c ****       break;
 1372              		.loc 1 335 7 is_stmt 0 discriminator 1 view .LVU376
 1373 0062 03F5B023 		add	r3, r3, #360448
 1374              	.LVL118:
 335:Lib/AI_Runtime/Npu/ll_aton/ll_aton.c ****       break;
 1375              		.loc 1 335 7 discriminator 1 view .LVU377
 1376 0066 F333     		adds	r3, r3, #243
 1377              	.LVL119:
 335:Lib/AI_Runtime/Npu/ll_aton/ll_aton.c ****       break;
 1378              		.loc 1 335 7 discriminator 1 view .LVU378
ARM GAS  C:\Users\DJESSOU\AppData\Local\Temp\ccFxekaC.s 			page 53


 1379 0068 E9E7     		b	.L124
 1380              	.LVL120:
 1381              	.L112:
 335:Lib/AI_Runtime/Npu/ll_aton/ll_aton.c ****       break;
 1382              		.loc 1 335 7 discriminator 1 view .LVU379
 1383              	.LBE25:
 341:Lib/AI_Runtime/Npu/ll_aton/ll_aton.c ****       break;
 1384              		.loc 1 341 7 is_stmt 1 view .LVU380
 1385              	.LBB26:
 341:Lib/AI_Runtime/Npu/ll_aton/ll_aton.c ****       break;
 1386              		.loc 1 341 7 view .LVU381
 1387 006a 012B     		cmp	r3, #1
 1388 006c 16D8     		bhi	.L116
 341:Lib/AI_Runtime/Npu/ll_aton/ll_aton.c ****       break;
 1389              		.loc 1 341 7 is_stmt 0 discriminator 1 view .LVU382
 1390 006e 03F5B023 		add	r3, r3, #360448
 1391              	.LVL121:
 341:Lib/AI_Runtime/Npu/ll_aton/ll_aton.c ****       break;
 1392              		.loc 1 341 7 discriminator 1 view .LVU383
 1393 0072 F533     		adds	r3, r3, #245
 1394              	.LVL122:
 341:Lib/AI_Runtime/Npu/ll_aton/ll_aton.c ****       break;
 1395              		.loc 1 341 7 discriminator 1 view .LVU384
 1396 0074 E3E7     		b	.L124
 1397              	.LVL123:
 1398              	.L111:
 341:Lib/AI_Runtime/Npu/ll_aton/ll_aton.c ****       break;
 1399              		.loc 1 341 7 discriminator 1 view .LVU385
 1400              	.LBE26:
 347:Lib/AI_Runtime/Npu/ll_aton/ll_aton.c ****       break;
 1401              		.loc 1 347 7 is_stmt 1 view .LVU386
 1402              	.LBB27:
 347:Lib/AI_Runtime/Npu/ll_aton/ll_aton.c ****       break;
 1403              		.loc 1 347 7 view .LVU387
 1404 0076 032B     		cmp	r3, #3
 1405 0078 10D8     		bhi	.L116
 347:Lib/AI_Runtime/Npu/ll_aton/ll_aton.c ****       break;
 1406              		.loc 1 347 7 is_stmt 0 discriminator 1 view .LVU388
 1407 007a 03F5B023 		add	r3, r3, #360448
 1408              	.LVL124:
 347:Lib/AI_Runtime/Npu/ll_aton/ll_aton.c ****       break;
 1409              		.loc 1 347 7 discriminator 1 view .LVU389
 1410 007e F733     		adds	r3, r3, #247
 1411              	.LVL125:
 347:Lib/AI_Runtime/Npu/ll_aton/ll_aton.c ****       break;
 1412              		.loc 1 347 7 discriminator 1 view .LVU390
 1413 0080 DDE7     		b	.L124
 1414              	.LVL126:
 1415              	.L110:
 347:Lib/AI_Runtime/Npu/ll_aton/ll_aton.c ****       break;
 1416              		.loc 1 347 7 discriminator 1 view .LVU391
 1417              	.LBE27:
 356:Lib/AI_Runtime/Npu/ll_aton/ll_aton.c **** #endif // !POOL_RC14
 1418              		.loc 1 356 7 is_stmt 1 view .LVU392
 1419              	.LBB28:
 356:Lib/AI_Runtime/Npu/ll_aton/ll_aton.c **** #endif // !POOL_RC14
 1420              		.loc 1 356 7 view .LVU393
ARM GAS  C:\Users\DJESSOU\AppData\Local\Temp\ccFxekaC.s 			page 54


 1421 0082 012B     		cmp	r3, #1
 1422 0084 0AD8     		bhi	.L116
 356:Lib/AI_Runtime/Npu/ll_aton/ll_aton.c **** #endif // !POOL_RC14
 1423              		.loc 1 356 7 is_stmt 0 discriminator 1 view .LVU394
 1424 0086 03F5B023 		add	r3, r3, #360448
 1425              	.LVL127:
 356:Lib/AI_Runtime/Npu/ll_aton/ll_aton.c **** #endif // !POOL_RC14
 1426              		.loc 1 356 7 discriminator 1 view .LVU395
 1427 008a FB33     		adds	r3, r3, #251
 1428              	.LVL128:
 356:Lib/AI_Runtime/Npu/ll_aton/ll_aton.c **** #endif // !POOL_RC14
 1429              		.loc 1 356 7 discriminator 1 view .LVU396
 1430 008c D7E7     		b	.L124
 1431              	.LVL129:
 1432              	.L108:
 356:Lib/AI_Runtime/Npu/ll_aton/ll_aton.c **** #endif // !POOL_RC14
 1433              		.loc 1 356 7 discriminator 1 view .LVU397
 1434              	.LBE28:
 362:Lib/AI_Runtime/Npu/ll_aton/ll_aton.c ****       break;
 1435              		.loc 1 362 7 is_stmt 1 view .LVU398
 1436              	.LBB29:
 362:Lib/AI_Runtime/Npu/ll_aton/ll_aton.c ****       break;
 1437              		.loc 1 362 7 view .LVU399
 1438 008e 2BB9     		cbnz	r3, .L116
 362:Lib/AI_Runtime/Npu/ll_aton/ll_aton.c ****       break;
 1439              		.loc 1 362 7 is_stmt 0 discriminator 4 view .LVU400
 1440 0090 0649     		ldr	r1, .L125+4
 1441 0092 0B68     		ldr	r3, [r1]
 1442              	.LVL130:
 362:Lib/AI_Runtime/Npu/ll_aton/ll_aton.c ****       break;
 1443              		.loc 1 362 7 is_stmt 1 discriminator 4 view .LVU401
 1444 0094 43F00103 		orr	r3, r3, #1
 1445              	.LVL131:
 362:Lib/AI_Runtime/Npu/ll_aton/ll_aton.c ****       break;
 1446              		.loc 1 362 7 discriminator 4 view .LVU402
 362:Lib/AI_Runtime/Npu/ll_aton/ll_aton.c ****       break;
 1447              		.loc 1 362 7 discriminator 4 view .LVU403
 362:Lib/AI_Runtime/Npu/ll_aton/ll_aton.c ****       break;
 1448              		.loc 1 362 7 discriminator 4 view .LVU404
 362:Lib/AI_Runtime/Npu/ll_aton/ll_aton.c ****       break;
 1449              		.loc 1 362 7 is_stmt 0 discriminator 8 view .LVU405
 1450 0098 0B60     		str	r3, [r1]
 1451              	.LVL132:
 362:Lib/AI_Runtime/Npu/ll_aton/ll_aton.c ****       break;
 1452              		.loc 1 362 7 is_stmt 1 discriminator 8 view .LVU406
 362:Lib/AI_Runtime/Npu/ll_aton/ll_aton.c ****       break;
 1453              		.loc 1 362 7 discriminator 8 view .LVU407
 1454              	.LBE29:
 362:Lib/AI_Runtime/Npu/ll_aton/ll_aton.c ****       break;
 1455              		.loc 1 362 7 discriminator 8 view .LVU408
 363:Lib/AI_Runtime/Npu/ll_aton/ll_aton.c **** #endif
 1456              		.loc 1 363 7 view .LVU409
 1457 009a DEE7     		b	.L107
 1458              	.LVL133:
 1459              	.L116:
 1460              	.LBB30:
 314:Lib/AI_Runtime/Npu/ll_aton/ll_aton.c ****       break;
ARM GAS  C:\Users\DJESSOU\AppData\Local\Temp\ccFxekaC.s 			page 55


 1461              		.loc 1 314 7 is_stmt 0 discriminator 4 view .LVU410
 1462 009c 0023     		movs	r3, #0
 1463              	.LVL134:
 314:Lib/AI_Runtime/Npu/ll_aton/ll_aton.c ****       break;
 1464              		.loc 1 314 7 discriminator 4 view .LVU411
 1465 009e 1B68     		ldr	r3, [r3]
 1466              	.LVL135:
 1467              	.L123:
 314:Lib/AI_Runtime/Npu/ll_aton/ll_aton.c ****       break;
 1468              		.loc 1 314 7 discriminator 4 view .LVU412
 1469 00a0 FFDE     		.inst	0xdeff
 1470              	.LVL136:
 1471              	.L117:
 314:Lib/AI_Runtime/Npu/ll_aton/ll_aton.c ****       break;
 1472              		.loc 1 314 7 discriminator 4 view .LVU413
 1473              	.LBE30:
 328:Lib/AI_Runtime/Npu/ll_aton/ll_aton.c **** #endif
 1474              		.loc 1 328 7 discriminator 4 view .LVU414
 1475 00a2 0023     		movs	r3, #0
 1476              	.LVL137:
 328:Lib/AI_Runtime/Npu/ll_aton/ll_aton.c **** #endif
 1477              		.loc 1 328 7 discriminator 4 view .LVU415
 1478 00a4 1B60     		str	r3, [r3]
 1479              	.LVL138:
 328:Lib/AI_Runtime/Npu/ll_aton/ll_aton.c **** #endif
 1480              		.loc 1 328 7 discriminator 4 view .LVU416
 1481 00a6 FBE7     		b	.L123
 1482              	.L126:
 1483              		.align	2
 1484              	.L125:
 1485 00a8 00000000 		.word	Conv_ctrl_bits
 1486 00ac 00D00F58 		.word	1477431296
 1487              		.cfi_endproc
 1488              	.LFE289:
 1490              		.section	.rodata.LL_Streng_Wait.str1.1,"aMS",%progbits,1
 1491              	.LC19:
 1492 0000 63686563 		.ascii	"checkWatchdog() == 0\000"
 1492      6B576174 
 1492      6368646F 
 1492      67282920 
 1492      3D3D2030 
 1493              		.section	.text.LL_Streng_Wait,"ax",%progbits
 1494              		.align	1
 1495              		.global	LL_Streng_Wait
 1496              		.syntax unified
 1497              		.thumb
 1498              		.thumb_func
 1500              	LL_Streng_Wait:
 1501              	.LVL139:
 1502              	.LFB291:
 462:Lib/AI_Runtime/Npu/ll_aton/ll_aton.c ****   int i;
 1503              		.loc 1 462 1 is_stmt 1 view -0
 1504              		.cfi_startproc
 1505              		@ args = 0, pretend = 0, frame = 0
 1506              		@ frame_needed = 0, uses_anonymous_args = 0
 463:Lib/AI_Runtime/Npu/ll_aton/ll_aton.c ****   uint32_t enableFlags;
 1507              		.loc 1 463 3 view .LVU418
ARM GAS  C:\Users\DJESSOU\AppData\Local\Temp\ccFxekaC.s 			page 56


 464:Lib/AI_Runtime/Npu/ll_aton/ll_aton.c **** 
 1508              		.loc 1 464 3 view .LVU419
 466:Lib/AI_Runtime/Npu/ll_aton/ll_aton.c **** 
 1509              		.loc 1 466 3 view .LVU420
 462:Lib/AI_Runtime/Npu/ll_aton/ll_aton.c ****   int i;
 1510              		.loc 1 462 1 is_stmt 0 view .LVU421
 1511 0000 70B5     		push	{r4, r5, r6, lr}
 1512              		.cfi_def_cfa_offset 16
 1513              		.cfi_offset 4, -16
 1514              		.cfi_offset 5, -12
 1515              		.cfi_offset 6, -8
 1516              		.cfi_offset 14, -4
 462:Lib/AI_Runtime/Npu/ll_aton/ll_aton.c ****   int i;
 1517              		.loc 1 462 1 view .LVU422
 1518 0002 0546     		mov	r5, r0
 466:Lib/AI_Runtime/Npu/ll_aton/ll_aton.c **** 
 1519              		.loc 1 466 3 view .LVU423
 1520 0004 1248     		ldr	r0, .L137
 1521              	.LVL140:
 466:Lib/AI_Runtime/Npu/ll_aton/ll_aton.c **** 
 1522              		.loc 1 466 3 view .LVU424
 1523 0006 FFF7FEFF 		bl	startWatchdog
 1524              	.LVL141:
 473:Lib/AI_Runtime/Npu/ll_aton/ll_aton.c ****       {
 1525              		.loc 1 473 21 view .LVU425
 1526 000a 0126     		movs	r6, #1
 1527              	.L131:
 468:Lib/AI_Runtime/Npu/ll_aton/ll_aton.c ****   {
 1528              		.loc 1 468 3 is_stmt 1 view .LVU426
 470:Lib/AI_Runtime/Npu/ll_aton/ll_aton.c ****     for (i = 0; i < ATON_STRENG_NUM; i++)
 1529              		.loc 1 470 5 view .LVU427
 1530              	.LVL142:
 471:Lib/AI_Runtime/Npu/ll_aton/ll_aton.c ****     {
 1531              		.loc 1 471 5 view .LVU428
 471:Lib/AI_Runtime/Npu/ll_aton/ll_aton.c ****     {
 1532              		.loc 1 471 19 discriminator 1 view .LVU429
 470:Lib/AI_Runtime/Npu/ll_aton/ll_aton.c ****     for (i = 0; i < ATON_STRENG_NUM; i++)
 1533              		.loc 1 470 17 is_stmt 0 view .LVU430
 1534 000c 0024     		movs	r4, #0
 471:Lib/AI_Runtime/Npu/ll_aton/ll_aton.c ****     {
 1535              		.loc 1 471 12 view .LVU431
 1536 000e 0A21     		movs	r1, #10
 1537 0010 2246     		mov	r2, r4
 1538              	.LVL143:
 1539              	.L129:
 473:Lib/AI_Runtime/Npu/ll_aton/ll_aton.c ****       {
 1540              		.loc 1 473 7 is_stmt 1 view .LVU432
 473:Lib/AI_Runtime/Npu/ll_aton/ll_aton.c ****       {
 1541              		.loc 1 473 21 is_stmt 0 view .LVU433
 1542 0012 06FA02F3 		lsl	r3, r6, r2
 473:Lib/AI_Runtime/Npu/ll_aton/ll_aton.c ****       {
 1543              		.loc 1 473 10 view .LVU434
 1544 0016 2B42     		tst	r3, r5
 1545 0018 08D0     		beq	.L128
 475:Lib/AI_Runtime/Npu/ll_aton/ll_aton.c ****       }
 1546              		.loc 1 475 9 is_stmt 1 view .LVU435
 475:Lib/AI_Runtime/Npu/ll_aton/ll_aton.c ****       }
ARM GAS  C:\Users\DJESSOU\AppData\Local\Temp\ccFxekaC.s 			page 57


 1547              		.loc 1 475 25 is_stmt 0 discriminator 1 view .LVU436
 1548 001a 1303     		lsls	r3, r2, #12
 1549 001c 03F1B043 		add	r3, r3, #1476395008
 1550 0020 03F56523 		add	r3, r3, #937984
 475:Lib/AI_Runtime/Npu/ll_aton/ll_aton.c ****       }
 1551              		.loc 1 475 25 discriminator 4 view .LVU437
 1552 0024 1B68     		ldr	r3, [r3]
 475:Lib/AI_Runtime/Npu/ll_aton/ll_aton.c ****       }
 1553              		.loc 1 475 49 discriminator 4 view .LVU438
 1554 0026 03F00043 		and	r3, r3, #-2147483648
 475:Lib/AI_Runtime/Npu/ll_aton/ll_aton.c ****       }
 1555              		.loc 1 475 21 discriminator 4 view .LVU439
 1556 002a 1C43     		orrs	r4, r4, r3
 1557              	.LVL144:
 1558              	.L128:
 471:Lib/AI_Runtime/Npu/ll_aton/ll_aton.c ****     {
 1559              		.loc 1 471 39 is_stmt 1 discriminator 2 view .LVU440
 471:Lib/AI_Runtime/Npu/ll_aton/ll_aton.c ****     {
 1560              		.loc 1 471 19 is_stmt 0 discriminator 1 view .LVU441
 1561 002c 0139     		subs	r1, r1, #1
 471:Lib/AI_Runtime/Npu/ll_aton/ll_aton.c ****     {
 1562              		.loc 1 471 39 discriminator 2 view .LVU442
 1563 002e 02F10102 		add	r2, r2, #1
 1564              	.LVL145:
 471:Lib/AI_Runtime/Npu/ll_aton/ll_aton.c ****     {
 1565              		.loc 1 471 19 is_stmt 1 discriminator 1 view .LVU443
 1566 0032 EED1     		bne	.L129
 479:Lib/AI_Runtime/Npu/ll_aton/ll_aton.c **** 
 1567              		.loc 1 479 5 view .LVU444
 1568 0034 FFF7FEFF 		bl	checkWatchdog
 1569              	.LVL146:
 479:Lib/AI_Runtime/Npu/ll_aton/ll_aton.c **** 
 1570              		.loc 1 479 5 is_stmt 0 discriminator 1 view .LVU445
 1571 0038 30B1     		cbz	r0, .L130
 1572              	.LBB33:
 1573              	.LBI33:
 461:Lib/AI_Runtime/Npu/ll_aton/ll_aton.c **** {
 1574              		.loc 1 461 5 is_stmt 1 view .LVU446
 1575              	.LVL147:
 1576              	.LBB34:
 479:Lib/AI_Runtime/Npu/ll_aton/ll_aton.c **** 
 1577              		.loc 1 479 5 is_stmt 0 discriminator 1 view .LVU447
 1578 003a 40F2DF11 		movw	r1, #479
 1579 003e 054B     		ldr	r3, .L137+4
 1580 0040 054A     		ldr	r2, .L137+8
 1581 0042 0648     		ldr	r0, .L137+12
 1582 0044 FFF7FEFF 		bl	__assert_func
 1583              	.LVL148:
 1584              	.L130:
 479:Lib/AI_Runtime/Npu/ll_aton/ll_aton.c **** 
 1585              		.loc 1 479 5 discriminator 1 view .LVU448
 1586              	.LBE34:
 1587              	.LBE33:
 481:Lib/AI_Runtime/Npu/ll_aton/ll_aton.c **** 
 1588              		.loc 1 481 12 is_stmt 1 view .LVU449
 1589 0048 002C     		cmp	r4, #0
 1590 004a DFD1     		bne	.L131
ARM GAS  C:\Users\DJESSOU\AppData\Local\Temp\ccFxekaC.s 			page 58


 483:Lib/AI_Runtime/Npu/ll_aton/ll_aton.c **** }
 1591              		.loc 1 483 3 view .LVU450
 484:Lib/AI_Runtime/Npu/ll_aton/ll_aton.c **** 
 1592              		.loc 1 484 1 is_stmt 0 view .LVU451
 1593 004c 70BD     		pop	{r4, r5, r6, pc}
 1594              	.LVL149:
 1595              	.L138:
 484:Lib/AI_Runtime/Npu/ll_aton/ll_aton.c **** 
 1596              		.loc 1 484 1 view .LVU452
 1597 004e 00BF     		.align	2
 1598              	.L137:
 1599 0050 80969800 		.word	10000000
 1600 0054 00000000 		.word	.LC19
 1601 0058 00000000 		.word	__func__.8
 1602 005c 05000000 		.word	.LC4
 1603              		.cfi_endproc
 1604              	.LFE291:
 1606              		.section	.text.LL_TriggerHigh,"ax",%progbits
 1607              		.align	1
 1608              		.global	LL_TriggerHigh
 1609              		.syntax unified
 1610              		.thumb
 1611              		.thumb_func
 1613              	LL_TriggerHigh:
 1614              	.LVL150:
 1615              	.LFB294:
 812:Lib/AI_Runtime/Npu/ll_aton/ll_aton.c ****   if (irq >= ATON_INTCTRL_INTS(0))
 1616              		.loc 1 812 1 is_stmt 1 view -0
 1617              		.cfi_startproc
 1618              		@ args = 0, pretend = 0, frame = 0
 1619              		@ frame_needed = 0, uses_anonymous_args = 0
 1620              		@ link register save eliminated.
 813:Lib/AI_Runtime/Npu/ll_aton/ll_aton.c ****     return LL_ATON_INVALID_PARAM;
 1621              		.loc 1 813 3 view .LVU454
 813:Lib/AI_Runtime/Npu/ll_aton/ll_aton.c ****     return LL_ATON_INVALID_PARAM;
 1622              		.loc 1 813 6 is_stmt 0 view .LVU455
 1623 0000 1F28     		cmp	r0, #31
 1624 0002 0EDC     		bgt	.L142
 816:Lib/AI_Runtime/Npu/ll_aton/ll_aton.c ****   ATON_INTCTRL_INTSET_SET(0, (1 << ATON_INTCTRL_0_INTSET_EPOCHCTRL_0_1_IDX));
 1625              		.loc 1 816 3 is_stmt 1 view .LVU456
 816:Lib/AI_Runtime/Npu/ll_aton/ll_aton.c ****   ATON_INTCTRL_INTSET_SET(0, (1 << ATON_INTCTRL_0_INTSET_EPOCHCTRL_0_1_IDX));
 1626              		.loc 1 816 3 view .LVU457
 816:Lib/AI_Runtime/Npu/ll_aton/ll_aton.c ****   ATON_INTCTRL_INTSET_SET(0, (1 << ATON_INTCTRL_0_INTSET_EPOCHCTRL_0_1_IDX));
 1627              		.loc 1 816 3 view .LVU458
 1628 0004 084A     		ldr	r2, .L144
 816:Lib/AI_Runtime/Npu/ll_aton/ll_aton.c ****   ATON_INTCTRL_INTSET_SET(0, (1 << ATON_INTCTRL_0_INTSET_EPOCHCTRL_0_1_IDX));
 1629              		.loc 1 816 3 is_stmt 0 discriminator 1 view .LVU459
 1630 0006 094B     		ldr	r3, .L144+4
 1631 0008 0428     		cmp	r0, #4
 1632 000a 03EB8003 		add	r3, r3, r0, lsl #2
 816:Lib/AI_Runtime/Npu/ll_aton/ll_aton.c ****   ATON_INTCTRL_INTSET_SET(0, (1 << ATON_INTCTRL_0_INTSET_EPOCHCTRL_0_1_IDX));
 1633              		.loc 1 816 3 discriminator 4 view .LVU460
 1634 000e 6FF00051 		mvn	r1, #536870912
 816:Lib/AI_Runtime/Npu/ll_aton/ll_aton.c ****   ATON_INTCTRL_INTSET_SET(0, (1 << ATON_INTCTRL_0_INTSET_EPOCHCTRL_0_1_IDX));
 1635              		.loc 1 816 3 discriminator 1 view .LVU461
 1636 0012 28BF     		it	cs
 1637 0014 1346     		movcs	r3, r2
ARM GAS  C:\Users\DJESSOU\AppData\Local\Temp\ccFxekaC.s 			page 59


 816:Lib/AI_Runtime/Npu/ll_aton/ll_aton.c ****   ATON_INTCTRL_INTSET_SET(0, (1 << ATON_INTCTRL_0_INTSET_EPOCHCTRL_0_1_IDX));
 1638              		.loc 1 816 3 discriminator 4 view .LVU462
 1639 0016 1960     		str	r1, [r3]
 816:Lib/AI_Runtime/Npu/ll_aton/ll_aton.c ****   ATON_INTCTRL_INTSET_SET(0, (1 << ATON_INTCTRL_0_INTSET_EPOCHCTRL_0_1_IDX));
 1640              		.loc 1 816 3 is_stmt 1 discriminator 4 view .LVU463
 816:Lib/AI_Runtime/Npu/ll_aton/ll_aton.c ****   ATON_INTCTRL_INTSET_SET(0, (1 << ATON_INTCTRL_0_INTSET_EPOCHCTRL_0_1_IDX));
 1641              		.loc 1 816 3 discriminator 4 view .LVU464
 817:Lib/AI_Runtime/Npu/ll_aton/ll_aton.c ****   return 0;
 1642              		.loc 1 817 3 view .LVU465
 817:Lib/AI_Runtime/Npu/ll_aton/ll_aton.c ****   return 0;
 1643              		.loc 1 817 3 view .LVU466
 817:Lib/AI_Runtime/Npu/ll_aton/ll_aton.c ****   return 0;
 1644              		.loc 1 817 3 view .LVU467
 1645 0018 4FF00053 		mov	r3, #536870912
 818:Lib/AI_Runtime/Npu/ll_aton/ll_aton.c **** }
 1646              		.loc 1 818 10 is_stmt 0 view .LVU468
 1647 001c 0020     		movs	r0, #0
 1648              	.LVL151:
 817:Lib/AI_Runtime/Npu/ll_aton/ll_aton.c ****   return 0;
 1649              		.loc 1 817 3 view .LVU469
 1650 001e D360     		str	r3, [r2, #12]
 817:Lib/AI_Runtime/Npu/ll_aton/ll_aton.c ****   return 0;
 1651              		.loc 1 817 3 is_stmt 1 view .LVU470
 817:Lib/AI_Runtime/Npu/ll_aton/ll_aton.c ****   return 0;
 1652              		.loc 1 817 3 view .LVU471
 818:Lib/AI_Runtime/Npu/ll_aton/ll_aton.c **** }
 1653              		.loc 1 818 3 view .LVU472
 818:Lib/AI_Runtime/Npu/ll_aton/ll_aton.c **** }
 1654              		.loc 1 818 10 is_stmt 0 view .LVU473
 1655 0020 7047     		bx	lr
 1656              	.LVL152:
 1657              	.L142:
 814:Lib/AI_Runtime/Npu/ll_aton/ll_aton.c **** 
 1658              		.loc 1 814 12 view .LVU474
 1659 0022 6FF00100 		mvn	r0, #1
 1660              	.LVL153:
 819:Lib/AI_Runtime/Npu/ll_aton/ll_aton.c **** 
 1661              		.loc 1 819 1 view .LVU475
 1662 0026 7047     		bx	lr
 1663              	.L145:
 1664              		.align	2
 1665              	.L144:
 1666 0028 00100E58 		.word	1477316608
 1667 002c 14100E58 		.word	1477316628
 1668              		.cfi_endproc
 1669              	.LFE294:
 1671              		.section	.text.LL_TriggerLow,"ax",%progbits
 1672              		.align	1
 1673              		.global	LL_TriggerLow
 1674              		.syntax unified
 1675              		.thumb
 1676              		.thumb_func
 1678              	LL_TriggerLow:
 1679              	.LVL154:
 1680              	.LFB295:
 827:Lib/AI_Runtime/Npu/ll_aton/ll_aton.c ****   if (irq >= ATON_INTCTRL_INTS(0))
 1681              		.loc 1 827 1 is_stmt 1 view -0
ARM GAS  C:\Users\DJESSOU\AppData\Local\Temp\ccFxekaC.s 			page 60


 1682              		.cfi_startproc
 1683              		@ args = 0, pretend = 0, frame = 0
 1684              		@ frame_needed = 0, uses_anonymous_args = 0
 1685              		@ link register save eliminated.
 828:Lib/AI_Runtime/Npu/ll_aton/ll_aton.c ****     return LL_ATON_INVALID_PARAM;
 1686              		.loc 1 828 3 view .LVU477
 828:Lib/AI_Runtime/Npu/ll_aton/ll_aton.c ****     return LL_ATON_INVALID_PARAM;
 1687              		.loc 1 828 6 is_stmt 0 view .LVU478
 1688 0000 1F28     		cmp	r0, #31
 831:Lib/AI_Runtime/Npu/ll_aton/ll_aton.c ****   return 0;
 1689              		.loc 1 831 3 is_stmt 1 view .LVU479
 831:Lib/AI_Runtime/Npu/ll_aton/ll_aton.c ****   return 0;
 1690              		.loc 1 831 3 view .LVU480
 831:Lib/AI_Runtime/Npu/ll_aton/ll_aton.c ****   return 0;
 1691              		.loc 1 831 3 view .LVU481
 1692 0002 DFBF     		itttt	le
 1693 0004 4FF00052 		movle	r2, #536870912
 1694 0008 034B     		ldrle	r3, .L149
 832:Lib/AI_Runtime/Npu/ll_aton/ll_aton.c **** }
 1695              		.loc 1 832 10 is_stmt 0 view .LVU482
 1696 000a 0020     		movle	r0, #0
 1697              	.LVL155:
 831:Lib/AI_Runtime/Npu/ll_aton/ll_aton.c ****   return 0;
 1698              		.loc 1 831 3 view .LVU483
 1699 000c 1A61     		strle	r2, [r3, #16]
 831:Lib/AI_Runtime/Npu/ll_aton/ll_aton.c ****   return 0;
 1700              		.loc 1 831 3 is_stmt 1 view .LVU484
 831:Lib/AI_Runtime/Npu/ll_aton/ll_aton.c ****   return 0;
 1701              		.loc 1 831 3 view .LVU485
 832:Lib/AI_Runtime/Npu/ll_aton/ll_aton.c **** }
 1702              		.loc 1 832 3 view .LVU486
 829:Lib/AI_Runtime/Npu/ll_aton/ll_aton.c **** 
 1703              		.loc 1 829 12 is_stmt 0 view .LVU487
 1704 000e C8BF     		it	gt
 1705 0010 6FF00100 		mvngt	r0, #1
 833:Lib/AI_Runtime/Npu/ll_aton/ll_aton.c **** #endif
 1706              		.loc 1 833 1 view .LVU488
 1707 0014 7047     		bx	lr
 1708              	.L150:
 1709 0016 00BF     		.align	2
 1710              	.L149:
 1711 0018 00100E58 		.word	1477316608
 1712              		.cfi_endproc
 1713              	.LFE295:
 1715              		.section	.rodata.__atonn_getSrcPortID.str1.1,"aMS",%progbits,1
 1716              	.LC20:
 1717 0000 73755F6E 		.ascii	"su_num == 0\000"
 1717      756D203D 
 1717      3D203000 
 1718              	.LC21:
 1719 000c 706F7274 		.ascii	"port == 0\000"
 1719      203D3D20 
 1719      3000
 1720              	.LC22:
 1721 0016 61755F6E 		.ascii	"au_num < 10\000"
 1721      756D203C 
 1721      20313000 
ARM GAS  C:\Users\DJESSOU\AppData\Local\Temp\ccFxekaC.s 			page 61


 1722              	.LC23:
 1723 0022 61755F6E 		.ascii	"au_num < 4\000"
 1723      756D203C 
 1723      203400
 1724              	.LC24:
 1725 002d 61755F6E 		.ascii	"au_num < 2\000"
 1725      756D203C 
 1725      203200
 1726              		.section	.text.__atonn_getSrcPortID,"ax",%progbits
 1727              		.align	1
 1728              		.global	__atonn_getSrcPortID
 1729              		.syntax unified
 1730              		.thumb
 1731              		.thumb_func
 1733              	__atonn_getSrcPortID:
 1734              	.LVL156:
 1735              	.LFB296:
 838:Lib/AI_Runtime/Npu/ll_aton/ll_aton.c ****   // FIXME
 1736              		.loc 1 838 1 is_stmt 1 view -0
 1737              		.cfi_startproc
 1738              		@ args = 4, pretend = 0, frame = 0
 1739              		@ frame_needed = 0, uses_anonymous_args = 0
 840:Lib/AI_Runtime/Npu/ll_aton/ll_aton.c ****   switch (sut)
 1740              		.loc 1 840 3 view .LVU490
 838:Lib/AI_Runtime/Npu/ll_aton/ll_aton.c ****   // FIXME
 1741              		.loc 1 838 1 is_stmt 0 view .LVU491
 1742 0000 38B5     		push	{r3, r4, r5, lr}
 1743              		.cfi_def_cfa_offset 16
 1744              		.cfi_offset 3, -16
 1745              		.cfi_offset 4, -12
 1746              		.cfi_offset 5, -8
 1747              		.cfi_offset 14, -4
 838:Lib/AI_Runtime/Npu/ll_aton/ll_aton.c ****   // FIXME
 1748              		.loc 1 838 1 view .LVU492
 1749 0002 0546     		mov	r5, r0
 1750 0004 9DF81040 		ldrb	r4, [sp, #16]	@ zero_extendqisi2
 840:Lib/AI_Runtime/Npu/ll_aton/ll_aton.c ****   switch (sut)
 1751              		.loc 1 840 3 view .LVU493
 1752 0008 0846     		mov	r0, r1
 1753              	.LVL157:
 840:Lib/AI_Runtime/Npu/ll_aton/ll_aton.c ****   switch (sut)
 1754              		.loc 1 840 3 view .LVU494
 1755 000a 31B1     		cbz	r1, .L152
 840:Lib/AI_Runtime/Npu/ll_aton/ll_aton.c ****   switch (sut)
 1756              		.loc 1 840 3 discriminator 1 view .LVU495
 1757 000c 4FF45271 		mov	r1, #840
 1758              	.LVL158:
 840:Lib/AI_Runtime/Npu/ll_aton/ll_aton.c ****   switch (sut)
 1759              		.loc 1 840 3 discriminator 1 view .LVU496
 1760 0010 3D4B     		ldr	r3, .L178
 1761              	.LVL159:
 840:Lib/AI_Runtime/Npu/ll_aton/ll_aton.c ****   switch (sut)
 1762              		.loc 1 840 3 discriminator 1 view .LVU497
 1763 0012 3E4A     		ldr	r2, .L178+4
 1764              	.LVL160:
 1765              	.L177:
 848:Lib/AI_Runtime/Npu/ll_aton/ll_aton.c ****       LL_ATON_ASSERT(au_num < ATON_STRENG_NUM);
ARM GAS  C:\Users\DJESSOU\AppData\Local\Temp\ccFxekaC.s 			page 62


 1766              		.loc 1 848 7 discriminator 1 view .LVU498
 1767 0014 3E48     		ldr	r0, .L178+8
 1768 0016 FFF7FEFF 		bl	__assert_func
 1769              	.LVL161:
 1770              	.L152:
 841:Lib/AI_Runtime/Npu/ll_aton/ll_aton.c ****   {
 1771              		.loc 1 841 3 is_stmt 1 view .LVU499
 1772 001a 25B1     		cbz	r5, .L153
 1773 001c 012D     		cmp	r5, #1
 1774 001e 68D0     		beq	.L154
 1775 0020 022D     		cmp	r5, #2
 1776 0022 6BD0     		beq	.L155
 1777              	.LVL162:
 1778              	.L151:
 903:Lib/AI_Runtime/Npu/ll_aton/ll_aton.c **** 
 1779              		.loc 1 903 1 is_stmt 0 view .LVU500
 1780 0024 38BD     		pop	{r3, r4, r5, pc}
 1781              	.LVL163:
 1782              	.L153:
 844:Lib/AI_Runtime/Npu/ll_aton/ll_aton.c ****     {
 1783              		.loc 1 844 5 is_stmt 1 view .LVU501
 1784 0026 062A     		cmp	r2, #6
 1785 0028 5ED8     		bhi	.L157
 1786 002a DFE802F0 		tbb	[pc, r2]
 1787              	.LVL164:
 1788              	.L159:
 1789 002e 04       		.byte	(.L164-.L159)/2
 1790 002f 5D       		.byte	(.L157-.L159)/2
 1791 0030 12       		.byte	(.L163-.L159)/2
 1792 0031 21       		.byte	(.L162-.L159)/2
 1793 0032 30       		.byte	(.L161-.L159)/2
 1794 0033 3F       		.byte	(.L160-.L159)/2
 1795 0034 4E       		.byte	(.L158-.L159)/2
 1796 0035 00       		.p2align 1
 1797              	.L164:
 848:Lib/AI_Runtime/Npu/ll_aton/ll_aton.c ****       LL_ATON_ASSERT(au_num < ATON_STRENG_NUM);
 1798              		.loc 1 848 7 view .LVU502
 1799 0036 24B1     		cbz	r4, .L165
 848:Lib/AI_Runtime/Npu/ll_aton/ll_aton.c ****       LL_ATON_ASSERT(au_num < ATON_STRENG_NUM);
 1800              		.loc 1 848 7 is_stmt 0 discriminator 1 view .LVU503
 1801 0038 4FF45471 		mov	r1, #848
 1802 003c 354B     		ldr	r3, .L178+12
 1803              	.LVL165:
 848:Lib/AI_Runtime/Npu/ll_aton/ll_aton.c ****       LL_ATON_ASSERT(au_num < ATON_STRENG_NUM);
 1804              		.loc 1 848 7 discriminator 1 view .LVU504
 1805 003e 334A     		ldr	r2, .L178+4
 1806              	.LVL166:
 848:Lib/AI_Runtime/Npu/ll_aton/ll_aton.c ****       LL_ATON_ASSERT(au_num < ATON_STRENG_NUM);
 1807              		.loc 1 848 7 discriminator 1 view .LVU505
 1808 0040 E8E7     		b	.L177
 1809              	.LVL167:
 1810              	.L165:
 849:Lib/AI_Runtime/Npu/ll_aton/ll_aton.c ****       return ATONN_CONST_SRCPORT(STRSWITCH, 0, STRENG, 0, 0) + au_num;
 1811              		.loc 1 849 7 is_stmt 1 view .LVU506
 1812 0042 092B     		cmp	r3, #9
 850:Lib/AI_Runtime/Npu/ll_aton/ll_aton.c ****       break;
 1813              		.loc 1 850 62 is_stmt 0 view .LVU507
ARM GAS  C:\Users\DJESSOU\AppData\Local\Temp\ccFxekaC.s 			page 63


 1814 0044 1846     		mov	r0, r3
 1815              	.LVL168:
 849:Lib/AI_Runtime/Npu/ll_aton/ll_aton.c ****       return ATONN_CONST_SRCPORT(STRSWITCH, 0, STRENG, 0, 0) + au_num;
 1816              		.loc 1 849 7 view .LVU508
 1817 0046 EDD9     		bls	.L151
 849:Lib/AI_Runtime/Npu/ll_aton/ll_aton.c ****       return ATONN_CONST_SRCPORT(STRSWITCH, 0, STRENG, 0, 0) + au_num;
 1818              		.loc 1 849 7 discriminator 1 view .LVU509
 1819 0048 40F25131 		movw	r1, #849
 1820 004c 324B     		ldr	r3, .L178+16
 1821              	.LVL169:
 849:Lib/AI_Runtime/Npu/ll_aton/ll_aton.c ****       return ATONN_CONST_SRCPORT(STRSWITCH, 0, STRENG, 0, 0) + au_num;
 1822              		.loc 1 849 7 discriminator 1 view .LVU510
 1823 004e 2F4A     		ldr	r2, .L178+4
 1824              	.LVL170:
 849:Lib/AI_Runtime/Npu/ll_aton/ll_aton.c ****       return ATONN_CONST_SRCPORT(STRSWITCH, 0, STRENG, 0, 0) + au_num;
 1825              		.loc 1 849 7 discriminator 1 view .LVU511
 1826 0050 E0E7     		b	.L177
 1827              	.LVL171:
 1828              	.L163:
 851:Lib/AI_Runtime/Npu/ll_aton/ll_aton.c **** #endif
 1829              		.loc 1 851 7 is_stmt 1 view .LVU512
 855:Lib/AI_Runtime/Npu/ll_aton/ll_aton.c ****       LL_ATON_ASSERT(au_num < ATON_CONVACC_NUM);
 1830              		.loc 1 855 7 view .LVU513
 1831 0052 24B1     		cbz	r4, .L167
 855:Lib/AI_Runtime/Npu/ll_aton/ll_aton.c ****       LL_ATON_ASSERT(au_num < ATON_CONVACC_NUM);
 1832              		.loc 1 855 7 is_stmt 0 discriminator 1 view .LVU514
 1833 0054 40F25731 		movw	r1, #855
 1834 0058 2E4B     		ldr	r3, .L178+12
 1835              	.LVL172:
 855:Lib/AI_Runtime/Npu/ll_aton/ll_aton.c ****       LL_ATON_ASSERT(au_num < ATON_CONVACC_NUM);
 1836              		.loc 1 855 7 discriminator 1 view .LVU515
 1837 005a 2C4A     		ldr	r2, .L178+4
 1838              	.LVL173:
 855:Lib/AI_Runtime/Npu/ll_aton/ll_aton.c ****       LL_ATON_ASSERT(au_num < ATON_CONVACC_NUM);
 1839              		.loc 1 855 7 discriminator 1 view .LVU516
 1840 005c DAE7     		b	.L177
 1841              	.LVL174:
 1842              	.L167:
 856:Lib/AI_Runtime/Npu/ll_aton/ll_aton.c ****       return ATONN_CONST_SRCPORT(STRSWITCH, 0, CONVACC, 0, 0) + au_num;
 1843              		.loc 1 856 7 is_stmt 1 view .LVU517
 1844 005e 032B     		cmp	r3, #3
 857:Lib/AI_Runtime/Npu/ll_aton/ll_aton.c ****       break;
 1845              		.loc 1 857 63 is_stmt 0 view .LVU518
 1846 0060 03F10A00 		add	r0, r3, #10
 856:Lib/AI_Runtime/Npu/ll_aton/ll_aton.c ****       return ATONN_CONST_SRCPORT(STRSWITCH, 0, CONVACC, 0, 0) + au_num;
 1847              		.loc 1 856 7 view .LVU519
 1848 0064 DED9     		bls	.L151
 856:Lib/AI_Runtime/Npu/ll_aton/ll_aton.c ****       return ATONN_CONST_SRCPORT(STRSWITCH, 0, CONVACC, 0, 0) + au_num;
 1849              		.loc 1 856 7 discriminator 1 view .LVU520
 1850 0066 4FF45671 		mov	r1, #856
 1851 006a 2C4B     		ldr	r3, .L178+20
 1852              	.LVL175:
 856:Lib/AI_Runtime/Npu/ll_aton/ll_aton.c ****       return ATONN_CONST_SRCPORT(STRSWITCH, 0, CONVACC, 0, 0) + au_num;
 1853              		.loc 1 856 7 discriminator 1 view .LVU521
 1854 006c 274A     		ldr	r2, .L178+4
 1855              	.LVL176:
 856:Lib/AI_Runtime/Npu/ll_aton/ll_aton.c ****       return ATONN_CONST_SRCPORT(STRSWITCH, 0, CONVACC, 0, 0) + au_num;
ARM GAS  C:\Users\DJESSOU\AppData\Local\Temp\ccFxekaC.s 			page 64


 1856              		.loc 1 856 7 discriminator 1 view .LVU522
 1857 006e D1E7     		b	.L177
 1858              	.LVL177:
 1859              	.L162:
 858:Lib/AI_Runtime/Npu/ll_aton/ll_aton.c **** #endif
 1860              		.loc 1 858 7 is_stmt 1 view .LVU523
 862:Lib/AI_Runtime/Npu/ll_aton/ll_aton.c ****       LL_ATON_ASSERT(au_num < ATON_DECUN_NUM);
 1861              		.loc 1 862 7 view .LVU524
 1862 0070 24B1     		cbz	r4, .L169
 862:Lib/AI_Runtime/Npu/ll_aton/ll_aton.c ****       LL_ATON_ASSERT(au_num < ATON_DECUN_NUM);
 1863              		.loc 1 862 7 is_stmt 0 discriminator 1 view .LVU525
 1864 0072 40F25E31 		movw	r1, #862
 1865 0076 274B     		ldr	r3, .L178+12
 1866              	.LVL178:
 862:Lib/AI_Runtime/Npu/ll_aton/ll_aton.c ****       LL_ATON_ASSERT(au_num < ATON_DECUN_NUM);
 1867              		.loc 1 862 7 discriminator 1 view .LVU526
 1868 0078 244A     		ldr	r2, .L178+4
 1869              	.LVL179:
 862:Lib/AI_Runtime/Npu/ll_aton/ll_aton.c ****       LL_ATON_ASSERT(au_num < ATON_DECUN_NUM);
 1870              		.loc 1 862 7 discriminator 1 view .LVU527
 1871 007a CBE7     		b	.L177
 1872              	.LVL180:
 1873              	.L169:
 863:Lib/AI_Runtime/Npu/ll_aton/ll_aton.c ****       return ATONN_CONST_SRCPORT(STRSWITCH, 0, DECUN, 0, 0) + au_num;
 1874              		.loc 1 863 7 is_stmt 1 view .LVU528
 1875 007c 012B     		cmp	r3, #1
 864:Lib/AI_Runtime/Npu/ll_aton/ll_aton.c ****       break;
 1876              		.loc 1 864 61 is_stmt 0 view .LVU529
 1877 007e 03F10E00 		add	r0, r3, #14
 863:Lib/AI_Runtime/Npu/ll_aton/ll_aton.c ****       return ATONN_CONST_SRCPORT(STRSWITCH, 0, DECUN, 0, 0) + au_num;
 1878              		.loc 1 863 7 view .LVU530
 1879 0082 CFD9     		bls	.L151
 863:Lib/AI_Runtime/Npu/ll_aton/ll_aton.c ****       return ATONN_CONST_SRCPORT(STRSWITCH, 0, DECUN, 0, 0) + au_num;
 1880              		.loc 1 863 7 discriminator 1 view .LVU531
 1881 0084 40F25F31 		movw	r1, #863
 1882 0088 254B     		ldr	r3, .L178+24
 1883              	.LVL181:
 863:Lib/AI_Runtime/Npu/ll_aton/ll_aton.c ****       return ATONN_CONST_SRCPORT(STRSWITCH, 0, DECUN, 0, 0) + au_num;
 1884              		.loc 1 863 7 discriminator 1 view .LVU532
 1885 008a 204A     		ldr	r2, .L178+4
 1886              	.LVL182:
 863:Lib/AI_Runtime/Npu/ll_aton/ll_aton.c ****       return ATONN_CONST_SRCPORT(STRSWITCH, 0, DECUN, 0, 0) + au_num;
 1887              		.loc 1 863 7 discriminator 1 view .LVU533
 1888 008c C2E7     		b	.L177
 1889              	.LVL183:
 1890              	.L161:
 865:Lib/AI_Runtime/Npu/ll_aton/ll_aton.c **** #endif
 1891              		.loc 1 865 7 is_stmt 1 view .LVU534
 869:Lib/AI_Runtime/Npu/ll_aton/ll_aton.c ****       LL_ATON_ASSERT(au_num < ATON_ACTIV_NUM);
 1892              		.loc 1 869 7 view .LVU535
 1893 008e 24B1     		cbz	r4, .L171
 869:Lib/AI_Runtime/Npu/ll_aton/ll_aton.c ****       LL_ATON_ASSERT(au_num < ATON_ACTIV_NUM);
 1894              		.loc 1 869 7 is_stmt 0 discriminator 1 view .LVU536
 1895 0090 40F26531 		movw	r1, #869
 1896 0094 1F4B     		ldr	r3, .L178+12
 1897              	.LVL184:
 869:Lib/AI_Runtime/Npu/ll_aton/ll_aton.c ****       LL_ATON_ASSERT(au_num < ATON_ACTIV_NUM);
ARM GAS  C:\Users\DJESSOU\AppData\Local\Temp\ccFxekaC.s 			page 65


 1898              		.loc 1 869 7 discriminator 1 view .LVU537
 1899 0096 1D4A     		ldr	r2, .L178+4
 1900              	.LVL185:
 869:Lib/AI_Runtime/Npu/ll_aton/ll_aton.c ****       LL_ATON_ASSERT(au_num < ATON_ACTIV_NUM);
 1901              		.loc 1 869 7 discriminator 1 view .LVU538
 1902 0098 BCE7     		b	.L177
 1903              	.LVL186:
 1904              	.L171:
 870:Lib/AI_Runtime/Npu/ll_aton/ll_aton.c ****       return ATONN_CONST_SRCPORT(STRSWITCH, 0, ACTIV, 0, 0) + au_num;
 1905              		.loc 1 870 7 is_stmt 1 view .LVU539
 1906 009a 012B     		cmp	r3, #1
 871:Lib/AI_Runtime/Npu/ll_aton/ll_aton.c ****       break;
 1907              		.loc 1 871 61 is_stmt 0 view .LVU540
 1908 009c 03F11000 		add	r0, r3, #16
 870:Lib/AI_Runtime/Npu/ll_aton/ll_aton.c ****       return ATONN_CONST_SRCPORT(STRSWITCH, 0, ACTIV, 0, 0) + au_num;
 1909              		.loc 1 870 7 view .LVU541
 1910 00a0 C0D9     		bls	.L151
 870:Lib/AI_Runtime/Npu/ll_aton/ll_aton.c ****       return ATONN_CONST_SRCPORT(STRSWITCH, 0, ACTIV, 0, 0) + au_num;
 1911              		.loc 1 870 7 discriminator 1 view .LVU542
 1912 00a2 40F26631 		movw	r1, #870
 1913 00a6 1E4B     		ldr	r3, .L178+24
 1914              	.LVL187:
 870:Lib/AI_Runtime/Npu/ll_aton/ll_aton.c ****       return ATONN_CONST_SRCPORT(STRSWITCH, 0, ACTIV, 0, 0) + au_num;
 1915              		.loc 1 870 7 discriminator 1 view .LVU543
 1916 00a8 184A     		ldr	r2, .L178+4
 1917              	.LVL188:
 870:Lib/AI_Runtime/Npu/ll_aton/ll_aton.c ****       return ATONN_CONST_SRCPORT(STRSWITCH, 0, ACTIV, 0, 0) + au_num;
 1918              		.loc 1 870 7 discriminator 1 view .LVU544
 1919 00aa B3E7     		b	.L177
 1920              	.LVL189:
 1921              	.L160:
 872:Lib/AI_Runtime/Npu/ll_aton/ll_aton.c **** #endif
 1922              		.loc 1 872 7 is_stmt 1 view .LVU545
 876:Lib/AI_Runtime/Npu/ll_aton/ll_aton.c ****       LL_ATON_ASSERT(au_num < ATON_ARITH_NUM);
 1923              		.loc 1 876 7 view .LVU546
 1924 00ac 24B1     		cbz	r4, .L173
 876:Lib/AI_Runtime/Npu/ll_aton/ll_aton.c ****       LL_ATON_ASSERT(au_num < ATON_ARITH_NUM);
 1925              		.loc 1 876 7 is_stmt 0 discriminator 1 view .LVU547
 1926 00ae 4FF45B71 		mov	r1, #876
 1927 00b2 184B     		ldr	r3, .L178+12
 1928              	.LVL190:
 876:Lib/AI_Runtime/Npu/ll_aton/ll_aton.c ****       LL_ATON_ASSERT(au_num < ATON_ARITH_NUM);
 1929              		.loc 1 876 7 discriminator 1 view .LVU548
 1930 00b4 154A     		ldr	r2, .L178+4
 1931              	.LVL191:
 876:Lib/AI_Runtime/Npu/ll_aton/ll_aton.c ****       LL_ATON_ASSERT(au_num < ATON_ARITH_NUM);
 1932              		.loc 1 876 7 discriminator 1 view .LVU549
 1933 00b6 ADE7     		b	.L177
 1934              	.LVL192:
 1935              	.L173:
 877:Lib/AI_Runtime/Npu/ll_aton/ll_aton.c ****       return ATONN_CONST_SRCPORT(STRSWITCH, 0, ARITH, 0, 0) + au_num;
 1936              		.loc 1 877 7 is_stmt 1 view .LVU550
 1937 00b8 032B     		cmp	r3, #3
 878:Lib/AI_Runtime/Npu/ll_aton/ll_aton.c ****       break;
 1938              		.loc 1 878 61 is_stmt 0 view .LVU551
 1939 00ba 03F11200 		add	r0, r3, #18
 877:Lib/AI_Runtime/Npu/ll_aton/ll_aton.c ****       return ATONN_CONST_SRCPORT(STRSWITCH, 0, ARITH, 0, 0) + au_num;
ARM GAS  C:\Users\DJESSOU\AppData\Local\Temp\ccFxekaC.s 			page 66


 1940              		.loc 1 877 7 view .LVU552
 1941 00be B1D9     		bls	.L151
 877:Lib/AI_Runtime/Npu/ll_aton/ll_aton.c ****       return ATONN_CONST_SRCPORT(STRSWITCH, 0, ARITH, 0, 0) + au_num;
 1942              		.loc 1 877 7 discriminator 1 view .LVU553
 1943 00c0 40F26D31 		movw	r1, #877
 1944 00c4 154B     		ldr	r3, .L178+20
 1945              	.LVL193:
 877:Lib/AI_Runtime/Npu/ll_aton/ll_aton.c ****       return ATONN_CONST_SRCPORT(STRSWITCH, 0, ARITH, 0, 0) + au_num;
 1946              		.loc 1 877 7 discriminator 1 view .LVU554
 1947 00c6 114A     		ldr	r2, .L178+4
 1948              	.LVL194:
 877:Lib/AI_Runtime/Npu/ll_aton/ll_aton.c ****       return ATONN_CONST_SRCPORT(STRSWITCH, 0, ARITH, 0, 0) + au_num;
 1949              		.loc 1 877 7 discriminator 1 view .LVU555
 1950 00c8 A4E7     		b	.L177
 1951              	.LVL195:
 1952              	.L158:
 879:Lib/AI_Runtime/Npu/ll_aton/ll_aton.c **** #endif
 1953              		.loc 1 879 7 is_stmt 1 view .LVU556
 883:Lib/AI_Runtime/Npu/ll_aton/ll_aton.c ****       LL_ATON_ASSERT(au_num < ATON_POOL_NUM);
 1954              		.loc 1 883 7 view .LVU557
 1955 00ca 24B1     		cbz	r4, .L175
 883:Lib/AI_Runtime/Npu/ll_aton/ll_aton.c ****       LL_ATON_ASSERT(au_num < ATON_POOL_NUM);
 1956              		.loc 1 883 7 is_stmt 0 discriminator 1 view .LVU558
 1957 00cc 40F27331 		movw	r1, #883
 1958 00d0 104B     		ldr	r3, .L178+12
 1959              	.LVL196:
 883:Lib/AI_Runtime/Npu/ll_aton/ll_aton.c ****       LL_ATON_ASSERT(au_num < ATON_POOL_NUM);
 1960              		.loc 1 883 7 discriminator 1 view .LVU559
 1961 00d2 0E4A     		ldr	r2, .L178+4
 1962              	.LVL197:
 883:Lib/AI_Runtime/Npu/ll_aton/ll_aton.c ****       LL_ATON_ASSERT(au_num < ATON_POOL_NUM);
 1963              		.loc 1 883 7 discriminator 1 view .LVU560
 1964 00d4 9EE7     		b	.L177
 1965              	.LVL198:
 1966              	.L175:
 884:Lib/AI_Runtime/Npu/ll_aton/ll_aton.c ****       return ATONN_CONST_SRCPORT(STRSWITCH, 0, POOL, 0, 0) + au_num;
 1967              		.loc 1 884 7 is_stmt 1 view .LVU561
 1968 00d6 012B     		cmp	r3, #1
 885:Lib/AI_Runtime/Npu/ll_aton/ll_aton.c ****       break;
 1969              		.loc 1 885 60 is_stmt 0 view .LVU562
 1970 00d8 03F11600 		add	r0, r3, #22
 884:Lib/AI_Runtime/Npu/ll_aton/ll_aton.c ****       return ATONN_CONST_SRCPORT(STRSWITCH, 0, POOL, 0, 0) + au_num;
 1971              		.loc 1 884 7 view .LVU563
 1972 00dc A2D9     		bls	.L151
 884:Lib/AI_Runtime/Npu/ll_aton/ll_aton.c ****       return ATONN_CONST_SRCPORT(STRSWITCH, 0, POOL, 0, 0) + au_num;
 1973              		.loc 1 884 7 discriminator 1 view .LVU564
 1974 00de 4FF45D71 		mov	r1, #884
 1975 00e2 0F4B     		ldr	r3, .L178+24
 1976              	.LVL199:
 884:Lib/AI_Runtime/Npu/ll_aton/ll_aton.c ****       return ATONN_CONST_SRCPORT(STRSWITCH, 0, POOL, 0, 0) + au_num;
 1977              		.loc 1 884 7 discriminator 1 view .LVU565
 1978 00e4 094A     		ldr	r2, .L178+4
 1979              	.LVL200:
 884:Lib/AI_Runtime/Npu/ll_aton/ll_aton.c ****       return ATONN_CONST_SRCPORT(STRSWITCH, 0, POOL, 0, 0) + au_num;
 1980              		.loc 1 884 7 discriminator 1 view .LVU566
 1981 00e6 95E7     		b	.L177
 1982              	.LVL201:
ARM GAS  C:\Users\DJESSOU\AppData\Local\Temp\ccFxekaC.s 			page 67


 1983              	.L157:
 886:Lib/AI_Runtime/Npu/ll_aton/ll_aton.c **** #endif
 1984              		.loc 1 886 7 is_stmt 1 view .LVU567
 889:Lib/AI_Runtime/Npu/ll_aton/ll_aton.c ****       break;
 1985              		.loc 1 889 7 view .LVU568
 1986 00e8 40F27931 		movw	r1, #889
 1987 00ec 0D4B     		ldr	r3, .L178+28
 1988              	.LVL202:
 889:Lib/AI_Runtime/Npu/ll_aton/ll_aton.c ****       break;
 1989              		.loc 1 889 7 is_stmt 0 view .LVU569
 1990 00ee 074A     		ldr	r2, .L178+4
 1991              	.LVL203:
 889:Lib/AI_Runtime/Npu/ll_aton/ll_aton.c ****       break;
 1992              		.loc 1 889 7 view .LVU570
 1993 00f0 90E7     		b	.L177
 1994              	.LVL204:
 1995              	.L154:
 895:Lib/AI_Runtime/Npu/ll_aton/ll_aton.c ****     break;
 1996              		.loc 1 895 5 is_stmt 1 view .LVU571
 1997 00f2 40F27F31 		movw	r1, #895
 1998              	.LVL205:
 895:Lib/AI_Runtime/Npu/ll_aton/ll_aton.c ****     break;
 1999              		.loc 1 895 5 is_stmt 0 view .LVU572
 2000 00f6 0B4B     		ldr	r3, .L178+28
 2001              	.LVL206:
 895:Lib/AI_Runtime/Npu/ll_aton/ll_aton.c ****     break;
 2002              		.loc 1 895 5 view .LVU573
 2003 00f8 044A     		ldr	r2, .L178+4
 2004              	.LVL207:
 895:Lib/AI_Runtime/Npu/ll_aton/ll_aton.c ****     break;
 2005              		.loc 1 895 5 view .LVU574
 2006 00fa 8BE7     		b	.L177
 2007              	.LVL208:
 2008              	.L155:
 896:Lib/AI_Runtime/Npu/ll_aton/ll_aton.c ****   case STRSWITCH_VC:
 2009              		.loc 1 896 5 is_stmt 1 view .LVU575
 899:Lib/AI_Runtime/Npu/ll_aton/ll_aton.c ****     break;
 2010              		.loc 1 899 5 view .LVU576
 2011 00fc 40F28331 		movw	r1, #899
 2012              	.LVL209:
 899:Lib/AI_Runtime/Npu/ll_aton/ll_aton.c ****     break;
 2013              		.loc 1 899 5 is_stmt 0 view .LVU577
 2014 0100 084B     		ldr	r3, .L178+28
 2015              	.LVL210:
 899:Lib/AI_Runtime/Npu/ll_aton/ll_aton.c ****     break;
 2016              		.loc 1 899 5 view .LVU578
 2017 0102 024A     		ldr	r2, .L178+4
 2018              	.LVL211:
 899:Lib/AI_Runtime/Npu/ll_aton/ll_aton.c ****     break;
 2019              		.loc 1 899 5 view .LVU579
 2020 0104 86E7     		b	.L177
 2021              	.L179:
 2022 0106 00BF     		.align	2
 2023              	.L178:
 2024 0108 00000000 		.word	.LC20
 2025 010c 00000000 		.word	__func__.7
 2026 0110 05000000 		.word	.LC4
ARM GAS  C:\Users\DJESSOU\AppData\Local\Temp\ccFxekaC.s 			page 68


 2027 0114 0C000000 		.word	.LC21
 2028 0118 16000000 		.word	.LC22
 2029 011c 22000000 		.word	.LC23
 2030 0120 2D000000 		.word	.LC24
 2031 0124 95000000 		.word	.LC7
 2032              		.cfi_endproc
 2033              	.LFE296:
 2035              		.section	.rodata.__atonn_getDstPortID.str1.1,"aMS",%progbits,1
 2036              	.LC25:
 2037 0000 706F7274 		.ascii	"port < 3\000"
 2037      203C2033 
 2037      00
 2038              	.LC26:
 2039 0009 706F7274 		.ascii	"port < 2\000"
 2039      203C2032 
 2039      00
 2040              		.section	.text.__atonn_getDstPortID,"ax",%progbits
 2041              		.align	1
 2042              		.global	__atonn_getDstPortID
 2043              		.syntax unified
 2044              		.thumb
 2045              		.thumb_func
 2047              	__atonn_getDstPortID:
 2048              	.LVL212:
 2049              	.LFB297:
 907:Lib/AI_Runtime/Npu/ll_aton/ll_aton.c ****   // FIXME
 2050              		.loc 1 907 1 is_stmt 1 view -0
 2051              		.cfi_startproc
 2052              		@ args = 4, pretend = 0, frame = 0
 2053              		@ frame_needed = 0, uses_anonymous_args = 0
 909:Lib/AI_Runtime/Npu/ll_aton/ll_aton.c ****   switch (sut)
 2054              		.loc 1 909 3 view .LVU581
 907:Lib/AI_Runtime/Npu/ll_aton/ll_aton.c ****   // FIXME
 2055              		.loc 1 907 1 is_stmt 0 view .LVU582
 2056 0000 38B5     		push	{r3, r4, r5, lr}
 2057              		.cfi_def_cfa_offset 16
 2058              		.cfi_offset 3, -16
 2059              		.cfi_offset 4, -12
 2060              		.cfi_offset 5, -8
 2061              		.cfi_offset 14, -4
 907:Lib/AI_Runtime/Npu/ll_aton/ll_aton.c ****   // FIXME
 2062              		.loc 1 907 1 view .LVU583
 2063 0002 0546     		mov	r5, r0
 2064 0004 9DF81040 		ldrb	r4, [sp, #16]	@ zero_extendqisi2
 909:Lib/AI_Runtime/Npu/ll_aton/ll_aton.c ****   switch (sut)
 2065              		.loc 1 909 3 view .LVU584
 2066 0008 0846     		mov	r0, r1
 2067              	.LVL213:
 909:Lib/AI_Runtime/Npu/ll_aton/ll_aton.c ****   switch (sut)
 2068              		.loc 1 909 3 view .LVU585
 2069 000a 31B1     		cbz	r1, .L181
 909:Lib/AI_Runtime/Npu/ll_aton/ll_aton.c ****   switch (sut)
 2070              		.loc 1 909 3 discriminator 1 view .LVU586
 2071 000c 40F28D31 		movw	r1, #909
 2072              	.LVL214:
 909:Lib/AI_Runtime/Npu/ll_aton/ll_aton.c ****   switch (sut)
 2073              		.loc 1 909 3 discriminator 1 view .LVU587
ARM GAS  C:\Users\DJESSOU\AppData\Local\Temp\ccFxekaC.s 			page 69


 2074 0010 464B     		ldr	r3, .L208
 2075              	.LVL215:
 909:Lib/AI_Runtime/Npu/ll_aton/ll_aton.c ****   switch (sut)
 2076              		.loc 1 909 3 discriminator 1 view .LVU588
 2077 0012 474A     		ldr	r2, .L208+4
 2078              	.LVL216:
 2079              	.L207:
 917:Lib/AI_Runtime/Npu/ll_aton/ll_aton.c ****       LL_ATON_ASSERT(au_num < ATON_STRENG_NUM);
 2080              		.loc 1 917 7 discriminator 1 view .LVU589
 2081 0014 4748     		ldr	r0, .L208+8
 2082              	.LVL217:
 917:Lib/AI_Runtime/Npu/ll_aton/ll_aton.c ****       LL_ATON_ASSERT(au_num < ATON_STRENG_NUM);
 2083              		.loc 1 917 7 discriminator 1 view .LVU590
 2084 0016 FFF7FEFF 		bl	__assert_func
 2085              	.LVL218:
 2086              	.L181:
 910:Lib/AI_Runtime/Npu/ll_aton/ll_aton.c ****   {
 2087              		.loc 1 910 3 is_stmt 1 view .LVU591
 2088 001a 25B1     		cbz	r5, .L182
 2089 001c 012D     		cmp	r5, #1
 2090 001e 7AD0     		beq	.L183
 2091 0020 022D     		cmp	r5, #2
 2092 0022 7DD0     		beq	.L184
 2093              	.LVL219:
 2094              	.L180:
 972:Lib/AI_Runtime/Npu/ll_aton/ll_aton.c **** 
 2095              		.loc 1 972 1 is_stmt 0 view .LVU592
 2096 0024 38BD     		pop	{r3, r4, r5, pc}
 2097              	.LVL220:
 2098              	.L182:
 913:Lib/AI_Runtime/Npu/ll_aton/ll_aton.c ****     {
 2099              		.loc 1 913 5 is_stmt 1 view .LVU593
 2100 0026 062A     		cmp	r2, #6
 2101 0028 70D8     		bhi	.L186
 2102 002a DFE802F0 		tbb	[pc, r2]
 2103              	.LVL221:
 2104              	.L188:
 2105 002e 04       		.byte	(.L193-.L188)/2
 2106 002f 6F       		.byte	(.L186-.L188)/2
 2107 0030 15       		.byte	(.L192-.L188)/2
 2108 0031 29       		.byte	(.L191-.L188)/2
 2109 0032 3D       		.byte	(.L190-.L188)/2
 2110 0033 4C       		.byte	(.L189-.L188)/2
 2111 0034 60       		.byte	(.L187-.L188)/2
 2112 0035 00       		.p2align 1
 2113              	.L193:
 917:Lib/AI_Runtime/Npu/ll_aton/ll_aton.c ****       LL_ATON_ASSERT(au_num < ATON_STRENG_NUM);
 2114              		.loc 1 917 7 view .LVU594
 2115 0036 24B1     		cbz	r4, .L194
 917:Lib/AI_Runtime/Npu/ll_aton/ll_aton.c ****       LL_ATON_ASSERT(au_num < ATON_STRENG_NUM);
 2116              		.loc 1 917 7 is_stmt 0 discriminator 1 view .LVU595
 2117 0038 40F29531 		movw	r1, #917
 2118 003c 3E4B     		ldr	r3, .L208+12
 2119              	.LVL222:
 917:Lib/AI_Runtime/Npu/ll_aton/ll_aton.c ****       LL_ATON_ASSERT(au_num < ATON_STRENG_NUM);
 2120              		.loc 1 917 7 discriminator 1 view .LVU596
 2121 003e 3C4A     		ldr	r2, .L208+4
ARM GAS  C:\Users\DJESSOU\AppData\Local\Temp\ccFxekaC.s 			page 70


 2122              	.LVL223:
 917:Lib/AI_Runtime/Npu/ll_aton/ll_aton.c ****       LL_ATON_ASSERT(au_num < ATON_STRENG_NUM);
 2123              		.loc 1 917 7 discriminator 1 view .LVU597
 2124 0040 E8E7     		b	.L207
 2125              	.LVL224:
 2126              	.L194:
 918:Lib/AI_Runtime/Npu/ll_aton/ll_aton.c ****       return ATONN_CONST_DSTPORT(STRSWITCH, 0, STRENG, 0, 0) + (0x4 * au_num);
 2127              		.loc 1 918 7 is_stmt 1 view .LVU598
 2128 0042 092B     		cmp	r3, #9
 2129 0044 04D9     		bls	.L195
 918:Lib/AI_Runtime/Npu/ll_aton/ll_aton.c ****       return ATONN_CONST_DSTPORT(STRSWITCH, 0, STRENG, 0, 0) + (0x4 * au_num);
 2130              		.loc 1 918 7 is_stmt 0 discriminator 1 view .LVU599
 2131 0046 40F29631 		movw	r1, #918
 2132 004a 3C4B     		ldr	r3, .L208+16
 2133              	.LVL225:
 918:Lib/AI_Runtime/Npu/ll_aton/ll_aton.c ****       return ATONN_CONST_DSTPORT(STRSWITCH, 0, STRENG, 0, 0) + (0x4 * au_num);
 2134              		.loc 1 918 7 discriminator 1 view .LVU600
 2135 004c 384A     		ldr	r2, .L208+4
 2136              	.LVL226:
 918:Lib/AI_Runtime/Npu/ll_aton/ll_aton.c ****       return ATONN_CONST_DSTPORT(STRSWITCH, 0, STRENG, 0, 0) + (0x4 * au_num);
 2137              		.loc 1 918 7 discriminator 1 view .LVU601
 2138 004e E1E7     		b	.L207
 2139              	.LVL227:
 2140              	.L195:
 919:Lib/AI_Runtime/Npu/ll_aton/ll_aton.c ****       break;
 2141              		.loc 1 919 7 is_stmt 1 view .LVU602
 919:Lib/AI_Runtime/Npu/ll_aton/ll_aton.c ****       break;
 2142              		.loc 1 919 62 is_stmt 0 view .LVU603
 2143 0050 0820     		movs	r0, #8
 2144              	.LVL228:
 2145              	.L206:
 954:Lib/AI_Runtime/Npu/ll_aton/ll_aton.c ****       break;
 2146              		.loc 1 954 60 view .LVU604
 2147 0052 00EB8300 		add	r0, r0, r3, lsl #2
 2148 0056 E5E7     		b	.L180
 2149              	.L192:
 920:Lib/AI_Runtime/Npu/ll_aton/ll_aton.c **** #endif
 2150              		.loc 1 920 7 is_stmt 1 view .LVU605
 924:Lib/AI_Runtime/Npu/ll_aton/ll_aton.c ****       LL_ATON_ASSERT(au_num < ATON_CONVACC_NUM);
 2151              		.loc 1 924 7 view .LVU606
 2152 0058 022C     		cmp	r4, #2
 2153 005a 04D9     		bls	.L196
 924:Lib/AI_Runtime/Npu/ll_aton/ll_aton.c ****       LL_ATON_ASSERT(au_num < ATON_CONVACC_NUM);
 2154              		.loc 1 924 7 is_stmt 0 discriminator 1 view .LVU607
 2155 005c 4FF46771 		mov	r1, #924
 2156 0060 374B     		ldr	r3, .L208+20
 2157              	.LVL229:
 924:Lib/AI_Runtime/Npu/ll_aton/ll_aton.c ****       LL_ATON_ASSERT(au_num < ATON_CONVACC_NUM);
 2158              		.loc 1 924 7 discriminator 1 view .LVU608
 2159 0062 334A     		ldr	r2, .L208+4
 2160              	.LVL230:
 924:Lib/AI_Runtime/Npu/ll_aton/ll_aton.c ****       LL_ATON_ASSERT(au_num < ATON_CONVACC_NUM);
 2161              		.loc 1 924 7 discriminator 1 view .LVU609
 2162 0064 D6E7     		b	.L207
 2163              	.LVL231:
 2164              	.L196:
 925:Lib/AI_Runtime/Npu/ll_aton/ll_aton.c ****       return ATONN_CONST_DSTPORT(STRSWITCH, 0, CONVACC, 0, 0) + (0x4 * (3 * au_num + port));
ARM GAS  C:\Users\DJESSOU\AppData\Local\Temp\ccFxekaC.s 			page 71


 2165              		.loc 1 925 7 is_stmt 1 view .LVU610
 2166 0066 032B     		cmp	r3, #3
 2167 0068 04D9     		bls	.L197
 925:Lib/AI_Runtime/Npu/ll_aton/ll_aton.c ****       return ATONN_CONST_DSTPORT(STRSWITCH, 0, CONVACC, 0, 0) + (0x4 * (3 * au_num + port));
 2168              		.loc 1 925 7 is_stmt 0 discriminator 1 view .LVU611
 2169 006a 40F29D31 		movw	r1, #925
 2170 006e 354B     		ldr	r3, .L208+24
 2171              	.LVL232:
 925:Lib/AI_Runtime/Npu/ll_aton/ll_aton.c ****       return ATONN_CONST_DSTPORT(STRSWITCH, 0, CONVACC, 0, 0) + (0x4 * (3 * au_num + port));
 2172              		.loc 1 925 7 discriminator 1 view .LVU612
 2173 0070 2F4A     		ldr	r2, .L208+4
 2174              	.LVL233:
 925:Lib/AI_Runtime/Npu/ll_aton/ll_aton.c ****       return ATONN_CONST_DSTPORT(STRSWITCH, 0, CONVACC, 0, 0) + (0x4 * (3 * au_num + port));
 2175              		.loc 1 925 7 discriminator 1 view .LVU613
 2176 0072 CFE7     		b	.L207
 2177              	.LVL234:
 2178              	.L197:
 926:Lib/AI_Runtime/Npu/ll_aton/ll_aton.c ****       break;
 2179              		.loc 1 926 7 is_stmt 1 view .LVU614
 926:Lib/AI_Runtime/Npu/ll_aton/ll_aton.c ****       break;
 2180              		.loc 1 926 84 is_stmt 0 view .LVU615
 2181 0074 0320     		movs	r0, #3
 2182 0076 10FB0340 		smlabb	r0, r0, r3, r4
 926:Lib/AI_Runtime/Npu/ll_aton/ll_aton.c ****       break;
 2183              		.loc 1 926 70 view .LVU616
 2184 007a 8000     		lsls	r0, r0, #2
 926:Lib/AI_Runtime/Npu/ll_aton/ll_aton.c ****       break;
 2185              		.loc 1 926 63 view .LVU617
 2186 007c 3030     		adds	r0, r0, #48
 2187 007e D1E7     		b	.L180
 2188              	.L191:
 927:Lib/AI_Runtime/Npu/ll_aton/ll_aton.c **** #endif
 2189              		.loc 1 927 7 is_stmt 1 view .LVU618
 931:Lib/AI_Runtime/Npu/ll_aton/ll_aton.c ****       LL_ATON_ASSERT(au_num < ATON_DECUN_NUM);
 2190              		.loc 1 931 7 view .LVU619
 2191 0080 012C     		cmp	r4, #1
 2192 0082 04D9     		bls	.L198
 931:Lib/AI_Runtime/Npu/ll_aton/ll_aton.c ****       LL_ATON_ASSERT(au_num < ATON_DECUN_NUM);
 2193              		.loc 1 931 7 is_stmt 0 discriminator 1 view .LVU620
 2194 0084 40F2A331 		movw	r1, #931
 2195 0088 2F4B     		ldr	r3, .L208+28
 2196              	.LVL235:
 931:Lib/AI_Runtime/Npu/ll_aton/ll_aton.c ****       LL_ATON_ASSERT(au_num < ATON_DECUN_NUM);
 2197              		.loc 1 931 7 discriminator 1 view .LVU621
 2198 008a 294A     		ldr	r2, .L208+4
 2199              	.LVL236:
 931:Lib/AI_Runtime/Npu/ll_aton/ll_aton.c ****       LL_ATON_ASSERT(au_num < ATON_DECUN_NUM);
 2200              		.loc 1 931 7 discriminator 1 view .LVU622
 2201 008c C2E7     		b	.L207
 2202              	.LVL237:
 2203              	.L198:
 932:Lib/AI_Runtime/Npu/ll_aton/ll_aton.c ****       return ATONN_CONST_DSTPORT(STRSWITCH, 0, DECUN, 0, 0) + (0x4 * (2 * au_num + port));
 2204              		.loc 1 932 7 is_stmt 1 view .LVU623
 2205 008e 012B     		cmp	r3, #1
 2206 0090 04D9     		bls	.L199
 932:Lib/AI_Runtime/Npu/ll_aton/ll_aton.c ****       return ATONN_CONST_DSTPORT(STRSWITCH, 0, DECUN, 0, 0) + (0x4 * (2 * au_num + port));
 2207              		.loc 1 932 7 is_stmt 0 discriminator 1 view .LVU624
ARM GAS  C:\Users\DJESSOU\AppData\Local\Temp\ccFxekaC.s 			page 72


 2208 0092 4FF46971 		mov	r1, #932
 2209 0096 2D4B     		ldr	r3, .L208+32
 2210              	.LVL238:
 932:Lib/AI_Runtime/Npu/ll_aton/ll_aton.c ****       return ATONN_CONST_DSTPORT(STRSWITCH, 0, DECUN, 0, 0) + (0x4 * (2 * au_num + port));
 2211              		.loc 1 932 7 discriminator 1 view .LVU625
 2212 0098 254A     		ldr	r2, .L208+4
 2213              	.LVL239:
 932:Lib/AI_Runtime/Npu/ll_aton/ll_aton.c ****       return ATONN_CONST_DSTPORT(STRSWITCH, 0, DECUN, 0, 0) + (0x4 * (2 * au_num + port));
 2214              		.loc 1 932 7 discriminator 1 view .LVU626
 2215 009a BBE7     		b	.L207
 2216              	.LVL240:
 2217              	.L199:
 933:Lib/AI_Runtime/Npu/ll_aton/ll_aton.c ****       break;
 2218              		.loc 1 933 7 is_stmt 1 view .LVU627
 933:Lib/AI_Runtime/Npu/ll_aton/ll_aton.c ****       break;
 2219              		.loc 1 933 82 is_stmt 0 view .LVU628
 2220 009c 04EB4304 		add	r4, r4, r3, lsl #1
 933:Lib/AI_Runtime/Npu/ll_aton/ll_aton.c ****       break;
 2221              		.loc 1 933 68 view .LVU629
 2222 00a0 A400     		lsls	r4, r4, #2
 933:Lib/AI_Runtime/Npu/ll_aton/ll_aton.c ****       break;
 2223              		.loc 1 933 61 view .LVU630
 2224 00a2 04F16000 		add	r0, r4, #96
 2225 00a6 BDE7     		b	.L180
 2226              	.L190:
 934:Lib/AI_Runtime/Npu/ll_aton/ll_aton.c **** #endif
 2227              		.loc 1 934 7 is_stmt 1 view .LVU631
 938:Lib/AI_Runtime/Npu/ll_aton/ll_aton.c ****       LL_ATON_ASSERT(au_num < ATON_ACTIV_NUM);
 2228              		.loc 1 938 7 view .LVU632
 2229 00a8 24B1     		cbz	r4, .L200
 938:Lib/AI_Runtime/Npu/ll_aton/ll_aton.c ****       LL_ATON_ASSERT(au_num < ATON_ACTIV_NUM);
 2230              		.loc 1 938 7 is_stmt 0 discriminator 1 view .LVU633
 2231 00aa 40F2AA31 		movw	r1, #938
 2232 00ae 224B     		ldr	r3, .L208+12
 2233              	.LVL241:
 938:Lib/AI_Runtime/Npu/ll_aton/ll_aton.c ****       LL_ATON_ASSERT(au_num < ATON_ACTIV_NUM);
 2234              		.loc 1 938 7 discriminator 1 view .LVU634
 2235 00b0 1F4A     		ldr	r2, .L208+4
 2236              	.LVL242:
 938:Lib/AI_Runtime/Npu/ll_aton/ll_aton.c ****       LL_ATON_ASSERT(au_num < ATON_ACTIV_NUM);
 2237              		.loc 1 938 7 discriminator 1 view .LVU635
 2238 00b2 AFE7     		b	.L207
 2239              	.LVL243:
 2240              	.L200:
 939:Lib/AI_Runtime/Npu/ll_aton/ll_aton.c ****       return ATONN_CONST_DSTPORT(STRSWITCH, 0, ACTIV, 0, 0) + (0x4 * au_num);
 2241              		.loc 1 939 7 is_stmt 1 view .LVU636
 2242 00b4 012B     		cmp	r3, #1
 2243 00b6 04D9     		bls	.L201
 939:Lib/AI_Runtime/Npu/ll_aton/ll_aton.c ****       return ATONN_CONST_DSTPORT(STRSWITCH, 0, ACTIV, 0, 0) + (0x4 * au_num);
 2244              		.loc 1 939 7 is_stmt 0 discriminator 1 view .LVU637
 2245 00b8 40F2AB31 		movw	r1, #939
 2246 00bc 234B     		ldr	r3, .L208+32
 2247              	.LVL244:
 939:Lib/AI_Runtime/Npu/ll_aton/ll_aton.c ****       return ATONN_CONST_DSTPORT(STRSWITCH, 0, ACTIV, 0, 0) + (0x4 * au_num);
 2248              		.loc 1 939 7 discriminator 1 view .LVU638
 2249 00be 1C4A     		ldr	r2, .L208+4
 2250              	.LVL245:
ARM GAS  C:\Users\DJESSOU\AppData\Local\Temp\ccFxekaC.s 			page 73


 939:Lib/AI_Runtime/Npu/ll_aton/ll_aton.c ****       return ATONN_CONST_DSTPORT(STRSWITCH, 0, ACTIV, 0, 0) + (0x4 * au_num);
 2251              		.loc 1 939 7 discriminator 1 view .LVU639
 2252 00c0 A8E7     		b	.L207
 2253              	.LVL246:
 2254              	.L201:
 940:Lib/AI_Runtime/Npu/ll_aton/ll_aton.c ****       break;
 2255              		.loc 1 940 7 is_stmt 1 view .LVU640
 940:Lib/AI_Runtime/Npu/ll_aton/ll_aton.c ****       break;
 2256              		.loc 1 940 61 is_stmt 0 view .LVU641
 2257 00c2 7020     		movs	r0, #112
 2258 00c4 C5E7     		b	.L206
 2259              	.L189:
 941:Lib/AI_Runtime/Npu/ll_aton/ll_aton.c **** #endif
 2260              		.loc 1 941 7 is_stmt 1 view .LVU642
 945:Lib/AI_Runtime/Npu/ll_aton/ll_aton.c ****       LL_ATON_ASSERT(au_num < ATON_ARITH_NUM);
 2261              		.loc 1 945 7 view .LVU643
 2262 00c6 012C     		cmp	r4, #1
 2263 00c8 04D9     		bls	.L202
 945:Lib/AI_Runtime/Npu/ll_aton/ll_aton.c ****       LL_ATON_ASSERT(au_num < ATON_ARITH_NUM);
 2264              		.loc 1 945 7 is_stmt 0 discriminator 1 view .LVU644
 2265 00ca 40F2B131 		movw	r1, #945
 2266 00ce 1E4B     		ldr	r3, .L208+28
 2267              	.LVL247:
 945:Lib/AI_Runtime/Npu/ll_aton/ll_aton.c ****       LL_ATON_ASSERT(au_num < ATON_ARITH_NUM);
 2268              		.loc 1 945 7 discriminator 1 view .LVU645
 2269 00d0 174A     		ldr	r2, .L208+4
 2270              	.LVL248:
 945:Lib/AI_Runtime/Npu/ll_aton/ll_aton.c ****       LL_ATON_ASSERT(au_num < ATON_ARITH_NUM);
 2271              		.loc 1 945 7 discriminator 1 view .LVU646
 2272 00d2 9FE7     		b	.L207
 2273              	.LVL249:
 2274              	.L202:
 946:Lib/AI_Runtime/Npu/ll_aton/ll_aton.c ****       return ATONN_CONST_DSTPORT(STRSWITCH, 0, ARITH, 0, 0) + (0x4 * (2 * au_num + port));
 2275              		.loc 1 946 7 is_stmt 1 view .LVU647
 2276 00d4 032B     		cmp	r3, #3
 2277 00d6 04D9     		bls	.L203
 946:Lib/AI_Runtime/Npu/ll_aton/ll_aton.c ****       return ATONN_CONST_DSTPORT(STRSWITCH, 0, ARITH, 0, 0) + (0x4 * (2 * au_num + port));
 2278              		.loc 1 946 7 is_stmt 0 discriminator 1 view .LVU648
 2279 00d8 40F2B231 		movw	r1, #946
 2280 00dc 194B     		ldr	r3, .L208+24
 2281              	.LVL250:
 946:Lib/AI_Runtime/Npu/ll_aton/ll_aton.c ****       return ATONN_CONST_DSTPORT(STRSWITCH, 0, ARITH, 0, 0) + (0x4 * (2 * au_num + port));
 2282              		.loc 1 946 7 discriminator 1 view .LVU649
 2283 00de 144A     		ldr	r2, .L208+4
 2284              	.LVL251:
 946:Lib/AI_Runtime/Npu/ll_aton/ll_aton.c ****       return ATONN_CONST_DSTPORT(STRSWITCH, 0, ARITH, 0, 0) + (0x4 * (2 * au_num + port));
 2285              		.loc 1 946 7 discriminator 1 view .LVU650
 2286 00e0 98E7     		b	.L207
 2287              	.LVL252:
 2288              	.L203:
 947:Lib/AI_Runtime/Npu/ll_aton/ll_aton.c ****       break;
 2289              		.loc 1 947 7 is_stmt 1 view .LVU651
 947:Lib/AI_Runtime/Npu/ll_aton/ll_aton.c ****       break;
 2290              		.loc 1 947 82 is_stmt 0 view .LVU652
 2291 00e2 04EB4304 		add	r4, r4, r3, lsl #1
 947:Lib/AI_Runtime/Npu/ll_aton/ll_aton.c ****       break;
 2292              		.loc 1 947 68 view .LVU653
ARM GAS  C:\Users\DJESSOU\AppData\Local\Temp\ccFxekaC.s 			page 74


 2293 00e6 A400     		lsls	r4, r4, #2
 947:Lib/AI_Runtime/Npu/ll_aton/ll_aton.c ****       break;
 2294              		.loc 1 947 61 view .LVU654
 2295 00e8 04F17800 		add	r0, r4, #120
 2296 00ec 9AE7     		b	.L180
 2297              	.L187:
 948:Lib/AI_Runtime/Npu/ll_aton/ll_aton.c **** #endif
 2298              		.loc 1 948 7 is_stmt 1 view .LVU655
 952:Lib/AI_Runtime/Npu/ll_aton/ll_aton.c ****       LL_ATON_ASSERT(au_num < ATON_POOL_NUM);
 2299              		.loc 1 952 7 view .LVU656
 2300 00ee 24B1     		cbz	r4, .L204
 952:Lib/AI_Runtime/Npu/ll_aton/ll_aton.c ****       LL_ATON_ASSERT(au_num < ATON_POOL_NUM);
 2301              		.loc 1 952 7 is_stmt 0 discriminator 1 view .LVU657
 2302 00f0 4FF46E71 		mov	r1, #952
 2303 00f4 104B     		ldr	r3, .L208+12
 2304              	.LVL253:
 952:Lib/AI_Runtime/Npu/ll_aton/ll_aton.c ****       LL_ATON_ASSERT(au_num < ATON_POOL_NUM);
 2305              		.loc 1 952 7 discriminator 1 view .LVU658
 2306 00f6 0E4A     		ldr	r2, .L208+4
 2307              	.LVL254:
 952:Lib/AI_Runtime/Npu/ll_aton/ll_aton.c ****       LL_ATON_ASSERT(au_num < ATON_POOL_NUM);
 2308              		.loc 1 952 7 discriminator 1 view .LVU659
 2309 00f8 8CE7     		b	.L207
 2310              	.LVL255:
 2311              	.L204:
 953:Lib/AI_Runtime/Npu/ll_aton/ll_aton.c ****       return ATONN_CONST_DSTPORT(STRSWITCH, 0, POOL, 0, 0) + (0x4 * au_num);
 2312              		.loc 1 953 7 is_stmt 1 view .LVU660
 2313 00fa 012B     		cmp	r3, #1
 2314 00fc 04D9     		bls	.L205
 953:Lib/AI_Runtime/Npu/ll_aton/ll_aton.c ****       return ATONN_CONST_DSTPORT(STRSWITCH, 0, POOL, 0, 0) + (0x4 * au_num);
 2315              		.loc 1 953 7 is_stmt 0 discriminator 1 view .LVU661
 2316 00fe 40F2B931 		movw	r1, #953
 2317 0102 124B     		ldr	r3, .L208+32
 2318              	.LVL256:
 953:Lib/AI_Runtime/Npu/ll_aton/ll_aton.c ****       return ATONN_CONST_DSTPORT(STRSWITCH, 0, POOL, 0, 0) + (0x4 * au_num);
 2319              		.loc 1 953 7 discriminator 1 view .LVU662
 2320 0104 0A4A     		ldr	r2, .L208+4
 2321              	.LVL257:
 953:Lib/AI_Runtime/Npu/ll_aton/ll_aton.c ****       return ATONN_CONST_DSTPORT(STRSWITCH, 0, POOL, 0, 0) + (0x4 * au_num);
 2322              		.loc 1 953 7 discriminator 1 view .LVU663
 2323 0106 85E7     		b	.L207
 2324              	.LVL258:
 2325              	.L205:
 954:Lib/AI_Runtime/Npu/ll_aton/ll_aton.c ****       break;
 2326              		.loc 1 954 7 is_stmt 1 view .LVU664
 954:Lib/AI_Runtime/Npu/ll_aton/ll_aton.c ****       break;
 2327              		.loc 1 954 60 is_stmt 0 view .LVU665
 2328 0108 9820     		movs	r0, #152
 2329 010a A2E7     		b	.L206
 2330              	.L186:
 955:Lib/AI_Runtime/Npu/ll_aton/ll_aton.c **** #endif
 2331              		.loc 1 955 7 is_stmt 1 view .LVU666
 958:Lib/AI_Runtime/Npu/ll_aton/ll_aton.c ****       break;
 2332              		.loc 1 958 7 view .LVU667
 2333 010c 40F2BE31 		movw	r1, #958
 2334 0110 0F4B     		ldr	r3, .L208+36
 2335              	.LVL259:
ARM GAS  C:\Users\DJESSOU\AppData\Local\Temp\ccFxekaC.s 			page 75


 958:Lib/AI_Runtime/Npu/ll_aton/ll_aton.c ****       break;
 2336              		.loc 1 958 7 is_stmt 0 view .LVU668
 2337 0112 074A     		ldr	r2, .L208+4
 2338              	.LVL260:
 958:Lib/AI_Runtime/Npu/ll_aton/ll_aton.c ****       break;
 2339              		.loc 1 958 7 view .LVU669
 2340 0114 7EE7     		b	.L207
 2341              	.LVL261:
 2342              	.L183:
 964:Lib/AI_Runtime/Npu/ll_aton/ll_aton.c ****     break;
 2343              		.loc 1 964 5 is_stmt 1 view .LVU670
 2344 0116 4FF47171 		mov	r1, #964
 2345              	.LVL262:
 964:Lib/AI_Runtime/Npu/ll_aton/ll_aton.c ****     break;
 2346              		.loc 1 964 5 is_stmt 0 view .LVU671
 2347 011a 0D4B     		ldr	r3, .L208+36
 2348              	.LVL263:
 964:Lib/AI_Runtime/Npu/ll_aton/ll_aton.c ****     break;
 2349              		.loc 1 964 5 view .LVU672
 2350 011c 044A     		ldr	r2, .L208+4
 2351              	.LVL264:
 964:Lib/AI_Runtime/Npu/ll_aton/ll_aton.c ****     break;
 2352              		.loc 1 964 5 view .LVU673
 2353 011e 79E7     		b	.L207
 2354              	.LVL265:
 2355              	.L184:
 965:Lib/AI_Runtime/Npu/ll_aton/ll_aton.c ****   case STRSWITCH_VC:
 2356              		.loc 1 965 5 is_stmt 1 view .LVU674
 968:Lib/AI_Runtime/Npu/ll_aton/ll_aton.c ****     break;
 2357              		.loc 1 968 5 view .LVU675
 2358 0120 4FF47271 		mov	r1, #968
 2359              	.LVL266:
 968:Lib/AI_Runtime/Npu/ll_aton/ll_aton.c ****     break;
 2360              		.loc 1 968 5 is_stmt 0 view .LVU676
 2361 0124 0A4B     		ldr	r3, .L208+36
 2362              	.LVL267:
 968:Lib/AI_Runtime/Npu/ll_aton/ll_aton.c ****     break;
 2363              		.loc 1 968 5 view .LVU677
 2364 0126 024A     		ldr	r2, .L208+4
 2365              	.LVL268:
 968:Lib/AI_Runtime/Npu/ll_aton/ll_aton.c ****     break;
 2366              		.loc 1 968 5 view .LVU678
 2367 0128 74E7     		b	.L207
 2368              	.L209:
 2369 012a 00BF     		.align	2
 2370              	.L208:
 2371 012c 00000000 		.word	.LC20
 2372 0130 00000000 		.word	__func__.6
 2373 0134 05000000 		.word	.LC4
 2374 0138 0C000000 		.word	.LC21
 2375 013c 16000000 		.word	.LC22
 2376 0140 00000000 		.word	.LC25
 2377 0144 22000000 		.word	.LC23
 2378 0148 09000000 		.word	.LC26
 2379 014c 2D000000 		.word	.LC24
 2380 0150 95000000 		.word	.LC7
 2381              		.cfi_endproc
ARM GAS  C:\Users\DJESSOU\AppData\Local\Temp\ccFxekaC.s 			page 76


 2382              	.LFE297:
 2384              		.section	.text.LL_Switch_Init_NoReset,"ax",%progbits
 2385              		.align	1
 2386              		.global	LL_Switch_Init_NoReset
 2387              		.syntax unified
 2388              		.thumb
 2389              		.thumb_func
 2391              	LL_Switch_Init_NoReset:
 2392              	.LVL269:
 2393              	.LFB298:
 981:Lib/AI_Runtime/Npu/ll_aton/ll_aton.c ****   int i;
 2394              		.loc 1 981 1 is_stmt 1 view -0
 2395              		.cfi_startproc
 2396              		@ args = 0, pretend = 0, frame = 0
 2397              		@ frame_needed = 0, uses_anonymous_args = 0
 982:Lib/AI_Runtime/Npu/ll_aton/ll_aton.c ****   volatile uint32_t *reg;
 2398              		.loc 1 982 3 view .LVU680
 983:Lib/AI_Runtime/Npu/ll_aton/ll_aton.c ****   uint32_t t;
 2399              		.loc 1 983 3 view .LVU681
 984:Lib/AI_Runtime/Npu/ll_aton/ll_aton.c ****   unsigned int en_shift[ATON_SWITCH_CONTEXT_NUM] = {ATON_STRSWITCH_DST_EN0_LSB, ATON_STRSWITCH_DST_
 2400              		.loc 1 984 3 view .LVU682
 985:Lib/AI_Runtime/Npu/ll_aton/ll_aton.c ****   unsigned int link_shift[ATON_SWITCH_CONTEXT_NUM] = {ATON_STRSWITCH_DST_LINK0_LSB, ATON_STRSWITCH_
 2401              		.loc 1 985 3 view .LVU683
 986:Lib/AI_Runtime/Npu/ll_aton/ll_aton.c ****   unsigned int fnr_shift[ATON_SWITCH_CONTEXT_NUM] = {ATON_STRSWITCH_DST_FNR0_LSB, ATON_STRSWITCH_DS
 2402              		.loc 1 986 3 view .LVU684
 987:Lib/AI_Runtime/Npu/ll_aton/ll_aton.c ****   unsigned int fnr_mask[ATON_SWITCH_CONTEXT_NUM] = {ATON_STRSWITCH_DST_FNR0_MASK, ATON_STRSWITCH_DS
 2403              		.loc 1 987 3 view .LVU685
 988:Lib/AI_Runtime/Npu/ll_aton/ll_aton.c **** 
 2404              		.loc 1 988 3 view .LVU686
 991:Lib/AI_Runtime/Npu/ll_aton/ll_aton.c ****   t = ATON_STRSWITCH_CTRL_SET_EN(t, 1);
 2405              		.loc 1 991 3 view .LVU687
 992:Lib/AI_Runtime/Npu/ll_aton/ll_aton.c ****   ATON_STRSWITCH_CTRL_SET(0, t);
 2406              		.loc 1 992 3 view .LVU688
 993:Lib/AI_Runtime/Npu/ll_aton/ll_aton.c **** 
 2407              		.loc 1 993 3 view .LVU689
 993:Lib/AI_Runtime/Npu/ll_aton/ll_aton.c **** 
 2408              		.loc 1 993 3 view .LVU690
 993:Lib/AI_Runtime/Npu/ll_aton/ll_aton.c **** 
 2409              		.loc 1 993 3 view .LVU691
 2410 0000 0123     		movs	r3, #1
 2411 0002 134A     		ldr	r2, .L214
 2412 0004 0029     		cmp	r1, #0
 981:Lib/AI_Runtime/Npu/ll_aton/ll_aton.c ****   int i;
 2413              		.loc 1 981 1 is_stmt 0 view .LVU692
 2414 0006 30B5     		push	{r4, r5, lr}
 2415              		.cfi_def_cfa_offset 12
 2416              		.cfi_offset 4, -12
 2417              		.cfi_offset 5, -8
 2418              		.cfi_offset 14, -4
 993:Lib/AI_Runtime/Npu/ll_aton/ll_aton.c **** 
 2419              		.loc 1 993 3 view .LVU693
 2420 0008 1360     		str	r3, [r2]
 993:Lib/AI_Runtime/Npu/ll_aton/ll_aton.c **** 
 2421              		.loc 1 993 3 is_stmt 1 view .LVU694
 993:Lib/AI_Runtime/Npu/ll_aton/ll_aton.c **** 
 2422              		.loc 1 993 3 view .LVU695
 995:Lib/AI_Runtime/Npu/ll_aton/ll_aton.c ****   {
ARM GAS  C:\Users\DJESSOU\AppData\Local\Temp\ccFxekaC.s 			page 77


 2423              		.loc 1 995 3 view .LVU696
 2424              	.LVL270:
 995:Lib/AI_Runtime/Npu/ll_aton/ll_aton.c ****   {
 2425              		.loc 1 995 3 is_stmt 0 view .LVU697
 2426 000a 01EB0302 		add	r2, r1, r3
 2427 000e B8BF     		it	lt
 2428 0010 1A46     		movlt	r2, r3
 2429              	.LVL271:
 2430              	.L211:
 995:Lib/AI_Runtime/Npu/ll_aton/ll_aton.c ****   {
 2431              		.loc 1 995 17 is_stmt 1 discriminator 1 view .LVU698
 2432 0012 013A     		subs	r2, r2, #1
 2433 0014 01D1     		bne	.L212
1021:Lib/AI_Runtime/Npu/ll_aton/ll_aton.c **** }
 2434              		.loc 1 1021 3 view .LVU699
 2435              	.LVL272:
1022:Lib/AI_Runtime/Npu/ll_aton/ll_aton.c **** 
 2436              		.loc 1 1022 1 is_stmt 0 view .LVU700
 2437 0016 0020     		movs	r0, #0
 2438 0018 30BD     		pop	{r4, r5, pc}
 2439              	.LVL273:
 2440              	.L212:
 998:Lib/AI_Runtime/Npu/ll_aton/ll_aton.c ****     t = 0;
 2441              		.loc 1 998 5 is_stmt 1 view .LVU701
1002:Lib/AI_Runtime/Npu/ll_aton/ll_aton.c ****     t |= (ATONN_SRCPORT_ID(LL_Switch_InitStruct[i].source0) << link_shift[0]);
 2442              		.loc 1 1002 45 is_stmt 0 view .LVU702
 2443 001a 847B     		ldrb	r4, [r0, #14]	@ zero_extendqisi2
1006:Lib/AI_Runtime/Npu/ll_aton/ll_aton.c ****     t |= ((LL_Switch_InitStruct[i].frames1 << fnr_shift[1]) & fnr_mask[1]);
 2444              		.loc 1 1006 61 view .LVU703
 2445 001c D0E90053 		ldrd	r5, r3, [r0]
 2446 0020 5B04     		lsls	r3, r3, #17
1007:Lib/AI_Runtime/Npu/ll_aton/ll_aton.c **** #else
 2447              		.loc 1 1007 7 view .LVU704
 2448 0022 43EA4503 		orr	r3, r3, r5, lsl #1
1002:Lib/AI_Runtime/Npu/ll_aton/ll_aton.c ****     t |= (ATONN_SRCPORT_ID(LL_Switch_InitStruct[i].source0) << link_shift[0]);
 2449              		.loc 1 1002 51 view .LVU705
 2450 0026 04F00105 		and	r5, r4, #1
1007:Lib/AI_Runtime/Npu/ll_aton/ll_aton.c **** #else
 2451              		.loc 1 1007 7 view .LVU706
 2452 002a 2B43     		orrs	r3, r3, r5
1004:Lib/AI_Runtime/Npu/ll_aton/ll_aton.c ****     t |= ((LL_Switch_InitStruct[i].context1 != 0) << en_shift[1]);
 2453              		.loc 1 1004 61 view .LVU707
 2454 002c 057B     		ldrb	r5, [r0, #12]	@ zero_extendqisi2
 998:Lib/AI_Runtime/Npu/ll_aton/ll_aton.c ****     t = 0;
 2455              		.loc 1 998 47 view .LVU708
 2456 002e 8168     		ldr	r1, [r0, #8]
1007:Lib/AI_Runtime/Npu/ll_aton/ll_aton.c **** #else
 2457              		.loc 1 1007 7 view .LVU709
 2458 0030 43EA0523 		orr	r3, r3, r5, lsl #8
1007:Lib/AI_Runtime/Npu/ll_aton/ll_aton.c **** #else
 2459              		.loc 1 1007 44 view .LVU710
 2460 0034 457B     		ldrb	r5, [r0, #13]	@ zero_extendqisi2
 998:Lib/AI_Runtime/Npu/ll_aton/ll_aton.c ****     t = 0;
 2461              		.loc 1 998 47 view .LVU711
 2462 0036 01F1B041 		add	r1, r1, #1476395008
1007:Lib/AI_Runtime/Npu/ll_aton/ll_aton.c **** #else
 2463              		.loc 1 1007 7 view .LVU712
ARM GAS  C:\Users\DJESSOU\AppData\Local\Temp\ccFxekaC.s 			page 78


 2464 003a 43EA0563 		orr	r3, r3, r5, lsl #24
1005:Lib/AI_Runtime/Npu/ll_aton/ll_aton.c ****     t |= (ATONN_SRCPORT_ID(LL_Switch_InitStruct[i].source1) << link_shift[1]);
 2465              		.loc 1 1005 45 view .LVU713
 2466 003e C4F34004 		ubfx	r4, r4, #1, #1
 998:Lib/AI_Runtime/Npu/ll_aton/ll_aton.c ****     t = 0;
 2467              		.loc 1 998 47 view .LVU714
 2468 0042 01F56421 		add	r1, r1, #933888
 2469              	.LVL274:
 999:Lib/AI_Runtime/Npu/ll_aton/ll_aton.c ****     /* Enable Context and create link */
 2470              		.loc 1 999 5 is_stmt 1 view .LVU715
1002:Lib/AI_Runtime/Npu/ll_aton/ll_aton.c ****     t |= (ATONN_SRCPORT_ID(LL_Switch_InitStruct[i].source0) << link_shift[0]);
 2471              		.loc 1 1002 5 view .LVU716
1003:Lib/AI_Runtime/Npu/ll_aton/ll_aton.c ****     t |= ((LL_Switch_InitStruct[i].frames0 << fnr_shift[0]) & fnr_mask[0]);
 2472              		.loc 1 1003 5 view .LVU717
1004:Lib/AI_Runtime/Npu/ll_aton/ll_aton.c ****     t |= ((LL_Switch_InitStruct[i].context1 != 0) << en_shift[1]);
 2473              		.loc 1 1004 5 view .LVU718
1005:Lib/AI_Runtime/Npu/ll_aton/ll_aton.c ****     t |= (ATONN_SRCPORT_ID(LL_Switch_InitStruct[i].source1) << link_shift[1]);
 2474              		.loc 1 1005 5 view .LVU719
1006:Lib/AI_Runtime/Npu/ll_aton/ll_aton.c ****     t |= ((LL_Switch_InitStruct[i].frames1 << fnr_shift[1]) & fnr_mask[1]);
 2475              		.loc 1 1006 5 view .LVU720
1007:Lib/AI_Runtime/Npu/ll_aton/ll_aton.c **** #else
 2476              		.loc 1 1007 5 view .LVU721
1007:Lib/AI_Runtime/Npu/ll_aton/ll_aton.c **** #else
 2477              		.loc 1 1007 7 is_stmt 0 view .LVU722
 2478 0046 43EA0443 		orr	r3, r3, r4, lsl #16
 2479              	.LVL275:
1018:Lib/AI_Runtime/Npu/ll_aton/ll_aton.c ****   }
 2480              		.loc 1 1018 5 is_stmt 1 view .LVU723
1018:Lib/AI_Runtime/Npu/ll_aton/ll_aton.c ****   }
 2481              		.loc 1 1018 5 view .LVU724
 2482 004a 0B60     		str	r3, [r1]
1018:Lib/AI_Runtime/Npu/ll_aton/ll_aton.c ****   }
 2483              		.loc 1 1018 5 view .LVU725
 995:Lib/AI_Runtime/Npu/ll_aton/ll_aton.c ****   {
 2484              		.loc 1 995 23 discriminator 3 view .LVU726
 2485 004c 1030     		adds	r0, r0, #16
 2486 004e E0E7     		b	.L211
 2487              	.L215:
 2488              		.align	2
 2489              	.L214:
 2490 0050 00400E58 		.word	1477328896
 2491              		.cfi_endproc
 2492              	.LFE298:
 2494              		.section	.text.LL_Switch_Init,"ax",%progbits
 2495              		.align	1
 2496              		.global	LL_Switch_Init
 2497              		.syntax unified
 2498              		.thumb
 2499              		.thumb_func
 2501              	LL_Switch_Init:
 2502              	.LVL276:
 2503              	.LFB299:
1031:Lib/AI_Runtime/Npu/ll_aton/ll_aton.c ****   uint32_t t;
 2504              		.loc 1 1031 1 view -0
 2505              		.cfi_startproc
 2506              		@ args = 0, pretend = 0, frame = 0
 2507              		@ frame_needed = 0, uses_anonymous_args = 0
ARM GAS  C:\Users\DJESSOU\AppData\Local\Temp\ccFxekaC.s 			page 79


 2508              		@ link register save eliminated.
1032:Lib/AI_Runtime/Npu/ll_aton/ll_aton.c **** 
 2509              		.loc 1 1032 3 view .LVU728
1039:Lib/AI_Runtime/Npu/ll_aton/ll_aton.c **** 
 2510              		.loc 1 1039 3 view .LVU729
1039:Lib/AI_Runtime/Npu/ll_aton/ll_aton.c **** 
 2511              		.loc 1 1039 3 view .LVU730
1039:Lib/AI_Runtime/Npu/ll_aton/ll_aton.c **** 
 2512              		.loc 1 1039 3 view .LVU731
1039:Lib/AI_Runtime/Npu/ll_aton/ll_aton.c **** 
 2513              		.loc 1 1039 3 view .LVU732
1039:Lib/AI_Runtime/Npu/ll_aton/ll_aton.c **** 
 2514              		.loc 1 1039 3 view .LVU733
1039:Lib/AI_Runtime/Npu/ll_aton/ll_aton.c **** 
 2515              		.loc 1 1039 3 view .LVU734
1039:Lib/AI_Runtime/Npu/ll_aton/ll_aton.c **** 
 2516              		.loc 1 1039 3 view .LVU735
 2517 0000 0222     		movs	r2, #2
 2518 0002 064B     		ldr	r3, .L221
 2519 0004 1A60     		str	r2, [r3]
