ARM GAS  C:\Users\DJESSOU\AppData\Local\Temp\ccFxekaC.s 			page 1


   1              		.arch armv8.1-m.main
   2              		.fpu fpv5-d16
   3              		.arch_extension dsp
   4              		.arch_extension fp
   5              		.arch_extension fp.dp
   6              		.arch_extension mve
   7              		.arch_extension mve.fp
   8              		.eabi_attribute 5, "cortex-m55"
   9              		.eabi_attribute 28, 1
  10              		.eabi_attribute 20, 1
  11              		.eabi_attribute 21, 1
  12              		.eabi_attribute 23, 3
  13              		.eabi_attribute 24, 1
  14              		.eabi_attribute 25, 1
  15              		.eabi_attribute 26, 1
  16              		.eabi_attribute 30, 4
  17              		.eabi_attribute 34, 1
  18              		.eabi_attribute 38, 1
  19              		.eabi_attribute 18, 4
  20              		.file	"ll_aton.c"
  21              		.text
  22              	.Ltext0:
  23              		.cfi_sections	.debug_frame
  24              		.file 1 "Lib/AI_Runtime/Npu/ll_aton/ll_aton.c"
  25              		.section	.text.decun_inc_page_addr,"ax",%progbits
  26              		.align	1
  27              		.syntax unified
  28              		.thumb
  29              		.thumb_func
  31              	decun_inc_page_addr:
  32              	.LVL0:
  33              	.LFB302:
   1:Lib/AI_Runtime/Npu/ll_aton/ll_aton.c **** /**
   2:Lib/AI_Runtime/Npu/ll_aton/ll_aton.c ****  ******************************************************************************
   3:Lib/AI_Runtime/Npu/ll_aton/ll_aton.c ****  * @file    ll_aton.c
   4:Lib/AI_Runtime/Npu/ll_aton/ll_aton.c ****  * @author  SRA Artificial Intelligence & Embedded Architectures
   5:Lib/AI_Runtime/Npu/ll_aton/ll_aton.c ****  * @brief   ATON LL module driver.
   6:Lib/AI_Runtime/Npu/ll_aton/ll_aton.c ****  ******************************************************************************
   7:Lib/AI_Runtime/Npu/ll_aton/ll_aton.c ****  * @attention
   8:Lib/AI_Runtime/Npu/ll_aton/ll_aton.c ****  *
   9:Lib/AI_Runtime/Npu/ll_aton/ll_aton.c ****  * Copyright (c) 2024 STMicroelectronics.
  10:Lib/AI_Runtime/Npu/ll_aton/ll_aton.c ****  * All rights reserved.
  11:Lib/AI_Runtime/Npu/ll_aton/ll_aton.c ****  *
  12:Lib/AI_Runtime/Npu/ll_aton/ll_aton.c ****  * This software is licensed under terms that can be found in the LICENSE file
  13:Lib/AI_Runtime/Npu/ll_aton/ll_aton.c ****  * in the root directory of this software component.
  14:Lib/AI_Runtime/Npu/ll_aton/ll_aton.c ****  * If no LICENSE file comes with this software, it is provided AS-IS.
  15:Lib/AI_Runtime/Npu/ll_aton/ll_aton.c ****  *
  16:Lib/AI_Runtime/Npu/ll_aton/ll_aton.c ****  ******************************************************************************
  17:Lib/AI_Runtime/Npu/ll_aton/ll_aton.c ****  */
  18:Lib/AI_Runtime/Npu/ll_aton/ll_aton.c **** 
  19:Lib/AI_Runtime/Npu/ll_aton/ll_aton.c **** #include <inttypes.h>
  20:Lib/AI_Runtime/Npu/ll_aton/ll_aton.c **** #include <stddef.h>
  21:Lib/AI_Runtime/Npu/ll_aton/ll_aton.c **** #include <stdint.h>
  22:Lib/AI_Runtime/Npu/ll_aton/ll_aton.c **** #include <stdlib.h>
  23:Lib/AI_Runtime/Npu/ll_aton/ll_aton.c **** 
  24:Lib/AI_Runtime/Npu/ll_aton/ll_aton.c **** #include "ll_aton.h"
  25:Lib/AI_Runtime/Npu/ll_aton/ll_aton.c **** #include "ll_aton_caches_interface.h"
ARM GAS  C:\Users\DJESSOU\AppData\Local\Temp\ccFxekaC.s 			page 2


  26:Lib/AI_Runtime/Npu/ll_aton/ll_aton.c **** #include "ll_aton_util.h"
  27:Lib/AI_Runtime/Npu/ll_aton/ll_aton.c **** 
  28:Lib/AI_Runtime/Npu/ll_aton/ll_aton.c **** #define ATONN_CONST_SRCPORT(S, J, U, I, P) ATON_##S##_##J##_LINK_##U##_##I##_##P
  29:Lib/AI_Runtime/Npu/ll_aton/ll_aton.c **** #define ATONN_CONST_DSTPORT(S, J, U, I, P) ATON_##S##_DST_OFFSET(J, ATON_##S##_##J##_DST##U##_##I##
  30:Lib/AI_Runtime/Npu/ll_aton/ll_aton.c **** 
  31:Lib/AI_Runtime/Npu/ll_aton/ll_aton.c **** #ifdef ATON_CONVACC_NUM
  32:Lib/AI_Runtime/Npu/ll_aton/ll_aton.c **** static uint32_t Conv_ctrl_bits[ATON_CONVACC_NUM]; // this is an hack FIXME !!!
  33:Lib/AI_Runtime/Npu/ll_aton/ll_aton.c **** #endif
  34:Lib/AI_Runtime/Npu/ll_aton/ll_aton.c **** 
  35:Lib/AI_Runtime/Npu/ll_aton/ll_aton.c **** #if (ATON_POOL_VERSION_MAJOR_DT < 1) || ((ATON_POOL_VERSION_MAJOR_DT == 1) && (ATON_POOL_VERSION_MI
  36:Lib/AI_Runtime/Npu/ll_aton/ll_aton.c **** #define POOL_RC14    /* Pooling unit is not yet patched with respect to auto-clearing of `CLR` bit 
  37:Lib/AI_Runtime/Npu/ll_aton/ll_aton.c ****                         reset values */
  38:Lib/AI_Runtime/Npu/ll_aton/ll_aton.c **** #endif
  39:Lib/AI_Runtime/Npu/ll_aton/ll_aton.c **** 
  40:Lib/AI_Runtime/Npu/ll_aton/ll_aton.c **** #define ASSERT_UNITS_VERS_W_MSG(unitname, rtl_unitver)                                             
  41:Lib/AI_Runtime/Npu/ll_aton/ll_aton.c ****   do                                                                                               
  42:Lib/AI_Runtime/Npu/ll_aton/ll_aton.c ****   {                                                                                                
  43:Lib/AI_Runtime/Npu/ll_aton/ll_aton.c ****     rtl_unitver = ATON_##unitname##_VERSION_GET(0);                                                
  44:Lib/AI_Runtime/Npu/ll_aton/ll_aton.c ****   } while (rtl_unitver == 0);                                                                      
  45:Lib/AI_Runtime/Npu/ll_aton/ll_aton.c ****   assertf(ATON_##unitname##_VERSION_GET_TYPE(rtl_unitver) == ATON_##unitname##_VERSION_TYPE_DT &&  
  46:Lib/AI_Runtime/Npu/ll_aton/ll_aton.c ****               ATON_##unitname##_VERSION_GET_MAJOR(rtl_unitver) == ATON_##unitname##_VERSION_MAJOR_D
  47:Lib/AI_Runtime/Npu/ll_aton/ll_aton.c ****               ATON_##unitname##_VERSION_GET_MINOR(rtl_unitver) == ATON_##unitname##_VERSION_MINOR_D
  48:Lib/AI_Runtime/Npu/ll_aton/ll_aton.c ****           0,                                                                                       
  49:Lib/AI_Runtime/Npu/ll_aton/ll_aton.c ****           "%s unit ver mismatch: RTL:t=%" PRIu32 ",ver=%" PRIu32 ".%" PRIu32 "  ATON.h:t=%" PRIu32 
  50:Lib/AI_Runtime/Npu/ll_aton/ll_aton.c ****           ".%" PRIu32 "\n\r",                                                                      
  51:Lib/AI_Runtime/Npu/ll_aton/ll_aton.c ****           #unitname, ATON_##unitname##_VERSION_GET_TYPE(rtl_unitver),                              
  52:Lib/AI_Runtime/Npu/ll_aton/ll_aton.c ****           ATON_##unitname##_VERSION_GET_MAJOR(rtl_unitver), ATON_##unitname##_VERSION_GET_MINOR(rtl
  53:Lib/AI_Runtime/Npu/ll_aton/ll_aton.c ****           (uint32_t)ATON_##unitname##_VERSION_TYPE_DT, (uint32_t)ATON_##unitname##_VERSION_MAJOR_DT
  54:Lib/AI_Runtime/Npu/ll_aton/ll_aton.c ****           (uint32_t)ATON_##unitname##_VERSION_MINOR_DT)
  55:Lib/AI_Runtime/Npu/ll_aton/ll_aton.c **** 
  56:Lib/AI_Runtime/Npu/ll_aton/ll_aton.c **** /** @defgroup Simple watchdog management functions.
  57:Lib/AI_Runtime/Npu/ll_aton/ll_aton.c ****  *  Used to exit from LL_Streng_Wait() in case epoch locks
  58:Lib/AI_Runtime/Npu/ll_aton/ll_aton.c ****  * @{
  59:Lib/AI_Runtime/Npu/ll_aton/ll_aton.c ****  */
  60:Lib/AI_Runtime/Npu/ll_aton/ll_aton.c **** 
  61:Lib/AI_Runtime/Npu/ll_aton/ll_aton.c **** static inline void ll_aton_static_checks(void)
  62:Lib/AI_Runtime/Npu/ll_aton/ll_aton.c **** {
  63:Lib/AI_Runtime/Npu/ll_aton/ll_aton.c ****   static char done = 0;
  64:Lib/AI_Runtime/Npu/ll_aton/ll_aton.c **** 
  65:Lib/AI_Runtime/Npu/ll_aton/ll_aton.c ****   if (done != 0)
  66:Lib/AI_Runtime/Npu/ll_aton/ll_aton.c ****     return;
  67:Lib/AI_Runtime/Npu/ll_aton/ll_aton.c ****   done = 1;
  68:Lib/AI_Runtime/Npu/ll_aton/ll_aton.c **** 
  69:Lib/AI_Runtime/Npu/ll_aton/ll_aton.c **** #define ASSERT_ATONN_SRCPORT(S, J, U, I, P)                                                        
  70:Lib/AI_Runtime/Npu/ll_aton/ll_aton.c ****   LL_ATON_ASSERT(ATONN_CONST_SRCPORT(S, J, U, I, P) == __atonn_getSrcPortID(S, J, U, I, P))
  71:Lib/AI_Runtime/Npu/ll_aton/ll_aton.c **** #define ASSERT_ATONN_DSTPORT(S, J, U, I, P)                                                        
  72:Lib/AI_Runtime/Npu/ll_aton/ll_aton.c ****   LL_ATON_ASSERT(ATONN_CONST_DSTPORT(S, J, U, I, P) == __atonn_getDstPortID(S, J, U, I, P))
  73:Lib/AI_Runtime/Npu/ll_aton/ll_aton.c **** 
  74:Lib/AI_Runtime/Npu/ll_aton/ll_aton.c **** #if ATON_STRENG_NUM > 1
  75:Lib/AI_Runtime/Npu/ll_aton/ll_aton.c ****   ASSERT_ATONN_SRCPORT(STRSWITCH, 0, STRENG, 1, 0);
  76:Lib/AI_Runtime/Npu/ll_aton/ll_aton.c ****   ASSERT_ATONN_DSTPORT(STRSWITCH, 0, STRENG, 1, 0);
  77:Lib/AI_Runtime/Npu/ll_aton/ll_aton.c **** #endif
  78:Lib/AI_Runtime/Npu/ll_aton/ll_aton.c **** #if ATON_STRENG_NUM > 2
  79:Lib/AI_Runtime/Npu/ll_aton/ll_aton.c ****   ASSERT_ATONN_SRCPORT(STRSWITCH, 0, STRENG, 2, 0);
  80:Lib/AI_Runtime/Npu/ll_aton/ll_aton.c ****   ASSERT_ATONN_DSTPORT(STRSWITCH, 0, STRENG, 2, 0);
  81:Lib/AI_Runtime/Npu/ll_aton/ll_aton.c **** #endif
  82:Lib/AI_Runtime/Npu/ll_aton/ll_aton.c **** 
ARM GAS  C:\Users\DJESSOU\AppData\Local\Temp\ccFxekaC.s 			page 3


  83:Lib/AI_Runtime/Npu/ll_aton/ll_aton.c **** #if (LL_ATON_PLATFORM == LL_ATON_PLAT_EC_TRACE)
  84:Lib/AI_Runtime/Npu/ll_aton/ll_aton.c **** 
  85:Lib/AI_Runtime/Npu/ll_aton/ll_aton.c **** #if ATON_CONVACC_NUM > 1
  86:Lib/AI_Runtime/Npu/ll_aton/ll_aton.c ****   ASSERT_ATONN_SRCPORT(STRSWITCH, 0, CONVACC, 1, 0);
  87:Lib/AI_Runtime/Npu/ll_aton/ll_aton.c ****   ASSERT_ATONN_DSTPORT(STRSWITCH, 0, CONVACC, 1, 0);
  88:Lib/AI_Runtime/Npu/ll_aton/ll_aton.c ****   ASSERT_ATONN_DSTPORT(STRSWITCH, 0, CONVACC, 1, 1);
  89:Lib/AI_Runtime/Npu/ll_aton/ll_aton.c ****   ASSERT_ATONN_DSTPORT(STRSWITCH, 0, CONVACC, 1, 2);
  90:Lib/AI_Runtime/Npu/ll_aton/ll_aton.c **** #endif
  91:Lib/AI_Runtime/Npu/ll_aton/ll_aton.c **** 
  92:Lib/AI_Runtime/Npu/ll_aton/ll_aton.c **** #if ATON_CONVACC_NUM > 2
  93:Lib/AI_Runtime/Npu/ll_aton/ll_aton.c ****   ASSERT_ATONN_SRCPORT(STRSWITCH, 0, CONVACC, 2, 0);
  94:Lib/AI_Runtime/Npu/ll_aton/ll_aton.c ****   ASSERT_ATONN_DSTPORT(STRSWITCH, 0, CONVACC, 2, 0);
  95:Lib/AI_Runtime/Npu/ll_aton/ll_aton.c ****   ASSERT_ATONN_DSTPORT(STRSWITCH, 0, CONVACC, 2, 1);
  96:Lib/AI_Runtime/Npu/ll_aton/ll_aton.c ****   ASSERT_ATONN_DSTPORT(STRSWITCH, 0, CONVACC, 2, 2);
  97:Lib/AI_Runtime/Npu/ll_aton/ll_aton.c **** #endif
  98:Lib/AI_Runtime/Npu/ll_aton/ll_aton.c **** 
  99:Lib/AI_Runtime/Npu/ll_aton/ll_aton.c **** #if ATON_POOL_NUM > 1
 100:Lib/AI_Runtime/Npu/ll_aton/ll_aton.c ****   ASSERT_ATONN_SRCPORT(STRSWITCH, 0, POOL, 1, 0);
 101:Lib/AI_Runtime/Npu/ll_aton/ll_aton.c ****   ASSERT_ATONN_DSTPORT(STRSWITCH, 0, POOL, 1, 0);
 102:Lib/AI_Runtime/Npu/ll_aton/ll_aton.c **** #endif
 103:Lib/AI_Runtime/Npu/ll_aton/ll_aton.c **** 
 104:Lib/AI_Runtime/Npu/ll_aton/ll_aton.c **** #if ATON_ARITH_NUM > 1
 105:Lib/AI_Runtime/Npu/ll_aton/ll_aton.c ****   ASSERT_ATONN_SRCPORT(STRSWITCH, 0, ARITH, 1, 0);
 106:Lib/AI_Runtime/Npu/ll_aton/ll_aton.c ****   ASSERT_ATONN_DSTPORT(STRSWITCH, 0, ARITH, 1, 0);
 107:Lib/AI_Runtime/Npu/ll_aton/ll_aton.c ****   ASSERT_ATONN_DSTPORT(STRSWITCH, 0, ARITH, 1, 1);
 108:Lib/AI_Runtime/Npu/ll_aton/ll_aton.c **** #endif
 109:Lib/AI_Runtime/Npu/ll_aton/ll_aton.c **** 
 110:Lib/AI_Runtime/Npu/ll_aton/ll_aton.c **** #if ATON_ACTIV_NUM > 1
 111:Lib/AI_Runtime/Npu/ll_aton/ll_aton.c ****   ASSERT_ATONN_SRCPORT(STRSWITCH, 0, ACTIV, 1, 0);
 112:Lib/AI_Runtime/Npu/ll_aton/ll_aton.c ****   ASSERT_ATONN_DSTPORT(STRSWITCH, 0, ACTIV, 1, 0);
 113:Lib/AI_Runtime/Npu/ll_aton/ll_aton.c **** #endif
 114:Lib/AI_Runtime/Npu/ll_aton/ll_aton.c **** 
 115:Lib/AI_Runtime/Npu/ll_aton/ll_aton.c **** #if ATON_DECUN_NUM > 1
 116:Lib/AI_Runtime/Npu/ll_aton/ll_aton.c ****   ASSERT_ATONN_SRCPORT(STRSWITCH, 0, DECUN, 1, 0);
 117:Lib/AI_Runtime/Npu/ll_aton/ll_aton.c ****   ASSERT_ATONN_DSTPORT(STRSWITCH, 0, DECUN, 1, 0);
 118:Lib/AI_Runtime/Npu/ll_aton/ll_aton.c ****   ASSERT_ATONN_DSTPORT(STRSWITCH, 0, DECUN, 1, 1);
 119:Lib/AI_Runtime/Npu/ll_aton/ll_aton.c **** #endif
 120:Lib/AI_Runtime/Npu/ll_aton/ll_aton.c **** 
 121:Lib/AI_Runtime/Npu/ll_aton/ll_aton.c **** #endif // (LL_ATON_PLATFORM == LL_ATON_PLAT_EC_TRACE)
 122:Lib/AI_Runtime/Npu/ll_aton/ll_aton.c **** 
 123:Lib/AI_Runtime/Npu/ll_aton/ll_aton.c **** #undef ASSERT_ATONN_SRCPORT
 124:Lib/AI_Runtime/Npu/ll_aton/ll_aton.c **** #undef ASSERT_ATONN_DSTPORT
 125:Lib/AI_Runtime/Npu/ll_aton/ll_aton.c **** }
 126:Lib/AI_Runtime/Npu/ll_aton/ll_aton.c **** 
 127:Lib/AI_Runtime/Npu/ll_aton/ll_aton.c **** unsigned char *LL_Address_Physical2Virtual(unsigned char *address)
 128:Lib/AI_Runtime/Npu/ll_aton/ll_aton.c **** {
 129:Lib/AI_Runtime/Npu/ll_aton/ll_aton.c ****   return ATON_LIB_PHYSICAL_TO_VIRTUAL_ADDR(address);
 130:Lib/AI_Runtime/Npu/ll_aton/ll_aton.c **** }
 131:Lib/AI_Runtime/Npu/ll_aton/ll_aton.c **** 
 132:Lib/AI_Runtime/Npu/ll_aton/ll_aton.c **** unsigned char *LL_Address_Virtual2Physical(unsigned char *address)
 133:Lib/AI_Runtime/Npu/ll_aton/ll_aton.c **** {
 134:Lib/AI_Runtime/Npu/ll_aton/ll_aton.c ****   return ATON_LIB_VIRTUAL_TO_PHYSICAL_ADDR(address);
 135:Lib/AI_Runtime/Npu/ll_aton/ll_aton.c **** }
 136:Lib/AI_Runtime/Npu/ll_aton/ll_aton.c **** 
 137:Lib/AI_Runtime/Npu/ll_aton/ll_aton.c **** /**
 138:Lib/AI_Runtime/Npu/ll_aton/ll_aton.c ****  * @brief Starts watchdog
 139:Lib/AI_Runtime/Npu/ll_aton/ll_aton.c ****  * @param timeout Watchdog timeout in cycles
ARM GAS  C:\Users\DJESSOU\AppData\Local\Temp\ccFxekaC.s 			page 4


 140:Lib/AI_Runtime/Npu/ll_aton/ll_aton.c ****  * @retval ATON Error code
 141:Lib/AI_Runtime/Npu/ll_aton/ll_aton.c ****  */
 142:Lib/AI_Runtime/Npu/ll_aton/ll_aton.c **** LL_ATON_WEAK int startWatchdog(uint32_t timeout)
 143:Lib/AI_Runtime/Npu/ll_aton/ll_aton.c **** {
 144:Lib/AI_Runtime/Npu/ll_aton/ll_aton.c ****   (void)timeout;
 145:Lib/AI_Runtime/Npu/ll_aton/ll_aton.c **** 
 146:Lib/AI_Runtime/Npu/ll_aton/ll_aton.c ****   return 0;
 147:Lib/AI_Runtime/Npu/ll_aton/ll_aton.c **** }
 148:Lib/AI_Runtime/Npu/ll_aton/ll_aton.c **** 
 149:Lib/AI_Runtime/Npu/ll_aton/ll_aton.c **** /**
 150:Lib/AI_Runtime/Npu/ll_aton/ll_aton.c ****  * @brief Checks whether watchdog has expired or not
 151:Lib/AI_Runtime/Npu/ll_aton/ll_aton.c ****  * @retval ATON Error code
 152:Lib/AI_Runtime/Npu/ll_aton/ll_aton.c ****  */
 153:Lib/AI_Runtime/Npu/ll_aton/ll_aton.c **** LL_ATON_WEAK int checkWatchdog(void)
 154:Lib/AI_Runtime/Npu/ll_aton/ll_aton.c **** {
 155:Lib/AI_Runtime/Npu/ll_aton/ll_aton.c ****   return 0;
 156:Lib/AI_Runtime/Npu/ll_aton/ll_aton.c **** }
 157:Lib/AI_Runtime/Npu/ll_aton/ll_aton.c **** 
 158:Lib/AI_Runtime/Npu/ll_aton/ll_aton.c **** /**
 159:Lib/AI_Runtime/Npu/ll_aton/ll_aton.c ****  * @}
 160:Lib/AI_Runtime/Npu/ll_aton/ll_aton.c ****  */
 161:Lib/AI_Runtime/Npu/ll_aton/ll_aton.c **** 
 162:Lib/AI_Runtime/Npu/ll_aton/ll_aton.c **** /**
 163:Lib/AI_Runtime/Npu/ll_aton/ll_aton.c ****  * @brief  ATON global initialization. Initializes clocks and bus interfaces. Must be called before
 164:Lib/AI_Runtime/Npu/ll_aton/ll_aton.c ****  * @retval Always zero
 165:Lib/AI_Runtime/Npu/ll_aton/ll_aton.c ****  */
 166:Lib/AI_Runtime/Npu/ll_aton/ll_aton.c **** int LL_ATON_Init(void)
 167:Lib/AI_Runtime/Npu/ll_aton/ll_aton.c **** {
 168:Lib/AI_Runtime/Npu/ll_aton/ll_aton.c ****   uint32_t t;
 169:Lib/AI_Runtime/Npu/ll_aton/ll_aton.c ****   int i;
 170:Lib/AI_Runtime/Npu/ll_aton/ll_aton.c **** 
 171:Lib/AI_Runtime/Npu/ll_aton/ll_aton.c ****   ll_aton_static_checks();
 172:Lib/AI_Runtime/Npu/ll_aton/ll_aton.c **** 
 173:Lib/AI_Runtime/Npu/ll_aton/ll_aton.c ****   /* Clear pipeline */
 174:Lib/AI_Runtime/Npu/ll_aton/ll_aton.c ****   t = ATON_CLKCTRL_CTRL_GET(0);
 175:Lib/AI_Runtime/Npu/ll_aton/ll_aton.c ****   t = ATON_CLKCTRL_CTRL_SET_CLR(t, 1);
 176:Lib/AI_Runtime/Npu/ll_aton/ll_aton.c ****   ATON_CLKCTRL_CTRL_SET(0, t);
 177:Lib/AI_Runtime/Npu/ll_aton/ll_aton.c **** 
 178:Lib/AI_Runtime/Npu/ll_aton/ll_aton.c ****   /* Enable all ATON clocks */
 179:Lib/AI_Runtime/Npu/ll_aton/ll_aton.c ****   ATON_CLKCTRL_CTRL_SET(0, 1);
 180:Lib/AI_Runtime/Npu/ll_aton/ll_aton.c ****   ATON_CLKCTRL_AGATES0_SET(0, 0xffffffff);
 181:Lib/AI_Runtime/Npu/ll_aton/ll_aton.c ****   ATON_CLKCTRL_AGATES1_SET(0, 0xffffffff);
 182:Lib/AI_Runtime/Npu/ll_aton/ll_aton.c **** 
 183:Lib/AI_Runtime/Npu/ll_aton/ll_aton.c **** #if (LL_ATON_ENABLE_CLOCK_GATING == 1)
 184:Lib/AI_Runtime/Npu/ll_aton/ll_aton.c **** #if (LL_ATON_PLATFORM == LL_ATON_PLAT_EC_TRACE)
 185:Lib/AI_Runtime/Npu/ll_aton/ll_aton.c ****   ATON_CLKCTRL_BGATES_SET(0, (1 << ATON_EPOCHCTRL_CLKB_CLK(0)));
 186:Lib/AI_Runtime/Npu/ll_aton/ll_aton.c **** #else
 187:Lib/AI_Runtime/Npu/ll_aton/ll_aton.c ****   ATON_CLKCTRL_BGATES_SET(0, 0x0);
 188:Lib/AI_Runtime/Npu/ll_aton/ll_aton.c **** #endif
 189:Lib/AI_Runtime/Npu/ll_aton/ll_aton.c **** #else
 190:Lib/AI_Runtime/Npu/ll_aton/ll_aton.c ****   ATON_CLKCTRL_BGATES_SET(0, 0xffffffff);
 191:Lib/AI_Runtime/Npu/ll_aton/ll_aton.c **** #endif
 192:Lib/AI_Runtime/Npu/ll_aton/ll_aton.c **** 
 193:Lib/AI_Runtime/Npu/ll_aton/ll_aton.c **** #ifdef ATON_CLKCTRL_BGATES1_OFFSET
 194:Lib/AI_Runtime/Npu/ll_aton/ll_aton.c ****   ATON_CLKCTRL_BGATES1_SET(0, 0xffffffff);
 195:Lib/AI_Runtime/Npu/ll_aton/ll_aton.c **** #endif
 196:Lib/AI_Runtime/Npu/ll_aton/ll_aton.c **** 
ARM GAS  C:\Users\DJESSOU\AppData\Local\Temp\ccFxekaC.s 			page 5


 197:Lib/AI_Runtime/Npu/ll_aton/ll_aton.c ****   /* Check that RTL and ATON.h match. Only check first unit */
 198:Lib/AI_Runtime/Npu/ll_aton/ll_aton.c ****   ASSERT_UNITS_VERS_W_MSG(STRENG, t);
 199:Lib/AI_Runtime/Npu/ll_aton/ll_aton.c **** 
 200:Lib/AI_Runtime/Npu/ll_aton/ll_aton.c **** #ifdef ATON_CONVACC_NUM
 201:Lib/AI_Runtime/Npu/ll_aton/ll_aton.c ****   ASSERT_UNITS_VERS_W_MSG(CONVACC, t);
 202:Lib/AI_Runtime/Npu/ll_aton/ll_aton.c **** #endif
 203:Lib/AI_Runtime/Npu/ll_aton/ll_aton.c **** 
 204:Lib/AI_Runtime/Npu/ll_aton/ll_aton.c **** #ifdef ATON_POOL_NUM
 205:Lib/AI_Runtime/Npu/ll_aton/ll_aton.c ****   ASSERT_UNITS_VERS_W_MSG(POOL, t);
 206:Lib/AI_Runtime/Npu/ll_aton/ll_aton.c **** #endif
 207:Lib/AI_Runtime/Npu/ll_aton/ll_aton.c **** 
 208:Lib/AI_Runtime/Npu/ll_aton/ll_aton.c **** #ifdef ATON_ARITH_NUM
 209:Lib/AI_Runtime/Npu/ll_aton/ll_aton.c ****   ASSERT_UNITS_VERS_W_MSG(ARITH, t);
 210:Lib/AI_Runtime/Npu/ll_aton/ll_aton.c **** #endif
 211:Lib/AI_Runtime/Npu/ll_aton/ll_aton.c **** 
 212:Lib/AI_Runtime/Npu/ll_aton/ll_aton.c **** #ifdef ATON_ACTIV_NUM
 213:Lib/AI_Runtime/Npu/ll_aton/ll_aton.c ****   ASSERT_UNITS_VERS_W_MSG(ACTIV, t);
 214:Lib/AI_Runtime/Npu/ll_aton/ll_aton.c **** #endif
 215:Lib/AI_Runtime/Npu/ll_aton/ll_aton.c **** 
 216:Lib/AI_Runtime/Npu/ll_aton/ll_aton.c **** #ifdef ATON_DECUN_NUM
 217:Lib/AI_Runtime/Npu/ll_aton/ll_aton.c ****   ASSERT_UNITS_VERS_W_MSG(DECUN, t);
 218:Lib/AI_Runtime/Npu/ll_aton/ll_aton.c **** #endif
 219:Lib/AI_Runtime/Npu/ll_aton/ll_aton.c **** 
 220:Lib/AI_Runtime/Npu/ll_aton/ll_aton.c **** #ifdef ATON_EPOCHCTRL_VERSION_TYPE_DT
 221:Lib/AI_Runtime/Npu/ll_aton/ll_aton.c ****   ASSERT_UNITS_VERS_W_MSG(EPOCHCTRL, t);
 222:Lib/AI_Runtime/Npu/ll_aton/ll_aton.c **** #endif
 223:Lib/AI_Runtime/Npu/ll_aton/ll_aton.c **** 
 224:Lib/AI_Runtime/Npu/ll_aton/ll_aton.c **** #ifdef ATON_RECBUF_VERSION_TYPE_DT
 225:Lib/AI_Runtime/Npu/ll_aton/ll_aton.c ****   ASSERT_UNITS_VERS_W_MSG(RECBUF, t);
 226:Lib/AI_Runtime/Npu/ll_aton/ll_aton.c **** #endif
 227:Lib/AI_Runtime/Npu/ll_aton/ll_aton.c **** 
 228:Lib/AI_Runtime/Npu/ll_aton/ll_aton.c **** #ifdef ATON_STRENG64_NUM
 229:Lib/AI_Runtime/Npu/ll_aton/ll_aton.c ****   ASSERT_UNITS_VERS_W_MSG(STRENG64, t);
 230:Lib/AI_Runtime/Npu/ll_aton/ll_aton.c **** #endif
 231:Lib/AI_Runtime/Npu/ll_aton/ll_aton.c **** 
 232:Lib/AI_Runtime/Npu/ll_aton/ll_aton.c **** #ifdef ATON_STRSWITCH64_NUM
 233:Lib/AI_Runtime/Npu/ll_aton/ll_aton.c ****   ASSERT_UNITS_VERS_W_MSG(STRSWITCH64, t);
 234:Lib/AI_Runtime/Npu/ll_aton/ll_aton.c **** #endif
 235:Lib/AI_Runtime/Npu/ll_aton/ll_aton.c **** 
 236:Lib/AI_Runtime/Npu/ll_aton/ll_aton.c **** #ifdef ATON_STRSWITCH_VC_NUM
 237:Lib/AI_Runtime/Npu/ll_aton/ll_aton.c ****   ASSERT_UNITS_VERS_W_MSG(STRSWITCH_VC, t);
 238:Lib/AI_Runtime/Npu/ll_aton/ll_aton.c **** #endif
 239:Lib/AI_Runtime/Npu/ll_aton/ll_aton.c **** 
 240:Lib/AI_Runtime/Npu/ll_aton/ll_aton.c **** #ifdef ATON_IMC_NUM
 241:Lib/AI_Runtime/Npu/ll_aton/ll_aton.c ****   ASSERT_UNITS_VERS_W_MSG(IMC, t);
 242:Lib/AI_Runtime/Npu/ll_aton/ll_aton.c **** #endif
 243:Lib/AI_Runtime/Npu/ll_aton/ll_aton.c **** 
 244:Lib/AI_Runtime/Npu/ll_aton/ll_aton.c ****   ASSERT_UNITS_VERS_W_MSG(CLKCTRL, t);
 245:Lib/AI_Runtime/Npu/ll_aton/ll_aton.c **** 
 246:Lib/AI_Runtime/Npu/ll_aton/ll_aton.c ****   ASSERT_UNITS_VERS_W_MSG(INTCTRL, t);
 247:Lib/AI_Runtime/Npu/ll_aton/ll_aton.c **** 
 248:Lib/AI_Runtime/Npu/ll_aton/ll_aton.c ****   ASSERT_UNITS_VERS_W_MSG(STRSWITCH, t);
 249:Lib/AI_Runtime/Npu/ll_aton/ll_aton.c **** 
 250:Lib/AI_Runtime/Npu/ll_aton/ll_aton.c ****   ASSERT_UNITS_VERS_W_MSG(BUSIF, t);
 251:Lib/AI_Runtime/Npu/ll_aton/ll_aton.c **** 
 252:Lib/AI_Runtime/Npu/ll_aton/ll_aton.c ****   /* Enable Bus Interfaces */
 253:Lib/AI_Runtime/Npu/ll_aton/ll_aton.c ****   for (i = 0; i < ATON_BUSIF_NUM; i++)
ARM GAS  C:\Users\DJESSOU\AppData\Local\Temp\ccFxekaC.s 			page 6


 254:Lib/AI_Runtime/Npu/ll_aton/ll_aton.c ****   {
 255:Lib/AI_Runtime/Npu/ll_aton/ll_aton.c ****     ATON_BUSIF_CTRL_SET(i, 1);
 256:Lib/AI_Runtime/Npu/ll_aton/ll_aton.c ****   }
 257:Lib/AI_Runtime/Npu/ll_aton/ll_aton.c **** 
 258:Lib/AI_Runtime/Npu/ll_aton/ll_aton.c ****   /* Enable Interrupt Controller */
 259:Lib/AI_Runtime/Npu/ll_aton/ll_aton.c ****   ATON_INTCTRL_CTRL_SET(0, 1);
 260:Lib/AI_Runtime/Npu/ll_aton/ll_aton.c **** 
 261:Lib/AI_Runtime/Npu/ll_aton/ll_aton.c ****   return 0;
 262:Lib/AI_Runtime/Npu/ll_aton/ll_aton.c **** }
 263:Lib/AI_Runtime/Npu/ll_aton/ll_aton.c **** 
 264:Lib/AI_Runtime/Npu/ll_aton/ll_aton.c **** /**
 265:Lib/AI_Runtime/Npu/ll_aton/ll_aton.c ****  * @brief  ATON global de-initialization. Must be called at the very end
 266:Lib/AI_Runtime/Npu/ll_aton/ll_aton.c ****  * @retval Always zero
 267:Lib/AI_Runtime/Npu/ll_aton/ll_aton.c ****  */
 268:Lib/AI_Runtime/Npu/ll_aton/ll_aton.c **** int LL_ATON_DeInit(void)
 269:Lib/AI_Runtime/Npu/ll_aton/ll_aton.c **** {
 270:Lib/AI_Runtime/Npu/ll_aton/ll_aton.c ****   int i;
 271:Lib/AI_Runtime/Npu/ll_aton/ll_aton.c **** 
 272:Lib/AI_Runtime/Npu/ll_aton/ll_aton.c ****   /* Disable Interrupt Controller */
 273:Lib/AI_Runtime/Npu/ll_aton/ll_aton.c ****   ATON_INTCTRL_CTRL_SET(0, 0);
 274:Lib/AI_Runtime/Npu/ll_aton/ll_aton.c **** 
 275:Lib/AI_Runtime/Npu/ll_aton/ll_aton.c ****   /* Disable Bus Interfaces */
 276:Lib/AI_Runtime/Npu/ll_aton/ll_aton.c ****   for (i = 0; i < ATON_BUSIF_NUM; i++)
 277:Lib/AI_Runtime/Npu/ll_aton/ll_aton.c ****   {
 278:Lib/AI_Runtime/Npu/ll_aton/ll_aton.c ****     ATON_BUSIF_CTRL_SET(i, 0);
 279:Lib/AI_Runtime/Npu/ll_aton/ll_aton.c ****   }
 280:Lib/AI_Runtime/Npu/ll_aton/ll_aton.c **** 
 281:Lib/AI_Runtime/Npu/ll_aton/ll_aton.c ****   /* Disable all ATON clocks */
 282:Lib/AI_Runtime/Npu/ll_aton/ll_aton.c ****   ATON_CLKCTRL_AGATES0_SET(0, 0);
 283:Lib/AI_Runtime/Npu/ll_aton/ll_aton.c ****   ATON_CLKCTRL_AGATES1_SET(0, 0);
 284:Lib/AI_Runtime/Npu/ll_aton/ll_aton.c ****   ATON_CLKCTRL_BGATES_SET(0, 0);
 285:Lib/AI_Runtime/Npu/ll_aton/ll_aton.c **** #ifdef ATON_CLKCTRL_BGATES1_OFFSET
 286:Lib/AI_Runtime/Npu/ll_aton/ll_aton.c ****   ATON_CLKCTRL_BGATES1_SET(0, 0);
 287:Lib/AI_Runtime/Npu/ll_aton/ll_aton.c **** #endif
 288:Lib/AI_Runtime/Npu/ll_aton/ll_aton.c ****   ATON_CLKCTRL_CTRL_SET(0, 0);
 289:Lib/AI_Runtime/Npu/ll_aton/ll_aton.c **** 
 290:Lib/AI_Runtime/Npu/ll_aton/ll_aton.c ****   return 0;
 291:Lib/AI_Runtime/Npu/ll_aton/ll_aton.c **** }
 292:Lib/AI_Runtime/Npu/ll_aton/ll_aton.c **** 
 293:Lib/AI_Runtime/Npu/ll_aton/ll_aton.c **** /**
 294:Lib/AI_Runtime/Npu/ll_aton/ll_aton.c ****  * @brief  Enables a set of ATON units
 295:Lib/AI_Runtime/Npu/ll_aton/ll_aton.c ****  * @param  LL_ATON_EnableUnits_InitStruct Array of units to enable
 296:Lib/AI_Runtime/Npu/ll_aton/ll_aton.c ****  * @param  n Length of the initialization array
 297:Lib/AI_Runtime/Npu/ll_aton/ll_aton.c ****  * @retval Error code
 298:Lib/AI_Runtime/Npu/ll_aton/ll_aton.c ****  * @todo   Add boundary checks
 299:Lib/AI_Runtime/Npu/ll_aton/ll_aton.c ****  */
 300:Lib/AI_Runtime/Npu/ll_aton/ll_aton.c **** int LL_ATON_EnableUnits_Init(const LL_ATON_EnableUnits_InitTypeDef *LL_ATON_EnableUnits_InitStruct,
 301:Lib/AI_Runtime/Npu/ll_aton/ll_aton.c **** {
 302:Lib/AI_Runtime/Npu/ll_aton/ll_aton.c ****   int i;
 303:Lib/AI_Runtime/Npu/ll_aton/ll_aton.c ****   enum AccelUnitsType unitType;
 304:Lib/AI_Runtime/Npu/ll_aton/ll_aton.c ****   uint32_t unitId;
 305:Lib/AI_Runtime/Npu/ll_aton/ll_aton.c **** 
 306:Lib/AI_Runtime/Npu/ll_aton/ll_aton.c ****   for (i = 0; i < n; i++)
 307:Lib/AI_Runtime/Npu/ll_aton/ll_aton.c ****   {
 308:Lib/AI_Runtime/Npu/ll_aton/ll_aton.c ****     unitType = LL_ATON_EnableUnits_InitStruct[i].unit.unit_type;
 309:Lib/AI_Runtime/Npu/ll_aton/ll_aton.c ****     unitId = LL_ATON_EnableUnits_InitStruct[i].unit.unit_num;
 310:Lib/AI_Runtime/Npu/ll_aton/ll_aton.c **** 
ARM GAS  C:\Users\DJESSOU\AppData\Local\Temp\ccFxekaC.s 			page 7


 311:Lib/AI_Runtime/Npu/ll_aton/ll_aton.c ****     switch (unitType)
 312:Lib/AI_Runtime/Npu/ll_aton/ll_aton.c ****     {
 313:Lib/AI_Runtime/Npu/ll_aton/ll_aton.c ****     case STRENG:
 314:Lib/AI_Runtime/Npu/ll_aton/ll_aton.c ****       ATON_ENABLE(STRENG, unitId);
 315:Lib/AI_Runtime/Npu/ll_aton/ll_aton.c ****       break;
 316:Lib/AI_Runtime/Npu/ll_aton/ll_aton.c **** 
 317:Lib/AI_Runtime/Npu/ll_aton/ll_aton.c **** #ifdef ATON_STRENG64_NUM
 318:Lib/AI_Runtime/Npu/ll_aton/ll_aton.c ****     case STRENG64:
 319:Lib/AI_Runtime/Npu/ll_aton/ll_aton.c ****       ATON_ENABLE(STRENG64, unitId);
 320:Lib/AI_Runtime/Npu/ll_aton/ll_aton.c ****       break;
 321:Lib/AI_Runtime/Npu/ll_aton/ll_aton.c **** #endif
 322:Lib/AI_Runtime/Npu/ll_aton/ll_aton.c **** 
 323:Lib/AI_Runtime/Npu/ll_aton/ll_aton.c **** #ifdef ATON_CONVACC_NUM
 324:Lib/AI_Runtime/Npu/ll_aton/ll_aton.c ****     case CONVACC:
 325:Lib/AI_Runtime/Npu/ll_aton/ll_aton.c **** #if 0
 326:Lib/AI_Runtime/Npu/ll_aton/ll_aton.c ****       ATON_ENABLE(CONVACC, unitId);
 327:Lib/AI_Runtime/Npu/ll_aton/ll_aton.c **** #else
 328:Lib/AI_Runtime/Npu/ll_aton/ll_aton.c ****       ATON_CONVACC_CTRL_SET(unitId, ATON_CONVACC_CTRL_SET_EN(Conv_ctrl_bits[unitId], 1));
 329:Lib/AI_Runtime/Npu/ll_aton/ll_aton.c **** #endif
 330:Lib/AI_Runtime/Npu/ll_aton/ll_aton.c ****       break;
 331:Lib/AI_Runtime/Npu/ll_aton/ll_aton.c **** #endif
 332:Lib/AI_Runtime/Npu/ll_aton/ll_aton.c **** 
 333:Lib/AI_Runtime/Npu/ll_aton/ll_aton.c **** #ifdef ATON_DECUN_NUM
 334:Lib/AI_Runtime/Npu/ll_aton/ll_aton.c ****     case DECUN:
 335:Lib/AI_Runtime/Npu/ll_aton/ll_aton.c ****       ATON_ENABLE(DECUN, unitId);
 336:Lib/AI_Runtime/Npu/ll_aton/ll_aton.c ****       break;
 337:Lib/AI_Runtime/Npu/ll_aton/ll_aton.c **** #endif
 338:Lib/AI_Runtime/Npu/ll_aton/ll_aton.c **** 
 339:Lib/AI_Runtime/Npu/ll_aton/ll_aton.c **** #ifdef ATON_ACTIV_NUM
 340:Lib/AI_Runtime/Npu/ll_aton/ll_aton.c ****     case ACTIV:
 341:Lib/AI_Runtime/Npu/ll_aton/ll_aton.c ****       ATON_ENABLE(ACTIV, unitId);
 342:Lib/AI_Runtime/Npu/ll_aton/ll_aton.c ****       break;
 343:Lib/AI_Runtime/Npu/ll_aton/ll_aton.c **** #endif
 344:Lib/AI_Runtime/Npu/ll_aton/ll_aton.c **** 
 345:Lib/AI_Runtime/Npu/ll_aton/ll_aton.c **** #ifdef ATON_ARITH_NUM
 346:Lib/AI_Runtime/Npu/ll_aton/ll_aton.c ****     case ARITH:
 347:Lib/AI_Runtime/Npu/ll_aton/ll_aton.c ****       ATON_ENABLE(ARITH, unitId);
 348:Lib/AI_Runtime/Npu/ll_aton/ll_aton.c ****       break;
 349:Lib/AI_Runtime/Npu/ll_aton/ll_aton.c **** #endif
 350:Lib/AI_Runtime/Npu/ll_aton/ll_aton.c **** 
 351:Lib/AI_Runtime/Npu/ll_aton/ll_aton.c **** #ifdef ATON_POOL_NUM
 352:Lib/AI_Runtime/Npu/ll_aton/ll_aton.c ****     case POOL:
 353:Lib/AI_Runtime/Npu/ll_aton/ll_aton.c **** #ifdef POOL_RC14
 354:Lib/AI_Runtime/Npu/ll_aton/ll_aton.c ****       ATON_POOL_CTRL_SET(unitId, ATON_POOL_CTRL_SET_EN(ATON_POOL_CTRL_GET(unitId), 1));
 355:Lib/AI_Runtime/Npu/ll_aton/ll_aton.c **** #else  // !POOL_RC14
 356:Lib/AI_Runtime/Npu/ll_aton/ll_aton.c ****       ATON_ENABLE(POOL, unitId);
 357:Lib/AI_Runtime/Npu/ll_aton/ll_aton.c **** #endif // !POOL_RC14
 358:Lib/AI_Runtime/Npu/ll_aton/ll_aton.c ****       break;
 359:Lib/AI_Runtime/Npu/ll_aton/ll_aton.c **** #endif
 360:Lib/AI_Runtime/Npu/ll_aton/ll_aton.c **** #ifdef ATON_RECBUF_NUM
 361:Lib/AI_Runtime/Npu/ll_aton/ll_aton.c ****     case RECBUF:
 362:Lib/AI_Runtime/Npu/ll_aton/ll_aton.c ****       ATON_ENABLE(RECBUF, unitId);
 363:Lib/AI_Runtime/Npu/ll_aton/ll_aton.c ****       break;
 364:Lib/AI_Runtime/Npu/ll_aton/ll_aton.c **** #endif
 365:Lib/AI_Runtime/Npu/ll_aton/ll_aton.c **** 
 366:Lib/AI_Runtime/Npu/ll_aton/ll_aton.c ****     default:
 367:Lib/AI_Runtime/Npu/ll_aton/ll_aton.c ****       break;
ARM GAS  C:\Users\DJESSOU\AppData\Local\Temp\ccFxekaC.s 			page 8


 368:Lib/AI_Runtime/Npu/ll_aton/ll_aton.c ****     }
 369:Lib/AI_Runtime/Npu/ll_aton/ll_aton.c ****   }
 370:Lib/AI_Runtime/Npu/ll_aton/ll_aton.c **** 
 371:Lib/AI_Runtime/Npu/ll_aton/ll_aton.c ****   return 0;
 372:Lib/AI_Runtime/Npu/ll_aton/ll_aton.c **** }
 373:Lib/AI_Runtime/Npu/ll_aton/ll_aton.c **** 
 374:Lib/AI_Runtime/Npu/ll_aton/ll_aton.c **** /**
 375:Lib/AI_Runtime/Npu/ll_aton/ll_aton.c ****  * @brief  Disables a set of ATON units
 376:Lib/AI_Runtime/Npu/ll_aton/ll_aton.c ****  * @param  LL_ATON_DisableUnits_InitTypeDef Array of units to disable
 377:Lib/AI_Runtime/Npu/ll_aton/ll_aton.c ****  * @param  n Length of the initialization array
 378:Lib/AI_Runtime/Npu/ll_aton/ll_aton.c ****  * @retval Error code
 379:Lib/AI_Runtime/Npu/ll_aton/ll_aton.c ****  */
 380:Lib/AI_Runtime/Npu/ll_aton/ll_aton.c **** int LL_ATON_DisableUnits_Init(const LL_ATON_DisableUnits_InitTypeDef *LL_ATON_DisableUnits_InitStru
 381:Lib/AI_Runtime/Npu/ll_aton/ll_aton.c **** {
 382:Lib/AI_Runtime/Npu/ll_aton/ll_aton.c ****   int i;
 383:Lib/AI_Runtime/Npu/ll_aton/ll_aton.c ****   enum AccelUnitsType unitType;
 384:Lib/AI_Runtime/Npu/ll_aton/ll_aton.c ****   uint32_t unitId;
 385:Lib/AI_Runtime/Npu/ll_aton/ll_aton.c ****   uint32_t t;
 386:Lib/AI_Runtime/Npu/ll_aton/ll_aton.c **** 
 387:Lib/AI_Runtime/Npu/ll_aton/ll_aton.c ****   for (i = 0; i < n; i++)
 388:Lib/AI_Runtime/Npu/ll_aton/ll_aton.c ****   {
 389:Lib/AI_Runtime/Npu/ll_aton/ll_aton.c ****     unitType = LL_ATON_DisableUnits_InitStruct[i].unit.unit_type;
 390:Lib/AI_Runtime/Npu/ll_aton/ll_aton.c ****     unitId = LL_ATON_DisableUnits_InitStruct[i].unit.unit_num;
 391:Lib/AI_Runtime/Npu/ll_aton/ll_aton.c **** 
 392:Lib/AI_Runtime/Npu/ll_aton/ll_aton.c ****     switch (unitType)
 393:Lib/AI_Runtime/Npu/ll_aton/ll_aton.c ****     {
 394:Lib/AI_Runtime/Npu/ll_aton/ll_aton.c **** #ifdef ATON_STRENG_NUM
 395:Lib/AI_Runtime/Npu/ll_aton/ll_aton.c ****     case STRENG:
 396:Lib/AI_Runtime/Npu/ll_aton/ll_aton.c ****       ATON_DISABLE(STRENG, unitId);
 397:Lib/AI_Runtime/Npu/ll_aton/ll_aton.c ****       LL_ATON_DisableClock(ATON_STRENG_CLKB_CLK(unitId));
 398:Lib/AI_Runtime/Npu/ll_aton/ll_aton.c ****       break;
 399:Lib/AI_Runtime/Npu/ll_aton/ll_aton.c **** #endif
 400:Lib/AI_Runtime/Npu/ll_aton/ll_aton.c **** 
 401:Lib/AI_Runtime/Npu/ll_aton/ll_aton.c **** #ifdef ATON_CONVACC_NUM
 402:Lib/AI_Runtime/Npu/ll_aton/ll_aton.c ****     case CONVACC:
 403:Lib/AI_Runtime/Npu/ll_aton/ll_aton.c ****       ATON_DISABLE(CONVACC, unitId);
 404:Lib/AI_Runtime/Npu/ll_aton/ll_aton.c ****       LL_ATON_DisableClock(ATON_CONVACC_CLKB_CLK(unitId));
 405:Lib/AI_Runtime/Npu/ll_aton/ll_aton.c ****       break;
 406:Lib/AI_Runtime/Npu/ll_aton/ll_aton.c **** #endif
 407:Lib/AI_Runtime/Npu/ll_aton/ll_aton.c **** 
 408:Lib/AI_Runtime/Npu/ll_aton/ll_aton.c **** #ifdef ATON_DECUN_NUM
 409:Lib/AI_Runtime/Npu/ll_aton/ll_aton.c ****     case DECUN:
 410:Lib/AI_Runtime/Npu/ll_aton/ll_aton.c ****       ATON_DISABLE(DECUN, unitId);
 411:Lib/AI_Runtime/Npu/ll_aton/ll_aton.c ****       LL_ATON_DisableClock(ATON_DECUN_CLKB_CLK(unitId));
 412:Lib/AI_Runtime/Npu/ll_aton/ll_aton.c ****       break;
 413:Lib/AI_Runtime/Npu/ll_aton/ll_aton.c **** #endif
 414:Lib/AI_Runtime/Npu/ll_aton/ll_aton.c **** 
 415:Lib/AI_Runtime/Npu/ll_aton/ll_aton.c **** #ifdef ATON_ACTIV_NUM
 416:Lib/AI_Runtime/Npu/ll_aton/ll_aton.c ****     case ACTIV:
 417:Lib/AI_Runtime/Npu/ll_aton/ll_aton.c ****       ATON_DISABLE(ACTIV, unitId);
 418:Lib/AI_Runtime/Npu/ll_aton/ll_aton.c ****       LL_ATON_DisableClock(ATON_ACTIV_CLKB_CLK(unitId));
 419:Lib/AI_Runtime/Npu/ll_aton/ll_aton.c ****       break;
 420:Lib/AI_Runtime/Npu/ll_aton/ll_aton.c **** #endif
 421:Lib/AI_Runtime/Npu/ll_aton/ll_aton.c **** 
 422:Lib/AI_Runtime/Npu/ll_aton/ll_aton.c **** #ifdef ATON_ARITH_NUM
 423:Lib/AI_Runtime/Npu/ll_aton/ll_aton.c ****     case ARITH:
 424:Lib/AI_Runtime/Npu/ll_aton/ll_aton.c ****       ATON_DISABLE(ARITH, unitId);
ARM GAS  C:\Users\DJESSOU\AppData\Local\Temp\ccFxekaC.s 			page 9


 425:Lib/AI_Runtime/Npu/ll_aton/ll_aton.c ****       LL_ATON_DisableClock(ATON_ARITH_CLKB_CLK(unitId));
 426:Lib/AI_Runtime/Npu/ll_aton/ll_aton.c ****       break;
 427:Lib/AI_Runtime/Npu/ll_aton/ll_aton.c **** #endif
 428:Lib/AI_Runtime/Npu/ll_aton/ll_aton.c **** 
 429:Lib/AI_Runtime/Npu/ll_aton/ll_aton.c **** #ifdef ATON_POOL_NUM
 430:Lib/AI_Runtime/Npu/ll_aton/ll_aton.c ****     case POOL:
 431:Lib/AI_Runtime/Npu/ll_aton/ll_aton.c **** #ifdef POOL_RC14
 432:Lib/AI_Runtime/Npu/ll_aton/ll_aton.c ****       ATON_POOL_CTRL_SET(unitId, ATON_POOL_CTRL_SET_EN(ATON_POOL_CTRL_GET(unitId), 0));
 433:Lib/AI_Runtime/Npu/ll_aton/ll_aton.c **** #else  // !POOL_RC14
 434:Lib/AI_Runtime/Npu/ll_aton/ll_aton.c ****       ATON_DISABLE(POOL, unitId);
 435:Lib/AI_Runtime/Npu/ll_aton/ll_aton.c **** #endif // !POOL_RC14
 436:Lib/AI_Runtime/Npu/ll_aton/ll_aton.c **** 
 437:Lib/AI_Runtime/Npu/ll_aton/ll_aton.c ****       LL_ATON_DisableClock(ATON_POOL_CLKB_CLK(unitId));
 438:Lib/AI_Runtime/Npu/ll_aton/ll_aton.c ****       break;
 439:Lib/AI_Runtime/Npu/ll_aton/ll_aton.c **** #endif
 440:Lib/AI_Runtime/Npu/ll_aton/ll_aton.c **** 
 441:Lib/AI_Runtime/Npu/ll_aton/ll_aton.c **** #ifdef ATON_RECBUF_NUM
 442:Lib/AI_Runtime/Npu/ll_aton/ll_aton.c ****     case RECBUF:
 443:Lib/AI_Runtime/Npu/ll_aton/ll_aton.c ****       ATON_DISABLE(RECBUF, unitId);
 444:Lib/AI_Runtime/Npu/ll_aton/ll_aton.c ****       LL_ATON_DisableClock(ATON_RECBUF_CLKB_CLK(unitId));
 445:Lib/AI_Runtime/Npu/ll_aton/ll_aton.c ****       break;
 446:Lib/AI_Runtime/Npu/ll_aton/ll_aton.c **** #endif
 447:Lib/AI_Runtime/Npu/ll_aton/ll_aton.c **** 
 448:Lib/AI_Runtime/Npu/ll_aton/ll_aton.c ****     default:
 449:Lib/AI_Runtime/Npu/ll_aton/ll_aton.c ****       return LL_ATON_INVALID_PARAM;
 450:Lib/AI_Runtime/Npu/ll_aton/ll_aton.c ****     }
 451:Lib/AI_Runtime/Npu/ll_aton/ll_aton.c ****   }
 452:Lib/AI_Runtime/Npu/ll_aton/ll_aton.c **** 
 453:Lib/AI_Runtime/Npu/ll_aton/ll_aton.c ****   return LL_ATON_OK;
 454:Lib/AI_Runtime/Npu/ll_aton/ll_aton.c **** }
 455:Lib/AI_Runtime/Npu/ll_aton/ll_aton.c **** 
 456:Lib/AI_Runtime/Npu/ll_aton/ll_aton.c **** /**
 457:Lib/AI_Runtime/Npu/ll_aton/ll_aton.c ****  * @brief  Waits for streaming engine(s) to become idle
 458:Lib/AI_Runtime/Npu/ll_aton/ll_aton.c ****  * @param  mask Bitmask of DMA identifiers
 459:Lib/AI_Runtime/Npu/ll_aton/ll_aton.c ****  * @retval Error code
 460:Lib/AI_Runtime/Npu/ll_aton/ll_aton.c ****  */
 461:Lib/AI_Runtime/Npu/ll_aton/ll_aton.c **** int LL_Streng_Wait(uint32_t mask)
 462:Lib/AI_Runtime/Npu/ll_aton/ll_aton.c **** {
 463:Lib/AI_Runtime/Npu/ll_aton/ll_aton.c ****   int i;
 464:Lib/AI_Runtime/Npu/ll_aton/ll_aton.c ****   uint32_t enableFlags;
 465:Lib/AI_Runtime/Npu/ll_aton/ll_aton.c **** 
 466:Lib/AI_Runtime/Npu/ll_aton/ll_aton.c ****   startWatchdog(ATON_EPOCH_TIMEOUT);
 467:Lib/AI_Runtime/Npu/ll_aton/ll_aton.c **** 
 468:Lib/AI_Runtime/Npu/ll_aton/ll_aton.c ****   do
 469:Lib/AI_Runtime/Npu/ll_aton/ll_aton.c ****   {
 470:Lib/AI_Runtime/Npu/ll_aton/ll_aton.c ****     enableFlags = 0;
 471:Lib/AI_Runtime/Npu/ll_aton/ll_aton.c ****     for (i = 0; i < ATON_STRENG_NUM; i++)
 472:Lib/AI_Runtime/Npu/ll_aton/ll_aton.c ****     {
 473:Lib/AI_Runtime/Npu/ll_aton/ll_aton.c ****       if (mask & (1 << i))
 474:Lib/AI_Runtime/Npu/ll_aton/ll_aton.c ****       {
 475:Lib/AI_Runtime/Npu/ll_aton/ll_aton.c ****         enableFlags |= (ATON_STRENG_CTRL_GET(i) & (1U << ATON_STRENG_CTRL_RUNNING_LSB));
 476:Lib/AI_Runtime/Npu/ll_aton/ll_aton.c ****       }
 477:Lib/AI_Runtime/Npu/ll_aton/ll_aton.c ****     }
 478:Lib/AI_Runtime/Npu/ll_aton/ll_aton.c **** 
 479:Lib/AI_Runtime/Npu/ll_aton/ll_aton.c ****     LL_ATON_ASSERT(checkWatchdog() == 0);
 480:Lib/AI_Runtime/Npu/ll_aton/ll_aton.c **** 
 481:Lib/AI_Runtime/Npu/ll_aton/ll_aton.c ****   } while (enableFlags);
ARM GAS  C:\Users\DJESSOU\AppData\Local\Temp\ccFxekaC.s 			page 10


 482:Lib/AI_Runtime/Npu/ll_aton/ll_aton.c **** 
 483:Lib/AI_Runtime/Npu/ll_aton/ll_aton.c ****   return LL_ATON_OK;
 484:Lib/AI_Runtime/Npu/ll_aton/ll_aton.c **** }
 485:Lib/AI_Runtime/Npu/ll_aton/ll_aton.c **** 
 486:Lib/AI_Runtime/Npu/ll_aton/ll_aton.c **** /**
 487:Lib/AI_Runtime/Npu/ll_aton/ll_aton.c ****  * @brief  Configures streaming engine
 488:Lib/AI_Runtime/Npu/ll_aton/ll_aton.c ****  * @param  id Streaming engine identifier [0..ATON_STRENG_NUM-1]
 489:Lib/AI_Runtime/Npu/ll_aton/ll_aton.c ****  * @param  conf Pointer to structure(s) describing initialization parameters
 490:Lib/AI_Runtime/Npu/ll_aton/ll_aton.c ****  * @param  n Number of elements in initialization structure array
 491:Lib/AI_Runtime/Npu/ll_aton/ll_aton.c ****  * @retval error code. E.g.: Invalid ID, invalid parameters, not idle,..
 492:Lib/AI_Runtime/Npu/ll_aton/ll_aton.c ****  */
 493:Lib/AI_Runtime/Npu/ll_aton/ll_aton.c **** int LL_Streng_TensorInit(int id, const LL_Streng_TensorInitTypeDef *conf, int n)
 494:Lib/AI_Runtime/Npu/ll_aton/ll_aton.c **** {
 495:Lib/AI_Runtime/Npu/ll_aton/ll_aton.c ****   uint32_t t;
 496:Lib/AI_Runtime/Npu/ll_aton/ll_aton.c **** 
 497:Lib/AI_Runtime/Npu/ll_aton/ll_aton.c ****   /* deferred register values */
 498:Lib/AI_Runtime/Npu/ll_aton/ll_aton.c ****   uint32_t t_streng_strd = ATON_STRENG_STRD_DT;
 499:Lib/AI_Runtime/Npu/ll_aton/ll_aton.c ****   uint32_t t_streng_cid_cache = ATON_STRENG_CID_CACHE_DT;
 500:Lib/AI_Runtime/Npu/ll_aton/ll_aton.c ****   uint32_t t_streng_event = ATON_STRENG_EVENT_DT;
 501:Lib/AI_Runtime/Npu/ll_aton/ll_aton.c **** 
 502:Lib/AI_Runtime/Npu/ll_aton/ll_aton.c ****   if (id >= ATON_STRENG_NUM)
 503:Lib/AI_Runtime/Npu/ll_aton/ll_aton.c ****     return LL_ATON_INVALID_ID;
 504:Lib/AI_Runtime/Npu/ll_aton/ll_aton.c **** 
 505:Lib/AI_Runtime/Npu/ll_aton/ll_aton.c ****   LL_ATON_EnableClock(ATON_STRENG_CLKB_CLK(id));
 506:Lib/AI_Runtime/Npu/ll_aton/ll_aton.c **** 
 507:Lib/AI_Runtime/Npu/ll_aton/ll_aton.c **** #define _LL_min(x, y) ((x) > (y) ? (y) : (x))
 508:Lib/AI_Runtime/Npu/ll_aton/ll_aton.c **** 
 509:Lib/AI_Runtime/Npu/ll_aton/ll_aton.c ****   if (n != 1)
 510:Lib/AI_Runtime/Npu/ll_aton/ll_aton.c ****     return -1;
 511:Lib/AI_Runtime/Npu/ll_aton/ll_aton.c ****     // if (conf->dir == 0 && (conf->nbits_in > conf->nbits_out)) return -1;
 512:Lib/AI_Runtime/Npu/ll_aton/ll_aton.c **** #ifndef ATON_IMC_NUM
 513:Lib/AI_Runtime/Npu/ll_aton/ll_aton.c ****   if (conf->nbits_in > 24 || conf->nbits_out > 24)
 514:Lib/AI_Runtime/Npu/ll_aton/ll_aton.c ****     return -1;
 515:Lib/AI_Runtime/Npu/ll_aton/ll_aton.c **** #endif
 516:Lib/AI_Runtime/Npu/ll_aton/ll_aton.c **** 
 517:Lib/AI_Runtime/Npu/ll_aton/ll_aton.c ****   t = ATON_STRENG_CTRL_DT;
 518:Lib/AI_Runtime/Npu/ll_aton/ll_aton.c ****   t = ATON_STRENG_CTRL_SET_DIR(t, (conf->dir != 0));
 519:Lib/AI_Runtime/Npu/ll_aton/ll_aton.c ****   t = ATON_STRENG_CTRL_SET_RAW(t, (conf->raw != 0));
 520:Lib/AI_Runtime/Npu/ll_aton/ll_aton.c **** #ifdef ATON_STRENG_CTRL_SET_RAW_OUT
 521:Lib/AI_Runtime/Npu/ll_aton/ll_aton.c ****   t = ATON_STRENG_CTRL_SET_RAW_OUT(t, conf->raw_out);
 522:Lib/AI_Runtime/Npu/ll_aton/ll_aton.c **** #else
 523:Lib/AI_Runtime/Npu/ll_aton/ll_aton.c ****   /* Hardware feature not supported */
 524:Lib/AI_Runtime/Npu/ll_aton/ll_aton.c ****   LL_ATON_ASSERT(conf->raw_out == 0);
 525:Lib/AI_Runtime/Npu/ll_aton/ll_aton.c **** #endif
 526:Lib/AI_Runtime/Npu/ll_aton/ll_aton.c ****   t = ATON_STRENG_CTRL_SET_NOBLK(t, (conf->noblk != 0));
 527:Lib/AI_Runtime/Npu/ll_aton/ll_aton.c ****   t = ATON_STRENG_CTRL_SET_NOINC(t, (conf->noinc == 1));
 528:Lib/AI_Runtime/Npu/ll_aton/ll_aton.c ****   t = ATON_STRENG_CTRL_SET_SINGLE(t, conf->frame_tot_cnt == 1);
 529:Lib/AI_Runtime/Npu/ll_aton/ll_aton.c ****   t = ATON_STRENG_CTRL_SET_CONT(t, conf->continuous == 1);
 530:Lib/AI_Runtime/Npu/ll_aton/ll_aton.c ****   t = ATON_STRENG_CTRL_SET_LSBMODE(t, conf->align_right == 1);
 531:Lib/AI_Runtime/Npu/ll_aton/ll_aton.c ****   t = ATON_STRENG_CTRL_SET_SIGNEXT(t, conf->align_right == 1 && conf->nbits_unsigned == 0);
 532:Lib/AI_Runtime/Npu/ll_aton/ll_aton.c **** 
 533:Lib/AI_Runtime/Npu/ll_aton/ll_aton.c ****   int ch_bits[3] = {0, 0, 0};
 534:Lib/AI_Runtime/Npu/ll_aton/ll_aton.c ****   int in_bits[3];
 535:Lib/AI_Runtime/Npu/ll_aton/ll_aton.c ****   int out_bits[3];
 536:Lib/AI_Runtime/Npu/ll_aton/ll_aton.c ****   int nbits_out = conf->nbits_out;
 537:Lib/AI_Runtime/Npu/ll_aton/ll_aton.c ****   int nbits_in = conf->nbits_in;
 538:Lib/AI_Runtime/Npu/ll_aton/ll_aton.c **** 
ARM GAS  C:\Users\DJESSOU\AppData\Local\Temp\ccFxekaC.s 			page 11


 539:Lib/AI_Runtime/Npu/ll_aton/ll_aton.c ****   // case 0: bus -> stream --> in_bits > out_bits -> use FRONT_GAP
 540:Lib/AI_Runtime/Npu/ll_aton/ll_aton.c ****   //                      |
 541:Lib/AI_Runtime/Npu/ll_aton/ll_aton.c ****   // case 1:              --> in_bits <= out_bits -> use lanes but valid for out_bits=8,16,24 for o
 542:Lib/AI_Runtime/Npu/ll_aton/ll_aton.c ****   // is right shifted by (8,16,24) - out_bits
 543:Lib/AI_Runtime/Npu/ll_aton/ll_aton.c ****   //
 544:Lib/AI_Runtime/Npu/ll_aton/ll_aton.c ****   // case 2: stream->bus  --> in_bits >= out_bits -> use lanes but valid for in_bits=8,16,24 for ot
 545:Lib/AI_Runtime/Npu/ll_aton/ll_aton.c ****   // right shifted by (8,16,24) - out_bits
 546:Lib/AI_Runtime/Npu/ll_aton/ll_aton.c ****   //                      |
 547:Lib/AI_Runtime/Npu/ll_aton/ll_aton.c ****   // case 3:              --> in_bits < out_bits -> use FRONT_GAP
 548:Lib/AI_Runtime/Npu/ll_aton/ll_aton.c **** 
 549:Lib/AI_Runtime/Npu/ll_aton/ll_aton.c ****   int io_case = ((conf->dir != 0) << 1);
 550:Lib/AI_Runtime/Npu/ll_aton/ll_aton.c ****   io_case += (conf->dir == 0 ? (conf->nbits_in <= conf->nbits_out) : (conf->nbits_in < conf->nbits_
 551:Lib/AI_Runtime/Npu/ll_aton/ll_aton.c **** 
 552:Lib/AI_Runtime/Npu/ll_aton/ll_aton.c ****   switch (io_case)
 553:Lib/AI_Runtime/Npu/ll_aton/ll_aton.c ****   {
 554:Lib/AI_Runtime/Npu/ll_aton/ll_aton.c ****   case 0: // in_bits > out_bits && bus->stream
 555:Lib/AI_Runtime/Npu/ll_aton/ll_aton.c ****           // must use FRONT_GAP
 556:Lib/AI_Runtime/Npu/ll_aton/ll_aton.c ****   {
 557:Lib/AI_Runtime/Npu/ll_aton/ll_aton.c ****     if (conf->mem_lsb)
 558:Lib/AI_Runtime/Npu/ll_aton/ll_aton.c ****       t_streng_strd = ATON_STRENG_STRD_SET_FGAP(t_streng_strd, (nbits_in - nbits_out));
 559:Lib/AI_Runtime/Npu/ll_aton/ll_aton.c ****     else
 560:Lib/AI_Runtime/Npu/ll_aton/ll_aton.c ****       t_streng_strd = ATON_STRENG_STRD_SET_BGAP(t_streng_strd, (nbits_in - nbits_out));
 561:Lib/AI_Runtime/Npu/ll_aton/ll_aton.c ****     nbits_in = nbits_out;
 562:Lib/AI_Runtime/Npu/ll_aton/ll_aton.c ****   }
 563:Lib/AI_Runtime/Npu/ll_aton/ll_aton.c ****   // intentional fall through
 564:Lib/AI_Runtime/Npu/ll_aton/ll_aton.c ****   case 1: // in_bits <= out_bits && bus->stream
 565:Lib/AI_Runtime/Npu/ll_aton/ll_aton.c ****     in_bits[0] = _LL_min(8, nbits_in);
 566:Lib/AI_Runtime/Npu/ll_aton/ll_aton.c ****     in_bits[1] = nbits_in > 8 ? _LL_min(8, nbits_in - 8) : 0;
 567:Lib/AI_Runtime/Npu/ll_aton/ll_aton.c ****     in_bits[2] = nbits_in > 16 ? _LL_min(8, nbits_in - 16) : 0;
 568:Lib/AI_Runtime/Npu/ll_aton/ll_aton.c ****     if (conf->align_right)
 569:Lib/AI_Runtime/Npu/ll_aton/ll_aton.c ****     {
 570:Lib/AI_Runtime/Npu/ll_aton/ll_aton.c ****       ch_bits[0] = in_bits[0];
 571:Lib/AI_Runtime/Npu/ll_aton/ll_aton.c ****       ch_bits[1] = in_bits[1];
 572:Lib/AI_Runtime/Npu/ll_aton/ll_aton.c ****       ch_bits[2] = in_bits[2];
 573:Lib/AI_Runtime/Npu/ll_aton/ll_aton.c ****     }
 574:Lib/AI_Runtime/Npu/ll_aton/ll_aton.c ****     else
 575:Lib/AI_Runtime/Npu/ll_aton/ll_aton.c ****     {
 576:Lib/AI_Runtime/Npu/ll_aton/ll_aton.c ****       if (nbits_out > 16)
 577:Lib/AI_Runtime/Npu/ll_aton/ll_aton.c ****       {
 578:Lib/AI_Runtime/Npu/ll_aton/ll_aton.c ****         ch_bits[2] = in_bits[0];
 579:Lib/AI_Runtime/Npu/ll_aton/ll_aton.c ****         ch_bits[1] = in_bits[1];
 580:Lib/AI_Runtime/Npu/ll_aton/ll_aton.c ****         ch_bits[0] = in_bits[2];
 581:Lib/AI_Runtime/Npu/ll_aton/ll_aton.c ****       }
 582:Lib/AI_Runtime/Npu/ll_aton/ll_aton.c ****       else if (nbits_out > 8)
 583:Lib/AI_Runtime/Npu/ll_aton/ll_aton.c ****       {
 584:Lib/AI_Runtime/Npu/ll_aton/ll_aton.c ****         ch_bits[1] = in_bits[0];
 585:Lib/AI_Runtime/Npu/ll_aton/ll_aton.c ****         ch_bits[0] = in_bits[1];
 586:Lib/AI_Runtime/Npu/ll_aton/ll_aton.c ****       } // N.B. the DMA stuffs the bits to the left of the channel
 587:Lib/AI_Runtime/Npu/ll_aton/ll_aton.c ****       else
 588:Lib/AI_Runtime/Npu/ll_aton/ll_aton.c ****         ch_bits[0] = in_bits[0];
 589:Lib/AI_Runtime/Npu/ll_aton/ll_aton.c ****     }
 590:Lib/AI_Runtime/Npu/ll_aton/ll_aton.c ****     break;
 591:Lib/AI_Runtime/Npu/ll_aton/ll_aton.c ****   case 3: // in_bits < out_bits && stream->bus
 592:Lib/AI_Runtime/Npu/ll_aton/ll_aton.c ****   {
 593:Lib/AI_Runtime/Npu/ll_aton/ll_aton.c ****     if (conf->mem_lsb)
 594:Lib/AI_Runtime/Npu/ll_aton/ll_aton.c ****       t_streng_strd = ATON_STRENG_STRD_SET_FGAP(t_streng_strd, (nbits_out - nbits_in));
 595:Lib/AI_Runtime/Npu/ll_aton/ll_aton.c ****     else
ARM GAS  C:\Users\DJESSOU\AppData\Local\Temp\ccFxekaC.s 			page 12


 596:Lib/AI_Runtime/Npu/ll_aton/ll_aton.c ****       t_streng_strd = ATON_STRENG_STRD_SET_BGAP(t_streng_strd, (nbits_out - nbits_in));
 597:Lib/AI_Runtime/Npu/ll_aton/ll_aton.c ****     nbits_out = nbits_in;
 598:Lib/AI_Runtime/Npu/ll_aton/ll_aton.c ****   }
 599:Lib/AI_Runtime/Npu/ll_aton/ll_aton.c ****   // intentional fall through
 600:Lib/AI_Runtime/Npu/ll_aton/ll_aton.c ****   case 2: // in_bits >= out_bits && stream->bus
 601:Lib/AI_Runtime/Npu/ll_aton/ll_aton.c ****     out_bits[0] = _LL_min(8, nbits_out);
 602:Lib/AI_Runtime/Npu/ll_aton/ll_aton.c ****     out_bits[1] = nbits_out > 8 ? _LL_min(8, nbits_out - 8) : 0;
 603:Lib/AI_Runtime/Npu/ll_aton/ll_aton.c ****     out_bits[2] = nbits_out > 16 ? _LL_min(8, nbits_out - 16) : 0;
 604:Lib/AI_Runtime/Npu/ll_aton/ll_aton.c ****     if (conf->align_right)
 605:Lib/AI_Runtime/Npu/ll_aton/ll_aton.c ****     {
 606:Lib/AI_Runtime/Npu/ll_aton/ll_aton.c ****       ch_bits[0] = out_bits[0];
 607:Lib/AI_Runtime/Npu/ll_aton/ll_aton.c ****       ch_bits[1] = out_bits[1];
 608:Lib/AI_Runtime/Npu/ll_aton/ll_aton.c ****       ch_bits[2] = out_bits[2];
 609:Lib/AI_Runtime/Npu/ll_aton/ll_aton.c ****     }
 610:Lib/AI_Runtime/Npu/ll_aton/ll_aton.c ****     else
 611:Lib/AI_Runtime/Npu/ll_aton/ll_aton.c ****     {
 612:Lib/AI_Runtime/Npu/ll_aton/ll_aton.c ****       if (nbits_in > 16)
 613:Lib/AI_Runtime/Npu/ll_aton/ll_aton.c ****       {
 614:Lib/AI_Runtime/Npu/ll_aton/ll_aton.c ****         ch_bits[2] = out_bits[0];
 615:Lib/AI_Runtime/Npu/ll_aton/ll_aton.c ****         ch_bits[1] = out_bits[1];
 616:Lib/AI_Runtime/Npu/ll_aton/ll_aton.c ****         ch_bits[0] = out_bits[2];
 617:Lib/AI_Runtime/Npu/ll_aton/ll_aton.c ****       }
 618:Lib/AI_Runtime/Npu/ll_aton/ll_aton.c ****       else if (nbits_in > 8)
 619:Lib/AI_Runtime/Npu/ll_aton/ll_aton.c ****       {
 620:Lib/AI_Runtime/Npu/ll_aton/ll_aton.c ****         ch_bits[1] = out_bits[0];
 621:Lib/AI_Runtime/Npu/ll_aton/ll_aton.c ****         ch_bits[0] = out_bits[1];
 622:Lib/AI_Runtime/Npu/ll_aton/ll_aton.c ****       } // N.B. the DMA stuffs the bits to the left of the channel
 623:Lib/AI_Runtime/Npu/ll_aton/ll_aton.c ****       else
 624:Lib/AI_Runtime/Npu/ll_aton/ll_aton.c ****         ch_bits[0] = out_bits[0];
 625:Lib/AI_Runtime/Npu/ll_aton/ll_aton.c ****     }
 626:Lib/AI_Runtime/Npu/ll_aton/ll_aton.c ****     break;
 627:Lib/AI_Runtime/Npu/ll_aton/ll_aton.c ****   }
 628:Lib/AI_Runtime/Npu/ll_aton/ll_aton.c **** 
 629:Lib/AI_Runtime/Npu/ll_aton/ll_aton.c **** /* Take care of N64 single size register. TODO: double check this  */
 630:Lib/AI_Runtime/Npu/ll_aton/ll_aton.c **** #ifdef ATON_STRENG_CTRL_SET_SIZE1
 631:Lib/AI_Runtime/Npu/ll_aton/ll_aton.c ****   t = ATON_STRENG_CTRL_SET_SIZE0(t, ch_bits[0]);
 632:Lib/AI_Runtime/Npu/ll_aton/ll_aton.c ****   t = ATON_STRENG_CTRL_SET_SIZE1(t, ch_bits[1]);
 633:Lib/AI_Runtime/Npu/ll_aton/ll_aton.c ****   t = ATON_STRENG_CTRL_SET_SIZE2(t, ch_bits[2]);
 634:Lib/AI_Runtime/Npu/ll_aton/ll_aton.c **** #else
 635:Lib/AI_Runtime/Npu/ll_aton/ll_aton.c ****   if (conf->dir)
 636:Lib/AI_Runtime/Npu/ll_aton/ll_aton.c ****     t = ATON_STRENG_CTRL_SET_SIZE0(t, conf->nbits_out);
 637:Lib/AI_Runtime/Npu/ll_aton/ll_aton.c ****   else
 638:Lib/AI_Runtime/Npu/ll_aton/ll_aton.c ****     t = ATON_STRENG_CTRL_SET_SIZE0(t, conf->nbits_in);
 639:Lib/AI_Runtime/Npu/ll_aton/ll_aton.c **** #endif
 640:Lib/AI_Runtime/Npu/ll_aton/ll_aton.c **** 
 641:Lib/AI_Runtime/Npu/ll_aton/ll_aton.c ****   ATON_STRENG_CTRL_SET(id, t);
 642:Lib/AI_Runtime/Npu/ll_aton/ll_aton.c **** 
 643:Lib/AI_Runtime/Npu/ll_aton/ll_aton.c ****   // ATON_STRENG_ADDR_SET(id, conf->addr_start.i);
 644:Lib/AI_Runtime/Npu/ll_aton/ll_aton.c ****   ATON_REG_WRITE_RELOC(((volatile uint32_t *)(uintptr_t)ATON_STRENG_ADDR_ADDR(id)), conf->addr_base
 645:Lib/AI_Runtime/Npu/ll_aton/ll_aton.c ****                        conf->offset_start);
 646:Lib/AI_Runtime/Npu/ll_aton/ll_aton.c **** 
 647:Lib/AI_Runtime/Npu/ll_aton/ll_aton.c ****   if (conf->raw)
 648:Lib/AI_Runtime/Npu/ll_aton/ll_aton.c ****   {
 649:Lib/AI_Runtime/Npu/ll_aton/ll_aton.c ****     if (conf->frame_count)
 650:Lib/AI_Runtime/Npu/ll_aton/ll_aton.c ****       t = conf->frame_count;
 651:Lib/AI_Runtime/Npu/ll_aton/ll_aton.c ****     else
 652:Lib/AI_Runtime/Npu/ll_aton/ll_aton.c ****     {
ARM GAS  C:\Users\DJESSOU\AppData\Local\Temp\ccFxekaC.s 			page 13


 653:Lib/AI_Runtime/Npu/ll_aton/ll_aton.c ****       // N.B. end - start must contain padding if nbits_in is not power of two
 654:Lib/AI_Runtime/Npu/ll_aton/ll_aton.c ****       t = (LL_Streng_len(conf) * 8) / (conf->dir == 0 ? conf->nbits_in : conf->nbits_out);
 655:Lib/AI_Runtime/Npu/ll_aton/ll_aton.c ****     }
 656:Lib/AI_Runtime/Npu/ll_aton/ll_aton.c ****     ATON_STRENG_FSIZE_SET(id, t);
 657:Lib/AI_Runtime/Npu/ll_aton/ll_aton.c ****   }
 658:Lib/AI_Runtime/Npu/ll_aton/ll_aton.c ****   else
 659:Lib/AI_Runtime/Npu/ll_aton/ll_aton.c ****   {
 660:Lib/AI_Runtime/Npu/ll_aton/ll_aton.c ****     t = ATON_STRENG_FSIZE_DT;
 661:Lib/AI_Runtime/Npu/ll_aton/ll_aton.c ****     t = ATON_STRENG_FSIZE_SET_WIDTH(t, conf->fwidth);
 662:Lib/AI_Runtime/Npu/ll_aton/ll_aton.c ****     t = ATON_STRENG_FSIZE_SET_HEIGHT(t, conf->fheight);
 663:Lib/AI_Runtime/Npu/ll_aton/ll_aton.c ****     ATON_STRENG_FSIZE_SET(id, t);
 664:Lib/AI_Runtime/Npu/ll_aton/ll_aton.c **** 
 665:Lib/AI_Runtime/Npu/ll_aton/ll_aton.c ****     uint32_t line_offset = conf->line_offset == 0 ? conf->fwidth * conf->batch_offset : conf->line_
 666:Lib/AI_Runtime/Npu/ll_aton/ll_aton.c ****     // if line_offset is left=0 then it's computed from the standard geometry of lines and batch
 667:Lib/AI_Runtime/Npu/ll_aton/ll_aton.c ****     t_streng_strd = ATON_STRENG_STRD_SET_LOFF(t_streng_strd, line_offset);
 668:Lib/AI_Runtime/Npu/ll_aton/ll_aton.c **** 
 669:Lib/AI_Runtime/Npu/ll_aton/ll_aton.c **** #if defined(ATON_STRENG_CID_CACHE_SET_LOFF_MSB)
 670:Lib/AI_Runtime/Npu/ll_aton/ll_aton.c ****     t = t_streng_cid_cache;
 671:Lib/AI_Runtime/Npu/ll_aton/ll_aton.c ****     t = ATON_STRENG_CID_CACHE_SET_LOFF_MSB(t, (line_offset >> ATON_STRENG_STRD_LOFF_W));
 672:Lib/AI_Runtime/Npu/ll_aton/ll_aton.c ****     t_streng_cid_cache = t;
 673:Lib/AI_Runtime/Npu/ll_aton/ll_aton.c **** #endif
 674:Lib/AI_Runtime/Npu/ll_aton/ll_aton.c **** 
 675:Lib/AI_Runtime/Npu/ll_aton/ll_aton.c ****     t = ATON_STRENG_DEPTH_DT;
 676:Lib/AI_Runtime/Npu/ll_aton/ll_aton.c ****     t = ATON_STRENG_DEPTH_SET_SIZE(t, conf->batch_depth);
 677:Lib/AI_Runtime/Npu/ll_aton/ll_aton.c ****     t = ATON_STRENG_DEPTH_SET_OFFSET(t, conf->batch_offset);
 678:Lib/AI_Runtime/Npu/ll_aton/ll_aton.c ****     ATON_STRENG_DEPTH_SET(id, t);
 679:Lib/AI_Runtime/Npu/ll_aton/ll_aton.c ****   }
 680:Lib/AI_Runtime/Npu/ll_aton/ll_aton.c **** 
 681:Lib/AI_Runtime/Npu/ll_aton/ll_aton.c ****   ATON_STRENG_FOFFSET_SET(id, conf->frame_offset);
 682:Lib/AI_Runtime/Npu/ll_aton/ll_aton.c **** 
 683:Lib/AI_Runtime/Npu/ll_aton/ll_aton.c ****   /* Frame repetition loop configuration */
 684:Lib/AI_Runtime/Npu/ll_aton/ll_aton.c ****   ATON_STRENG_FRPTOFF_SET(id, conf->loop_offset);
 685:Lib/AI_Runtime/Npu/ll_aton/ll_aton.c ****   ATON_STRENG_FRAME_RPT_SET(id, conf->frame_loop_cnt);
 686:Lib/AI_Runtime/Npu/ll_aton/ll_aton.c **** 
 687:Lib/AI_Runtime/Npu/ll_aton/ll_aton.c ****   /* Second level frame repetition loop configuration (if available) */
 688:Lib/AI_Runtime/Npu/ll_aton/ll_aton.c **** #ifdef ATON_STRENG_FRAME_RPT2_DT
 689:Lib/AI_Runtime/Npu/ll_aton/ll_aton.c ****   if (conf->frame_loop_cnt2 != ATON_STRENG_FRAME_RPT2_DT)
 690:Lib/AI_Runtime/Npu/ll_aton/ll_aton.c ****     ATON_STRENG_FRAME_RPT2_SET(id, conf->frame_loop_cnt2);
 691:Lib/AI_Runtime/Npu/ll_aton/ll_aton.c ****   if (conf->loop_offset2 != ATON_STRENG_FRPTOFF2_DT)
 692:Lib/AI_Runtime/Npu/ll_aton/ll_aton.c ****     ATON_STRENG_FRPTOFF2_SET(id, conf->loop_offset2);
 693:Lib/AI_Runtime/Npu/ll_aton/ll_aton.c **** #endif
 694:Lib/AI_Runtime/Npu/ll_aton/ll_aton.c **** 
 695:Lib/AI_Runtime/Npu/ll_aton/ll_aton.c ****   t = ATON_STRENG_LIMITEN_DT; // all other fields set to zero
 696:Lib/AI_Runtime/Npu/ll_aton/ll_aton.c ****   t = ATON_STRENG_LIMITEN_SET_FRAMELIMIT(t, 1);
 697:Lib/AI_Runtime/Npu/ll_aton/ll_aton.c **** #if defined(ATON_STRENG_LIMITEN_SET_DOFF_MSB)
 698:Lib/AI_Runtime/Npu/ll_aton/ll_aton.c ****   t = ATON_STRENG_LIMITEN_SET_DOFF_MSB(t, conf->batch_offset >> ATON_STRENG_DEPTH_OFFSET_W);
 699:Lib/AI_Runtime/Npu/ll_aton/ll_aton.c **** #endif
 700:Lib/AI_Runtime/Npu/ll_aton/ll_aton.c ****   ATON_STRENG_LIMITEN_SET(id, t);
 701:Lib/AI_Runtime/Npu/ll_aton/ll_aton.c **** 
 702:Lib/AI_Runtime/Npu/ll_aton/ll_aton.c ****   if (/*(conf->dir == 0) && */ (conf->offset_limit != 0x0))
 703:Lib/AI_Runtime/Npu/ll_aton/ll_aton.c ****   {
 704:Lib/AI_Runtime/Npu/ll_aton/ll_aton.c ****     t = ATON_STRENG_LIMITEN_SET_ADDRLIMIT(t, 1);
 705:Lib/AI_Runtime/Npu/ll_aton/ll_aton.c ****     t = ATON_STRENG_LIMITEN_SET_STOPPREFTC(t, 1);
 706:Lib/AI_Runtime/Npu/ll_aton/ll_aton.c ****     ATON_STRENG_LIMITEN_SET(id, t);
 707:Lib/AI_Runtime/Npu/ll_aton/ll_aton.c ****     // NOTE: limiter is to be set to last accessible byte address
 708:Lib/AI_Runtime/Npu/ll_aton/ll_aton.c ****     // ATON_STRENG_LIMITADDR_SET(id, (conf->addr_limit.i - 1));
 709:Lib/AI_Runtime/Npu/ll_aton/ll_aton.c ****     ATON_REG_WRITE_RELOC(((volatile uint32_t *)(uintptr_t)ATON_STRENG_LIMITADDR_ADDR(id)), conf->ad
ARM GAS  C:\Users\DJESSOU\AppData\Local\Temp\ccFxekaC.s 			page 14


 710:Lib/AI_Runtime/Npu/ll_aton/ll_aton.c ****                          conf->offset_limit - 1);
 711:Lib/AI_Runtime/Npu/ll_aton/ll_aton.c ****   }
 712:Lib/AI_Runtime/Npu/ll_aton/ll_aton.c **** 
 713:Lib/AI_Runtime/Npu/ll_aton/ll_aton.c ****   ATON_STRENG_LIMIT_SET(id, conf->frame_tot_cnt);
 714:Lib/AI_Runtime/Npu/ll_aton/ll_aton.c ****   // LL_ATON_PRINTF("frame_tot_cnt=%d\n", conf->frame_tot_cnt);
 715:Lib/AI_Runtime/Npu/ll_aton/ll_aton.c **** 
 716:Lib/AI_Runtime/Npu/ll_aton/ll_aton.c **** #if defined(ATON_STRENG_CID_CACHE_SET_CID)
 717:Lib/AI_Runtime/Npu/ll_aton/ll_aton.c ****   t_streng_cid_cache = ATON_STRENG_CID_CACHE_SET_CID(t_streng_cid_cache, conf->bus_cid);
 718:Lib/AI_Runtime/Npu/ll_aton/ll_aton.c ****   t_streng_cid_cache = ATON_STRENG_CID_CACHE_SET_CACHEABLE(t_streng_cid_cache, conf->cacheable);
 719:Lib/AI_Runtime/Npu/ll_aton/ll_aton.c ****   t_streng_cid_cache = ATON_STRENG_CID_CACHE_SET_ALLOC(t_streng_cid_cache, conf->cache_allocate);
 720:Lib/AI_Runtime/Npu/ll_aton/ll_aton.c ****   t_streng_cid_cache = ATON_STRENG_CID_CACHE_SET_PFETCH(t_streng_cid_cache, conf->bus_pfetch);
 721:Lib/AI_Runtime/Npu/ll_aton/ll_aton.c ****   t_streng_cid_cache = ATON_STRENG_CID_CACHE_SET_LINESIZE(t_streng_cid_cache, conf->cache_linesize)
 722:Lib/AI_Runtime/Npu/ll_aton/ll_aton.c **** #endif
 723:Lib/AI_Runtime/Npu/ll_aton/ll_aton.c **** 
 724:Lib/AI_Runtime/Npu/ll_aton/ll_aton.c ****   /* Enable event interrupts */
 725:Lib/AI_Runtime/Npu/ll_aton/ll_aton.c ****   if (conf->dir == 1)
 726:Lib/AI_Runtime/Npu/ll_aton/ll_aton.c ****   {
 727:Lib/AI_Runtime/Npu/ll_aton/ll_aton.c **** #if LL_ATON_EN_EVENT_IRQ
 728:Lib/AI_Runtime/Npu/ll_aton/ll_aton.c ****     t_streng_event = 0;
 729:Lib/AI_Runtime/Npu/ll_aton/ll_aton.c ****     t_streng_event = ATON_STRENG_EVENT_SET_EN_OFLOW_FRM(t_streng_event, 1); // enable frame overflo
 730:Lib/AI_Runtime/Npu/ll_aton/ll_aton.c **** #if 0
 731:Lib/AI_Runtime/Npu/ll_aton/ll_aton.c ****     t_streng_event = ATON_STRENG_EVENT_SET_EN_OFLOW_ADD(t_streng_event, 1); // enable address limit
 732:Lib/AI_Runtime/Npu/ll_aton/ll_aton.c **** #endif
 733:Lib/AI_Runtime/Npu/ll_aton/ll_aton.c **** #endif // LL_ATON_EN_EVENT_IRQ
 734:Lib/AI_Runtime/Npu/ll_aton/ll_aton.c ****   }
 735:Lib/AI_Runtime/Npu/ll_aton/ll_aton.c **** 
 736:Lib/AI_Runtime/Npu/ll_aton/ll_aton.c ****   /* Enable illegal configuration interrupts */
 737:Lib/AI_Runtime/Npu/ll_aton/ll_aton.c **** #if LL_ATON_EN_ERROR_IRQ
 738:Lib/AI_Runtime/Npu/ll_aton/ll_aton.c ****   t = t_streng_event;
 739:Lib/AI_Runtime/Npu/ll_aton/ll_aton.c ****   t = ATON_STRENG_EVENT_SET_EN_ILLCFG(t, 1); // Enable Illegal Configuration interrupt
 740:Lib/AI_Runtime/Npu/ll_aton/ll_aton.c ****   // t = ATON_STRENG_EVENT_SET_EN_FMTMM(t, 1); // Enable Format Mismatch interrupt (intentionally n
 741:Lib/AI_Runtime/Npu/ll_aton/ll_aton.c ****   t_streng_event = t;
 742:Lib/AI_Runtime/Npu/ll_aton/ll_aton.c **** #endif // LL_ATON_EN_ERROR_IRQ
 743:Lib/AI_Runtime/Npu/ll_aton/ll_aton.c **** 
 744:Lib/AI_Runtime/Npu/ll_aton/ll_aton.c ****   if ((conf->dir == 0) && conf->sync_with_other)
 745:Lib/AI_Runtime/Npu/ll_aton/ll_aton.c ****   {
 746:Lib/AI_Runtime/Npu/ll_aton/ll_aton.c ****     t = t_streng_event;
 747:Lib/AI_Runtime/Npu/ll_aton/ll_aton.c ****     t = ATON_STRENG_EVENT_SET_FRMTRG_EN(t, 1);               // Enable synchronizations of frames w
 748:Lib/AI_Runtime/Npu/ll_aton/ll_aton.c ****     t = ATON_STRENG_EVENT_SET_FRMTRG_SRC(t, conf->sync_dma); // Enable synchronizations of frames w
 749:Lib/AI_Runtime/Npu/ll_aton/ll_aton.c ****     t_streng_event = t;
 750:Lib/AI_Runtime/Npu/ll_aton/ll_aton.c ****   }
 751:Lib/AI_Runtime/Npu/ll_aton/ll_aton.c **** 
 752:Lib/AI_Runtime/Npu/ll_aton/ll_aton.c **** #if 1
 753:Lib/AI_Runtime/Npu/ll_aton/ll_aton.c ****   t = ATON_STRENG_POS_DT;
 754:Lib/AI_Runtime/Npu/ll_aton/ll_aton.c ****   t = ATON_STRENG_POS_SET_GAPCYCLES(t, 0); // set interline gap cycle to 0, as it should be safe to
 755:Lib/AI_Runtime/Npu/ll_aton/ll_aton.c ****   ATON_STRENG_POS_SET(id, t);
 756:Lib/AI_Runtime/Npu/ll_aton/ll_aton.c **** #endif
 757:Lib/AI_Runtime/Npu/ll_aton/ll_aton.c **** 
 758:Lib/AI_Runtime/Npu/ll_aton/ll_aton.c ****   /* deferred register setting */
 759:Lib/AI_Runtime/Npu/ll_aton/ll_aton.c ****   ATON_STRENG_STRD_SET(id, t_streng_strd);
 760:Lib/AI_Runtime/Npu/ll_aton/ll_aton.c ****   ATON_STRENG_CID_CACHE_SET(id, t_streng_cid_cache);
 761:Lib/AI_Runtime/Npu/ll_aton/ll_aton.c ****   ATON_STRENG_EVENT_SET(id, t_streng_event);
 762:Lib/AI_Runtime/Npu/ll_aton/ll_aton.c **** 
 763:Lib/AI_Runtime/Npu/ll_aton/ll_aton.c ****   /* Ciphering settings */
 764:Lib/AI_Runtime/Npu/ll_aton/ll_aton.c ****   if (ATON_STRENG_ENCRYPTION_EN(id))
 765:Lib/AI_Runtime/Npu/ll_aton/ll_aton.c ****   {
 766:Lib/AI_Runtime/Npu/ll_aton/ll_aton.c ****     t = ATON_STRENG_ENCR_MSB_DT;
ARM GAS  C:\Users\DJESSOU\AppData\Local\Temp\ccFxekaC.s 			page 15


 767:Lib/AI_Runtime/Npu/ll_aton/ll_aton.c ****     t = ATON_STRENG_ENCR_MSB_SET_EN(t, conf->cipher_en);
 768:Lib/AI_Runtime/Npu/ll_aton/ll_aton.c ****     t = ATON_STRENG_ENCR_MSB_SET_KEY_SEL(t, conf->key_sel);
 769:Lib/AI_Runtime/Npu/ll_aton/ll_aton.c ****     ATON_STRENG_ENCR_MSB_SET(id, t);
 770:Lib/AI_Runtime/Npu/ll_aton/ll_aton.c ****   }
 771:Lib/AI_Runtime/Npu/ll_aton/ll_aton.c **** 
 772:Lib/AI_Runtime/Npu/ll_aton/ll_aton.c ****   return 0;
 773:Lib/AI_Runtime/Npu/ll_aton/ll_aton.c **** }
 774:Lib/AI_Runtime/Npu/ll_aton/ll_aton.c **** 
 775:Lib/AI_Runtime/Npu/ll_aton/ll_aton.c **** /**
 776:Lib/AI_Runtime/Npu/ll_aton/ll_aton.c ****  * @brief Configures the Streaming Engine External trigger source
 777:Lib/AI_Runtime/Npu/ll_aton/ll_aton.c ****  *        To be used, for example, for configuring synchronization with DCMIPP
 778:Lib/AI_Runtime/Npu/ll_aton/ll_aton.c ****  * @param id Streaming engine identifier [0..ATON_STRENG_NUM-1]
 779:Lib/AI_Runtime/Npu/ll_aton/ll_aton.c ****  * @param conf Pointer to structure describing External Sync configuration
 780:Lib/AI_Runtime/Npu/ll_aton/ll_aton.c ****  */
 781:Lib/AI_Runtime/Npu/ll_aton/ll_aton.c **** int LL_Streng_ExtSyncInit(int id, LL_Streng_ExtSyncTypedef *conf)
 782:Lib/AI_Runtime/Npu/ll_aton/ll_aton.c **** {
 783:Lib/AI_Runtime/Npu/ll_aton/ll_aton.c **** #ifdef ATON_STRENG_EXTSYNC_SET
 784:Lib/AI_Runtime/Npu/ll_aton/ll_aton.c ****   uint32_t t;
 785:Lib/AI_Runtime/Npu/ll_aton/ll_aton.c **** 
 786:Lib/AI_Runtime/Npu/ll_aton/ll_aton.c ****   if (id >= ATON_STRENG_NUM)
 787:Lib/AI_Runtime/Npu/ll_aton/ll_aton.c ****     return LL_ATON_INVALID_ID;
 788:Lib/AI_Runtime/Npu/ll_aton/ll_aton.c **** 
 789:Lib/AI_Runtime/Npu/ll_aton/ll_aton.c ****   LL_ATON_EnableClock(ATON_STRENG_CLKB_CLK(id));
 790:Lib/AI_Runtime/Npu/ll_aton/ll_aton.c **** 
 791:Lib/AI_Runtime/Npu/ll_aton/ll_aton.c ****   t = ATON_STRENG_EXTSYNC_DT;
 792:Lib/AI_Runtime/Npu/ll_aton/ll_aton.c ****   t = ATON_STRENG_EXTSYNC_SET_EN(t, conf->enable);
 793:Lib/AI_Runtime/Npu/ll_aton/ll_aton.c ****   t = ATON_STRENG_EXTSYNC_SET_SRC(t, conf->trig_source);
 794:Lib/AI_Runtime/Npu/ll_aton/ll_aton.c ****   t = ATON_STRENG_EXTSYNC_SET_LINES(t, conf->lines);
 795:Lib/AI_Runtime/Npu/ll_aton/ll_aton.c ****   ATON_STRENG_EXTSYNC_SET(id, t);
 796:Lib/AI_Runtime/Npu/ll_aton/ll_aton.c **** 
 797:Lib/AI_Runtime/Npu/ll_aton/ll_aton.c ****   t = ATON_STRENG_EXTSYNC2_DT;
 798:Lib/AI_Runtime/Npu/ll_aton/ll_aton.c ****   t = ATON_STRENG_EXTSYNC2_SET_LINES(t, conf->lines_offset);
 799:Lib/AI_Runtime/Npu/ll_aton/ll_aton.c ****   t = ATON_STRENG_EXTSYNC2_SET_OFF(t, conf->offset);
 800:Lib/AI_Runtime/Npu/ll_aton/ll_aton.c ****   ATON_STRENG_EXTSYNC2_SET(id, t);
 801:Lib/AI_Runtime/Npu/ll_aton/ll_aton.c **** #endif
 802:Lib/AI_Runtime/Npu/ll_aton/ll_aton.c ****   return 0;
 803:Lib/AI_Runtime/Npu/ll_aton/ll_aton.c **** }
 804:Lib/AI_Runtime/Npu/ll_aton/ll_aton.c **** 
 805:Lib/AI_Runtime/Npu/ll_aton/ll_aton.c **** #if defined(ATON_EPOCHCTRL_NUM)
 806:Lib/AI_Runtime/Npu/ll_aton/ll_aton.c **** /**
 807:Lib/AI_Runtime/Npu/ll_aton/ll_aton.c ****  * @brief Sets external trigger signal to hi. Used to synchronize with external units, e.g.: HSP
 808:Lib/AI_Runtime/Npu/ll_aton/ll_aton.c ****  * @param irq Interrupt line used as trigger signal
 809:Lib/AI_Runtime/Npu/ll_aton/ll_aton.c ****  * @note uses Epoch Controller noack interrupt as irq source
 810:Lib/AI_Runtime/Npu/ll_aton/ll_aton.c ****  */
 811:Lib/AI_Runtime/Npu/ll_aton/ll_aton.c **** int LL_TriggerHigh(int irq)
 812:Lib/AI_Runtime/Npu/ll_aton/ll_aton.c **** {
 813:Lib/AI_Runtime/Npu/ll_aton/ll_aton.c ****   if (irq >= ATON_INTCTRL_INTS(0))
 814:Lib/AI_Runtime/Npu/ll_aton/ll_aton.c ****     return LL_ATON_INVALID_PARAM;
 815:Lib/AI_Runtime/Npu/ll_aton/ll_aton.c **** 
 816:Lib/AI_Runtime/Npu/ll_aton/ll_aton.c ****   ATON_INTCTRL_INTORMSK_SET(0, irq, ~(1 << ATON_INTCTRL_0_INTORMSK_EPOCHCTRL_0_1_IDX));
 817:Lib/AI_Runtime/Npu/ll_aton/ll_aton.c ****   ATON_INTCTRL_INTSET_SET(0, (1 << ATON_INTCTRL_0_INTSET_EPOCHCTRL_0_1_IDX));
 818:Lib/AI_Runtime/Npu/ll_aton/ll_aton.c ****   return 0;
 819:Lib/AI_Runtime/Npu/ll_aton/ll_aton.c **** }
 820:Lib/AI_Runtime/Npu/ll_aton/ll_aton.c **** 
 821:Lib/AI_Runtime/Npu/ll_aton/ll_aton.c **** /**
 822:Lib/AI_Runtime/Npu/ll_aton/ll_aton.c ****  * @brief Sets external trigger signal to low. Used to synchronize with external units, e.g.: HSP
 823:Lib/AI_Runtime/Npu/ll_aton/ll_aton.c ****  * @param irq Interrupt line used as trigger signal
ARM GAS  C:\Users\DJESSOU\AppData\Local\Temp\ccFxekaC.s 			page 16


 824:Lib/AI_Runtime/Npu/ll_aton/ll_aton.c ****  * @note uses Epoch Controller noack interrupt as irq source
 825:Lib/AI_Runtime/Npu/ll_aton/ll_aton.c ****  */
 826:Lib/AI_Runtime/Npu/ll_aton/ll_aton.c **** int LL_TriggerLow(int irq)
 827:Lib/AI_Runtime/Npu/ll_aton/ll_aton.c **** {
 828:Lib/AI_Runtime/Npu/ll_aton/ll_aton.c ****   if (irq >= ATON_INTCTRL_INTS(0))
 829:Lib/AI_Runtime/Npu/ll_aton/ll_aton.c ****     return LL_ATON_INVALID_PARAM;
 830:Lib/AI_Runtime/Npu/ll_aton/ll_aton.c **** 
 831:Lib/AI_Runtime/Npu/ll_aton/ll_aton.c ****   ATON_INTCTRL_INTCLR_SET(0, (1 << ATON_INTCTRL_0_INTCLR_EPOCHCTRL_0_1_IDX));
 832:Lib/AI_Runtime/Npu/ll_aton/ll_aton.c ****   return 0;
 833:Lib/AI_Runtime/Npu/ll_aton/ll_aton.c **** }
 834:Lib/AI_Runtime/Npu/ll_aton/ll_aton.c **** #endif
 835:Lib/AI_Runtime/Npu/ll_aton/ll_aton.c **** 
 836:Lib/AI_Runtime/Npu/ll_aton/ll_aton.c **** unsigned __atonn_getSrcPortID(enum SwitchUnitsType sut, unsigned char su_num, enum AccelUnitsType a
 837:Lib/AI_Runtime/Npu/ll_aton/ll_aton.c ****                               unsigned char au_num, unsigned char port)
 838:Lib/AI_Runtime/Npu/ll_aton/ll_aton.c **** {
 839:Lib/AI_Runtime/Npu/ll_aton/ll_aton.c ****   // FIXME
 840:Lib/AI_Runtime/Npu/ll_aton/ll_aton.c ****   LL_ATON_ASSERT(su_num == 0);
 841:Lib/AI_Runtime/Npu/ll_aton/ll_aton.c ****   switch (sut)
 842:Lib/AI_Runtime/Npu/ll_aton/ll_aton.c ****   {
 843:Lib/AI_Runtime/Npu/ll_aton/ll_aton.c ****   case STRSWITCH:
 844:Lib/AI_Runtime/Npu/ll_aton/ll_aton.c ****     switch (aut)
 845:Lib/AI_Runtime/Npu/ll_aton/ll_aton.c ****     {
 846:Lib/AI_Runtime/Npu/ll_aton/ll_aton.c **** #if defined(ATON_STRENG_NUM)
 847:Lib/AI_Runtime/Npu/ll_aton/ll_aton.c ****     case STRENG:
 848:Lib/AI_Runtime/Npu/ll_aton/ll_aton.c ****       LL_ATON_ASSERT(port == 0);
 849:Lib/AI_Runtime/Npu/ll_aton/ll_aton.c ****       LL_ATON_ASSERT(au_num < ATON_STRENG_NUM);
 850:Lib/AI_Runtime/Npu/ll_aton/ll_aton.c ****       return ATONN_CONST_SRCPORT(STRSWITCH, 0, STRENG, 0, 0) + au_num;
 851:Lib/AI_Runtime/Npu/ll_aton/ll_aton.c ****       break;
 852:Lib/AI_Runtime/Npu/ll_aton/ll_aton.c **** #endif
 853:Lib/AI_Runtime/Npu/ll_aton/ll_aton.c **** #if defined(ATON_CONVACC_NUM)
 854:Lib/AI_Runtime/Npu/ll_aton/ll_aton.c ****     case CONVACC:
 855:Lib/AI_Runtime/Npu/ll_aton/ll_aton.c ****       LL_ATON_ASSERT(port == 0);
 856:Lib/AI_Runtime/Npu/ll_aton/ll_aton.c ****       LL_ATON_ASSERT(au_num < ATON_CONVACC_NUM);
 857:Lib/AI_Runtime/Npu/ll_aton/ll_aton.c ****       return ATONN_CONST_SRCPORT(STRSWITCH, 0, CONVACC, 0, 0) + au_num;
 858:Lib/AI_Runtime/Npu/ll_aton/ll_aton.c ****       break;
 859:Lib/AI_Runtime/Npu/ll_aton/ll_aton.c **** #endif
 860:Lib/AI_Runtime/Npu/ll_aton/ll_aton.c **** #if defined(ATON_DECUN_NUM)
 861:Lib/AI_Runtime/Npu/ll_aton/ll_aton.c ****     case DECUN:
 862:Lib/AI_Runtime/Npu/ll_aton/ll_aton.c ****       LL_ATON_ASSERT(port == 0);
 863:Lib/AI_Runtime/Npu/ll_aton/ll_aton.c ****       LL_ATON_ASSERT(au_num < ATON_DECUN_NUM);
 864:Lib/AI_Runtime/Npu/ll_aton/ll_aton.c ****       return ATONN_CONST_SRCPORT(STRSWITCH, 0, DECUN, 0, 0) + au_num;
 865:Lib/AI_Runtime/Npu/ll_aton/ll_aton.c ****       break;
 866:Lib/AI_Runtime/Npu/ll_aton/ll_aton.c **** #endif
 867:Lib/AI_Runtime/Npu/ll_aton/ll_aton.c **** #if defined(ATON_ACTIV_NUM)
 868:Lib/AI_Runtime/Npu/ll_aton/ll_aton.c ****     case ACTIV:
 869:Lib/AI_Runtime/Npu/ll_aton/ll_aton.c ****       LL_ATON_ASSERT(port == 0);
 870:Lib/AI_Runtime/Npu/ll_aton/ll_aton.c ****       LL_ATON_ASSERT(au_num < ATON_ACTIV_NUM);
 871:Lib/AI_Runtime/Npu/ll_aton/ll_aton.c ****       return ATONN_CONST_SRCPORT(STRSWITCH, 0, ACTIV, 0, 0) + au_num;
 872:Lib/AI_Runtime/Npu/ll_aton/ll_aton.c ****       break;
 873:Lib/AI_Runtime/Npu/ll_aton/ll_aton.c **** #endif
 874:Lib/AI_Runtime/Npu/ll_aton/ll_aton.c **** #if defined(ATON_ARITH_NUM)
 875:Lib/AI_Runtime/Npu/ll_aton/ll_aton.c ****     case ARITH:
 876:Lib/AI_Runtime/Npu/ll_aton/ll_aton.c ****       LL_ATON_ASSERT(port == 0);
 877:Lib/AI_Runtime/Npu/ll_aton/ll_aton.c ****       LL_ATON_ASSERT(au_num < ATON_ARITH_NUM);
 878:Lib/AI_Runtime/Npu/ll_aton/ll_aton.c ****       return ATONN_CONST_SRCPORT(STRSWITCH, 0, ARITH, 0, 0) + au_num;
 879:Lib/AI_Runtime/Npu/ll_aton/ll_aton.c ****       break;
 880:Lib/AI_Runtime/Npu/ll_aton/ll_aton.c **** #endif
ARM GAS  C:\Users\DJESSOU\AppData\Local\Temp\ccFxekaC.s 			page 17


 881:Lib/AI_Runtime/Npu/ll_aton/ll_aton.c **** #if defined(ATON_POOL_NUM)
 882:Lib/AI_Runtime/Npu/ll_aton/ll_aton.c ****     case POOL:
 883:Lib/AI_Runtime/Npu/ll_aton/ll_aton.c ****       LL_ATON_ASSERT(port == 0);
 884:Lib/AI_Runtime/Npu/ll_aton/ll_aton.c ****       LL_ATON_ASSERT(au_num < ATON_POOL_NUM);
 885:Lib/AI_Runtime/Npu/ll_aton/ll_aton.c ****       return ATONN_CONST_SRCPORT(STRSWITCH, 0, POOL, 0, 0) + au_num;
 886:Lib/AI_Runtime/Npu/ll_aton/ll_aton.c ****       break;
 887:Lib/AI_Runtime/Npu/ll_aton/ll_aton.c **** #endif
 888:Lib/AI_Runtime/Npu/ll_aton/ll_aton.c ****     default:
 889:Lib/AI_Runtime/Npu/ll_aton/ll_aton.c ****       LL_ATON_ASSERT(0);
 890:Lib/AI_Runtime/Npu/ll_aton/ll_aton.c ****       break;
 891:Lib/AI_Runtime/Npu/ll_aton/ll_aton.c ****     }
 892:Lib/AI_Runtime/Npu/ll_aton/ll_aton.c ****     break;
 893:Lib/AI_Runtime/Npu/ll_aton/ll_aton.c ****   case STRSWITCH64:
 894:Lib/AI_Runtime/Npu/ll_aton/ll_aton.c ****     // TODO
 895:Lib/AI_Runtime/Npu/ll_aton/ll_aton.c ****     LL_ATON_ASSERT(0);
 896:Lib/AI_Runtime/Npu/ll_aton/ll_aton.c ****     break;
 897:Lib/AI_Runtime/Npu/ll_aton/ll_aton.c ****   case STRSWITCH_VC:
 898:Lib/AI_Runtime/Npu/ll_aton/ll_aton.c ****     // TODO
 899:Lib/AI_Runtime/Npu/ll_aton/ll_aton.c ****     LL_ATON_ASSERT(0);
 900:Lib/AI_Runtime/Npu/ll_aton/ll_aton.c ****     break;
 901:Lib/AI_Runtime/Npu/ll_aton/ll_aton.c ****   }
 902:Lib/AI_Runtime/Npu/ll_aton/ll_aton.c ****   return 0;
 903:Lib/AI_Runtime/Npu/ll_aton/ll_aton.c **** }
 904:Lib/AI_Runtime/Npu/ll_aton/ll_aton.c **** 
 905:Lib/AI_Runtime/Npu/ll_aton/ll_aton.c **** unsigned __atonn_getDstPortID(enum SwitchUnitsType sut, unsigned char su_num, enum AccelUnitsType a
 906:Lib/AI_Runtime/Npu/ll_aton/ll_aton.c ****                               unsigned char au_num, unsigned char port)
 907:Lib/AI_Runtime/Npu/ll_aton/ll_aton.c **** {
 908:Lib/AI_Runtime/Npu/ll_aton/ll_aton.c ****   // FIXME
 909:Lib/AI_Runtime/Npu/ll_aton/ll_aton.c ****   LL_ATON_ASSERT(su_num == 0);
 910:Lib/AI_Runtime/Npu/ll_aton/ll_aton.c ****   switch (sut)
 911:Lib/AI_Runtime/Npu/ll_aton/ll_aton.c ****   {
 912:Lib/AI_Runtime/Npu/ll_aton/ll_aton.c ****   case STRSWITCH:
 913:Lib/AI_Runtime/Npu/ll_aton/ll_aton.c ****     switch (aut)
 914:Lib/AI_Runtime/Npu/ll_aton/ll_aton.c ****     {
 915:Lib/AI_Runtime/Npu/ll_aton/ll_aton.c **** #if defined(ATON_STRENG_NUM)
 916:Lib/AI_Runtime/Npu/ll_aton/ll_aton.c ****     case STRENG:
 917:Lib/AI_Runtime/Npu/ll_aton/ll_aton.c ****       LL_ATON_ASSERT(port == 0);
 918:Lib/AI_Runtime/Npu/ll_aton/ll_aton.c ****       LL_ATON_ASSERT(au_num < ATON_STRENG_NUM);
 919:Lib/AI_Runtime/Npu/ll_aton/ll_aton.c ****       return ATONN_CONST_DSTPORT(STRSWITCH, 0, STRENG, 0, 0) + (0x4 * au_num);
 920:Lib/AI_Runtime/Npu/ll_aton/ll_aton.c ****       break;
 921:Lib/AI_Runtime/Npu/ll_aton/ll_aton.c **** #endif
 922:Lib/AI_Runtime/Npu/ll_aton/ll_aton.c **** #if defined(ATON_CONVACC_NUM)
 923:Lib/AI_Runtime/Npu/ll_aton/ll_aton.c ****     case CONVACC:
 924:Lib/AI_Runtime/Npu/ll_aton/ll_aton.c ****       LL_ATON_ASSERT(port < 3);
 925:Lib/AI_Runtime/Npu/ll_aton/ll_aton.c ****       LL_ATON_ASSERT(au_num < ATON_CONVACC_NUM);
 926:Lib/AI_Runtime/Npu/ll_aton/ll_aton.c ****       return ATONN_CONST_DSTPORT(STRSWITCH, 0, CONVACC, 0, 0) + (0x4 * (3 * au_num + port));
 927:Lib/AI_Runtime/Npu/ll_aton/ll_aton.c ****       break;
 928:Lib/AI_Runtime/Npu/ll_aton/ll_aton.c **** #endif
 929:Lib/AI_Runtime/Npu/ll_aton/ll_aton.c **** #if defined(ATON_DECUN_NUM)
 930:Lib/AI_Runtime/Npu/ll_aton/ll_aton.c ****     case DECUN:
 931:Lib/AI_Runtime/Npu/ll_aton/ll_aton.c ****       LL_ATON_ASSERT(port < 2);
 932:Lib/AI_Runtime/Npu/ll_aton/ll_aton.c ****       LL_ATON_ASSERT(au_num < ATON_DECUN_NUM);
 933:Lib/AI_Runtime/Npu/ll_aton/ll_aton.c ****       return ATONN_CONST_DSTPORT(STRSWITCH, 0, DECUN, 0, 0) + (0x4 * (2 * au_num + port));
 934:Lib/AI_Runtime/Npu/ll_aton/ll_aton.c ****       break;
 935:Lib/AI_Runtime/Npu/ll_aton/ll_aton.c **** #endif
 936:Lib/AI_Runtime/Npu/ll_aton/ll_aton.c **** #if defined(ATON_ACTIV_NUM)
 937:Lib/AI_Runtime/Npu/ll_aton/ll_aton.c ****     case ACTIV:
ARM GAS  C:\Users\DJESSOU\AppData\Local\Temp\ccFxekaC.s 			page 18


 938:Lib/AI_Runtime/Npu/ll_aton/ll_aton.c ****       LL_ATON_ASSERT(port == 0);
 939:Lib/AI_Runtime/Npu/ll_aton/ll_aton.c ****       LL_ATON_ASSERT(au_num < ATON_ACTIV_NUM);
 940:Lib/AI_Runtime/Npu/ll_aton/ll_aton.c ****       return ATONN_CONST_DSTPORT(STRSWITCH, 0, ACTIV, 0, 0) + (0x4 * au_num);
 941:Lib/AI_Runtime/Npu/ll_aton/ll_aton.c ****       break;
 942:Lib/AI_Runtime/Npu/ll_aton/ll_aton.c **** #endif
 943:Lib/AI_Runtime/Npu/ll_aton/ll_aton.c **** #if defined(ATON_ARITH_NUM)
 944:Lib/AI_Runtime/Npu/ll_aton/ll_aton.c ****     case ARITH:
 945:Lib/AI_Runtime/Npu/ll_aton/ll_aton.c ****       LL_ATON_ASSERT(port < 2);
 946:Lib/AI_Runtime/Npu/ll_aton/ll_aton.c ****       LL_ATON_ASSERT(au_num < ATON_ARITH_NUM);
 947:Lib/AI_Runtime/Npu/ll_aton/ll_aton.c ****       return ATONN_CONST_DSTPORT(STRSWITCH, 0, ARITH, 0, 0) + (0x4 * (2 * au_num + port));
 948:Lib/AI_Runtime/Npu/ll_aton/ll_aton.c ****       break;
 949:Lib/AI_Runtime/Npu/ll_aton/ll_aton.c **** #endif
 950:Lib/AI_Runtime/Npu/ll_aton/ll_aton.c **** #if defined(ATON_POOL_NUM)
 951:Lib/AI_Runtime/Npu/ll_aton/ll_aton.c ****     case POOL:
 952:Lib/AI_Runtime/Npu/ll_aton/ll_aton.c ****       LL_ATON_ASSERT(port == 0);
 953:Lib/AI_Runtime/Npu/ll_aton/ll_aton.c ****       LL_ATON_ASSERT(au_num < ATON_POOL_NUM);
 954:Lib/AI_Runtime/Npu/ll_aton/ll_aton.c ****       return ATONN_CONST_DSTPORT(STRSWITCH, 0, POOL, 0, 0) + (0x4 * au_num);
 955:Lib/AI_Runtime/Npu/ll_aton/ll_aton.c ****       break;
 956:Lib/AI_Runtime/Npu/ll_aton/ll_aton.c **** #endif
 957:Lib/AI_Runtime/Npu/ll_aton/ll_aton.c ****     default:
 958:Lib/AI_Runtime/Npu/ll_aton/ll_aton.c ****       LL_ATON_ASSERT(0);
 959:Lib/AI_Runtime/Npu/ll_aton/ll_aton.c ****       break;
 960:Lib/AI_Runtime/Npu/ll_aton/ll_aton.c ****     }
 961:Lib/AI_Runtime/Npu/ll_aton/ll_aton.c ****     break;
 962:Lib/AI_Runtime/Npu/ll_aton/ll_aton.c ****   case STRSWITCH64:
 963:Lib/AI_Runtime/Npu/ll_aton/ll_aton.c ****     // TODO
 964:Lib/AI_Runtime/Npu/ll_aton/ll_aton.c ****     LL_ATON_ASSERT(0);
 965:Lib/AI_Runtime/Npu/ll_aton/ll_aton.c ****     break;
 966:Lib/AI_Runtime/Npu/ll_aton/ll_aton.c ****   case STRSWITCH_VC:
 967:Lib/AI_Runtime/Npu/ll_aton/ll_aton.c ****     // TODO
 968:Lib/AI_Runtime/Npu/ll_aton/ll_aton.c ****     LL_ATON_ASSERT(0);
 969:Lib/AI_Runtime/Npu/ll_aton/ll_aton.c ****     break;
 970:Lib/AI_Runtime/Npu/ll_aton/ll_aton.c ****   }
 971:Lib/AI_Runtime/Npu/ll_aton/ll_aton.c ****   return 0;
 972:Lib/AI_Runtime/Npu/ll_aton/ll_aton.c **** }
 973:Lib/AI_Runtime/Npu/ll_aton/ll_aton.c **** 
 974:Lib/AI_Runtime/Npu/ll_aton/ll_aton.c **** /**
 975:Lib/AI_Runtime/Npu/ll_aton/ll_aton.c ****  * @brief  Connects input and output port(s) on the streaming switch (without clearing configuratio
 976:Lib/AI_Runtime/Npu/ll_aton/ll_aton.c ****  * @param  LL_Switch_InitStruct Pointer to structure(s) describing ports to be connected
 977:Lib/AI_Runtime/Npu/ll_aton/ll_aton.c ****  * @param  n Number of entries in configuration array
 978:Lib/AI_Runtime/Npu/ll_aton/ll_aton.c ****  * @retval Error code
 979:Lib/AI_Runtime/Npu/ll_aton/ll_aton.c ****  */
 980:Lib/AI_Runtime/Npu/ll_aton/ll_aton.c **** int LL_Switch_Init_NoReset(const LL_Switch_InitTypeDef *LL_Switch_InitStruct, int n)
 981:Lib/AI_Runtime/Npu/ll_aton/ll_aton.c **** {
 982:Lib/AI_Runtime/Npu/ll_aton/ll_aton.c ****   int i;
 983:Lib/AI_Runtime/Npu/ll_aton/ll_aton.c ****   volatile uint32_t *reg;
 984:Lib/AI_Runtime/Npu/ll_aton/ll_aton.c ****   uint32_t t;
 985:Lib/AI_Runtime/Npu/ll_aton/ll_aton.c ****   unsigned int en_shift[ATON_SWITCH_CONTEXT_NUM] = {ATON_STRSWITCH_DST_EN0_LSB, ATON_STRSWITCH_DST_
 986:Lib/AI_Runtime/Npu/ll_aton/ll_aton.c ****   unsigned int link_shift[ATON_SWITCH_CONTEXT_NUM] = {ATON_STRSWITCH_DST_LINK0_LSB, ATON_STRSWITCH_
 987:Lib/AI_Runtime/Npu/ll_aton/ll_aton.c ****   unsigned int fnr_shift[ATON_SWITCH_CONTEXT_NUM] = {ATON_STRSWITCH_DST_FNR0_LSB, ATON_STRSWITCH_DS
 988:Lib/AI_Runtime/Npu/ll_aton/ll_aton.c ****   unsigned int fnr_mask[ATON_SWITCH_CONTEXT_NUM] = {ATON_STRSWITCH_DST_FNR0_MASK, ATON_STRSWITCH_DS
 989:Lib/AI_Runtime/Npu/ll_aton/ll_aton.c **** 
 990:Lib/AI_Runtime/Npu/ll_aton/ll_aton.c ****   /* Enable Switch */
 991:Lib/AI_Runtime/Npu/ll_aton/ll_aton.c ****   t = ATON_STRSWITCH_CTRL_DT;
 992:Lib/AI_Runtime/Npu/ll_aton/ll_aton.c ****   t = ATON_STRSWITCH_CTRL_SET_EN(t, 1);
 993:Lib/AI_Runtime/Npu/ll_aton/ll_aton.c ****   ATON_STRSWITCH_CTRL_SET(0, t);
 994:Lib/AI_Runtime/Npu/ll_aton/ll_aton.c **** 
ARM GAS  C:\Users\DJESSOU\AppData\Local\Temp\ccFxekaC.s 			page 19


 995:Lib/AI_Runtime/Npu/ll_aton/ll_aton.c ****   for (i = 0; i < n; i++)
 996:Lib/AI_Runtime/Npu/ll_aton/ll_aton.c ****   {
 997:Lib/AI_Runtime/Npu/ll_aton/ll_aton.c ****     /* Compute target destination configuration register */
 998:Lib/AI_Runtime/Npu/ll_aton/ll_aton.c ****     reg = (uint32_t *)(ATON_STRSWITCH_BASE(0) + ATONN_DSTPORT_ID(LL_Switch_InitStruct[i].dest));
 999:Lib/AI_Runtime/Npu/ll_aton/ll_aton.c ****     t = 0;
1000:Lib/AI_Runtime/Npu/ll_aton/ll_aton.c ****     /* Enable Context and create link */
1001:Lib/AI_Runtime/Npu/ll_aton/ll_aton.c **** #if ATON_SWITCH_CONTEXT_NUM == 2
1002:Lib/AI_Runtime/Npu/ll_aton/ll_aton.c ****     t |= ((LL_Switch_InitStruct[i].context0 != 0) << en_shift[0]);
1003:Lib/AI_Runtime/Npu/ll_aton/ll_aton.c ****     t |= (ATONN_SRCPORT_ID(LL_Switch_InitStruct[i].source0) << link_shift[0]);
1004:Lib/AI_Runtime/Npu/ll_aton/ll_aton.c ****     t |= ((LL_Switch_InitStruct[i].frames0 << fnr_shift[0]) & fnr_mask[0]);
1005:Lib/AI_Runtime/Npu/ll_aton/ll_aton.c ****     t |= ((LL_Switch_InitStruct[i].context1 != 0) << en_shift[1]);
1006:Lib/AI_Runtime/Npu/ll_aton/ll_aton.c ****     t |= (ATONN_SRCPORT_ID(LL_Switch_InitStruct[i].source1) << link_shift[1]);
1007:Lib/AI_Runtime/Npu/ll_aton/ll_aton.c ****     t |= ((LL_Switch_InitStruct[i].frames1 << fnr_shift[1]) & fnr_mask[1]);
1008:Lib/AI_Runtime/Npu/ll_aton/ll_aton.c **** #else
1009:Lib/AI_Runtime/Npu/ll_aton/ll_aton.c ****     int c;
1010:Lib/AI_Runtime/Npu/ll_aton/ll_aton.c ****     for (c = 0; c < ATON_SWITCH_CONTEXT_NUM; c++)
1011:Lib/AI_Runtime/Npu/ll_aton/ll_aton.c ****     {
1012:Lib/AI_Runtime/Npu/ll_aton/ll_aton.c ****       t |= ((LL_Switch_InitStruct[i].context[c] != 0) << en_shift[c]);
1013:Lib/AI_Runtime/Npu/ll_aton/ll_aton.c ****       t |= (ATONN_SRCPORT_ID(LL_Switch_InitStruct[i].source[c]) << link_shift[c]);
1014:Lib/AI_Runtime/Npu/ll_aton/ll_aton.c ****       t |= ((LL_Switch_InitStruct[i].frames[c] << fnr_shift[c]) & fnr_mask[c]);
1015:Lib/AI_Runtime/Npu/ll_aton/ll_aton.c ****     }
1016:Lib/AI_Runtime/Npu/ll_aton/ll_aton.c **** #endif
1017:Lib/AI_Runtime/Npu/ll_aton/ll_aton.c **** 
1018:Lib/AI_Runtime/Npu/ll_aton/ll_aton.c ****     ATON_REG_WRITE(reg, t);
1019:Lib/AI_Runtime/Npu/ll_aton/ll_aton.c ****   }
1020:Lib/AI_Runtime/Npu/ll_aton/ll_aton.c **** 
1021:Lib/AI_Runtime/Npu/ll_aton/ll_aton.c ****   return 0;
1022:Lib/AI_Runtime/Npu/ll_aton/ll_aton.c **** }
1023:Lib/AI_Runtime/Npu/ll_aton/ll_aton.c **** 
1024:Lib/AI_Runtime/Npu/ll_aton/ll_aton.c **** /**
1025:Lib/AI_Runtime/Npu/ll_aton/ll_aton.c ****  * @brief  Connects input and output port(s) on the streaming switch (clearing configuration at the
1026:Lib/AI_Runtime/Npu/ll_aton/ll_aton.c ****  * @param  LL_Switch_InitStruct Pointer to structure(s) describing ports to be connected
1027:Lib/AI_Runtime/Npu/ll_aton/ll_aton.c ****  * @param  n Number of entries in configuration array
1028:Lib/AI_Runtime/Npu/ll_aton/ll_aton.c ****  * @retval Error code
1029:Lib/AI_Runtime/Npu/ll_aton/ll_aton.c ****  */
1030:Lib/AI_Runtime/Npu/ll_aton/ll_aton.c **** int LL_Switch_Init(const LL_Switch_InitTypeDef *LL_Switch_InitStruct, int n)
1031:Lib/AI_Runtime/Npu/ll_aton/ll_aton.c **** {
1032:Lib/AI_Runtime/Npu/ll_aton/ll_aton.c ****   uint32_t t;
1033:Lib/AI_Runtime/Npu/ll_aton/ll_aton.c **** 
1034:Lib/AI_Runtime/Npu/ll_aton/ll_aton.c **** #if (LL_ATON_PLATFORM == LL_ATON_PLAT_EC_TRACE)
1035:Lib/AI_Runtime/Npu/ll_aton/ll_aton.c ****   ll_aton_static_checks();
1036:Lib/AI_Runtime/Npu/ll_aton/ll_aton.c **** #endif
1037:Lib/AI_Runtime/Npu/ll_aton/ll_aton.c **** 
1038:Lib/AI_Runtime/Npu/ll_aton/ll_aton.c ****   /* Clear Configuration */
1039:Lib/AI_Runtime/Npu/ll_aton/ll_aton.c ****   ATON_DISABLE_CLR_CONFCLR(STRSWITCH, 0);
1040:Lib/AI_Runtime/Npu/ll_aton/ll_aton.c **** 
1041:Lib/AI_Runtime/Npu/ll_aton/ll_aton.c ****   return LL_Switch_Init_NoReset(LL_Switch_InitStruct, n);
1042:Lib/AI_Runtime/Npu/ll_aton/ll_aton.c **** }
1043:Lib/AI_Runtime/Npu/ll_aton/ll_aton.c **** 
1044:Lib/AI_Runtime/Npu/ll_aton/ll_aton.c **** /**
1045:Lib/AI_Runtime/Npu/ll_aton/ll_aton.c ****  * @brief  Fully disconnect a destination port from source ports on the streaming switch
1046:Lib/AI_Runtime/Npu/ll_aton/ll_aton.c ****  * @param  LL_Switch_InitStruct Pointer to structure(s) describing ports to be disconnected
1047:Lib/AI_Runtime/Npu/ll_aton/ll_aton.c ****  * @param  n Number of entries in configuration array
1048:Lib/AI_Runtime/Npu/ll_aton/ll_aton.c ****  * @retval Error code
1049:Lib/AI_Runtime/Npu/ll_aton/ll_aton.c ****  */
1050:Lib/AI_Runtime/Npu/ll_aton/ll_aton.c **** int LL_Switch_Deinit(const LL_Switch_InitTypeDef *LL_Switch_InitStruct, int n)
1051:Lib/AI_Runtime/Npu/ll_aton/ll_aton.c **** {
ARM GAS  C:\Users\DJESSOU\AppData\Local\Temp\ccFxekaC.s 			page 20


1052:Lib/AI_Runtime/Npu/ll_aton/ll_aton.c ****   int i;
1053:Lib/AI_Runtime/Npu/ll_aton/ll_aton.c ****   volatile uint32_t *reg;
1054:Lib/AI_Runtime/Npu/ll_aton/ll_aton.c **** 
1055:Lib/AI_Runtime/Npu/ll_aton/ll_aton.c ****   for (i = 0; i < n; i++)
1056:Lib/AI_Runtime/Npu/ll_aton/ll_aton.c ****   {
1057:Lib/AI_Runtime/Npu/ll_aton/ll_aton.c ****     /* Compute target destination configuration register */
1058:Lib/AI_Runtime/Npu/ll_aton/ll_aton.c ****     reg = (uint32_t *)(ATON_STRSWITCH_BASE(0) + ATONN_DSTPORT_ID(LL_Switch_InitStruct[i].dest));
1059:Lib/AI_Runtime/Npu/ll_aton/ll_aton.c **** 
1060:Lib/AI_Runtime/Npu/ll_aton/ll_aton.c ****     /* Disable contexts */
1061:Lib/AI_Runtime/Npu/ll_aton/ll_aton.c ****     ATON_REG_WRITE(reg, 0);
1062:Lib/AI_Runtime/Npu/ll_aton/ll_aton.c ****   }
1063:Lib/AI_Runtime/Npu/ll_aton/ll_aton.c **** 
1064:Lib/AI_Runtime/Npu/ll_aton/ll_aton.c ****   return 0;
1065:Lib/AI_Runtime/Npu/ll_aton/ll_aton.c **** }
1066:Lib/AI_Runtime/Npu/ll_aton/ll_aton.c **** 
1067:Lib/AI_Runtime/Npu/ll_aton/ll_aton.c **** /**
1068:Lib/AI_Runtime/Npu/ll_aton/ll_aton.c ****  * @brief  Disconnects destination and source port(s) on the streaming switch
1069:Lib/AI_Runtime/Npu/ll_aton/ll_aton.c ****  * @param  LL_Switch_InitStruct Pointer to structure(s) describing ports to be disconnected
1070:Lib/AI_Runtime/Npu/ll_aton/ll_aton.c ****  * @param  n Number of entries in configuration array
1071:Lib/AI_Runtime/Npu/ll_aton/ll_aton.c ****  * @retval Error code
1072:Lib/AI_Runtime/Npu/ll_aton/ll_aton.c ****  */
1073:Lib/AI_Runtime/Npu/ll_aton/ll_aton.c **** int LL_Switch_Deinit_Fine_Grained(const LL_Switch_InitTypeDef *LL_Switch_InitStruct, int n)
1074:Lib/AI_Runtime/Npu/ll_aton/ll_aton.c **** {
1075:Lib/AI_Runtime/Npu/ll_aton/ll_aton.c ****   int i;
1076:Lib/AI_Runtime/Npu/ll_aton/ll_aton.c ****   volatile uint32_t *reg;
1077:Lib/AI_Runtime/Npu/ll_aton/ll_aton.c ****   unsigned int en_shift[ATON_SWITCH_CONTEXT_NUM] = {ATON_STRSWITCH_DST_EN0_LSB, ATON_STRSWITCH_DST_
1078:Lib/AI_Runtime/Npu/ll_aton/ll_aton.c **** 
1079:Lib/AI_Runtime/Npu/ll_aton/ll_aton.c ****   for (i = 0; i < n; i++)
1080:Lib/AI_Runtime/Npu/ll_aton/ll_aton.c ****   {
1081:Lib/AI_Runtime/Npu/ll_aton/ll_aton.c ****     /* Compute target destination configuration register */
1082:Lib/AI_Runtime/Npu/ll_aton/ll_aton.c ****     reg = (uint32_t *)(ATON_STRSWITCH_BASE(0) + ATONN_DSTPORT_ID(LL_Switch_InitStruct[i].dest));
1083:Lib/AI_Runtime/Npu/ll_aton/ll_aton.c **** 
1084:Lib/AI_Runtime/Npu/ll_aton/ll_aton.c ****     /* Disable context */
1085:Lib/AI_Runtime/Npu/ll_aton/ll_aton.c ****     uint32_t t = *reg;
1086:Lib/AI_Runtime/Npu/ll_aton/ll_aton.c **** #if ATON_SWITCH_CONTEXT_NUM == 2
1087:Lib/AI_Runtime/Npu/ll_aton/ll_aton.c ****     t &= ~((LL_Switch_InitStruct[i].context0 != 0) << en_shift[0]);
1088:Lib/AI_Runtime/Npu/ll_aton/ll_aton.c ****     t &= ~((LL_Switch_InitStruct[i].context1 != 0) << en_shift[1]);
1089:Lib/AI_Runtime/Npu/ll_aton/ll_aton.c **** #else
1090:Lib/AI_Runtime/Npu/ll_aton/ll_aton.c ****     int c;
1091:Lib/AI_Runtime/Npu/ll_aton/ll_aton.c ****     for (c = 0; c < ATON_SWITCH_CONTEXT_NUM; c++)
1092:Lib/AI_Runtime/Npu/ll_aton/ll_aton.c ****       t &= ~((LL_Switch_InitStruct[i].context[c] != 0) << en_shift[c]);
1093:Lib/AI_Runtime/Npu/ll_aton/ll_aton.c **** #endif
1094:Lib/AI_Runtime/Npu/ll_aton/ll_aton.c ****     ATON_REG_WRITE(reg, t);
1095:Lib/AI_Runtime/Npu/ll_aton/ll_aton.c ****   }
1096:Lib/AI_Runtime/Npu/ll_aton/ll_aton.c **** 
1097:Lib/AI_Runtime/Npu/ll_aton/ll_aton.c ****   return 0;
1098:Lib/AI_Runtime/Npu/ll_aton/ll_aton.c **** }
1099:Lib/AI_Runtime/Npu/ll_aton/ll_aton.c **** 
1100:Lib/AI_Runtime/Npu/ll_aton/ll_aton.c **** #ifdef ATON_STRSWITCH_VC_NUM
1101:Lib/AI_Runtime/Npu/ll_aton/ll_aton.c **** 
1102:Lib/AI_Runtime/Npu/ll_aton/ll_aton.c **** /**
1103:Lib/AI_Runtime/Npu/ll_aton/ll_aton.c ****  * @brief  Connects input and output port(s) on the streaming switch with virtual channels (without
1104:Lib/AI_Runtime/Npu/ll_aton/ll_aton.c ****  * configuration)
1105:Lib/AI_Runtime/Npu/ll_aton/ll_aton.c ****  * @param  LL_SwitchVC_InitStruct Pointer to structure(s) describing ports to be connected
1106:Lib/AI_Runtime/Npu/ll_aton/ll_aton.c ****  * @param  n Number of entries in configuration array
1107:Lib/AI_Runtime/Npu/ll_aton/ll_aton.c ****  * @retval Error code
1108:Lib/AI_Runtime/Npu/ll_aton/ll_aton.c ****  */
ARM GAS  C:\Users\DJESSOU\AppData\Local\Temp\ccFxekaC.s 			page 21


1109:Lib/AI_Runtime/Npu/ll_aton/ll_aton.c **** int LL_SwitchVC_Init_NoReset(const LL_SwitchVC_InitTypeDef *LL_SwitchVC_InitStruct, int n)
1110:Lib/AI_Runtime/Npu/ll_aton/ll_aton.c **** {
1111:Lib/AI_Runtime/Npu/ll_aton/ll_aton.c ****   int i;
1112:Lib/AI_Runtime/Npu/ll_aton/ll_aton.c ****   volatile uint32_t *reg;
1113:Lib/AI_Runtime/Npu/ll_aton/ll_aton.c ****   uint32_t t;
1114:Lib/AI_Runtime/Npu/ll_aton/ll_aton.c ****   unsigned int en_shift = ATON_STRSWITCH_VC_DST_EN_LSB;
1115:Lib/AI_Runtime/Npu/ll_aton/ll_aton.c ****   unsigned int src_shift = ATON_STRSWITCH_VC_DST_SRC_LSB;
1116:Lib/AI_Runtime/Npu/ll_aton/ll_aton.c **** 
1117:Lib/AI_Runtime/Npu/ll_aton/ll_aton.c ****   /* Enable Switch */
1118:Lib/AI_Runtime/Npu/ll_aton/ll_aton.c ****   t = ATON_STRSWITCH_VC_CTRL_DT;
1119:Lib/AI_Runtime/Npu/ll_aton/ll_aton.c ****   t = ATON_STRSWITCH_VC_CTRL_SET_EN(t, 1);
1120:Lib/AI_Runtime/Npu/ll_aton/ll_aton.c ****   ATON_STRSWITCH_VC_CTRL_SET(0, t);
1121:Lib/AI_Runtime/Npu/ll_aton/ll_aton.c **** 
1122:Lib/AI_Runtime/Npu/ll_aton/ll_aton.c ****   for (i = 0; i < n; i++)
1123:Lib/AI_Runtime/Npu/ll_aton/ll_aton.c ****   {
1124:Lib/AI_Runtime/Npu/ll_aton/ll_aton.c ****     /* Compute target destination configuration register */
1125:Lib/AI_Runtime/Npu/ll_aton/ll_aton.c ****     reg = (uint32_t *)(ATON_STRSWITCH_VC_BASE(0) + ATONN_DSTPORT_ID(LL_SwitchVC_InitStruct[i].dest)
1126:Lib/AI_Runtime/Npu/ll_aton/ll_aton.c ****     t = 0;
1127:Lib/AI_Runtime/Npu/ll_aton/ll_aton.c ****     /* Enable Context and create link */
1128:Lib/AI_Runtime/Npu/ll_aton/ll_aton.c ****     t |= (1 << en_shift);
1129:Lib/AI_Runtime/Npu/ll_aton/ll_aton.c ****     t |= (ATONN_SRCPORT_ID(LL_SwitchVC_InitStruct[i].source) << src_shift);
1130:Lib/AI_Runtime/Npu/ll_aton/ll_aton.c ****     ATON_REG_WRITE(reg, t);
1131:Lib/AI_Runtime/Npu/ll_aton/ll_aton.c ****   }
1132:Lib/AI_Runtime/Npu/ll_aton/ll_aton.c **** 
1133:Lib/AI_Runtime/Npu/ll_aton/ll_aton.c ****   return 0;
1134:Lib/AI_Runtime/Npu/ll_aton/ll_aton.c **** }
1135:Lib/AI_Runtime/Npu/ll_aton/ll_aton.c **** 
1136:Lib/AI_Runtime/Npu/ll_aton/ll_aton.c **** /**
1137:Lib/AI_Runtime/Npu/ll_aton/ll_aton.c ****  * @brief  Connects input and output port(s) on the streaming switch with virtual channels (clearin
1138:Lib/AI_Runtime/Npu/ll_aton/ll_aton.c ****  * the beginning)
1139:Lib/AI_Runtime/Npu/ll_aton/ll_aton.c ****  * @param  LL_SwitchVC_InitStruct Pointer to structure(s) describing ports to be connected
1140:Lib/AI_Runtime/Npu/ll_aton/ll_aton.c ****  * @param  n Number of entries in configuration array
1141:Lib/AI_Runtime/Npu/ll_aton/ll_aton.c ****  * @retval Error code
1142:Lib/AI_Runtime/Npu/ll_aton/ll_aton.c ****  */
1143:Lib/AI_Runtime/Npu/ll_aton/ll_aton.c **** int LL_SwitchVC_Init(const LL_SwitchVC_InitTypeDef *LL_SwitchVC_InitStruct, int n)
1144:Lib/AI_Runtime/Npu/ll_aton/ll_aton.c **** {
1145:Lib/AI_Runtime/Npu/ll_aton/ll_aton.c ****   uint32_t t;
1146:Lib/AI_Runtime/Npu/ll_aton/ll_aton.c **** 
1147:Lib/AI_Runtime/Npu/ll_aton/ll_aton.c ****   /* Clear Configuration */
1148:Lib/AI_Runtime/Npu/ll_aton/ll_aton.c ****   ATON_DISABLE_CLR_CONFCLR(STRSWITCH_VC, 0);
1149:Lib/AI_Runtime/Npu/ll_aton/ll_aton.c **** 
1150:Lib/AI_Runtime/Npu/ll_aton/ll_aton.c ****   return LL_SwitchVC_Init_NoReset(LL_SwitchVC_InitStruct, n);
1151:Lib/AI_Runtime/Npu/ll_aton/ll_aton.c **** }
1152:Lib/AI_Runtime/Npu/ll_aton/ll_aton.c **** 
1153:Lib/AI_Runtime/Npu/ll_aton/ll_aton.c **** /**
1154:Lib/AI_Runtime/Npu/ll_aton/ll_aton.c ****  * @brief  Fully disconnect a destination port from source ports on the streaming switch with virtu
1155:Lib/AI_Runtime/Npu/ll_aton/ll_aton.c ****  * @param  LL_SwitchVC_InitStruct Pointer to structure(s) describing ports to be disconnected
1156:Lib/AI_Runtime/Npu/ll_aton/ll_aton.c ****  * @param  n Number of entries in configuration array
1157:Lib/AI_Runtime/Npu/ll_aton/ll_aton.c ****  * @retval Error code
1158:Lib/AI_Runtime/Npu/ll_aton/ll_aton.c ****  */
1159:Lib/AI_Runtime/Npu/ll_aton/ll_aton.c **** int LL_SwitchVC_Deinit(const LL_SwitchVC_InitTypeDef *LL_SwitchVC_InitStruct, int n)
1160:Lib/AI_Runtime/Npu/ll_aton/ll_aton.c **** {
1161:Lib/AI_Runtime/Npu/ll_aton/ll_aton.c ****   int i;
1162:Lib/AI_Runtime/Npu/ll_aton/ll_aton.c ****   volatile uint32_t *reg;
1163:Lib/AI_Runtime/Npu/ll_aton/ll_aton.c **** 
1164:Lib/AI_Runtime/Npu/ll_aton/ll_aton.c ****   for (i = 0; i < n; i++)
1165:Lib/AI_Runtime/Npu/ll_aton/ll_aton.c ****   {
ARM GAS  C:\Users\DJESSOU\AppData\Local\Temp\ccFxekaC.s 			page 22


1166:Lib/AI_Runtime/Npu/ll_aton/ll_aton.c ****     /* Compute target destination configuration register */
1167:Lib/AI_Runtime/Npu/ll_aton/ll_aton.c ****     reg = (uint32_t *)(ATON_STRSWITCH_VC_BASE(0) + ATONN_DSTPORT_ID(LL_SwitchVC_InitStruct[i].dest)
1168:Lib/AI_Runtime/Npu/ll_aton/ll_aton.c **** 
1169:Lib/AI_Runtime/Npu/ll_aton/ll_aton.c ****     /* Disable contexts */
1170:Lib/AI_Runtime/Npu/ll_aton/ll_aton.c ****     ATON_REG_WRITE(reg, 0);
1171:Lib/AI_Runtime/Npu/ll_aton/ll_aton.c ****   }
1172:Lib/AI_Runtime/Npu/ll_aton/ll_aton.c **** 
1173:Lib/AI_Runtime/Npu/ll_aton/ll_aton.c ****   return 0;
1174:Lib/AI_Runtime/Npu/ll_aton/ll_aton.c **** }
1175:Lib/AI_Runtime/Npu/ll_aton/ll_aton.c **** 
1176:Lib/AI_Runtime/Npu/ll_aton/ll_aton.c **** /**
1177:Lib/AI_Runtime/Npu/ll_aton/ll_aton.c ****  * @brief  Disconnects destination and source port(s) on the streaming switch with virtual channels
1178:Lib/AI_Runtime/Npu/ll_aton/ll_aton.c ****  * @param  LL_SwitchVC_InitStruct Pointer to structure(s) describing ports to be disconnected
1179:Lib/AI_Runtime/Npu/ll_aton/ll_aton.c ****  * @param  n Number of entries in configuration array
1180:Lib/AI_Runtime/Npu/ll_aton/ll_aton.c ****  * @retval Error code
1181:Lib/AI_Runtime/Npu/ll_aton/ll_aton.c ****  */
1182:Lib/AI_Runtime/Npu/ll_aton/ll_aton.c **** int LL_SwitchVC_Deinit_Fine_Grained(const LL_SwitchVC_InitTypeDef *LL_SwitchVC_InitStruct, int n)
1183:Lib/AI_Runtime/Npu/ll_aton/ll_aton.c **** {
1184:Lib/AI_Runtime/Npu/ll_aton/ll_aton.c ****   int i;
1185:Lib/AI_Runtime/Npu/ll_aton/ll_aton.c ****   volatile uint32_t *reg;
1186:Lib/AI_Runtime/Npu/ll_aton/ll_aton.c ****   unsigned int en_shift = ATON_STRSWITCH_VC_DST_EN_LSB;
1187:Lib/AI_Runtime/Npu/ll_aton/ll_aton.c **** 
1188:Lib/AI_Runtime/Npu/ll_aton/ll_aton.c ****   for (i = 0; i < n; i++)
1189:Lib/AI_Runtime/Npu/ll_aton/ll_aton.c ****   {
1190:Lib/AI_Runtime/Npu/ll_aton/ll_aton.c ****     /* Compute target destination configuration register */
1191:Lib/AI_Runtime/Npu/ll_aton/ll_aton.c ****     reg = (uint32_t *)(ATON_STRSWITCH_VC_BASE(0) + ATONN_DSTPORT_ID(LL_SwitchVC_InitStruct[i].dest)
1192:Lib/AI_Runtime/Npu/ll_aton/ll_aton.c **** 
1193:Lib/AI_Runtime/Npu/ll_aton/ll_aton.c ****     /* Disable context */
1194:Lib/AI_Runtime/Npu/ll_aton/ll_aton.c ****     uint32_t t = *reg;
1195:Lib/AI_Runtime/Npu/ll_aton/ll_aton.c ****     t &= ~(1 << en_shift);
1196:Lib/AI_Runtime/Npu/ll_aton/ll_aton.c ****     ATON_REG_WRITE(reg, t);
1197:Lib/AI_Runtime/Npu/ll_aton/ll_aton.c ****   }
1198:Lib/AI_Runtime/Npu/ll_aton/ll_aton.c **** 
1199:Lib/AI_Runtime/Npu/ll_aton/ll_aton.c ****   return 0;
1200:Lib/AI_Runtime/Npu/ll_aton/ll_aton.c **** }
1201:Lib/AI_Runtime/Npu/ll_aton/ll_aton.c **** #endif // ATON_STRSWITCH_VC_NUM
1202:Lib/AI_Runtime/Npu/ll_aton/ll_aton.c **** 
1203:Lib/AI_Runtime/Npu/ll_aton/ll_aton.c **** #ifdef ATON_DECUN_NUM
1204:Lib/AI_Runtime/Npu/ll_aton/ll_aton.c **** 
1205:Lib/AI_Runtime/Npu/ll_aton/ll_aton.c **** static inline uint32_t decun_inc_page_addr(int id, uint32_t ctrl_val)
1206:Lib/AI_Runtime/Npu/ll_aton/ll_aton.c **** {
  34              		.loc 1 1206 1 view -0
  35              		.cfi_startproc
  36              		@ args = 0, pretend = 0, frame = 0
  37              		@ frame_needed = 0, uses_anonymous_args = 0
  38              		@ link register save eliminated.
1207:Lib/AI_Runtime/Npu/ll_aton/ll_aton.c ****   uint32_t page_addr = ATON_DECUN_CTRL_GET_PAGEADDR(ctrl_val);
  39              		.loc 1 1207 3 view .LVU1
1208:Lib/AI_Runtime/Npu/ll_aton/ll_aton.c ****   page_addr++;
  40              		.loc 1 1208 3 view .LVU2
1209:Lib/AI_Runtime/Npu/ll_aton/ll_aton.c ****   ctrl_val = ATON_DECUN_CTRL_SET_PAGEADDR(ctrl_val, page_addr);
  41              		.loc 1 1209 3 view .LVU3
1210:Lib/AI_Runtime/Npu/ll_aton/ll_aton.c ****   ATON_DECUN_CTRL_SET(id, ctrl_val);
  42              		.loc 1 1210 3 view .LVU4
  43              		.loc 1 1210 3 view .LVU5
  44              		.loc 1 1210 3 view .LVU6
  45 0000 0128     		cmp	r0, #1
ARM GAS  C:\Users\DJESSOU\AppData\Local\Temp\ccFxekaC.s 			page 23


1206:Lib/AI_Runtime/Npu/ll_aton/ll_aton.c ****   uint32_t page_addr = ATON_DECUN_CTRL_GET_PAGEADDR(ctrl_val);
  46              		.loc 1 1206 1 is_stmt 0 view .LVU7
  47 0002 0346     		mov	r3, r0
  48              		.loc 1 1210 3 view .LVU8
  49 0004 02DD     		ble	.L4
  50              		.loc 1 1210 3 discriminator 4 view .LVU9
  51 0006 0023     		movs	r3, #0
  52 0008 1B60     		str	r3, [r3]
  53 000a FFDE     		.inst	0xdeff
  54              	.L4:
1209:Lib/AI_Runtime/Npu/ll_aton/ll_aton.c ****   ctrl_val = ATON_DECUN_CTRL_SET_PAGEADDR(ctrl_val, page_addr);
  55              		.loc 1 1209 14 view .LVU10
  56 000c 21F03002 		bic	r2, r1, #48
1208:Lib/AI_Runtime/Npu/ll_aton/ll_aton.c ****   ctrl_val = ATON_DECUN_CTRL_SET_PAGEADDR(ctrl_val, page_addr);
  57              		.loc 1 1208 12 view .LVU11
  58 0010 01F03001 		and	r1, r1, #48
  59              	.LVL1:
1209:Lib/AI_Runtime/Npu/ll_aton/ll_aton.c ****   ATON_DECUN_CTRL_SET(id, ctrl_val);
  60              		.loc 1 1209 14 view .LVU12
  61 0014 1031     		adds	r1, r1, #16
  62              		.loc 1 1210 3 discriminator 1 view .LVU13
  63 0016 1B03     		lsls	r3, r3, #12
1209:Lib/AI_Runtime/Npu/ll_aton/ll_aton.c ****   ATON_DECUN_CTRL_SET(id, ctrl_val);
  64              		.loc 1 1209 14 view .LVU14
  65 0018 01F03001 		and	r1, r1, #48
  66              		.loc 1 1210 3 discriminator 1 view .LVU15
  67 001c 03F1B043 		add	r3, r3, #1476395008
1209:Lib/AI_Runtime/Npu/ll_aton/ll_aton.c ****   ATON_DECUN_CTRL_SET(id, ctrl_val);
  68              		.loc 1 1209 12 view .LVU16
  69 0020 41EA0200 		orr	r0, r1, r2
  70              	.LVL2:
  71              		.loc 1 1210 3 discriminator 1 view .LVU17
  72 0024 03F57323 		add	r3, r3, #995328
  73              		.loc 1 1210 3 discriminator 4 view .LVU18
  74 0028 1860     		str	r0, [r3]
  75              		.loc 1 1210 3 is_stmt 1 discriminator 4 view .LVU19
  76              		.loc 1 1210 3 discriminator 4 view .LVU20
1211:Lib/AI_Runtime/Npu/ll_aton/ll_aton.c ****   return ctrl_val;
  77              		.loc 1 1211 3 view .LVU21
1212:Lib/AI_Runtime/Npu/ll_aton/ll_aton.c **** }
  78              		.loc 1 1212 1 is_stmt 0 view .LVU22
  79 002a 7047     		bx	lr
  80              		.cfi_endproc
  81              	.LFE302:
  83              		.section	.text.LL_Address_Physical2Virtual,"ax",%progbits
  84              		.align	1
  85              		.global	LL_Address_Physical2Virtual
  86              		.syntax unified
  87              		.thumb
  88              		.thumb_func
  90              	LL_Address_Physical2Virtual:
  91              	.LVL3:
  92              	.LFB283:
 128:Lib/AI_Runtime/Npu/ll_aton/ll_aton.c ****   return ATON_LIB_PHYSICAL_TO_VIRTUAL_ADDR(address);
  93              		.loc 1 128 1 is_stmt 1 view -0
  94              		.cfi_startproc
  95              		@ args = 0, pretend = 0, frame = 0
ARM GAS  C:\Users\DJESSOU\AppData\Local\Temp\ccFxekaC.s 			page 24


  96              		@ frame_needed = 0, uses_anonymous_args = 0
  97              		@ link register save eliminated.
 129:Lib/AI_Runtime/Npu/ll_aton/ll_aton.c **** }
  98              		.loc 1 129 3 view .LVU24
 130:Lib/AI_Runtime/Npu/ll_aton/ll_aton.c **** 
  99              		.loc 1 130 1 is_stmt 0 view .LVU25
 100 0000 7047     		bx	lr
 101              		.cfi_endproc
 102              	.LFE283:
 104              		.section	.text.LL_Address_Virtual2Physical,"ax",%progbits
 105              		.align	1
 106              		.global	LL_Address_Virtual2Physical
 107              		.syntax unified
 108              		.thumb
 109              		.thumb_func
 111              	LL_Address_Virtual2Physical:
 112              	.LFB324:
 113              		.cfi_startproc
 132:Lib/AI_Runtime/Npu/ll_aton/ll_aton.c **** {
 114              		.loc 1 132 16 is_stmt 1 view -0
 115              		@ args = 0, pretend = 0, frame = 0
 116              		@ frame_needed = 0, uses_anonymous_args = 0
 117              		@ link register save eliminated.
 118 0000 7047     		bx	lr
 119              		.cfi_endproc
 120              	.LFE324:
 122              		.section	.text.startWatchdog,"ax",%progbits
 123              		.align	1
 124              		.weak	startWatchdog
 125              		.syntax unified
 126              		.thumb
 127              		.thumb_func
 129              	startWatchdog:
 130              	.LVL4:
 131              	.LFB285:
 143:Lib/AI_Runtime/Npu/ll_aton/ll_aton.c ****   (void)timeout;
 132              		.loc 1 143 1 view -0
 133              		.cfi_startproc
 134              		@ args = 0, pretend = 0, frame = 0
 135              		@ frame_needed = 0, uses_anonymous_args = 0
 136              		@ link register save eliminated.
 144:Lib/AI_Runtime/Npu/ll_aton/ll_aton.c **** 
 137              		.loc 1 144 3 view .LVU28
 146:Lib/AI_Runtime/Npu/ll_aton/ll_aton.c **** }
 138              		.loc 1 146 3 view .LVU29
 147:Lib/AI_Runtime/Npu/ll_aton/ll_aton.c **** 
 139              		.loc 1 147 1 is_stmt 0 view .LVU30
 140 0000 0020     		movs	r0, #0
 141              	.LVL5:
 147:Lib/AI_Runtime/Npu/ll_aton/ll_aton.c **** 
 142              		.loc 1 147 1 view .LVU31
 143 0002 7047     		bx	lr
 144              		.cfi_endproc
 145              	.LFE285:
 147              		.section	.text.checkWatchdog,"ax",%progbits
 148              		.align	1
 149              		.weak	checkWatchdog
ARM GAS  C:\Users\DJESSOU\AppData\Local\Temp\ccFxekaC.s 			page 25


 150              		.syntax unified
 151              		.thumb
 152              		.thumb_func
 154              	checkWatchdog:
 155              	.LFB286:
 154:Lib/AI_Runtime/Npu/ll_aton/ll_aton.c ****   return 0;
 156              		.loc 1 154 1 is_stmt 1 view -0
 157              		.cfi_startproc
 158              		@ args = 0, pretend = 0, frame = 0
 159              		@ frame_needed = 0, uses_anonymous_args = 0
 160              		@ link register save eliminated.
 155:Lib/AI_Runtime/Npu/ll_aton/ll_aton.c **** }
 161              		.loc 1 155 3 view .LVU33
 156:Lib/AI_Runtime/Npu/ll_aton/ll_aton.c **** 
 162              		.loc 1 156 1 is_stmt 0 view .LVU34
 163 0000 0020     		movs	r0, #0
 164 0002 7047     		bx	lr
 165              		.cfi_endproc
 166              	.LFE286:
 168              		.section	.rodata.LL_ATON_Init.str1.1,"aMS",%progbits,1
 169              	.LC3:
 170 0000 4E6F6E65 		.ascii	"None\000"
 170      00
 171              	.LC4:
 172 0005 4C69622F 		.ascii	"Lib/AI_Runtime/Npu/ll_aton/ll_aton.c\000"
 172      41495F52 
 172      756E7469 
 172      6D652F4E 
 172      70752F6C 
 173              	.LC5:
 174 002a 5B455252 		.ascii	"[ERROR] (%s:%d: errno: %s) %s unit ver mismatch: RT"
 174      4F525D20 
 174      2825733A 
 174      25643A20 
 174      6572726E 
 175 005d 4C3A743D 		.ascii	"L:t=%lu,ver=%lu.%lu  ATON.h:t=%lu,ver=%lu.%lu\012\015"
 175      256C752C 
 175      7665723D 
 175      256C752E 
 175      256C7520 
 176 008c 0A00     		.ascii	"\012\000"
 177              	.LC6:
 178 008e 53545245 		.ascii	"STRENG\000"
 178      4E4700
 179              	.LC7:
 180 0095 3000     		.ascii	"0\000"
 181              	.LC8:
 182 0097 434F4E56 		.ascii	"CONVACC\000"
 182      41434300 
 183              	.LC9:
 184 009f 504F4F4C 		.ascii	"POOL\000"
 184      00
 185              	.LC10:
 186 00a4 41524954 		.ascii	"ARITH\000"
 186      4800
 187              	.LC11:
 188 00aa 41435449 		.ascii	"ACTIV\000"
ARM GAS  C:\Users\DJESSOU\AppData\Local\Temp\ccFxekaC.s 			page 26


 188      5600
 189              	.LC12:
 190 00b0 44454355 		.ascii	"DECUN\000"
 190      4E00
 191              	.LC13:
 192 00b6 45504F43 		.ascii	"EPOCHCTRL\000"
 192      48435452 
 192      4C00
 193              	.LC14:
 194 00c0 52454342 		.ascii	"RECBUF\000"
 194      554600
 195              	.LC15:
 196 00c7 434C4B43 		.ascii	"CLKCTRL\000"
 196      54524C00 
 197              	.LC16:
 198 00cf 494E5443 		.ascii	"INTCTRL\000"
 198      54524C00 
 199              	.LC17:
 200 00d7 53545253 		.ascii	"STRSWITCH\000"
 200      57495443 
 200      4800
 201              	.LC18:
 202 00e1 42555349 		.ascii	"BUSIF\000"
 202      4600
 203              		.section	.text.LL_ATON_Init,"ax",%progbits
 204              		.align	1
 205              		.global	LL_ATON_Init
 206              		.syntax unified
 207              		.thumb
 208              		.thumb_func
 210              	LL_ATON_Init:
 211              	.LFB287:
 167:Lib/AI_Runtime/Npu/ll_aton/ll_aton.c ****   uint32_t t;
 212              		.loc 1 167 1 is_stmt 1 view -0
 213              		.cfi_startproc
 214              		@ args = 0, pretend = 0, frame = 0
 215              		@ frame_needed = 0, uses_anonymous_args = 0
 168:Lib/AI_Runtime/Npu/ll_aton/ll_aton.c ****   int i;
 216              		.loc 1 168 3 view .LVU36
 169:Lib/AI_Runtime/Npu/ll_aton/ll_aton.c **** 
 217              		.loc 1 169 3 view .LVU37
 171:Lib/AI_Runtime/Npu/ll_aton/ll_aton.c **** 
 218              		.loc 1 171 3 view .LVU38
 219              	.LBB17:
 220              	.LBI17:
  61:Lib/AI_Runtime/Npu/ll_aton/ll_aton.c **** {
 221              		.loc 1 61 20 view .LVU39
 222              	.LBB18:
  63:Lib/AI_Runtime/Npu/ll_aton/ll_aton.c **** 
 223              		.loc 1 63 3 view .LVU40
  65:Lib/AI_Runtime/Npu/ll_aton/ll_aton.c ****     return;
 224              		.loc 1 65 3 view .LVU41
 225              	.LBE18:
 226              	.LBE17:
 167:Lib/AI_Runtime/Npu/ll_aton/ll_aton.c ****   uint32_t t;
 227              		.loc 1 167 1 is_stmt 0 view .LVU42
 228 0000 10B5     		push	{r4, lr}
ARM GAS  C:\Users\DJESSOU\AppData\Local\Temp\ccFxekaC.s 			page 27


 229              		.cfi_def_cfa_offset 8
 230              		.cfi_offset 4, -8
 231              		.cfi_offset 14, -4
 232              	.LBB21:
 233              	.LBB19:
  65:Lib/AI_Runtime/Npu/ll_aton/ll_aton.c ****     return;
 234              		.loc 1 65 12 view .LVU43
 235 0002 A34B     		ldr	r3, .L98
 236              	.LBE19:
 237              	.LBE21:
 167:Lib/AI_Runtime/Npu/ll_aton/ll_aton.c ****   uint32_t t;
 238              		.loc 1 167 1 view .LVU44
 239 0004 88B0     		sub	sp, sp, #32
 240              		.cfi_def_cfa_offset 40
 241              	.LBB22:
 242              	.LBB20:
  65:Lib/AI_Runtime/Npu/ll_aton/ll_aton.c ****     return;
 243              		.loc 1 65 6 view .LVU45
 244 0006 1A78     		ldrb	r2, [r3]	@ zero_extendqisi2
 245 0008 0AB9     		cbnz	r2, .L10
  67:Lib/AI_Runtime/Npu/ll_aton/ll_aton.c **** 
 246              		.loc 1 67 3 is_stmt 1 view .LVU46
  67:Lib/AI_Runtime/Npu/ll_aton/ll_aton.c **** 
 247              		.loc 1 67 8 is_stmt 0 view .LVU47
 248 000a 0122     		movs	r2, #1
 249 000c 1A70     		strb	r2, [r3]
  75:Lib/AI_Runtime/Npu/ll_aton/ll_aton.c ****   ASSERT_ATONN_DSTPORT(STRSWITCH, 0, STRENG, 1, 0);
 250              		.loc 1 75 3 is_stmt 1 view .LVU48
  76:Lib/AI_Runtime/Npu/ll_aton/ll_aton.c **** #endif
 251              		.loc 1 76 3 view .LVU49
  79:Lib/AI_Runtime/Npu/ll_aton/ll_aton.c ****   ASSERT_ATONN_DSTPORT(STRSWITCH, 0, STRENG, 2, 0);
 252              		.loc 1 79 3 view .LVU50
  80:Lib/AI_Runtime/Npu/ll_aton/ll_aton.c **** #endif
 253              		.loc 1 80 3 view .LVU51
 254              	.L10:
 255              	.LBE20:
 256              	.LBE22:
 174:Lib/AI_Runtime/Npu/ll_aton/ll_aton.c ****   t = ATON_CLKCTRL_CTRL_SET_CLR(t, 1);
 257              		.loc 1 174 3 view .LVU52
 174:Lib/AI_Runtime/Npu/ll_aton/ll_aton.c ****   t = ATON_CLKCTRL_CTRL_SET_CLR(t, 1);
 258              		.loc 1 174 5 is_stmt 0 view .LVU53
 259 000e A14B     		ldr	r3, .L98+4
 260 0010 1A68     		ldr	r2, [r3]
 261              	.LVL6:
 175:Lib/AI_Runtime/Npu/ll_aton/ll_aton.c ****   ATON_CLKCTRL_CTRL_SET(0, t);
 262              		.loc 1 175 3 is_stmt 1 view .LVU54
 175:Lib/AI_Runtime/Npu/ll_aton/ll_aton.c ****   ATON_CLKCTRL_CTRL_SET(0, t);
 263              		.loc 1 175 5 is_stmt 0 view .LVU55
 264 0012 42F00202 		orr	r2, r2, #2
 265              	.LVL7:
 176:Lib/AI_Runtime/Npu/ll_aton/ll_aton.c **** 
 266              		.loc 1 176 3 is_stmt 1 view .LVU56
 176:Lib/AI_Runtime/Npu/ll_aton/ll_aton.c **** 
 267              		.loc 1 176 3 view .LVU57
 176:Lib/AI_Runtime/Npu/ll_aton/ll_aton.c **** 
 268              		.loc 1 176 3 view .LVU58
 269 0016 1A60     		str	r2, [r3]
ARM GAS  C:\Users\DJESSOU\AppData\Local\Temp\ccFxekaC.s 			page 28


 176:Lib/AI_Runtime/Npu/ll_aton/ll_aton.c **** 
 270              		.loc 1 176 3 view .LVU59
 176:Lib/AI_Runtime/Npu/ll_aton/ll_aton.c **** 
 271              		.loc 1 176 3 view .LVU60
 179:Lib/AI_Runtime/Npu/ll_aton/ll_aton.c ****   ATON_CLKCTRL_AGATES0_SET(0, 0xffffffff);
 272              		.loc 1 179 3 view .LVU61
 179:Lib/AI_Runtime/Npu/ll_aton/ll_aton.c ****   ATON_CLKCTRL_AGATES0_SET(0, 0xffffffff);
 273              		.loc 1 179 3 view .LVU62
 179:Lib/AI_Runtime/Npu/ll_aton/ll_aton.c ****   ATON_CLKCTRL_AGATES0_SET(0, 0xffffffff);
 274              		.loc 1 179 3 view .LVU63
 275 0018 0122     		movs	r2, #1
 276              	.LVL8:
 179:Lib/AI_Runtime/Npu/ll_aton/ll_aton.c ****   ATON_CLKCTRL_AGATES0_SET(0, 0xffffffff);
 277              		.loc 1 179 3 is_stmt 0 view .LVU64
 278 001a 1A60     		str	r2, [r3]
 279              	.LVL9:
 179:Lib/AI_Runtime/Npu/ll_aton/ll_aton.c ****   ATON_CLKCTRL_AGATES0_SET(0, 0xffffffff);
 280              		.loc 1 179 3 is_stmt 1 view .LVU65
 179:Lib/AI_Runtime/Npu/ll_aton/ll_aton.c ****   ATON_CLKCTRL_AGATES0_SET(0, 0xffffffff);
 281              		.loc 1 179 3 view .LVU66
 180:Lib/AI_Runtime/Npu/ll_aton/ll_aton.c ****   ATON_CLKCTRL_AGATES1_SET(0, 0xffffffff);
 282              		.loc 1 180 3 view .LVU67
 180:Lib/AI_Runtime/Npu/ll_aton/ll_aton.c ****   ATON_CLKCTRL_AGATES1_SET(0, 0xffffffff);
 283              		.loc 1 180 3 view .LVU68
 180:Lib/AI_Runtime/Npu/ll_aton/ll_aton.c ****   ATON_CLKCTRL_AGATES1_SET(0, 0xffffffff);
 284              		.loc 1 180 3 view .LVU69
 285 001c 4FF0FF32 		mov	r2, #-1
 286 0020 9A60     		str	r2, [r3, #8]
 180:Lib/AI_Runtime/Npu/ll_aton/ll_aton.c ****   ATON_CLKCTRL_AGATES1_SET(0, 0xffffffff);
 287              		.loc 1 180 3 view .LVU70
 180:Lib/AI_Runtime/Npu/ll_aton/ll_aton.c ****   ATON_CLKCTRL_AGATES1_SET(0, 0xffffffff);
 288              		.loc 1 180 3 view .LVU71
 181:Lib/AI_Runtime/Npu/ll_aton/ll_aton.c **** 
 289              		.loc 1 181 3 view .LVU72
 181:Lib/AI_Runtime/Npu/ll_aton/ll_aton.c **** 
 290              		.loc 1 181 3 view .LVU73
 181:Lib/AI_Runtime/Npu/ll_aton/ll_aton.c **** 
 291              		.loc 1 181 3 view .LVU74
 292 0022 DA60     		str	r2, [r3, #12]
 181:Lib/AI_Runtime/Npu/ll_aton/ll_aton.c **** 
 293              		.loc 1 181 3 view .LVU75
 181:Lib/AI_Runtime/Npu/ll_aton/ll_aton.c **** 
 294              		.loc 1 181 3 view .LVU76
 187:Lib/AI_Runtime/Npu/ll_aton/ll_aton.c **** #endif
 295              		.loc 1 187 3 view .LVU77
 187:Lib/AI_Runtime/Npu/ll_aton/ll_aton.c **** #endif
 296              		.loc 1 187 3 view .LVU78
 187:Lib/AI_Runtime/Npu/ll_aton/ll_aton.c **** #endif
 297              		.loc 1 187 3 view .LVU79
 298 0024 0022     		movs	r2, #0
 299 0026 1A61     		str	r2, [r3, #16]
 198:Lib/AI_Runtime/Npu/ll_aton/ll_aton.c **** 
 300              		.loc 1 198 3 is_stmt 0 discriminator 1 view .LVU80
 301 0028 03F5A043 		add	r3, r3, #20480
 302              	.LVL10:
 303              	.L11:
 187:Lib/AI_Runtime/Npu/ll_aton/ll_aton.c **** #endif
ARM GAS  C:\Users\DJESSOU\AppData\Local\Temp\ccFxekaC.s 			page 29


 304              		.loc 1 187 3 is_stmt 1 discriminator 1 view .LVU81
 187:Lib/AI_Runtime/Npu/ll_aton/ll_aton.c **** #endif
 305              		.loc 1 187 3 discriminator 1 view .LVU82
 198:Lib/AI_Runtime/Npu/ll_aton/ll_aton.c **** 
 306              		.loc 1 198 3 discriminator 1 view .LVU83
 198:Lib/AI_Runtime/Npu/ll_aton/ll_aton.c **** 
 307              		.loc 1 198 3 discriminator 1 view .LVU84
 308 002c 5C68     		ldr	r4, [r3, #4]
 309              	.LVL11:
 198:Lib/AI_Runtime/Npu/ll_aton/ll_aton.c **** 
 310              		.loc 1 198 3 discriminator 1 view .LVU85
 311 002e 002C     		cmp	r4, #0
 312 0030 FCD0     		beq	.L11
 198:Lib/AI_Runtime/Npu/ll_aton/ll_aton.c **** 
 313              		.loc 1 198 3 discriminator 2 view .LVU86
 314 0032 45F20103 		movw	r3, #20481
 315 0036 A2B2     		uxth	r2, r4
 316 0038 9A42     		cmp	r2, r3
 317 003a 40F09280 		bne	.L84
 201:Lib/AI_Runtime/Npu/ll_aton/ll_aton.c **** #endif
 318              		.loc 1 201 3 is_stmt 0 discriminator 1 view .LVU87
 319 003e 964B     		ldr	r3, .L98+8
 320              	.L12:
 198:Lib/AI_Runtime/Npu/ll_aton/ll_aton.c **** 
 321              		.loc 1 198 37 is_stmt 1 discriminator 4 view .LVU88
 201:Lib/AI_Runtime/Npu/ll_aton/ll_aton.c **** #endif
 322              		.loc 1 201 3 discriminator 1 view .LVU89
 201:Lib/AI_Runtime/Npu/ll_aton/ll_aton.c **** #endif
 323              		.loc 1 201 3 discriminator 1 view .LVU90
 324 0040 5C68     		ldr	r4, [r3, #4]
 325              	.LVL12:
 201:Lib/AI_Runtime/Npu/ll_aton/ll_aton.c **** #endif
 326              		.loc 1 201 3 discriminator 1 view .LVU91
 327 0042 002C     		cmp	r4, #0
 328 0044 FCD0     		beq	.L12
 201:Lib/AI_Runtime/Npu/ll_aton/ll_aton.c **** #endif
 329              		.loc 1 201 3 discriminator 2 view .LVU92
 330 0046 45F21713 		movw	r3, #20759
 331 004a A2B2     		uxth	r2, r4
 332 004c 9A42     		cmp	r2, r3
 333 004e 40F0B080 		bne	.L85
 205:Lib/AI_Runtime/Npu/ll_aton/ll_aton.c **** #endif
 334              		.loc 1 205 3 is_stmt 0 discriminator 1 view .LVU93
 335 0052 924B     		ldr	r3, .L98+12
 336              	.L14:
 201:Lib/AI_Runtime/Npu/ll_aton/ll_aton.c **** #endif
 337              		.loc 1 201 38 is_stmt 1 discriminator 4 view .LVU94
 205:Lib/AI_Runtime/Npu/ll_aton/ll_aton.c **** #endif
 338              		.loc 1 205 3 discriminator 1 view .LVU95
 205:Lib/AI_Runtime/Npu/ll_aton/ll_aton.c **** #endif
 339              		.loc 1 205 3 discriminator 1 view .LVU96
 340 0054 5C68     		ldr	r4, [r3, #4]
 341              	.LVL13:
 205:Lib/AI_Runtime/Npu/ll_aton/ll_aton.c **** #endif
 342              		.loc 1 205 3 discriminator 1 view .LVU97
 343 0056 002C     		cmp	r4, #0
 344 0058 FCD0     		beq	.L14
ARM GAS  C:\Users\DJESSOU\AppData\Local\Temp\ccFxekaC.s 			page 30


 205:Lib/AI_Runtime/Npu/ll_aton/ll_aton.c **** #endif
 345              		.loc 1 205 3 discriminator 2 view .LVU98
 346 005a 41F21C13 		movw	r3, #4380
 347 005e A2B2     		uxth	r2, r4
 348 0060 9A42     		cmp	r2, r3
 349 0062 40F0CC80 		bne	.L86
 209:Lib/AI_Runtime/Npu/ll_aton/ll_aton.c **** #endif
 350              		.loc 1 209 3 is_stmt 0 discriminator 1 view .LVU99
 351 0066 8E4B     		ldr	r3, .L98+16
 352              	.L16:
 205:Lib/AI_Runtime/Npu/ll_aton/ll_aton.c **** #endif
 353              		.loc 1 205 35 is_stmt 1 discriminator 4 view .LVU100
 209:Lib/AI_Runtime/Npu/ll_aton/ll_aton.c **** #endif
 354              		.loc 1 209 3 discriminator 1 view .LVU101
 209:Lib/AI_Runtime/Npu/ll_aton/ll_aton.c **** #endif
 355              		.loc 1 209 3 discriminator 1 view .LVU102
 356 0068 5C68     		ldr	r4, [r3, #4]
 357              	.LVL14:
 209:Lib/AI_Runtime/Npu/ll_aton/ll_aton.c **** #endif
 358              		.loc 1 209 3 discriminator 1 view .LVU103
 359 006a 002C     		cmp	r4, #0
 360 006c FCD0     		beq	.L16
 209:Lib/AI_Runtime/Npu/ll_aton/ll_aton.c **** #endif
 361              		.loc 1 209 3 discriminator 2 view .LVU104
 362 006e 41F21A03 		movw	r3, #4122
 363 0072 A2B2     		uxth	r2, r4
 364 0074 9A42     		cmp	r2, r3
 365 0076 40F0E680 		bne	.L87
 213:Lib/AI_Runtime/Npu/ll_aton/ll_aton.c **** #endif
 366              		.loc 1 213 3 is_stmt 0 discriminator 1 view .LVU105
 367 007a 8A4B     		ldr	r3, .L98+20
 368              	.L18:
 209:Lib/AI_Runtime/Npu/ll_aton/ll_aton.c **** #endif
 369              		.loc 1 209 36 is_stmt 1 discriminator 4 view .LVU106
 213:Lib/AI_Runtime/Npu/ll_aton/ll_aton.c **** #endif
 370              		.loc 1 213 3 discriminator 1 view .LVU107
 213:Lib/AI_Runtime/Npu/ll_aton/ll_aton.c **** #endif
 371              		.loc 1 213 3 discriminator 1 view .LVU108
 372 007c 5C68     		ldr	r4, [r3, #4]
 373              	.LVL15:
 213:Lib/AI_Runtime/Npu/ll_aton/ll_aton.c **** #endif
 374              		.loc 1 213 3 discriminator 1 view .LVU109
 375 007e 002C     		cmp	r4, #0
 376 0080 FCD0     		beq	.L18
 213:Lib/AI_Runtime/Npu/ll_aton/ll_aton.c **** #endif
 377              		.loc 1 213 3 discriminator 2 view .LVU110
 378 0082 41F21B13 		movw	r3, #4379
 379 0086 A2B2     		uxth	r2, r4
 380 0088 9A42     		cmp	r2, r3
 381 008a 40F02D81 		bne	.L88
 217:Lib/AI_Runtime/Npu/ll_aton/ll_aton.c **** #endif
 382              		.loc 1 217 3 is_stmt 0 discriminator 1 view .LVU111
 383 008e 864B     		ldr	r3, .L98+24
 384              	.L20:
 213:Lib/AI_Runtime/Npu/ll_aton/ll_aton.c **** #endif
 385              		.loc 1 213 36 is_stmt 1 discriminator 4 view .LVU112
 217:Lib/AI_Runtime/Npu/ll_aton/ll_aton.c **** #endif
ARM GAS  C:\Users\DJESSOU\AppData\Local\Temp\ccFxekaC.s 			page 31


 386              		.loc 1 217 3 discriminator 1 view .LVU113
 217:Lib/AI_Runtime/Npu/ll_aton/ll_aton.c **** #endif
 387              		.loc 1 217 3 discriminator 1 view .LVU114
 388 0090 5C68     		ldr	r4, [r3, #4]
 389              	.LVL16:
 217:Lib/AI_Runtime/Npu/ll_aton/ll_aton.c **** #endif
 390              		.loc 1 217 3 discriminator 1 view .LVU115
 391 0092 002C     		cmp	r4, #0
 392 0094 FCD0     		beq	.L20
 217:Lib/AI_Runtime/Npu/ll_aton/ll_aton.c **** #endif
 393              		.loc 1 217 3 discriminator 2 view .LVU116
 394 0096 41F61923 		movw	r3, #6681
 395 009a A2B2     		uxth	r2, r4
 396 009c 9A42     		cmp	r2, r3
 397 009e 40F04781 		bne	.L89
 221:Lib/AI_Runtime/Npu/ll_aton/ll_aton.c **** #endif
 398              		.loc 1 221 3 is_stmt 0 discriminator 1 view .LVU117
 399 00a2 824B     		ldr	r3, .L98+28
 400              	.L22:
 217:Lib/AI_Runtime/Npu/ll_aton/ll_aton.c **** #endif
 401              		.loc 1 217 36 is_stmt 1 discriminator 4 view .LVU118
 221:Lib/AI_Runtime/Npu/ll_aton/ll_aton.c **** #endif
 402              		.loc 1 221 3 discriminator 1 view .LVU119
 221:Lib/AI_Runtime/Npu/ll_aton/ll_aton.c **** #endif
 403              		.loc 1 221 3 discriminator 1 view .LVU120
 404 00a4 5C68     		ldr	r4, [r3, #4]
 405              	.LVL17:
 221:Lib/AI_Runtime/Npu/ll_aton/ll_aton.c **** #endif
 406              		.loc 1 221 3 discriminator 1 view .LVU121
 407 00a6 002C     		cmp	r4, #0
 408 00a8 FCD0     		beq	.L22
 221:Lib/AI_Runtime/Npu/ll_aton/ll_aton.c **** #endif
 409              		.loc 1 221 3 discriminator 2 view .LVU122
 410 00aa 41F22113 		movw	r3, #4385
 411 00ae A2B2     		uxth	r2, r4
 412 00b0 9A42     		cmp	r2, r3
 413 00b2 40F06281 		bne	.L90
 225:Lib/AI_Runtime/Npu/ll_aton/ll_aton.c **** #endif
 414              		.loc 1 225 3 is_stmt 0 discriminator 1 view .LVU123
 415 00b6 7E4B     		ldr	r3, .L98+32
 416              	.L24:
 221:Lib/AI_Runtime/Npu/ll_aton/ll_aton.c **** #endif
 417              		.loc 1 221 40 is_stmt 1 discriminator 4 view .LVU124
 225:Lib/AI_Runtime/Npu/ll_aton/ll_aton.c **** #endif
 418              		.loc 1 225 3 discriminator 1 view .LVU125
 225:Lib/AI_Runtime/Npu/ll_aton/ll_aton.c **** #endif
 419              		.loc 1 225 3 discriminator 1 view .LVU126
 420 00b8 5C68     		ldr	r4, [r3, #4]
 421              	.LVL18:
 225:Lib/AI_Runtime/Npu/ll_aton/ll_aton.c **** #endif
 422              		.loc 1 225 3 discriminator 1 view .LVU127
 423 00ba 002C     		cmp	r4, #0
 424 00bc FCD0     		beq	.L24
 225:Lib/AI_Runtime/Npu/ll_aton/ll_aton.c **** #endif
 425              		.loc 1 225 3 discriminator 2 view .LVU128
 426 00be 43F22023 		movw	r3, #12832
 427 00c2 A2B2     		uxth	r2, r4
ARM GAS  C:\Users\DJESSOU\AppData\Local\Temp\ccFxekaC.s 			page 32


 428 00c4 9A42     		cmp	r2, r3
 429 00c6 40F07C81 		bne	.L91
 244:Lib/AI_Runtime/Npu/ll_aton/ll_aton.c **** 
 430              		.loc 1 244 3 is_stmt 0 discriminator 1 view .LVU129
 431 00ca 724B     		ldr	r3, .L98+4
 432              	.L26:
 225:Lib/AI_Runtime/Npu/ll_aton/ll_aton.c **** #endif
 433              		.loc 1 225 37 is_stmt 1 discriminator 4 view .LVU130
 244:Lib/AI_Runtime/Npu/ll_aton/ll_aton.c **** 
 434              		.loc 1 244 3 discriminator 1 view .LVU131
 244:Lib/AI_Runtime/Npu/ll_aton/ll_aton.c **** 
 435              		.loc 1 244 3 discriminator 1 view .LVU132
 436 00cc 5C68     		ldr	r4, [r3, #4]
 437              	.LVL19:
 244:Lib/AI_Runtime/Npu/ll_aton/ll_aton.c **** 
 438              		.loc 1 244 3 discriminator 1 view .LVU133
 439 00ce 002C     		cmp	r4, #0
 440 00d0 FCD0     		beq	.L26
 244:Lib/AI_Runtime/Npu/ll_aton/ll_aton.c **** 
 441              		.loc 1 244 3 discriminator 2 view .LVU134
 442 00d2 41F21F23 		movw	r3, #4639
 443 00d6 A2B2     		uxth	r2, r4
 444 00d8 9A42     		cmp	r2, r3
 445 00da 40F09881 		bne	.L92
 246:Lib/AI_Runtime/Npu/ll_aton/ll_aton.c **** 
 446              		.loc 1 246 3 is_stmt 0 discriminator 1 view .LVU135
 447 00de 754B     		ldr	r3, .L98+36
 448              	.L28:
 244:Lib/AI_Runtime/Npu/ll_aton/ll_aton.c **** 
 449              		.loc 1 244 38 is_stmt 1 discriminator 4 view .LVU136
 246:Lib/AI_Runtime/Npu/ll_aton/ll_aton.c **** 
 450              		.loc 1 246 3 discriminator 1 view .LVU137
 246:Lib/AI_Runtime/Npu/ll_aton/ll_aton.c **** 
 451              		.loc 1 246 3 discriminator 1 view .LVU138
 452 00e0 5C68     		ldr	r4, [r3, #4]
 453              	.LVL20:
 246:Lib/AI_Runtime/Npu/ll_aton/ll_aton.c **** 
 454              		.loc 1 246 3 discriminator 1 view .LVU139
 455 00e2 002C     		cmp	r4, #0
 456 00e4 FCD0     		beq	.L28
 246:Lib/AI_Runtime/Npu/ll_aton/ll_aton.c **** 
 457              		.loc 1 246 3 discriminator 2 view .LVU140
 458 00e6 41F21E13 		movw	r3, #4382
 459 00ea A2B2     		uxth	r2, r4
 460 00ec 9A42     		cmp	r2, r3
 461 00ee 40F0B481 		bne	.L93
 248:Lib/AI_Runtime/Npu/ll_aton/ll_aton.c **** 
 462              		.loc 1 248 3 is_stmt 0 discriminator 1 view .LVU141
 463 00f2 714B     		ldr	r3, .L98+40
 464              	.L30:
 246:Lib/AI_Runtime/Npu/ll_aton/ll_aton.c **** 
 465              		.loc 1 246 38 is_stmt 1 discriminator 4 view .LVU142
 248:Lib/AI_Runtime/Npu/ll_aton/ll_aton.c **** 
 466              		.loc 1 248 3 discriminator 1 view .LVU143
 248:Lib/AI_Runtime/Npu/ll_aton/ll_aton.c **** 
 467              		.loc 1 248 3 discriminator 1 view .LVU144
 468 00f4 5C68     		ldr	r4, [r3, #4]
ARM GAS  C:\Users\DJESSOU\AppData\Local\Temp\ccFxekaC.s 			page 33


 469              	.LVL21:
 248:Lib/AI_Runtime/Npu/ll_aton/ll_aton.c **** 
 470              		.loc 1 248 3 discriminator 1 view .LVU145
 471 00f6 002C     		cmp	r4, #0
 472 00f8 FCD0     		beq	.L30
 248:Lib/AI_Runtime/Npu/ll_aton/ll_aton.c **** 
 473              		.loc 1 248 3 discriminator 2 view .LVU146
 474 00fa A3B2     		uxth	r3, r4
 475 00fc B3F5B05F 		cmp	r3, #5632
 476 0100 40F0CF81 		bne	.L94
 250:Lib/AI_Runtime/Npu/ll_aton/ll_aton.c **** 
 477              		.loc 1 250 3 is_stmt 0 discriminator 1 view .LVU147
 478 0104 6D4A     		ldr	r2, .L98+44
 479              	.L32:
 248:Lib/AI_Runtime/Npu/ll_aton/ll_aton.c **** 
 480              		.loc 1 248 40 is_stmt 1 discriminator 4 view .LVU148
 250:Lib/AI_Runtime/Npu/ll_aton/ll_aton.c **** 
 481              		.loc 1 250 3 discriminator 1 view .LVU149
 250:Lib/AI_Runtime/Npu/ll_aton/ll_aton.c **** 
 482              		.loc 1 250 3 discriminator 1 view .LVU150
 483 0106 5468     		ldr	r4, [r2, #4]
 484              	.LVL22:
 250:Lib/AI_Runtime/Npu/ll_aton/ll_aton.c **** 
 485              		.loc 1 250 3 discriminator 1 view .LVU151
 486 0108 002C     		cmp	r4, #0
 487 010a FCD0     		beq	.L32
 250:Lib/AI_Runtime/Npu/ll_aton/ll_aton.c **** 
 488              		.loc 1 250 3 discriminator 2 view .LVU152
 489 010c 45F21D03 		movw	r3, #20509
 490 0110 A1B2     		uxth	r1, r4
 491 0112 9942     		cmp	r1, r3
 492 0114 00F0EC81 		beq	.L96
 250:Lib/AI_Runtime/Npu/ll_aton/ll_aton.c **** 
 493              		.loc 1 250 3 discriminator 3 view .LVU153
 494 0118 FFF7FEFF 		bl	__errno
 495              	.LVL23:
 250:Lib/AI_Runtime/Npu/ll_aton/ll_aton.c **** 
 496              		.loc 1 250 3 is_stmt 0 discriminator 1 view .LVU154
 497 011c 0368     		ldr	r3, [r0]
 498 011e 002B     		cmp	r3, #0
 499 0120 00F0E481 		beq	.L47
 250:Lib/AI_Runtime/Npu/ll_aton/ll_aton.c **** 
 500              		.loc 1 250 3 discriminator 5 view .LVU155
 501 0124 FFF7FEFF 		bl	__errno
 502              	.LVL24:
 250:Lib/AI_Runtime/Npu/ll_aton/ll_aton.c **** 
 503              		.loc 1 250 3 discriminator 1 view .LVU156
 504 0128 0068     		ldr	r0, [r0]
 505 012a FFF7FEFF 		bl	strerror
 506              	.LVL25:
 507 012e 0346     		mov	r3, r0
 508              	.L35:
 250:Lib/AI_Runtime/Npu/ll_aton/ll_aton.c **** 
 509              		.loc 1 250 3 discriminator 8 view .LVU157
 510 0130 0522     		movs	r2, #5
 511 0132 0021     		movs	r1, #0
 512 0134 CDE90521 		strd	r2, r1, [sp, #20]
ARM GAS  C:\Users\DJESSOU\AppData\Local\Temp\ccFxekaC.s 			page 34


 513 0138 1D22     		movs	r2, #29
 514 013a 0492     		str	r2, [sp, #16]
 515 013c C4F30322 		ubfx	r2, r4, #8, #4
 516 0140 0392     		str	r2, [sp, #12]
 517 0142 C4F30332 		ubfx	r2, r4, #12, #4
 518 0146 0292     		str	r2, [sp, #8]
 519 0148 5D4A     		ldr	r2, .L98+48
 520 014a E4B2     		uxtb	r4, r4
 521              	.LVL26:
 250:Lib/AI_Runtime/Npu/ll_aton/ll_aton.c **** 
 522              		.loc 1 250 3 discriminator 8 view .LVU158
 523 014c 5D49     		ldr	r1, .L98+52
 524 014e 0092     		str	r2, [sp]
 525 0150 5D48     		ldr	r0, .L98+56
 526 0152 FA22     		movs	r2, #250
 527 0154 0194     		str	r4, [sp, #4]
 528 0156 FFF7FEFF 		bl	printf
 529              	.LVL27:
 250:Lib/AI_Runtime/Npu/ll_aton/ll_aton.c **** 
 530              		.loc 1 250 3 is_stmt 1 discriminator 1 view .LVU159
 250:Lib/AI_Runtime/Npu/ll_aton/ll_aton.c **** 
 531              		.loc 1 250 3 discriminator 10 view .LVU160
 532 015a FA21     		movs	r1, #250
 533 015c 5B4B     		ldr	r3, .L98+60
 534 015e 5C4A     		ldr	r2, .L98+64
 535 0160 22E0     		b	.L97
 536              	.LVL28:
 537              	.L84:
 198:Lib/AI_Runtime/Npu/ll_aton/ll_aton.c **** 
 538              		.loc 1 198 3 discriminator 3 view .LVU161
 539 0162 FFF7FEFF 		bl	__errno
 540              	.LVL29:
 198:Lib/AI_Runtime/Npu/ll_aton/ll_aton.c **** 
 541              		.loc 1 198 3 is_stmt 0 discriminator 1 view .LVU162
 542 0166 0368     		ldr	r3, [r0]
 543 0168 0BB3     		cbz	r3, .L36
 198:Lib/AI_Runtime/Npu/ll_aton/ll_aton.c **** 
 544              		.loc 1 198 3 discriminator 5 view .LVU163
 545 016a FFF7FEFF 		bl	__errno
 546              	.LVL30:
 198:Lib/AI_Runtime/Npu/ll_aton/ll_aton.c **** 
 547              		.loc 1 198 3 discriminator 1 view .LVU164
 548 016e 0068     		ldr	r0, [r0]
 549 0170 FFF7FEFF 		bl	strerror
 550              	.LVL31:
 551 0174 0346     		mov	r3, r0
 552              	.L13:
 198:Lib/AI_Runtime/Npu/ll_aton/ll_aton.c **** 
 553              		.loc 1 198 3 discriminator 8 view .LVU165
 554 0176 0522     		movs	r2, #5
 555 0178 4FF0000E 		mov	lr, #0
 556 017c CDE9052E 		strd	r2, lr, [sp, #20]
 557 0180 0122     		movs	r2, #1
 558 0182 0492     		str	r2, [sp, #16]
 559 0184 C4F30322 		ubfx	r2, r4, #8, #4
 560 0188 0392     		str	r2, [sp, #12]
 561 018a C4F30332 		ubfx	r2, r4, #12, #4
ARM GAS  C:\Users\DJESSOU\AppData\Local\Temp\ccFxekaC.s 			page 35


 562 018e 0292     		str	r2, [sp, #8]
 563 0190 504A     		ldr	r2, .L98+68
 564 0192 E4B2     		uxtb	r4, r4
 565              	.LVL32:
 198:Lib/AI_Runtime/Npu/ll_aton/ll_aton.c **** 
 566              		.loc 1 198 3 discriminator 8 view .LVU166
 567 0194 4B49     		ldr	r1, .L98+52
 568 0196 0092     		str	r2, [sp]
 569 0198 4B48     		ldr	r0, .L98+56
 570 019a C622     		movs	r2, #198
 571 019c 0194     		str	r4, [sp, #4]
 572 019e FFF7FEFF 		bl	printf
 573              	.LVL33:
 198:Lib/AI_Runtime/Npu/ll_aton/ll_aton.c **** 
 574              		.loc 1 198 3 is_stmt 1 discriminator 1 view .LVU167
 198:Lib/AI_Runtime/Npu/ll_aton/ll_aton.c **** 
 575              		.loc 1 198 3 discriminator 10 view .LVU168
 576 01a2 C621     		movs	r1, #198
 577 01a4 494B     		ldr	r3, .L98+60
 578 01a6 4A4A     		ldr	r2, .L98+64
 579              	.LVL34:
 580              	.L97:
 201:Lib/AI_Runtime/Npu/ll_aton/ll_aton.c **** #endif
 581              		.loc 1 201 3 is_stmt 0 discriminator 10 view .LVU169
 582 01a8 4648     		ldr	r0, .L98+52
 583 01aa FFF7FEFF 		bl	__assert_func
 584              	.LVL35:
 585              	.L36:
 198:Lib/AI_Runtime/Npu/ll_aton/ll_aton.c **** 
 586              		.loc 1 198 3 discriminator 6 view .LVU170
 587 01ae 4A4B     		ldr	r3, .L98+72
 588 01b0 E1E7     		b	.L13
 589              	.L85:
 201:Lib/AI_Runtime/Npu/ll_aton/ll_aton.c **** #endif
 590              		.loc 1 201 3 is_stmt 1 discriminator 3 view .LVU171
 591 01b2 FFF7FEFF 		bl	__errno
 592              	.LVL36:
 201:Lib/AI_Runtime/Npu/ll_aton/ll_aton.c **** #endif
 593              		.loc 1 201 3 is_stmt 0 discriminator 1 view .LVU172
 594 01b6 0368     		ldr	r3, [r0]
 595 01b8 FBB1     		cbz	r3, .L37
 201:Lib/AI_Runtime/Npu/ll_aton/ll_aton.c **** #endif
 596              		.loc 1 201 3 discriminator 5 view .LVU173
 597 01ba FFF7FEFF 		bl	__errno
 598              	.LVL37:
 201:Lib/AI_Runtime/Npu/ll_aton/ll_aton.c **** #endif
 599              		.loc 1 201 3 discriminator 1 view .LVU174
 600 01be 0068     		ldr	r0, [r0]
 601 01c0 FFF7FEFF 		bl	strerror
 602              	.LVL38:
 603 01c4 0346     		mov	r3, r0
 604              	.L15:
 201:Lib/AI_Runtime/Npu/ll_aton/ll_aton.c **** #endif
 605              		.loc 1 201 3 discriminator 8 view .LVU175
 606 01c6 0522     		movs	r2, #5
 607 01c8 4FF0010C 		mov	ip, #1
 608 01cc CDE9052C 		strd	r2, ip, [sp, #20]
ARM GAS  C:\Users\DJESSOU\AppData\Local\Temp\ccFxekaC.s 			page 36


 609 01d0 1722     		movs	r2, #23
 610 01d2 0492     		str	r2, [sp, #16]
 611 01d4 C4F30322 		ubfx	r2, r4, #8, #4
 612 01d8 0392     		str	r2, [sp, #12]
 613 01da C4F30332 		ubfx	r2, r4, #12, #4
 614 01de 0292     		str	r2, [sp, #8]
 615 01e0 3E4A     		ldr	r2, .L98+76
 616 01e2 E4B2     		uxtb	r4, r4
 617              	.LVL39:
 201:Lib/AI_Runtime/Npu/ll_aton/ll_aton.c **** #endif
 618              		.loc 1 201 3 discriminator 8 view .LVU176
 619 01e4 3749     		ldr	r1, .L98+52
 620 01e6 0092     		str	r2, [sp]
 621 01e8 3748     		ldr	r0, .L98+56
 622 01ea C922     		movs	r2, #201
 623 01ec 0194     		str	r4, [sp, #4]
 624 01ee FFF7FEFF 		bl	printf
 625              	.LVL40:
 201:Lib/AI_Runtime/Npu/ll_aton/ll_aton.c **** #endif
 626              		.loc 1 201 3 is_stmt 1 discriminator 1 view .LVU177
 201:Lib/AI_Runtime/Npu/ll_aton/ll_aton.c **** #endif
 627              		.loc 1 201 3 discriminator 10 view .LVU178
 628 01f2 C921     		movs	r1, #201
 629 01f4 354B     		ldr	r3, .L98+60
 630 01f6 364A     		ldr	r2, .L98+64
 631 01f8 D6E7     		b	.L97
 632              	.LVL41:
 633              	.L37:
 201:Lib/AI_Runtime/Npu/ll_aton/ll_aton.c **** #endif
 634              		.loc 1 201 3 is_stmt 0 discriminator 6 view .LVU179
 635 01fa 374B     		ldr	r3, .L98+72
 636 01fc E3E7     		b	.L15
 637              	.L86:
 205:Lib/AI_Runtime/Npu/ll_aton/ll_aton.c **** #endif
 638              		.loc 1 205 3 is_stmt 1 discriminator 3 view .LVU180
 639 01fe FFF7FEFF 		bl	__errno
 640              	.LVL42:
 205:Lib/AI_Runtime/Npu/ll_aton/ll_aton.c **** #endif
 641              		.loc 1 205 3 is_stmt 0 discriminator 1 view .LVU181
 642 0202 0368     		ldr	r3, [r0]
 643 0204 EBB1     		cbz	r3, .L38
 205:Lib/AI_Runtime/Npu/ll_aton/ll_aton.c **** #endif
 644              		.loc 1 205 3 discriminator 5 view .LVU182
 645 0206 FFF7FEFF 		bl	__errno
 646              	.LVL43:
 205:Lib/AI_Runtime/Npu/ll_aton/ll_aton.c **** #endif
 647              		.loc 1 205 3 discriminator 1 view .LVU183
 648 020a 0068     		ldr	r0, [r0]
 649 020c FFF7FEFF 		bl	strerror
 650              	.LVL44:
 651 0210 0346     		mov	r3, r0
 652              	.L17:
 205:Lib/AI_Runtime/Npu/ll_aton/ll_aton.c **** #endif
 653              		.loc 1 205 3 discriminator 8 view .LVU184
 654 0212 0122     		movs	r2, #1
 655 0214 CDE90522 		strd	r2, r2, [sp, #20]
 656 0218 1C22     		movs	r2, #28
ARM GAS  C:\Users\DJESSOU\AppData\Local\Temp\ccFxekaC.s 			page 37


 657 021a 0492     		str	r2, [sp, #16]
 658 021c C4F30322 		ubfx	r2, r4, #8, #4
 659 0220 0392     		str	r2, [sp, #12]
 660 0222 C4F30332 		ubfx	r2, r4, #12, #4
 661 0226 0292     		str	r2, [sp, #8]
 662 0228 2D4A     		ldr	r2, .L98+80
 663 022a E4B2     		uxtb	r4, r4
 664              	.LVL45:
 205:Lib/AI_Runtime/Npu/ll_aton/ll_aton.c **** #endif
 665              		.loc 1 205 3 discriminator 8 view .LVU185
 666 022c 2549     		ldr	r1, .L98+52
 667 022e 0092     		str	r2, [sp]
 668 0230 2548     		ldr	r0, .L98+56
 669 0232 CD22     		movs	r2, #205
 670 0234 0194     		str	r4, [sp, #4]
 671 0236 FFF7FEFF 		bl	printf
 672              	.LVL46:
 205:Lib/AI_Runtime/Npu/ll_aton/ll_aton.c **** #endif
 673              		.loc 1 205 3 is_stmt 1 discriminator 1 view .LVU186
 205:Lib/AI_Runtime/Npu/ll_aton/ll_aton.c **** #endif
 674              		.loc 1 205 3 discriminator 10 view .LVU187
 675 023a CD21     		movs	r1, #205
 676 023c 234B     		ldr	r3, .L98+60
 677 023e 244A     		ldr	r2, .L98+64
 678 0240 B2E7     		b	.L97
 679              	.LVL47:
 680              	.L38:
 205:Lib/AI_Runtime/Npu/ll_aton/ll_aton.c **** #endif
 681              		.loc 1 205 3 is_stmt 0 discriminator 6 view .LVU188
 682 0242 254B     		ldr	r3, .L98+72
 683 0244 E5E7     		b	.L17
 684              	.L87:
 209:Lib/AI_Runtime/Npu/ll_aton/ll_aton.c **** #endif
 685              		.loc 1 209 3 is_stmt 1 discriminator 3 view .LVU189
 686 0246 FFF7FEFF 		bl	__errno
 687              	.LVL48:
 209:Lib/AI_Runtime/Npu/ll_aton/ll_aton.c **** #endif
 688              		.loc 1 209 3 is_stmt 0 discriminator 1 view .LVU190
 689 024a 0368     		ldr	r3, [r0]
 690 024c F3B1     		cbz	r3, .L39
 209:Lib/AI_Runtime/Npu/ll_aton/ll_aton.c **** #endif
 691              		.loc 1 209 3 discriminator 5 view .LVU191
 692 024e FFF7FEFF 		bl	__errno
 693              	.LVL49:
 209:Lib/AI_Runtime/Npu/ll_aton/ll_aton.c **** #endif
 694              		.loc 1 209 3 discriminator 1 view .LVU192
 695 0252 0068     		ldr	r0, [r0]
 696 0254 FFF7FEFF 		bl	strerror
 697              	.LVL50:
 698 0258 0346     		mov	r3, r0
 699              	.L19:
 209:Lib/AI_Runtime/Npu/ll_aton/ll_aton.c **** #endif
 700              		.loc 1 209 3 discriminator 8 view .LVU193
 701 025a 0122     		movs	r2, #1
 702 025c 0020     		movs	r0, #0
 703 025e CDE90520 		strd	r2, r0, [sp, #20]
 704 0262 1A22     		movs	r2, #26
ARM GAS  C:\Users\DJESSOU\AppData\Local\Temp\ccFxekaC.s 			page 38


 705 0264 0492     		str	r2, [sp, #16]
 706 0266 C4F30322 		ubfx	r2, r4, #8, #4
 707 026a 0392     		str	r2, [sp, #12]
 708 026c C4F30332 		ubfx	r2, r4, #12, #4
 709 0270 0292     		str	r2, [sp, #8]
 710 0272 1C4A     		ldr	r2, .L98+84
 711 0274 E4B2     		uxtb	r4, r4
 712              	.LVL51:
 209:Lib/AI_Runtime/Npu/ll_aton/ll_aton.c **** #endif
 713              		.loc 1 209 3 discriminator 8 view .LVU194
 714 0276 1349     		ldr	r1, .L98+52
 715 0278 0092     		str	r2, [sp]
 716 027a 1348     		ldr	r0, .L98+56
 717 027c D122     		movs	r2, #209
 718 027e 0194     		str	r4, [sp, #4]
 719 0280 FFF7FEFF 		bl	printf
 720              	.LVL52:
 209:Lib/AI_Runtime/Npu/ll_aton/ll_aton.c **** #endif
 721              		.loc 1 209 3 is_stmt 1 discriminator 1 view .LVU195
 209:Lib/AI_Runtime/Npu/ll_aton/ll_aton.c **** #endif
 722              		.loc 1 209 3 discriminator 10 view .LVU196
 723 0284 D121     		movs	r1, #209
 724 0286 114B     		ldr	r3, .L98+60
 725 0288 114A     		ldr	r2, .L98+64
 726 028a 8DE7     		b	.L97
 727              	.LVL53:
 728              	.L39:
 209:Lib/AI_Runtime/Npu/ll_aton/ll_aton.c **** #endif
 729              		.loc 1 209 3 is_stmt 0 discriminator 6 view .LVU197
 730 028c 124B     		ldr	r3, .L98+72
 731 028e E4E7     		b	.L19
 732              	.L99:
 733              		.align	2
 734              	.L98:
 735 0290 00000000 		.word	done.10
 736 0294 00000E58 		.word	1477312512
 737 0298 00F00E58 		.word	1477373952
 738 029c 00B00F58 		.word	1477423104
 739 02a0 00700F58 		.word	1477406720
 740 02a4 00500F58 		.word	1477398528
 741 02a8 00300F58 		.word	1477390336
 742 02ac 00E00F58 		.word	1477435392
 743 02b0 00D00F58 		.word	1477431296
 744 02b4 00100E58 		.word	1477316608
 745 02b8 00400E58 		.word	1477328896
 746 02bc 00200E58 		.word	1477320704
 747 02c0 E1000000 		.word	.LC18
 748 02c4 05000000 		.word	.LC4
 749 02c8 2A000000 		.word	.LC5
 750 02cc 95000000 		.word	.LC7
 751 02d0 00000000 		.word	__func__.11
 752 02d4 8E000000 		.word	.LC6
 753 02d8 00000000 		.word	.LC3
 754 02dc 97000000 		.word	.LC8
 755 02e0 9F000000 		.word	.LC9
 756 02e4 A4000000 		.word	.LC10
 757              	.L88:
ARM GAS  C:\Users\DJESSOU\AppData\Local\Temp\ccFxekaC.s 			page 39


 213:Lib/AI_Runtime/Npu/ll_aton/ll_aton.c **** #endif
 758              		.loc 1 213 3 is_stmt 1 discriminator 3 view .LVU198
 759 02e8 FFF7FEFF 		bl	__errno
 760              	.LVL54:
 213:Lib/AI_Runtime/Npu/ll_aton/ll_aton.c **** #endif
 761              		.loc 1 213 3 is_stmt 0 discriminator 1 view .LVU199
 762 02ec 0368     		ldr	r3, [r0]
 763 02ee EBB1     		cbz	r3, .L40
 213:Lib/AI_Runtime/Npu/ll_aton/ll_aton.c **** #endif
 764              		.loc 1 213 3 discriminator 5 view .LVU200
 765 02f0 FFF7FEFF 		bl	__errno
 766              	.LVL55:
 213:Lib/AI_Runtime/Npu/ll_aton/ll_aton.c **** #endif
 767              		.loc 1 213 3 discriminator 1 view .LVU201
 768 02f4 0068     		ldr	r0, [r0]
 769 02f6 FFF7FEFF 		bl	strerror
 770              	.LVL56:
 771 02fa 0346     		mov	r3, r0
 772              	.L21:
 213:Lib/AI_Runtime/Npu/ll_aton/ll_aton.c **** #endif
 773              		.loc 1 213 3 discriminator 8 view .LVU202
 774 02fc 0122     		movs	r2, #1
 775 02fe CDE90522 		strd	r2, r2, [sp, #20]
 776 0302 1B22     		movs	r2, #27
 777 0304 0492     		str	r2, [sp, #16]
 778 0306 C4F30322 		ubfx	r2, r4, #8, #4
 779 030a 0392     		str	r2, [sp, #12]
 780 030c C4F30332 		ubfx	r2, r4, #12, #4
 781 0310 0292     		str	r2, [sp, #8]
 782 0312 7C4A     		ldr	r2, .L100
 783 0314 E4B2     		uxtb	r4, r4
 784              	.LVL57:
 213:Lib/AI_Runtime/Npu/ll_aton/ll_aton.c **** #endif
 785              		.loc 1 213 3 discriminator 8 view .LVU203
 786 0316 7C49     		ldr	r1, .L100+4
 787 0318 0092     		str	r2, [sp]
 788 031a 7C48     		ldr	r0, .L100+8
 789 031c D522     		movs	r2, #213
 790 031e 0194     		str	r4, [sp, #4]
 791 0320 FFF7FEFF 		bl	printf
 792              	.LVL58:
 213:Lib/AI_Runtime/Npu/ll_aton/ll_aton.c **** #endif
 793              		.loc 1 213 3 is_stmt 1 discriminator 1 view .LVU204
 213:Lib/AI_Runtime/Npu/ll_aton/ll_aton.c **** #endif
 794              		.loc 1 213 3 discriminator 10 view .LVU205
 795 0324 D521     		movs	r1, #213
 796 0326 7A4B     		ldr	r3, .L100+12
 797 0328 7A4A     		ldr	r2, .L100+16
 798 032a 3DE7     		b	.L97
 799              	.LVL59:
 800              	.L40:
 213:Lib/AI_Runtime/Npu/ll_aton/ll_aton.c **** #endif
 801              		.loc 1 213 3 is_stmt 0 discriminator 6 view .LVU206
 802 032c 7A4B     		ldr	r3, .L100+20
 803 032e E5E7     		b	.L21
 804              	.L89:
 217:Lib/AI_Runtime/Npu/ll_aton/ll_aton.c **** #endif
ARM GAS  C:\Users\DJESSOU\AppData\Local\Temp\ccFxekaC.s 			page 40


 805              		.loc 1 217 3 is_stmt 1 discriminator 3 view .LVU207
 806 0330 FFF7FEFF 		bl	__errno
 807              	.LVL60:
 217:Lib/AI_Runtime/Npu/ll_aton/ll_aton.c **** #endif
 808              		.loc 1 217 3 is_stmt 0 discriminator 1 view .LVU208
 809 0334 0368     		ldr	r3, [r0]
 810 0336 F3B1     		cbz	r3, .L41
 217:Lib/AI_Runtime/Npu/ll_aton/ll_aton.c **** #endif
 811              		.loc 1 217 3 discriminator 5 view .LVU209
 812 0338 FFF7FEFF 		bl	__errno
 813              	.LVL61:
 217:Lib/AI_Runtime/Npu/ll_aton/ll_aton.c **** #endif
 814              		.loc 1 217 3 discriminator 1 view .LVU210
 815 033c 0068     		ldr	r0, [r0]
 816 033e FFF7FEFF 		bl	strerror
 817              	.LVL62:
 818 0342 0346     		mov	r3, r0
 819              	.L23:
 217:Lib/AI_Runtime/Npu/ll_aton/ll_aton.c **** #endif
 820              		.loc 1 217 3 discriminator 8 view .LVU211
 821 0344 0122     		movs	r2, #1
 822 0346 0A21     		movs	r1, #10
 823 0348 CDE90521 		strd	r2, r1, [sp, #20]
 824 034c 1922     		movs	r2, #25
 825 034e 0492     		str	r2, [sp, #16]
 826 0350 C4F30322 		ubfx	r2, r4, #8, #4
 827 0354 0392     		str	r2, [sp, #12]
 828 0356 C4F30332 		ubfx	r2, r4, #12, #4
 829 035a 0292     		str	r2, [sp, #8]
 830 035c 6F4A     		ldr	r2, .L100+24
 831 035e E4B2     		uxtb	r4, r4
 832              	.LVL63:
 217:Lib/AI_Runtime/Npu/ll_aton/ll_aton.c **** #endif
 833              		.loc 1 217 3 discriminator 8 view .LVU212
 834 0360 6949     		ldr	r1, .L100+4
 835 0362 0092     		str	r2, [sp]
 836 0364 6948     		ldr	r0, .L100+8
 837 0366 D922     		movs	r2, #217
 838 0368 0194     		str	r4, [sp, #4]
 839 036a FFF7FEFF 		bl	printf
 840              	.LVL64:
 217:Lib/AI_Runtime/Npu/ll_aton/ll_aton.c **** #endif
 841              		.loc 1 217 3 is_stmt 1 discriminator 1 view .LVU213
 217:Lib/AI_Runtime/Npu/ll_aton/ll_aton.c **** #endif
 842              		.loc 1 217 3 discriminator 10 view .LVU214
 843 036e D921     		movs	r1, #217
 844 0370 674B     		ldr	r3, .L100+12
 845 0372 684A     		ldr	r2, .L100+16
 846 0374 18E7     		b	.L97
 847              	.LVL65:
 848              	.L41:
 217:Lib/AI_Runtime/Npu/ll_aton/ll_aton.c **** #endif
 849              		.loc 1 217 3 is_stmt 0 discriminator 6 view .LVU215
 850 0376 684B     		ldr	r3, .L100+20
 851 0378 E4E7     		b	.L23
 852              	.L90:
 221:Lib/AI_Runtime/Npu/ll_aton/ll_aton.c **** #endif
ARM GAS  C:\Users\DJESSOU\AppData\Local\Temp\ccFxekaC.s 			page 41


 853              		.loc 1 221 3 is_stmt 1 discriminator 3 view .LVU216
 854 037a FFF7FEFF 		bl	__errno
 855              	.LVL66:
 221:Lib/AI_Runtime/Npu/ll_aton/ll_aton.c **** #endif
 856              		.loc 1 221 3 is_stmt 0 discriminator 1 view .LVU217
 857 037e 0368     		ldr	r3, [r0]
 858 0380 EBB1     		cbz	r3, .L42
 221:Lib/AI_Runtime/Npu/ll_aton/ll_aton.c **** #endif
 859              		.loc 1 221 3 discriminator 5 view .LVU218
 860 0382 FFF7FEFF 		bl	__errno
 861              	.LVL67:
 221:Lib/AI_Runtime/Npu/ll_aton/ll_aton.c **** #endif
 862              		.loc 1 221 3 discriminator 1 view .LVU219
 863 0386 0068     		ldr	r0, [r0]
 864 0388 FFF7FEFF 		bl	strerror
 865              	.LVL68:
 866 038c 0346     		mov	r3, r0
 867              	.L25:
 221:Lib/AI_Runtime/Npu/ll_aton/ll_aton.c **** #endif
 868              		.loc 1 221 3 discriminator 8 view .LVU220
 869 038e 0122     		movs	r2, #1
 870 0390 CDE90522 		strd	r2, r2, [sp, #20]
 871 0394 2122     		movs	r2, #33
 872 0396 0492     		str	r2, [sp, #16]
 873 0398 C4F30322 		ubfx	r2, r4, #8, #4
 874 039c 0392     		str	r2, [sp, #12]
 875 039e C4F30332 		ubfx	r2, r4, #12, #4
 876 03a2 0292     		str	r2, [sp, #8]
 877 03a4 5E4A     		ldr	r2, .L100+28
 878 03a6 E4B2     		uxtb	r4, r4
 879              	.LVL69:
 221:Lib/AI_Runtime/Npu/ll_aton/ll_aton.c **** #endif
 880              		.loc 1 221 3 discriminator 8 view .LVU221
 881 03a8 5749     		ldr	r1, .L100+4
 882 03aa 0092     		str	r2, [sp]
 883 03ac 5748     		ldr	r0, .L100+8
 884 03ae DD22     		movs	r2, #221
 885 03b0 0194     		str	r4, [sp, #4]
 886 03b2 FFF7FEFF 		bl	printf
 887              	.LVL70:
 221:Lib/AI_Runtime/Npu/ll_aton/ll_aton.c **** #endif
 888              		.loc 1 221 3 is_stmt 1 discriminator 1 view .LVU222
 221:Lib/AI_Runtime/Npu/ll_aton/ll_aton.c **** #endif
 889              		.loc 1 221 3 discriminator 10 view .LVU223
 890 03b6 DD21     		movs	r1, #221
 891 03b8 554B     		ldr	r3, .L100+12
 892 03ba 564A     		ldr	r2, .L100+16
 893 03bc F4E6     		b	.L97
 894              	.LVL71:
 895              	.L42:
 221:Lib/AI_Runtime/Npu/ll_aton/ll_aton.c **** #endif
 896              		.loc 1 221 3 is_stmt 0 discriminator 6 view .LVU224
 897 03be 564B     		ldr	r3, .L100+20
 898 03c0 E5E7     		b	.L25
 899              	.L91:
 225:Lib/AI_Runtime/Npu/ll_aton/ll_aton.c **** #endif
 900              		.loc 1 225 3 is_stmt 1 discriminator 3 view .LVU225
ARM GAS  C:\Users\DJESSOU\AppData\Local\Temp\ccFxekaC.s 			page 42


 901 03c2 FFF7FEFF 		bl	__errno
 902              	.LVL72:
 225:Lib/AI_Runtime/Npu/ll_aton/ll_aton.c **** #endif
 903              		.loc 1 225 3 is_stmt 0 discriminator 1 view .LVU226
 904 03c6 0368     		ldr	r3, [r0]
 905 03c8 FBB1     		cbz	r3, .L43
 225:Lib/AI_Runtime/Npu/ll_aton/ll_aton.c **** #endif
 906              		.loc 1 225 3 discriminator 5 view .LVU227
 907 03ca FFF7FEFF 		bl	__errno
 908              	.LVL73:
 225:Lib/AI_Runtime/Npu/ll_aton/ll_aton.c **** #endif
 909              		.loc 1 225 3 discriminator 1 view .LVU228
 910 03ce 0068     		ldr	r0, [r0]
 911 03d0 FFF7FEFF 		bl	strerror
 912              	.LVL74:
 913 03d4 0346     		mov	r3, r0
 914              	.L27:
 225:Lib/AI_Runtime/Npu/ll_aton/ll_aton.c **** #endif
 915              		.loc 1 225 3 discriminator 8 view .LVU229
 916 03d6 0322     		movs	r2, #3
 917 03d8 4FF0020E 		mov	lr, #2
 918 03dc CDE9052E 		strd	r2, lr, [sp, #20]
 919 03e0 2022     		movs	r2, #32
 920 03e2 0492     		str	r2, [sp, #16]
 921 03e4 C4F30322 		ubfx	r2, r4, #8, #4
 922 03e8 0392     		str	r2, [sp, #12]
 923 03ea C4F30332 		ubfx	r2, r4, #12, #4
 924 03ee 0292     		str	r2, [sp, #8]
 925 03f0 4C4A     		ldr	r2, .L100+32
 926 03f2 E4B2     		uxtb	r4, r4
 927              	.LVL75:
 225:Lib/AI_Runtime/Npu/ll_aton/ll_aton.c **** #endif
 928              		.loc 1 225 3 discriminator 8 view .LVU230
 929 03f4 4449     		ldr	r1, .L100+4
 930 03f6 0092     		str	r2, [sp]
 931 03f8 4448     		ldr	r0, .L100+8
 932 03fa E122     		movs	r2, #225
 933 03fc 0194     		str	r4, [sp, #4]
 934 03fe FFF7FEFF 		bl	printf
 935              	.LVL76:
 225:Lib/AI_Runtime/Npu/ll_aton/ll_aton.c **** #endif
 936              		.loc 1 225 3 is_stmt 1 discriminator 1 view .LVU231
 225:Lib/AI_Runtime/Npu/ll_aton/ll_aton.c **** #endif
 937              		.loc 1 225 3 discriminator 10 view .LVU232
 938 0402 E121     		movs	r1, #225
 939 0404 424B     		ldr	r3, .L100+12
 940 0406 434A     		ldr	r2, .L100+16
 941 0408 CEE6     		b	.L97
 942              	.LVL77:
 943              	.L43:
 225:Lib/AI_Runtime/Npu/ll_aton/ll_aton.c **** #endif
 944              		.loc 1 225 3 is_stmt 0 discriminator 6 view .LVU233
 945 040a 434B     		ldr	r3, .L100+20
 946 040c E3E7     		b	.L27
 947              	.L92:
 244:Lib/AI_Runtime/Npu/ll_aton/ll_aton.c **** 
 948              		.loc 1 244 3 is_stmt 1 discriminator 3 view .LVU234
ARM GAS  C:\Users\DJESSOU\AppData\Local\Temp\ccFxekaC.s 			page 43


 949 040e FFF7FEFF 		bl	__errno
 950              	.LVL78:
 244:Lib/AI_Runtime/Npu/ll_aton/ll_aton.c **** 
 951              		.loc 1 244 3 is_stmt 0 discriminator 1 view .LVU235
 952 0412 0368     		ldr	r3, [r0]
 953 0414 FBB1     		cbz	r3, .L44
 244:Lib/AI_Runtime/Npu/ll_aton/ll_aton.c **** 
 954              		.loc 1 244 3 discriminator 5 view .LVU236
 955 0416 FFF7FEFF 		bl	__errno
 956              	.LVL79:
 244:Lib/AI_Runtime/Npu/ll_aton/ll_aton.c **** 
 957              		.loc 1 244 3 discriminator 1 view .LVU237
 958 041a 0068     		ldr	r0, [r0]
 959 041c FFF7FEFF 		bl	strerror
 960              	.LVL80:
 961 0420 0346     		mov	r3, r0
 962              	.L29:
 244:Lib/AI_Runtime/Npu/ll_aton/ll_aton.c **** 
 963              		.loc 1 244 3 discriminator 8 view .LVU238
 964 0422 0122     		movs	r2, #1
 965 0424 4FF0020C 		mov	ip, #2
 966 0428 CDE9052C 		strd	r2, ip, [sp, #20]
 967 042c 1F22     		movs	r2, #31
 968 042e 0492     		str	r2, [sp, #16]
 969 0430 C4F30322 		ubfx	r2, r4, #8, #4
 970 0434 0392     		str	r2, [sp, #12]
 971 0436 C4F30332 		ubfx	r2, r4, #12, #4
 972 043a 0292     		str	r2, [sp, #8]
 973 043c 3A4A     		ldr	r2, .L100+36
 974 043e E4B2     		uxtb	r4, r4
 975              	.LVL81:
 244:Lib/AI_Runtime/Npu/ll_aton/ll_aton.c **** 
 976              		.loc 1 244 3 discriminator 8 view .LVU239
 977 0440 3149     		ldr	r1, .L100+4
 978 0442 0092     		str	r2, [sp]
 979 0444 3148     		ldr	r0, .L100+8
 980 0446 F422     		movs	r2, #244
 981 0448 0194     		str	r4, [sp, #4]
 982 044a FFF7FEFF 		bl	printf
 983              	.LVL82:
 244:Lib/AI_Runtime/Npu/ll_aton/ll_aton.c **** 
 984              		.loc 1 244 3 is_stmt 1 discriminator 1 view .LVU240
 244:Lib/AI_Runtime/Npu/ll_aton/ll_aton.c **** 
 985              		.loc 1 244 3 discriminator 10 view .LVU241
 986 044e F421     		movs	r1, #244
 987 0450 2F4B     		ldr	r3, .L100+12
 988 0452 304A     		ldr	r2, .L100+16
 989 0454 A8E6     		b	.L97
 990              	.LVL83:
 991              	.L44:
 244:Lib/AI_Runtime/Npu/ll_aton/ll_aton.c **** 
 992              		.loc 1 244 3 is_stmt 0 discriminator 6 view .LVU242
 993 0456 304B     		ldr	r3, .L100+20
 994 0458 E3E7     		b	.L29
 995              	.L93:
 246:Lib/AI_Runtime/Npu/ll_aton/ll_aton.c **** 
 996              		.loc 1 246 3 is_stmt 1 discriminator 3 view .LVU243
ARM GAS  C:\Users\DJESSOU\AppData\Local\Temp\ccFxekaC.s 			page 44


 997 045a FFF7FEFF 		bl	__errno
 998              	.LVL84:
 246:Lib/AI_Runtime/Npu/ll_aton/ll_aton.c **** 
 999              		.loc 1 246 3 is_stmt 0 discriminator 1 view .LVU244
 1000 045e 0368     		ldr	r3, [r0]
 1001 0460 EBB1     		cbz	r3, .L45
 246:Lib/AI_Runtime/Npu/ll_aton/ll_aton.c **** 
 1002              		.loc 1 246 3 discriminator 5 view .LVU245
 1003 0462 FFF7FEFF 		bl	__errno
 1004              	.LVL85:
 246:Lib/AI_Runtime/Npu/ll_aton/ll_aton.c **** 
 1005              		.loc 1 246 3 discriminator 1 view .LVU246
 1006 0466 0068     		ldr	r0, [r0]
 1007 0468 FFF7FEFF 		bl	strerror
 1008              	.LVL86:
 1009 046c 0346     		mov	r3, r0
 1010              	.L31:
 246:Lib/AI_Runtime/Npu/ll_aton/ll_aton.c **** 
 1011              		.loc 1 246 3 discriminator 8 view .LVU247
 1012 046e 0122     		movs	r2, #1
 1013 0470 CDE90522 		strd	r2, r2, [sp, #20]
 1014 0474 1E22     		movs	r2, #30
 1015 0476 0492     		str	r2, [sp, #16]
 1016 0478 C4F30322 		ubfx	r2, r4, #8, #4
 1017 047c 0392     		str	r2, [sp, #12]
 1018 047e C4F30332 		ubfx	r2, r4, #12, #4
 1019 0482 0292     		str	r2, [sp, #8]
 1020 0484 294A     		ldr	r2, .L100+40
 1021 0486 E4B2     		uxtb	r4, r4
 1022              	.LVL87:
 246:Lib/AI_Runtime/Npu/ll_aton/ll_aton.c **** 
 1023              		.loc 1 246 3 discriminator 8 view .LVU248
 1024 0488 1F49     		ldr	r1, .L100+4
 1025 048a 0092     		str	r2, [sp]
 1026 048c 1F48     		ldr	r0, .L100+8
 1027 048e F622     		movs	r2, #246
 1028 0490 0194     		str	r4, [sp, #4]
 1029 0492 FFF7FEFF 		bl	printf
 1030              	.LVL88:
 246:Lib/AI_Runtime/Npu/ll_aton/ll_aton.c **** 
 1031              		.loc 1 246 3 is_stmt 1 discriminator 1 view .LVU249
 246:Lib/AI_Runtime/Npu/ll_aton/ll_aton.c **** 
 1032              		.loc 1 246 3 discriminator 10 view .LVU250
 1033 0496 F621     		movs	r1, #246
 1034 0498 1D4B     		ldr	r3, .L100+12
 1035 049a 1E4A     		ldr	r2, .L100+16
 1036 049c 84E6     		b	.L97
 1037              	.LVL89:
 1038              	.L45:
 246:Lib/AI_Runtime/Npu/ll_aton/ll_aton.c **** 
 1039              		.loc 1 246 3 is_stmt 0 discriminator 6 view .LVU251
 1040 049e 1E4B     		ldr	r3, .L100+20
 1041 04a0 E5E7     		b	.L31
 1042              	.L94:
 248:Lib/AI_Runtime/Npu/ll_aton/ll_aton.c **** 
 1043              		.loc 1 248 3 is_stmt 1 discriminator 3 view .LVU252
 1044 04a2 FFF7FEFF 		bl	__errno
ARM GAS  C:\Users\DJESSOU\AppData\Local\Temp\ccFxekaC.s 			page 45


 1045              	.LVL90:
 248:Lib/AI_Runtime/Npu/ll_aton/ll_aton.c **** 
 1046              		.loc 1 248 3 is_stmt 0 discriminator 1 view .LVU253
 1047 04a6 0368     		ldr	r3, [r0]
 1048 04a8 F3B1     		cbz	r3, .L46
 248:Lib/AI_Runtime/Npu/ll_aton/ll_aton.c **** 
 1049              		.loc 1 248 3 discriminator 5 view .LVU254
 1050 04aa FFF7FEFF 		bl	__errno
 1051              	.LVL91:
 248:Lib/AI_Runtime/Npu/ll_aton/ll_aton.c **** 
 1052              		.loc 1 248 3 discriminator 1 view .LVU255
 1053 04ae 0068     		ldr	r0, [r0]
 1054 04b0 FFF7FEFF 		bl	strerror
 1055              	.LVL92:
 1056 04b4 0346     		mov	r3, r0
 1057              	.L33:
 248:Lib/AI_Runtime/Npu/ll_aton/ll_aton.c **** 
 1058              		.loc 1 248 3 discriminator 8 view .LVU256
 1059 04b6 0122     		movs	r2, #1
 1060 04b8 0620     		movs	r0, #6
 1061 04ba CDE90520 		strd	r2, r0, [sp, #20]
 1062 04be 0022     		movs	r2, #0
 1063 04c0 0492     		str	r2, [sp, #16]
 1064 04c2 C4F30322 		ubfx	r2, r4, #8, #4
 1065 04c6 0392     		str	r2, [sp, #12]
 1066 04c8 C4F30332 		ubfx	r2, r4, #12, #4
 1067 04cc 0292     		str	r2, [sp, #8]
 1068 04ce 184A     		ldr	r2, .L100+44
 1069 04d0 E4B2     		uxtb	r4, r4
 1070              	.LVL93:
 248:Lib/AI_Runtime/Npu/ll_aton/ll_aton.c **** 
 1071              		.loc 1 248 3 discriminator 8 view .LVU257
 1072 04d2 0D49     		ldr	r1, .L100+4
 1073 04d4 0092     		str	r2, [sp]
 1074 04d6 0D48     		ldr	r0, .L100+8
 1075 04d8 F822     		movs	r2, #248
 1076 04da 0194     		str	r4, [sp, #4]
 1077 04dc FFF7FEFF 		bl	printf
 1078              	.LVL94:
 248:Lib/AI_Runtime/Npu/ll_aton/ll_aton.c **** 
 1079              		.loc 1 248 3 is_stmt 1 discriminator 1 view .LVU258
 248:Lib/AI_Runtime/Npu/ll_aton/ll_aton.c **** 
 1080              		.loc 1 248 3 discriminator 10 view .LVU259
 1081 04e0 F821     		movs	r1, #248
 1082 04e2 0B4B     		ldr	r3, .L100+12
 1083 04e4 0B4A     		ldr	r2, .L100+16
 1084 04e6 5FE6     		b	.L97
 1085              	.LVL95:
 1086              	.L46:
 248:Lib/AI_Runtime/Npu/ll_aton/ll_aton.c **** 
 1087              		.loc 1 248 3 is_stmt 0 discriminator 6 view .LVU260
 1088 04e8 0B4B     		ldr	r3, .L100+20
 1089 04ea E4E7     		b	.L33
 1090              	.L47:
 250:Lib/AI_Runtime/Npu/ll_aton/ll_aton.c **** 
 1091              		.loc 1 250 3 discriminator 6 view .LVU261
 1092 04ec 0A4B     		ldr	r3, .L100+20
ARM GAS  C:\Users\DJESSOU\AppData\Local\Temp\ccFxekaC.s 			page 46


 1093 04ee 1FE6     		b	.L35
 1094              	.L96:
 1095              	.LVL96:
 253:Lib/AI_Runtime/Npu/ll_aton/ll_aton.c ****   {
 1096              		.loc 1 253 17 is_stmt 1 discriminator 1 view .LVU262
 255:Lib/AI_Runtime/Npu/ll_aton/ll_aton.c ****   }
 1097              		.loc 1 255 5 view .LVU263
 255:Lib/AI_Runtime/Npu/ll_aton/ll_aton.c ****   }
 1098              		.loc 1 255 5 view .LVU264
 255:Lib/AI_Runtime/Npu/ll_aton/ll_aton.c ****   }
 1099              		.loc 1 255 5 view .LVU265
 255:Lib/AI_Runtime/Npu/ll_aton/ll_aton.c ****   }
 1100              		.loc 1 255 5 is_stmt 0 discriminator 4 view .LVU266
 1101 04f0 0123     		movs	r3, #1
 262:Lib/AI_Runtime/Npu/ll_aton/ll_aton.c **** 
 1102              		.loc 1 262 1 view .LVU267
 1103 04f2 0020     		movs	r0, #0
 255:Lib/AI_Runtime/Npu/ll_aton/ll_aton.c ****   }
 1104              		.loc 1 255 5 discriminator 4 view .LVU268
 1105 04f4 1360     		str	r3, [r2]
 255:Lib/AI_Runtime/Npu/ll_aton/ll_aton.c ****   }
 1106              		.loc 1 255 5 is_stmt 1 discriminator 4 view .LVU269
 255:Lib/AI_Runtime/Npu/ll_aton/ll_aton.c ****   }
 1107              		.loc 1 255 5 discriminator 4 view .LVU270
 253:Lib/AI_Runtime/Npu/ll_aton/ll_aton.c ****   {
 1108              		.loc 1 253 36 discriminator 2 view .LVU271
 1109              	.LVL97:
 253:Lib/AI_Runtime/Npu/ll_aton/ll_aton.c ****   {
 1110              		.loc 1 253 17 discriminator 1 view .LVU272
 255:Lib/AI_Runtime/Npu/ll_aton/ll_aton.c ****   }
 1111              		.loc 1 255 5 view .LVU273
 255:Lib/AI_Runtime/Npu/ll_aton/ll_aton.c ****   }
 1112              		.loc 1 255 5 view .LVU274
 255:Lib/AI_Runtime/Npu/ll_aton/ll_aton.c ****   }
 1113              		.loc 1 255 5 view .LVU275
 255:Lib/AI_Runtime/Npu/ll_aton/ll_aton.c ****   }
 1114              		.loc 1 255 5 is_stmt 0 discriminator 4 view .LVU276
 1115 04f6 0F4A     		ldr	r2, .L100+48
 1116 04f8 1360     		str	r3, [r2]
 255:Lib/AI_Runtime/Npu/ll_aton/ll_aton.c ****   }
 1117              		.loc 1 255 5 is_stmt 1 discriminator 4 view .LVU277
 255:Lib/AI_Runtime/Npu/ll_aton/ll_aton.c ****   }
 1118              		.loc 1 255 5 discriminator 4 view .LVU278
 253:Lib/AI_Runtime/Npu/ll_aton/ll_aton.c ****   {
 1119              		.loc 1 253 36 discriminator 2 view .LVU279
 1120              	.LVL98:
 253:Lib/AI_Runtime/Npu/ll_aton/ll_aton.c ****   {
 1121              		.loc 1 253 17 discriminator 1 view .LVU280
 259:Lib/AI_Runtime/Npu/ll_aton/ll_aton.c **** 
 1122              		.loc 1 259 3 view .LVU281
 259:Lib/AI_Runtime/Npu/ll_aton/ll_aton.c **** 
 1123              		.loc 1 259 3 view .LVU282
 259:Lib/AI_Runtime/Npu/ll_aton/ll_aton.c **** 
 1124              		.loc 1 259 3 view .LVU283
 1125 04fa A2F50052 		sub	r2, r2, #8192
 1126 04fe 1360     		str	r3, [r2]
 259:Lib/AI_Runtime/Npu/ll_aton/ll_aton.c **** 
ARM GAS  C:\Users\DJESSOU\AppData\Local\Temp\ccFxekaC.s 			page 47


 1127              		.loc 1 259 3 view .LVU284
 259:Lib/AI_Runtime/Npu/ll_aton/ll_aton.c **** 
 1128              		.loc 1 259 3 view .LVU285
 261:Lib/AI_Runtime/Npu/ll_aton/ll_aton.c **** }
 1129              		.loc 1 261 3 view .LVU286
 262:Lib/AI_Runtime/Npu/ll_aton/ll_aton.c **** 
 1130              		.loc 1 262 1 is_stmt 0 view .LVU287
 1131 0500 08B0     		add	sp, sp, #32
 1132              		.cfi_def_cfa_offset 8
 1133              		@ sp needed
 1134 0502 10BD     		pop	{r4, pc}
 1135              	.LVL99:
 1136              	.L101:
 262:Lib/AI_Runtime/Npu/ll_aton/ll_aton.c **** 
 1137              		.loc 1 262 1 view .LVU288
 1138              		.align	2
 1139              	.L100:
 1140 0504 AA000000 		.word	.LC11
 1141 0508 05000000 		.word	.LC4
 1142 050c 2A000000 		.word	.LC5
 1143 0510 95000000 		.word	.LC7
 1144 0514 00000000 		.word	__func__.11
 1145 0518 00000000 		.word	.LC3
 1146 051c B0000000 		.word	.LC12
 1147 0520 B6000000 		.word	.LC13
 1148 0524 C0000000 		.word	.LC14
 1149 0528 C7000000 		.word	.LC15
 1150 052c CF000000 		.word	.LC16
 1151 0530 D7000000 		.word	.LC17
 1152 0534 00300E58 		.word	1477324800
 1153              		.cfi_endproc
 1154              	.LFE287:
 1156              		.section	.text.LL_ATON_DeInit,"ax",%progbits
 1157              		.align	1
 1158              		.global	LL_ATON_DeInit
 1159              		.syntax unified
 1160              		.thumb
 1161              		.thumb_func
 1163              	LL_ATON_DeInit:
 1164              	.LFB288:
 269:Lib/AI_Runtime/Npu/ll_aton/ll_aton.c ****   int i;
 1165              		.loc 1 269 1 is_stmt 1 view -0
 1166              		.cfi_startproc
 1167              		@ args = 0, pretend = 0, frame = 0
 1168              		@ frame_needed = 0, uses_anonymous_args = 0
 1169              		@ link register save eliminated.
 270:Lib/AI_Runtime/Npu/ll_aton/ll_aton.c **** 
 1170              		.loc 1 270 3 view .LVU290
 273:Lib/AI_Runtime/Npu/ll_aton/ll_aton.c **** 
 1171              		.loc 1 273 3 view .LVU291
 273:Lib/AI_Runtime/Npu/ll_aton/ll_aton.c **** 
 1172              		.loc 1 273 3 view .LVU292
 273:Lib/AI_Runtime/Npu/ll_aton/ll_aton.c **** 
 1173              		.loc 1 273 3 view .LVU293
 1174 0000 0020     		movs	r0, #0
 1175 0002 074B     		ldr	r3, .L103
 1176 0004 1860     		str	r0, [r3]
ARM GAS  C:\Users\DJESSOU\AppData\Local\Temp\ccFxekaC.s 			page 48


 273:Lib/AI_Runtime/Npu/ll_aton/ll_aton.c **** 
 1177              		.loc 1 273 3 view .LVU294
 273:Lib/AI_Runtime/Npu/ll_aton/ll_aton.c **** 
 1178              		.loc 1 273 3 view .LVU295
 276:Lib/AI_Runtime/Npu/ll_aton/ll_aton.c ****   {
 1179              		.loc 1 276 3 view .LVU296
 1180              	.LVL100:
 276:Lib/AI_Runtime/Npu/ll_aton/ll_aton.c ****   {
 1181              		.loc 1 276 17 discriminator 1 view .LVU297
 278:Lib/AI_Runtime/Npu/ll_aton/ll_aton.c ****   }
 1182              		.loc 1 278 5 view .LVU298
 278:Lib/AI_Runtime/Npu/ll_aton/ll_aton.c ****   }
 1183              		.loc 1 278 5 view .LVU299
 278:Lib/AI_Runtime/Npu/ll_aton/ll_aton.c ****   }
 1184              		.loc 1 278 5 view .LVU300
 278:Lib/AI_Runtime/Npu/ll_aton/ll_aton.c ****   }
 1185              		.loc 1 278 5 is_stmt 0 discriminator 4 view .LVU301
 1186 0006 03F58053 		add	r3, r3, #4096
 1187 000a 1860     		str	r0, [r3]
 278:Lib/AI_Runtime/Npu/ll_aton/ll_aton.c ****   }
 1188              		.loc 1 278 5 is_stmt 1 discriminator 4 view .LVU302
 278:Lib/AI_Runtime/Npu/ll_aton/ll_aton.c ****   }
 1189              		.loc 1 278 5 discriminator 4 view .LVU303
 276:Lib/AI_Runtime/Npu/ll_aton/ll_aton.c ****   {
 1190              		.loc 1 276 36 discriminator 2 view .LVU304
 1191              	.LVL101:
 276:Lib/AI_Runtime/Npu/ll_aton/ll_aton.c ****   {
 1192              		.loc 1 276 17 discriminator 1 view .LVU305
 278:Lib/AI_Runtime/Npu/ll_aton/ll_aton.c ****   }
 1193              		.loc 1 278 5 view .LVU306
 278:Lib/AI_Runtime/Npu/ll_aton/ll_aton.c ****   }
 1194              		.loc 1 278 5 view .LVU307
 278:Lib/AI_Runtime/Npu/ll_aton/ll_aton.c ****   }
 1195              		.loc 1 278 5 view .LVU308
 278:Lib/AI_Runtime/Npu/ll_aton/ll_aton.c ****   }
 1196              		.loc 1 278 5 is_stmt 0 discriminator 4 view .LVU309
 1197 000c 03F58053 		add	r3, r3, #4096
 1198 0010 1860     		str	r0, [r3]
 278:Lib/AI_Runtime/Npu/ll_aton/ll_aton.c ****   }
 1199              		.loc 1 278 5 is_stmt 1 discriminator 4 view .LVU310
 278:Lib/AI_Runtime/Npu/ll_aton/ll_aton.c ****   }
 1200              		.loc 1 278 5 discriminator 4 view .LVU311
 276:Lib/AI_Runtime/Npu/ll_aton/ll_aton.c ****   {
 1201              		.loc 1 276 36 discriminator 2 view .LVU312
 1202              	.LVL102:
 276:Lib/AI_Runtime/Npu/ll_aton/ll_aton.c ****   {
 1203              		.loc 1 276 17 discriminator 1 view .LVU313
 282:Lib/AI_Runtime/Npu/ll_aton/ll_aton.c ****   ATON_CLKCTRL_AGATES1_SET(0, 0);
 1204              		.loc 1 282 3 view .LVU314
 282:Lib/AI_Runtime/Npu/ll_aton/ll_aton.c ****   ATON_CLKCTRL_AGATES1_SET(0, 0);
 1205              		.loc 1 282 3 view .LVU315
 282:Lib/AI_Runtime/Npu/ll_aton/ll_aton.c ****   ATON_CLKCTRL_AGATES1_SET(0, 0);
 1206              		.loc 1 282 3 view .LVU316
 1207 0012 A3F54053 		sub	r3, r3, #12288
 1208 0016 9860     		str	r0, [r3, #8]
 282:Lib/AI_Runtime/Npu/ll_aton/ll_aton.c ****   ATON_CLKCTRL_AGATES1_SET(0, 0);
 1209              		.loc 1 282 3 view .LVU317
ARM GAS  C:\Users\DJESSOU\AppData\Local\Temp\ccFxekaC.s 			page 49


 282:Lib/AI_Runtime/Npu/ll_aton/ll_aton.c ****   ATON_CLKCTRL_AGATES1_SET(0, 0);
 1210              		.loc 1 282 3 view .LVU318
 283:Lib/AI_Runtime/Npu/ll_aton/ll_aton.c ****   ATON_CLKCTRL_BGATES_SET(0, 0);
 1211              		.loc 1 283 3 view .LVU319
 283:Lib/AI_Runtime/Npu/ll_aton/ll_aton.c ****   ATON_CLKCTRL_BGATES_SET(0, 0);
 1212              		.loc 1 283 3 view .LVU320
 283:Lib/AI_Runtime/Npu/ll_aton/ll_aton.c ****   ATON_CLKCTRL_BGATES_SET(0, 0);
 1213              		.loc 1 283 3 view .LVU321
 1214 0018 D860     		str	r0, [r3, #12]
 283:Lib/AI_Runtime/Npu/ll_aton/ll_aton.c ****   ATON_CLKCTRL_BGATES_SET(0, 0);
 1215              		.loc 1 283 3 view .LVU322
 283:Lib/AI_Runtime/Npu/ll_aton/ll_aton.c ****   ATON_CLKCTRL_BGATES_SET(0, 0);
 1216              		.loc 1 283 3 view .LVU323
 284:Lib/AI_Runtime/Npu/ll_aton/ll_aton.c **** #ifdef ATON_CLKCTRL_BGATES1_OFFSET
 1217              		.loc 1 284 3 view .LVU324
 284:Lib/AI_Runtime/Npu/ll_aton/ll_aton.c **** #ifdef ATON_CLKCTRL_BGATES1_OFFSET
 1218              		.loc 1 284 3 view .LVU325
 284:Lib/AI_Runtime/Npu/ll_aton/ll_aton.c **** #ifdef ATON_CLKCTRL_BGATES1_OFFSET
 1219              		.loc 1 284 3 view .LVU326
 1220 001a 1861     		str	r0, [r3, #16]
 284:Lib/AI_Runtime/Npu/ll_aton/ll_aton.c **** #ifdef ATON_CLKCTRL_BGATES1_OFFSET
 1221              		.loc 1 284 3 view .LVU327
 284:Lib/AI_Runtime/Npu/ll_aton/ll_aton.c **** #ifdef ATON_CLKCTRL_BGATES1_OFFSET
 1222              		.loc 1 284 3 view .LVU328
 288:Lib/AI_Runtime/Npu/ll_aton/ll_aton.c **** 
 1223              		.loc 1 288 3 view .LVU329
 288:Lib/AI_Runtime/Npu/ll_aton/ll_aton.c **** 
 1224              		.loc 1 288 3 view .LVU330
 288:Lib/AI_Runtime/Npu/ll_aton/ll_aton.c **** 
 1225              		.loc 1 288 3 view .LVU331
 1226 001c 1860     		str	r0, [r3]
 288:Lib/AI_Runtime/Npu/ll_aton/ll_aton.c **** 
 1227              		.loc 1 288 3 view .LVU332
 288:Lib/AI_Runtime/Npu/ll_aton/ll_aton.c **** 
 1228              		.loc 1 288 3 view .LVU333
 290:Lib/AI_Runtime/Npu/ll_aton/ll_aton.c **** }
 1229              		.loc 1 290 3 view .LVU334
 291:Lib/AI_Runtime/Npu/ll_aton/ll_aton.c **** 
 1230              		.loc 1 291 1 is_stmt 0 view .LVU335
 1231 001e 7047     		bx	lr
 1232              	.L104:
 1233              		.align	2
 1234              	.L103:
 1235 0020 00100E58 		.word	1477316608
 1236              		.cfi_endproc
 1237              	.LFE288:
 1239              		.section	.text.LL_ATON_EnableUnits_Init,"ax",%progbits
 1240              		.align	1
 1241              		.global	LL_ATON_EnableUnits_Init
 1242              		.syntax unified
 1243              		.thumb
 1244              		.thumb_func
 1246              	LL_ATON_EnableUnits_Init:
 1247              	.LVL103:
 1248              	.LFB289:
 301:Lib/AI_Runtime/Npu/ll_aton/ll_aton.c ****   int i;
 1249              		.loc 1 301 1 is_stmt 1 view -0
ARM GAS  C:\Users\DJESSOU\AppData\Local\Temp\ccFxekaC.s 			page 50


 1250              		.cfi_startproc
 1251              		@ args = 0, pretend = 0, frame = 0
 1252              		@ frame_needed = 0, uses_anonymous_args = 0
 302:Lib/AI_Runtime/Npu/ll_aton/ll_aton.c ****   enum AccelUnitsType unitType;
 1253              		.loc 1 302 3 view .LVU337
 303:Lib/AI_Runtime/Npu/ll_aton/ll_aton.c ****   uint32_t unitId;
 1254              		.loc 1 303 3 view .LVU338
 304:Lib/AI_Runtime/Npu/ll_aton/ll_aton.c **** 
 1255              		.loc 1 304 3 view .LVU339
 306:Lib/AI_Runtime/Npu/ll_aton/ll_aton.c ****   {
 1256              		.loc 1 306 3 view .LVU340
 301:Lib/AI_Runtime/Npu/ll_aton/ll_aton.c ****   int i;
 1257              		.loc 1 301 1 is_stmt 0 view .LVU341
 1258 0000 F0B5     		push	{r4, r5, r6, r7, lr}
 1259              		.cfi_def_cfa_offset 20
 1260              		.cfi_offset 4, -20
 1261              		.cfi_offset 5, -16
 1262              		.cfi_offset 6, -12
 1263              		.cfi_offset 7, -8
 1264              		.cfi_offset 14, -4
 306:Lib/AI_Runtime/Npu/ll_aton/ll_aton.c ****   {
 1265              		.loc 1 306 10 view .LVU342
 1266 0002 0024     		movs	r4, #0
 1267 0004 A142     		cmp	r1, r4
 1268 0006 01F10102 		add	r2, r1, #1
 1269 000a B8BF     		it	lt
 1270 000c 0122     		movlt	r2, #1
 328:Lib/AI_Runtime/Npu/ll_aton/ll_aton.c **** #endif
 1271              		.loc 1 328 7 view .LVU343
 1272 000e 264E     		ldr	r6, .L125
 309:Lib/AI_Runtime/Npu/ll_aton/ll_aton.c **** 
 1273              		.loc 1 309 52 view .LVU344
 1274 0010 851C     		adds	r5, r0, #2
 1275              	.LVL104:
 1276              	.L106:
 306:Lib/AI_Runtime/Npu/ll_aton/ll_aton.c ****   {
 1277              		.loc 1 306 17 is_stmt 1 discriminator 1 view .LVU345
 1278 0012 013A     		subs	r2, r2, #1
 1279 0014 01D1     		bne	.L118
 372:Lib/AI_Runtime/Npu/ll_aton/ll_aton.c **** 
 1280              		.loc 1 372 1 is_stmt 0 view .LVU346
 1281 0016 0020     		movs	r0, #0
 1282              	.LVL105:
 372:Lib/AI_Runtime/Npu/ll_aton/ll_aton.c **** 
 1283              		.loc 1 372 1 view .LVU347
 1284 0018 F0BD     		pop	{r4, r5, r6, r7, pc}
 1285              	.LVL106:
 1286              	.L118:
 308:Lib/AI_Runtime/Npu/ll_aton/ll_aton.c ****     unitId = LL_ATON_EnableUnits_InitStruct[i].unit.unit_num;
 1287              		.loc 1 308 5 is_stmt 1 view .LVU348
 309:Lib/AI_Runtime/Npu/ll_aton/ll_aton.c **** 
 1288              		.loc 1 309 5 view .LVU349
 311:Lib/AI_Runtime/Npu/ll_aton/ll_aton.c ****     {
 1289              		.loc 1 311 5 is_stmt 0 view .LVU350
 1290 001a 10F82410 		ldrb	r1, [r0, r4, lsl #2]	@ zero_extendqisi2
 309:Lib/AI_Runtime/Npu/ll_aton/ll_aton.c **** 
 1291              		.loc 1 309 12 view .LVU351
ARM GAS  C:\Users\DJESSOU\AppData\Local\Temp\ccFxekaC.s 			page 51


 1292 001e 35F82430 		ldrh	r3, [r5, r4, lsl #2]
 1293              	.LVL107:
 311:Lib/AI_Runtime/Npu/ll_aton/ll_aton.c ****     {
 1294              		.loc 1 311 5 is_stmt 1 view .LVU352
 1295 0022 0829     		cmp	r1, #8
 1296 0024 19D8     		bhi	.L107
 1297 0026 DFE801F0 		tbb	[pc, r1]
 1298              	.L109:
 1299 002a 05       		.byte	(.L115-.L109)/2
 1300 002b 18       		.byte	(.L107-.L109)/2
 1301 002c 0D       		.byte	(.L114-.L109)/2
 1302 002d 1A       		.byte	(.L113-.L109)/2
 1303 002e 20       		.byte	(.L112-.L109)/2
 1304 002f 26       		.byte	(.L111-.L109)/2
 1305 0030 2C       		.byte	(.L110-.L109)/2
 1306 0031 18       		.byte	(.L107-.L109)/2
 1307 0032 32       		.byte	(.L108-.L109)/2
 1308 0033 00       		.p2align 1
 1309              	.L115:
 314:Lib/AI_Runtime/Npu/ll_aton/ll_aton.c ****       break;
 1310              		.loc 1 314 7 view .LVU353
 1311              	.LBB23:
 314:Lib/AI_Runtime/Npu/ll_aton/ll_aton.c ****       break;
 1312              		.loc 1 314 7 view .LVU354
 1313 0034 092B     		cmp	r3, #9
 1314 0036 31D8     		bhi	.L116
 314:Lib/AI_Runtime/Npu/ll_aton/ll_aton.c ****       break;
 1315              		.loc 1 314 7 is_stmt 0 discriminator 1 view .LVU355
 1316 0038 03F5B023 		add	r3, r3, #360448
 1317              	.LVL108:
 314:Lib/AI_Runtime/Npu/ll_aton/ll_aton.c ****       break;
 1318              		.loc 1 314 7 discriminator 1 view .LVU356
 1319 003c E533     		adds	r3, r3, #229
 1320              	.LVL109:
 1321              	.L124:
 314:Lib/AI_Runtime/Npu/ll_aton/ll_aton.c ****       break;
 1322              		.loc 1 314 7 discriminator 1 view .LVU357
 1323              	.LBE23:
 1324              	.LBB24:
 335:Lib/AI_Runtime/Npu/ll_aton/ll_aton.c ****       break;
 1325              		.loc 1 335 7 discriminator 1 view .LVU358
 1326 003e 1B03     		lsls	r3, r3, #12
 335:Lib/AI_Runtime/Npu/ll_aton/ll_aton.c ****       break;
 1327              		.loc 1 335 7 discriminator 4 view .LVU359
 1328 0040 1968     		ldr	r1, [r3]
 1329              	.LVL110:
 335:Lib/AI_Runtime/Npu/ll_aton/ll_aton.c ****       break;
 1330              		.loc 1 335 7 is_stmt 1 discriminator 4 view .LVU360
 1331 0042 07E0     		b	.L122
 1332              	.LVL111:
 1333              	.L114:
 335:Lib/AI_Runtime/Npu/ll_aton/ll_aton.c ****       break;
 1334              		.loc 1 335 7 is_stmt 0 discriminator 4 view .LVU361
 1335              	.LBE24:
 328:Lib/AI_Runtime/Npu/ll_aton/ll_aton.c **** #endif
 1336              		.loc 1 328 7 is_stmt 1 view .LVU362
 328:Lib/AI_Runtime/Npu/ll_aton/ll_aton.c **** #endif
ARM GAS  C:\Users\DJESSOU\AppData\Local\Temp\ccFxekaC.s 			page 52


 1337              		.loc 1 328 7 view .LVU363
 328:Lib/AI_Runtime/Npu/ll_aton/ll_aton.c **** #endif
 1338              		.loc 1 328 7 view .LVU364
 1339 0044 032B     		cmp	r3, #3
 1340 0046 56F82310 		ldr	r1, [r6, r3, lsl #2]
 1341 004a 2AD8     		bhi	.L117
 328:Lib/AI_Runtime/Npu/ll_aton/ll_aton.c **** #endif
 1342              		.loc 1 328 7 is_stmt 0 discriminator 1 view .LVU365
 1343 004c 03F5B023 		add	r3, r3, #360448
 1344              	.LVL112:
 328:Lib/AI_Runtime/Npu/ll_aton/ll_aton.c **** #endif
 1345              		.loc 1 328 7 discriminator 1 view .LVU366
 1346 0050 EF33     		adds	r3, r3, #239
 1347              	.LVL113:
 328:Lib/AI_Runtime/Npu/ll_aton/ll_aton.c **** #endif
 1348              		.loc 1 328 7 discriminator 1 view .LVU367
 1349 0052 1B03     		lsls	r3, r3, #12
 1350              	.LVL114:
 1351              	.L122:
 328:Lib/AI_Runtime/Npu/ll_aton/ll_aton.c **** #endif
 1352              		.loc 1 328 7 discriminator 4 view .LVU368
 1353 0054 41F00101 		orr	r1, r1, #1
 1354 0058 1960     		str	r1, [r3]
 1355              	.LVL115:
 328:Lib/AI_Runtime/Npu/ll_aton/ll_aton.c **** #endif
 1356              		.loc 1 328 7 is_stmt 1 discriminator 4 view .LVU369
 328:Lib/AI_Runtime/Npu/ll_aton/ll_aton.c **** #endif
 1357              		.loc 1 328 7 discriminator 4 view .LVU370
 330:Lib/AI_Runtime/Npu/ll_aton/ll_aton.c **** #endif
 1358              		.loc 1 330 7 view .LVU371
 1359              	.L107:
 306:Lib/AI_Runtime/Npu/ll_aton/ll_aton.c ****   {
 1360              		.loc 1 306 23 discriminator 2 view .LVU372
 1361 005a 0134     		adds	r4, r4, #1
 1362              	.LVL116:
 306:Lib/AI_Runtime/Npu/ll_aton/ll_aton.c ****   {
 1363              		.loc 1 306 23 is_stmt 0 discriminator 2 view .LVU373
 1364 005c D9E7     		b	.L106
 1365              	.LVL117:
 1366              	.L113:
 335:Lib/AI_Runtime/Npu/ll_aton/ll_aton.c ****       break;
 1367              		.loc 1 335 7 is_stmt 1 view .LVU374
 1368              	.LBB25:
 335:Lib/AI_Runtime/Npu/ll_aton/ll_aton.c ****       break;
 1369              		.loc 1 335 7 view .LVU375
 1370 005e 012B     		cmp	r3, #1
 1371 0060 1CD8     		bhi	.L116
 335:Lib/AI_Runtime/Npu/ll_aton/ll_aton.c ****       break;
 1372              		.loc 1 335 7 is_stmt 0 discriminator 1 view .LVU376
 1373 0062 03F5B023 		add	r3, r3, #360448
 1374              	.LVL118:
 335:Lib/AI_Runtime/Npu/ll_aton/ll_aton.c ****       break;
 1375              		.loc 1 335 7 discriminator 1 view .LVU377
 1376 0066 F333     		adds	r3, r3, #243
 1377              	.LVL119:
 335:Lib/AI_Runtime/Npu/ll_aton/ll_aton.c ****       break;
 1378              		.loc 1 335 7 discriminator 1 view .LVU378
ARM GAS  C:\Users\DJESSOU\AppData\Local\Temp\ccFxekaC.s 			page 53


 1379 0068 E9E7     		b	.L124
 1380              	.LVL120:
 1381              	.L112:
 335:Lib/AI_Runtime/Npu/ll_aton/ll_aton.c ****       break;
 1382              		.loc 1 335 7 discriminator 1 view .LVU379
 1383              	.LBE25:
 341:Lib/AI_Runtime/Npu/ll_aton/ll_aton.c ****       break;
 1384              		.loc 1 341 7 is_stmt 1 view .LVU380
 1385              	.LBB26:
 341:Lib/AI_Runtime/Npu/ll_aton/ll_aton.c ****       break;
 1386              		.loc 1 341 7 view .LVU381
 1387 006a 012B     		cmp	r3, #1
 1388 006c 16D8     		bhi	.L116
 341:Lib/AI_Runtime/Npu/ll_aton/ll_aton.c ****       break;
 1389              		.loc 1 341 7 is_stmt 0 discriminator 1 view .LVU382
 1390 006e 03F5B023 		add	r3, r3, #360448
 1391              	.LVL121:
 341:Lib/AI_Runtime/Npu/ll_aton/ll_aton.c ****       break;
 1392              		.loc 1 341 7 discriminator 1 view .LVU383
 1393 0072 F533     		adds	r3, r3, #245
 1394              	.LVL122:
 341:Lib/AI_Runtime/Npu/ll_aton/ll_aton.c ****       break;
 1395              		.loc 1 341 7 discriminator 1 view .LVU384
 1396 0074 E3E7     		b	.L124
 1397              	.LVL123:
 1398              	.L111:
 341:Lib/AI_Runtime/Npu/ll_aton/ll_aton.c ****       break;
 1399              		.loc 1 341 7 discriminator 1 view .LVU385
 1400              	.LBE26:
 347:Lib/AI_Runtime/Npu/ll_aton/ll_aton.c ****       break;
 1401              		.loc 1 347 7 is_stmt 1 view .LVU386
 1402              	.LBB27:
 347:Lib/AI_Runtime/Npu/ll_aton/ll_aton.c ****       break;
 1403              		.loc 1 347 7 view .LVU387
 1404 0076 032B     		cmp	r3, #3
 1405 0078 10D8     		bhi	.L116
 347:Lib/AI_Runtime/Npu/ll_aton/ll_aton.c ****       break;
 1406              		.loc 1 347 7 is_stmt 0 discriminator 1 view .LVU388
 1407 007a 03F5B023 		add	r3, r3, #360448
 1408              	.LVL124:
 347:Lib/AI_Runtime/Npu/ll_aton/ll_aton.c ****       break;
 1409              		.loc 1 347 7 discriminator 1 view .LVU389
 1410 007e F733     		adds	r3, r3, #247
 1411              	.LVL125:
 347:Lib/AI_Runtime/Npu/ll_aton/ll_aton.c ****       break;
 1412              		.loc 1 347 7 discriminator 1 view .LVU390
 1413 0080 DDE7     		b	.L124
 1414              	.LVL126:
 1415              	.L110:
 347:Lib/AI_Runtime/Npu/ll_aton/ll_aton.c ****       break;
 1416              		.loc 1 347 7 discriminator 1 view .LVU391
 1417              	.LBE27:
 356:Lib/AI_Runtime/Npu/ll_aton/ll_aton.c **** #endif // !POOL_RC14
 1418              		.loc 1 356 7 is_stmt 1 view .LVU392
 1419              	.LBB28:
 356:Lib/AI_Runtime/Npu/ll_aton/ll_aton.c **** #endif // !POOL_RC14
 1420              		.loc 1 356 7 view .LVU393
ARM GAS  C:\Users\DJESSOU\AppData\Local\Temp\ccFxekaC.s 			page 54


 1421 0082 012B     		cmp	r3, #1
 1422 0084 0AD8     		bhi	.L116
 356:Lib/AI_Runtime/Npu/ll_aton/ll_aton.c **** #endif // !POOL_RC14
 1423              		.loc 1 356 7 is_stmt 0 discriminator 1 view .LVU394
 1424 0086 03F5B023 		add	r3, r3, #360448
 1425              	.LVL127:
 356:Lib/AI_Runtime/Npu/ll_aton/ll_aton.c **** #endif // !POOL_RC14
 1426              		.loc 1 356 7 discriminator 1 view .LVU395
 1427 008a FB33     		adds	r3, r3, #251
 1428              	.LVL128:
 356:Lib/AI_Runtime/Npu/ll_aton/ll_aton.c **** #endif // !POOL_RC14
 1429              		.loc 1 356 7 discriminator 1 view .LVU396
 1430 008c D7E7     		b	.L124
 1431              	.LVL129:
 1432              	.L108:
 356:Lib/AI_Runtime/Npu/ll_aton/ll_aton.c **** #endif // !POOL_RC14
 1433              		.loc 1 356 7 discriminator 1 view .LVU397
 1434              	.LBE28:
 362:Lib/AI_Runtime/Npu/ll_aton/ll_aton.c ****       break;
 1435              		.loc 1 362 7 is_stmt 1 view .LVU398
 1436              	.LBB29:
 362:Lib/AI_Runtime/Npu/ll_aton/ll_aton.c ****       break;
 1437              		.loc 1 362 7 view .LVU399
 1438 008e 2BB9     		cbnz	r3, .L116
 362:Lib/AI_Runtime/Npu/ll_aton/ll_aton.c ****       break;
 1439              		.loc 1 362 7 is_stmt 0 discriminator 4 view .LVU400
 1440 0090 0649     		ldr	r1, .L125+4
 1441 0092 0B68     		ldr	r3, [r1]
 1442              	.LVL130:
 362:Lib/AI_Runtime/Npu/ll_aton/ll_aton.c ****       break;
 1443              		.loc 1 362 7 is_stmt 1 discriminator 4 view .LVU401
 1444 0094 43F00103 		orr	r3, r3, #1
 1445              	.LVL131:
 362:Lib/AI_Runtime/Npu/ll_aton/ll_aton.c ****       break;
 1446              		.loc 1 362 7 discriminator 4 view .LVU402
 362:Lib/AI_Runtime/Npu/ll_aton/ll_aton.c ****       break;
 1447              		.loc 1 362 7 discriminator 4 view .LVU403
 362:Lib/AI_Runtime/Npu/ll_aton/ll_aton.c ****       break;
 1448              		.loc 1 362 7 discriminator 4 view .LVU404
 362:Lib/AI_Runtime/Npu/ll_aton/ll_aton.c ****       break;
 1449              		.loc 1 362 7 is_stmt 0 discriminator 8 view .LVU405
 1450 0098 0B60     		str	r3, [r1]
 1451              	.LVL132:
 362:Lib/AI_Runtime/Npu/ll_aton/ll_aton.c ****       break;
 1452              		.loc 1 362 7 is_stmt 1 discriminator 8 view .LVU406
 362:Lib/AI_Runtime/Npu/ll_aton/ll_aton.c ****       break;
 1453              		.loc 1 362 7 discriminator 8 view .LVU407
 1454              	.LBE29:
 362:Lib/AI_Runtime/Npu/ll_aton/ll_aton.c ****       break;
 1455              		.loc 1 362 7 discriminator 8 view .LVU408
 363:Lib/AI_Runtime/Npu/ll_aton/ll_aton.c **** #endif
 1456              		.loc 1 363 7 view .LVU409
 1457 009a DEE7     		b	.L107
 1458              	.LVL133:
 1459              	.L116:
 1460              	.LBB30:
 314:Lib/AI_Runtime/Npu/ll_aton/ll_aton.c ****       break;
ARM GAS  C:\Users\DJESSOU\AppData\Local\Temp\ccFxekaC.s 			page 55


 1461              		.loc 1 314 7 is_stmt 0 discriminator 4 view .LVU410
 1462 009c 0023     		movs	r3, #0
 1463              	.LVL134:
 314:Lib/AI_Runtime/Npu/ll_aton/ll_aton.c ****       break;
 1464              		.loc 1 314 7 discriminator 4 view .LVU411
 1465 009e 1B68     		ldr	r3, [r3]
 1466              	.LVL135:
 1467              	.L123:
 314:Lib/AI_Runtime/Npu/ll_aton/ll_aton.c ****       break;
 1468              		.loc 1 314 7 discriminator 4 view .LVU412
 1469 00a0 FFDE     		.inst	0xdeff
 1470              	.LVL136:
 1471              	.L117:
 314:Lib/AI_Runtime/Npu/ll_aton/ll_aton.c ****       break;
 1472              		.loc 1 314 7 discriminator 4 view .LVU413
 1473              	.LBE30:
 328:Lib/AI_Runtime/Npu/ll_aton/ll_aton.c **** #endif
 1474              		.loc 1 328 7 discriminator 4 view .LVU414
 1475 00a2 0023     		movs	r3, #0
 1476              	.LVL137:
 328:Lib/AI_Runtime/Npu/ll_aton/ll_aton.c **** #endif
 1477              		.loc 1 328 7 discriminator 4 view .LVU415
 1478 00a4 1B60     		str	r3, [r3]
 1479              	.LVL138:
 328:Lib/AI_Runtime/Npu/ll_aton/ll_aton.c **** #endif
 1480              		.loc 1 328 7 discriminator 4 view .LVU416
 1481 00a6 FBE7     		b	.L123
 1482              	.L126:
 1483              		.align	2
 1484              	.L125:
 1485 00a8 00000000 		.word	Conv_ctrl_bits
 1486 00ac 00D00F58 		.word	1477431296
 1487              		.cfi_endproc
 1488              	.LFE289:
 1490              		.section	.rodata.LL_Streng_Wait.str1.1,"aMS",%progbits,1
 1491              	.LC19:
 1492 0000 63686563 		.ascii	"checkWatchdog() == 0\000"
 1492      6B576174 
 1492      6368646F 
 1492      67282920 
 1492      3D3D2030 
 1493              		.section	.text.LL_Streng_Wait,"ax",%progbits
 1494              		.align	1
 1495              		.global	LL_Streng_Wait
 1496              		.syntax unified
 1497              		.thumb
 1498              		.thumb_func
 1500              	LL_Streng_Wait:
 1501              	.LVL139:
 1502              	.LFB291:
 462:Lib/AI_Runtime/Npu/ll_aton/ll_aton.c ****   int i;
 1503              		.loc 1 462 1 is_stmt 1 view -0
 1504              		.cfi_startproc
 1505              		@ args = 0, pretend = 0, frame = 0
 1506              		@ frame_needed = 0, uses_anonymous_args = 0
 463:Lib/AI_Runtime/Npu/ll_aton/ll_aton.c ****   uint32_t enableFlags;
 1507              		.loc 1 463 3 view .LVU418
ARM GAS  C:\Users\DJESSOU\AppData\Local\Temp\ccFxekaC.s 			page 56


 464:Lib/AI_Runtime/Npu/ll_aton/ll_aton.c **** 
 1508              		.loc 1 464 3 view .LVU419
 466:Lib/AI_Runtime/Npu/ll_aton/ll_aton.c **** 
 1509              		.loc 1 466 3 view .LVU420
 462:Lib/AI_Runtime/Npu/ll_aton/ll_aton.c ****   int i;
 1510              		.loc 1 462 1 is_stmt 0 view .LVU421
 1511 0000 70B5     		push	{r4, r5, r6, lr}
 1512              		.cfi_def_cfa_offset 16
 1513              		.cfi_offset 4, -16
 1514              		.cfi_offset 5, -12
 1515              		.cfi_offset 6, -8
 1516              		.cfi_offset 14, -4
 462:Lib/AI_Runtime/Npu/ll_aton/ll_aton.c ****   int i;
 1517              		.loc 1 462 1 view .LVU422
 1518 0002 0546     		mov	r5, r0
 466:Lib/AI_Runtime/Npu/ll_aton/ll_aton.c **** 
 1519              		.loc 1 466 3 view .LVU423
 1520 0004 1248     		ldr	r0, .L137
 1521              	.LVL140:
 466:Lib/AI_Runtime/Npu/ll_aton/ll_aton.c **** 
 1522              		.loc 1 466 3 view .LVU424
 1523 0006 FFF7FEFF 		bl	startWatchdog
 1524              	.LVL141:
 473:Lib/AI_Runtime/Npu/ll_aton/ll_aton.c ****       {
 1525              		.loc 1 473 21 view .LVU425
 1526 000a 0126     		movs	r6, #1
 1527              	.L131:
 468:Lib/AI_Runtime/Npu/ll_aton/ll_aton.c ****   {
 1528              		.loc 1 468 3 is_stmt 1 view .LVU426
 470:Lib/AI_Runtime/Npu/ll_aton/ll_aton.c ****     for (i = 0; i < ATON_STRENG_NUM; i++)
 1529              		.loc 1 470 5 view .LVU427
 1530              	.LVL142:
 471:Lib/AI_Runtime/Npu/ll_aton/ll_aton.c ****     {
 1531              		.loc 1 471 5 view .LVU428
 471:Lib/AI_Runtime/Npu/ll_aton/ll_aton.c ****     {
 1532              		.loc 1 471 19 discriminator 1 view .LVU429
 470:Lib/AI_Runtime/Npu/ll_aton/ll_aton.c ****     for (i = 0; i < ATON_STRENG_NUM; i++)
 1533              		.loc 1 470 17 is_stmt 0 view .LVU430
 1534 000c 0024     		movs	r4, #0
 471:Lib/AI_Runtime/Npu/ll_aton/ll_aton.c ****     {
 1535              		.loc 1 471 12 view .LVU431
 1536 000e 0A21     		movs	r1, #10
 1537 0010 2246     		mov	r2, r4
 1538              	.LVL143:
 1539              	.L129:
 473:Lib/AI_Runtime/Npu/ll_aton/ll_aton.c ****       {
 1540              		.loc 1 473 7 is_stmt 1 view .LVU432
 473:Lib/AI_Runtime/Npu/ll_aton/ll_aton.c ****       {
 1541              		.loc 1 473 21 is_stmt 0 view .LVU433
 1542 0012 06FA02F3 		lsl	r3, r6, r2
 473:Lib/AI_Runtime/Npu/ll_aton/ll_aton.c ****       {
 1543              		.loc 1 473 10 view .LVU434
 1544 0016 2B42     		tst	r3, r5
 1545 0018 08D0     		beq	.L128
 475:Lib/AI_Runtime/Npu/ll_aton/ll_aton.c ****       }
 1546              		.loc 1 475 9 is_stmt 1 view .LVU435
 475:Lib/AI_Runtime/Npu/ll_aton/ll_aton.c ****       }
ARM GAS  C:\Users\DJESSOU\AppData\Local\Temp\ccFxekaC.s 			page 57


 1547              		.loc 1 475 25 is_stmt 0 discriminator 1 view .LVU436
 1548 001a 1303     		lsls	r3, r2, #12
 1549 001c 03F1B043 		add	r3, r3, #1476395008
 1550 0020 03F56523 		add	r3, r3, #937984
 475:Lib/AI_Runtime/Npu/ll_aton/ll_aton.c ****       }
 1551              		.loc 1 475 25 discriminator 4 view .LVU437
 1552 0024 1B68     		ldr	r3, [r3]
 475:Lib/AI_Runtime/Npu/ll_aton/ll_aton.c ****       }
 1553              		.loc 1 475 49 discriminator 4 view .LVU438
 1554 0026 03F00043 		and	r3, r3, #-2147483648
 475:Lib/AI_Runtime/Npu/ll_aton/ll_aton.c ****       }
 1555              		.loc 1 475 21 discriminator 4 view .LVU439
 1556 002a 1C43     		orrs	r4, r4, r3
 1557              	.LVL144:
 1558              	.L128:
 471:Lib/AI_Runtime/Npu/ll_aton/ll_aton.c ****     {
 1559              		.loc 1 471 39 is_stmt 1 discriminator 2 view .LVU440
 471:Lib/AI_Runtime/Npu/ll_aton/ll_aton.c ****     {
 1560              		.loc 1 471 19 is_stmt 0 discriminator 1 view .LVU441
 1561 002c 0139     		subs	r1, r1, #1
 471:Lib/AI_Runtime/Npu/ll_aton/ll_aton.c ****     {
 1562              		.loc 1 471 39 discriminator 2 view .LVU442
 1563 002e 02F10102 		add	r2, r2, #1
 1564              	.LVL145:
 471:Lib/AI_Runtime/Npu/ll_aton/ll_aton.c ****     {
 1565              		.loc 1 471 19 is_stmt 1 discriminator 1 view .LVU443
 1566 0032 EED1     		bne	.L129
 479:Lib/AI_Runtime/Npu/ll_aton/ll_aton.c **** 
 1567              		.loc 1 479 5 view .LVU444
 1568 0034 FFF7FEFF 		bl	checkWatchdog
 1569              	.LVL146:
 479:Lib/AI_Runtime/Npu/ll_aton/ll_aton.c **** 
 1570              		.loc 1 479 5 is_stmt 0 discriminator 1 view .LVU445
 1571 0038 30B1     		cbz	r0, .L130
 1572              	.LBB33:
 1573              	.LBI33:
 461:Lib/AI_Runtime/Npu/ll_aton/ll_aton.c **** {
 1574              		.loc 1 461 5 is_stmt 1 view .LVU446
 1575              	.LVL147:
 1576              	.LBB34:
 479:Lib/AI_Runtime/Npu/ll_aton/ll_aton.c **** 
 1577              		.loc 1 479 5 is_stmt 0 discriminator 1 view .LVU447
 1578 003a 40F2DF11 		movw	r1, #479
 1579 003e 054B     		ldr	r3, .L137+4
 1580 0040 054A     		ldr	r2, .L137+8
 1581 0042 0648     		ldr	r0, .L137+12
 1582 0044 FFF7FEFF 		bl	__assert_func
 1583              	.LVL148:
 1584              	.L130:
 479:Lib/AI_Runtime/Npu/ll_aton/ll_aton.c **** 
 1585              		.loc 1 479 5 discriminator 1 view .LVU448
 1586              	.LBE34:
 1587              	.LBE33:
 481:Lib/AI_Runtime/Npu/ll_aton/ll_aton.c **** 
 1588              		.loc 1 481 12 is_stmt 1 view .LVU449
 1589 0048 002C     		cmp	r4, #0
 1590 004a DFD1     		bne	.L131
ARM GAS  C:\Users\DJESSOU\AppData\Local\Temp\ccFxekaC.s 			page 58


 483:Lib/AI_Runtime/Npu/ll_aton/ll_aton.c **** }
 1591              		.loc 1 483 3 view .LVU450
 484:Lib/AI_Runtime/Npu/ll_aton/ll_aton.c **** 
 1592              		.loc 1 484 1 is_stmt 0 view .LVU451
 1593 004c 70BD     		pop	{r4, r5, r6, pc}
 1594              	.LVL149:
 1595              	.L138:
 484:Lib/AI_Runtime/Npu/ll_aton/ll_aton.c **** 
 1596              		.loc 1 484 1 view .LVU452
 1597 004e 00BF     		.align	2
 1598              	.L137:
 1599 0050 80969800 		.word	10000000
 1600 0054 00000000 		.word	.LC19
 1601 0058 00000000 		.word	__func__.8
 1602 005c 05000000 		.word	.LC4
 1603              		.cfi_endproc
 1604              	.LFE291:
 1606              		.section	.text.LL_TriggerHigh,"ax",%progbits
 1607              		.align	1
 1608              		.global	LL_TriggerHigh
 1609              		.syntax unified
 1610              		.thumb
 1611              		.thumb_func
 1613              	LL_TriggerHigh:
 1614              	.LVL150:
 1615              	.LFB294:
 812:Lib/AI_Runtime/Npu/ll_aton/ll_aton.c ****   if (irq >= ATON_INTCTRL_INTS(0))
 1616              		.loc 1 812 1 is_stmt 1 view -0
 1617              		.cfi_startproc
 1618              		@ args = 0, pretend = 0, frame = 0
 1619              		@ frame_needed = 0, uses_anonymous_args = 0
 1620              		@ link register save eliminated.
 813:Lib/AI_Runtime/Npu/ll_aton/ll_aton.c ****     return LL_ATON_INVALID_PARAM;
 1621              		.loc 1 813 3 view .LVU454
 813:Lib/AI_Runtime/Npu/ll_aton/ll_aton.c ****     return LL_ATON_INVALID_PARAM;
 1622              		.loc 1 813 6 is_stmt 0 view .LVU455
 1623 0000 1F28     		cmp	r0, #31
 1624 0002 0EDC     		bgt	.L142
 816:Lib/AI_Runtime/Npu/ll_aton/ll_aton.c ****   ATON_INTCTRL_INTSET_SET(0, (1 << ATON_INTCTRL_0_INTSET_EPOCHCTRL_0_1_IDX));
 1625              		.loc 1 816 3 is_stmt 1 view .LVU456
 816:Lib/AI_Runtime/Npu/ll_aton/ll_aton.c ****   ATON_INTCTRL_INTSET_SET(0, (1 << ATON_INTCTRL_0_INTSET_EPOCHCTRL_0_1_IDX));
 1626              		.loc 1 816 3 view .LVU457
 816:Lib/AI_Runtime/Npu/ll_aton/ll_aton.c ****   ATON_INTCTRL_INTSET_SET(0, (1 << ATON_INTCTRL_0_INTSET_EPOCHCTRL_0_1_IDX));
 1627              		.loc 1 816 3 view .LVU458
 1628 0004 084A     		ldr	r2, .L144
 816:Lib/AI_Runtime/Npu/ll_aton/ll_aton.c ****   ATON_INTCTRL_INTSET_SET(0, (1 << ATON_INTCTRL_0_INTSET_EPOCHCTRL_0_1_IDX));
 1629              		.loc 1 816 3 is_stmt 0 discriminator 1 view .LVU459
 1630 0006 094B     		ldr	r3, .L144+4
 1631 0008 0428     		cmp	r0, #4
 1632 000a 03EB8003 		add	r3, r3, r0, lsl #2
 816:Lib/AI_Runtime/Npu/ll_aton/ll_aton.c ****   ATON_INTCTRL_INTSET_SET(0, (1 << ATON_INTCTRL_0_INTSET_EPOCHCTRL_0_1_IDX));
 1633              		.loc 1 816 3 discriminator 4 view .LVU460
 1634 000e 6FF00051 		mvn	r1, #536870912
 816:Lib/AI_Runtime/Npu/ll_aton/ll_aton.c ****   ATON_INTCTRL_INTSET_SET(0, (1 << ATON_INTCTRL_0_INTSET_EPOCHCTRL_0_1_IDX));
 1635              		.loc 1 816 3 discriminator 1 view .LVU461
 1636 0012 28BF     		it	cs
 1637 0014 1346     		movcs	r3, r2
ARM GAS  C:\Users\DJESSOU\AppData\Local\Temp\ccFxekaC.s 			page 59


 816:Lib/AI_Runtime/Npu/ll_aton/ll_aton.c ****   ATON_INTCTRL_INTSET_SET(0, (1 << ATON_INTCTRL_0_INTSET_EPOCHCTRL_0_1_IDX));
 1638              		.loc 1 816 3 discriminator 4 view .LVU462
 1639 0016 1960     		str	r1, [r3]
 816:Lib/AI_Runtime/Npu/ll_aton/ll_aton.c ****   ATON_INTCTRL_INTSET_SET(0, (1 << ATON_INTCTRL_0_INTSET_EPOCHCTRL_0_1_IDX));
 1640              		.loc 1 816 3 is_stmt 1 discriminator 4 view .LVU463
 816:Lib/AI_Runtime/Npu/ll_aton/ll_aton.c ****   ATON_INTCTRL_INTSET_SET(0, (1 << ATON_INTCTRL_0_INTSET_EPOCHCTRL_0_1_IDX));
 1641              		.loc 1 816 3 discriminator 4 view .LVU464
 817:Lib/AI_Runtime/Npu/ll_aton/ll_aton.c ****   return 0;
 1642              		.loc 1 817 3 view .LVU465
 817:Lib/AI_Runtime/Npu/ll_aton/ll_aton.c ****   return 0;
 1643              		.loc 1 817 3 view .LVU466
 817:Lib/AI_Runtime/Npu/ll_aton/ll_aton.c ****   return 0;
 1644              		.loc 1 817 3 view .LVU467
 1645 0018 4FF00053 		mov	r3, #536870912
 818:Lib/AI_Runtime/Npu/ll_aton/ll_aton.c **** }
 1646              		.loc 1 818 10 is_stmt 0 view .LVU468
 1647 001c 0020     		movs	r0, #0
 1648              	.LVL151:
 817:Lib/AI_Runtime/Npu/ll_aton/ll_aton.c ****   return 0;
 1649              		.loc 1 817 3 view .LVU469
 1650 001e D360     		str	r3, [r2, #12]
 817:Lib/AI_Runtime/Npu/ll_aton/ll_aton.c ****   return 0;
 1651              		.loc 1 817 3 is_stmt 1 view .LVU470
 817:Lib/AI_Runtime/Npu/ll_aton/ll_aton.c ****   return 0;
 1652              		.loc 1 817 3 view .LVU471
 818:Lib/AI_Runtime/Npu/ll_aton/ll_aton.c **** }
 1653              		.loc 1 818 3 view .LVU472
 818:Lib/AI_Runtime/Npu/ll_aton/ll_aton.c **** }
 1654              		.loc 1 818 10 is_stmt 0 view .LVU473
 1655 0020 7047     		bx	lr
 1656              	.LVL152:
 1657              	.L142:
 814:Lib/AI_Runtime/Npu/ll_aton/ll_aton.c **** 
 1658              		.loc 1 814 12 view .LVU474
 1659 0022 6FF00100 		mvn	r0, #1
 1660              	.LVL153:
 819:Lib/AI_Runtime/Npu/ll_aton/ll_aton.c **** 
 1661              		.loc 1 819 1 view .LVU475
 1662 0026 7047     		bx	lr
 1663              	.L145:
 1664              		.align	2
 1665              	.L144:
 1666 0028 00100E58 		.word	1477316608
 1667 002c 14100E58 		.word	1477316628
 1668              		.cfi_endproc
 1669              	.LFE294:
 1671              		.section	.text.LL_TriggerLow,"ax",%progbits
 1672              		.align	1
 1673              		.global	LL_TriggerLow
 1674              		.syntax unified
 1675              		.thumb
 1676              		.thumb_func
 1678              	LL_TriggerLow:
 1679              	.LVL154:
 1680              	.LFB295:
 827:Lib/AI_Runtime/Npu/ll_aton/ll_aton.c ****   if (irq >= ATON_INTCTRL_INTS(0))
 1681              		.loc 1 827 1 is_stmt 1 view -0
ARM GAS  C:\Users\DJESSOU\AppData\Local\Temp\ccFxekaC.s 			page 60


 1682              		.cfi_startproc
 1683              		@ args = 0, pretend = 0, frame = 0
 1684              		@ frame_needed = 0, uses_anonymous_args = 0
 1685              		@ link register save eliminated.
 828:Lib/AI_Runtime/Npu/ll_aton/ll_aton.c ****     return LL_ATON_INVALID_PARAM;
 1686              		.loc 1 828 3 view .LVU477
 828:Lib/AI_Runtime/Npu/ll_aton/ll_aton.c ****     return LL_ATON_INVALID_PARAM;
 1687              		.loc 1 828 6 is_stmt 0 view .LVU478
 1688 0000 1F28     		cmp	r0, #31
 831:Lib/AI_Runtime/Npu/ll_aton/ll_aton.c ****   return 0;
 1689              		.loc 1 831 3 is_stmt 1 view .LVU479
 831:Lib/AI_Runtime/Npu/ll_aton/ll_aton.c ****   return 0;
 1690              		.loc 1 831 3 view .LVU480
 831:Lib/AI_Runtime/Npu/ll_aton/ll_aton.c ****   return 0;
 1691              		.loc 1 831 3 view .LVU481
 1692 0002 DFBF     		itttt	le
 1693 0004 4FF00052 		movle	r2, #536870912
 1694 0008 034B     		ldrle	r3, .L149
 832:Lib/AI_Runtime/Npu/ll_aton/ll_aton.c **** }
 1695              		.loc 1 832 10 is_stmt 0 view .LVU482
 1696 000a 0020     		movle	r0, #0
 1697              	.LVL155:
 831:Lib/AI_Runtime/Npu/ll_aton/ll_aton.c ****   return 0;
 1698              		.loc 1 831 3 view .LVU483
 1699 000c 1A61     		strle	r2, [r3, #16]
 831:Lib/AI_Runtime/Npu/ll_aton/ll_aton.c ****   return 0;
 1700              		.loc 1 831 3 is_stmt 1 view .LVU484
 831:Lib/AI_Runtime/Npu/ll_aton/ll_aton.c ****   return 0;
 1701              		.loc 1 831 3 view .LVU485
 832:Lib/AI_Runtime/Npu/ll_aton/ll_aton.c **** }
 1702              		.loc 1 832 3 view .LVU486
 829:Lib/AI_Runtime/Npu/ll_aton/ll_aton.c **** 
 1703              		.loc 1 829 12 is_stmt 0 view .LVU487
 1704 000e C8BF     		it	gt
 1705 0010 6FF00100 		mvngt	r0, #1
 833:Lib/AI_Runtime/Npu/ll_aton/ll_aton.c **** #endif
 1706              		.loc 1 833 1 view .LVU488
 1707 0014 7047     		bx	lr
 1708              	.L150:
 1709 0016 00BF     		.align	2
 1710              	.L149:
 1711 0018 00100E58 		.word	1477316608
 1712              		.cfi_endproc
 1713              	.LFE295:
 1715              		.section	.rodata.__atonn_getSrcPortID.str1.1,"aMS",%progbits,1
 1716              	.LC20:
 1717 0000 73755F6E 		.ascii	"su_num == 0\000"
 1717      756D203D 
 1717      3D203000 
 1718              	.LC21:
 1719 000c 706F7274 		.ascii	"port == 0\000"
 1719      203D3D20 
 1719      3000
 1720              	.LC22:
 1721 0016 61755F6E 		.ascii	"au_num < 10\000"
 1721      756D203C 
 1721      20313000 
ARM GAS  C:\Users\DJESSOU\AppData\Local\Temp\ccFxekaC.s 			page 61


 1722              	.LC23:
 1723 0022 61755F6E 		.ascii	"au_num < 4\000"
 1723      756D203C 
 1723      203400
 1724              	.LC24:
 1725 002d 61755F6E 		.ascii	"au_num < 2\000"
 1725      756D203C 
 1725      203200
 1726              		.section	.text.__atonn_getSrcPortID,"ax",%progbits
 1727              		.align	1
 1728              		.global	__atonn_getSrcPortID
 1729              		.syntax unified
 1730              		.thumb
 1731              		.thumb_func
 1733              	__atonn_getSrcPortID:
 1734              	.LVL156:
 1735              	.LFB296:
 838:Lib/AI_Runtime/Npu/ll_aton/ll_aton.c ****   // FIXME
 1736              		.loc 1 838 1 is_stmt 1 view -0
 1737              		.cfi_startproc
 1738              		@ args = 4, pretend = 0, frame = 0
 1739              		@ frame_needed = 0, uses_anonymous_args = 0
 840:Lib/AI_Runtime/Npu/ll_aton/ll_aton.c ****   switch (sut)
 1740              		.loc 1 840 3 view .LVU490
 838:Lib/AI_Runtime/Npu/ll_aton/ll_aton.c ****   // FIXME
 1741              		.loc 1 838 1 is_stmt 0 view .LVU491
 1742 0000 38B5     		push	{r3, r4, r5, lr}
 1743              		.cfi_def_cfa_offset 16
 1744              		.cfi_offset 3, -16
 1745              		.cfi_offset 4, -12
 1746              		.cfi_offset 5, -8
 1747              		.cfi_offset 14, -4
 838:Lib/AI_Runtime/Npu/ll_aton/ll_aton.c ****   // FIXME
 1748              		.loc 1 838 1 view .LVU492
 1749 0002 0546     		mov	r5, r0
 1750 0004 9DF81040 		ldrb	r4, [sp, #16]	@ zero_extendqisi2
 840:Lib/AI_Runtime/Npu/ll_aton/ll_aton.c ****   switch (sut)
 1751              		.loc 1 840 3 view .LVU493
 1752 0008 0846     		mov	r0, r1
 1753              	.LVL157:
 840:Lib/AI_Runtime/Npu/ll_aton/ll_aton.c ****   switch (sut)
 1754              		.loc 1 840 3 view .LVU494
 1755 000a 31B1     		cbz	r1, .L152
 840:Lib/AI_Runtime/Npu/ll_aton/ll_aton.c ****   switch (sut)
 1756              		.loc 1 840 3 discriminator 1 view .LVU495
 1757 000c 4FF45271 		mov	r1, #840
 1758              	.LVL158:
 840:Lib/AI_Runtime/Npu/ll_aton/ll_aton.c ****   switch (sut)
 1759              		.loc 1 840 3 discriminator 1 view .LVU496
 1760 0010 3D4B     		ldr	r3, .L178
 1761              	.LVL159:
 840:Lib/AI_Runtime/Npu/ll_aton/ll_aton.c ****   switch (sut)
 1762              		.loc 1 840 3 discriminator 1 view .LVU497
 1763 0012 3E4A     		ldr	r2, .L178+4
 1764              	.LVL160:
 1765              	.L177:
 848:Lib/AI_Runtime/Npu/ll_aton/ll_aton.c ****       LL_ATON_ASSERT(au_num < ATON_STRENG_NUM);
ARM GAS  C:\Users\DJESSOU\AppData\Local\Temp\ccFxekaC.s 			page 62


 1766              		.loc 1 848 7 discriminator 1 view .LVU498
 1767 0014 3E48     		ldr	r0, .L178+8
 1768 0016 FFF7FEFF 		bl	__assert_func
 1769              	.LVL161:
 1770              	.L152:
 841:Lib/AI_Runtime/Npu/ll_aton/ll_aton.c ****   {
 1771              		.loc 1 841 3 is_stmt 1 view .LVU499
 1772 001a 25B1     		cbz	r5, .L153
 1773 001c 012D     		cmp	r5, #1
 1774 001e 68D0     		beq	.L154
 1775 0020 022D     		cmp	r5, #2
 1776 0022 6BD0     		beq	.L155
 1777              	.LVL162:
 1778              	.L151:
 903:Lib/AI_Runtime/Npu/ll_aton/ll_aton.c **** 
 1779              		.loc 1 903 1 is_stmt 0 view .LVU500
 1780 0024 38BD     		pop	{r3, r4, r5, pc}
 1781              	.LVL163:
 1782              	.L153:
 844:Lib/AI_Runtime/Npu/ll_aton/ll_aton.c ****     {
 1783              		.loc 1 844 5 is_stmt 1 view .LVU501
 1784 0026 062A     		cmp	r2, #6
 1785 0028 5ED8     		bhi	.L157
 1786 002a DFE802F0 		tbb	[pc, r2]
 1787              	.LVL164:
 1788              	.L159:
 1789 002e 04       		.byte	(.L164-.L159)/2
 1790 002f 5D       		.byte	(.L157-.L159)/2
 1791 0030 12       		.byte	(.L163-.L159)/2
 1792 0031 21       		.byte	(.L162-.L159)/2
 1793 0032 30       		.byte	(.L161-.L159)/2
 1794 0033 3F       		.byte	(.L160-.L159)/2
 1795 0034 4E       		.byte	(.L158-.L159)/2
 1796 0035 00       		.p2align 1
 1797              	.L164:
 848:Lib/AI_Runtime/Npu/ll_aton/ll_aton.c ****       LL_ATON_ASSERT(au_num < ATON_STRENG_NUM);
 1798              		.loc 1 848 7 view .LVU502
 1799 0036 24B1     		cbz	r4, .L165
 848:Lib/AI_Runtime/Npu/ll_aton/ll_aton.c ****       LL_ATON_ASSERT(au_num < ATON_STRENG_NUM);
 1800              		.loc 1 848 7 is_stmt 0 discriminator 1 view .LVU503
 1801 0038 4FF45471 		mov	r1, #848
 1802 003c 354B     		ldr	r3, .L178+12
 1803              	.LVL165:
 848:Lib/AI_Runtime/Npu/ll_aton/ll_aton.c ****       LL_ATON_ASSERT(au_num < ATON_STRENG_NUM);
 1804              		.loc 1 848 7 discriminator 1 view .LVU504
 1805 003e 334A     		ldr	r2, .L178+4
 1806              	.LVL166:
 848:Lib/AI_Runtime/Npu/ll_aton/ll_aton.c ****       LL_ATON_ASSERT(au_num < ATON_STRENG_NUM);
 1807              		.loc 1 848 7 discriminator 1 view .LVU505
 1808 0040 E8E7     		b	.L177
 1809              	.LVL167:
 1810              	.L165:
 849:Lib/AI_Runtime/Npu/ll_aton/ll_aton.c ****       return ATONN_CONST_SRCPORT(STRSWITCH, 0, STRENG, 0, 0) + au_num;
 1811              		.loc 1 849 7 is_stmt 1 view .LVU506
 1812 0042 092B     		cmp	r3, #9
 850:Lib/AI_Runtime/Npu/ll_aton/ll_aton.c ****       break;
 1813              		.loc 1 850 62 is_stmt 0 view .LVU507
ARM GAS  C:\Users\DJESSOU\AppData\Local\Temp\ccFxekaC.s 			page 63


 1814 0044 1846     		mov	r0, r3
 1815              	.LVL168:
 849:Lib/AI_Runtime/Npu/ll_aton/ll_aton.c ****       return ATONN_CONST_SRCPORT(STRSWITCH, 0, STRENG, 0, 0) + au_num;
 1816              		.loc 1 849 7 view .LVU508
 1817 0046 EDD9     		bls	.L151
 849:Lib/AI_Runtime/Npu/ll_aton/ll_aton.c ****       return ATONN_CONST_SRCPORT(STRSWITCH, 0, STRENG, 0, 0) + au_num;
 1818              		.loc 1 849 7 discriminator 1 view .LVU509
 1819 0048 40F25131 		movw	r1, #849
 1820 004c 324B     		ldr	r3, .L178+16
 1821              	.LVL169:
 849:Lib/AI_Runtime/Npu/ll_aton/ll_aton.c ****       return ATONN_CONST_SRCPORT(STRSWITCH, 0, STRENG, 0, 0) + au_num;
 1822              		.loc 1 849 7 discriminator 1 view .LVU510
 1823 004e 2F4A     		ldr	r2, .L178+4
 1824              	.LVL170:
 849:Lib/AI_Runtime/Npu/ll_aton/ll_aton.c ****       return ATONN_CONST_SRCPORT(STRSWITCH, 0, STRENG, 0, 0) + au_num;
 1825              		.loc 1 849 7 discriminator 1 view .LVU511
 1826 0050 E0E7     		b	.L177
 1827              	.LVL171:
 1828              	.L163:
 851:Lib/AI_Runtime/Npu/ll_aton/ll_aton.c **** #endif
 1829              		.loc 1 851 7 is_stmt 1 view .LVU512
 855:Lib/AI_Runtime/Npu/ll_aton/ll_aton.c ****       LL_ATON_ASSERT(au_num < ATON_CONVACC_NUM);
 1830              		.loc 1 855 7 view .LVU513
 1831 0052 24B1     		cbz	r4, .L167
 855:Lib/AI_Runtime/Npu/ll_aton/ll_aton.c ****       LL_ATON_ASSERT(au_num < ATON_CONVACC_NUM);
 1832              		.loc 1 855 7 is_stmt 0 discriminator 1 view .LVU514
 1833 0054 40F25731 		movw	r1, #855
 1834 0058 2E4B     		ldr	r3, .L178+12
 1835              	.LVL172:
 855:Lib/AI_Runtime/Npu/ll_aton/ll_aton.c ****       LL_ATON_ASSERT(au_num < ATON_CONVACC_NUM);
 1836              		.loc 1 855 7 discriminator 1 view .LVU515
 1837 005a 2C4A     		ldr	r2, .L178+4
 1838              	.LVL173:
 855:Lib/AI_Runtime/Npu/ll_aton/ll_aton.c ****       LL_ATON_ASSERT(au_num < ATON_CONVACC_NUM);
 1839              		.loc 1 855 7 discriminator 1 view .LVU516
 1840 005c DAE7     		b	.L177
 1841              	.LVL174:
 1842              	.L167:
 856:Lib/AI_Runtime/Npu/ll_aton/ll_aton.c ****       return ATONN_CONST_SRCPORT(STRSWITCH, 0, CONVACC, 0, 0) + au_num;
 1843              		.loc 1 856 7 is_stmt 1 view .LVU517
 1844 005e 032B     		cmp	r3, #3
 857:Lib/AI_Runtime/Npu/ll_aton/ll_aton.c ****       break;
 1845              		.loc 1 857 63 is_stmt 0 view .LVU518
 1846 0060 03F10A00 		add	r0, r3, #10
 856:Lib/AI_Runtime/Npu/ll_aton/ll_aton.c ****       return ATONN_CONST_SRCPORT(STRSWITCH, 0, CONVACC, 0, 0) + au_num;
 1847              		.loc 1 856 7 view .LVU519
 1848 0064 DED9     		bls	.L151
 856:Lib/AI_Runtime/Npu/ll_aton/ll_aton.c ****       return ATONN_CONST_SRCPORT(STRSWITCH, 0, CONVACC, 0, 0) + au_num;
 1849              		.loc 1 856 7 discriminator 1 view .LVU520
 1850 0066 4FF45671 		mov	r1, #856
 1851 006a 2C4B     		ldr	r3, .L178+20
 1852              	.LVL175:
 856:Lib/AI_Runtime/Npu/ll_aton/ll_aton.c ****       return ATONN_CONST_SRCPORT(STRSWITCH, 0, CONVACC, 0, 0) + au_num;
 1853              		.loc 1 856 7 discriminator 1 view .LVU521
 1854 006c 274A     		ldr	r2, .L178+4
 1855              	.LVL176:
 856:Lib/AI_Runtime/Npu/ll_aton/ll_aton.c ****       return ATONN_CONST_SRCPORT(STRSWITCH, 0, CONVACC, 0, 0) + au_num;
ARM GAS  C:\Users\DJESSOU\AppData\Local\Temp\ccFxekaC.s 			page 64


 1856              		.loc 1 856 7 discriminator 1 view .LVU522
 1857 006e D1E7     		b	.L177
 1858              	.LVL177:
 1859              	.L162:
 858:Lib/AI_Runtime/Npu/ll_aton/ll_aton.c **** #endif
 1860              		.loc 1 858 7 is_stmt 1 view .LVU523
 862:Lib/AI_Runtime/Npu/ll_aton/ll_aton.c ****       LL_ATON_ASSERT(au_num < ATON_DECUN_NUM);
 1861              		.loc 1 862 7 view .LVU524
 1862 0070 24B1     		cbz	r4, .L169
 862:Lib/AI_Runtime/Npu/ll_aton/ll_aton.c ****       LL_ATON_ASSERT(au_num < ATON_DECUN_NUM);
 1863              		.loc 1 862 7 is_stmt 0 discriminator 1 view .LVU525
 1864 0072 40F25E31 		movw	r1, #862
 1865 0076 274B     		ldr	r3, .L178+12
 1866              	.LVL178:
 862:Lib/AI_Runtime/Npu/ll_aton/ll_aton.c ****       LL_ATON_ASSERT(au_num < ATON_DECUN_NUM);
 1867              		.loc 1 862 7 discriminator 1 view .LVU526
 1868 0078 244A     		ldr	r2, .L178+4
 1869              	.LVL179:
 862:Lib/AI_Runtime/Npu/ll_aton/ll_aton.c ****       LL_ATON_ASSERT(au_num < ATON_DECUN_NUM);
 1870              		.loc 1 862 7 discriminator 1 view .LVU527
 1871 007a CBE7     		b	.L177
 1872              	.LVL180:
 1873              	.L169:
 863:Lib/AI_Runtime/Npu/ll_aton/ll_aton.c ****       return ATONN_CONST_SRCPORT(STRSWITCH, 0, DECUN, 0, 0) + au_num;
 1874              		.loc 1 863 7 is_stmt 1 view .LVU528
 1875 007c 012B     		cmp	r3, #1
 864:Lib/AI_Runtime/Npu/ll_aton/ll_aton.c ****       break;
 1876              		.loc 1 864 61 is_stmt 0 view .LVU529
 1877 007e 03F10E00 		add	r0, r3, #14
 863:Lib/AI_Runtime/Npu/ll_aton/ll_aton.c ****       return ATONN_CONST_SRCPORT(STRSWITCH, 0, DECUN, 0, 0) + au_num;
 1878              		.loc 1 863 7 view .LVU530
 1879 0082 CFD9     		bls	.L151
 863:Lib/AI_Runtime/Npu/ll_aton/ll_aton.c ****       return ATONN_CONST_SRCPORT(STRSWITCH, 0, DECUN, 0, 0) + au_num;
 1880              		.loc 1 863 7 discriminator 1 view .LVU531
 1881 0084 40F25F31 		movw	r1, #863
 1882 0088 254B     		ldr	r3, .L178+24
 1883              	.LVL181:
 863:Lib/AI_Runtime/Npu/ll_aton/ll_aton.c ****       return ATONN_CONST_SRCPORT(STRSWITCH, 0, DECUN, 0, 0) + au_num;
 1884              		.loc 1 863 7 discriminator 1 view .LVU532
 1885 008a 204A     		ldr	r2, .L178+4
 1886              	.LVL182:
 863:Lib/AI_Runtime/Npu/ll_aton/ll_aton.c ****       return ATONN_CONST_SRCPORT(STRSWITCH, 0, DECUN, 0, 0) + au_num;
 1887              		.loc 1 863 7 discriminator 1 view .LVU533
 1888 008c C2E7     		b	.L177
 1889              	.LVL183:
 1890              	.L161:
 865:Lib/AI_Runtime/Npu/ll_aton/ll_aton.c **** #endif
 1891              		.loc 1 865 7 is_stmt 1 view .LVU534
 869:Lib/AI_Runtime/Npu/ll_aton/ll_aton.c ****       LL_ATON_ASSERT(au_num < ATON_ACTIV_NUM);
 1892              		.loc 1 869 7 view .LVU535
 1893 008e 24B1     		cbz	r4, .L171
 869:Lib/AI_Runtime/Npu/ll_aton/ll_aton.c ****       LL_ATON_ASSERT(au_num < ATON_ACTIV_NUM);
 1894              		.loc 1 869 7 is_stmt 0 discriminator 1 view .LVU536
 1895 0090 40F26531 		movw	r1, #869
 1896 0094 1F4B     		ldr	r3, .L178+12
 1897              	.LVL184:
 869:Lib/AI_Runtime/Npu/ll_aton/ll_aton.c ****       LL_ATON_ASSERT(au_num < ATON_ACTIV_NUM);
ARM GAS  C:\Users\DJESSOU\AppData\Local\Temp\ccFxekaC.s 			page 65


 1898              		.loc 1 869 7 discriminator 1 view .LVU537
 1899 0096 1D4A     		ldr	r2, .L178+4
 1900              	.LVL185:
 869:Lib/AI_Runtime/Npu/ll_aton/ll_aton.c ****       LL_ATON_ASSERT(au_num < ATON_ACTIV_NUM);
 1901              		.loc 1 869 7 discriminator 1 view .LVU538
 1902 0098 BCE7     		b	.L177
 1903              	.LVL186:
 1904              	.L171:
 870:Lib/AI_Runtime/Npu/ll_aton/ll_aton.c ****       return ATONN_CONST_SRCPORT(STRSWITCH, 0, ACTIV, 0, 0) + au_num;
 1905              		.loc 1 870 7 is_stmt 1 view .LVU539
 1906 009a 012B     		cmp	r3, #1
 871:Lib/AI_Runtime/Npu/ll_aton/ll_aton.c ****       break;
 1907              		.loc 1 871 61 is_stmt 0 view .LVU540
 1908 009c 03F11000 		add	r0, r3, #16
 870:Lib/AI_Runtime/Npu/ll_aton/ll_aton.c ****       return ATONN_CONST_SRCPORT(STRSWITCH, 0, ACTIV, 0, 0) + au_num;
 1909              		.loc 1 870 7 view .LVU541
 1910 00a0 C0D9     		bls	.L151
 870:Lib/AI_Runtime/Npu/ll_aton/ll_aton.c ****       return ATONN_CONST_SRCPORT(STRSWITCH, 0, ACTIV, 0, 0) + au_num;
 1911              		.loc 1 870 7 discriminator 1 view .LVU542
 1912 00a2 40F26631 		movw	r1, #870
 1913 00a6 1E4B     		ldr	r3, .L178+24
 1914              	.LVL187:
 870:Lib/AI_Runtime/Npu/ll_aton/ll_aton.c ****       return ATONN_CONST_SRCPORT(STRSWITCH, 0, ACTIV, 0, 0) + au_num;
 1915              		.loc 1 870 7 discriminator 1 view .LVU543
 1916 00a8 184A     		ldr	r2, .L178+4
 1917              	.LVL188:
 870:Lib/AI_Runtime/Npu/ll_aton/ll_aton.c ****       return ATONN_CONST_SRCPORT(STRSWITCH, 0, ACTIV, 0, 0) + au_num;
 1918              		.loc 1 870 7 discriminator 1 view .LVU544
 1919 00aa B3E7     		b	.L177
 1920              	.LVL189:
 1921              	.L160:
 872:Lib/AI_Runtime/Npu/ll_aton/ll_aton.c **** #endif
 1922              		.loc 1 872 7 is_stmt 1 view .LVU545
 876:Lib/AI_Runtime/Npu/ll_aton/ll_aton.c ****       LL_ATON_ASSERT(au_num < ATON_ARITH_NUM);
 1923              		.loc 1 876 7 view .LVU546
 1924 00ac 24B1     		cbz	r4, .L173
 876:Lib/AI_Runtime/Npu/ll_aton/ll_aton.c ****       LL_ATON_ASSERT(au_num < ATON_ARITH_NUM);
 1925              		.loc 1 876 7 is_stmt 0 discriminator 1 view .LVU547
 1926 00ae 4FF45B71 		mov	r1, #876
 1927 00b2 184B     		ldr	r3, .L178+12
 1928              	.LVL190:
 876:Lib/AI_Runtime/Npu/ll_aton/ll_aton.c ****       LL_ATON_ASSERT(au_num < ATON_ARITH_NUM);
 1929              		.loc 1 876 7 discriminator 1 view .LVU548
 1930 00b4 154A     		ldr	r2, .L178+4
 1931              	.LVL191:
 876:Lib/AI_Runtime/Npu/ll_aton/ll_aton.c ****       LL_ATON_ASSERT(au_num < ATON_ARITH_NUM);
 1932              		.loc 1 876 7 discriminator 1 view .LVU549
 1933 00b6 ADE7     		b	.L177
 1934              	.LVL192:
 1935              	.L173:
 877:Lib/AI_Runtime/Npu/ll_aton/ll_aton.c ****       return ATONN_CONST_SRCPORT(STRSWITCH, 0, ARITH, 0, 0) + au_num;
 1936              		.loc 1 877 7 is_stmt 1 view .LVU550
 1937 00b8 032B     		cmp	r3, #3
 878:Lib/AI_Runtime/Npu/ll_aton/ll_aton.c ****       break;
 1938              		.loc 1 878 61 is_stmt 0 view .LVU551
 1939 00ba 03F11200 		add	r0, r3, #18
 877:Lib/AI_Runtime/Npu/ll_aton/ll_aton.c ****       return ATONN_CONST_SRCPORT(STRSWITCH, 0, ARITH, 0, 0) + au_num;
ARM GAS  C:\Users\DJESSOU\AppData\Local\Temp\ccFxekaC.s 			page 66


 1940              		.loc 1 877 7 view .LVU552
 1941 00be B1D9     		bls	.L151
 877:Lib/AI_Runtime/Npu/ll_aton/ll_aton.c ****       return ATONN_CONST_SRCPORT(STRSWITCH, 0, ARITH, 0, 0) + au_num;
 1942              		.loc 1 877 7 discriminator 1 view .LVU553
 1943 00c0 40F26D31 		movw	r1, #877
 1944 00c4 154B     		ldr	r3, .L178+20
 1945              	.LVL193:
 877:Lib/AI_Runtime/Npu/ll_aton/ll_aton.c ****       return ATONN_CONST_SRCPORT(STRSWITCH, 0, ARITH, 0, 0) + au_num;
 1946              		.loc 1 877 7 discriminator 1 view .LVU554
 1947 00c6 114A     		ldr	r2, .L178+4
 1948              	.LVL194:
 877:Lib/AI_Runtime/Npu/ll_aton/ll_aton.c ****       return ATONN_CONST_SRCPORT(STRSWITCH, 0, ARITH, 0, 0) + au_num;
 1949              		.loc 1 877 7 discriminator 1 view .LVU555
 1950 00c8 A4E7     		b	.L177
 1951              	.LVL195:
 1952              	.L158:
 879:Lib/AI_Runtime/Npu/ll_aton/ll_aton.c **** #endif
 1953              		.loc 1 879 7 is_stmt 1 view .LVU556
 883:Lib/AI_Runtime/Npu/ll_aton/ll_aton.c ****       LL_ATON_ASSERT(au_num < ATON_POOL_NUM);
 1954              		.loc 1 883 7 view .LVU557
 1955 00ca 24B1     		cbz	r4, .L175
 883:Lib/AI_Runtime/Npu/ll_aton/ll_aton.c ****       LL_ATON_ASSERT(au_num < ATON_POOL_NUM);
 1956              		.loc 1 883 7 is_stmt 0 discriminator 1 view .LVU558
 1957 00cc 40F27331 		movw	r1, #883
 1958 00d0 104B     		ldr	r3, .L178+12
 1959              	.LVL196:
 883:Lib/AI_Runtime/Npu/ll_aton/ll_aton.c ****       LL_ATON_ASSERT(au_num < ATON_POOL_NUM);
 1960              		.loc 1 883 7 discriminator 1 view .LVU559
 1961 00d2 0E4A     		ldr	r2, .L178+4
 1962              	.LVL197:
 883:Lib/AI_Runtime/Npu/ll_aton/ll_aton.c ****       LL_ATON_ASSERT(au_num < ATON_POOL_NUM);
 1963              		.loc 1 883 7 discriminator 1 view .LVU560
 1964 00d4 9EE7     		b	.L177
 1965              	.LVL198:
 1966              	.L175:
 884:Lib/AI_Runtime/Npu/ll_aton/ll_aton.c ****       return ATONN_CONST_SRCPORT(STRSWITCH, 0, POOL, 0, 0) + au_num;
 1967              		.loc 1 884 7 is_stmt 1 view .LVU561
 1968 00d6 012B     		cmp	r3, #1
 885:Lib/AI_Runtime/Npu/ll_aton/ll_aton.c ****       break;
 1969              		.loc 1 885 60 is_stmt 0 view .LVU562
 1970 00d8 03F11600 		add	r0, r3, #22
 884:Lib/AI_Runtime/Npu/ll_aton/ll_aton.c ****       return ATONN_CONST_SRCPORT(STRSWITCH, 0, POOL, 0, 0) + au_num;
 1971              		.loc 1 884 7 view .LVU563
 1972 00dc A2D9     		bls	.L151
 884:Lib/AI_Runtime/Npu/ll_aton/ll_aton.c ****       return ATONN_CONST_SRCPORT(STRSWITCH, 0, POOL, 0, 0) + au_num;
 1973              		.loc 1 884 7 discriminator 1 view .LVU564
 1974 00de 4FF45D71 		mov	r1, #884
 1975 00e2 0F4B     		ldr	r3, .L178+24
 1976              	.LVL199:
 884:Lib/AI_Runtime/Npu/ll_aton/ll_aton.c ****       return ATONN_CONST_SRCPORT(STRSWITCH, 0, POOL, 0, 0) + au_num;
 1977              		.loc 1 884 7 discriminator 1 view .LVU565
 1978 00e4 094A     		ldr	r2, .L178+4
 1979              	.LVL200:
 884:Lib/AI_Runtime/Npu/ll_aton/ll_aton.c ****       return ATONN_CONST_SRCPORT(STRSWITCH, 0, POOL, 0, 0) + au_num;
 1980              		.loc 1 884 7 discriminator 1 view .LVU566
 1981 00e6 95E7     		b	.L177
 1982              	.LVL201:
ARM GAS  C:\Users\DJESSOU\AppData\Local\Temp\ccFxekaC.s 			page 67


 1983              	.L157:
 886:Lib/AI_Runtime/Npu/ll_aton/ll_aton.c **** #endif
 1984              		.loc 1 886 7 is_stmt 1 view .LVU567
 889:Lib/AI_Runtime/Npu/ll_aton/ll_aton.c ****       break;
 1985              		.loc 1 889 7 view .LVU568
 1986 00e8 40F27931 		movw	r1, #889
 1987 00ec 0D4B     		ldr	r3, .L178+28
 1988              	.LVL202:
 889:Lib/AI_Runtime/Npu/ll_aton/ll_aton.c ****       break;
 1989              		.loc 1 889 7 is_stmt 0 view .LVU569
 1990 00ee 074A     		ldr	r2, .L178+4
 1991              	.LVL203:
 889:Lib/AI_Runtime/Npu/ll_aton/ll_aton.c ****       break;
 1992              		.loc 1 889 7 view .LVU570
 1993 00f0 90E7     		b	.L177
 1994              	.LVL204:
 1995              	.L154:
 895:Lib/AI_Runtime/Npu/ll_aton/ll_aton.c ****     break;
 1996              		.loc 1 895 5 is_stmt 1 view .LVU571
 1997 00f2 40F27F31 		movw	r1, #895
 1998              	.LVL205:
 895:Lib/AI_Runtime/Npu/ll_aton/ll_aton.c ****     break;
 1999              		.loc 1 895 5 is_stmt 0 view .LVU572
 2000 00f6 0B4B     		ldr	r3, .L178+28
 2001              	.LVL206:
 895:Lib/AI_Runtime/Npu/ll_aton/ll_aton.c ****     break;
 2002              		.loc 1 895 5 view .LVU573
 2003 00f8 044A     		ldr	r2, .L178+4
 2004              	.LVL207:
 895:Lib/AI_Runtime/Npu/ll_aton/ll_aton.c ****     break;
 2005              		.loc 1 895 5 view .LVU574
 2006 00fa 8BE7     		b	.L177
 2007              	.LVL208:
 2008              	.L155:
 896:Lib/AI_Runtime/Npu/ll_aton/ll_aton.c ****   case STRSWITCH_VC:
 2009              		.loc 1 896 5 is_stmt 1 view .LVU575
 899:Lib/AI_Runtime/Npu/ll_aton/ll_aton.c ****     break;
 2010              		.loc 1 899 5 view .LVU576
 2011 00fc 40F28331 		movw	r1, #899
 2012              	.LVL209:
 899:Lib/AI_Runtime/Npu/ll_aton/ll_aton.c ****     break;
 2013              		.loc 1 899 5 is_stmt 0 view .LVU577
 2014 0100 084B     		ldr	r3, .L178+28
 2015              	.LVL210:
 899:Lib/AI_Runtime/Npu/ll_aton/ll_aton.c ****     break;
 2016              		.loc 1 899 5 view .LVU578
 2017 0102 024A     		ldr	r2, .L178+4
 2018              	.LVL211:
 899:Lib/AI_Runtime/Npu/ll_aton/ll_aton.c ****     break;
 2019              		.loc 1 899 5 view .LVU579
 2020 0104 86E7     		b	.L177
 2021              	.L179:
 2022 0106 00BF     		.align	2
 2023              	.L178:
 2024 0108 00000000 		.word	.LC20
 2025 010c 00000000 		.word	__func__.7
 2026 0110 05000000 		.word	.LC4
ARM GAS  C:\Users\DJESSOU\AppData\Local\Temp\ccFxekaC.s 			page 68


 2027 0114 0C000000 		.word	.LC21
 2028 0118 16000000 		.word	.LC22
 2029 011c 22000000 		.word	.LC23
 2030 0120 2D000000 		.word	.LC24
 2031 0124 95000000 		.word	.LC7
 2032              		.cfi_endproc
 2033              	.LFE296:
 2035              		.section	.rodata.__atonn_getDstPortID.str1.1,"aMS",%progbits,1
 2036              	.LC25:
 2037 0000 706F7274 		.ascii	"port < 3\000"
 2037      203C2033 
 2037      00
 2038              	.LC26:
 2039 0009 706F7274 		.ascii	"port < 2\000"
 2039      203C2032 
 2039      00
 2040              		.section	.text.__atonn_getDstPortID,"ax",%progbits
 2041              		.align	1
 2042              		.global	__atonn_getDstPortID
 2043              		.syntax unified
 2044              		.thumb
 2045              		.thumb_func
 2047              	__atonn_getDstPortID:
 2048              	.LVL212:
 2049              	.LFB297:
 907:Lib/AI_Runtime/Npu/ll_aton/ll_aton.c ****   // FIXME
 2050              		.loc 1 907 1 is_stmt 1 view -0
 2051              		.cfi_startproc
 2052              		@ args = 4, pretend = 0, frame = 0
 2053              		@ frame_needed = 0, uses_anonymous_args = 0
 909:Lib/AI_Runtime/Npu/ll_aton/ll_aton.c ****   switch (sut)
 2054              		.loc 1 909 3 view .LVU581
 907:Lib/AI_Runtime/Npu/ll_aton/ll_aton.c ****   // FIXME
 2055              		.loc 1 907 1 is_stmt 0 view .LVU582
 2056 0000 38B5     		push	{r3, r4, r5, lr}
 2057              		.cfi_def_cfa_offset 16
 2058              		.cfi_offset 3, -16
 2059              		.cfi_offset 4, -12
 2060              		.cfi_offset 5, -8
 2061              		.cfi_offset 14, -4
 907:Lib/AI_Runtime/Npu/ll_aton/ll_aton.c ****   // FIXME
 2062              		.loc 1 907 1 view .LVU583
 2063 0002 0546     		mov	r5, r0
 2064 0004 9DF81040 		ldrb	r4, [sp, #16]	@ zero_extendqisi2
 909:Lib/AI_Runtime/Npu/ll_aton/ll_aton.c ****   switch (sut)
 2065              		.loc 1 909 3 view .LVU584
 2066 0008 0846     		mov	r0, r1
 2067              	.LVL213:
 909:Lib/AI_Runtime/Npu/ll_aton/ll_aton.c ****   switch (sut)
 2068              		.loc 1 909 3 view .LVU585
 2069 000a 31B1     		cbz	r1, .L181
 909:Lib/AI_Runtime/Npu/ll_aton/ll_aton.c ****   switch (sut)
 2070              		.loc 1 909 3 discriminator 1 view .LVU586
 2071 000c 40F28D31 		movw	r1, #909
 2072              	.LVL214:
 909:Lib/AI_Runtime/Npu/ll_aton/ll_aton.c ****   switch (sut)
 2073              		.loc 1 909 3 discriminator 1 view .LVU587
ARM GAS  C:\Users\DJESSOU\AppData\Local\Temp\ccFxekaC.s 			page 69


 2074 0010 464B     		ldr	r3, .L208
 2075              	.LVL215:
 909:Lib/AI_Runtime/Npu/ll_aton/ll_aton.c ****   switch (sut)
 2076              		.loc 1 909 3 discriminator 1 view .LVU588
 2077 0012 474A     		ldr	r2, .L208+4
 2078              	.LVL216:
 2079              	.L207:
 917:Lib/AI_Runtime/Npu/ll_aton/ll_aton.c ****       LL_ATON_ASSERT(au_num < ATON_STRENG_NUM);
 2080              		.loc 1 917 7 discriminator 1 view .LVU589
 2081 0014 4748     		ldr	r0, .L208+8
 2082              	.LVL217:
 917:Lib/AI_Runtime/Npu/ll_aton/ll_aton.c ****       LL_ATON_ASSERT(au_num < ATON_STRENG_NUM);
 2083              		.loc 1 917 7 discriminator 1 view .LVU590
 2084 0016 FFF7FEFF 		bl	__assert_func
 2085              	.LVL218:
 2086              	.L181:
 910:Lib/AI_Runtime/Npu/ll_aton/ll_aton.c ****   {
 2087              		.loc 1 910 3 is_stmt 1 view .LVU591
 2088 001a 25B1     		cbz	r5, .L182
 2089 001c 012D     		cmp	r5, #1
 2090 001e 7AD0     		beq	.L183
 2091 0020 022D     		cmp	r5, #2
 2092 0022 7DD0     		beq	.L184
 2093              	.LVL219:
 2094              	.L180:
 972:Lib/AI_Runtime/Npu/ll_aton/ll_aton.c **** 
 2095              		.loc 1 972 1 is_stmt 0 view .LVU592
 2096 0024 38BD     		pop	{r3, r4, r5, pc}
 2097              	.LVL220:
 2098              	.L182:
 913:Lib/AI_Runtime/Npu/ll_aton/ll_aton.c ****     {
 2099              		.loc 1 913 5 is_stmt 1 view .LVU593
 2100 0026 062A     		cmp	r2, #6
 2101 0028 70D8     		bhi	.L186
 2102 002a DFE802F0 		tbb	[pc, r2]
 2103              	.LVL221:
 2104              	.L188:
 2105 002e 04       		.byte	(.L193-.L188)/2
 2106 002f 6F       		.byte	(.L186-.L188)/2
 2107 0030 15       		.byte	(.L192-.L188)/2
 2108 0031 29       		.byte	(.L191-.L188)/2
 2109 0032 3D       		.byte	(.L190-.L188)/2
 2110 0033 4C       		.byte	(.L189-.L188)/2
 2111 0034 60       		.byte	(.L187-.L188)/2
 2112 0035 00       		.p2align 1
 2113              	.L193:
 917:Lib/AI_Runtime/Npu/ll_aton/ll_aton.c ****       LL_ATON_ASSERT(au_num < ATON_STRENG_NUM);
 2114              		.loc 1 917 7 view .LVU594
 2115 0036 24B1     		cbz	r4, .L194
 917:Lib/AI_Runtime/Npu/ll_aton/ll_aton.c ****       LL_ATON_ASSERT(au_num < ATON_STRENG_NUM);
 2116              		.loc 1 917 7 is_stmt 0 discriminator 1 view .LVU595
 2117 0038 40F29531 		movw	r1, #917
 2118 003c 3E4B     		ldr	r3, .L208+12
 2119              	.LVL222:
 917:Lib/AI_Runtime/Npu/ll_aton/ll_aton.c ****       LL_ATON_ASSERT(au_num < ATON_STRENG_NUM);
 2120              		.loc 1 917 7 discriminator 1 view .LVU596
 2121 003e 3C4A     		ldr	r2, .L208+4
ARM GAS  C:\Users\DJESSOU\AppData\Local\Temp\ccFxekaC.s 			page 70


 2122              	.LVL223:
 917:Lib/AI_Runtime/Npu/ll_aton/ll_aton.c ****       LL_ATON_ASSERT(au_num < ATON_STRENG_NUM);
 2123              		.loc 1 917 7 discriminator 1 view .LVU597
 2124 0040 E8E7     		b	.L207
 2125              	.LVL224:
 2126              	.L194:
 918:Lib/AI_Runtime/Npu/ll_aton/ll_aton.c ****       return ATONN_CONST_DSTPORT(STRSWITCH, 0, STRENG, 0, 0) + (0x4 * au_num);
 2127              		.loc 1 918 7 is_stmt 1 view .LVU598
 2128 0042 092B     		cmp	r3, #9
 2129 0044 04D9     		bls	.L195
 918:Lib/AI_Runtime/Npu/ll_aton/ll_aton.c ****       return ATONN_CONST_DSTPORT(STRSWITCH, 0, STRENG, 0, 0) + (0x4 * au_num);
 2130              		.loc 1 918 7 is_stmt 0 discriminator 1 view .LVU599
 2131 0046 40F29631 		movw	r1, #918
 2132 004a 3C4B     		ldr	r3, .L208+16
 2133              	.LVL225:
 918:Lib/AI_Runtime/Npu/ll_aton/ll_aton.c ****       return ATONN_CONST_DSTPORT(STRSWITCH, 0, STRENG, 0, 0) + (0x4 * au_num);
 2134              		.loc 1 918 7 discriminator 1 view .LVU600
 2135 004c 384A     		ldr	r2, .L208+4
 2136              	.LVL226:
 918:Lib/AI_Runtime/Npu/ll_aton/ll_aton.c ****       return ATONN_CONST_DSTPORT(STRSWITCH, 0, STRENG, 0, 0) + (0x4 * au_num);
 2137              		.loc 1 918 7 discriminator 1 view .LVU601
 2138 004e E1E7     		b	.L207
 2139              	.LVL227:
 2140              	.L195:
 919:Lib/AI_Runtime/Npu/ll_aton/ll_aton.c ****       break;
 2141              		.loc 1 919 7 is_stmt 1 view .LVU602
 919:Lib/AI_Runtime/Npu/ll_aton/ll_aton.c ****       break;
 2142              		.loc 1 919 62 is_stmt 0 view .LVU603
 2143 0050 0820     		movs	r0, #8
 2144              	.LVL228:
 2145              	.L206:
 954:Lib/AI_Runtime/Npu/ll_aton/ll_aton.c ****       break;
 2146              		.loc 1 954 60 view .LVU604
 2147 0052 00EB8300 		add	r0, r0, r3, lsl #2
 2148 0056 E5E7     		b	.L180
 2149              	.L192:
 920:Lib/AI_Runtime/Npu/ll_aton/ll_aton.c **** #endif
 2150              		.loc 1 920 7 is_stmt 1 view .LVU605
 924:Lib/AI_Runtime/Npu/ll_aton/ll_aton.c ****       LL_ATON_ASSERT(au_num < ATON_CONVACC_NUM);
 2151              		.loc 1 924 7 view .LVU606
 2152 0058 022C     		cmp	r4, #2
 2153 005a 04D9     		bls	.L196
 924:Lib/AI_Runtime/Npu/ll_aton/ll_aton.c ****       LL_ATON_ASSERT(au_num < ATON_CONVACC_NUM);
 2154              		.loc 1 924 7 is_stmt 0 discriminator 1 view .LVU607
 2155 005c 4FF46771 		mov	r1, #924
 2156 0060 374B     		ldr	r3, .L208+20
 2157              	.LVL229:
 924:Lib/AI_Runtime/Npu/ll_aton/ll_aton.c ****       LL_ATON_ASSERT(au_num < ATON_CONVACC_NUM);
 2158              		.loc 1 924 7 discriminator 1 view .LVU608
 2159 0062 334A     		ldr	r2, .L208+4
 2160              	.LVL230:
 924:Lib/AI_Runtime/Npu/ll_aton/ll_aton.c ****       LL_ATON_ASSERT(au_num < ATON_CONVACC_NUM);
 2161              		.loc 1 924 7 discriminator 1 view .LVU609
 2162 0064 D6E7     		b	.L207
 2163              	.LVL231:
 2164              	.L196:
 925:Lib/AI_Runtime/Npu/ll_aton/ll_aton.c ****       return ATONN_CONST_DSTPORT(STRSWITCH, 0, CONVACC, 0, 0) + (0x4 * (3 * au_num + port));
ARM GAS  C:\Users\DJESSOU\AppData\Local\Temp\ccFxekaC.s 			page 71


 2165              		.loc 1 925 7 is_stmt 1 view .LVU610
 2166 0066 032B     		cmp	r3, #3
 2167 0068 04D9     		bls	.L197
 925:Lib/AI_Runtime/Npu/ll_aton/ll_aton.c ****       return ATONN_CONST_DSTPORT(STRSWITCH, 0, CONVACC, 0, 0) + (0x4 * (3 * au_num + port));
 2168              		.loc 1 925 7 is_stmt 0 discriminator 1 view .LVU611
 2169 006a 40F29D31 		movw	r1, #925
 2170 006e 354B     		ldr	r3, .L208+24
 2171              	.LVL232:
 925:Lib/AI_Runtime/Npu/ll_aton/ll_aton.c ****       return ATONN_CONST_DSTPORT(STRSWITCH, 0, CONVACC, 0, 0) + (0x4 * (3 * au_num + port));
 2172              		.loc 1 925 7 discriminator 1 view .LVU612
 2173 0070 2F4A     		ldr	r2, .L208+4
 2174              	.LVL233:
 925:Lib/AI_Runtime/Npu/ll_aton/ll_aton.c ****       return ATONN_CONST_DSTPORT(STRSWITCH, 0, CONVACC, 0, 0) + (0x4 * (3 * au_num + port));
 2175              		.loc 1 925 7 discriminator 1 view .LVU613
 2176 0072 CFE7     		b	.L207
 2177              	.LVL234:
 2178              	.L197:
 926:Lib/AI_Runtime/Npu/ll_aton/ll_aton.c ****       break;
 2179              		.loc 1 926 7 is_stmt 1 view .LVU614
 926:Lib/AI_Runtime/Npu/ll_aton/ll_aton.c ****       break;
 2180              		.loc 1 926 84 is_stmt 0 view .LVU615
 2181 0074 0320     		movs	r0, #3
 2182 0076 10FB0340 		smlabb	r0, r0, r3, r4
 926:Lib/AI_Runtime/Npu/ll_aton/ll_aton.c ****       break;
 2183              		.loc 1 926 70 view .LVU616
 2184 007a 8000     		lsls	r0, r0, #2
 926:Lib/AI_Runtime/Npu/ll_aton/ll_aton.c ****       break;
 2185              		.loc 1 926 63 view .LVU617
 2186 007c 3030     		adds	r0, r0, #48
 2187 007e D1E7     		b	.L180
 2188              	.L191:
 927:Lib/AI_Runtime/Npu/ll_aton/ll_aton.c **** #endif
 2189              		.loc 1 927 7 is_stmt 1 view .LVU618
 931:Lib/AI_Runtime/Npu/ll_aton/ll_aton.c ****       LL_ATON_ASSERT(au_num < ATON_DECUN_NUM);
 2190              		.loc 1 931 7 view .LVU619
 2191 0080 012C     		cmp	r4, #1
 2192 0082 04D9     		bls	.L198
 931:Lib/AI_Runtime/Npu/ll_aton/ll_aton.c ****       LL_ATON_ASSERT(au_num < ATON_DECUN_NUM);
 2193              		.loc 1 931 7 is_stmt 0 discriminator 1 view .LVU620
 2194 0084 40F2A331 		movw	r1, #931
 2195 0088 2F4B     		ldr	r3, .L208+28
 2196              	.LVL235:
 931:Lib/AI_Runtime/Npu/ll_aton/ll_aton.c ****       LL_ATON_ASSERT(au_num < ATON_DECUN_NUM);
 2197              		.loc 1 931 7 discriminator 1 view .LVU621
 2198 008a 294A     		ldr	r2, .L208+4
 2199              	.LVL236:
 931:Lib/AI_Runtime/Npu/ll_aton/ll_aton.c ****       LL_ATON_ASSERT(au_num < ATON_DECUN_NUM);
 2200              		.loc 1 931 7 discriminator 1 view .LVU622
 2201 008c C2E7     		b	.L207
 2202              	.LVL237:
 2203              	.L198:
 932:Lib/AI_Runtime/Npu/ll_aton/ll_aton.c ****       return ATONN_CONST_DSTPORT(STRSWITCH, 0, DECUN, 0, 0) + (0x4 * (2 * au_num + port));
 2204              		.loc 1 932 7 is_stmt 1 view .LVU623
 2205 008e 012B     		cmp	r3, #1
 2206 0090 04D9     		bls	.L199
 932:Lib/AI_Runtime/Npu/ll_aton/ll_aton.c ****       return ATONN_CONST_DSTPORT(STRSWITCH, 0, DECUN, 0, 0) + (0x4 * (2 * au_num + port));
 2207              		.loc 1 932 7 is_stmt 0 discriminator 1 view .LVU624
ARM GAS  C:\Users\DJESSOU\AppData\Local\Temp\ccFxekaC.s 			page 72


 2208 0092 4FF46971 		mov	r1, #932
 2209 0096 2D4B     		ldr	r3, .L208+32
 2210              	.LVL238:
 932:Lib/AI_Runtime/Npu/ll_aton/ll_aton.c ****       return ATONN_CONST_DSTPORT(STRSWITCH, 0, DECUN, 0, 0) + (0x4 * (2 * au_num + port));
 2211              		.loc 1 932 7 discriminator 1 view .LVU625
 2212 0098 254A     		ldr	r2, .L208+4
 2213              	.LVL239:
 932:Lib/AI_Runtime/Npu/ll_aton/ll_aton.c ****       return ATONN_CONST_DSTPORT(STRSWITCH, 0, DECUN, 0, 0) + (0x4 * (2 * au_num + port));
 2214              		.loc 1 932 7 discriminator 1 view .LVU626
 2215 009a BBE7     		b	.L207
 2216              	.LVL240:
 2217              	.L199:
 933:Lib/AI_Runtime/Npu/ll_aton/ll_aton.c ****       break;
 2218              		.loc 1 933 7 is_stmt 1 view .LVU627
 933:Lib/AI_Runtime/Npu/ll_aton/ll_aton.c ****       break;
 2219              		.loc 1 933 82 is_stmt 0 view .LVU628
 2220 009c 04EB4304 		add	r4, r4, r3, lsl #1
 933:Lib/AI_Runtime/Npu/ll_aton/ll_aton.c ****       break;
 2221              		.loc 1 933 68 view .LVU629
 2222 00a0 A400     		lsls	r4, r4, #2
 933:Lib/AI_Runtime/Npu/ll_aton/ll_aton.c ****       break;
 2223              		.loc 1 933 61 view .LVU630
 2224 00a2 04F16000 		add	r0, r4, #96
 2225 00a6 BDE7     		b	.L180
 2226              	.L190:
 934:Lib/AI_Runtime/Npu/ll_aton/ll_aton.c **** #endif
 2227              		.loc 1 934 7 is_stmt 1 view .LVU631
 938:Lib/AI_Runtime/Npu/ll_aton/ll_aton.c ****       LL_ATON_ASSERT(au_num < ATON_ACTIV_NUM);
 2228              		.loc 1 938 7 view .LVU632
 2229 00a8 24B1     		cbz	r4, .L200
 938:Lib/AI_Runtime/Npu/ll_aton/ll_aton.c ****       LL_ATON_ASSERT(au_num < ATON_ACTIV_NUM);
 2230              		.loc 1 938 7 is_stmt 0 discriminator 1 view .LVU633
 2231 00aa 40F2AA31 		movw	r1, #938
 2232 00ae 224B     		ldr	r3, .L208+12
 2233              	.LVL241:
 938:Lib/AI_Runtime/Npu/ll_aton/ll_aton.c ****       LL_ATON_ASSERT(au_num < ATON_ACTIV_NUM);
 2234              		.loc 1 938 7 discriminator 1 view .LVU634
 2235 00b0 1F4A     		ldr	r2, .L208+4
 2236              	.LVL242:
 938:Lib/AI_Runtime/Npu/ll_aton/ll_aton.c ****       LL_ATON_ASSERT(au_num < ATON_ACTIV_NUM);
 2237              		.loc 1 938 7 discriminator 1 view .LVU635
 2238 00b2 AFE7     		b	.L207
 2239              	.LVL243:
 2240              	.L200:
 939:Lib/AI_Runtime/Npu/ll_aton/ll_aton.c ****       return ATONN_CONST_DSTPORT(STRSWITCH, 0, ACTIV, 0, 0) + (0x4 * au_num);
 2241              		.loc 1 939 7 is_stmt 1 view .LVU636
 2242 00b4 012B     		cmp	r3, #1
 2243 00b6 04D9     		bls	.L201
 939:Lib/AI_Runtime/Npu/ll_aton/ll_aton.c ****       return ATONN_CONST_DSTPORT(STRSWITCH, 0, ACTIV, 0, 0) + (0x4 * au_num);
 2244              		.loc 1 939 7 is_stmt 0 discriminator 1 view .LVU637
 2245 00b8 40F2AB31 		movw	r1, #939
 2246 00bc 234B     		ldr	r3, .L208+32
 2247              	.LVL244:
 939:Lib/AI_Runtime/Npu/ll_aton/ll_aton.c ****       return ATONN_CONST_DSTPORT(STRSWITCH, 0, ACTIV, 0, 0) + (0x4 * au_num);
 2248              		.loc 1 939 7 discriminator 1 view .LVU638
 2249 00be 1C4A     		ldr	r2, .L208+4
 2250              	.LVL245:
ARM GAS  C:\Users\DJESSOU\AppData\Local\Temp\ccFxekaC.s 			page 73


 939:Lib/AI_Runtime/Npu/ll_aton/ll_aton.c ****       return ATONN_CONST_DSTPORT(STRSWITCH, 0, ACTIV, 0, 0) + (0x4 * au_num);
 2251              		.loc 1 939 7 discriminator 1 view .LVU639
 2252 00c0 A8E7     		b	.L207
 2253              	.LVL246:
 2254              	.L201:
 940:Lib/AI_Runtime/Npu/ll_aton/ll_aton.c ****       break;
 2255              		.loc 1 940 7 is_stmt 1 view .LVU640
 940:Lib/AI_Runtime/Npu/ll_aton/ll_aton.c ****       break;
 2256              		.loc 1 940 61 is_stmt 0 view .LVU641
 2257 00c2 7020     		movs	r0, #112
 2258 00c4 C5E7     		b	.L206
 2259              	.L189:
 941:Lib/AI_Runtime/Npu/ll_aton/ll_aton.c **** #endif
 2260              		.loc 1 941 7 is_stmt 1 view .LVU642
 945:Lib/AI_Runtime/Npu/ll_aton/ll_aton.c ****       LL_ATON_ASSERT(au_num < ATON_ARITH_NUM);
 2261              		.loc 1 945 7 view .LVU643
 2262 00c6 012C     		cmp	r4, #1
 2263 00c8 04D9     		bls	.L202
 945:Lib/AI_Runtime/Npu/ll_aton/ll_aton.c ****       LL_ATON_ASSERT(au_num < ATON_ARITH_NUM);
 2264              		.loc 1 945 7 is_stmt 0 discriminator 1 view .LVU644
 2265 00ca 40F2B131 		movw	r1, #945
 2266 00ce 1E4B     		ldr	r3, .L208+28
 2267              	.LVL247:
 945:Lib/AI_Runtime/Npu/ll_aton/ll_aton.c ****       LL_ATON_ASSERT(au_num < ATON_ARITH_NUM);
 2268              		.loc 1 945 7 discriminator 1 view .LVU645
 2269 00d0 174A     		ldr	r2, .L208+4
 2270              	.LVL248:
 945:Lib/AI_Runtime/Npu/ll_aton/ll_aton.c ****       LL_ATON_ASSERT(au_num < ATON_ARITH_NUM);
 2271              		.loc 1 945 7 discriminator 1 view .LVU646
 2272 00d2 9FE7     		b	.L207
 2273              	.LVL249:
 2274              	.L202:
 946:Lib/AI_Runtime/Npu/ll_aton/ll_aton.c ****       return ATONN_CONST_DSTPORT(STRSWITCH, 0, ARITH, 0, 0) + (0x4 * (2 * au_num + port));
 2275              		.loc 1 946 7 is_stmt 1 view .LVU647
 2276 00d4 032B     		cmp	r3, #3
 2277 00d6 04D9     		bls	.L203
 946:Lib/AI_Runtime/Npu/ll_aton/ll_aton.c ****       return ATONN_CONST_DSTPORT(STRSWITCH, 0, ARITH, 0, 0) + (0x4 * (2 * au_num + port));
 2278              		.loc 1 946 7 is_stmt 0 discriminator 1 view .LVU648
 2279 00d8 40F2B231 		movw	r1, #946
 2280 00dc 194B     		ldr	r3, .L208+24
 2281              	.LVL250:
 946:Lib/AI_Runtime/Npu/ll_aton/ll_aton.c ****       return ATONN_CONST_DSTPORT(STRSWITCH, 0, ARITH, 0, 0) + (0x4 * (2 * au_num + port));
 2282              		.loc 1 946 7 discriminator 1 view .LVU649
 2283 00de 144A     		ldr	r2, .L208+4
 2284              	.LVL251:
 946:Lib/AI_Runtime/Npu/ll_aton/ll_aton.c ****       return ATONN_CONST_DSTPORT(STRSWITCH, 0, ARITH, 0, 0) + (0x4 * (2 * au_num + port));
 2285              		.loc 1 946 7 discriminator 1 view .LVU650
 2286 00e0 98E7     		b	.L207
 2287              	.LVL252:
 2288              	.L203:
 947:Lib/AI_Runtime/Npu/ll_aton/ll_aton.c ****       break;
 2289              		.loc 1 947 7 is_stmt 1 view .LVU651
 947:Lib/AI_Runtime/Npu/ll_aton/ll_aton.c ****       break;
 2290              		.loc 1 947 82 is_stmt 0 view .LVU652
 2291 00e2 04EB4304 		add	r4, r4, r3, lsl #1
 947:Lib/AI_Runtime/Npu/ll_aton/ll_aton.c ****       break;
 2292              		.loc 1 947 68 view .LVU653
ARM GAS  C:\Users\DJESSOU\AppData\Local\Temp\ccFxekaC.s 			page 74


 2293 00e6 A400     		lsls	r4, r4, #2
 947:Lib/AI_Runtime/Npu/ll_aton/ll_aton.c ****       break;
 2294              		.loc 1 947 61 view .LVU654
 2295 00e8 04F17800 		add	r0, r4, #120
 2296 00ec 9AE7     		b	.L180
 2297              	.L187:
 948:Lib/AI_Runtime/Npu/ll_aton/ll_aton.c **** #endif
 2298              		.loc 1 948 7 is_stmt 1 view .LVU655
 952:Lib/AI_Runtime/Npu/ll_aton/ll_aton.c ****       LL_ATON_ASSERT(au_num < ATON_POOL_NUM);
 2299              		.loc 1 952 7 view .LVU656
 2300 00ee 24B1     		cbz	r4, .L204
 952:Lib/AI_Runtime/Npu/ll_aton/ll_aton.c ****       LL_ATON_ASSERT(au_num < ATON_POOL_NUM);
 2301              		.loc 1 952 7 is_stmt 0 discriminator 1 view .LVU657
 2302 00f0 4FF46E71 		mov	r1, #952
 2303 00f4 104B     		ldr	r3, .L208+12
 2304              	.LVL253:
 952:Lib/AI_Runtime/Npu/ll_aton/ll_aton.c ****       LL_ATON_ASSERT(au_num < ATON_POOL_NUM);
 2305              		.loc 1 952 7 discriminator 1 view .LVU658
 2306 00f6 0E4A     		ldr	r2, .L208+4
 2307              	.LVL254:
 952:Lib/AI_Runtime/Npu/ll_aton/ll_aton.c ****       LL_ATON_ASSERT(au_num < ATON_POOL_NUM);
 2308              		.loc 1 952 7 discriminator 1 view .LVU659
 2309 00f8 8CE7     		b	.L207
 2310              	.LVL255:
 2311              	.L204:
 953:Lib/AI_Runtime/Npu/ll_aton/ll_aton.c ****       return ATONN_CONST_DSTPORT(STRSWITCH, 0, POOL, 0, 0) + (0x4 * au_num);
 2312              		.loc 1 953 7 is_stmt 1 view .LVU660
 2313 00fa 012B     		cmp	r3, #1
 2314 00fc 04D9     		bls	.L205
 953:Lib/AI_Runtime/Npu/ll_aton/ll_aton.c ****       return ATONN_CONST_DSTPORT(STRSWITCH, 0, POOL, 0, 0) + (0x4 * au_num);
 2315              		.loc 1 953 7 is_stmt 0 discriminator 1 view .LVU661
 2316 00fe 40F2B931 		movw	r1, #953
 2317 0102 124B     		ldr	r3, .L208+32
 2318              	.LVL256:
 953:Lib/AI_Runtime/Npu/ll_aton/ll_aton.c ****       return ATONN_CONST_DSTPORT(STRSWITCH, 0, POOL, 0, 0) + (0x4 * au_num);
 2319              		.loc 1 953 7 discriminator 1 view .LVU662
 2320 0104 0A4A     		ldr	r2, .L208+4
 2321              	.LVL257:
 953:Lib/AI_Runtime/Npu/ll_aton/ll_aton.c ****       return ATONN_CONST_DSTPORT(STRSWITCH, 0, POOL, 0, 0) + (0x4 * au_num);
 2322              		.loc 1 953 7 discriminator 1 view .LVU663
 2323 0106 85E7     		b	.L207
 2324              	.LVL258:
 2325              	.L205:
 954:Lib/AI_Runtime/Npu/ll_aton/ll_aton.c ****       break;
 2326              		.loc 1 954 7 is_stmt 1 view .LVU664
 954:Lib/AI_Runtime/Npu/ll_aton/ll_aton.c ****       break;
 2327              		.loc 1 954 60 is_stmt 0 view .LVU665
 2328 0108 9820     		movs	r0, #152
 2329 010a A2E7     		b	.L206
 2330              	.L186:
 955:Lib/AI_Runtime/Npu/ll_aton/ll_aton.c **** #endif
 2331              		.loc 1 955 7 is_stmt 1 view .LVU666
 958:Lib/AI_Runtime/Npu/ll_aton/ll_aton.c ****       break;
 2332              		.loc 1 958 7 view .LVU667
 2333 010c 40F2BE31 		movw	r1, #958
 2334 0110 0F4B     		ldr	r3, .L208+36
 2335              	.LVL259:
ARM GAS  C:\Users\DJESSOU\AppData\Local\Temp\ccFxekaC.s 			page 75


 958:Lib/AI_Runtime/Npu/ll_aton/ll_aton.c ****       break;
 2336              		.loc 1 958 7 is_stmt 0 view .LVU668
 2337 0112 074A     		ldr	r2, .L208+4
 2338              	.LVL260:
 958:Lib/AI_Runtime/Npu/ll_aton/ll_aton.c ****       break;
 2339              		.loc 1 958 7 view .LVU669
 2340 0114 7EE7     		b	.L207
 2341              	.LVL261:
 2342              	.L183:
 964:Lib/AI_Runtime/Npu/ll_aton/ll_aton.c ****     break;
 2343              		.loc 1 964 5 is_stmt 1 view .LVU670
 2344 0116 4FF47171 		mov	r1, #964
 2345              	.LVL262:
 964:Lib/AI_Runtime/Npu/ll_aton/ll_aton.c ****     break;
 2346              		.loc 1 964 5 is_stmt 0 view .LVU671
 2347 011a 0D4B     		ldr	r3, .L208+36
 2348              	.LVL263:
 964:Lib/AI_Runtime/Npu/ll_aton/ll_aton.c ****     break;
 2349              		.loc 1 964 5 view .LVU672
 2350 011c 044A     		ldr	r2, .L208+4
 2351              	.LVL264:
 964:Lib/AI_Runtime/Npu/ll_aton/ll_aton.c ****     break;
 2352              		.loc 1 964 5 view .LVU673
 2353 011e 79E7     		b	.L207
 2354              	.LVL265:
 2355              	.L184:
 965:Lib/AI_Runtime/Npu/ll_aton/ll_aton.c ****   case STRSWITCH_VC:
 2356              		.loc 1 965 5 is_stmt 1 view .LVU674
 968:Lib/AI_Runtime/Npu/ll_aton/ll_aton.c ****     break;
 2357              		.loc 1 968 5 view .LVU675
 2358 0120 4FF47271 		mov	r1, #968
 2359              	.LVL266:
 968:Lib/AI_Runtime/Npu/ll_aton/ll_aton.c ****     break;
 2360              		.loc 1 968 5 is_stmt 0 view .LVU676
 2361 0124 0A4B     		ldr	r3, .L208+36
 2362              	.LVL267:
 968:Lib/AI_Runtime/Npu/ll_aton/ll_aton.c ****     break;
 2363              		.loc 1 968 5 view .LVU677
 2364 0126 024A     		ldr	r2, .L208+4
 2365              	.LVL268:
 968:Lib/AI_Runtime/Npu/ll_aton/ll_aton.c ****     break;
 2366              		.loc 1 968 5 view .LVU678
 2367 0128 74E7     		b	.L207
 2368              	.L209:
 2369 012a 00BF     		.align	2
 2370              	.L208:
 2371 012c 00000000 		.word	.LC20
 2372 0130 00000000 		.word	__func__.6
 2373 0134 05000000 		.word	.LC4
 2374 0138 0C000000 		.word	.LC21
 2375 013c 16000000 		.word	.LC22
 2376 0140 00000000 		.word	.LC25
 2377 0144 22000000 		.word	.LC23
 2378 0148 09000000 		.word	.LC26
 2379 014c 2D000000 		.word	.LC24
 2380 0150 95000000 		.word	.LC7
 2381              		.cfi_endproc
ARM GAS  C:\Users\DJESSOU\AppData\Local\Temp\ccFxekaC.s 			page 76


 2382              	.LFE297:
 2384              		.section	.text.LL_Switch_Init_NoReset,"ax",%progbits
 2385              		.align	1
 2386              		.global	LL_Switch_Init_NoReset
 2387              		.syntax unified
 2388              		.thumb
 2389              		.thumb_func
 2391              	LL_Switch_Init_NoReset:
 2392              	.LVL269:
 2393              	.LFB298:
 981:Lib/AI_Runtime/Npu/ll_aton/ll_aton.c ****   int i;
 2394              		.loc 1 981 1 is_stmt 1 view -0
 2395              		.cfi_startproc
 2396              		@ args = 0, pretend = 0, frame = 0
 2397              		@ frame_needed = 0, uses_anonymous_args = 0
 982:Lib/AI_Runtime/Npu/ll_aton/ll_aton.c ****   volatile uint32_t *reg;
 2398              		.loc 1 982 3 view .LVU680
 983:Lib/AI_Runtime/Npu/ll_aton/ll_aton.c ****   uint32_t t;
 2399              		.loc 1 983 3 view .LVU681
 984:Lib/AI_Runtime/Npu/ll_aton/ll_aton.c ****   unsigned int en_shift[ATON_SWITCH_CONTEXT_NUM] = {ATON_STRSWITCH_DST_EN0_LSB, ATON_STRSWITCH_DST_
 2400              		.loc 1 984 3 view .LVU682
 985:Lib/AI_Runtime/Npu/ll_aton/ll_aton.c ****   unsigned int link_shift[ATON_SWITCH_CONTEXT_NUM] = {ATON_STRSWITCH_DST_LINK0_LSB, ATON_STRSWITCH_
 2401              		.loc 1 985 3 view .LVU683
 986:Lib/AI_Runtime/Npu/ll_aton/ll_aton.c ****   unsigned int fnr_shift[ATON_SWITCH_CONTEXT_NUM] = {ATON_STRSWITCH_DST_FNR0_LSB, ATON_STRSWITCH_DS
 2402              		.loc 1 986 3 view .LVU684
 987:Lib/AI_Runtime/Npu/ll_aton/ll_aton.c ****   unsigned int fnr_mask[ATON_SWITCH_CONTEXT_NUM] = {ATON_STRSWITCH_DST_FNR0_MASK, ATON_STRSWITCH_DS
 2403              		.loc 1 987 3 view .LVU685
 988:Lib/AI_Runtime/Npu/ll_aton/ll_aton.c **** 
 2404              		.loc 1 988 3 view .LVU686
 991:Lib/AI_Runtime/Npu/ll_aton/ll_aton.c ****   t = ATON_STRSWITCH_CTRL_SET_EN(t, 1);
 2405              		.loc 1 991 3 view .LVU687
 992:Lib/AI_Runtime/Npu/ll_aton/ll_aton.c ****   ATON_STRSWITCH_CTRL_SET(0, t);
 2406              		.loc 1 992 3 view .LVU688
 993:Lib/AI_Runtime/Npu/ll_aton/ll_aton.c **** 
 2407              		.loc 1 993 3 view .LVU689
 993:Lib/AI_Runtime/Npu/ll_aton/ll_aton.c **** 
 2408              		.loc 1 993 3 view .LVU690
 993:Lib/AI_Runtime/Npu/ll_aton/ll_aton.c **** 
 2409              		.loc 1 993 3 view .LVU691
 2410 0000 0123     		movs	r3, #1
 2411 0002 134A     		ldr	r2, .L214
 2412 0004 0029     		cmp	r1, #0
 981:Lib/AI_Runtime/Npu/ll_aton/ll_aton.c ****   int i;
 2413              		.loc 1 981 1 is_stmt 0 view .LVU692
 2414 0006 30B5     		push	{r4, r5, lr}
 2415              		.cfi_def_cfa_offset 12
 2416              		.cfi_offset 4, -12
 2417              		.cfi_offset 5, -8
 2418              		.cfi_offset 14, -4
 993:Lib/AI_Runtime/Npu/ll_aton/ll_aton.c **** 
 2419              		.loc 1 993 3 view .LVU693
 2420 0008 1360     		str	r3, [r2]
 993:Lib/AI_Runtime/Npu/ll_aton/ll_aton.c **** 
 2421              		.loc 1 993 3 is_stmt 1 view .LVU694
 993:Lib/AI_Runtime/Npu/ll_aton/ll_aton.c **** 
 2422              		.loc 1 993 3 view .LVU695
 995:Lib/AI_Runtime/Npu/ll_aton/ll_aton.c ****   {
ARM GAS  C:\Users\DJESSOU\AppData\Local\Temp\ccFxekaC.s 			page 77


 2423              		.loc 1 995 3 view .LVU696
 2424              	.LVL270:
 995:Lib/AI_Runtime/Npu/ll_aton/ll_aton.c ****   {
 2425              		.loc 1 995 3 is_stmt 0 view .LVU697
 2426 000a 01EB0302 		add	r2, r1, r3
 2427 000e B8BF     		it	lt
 2428 0010 1A46     		movlt	r2, r3
 2429              	.LVL271:
 2430              	.L211:
 995:Lib/AI_Runtime/Npu/ll_aton/ll_aton.c ****   {
 2431              		.loc 1 995 17 is_stmt 1 discriminator 1 view .LVU698
 2432 0012 013A     		subs	r2, r2, #1
 2433 0014 01D1     		bne	.L212
1021:Lib/AI_Runtime/Npu/ll_aton/ll_aton.c **** }
 2434              		.loc 1 1021 3 view .LVU699
 2435              	.LVL272:
1022:Lib/AI_Runtime/Npu/ll_aton/ll_aton.c **** 
 2436              		.loc 1 1022 1 is_stmt 0 view .LVU700
 2437 0016 0020     		movs	r0, #0
 2438 0018 30BD     		pop	{r4, r5, pc}
 2439              	.LVL273:
 2440              	.L212:
 998:Lib/AI_Runtime/Npu/ll_aton/ll_aton.c ****     t = 0;
 2441              		.loc 1 998 5 is_stmt 1 view .LVU701
1002:Lib/AI_Runtime/Npu/ll_aton/ll_aton.c ****     t |= (ATONN_SRCPORT_ID(LL_Switch_InitStruct[i].source0) << link_shift[0]);
 2442              		.loc 1 1002 45 is_stmt 0 view .LVU702
 2443 001a 847B     		ldrb	r4, [r0, #14]	@ zero_extendqisi2
1006:Lib/AI_Runtime/Npu/ll_aton/ll_aton.c ****     t |= ((LL_Switch_InitStruct[i].frames1 << fnr_shift[1]) & fnr_mask[1]);
 2444              		.loc 1 1006 61 view .LVU703
 2445 001c D0E90053 		ldrd	r5, r3, [r0]
 2446 0020 5B04     		lsls	r3, r3, #17
1007:Lib/AI_Runtime/Npu/ll_aton/ll_aton.c **** #else
 2447              		.loc 1 1007 7 view .LVU704
 2448 0022 43EA4503 		orr	r3, r3, r5, lsl #1
1002:Lib/AI_Runtime/Npu/ll_aton/ll_aton.c ****     t |= (ATONN_SRCPORT_ID(LL_Switch_InitStruct[i].source0) << link_shift[0]);
 2449              		.loc 1 1002 51 view .LVU705
 2450 0026 04F00105 		and	r5, r4, #1
1007:Lib/AI_Runtime/Npu/ll_aton/ll_aton.c **** #else
 2451              		.loc 1 1007 7 view .LVU706
 2452 002a 2B43     		orrs	r3, r3, r5
1004:Lib/AI_Runtime/Npu/ll_aton/ll_aton.c ****     t |= ((LL_Switch_InitStruct[i].context1 != 0) << en_shift[1]);
 2453              		.loc 1 1004 61 view .LVU707
 2454 002c 057B     		ldrb	r5, [r0, #12]	@ zero_extendqisi2
 998:Lib/AI_Runtime/Npu/ll_aton/ll_aton.c ****     t = 0;
 2455              		.loc 1 998 47 view .LVU708
 2456 002e 8168     		ldr	r1, [r0, #8]
1007:Lib/AI_Runtime/Npu/ll_aton/ll_aton.c **** #else
 2457              		.loc 1 1007 7 view .LVU709
 2458 0030 43EA0523 		orr	r3, r3, r5, lsl #8
1007:Lib/AI_Runtime/Npu/ll_aton/ll_aton.c **** #else
 2459              		.loc 1 1007 44 view .LVU710
 2460 0034 457B     		ldrb	r5, [r0, #13]	@ zero_extendqisi2
 998:Lib/AI_Runtime/Npu/ll_aton/ll_aton.c ****     t = 0;
 2461              		.loc 1 998 47 view .LVU711
 2462 0036 01F1B041 		add	r1, r1, #1476395008
1007:Lib/AI_Runtime/Npu/ll_aton/ll_aton.c **** #else
 2463              		.loc 1 1007 7 view .LVU712
ARM GAS  C:\Users\DJESSOU\AppData\Local\Temp\ccFxekaC.s 			page 78


 2464 003a 43EA0563 		orr	r3, r3, r5, lsl #24
1005:Lib/AI_Runtime/Npu/ll_aton/ll_aton.c ****     t |= (ATONN_SRCPORT_ID(LL_Switch_InitStruct[i].source1) << link_shift[1]);
 2465              		.loc 1 1005 45 view .LVU713
 2466 003e C4F34004 		ubfx	r4, r4, #1, #1
 998:Lib/AI_Runtime/Npu/ll_aton/ll_aton.c ****     t = 0;
 2467              		.loc 1 998 47 view .LVU714
 2468 0042 01F56421 		add	r1, r1, #933888
 2469              	.LVL274:
 999:Lib/AI_Runtime/Npu/ll_aton/ll_aton.c ****     /* Enable Context and create link */
 2470              		.loc 1 999 5 is_stmt 1 view .LVU715
1002:Lib/AI_Runtime/Npu/ll_aton/ll_aton.c ****     t |= (ATONN_SRCPORT_ID(LL_Switch_InitStruct[i].source0) << link_shift[0]);
 2471              		.loc 1 1002 5 view .LVU716
1003:Lib/AI_Runtime/Npu/ll_aton/ll_aton.c ****     t |= ((LL_Switch_InitStruct[i].frames0 << fnr_shift[0]) & fnr_mask[0]);
 2472              		.loc 1 1003 5 view .LVU717
1004:Lib/AI_Runtime/Npu/ll_aton/ll_aton.c ****     t |= ((LL_Switch_InitStruct[i].context1 != 0) << en_shift[1]);
 2473              		.loc 1 1004 5 view .LVU718
1005:Lib/AI_Runtime/Npu/ll_aton/ll_aton.c ****     t |= (ATONN_SRCPORT_ID(LL_Switch_InitStruct[i].source1) << link_shift[1]);
 2474              		.loc 1 1005 5 view .LVU719
1006:Lib/AI_Runtime/Npu/ll_aton/ll_aton.c ****     t |= ((LL_Switch_InitStruct[i].frames1 << fnr_shift[1]) & fnr_mask[1]);
 2475              		.loc 1 1006 5 view .LVU720
1007:Lib/AI_Runtime/Npu/ll_aton/ll_aton.c **** #else
 2476              		.loc 1 1007 5 view .LVU721
1007:Lib/AI_Runtime/Npu/ll_aton/ll_aton.c **** #else
 2477              		.loc 1 1007 7 is_stmt 0 view .LVU722
 2478 0046 43EA0443 		orr	r3, r3, r4, lsl #16
 2479              	.LVL275:
1018:Lib/AI_Runtime/Npu/ll_aton/ll_aton.c ****   }
 2480              		.loc 1 1018 5 is_stmt 1 view .LVU723
1018:Lib/AI_Runtime/Npu/ll_aton/ll_aton.c ****   }
 2481              		.loc 1 1018 5 view .LVU724
 2482 004a 0B60     		str	r3, [r1]
1018:Lib/AI_Runtime/Npu/ll_aton/ll_aton.c ****   }
 2483              		.loc 1 1018 5 view .LVU725
 995:Lib/AI_Runtime/Npu/ll_aton/ll_aton.c ****   {
 2484              		.loc 1 995 23 discriminator 3 view .LVU726
 2485 004c 1030     		adds	r0, r0, #16
 2486 004e E0E7     		b	.L211
 2487              	.L215:
 2488              		.align	2
 2489              	.L214:
 2490 0050 00400E58 		.word	1477328896
 2491              		.cfi_endproc
 2492              	.LFE298:
 2494              		.section	.text.LL_Switch_Init,"ax",%progbits
 2495              		.align	1
 2496              		.global	LL_Switch_Init
 2497              		.syntax unified
 2498              		.thumb
 2499              		.thumb_func
 2501              	LL_Switch_Init:
 2502              	.LVL276:
 2503              	.LFB299:
1031:Lib/AI_Runtime/Npu/ll_aton/ll_aton.c ****   uint32_t t;
 2504              		.loc 1 1031 1 view -0
 2505              		.cfi_startproc
 2506              		@ args = 0, pretend = 0, frame = 0
 2507              		@ frame_needed = 0, uses_anonymous_args = 0
ARM GAS  C:\Users\DJESSOU\AppData\Local\Temp\ccFxekaC.s 			page 79


 2508              		@ link register save eliminated.
1032:Lib/AI_Runtime/Npu/ll_aton/ll_aton.c **** 
 2509              		.loc 1 1032 3 view .LVU728
1039:Lib/AI_Runtime/Npu/ll_aton/ll_aton.c **** 
 2510              		.loc 1 1039 3 view .LVU729
1039:Lib/AI_Runtime/Npu/ll_aton/ll_aton.c **** 
 2511              		.loc 1 1039 3 view .LVU730
1039:Lib/AI_Runtime/Npu/ll_aton/ll_aton.c **** 
 2512              		.loc 1 1039 3 view .LVU731
1039:Lib/AI_Runtime/Npu/ll_aton/ll_aton.c **** 
 2513              		.loc 1 1039 3 view .LVU732
1039:Lib/AI_Runtime/Npu/ll_aton/ll_aton.c **** 
 2514              		.loc 1 1039 3 view .LVU733
1039:Lib/AI_Runtime/Npu/ll_aton/ll_aton.c **** 
 2515              		.loc 1 1039 3 view .LVU734
1039:Lib/AI_Runtime/Npu/ll_aton/ll_aton.c **** 
 2516              		.loc 1 1039 3 view .LVU735
 2517 0000 0222     		movs	r2, #2
 2518 0002 064B     		ldr	r3, .L221
 2519 0004 1A60     		str	r2, [r3]
1039:Lib/AI_Runtime/Npu/ll_aton/ll_aton.c **** 
 2520              		.loc 1 1039 3 view .LVU736
1039:Lib/AI_Runtime/Npu/ll_aton/ll_aton.c **** 
 2521              		.loc 1 1039 3 view .LVU737
1039:Lib/AI_Runtime/Npu/ll_aton/ll_aton.c **** 
 2522              		.loc 1 1039 3 view .LVU738
1039:Lib/AI_Runtime/Npu/ll_aton/ll_aton.c **** 
 2523              		.loc 1 1039 3 view .LVU739
 2524              	.L217:
1039:Lib/AI_Runtime/Npu/ll_aton/ll_aton.c **** 
 2525              		.loc 1 1039 3 discriminator 2 view .LVU740
1039:Lib/AI_Runtime/Npu/ll_aton/ll_aton.c **** 
 2526              		.loc 1 1039 3 discriminator 2 view .LVU741
 2527 0006 1A68     		ldr	r2, [r3]
 2528 0008 9207     		lsls	r2, r2, #30
 2529 000a FCD4     		bmi	.L217
1039:Lib/AI_Runtime/Npu/ll_aton/ll_aton.c **** 
 2530              		.loc 1 1039 3 discriminator 3 view .LVU742
1039:Lib/AI_Runtime/Npu/ll_aton/ll_aton.c **** 
 2531              		.loc 1 1039 3 discriminator 3 view .LVU743
 2532              	.LVL277:
1039:Lib/AI_Runtime/Npu/ll_aton/ll_aton.c **** 
 2533              		.loc 1 1039 3 discriminator 3 view .LVU744
1039:Lib/AI_Runtime/Npu/ll_aton/ll_aton.c **** 
 2534              		.loc 1 1039 3 discriminator 3 view .LVU745
1039:Lib/AI_Runtime/Npu/ll_aton/ll_aton.c **** 
 2535              		.loc 1 1039 3 discriminator 3 view .LVU746
1039:Lib/AI_Runtime/Npu/ll_aton/ll_aton.c **** 
 2536              		.loc 1 1039 3 discriminator 3 view .LVU747
 2537 000c 4FF08042 		mov	r2, #1073741824
 2538 0010 1A60     		str	r2, [r3]
1039:Lib/AI_Runtime/Npu/ll_aton/ll_aton.c **** 
 2539              		.loc 1 1039 3 discriminator 3 view .LVU748
1039:Lib/AI_Runtime/Npu/ll_aton/ll_aton.c **** 
 2540              		.loc 1 1039 3 discriminator 3 view .LVU749
1039:Lib/AI_Runtime/Npu/ll_aton/ll_aton.c **** 
 2541              		.loc 1 1039 3 discriminator 3 view .LVU750
ARM GAS  C:\Users\DJESSOU\AppData\Local\Temp\ccFxekaC.s 			page 80


1039:Lib/AI_Runtime/Npu/ll_aton/ll_aton.c **** 
 2542              		.loc 1 1039 3 discriminator 3 view .LVU751
 2543              	.L218:
1039:Lib/AI_Runtime/Npu/ll_aton/ll_aton.c **** 
 2544              		.loc 1 1039 3 discriminator 5 view .LVU752
1039:Lib/AI_Runtime/Npu/ll_aton/ll_aton.c **** 
 2545              		.loc 1 1039 3 discriminator 5 view .LVU753
 2546 0012 1A68     		ldr	r2, [r3]
 2547 0014 5200     		lsls	r2, r2, #1
 2548 0016 FCD4     		bmi	.L218
1039:Lib/AI_Runtime/Npu/ll_aton/ll_aton.c **** 
 2549              		.loc 1 1039 3 discriminator 6 view .LVU754
1039:Lib/AI_Runtime/Npu/ll_aton/ll_aton.c **** 
 2550              		.loc 1 1039 3 discriminator 6 view .LVU755
1041:Lib/AI_Runtime/Npu/ll_aton/ll_aton.c **** }
 2551              		.loc 1 1041 3 view .LVU756
1041:Lib/AI_Runtime/Npu/ll_aton/ll_aton.c **** }
 2552              		.loc 1 1041 10 is_stmt 0 view .LVU757
 2553 0018 FFF7FEBF 		b	LL_Switch_Init_NoReset
 2554              	.LVL278:
 2555              	.L222:
1041:Lib/AI_Runtime/Npu/ll_aton/ll_aton.c **** }
 2556              		.loc 1 1041 10 view .LVU758
 2557              		.align	2
 2558              	.L221:
 2559 001c 00400E58 		.word	1477328896
 2560              		.cfi_endproc
 2561              	.LFE299:
 2563              		.section	.text.LL_Switch_Deinit,"ax",%progbits
 2564              		.align	1
 2565              		.global	LL_Switch_Deinit
 2566              		.syntax unified
 2567              		.thumb
 2568              		.thumb_func
 2570              	LL_Switch_Deinit:
 2571              	.LVL279:
 2572              	.LFB300:
1051:Lib/AI_Runtime/Npu/ll_aton/ll_aton.c ****   int i;
 2573              		.loc 1 1051 1 is_stmt 1 view -0
 2574              		.cfi_startproc
 2575              		@ args = 0, pretend = 0, frame = 0
 2576              		@ frame_needed = 0, uses_anonymous_args = 0
1052:Lib/AI_Runtime/Npu/ll_aton/ll_aton.c ****   volatile uint32_t *reg;
 2577              		.loc 1 1052 3 view .LVU760
1053:Lib/AI_Runtime/Npu/ll_aton/ll_aton.c **** 
 2578              		.loc 1 1053 3 view .LVU761
1055:Lib/AI_Runtime/Npu/ll_aton/ll_aton.c ****   {
 2579              		.loc 1 1055 3 view .LVU762
1051:Lib/AI_Runtime/Npu/ll_aton/ll_aton.c ****   int i;
 2580              		.loc 1 1051 1 is_stmt 0 view .LVU763
 2581 0000 30B5     		push	{r4, r5, lr}
 2582              		.cfi_def_cfa_offset 12
 2583              		.cfi_offset 4, -12
 2584              		.cfi_offset 5, -8
 2585              		.cfi_offset 14, -4
1055:Lib/AI_Runtime/Npu/ll_aton/ll_aton.c ****   {
 2586              		.loc 1 1055 10 view .LVU764
ARM GAS  C:\Users\DJESSOU\AppData\Local\Temp\ccFxekaC.s 			page 81


 2587 0002 0024     		movs	r4, #0
 2588 0004 A142     		cmp	r1, r4
 2589 0006 01F10103 		add	r3, r1, #1
1061:Lib/AI_Runtime/Npu/ll_aton/ll_aton.c ****   }
 2590              		.loc 1 1061 5 view .LVU765
 2591 000a 2546     		mov	r5, r4
 2592 000c B8BF     		it	lt
 2593 000e 0123     		movlt	r3, #1
1058:Lib/AI_Runtime/Npu/ll_aton/ll_aton.c **** 
 2594              		.loc 1 1058 49 view .LVU766
 2595 0010 0830     		adds	r0, r0, #8
 2596              	.LVL280:
 2597              	.L224:
1055:Lib/AI_Runtime/Npu/ll_aton/ll_aton.c ****   {
 2598              		.loc 1 1055 17 is_stmt 1 discriminator 1 view .LVU767
 2599 0012 013B     		subs	r3, r3, #1
 2600 0014 01D1     		bne	.L225
1064:Lib/AI_Runtime/Npu/ll_aton/ll_aton.c **** }
 2601              		.loc 1 1064 3 view .LVU768
1065:Lib/AI_Runtime/Npu/ll_aton/ll_aton.c **** 
 2602              		.loc 1 1065 1 is_stmt 0 view .LVU769
 2603 0016 0020     		movs	r0, #0
 2604              	.LVL281:
1065:Lib/AI_Runtime/Npu/ll_aton/ll_aton.c **** 
 2605              		.loc 1 1065 1 view .LVU770
 2606 0018 30BD     		pop	{r4, r5, pc}
 2607              	.LVL282:
 2608              	.L225:
1058:Lib/AI_Runtime/Npu/ll_aton/ll_aton.c **** 
 2609              		.loc 1 1058 5 is_stmt 1 view .LVU771
1058:Lib/AI_Runtime/Npu/ll_aton/ll_aton.c **** 
 2610              		.loc 1 1058 49 is_stmt 0 view .LVU772
 2611 001a 2201     		lsls	r2, r4, #4
1058:Lib/AI_Runtime/Npu/ll_aton/ll_aton.c **** 
 2612              		.loc 1 1058 47 view .LVU773
 2613 001c 8258     		ldr	r2, [r0, r2]
1055:Lib/AI_Runtime/Npu/ll_aton/ll_aton.c ****   {
 2614              		.loc 1 1055 23 discriminator 3 view .LVU774
 2615 001e 0134     		adds	r4, r4, #1
 2616              	.LVL283:
1058:Lib/AI_Runtime/Npu/ll_aton/ll_aton.c **** 
 2617              		.loc 1 1058 47 view .LVU775
 2618 0020 02F1B042 		add	r2, r2, #1476395008
 2619 0024 02F56422 		add	r2, r2, #933888
 2620              	.LVL284:
1061:Lib/AI_Runtime/Npu/ll_aton/ll_aton.c ****   }
 2621              		.loc 1 1061 5 is_stmt 1 view .LVU776
1061:Lib/AI_Runtime/Npu/ll_aton/ll_aton.c ****   }
 2622              		.loc 1 1061 5 view .LVU777
 2623 0028 1560     		str	r5, [r2]
1061:Lib/AI_Runtime/Npu/ll_aton/ll_aton.c ****   }
 2624              		.loc 1 1061 5 view .LVU778
1055:Lib/AI_Runtime/Npu/ll_aton/ll_aton.c ****   {
 2625              		.loc 1 1055 23 discriminator 3 view .LVU779
 2626              	.LVL285:
1055:Lib/AI_Runtime/Npu/ll_aton/ll_aton.c ****   {
 2627              		.loc 1 1055 23 is_stmt 0 discriminator 3 view .LVU780
ARM GAS  C:\Users\DJESSOU\AppData\Local\Temp\ccFxekaC.s 			page 82


 2628 002a F2E7     		b	.L224
 2629              		.cfi_endproc
 2630              	.LFE300:
 2632              		.section	.text.LL_Switch_Deinit_Fine_Grained,"ax",%progbits
 2633              		.align	1
 2634              		.global	LL_Switch_Deinit_Fine_Grained
 2635              		.syntax unified
 2636              		.thumb
 2637              		.thumb_func
 2639              	LL_Switch_Deinit_Fine_Grained:
 2640              	.LVL286:
 2641              	.LFB301:
1074:Lib/AI_Runtime/Npu/ll_aton/ll_aton.c ****   int i;
 2642              		.loc 1 1074 1 is_stmt 1 view -0
 2643              		.cfi_startproc
 2644              		@ args = 0, pretend = 0, frame = 0
 2645              		@ frame_needed = 0, uses_anonymous_args = 0
1075:Lib/AI_Runtime/Npu/ll_aton/ll_aton.c ****   volatile uint32_t *reg;
 2646              		.loc 1 1075 3 view .LVU782
1076:Lib/AI_Runtime/Npu/ll_aton/ll_aton.c ****   unsigned int en_shift[ATON_SWITCH_CONTEXT_NUM] = {ATON_STRSWITCH_DST_EN0_LSB, ATON_STRSWITCH_DST_
 2647              		.loc 1 1076 3 view .LVU783
1077:Lib/AI_Runtime/Npu/ll_aton/ll_aton.c **** 
 2648              		.loc 1 1077 3 view .LVU784
1079:Lib/AI_Runtime/Npu/ll_aton/ll_aton.c ****   {
 2649              		.loc 1 1079 3 view .LVU785
1079:Lib/AI_Runtime/Npu/ll_aton/ll_aton.c ****   {
 2650              		.loc 1 1079 3 is_stmt 0 view .LVU786
 2651 0000 0029     		cmp	r1, #0
 2652 0002 01F10103 		add	r3, r1, #1
 2653 0006 B8BF     		it	lt
 2654 0008 0123     		movlt	r3, #1
1074:Lib/AI_Runtime/Npu/ll_aton/ll_aton.c ****   int i;
 2655              		.loc 1 1074 1 view .LVU787
 2656 000a 30B5     		push	{r4, r5, lr}
 2657              		.cfi_def_cfa_offset 12
 2658              		.cfi_offset 4, -12
 2659              		.cfi_offset 5, -8
 2660              		.cfi_offset 14, -4
 2661              	.LVL287:
 2662              	.L228:
1079:Lib/AI_Runtime/Npu/ll_aton/ll_aton.c ****   {
 2663              		.loc 1 1079 17 is_stmt 1 discriminator 1 view .LVU788
 2664 000c 013B     		subs	r3, r3, #1
 2665 000e 01D1     		bne	.L229
1097:Lib/AI_Runtime/Npu/ll_aton/ll_aton.c **** }
 2666              		.loc 1 1097 3 view .LVU789
1098:Lib/AI_Runtime/Npu/ll_aton/ll_aton.c **** 
 2667              		.loc 1 1098 1 is_stmt 0 view .LVU790
 2668 0010 0020     		movs	r0, #0
 2669 0012 30BD     		pop	{r4, r5, pc}
 2670              	.L229:
 2671              	.LBB35:
1082:Lib/AI_Runtime/Npu/ll_aton/ll_aton.c **** 
 2672              		.loc 1 1082 5 is_stmt 1 view .LVU791
1082:Lib/AI_Runtime/Npu/ll_aton/ll_aton.c **** 
 2673              		.loc 1 1082 47 is_stmt 0 view .LVU792
 2674 0014 8268     		ldr	r2, [r0, #8]
ARM GAS  C:\Users\DJESSOU\AppData\Local\Temp\ccFxekaC.s 			page 83


1087:Lib/AI_Runtime/Npu/ll_aton/ll_aton.c ****     t &= ~((LL_Switch_InitStruct[i].context1 != 0) << en_shift[1]);
 2675              		.loc 1 1087 46 view .LVU793
 2676 0016 847B     		ldrb	r4, [r0, #14]	@ zero_extendqisi2
1082:Lib/AI_Runtime/Npu/ll_aton/ll_aton.c **** 
 2677              		.loc 1 1082 47 view .LVU794
 2678 0018 02F1B042 		add	r2, r2, #1476395008
 2679 001c 02F56422 		add	r2, r2, #933888
 2680              	.LVL288:
1085:Lib/AI_Runtime/Npu/ll_aton/ll_aton.c **** #if ATON_SWITCH_CONTEXT_NUM == 2
 2681              		.loc 1 1085 5 is_stmt 1 view .LVU795
1085:Lib/AI_Runtime/Npu/ll_aton/ll_aton.c **** #if ATON_SWITCH_CONTEXT_NUM == 2
 2682              		.loc 1 1085 14 is_stmt 0 view .LVU796
 2683 0020 1168     		ldr	r1, [r2]
 2684              	.LVL289:
1087:Lib/AI_Runtime/Npu/ll_aton/ll_aton.c ****     t &= ~((LL_Switch_InitStruct[i].context1 != 0) << en_shift[1]);
 2685              		.loc 1 1087 5 is_stmt 1 view .LVU797
1087:Lib/AI_Runtime/Npu/ll_aton/ll_aton.c ****     t &= ~((LL_Switch_InitStruct[i].context1 != 0) << en_shift[1]);
 2686              		.loc 1 1087 46 is_stmt 0 view .LVU798
 2687 0022 04F00105 		and	r5, r4, #1
1087:Lib/AI_Runtime/Npu/ll_aton/ll_aton.c ****     t &= ~((LL_Switch_InitStruct[i].context1 != 0) << en_shift[1]);
 2688              		.loc 1 1087 7 view .LVU799
 2689 0026 21EA0501 		bic	r1, r1, r5
 2690              	.LVL290:
1088:Lib/AI_Runtime/Npu/ll_aton/ll_aton.c **** #else
 2691              		.loc 1 1088 5 is_stmt 1 view .LVU800
1088:Lib/AI_Runtime/Npu/ll_aton/ll_aton.c **** #else
 2692              		.loc 1 1088 46 is_stmt 0 view .LVU801
 2693 002a C4F34004 		ubfx	r4, r4, #1, #1
1088:Lib/AI_Runtime/Npu/ll_aton/ll_aton.c **** #else
 2694              		.loc 1 1088 7 view .LVU802
 2695 002e 21EA0441 		bic	r1, r1, r4, lsl #16
 2696              	.LVL291:
1094:Lib/AI_Runtime/Npu/ll_aton/ll_aton.c ****   }
 2697              		.loc 1 1094 5 is_stmt 1 view .LVU803
1094:Lib/AI_Runtime/Npu/ll_aton/ll_aton.c ****   }
 2698              		.loc 1 1094 5 view .LVU804
 2699 0032 1160     		str	r1, [r2]
1094:Lib/AI_Runtime/Npu/ll_aton/ll_aton.c ****   }
 2700              		.loc 1 1094 5 view .LVU805
 2701              	.LBE35:
1079:Lib/AI_Runtime/Npu/ll_aton/ll_aton.c ****   {
 2702              		.loc 1 1079 23 discriminator 3 view .LVU806
 2703 0034 1030     		adds	r0, r0, #16
 2704 0036 E9E7     		b	.L228
 2705              		.cfi_endproc
 2706              	.LFE301:
 2708              		.section	.text.LL_EpochCtrl_Init,"ax",%progbits
 2709              		.align	1
 2710              		.global	LL_EpochCtrl_Init
 2711              		.syntax unified
 2712              		.thumb
 2713              		.thumb_func
 2715              	LL_EpochCtrl_Init:
 2716              	.LVL292:
 2717              	.LFB313:
1213:Lib/AI_Runtime/Npu/ll_aton/ll_aton.c **** 
1214:Lib/AI_Runtime/Npu/ll_aton/ll_aton.c **** static void LL_Decun_CB_1byte(int id, const LL_Decun_InitTypeDef *conf, uint32_t ctrl_val)
ARM GAS  C:\Users\DJESSOU\AppData\Local\Temp\ccFxekaC.s 			page 84


1215:Lib/AI_Runtime/Npu/ll_aton/ll_aton.c **** {
1216:Lib/AI_Runtime/Npu/ll_aton/ll_aton.c ****   unsigned CBsize = conf->CBs_size;
1217:Lib/AI_Runtime/Npu/ll_aton/ll_aton.c ****   unsigned i, k;
1218:Lib/AI_Runtime/Npu/ll_aton/ll_aton.c ****   unsigned mem_idx_num = ATON_DECUN_MEM_LOW_IDX_MAX - ATON_DECUN_MEM_LOW_IDX_MIN + 1;
1219:Lib/AI_Runtime/Npu/ll_aton/ll_aton.c **** 
1220:Lib/AI_Runtime/Npu/ll_aton/ll_aton.c ****   if (conf->nCWperCV == 1)
1221:Lib/AI_Runtime/Npu/ll_aton/ll_aton.c ****   {
1222:Lib/AI_Runtime/Npu/ll_aton/ll_aton.c ****     uint8_t *CBp = (uint8_t *)conf->CBs_vector.p;
1223:Lib/AI_Runtime/Npu/ll_aton/ll_aton.c ****     for (i = 0, k = 0; i < CBsize; i++)
1224:Lib/AI_Runtime/Npu/ll_aton/ll_aton.c ****     {
1225:Lib/AI_Runtime/Npu/ll_aton/ll_aton.c ****       uint32_t temp = CBp[i];
1226:Lib/AI_Runtime/Npu/ll_aton/ll_aton.c ****       ATON_DECUN_MEM_LOW_SET(id, k, temp);
1227:Lib/AI_Runtime/Npu/ll_aton/ll_aton.c ****       k++;
1228:Lib/AI_Runtime/Npu/ll_aton/ll_aton.c ****       if (k == mem_idx_num)
1229:Lib/AI_Runtime/Npu/ll_aton/ll_aton.c ****       {
1230:Lib/AI_Runtime/Npu/ll_aton/ll_aton.c ****         ctrl_val = decun_inc_page_addr(id, ctrl_val);
1231:Lib/AI_Runtime/Npu/ll_aton/ll_aton.c ****         k = 0;
1232:Lib/AI_Runtime/Npu/ll_aton/ll_aton.c ****       }
1233:Lib/AI_Runtime/Npu/ll_aton/ll_aton.c ****     }
1234:Lib/AI_Runtime/Npu/ll_aton/ll_aton.c ****   }
1235:Lib/AI_Runtime/Npu/ll_aton/ll_aton.c ****   if (conf->nCWperCV == 2)
1236:Lib/AI_Runtime/Npu/ll_aton/ll_aton.c ****   {
1237:Lib/AI_Runtime/Npu/ll_aton/ll_aton.c **** #if 0
1238:Lib/AI_Runtime/Npu/ll_aton/ll_aton.c ****     uint8_t *CBp = (uint8_t *)conf->CBs_vector.p;
1239:Lib/AI_Runtime/Npu/ll_aton/ll_aton.c ****     for (i = 0, k = 0; i < CBsize; i += 2)
1240:Lib/AI_Runtime/Npu/ll_aton/ll_aton.c ****     {
1241:Lib/AI_Runtime/Npu/ll_aton/ll_aton.c ****       uint32_t temp = CBp[i] | (CBp[i + 1] << 8);
1242:Lib/AI_Runtime/Npu/ll_aton/ll_aton.c ****       ATON_DECUN_MEM_LOW_SET(id, k, temp);
1243:Lib/AI_Runtime/Npu/ll_aton/ll_aton.c ****       k++;
1244:Lib/AI_Runtime/Npu/ll_aton/ll_aton.c ****       if (k == mem_idx_num )
1245:Lib/AI_Runtime/Npu/ll_aton/ll_aton.c ****       {
1246:Lib/AI_Runtime/Npu/ll_aton/ll_aton.c ****         ctrl_val = decun_inc_page_addr(id, ctrl_val);
1247:Lib/AI_Runtime/Npu/ll_aton/ll_aton.c ****         k = 0;
1248:Lib/AI_Runtime/Npu/ll_aton/ll_aton.c ****       }
1249:Lib/AI_Runtime/Npu/ll_aton/ll_aton.c ****     }
1250:Lib/AI_Runtime/Npu/ll_aton/ll_aton.c **** #else
1251:Lib/AI_Runtime/Npu/ll_aton/ll_aton.c ****     uint16_t *CBp = (uint16_t *)conf->CBs_vector.p;
1252:Lib/AI_Runtime/Npu/ll_aton/ll_aton.c ****     for (i = 0, k = 0; i < CBsize / 2; i++)
1253:Lib/AI_Runtime/Npu/ll_aton/ll_aton.c ****     {
1254:Lib/AI_Runtime/Npu/ll_aton/ll_aton.c ****       uint32_t temp = CBp[i];
1255:Lib/AI_Runtime/Npu/ll_aton/ll_aton.c ****       ATON_DECUN_MEM_LOW_SET(id, k, temp);
1256:Lib/AI_Runtime/Npu/ll_aton/ll_aton.c ****       k++;
1257:Lib/AI_Runtime/Npu/ll_aton/ll_aton.c ****       if (k == mem_idx_num)
1258:Lib/AI_Runtime/Npu/ll_aton/ll_aton.c ****       {
1259:Lib/AI_Runtime/Npu/ll_aton/ll_aton.c ****         ctrl_val = decun_inc_page_addr(id, ctrl_val);
1260:Lib/AI_Runtime/Npu/ll_aton/ll_aton.c ****         k = 0;
1261:Lib/AI_Runtime/Npu/ll_aton/ll_aton.c ****       }
1262:Lib/AI_Runtime/Npu/ll_aton/ll_aton.c ****     }
1263:Lib/AI_Runtime/Npu/ll_aton/ll_aton.c **** #endif
1264:Lib/AI_Runtime/Npu/ll_aton/ll_aton.c ****   }
1265:Lib/AI_Runtime/Npu/ll_aton/ll_aton.c ****   if (conf->nCWperCV == 3)
1266:Lib/AI_Runtime/Npu/ll_aton/ll_aton.c ****   {
1267:Lib/AI_Runtime/Npu/ll_aton/ll_aton.c ****     uint8_t *CBp = (uint8_t *)conf->CBs_vector.p;
1268:Lib/AI_Runtime/Npu/ll_aton/ll_aton.c ****     for (i = 0, k = 0; i < CBsize; i += 3)
1269:Lib/AI_Runtime/Npu/ll_aton/ll_aton.c ****     {
1270:Lib/AI_Runtime/Npu/ll_aton/ll_aton.c ****       uint32_t temp = CBp[i] | (CBp[i + 1] << 8) | (CBp[i + 2] << 16);
1271:Lib/AI_Runtime/Npu/ll_aton/ll_aton.c ****       ATON_DECUN_MEM_LOW_SET(id, k, temp);
ARM GAS  C:\Users\DJESSOU\AppData\Local\Temp\ccFxekaC.s 			page 85


1272:Lib/AI_Runtime/Npu/ll_aton/ll_aton.c ****       k++;
1273:Lib/AI_Runtime/Npu/ll_aton/ll_aton.c ****       if (k == mem_idx_num)
1274:Lib/AI_Runtime/Npu/ll_aton/ll_aton.c ****       {
1275:Lib/AI_Runtime/Npu/ll_aton/ll_aton.c ****         ctrl_val = decun_inc_page_addr(id, ctrl_val);
1276:Lib/AI_Runtime/Npu/ll_aton/ll_aton.c ****         k = 0;
1277:Lib/AI_Runtime/Npu/ll_aton/ll_aton.c ****       }
1278:Lib/AI_Runtime/Npu/ll_aton/ll_aton.c ****     }
1279:Lib/AI_Runtime/Npu/ll_aton/ll_aton.c ****   }
1280:Lib/AI_Runtime/Npu/ll_aton/ll_aton.c ****   if (conf->nCWperCV == 4 || conf->nCWperCV == 8)
1281:Lib/AI_Runtime/Npu/ll_aton/ll_aton.c ****   {
1282:Lib/AI_Runtime/Npu/ll_aton/ll_aton.c ****     uint32_t *CBp = (uint32_t *)conf->CBs_vector.p;
1283:Lib/AI_Runtime/Npu/ll_aton/ll_aton.c ****     for (i = 0, k = 0; i < CBsize / 4; i++)
1284:Lib/AI_Runtime/Npu/ll_aton/ll_aton.c ****     {
1285:Lib/AI_Runtime/Npu/ll_aton/ll_aton.c ****       uint32_t temp = CBp[i];
1286:Lib/AI_Runtime/Npu/ll_aton/ll_aton.c ****       ATON_DECUN_MEM_LOW_SET(id, k, temp);
1287:Lib/AI_Runtime/Npu/ll_aton/ll_aton.c ****       k++;
1288:Lib/AI_Runtime/Npu/ll_aton/ll_aton.c ****       if (k == mem_idx_num)
1289:Lib/AI_Runtime/Npu/ll_aton/ll_aton.c ****       {
1290:Lib/AI_Runtime/Npu/ll_aton/ll_aton.c ****         ctrl_val = decun_inc_page_addr(id, ctrl_val);
1291:Lib/AI_Runtime/Npu/ll_aton/ll_aton.c ****         k = 0;
1292:Lib/AI_Runtime/Npu/ll_aton/ll_aton.c ****       }
1293:Lib/AI_Runtime/Npu/ll_aton/ll_aton.c ****     }
1294:Lib/AI_Runtime/Npu/ll_aton/ll_aton.c ****   }
1295:Lib/AI_Runtime/Npu/ll_aton/ll_aton.c ****   if (conf->nCWperCV == 5)
1296:Lib/AI_Runtime/Npu/ll_aton/ll_aton.c ****   {
1297:Lib/AI_Runtime/Npu/ll_aton/ll_aton.c ****     uint8_t *CBp = (uint8_t *)conf->CBs_vector.p;
1298:Lib/AI_Runtime/Npu/ll_aton/ll_aton.c ****     for (i = 0, k = 0; i < CBsize; i += 5)
1299:Lib/AI_Runtime/Npu/ll_aton/ll_aton.c ****     {
1300:Lib/AI_Runtime/Npu/ll_aton/ll_aton.c ****       uint32_t temp = CBp[i] | (CBp[i + 1] << 8) | (CBp[i + 2] << 16) | (CBp[i + 3] << 24);
1301:Lib/AI_Runtime/Npu/ll_aton/ll_aton.c ****       ATON_DECUN_MEM_LOW_SET(id, k, temp);
1302:Lib/AI_Runtime/Npu/ll_aton/ll_aton.c ****       k++;
1303:Lib/AI_Runtime/Npu/ll_aton/ll_aton.c ****       temp = CBp[i + 4];
1304:Lib/AI_Runtime/Npu/ll_aton/ll_aton.c ****       ATON_DECUN_MEM_LOW_SET(id, k, temp);
1305:Lib/AI_Runtime/Npu/ll_aton/ll_aton.c ****       k++;
1306:Lib/AI_Runtime/Npu/ll_aton/ll_aton.c ****       if (k == mem_idx_num)
1307:Lib/AI_Runtime/Npu/ll_aton/ll_aton.c ****       {
1308:Lib/AI_Runtime/Npu/ll_aton/ll_aton.c ****         ctrl_val = decun_inc_page_addr(id, ctrl_val);
1309:Lib/AI_Runtime/Npu/ll_aton/ll_aton.c ****         k = 0;
1310:Lib/AI_Runtime/Npu/ll_aton/ll_aton.c ****       }
1311:Lib/AI_Runtime/Npu/ll_aton/ll_aton.c ****     }
1312:Lib/AI_Runtime/Npu/ll_aton/ll_aton.c ****   }
1313:Lib/AI_Runtime/Npu/ll_aton/ll_aton.c ****   if (conf->nCWperCV == 6)
1314:Lib/AI_Runtime/Npu/ll_aton/ll_aton.c ****   {
1315:Lib/AI_Runtime/Npu/ll_aton/ll_aton.c **** #if 0
1316:Lib/AI_Runtime/Npu/ll_aton/ll_aton.c ****     uint8_t *CBp = (uint8_t *)conf->CBs_vector.p;
1317:Lib/AI_Runtime/Npu/ll_aton/ll_aton.c ****     for (i = 0, k = 0; i < CBsize; i += 6)
1318:Lib/AI_Runtime/Npu/ll_aton/ll_aton.c ****     {
1319:Lib/AI_Runtime/Npu/ll_aton/ll_aton.c ****       uint32_t temp = CBp[i] | (CBp[i + 1] << 8) | (CBp[i + 2] << 16) | (CBp[i + 3] << 24);
1320:Lib/AI_Runtime/Npu/ll_aton/ll_aton.c ****       ATON_DECUN_MEM_LOW_SET(id, k, temp);
1321:Lib/AI_Runtime/Npu/ll_aton/ll_aton.c ****       k++;
1322:Lib/AI_Runtime/Npu/ll_aton/ll_aton.c ****       temp = CBp[i + 4] | (CBp[i + 5] << 8);
1323:Lib/AI_Runtime/Npu/ll_aton/ll_aton.c ****       ATON_DECUN_MEM_LOW_SET(id, k, temp);
1324:Lib/AI_Runtime/Npu/ll_aton/ll_aton.c ****       k++;
1325:Lib/AI_Runtime/Npu/ll_aton/ll_aton.c ****       if (k == mem_idx_num )
1326:Lib/AI_Runtime/Npu/ll_aton/ll_aton.c ****       {
1327:Lib/AI_Runtime/Npu/ll_aton/ll_aton.c ****         ctrl_val = decun_inc_page_addr(id, ctrl_val);
1328:Lib/AI_Runtime/Npu/ll_aton/ll_aton.c ****         k = 0;
ARM GAS  C:\Users\DJESSOU\AppData\Local\Temp\ccFxekaC.s 			page 86


1329:Lib/AI_Runtime/Npu/ll_aton/ll_aton.c ****       }
1330:Lib/AI_Runtime/Npu/ll_aton/ll_aton.c ****     }
1331:Lib/AI_Runtime/Npu/ll_aton/ll_aton.c **** #else
1332:Lib/AI_Runtime/Npu/ll_aton/ll_aton.c ****     uint16_t *CBp = (uint16_t *)conf->CBs_vector.p;
1333:Lib/AI_Runtime/Npu/ll_aton/ll_aton.c ****     for (i = 0, k = 0; i < CBsize / 2; i += 3)
1334:Lib/AI_Runtime/Npu/ll_aton/ll_aton.c ****     {
1335:Lib/AI_Runtime/Npu/ll_aton/ll_aton.c ****       uint32_t temp = CBp[i] | (CBp[i + 1] << 16);
1336:Lib/AI_Runtime/Npu/ll_aton/ll_aton.c ****       ATON_DECUN_MEM_LOW_SET(id, k, temp);
1337:Lib/AI_Runtime/Npu/ll_aton/ll_aton.c ****       k++;
1338:Lib/AI_Runtime/Npu/ll_aton/ll_aton.c ****       temp = CBp[i + 2];
1339:Lib/AI_Runtime/Npu/ll_aton/ll_aton.c ****       ATON_DECUN_MEM_LOW_SET(id, k, temp);
1340:Lib/AI_Runtime/Npu/ll_aton/ll_aton.c ****       k++;
1341:Lib/AI_Runtime/Npu/ll_aton/ll_aton.c ****       if (k == mem_idx_num)
1342:Lib/AI_Runtime/Npu/ll_aton/ll_aton.c ****       {
1343:Lib/AI_Runtime/Npu/ll_aton/ll_aton.c ****         ctrl_val = decun_inc_page_addr(id, ctrl_val);
1344:Lib/AI_Runtime/Npu/ll_aton/ll_aton.c ****         k = 0;
1345:Lib/AI_Runtime/Npu/ll_aton/ll_aton.c ****       }
1346:Lib/AI_Runtime/Npu/ll_aton/ll_aton.c ****     }
1347:Lib/AI_Runtime/Npu/ll_aton/ll_aton.c **** #endif
1348:Lib/AI_Runtime/Npu/ll_aton/ll_aton.c ****   }
1349:Lib/AI_Runtime/Npu/ll_aton/ll_aton.c ****   if (conf->nCWperCV == 7)
1350:Lib/AI_Runtime/Npu/ll_aton/ll_aton.c ****   {
1351:Lib/AI_Runtime/Npu/ll_aton/ll_aton.c ****     uint8_t *CBp = (uint8_t *)conf->CBs_vector.p;
1352:Lib/AI_Runtime/Npu/ll_aton/ll_aton.c ****     for (i = 0, k = 0; i < CBsize; i += 7)
1353:Lib/AI_Runtime/Npu/ll_aton/ll_aton.c ****     {
1354:Lib/AI_Runtime/Npu/ll_aton/ll_aton.c ****       uint32_t temp = CBp[i] | (CBp[i + 1] << 8) | (CBp[i + 2] << 16) | (CBp[i + 3] << 24);
1355:Lib/AI_Runtime/Npu/ll_aton/ll_aton.c ****       ATON_DECUN_MEM_LOW_SET(id, k, temp);
1356:Lib/AI_Runtime/Npu/ll_aton/ll_aton.c ****       k++;
1357:Lib/AI_Runtime/Npu/ll_aton/ll_aton.c ****       temp = CBp[i + 4] | (CBp[i + 5] << 8) | (CBp[i + 6] << 16);
1358:Lib/AI_Runtime/Npu/ll_aton/ll_aton.c ****       ATON_DECUN_MEM_LOW_SET(id, k, temp);
1359:Lib/AI_Runtime/Npu/ll_aton/ll_aton.c ****       k++;
1360:Lib/AI_Runtime/Npu/ll_aton/ll_aton.c ****       if (k == mem_idx_num)
1361:Lib/AI_Runtime/Npu/ll_aton/ll_aton.c ****       {
1362:Lib/AI_Runtime/Npu/ll_aton/ll_aton.c ****         ctrl_val = decun_inc_page_addr(id, ctrl_val);
1363:Lib/AI_Runtime/Npu/ll_aton/ll_aton.c ****         k = 0;
1364:Lib/AI_Runtime/Npu/ll_aton/ll_aton.c ****       }
1365:Lib/AI_Runtime/Npu/ll_aton/ll_aton.c ****     }
1366:Lib/AI_Runtime/Npu/ll_aton/ll_aton.c ****   }
1367:Lib/AI_Runtime/Npu/ll_aton/ll_aton.c **** }
1368:Lib/AI_Runtime/Npu/ll_aton/ll_aton.c **** 
1369:Lib/AI_Runtime/Npu/ll_aton/ll_aton.c **** static void LL_Decun_CB_2byte(int id, const LL_Decun_InitTypeDef *conf, uint32_t ctrl_val)
1370:Lib/AI_Runtime/Npu/ll_aton/ll_aton.c **** {
1371:Lib/AI_Runtime/Npu/ll_aton/ll_aton.c ****   unsigned CBsize = conf->CBs_size / 2;
1372:Lib/AI_Runtime/Npu/ll_aton/ll_aton.c ****   unsigned i, k;
1373:Lib/AI_Runtime/Npu/ll_aton/ll_aton.c ****   unsigned mem_idx_num = ATON_DECUN_MEM_LOW_IDX_MAX - ATON_DECUN_MEM_LOW_IDX_MIN + 1;
1374:Lib/AI_Runtime/Npu/ll_aton/ll_aton.c **** 
1375:Lib/AI_Runtime/Npu/ll_aton/ll_aton.c ****   if (conf->nCWperCV == 1)
1376:Lib/AI_Runtime/Npu/ll_aton/ll_aton.c ****   {
1377:Lib/AI_Runtime/Npu/ll_aton/ll_aton.c ****     uint16_t *CBp = (uint16_t *)conf->CBs_vector.p;
1378:Lib/AI_Runtime/Npu/ll_aton/ll_aton.c ****     for (i = 0, k = 0; i < CBsize; i++)
1379:Lib/AI_Runtime/Npu/ll_aton/ll_aton.c ****     {
1380:Lib/AI_Runtime/Npu/ll_aton/ll_aton.c ****       uint32_t temp = CBp[i];
1381:Lib/AI_Runtime/Npu/ll_aton/ll_aton.c ****       ATON_DECUN_MEM_LOW_SET(id, k, temp);
1382:Lib/AI_Runtime/Npu/ll_aton/ll_aton.c ****       k++;
1383:Lib/AI_Runtime/Npu/ll_aton/ll_aton.c ****       if (k == mem_idx_num)
1384:Lib/AI_Runtime/Npu/ll_aton/ll_aton.c ****       {
1385:Lib/AI_Runtime/Npu/ll_aton/ll_aton.c ****         ctrl_val = decun_inc_page_addr(id, ctrl_val);
ARM GAS  C:\Users\DJESSOU\AppData\Local\Temp\ccFxekaC.s 			page 87


1386:Lib/AI_Runtime/Npu/ll_aton/ll_aton.c ****         k = 0;
1387:Lib/AI_Runtime/Npu/ll_aton/ll_aton.c ****       }
1388:Lib/AI_Runtime/Npu/ll_aton/ll_aton.c ****     }
1389:Lib/AI_Runtime/Npu/ll_aton/ll_aton.c ****   }
1390:Lib/AI_Runtime/Npu/ll_aton/ll_aton.c ****   if (conf->nCWperCV == 2)
1391:Lib/AI_Runtime/Npu/ll_aton/ll_aton.c ****   {
1392:Lib/AI_Runtime/Npu/ll_aton/ll_aton.c **** #if 0
1393:Lib/AI_Runtime/Npu/ll_aton/ll_aton.c ****     uint16_t *CBp = (uint16_t *)conf->CBs_vector.p;
1394:Lib/AI_Runtime/Npu/ll_aton/ll_aton.c ****     for (i = 0, k = 0; i < CBsize; i += 2)
1395:Lib/AI_Runtime/Npu/ll_aton/ll_aton.c ****     {
1396:Lib/AI_Runtime/Npu/ll_aton/ll_aton.c ****       uint32_t temp = CBp[i] | (CBp[i + 1] << 16);
1397:Lib/AI_Runtime/Npu/ll_aton/ll_aton.c ****       ATON_DECUN_MEM_LOW_SET(id, k, temp);
1398:Lib/AI_Runtime/Npu/ll_aton/ll_aton.c ****       k++;
1399:Lib/AI_Runtime/Npu/ll_aton/ll_aton.c ****       if (k == mem_idx_num )
1400:Lib/AI_Runtime/Npu/ll_aton/ll_aton.c ****       {
1401:Lib/AI_Runtime/Npu/ll_aton/ll_aton.c ****         ctrl_val = decun_inc_page_addr(id, ctrl_val);
1402:Lib/AI_Runtime/Npu/ll_aton/ll_aton.c ****         k = 0;
1403:Lib/AI_Runtime/Npu/ll_aton/ll_aton.c ****       }
1404:Lib/AI_Runtime/Npu/ll_aton/ll_aton.c ****     }
1405:Lib/AI_Runtime/Npu/ll_aton/ll_aton.c **** #else
1406:Lib/AI_Runtime/Npu/ll_aton/ll_aton.c ****     uint32_t *CBp = (uint32_t *)conf->CBs_vector.p;
1407:Lib/AI_Runtime/Npu/ll_aton/ll_aton.c ****     for (i = 0, k = 0; i < CBsize / 2; i++)
1408:Lib/AI_Runtime/Npu/ll_aton/ll_aton.c ****     {
1409:Lib/AI_Runtime/Npu/ll_aton/ll_aton.c ****       uint32_t temp = CBp[i];
1410:Lib/AI_Runtime/Npu/ll_aton/ll_aton.c ****       ATON_DECUN_MEM_LOW_SET(id, k, temp);
1411:Lib/AI_Runtime/Npu/ll_aton/ll_aton.c ****       k++;
1412:Lib/AI_Runtime/Npu/ll_aton/ll_aton.c ****       if (k == mem_idx_num)
1413:Lib/AI_Runtime/Npu/ll_aton/ll_aton.c ****       {
1414:Lib/AI_Runtime/Npu/ll_aton/ll_aton.c ****         ctrl_val = decun_inc_page_addr(id, ctrl_val);
1415:Lib/AI_Runtime/Npu/ll_aton/ll_aton.c ****         k = 0;
1416:Lib/AI_Runtime/Npu/ll_aton/ll_aton.c ****       }
1417:Lib/AI_Runtime/Npu/ll_aton/ll_aton.c ****     }
1418:Lib/AI_Runtime/Npu/ll_aton/ll_aton.c **** #endif
1419:Lib/AI_Runtime/Npu/ll_aton/ll_aton.c ****   }
1420:Lib/AI_Runtime/Npu/ll_aton/ll_aton.c ****   if (conf->nCWperCV == 3)
1421:Lib/AI_Runtime/Npu/ll_aton/ll_aton.c ****   {
1422:Lib/AI_Runtime/Npu/ll_aton/ll_aton.c ****     uint16_t *CBp = (uint16_t *)conf->CBs_vector.p;
1423:Lib/AI_Runtime/Npu/ll_aton/ll_aton.c ****     for (i = 0, k = 0; i < CBsize; i += 3)
1424:Lib/AI_Runtime/Npu/ll_aton/ll_aton.c ****     {
1425:Lib/AI_Runtime/Npu/ll_aton/ll_aton.c ****       uint32_t temp = CBp[i] | (CBp[i + 1] << 16);
1426:Lib/AI_Runtime/Npu/ll_aton/ll_aton.c ****       ATON_DECUN_MEM_LOW_SET(id, k, temp);
1427:Lib/AI_Runtime/Npu/ll_aton/ll_aton.c ****       temp = CBp[i + 2];
1428:Lib/AI_Runtime/Npu/ll_aton/ll_aton.c ****       ATON_DECUN_MEM_HIGH_SET(id, k, temp);
1429:Lib/AI_Runtime/Npu/ll_aton/ll_aton.c ****       k++;
1430:Lib/AI_Runtime/Npu/ll_aton/ll_aton.c ****       if (k == mem_idx_num)
1431:Lib/AI_Runtime/Npu/ll_aton/ll_aton.c ****       {
1432:Lib/AI_Runtime/Npu/ll_aton/ll_aton.c ****         ctrl_val = decun_inc_page_addr(id, ctrl_val);
1433:Lib/AI_Runtime/Npu/ll_aton/ll_aton.c ****         k = 0;
1434:Lib/AI_Runtime/Npu/ll_aton/ll_aton.c ****       }
1435:Lib/AI_Runtime/Npu/ll_aton/ll_aton.c ****     }
1436:Lib/AI_Runtime/Npu/ll_aton/ll_aton.c ****   }
1437:Lib/AI_Runtime/Npu/ll_aton/ll_aton.c ****   if (conf->nCWperCV == 4)
1438:Lib/AI_Runtime/Npu/ll_aton/ll_aton.c ****   {
1439:Lib/AI_Runtime/Npu/ll_aton/ll_aton.c ****     uint32_t *CBp = (uint32_t *)conf->CBs_vector.p;
1440:Lib/AI_Runtime/Npu/ll_aton/ll_aton.c ****     for (i = 0, k = 0; i < CBsize / 2; i += 2)
1441:Lib/AI_Runtime/Npu/ll_aton/ll_aton.c ****     {
1442:Lib/AI_Runtime/Npu/ll_aton/ll_aton.c ****       uint32_t temp = CBp[i];
ARM GAS  C:\Users\DJESSOU\AppData\Local\Temp\ccFxekaC.s 			page 88


1443:Lib/AI_Runtime/Npu/ll_aton/ll_aton.c ****       ATON_DECUN_MEM_LOW_SET(id, k, temp);
1444:Lib/AI_Runtime/Npu/ll_aton/ll_aton.c ****       temp = CBp[i + 1];
1445:Lib/AI_Runtime/Npu/ll_aton/ll_aton.c ****       ATON_DECUN_MEM_HIGH_SET(id, k, temp);
1446:Lib/AI_Runtime/Npu/ll_aton/ll_aton.c ****       k++;
1447:Lib/AI_Runtime/Npu/ll_aton/ll_aton.c ****       if (k == mem_idx_num)
1448:Lib/AI_Runtime/Npu/ll_aton/ll_aton.c ****       {
1449:Lib/AI_Runtime/Npu/ll_aton/ll_aton.c ****         ctrl_val = decun_inc_page_addr(id, ctrl_val);
1450:Lib/AI_Runtime/Npu/ll_aton/ll_aton.c ****         k = 0;
1451:Lib/AI_Runtime/Npu/ll_aton/ll_aton.c ****       }
1452:Lib/AI_Runtime/Npu/ll_aton/ll_aton.c ****     }
1453:Lib/AI_Runtime/Npu/ll_aton/ll_aton.c ****   }
1454:Lib/AI_Runtime/Npu/ll_aton/ll_aton.c ****   if (conf->nCWperCV == 5)
1455:Lib/AI_Runtime/Npu/ll_aton/ll_aton.c ****   {
1456:Lib/AI_Runtime/Npu/ll_aton/ll_aton.c ****     uint16_t *CBp = (uint16_t *)conf->CBs_vector.p;
1457:Lib/AI_Runtime/Npu/ll_aton/ll_aton.c ****     for (i = 0, k = 0; i < CBsize; i += 5)
1458:Lib/AI_Runtime/Npu/ll_aton/ll_aton.c ****     {
1459:Lib/AI_Runtime/Npu/ll_aton/ll_aton.c ****       uint32_t temp = CBp[i] | (CBp[i + 1] << 16);
1460:Lib/AI_Runtime/Npu/ll_aton/ll_aton.c ****       ATON_DECUN_MEM_LOW_SET(id, k, temp);
1461:Lib/AI_Runtime/Npu/ll_aton/ll_aton.c ****       temp = CBp[i + 2] | (CBp[i + 3] << 16);
1462:Lib/AI_Runtime/Npu/ll_aton/ll_aton.c ****       ATON_DECUN_MEM_HIGH_SET(id, k, temp);
1463:Lib/AI_Runtime/Npu/ll_aton/ll_aton.c ****       k++;
1464:Lib/AI_Runtime/Npu/ll_aton/ll_aton.c ****       temp = CBp[i + 4];
1465:Lib/AI_Runtime/Npu/ll_aton/ll_aton.c ****       ATON_DECUN_MEM_LOW_SET(id, k, temp);
1466:Lib/AI_Runtime/Npu/ll_aton/ll_aton.c ****       k++;
1467:Lib/AI_Runtime/Npu/ll_aton/ll_aton.c ****       if (k == mem_idx_num)
1468:Lib/AI_Runtime/Npu/ll_aton/ll_aton.c ****       {
1469:Lib/AI_Runtime/Npu/ll_aton/ll_aton.c ****         ctrl_val = decun_inc_page_addr(id, ctrl_val);
1470:Lib/AI_Runtime/Npu/ll_aton/ll_aton.c ****         k = 0;
1471:Lib/AI_Runtime/Npu/ll_aton/ll_aton.c ****       }
1472:Lib/AI_Runtime/Npu/ll_aton/ll_aton.c ****     }
1473:Lib/AI_Runtime/Npu/ll_aton/ll_aton.c ****   }
1474:Lib/AI_Runtime/Npu/ll_aton/ll_aton.c ****   if (conf->nCWperCV == 6)
1475:Lib/AI_Runtime/Npu/ll_aton/ll_aton.c ****   {
1476:Lib/AI_Runtime/Npu/ll_aton/ll_aton.c **** #if 0
1477:Lib/AI_Runtime/Npu/ll_aton/ll_aton.c ****     uint16_t *CBp = (uint16_t *)conf->CBs_vector.p;
1478:Lib/AI_Runtime/Npu/ll_aton/ll_aton.c ****     for (i = 0, k = 0; i < CBsize; i += 6)
1479:Lib/AI_Runtime/Npu/ll_aton/ll_aton.c ****     {
1480:Lib/AI_Runtime/Npu/ll_aton/ll_aton.c ****       uint32_t temp = CBp[i] | (CBp[i + 1] << 16);
1481:Lib/AI_Runtime/Npu/ll_aton/ll_aton.c ****       ATON_DECUN_MEM_LOW_SET(id, k, temp);
1482:Lib/AI_Runtime/Npu/ll_aton/ll_aton.c ****       temp = CBp[i + 2] | (CBp[i + 3] << 16);
1483:Lib/AI_Runtime/Npu/ll_aton/ll_aton.c ****       ATON_DECUN_MEM_HIGH_SET(id, k, temp);
1484:Lib/AI_Runtime/Npu/ll_aton/ll_aton.c ****       k++;
1485:Lib/AI_Runtime/Npu/ll_aton/ll_aton.c ****       if (k == mem_idx_num )
1486:Lib/AI_Runtime/Npu/ll_aton/ll_aton.c ****       {
1487:Lib/AI_Runtime/Npu/ll_aton/ll_aton.c ****         ctrl_val = decun_inc_page_addr(id, ctrl_val);
1488:Lib/AI_Runtime/Npu/ll_aton/ll_aton.c ****         k = 0;
1489:Lib/AI_Runtime/Npu/ll_aton/ll_aton.c ****       }
1490:Lib/AI_Runtime/Npu/ll_aton/ll_aton.c ****       temp = CBp[i + 4] | (CBp[i + 5] << 16);
1491:Lib/AI_Runtime/Npu/ll_aton/ll_aton.c ****       ATON_DECUN_MEM_LOW_SET(id, k, temp);
1492:Lib/AI_Runtime/Npu/ll_aton/ll_aton.c ****       k++;
1493:Lib/AI_Runtime/Npu/ll_aton/ll_aton.c ****       if (k == mem_idx_num )
1494:Lib/AI_Runtime/Npu/ll_aton/ll_aton.c ****       {
1495:Lib/AI_Runtime/Npu/ll_aton/ll_aton.c ****         ctrl_val = decun_inc_page_addr(id, ctrl_val);
1496:Lib/AI_Runtime/Npu/ll_aton/ll_aton.c ****         k = 0;
1497:Lib/AI_Runtime/Npu/ll_aton/ll_aton.c ****       }
1498:Lib/AI_Runtime/Npu/ll_aton/ll_aton.c ****     }
1499:Lib/AI_Runtime/Npu/ll_aton/ll_aton.c **** #else
ARM GAS  C:\Users\DJESSOU\AppData\Local\Temp\ccFxekaC.s 			page 89


1500:Lib/AI_Runtime/Npu/ll_aton/ll_aton.c ****     uint32_t *CBp = (uint32_t *)conf->CBs_vector.p;
1501:Lib/AI_Runtime/Npu/ll_aton/ll_aton.c ****     for (i = 0, k = 0; i < CBsize / 2; i += 3)
1502:Lib/AI_Runtime/Npu/ll_aton/ll_aton.c ****     {
1503:Lib/AI_Runtime/Npu/ll_aton/ll_aton.c ****       uint32_t temp = CBp[i];
1504:Lib/AI_Runtime/Npu/ll_aton/ll_aton.c ****       ATON_DECUN_MEM_LOW_SET(id, k, temp);
1505:Lib/AI_Runtime/Npu/ll_aton/ll_aton.c ****       temp = CBp[i + 1];
1506:Lib/AI_Runtime/Npu/ll_aton/ll_aton.c ****       ATON_DECUN_MEM_HIGH_SET(id, k, temp);
1507:Lib/AI_Runtime/Npu/ll_aton/ll_aton.c ****       k++;
1508:Lib/AI_Runtime/Npu/ll_aton/ll_aton.c ****       temp = CBp[i + 2];
1509:Lib/AI_Runtime/Npu/ll_aton/ll_aton.c ****       ATON_DECUN_MEM_LOW_SET(id, k, temp);
1510:Lib/AI_Runtime/Npu/ll_aton/ll_aton.c ****       k++;
1511:Lib/AI_Runtime/Npu/ll_aton/ll_aton.c ****       if (k == mem_idx_num)
1512:Lib/AI_Runtime/Npu/ll_aton/ll_aton.c ****       {
1513:Lib/AI_Runtime/Npu/ll_aton/ll_aton.c ****         ctrl_val = decun_inc_page_addr(id, ctrl_val);
1514:Lib/AI_Runtime/Npu/ll_aton/ll_aton.c ****         k = 0;
1515:Lib/AI_Runtime/Npu/ll_aton/ll_aton.c ****       }
1516:Lib/AI_Runtime/Npu/ll_aton/ll_aton.c ****     }
1517:Lib/AI_Runtime/Npu/ll_aton/ll_aton.c **** #endif
1518:Lib/AI_Runtime/Npu/ll_aton/ll_aton.c ****   }
1519:Lib/AI_Runtime/Npu/ll_aton/ll_aton.c ****   if (conf->nCWperCV == 7)
1520:Lib/AI_Runtime/Npu/ll_aton/ll_aton.c ****   {
1521:Lib/AI_Runtime/Npu/ll_aton/ll_aton.c ****     uint16_t *CBp = (uint16_t *)conf->CBs_vector.p;
1522:Lib/AI_Runtime/Npu/ll_aton/ll_aton.c ****     for (i = 0, k = 0; i < CBsize; i += 7)
1523:Lib/AI_Runtime/Npu/ll_aton/ll_aton.c ****     {
1524:Lib/AI_Runtime/Npu/ll_aton/ll_aton.c ****       uint32_t temp = CBp[i] | (CBp[i + 1] << 16);
1525:Lib/AI_Runtime/Npu/ll_aton/ll_aton.c ****       ATON_DECUN_MEM_LOW_SET(id, k, temp);
1526:Lib/AI_Runtime/Npu/ll_aton/ll_aton.c ****       temp = CBp[i + 2] | (CBp[i + 3] << 16);
1527:Lib/AI_Runtime/Npu/ll_aton/ll_aton.c ****       ATON_DECUN_MEM_HIGH_SET(id, k, temp);
1528:Lib/AI_Runtime/Npu/ll_aton/ll_aton.c ****       k++;
1529:Lib/AI_Runtime/Npu/ll_aton/ll_aton.c ****       temp = CBp[i + 4] | (CBp[i + 5] << 16);
1530:Lib/AI_Runtime/Npu/ll_aton/ll_aton.c ****       ATON_DECUN_MEM_LOW_SET(id, k, temp);
1531:Lib/AI_Runtime/Npu/ll_aton/ll_aton.c ****       temp = CBp[i + 6];
1532:Lib/AI_Runtime/Npu/ll_aton/ll_aton.c ****       ATON_DECUN_MEM_HIGH_SET(id, k, temp);
1533:Lib/AI_Runtime/Npu/ll_aton/ll_aton.c ****       k++;
1534:Lib/AI_Runtime/Npu/ll_aton/ll_aton.c ****       if (k == mem_idx_num)
1535:Lib/AI_Runtime/Npu/ll_aton/ll_aton.c ****       {
1536:Lib/AI_Runtime/Npu/ll_aton/ll_aton.c ****         ctrl_val = decun_inc_page_addr(id, ctrl_val);
1537:Lib/AI_Runtime/Npu/ll_aton/ll_aton.c ****         k = 0;
1538:Lib/AI_Runtime/Npu/ll_aton/ll_aton.c ****       }
1539:Lib/AI_Runtime/Npu/ll_aton/ll_aton.c ****     }
1540:Lib/AI_Runtime/Npu/ll_aton/ll_aton.c ****   }
1541:Lib/AI_Runtime/Npu/ll_aton/ll_aton.c ****   if (conf->nCWperCV == 8)
1542:Lib/AI_Runtime/Npu/ll_aton/ll_aton.c ****   {
1543:Lib/AI_Runtime/Npu/ll_aton/ll_aton.c ****     uint32_t *CBp = (uint32_t *)conf->CBs_vector.p;
1544:Lib/AI_Runtime/Npu/ll_aton/ll_aton.c ****     for (i = 0, k = 0; i < CBsize / 2; i += 2)
1545:Lib/AI_Runtime/Npu/ll_aton/ll_aton.c ****     {
1546:Lib/AI_Runtime/Npu/ll_aton/ll_aton.c ****       uint32_t temp = CBp[i];
1547:Lib/AI_Runtime/Npu/ll_aton/ll_aton.c ****       ATON_DECUN_MEM_LOW_SET(id, k, temp);
1548:Lib/AI_Runtime/Npu/ll_aton/ll_aton.c ****       temp = CBp[i + 1];
1549:Lib/AI_Runtime/Npu/ll_aton/ll_aton.c ****       ATON_DECUN_MEM_HIGH_SET(id, k, temp);
1550:Lib/AI_Runtime/Npu/ll_aton/ll_aton.c ****       k++;
1551:Lib/AI_Runtime/Npu/ll_aton/ll_aton.c ****       if (k == mem_idx_num)
1552:Lib/AI_Runtime/Npu/ll_aton/ll_aton.c ****       {
1553:Lib/AI_Runtime/Npu/ll_aton/ll_aton.c ****         ctrl_val = decun_inc_page_addr(id, ctrl_val);
1554:Lib/AI_Runtime/Npu/ll_aton/ll_aton.c ****         k = 0;
1555:Lib/AI_Runtime/Npu/ll_aton/ll_aton.c ****       }
1556:Lib/AI_Runtime/Npu/ll_aton/ll_aton.c ****     }
ARM GAS  C:\Users\DJESSOU\AppData\Local\Temp\ccFxekaC.s 			page 90


1557:Lib/AI_Runtime/Npu/ll_aton/ll_aton.c ****   }
1558:Lib/AI_Runtime/Npu/ll_aton/ll_aton.c **** }
1559:Lib/AI_Runtime/Npu/ll_aton/ll_aton.c **** 
1560:Lib/AI_Runtime/Npu/ll_aton/ll_aton.c **** /**
1561:Lib/AI_Runtime/Npu/ll_aton/ll_aton.c ****  * @brief  Configures Decompression Unit accelerator
1562:Lib/AI_Runtime/Npu/ll_aton/ll_aton.c ****  * @param  id Decompression Unit identifier (Always 0 for Tiny Orlando)
1563:Lib/AI_Runtime/Npu/ll_aton/ll_aton.c ****  * @param  conf Pointer to structure describing decompression unit configuration
1564:Lib/AI_Runtime/Npu/ll_aton/ll_aton.c ****  * @retval Error code
1565:Lib/AI_Runtime/Npu/ll_aton/ll_aton.c ****  */
1566:Lib/AI_Runtime/Npu/ll_aton/ll_aton.c **** int LL_Decun_Init(int id, const LL_Decun_InitTypeDef *conf)
1567:Lib/AI_Runtime/Npu/ll_aton/ll_aton.c **** {
1568:Lib/AI_Runtime/Npu/ll_aton/ll_aton.c ****   uint32_t t;
1569:Lib/AI_Runtime/Npu/ll_aton/ll_aton.c **** 
1570:Lib/AI_Runtime/Npu/ll_aton/ll_aton.c ****   if (id >= ATON_DECUN_NUM)
1571:Lib/AI_Runtime/Npu/ll_aton/ll_aton.c ****     return LL_ATON_INVALID_ID;
1572:Lib/AI_Runtime/Npu/ll_aton/ll_aton.c **** 
1573:Lib/AI_Runtime/Npu/ll_aton/ll_aton.c ****   LL_ATON_EnableClock(ATON_DECUN_CLKB_CLK(id));
1574:Lib/AI_Runtime/Npu/ll_aton/ll_aton.c **** 
1575:Lib/AI_Runtime/Npu/ll_aton/ll_aton.c ****   t = ATON_DECUN_CTRL_DT;
1576:Lib/AI_Runtime/Npu/ll_aton/ll_aton.c ****   t = ATON_DECUN_CTRL_SET_DUALIN(t, (conf->noDualInput != 0));
1577:Lib/AI_Runtime/Npu/ll_aton/ll_aton.c ****   t = ATON_DECUN_CTRL_SET_OW(t, (conf->noOverWrite != 0));
1578:Lib/AI_Runtime/Npu/ll_aton/ll_aton.c ****   ATON_DECUN_CTRL_SET(id, t);
1579:Lib/AI_Runtime/Npu/ll_aton/ll_aton.c **** 
1580:Lib/AI_Runtime/Npu/ll_aton/ll_aton.c ****   if (conf->CBs_size != 0)
1581:Lib/AI_Runtime/Npu/ll_aton/ll_aton.c ****   {
1582:Lib/AI_Runtime/Npu/ll_aton/ll_aton.c ****     if (conf->nFormatBytes == 1)
1583:Lib/AI_Runtime/Npu/ll_aton/ll_aton.c ****     {
1584:Lib/AI_Runtime/Npu/ll_aton/ll_aton.c ****       LL_Decun_CB_1byte(id, conf, t);
1585:Lib/AI_Runtime/Npu/ll_aton/ll_aton.c ****     }
1586:Lib/AI_Runtime/Npu/ll_aton/ll_aton.c ****     else
1587:Lib/AI_Runtime/Npu/ll_aton/ll_aton.c ****     {
1588:Lib/AI_Runtime/Npu/ll_aton/ll_aton.c ****       // LL_ATON_ASSERT(conf->nFormatBytes == 2);
1589:Lib/AI_Runtime/Npu/ll_aton/ll_aton.c ****       LL_Decun_CB_2byte(id, conf, t);
1590:Lib/AI_Runtime/Npu/ll_aton/ll_aton.c ****     }
1591:Lib/AI_Runtime/Npu/ll_aton/ll_aton.c ****   }
1592:Lib/AI_Runtime/Npu/ll_aton/ll_aton.c **** 
1593:Lib/AI_Runtime/Npu/ll_aton/ll_aton.c ****   t = ATON_DECUN_BFORMAT_DT;
1594:Lib/AI_Runtime/Npu/ll_aton/ll_aton.c ****   t = ATON_DECUN_BFORMAT_SET_CVS(t, conf->nCVperCB - 1);
1595:Lib/AI_Runtime/Npu/ll_aton/ll_aton.c ****   t = ATON_DECUN_BFORMAT_SET_CWS(t, conf->nCWperCV - 1);
1596:Lib/AI_Runtime/Npu/ll_aton/ll_aton.c ****   t = ATON_DECUN_BFORMAT_SET_OSAM(t, conf->nRCWlastCV);
1597:Lib/AI_Runtime/Npu/ll_aton/ll_aton.c ****   ATON_DECUN_BFORMAT_SET(id, t);
1598:Lib/AI_Runtime/Npu/ll_aton/ll_aton.c **** 
1599:Lib/AI_Runtime/Npu/ll_aton/ll_aton.c ****   LL_ATON_ASSERT((conf->nFormatBytes == 1) || (conf->nFormatBytes == 2));
1600:Lib/AI_Runtime/Npu/ll_aton/ll_aton.c **** 
1601:Lib/AI_Runtime/Npu/ll_aton/ll_aton.c ****   t = ATON_DECUN_DFORMAT_DT;
1602:Lib/AI_Runtime/Npu/ll_aton/ll_aton.c ****   t = ATON_DECUN_DFORMAT_SET_CV8(t, conf->nFormatBytes & 0x1);
1603:Lib/AI_Runtime/Npu/ll_aton/ll_aton.c ****   ATON_DECUN_DFORMAT_SET(id, t);
1604:Lib/AI_Runtime/Npu/ll_aton/ll_aton.c **** 
1605:Lib/AI_Runtime/Npu/ll_aton/ll_aton.c ****   t = ATON_DECUN_FFORMAT_DT;
1606:Lib/AI_Runtime/Npu/ll_aton/ll_aton.c ****   t = ATON_DECUN_FFORMAT_SET_BN(t, conf->nBatches);
1607:Lib/AI_Runtime/Npu/ll_aton/ll_aton.c ****   ATON_DECUN_FFORMAT_SET(id, t);
1608:Lib/AI_Runtime/Npu/ll_aton/ll_aton.c **** 
1609:Lib/AI_Runtime/Npu/ll_aton/ll_aton.c ****   return LL_ATON_OK;
1610:Lib/AI_Runtime/Npu/ll_aton/ll_aton.c **** }
1611:Lib/AI_Runtime/Npu/ll_aton/ll_aton.c **** #endif // ATON_DECUN_NUM
1612:Lib/AI_Runtime/Npu/ll_aton/ll_aton.c **** 
1613:Lib/AI_Runtime/Npu/ll_aton/ll_aton.c **** #ifdef ATON_CONVACC_NUM
ARM GAS  C:\Users\DJESSOU\AppData\Local\Temp\ccFxekaC.s 			page 91


1614:Lib/AI_Runtime/Npu/ll_aton/ll_aton.c **** /**
1615:Lib/AI_Runtime/Npu/ll_aton/ll_aton.c ****  * @brief  Configures Convolution Accelerator
1616:Lib/AI_Runtime/Npu/ll_aton/ll_aton.c ****  * @param  id Convolutional Accelerator identifier [0, ATON_CONVACC_NUM-1]
1617:Lib/AI_Runtime/Npu/ll_aton/ll_aton.c ****  * @param  Convacc_InitStruct Structure describing initialization parameters
1618:Lib/AI_Runtime/Npu/ll_aton/ll_aton.c ****  * @retval Error code E.g.: Invalid ID, invalid parameters, not idle,..
1619:Lib/AI_Runtime/Npu/ll_aton/ll_aton.c ****  */
1620:Lib/AI_Runtime/Npu/ll_aton/ll_aton.c **** int LL_Convacc_Init(int id, const LL_Convacc_InitTypeDef *conf)
1621:Lib/AI_Runtime/Npu/ll_aton/ll_aton.c **** {
1622:Lib/AI_Runtime/Npu/ll_aton/ll_aton.c ****   uint32_t t;
1623:Lib/AI_Runtime/Npu/ll_aton/ll_aton.c **** 
1624:Lib/AI_Runtime/Npu/ll_aton/ll_aton.c ****   if (id >= ATON_CONVACC_NUM)
1625:Lib/AI_Runtime/Npu/ll_aton/ll_aton.c ****     return LL_ATON_INVALID_ID;
1626:Lib/AI_Runtime/Npu/ll_aton/ll_aton.c **** 
1627:Lib/AI_Runtime/Npu/ll_aton/ll_aton.c ****   LL_ATON_EnableClock(ATON_CONVACC_CLKB_CLK(id));
1628:Lib/AI_Runtime/Npu/ll_aton/ll_aton.c **** 
1629:Lib/AI_Runtime/Npu/ll_aton/ll_aton.c ****   t = ATON_CONVACC_CTRL_DT;
1630:Lib/AI_Runtime/Npu/ll_aton/ll_aton.c ****   t = ATON_CONVACC_CTRL_SET_NOSUM(t, (conf->accumulate == 0));
1631:Lib/AI_Runtime/Npu/ll_aton/ll_aton.c ****   t = ATON_CONVACC_CTRL_SET_NO1SUM(t, (conf->accumulate_first == 0));
1632:Lib/AI_Runtime/Npu/ll_aton/ll_aton.c ****   t = ATON_CONVACC_CTRL_SET_GEN1SUM(t, (conf->accumulate_gen_first != 0));
1633:Lib/AI_Runtime/Npu/ll_aton/ll_aton.c ****   t = ATON_CONVACC_CTRL_SET_AFILTMODE(t, conf->afilt_mode);
1634:Lib/AI_Runtime/Npu/ll_aton/ll_aton.c ****   t = ATON_CONVACC_CTRL_SET_SIMD(t, (conf->simd));
1635:Lib/AI_Runtime/Npu/ll_aton/ll_aton.c ****   t = ATON_CONVACC_CTRL_SET_KT1(t, (conf->kt1_mode != 0));
1636:Lib/AI_Runtime/Npu/ll_aton/ll_aton.c ****   t = ATON_CONVACC_CTRL_SET_KSETEN(t, conf->kseten);
1637:Lib/AI_Runtime/Npu/ll_aton/ll_aton.c ****   t = ATON_CONVACC_CTRL_SET_FUNSIGNED(t, conf->f_unsigned);
1638:Lib/AI_Runtime/Npu/ll_aton/ll_aton.c ****   t = ATON_CONVACC_CTRL_SET_KUNSIGNED(t, conf->k_unsigned);
1639:Lib/AI_Runtime/Npu/ll_aton/ll_aton.c **** #if defined(ATON_CONVACC_CTRL_SET_FSTAT)
1640:Lib/AI_Runtime/Npu/ll_aton/ll_aton.c ****   t = ATON_CONVACC_CTRL_SET_FSTAT(t, (conf->fstat != 0));
1641:Lib/AI_Runtime/Npu/ll_aton/ll_aton.c **** #endif
1642:Lib/AI_Runtime/Npu/ll_aton/ll_aton.c **** 
1643:Lib/AI_Runtime/Npu/ll_aton/ll_aton.c **** #if defined(ATON_CONVACC_CTRL_GET_DEEPMODE)
1644:Lib/AI_Runtime/Npu/ll_aton/ll_aton.c ****   t = ATON_CONVACC_CTRL_SET_DEEPMODE(t, (conf->deepmode != 0));
1645:Lib/AI_Runtime/Npu/ll_aton/ll_aton.c **** #if defined(ATON_CONVACC_CTRL_SET_FSTAT)
1646:Lib/AI_Runtime/Npu/ll_aton/ll_aton.c ****   // deepmode and feature stats are incompatible
1647:Lib/AI_Runtime/Npu/ll_aton/ll_aton.c ****   if ((conf->fstat != 0) && (conf->deepmode != 0))
1648:Lib/AI_Runtime/Npu/ll_aton/ll_aton.c ****   {
1649:Lib/AI_Runtime/Npu/ll_aton/ll_aton.c ****     return LL_ATON_INVALID_PARAM;
1650:Lib/AI_Runtime/Npu/ll_aton/ll_aton.c ****   }
1651:Lib/AI_Runtime/Npu/ll_aton/ll_aton.c **** #endif
1652:Lib/AI_Runtime/Npu/ll_aton/ll_aton.c **** #endif
1653:Lib/AI_Runtime/Npu/ll_aton/ll_aton.c **** 
1654:Lib/AI_Runtime/Npu/ll_aton/ll_aton.c **** #if defined(ATON_CONVACC_CTRL_GET_DSS2MODE)
1655:Lib/AI_Runtime/Npu/ll_aton/ll_aton.c ****   t = ATON_CONVACC_CTRL_SET_DSS2MODE(t, (conf->dss2mode != 0));
1656:Lib/AI_Runtime/Npu/ll_aton/ll_aton.c **** #if defined(ATON_CONVACC_CTRL_SET_FSTAT)
1657:Lib/AI_Runtime/Npu/ll_aton/ll_aton.c ****   // deepmode and feature stats are incompatible
1658:Lib/AI_Runtime/Npu/ll_aton/ll_aton.c ****   if ((conf->fstat != 0) && (conf->dss2mode != 0))
1659:Lib/AI_Runtime/Npu/ll_aton/ll_aton.c ****   {
1660:Lib/AI_Runtime/Npu/ll_aton/ll_aton.c ****     return LL_ATON_INVALID_PARAM;
1661:Lib/AI_Runtime/Npu/ll_aton/ll_aton.c ****   }
1662:Lib/AI_Runtime/Npu/ll_aton/ll_aton.c **** #endif
1663:Lib/AI_Runtime/Npu/ll_aton/ll_aton.c **** #endif
1664:Lib/AI_Runtime/Npu/ll_aton/ll_aton.c **** 
1665:Lib/AI_Runtime/Npu/ll_aton/ll_aton.c **** #if defined(ATON_CONVACC_CTRL_SET_DSS2MODE) && defined(ATON_CONVACC_CTRL_SET_DEEPMODE)
1666:Lib/AI_Runtime/Npu/ll_aton/ll_aton.c ****   // deepmode and dss2mode stats are incompatible
1667:Lib/AI_Runtime/Npu/ll_aton/ll_aton.c ****   if ((conf->dss2mode != 0) && (conf->deepmode != 0))
1668:Lib/AI_Runtime/Npu/ll_aton/ll_aton.c ****   {
1669:Lib/AI_Runtime/Npu/ll_aton/ll_aton.c ****     return LL_ATON_INVALID_PARAM;
1670:Lib/AI_Runtime/Npu/ll_aton/ll_aton.c ****   }
ARM GAS  C:\Users\DJESSOU\AppData\Local\Temp\ccFxekaC.s 			page 92


1671:Lib/AI_Runtime/Npu/ll_aton/ll_aton.c **** #endif
1672:Lib/AI_Runtime/Npu/ll_aton/ll_aton.c **** 
1673:Lib/AI_Runtime/Npu/ll_aton/ll_aton.c ****   ATON_CONVACC_CTRL_SET(id, t);
1674:Lib/AI_Runtime/Npu/ll_aton/ll_aton.c ****   Conv_ctrl_bits[id] = t;
1675:Lib/AI_Runtime/Npu/ll_aton/ll_aton.c **** 
1676:Lib/AI_Runtime/Npu/ll_aton/ll_aton.c ****   if (conf->afilt_mode != AFILT_MODE_NONE)
1677:Lib/AI_Runtime/Npu/ll_aton/ll_aton.c ****   {
1678:Lib/AI_Runtime/Npu/ll_aton/ll_aton.c ****     t = ATON_CONVACC_AFILT_DT;
1679:Lib/AI_Runtime/Npu/ll_aton/ll_aton.c ****     t = ATON_CONVACC_AFILT_SET_TOT(t, conf->afilt_tot);
1680:Lib/AI_Runtime/Npu/ll_aton/ll_aton.c ****     t = ATON_CONVACC_AFILT_SET_FIRST(t, conf->afilt_first);
1681:Lib/AI_Runtime/Npu/ll_aton/ll_aton.c ****     t = ATON_CONVACC_AFILT_SET_LAST(t, conf->afilt_last);
1682:Lib/AI_Runtime/Npu/ll_aton/ll_aton.c ****     ATON_CONVACC_AFILT_SET(id, t);
1683:Lib/AI_Runtime/Npu/ll_aton/ll_aton.c ****   }
1684:Lib/AI_Runtime/Npu/ll_aton/ll_aton.c **** 
1685:Lib/AI_Runtime/Npu/ll_aton/ll_aton.c ****   if (conf->kfilt_tot > 0)
1686:Lib/AI_Runtime/Npu/ll_aton/ll_aton.c ****   {
1687:Lib/AI_Runtime/Npu/ll_aton/ll_aton.c ****     t = ATON_CONVACC_KFILT_DT;
1688:Lib/AI_Runtime/Npu/ll_aton/ll_aton.c ****     t = ATON_CONVACC_KFILT_SET_TOT(t, conf->kfilt_tot);
1689:Lib/AI_Runtime/Npu/ll_aton/ll_aton.c ****     t = ATON_CONVACC_KFILT_SET_FIRST(t, conf->kfilt_first);
1690:Lib/AI_Runtime/Npu/ll_aton/ll_aton.c ****     t = ATON_CONVACC_KFILT_SET_LAST(t, conf->kfilt_last);
1691:Lib/AI_Runtime/Npu/ll_aton/ll_aton.c ****     ATON_CONVACC_KFILT_SET(id, t);
1692:Lib/AI_Runtime/Npu/ll_aton/ll_aton.c ****   }
1693:Lib/AI_Runtime/Npu/ll_aton/ll_aton.c ****   else
1694:Lib/AI_Runtime/Npu/ll_aton/ll_aton.c ****   {
1695:Lib/AI_Runtime/Npu/ll_aton/ll_aton.c ****     ATON_CONVACC_KFILT_SET(id, ATON_CONVACC_KFILT_DT);
1696:Lib/AI_Runtime/Npu/ll_aton/ll_aton.c ****   }
1697:Lib/AI_Runtime/Npu/ll_aton/ll_aton.c **** 
1698:Lib/AI_Runtime/Npu/ll_aton/ll_aton.c ****   t = ATON_CONVACC_DFORMAT_DT;
1699:Lib/AI_Runtime/Npu/ll_aton/ll_aton.c ****   t = ATON_CONVACC_DFORMAT_SET_FROUND(t, conf->rounding_f);
1700:Lib/AI_Runtime/Npu/ll_aton/ll_aton.c ****   t = ATON_CONVACC_DFORMAT_SET_FSAT(t, conf->saturation_f);
1701:Lib/AI_Runtime/Npu/ll_aton/ll_aton.c ****   t = ATON_CONVACC_DFORMAT_SET_FRNDMODE(t, conf->round_mode_f);
1702:Lib/AI_Runtime/Npu/ll_aton/ll_aton.c ****   t = ATON_CONVACC_DFORMAT_SET_FBYTES(t, conf->inbytes_f);
1703:Lib/AI_Runtime/Npu/ll_aton/ll_aton.c ****   t = ATON_CONVACC_DFORMAT_SET_FSHIFT(t, ATON_SHIFT(conf->shift_f));
1704:Lib/AI_Runtime/Npu/ll_aton/ll_aton.c **** 
1705:Lib/AI_Runtime/Npu/ll_aton/ll_aton.c ****   t = ATON_CONVACC_DFORMAT_SET_ROUND(t, conf->rounding_o);
1706:Lib/AI_Runtime/Npu/ll_aton/ll_aton.c ****   t = ATON_CONVACC_DFORMAT_SET_SAT(t, conf->saturation_o);
1707:Lib/AI_Runtime/Npu/ll_aton/ll_aton.c ****   t = ATON_CONVACC_DFORMAT_SET_ORNDMODE(t, (conf->relu_mode_o << 1) | conf->round_mode_o);
1708:Lib/AI_Runtime/Npu/ll_aton/ll_aton.c ****   t = ATON_CONVACC_DFORMAT_SET_OBYTES(t, conf->outbytes_o);
1709:Lib/AI_Runtime/Npu/ll_aton/ll_aton.c ****   t = ATON_CONVACC_DFORMAT_SET_OUTSHIFT(t, conf->shift_o); // shift right only
1710:Lib/AI_Runtime/Npu/ll_aton/ll_aton.c ****   t = ATON_CONVACC_DFORMAT_SET_RAW(t, conf->raw_o);
1711:Lib/AI_Runtime/Npu/ll_aton/ll_aton.c **** 
1712:Lib/AI_Runtime/Npu/ll_aton/ll_aton.c ****   t = ATON_CONVACC_DFORMAT_SET_INSHIFT(t, conf->shift_a); // accumulator shift left really (macro n
1713:Lib/AI_Runtime/Npu/ll_aton/ll_aton.c ****   ATON_CONVACC_DFORMAT_SET(id, t);
1714:Lib/AI_Runtime/Npu/ll_aton/ll_aton.c **** 
1715:Lib/AI_Runtime/Npu/ll_aton/ll_aton.c ****   t = ATON_CONVACC_FFORMAT_DT;
1716:Lib/AI_Runtime/Npu/ll_aton/ll_aton.c ****   t = ATON_CONVACC_FFORMAT_SET_WIDTH(t, conf->fWidth * conf->batchDepth);
1717:Lib/AI_Runtime/Npu/ll_aton/ll_aton.c ****   t = ATON_CONVACC_FFORMAT_SET_HEIGHT(t, conf->fHeight);
1718:Lib/AI_Runtime/Npu/ll_aton/ll_aton.c ****   ATON_CONVACC_FFORMAT_SET(id, t);
1719:Lib/AI_Runtime/Npu/ll_aton/ll_aton.c **** 
1720:Lib/AI_Runtime/Npu/ll_aton/ll_aton.c ****   t = ATON_CONVACC_KFORMAT_DT;
1721:Lib/AI_Runtime/Npu/ll_aton/ll_aton.c ****   t = ATON_CONVACC_KFORMAT_SET_WIDTH(t, conf->kernelWidth);
1722:Lib/AI_Runtime/Npu/ll_aton/ll_aton.c ****   t = ATON_CONVACC_KFORMAT_SET_HEIGHT(t, conf->kernelHeight);
1723:Lib/AI_Runtime/Npu/ll_aton/ll_aton.c ****   t = ATON_CONVACC_KFORMAT_SET_BTCDEPTH(t, conf->batchDepth);
1724:Lib/AI_Runtime/Npu/ll_aton/ll_aton.c ****   t = ATON_CONVACC_KFORMAT_SET_NR(t, conf->nKernels);
1725:Lib/AI_Runtime/Npu/ll_aton/ll_aton.c ****   ATON_CONVACC_KFORMAT_SET(id, t);
1726:Lib/AI_Runtime/Npu/ll_aton/ll_aton.c **** 
1727:Lib/AI_Runtime/Npu/ll_aton/ll_aton.c ****   // LL_ATON_PRINTF("depth=%d k_w=%d k_h=%d\n",conf->batchDepth,conf->kernelWidth,conf->kernelHeigh
ARM GAS  C:\Users\DJESSOU\AppData\Local\Temp\ccFxekaC.s 			page 93


1728:Lib/AI_Runtime/Npu/ll_aton/ll_aton.c ****   // LL_ATON_PRINTF("pad_t=%d pad_b=%d pad_l=%d
1729:Lib/AI_Runtime/Npu/ll_aton/ll_aton.c ****   // pad_r=%d\n",conf->top_padding,conf->bot_padding,conf->left_padding,conf->right_padding);
1730:Lib/AI_Runtime/Npu/ll_aton/ll_aton.c **** 
1731:Lib/AI_Runtime/Npu/ll_aton/ll_aton.c ****   int p_top = (conf->top_padding < conf->kernelHeight ? conf->top_padding : conf->kernelHeight - 1)
1732:Lib/AI_Runtime/Npu/ll_aton/ll_aton.c ****   int p_bot = (conf->bot_padding < conf->kernelHeight ? conf->bot_padding : conf->kernelHeight - 1)
1733:Lib/AI_Runtime/Npu/ll_aton/ll_aton.c ****   int p_left = (conf->left_padding < conf->kernelWidth ? conf->left_padding : conf->kernelWidth - 1
1734:Lib/AI_Runtime/Npu/ll_aton/ll_aton.c ****   int p_right = (conf->right_padding < conf->kernelWidth ? conf->right_padding : conf->kernelWidth 
1735:Lib/AI_Runtime/Npu/ll_aton/ll_aton.c **** 
1736:Lib/AI_Runtime/Npu/ll_aton/ll_aton.c ****   p_top = (p_top <= 2 ? p_top : 2);
1737:Lib/AI_Runtime/Npu/ll_aton/ll_aton.c ****   p_bot = (p_bot <= 2 ? p_bot : 2);
1738:Lib/AI_Runtime/Npu/ll_aton/ll_aton.c ****   p_left = (p_left <= 2 ? p_left : 2);
1739:Lib/AI_Runtime/Npu/ll_aton/ll_aton.c ****   p_right = (p_right <= 2 ? p_right : 2);
1740:Lib/AI_Runtime/Npu/ll_aton/ll_aton.c ****   // LL_ATON_PRINTF("p_t=%d p_b=%d p_l=%d p_r=%d\n",p_top,p_bot,p_left,p_right);
1741:Lib/AI_Runtime/Npu/ll_aton/ll_aton.c **** 
1742:Lib/AI_Runtime/Npu/ll_aton/ll_aton.c **** #if defined(ATON_CONVACC_CTRL_GET_DEEPMODE)
1743:Lib/AI_Runtime/Npu/ll_aton/ll_aton.c ****   // no pad mode available in 1x1 deepmode
1744:Lib/AI_Runtime/Npu/ll_aton/ll_aton.c ****   // will accommodate padding only with zframe below
1745:Lib/AI_Runtime/Npu/ll_aton/ll_aton.c ****   if (conf->deepmode != 0)
1746:Lib/AI_Runtime/Npu/ll_aton/ll_aton.c ****     p_top = p_bot = p_left = p_right = 0;
1747:Lib/AI_Runtime/Npu/ll_aton/ll_aton.c **** #endif
1748:Lib/AI_Runtime/Npu/ll_aton/ll_aton.c **** #if defined(ATON_CONVACC_CTRL_GET_DSS2MODE)
1749:Lib/AI_Runtime/Npu/ll_aton/ll_aton.c ****   // no pad mode available in dss2mode
1750:Lib/AI_Runtime/Npu/ll_aton/ll_aton.c ****   // will accommodate padding only with zframe below
1751:Lib/AI_Runtime/Npu/ll_aton/ll_aton.c ****   if (conf->dss2mode != 0)
1752:Lib/AI_Runtime/Npu/ll_aton/ll_aton.c ****     p_top = p_bot = p_left = p_right = 0;
1753:Lib/AI_Runtime/Npu/ll_aton/ll_aton.c **** #endif
1754:Lib/AI_Runtime/Npu/ll_aton/ll_aton.c **** #if defined(ATON_CONVACC_ZFBIAS_SET)
1755:Lib/AI_Runtime/Npu/ll_aton/ll_aton.c ****   // no pad mode available if zfbias is set
1756:Lib/AI_Runtime/Npu/ll_aton/ll_aton.c ****   // will accommodate padding only with zframe below
1757:Lib/AI_Runtime/Npu/ll_aton/ll_aton.c ****   if (conf->zfbias != 0)
1758:Lib/AI_Runtime/Npu/ll_aton/ll_aton.c ****     p_top = p_bot = p_left = p_right = 0;
1759:Lib/AI_Runtime/Npu/ll_aton/ll_aton.c **** #endif
1760:Lib/AI_Runtime/Npu/ll_aton/ll_aton.c **** 
1761:Lib/AI_Runtime/Npu/ll_aton/ll_aton.c ****   int z_top = (conf->top_padding - p_top);
1762:Lib/AI_Runtime/Npu/ll_aton/ll_aton.c ****   int z_bot = (conf->bot_padding - p_bot);
1763:Lib/AI_Runtime/Npu/ll_aton/ll_aton.c ****   int z_left = (conf->left_padding - p_left);
1764:Lib/AI_Runtime/Npu/ll_aton/ll_aton.c ****   int z_right = (conf->right_padding - p_right);
1765:Lib/AI_Runtime/Npu/ll_aton/ll_aton.c ****   // LL_ATON_PRINTF("z_t=%d z_b=%d z_l=%d z_r=%d\n",z_top,z_bot,z_left*conf->batchDepth,z_right*con
1766:Lib/AI_Runtime/Npu/ll_aton/ll_aton.c **** 
1767:Lib/AI_Runtime/Npu/ll_aton/ll_aton.c ****   t = ATON_CONVACC_ZFRAME_DT;
1768:Lib/AI_Runtime/Npu/ll_aton/ll_aton.c ****   t = ATON_CONVACC_ZFRAME_SET_TOP(t, z_top);
1769:Lib/AI_Runtime/Npu/ll_aton/ll_aton.c ****   t = ATON_CONVACC_ZFRAME_SET_BOTTOM(t, z_bot);
1770:Lib/AI_Runtime/Npu/ll_aton/ll_aton.c ****   t = ATON_CONVACC_ZFRAME_SET_LEFT(t, z_left * conf->batchDepth);
1771:Lib/AI_Runtime/Npu/ll_aton/ll_aton.c ****   t = ATON_CONVACC_ZFRAME_SET_RIGHT(t, z_right * conf->batchDepth);
1772:Lib/AI_Runtime/Npu/ll_aton/ll_aton.c ****   ATON_CONVACC_ZFRAME_SET(id, t);
1773:Lib/AI_Runtime/Npu/ll_aton/ll_aton.c **** 
1774:Lib/AI_Runtime/Npu/ll_aton/ll_aton.c ****   t = ATON_CONVACC_SAMPLE_DT;
1775:Lib/AI_Runtime/Npu/ll_aton/ll_aton.c ****   t = ATON_CONVACC_SAMPLE_SET_TPAD(t, p_top);
1776:Lib/AI_Runtime/Npu/ll_aton/ll_aton.c ****   t = ATON_CONVACC_SAMPLE_SET_BPAD(t, p_bot);
1777:Lib/AI_Runtime/Npu/ll_aton/ll_aton.c ****   t = ATON_CONVACC_SAMPLE_SET_LPAD(t, p_left);
1778:Lib/AI_Runtime/Npu/ll_aton/ll_aton.c ****   t = ATON_CONVACC_SAMPLE_SET_RPAD(t, p_right);
1779:Lib/AI_Runtime/Npu/ll_aton/ll_aton.c ****   t = ATON_CONVACC_SAMPLE_SET_HSTRD(t, conf->hstride);
1780:Lib/AI_Runtime/Npu/ll_aton/ll_aton.c ****   t = ATON_CONVACC_SAMPLE_SET_VSTRD(t, conf->vstride);
1781:Lib/AI_Runtime/Npu/ll_aton/ll_aton.c **** #if defined(ATON_CONVACC_SAMPLE_SET_FSTATCNT)
1782:Lib/AI_Runtime/Npu/ll_aton/ll_aton.c ****   if (conf->fstat != 0)
1783:Lib/AI_Runtime/Npu/ll_aton/ll_aton.c ****     t = ATON_CONVACC_SAMPLE_SET_FSTATCNT(t, conf->fstatcnt);
1784:Lib/AI_Runtime/Npu/ll_aton/ll_aton.c **** #endif
ARM GAS  C:\Users\DJESSOU\AppData\Local\Temp\ccFxekaC.s 			page 94


1785:Lib/AI_Runtime/Npu/ll_aton/ll_aton.c ****   ATON_CONVACC_SAMPLE_SET(id, t);
1786:Lib/AI_Runtime/Npu/ll_aton/ll_aton.c **** 
1787:Lib/AI_Runtime/Npu/ll_aton/ll_aton.c ****   // LL_ATON_PRINTF("crop_t=%d crop_b=%d crop_l=%d crop_r=%d\n",z_top,z_bot,z_left,z_right);
1788:Lib/AI_Runtime/Npu/ll_aton/ll_aton.c ****   t = ATON_CONVACC_FHCROP_DT;
1789:Lib/AI_Runtime/Npu/ll_aton/ll_aton.c ****   if (conf->left_crop > 0)
1790:Lib/AI_Runtime/Npu/ll_aton/ll_aton.c ****     t = ATON_CONVACC_FHCROP_SET_LEFT(t, conf->left_crop * conf->batchDepth);
1791:Lib/AI_Runtime/Npu/ll_aton/ll_aton.c ****   if (conf->right_crop > 0)
1792:Lib/AI_Runtime/Npu/ll_aton/ll_aton.c ****     t = ATON_CONVACC_FHCROP_SET_RIGHT(t, conf->right_crop * conf->batchDepth + (conf->batchDepth - 
1793:Lib/AI_Runtime/Npu/ll_aton/ll_aton.c ****   ATON_CONVACC_FHCROP_SET(id, t);
1794:Lib/AI_Runtime/Npu/ll_aton/ll_aton.c **** 
1795:Lib/AI_Runtime/Npu/ll_aton/ll_aton.c ****   t = ATON_CONVACC_FVCROP_DT;
1796:Lib/AI_Runtime/Npu/ll_aton/ll_aton.c ****   if (conf->top_crop > 0)
1797:Lib/AI_Runtime/Npu/ll_aton/ll_aton.c ****     t = ATON_CONVACC_FVCROP_SET_TOP(t, conf->top_crop);
1798:Lib/AI_Runtime/Npu/ll_aton/ll_aton.c ****   if (conf->bot_crop > 0)
1799:Lib/AI_Runtime/Npu/ll_aton/ll_aton.c ****     t = ATON_CONVACC_FVCROP_SET_BOTTOM(t, conf->bot_crop);
1800:Lib/AI_Runtime/Npu/ll_aton/ll_aton.c ****   ATON_CONVACC_FVCROP_SET(id, t);
1801:Lib/AI_Runtime/Npu/ll_aton/ll_aton.c ****   // LL_ATON_PRINTF("c_t=%d c_b=%d c_l=%d c_r=%d\n",conf->top_crop,conf->bot_crop,conf->left_crop  
1802:Lib/AI_Runtime/Npu/ll_aton/ll_aton.c ****   // conf->batchDepth,conf->right_crop  * conf->batchDepth + (conf->batchDepth - 1));
1803:Lib/AI_Runtime/Npu/ll_aton/ll_aton.c **** 
1804:Lib/AI_Runtime/Npu/ll_aton/ll_aton.c **** #if defined(ATON_CONVACC_FSUB_SET_FSUB)
1805:Lib/AI_Runtime/Npu/ll_aton/ll_aton.c ****   if (conf->fsub != 0)
1806:Lib/AI_Runtime/Npu/ll_aton/ll_aton.c ****   {
1807:Lib/AI_Runtime/Npu/ll_aton/ll_aton.c ****     t = ATON_CONVACC_FSUB_DT;
1808:Lib/AI_Runtime/Npu/ll_aton/ll_aton.c ****     t = ATON_CONVACC_FSUB_SET_FSUB(t, conf->fsub);
1809:Lib/AI_Runtime/Npu/ll_aton/ll_aton.c ****     ATON_CONVACC_FSUB_SET(id, t);
1810:Lib/AI_Runtime/Npu/ll_aton/ll_aton.c ****   }
1811:Lib/AI_Runtime/Npu/ll_aton/ll_aton.c **** #endif
1812:Lib/AI_Runtime/Npu/ll_aton/ll_aton.c **** #if defined(ATON_CONVACC_FSUB_SET_VSHIFT)
1813:Lib/AI_Runtime/Npu/ll_aton/ll_aton.c ****   if (conf->vshift != 0)
1814:Lib/AI_Runtime/Npu/ll_aton/ll_aton.c ****   {
1815:Lib/AI_Runtime/Npu/ll_aton/ll_aton.c ****     t = ATON_CONVACC_FSUB_GET(id);
1816:Lib/AI_Runtime/Npu/ll_aton/ll_aton.c ****     t = ATON_CONVACC_FSUB_SET_VSHIFT(t, conf->vshift);
1817:Lib/AI_Runtime/Npu/ll_aton/ll_aton.c ****     // LL_ATON_PRINTF("SETTING VSHIFT %d\n", conf->vshift);
1818:Lib/AI_Runtime/Npu/ll_aton/ll_aton.c ****     ATON_CONVACC_FSUB_SET(id, t);
1819:Lib/AI_Runtime/Npu/ll_aton/ll_aton.c ****     // LL_ATON_PRINTF("SETTING VSHIFT %d\n", t);
1820:Lib/AI_Runtime/Npu/ll_aton/ll_aton.c ****     // LL_ATON_PRINTF("FSUB VALUE : %d", ATON_CONVACC_FSUB_GET(id));
1821:Lib/AI_Runtime/Npu/ll_aton/ll_aton.c ****   }
1822:Lib/AI_Runtime/Npu/ll_aton/ll_aton.c **** #endif
1823:Lib/AI_Runtime/Npu/ll_aton/ll_aton.c **** #if defined(ATON_CONVACC_ZFBIAS_SET)
1824:Lib/AI_Runtime/Npu/ll_aton/ll_aton.c ****   t = ATON_CONVACC_ZFBIAS_DT;
1825:Lib/AI_Runtime/Npu/ll_aton/ll_aton.c ****   if (conf->zfbias != 0)
1826:Lib/AI_Runtime/Npu/ll_aton/ll_aton.c ****   {
1827:Lib/AI_Runtime/Npu/ll_aton/ll_aton.c ****     t = ATON_CONVACC_ZFBIAS_SET_ZFBIAS(t, conf->zfbias);
1828:Lib/AI_Runtime/Npu/ll_aton/ll_aton.c ****   }
1829:Lib/AI_Runtime/Npu/ll_aton/ll_aton.c **** 
1830:Lib/AI_Runtime/Npu/ll_aton/ll_aton.c ****   /* If hardware supports it (e.g.: 4CA2P), manage Batch Depths not fitting 8 bits */
1831:Lib/AI_Runtime/Npu/ll_aton/ll_aton.c **** #if defined(ATON_CONVACC_ZFBIAS_SET_ZFLEFTMSB)
1832:Lib/AI_Runtime/Npu/ll_aton/ll_aton.c ****   t = ATON_CONVACC_ZFBIAS_SET_ZFLEFTMSB(t, (z_left * conf->batchDepth) >> ATON_CONVACC_ZFRAME_LEFT_
1833:Lib/AI_Runtime/Npu/ll_aton/ll_aton.c ****   t = ATON_CONVACC_ZFBIAS_SET_ZFRIGHTMSB(t, (z_right * conf->batchDepth) >> ATON_CONVACC_ZFRAME_RIG
1834:Lib/AI_Runtime/Npu/ll_aton/ll_aton.c **** #endif
1835:Lib/AI_Runtime/Npu/ll_aton/ll_aton.c **** 
1836:Lib/AI_Runtime/Npu/ll_aton/ll_aton.c ****   ATON_CONVACC_ZFBIAS_SET(id, t);
1837:Lib/AI_Runtime/Npu/ll_aton/ll_aton.c **** #endif
1838:Lib/AI_Runtime/Npu/ll_aton/ll_aton.c **** 
1839:Lib/AI_Runtime/Npu/ll_aton/ll_aton.c ****   return 0;
1840:Lib/AI_Runtime/Npu/ll_aton/ll_aton.c **** }
1841:Lib/AI_Runtime/Npu/ll_aton/ll_aton.c **** #endif // ATON_CONVACC_NUM
ARM GAS  C:\Users\DJESSOU\AppData\Local\Temp\ccFxekaC.s 			page 95


1842:Lib/AI_Runtime/Npu/ll_aton/ll_aton.c **** 
1843:Lib/AI_Runtime/Npu/ll_aton/ll_aton.c **** #ifdef ATON_ACTIV_NUM
1844:Lib/AI_Runtime/Npu/ll_aton/ll_aton.c **** 
1845:Lib/AI_Runtime/Npu/ll_aton/ll_aton.c **** static int32_t get_Activacc_type(LL_Activacc_Op op)
1846:Lib/AI_Runtime/Npu/ll_aton/ll_aton.c **** {
1847:Lib/AI_Runtime/Npu/ll_aton/ll_aton.c ****   switch (op)
1848:Lib/AI_Runtime/Npu/ll_aton/ll_aton.c ****   {
1849:Lib/AI_Runtime/Npu/ll_aton/ll_aton.c ****   case ACTIV_RELU:
1850:Lib/AI_Runtime/Npu/ll_aton/ll_aton.c ****     return ATON_ACTIVTYPE_RELU;
1851:Lib/AI_Runtime/Npu/ll_aton/ll_aton.c ****   case ACTIV_PRELU:
1852:Lib/AI_Runtime/Npu/ll_aton/ll_aton.c ****     return ATON_ACTIVTYPE_PRELU;
1853:Lib/AI_Runtime/Npu/ll_aton/ll_aton.c ****   case ACTIV_TRELU:
1854:Lib/AI_Runtime/Npu/ll_aton/ll_aton.c ****     return ATON_ACTIVTYPE_TRELU;
1855:Lib/AI_Runtime/Npu/ll_aton/ll_aton.c ****   case ACTIV_FUNC:
1856:Lib/AI_Runtime/Npu/ll_aton/ll_aton.c ****     return ATON_ACTIVTYPE_FUNCTION;
1857:Lib/AI_Runtime/Npu/ll_aton/ll_aton.c **** #if defined ATON_ACTIVTYPE_LUT
1858:Lib/AI_Runtime/Npu/ll_aton/ll_aton.c ****   case ACTIV_LUT:
1859:Lib/AI_Runtime/Npu/ll_aton/ll_aton.c ****     return ATON_ACTIVTYPE_LUT;
1860:Lib/AI_Runtime/Npu/ll_aton/ll_aton.c **** #endif
1861:Lib/AI_Runtime/Npu/ll_aton/ll_aton.c ****   default:
1862:Lib/AI_Runtime/Npu/ll_aton/ll_aton.c ****     break;
1863:Lib/AI_Runtime/Npu/ll_aton/ll_aton.c ****   }
1864:Lib/AI_Runtime/Npu/ll_aton/ll_aton.c ****   LL_ATON_ASSERT(0);
1865:Lib/AI_Runtime/Npu/ll_aton/ll_aton.c ****   return 0;
1866:Lib/AI_Runtime/Npu/ll_aton/ll_aton.c **** }
1867:Lib/AI_Runtime/Npu/ll_aton/ll_aton.c **** 
1868:Lib/AI_Runtime/Npu/ll_aton/ll_aton.c **** /**
1869:Lib/AI_Runtime/Npu/ll_aton/ll_aton.c ****  * @brief  Configures Activation Accelerator
1870:Lib/AI_Runtime/Npu/ll_aton/ll_aton.c ****  * @param  id Activation Accelerator identifier [0..ATON_ACTIV_NUM-1]
1871:Lib/AI_Runtime/Npu/ll_aton/ll_aton.c ****  * @param  Activacc_InitStruct Structure describing initialization parameters
1872:Lib/AI_Runtime/Npu/ll_aton/ll_aton.c ****  * @retval Error code E.g.: Invalid ID, invalid parameters, not idle,..
1873:Lib/AI_Runtime/Npu/ll_aton/ll_aton.c ****  */
1874:Lib/AI_Runtime/Npu/ll_aton/ll_aton.c **** int LL_Activacc_Init(int id, const LL_Activacc_InitTypeDef *conf)
1875:Lib/AI_Runtime/Npu/ll_aton/ll_aton.c **** {
1876:Lib/AI_Runtime/Npu/ll_aton/ll_aton.c ****   uint32_t t;
1877:Lib/AI_Runtime/Npu/ll_aton/ll_aton.c **** 
1878:Lib/AI_Runtime/Npu/ll_aton/ll_aton.c ****   if (id >= ATON_ACTIV_NUM)
1879:Lib/AI_Runtime/Npu/ll_aton/ll_aton.c ****     return LL_ATON_INVALID_ID;
1880:Lib/AI_Runtime/Npu/ll_aton/ll_aton.c **** 
1881:Lib/AI_Runtime/Npu/ll_aton/ll_aton.c ****   LL_ATON_EnableClock(ATON_ACTIV_CLKB_CLK(id));
1882:Lib/AI_Runtime/Npu/ll_aton/ll_aton.c **** 
1883:Lib/AI_Runtime/Npu/ll_aton/ll_aton.c ****   t = ATON_ACTIV_CTRL_DT;
1884:Lib/AI_Runtime/Npu/ll_aton/ll_aton.c ****   t = ATON_ACTIV_CTRL_SET_TYPE(t, get_Activacc_type(conf->operation));
1885:Lib/AI_Runtime/Npu/ll_aton/ll_aton.c ****   t = ATON_ACTIV_CTRL_SET_FBYTES(t, conf->inbytes_f);
1886:Lib/AI_Runtime/Npu/ll_aton/ll_aton.c ****   t = ATON_ACTIV_CTRL_SET_FSHIFT(t, ATON_SHIFT(conf->shift_f));
1887:Lib/AI_Runtime/Npu/ll_aton/ll_aton.c ****   t = ATON_ACTIV_CTRL_SET_FROUND(t, conf->rounding_f);
1888:Lib/AI_Runtime/Npu/ll_aton/ll_aton.c ****   t = ATON_ACTIV_CTRL_SET_FSAT(t, (conf->saturation_f != 0));
1889:Lib/AI_Runtime/Npu/ll_aton/ll_aton.c ****   t = ATON_ACTIV_CTRL_SET_FRNDMODE(t, conf->round_mode_f);
1890:Lib/AI_Runtime/Npu/ll_aton/ll_aton.c ****   t = ATON_ACTIV_CTRL_SET_FOBYTES(t, conf->outbytes_f);
1891:Lib/AI_Runtime/Npu/ll_aton/ll_aton.c **** 
1892:Lib/AI_Runtime/Npu/ll_aton/ll_aton.c ****   t = ATON_ACTIV_CTRL_SET_ROUND(t, (conf->rounding_o != 0));
1893:Lib/AI_Runtime/Npu/ll_aton/ll_aton.c ****   t = ATON_ACTIV_CTRL_SET_SAT(t, (conf->saturation_o != 0));
1894:Lib/AI_Runtime/Npu/ll_aton/ll_aton.c ****   t = ATON_ACTIV_CTRL_SET_OBYTES(t, conf->outbytes_o);
1895:Lib/AI_Runtime/Npu/ll_aton/ll_aton.c ****   t = ATON_ACTIV_CTRL_SET_ORNDMODE(t, (conf->relu_mode_o << 1) | conf->round_mode_o);
1896:Lib/AI_Runtime/Npu/ll_aton/ll_aton.c ****   ATON_ACTIV_CTRL_SET(id, t);
1897:Lib/AI_Runtime/Npu/ll_aton/ll_aton.c **** 
1898:Lib/AI_Runtime/Npu/ll_aton/ll_aton.c **** #if defined(ATON_ACTIV_FSUB_SET)
ARM GAS  C:\Users\DJESSOU\AppData\Local\Temp\ccFxekaC.s 			page 96


1899:Lib/AI_Runtime/Npu/ll_aton/ll_aton.c ****   if (conf->fsub != 0)
1900:Lib/AI_Runtime/Npu/ll_aton/ll_aton.c ****   {
1901:Lib/AI_Runtime/Npu/ll_aton/ll_aton.c ****     t = ATON_ACTIV_FSUB_DT;
1902:Lib/AI_Runtime/Npu/ll_aton/ll_aton.c ****     t = ATON_ACTIV_FSUB_SET_FSUB(t, conf->fsub);
1903:Lib/AI_Runtime/Npu/ll_aton/ll_aton.c ****     ATON_ACTIV_FSUB_SET(id, t);
1904:Lib/AI_Runtime/Npu/ll_aton/ll_aton.c ****   }
1905:Lib/AI_Runtime/Npu/ll_aton/ll_aton.c **** #endif
1906:Lib/AI_Runtime/Npu/ll_aton/ll_aton.c **** 
1907:Lib/AI_Runtime/Npu/ll_aton/ll_aton.c ****   switch (conf->operation)
1908:Lib/AI_Runtime/Npu/ll_aton/ll_aton.c ****   {
1909:Lib/AI_Runtime/Npu/ll_aton/ll_aton.c ****   case ACTIV_RELU:
1910:Lib/AI_Runtime/Npu/ll_aton/ll_aton.c ****   case ACTIV_PRELU:
1911:Lib/AI_Runtime/Npu/ll_aton/ll_aton.c ****   case ACTIV_TRELU:
1912:Lib/AI_Runtime/Npu/ll_aton/ll_aton.c ****     t = ATON_ACTIV_ACTIVPARAM_DT;
1913:Lib/AI_Runtime/Npu/ll_aton/ll_aton.c ****     t = ATON_ACTIV_ACTIVPARAM_SET_PARAM(t, conf->parameter);
1914:Lib/AI_Runtime/Npu/ll_aton/ll_aton.c ****     ATON_ACTIV_ACTIVPARAM_SET(id, t);
1915:Lib/AI_Runtime/Npu/ll_aton/ll_aton.c **** 
1916:Lib/AI_Runtime/Npu/ll_aton/ll_aton.c ****     t = ATON_ACTIV_ACTIVPARAM2_DT;
1917:Lib/AI_Runtime/Npu/ll_aton/ll_aton.c ****     t = ATON_ACTIV_ACTIVPARAM2_SET_PARAM2(t, conf->parameter_2);
1918:Lib/AI_Runtime/Npu/ll_aton/ll_aton.c ****     ATON_ACTIV_ACTIVPARAM2_SET(id, t);
1919:Lib/AI_Runtime/Npu/ll_aton/ll_aton.c **** 
1920:Lib/AI_Runtime/Npu/ll_aton/ll_aton.c ****     t = ATON_ACTIV_FUNC_DT;
1921:Lib/AI_Runtime/Npu/ll_aton/ll_aton.c ****     t = ATON_ACTIV_FUNC_SET_SIGNEDOP(t, (conf->signedop != 0));
1922:Lib/AI_Runtime/Npu/ll_aton/ll_aton.c ****     t = ATON_ACTIV_FUNC_SET_OUTSHIFT(t, conf->shift_o);
1923:Lib/AI_Runtime/Npu/ll_aton/ll_aton.c ****     ATON_ACTIV_FUNC_SET(id, t);
1924:Lib/AI_Runtime/Npu/ll_aton/ll_aton.c ****     break;
1925:Lib/AI_Runtime/Npu/ll_aton/ll_aton.c ****   case ACTIV_FUNC:
1926:Lib/AI_Runtime/Npu/ll_aton/ll_aton.c ****   {
1927:Lib/AI_Runtime/Npu/ll_aton/ll_aton.c ****     t = ATON_ACTIV_FUNC_DT;
1928:Lib/AI_Runtime/Npu/ll_aton/ll_aton.c ****     t = ATON_ACTIV_FUNC_SET_SIGNEDOP(t, (conf->signedop != 0));
1929:Lib/AI_Runtime/Npu/ll_aton/ll_aton.c ****     t = ATON_ACTIV_FUNC_SET_OUTSHIFT(t, conf->shift_o);
1930:Lib/AI_Runtime/Npu/ll_aton/ll_aton.c ****     t = ATON_ACTIV_FUNC_SET_BSHIFT(t, conf->shift_b);
1931:Lib/AI_Runtime/Npu/ll_aton/ll_aton.c ****     t = ATON_ACTIV_FUNC_SET_CSHIFT(t, conf->shift_c);
1932:Lib/AI_Runtime/Npu/ll_aton/ll_aton.c ****     t = ATON_ACTIV_FUNC_SET_BWIDTH(t, conf->bwidth);
1933:Lib/AI_Runtime/Npu/ll_aton/ll_aton.c ****     ATON_ACTIV_FUNC_SET(id, t);
1934:Lib/AI_Runtime/Npu/ll_aton/ll_aton.c **** 
1935:Lib/AI_Runtime/Npu/ll_aton/ll_aton.c ****     t = ATON_ACTIV_ACTIVPARAM_DT;
1936:Lib/AI_Runtime/Npu/ll_aton/ll_aton.c ****     t = ATON_ACTIV_ACTIVPARAM_SET_PARAM(t, conf->parameter);
1937:Lib/AI_Runtime/Npu/ll_aton/ll_aton.c ****     t = ATON_ACTIV_ACTIVPARAM_SET_FUNC(t, conf->shift_norm);
1938:Lib/AI_Runtime/Npu/ll_aton/ll_aton.c ****     ATON_ACTIV_ACTIVPARAM_SET(id, t);
1939:Lib/AI_Runtime/Npu/ll_aton/ll_aton.c **** 
1940:Lib/AI_Runtime/Npu/ll_aton/ll_aton.c ****     {
1941:Lib/AI_Runtime/Npu/ll_aton/ll_aton.c ****       uint8_t *R0p = (uint8_t *)conf->ROM0_vector.p;
1942:Lib/AI_Runtime/Npu/ll_aton/ll_aton.c ****       unsigned ROM0_rows = conf->ROM0_nbytes / (1 * 1);
1943:Lib/AI_Runtime/Npu/ll_aton/ll_aton.c ****       for (int i = 0; i < ROM0_rows; i++)
1944:Lib/AI_Runtime/Npu/ll_aton/ll_aton.c ****       {
1945:Lib/AI_Runtime/Npu/ll_aton/ll_aton.c ****         t = ATON_ACTIV_ROM0_DT;
1946:Lib/AI_Runtime/Npu/ll_aton/ll_aton.c ****         t = ATON_ACTIV_ROM0_SET_ENTRY(t, R0p[i]);
1947:Lib/AI_Runtime/Npu/ll_aton/ll_aton.c ****         ATON_ACTIV_ROM0_SET(id, i, t);
1948:Lib/AI_Runtime/Npu/ll_aton/ll_aton.c ****       }
1949:Lib/AI_Runtime/Npu/ll_aton/ll_aton.c ****     }
1950:Lib/AI_Runtime/Npu/ll_aton/ll_aton.c ****     {
1951:Lib/AI_Runtime/Npu/ll_aton/ll_aton.c ****       uint16_t *R1p = (uint16_t *)conf->ROM1_vector.p;
1952:Lib/AI_Runtime/Npu/ll_aton/ll_aton.c ****       unsigned ROM1_rows = conf->ROM1_nbytes / (3 * 2);
1953:Lib/AI_Runtime/Npu/ll_aton/ll_aton.c ****       for (int i = 0; i < ROM1_rows; i++)
1954:Lib/AI_Runtime/Npu/ll_aton/ll_aton.c ****       {
1955:Lib/AI_Runtime/Npu/ll_aton/ll_aton.c ****         t = ATON_ACTIV_ROM1_AB_DT;
ARM GAS  C:\Users\DJESSOU\AppData\Local\Temp\ccFxekaC.s 			page 97


1956:Lib/AI_Runtime/Npu/ll_aton/ll_aton.c ****         t = ATON_ACTIV_ROM1_AB_SET_A(t, R1p[3 * i + 0]);
1957:Lib/AI_Runtime/Npu/ll_aton/ll_aton.c ****         t = ATON_ACTIV_ROM1_AB_SET_B(t, R1p[3 * i + 1]);
1958:Lib/AI_Runtime/Npu/ll_aton/ll_aton.c ****         ATON_ACTIV_ROM1_AB_SET(id, i, t);
1959:Lib/AI_Runtime/Npu/ll_aton/ll_aton.c ****         t = ATON_ACTIV_ROM1_C_DT;
1960:Lib/AI_Runtime/Npu/ll_aton/ll_aton.c ****         t = ATON_ACTIV_ROM1_C_SET_C(t, R1p[3 * i + 2]);
1961:Lib/AI_Runtime/Npu/ll_aton/ll_aton.c ****         ATON_ACTIV_ROM1_C_SET(id, i, t);
1962:Lib/AI_Runtime/Npu/ll_aton/ll_aton.c ****       }
1963:Lib/AI_Runtime/Npu/ll_aton/ll_aton.c ****     }
1964:Lib/AI_Runtime/Npu/ll_aton/ll_aton.c ****   }
1965:Lib/AI_Runtime/Npu/ll_aton/ll_aton.c ****   break;
1966:Lib/AI_Runtime/Npu/ll_aton/ll_aton.c ****   case ACTIV_LUT:
1967:Lib/AI_Runtime/Npu/ll_aton/ll_aton.c **** #if defined ATON_ACTIVTYPE_LUT
1968:Lib/AI_Runtime/Npu/ll_aton/ll_aton.c ****   {
1969:Lib/AI_Runtime/Npu/ll_aton/ll_aton.c ****     uint8_t *Lutp = (uint8_t *)conf->LUT_vector.p;
1970:Lib/AI_Runtime/Npu/ll_aton/ll_aton.c ****     for (int i = 0; i < 64; i++)
1971:Lib/AI_Runtime/Npu/ll_aton/ll_aton.c ****     {
1972:Lib/AI_Runtime/Npu/ll_aton/ll_aton.c ****       uint32_t val = ATON_ACTIV_LUT_DT;
1973:Lib/AI_Runtime/Npu/ll_aton/ll_aton.c ****       val = ATON_ACTIV_LUT_SET_MOD8_1(val, Lutp[4 * i]);
1974:Lib/AI_Runtime/Npu/ll_aton/ll_aton.c ****       val = ATON_ACTIV_LUT_SET_MOD8_2(val, Lutp[4 * i + 1]);
1975:Lib/AI_Runtime/Npu/ll_aton/ll_aton.c ****       val = ATON_ACTIV_LUT_SET_MOD8_3(val, Lutp[4 * i + 2]);
1976:Lib/AI_Runtime/Npu/ll_aton/ll_aton.c ****       val = ATON_ACTIV_LUT_SET_MOD8_4(val, Lutp[4 * i + 3]);
1977:Lib/AI_Runtime/Npu/ll_aton/ll_aton.c ****       ATON_ACTIV_LUT_SET(id, i, val);
1978:Lib/AI_Runtime/Npu/ll_aton/ll_aton.c ****     }
1979:Lib/AI_Runtime/Npu/ll_aton/ll_aton.c ****   }
1980:Lib/AI_Runtime/Npu/ll_aton/ll_aton.c **** #else
1981:Lib/AI_Runtime/Npu/ll_aton/ll_aton.c ****     LL_ATON_ASSERT("Unsupported Activation LUT configuration");
1982:Lib/AI_Runtime/Npu/ll_aton/ll_aton.c **** #endif
1983:Lib/AI_Runtime/Npu/ll_aton/ll_aton.c ****   break;
1984:Lib/AI_Runtime/Npu/ll_aton/ll_aton.c ****   default:
1985:Lib/AI_Runtime/Npu/ll_aton/ll_aton.c ****     return -1;
1986:Lib/AI_Runtime/Npu/ll_aton/ll_aton.c ****   }
1987:Lib/AI_Runtime/Npu/ll_aton/ll_aton.c **** 
1988:Lib/AI_Runtime/Npu/ll_aton/ll_aton.c ****   return 0;
1989:Lib/AI_Runtime/Npu/ll_aton/ll_aton.c **** }
1990:Lib/AI_Runtime/Npu/ll_aton/ll_aton.c **** #endif // ATON_ACTIV_NUM
1991:Lib/AI_Runtime/Npu/ll_aton/ll_aton.c **** 
1992:Lib/AI_Runtime/Npu/ll_aton/ll_aton.c **** #ifdef ATON_ARITH_NUM
1993:Lib/AI_Runtime/Npu/ll_aton/ll_aton.c **** 
1994:Lib/AI_Runtime/Npu/ll_aton/ll_aton.c **** static int32_t get_Arithacc_type(LL_Arithacc_Op op)
1995:Lib/AI_Runtime/Npu/ll_aton/ll_aton.c **** {
1996:Lib/AI_Runtime/Npu/ll_aton/ll_aton.c ****   switch (op)
1997:Lib/AI_Runtime/Npu/ll_aton/ll_aton.c ****   {
1998:Lib/AI_Runtime/Npu/ll_aton/ll_aton.c ****   case ARITH_AFFINE:
1999:Lib/AI_Runtime/Npu/ll_aton/ll_aton.c ****     return ATON_ARITHOP_AX_BY_C;
2000:Lib/AI_Runtime/Npu/ll_aton/ll_aton.c ****   case ARITH_MIN:
2001:Lib/AI_Runtime/Npu/ll_aton/ll_aton.c ****     return ATON_ARITHOP_MIN_X_Y;
2002:Lib/AI_Runtime/Npu/ll_aton/ll_aton.c ****   case ARITH_MAX:
2003:Lib/AI_Runtime/Npu/ll_aton/ll_aton.c ****     return ATON_ARITHOP_MAX_X_Y;
2004:Lib/AI_Runtime/Npu/ll_aton/ll_aton.c ****   case ARITH_MUL:
2005:Lib/AI_Runtime/Npu/ll_aton/ll_aton.c ****     return ATON_ARITHOP_XY;
2006:Lib/AI_Runtime/Npu/ll_aton/ll_aton.c ****   case ARITH_X_AND_Y:
2007:Lib/AI_Runtime/Npu/ll_aton/ll_aton.c ****     return ATON_ARITHOP_X_AND_Y;
2008:Lib/AI_Runtime/Npu/ll_aton/ll_aton.c ****   case ARITH_X_OR_Y:
2009:Lib/AI_Runtime/Npu/ll_aton/ll_aton.c ****     return ATON_ARITHOP_X_OR_Y;
2010:Lib/AI_Runtime/Npu/ll_aton/ll_aton.c ****   case ARITH_NOT_X:
2011:Lib/AI_Runtime/Npu/ll_aton/ll_aton.c ****     return ATON_ARITHOP_NOT_X;
2012:Lib/AI_Runtime/Npu/ll_aton/ll_aton.c ****   case ARITH_X_XOR_Y:
ARM GAS  C:\Users\DJESSOU\AppData\Local\Temp\ccFxekaC.s 			page 98


2013:Lib/AI_Runtime/Npu/ll_aton/ll_aton.c ****     return ATON_ARITHOP_X_XOR_Y;
2014:Lib/AI_Runtime/Npu/ll_aton/ll_aton.c ****   case ARITH_X_EQ_Y:
2015:Lib/AI_Runtime/Npu/ll_aton/ll_aton.c ****     return ATON_ARITHOP_X_EQ_Y;
2016:Lib/AI_Runtime/Npu/ll_aton/ll_aton.c ****   case ARITH_X_LT_Y:
2017:Lib/AI_Runtime/Npu/ll_aton/ll_aton.c ****     return ATON_ARITHOP_X_LT_Y;
2018:Lib/AI_Runtime/Npu/ll_aton/ll_aton.c ****   case ARITH_X_LE_Y:
2019:Lib/AI_Runtime/Npu/ll_aton/ll_aton.c ****     return ATON_ARITHOP_X_LE_Y;
2020:Lib/AI_Runtime/Npu/ll_aton/ll_aton.c ****   case ARITH_X_GT_Y:
2021:Lib/AI_Runtime/Npu/ll_aton/ll_aton.c ****     return ATON_ARITHOP_X_GT_Y;
2022:Lib/AI_Runtime/Npu/ll_aton/ll_aton.c ****   case ARITH_X_GE_Y:
2023:Lib/AI_Runtime/Npu/ll_aton/ll_aton.c ****     return ATON_ARITHOP_X_GE_Y;
2024:Lib/AI_Runtime/Npu/ll_aton/ll_aton.c ****   case ARITH_ABS_X:
2025:Lib/AI_Runtime/Npu/ll_aton/ll_aton.c ****     return ATON_ARITHOP_ABS_X;
2026:Lib/AI_Runtime/Npu/ll_aton/ll_aton.c ****   case ARITH_SIGN_X:
2027:Lib/AI_Runtime/Npu/ll_aton/ll_aton.c ****     return ATON_ARITHOP_SIGN_X;
2028:Lib/AI_Runtime/Npu/ll_aton/ll_aton.c ****   case ARITH_CLIP:
2029:Lib/AI_Runtime/Npu/ll_aton/ll_aton.c ****     return ATON_ARITHOP_CLIP;
2030:Lib/AI_Runtime/Npu/ll_aton/ll_aton.c ****   default:
2031:Lib/AI_Runtime/Npu/ll_aton/ll_aton.c ****     break;
2032:Lib/AI_Runtime/Npu/ll_aton/ll_aton.c ****   }
2033:Lib/AI_Runtime/Npu/ll_aton/ll_aton.c ****   LL_ATON_ASSERT(0);
2034:Lib/AI_Runtime/Npu/ll_aton/ll_aton.c ****   return 0;
2035:Lib/AI_Runtime/Npu/ll_aton/ll_aton.c **** }
2036:Lib/AI_Runtime/Npu/ll_aton/ll_aton.c **** 
2037:Lib/AI_Runtime/Npu/ll_aton/ll_aton.c **** /**
2038:Lib/AI_Runtime/Npu/ll_aton/ll_aton.c ****  * @brief  Configures Arithmetic Accelerator
2039:Lib/AI_Runtime/Npu/ll_aton/ll_aton.c ****  * @param  id Arithmetic Accelerator identifier [0..ATON_ARITH_NUM-1]
2040:Lib/AI_Runtime/Npu/ll_aton/ll_aton.c ****  * @param  Arithacc_InitStruct Structure describing initialization parameters
2041:Lib/AI_Runtime/Npu/ll_aton/ll_aton.c ****  * @retval Error code E.g.: Invalid ID, invalid parameters, not idle,..
2042:Lib/AI_Runtime/Npu/ll_aton/ll_aton.c ****  */
2043:Lib/AI_Runtime/Npu/ll_aton/ll_aton.c **** int LL_Arithacc_Init(int id, const LL_Arithacc_InitTypeDef *conf)
2044:Lib/AI_Runtime/Npu/ll_aton/ll_aton.c **** {
2045:Lib/AI_Runtime/Npu/ll_aton/ll_aton.c ****   uint32_t t;
2046:Lib/AI_Runtime/Npu/ll_aton/ll_aton.c ****   char sshift;
2047:Lib/AI_Runtime/Npu/ll_aton/ll_aton.c **** 
2048:Lib/AI_Runtime/Npu/ll_aton/ll_aton.c ****   if (id >= ATON_ARITH_NUM)
2049:Lib/AI_Runtime/Npu/ll_aton/ll_aton.c ****     return LL_ATON_INVALID_ID;
2050:Lib/AI_Runtime/Npu/ll_aton/ll_aton.c **** 
2051:Lib/AI_Runtime/Npu/ll_aton/ll_aton.c ****   /* Deal with Arith Acc V3 shifts extensions */
2052:Lib/AI_Runtime/Npu/ll_aton/ll_aton.c ****   if (ATON_ARITH_VERSION_MAJOR_DT >= 3)
2053:Lib/AI_Runtime/Npu/ll_aton/ll_aton.c ****     sshift = 16;
2054:Lib/AI_Runtime/Npu/ll_aton/ll_aton.c ****   else
2055:Lib/AI_Runtime/Npu/ll_aton/ll_aton.c ****     sshift = 0;
2056:Lib/AI_Runtime/Npu/ll_aton/ll_aton.c **** 
2057:Lib/AI_Runtime/Npu/ll_aton/ll_aton.c ****   LL_ATON_EnableClock(ATON_ARITH_CLKB_CLK(id));
2058:Lib/AI_Runtime/Npu/ll_aton/ll_aton.c **** 
2059:Lib/AI_Runtime/Npu/ll_aton/ll_aton.c ****   t = ATON_ARITH_CTRL_DT;
2060:Lib/AI_Runtime/Npu/ll_aton/ll_aton.c ****   ATON_ARITH_CTRL_SET(id, t);
2061:Lib/AI_Runtime/Npu/ll_aton/ll_aton.c **** 
2062:Lib/AI_Runtime/Npu/ll_aton/ll_aton.c ****   t = ATON_ARITH_CTRL_DT;
2063:Lib/AI_Runtime/Npu/ll_aton/ll_aton.c ****   t = ATON_ARITH_CTRL_SET_CNT1(t, (conf->scalar == 0)); // these must be handled yet FIXME !!!
2064:Lib/AI_Runtime/Npu/ll_aton/ll_aton.c ****   t = ATON_ARITH_CTRL_SET_CNT2(t, (conf->scalar == 0) && (conf->bcast == ARITH_BCAST_CHAN));
2065:Lib/AI_Runtime/Npu/ll_aton/ll_aton.c ****   t = ATON_ARITH_CTRL_SET_CNT3(t, (conf->scalar == 0) && (conf->bcast == ARITH_BCAST_CHAN));
2066:Lib/AI_Runtime/Npu/ll_aton/ll_aton.c ****   t = ATON_ARITH_CTRL_SET_ROUND(t, (conf->rounding_o != 0));
2067:Lib/AI_Runtime/Npu/ll_aton/ll_aton.c ****   t = ATON_ARITH_CTRL_SET_ORNDMODE(t, (conf->relu_mode_o << 1) | conf->round_mode_o);
2068:Lib/AI_Runtime/Npu/ll_aton/ll_aton.c ****   // t = ATON_ARITH_CTRL_SET_OBYTES(t,((conf->dataw_o + 7) >> 3));
2069:Lib/AI_Runtime/Npu/ll_aton/ll_aton.c ****   t = ATON_ARITH_CTRL_SET_OBYTES(t, conf->outbytes_o);
ARM GAS  C:\Users\DJESSOU\AppData\Local\Temp\ccFxekaC.s 			page 99


2070:Lib/AI_Runtime/Npu/ll_aton/ll_aton.c ****   t = ATON_ARITH_CTRL_SET_SAT(t, (conf->saturation_o != 0));
2071:Lib/AI_Runtime/Npu/ll_aton/ll_aton.c ****   t = ATON_ARITH_CTRL_SET_COEFFA(t, (conf->scalar == 0));
2072:Lib/AI_Runtime/Npu/ll_aton/ll_aton.c ****   t = ATON_ARITH_CTRL_SET_COEFFB(t, (conf->scalar == 0));
2073:Lib/AI_Runtime/Npu/ll_aton/ll_aton.c ****   t = ATON_ARITH_CTRL_SET_COEFFC(t, (conf->scalar == 0));
2074:Lib/AI_Runtime/Npu/ll_aton/ll_aton.c ****   t = ATON_ARITH_CTRL_SET_DUALIN(t, (conf->dualinput != 0));
2075:Lib/AI_Runtime/Npu/ll_aton/ll_aton.c ****   t = ATON_ARITH_CTRL_SET_COMBINEBC(t, (conf->combinebc != 0));
2076:Lib/AI_Runtime/Npu/ll_aton/ll_aton.c **** #ifdef ATON_ARITH_CTRL_SET_CLIPOUT
2077:Lib/AI_Runtime/Npu/ll_aton/ll_aton.c ****   t = ATON_ARITH_CTRL_SET_CLIPOUT(t, (conf->clipout != 0));
2078:Lib/AI_Runtime/Npu/ll_aton/ll_aton.c **** #endif
2079:Lib/AI_Runtime/Npu/ll_aton/ll_aton.c ****   t = ATON_ARITH_CTRL_SET_OP(t, get_Arithacc_type(conf->operation));
2080:Lib/AI_Runtime/Npu/ll_aton/ll_aton.c ****   if (conf->operation == ARITH_NOT_X)
2081:Lib/AI_Runtime/Npu/ll_aton/ll_aton.c ****   { // WORKAROUND
2082:Lib/AI_Runtime/Npu/ll_aton/ll_aton.c ****     t = ATON_ARITH_CTRL_SET_LOGICALOP(t, 1);
2083:Lib/AI_Runtime/Npu/ll_aton/ll_aton.c ****   }
2084:Lib/AI_Runtime/Npu/ll_aton/ll_aton.c ****   ATON_ARITH_CTRL_SET(id, t);
2085:Lib/AI_Runtime/Npu/ll_aton/ll_aton.c **** 
2086:Lib/AI_Runtime/Npu/ll_aton/ll_aton.c ****   t = ATON_ARITH_INSHIFTER_DT;
2087:Lib/AI_Runtime/Npu/ll_aton/ll_aton.c ****   t = ATON_ARITH_INSHIFTER_SET_FBYTESX(t, conf->inbytes_x);
2088:Lib/AI_Runtime/Npu/ll_aton/ll_aton.c ****   t = ATON_ARITH_INSHIFTER_SET_FSHIFTX(t, ATON_SHIFT(conf->shift_x));
2089:Lib/AI_Runtime/Npu/ll_aton/ll_aton.c ****   t = ATON_ARITH_INSHIFTER_SET_FROUNDX(t, (conf->rounding_x != 0));
2090:Lib/AI_Runtime/Npu/ll_aton/ll_aton.c ****   t = ATON_ARITH_INSHIFTER_SET_FSATX(t, (conf->saturation_x != 0));
2091:Lib/AI_Runtime/Npu/ll_aton/ll_aton.c ****   t = ATON_ARITH_INSHIFTER_SET_FRNDMODEX(t, conf->round_mode_x);
2092:Lib/AI_Runtime/Npu/ll_aton/ll_aton.c ****   t = ATON_ARITH_INSHIFTER_SET_FOBYTESX(t, conf->outbytes_x);
2093:Lib/AI_Runtime/Npu/ll_aton/ll_aton.c **** 
2094:Lib/AI_Runtime/Npu/ll_aton/ll_aton.c ****   t = ATON_ARITH_INSHIFTER_SET_FBYTESY(t, conf->inbytes_y);
2095:Lib/AI_Runtime/Npu/ll_aton/ll_aton.c ****   t = ATON_ARITH_INSHIFTER_SET_FSHIFTY(t, ATON_SHIFT(conf->shift_y));
2096:Lib/AI_Runtime/Npu/ll_aton/ll_aton.c ****   t = ATON_ARITH_INSHIFTER_SET_FROUNDY(t, (conf->rounding_y != 0));
2097:Lib/AI_Runtime/Npu/ll_aton/ll_aton.c ****   t = ATON_ARITH_INSHIFTER_SET_FSATY(t, (conf->saturation_y != 0));
2098:Lib/AI_Runtime/Npu/ll_aton/ll_aton.c ****   t = ATON_ARITH_INSHIFTER_SET_FRNDMODEY(t, conf->round_mode_y);
2099:Lib/AI_Runtime/Npu/ll_aton/ll_aton.c ****   t = ATON_ARITH_INSHIFTER_SET_FOBYTESY(t, conf->outbytes_y);
2100:Lib/AI_Runtime/Npu/ll_aton/ll_aton.c ****   ATON_ARITH_INSHIFTER_SET(id, t);
2101:Lib/AI_Runtime/Npu/ll_aton/ll_aton.c **** 
2102:Lib/AI_Runtime/Npu/ll_aton/ll_aton.c ****   t = ATON_ARITH_SHIFT_DT;
2103:Lib/AI_Runtime/Npu/ll_aton/ll_aton.c ****   t = ATON_ARITH_SHIFT_SET_AX(t, conf->Ax_shift + sshift);
2104:Lib/AI_Runtime/Npu/ll_aton/ll_aton.c ****   t = ATON_ARITH_SHIFT_SET_BY(t, conf->By_shift + sshift);
2105:Lib/AI_Runtime/Npu/ll_aton/ll_aton.c ****   t = ATON_ARITH_SHIFT_SET_C(t, conf->C_shift + sshift);
2106:Lib/AI_Runtime/Npu/ll_aton/ll_aton.c ****   t = ATON_ARITH_SHIFT_SET_RES(t, conf->shift_o); // right shift only
2107:Lib/AI_Runtime/Npu/ll_aton/ll_aton.c ****   ATON_ARITH_SHIFT_SET(id, t);
2108:Lib/AI_Runtime/Npu/ll_aton/ll_aton.c **** 
2109:Lib/AI_Runtime/Npu/ll_aton/ll_aton.c ****   t = ATON_ARITH_COEFFAC_DT;
2110:Lib/AI_Runtime/Npu/ll_aton/ll_aton.c ****   t = ATON_ARITH_COEFFAC_SET_A(t, conf->A_scalar);
2111:Lib/AI_Runtime/Npu/ll_aton/ll_aton.c ****   t = ATON_ARITH_COEFFAC_SET_C(t, conf->C_scalar);
2112:Lib/AI_Runtime/Npu/ll_aton/ll_aton.c ****   ATON_ARITH_COEFFAC_SET(id, t);
2113:Lib/AI_Runtime/Npu/ll_aton/ll_aton.c **** 
2114:Lib/AI_Runtime/Npu/ll_aton/ll_aton.c ****   t = ATON_ARITH_COEFFB_DT;
2115:Lib/AI_Runtime/Npu/ll_aton/ll_aton.c ****   t = ATON_ARITH_COEFFB_SET_B(t, conf->B_scalar);
2116:Lib/AI_Runtime/Npu/ll_aton/ll_aton.c ****   ATON_ARITH_COEFFB_SET(id, t);
2117:Lib/AI_Runtime/Npu/ll_aton/ll_aton.c **** 
2118:Lib/AI_Runtime/Npu/ll_aton/ll_aton.c **** #ifdef ATON_ARITH_CLIPRANGE_SET
2119:Lib/AI_Runtime/Npu/ll_aton/ll_aton.c ****   if (conf->clipout)
2120:Lib/AI_Runtime/Npu/ll_aton/ll_aton.c ****   {
2121:Lib/AI_Runtime/Npu/ll_aton/ll_aton.c ****     t = ATON_ARITH_CLIPRANGE_DT;
2122:Lib/AI_Runtime/Npu/ll_aton/ll_aton.c ****     t = ATON_ARITH_CLIPRANGE_SET_CLIPMAX(t, (conf->clipmax & 0xFFFFU));
2123:Lib/AI_Runtime/Npu/ll_aton/ll_aton.c ****     t = ATON_ARITH_CLIPRANGE_SET_CLIPMIN(t, (conf->clipmin & 0xFFFFU));
2124:Lib/AI_Runtime/Npu/ll_aton/ll_aton.c ****     ATON_ARITH_CLIPRANGE_SET(id, t);
2125:Lib/AI_Runtime/Npu/ll_aton/ll_aton.c **** 
2126:Lib/AI_Runtime/Npu/ll_aton/ll_aton.c **** #ifdef ATON_ARITH_CLIPRANGE_MSB_SET
ARM GAS  C:\Users\DJESSOU\AppData\Local\Temp\ccFxekaC.s 			page 100


2127:Lib/AI_Runtime/Npu/ll_aton/ll_aton.c ****     t = ATON_ARITH_CLIPRANGE_MSB_DT;
2128:Lib/AI_Runtime/Npu/ll_aton/ll_aton.c ****     t = ATON_ARITH_CLIPRANGE_MSB_SET_CLIPMAX(t, (conf->clipmax >> 16));
2129:Lib/AI_Runtime/Npu/ll_aton/ll_aton.c ****     t = ATON_ARITH_CLIPRANGE_MSB_SET_CLIPMIN(t, (conf->clipmin >> 16));
2130:Lib/AI_Runtime/Npu/ll_aton/ll_aton.c ****     ATON_ARITH_CLIPRANGE_MSB_SET(id, t);
2131:Lib/AI_Runtime/Npu/ll_aton/ll_aton.c **** #endif
2132:Lib/AI_Runtime/Npu/ll_aton/ll_aton.c ****   }
2133:Lib/AI_Runtime/Npu/ll_aton/ll_aton.c **** #endif
2134:Lib/AI_Runtime/Npu/ll_aton/ll_aton.c **** 
2135:Lib/AI_Runtime/Npu/ll_aton/ll_aton.c ****   ATON_ARITH_COEFFADDR_SET(id, 0);
2136:Lib/AI_Runtime/Npu/ll_aton/ll_aton.c **** 
2137:Lib/AI_Runtime/Npu/ll_aton/ll_aton.c ****   int maxc = 0;
2138:Lib/AI_Runtime/Npu/ll_aton/ll_aton.c ****   if (conf->scalar == 0)
2139:Lib/AI_Runtime/Npu/ll_aton/ll_aton.c ****   { // vector mode
2140:Lib/AI_Runtime/Npu/ll_aton/ll_aton.c ****     switch (conf->bcast)
2141:Lib/AI_Runtime/Npu/ll_aton/ll_aton.c ****     {
2142:Lib/AI_Runtime/Npu/ll_aton/ll_aton.c ****     case ARITH_BCAST_CHAN:
2143:Lib/AI_Runtime/Npu/ll_aton/ll_aton.c ****       t = ATON_ARITH_INCCNT_SET_INCVAL(0, 0);
2144:Lib/AI_Runtime/Npu/ll_aton/ll_aton.c ****       ATON_ARITH_INCCNT_SET(id, t);
2145:Lib/AI_Runtime/Npu/ll_aton/ll_aton.c **** 
2146:Lib/AI_Runtime/Npu/ll_aton/ll_aton.c ****       t = ATON_ARITH_RSTCNT1_SET_RSTCNT(0, (conf->batchDepth - 1));
2147:Lib/AI_Runtime/Npu/ll_aton/ll_aton.c ****       ATON_ARITH_RSTCNT1_SET(id, t);
2148:Lib/AI_Runtime/Npu/ll_aton/ll_aton.c **** 
2149:Lib/AI_Runtime/Npu/ll_aton/ll_aton.c ****       t = ATON_ARITH_RSTCNT2_SET_RSTCNT(
2150:Lib/AI_Runtime/Npu/ll_aton/ll_aton.c ****           0, (conf->fWidth * conf->fHeight * conf->batchDepth - 1)); // must check this fits into 2
2151:Lib/AI_Runtime/Npu/ll_aton/ll_aton.c ****       ATON_ARITH_RSTCNT2_SET(id, t);
2152:Lib/AI_Runtime/Npu/ll_aton/ll_aton.c **** 
2153:Lib/AI_Runtime/Npu/ll_aton/ll_aton.c ****       t = ATON_ARITH_RSTCNT3_SET_RSTCNT(
2154:Lib/AI_Runtime/Npu/ll_aton/ll_aton.c ****           0, (conf->fWidth * conf->fHeight * conf->fChannels - 1)); // must check this fits into 27
2155:Lib/AI_Runtime/Npu/ll_aton/ll_aton.c ****       ATON_ARITH_RSTCNT3_SET(id, t);
2156:Lib/AI_Runtime/Npu/ll_aton/ll_aton.c **** 
2157:Lib/AI_Runtime/Npu/ll_aton/ll_aton.c ****       t = ATON_ARITH_INCOFFSET_SET_VAL(0, 1);
2158:Lib/AI_Runtime/Npu/ll_aton/ll_aton.c ****       ATON_ARITH_INCOFFSET_SET(id, t);
2159:Lib/AI_Runtime/Npu/ll_aton/ll_aton.c **** 
2160:Lib/AI_Runtime/Npu/ll_aton/ll_aton.c ****       t = ATON_ARITH_ADDROFFSET_SET_OFFSET1(0, -(conf->batchDepth - 1));
2161:Lib/AI_Runtime/Npu/ll_aton/ll_aton.c ****       t = ATON_ARITH_ADDROFFSET_SET_OFFSET2(t, 1);
2162:Lib/AI_Runtime/Npu/ll_aton/ll_aton.c ****       t = ATON_ARITH_ADDROFFSET_SET_OFFSET3(t, -(conf->fChannels - 1));
2163:Lib/AI_Runtime/Npu/ll_aton/ll_aton.c ****       ATON_ARITH_ADDROFFSET_SET(id, t);
2164:Lib/AI_Runtime/Npu/ll_aton/ll_aton.c ****       maxc = conf->fChannels;
2165:Lib/AI_Runtime/Npu/ll_aton/ll_aton.c ****       break;
2166:Lib/AI_Runtime/Npu/ll_aton/ll_aton.c ****     case ARITH_BCAST_HEIGHT:
2167:Lib/AI_Runtime/Npu/ll_aton/ll_aton.c ****       t = ATON_ARITH_INCCNT_SET_INCVAL(0, (conf->fWidth * conf->batchDepth - 1));
2168:Lib/AI_Runtime/Npu/ll_aton/ll_aton.c ****       ATON_ARITH_INCCNT_SET(id, t);
2169:Lib/AI_Runtime/Npu/ll_aton/ll_aton.c **** 
2170:Lib/AI_Runtime/Npu/ll_aton/ll_aton.c ****       t = ATON_ARITH_RSTCNT1_SET_RSTCNT(0, (conf->fWidth * conf->fHeight * conf->batchDepth - 1));
2171:Lib/AI_Runtime/Npu/ll_aton/ll_aton.c ****       ATON_ARITH_RSTCNT1_SET(id, t);
2172:Lib/AI_Runtime/Npu/ll_aton/ll_aton.c **** 
2173:Lib/AI_Runtime/Npu/ll_aton/ll_aton.c ****       t = ATON_ARITH_INCOFFSET_SET_VAL(0, 1);
2174:Lib/AI_Runtime/Npu/ll_aton/ll_aton.c ****       ATON_ARITH_INCOFFSET_SET(id, t);
2175:Lib/AI_Runtime/Npu/ll_aton/ll_aton.c **** 
2176:Lib/AI_Runtime/Npu/ll_aton/ll_aton.c ****       t = ATON_ARITH_ADDROFFSET_SET_OFFSET1(0, -(conf->fHeight - 1));
2177:Lib/AI_Runtime/Npu/ll_aton/ll_aton.c ****       ATON_ARITH_ADDROFFSET_SET(id, t);
2178:Lib/AI_Runtime/Npu/ll_aton/ll_aton.c ****       maxc = conf->fHeight;
2179:Lib/AI_Runtime/Npu/ll_aton/ll_aton.c ****       break;
2180:Lib/AI_Runtime/Npu/ll_aton/ll_aton.c ****     case ARITH_BCAST_WIDTH:
2181:Lib/AI_Runtime/Npu/ll_aton/ll_aton.c ****       t = ATON_ARITH_INCCNT_SET_INCVAL(0, (conf->batchDepth - 1));
2182:Lib/AI_Runtime/Npu/ll_aton/ll_aton.c ****       ATON_ARITH_INCCNT_SET(id, t);
2183:Lib/AI_Runtime/Npu/ll_aton/ll_aton.c **** 
ARM GAS  C:\Users\DJESSOU\AppData\Local\Temp\ccFxekaC.s 			page 101


2184:Lib/AI_Runtime/Npu/ll_aton/ll_aton.c ****       t = ATON_ARITH_RSTCNT1_SET_RSTCNT(0, (conf->fWidth * conf->batchDepth - 1));
2185:Lib/AI_Runtime/Npu/ll_aton/ll_aton.c ****       ATON_ARITH_RSTCNT1_SET(id, t);
2186:Lib/AI_Runtime/Npu/ll_aton/ll_aton.c **** 
2187:Lib/AI_Runtime/Npu/ll_aton/ll_aton.c ****       t = ATON_ARITH_INCOFFSET_SET_VAL(0, 1);
2188:Lib/AI_Runtime/Npu/ll_aton/ll_aton.c ****       ATON_ARITH_INCOFFSET_SET(id, t);
2189:Lib/AI_Runtime/Npu/ll_aton/ll_aton.c **** 
2190:Lib/AI_Runtime/Npu/ll_aton/ll_aton.c ****       t = ATON_ARITH_ADDROFFSET_SET_OFFSET1(0, -(conf->fWidth - 1));
2191:Lib/AI_Runtime/Npu/ll_aton/ll_aton.c ****       ATON_ARITH_ADDROFFSET_SET(id, t);
2192:Lib/AI_Runtime/Npu/ll_aton/ll_aton.c ****       maxc = conf->fWidth;
2193:Lib/AI_Runtime/Npu/ll_aton/ll_aton.c ****       break;
2194:Lib/AI_Runtime/Npu/ll_aton/ll_aton.c ****     case ARITH_BCAST_HEIGHT_WIDTH:
2195:Lib/AI_Runtime/Npu/ll_aton/ll_aton.c ****       t = ATON_ARITH_INCCNT_SET_INCVAL(0, (conf->batchDepth - 1));
2196:Lib/AI_Runtime/Npu/ll_aton/ll_aton.c ****       ATON_ARITH_INCCNT_SET(id, t);
2197:Lib/AI_Runtime/Npu/ll_aton/ll_aton.c **** 
2198:Lib/AI_Runtime/Npu/ll_aton/ll_aton.c ****       t = ATON_ARITH_RSTCNT1_SET_RSTCNT(0, (conf->fHeight * conf->fWidth * conf->batchDepth - 1));
2199:Lib/AI_Runtime/Npu/ll_aton/ll_aton.c ****       ATON_ARITH_RSTCNT1_SET(id, t);
2200:Lib/AI_Runtime/Npu/ll_aton/ll_aton.c **** 
2201:Lib/AI_Runtime/Npu/ll_aton/ll_aton.c ****       t = ATON_ARITH_INCOFFSET_SET_VAL(0, 1);
2202:Lib/AI_Runtime/Npu/ll_aton/ll_aton.c ****       ATON_ARITH_INCOFFSET_SET(id, t);
2203:Lib/AI_Runtime/Npu/ll_aton/ll_aton.c **** 
2204:Lib/AI_Runtime/Npu/ll_aton/ll_aton.c ****       t = ATON_ARITH_ADDROFFSET_SET_OFFSET1(0, -(conf->fHeight * conf->fWidth - 1));
2205:Lib/AI_Runtime/Npu/ll_aton/ll_aton.c ****       ATON_ARITH_ADDROFFSET_SET(id, t);
2206:Lib/AI_Runtime/Npu/ll_aton/ll_aton.c ****       maxc = conf->fHeight * conf->fWidth;
2207:Lib/AI_Runtime/Npu/ll_aton/ll_aton.c ****       break;
2208:Lib/AI_Runtime/Npu/ll_aton/ll_aton.c ****     case ARITH_BCAST_SCALAR:
2209:Lib/AI_Runtime/Npu/ll_aton/ll_aton.c ****       t = ATON_ARITH_INCCNT_SET_INCVAL(0, 0);
2210:Lib/AI_Runtime/Npu/ll_aton/ll_aton.c ****       ATON_ARITH_INCCNT_SET(id, t);
2211:Lib/AI_Runtime/Npu/ll_aton/ll_aton.c **** 
2212:Lib/AI_Runtime/Npu/ll_aton/ll_aton.c ****       t = ATON_ARITH_INCOFFSET_SET_VAL(0, 0);
2213:Lib/AI_Runtime/Npu/ll_aton/ll_aton.c ****       ATON_ARITH_INCOFFSET_SET(id, t);
2214:Lib/AI_Runtime/Npu/ll_aton/ll_aton.c **** 
2215:Lib/AI_Runtime/Npu/ll_aton/ll_aton.c ****       maxc = 1;
2216:Lib/AI_Runtime/Npu/ll_aton/ll_aton.c ****       break;
2217:Lib/AI_Runtime/Npu/ll_aton/ll_aton.c ****     default:
2218:Lib/AI_Runtime/Npu/ll_aton/ll_aton.c ****       return LL_ATON_INVALID_PARAM;
2219:Lib/AI_Runtime/Npu/ll_aton/ll_aton.c ****     }
2220:Lib/AI_Runtime/Npu/ll_aton/ll_aton.c **** 
2221:Lib/AI_Runtime/Npu/ll_aton/ll_aton.c ****     maxc = (maxc > 512 ? 512 : maxc);
2222:Lib/AI_Runtime/Npu/ll_aton/ll_aton.c ****     int i, k;
2223:Lib/AI_Runtime/Npu/ll_aton/ll_aton.c ****     uint32_t *Ap = (uint32_t *)conf->A_vector.p;
2224:Lib/AI_Runtime/Npu/ll_aton/ll_aton.c ****     uint32_t *Bp = (uint32_t *)conf->B_vector.p;
2225:Lib/AI_Runtime/Npu/ll_aton/ll_aton.c ****     uint32_t *Cp = (uint32_t *)conf->C_vector.p;
2226:Lib/AI_Runtime/Npu/ll_aton/ll_aton.c ****     int nbits_A = conf->vec_precision[0];
2227:Lib/AI_Runtime/Npu/ll_aton/ll_aton.c ****     int nbits_B = conf->vec_precision[1];
2228:Lib/AI_Runtime/Npu/ll_aton/ll_aton.c ****     int nbits_C = conf->vec_precision[2];
2229:Lib/AI_Runtime/Npu/ll_aton/ll_aton.c ****     int bitcnt_A = 0;
2230:Lib/AI_Runtime/Npu/ll_aton/ll_aton.c ****     int bitcnt_B = 0;
2231:Lib/AI_Runtime/Npu/ll_aton/ll_aton.c ****     int bitcnt_C = 0;
2232:Lib/AI_Runtime/Npu/ll_aton/ll_aton.c ****     int mem_idx_num = ATON_ARITH_COEFF_AB_IDX_MAX - ATON_ARITH_COEFF_AB_IDX_MIN + 1;
2233:Lib/AI_Runtime/Npu/ll_aton/ll_aton.c **** 
2234:Lib/AI_Runtime/Npu/ll_aton/ll_aton.c ****     int32_t c_sign = (conf->C_scalar == -1 ? -1 : 1);
2235:Lib/AI_Runtime/Npu/ll_aton/ll_aton.c **** #if (LL_ATON_PLATFORM == LL_ATON_PLAT_EC_TRACE)
2236:Lib/AI_Runtime/Npu/ll_aton/ll_aton.c ****     ec_trace_comment("Block ECASM optimizations to move reg writes pass this point");
2237:Lib/AI_Runtime/Npu/ll_aton/ll_aton.c **** #endif
2238:Lib/AI_Runtime/Npu/ll_aton/ll_aton.c ****     ATON_ARITH_TRANSLATEADDR_SET(id, 1); // map 0x400 onto 0x0 offset for coefficients
2239:Lib/AI_Runtime/Npu/ll_aton/ll_aton.c ****     for (i = 0, k = 0; i < maxc; i++, k++)
2240:Lib/AI_Runtime/Npu/ll_aton/ll_aton.c ****     {
ARM GAS  C:\Users\DJESSOU\AppData\Local\Temp\ccFxekaC.s 			page 102


2241:Lib/AI_Runtime/Npu/ll_aton/ll_aton.c ****       uint32_t t;
2242:Lib/AI_Runtime/Npu/ll_aton/ll_aton.c ****       uint32_t A = Ap != NULL ? LL_ATON_getbits(Ap, bitcnt_A, nbits_A) : (uint32_t)conf->A_scalar;
2243:Lib/AI_Runtime/Npu/ll_aton/ll_aton.c ****       uint32_t B = Bp != NULL ? LL_ATON_getbits(Bp, bitcnt_B, nbits_B) : (uint32_t)conf->B_scalar;
2244:Lib/AI_Runtime/Npu/ll_aton/ll_aton.c ****       uint32_t C = Cp != NULL ? (c_sign * LL_ATON_getbits(Cp, bitcnt_C, nbits_C)) : (uint32_t)conf-
2245:Lib/AI_Runtime/Npu/ll_aton/ll_aton.c ****       LL_ATON_ASSERT(conf->combinebc == 0 || (Cp == NULL && Bp == NULL) || (Cp != NULL && Bp == NUL
2246:Lib/AI_Runtime/Npu/ll_aton/ll_aton.c ****       if (conf->combinebc && Cp != NULL)
2247:Lib/AI_Runtime/Npu/ll_aton/ll_aton.c ****       {
2248:Lib/AI_Runtime/Npu/ll_aton/ll_aton.c ****         B = (C >> 16);
2249:Lib/AI_Runtime/Npu/ll_aton/ll_aton.c ****         C = (C & 0xFFFF);
2250:Lib/AI_Runtime/Npu/ll_aton/ll_aton.c ****       }
2251:Lib/AI_Runtime/Npu/ll_aton/ll_aton.c ****       if (k == mem_idx_num)
2252:Lib/AI_Runtime/Npu/ll_aton/ll_aton.c ****       {
2253:Lib/AI_Runtime/Npu/ll_aton/ll_aton.c **** #if (LL_ATON_PLATFORM == LL_ATON_PLAT_EC_TRACE)
2254:Lib/AI_Runtime/Npu/ll_aton/ll_aton.c ****         ec_trace_comment("Block ECASM optimizations to move reg writes pass this point");
2255:Lib/AI_Runtime/Npu/ll_aton/ll_aton.c **** #endif
2256:Lib/AI_Runtime/Npu/ll_aton/ll_aton.c ****         ATON_ARITH_TRANSLATEADDR_SET(id, 0); // map 0xC00 onto 0xC00 offset for coefficients
2257:Lib/AI_Runtime/Npu/ll_aton/ll_aton.c ****         k -= (256 / 2);
2258:Lib/AI_Runtime/Npu/ll_aton/ll_aton.c ****       }
2259:Lib/AI_Runtime/Npu/ll_aton/ll_aton.c ****       t = ATON_ARITH_COEFF_AB_DT;
2260:Lib/AI_Runtime/Npu/ll_aton/ll_aton.c ****       t = ATON_ARITH_COEFF_AB_SET_A(t, A);
2261:Lib/AI_Runtime/Npu/ll_aton/ll_aton.c ****       t = ATON_ARITH_COEFF_AB_SET_B(t, B);
2262:Lib/AI_Runtime/Npu/ll_aton/ll_aton.c ****       ATON_ARITH_COEFF_AB_SET(id, k, t);
2263:Lib/AI_Runtime/Npu/ll_aton/ll_aton.c ****       t = ATON_ARITH_COEFF_C_DT;
2264:Lib/AI_Runtime/Npu/ll_aton/ll_aton.c ****       t = ATON_ARITH_COEFF_C_SET_C(t, C);
2265:Lib/AI_Runtime/Npu/ll_aton/ll_aton.c ****       ATON_ARITH_COEFF_C_SET(id, k, t);
2266:Lib/AI_Runtime/Npu/ll_aton/ll_aton.c **** 
2267:Lib/AI_Runtime/Npu/ll_aton/ll_aton.c ****       bitcnt_A += nbits_A;
2268:Lib/AI_Runtime/Npu/ll_aton/ll_aton.c ****       bitcnt_B += nbits_B;
2269:Lib/AI_Runtime/Npu/ll_aton/ll_aton.c ****       bitcnt_C += nbits_C;
2270:Lib/AI_Runtime/Npu/ll_aton/ll_aton.c ****     }
2271:Lib/AI_Runtime/Npu/ll_aton/ll_aton.c ****   }
2272:Lib/AI_Runtime/Npu/ll_aton/ll_aton.c ****   return 0;
2273:Lib/AI_Runtime/Npu/ll_aton/ll_aton.c **** }
2274:Lib/AI_Runtime/Npu/ll_aton/ll_aton.c **** #endif // ATON_ARITH_NUM
2275:Lib/AI_Runtime/Npu/ll_aton/ll_aton.c **** 
2276:Lib/AI_Runtime/Npu/ll_aton/ll_aton.c **** #ifdef ATON_POOL_NUM
2277:Lib/AI_Runtime/Npu/ll_aton/ll_aton.c **** 
2278:Lib/AI_Runtime/Npu/ll_aton/ll_aton.c **** static int32_t get_Poolacc_type(LL_Poolacc_Op op)
2279:Lib/AI_Runtime/Npu/ll_aton/ll_aton.c **** {
2280:Lib/AI_Runtime/Npu/ll_aton/ll_aton.c ****   switch (op)
2281:Lib/AI_Runtime/Npu/ll_aton/ll_aton.c ****   {
2282:Lib/AI_Runtime/Npu/ll_aton/ll_aton.c ****   case POOL_MAX:
2283:Lib/AI_Runtime/Npu/ll_aton/ll_aton.c ****     return ATON_POOLTYPE_MAX_POOLING;
2284:Lib/AI_Runtime/Npu/ll_aton/ll_aton.c ****   case POOL_MIN:
2285:Lib/AI_Runtime/Npu/ll_aton/ll_aton.c ****     return ATON_POOLTYPE_MIN_POOLING;
2286:Lib/AI_Runtime/Npu/ll_aton/ll_aton.c ****   case POOL_AVG:
2287:Lib/AI_Runtime/Npu/ll_aton/ll_aton.c ****     return ATON_POOLTYPE_AVG_POOLING;
2288:Lib/AI_Runtime/Npu/ll_aton/ll_aton.c ****   case POOL_GMAX:
2289:Lib/AI_Runtime/Npu/ll_aton/ll_aton.c ****     return ATON_POOLTYPE_GMAX_POOLING;
2290:Lib/AI_Runtime/Npu/ll_aton/ll_aton.c ****   case POOL_GMIN:
2291:Lib/AI_Runtime/Npu/ll_aton/ll_aton.c ****     return ATON_POOLTYPE_GMIN_POOLING;
2292:Lib/AI_Runtime/Npu/ll_aton/ll_aton.c ****   case POOL_GAVG:
2293:Lib/AI_Runtime/Npu/ll_aton/ll_aton.c ****     return ATON_POOLTYPE_GAVG_POOLING;
2294:Lib/AI_Runtime/Npu/ll_aton/ll_aton.c ****   default:
2295:Lib/AI_Runtime/Npu/ll_aton/ll_aton.c ****     break;
2296:Lib/AI_Runtime/Npu/ll_aton/ll_aton.c ****   }
2297:Lib/AI_Runtime/Npu/ll_aton/ll_aton.c ****   LL_ATON_ASSERT(0);
ARM GAS  C:\Users\DJESSOU\AppData\Local\Temp\ccFxekaC.s 			page 103


2298:Lib/AI_Runtime/Npu/ll_aton/ll_aton.c ****   return 0;
2299:Lib/AI_Runtime/Npu/ll_aton/ll_aton.c **** }
2300:Lib/AI_Runtime/Npu/ll_aton/ll_aton.c **** 
2301:Lib/AI_Runtime/Npu/ll_aton/ll_aton.c **** /**
2302:Lib/AI_Runtime/Npu/ll_aton/ll_aton.c ****  * @brief  Configure Pooling Accelerator
2303:Lib/AI_Runtime/Npu/ll_aton/ll_aton.c ****  * @param  id Pooling Accelerator identifier [0..ATON_POOL_NUM-1]
2304:Lib/AI_Runtime/Npu/ll_aton/ll_aton.c ****  * @param  Poolacc_InitStruct Structure describing initialization parameters
2305:Lib/AI_Runtime/Npu/ll_aton/ll_aton.c ****  * @retval Error code E.g.: Invalid ID, invalid parameters, not idle,..
2306:Lib/AI_Runtime/Npu/ll_aton/ll_aton.c ****  */
2307:Lib/AI_Runtime/Npu/ll_aton/ll_aton.c **** int LL_Poolacc_Init(int id, const LL_Poolacc_InitTypeDef *conf)
2308:Lib/AI_Runtime/Npu/ll_aton/ll_aton.c **** {
2309:Lib/AI_Runtime/Npu/ll_aton/ll_aton.c ****   uint32_t t;
2310:Lib/AI_Runtime/Npu/ll_aton/ll_aton.c **** 
2311:Lib/AI_Runtime/Npu/ll_aton/ll_aton.c ****   if (id >= ATON_POOL_NUM)
2312:Lib/AI_Runtime/Npu/ll_aton/ll_aton.c ****     return LL_ATON_INVALID_ID;
2313:Lib/AI_Runtime/Npu/ll_aton/ll_aton.c **** 
2314:Lib/AI_Runtime/Npu/ll_aton/ll_aton.c ****   LL_ATON_EnableClock(ATON_POOL_CLKB_CLK(id));
2315:Lib/AI_Runtime/Npu/ll_aton/ll_aton.c **** 
2316:Lib/AI_Runtime/Npu/ll_aton/ll_aton.c **** #ifdef POOL_RC14
2317:Lib/AI_Runtime/Npu/ll_aton/ll_aton.c ****   /* Clear pipeline */
2318:Lib/AI_Runtime/Npu/ll_aton/ll_aton.c ****   t = ATON_POOL_CTRL_GET(id);
2319:Lib/AI_Runtime/Npu/ll_aton/ll_aton.c ****   t = ATON_POOL_CTRL_SET_EN(t, 0);
2320:Lib/AI_Runtime/Npu/ll_aton/ll_aton.c ****   t = ATON_POOL_CTRL_SET_CLR(t, 1);
2321:Lib/AI_Runtime/Npu/ll_aton/ll_aton.c ****   t = ATON_POOL_CTRL_SET_CONFCLR(t, 1);
2322:Lib/AI_Runtime/Npu/ll_aton/ll_aton.c ****   ATON_POOL_CTRL_SET(id, t);
2323:Lib/AI_Runtime/Npu/ll_aton/ll_aton.c **** #endif // POOL_RC14
2324:Lib/AI_Runtime/Npu/ll_aton/ll_aton.c **** 
2325:Lib/AI_Runtime/Npu/ll_aton/ll_aton.c ****   /* Initialize CTRL register parameters */
2326:Lib/AI_Runtime/Npu/ll_aton/ll_aton.c ****   t = ATON_POOL_CTRL_DT;
2327:Lib/AI_Runtime/Npu/ll_aton/ll_aton.c ****   t = ATON_POOL_CTRL_SET_TYPE(t, get_Poolacc_type(conf->operation));
2328:Lib/AI_Runtime/Npu/ll_aton/ll_aton.c ****   t = ATON_POOL_CTRL_SET_ROUND(t, (conf->rounding_o != 0));
2329:Lib/AI_Runtime/Npu/ll_aton/ll_aton.c ****   t = ATON_POOL_CTRL_SET_SAT(t, (conf->saturation_o != 0));
2330:Lib/AI_Runtime/Npu/ll_aton/ll_aton.c ****   t = ATON_POOL_CTRL_SET_OUTSHIFT(t, conf->shift_o);
2331:Lib/AI_Runtime/Npu/ll_aton/ll_aton.c ****   t = ATON_POOL_CTRL_SET_FBYTES(t, conf->inbytes_f);
2332:Lib/AI_Runtime/Npu/ll_aton/ll_aton.c ****   t = ATON_POOL_CTRL_SET_FSHIFT(t, ATON_SHIFT(conf->shift_f));
2333:Lib/AI_Runtime/Npu/ll_aton/ll_aton.c ****   t = ATON_POOL_CTRL_SET_FROUND(t, (conf->rounding_f != 0));
2334:Lib/AI_Runtime/Npu/ll_aton/ll_aton.c ****   t = ATON_POOL_CTRL_SET_FSAT(t, (conf->saturation_f != 0));
2335:Lib/AI_Runtime/Npu/ll_aton/ll_aton.c **** #ifdef ATON_POOL_CTRL_SET_AVGNOPAD
2336:Lib/AI_Runtime/Npu/ll_aton/ll_aton.c ****   t = ATON_POOL_CTRL_SET_AVGNOPAD(t, (conf->avgnopad != 0));
2337:Lib/AI_Runtime/Npu/ll_aton/ll_aton.c **** #endif
2338:Lib/AI_Runtime/Npu/ll_aton/ll_aton.c ****   t = ATON_POOL_CTRL_SET_DUALLINE(t, conf->dualLine);
2339:Lib/AI_Runtime/Npu/ll_aton/ll_aton.c **** #if 0
2340:Lib/AI_Runtime/Npu/ll_aton/ll_aton.c ****   int crop_en = ((conf->leftCrop > 0) || (conf->rightCrop > 0) || (conf->topCrop > 0) || (conf->bot
2341:Lib/AI_Runtime/Npu/ll_aton/ll_aton.c **** #else
2342:Lib/AI_Runtime/Npu/ll_aton/ll_aton.c ****   int crop_en = 1;
2343:Lib/AI_Runtime/Npu/ll_aton/ll_aton.c **** #endif
2344:Lib/AI_Runtime/Npu/ll_aton/ll_aton.c ****   t = ATON_POOL_CTRL_SET_CROPEN(t, crop_en);
2345:Lib/AI_Runtime/Npu/ll_aton/ll_aton.c ****   ATON_POOL_CTRL_SET(id, t);
2346:Lib/AI_Runtime/Npu/ll_aton/ll_aton.c **** 
2347:Lib/AI_Runtime/Npu/ll_aton/ll_aton.c ****   /* configure remaining in/out shifters */
2348:Lib/AI_Runtime/Npu/ll_aton/ll_aton.c ****   t = ATON_POOL_RNDCTRL_DT;
2349:Lib/AI_Runtime/Npu/ll_aton/ll_aton.c ****   t = ATON_POOL_RNDCTRL_SET_FOBYTES(t, conf->outbytes_f);
2350:Lib/AI_Runtime/Npu/ll_aton/ll_aton.c ****   t = ATON_POOL_RNDCTRL_SET_FRNDMODE(t, conf->round_mode_f);
2351:Lib/AI_Runtime/Npu/ll_aton/ll_aton.c ****   t = ATON_POOL_RNDCTRL_SET_OBYTES(t, conf->outbytes_o);
2352:Lib/AI_Runtime/Npu/ll_aton/ll_aton.c ****   t = ATON_POOL_RNDCTRL_SET_ORNDMODE(t, (conf->relu_mode_o << 1) | conf->round_mode_o);
2353:Lib/AI_Runtime/Npu/ll_aton/ll_aton.c ****   ATON_POOL_RNDCTRL_SET(id, t);
2354:Lib/AI_Runtime/Npu/ll_aton/ll_aton.c **** 
ARM GAS  C:\Users\DJESSOU\AppData\Local\Temp\ccFxekaC.s 			page 104


2355:Lib/AI_Runtime/Npu/ll_aton/ll_aton.c ****   /* Configure Pooling unit dimensions register */
2356:Lib/AI_Runtime/Npu/ll_aton/ll_aton.c ****   t = ATON_POOL_PDIMS_DT;
2357:Lib/AI_Runtime/Npu/ll_aton/ll_aton.c ****   t = ATON_POOL_PDIMS_SET_WINX(t, conf->poolWinX);
2358:Lib/AI_Runtime/Npu/ll_aton/ll_aton.c ****   t = ATON_POOL_PDIMS_SET_WINY(t, conf->poolWinY);
2359:Lib/AI_Runtime/Npu/ll_aton/ll_aton.c ****   t = ATON_POOL_PDIMS_SET_STRDX(t, conf->strideX);
2360:Lib/AI_Runtime/Npu/ll_aton/ll_aton.c ****   t = ATON_POOL_PDIMS_SET_STRDY(t, conf->strideY);
2361:Lib/AI_Runtime/Npu/ll_aton/ll_aton.c ****   t = ATON_POOL_PDIMS_SET_TPAD(t, conf->topPad);
2362:Lib/AI_Runtime/Npu/ll_aton/ll_aton.c ****   t = ATON_POOL_PDIMS_SET_BPAD(t, conf->bottomPad);
2363:Lib/AI_Runtime/Npu/ll_aton/ll_aton.c ****   t = ATON_POOL_PDIMS_SET_LPAD(t, conf->leftPad);
2364:Lib/AI_Runtime/Npu/ll_aton/ll_aton.c ****   t = ATON_POOL_PDIMS_SET_RPAD(t, conf->rightPad);
2365:Lib/AI_Runtime/Npu/ll_aton/ll_aton.c ****   t = ATON_POOL_PDIMS_SET_BSIZE(t, conf->batchSize);
2366:Lib/AI_Runtime/Npu/ll_aton/ll_aton.c ****   ATON_POOL_PDIMS_SET(id, t);
2367:Lib/AI_Runtime/Npu/ll_aton/ll_aton.c **** 
2368:Lib/AI_Runtime/Npu/ll_aton/ll_aton.c ****   /* Configure Pooling unit FDIMS register */
2369:Lib/AI_Runtime/Npu/ll_aton/ll_aton.c ****   t = ATON_POOL_FDIMS_DT;
2370:Lib/AI_Runtime/Npu/ll_aton/ll_aton.c ****   t = ATON_POOL_FDIMS_SET_FEATX(t, conf->inputX * conf->batchSize);
2371:Lib/AI_Runtime/Npu/ll_aton/ll_aton.c ****   t = ATON_POOL_FDIMS_SET_FEATY(t, conf->inputY);
2372:Lib/AI_Runtime/Npu/ll_aton/ll_aton.c ****   ATON_POOL_FDIMS_SET(id, t);
2373:Lib/AI_Runtime/Npu/ll_aton/ll_aton.c **** 
2374:Lib/AI_Runtime/Npu/ll_aton/ll_aton.c ****   /* Configure Pooling unit OUTDIMS register */
2375:Lib/AI_Runtime/Npu/ll_aton/ll_aton.c ****   t = ATON_POOL_OUTDIMS_DT;
2376:Lib/AI_Runtime/Npu/ll_aton/ll_aton.c ****   t = ATON_POOL_OUTDIMS_SET_FEATX(t, conf->outputX);
2377:Lib/AI_Runtime/Npu/ll_aton/ll_aton.c ****   t = ATON_POOL_OUTDIMS_SET_FEATY(t, conf->outputY);
2378:Lib/AI_Runtime/Npu/ll_aton/ll_aton.c ****   ATON_POOL_OUTDIMS_SET(id, t);
2379:Lib/AI_Runtime/Npu/ll_aton/ll_aton.c **** 
2380:Lib/AI_Runtime/Npu/ll_aton/ll_aton.c ****   /* Configure mulval */
2381:Lib/AI_Runtime/Npu/ll_aton/ll_aton.c ****   t = ATON_POOL_MULVAL_DT;
2382:Lib/AI_Runtime/Npu/ll_aton/ll_aton.c ****   t = ATON_POOL_MULVAL_SET_MULVAL(t, conf->mulval);
2383:Lib/AI_Runtime/Npu/ll_aton/ll_aton.c ****   ATON_POOL_MULVAL_SET(id, t);
2384:Lib/AI_Runtime/Npu/ll_aton/ll_aton.c **** 
2385:Lib/AI_Runtime/Npu/ll_aton/ll_aton.c ****   /* Mulval is scattered across different registers from V3 onwards. TODO: use ATON.h macros */
2386:Lib/AI_Runtime/Npu/ll_aton/ll_aton.c **** #if (ATON_POOL_VERSION_MAJOR_DT >= 3)
2387:Lib/AI_Runtime/Npu/ll_aton/ll_aton.c ****   unsigned int wsize = conf->poolWinX * conf->poolWinY;
2388:Lib/AI_Runtime/Npu/ll_aton/ll_aton.c ****   if (wsize > 0 && wsize < 9)
2389:Lib/AI_Runtime/Npu/ll_aton/ll_aton.c ****   {
2390:Lib/AI_Runtime/Npu/ll_aton/ll_aton.c ****     uint32_t *mulval_addr = (uint32_t *)ATON_POOL_MULVAL_1_2_ADDR(id);
2391:Lib/AI_Runtime/Npu/ll_aton/ll_aton.c ****     wsize--;
2392:Lib/AI_Runtime/Npu/ll_aton/ll_aton.c ****     mulval_addr += (wsize / 2);
2393:Lib/AI_Runtime/Npu/ll_aton/ll_aton.c ****     if (wsize & 1)
2394:Lib/AI_Runtime/Npu/ll_aton/ll_aton.c ****       *mulval_addr |= ((conf->mulval) << 16);
2395:Lib/AI_Runtime/Npu/ll_aton/ll_aton.c ****     else
2396:Lib/AI_Runtime/Npu/ll_aton/ll_aton.c ****       *mulval_addr |= conf->mulval;
2397:Lib/AI_Runtime/Npu/ll_aton/ll_aton.c ****   }
2398:Lib/AI_Runtime/Npu/ll_aton/ll_aton.c **** #endif
2399:Lib/AI_Runtime/Npu/ll_aton/ll_aton.c **** 
2400:Lib/AI_Runtime/Npu/ll_aton/ll_aton.c ****   /* Configure cropping if needed */
2401:Lib/AI_Runtime/Npu/ll_aton/ll_aton.c ****   t = ATON_POOL_XCROP_DT;
2402:Lib/AI_Runtime/Npu/ll_aton/ll_aton.c ****   if (conf->leftCrop > 0)
2403:Lib/AI_Runtime/Npu/ll_aton/ll_aton.c ****     t = ATON_POOL_XCROP_SET_LCROP(t, conf->leftCrop * conf->batchSize);
2404:Lib/AI_Runtime/Npu/ll_aton/ll_aton.c ****   int r_crop = conf->rightCrop * conf->batchSize + (conf->batchSize - 1);
2405:Lib/AI_Runtime/Npu/ll_aton/ll_aton.c ****   if (r_crop > 0)
2406:Lib/AI_Runtime/Npu/ll_aton/ll_aton.c ****     t = ATON_POOL_XCROP_SET_RCROP(t, conf->rightCrop * conf->batchSize + (conf->batchSize - 1));
2407:Lib/AI_Runtime/Npu/ll_aton/ll_aton.c ****   ATON_POOL_XCROP_SET(id, t);
2408:Lib/AI_Runtime/Npu/ll_aton/ll_aton.c **** 
2409:Lib/AI_Runtime/Npu/ll_aton/ll_aton.c ****   t = ATON_POOL_YCROP_DT;
2410:Lib/AI_Runtime/Npu/ll_aton/ll_aton.c ****   if (conf->topCrop > 0)
2411:Lib/AI_Runtime/Npu/ll_aton/ll_aton.c ****     t = ATON_POOL_YCROP_SET_TCROP(t, conf->topCrop);
ARM GAS  C:\Users\DJESSOU\AppData\Local\Temp\ccFxekaC.s 			page 105


2412:Lib/AI_Runtime/Npu/ll_aton/ll_aton.c ****   if (conf->bottomCrop > 0)
2413:Lib/AI_Runtime/Npu/ll_aton/ll_aton.c ****     t = ATON_POOL_YCROP_SET_BCROP(t, conf->bottomCrop);
2414:Lib/AI_Runtime/Npu/ll_aton/ll_aton.c ****   ATON_POOL_YCROP_SET(id, t);
2415:Lib/AI_Runtime/Npu/ll_aton/ll_aton.c **** 
2416:Lib/AI_Runtime/Npu/ll_aton/ll_aton.c **** #ifdef ATON_POOL_USER_PAD_VALUE_SET
2417:Lib/AI_Runtime/Npu/ll_aton/ll_aton.c ****   if (conf->pad_val_en)
2418:Lib/AI_Runtime/Npu/ll_aton/ll_aton.c ****   {
2419:Lib/AI_Runtime/Npu/ll_aton/ll_aton.c ****     t = ATON_POOL_USER_PAD_VALUE_DT;
2420:Lib/AI_Runtime/Npu/ll_aton/ll_aton.c ****     t = ATON_POOL_USER_PAD_VALUE_SET_PADVAL(t, conf->pad_val);
2421:Lib/AI_Runtime/Npu/ll_aton/ll_aton.c ****     t = ATON_POOL_USER_PAD_VALUE_SET_PADVALEN(t, 1);
2422:Lib/AI_Runtime/Npu/ll_aton/ll_aton.c ****     ATON_POOL_USER_PAD_VALUE_SET(id, t);
2423:Lib/AI_Runtime/Npu/ll_aton/ll_aton.c ****   }
2424:Lib/AI_Runtime/Npu/ll_aton/ll_aton.c **** #endif
2425:Lib/AI_Runtime/Npu/ll_aton/ll_aton.c **** 
2426:Lib/AI_Runtime/Npu/ll_aton/ll_aton.c ****   return 0;
2427:Lib/AI_Runtime/Npu/ll_aton/ll_aton.c **** }
2428:Lib/AI_Runtime/Npu/ll_aton/ll_aton.c **** #endif // ATON_POOL_NUM
2429:Lib/AI_Runtime/Npu/ll_aton/ll_aton.c **** 
2430:Lib/AI_Runtime/Npu/ll_aton/ll_aton.c **** #if defined(ATON_EPOCHCTRL_NUM)
2431:Lib/AI_Runtime/Npu/ll_aton/ll_aton.c **** /**
2432:Lib/AI_Runtime/Npu/ll_aton/ll_aton.c ****  * @brief  Configure Epoch Controller
2433:Lib/AI_Runtime/Npu/ll_aton/ll_aton.c ****  * @param  id Epoch Controller identifier [0..ATON_EPOCHCTRL_NUM-1]
2434:Lib/AI_Runtime/Npu/ll_aton/ll_aton.c ****  * @param  conf Structure describing Epoch Controller initialization parameters
2435:Lib/AI_Runtime/Npu/ll_aton/ll_aton.c ****  * @retval Error code
2436:Lib/AI_Runtime/Npu/ll_aton/ll_aton.c ****  */
2437:Lib/AI_Runtime/Npu/ll_aton/ll_aton.c **** int LL_EpochCtrl_Init(int id, const LL_EpochCtrl_InitTypeDef *conf)
2438:Lib/AI_Runtime/Npu/ll_aton/ll_aton.c **** {
 2718              		.loc 1 2438 1 view -0
 2719              		.cfi_startproc
 2720              		@ args = 0, pretend = 0, frame = 0
 2721              		@ frame_needed = 0, uses_anonymous_args = 0
 2722              		@ link register save eliminated.
2439:Lib/AI_Runtime/Npu/ll_aton/ll_aton.c ****   uint32_t t;
 2723              		.loc 1 2439 3 view .LVU808
2440:Lib/AI_Runtime/Npu/ll_aton/ll_aton.c **** 
2441:Lib/AI_Runtime/Npu/ll_aton/ll_aton.c ****   if (id >= ATON_EPOCHCTRL_NUM)
 2724              		.loc 1 2441 3 view .LVU809
 2725              		.loc 1 2441 6 is_stmt 0 view .LVU810
 2726 0000 0028     		cmp	r0, #0
 2727 0002 11DC     		bgt	.L233
2442:Lib/AI_Runtime/Npu/ll_aton/ll_aton.c ****     return LL_ATON_INVALID_ID;
2443:Lib/AI_Runtime/Npu/ll_aton/ll_aton.c **** 
2444:Lib/AI_Runtime/Npu/ll_aton/ll_aton.c ****   LL_ATON_EnableClock(ATON_EPOCHCTRL_CLKB_CLK(id));
 2728              		.loc 1 2444 3 is_stmt 1 view .LVU811
 2729              	.LVL293:
 2730              	.LBB41:
 2731              	.LBI41:
2445:Lib/AI_Runtime/Npu/ll_aton/ll_aton.c **** 
2446:Lib/AI_Runtime/Npu/ll_aton/ll_aton.c ****   /* Configure CTRL register */
2447:Lib/AI_Runtime/Npu/ll_aton/ll_aton.c ****   t = ATON_EPOCHCTRL_CTRL_DT;
2448:Lib/AI_Runtime/Npu/ll_aton/ll_aton.c ****   t = ATON_EPOCHCTRL_CTRL_SET_SM(t, conf->stepmode);
2449:Lib/AI_Runtime/Npu/ll_aton/ll_aton.c ****   ATON_EPOCHCTRL_CTRL_SET(id, t);
2450:Lib/AI_Runtime/Npu/ll_aton/ll_aton.c **** 
2451:Lib/AI_Runtime/Npu/ll_aton/ll_aton.c ****   /* Check address is 8 byte aligned */
2452:Lib/AI_Runtime/Npu/ll_aton/ll_aton.c ****   if (conf->blobaddr & 0x7)
2453:Lib/AI_Runtime/Npu/ll_aton/ll_aton.c ****     return LL_ATON_INVALID_PARAM;
2454:Lib/AI_Runtime/Npu/ll_aton/ll_aton.c **** 
ARM GAS  C:\Users\DJESSOU\AppData\Local\Temp\ccFxekaC.s 			page 106


2455:Lib/AI_Runtime/Npu/ll_aton/ll_aton.c ****   ATON_EPOCHCTRL_ADDR_SET(id, conf->blobaddr);
2456:Lib/AI_Runtime/Npu/ll_aton/ll_aton.c **** 
2457:Lib/AI_Runtime/Npu/ll_aton/ll_aton.c ****   return LL_ATON_OK;
2458:Lib/AI_Runtime/Npu/ll_aton/ll_aton.c **** }
2459:Lib/AI_Runtime/Npu/ll_aton/ll_aton.c **** 
2460:Lib/AI_Runtime/Npu/ll_aton/ll_aton.c **** /**
2461:Lib/AI_Runtime/Npu/ll_aton/ll_aton.c ****  * @brief  Trigger Epoch Controller Single Step execution
2462:Lib/AI_Runtime/Npu/ll_aton/ll_aton.c ****  * @param  id Epoch Controller identifier [0..ATON_EPOCHCTRL_NUM-1]
2463:Lib/AI_Runtime/Npu/ll_aton/ll_aton.c ****  * @retval Error code
2464:Lib/AI_Runtime/Npu/ll_aton/ll_aton.c ****  */
2465:Lib/AI_Runtime/Npu/ll_aton/ll_aton.c **** int LL_EpochCtrl_Step(int id)
2466:Lib/AI_Runtime/Npu/ll_aton/ll_aton.c **** {
2467:Lib/AI_Runtime/Npu/ll_aton/ll_aton.c ****   uint32_t t;
2468:Lib/AI_Runtime/Npu/ll_aton/ll_aton.c **** 
2469:Lib/AI_Runtime/Npu/ll_aton/ll_aton.c ****   t = ATON_EPOCHCTRL_IRQ_GET(id);
2470:Lib/AI_Runtime/Npu/ll_aton/ll_aton.c ****   t = ATON_EPOCHCTRL_IRQ_SET_SM(t, 1);
2471:Lib/AI_Runtime/Npu/ll_aton/ll_aton.c ****   ATON_EPOCHCTRL_IRQ_SET(id, t);
2472:Lib/AI_Runtime/Npu/ll_aton/ll_aton.c **** 
2473:Lib/AI_Runtime/Npu/ll_aton/ll_aton.c ****   return 0;
2474:Lib/AI_Runtime/Npu/ll_aton/ll_aton.c **** }
2475:Lib/AI_Runtime/Npu/ll_aton/ll_aton.c **** 
2476:Lib/AI_Runtime/Npu/ll_aton/ll_aton.c **** /**
2477:Lib/AI_Runtime/Npu/ll_aton/ll_aton.c ****  * @brief  Waits for epoch controller to become idle
2478:Lib/AI_Runtime/Npu/ll_aton/ll_aton.c ****  * @param  id Bitmask of EC identifiers
2479:Lib/AI_Runtime/Npu/ll_aton/ll_aton.c ****  * @retval Error code
2480:Lib/AI_Runtime/Npu/ll_aton/ll_aton.c ****  */
2481:Lib/AI_Runtime/Npu/ll_aton/ll_aton.c **** int LL_EpochCtrl_Wait(uint32_t mask)
2482:Lib/AI_Runtime/Npu/ll_aton/ll_aton.c **** {
2483:Lib/AI_Runtime/Npu/ll_aton/ll_aton.c ****   int i;
2484:Lib/AI_Runtime/Npu/ll_aton/ll_aton.c ****   uint32_t enableFlags;
2485:Lib/AI_Runtime/Npu/ll_aton/ll_aton.c **** 
2486:Lib/AI_Runtime/Npu/ll_aton/ll_aton.c ****   startWatchdog(ATON_EPOCH_TIMEOUT);
2487:Lib/AI_Runtime/Npu/ll_aton/ll_aton.c **** 
2488:Lib/AI_Runtime/Npu/ll_aton/ll_aton.c ****   do
2489:Lib/AI_Runtime/Npu/ll_aton/ll_aton.c ****   {
2490:Lib/AI_Runtime/Npu/ll_aton/ll_aton.c ****     enableFlags = 0;
2491:Lib/AI_Runtime/Npu/ll_aton/ll_aton.c ****     for (i = 0; i < ATON_EPOCHCTRL_NUM; i++)
2492:Lib/AI_Runtime/Npu/ll_aton/ll_aton.c ****     {
2493:Lib/AI_Runtime/Npu/ll_aton/ll_aton.c ****       if (mask & (1 << i))
2494:Lib/AI_Runtime/Npu/ll_aton/ll_aton.c ****       {
2495:Lib/AI_Runtime/Npu/ll_aton/ll_aton.c ****         enableFlags |= (ATON_EPOCHCTRL_CTRL_GET(i) & (1U << ATON_EPOCHCTRL_CTRL_RUNNING_LSB));
2496:Lib/AI_Runtime/Npu/ll_aton/ll_aton.c ****       }
2497:Lib/AI_Runtime/Npu/ll_aton/ll_aton.c ****     }
2498:Lib/AI_Runtime/Npu/ll_aton/ll_aton.c **** 
2499:Lib/AI_Runtime/Npu/ll_aton/ll_aton.c ****     LL_ATON_ASSERT(checkWatchdog() == 0);
2500:Lib/AI_Runtime/Npu/ll_aton/ll_aton.c **** 
2501:Lib/AI_Runtime/Npu/ll_aton/ll_aton.c ****   } while (enableFlags);
2502:Lib/AI_Runtime/Npu/ll_aton/ll_aton.c **** 
2503:Lib/AI_Runtime/Npu/ll_aton/ll_aton.c ****   return LL_ATON_OK;
2504:Lib/AI_Runtime/Npu/ll_aton/ll_aton.c **** }
2505:Lib/AI_Runtime/Npu/ll_aton/ll_aton.c **** 
2506:Lib/AI_Runtime/Npu/ll_aton/ll_aton.c **** /**
2507:Lib/AI_Runtime/Npu/ll_aton/ll_aton.c ****  * @brief  Returns the size of a blob
2508:Lib/AI_Runtime/Npu/ll_aton/ll_aton.c ****  * @param  eb_addr Pointer to blob
2509:Lib/AI_Runtime/Npu/ll_aton/ll_aton.c ****  * @retval Size in bytes of the blob
2510:Lib/AI_Runtime/Npu/ll_aton/ll_aton.c ****  */
2511:Lib/AI_Runtime/Npu/ll_aton/ll_aton.c **** unsigned int LL_EpochCtrl_GetBlobSize(uint32_t *eb_addr)
ARM GAS  C:\Users\DJESSOU\AppData\Local\Temp\ccFxekaC.s 			page 107


2512:Lib/AI_Runtime/Npu/ll_aton/ll_aton.c **** {
2513:Lib/AI_Runtime/Npu/ll_aton/ll_aton.c ****   unsigned bloblines = eb_addr[1] + 2;
2514:Lib/AI_Runtime/Npu/ll_aton/ll_aton.c ****   return bloblines * 4;
2515:Lib/AI_Runtime/Npu/ll_aton/ll_aton.c **** }
2516:Lib/AI_Runtime/Npu/ll_aton/ll_aton.c **** #endif // ATON_EPOCHCTRL_NUM
2517:Lib/AI_Runtime/Npu/ll_aton/ll_aton.c **** 
2518:Lib/AI_Runtime/Npu/ll_aton/ll_aton.c **** void LL_ATON_EnableClock(unsigned int clock)
 2732              		.loc 1 2518 6 view .LVU812
2519:Lib/AI_Runtime/Npu/ll_aton/ll_aton.c **** {
2520:Lib/AI_Runtime/Npu/ll_aton/ll_aton.c **** #if (LL_ATON_ENABLE_CLOCK_GATING == 1)
2521:Lib/AI_Runtime/Npu/ll_aton/ll_aton.c ****   if (clock <= 31)
 2733              		.loc 1 2521 3 view .LVU813
 2734              	.LBB42:
 2735              	.LBI42:
2518:Lib/AI_Runtime/Npu/ll_aton/ll_aton.c **** {
 2736              		.loc 1 2518 6 view .LVU814
2522:Lib/AI_Runtime/Npu/ll_aton/ll_aton.c ****   {
2523:Lib/AI_Runtime/Npu/ll_aton/ll_aton.c ****     ATON_REG_WRITE_FIELD_RANGE(CLKCTRL, 0, BGATES, clock, 1, 1);
 2737              		.loc 1 2523 5 view .LVU815
 2738              	.LBB43:
 2739              		.loc 1 2523 5 view .LVU816
 2740 0004 0B4A     		ldr	r2, .L235
 2741 0006 1369     		ldr	r3, [r2, #16]
 2742              	.LVL294:
 2743              		.loc 1 2523 5 view .LVU817
 2744 0008 43F00073 		orr	r3, r3, #33554432
 2745              	.LVL295:
 2746              		.loc 1 2523 5 view .LVU818
 2747              		.loc 1 2523 5 view .LVU819
 2748              		.loc 1 2523 5 view .LVU820
 2749 000c 1361     		str	r3, [r2, #16]
 2750              		.loc 1 2523 5 discriminator 1 view .LVU821
 2751              		.loc 1 2523 5 discriminator 1 view .LVU822
 2752              	.LBE43:
 2753              		.loc 1 2523 5 discriminator 1 view .LVU823
 2754              	.LVL296:
 2755              		.loc 1 2523 5 is_stmt 0 discriminator 1 view .LVU824
 2756              	.LBE42:
 2757              		.loc 1 2523 5 is_stmt 1 discriminator 1 view .LVU825
 2758              		.loc 1 2523 5 is_stmt 0 discriminator 1 view .LVU826
 2759              	.LBE41:
2447:Lib/AI_Runtime/Npu/ll_aton/ll_aton.c ****   t = ATON_EPOCHCTRL_CTRL_SET_SM(t, conf->stepmode);
 2760              		.loc 1 2447 3 is_stmt 1 view .LVU827
2448:Lib/AI_Runtime/Npu/ll_aton/ll_aton.c ****   ATON_EPOCHCTRL_CTRL_SET(id, t);
 2761              		.loc 1 2448 3 view .LVU828
2448:Lib/AI_Runtime/Npu/ll_aton/ll_aton.c ****   ATON_EPOCHCTRL_CTRL_SET(id, t);
 2762              		.loc 1 2448 7 is_stmt 0 view .LVU829
 2763 000e 0B79     		ldrb	r3, [r1, #4]	@ zero_extendqisi2
2449:Lib/AI_Runtime/Npu/ll_aton/ll_aton.c **** 
 2764              		.loc 1 2449 3 discriminator 4 view .LVU830
 2765 0010 02F5F032 		add	r2, r2, #122880
2448:Lib/AI_Runtime/Npu/ll_aton/ll_aton.c ****   ATON_EPOCHCTRL_CTRL_SET(id, t);
 2766              		.loc 1 2448 7 view .LVU831
 2767 0014 03F00103 		and	r3, r3, #1
 2768 0018 DB00     		lsls	r3, r3, #3
 2769              	.LVL297:
2449:Lib/AI_Runtime/Npu/ll_aton/ll_aton.c **** 
ARM GAS  C:\Users\DJESSOU\AppData\Local\Temp\ccFxekaC.s 			page 108


 2770              		.loc 1 2449 3 is_stmt 1 view .LVU832
2449:Lib/AI_Runtime/Npu/ll_aton/ll_aton.c **** 
 2771              		.loc 1 2449 3 view .LVU833
2449:Lib/AI_Runtime/Npu/ll_aton/ll_aton.c **** 
 2772              		.loc 1 2449 3 view .LVU834
2449:Lib/AI_Runtime/Npu/ll_aton/ll_aton.c **** 
 2773              		.loc 1 2449 3 is_stmt 0 discriminator 4 view .LVU835
 2774 001a 1360     		str	r3, [r2]
2449:Lib/AI_Runtime/Npu/ll_aton/ll_aton.c **** 
 2775              		.loc 1 2449 3 is_stmt 1 discriminator 4 view .LVU836
2449:Lib/AI_Runtime/Npu/ll_aton/ll_aton.c **** 
 2776              		.loc 1 2449 3 discriminator 4 view .LVU837
2452:Lib/AI_Runtime/Npu/ll_aton/ll_aton.c ****     return LL_ATON_INVALID_PARAM;
 2777              		.loc 1 2452 3 view .LVU838
2452:Lib/AI_Runtime/Npu/ll_aton/ll_aton.c ****     return LL_ATON_INVALID_PARAM;
 2778              		.loc 1 2452 11 is_stmt 0 view .LVU839
 2779 001c 0B68     		ldr	r3, [r1]
 2780              	.LVL298:
2452:Lib/AI_Runtime/Npu/ll_aton/ll_aton.c ****     return LL_ATON_INVALID_PARAM;
 2781              		.loc 1 2452 6 view .LVU840
 2782 001e 13F00700 		ands	r0, r3, #7
 2783              	.LVL299:
2452:Lib/AI_Runtime/Npu/ll_aton/ll_aton.c ****     return LL_ATON_INVALID_PARAM;
 2784              		.loc 1 2452 6 view .LVU841
 2785 0022 04D1     		bne	.L234
2455:Lib/AI_Runtime/Npu/ll_aton/ll_aton.c **** 
 2786              		.loc 1 2455 3 is_stmt 1 view .LVU842
2455:Lib/AI_Runtime/Npu/ll_aton/ll_aton.c **** 
 2787              		.loc 1 2455 3 view .LVU843
2455:Lib/AI_Runtime/Npu/ll_aton/ll_aton.c **** 
 2788              		.loc 1 2455 3 view .LVU844
2455:Lib/AI_Runtime/Npu/ll_aton/ll_aton.c **** 
 2789              		.loc 1 2455 3 is_stmt 0 discriminator 4 view .LVU845
 2790 0024 9360     		str	r3, [r2, #8]
 2791              	.LVL300:
2455:Lib/AI_Runtime/Npu/ll_aton/ll_aton.c **** 
 2792              		.loc 1 2455 3 is_stmt 1 discriminator 4 view .LVU846
2455:Lib/AI_Runtime/Npu/ll_aton/ll_aton.c **** 
 2793              		.loc 1 2455 3 discriminator 4 view .LVU847
2457:Lib/AI_Runtime/Npu/ll_aton/ll_aton.c **** }
 2794              		.loc 1 2457 3 view .LVU848
2457:Lib/AI_Runtime/Npu/ll_aton/ll_aton.c **** }
 2795              		.loc 1 2457 10 is_stmt 0 view .LVU849
 2796 0026 7047     		bx	lr
 2797              	.LVL301:
 2798              	.L233:
2442:Lib/AI_Runtime/Npu/ll_aton/ll_aton.c **** 
 2799              		.loc 1 2442 12 view .LVU850
 2800 0028 4FF0FF30 		mov	r0, #-1
 2801              	.LVL302:
2442:Lib/AI_Runtime/Npu/ll_aton/ll_aton.c **** 
 2802              		.loc 1 2442 12 view .LVU851
 2803 002c 7047     		bx	lr
 2804              	.LVL303:
 2805              	.L234:
2453:Lib/AI_Runtime/Npu/ll_aton/ll_aton.c **** 
 2806              		.loc 1 2453 12 view .LVU852
ARM GAS  C:\Users\DJESSOU\AppData\Local\Temp\ccFxekaC.s 			page 109


 2807 002e 6FF00100 		mvn	r0, #1
2458:Lib/AI_Runtime/Npu/ll_aton/ll_aton.c **** 
 2808              		.loc 1 2458 1 view .LVU853
 2809 0032 7047     		bx	lr
 2810              	.L236:
 2811              		.align	2
 2812              	.L235:
 2813 0034 00000E58 		.word	1477312512
 2814              		.cfi_endproc
 2815              	.LFE313:
 2817              		.section	.text.LL_EpochCtrl_Step,"ax",%progbits
 2818              		.align	1
 2819              		.global	LL_EpochCtrl_Step
 2820              		.syntax unified
 2821              		.thumb
 2822              		.thumb_func
 2824              	LL_EpochCtrl_Step:
 2825              	.LVL304:
 2826              	.LFB314:
2466:Lib/AI_Runtime/Npu/ll_aton/ll_aton.c ****   uint32_t t;
 2827              		.loc 1 2466 1 is_stmt 1 view -0
 2828              		.cfi_startproc
 2829              		@ args = 0, pretend = 0, frame = 0
 2830              		@ frame_needed = 0, uses_anonymous_args = 0
 2831              		@ link register save eliminated.
2467:Lib/AI_Runtime/Npu/ll_aton/ll_aton.c **** 
 2832              		.loc 1 2467 3 view .LVU855
2469:Lib/AI_Runtime/Npu/ll_aton/ll_aton.c ****   t = ATON_EPOCHCTRL_IRQ_SET_SM(t, 1);
 2833              		.loc 1 2469 3 view .LVU856
2469:Lib/AI_Runtime/Npu/ll_aton/ll_aton.c ****   t = ATON_EPOCHCTRL_IRQ_SET_SM(t, 1);
 2834              		.loc 1 2469 7 is_stmt 0 discriminator 1 view .LVU857
 2835 0000 0028     		cmp	r0, #0
 2836 0002 044B     		ldr	r3, .L240
 2837 0004 C8BF     		it	gt
 2838 0006 0C23     		movgt	r3, #12
2469:Lib/AI_Runtime/Npu/ll_aton/ll_aton.c ****   t = ATON_EPOCHCTRL_IRQ_SET_SM(t, 1);
 2839              		.loc 1 2469 5 discriminator 4 view .LVU858
 2840 0008 1A68     		ldr	r2, [r3]
 2841              	.LVL305:
2470:Lib/AI_Runtime/Npu/ll_aton/ll_aton.c ****   ATON_EPOCHCTRL_IRQ_SET(id, t);
 2842              		.loc 1 2470 3 is_stmt 1 view .LVU859
2474:Lib/AI_Runtime/Npu/ll_aton/ll_aton.c **** 
 2843              		.loc 1 2474 1 is_stmt 0 view .LVU860
 2844 000a 0020     		movs	r0, #0
 2845              	.LVL306:
2470:Lib/AI_Runtime/Npu/ll_aton/ll_aton.c ****   ATON_EPOCHCTRL_IRQ_SET(id, t);
 2846              		.loc 1 2470 5 view .LVU861
 2847 000c 42F48032 		orr	r2, r2, #65536
 2848              	.LVL307:
2471:Lib/AI_Runtime/Npu/ll_aton/ll_aton.c **** 
 2849              		.loc 1 2471 3 is_stmt 1 view .LVU862
2471:Lib/AI_Runtime/Npu/ll_aton/ll_aton.c **** 
 2850              		.loc 1 2471 3 view .LVU863
2471:Lib/AI_Runtime/Npu/ll_aton/ll_aton.c **** 
 2851              		.loc 1 2471 3 view .LVU864
2471:Lib/AI_Runtime/Npu/ll_aton/ll_aton.c **** 
 2852              		.loc 1 2471 3 is_stmt 0 discriminator 4 view .LVU865
ARM GAS  C:\Users\DJESSOU\AppData\Local\Temp\ccFxekaC.s 			page 110


 2853 0010 1A60     		str	r2, [r3]
2471:Lib/AI_Runtime/Npu/ll_aton/ll_aton.c **** 
 2854              		.loc 1 2471 3 is_stmt 1 discriminator 4 view .LVU866
2471:Lib/AI_Runtime/Npu/ll_aton/ll_aton.c **** 
 2855              		.loc 1 2471 3 discriminator 4 view .LVU867
2473:Lib/AI_Runtime/Npu/ll_aton/ll_aton.c **** }
 2856              		.loc 1 2473 3 view .LVU868
2474:Lib/AI_Runtime/Npu/ll_aton/ll_aton.c **** 
 2857              		.loc 1 2474 1 is_stmt 0 view .LVU869
 2858 0012 7047     		bx	lr
 2859              	.L241:
 2860              		.align	2
 2861              	.L240:
 2862 0014 0CE00F58 		.word	1477435404
 2863              		.cfi_endproc
 2864              	.LFE314:
 2866              		.section	.text.LL_EpochCtrl_Wait,"ax",%progbits
 2867              		.align	1
 2868              		.global	LL_EpochCtrl_Wait
 2869              		.syntax unified
 2870              		.thumb
 2871              		.thumb_func
 2873              	LL_EpochCtrl_Wait:
 2874              	.LVL308:
 2875              	.LFB315:
2482:Lib/AI_Runtime/Npu/ll_aton/ll_aton.c ****   int i;
 2876              		.loc 1 2482 1 is_stmt 1 view -0
 2877              		.cfi_startproc
 2878              		@ args = 0, pretend = 0, frame = 0
 2879              		@ frame_needed = 0, uses_anonymous_args = 0
2483:Lib/AI_Runtime/Npu/ll_aton/ll_aton.c ****   uint32_t enableFlags;
 2880              		.loc 1 2483 3 view .LVU871
2484:Lib/AI_Runtime/Npu/ll_aton/ll_aton.c **** 
 2881              		.loc 1 2484 3 view .LVU872
2486:Lib/AI_Runtime/Npu/ll_aton/ll_aton.c **** 
 2882              		.loc 1 2486 3 view .LVU873
2482:Lib/AI_Runtime/Npu/ll_aton/ll_aton.c ****   int i;
 2883              		.loc 1 2482 1 is_stmt 0 view .LVU874
 2884 0000 70B5     		push	{r4, r5, r6, lr}
 2885              		.cfi_def_cfa_offset 16
 2886              		.cfi_offset 4, -16
 2887              		.cfi_offset 5, -12
 2888              		.cfi_offset 6, -8
 2889              		.cfi_offset 14, -4
2482:Lib/AI_Runtime/Npu/ll_aton/ll_aton.c ****   int i;
 2890              		.loc 1 2482 1 view .LVU875
 2891 0002 0446     		mov	r4, r0
2486:Lib/AI_Runtime/Npu/ll_aton/ll_aton.c **** 
 2892              		.loc 1 2486 3 view .LVU876
 2893 0004 0B48     		ldr	r0, .L250
 2894              	.LVL309:
2486:Lib/AI_Runtime/Npu/ll_aton/ll_aton.c **** 
 2895              		.loc 1 2486 3 view .LVU877
 2896 0006 FFF7FEFF 		bl	startWatchdog
 2897              	.LVL310:
2495:Lib/AI_Runtime/Npu/ll_aton/ll_aton.c ****       }
 2898              		.loc 1 2495 25 discriminator 4 view .LVU878
ARM GAS  C:\Users\DJESSOU\AppData\Local\Temp\ccFxekaC.s 			page 111


 2899 000a 0B4E     		ldr	r6, .L250+4
2493:Lib/AI_Runtime/Npu/ll_aton/ll_aton.c ****       {
 2900              		.loc 1 2493 16 view .LVU879
 2901 000c 04F00104 		and	r4, r4, #1
 2902              	.LVL311:
 2903              	.L245:
2488:Lib/AI_Runtime/Npu/ll_aton/ll_aton.c ****   {
 2904              		.loc 1 2488 3 is_stmt 1 view .LVU880
2490:Lib/AI_Runtime/Npu/ll_aton/ll_aton.c ****     for (i = 0; i < ATON_EPOCHCTRL_NUM; i++)
 2905              		.loc 1 2490 5 view .LVU881
2491:Lib/AI_Runtime/Npu/ll_aton/ll_aton.c ****     {
 2906              		.loc 1 2491 5 view .LVU882
2491:Lib/AI_Runtime/Npu/ll_aton/ll_aton.c ****     {
 2907              		.loc 1 2491 19 discriminator 1 view .LVU883
2493:Lib/AI_Runtime/Npu/ll_aton/ll_aton.c ****       {
 2908              		.loc 1 2493 7 view .LVU884
2493:Lib/AI_Runtime/Npu/ll_aton/ll_aton.c ****       {
 2909              		.loc 1 2493 16 is_stmt 0 view .LVU885
 2910 0010 2546     		mov	r5, r4
2493:Lib/AI_Runtime/Npu/ll_aton/ll_aton.c ****       {
 2911              		.loc 1 2493 10 view .LVU886
 2912 0012 14B1     		cbz	r4, .L243
2495:Lib/AI_Runtime/Npu/ll_aton/ll_aton.c ****       }
 2913              		.loc 1 2495 9 is_stmt 1 view .LVU887
2495:Lib/AI_Runtime/Npu/ll_aton/ll_aton.c ****       }
 2914              		.loc 1 2495 25 is_stmt 0 discriminator 4 view .LVU888
 2915 0014 3568     		ldr	r5, [r6]
2495:Lib/AI_Runtime/Npu/ll_aton/ll_aton.c ****       }
 2916              		.loc 1 2495 52 discriminator 4 view .LVU889
 2917 0016 05F00045 		and	r5, r5, #-2147483648
 2918              	.LVL312:
2491:Lib/AI_Runtime/Npu/ll_aton/ll_aton.c ****     {
 2919              		.loc 1 2491 19 is_stmt 1 discriminator 1 view .LVU890
 2920              	.L243:
2499:Lib/AI_Runtime/Npu/ll_aton/ll_aton.c **** 
 2921              		.loc 1 2499 5 view .LVU891
 2922 001a FFF7FEFF 		bl	checkWatchdog
 2923              	.LVL313:
2499:Lib/AI_Runtime/Npu/ll_aton/ll_aton.c **** 
 2924              		.loc 1 2499 5 is_stmt 0 discriminator 1 view .LVU892
 2925 001e 30B1     		cbz	r0, .L244
 2926 0020 40F6C311 		movw	r1, #2499
 2927 0024 054B     		ldr	r3, .L250+8
 2928 0026 064A     		ldr	r2, .L250+12
 2929 0028 0648     		ldr	r0, .L250+16
 2930 002a FFF7FEFF 		bl	__assert_func
 2931              	.LVL314:
 2932              	.L244:
2501:Lib/AI_Runtime/Npu/ll_aton/ll_aton.c **** 
 2933              		.loc 1 2501 12 is_stmt 1 view .LVU893
 2934 002e 002D     		cmp	r5, #0
 2935 0030 EED1     		bne	.L245
2503:Lib/AI_Runtime/Npu/ll_aton/ll_aton.c **** }
 2936              		.loc 1 2503 3 view .LVU894
2504:Lib/AI_Runtime/Npu/ll_aton/ll_aton.c **** 
 2937              		.loc 1 2504 1 is_stmt 0 view .LVU895
 2938 0032 70BD     		pop	{r4, r5, r6, pc}
ARM GAS  C:\Users\DJESSOU\AppData\Local\Temp\ccFxekaC.s 			page 112


 2939              	.L251:
 2940              		.align	2
 2941              	.L250:
 2942 0034 80969800 		.word	10000000
 2943 0038 00E00F58 		.word	1477435392
 2944 003c 00000000 		.word	.LC19
 2945 0040 00000000 		.word	__func__.0
 2946 0044 05000000 		.word	.LC4
 2947              		.cfi_endproc
 2948              	.LFE315:
 2950              		.section	.text.LL_EpochCtrl_GetBlobSize,"ax",%progbits
 2951              		.align	1
 2952              		.global	LL_EpochCtrl_GetBlobSize
 2953              		.syntax unified
 2954              		.thumb
 2955              		.thumb_func
 2957              	LL_EpochCtrl_GetBlobSize:
 2958              	.LVL315:
 2959              	.LFB316:
2512:Lib/AI_Runtime/Npu/ll_aton/ll_aton.c ****   unsigned bloblines = eb_addr[1] + 2;
 2960              		.loc 1 2512 1 is_stmt 1 view -0
 2961              		.cfi_startproc
 2962              		@ args = 0, pretend = 0, frame = 0
 2963              		@ frame_needed = 0, uses_anonymous_args = 0
 2964              		@ link register save eliminated.
2513:Lib/AI_Runtime/Npu/ll_aton/ll_aton.c ****   return bloblines * 4;
 2965              		.loc 1 2513 3 view .LVU897
2514:Lib/AI_Runtime/Npu/ll_aton/ll_aton.c **** }
 2966              		.loc 1 2514 3 view .LVU898
2513:Lib/AI_Runtime/Npu/ll_aton/ll_aton.c ****   return bloblines * 4;
 2967              		.loc 1 2513 12 is_stmt 0 view .LVU899
 2968 0000 4068     		ldr	r0, [r0, #4]
 2969              	.LVL316:
2513:Lib/AI_Runtime/Npu/ll_aton/ll_aton.c ****   return bloblines * 4;
 2970              		.loc 1 2513 12 view .LVU900
 2971 0002 0230     		adds	r0, r0, #2
 2972              	.LVL317:
2515:Lib/AI_Runtime/Npu/ll_aton/ll_aton.c **** #endif // ATON_EPOCHCTRL_NUM
 2973              		.loc 1 2515 1 view .LVU901
 2974 0004 8000     		lsls	r0, r0, #2
 2975              	.LVL318:
2515:Lib/AI_Runtime/Npu/ll_aton/ll_aton.c **** #endif // ATON_EPOCHCTRL_NUM
 2976              		.loc 1 2515 1 view .LVU902
 2977 0006 7047     		bx	lr
 2978              		.cfi_endproc
 2979              	.LFE316:
 2981              		.section	.text.LL_ATON_EnableClock,"ax",%progbits
 2982              		.align	1
 2983              		.global	LL_ATON_EnableClock
 2984              		.syntax unified
 2985              		.thumb
 2986              		.thumb_func
 2988              	LL_ATON_EnableClock:
 2989              	.LVL319:
 2990              	.LFB317:
2519:Lib/AI_Runtime/Npu/ll_aton/ll_aton.c **** #if (LL_ATON_ENABLE_CLOCK_GATING == 1)
 2991              		.loc 1 2519 1 is_stmt 1 view -0
ARM GAS  C:\Users\DJESSOU\AppData\Local\Temp\ccFxekaC.s 			page 113


 2992              		.cfi_startproc
 2993              		@ args = 0, pretend = 0, frame = 0
 2994              		@ frame_needed = 0, uses_anonymous_args = 0
2521:Lib/AI_Runtime/Npu/ll_aton/ll_aton.c ****   {
 2995              		.loc 1 2521 3 view .LVU904
2521:Lib/AI_Runtime/Npu/ll_aton/ll_aton.c ****   {
 2996              		.loc 1 2521 6 is_stmt 0 view .LVU905
 2997 0000 1F28     		cmp	r0, #31
2519:Lib/AI_Runtime/Npu/ll_aton/ll_aton.c **** #if (LL_ATON_ENABLE_CLOCK_GATING == 1)
 2998              		.loc 1 2519 1 view .LVU906
 2999 0002 30B5     		push	{r4, r5, lr}
 3000              		.cfi_def_cfa_offset 12
 3001              		.cfi_offset 4, -12
 3002              		.cfi_offset 5, -8
 3003              		.cfi_offset 14, -4
2521:Lib/AI_Runtime/Npu/ll_aton/ll_aton.c ****   {
 3004              		.loc 1 2521 6 view .LVU907
 3005 0004 0BD8     		bhi	.L253
 3006              	.LVL320:
 3007              	.LBB47:
 3008              	.LBI47:
2518:Lib/AI_Runtime/Npu/ll_aton/ll_aton.c **** {
 3009              		.loc 1 2518 6 is_stmt 1 view .LVU908
 3010              	.LBB48:
 3011              		.loc 1 2523 5 view .LVU909
 3012              	.LBB49:
 3013              		.loc 1 2523 5 view .LVU910
 3014 0006 0124     		movs	r4, #1
 3015 0008 0025     		movs	r5, #0
 3016 000a 0123     		movs	r3, #1
 3017 000c 54EA0D05 		lsll	r4, r5, r0
 3018 0010 0349     		ldr	r1, .L255
 3019 0012 8340     		lsls	r3, r3, r0
 3020 0014 0A69     		ldr	r2, [r1, #16]
 3021              	.LVL321:
 3022              		.loc 1 2523 5 view .LVU911
 3023 0016 5340     		eors	r3, r3, r2
 3024 0018 2340     		ands	r3, r3, r4
 3025 001a 5A40     		eors	r2, r2, r3
 3026              	.LVL322:
 3027              		.loc 1 2523 5 view .LVU912
 3028              		.loc 1 2523 5 view .LVU913
 3029              		.loc 1 2523 5 view .LVU914
 3030 001c 0A61     		str	r2, [r1, #16]
 3031              		.loc 1 2523 5 discriminator 1 view .LVU915
 3032              		.loc 1 2523 5 discriminator 1 view .LVU916
 3033              	.LBE49:
 3034              		.loc 1 2523 5 discriminator 1 view .LVU917
 3035              	.LVL323:
 3036              		.loc 1 2523 5 is_stmt 0 discriminator 1 view .LVU918
 3037              	.LBE48:
 3038              	.LBE47:
 3039              		.loc 1 2523 5 is_stmt 1 discriminator 1 view .LVU919
 3040              		.loc 1 2523 5 discriminator 1 view .LVU920
 3041              		.loc 1 2523 5 discriminator 1 view .LVU921
 3042              	.L253:
2524:Lib/AI_Runtime/Npu/ll_aton/ll_aton.c ****   }
ARM GAS  C:\Users\DJESSOU\AppData\Local\Temp\ccFxekaC.s 			page 114


2525:Lib/AI_Runtime/Npu/ll_aton/ll_aton.c **** #ifdef ATON_CLKCTRL_BGATES1_OFFSET
2526:Lib/AI_Runtime/Npu/ll_aton/ll_aton.c ****   else
2527:Lib/AI_Runtime/Npu/ll_aton/ll_aton.c ****   {
2528:Lib/AI_Runtime/Npu/ll_aton/ll_aton.c ****     clock -= 32;
2529:Lib/AI_Runtime/Npu/ll_aton/ll_aton.c ****     ATON_REG_WRITE_FIELD_RANGE(CLKCTRL, 0, BGATES1, clock, 1, 1);
2530:Lib/AI_Runtime/Npu/ll_aton/ll_aton.c ****   }
2531:Lib/AI_Runtime/Npu/ll_aton/ll_aton.c **** #endif
2532:Lib/AI_Runtime/Npu/ll_aton/ll_aton.c **** #endif
2533:Lib/AI_Runtime/Npu/ll_aton/ll_aton.c **** }
 3043              		.loc 1 2533 1 is_stmt 0 view .LVU922
 3044 001e 30BD     		pop	{r4, r5, pc}
 3045              	.L256:
 3046              		.align	2
 3047              	.L255:
 3048 0020 00000E58 		.word	1477312512
 3049              		.cfi_endproc
 3050              	.LFE317:
 3052              		.section	.text.LL_Streng_TensorInit,"ax",%progbits
 3053              		.align	1
 3054              		.global	LL_Streng_TensorInit
 3055              		.syntax unified
 3056              		.thumb
 3057              		.thumb_func
 3059              	LL_Streng_TensorInit:
 3060              	.LVL324:
 3061              	.LFB292:
 494:Lib/AI_Runtime/Npu/ll_aton/ll_aton.c ****   uint32_t t;
 3062              		.loc 1 494 1 is_stmt 1 view -0
 3063              		.cfi_startproc
 3064              		@ args = 0, pretend = 0, frame = 8
 3065              		@ frame_needed = 0, uses_anonymous_args = 0
 502:Lib/AI_Runtime/Npu/ll_aton/ll_aton.c ****     return LL_ATON_INVALID_ID;
 3066              		.loc 1 502 6 is_stmt 0 view .LVU924
 3067 0000 0928     		cmp	r0, #9
 494:Lib/AI_Runtime/Npu/ll_aton/ll_aton.c ****   uint32_t t;
 3068              		.loc 1 494 1 view .LVU925
 3069 0002 2DE9F74F 		push	{r0, r1, r2, r4, r5, r6, r7, r8, r9, r10, fp, lr}
 3070              		.cfi_def_cfa_offset 48
 3071              		.cfi_offset 4, -36
 3072              		.cfi_offset 5, -32
 3073              		.cfi_offset 6, -28
 3074              		.cfi_offset 7, -24
 3075              		.cfi_offset 8, -20
 3076              		.cfi_offset 9, -16
 3077              		.cfi_offset 10, -12
 3078              		.cfi_offset 11, -8
 3079              		.cfi_offset 14, -4
 494:Lib/AI_Runtime/Npu/ll_aton/ll_aton.c ****   uint32_t t;
 3080              		.loc 1 494 1 view .LVU926
 3081 0006 0546     		mov	r5, r0
 495:Lib/AI_Runtime/Npu/ll_aton/ll_aton.c **** 
 3082              		.loc 1 495 3 is_stmt 1 view .LVU927
 498:Lib/AI_Runtime/Npu/ll_aton/ll_aton.c ****   uint32_t t_streng_cid_cache = ATON_STRENG_CID_CACHE_DT;
 3083              		.loc 1 498 3 view .LVU928
 3084              	.LVL325:
 499:Lib/AI_Runtime/Npu/ll_aton/ll_aton.c ****   uint32_t t_streng_event = ATON_STRENG_EVENT_DT;
 3085              		.loc 1 499 3 view .LVU929
ARM GAS  C:\Users\DJESSOU\AppData\Local\Temp\ccFxekaC.s 			page 115


 500:Lib/AI_Runtime/Npu/ll_aton/ll_aton.c **** 
 3086              		.loc 1 500 3 view .LVU930
 502:Lib/AI_Runtime/Npu/ll_aton/ll_aton.c ****     return LL_ATON_INVALID_ID;
 3087              		.loc 1 502 3 view .LVU931
 494:Lib/AI_Runtime/Npu/ll_aton/ll_aton.c ****   uint32_t t;
 3088              		.loc 1 494 1 is_stmt 0 view .LVU932
 3089 0008 0C46     		mov	r4, r1
 3090 000a 1646     		mov	r6, r2
 502:Lib/AI_Runtime/Npu/ll_aton/ll_aton.c ****     return LL_ATON_INVALID_ID;
 3091              		.loc 1 502 6 view .LVU933
 3092 000c 04DD     		ble	.L258
 3093              	.LVL326:
 3094              	.L260:
 503:Lib/AI_Runtime/Npu/ll_aton/ll_aton.c **** 
 3095              		.loc 1 503 12 view .LVU934
 3096 000e 4FF0FF30 		mov	r0, #-1
 3097              	.LVL327:
 3098              	.L257:
 773:Lib/AI_Runtime/Npu/ll_aton/ll_aton.c **** 
 3099              		.loc 1 773 1 view .LVU935
 3100 0012 03B0     		add	sp, sp, #12
 3101              		.cfi_remember_state
 3102              		.cfi_def_cfa_offset 36
 3103              		@ sp needed
 3104 0014 BDE8F08F 		pop	{r4, r5, r6, r7, r8, r9, r10, fp, pc}
 3105              	.LVL328:
 3106              	.L258:
 3107              		.cfi_restore_state
 505:Lib/AI_Runtime/Npu/ll_aton/ll_aton.c **** 
 3108              		.loc 1 505 3 is_stmt 1 view .LVU936
 505:Lib/AI_Runtime/Npu/ll_aton/ll_aton.c **** 
 3109              		.loc 1 505 3 is_stmt 0 discriminator 4 view .LVU937
 3110 0018 FFF7FEFF 		bl	LL_ATON_EnableClock
 3111              	.LVL329:
 509:Lib/AI_Runtime/Npu/ll_aton/ll_aton.c ****     return -1;
 3112              		.loc 1 509 3 is_stmt 1 view .LVU938
 509:Lib/AI_Runtime/Npu/ll_aton/ll_aton.c ****     return -1;
 3113              		.loc 1 509 6 is_stmt 0 view .LVU939
 3114 001c 012E     		cmp	r6, #1
 3115 001e F6D1     		bne	.L260
 513:Lib/AI_Runtime/Npu/ll_aton/ll_aton.c ****     return -1;
 3116              		.loc 1 513 3 is_stmt 1 view .LVU940
 513:Lib/AI_Runtime/Npu/ll_aton/ll_aton.c ****     return -1;
 3117              		.loc 1 513 11 is_stmt 0 view .LVU941
 3118 0020 94F84460 		ldrb	r6, [r4, #68]	@ zero_extendqisi2
 3119              	.LVL330:
 513:Lib/AI_Runtime/Npu/ll_aton/ll_aton.c ****     return -1;
 3120              		.loc 1 513 6 view .LVU942
 3121 0024 182E     		cmp	r6, #24
 3122 0026 F2D8     		bhi	.L260
 513:Lib/AI_Runtime/Npu/ll_aton/ll_aton.c ****     return -1;
 3123              		.loc 1 513 34 discriminator 1 view .LVU943
 3124 0028 94F845C0 		ldrb	ip, [r4, #69]	@ zero_extendqisi2
 513:Lib/AI_Runtime/Npu/ll_aton/ll_aton.c ****     return -1;
 3125              		.loc 1 513 27 discriminator 1 view .LVU944
 3126 002c BCF1180F 		cmp	ip, #24
 3127 0030 EDD8     		bhi	.L260
ARM GAS  C:\Users\DJESSOU\AppData\Local\Temp\ccFxekaC.s 			page 116


 517:Lib/AI_Runtime/Npu/ll_aton/ll_aton.c ****   t = ATON_STRENG_CTRL_SET_DIR(t, (conf->dir != 0));
 3128              		.loc 1 517 3 is_stmt 1 view .LVU945
 3129              	.LVL331:
 518:Lib/AI_Runtime/Npu/ll_aton/ll_aton.c ****   t = ATON_STRENG_CTRL_SET_RAW(t, (conf->raw != 0));
 3130              		.loc 1 518 3 view .LVU946
 518:Lib/AI_Runtime/Npu/ll_aton/ll_aton.c ****   t = ATON_STRENG_CTRL_SET_RAW(t, (conf->raw != 0));
 3131              		.loc 1 518 7 is_stmt 0 view .LVU947
 3132 0032 2078     		ldrb	r0, [r4]	@ zero_extendqisi2
 3133              	.LVL332:
 519:Lib/AI_Runtime/Npu/ll_aton/ll_aton.c **** #ifdef ATON_STRENG_CTRL_SET_RAW_OUT
 3134              		.loc 1 519 3 is_stmt 1 view .LVU948
 528:Lib/AI_Runtime/Npu/ll_aton/ll_aton.c ****   t = ATON_STRENG_CTRL_SET_CONT(t, conf->continuous == 1);
 3135              		.loc 1 528 7 is_stmt 0 view .LVU949
 3136 0034 D4F840A0 		ldr	r10, [r4, #64]
 519:Lib/AI_Runtime/Npu/ll_aton/ll_aton.c **** #ifdef ATON_STRENG_CTRL_SET_RAW_OUT
 3137              		.loc 1 519 7 view .LVU950
 3138 0038 C201     		lsls	r2, r0, #7
 518:Lib/AI_Runtime/Npu/ll_aton/ll_aton.c ****   t = ATON_STRENG_CTRL_SET_RAW(t, (conf->raw != 0));
 3139              		.loc 1 518 7 view .LVU951
 3140 003a C300     		lsls	r3, r0, #3
 519:Lib/AI_Runtime/Npu/ll_aton/ll_aton.c **** #ifdef ATON_STRENG_CTRL_SET_RAW_OUT
 3141              		.loc 1 519 7 view .LVU952
 3142 003c 02F48071 		and	r1, r2, #256
 518:Lib/AI_Runtime/Npu/ll_aton/ll_aton.c ****   t = ATON_STRENG_CTRL_SET_RAW(t, (conf->raw != 0));
 3143              		.loc 1 518 7 view .LVU953
 3144 0040 03F00803 		and	r3, r3, #8
 3145              	.LVL333:
 519:Lib/AI_Runtime/Npu/ll_aton/ll_aton.c **** #ifdef ATON_STRENG_CTRL_SET_RAW_OUT
 3146              		.loc 1 519 5 view .LVU954
 3147 0044 0B43     		orrs	r3, r3, r1
 3148              	.LVL334:
 521:Lib/AI_Runtime/Npu/ll_aton/ll_aton.c **** #else
 3149              		.loc 1 521 3 is_stmt 1 view .LVU955
 521:Lib/AI_Runtime/Npu/ll_aton/ll_aton.c **** #else
 3150              		.loc 1 521 7 is_stmt 0 view .LVU956
 3151 0046 C0F38001 		ubfx	r1, r0, #2, #1
 521:Lib/AI_Runtime/Npu/ll_aton/ll_aton.c **** #else
 3152              		.loc 1 521 5 view .LVU957
 3153 004a 43EA4123 		orr	r3, r3, r1, lsl #9
 3154              	.LVL335:
 526:Lib/AI_Runtime/Npu/ll_aton/ll_aton.c ****   t = ATON_STRENG_CTRL_SET_NOINC(t, (conf->noinc == 1));
 3155              		.loc 1 526 3 is_stmt 1 view .LVU958
 526:Lib/AI_Runtime/Npu/ll_aton/ll_aton.c ****   t = ATON_STRENG_CTRL_SET_NOINC(t, (conf->noinc == 1));
 3156              		.loc 1 526 7 is_stmt 0 view .LVU959
 3157 004e 02F40062 		and	r2, r2, #2048
 526:Lib/AI_Runtime/Npu/ll_aton/ll_aton.c ****   t = ATON_STRENG_CTRL_SET_NOINC(t, (conf->noinc == 1));
 3158              		.loc 1 526 5 view .LVU960
 3159 0052 1A43     		orrs	r2, r2, r3
 3160              	.LVL336:
 527:Lib/AI_Runtime/Npu/ll_aton/ll_aton.c ****   t = ATON_STRENG_CTRL_SET_SINGLE(t, conf->frame_tot_cnt == 1);
 3161              		.loc 1 527 3 is_stmt 1 view .LVU961
 527:Lib/AI_Runtime/Npu/ll_aton/ll_aton.c ****   t = ATON_STRENG_CTRL_SET_SINGLE(t, conf->frame_tot_cnt == 1);
 3162              		.loc 1 527 7 is_stmt 0 view .LVU962
 3163 0054 4308     		lsrs	r3, r0, #1
 528:Lib/AI_Runtime/Npu/ll_aton/ll_aton.c ****   t = ATON_STRENG_CTRL_SET_CONT(t, conf->continuous == 1);
 3164              		.loc 1 528 7 view .LVU963
 3165 0056 0AF1FF31 		add	r1, r10, #-1
ARM GAS  C:\Users\DJESSOU\AppData\Local\Temp\ccFxekaC.s 			page 117


 527:Lib/AI_Runtime/Npu/ll_aton/ll_aton.c ****   t = ATON_STRENG_CTRL_SET_SINGLE(t, conf->frame_tot_cnt == 1);
 3166              		.loc 1 527 7 view .LVU964
 3167 005a 03F01003 		and	r3, r3, #16
 527:Lib/AI_Runtime/Npu/ll_aton/ll_aton.c ****   t = ATON_STRENG_CTRL_SET_SINGLE(t, conf->frame_tot_cnt == 1);
 3168              		.loc 1 527 5 view .LVU965
 3169 005e 1343     		orrs	r3, r3, r2
 3170              	.LVL337:
 528:Lib/AI_Runtime/Npu/ll_aton/ll_aton.c ****   t = ATON_STRENG_CTRL_SET_CONT(t, conf->continuous == 1);
 3171              		.loc 1 528 3 is_stmt 1 view .LVU966
 528:Lib/AI_Runtime/Npu/ll_aton/ll_aton.c ****   t = ATON_STRENG_CTRL_SET_CONT(t, conf->continuous == 1);
 3172              		.loc 1 528 7 is_stmt 0 view .LVU967
 3173 0060 4A42     		rsbs	r2, r1, #0
 3174 0062 4A41     		adcs	r2, r2, r1
 528:Lib/AI_Runtime/Npu/ll_aton/ll_aton.c ****   t = ATON_STRENG_CTRL_SET_CONT(t, conf->continuous == 1);
 3175              		.loc 1 528 5 discriminator 4 view .LVU968
 3176 0064 43EA8203 		orr	r3, r3, r2, lsl #2
 3177              	.LVL338:
 529:Lib/AI_Runtime/Npu/ll_aton/ll_aton.c ****   t = ATON_STRENG_CTRL_SET_LSBMODE(t, conf->align_right == 1);
 3178              		.loc 1 529 3 is_stmt 1 view .LVU969
 529:Lib/AI_Runtime/Npu/ll_aton/ll_aton.c ****   t = ATON_STRENG_CTRL_SET_LSBMODE(t, conf->align_right == 1);
 3179              		.loc 1 529 7 is_stmt 0 view .LVU970
 3180 0068 0201     		lsls	r2, r0, #4
 3181 006a 02F08002 		and	r2, r2, #128
 531:Lib/AI_Runtime/Npu/ll_aton/ll_aton.c **** 
 3182              		.loc 1 531 7 view .LVU971
 3183 006e B4F80080 		ldrh	r8, [r4]
 530:Lib/AI_Runtime/Npu/ll_aton/ll_aton.c ****   t = ATON_STRENG_CTRL_SET_SIGNEXT(t, conf->align_right == 1 && conf->nbits_unsigned == 0);
 3184              		.loc 1 530 7 view .LVU972
 3185 0072 0702     		lsls	r7, r0, #8
 529:Lib/AI_Runtime/Npu/ll_aton/ll_aton.c ****   t = ATON_STRENG_CTRL_SET_LSBMODE(t, conf->align_right == 1);
 3186              		.loc 1 529 5 view .LVU973
 3187 0074 1343     		orrs	r3, r3, r2
 3188              	.LVL339:
 530:Lib/AI_Runtime/Npu/ll_aton/ll_aton.c ****   t = ATON_STRENG_CTRL_SET_SIGNEXT(t, conf->align_right == 1 && conf->nbits_unsigned == 0);
 3189              		.loc 1 530 3 is_stmt 1 view .LVU974
 530:Lib/AI_Runtime/Npu/ll_aton/ll_aton.c ****   t = ATON_STRENG_CTRL_SET_SIGNEXT(t, conf->align_right == 1 && conf->nbits_unsigned == 0);
 3190              		.loc 1 530 7 is_stmt 0 view .LVU975
 3191 0076 07F48047 		and	r7, r7, #16384
 530:Lib/AI_Runtime/Npu/ll_aton/ll_aton.c ****   t = ATON_STRENG_CTRL_SET_SIGNEXT(t, conf->align_right == 1 && conf->nbits_unsigned == 0);
 3192              		.loc 1 530 5 view .LVU976
 3193 007a 1F43     		orrs	r7, r7, r3
 3194              	.LVL340:
 531:Lib/AI_Runtime/Npu/ll_aton/ll_aton.c **** 
 3195              		.loc 1 531 3 is_stmt 1 view .LVU977
 531:Lib/AI_Runtime/Npu/ll_aton/ll_aton.c **** 
 3196              		.loc 1 531 7 is_stmt 0 view .LVU978
 3197 007c 08F41073 		and	r3, r8, #576
 3198 0080 A3F1400E 		sub	lr, r3, #64
 3199 0084 DEF10003 		rsbs	r3, lr, #0
 3200 0088 43EB0E03 		adc	r3, r3, lr
 550:Lib/AI_Runtime/Npu/ll_aton/ll_aton.c **** 
 3201              		.loc 1 550 68 view .LVU979
 3202 008c 10F00102 		ands	r2, r0, #1
 531:Lib/AI_Runtime/Npu/ll_aton/ll_aton.c **** 
 3203              		.loc 1 531 5 discriminator 4 view .LVU980
 3204 0090 47EAC337 		orr	r7, r7, r3, lsl #15
 3205              	.LVL341:
ARM GAS  C:\Users\DJESSOU\AppData\Local\Temp\ccFxekaC.s 			page 118


 533:Lib/AI_Runtime/Npu/ll_aton/ll_aton.c ****   int in_bits[3];
 3206              		.loc 1 533 3 is_stmt 1 view .LVU981
 534:Lib/AI_Runtime/Npu/ll_aton/ll_aton.c ****   int out_bits[3];
 3207              		.loc 1 534 3 view .LVU982
 535:Lib/AI_Runtime/Npu/ll_aton/ll_aton.c ****   int nbits_out = conf->nbits_out;
 3208              		.loc 1 535 3 view .LVU983
 536:Lib/AI_Runtime/Npu/ll_aton/ll_aton.c ****   int nbits_in = conf->nbits_in;
 3209              		.loc 1 536 3 view .LVU984
 537:Lib/AI_Runtime/Npu/ll_aton/ll_aton.c **** 
 3210              		.loc 1 537 7 is_stmt 0 view .LVU985
 3211 0094 3146     		mov	r1, r6
 536:Lib/AI_Runtime/Npu/ll_aton/ll_aton.c ****   int nbits_in = conf->nbits_in;
 3212              		.loc 1 536 7 view .LVU986
 3213 0096 6346     		mov	r3, ip
 3214              	.LVL342:
 537:Lib/AI_Runtime/Npu/ll_aton/ll_aton.c **** 
 3215              		.loc 1 537 3 is_stmt 1 view .LVU987
 549:Lib/AI_Runtime/Npu/ll_aton/ll_aton.c ****   io_case += (conf->dir == 0 ? (conf->nbits_in <= conf->nbits_out) : (conf->nbits_in < conf->nbits_
 3216              		.loc 1 549 3 view .LVU988
 550:Lib/AI_Runtime/Npu/ll_aton/ll_aton.c **** 
 3217              		.loc 1 550 3 view .LVU989
 550:Lib/AI_Runtime/Npu/ll_aton/ll_aton.c **** 
 3218              		.loc 1 550 68 is_stmt 0 view .LVU990
 3219 0098 0192     		str	r2, [sp, #4]
 3220 009a 00F04009 		and	r9, r0, #64
 3221 009e 40F0B880 		bne	.L261
 550:Lib/AI_Runtime/Npu/ll_aton/ll_aton.c **** 
 3222              		.loc 1 550 48 discriminator 1 view .LVU991
 3223 00a2 6645     		cmp	r6, ip
 3224 00a4 8CBF     		ite	hi
 3225 00a6 0022     		movhi	r2, #0
 3226 00a8 0122     		movls	r2, #1
 3227              	.LVL343:
 552:Lib/AI_Runtime/Npu/ll_aton/ll_aton.c ****   {
 3228              		.loc 1 552 3 is_stmt 1 view .LVU992
 3229              	.L262:
 552:Lib/AI_Runtime/Npu/ll_aton/ll_aton.c ****   {
 3230              		.loc 1 552 3 is_stmt 0 view .LVU993
 3231 00aa 032A     		cmp	r2, #3
 3232 00ac 00F0C180 		beq	.L264
 552:Lib/AI_Runtime/Npu/ll_aton/ll_aton.c ****   {
 3233              		.loc 1 552 3 view .LVU994
 3234 00b0 012A     		cmp	r2, #1
 3235 00b2 00F0B980 		beq	.L283
 557:Lib/AI_Runtime/Npu/ll_aton/ll_aton.c ****       t_streng_strd = ATON_STRENG_STRD_SET_FGAP(t_streng_strd, (nbits_in - nbits_out));
 3236              		.loc 1 557 5 is_stmt 1 view .LVU995
 561:Lib/AI_Runtime/Npu/ll_aton/ll_aton.c ****   }
 3237              		.loc 1 561 14 is_stmt 0 view .LVU996
 3238 00b6 6146     		mov	r1, ip
 3239              	.LVL344:
 558:Lib/AI_Runtime/Npu/ll_aton/ll_aton.c ****     else
 3240              		.loc 1 558 23 view .LVU997
 3241 00b8 A6EB0C02 		sub	r2, r6, ip
 3242              	.LVL345:
 557:Lib/AI_Runtime/Npu/ll_aton/ll_aton.c ****       t_streng_strd = ATON_STRENG_STRD_SET_FGAP(t_streng_strd, (nbits_in - nbits_out));
 3243              		.loc 1 557 8 view .LVU998
 3244 00bc 0306     		lsls	r3, r0, #24
ARM GAS  C:\Users\DJESSOU\AppData\Local\Temp\ccFxekaC.s 			page 119


 3245              	.LVL346:
 558:Lib/AI_Runtime/Npu/ll_aton/ll_aton.c ****     else
 3246              		.loc 1 558 7 is_stmt 1 view .LVU999
 558:Lib/AI_Runtime/Npu/ll_aton/ll_aton.c ****     else
 3247              		.loc 1 558 23 is_stmt 0 view .LVU1000
 3248 00be 4BBF     		itete	mi
 3249 00c0 1204     		lslmi	r2, r2, #16
 560:Lib/AI_Runtime/Npu/ll_aton/ll_aton.c ****     nbits_in = nbits_out;
 3250              		.loc 1 560 23 view .LVU1001
 3251 00c2 1206     		lslpl	r2, r2, #24
 558:Lib/AI_Runtime/Npu/ll_aton/ll_aton.c ****     else
 3252              		.loc 1 558 23 view .LVU1002
 3253 00c4 02F47C12 		andmi	r2, r2, #4128768
 3254              	.LVL347:
 560:Lib/AI_Runtime/Npu/ll_aton/ll_aton.c ****     nbits_in = nbits_out;
 3255              		.loc 1 560 7 is_stmt 1 view .LVU1003
 560:Lib/AI_Runtime/Npu/ll_aton/ll_aton.c ****     nbits_in = nbits_out;
 3256              		.loc 1 560 23 is_stmt 0 view .LVU1004
 3257 00c8 02F07C52 		andpl	r2, r2, #1056964608
 3258              	.LVL348:
 3259              	.L265:
 565:Lib/AI_Runtime/Npu/ll_aton/ll_aton.c ****     in_bits[1] = nbits_in > 8 ? _LL_min(8, nbits_in - 8) : 0;
 3260              		.loc 1 565 5 is_stmt 1 view .LVU1005
 565:Lib/AI_Runtime/Npu/ll_aton/ll_aton.c ****     in_bits[1] = nbits_in > 8 ? _LL_min(8, nbits_in - 8) : 0;
 3261              		.loc 1 565 18 is_stmt 0 view .LVU1006
 3262 00cc 0829     		cmp	r1, #8
 3263 00ce 8E46     		mov	lr, r1
 3264 00d0 A8BF     		it	ge
 3265 00d2 4FF0080E 		movge	lr, #8
 3266              	.LVL349:
 566:Lib/AI_Runtime/Npu/ll_aton/ll_aton.c ****     in_bits[2] = nbits_in > 16 ? _LL_min(8, nbits_in - 16) : 0;
 3267              		.loc 1 566 5 is_stmt 1 view .LVU1007
 566:Lib/AI_Runtime/Npu/ll_aton/ll_aton.c ****     in_bits[2] = nbits_in > 16 ? _LL_min(8, nbits_in - 16) : 0;
 3268              		.loc 1 566 58 is_stmt 0 view .LVU1008
 3269 00d6 0829     		cmp	r1, #8
 3270 00d8 40F3A880 		ble	.L284
 3271              	.LVL350:
 567:Lib/AI_Runtime/Npu/ll_aton/ll_aton.c ****     if (conf->align_right)
 3272              		.loc 1 567 5 is_stmt 1 view .LVU1009
 567:Lib/AI_Runtime/Npu/ll_aton/ll_aton.c ****     if (conf->align_right)
 3273              		.loc 1 567 60 is_stmt 0 view .LVU1010
 3274 00dc 1029     		cmp	r1, #16
 567:Lib/AI_Runtime/Npu/ll_aton/ll_aton.c ****     if (conf->align_right)
 3275              		.loc 1 567 60 discriminator 1 view .LVU1011
 3276 00de CBBF     		itete	gt
 3277 00e0 A1F11003 		subgt	r3, r1, #16
 567:Lib/AI_Runtime/Npu/ll_aton/ll_aton.c ****     if (conf->align_right)
 3278              		.loc 1 567 60 discriminator 2 view .LVU1012
 3279 00e4 0023     		movle	r3, #0
 566:Lib/AI_Runtime/Npu/ll_aton/ll_aton.c ****     in_bits[2] = nbits_in > 16 ? _LL_min(8, nbits_in - 16) : 0;
 3280              		.loc 1 566 16 discriminator 4 view .LVU1013
 3281 00e6 0821     		movgt	r1, #8
 3282              	.LVL351:
 566:Lib/AI_Runtime/Npu/ll_aton/ll_aton.c ****     in_bits[2] = nbits_in > 16 ? _LL_min(8, nbits_in - 16) : 0;
 3283              		.loc 1 566 58 discriminator 1 view .LVU1014
 3284 00e8 0839     		suble	r1, r1, #8
 3285              	.LVL352:
ARM GAS  C:\Users\DJESSOU\AppData\Local\Temp\ccFxekaC.s 			page 120


 3286              	.L267:
 568:Lib/AI_Runtime/Npu/ll_aton/ll_aton.c ****     {
 3287              		.loc 1 568 5 is_stmt 1 view .LVU1015
 568:Lib/AI_Runtime/Npu/ll_aton/ll_aton.c ****     {
 3288              		.loc 1 568 8 is_stmt 0 view .LVU1016
 3289 00ea 09F0FF0B 		and	fp, r9, #255
 3290 00ee B9F1000F 		cmp	r9, #0
 3291 00f2 0BD1     		bne	.L269
 576:Lib/AI_Runtime/Npu/ll_aton/ll_aton.c ****       {
 3292              		.loc 1 576 7 is_stmt 1 view .LVU1017
 576:Lib/AI_Runtime/Npu/ll_aton/ll_aton.c ****       {
 3293              		.loc 1 576 10 is_stmt 0 view .LVU1018
 3294 00f4 BCF1100F 		cmp	ip, #16
 3295 00f8 00F3C180 		bgt	.L288
 582:Lib/AI_Runtime/Npu/ll_aton/ll_aton.c ****       {
 3296              		.loc 1 582 12 is_stmt 1 view .LVU1019
 582:Lib/AI_Runtime/Npu/ll_aton/ll_aton.c ****       {
 3297              		.loc 1 582 15 is_stmt 0 view .LVU1020
 3298 00fc BCF1080F 		cmp	ip, #8
 3299              	.LVL353:
 3300              	.L297:
 618:Lib/AI_Runtime/Npu/ll_aton/ll_aton.c ****       {
 3301              		.loc 1 618 15 view .LVU1021
 3302 0100 40F3C180 		ble	.L289
 3303 0104 7346     		mov	r3, lr
 621:Lib/AI_Runtime/Npu/ll_aton/ll_aton.c ****       } // N.B. the DMA stuffs the bits to the left of the channel
 3304              		.loc 1 621 20 view .LVU1022
 3305 0106 8E46     		mov	lr, r1
 620:Lib/AI_Runtime/Npu/ll_aton/ll_aton.c ****         ch_bits[0] = out_bits[1];
 3306              		.loc 1 620 20 view .LVU1023
 3307 0108 1946     		mov	r1, r3
 533:Lib/AI_Runtime/Npu/ll_aton/ll_aton.c ****   int in_bits[3];
 3308              		.loc 1 533 7 view .LVU1024
 3309 010a 5B46     		mov	r3, fp
 3310              	.L269:
 3311              	.LVL354:
 631:Lib/AI_Runtime/Npu/ll_aton/ll_aton.c ****   t = ATON_STRENG_CTRL_SET_SIZE1(t, ch_bits[1]);
 3312              		.loc 1 631 3 is_stmt 1 view .LVU1025
 631:Lib/AI_Runtime/Npu/ll_aton/ll_aton.c ****   t = ATON_STRENG_CTRL_SET_SIZE1(t, ch_bits[1]);
 3313              		.loc 1 631 5 is_stmt 0 view .LVU1026
 3314 010c 47EA0E47 		orr	r7, r7, lr, lsl #16
 3315              	.LVL355:
 632:Lib/AI_Runtime/Npu/ll_aton/ll_aton.c ****   t = ATON_STRENG_CTRL_SET_SIZE2(t, ch_bits[2]);
 3316              		.loc 1 632 3 is_stmt 1 view .LVU1027
 632:Lib/AI_Runtime/Npu/ll_aton/ll_aton.c ****   t = ATON_STRENG_CTRL_SET_SIZE2(t, ch_bits[2]);
 3317              		.loc 1 632 5 is_stmt 0 view .LVU1028
 3318 0110 47EA0157 		orr	r7, r7, r1, lsl #20
 3319              	.LVL356:
 633:Lib/AI_Runtime/Npu/ll_aton/ll_aton.c **** #else
 3320              		.loc 1 633 3 is_stmt 1 view .LVU1029
 641:Lib/AI_Runtime/Npu/ll_aton/ll_aton.c **** 
 3321              		.loc 1 641 3 is_stmt 0 discriminator 1 view .LVU1030
 3322 0114 2D03     		lsls	r5, r5, #12
 3323              	.LVL357:
 633:Lib/AI_Runtime/Npu/ll_aton/ll_aton.c **** #else
 3324              		.loc 1 633 5 view .LVU1031
 3325 0116 47EA0367 		orr	r7, r7, r3, lsl #24
ARM GAS  C:\Users\DJESSOU\AppData\Local\Temp\ccFxekaC.s 			page 121


 3326              	.LVL358:
 641:Lib/AI_Runtime/Npu/ll_aton/ll_aton.c **** 
 3327              		.loc 1 641 3 is_stmt 1 view .LVU1032
 641:Lib/AI_Runtime/Npu/ll_aton/ll_aton.c **** 
 3328              		.loc 1 641 3 view .LVU1033
 641:Lib/AI_Runtime/Npu/ll_aton/ll_aton.c **** 
 3329              		.loc 1 641 3 view .LVU1034
 641:Lib/AI_Runtime/Npu/ll_aton/ll_aton.c **** 
 3330              		.loc 1 641 3 is_stmt 0 discriminator 1 view .LVU1035
 3331 011a 05F1B043 		add	r3, r5, #1476395008
 3332              	.LVL359:
 641:Lib/AI_Runtime/Npu/ll_aton/ll_aton.c **** 
 3333              		.loc 1 641 3 discriminator 1 view .LVU1036
 3334 011e 03F56523 		add	r3, r3, #937984
 641:Lib/AI_Runtime/Npu/ll_aton/ll_aton.c **** 
 3335              		.loc 1 641 3 discriminator 4 view .LVU1037
 3336 0122 1F60     		str	r7, [r3]
 641:Lib/AI_Runtime/Npu/ll_aton/ll_aton.c **** 
 3337              		.loc 1 641 3 is_stmt 1 discriminator 4 view .LVU1038
 641:Lib/AI_Runtime/Npu/ll_aton/ll_aton.c **** 
 3338              		.loc 1 641 3 discriminator 4 view .LVU1039
 644:Lib/AI_Runtime/Npu/ll_aton/ll_aton.c ****                        conf->offset_start);
 3339              		.loc 1 644 3 view .LVU1040
 644:Lib/AI_Runtime/Npu/ll_aton/ll_aton.c ****                        conf->offset_start);
 3340              		.loc 1 644 3 view .LVU1041
 644:Lib/AI_Runtime/Npu/ll_aton/ll_aton.c ****                        conf->offset_start);
 3341              		.loc 1 644 3 is_stmt 0 discriminator 4 view .LVU1042
 3342 0124 644B     		ldr	r3, .L298
 644:Lib/AI_Runtime/Npu/ll_aton/ll_aton.c ****                        conf->offset_start);
 3343              		.loc 1 644 3 view .LVU1043
 3344 0126 D4E90179 		ldrd	r7, r9, [r4, #4]
 3345              	.LVL360:
 644:Lib/AI_Runtime/Npu/ll_aton/ll_aton.c ****                        conf->offset_start);
 3346              		.loc 1 644 3 discriminator 4 view .LVU1044
 3347 012a 07EB0901 		add	r1, r7, r9
 3348              	.LVL361:
 644:Lib/AI_Runtime/Npu/ll_aton/ll_aton.c ****                        conf->offset_start);
 3349              		.loc 1 644 3 discriminator 4 view .LVU1045
 3350 012e E950     		str	r1, [r5, r3]
 3351              	.LVL362:
 644:Lib/AI_Runtime/Npu/ll_aton/ll_aton.c ****                        conf->offset_start);
 3352              		.loc 1 644 3 is_stmt 1 discriminator 4 view .LVU1046
 647:Lib/AI_Runtime/Npu/ll_aton/ll_aton.c ****   {
 3353              		.loc 1 647 3 view .LVU1047
 647:Lib/AI_Runtime/Npu/ll_aton/ll_aton.c ****   {
 3354              		.loc 1 647 6 is_stmt 0 view .LVU1048
 3355 0130 8307     		lsls	r3, r0, #30
 3356              	.LBB50:
 665:Lib/AI_Runtime/Npu/ll_aton/ll_aton.c ****     // if line_offset is left=0 then it's computed from the standard geometry of lines and batch
 3357              		.loc 1 665 72 discriminator 1 view .LVU1049
 3358 0132 616A     		ldr	r1, [r4, #36]
 3359              	.LBE50:
 656:Lib/AI_Runtime/Npu/ll_aton/ll_aton.c ****   }
 3360              		.loc 1 656 5 discriminator 1 view .LVU1050
 3361 0134 DFF8A4E1 		ldr	lr, .L298+36
 3362              	.LVL363:
 647:Lib/AI_Runtime/Npu/ll_aton/ll_aton.c ****   {
ARM GAS  C:\Users\DJESSOU\AppData\Local\Temp\ccFxekaC.s 			page 122


 3363              		.loc 1 647 6 view .LVU1051
 3364 0138 40F1A880 		bpl	.L273
 649:Lib/AI_Runtime/Npu/ll_aton/ll_aton.c ****       t = conf->frame_count;
 3365              		.loc 1 649 5 is_stmt 1 view .LVU1052
 649:Lib/AI_Runtime/Npu/ll_aton/ll_aton.c ****       t = conf->frame_count;
 3366              		.loc 1 649 13 is_stmt 0 view .LVU1053
 3367 013c 6369     		ldr	r3, [r4, #20]
 649:Lib/AI_Runtime/Npu/ll_aton/ll_aton.c ****       t = conf->frame_count;
 3368              		.loc 1 649 8 view .LVU1054
 3369 013e 4BB9     		cbnz	r3, .L274
 654:Lib/AI_Runtime/Npu/ll_aton/ll_aton.c ****     }
 3370              		.loc 1 654 7 is_stmt 1 view .LVU1055
 3371              	.LVL364:
 3372              	.LBB51:
 3373              	.LBI51:
 3374              		.file 2 "Lib/AI_Runtime/Npu/ll_aton/ll_aton.h"
   1:Lib/AI_Runtime/Npu/ll_aton/ll_aton.h **** /**
   2:Lib/AI_Runtime/Npu/ll_aton/ll_aton.h ****  ******************************************************************************
   3:Lib/AI_Runtime/Npu/ll_aton/ll_aton.h ****  * @file    ll_aton.h
   4:Lib/AI_Runtime/Npu/ll_aton/ll_aton.h ****  * @author  SRA Artificial Intelligence & Embedded Architectures
   5:Lib/AI_Runtime/Npu/ll_aton/ll_aton.h ****  * @brief   Header file of ATON LL module.
   6:Lib/AI_Runtime/Npu/ll_aton/ll_aton.h ****  ******************************************************************************
   7:Lib/AI_Runtime/Npu/ll_aton/ll_aton.h ****  * @attention
   8:Lib/AI_Runtime/Npu/ll_aton/ll_aton.h ****  *
   9:Lib/AI_Runtime/Npu/ll_aton/ll_aton.h ****  * Copyright (c) 2024 STMicroelectronics.
  10:Lib/AI_Runtime/Npu/ll_aton/ll_aton.h ****  * All rights reserved.
  11:Lib/AI_Runtime/Npu/ll_aton/ll_aton.h ****  *
  12:Lib/AI_Runtime/Npu/ll_aton/ll_aton.h ****  * This software is licensed under terms that can be found in the LICENSE file
  13:Lib/AI_Runtime/Npu/ll_aton/ll_aton.h ****  * in the root directory of this software component.
  14:Lib/AI_Runtime/Npu/ll_aton/ll_aton.h ****  * If no LICENSE file comes with this software, it is provided AS-IS.
  15:Lib/AI_Runtime/Npu/ll_aton/ll_aton.h ****  *
  16:Lib/AI_Runtime/Npu/ll_aton/ll_aton.h ****  ******************************************************************************
  17:Lib/AI_Runtime/Npu/ll_aton/ll_aton.h ****  */
  18:Lib/AI_Runtime/Npu/ll_aton/ll_aton.h **** 
  19:Lib/AI_Runtime/Npu/ll_aton/ll_aton.h **** #ifndef __LL_ATON_H
  20:Lib/AI_Runtime/Npu/ll_aton/ll_aton.h **** #define __LL_ATON_H
  21:Lib/AI_Runtime/Npu/ll_aton/ll_aton.h **** 
  22:Lib/AI_Runtime/Npu/ll_aton/ll_aton.h **** #ifdef __cplusplus
  23:Lib/AI_Runtime/Npu/ll_aton/ll_aton.h **** extern "C"
  24:Lib/AI_Runtime/Npu/ll_aton/ll_aton.h **** {
  25:Lib/AI_Runtime/Npu/ll_aton/ll_aton.h **** #endif
  26:Lib/AI_Runtime/Npu/ll_aton/ll_aton.h **** 
  27:Lib/AI_Runtime/Npu/ll_aton/ll_aton.h **** #include <stddef.h>
  28:Lib/AI_Runtime/Npu/ll_aton/ll_aton.h **** #include <stdint.h>
  29:Lib/AI_Runtime/Npu/ll_aton/ll_aton.h **** 
  30:Lib/AI_Runtime/Npu/ll_aton/ll_aton.h **** #include "ll_aton_attributes.h"
  31:Lib/AI_Runtime/Npu/ll_aton/ll_aton.h **** #include "ll_aton_config.h"
  32:Lib/AI_Runtime/Npu/ll_aton/ll_aton.h **** #include "ll_aton_util.h"
  33:Lib/AI_Runtime/Npu/ll_aton/ll_aton.h **** 
  34:Lib/AI_Runtime/Npu/ll_aton/ll_aton.h **** #if (LL_ATON_PLATFORM != LL_ATON_PLAT_EC_TRACE)
  35:Lib/AI_Runtime/Npu/ll_aton/ll_aton.h **** #include "ll_aton_osal.h"
  36:Lib/AI_Runtime/Npu/ll_aton/ll_aton.h **** #include "ll_aton_platform.h"
  37:Lib/AI_Runtime/Npu/ll_aton/ll_aton.h **** #endif // LL_ATON_PLATFORM != LL_ATON_PLAT_EC_TRACE
  38:Lib/AI_Runtime/Npu/ll_aton/ll_aton.h **** 
  39:Lib/AI_Runtime/Npu/ll_aton/ll_aton.h **** /** @defgroup ATON_LL ATON_LL_Driver
  40:Lib/AI_Runtime/Npu/ll_aton/ll_aton.h ****  * @{
  41:Lib/AI_Runtime/Npu/ll_aton/ll_aton.h ****  */
ARM GAS  C:\Users\DJESSOU\AppData\Local\Temp\ccFxekaC.s 			page 123


  42:Lib/AI_Runtime/Npu/ll_aton/ll_aton.h **** 
  43:Lib/AI_Runtime/Npu/ll_aton/ll_aton.h **** /* LL ATON error codes */
  44:Lib/AI_Runtime/Npu/ll_aton/ll_aton.h **** #define LL_ATON_OK            (0)
  45:Lib/AI_Runtime/Npu/ll_aton/ll_aton.h **** #define LL_ATON_INVALID_ID    (-1)
  46:Lib/AI_Runtime/Npu/ll_aton/ll_aton.h **** #define LL_ATON_INVALID_PARAM (-2)
  47:Lib/AI_Runtime/Npu/ll_aton/ll_aton.h **** #define LL_ATON_TIMEOUT       (-3)
  48:Lib/AI_Runtime/Npu/ll_aton/ll_aton.h **** 
  49:Lib/AI_Runtime/Npu/ll_aton/ll_aton.h ****   /* this is needed to avoid some compilers (e.g. KEIL) that observe a strict semantic about conver
  50:Lib/AI_Runtime/Npu/ll_aton/ll_aton.h ****    * pointers to integers in const initializers
  51:Lib/AI_Runtime/Npu/ll_aton/ll_aton.h ****    */
  52:Lib/AI_Runtime/Npu/ll_aton/ll_aton.h ****   typedef union
  53:Lib/AI_Runtime/Npu/ll_aton/ll_aton.h ****   {
  54:Lib/AI_Runtime/Npu/ll_aton/ll_aton.h ****     unsigned char *p;
  55:Lib/AI_Runtime/Npu/ll_aton/ll_aton.h ****     uintptr_t i;
  56:Lib/AI_Runtime/Npu/ll_aton/ll_aton.h ****   } ll_aton_pointer;
  57:Lib/AI_Runtime/Npu/ll_aton/ll_aton.h **** 
  58:Lib/AI_Runtime/Npu/ll_aton/ll_aton.h ****   /* Method that translates an address from physical to virtual */
  59:Lib/AI_Runtime/Npu/ll_aton/ll_aton.h ****   unsigned char *LL_Address_Physical2Virtual(unsigned char *address);
  60:Lib/AI_Runtime/Npu/ll_aton/ll_aton.h **** 
  61:Lib/AI_Runtime/Npu/ll_aton/ll_aton.h ****   /* Method that translates an address from virtual to physical */
  62:Lib/AI_Runtime/Npu/ll_aton/ll_aton.h ****   unsigned char *LL_Address_Virtual2Physical(unsigned char *address);
  63:Lib/AI_Runtime/Npu/ll_aton/ll_aton.h **** 
  64:Lib/AI_Runtime/Npu/ll_aton/ll_aton.h **** /**
  65:Lib/AI_Runtime/Npu/ll_aton/ll_aton.h ****  * @brief ATON User Configuration macros
  66:Lib/AI_Runtime/Npu/ll_aton/ll_aton.h ****  */
  67:Lib/AI_Runtime/Npu/ll_aton/ll_aton.h **** /* Set beyond macro to 1 if you want to enable the generation of ATON event interrupts */
  68:Lib/AI_Runtime/Npu/ll_aton/ll_aton.h **** #ifndef LL_ATON_EN_EVENT_IRQ
  69:Lib/AI_Runtime/Npu/ll_aton/ll_aton.h **** #define LL_ATON_EN_EVENT_IRQ 1
  70:Lib/AI_Runtime/Npu/ll_aton/ll_aton.h **** #endif
  71:Lib/AI_Runtime/Npu/ll_aton/ll_aton.h **** 
  72:Lib/AI_Runtime/Npu/ll_aton/ll_aton.h **** /* Set beyond macro to 1 if you want to enable the generation of ATON configuration error interrupt
  73:Lib/AI_Runtime/Npu/ll_aton/ll_aton.h **** #ifndef LL_ATON_EN_ERROR_IRQ
  74:Lib/AI_Runtime/Npu/ll_aton/ll_aton.h **** #define LL_ATON_EN_ERROR_IRQ 1
  75:Lib/AI_Runtime/Npu/ll_aton/ll_aton.h **** #endif
  76:Lib/AI_Runtime/Npu/ll_aton/ll_aton.h **** 
  77:Lib/AI_Runtime/Npu/ll_aton/ll_aton.h ****   /** @defgroup ATON_INIT ATON Global initialization/deinitialization functions
  78:Lib/AI_Runtime/Npu/ll_aton/ll_aton.h ****    * @{
  79:Lib/AI_Runtime/Npu/ll_aton/ll_aton.h ****    */
  80:Lib/AI_Runtime/Npu/ll_aton/ll_aton.h ****   int LL_ATON_Init(void);
  81:Lib/AI_Runtime/Npu/ll_aton/ll_aton.h ****   int LL_ATON_DeInit(void);
  82:Lib/AI_Runtime/Npu/ll_aton/ll_aton.h ****   /**
  83:Lib/AI_Runtime/Npu/ll_aton/ll_aton.h ****    * @}
  84:Lib/AI_Runtime/Npu/ll_aton/ll_aton.h ****    */
  85:Lib/AI_Runtime/Npu/ll_aton/ll_aton.h **** 
  86:Lib/AI_Runtime/Npu/ll_aton/ll_aton.h ****   /**
  87:Lib/AI_Runtime/Npu/ll_aton/ll_aton.h ****    * @brief List of acceleration units types
  88:Lib/AI_Runtime/Npu/ll_aton/ll_aton.h ****    */
  89:Lib/AI_Runtime/Npu/ll_aton/ll_aton.h ****   enum AccelUnitsType
  90:Lib/AI_Runtime/Npu/ll_aton/ll_aton.h ****   {
  91:Lib/AI_Runtime/Npu/ll_aton/ll_aton.h ****     STRENG = 0,
  92:Lib/AI_Runtime/Npu/ll_aton/ll_aton.h ****     STRENG64,
  93:Lib/AI_Runtime/Npu/ll_aton/ll_aton.h ****     CONVACC,
  94:Lib/AI_Runtime/Npu/ll_aton/ll_aton.h ****     DECUN,
  95:Lib/AI_Runtime/Npu/ll_aton/ll_aton.h ****     ACTIV,
  96:Lib/AI_Runtime/Npu/ll_aton/ll_aton.h ****     ARITH,
  97:Lib/AI_Runtime/Npu/ll_aton/ll_aton.h ****     POOL,
  98:Lib/AI_Runtime/Npu/ll_aton/ll_aton.h ****     IMC,
ARM GAS  C:\Users\DJESSOU\AppData\Local\Temp\ccFxekaC.s 			page 124


  99:Lib/AI_Runtime/Npu/ll_aton/ll_aton.h ****     RECBUF,
 100:Lib/AI_Runtime/Npu/ll_aton/ll_aton.h ****   };
 101:Lib/AI_Runtime/Npu/ll_aton/ll_aton.h **** 
 102:Lib/AI_Runtime/Npu/ll_aton/ll_aton.h ****   typedef struct
 103:Lib/AI_Runtime/Npu/ll_aton/ll_aton.h ****   {
 104:Lib/AI_Runtime/Npu/ll_aton/ll_aton.h ****     enum AccelUnitsType unit_type;
 105:Lib/AI_Runtime/Npu/ll_aton/ll_aton.h ****     unsigned short unit_num;
 106:Lib/AI_Runtime/Npu/ll_aton/ll_aton.h ****   } AccelUnits;
 107:Lib/AI_Runtime/Npu/ll_aton/ll_aton.h **** 
 108:Lib/AI_Runtime/Npu/ll_aton/ll_aton.h ****   /**
 109:Lib/AI_Runtime/Npu/ll_aton/ll_aton.h ****    * @brief  Converts an Aton unit cardinal group id into a global one
 110:Lib/AI_Runtime/Npu/ll_aton/ll_aton.h ****    * @param  type enum specifying the unit group
 111:Lib/AI_Runtime/Npu/ll_aton/ll_aton.h ****    * @param  id Cardinal id of the unit in the group
 112:Lib/AI_Runtime/Npu/ll_aton/ll_aton.h ****    * @retval ATON Unit index
 113:Lib/AI_Runtime/Npu/ll_aton/ll_aton.h ****    * @todo   Add boundary checks
 114:Lib/AI_Runtime/Npu/ll_aton/ll_aton.h ****    */
 115:Lib/AI_Runtime/Npu/ll_aton/ll_aton.h ****   static inline AccelUnits LL_ATON_GetUnit_From_Cardinal_ID(enum AccelUnitsType type, int id)
 116:Lib/AI_Runtime/Npu/ll_aton/ll_aton.h ****   {
 117:Lib/AI_Runtime/Npu/ll_aton/ll_aton.h ****     return (AccelUnits){type, (unsigned short)id};
 118:Lib/AI_Runtime/Npu/ll_aton/ll_aton.h ****   }
 119:Lib/AI_Runtime/Npu/ll_aton/ll_aton.h **** 
 120:Lib/AI_Runtime/Npu/ll_aton/ll_aton.h ****   /**
 121:Lib/AI_Runtime/Npu/ll_aton/ll_aton.h ****    * @brief Activation Unit function types
 122:Lib/AI_Runtime/Npu/ll_aton/ll_aton.h ****    */
 123:Lib/AI_Runtime/Npu/ll_aton/ll_aton.h ****   typedef enum
 124:Lib/AI_Runtime/Npu/ll_aton/ll_aton.h ****   {
 125:Lib/AI_Runtime/Npu/ll_aton/ll_aton.h ****     ACTIV_RELU = 1,
 126:Lib/AI_Runtime/Npu/ll_aton/ll_aton.h ****     ACTIV_PRELU,
 127:Lib/AI_Runtime/Npu/ll_aton/ll_aton.h ****     ACTIV_TRELU,
 128:Lib/AI_Runtime/Npu/ll_aton/ll_aton.h ****     ACTIV_FUNC,
 129:Lib/AI_Runtime/Npu/ll_aton/ll_aton.h ****     ACTIV_LUT
 130:Lib/AI_Runtime/Npu/ll_aton/ll_aton.h ****   } LL_Activacc_Op;
 131:Lib/AI_Runtime/Npu/ll_aton/ll_aton.h **** 
 132:Lib/AI_Runtime/Npu/ll_aton/ll_aton.h ****   /**
 133:Lib/AI_Runtime/Npu/ll_aton/ll_aton.h ****    * @brief Activation unit Accelerator configuration structure
 134:Lib/AI_Runtime/Npu/ll_aton/ll_aton.h ****    */
 135:Lib/AI_Runtime/Npu/ll_aton/ll_aton.h ****   typedef struct
 136:Lib/AI_Runtime/Npu/ll_aton/ll_aton.h ****   {
 137:Lib/AI_Runtime/Npu/ll_aton/ll_aton.h ****     unsigned rounding_f : 1;     /**< Input feature data rounding control: 1=enable,0=disable */
 138:Lib/AI_Runtime/Npu/ll_aton/ll_aton.h ****     unsigned saturation_f : 1;   /**< Input feature data saturation control: 1=enable,0=disable */
 139:Lib/AI_Runtime/Npu/ll_aton/ll_aton.h ****     unsigned round_mode_f : 2;   /**< Input feature round mode */
 140:Lib/AI_Runtime/Npu/ll_aton/ll_aton.h ****     unsigned inbytes_f : 2;      /**< Input data width in bytes. Valid values are 1, 2 or 3 bytes *
 141:Lib/AI_Runtime/Npu/ll_aton/ll_aton.h ****     unsigned outbytes_f : 2;     /**< Input feature output bytes after shift. Valid values are 1 or
 142:Lib/AI_Runtime/Npu/ll_aton/ll_aton.h ****     unsigned rounding_o : 1;     /**< Output rounding control, 1=enable,0=disable */
 143:Lib/AI_Runtime/Npu/ll_aton/ll_aton.h ****     unsigned saturation_o : 1;   /**< Output saturation control,1=enable,0=disable */
 144:Lib/AI_Runtime/Npu/ll_aton/ll_aton.h ****     unsigned round_mode_o : 1;   /**< Output rounding mode */
 145:Lib/AI_Runtime/Npu/ll_aton/ll_aton.h ****     unsigned relu_mode_o : 1;    /**< Apply Relu operation before rounding */
 146:Lib/AI_Runtime/Npu/ll_aton/ll_aton.h ****     unsigned outbytes_o : 2;     /**< Number of output bytes: 1, 2 or 3 */
 147:Lib/AI_Runtime/Npu/ll_aton/ll_aton.h ****     unsigned signedop : 1;       /**< Signed/unsigned activations: 0: unsigned activations, 1 signe
 148:Lib/AI_Runtime/Npu/ll_aton/ll_aton.h ****     unsigned char shift_f;       /**< Input feature data shift. Negative values represent left shif
 149:Lib/AI_Runtime/Npu/ll_aton/ll_aton.h ****     unsigned char shift_o;       /**< Optional right shift to be applied to the function evaluator 
 150:Lib/AI_Runtime/Npu/ll_aton/ll_aton.h ****     unsigned parameter;          /**< ReLU parameter */
 151:Lib/AI_Runtime/Npu/ll_aton/ll_aton.h ****     unsigned parameter_2;        /**< Zero offset for TRELU operation for use in scale/offset integ
 152:Lib/AI_Runtime/Npu/ll_aton/ll_aton.h ****                                   *   Needs zp alignment */
 153:Lib/AI_Runtime/Npu/ll_aton/ll_aton.h ****     unsigned nbytes;             /**< Number of bytes of input data  */
 154:Lib/AI_Runtime/Npu/ll_aton/ll_aton.h ****     ll_aton_pointer ROM0_vector; /**< Address of ROM0 coefficients table */
 155:Lib/AI_Runtime/Npu/ll_aton/ll_aton.h ****     ll_aton_pointer ROM1_vector; /**< Address of ROM1 coefficients table */
ARM GAS  C:\Users\DJESSOU\AppData\Local\Temp\ccFxekaC.s 			page 125


 156:Lib/AI_Runtime/Npu/ll_aton/ll_aton.h ****     ll_aton_pointer LUT_vector;  /**< Address of LUT coefficients table */
 157:Lib/AI_Runtime/Npu/ll_aton/ll_aton.h ****     unsigned ROM0_nbytes;        /**< Length of ROM0 table */
 158:Lib/AI_Runtime/Npu/ll_aton/ll_aton.h ****     unsigned ROM1_nbytes;        /**< Length of ROM1 table */
 159:Lib/AI_Runtime/Npu/ll_aton/ll_aton.h ****     unsigned char shift_b;       /**< Optional left shift to be applied to coefficient B */
 160:Lib/AI_Runtime/Npu/ll_aton/ll_aton.h ****     unsigned char shift_c;       /**< Optional left shift to be applied to coefficient C */
 161:Lib/AI_Runtime/Npu/ll_aton/ll_aton.h ****     unsigned char shift_norm;    /**< Function input range normalization left shift parameter */
 162:Lib/AI_Runtime/Npu/ll_aton/ll_aton.h ****     unsigned char bwidth;        /**< Number of MSB bits of the input activation to be used to addr
 163:Lib/AI_Runtime/Npu/ll_aton/ll_aton.h ****                                   *   This field configures the number of outer segments (max outer
 164:Lib/AI_Runtime/Npu/ll_aton/ll_aton.h ****                                   *   Valid values range = 0,1,2,3,4 and 5 corresponding to 1,2,4,8
 165:Lib/AI_Runtime/Npu/ll_aton/ll_aton.h ****                                   *   respectively */
 166:Lib/AI_Runtime/Npu/ll_aton/ll_aton.h ****     int fsub;                    /**< Feature data subtract value */
 167:Lib/AI_Runtime/Npu/ll_aton/ll_aton.h ****     LL_Activacc_Op operation;    /**< Activation type. See LL_Activacc_Op */
 168:Lib/AI_Runtime/Npu/ll_aton/ll_aton.h ****   } LL_Activacc_InitTypeDef;
 169:Lib/AI_Runtime/Npu/ll_aton/ll_aton.h **** 
 170:Lib/AI_Runtime/Npu/ll_aton/ll_aton.h ****   /** @defgroup LL_ACTIV Activation unit configuration functions
 171:Lib/AI_Runtime/Npu/ll_aton/ll_aton.h ****    * @{
 172:Lib/AI_Runtime/Npu/ll_aton/ll_aton.h ****    */
 173:Lib/AI_Runtime/Npu/ll_aton/ll_aton.h ****   int LL_Activacc_Init(int id, const LL_Activacc_InitTypeDef *Activacc_InitStruct);
 174:Lib/AI_Runtime/Npu/ll_aton/ll_aton.h ****   /**
 175:Lib/AI_Runtime/Npu/ll_aton/ll_aton.h ****    * @}
 176:Lib/AI_Runtime/Npu/ll_aton/ll_aton.h ****    */
 177:Lib/AI_Runtime/Npu/ll_aton/ll_aton.h **** 
 178:Lib/AI_Runtime/Npu/ll_aton/ll_aton.h ****   /**
 179:Lib/AI_Runtime/Npu/ll_aton/ll_aton.h ****    * @brief Arithmetic unit operations
 180:Lib/AI_Runtime/Npu/ll_aton/ll_aton.h ****    */
 181:Lib/AI_Runtime/Npu/ll_aton/ll_aton.h ****   typedef enum
 182:Lib/AI_Runtime/Npu/ll_aton/ll_aton.h ****   {
 183:Lib/AI_Runtime/Npu/ll_aton/ll_aton.h ****     ARITH_AFFINE = 1,
 184:Lib/AI_Runtime/Npu/ll_aton/ll_aton.h ****     ARITH_MIN,
 185:Lib/AI_Runtime/Npu/ll_aton/ll_aton.h ****     ARITH_MAX,
 186:Lib/AI_Runtime/Npu/ll_aton/ll_aton.h ****     ARITH_MUL,
 187:Lib/AI_Runtime/Npu/ll_aton/ll_aton.h ****     ARITH_X_AND_Y,
 188:Lib/AI_Runtime/Npu/ll_aton/ll_aton.h ****     ARITH_X_OR_Y,
 189:Lib/AI_Runtime/Npu/ll_aton/ll_aton.h ****     ARITH_NOT_X,
 190:Lib/AI_Runtime/Npu/ll_aton/ll_aton.h ****     ARITH_X_XOR_Y,
 191:Lib/AI_Runtime/Npu/ll_aton/ll_aton.h ****     ARITH_X_EQ_Y,
 192:Lib/AI_Runtime/Npu/ll_aton/ll_aton.h ****     ARITH_X_LT_Y,
 193:Lib/AI_Runtime/Npu/ll_aton/ll_aton.h ****     ARITH_X_LE_Y,
 194:Lib/AI_Runtime/Npu/ll_aton/ll_aton.h ****     ARITH_X_GT_Y,
 195:Lib/AI_Runtime/Npu/ll_aton/ll_aton.h ****     ARITH_X_GE_Y,
 196:Lib/AI_Runtime/Npu/ll_aton/ll_aton.h ****     ARITH_ABS_X,
 197:Lib/AI_Runtime/Npu/ll_aton/ll_aton.h ****     ARITH_SIGN_X,
 198:Lib/AI_Runtime/Npu/ll_aton/ll_aton.h ****     ARITH_CLIP
 199:Lib/AI_Runtime/Npu/ll_aton/ll_aton.h ****   } LL_Arithacc_Op;
 200:Lib/AI_Runtime/Npu/ll_aton/ll_aton.h **** 
 201:Lib/AI_Runtime/Npu/ll_aton/ll_aton.h ****   /**
 202:Lib/AI_Runtime/Npu/ll_aton/ll_aton.h ****    * @brief Arithmetic constant broadcast modes
 203:Lib/AI_Runtime/Npu/ll_aton/ll_aton.h ****    */
 204:Lib/AI_Runtime/Npu/ll_aton/ll_aton.h ****   typedef enum
 205:Lib/AI_Runtime/Npu/ll_aton/ll_aton.h ****   {
 206:Lib/AI_Runtime/Npu/ll_aton/ll_aton.h ****     ARITH_BCAST_NONE,
 207:Lib/AI_Runtime/Npu/ll_aton/ll_aton.h ****     ARITH_BCAST_CHAN,
 208:Lib/AI_Runtime/Npu/ll_aton/ll_aton.h ****     ARITH_BCAST_HEIGHT,
 209:Lib/AI_Runtime/Npu/ll_aton/ll_aton.h ****     ARITH_BCAST_WIDTH,
 210:Lib/AI_Runtime/Npu/ll_aton/ll_aton.h ****     ARITH_BCAST_HEIGHT_WIDTH,
 211:Lib/AI_Runtime/Npu/ll_aton/ll_aton.h ****     ARITH_BCAST_SCALAR,
 212:Lib/AI_Runtime/Npu/ll_aton/ll_aton.h ****   } LL_Arithacc_Bcast;
ARM GAS  C:\Users\DJESSOU\AppData\Local\Temp\ccFxekaC.s 			page 126


 213:Lib/AI_Runtime/Npu/ll_aton/ll_aton.h **** 
 214:Lib/AI_Runtime/Npu/ll_aton/ll_aton.h ****   /**
 215:Lib/AI_Runtime/Npu/ll_aton/ll_aton.h ****    *	@brief Arithmetic unit Accelerator configuration structure
 216:Lib/AI_Runtime/Npu/ll_aton/ll_aton.h ****    */
 217:Lib/AI_Runtime/Npu/ll_aton/ll_aton.h ****   typedef struct
 218:Lib/AI_Runtime/Npu/ll_aton/ll_aton.h ****   {
 219:Lib/AI_Runtime/Npu/ll_aton/ll_aton.h ****     unsigned rounding_x : 1;   /**< Input feature data rounding for stream X */
 220:Lib/AI_Runtime/Npu/ll_aton/ll_aton.h ****     unsigned saturation_x : 1; /**< Input feature data saturation for stream X */
 221:Lib/AI_Runtime/Npu/ll_aton/ll_aton.h ****     unsigned round_mode_x : 2; /**< Input feature data rounding mode for stream X */
 222:Lib/AI_Runtime/Npu/ll_aton/ll_aton.h ****     unsigned inbytes_x : 2;    /**< Input data width in bytes for stream X. Valid values are 1, 2 o
 223:Lib/AI_Runtime/Npu/ll_aton/ll_aton.h ****     unsigned outbytes_x : 2;   /**< Number of output bytes to use for input feature data of stream 
 224:Lib/AI_Runtime/Npu/ll_aton/ll_aton.h ****                                 *  saturation. Valid values are 1 or 2 bytes */
 225:Lib/AI_Runtime/Npu/ll_aton/ll_aton.h ****     signed char shift_x;       /**< Input feature data shift for stream X. Use negative values for 
 226:Lib/AI_Runtime/Npu/ll_aton/ll_aton.h ****     unsigned rounding_y : 1;   /**< Input feature data rounding for stream Y */
 227:Lib/AI_Runtime/Npu/ll_aton/ll_aton.h ****     unsigned saturation_y : 1; /**< Input feature data saturation for stream Y */
 228:Lib/AI_Runtime/Npu/ll_aton/ll_aton.h ****     unsigned round_mode_y : 2; /**< Input feature data rounding mode for stream Y */
 229:Lib/AI_Runtime/Npu/ll_aton/ll_aton.h ****     unsigned inbytes_y : 2;    /**< Input data width in bytes for stream Y. Valid values are 1, 2 o
 230:Lib/AI_Runtime/Npu/ll_aton/ll_aton.h ****     unsigned outbytes_y : 2;   /**< Number of output bytes to use for input feature data of stream 
 231:Lib/AI_Runtime/Npu/ll_aton/ll_aton.h ****                                 *  saturation. Valid values are 1 or 2 bytes */
 232:Lib/AI_Runtime/Npu/ll_aton/ll_aton.h ****     unsigned combinebc : 1;    /**< Combine coeff B and C to form a 32b coeff BC = {B[15:0],C[15:0]
 233:Lib/AI_Runtime/Npu/ll_aton/ll_aton.h ****     unsigned clipout : 1;      /**< Controls output clipping to range specified by clip range confi
 234:Lib/AI_Runtime/Npu/ll_aton/ll_aton.h ****                                 *  0=disable */
 235:Lib/AI_Runtime/Npu/ll_aton/ll_aton.h ****     signed char shift_y;       /**< Input feature data shift for stream Y. Use negative values for 
 236:Lib/AI_Runtime/Npu/ll_aton/ll_aton.h ****     unsigned rounding_o : 1;   /**< Rounding control, 1=enable, 0=disable */
 237:Lib/AI_Runtime/Npu/ll_aton/ll_aton.h ****     unsigned saturation_o : 1; /**< Saturation control, 1=enable, 0=disable */
 238:Lib/AI_Runtime/Npu/ll_aton/ll_aton.h ****     unsigned round_mode_o : 1; /**< Output rounding mode control */
 239:Lib/AI_Runtime/Npu/ll_aton/ll_aton.h ****     unsigned relu_mode_o : 1;  /**< Apply Relu operation before rounding */
 240:Lib/AI_Runtime/Npu/ll_aton/ll_aton.h ****     unsigned outbytes_o : 2;   /**< Number of output bytes: 1 or 2 */
 241:Lib/AI_Runtime/Npu/ll_aton/ll_aton.h ****     unsigned char shift_o;     /**< Optional right shift to apply to final result of operation */
 242:Lib/AI_Runtime/Npu/ll_aton/ll_aton.h ****     unsigned scalar : 1;       /**< Set Scalar/Vector mode */
 243:Lib/AI_Runtime/Npu/ll_aton/ll_aton.h ****     unsigned dualinput : 1;    /**< Dual input control, 1=both X,Y streams valid, 0=only X stream i
 244:Lib/AI_Runtime/Npu/ll_aton/ll_aton.h ****     LL_Arithacc_Op operation;  /**< Arithmetic operation to be applied. See LL_Arithacc_Op */
 245:Lib/AI_Runtime/Npu/ll_aton/ll_aton.h ****     LL_Arithacc_Bcast bcast;   /**< Set constant broadcast modes. See LL_Arithacc_Bcast */
 246:Lib/AI_Runtime/Npu/ll_aton/ll_aton.h ****     unsigned char Ax_shift;    /**< Optional right shift to result of Ax */
 247:Lib/AI_Runtime/Npu/ll_aton/ll_aton.h ****     unsigned char By_shift;    /**< Optional right shift to result of By */
 248:Lib/AI_Runtime/Npu/ll_aton/ll_aton.h ****     unsigned char C_shift;     /**< Optional left shift to apply to C */
 249:Lib/AI_Runtime/Npu/ll_aton/ll_aton.h ****     unsigned fWidth;           /**< Feature width */
 250:Lib/AI_Runtime/Npu/ll_aton/ll_aton.h ****     unsigned fHeight;          /**< Feature height */
 251:Lib/AI_Runtime/Npu/ll_aton/ll_aton.h ****     unsigned short fChannels;  /**< Number of feature channels */
 252:Lib/AI_Runtime/Npu/ll_aton/ll_aton.h ****     unsigned short batchDepth; /**< Batch depth */
 253:Lib/AI_Runtime/Npu/ll_aton/ll_aton.h ****     short clipmin;             /**< Signed 16b value specifying output clip min */
 254:Lib/AI_Runtime/Npu/ll_aton/ll_aton.h ****     short clipmax;             /**< Signed 16b value specifying output clip max */
 255:Lib/AI_Runtime/Npu/ll_aton/ll_aton.h ****     short A_scalar;            /**< Scalar coefficient A */
 256:Lib/AI_Runtime/Npu/ll_aton/ll_aton.h ****     short B_scalar;            /**< Scalar coefficient B */
 257:Lib/AI_Runtime/Npu/ll_aton/ll_aton.h ****     short C_scalar;            /**< Scalar coefficient C */
 258:Lib/AI_Runtime/Npu/ll_aton/ll_aton.h ****     ll_aton_pointer A_vector;  /**< Address of A vector table */
 259:Lib/AI_Runtime/Npu/ll_aton/ll_aton.h ****     ll_aton_pointer B_vector;  /**< Address of B vector table */
 260:Lib/AI_Runtime/Npu/ll_aton/ll_aton.h ****     ll_aton_pointer C_vector;  /**< Address of C vector table */
 261:Lib/AI_Runtime/Npu/ll_aton/ll_aton.h ****     unsigned char vec_precision[3]; /**< Number of bits for A, B and C vectors */
 262:Lib/AI_Runtime/Npu/ll_aton/ll_aton.h ****   } LL_Arithacc_InitTypeDef;
 263:Lib/AI_Runtime/Npu/ll_aton/ll_aton.h **** 
 264:Lib/AI_Runtime/Npu/ll_aton/ll_aton.h ****   /** @defgroup LL_ARITH Arithmetic Unit configuration functions
 265:Lib/AI_Runtime/Npu/ll_aton/ll_aton.h ****    * @{
 266:Lib/AI_Runtime/Npu/ll_aton/ll_aton.h ****    */
 267:Lib/AI_Runtime/Npu/ll_aton/ll_aton.h ****   int LL_Arithacc_Init(int id, const LL_Arithacc_InitTypeDef *Arithacc_InitStruct);
 268:Lib/AI_Runtime/Npu/ll_aton/ll_aton.h ****   /**
 269:Lib/AI_Runtime/Npu/ll_aton/ll_aton.h ****    * @}
ARM GAS  C:\Users\DJESSOU\AppData\Local\Temp\ccFxekaC.s 			page 127


 270:Lib/AI_Runtime/Npu/ll_aton/ll_aton.h ****    */
 271:Lib/AI_Runtime/Npu/ll_aton/ll_aton.h **** 
 272:Lib/AI_Runtime/Npu/ll_aton/ll_aton.h ****   typedef enum
 273:Lib/AI_Runtime/Npu/ll_aton/ll_aton.h ****   {
 274:Lib/AI_Runtime/Npu/ll_aton/ll_aton.h ****     AFILT_MODE_NONE = 0,
 275:Lib/AI_Runtime/Npu/ll_aton/ll_aton.h ****     AFILT_MODE_PIXELDROP = 1,
 276:Lib/AI_Runtime/Npu/ll_aton/ll_aton.h ****     AFILT_MODE_FRAMEDROP = 2,
 277:Lib/AI_Runtime/Npu/ll_aton/ll_aton.h ****     AFILT_MODE_FRAMEZERO = 3
 278:Lib/AI_Runtime/Npu/ll_aton/ll_aton.h ****   } LL_Convacc_Afilt_Mode;
 279:Lib/AI_Runtime/Npu/ll_aton/ll_aton.h **** 
 280:Lib/AI_Runtime/Npu/ll_aton/ll_aton.h ****   /**
 281:Lib/AI_Runtime/Npu/ll_aton/ll_aton.h ****    *	@brief Convolutional Accelerator configuration structure
 282:Lib/AI_Runtime/Npu/ll_aton/ll_aton.h ****    */
 283:Lib/AI_Runtime/Npu/ll_aton/ll_aton.h ****   typedef struct
 284:Lib/AI_Runtime/Npu/ll_aton/ll_aton.h ****   {
 285:Lib/AI_Runtime/Npu/ll_aton/ll_aton.h ****     unsigned rounding_f : 1;           /**< Input feature data rounding */
 286:Lib/AI_Runtime/Npu/ll_aton/ll_aton.h ****     unsigned saturation_f : 1;         /**< Input feature data saturation */
 287:Lib/AI_Runtime/Npu/ll_aton/ll_aton.h ****     unsigned round_mode_f : 2;         /**< Output data rounding mode */
 288:Lib/AI_Runtime/Npu/ll_aton/ll_aton.h ****     unsigned inbytes_f : 2;            /**< Input data width in bytes */
 289:Lib/AI_Runtime/Npu/ll_aton/ll_aton.h ****     unsigned rounding_o : 1;           /**< Output data rounding after right shift */
 290:Lib/AI_Runtime/Npu/ll_aton/ll_aton.h ****     unsigned saturation_o : 1;         /**< Output saturation */
 291:Lib/AI_Runtime/Npu/ll_aton/ll_aton.h ****     unsigned round_mode_o : 1;         /**< Output data rounding mode */
 292:Lib/AI_Runtime/Npu/ll_aton/ll_aton.h ****     unsigned relu_mode_o : 1;          /**< Apply Relu operation before rounding */
 293:Lib/AI_Runtime/Npu/ll_aton/ll_aton.h ****     unsigned outbytes_o : 2;           /**< Output data width in bytes */
 294:Lib/AI_Runtime/Npu/ll_aton/ll_aton.h ****     unsigned simd : 2;                 /**< Enable 8x8bit (1) or 16x8bit (2) SIMD mode */
 295:Lib/AI_Runtime/Npu/ll_aton/ll_aton.h ****     unsigned accumulate : 1;           /**< Sum and synchronize with stream link input #2 */
 296:Lib/AI_Runtime/Npu/ll_aton/ll_aton.h ****     unsigned accumulate_first : 1;     /**< No sum and synchronization with stream link input #2 fo
 297:Lib/AI_Runtime/Npu/ll_aton/ll_aton.h ****     unsigned accumulate_gen_first : 1; /**< Generate first accumulator input frame internally */
 298:Lib/AI_Runtime/Npu/ll_aton/ll_aton.h ****     unsigned fstat : 1;                /**< Feature data stationary */
 299:Lib/AI_Runtime/Npu/ll_aton/ll_aton.h ****     unsigned raw_o : 1;                /**< Use RAW file output format */
 300:Lib/AI_Runtime/Npu/ll_aton/ll_aton.h ****     unsigned kt1_mode : 1;             /**< Load kernel from T1 buffer */
 301:Lib/AI_Runtime/Npu/ll_aton/ll_aton.h ****     unsigned deepmode : 1;             /**< Enable Deep1x1 optimized mode */
 302:Lib/AI_Runtime/Npu/ll_aton/ll_aton.h ****     unsigned dss2mode : 1;             /**< Enable DSS2 (depth separable stride 2) optimized mode *
 303:Lib/AI_Runtime/Npu/ll_aton/ll_aton.h ****     unsigned f_unsigned : 1;           /**< Feature data unsigned */
 304:Lib/AI_Runtime/Npu/ll_aton/ll_aton.h ****     unsigned k_unsigned : 1;           /**< Kernel data unsigned */
 305:Lib/AI_Runtime/Npu/ll_aton/ll_aton.h ****     unsigned kseten : 2;               /**< Enable kernel set 0 (bit 0) or 1 (bit 1) if KT1 is 1,
 306:Lib/AI_Runtime/Npu/ll_aton/ll_aton.h ****                                         *   otherwise select byte 1 (0), byte 2 (1), byte 3 (2) or
 307:Lib/AI_Runtime/Npu/ll_aton/ll_aton.h ****                                         *   all bytes (Deep1x1 mode only) (3) of kernel stream in S
 308:Lib/AI_Runtime/Npu/ll_aton/ll_aton.h ****     unsigned char shift_f;             /**< Input feature data shift */
 309:Lib/AI_Runtime/Npu/ll_aton/ll_aton.h ****     unsigned char shift_a;             /**< Accumulator data input signed left shift */
 310:Lib/AI_Runtime/Npu/ll_aton/ll_aton.h ****     unsigned char shift_o;             /**< Result data output signed right shift */
 311:Lib/AI_Runtime/Npu/ll_aton/ll_aton.h ****     unsigned fWidth;                   /**< Feature data width */
 312:Lib/AI_Runtime/Npu/ll_aton/ll_aton.h ****     unsigned fHeight;                  /**< Feature data height */
 313:Lib/AI_Runtime/Npu/ll_aton/ll_aton.h ****     unsigned char kernelWidth;         /**< Kernel width */
 314:Lib/AI_Runtime/Npu/ll_aton/ll_aton.h ****     unsigned char kernelHeight;        /**< Kernel height */
 315:Lib/AI_Runtime/Npu/ll_aton/ll_aton.h ****     unsigned char nKernels;            /**< Total number of parallel kernels */
 316:Lib/AI_Runtime/Npu/ll_aton/ll_aton.h ****     unsigned short batchDepth;         /**< Batch Depth */
 317:Lib/AI_Runtime/Npu/ll_aton/ll_aton.h ****     unsigned char hstride;             /**< Horizontal stride */
 318:Lib/AI_Runtime/Npu/ll_aton/ll_aton.h ****     unsigned char vstride;             /**< Vertical stride */
 319:Lib/AI_Runtime/Npu/ll_aton/ll_aton.h ****     unsigned short left_padding;       /**< Number of vertical left dummy columns */
 320:Lib/AI_Runtime/Npu/ll_aton/ll_aton.h ****     unsigned short right_padding;      /**< Number of vertical right dummy columns */
 321:Lib/AI_Runtime/Npu/ll_aton/ll_aton.h ****     unsigned short top_padding;        /**< Number of horizontal top dummy lines */
 322:Lib/AI_Runtime/Npu/ll_aton/ll_aton.h ****     unsigned short bot_padding;        /**< Number of horizontal bottom dummy lines */
 323:Lib/AI_Runtime/Npu/ll_aton/ll_aton.h ****     unsigned short left_crop;          /**< Left feature data boundary */
 324:Lib/AI_Runtime/Npu/ll_aton/ll_aton.h ****     unsigned short right_crop;         /**< Right feature data boundary */
 325:Lib/AI_Runtime/Npu/ll_aton/ll_aton.h ****     unsigned short top_crop;           /**< Top feature data boundary */
 326:Lib/AI_Runtime/Npu/ll_aton/ll_aton.h ****     unsigned short bot_crop;           /**< Bottom feature data boundary */
ARM GAS  C:\Users\DJESSOU\AppData\Local\Temp\ccFxekaC.s 			page 128


 327:Lib/AI_Runtime/Npu/ll_aton/ll_aton.h ****     unsigned short fstatcnt;           /**< Number of frames before next reload of feature stationa
 328:Lib/AI_Runtime/Npu/ll_aton/ll_aton.h ****     LL_Convacc_Afilt_Mode afilt_mode;  /**< Accumulator port filter mode. See LL_Convacc_Afilt_Mode
 329:Lib/AI_Runtime/Npu/ll_aton/ll_aton.h ****     unsigned char afilt_tot;           /**< Total number of accumulation tensors */
 330:Lib/AI_Runtime/Npu/ll_aton/ll_aton.h ****     unsigned char afilt_first;         /**< First accumulation tensor */
 331:Lib/AI_Runtime/Npu/ll_aton/ll_aton.h ****     unsigned char afilt_last;          /**< Last accumulation tensor */
 332:Lib/AI_Runtime/Npu/ll_aton/ll_aton.h ****     unsigned char kfilt_tot;           /**< Total number of kernels */
 333:Lib/AI_Runtime/Npu/ll_aton/ll_aton.h ****     unsigned char kfilt_first;         /**< First kernel */
 334:Lib/AI_Runtime/Npu/ll_aton/ll_aton.h ****     unsigned char kfilt_last;          /**< Last kernel */
 335:Lib/AI_Runtime/Npu/ll_aton/ll_aton.h ****     int fsub;                          /**< Feature data subtract value */
 336:Lib/AI_Runtime/Npu/ll_aton/ll_aton.h ****     unsigned vshift : 2;               /**< Variable shift mode selector */
 337:Lib/AI_Runtime/Npu/ll_aton/ll_aton.h ****     short zfbias;                      /**< Bias added to zero frames */
 338:Lib/AI_Runtime/Npu/ll_aton/ll_aton.h ****   } LL_Convacc_InitTypeDef;
 339:Lib/AI_Runtime/Npu/ll_aton/ll_aton.h **** 
 340:Lib/AI_Runtime/Npu/ll_aton/ll_aton.h ****   /** @defgroup LL_CONVACC Convolutional accelerator unit configuration functions
 341:Lib/AI_Runtime/Npu/ll_aton/ll_aton.h ****    * @{
 342:Lib/AI_Runtime/Npu/ll_aton/ll_aton.h ****    */
 343:Lib/AI_Runtime/Npu/ll_aton/ll_aton.h ****   int LL_Convacc_Init(int id, const LL_Convacc_InitTypeDef *Convacc_InitStruct);
 344:Lib/AI_Runtime/Npu/ll_aton/ll_aton.h ****   /**
 345:Lib/AI_Runtime/Npu/ll_aton/ll_aton.h ****    * @}
 346:Lib/AI_Runtime/Npu/ll_aton/ll_aton.h ****    */
 347:Lib/AI_Runtime/Npu/ll_aton/ll_aton.h **** 
 348:Lib/AI_Runtime/Npu/ll_aton/ll_aton.h ****   /**
 349:Lib/AI_Runtime/Npu/ll_aton/ll_aton.h ****    * @brief Pooling Acceleration supported operations
 350:Lib/AI_Runtime/Npu/ll_aton/ll_aton.h ****    */
 351:Lib/AI_Runtime/Npu/ll_aton/ll_aton.h ****   typedef enum
 352:Lib/AI_Runtime/Npu/ll_aton/ll_aton.h ****   {
 353:Lib/AI_Runtime/Npu/ll_aton/ll_aton.h ****     POOL_MAX = 1,
 354:Lib/AI_Runtime/Npu/ll_aton/ll_aton.h ****     POOL_MIN,
 355:Lib/AI_Runtime/Npu/ll_aton/ll_aton.h ****     POOL_AVG,
 356:Lib/AI_Runtime/Npu/ll_aton/ll_aton.h ****     POOL_GMAX,
 357:Lib/AI_Runtime/Npu/ll_aton/ll_aton.h ****     POOL_GMIN,
 358:Lib/AI_Runtime/Npu/ll_aton/ll_aton.h ****     POOL_GAVG
 359:Lib/AI_Runtime/Npu/ll_aton/ll_aton.h ****   } LL_Poolacc_Op;
 360:Lib/AI_Runtime/Npu/ll_aton/ll_aton.h **** 
 361:Lib/AI_Runtime/Npu/ll_aton/ll_aton.h ****   /**
 362:Lib/AI_Runtime/Npu/ll_aton/ll_aton.h ****    * @brief Pooling Accelerator configuration structure
 363:Lib/AI_Runtime/Npu/ll_aton/ll_aton.h ****    */
 364:Lib/AI_Runtime/Npu/ll_aton/ll_aton.h ****   typedef struct
 365:Lib/AI_Runtime/Npu/ll_aton/ll_aton.h ****   {
 366:Lib/AI_Runtime/Npu/ll_aton/ll_aton.h ****     LL_Poolacc_Op operation;   /**< Pooling operation type. See LL_Poolacc_Op */
 367:Lib/AI_Runtime/Npu/ll_aton/ll_aton.h ****     unsigned avgnopad : 1;     /**< Average pooling operation without padding */
 368:Lib/AI_Runtime/Npu/ll_aton/ll_aton.h ****     unsigned short inputX;     /**< Size X of the input feature */
 369:Lib/AI_Runtime/Npu/ll_aton/ll_aton.h ****     unsigned short inputY;     /**< Size Y of the input feature */
 370:Lib/AI_Runtime/Npu/ll_aton/ll_aton.h ****     unsigned short outputX;    /**< Size X of the output data */
 371:Lib/AI_Runtime/Npu/ll_aton/ll_aton.h ****     unsigned short outputY;    /**< Size Y of the output data */
 372:Lib/AI_Runtime/Npu/ll_aton/ll_aton.h ****     unsigned char poolWinX;    /**< Size X of pooling window */
 373:Lib/AI_Runtime/Npu/ll_aton/ll_aton.h ****     unsigned char poolWinY;    /**< Size Y of pooling window */
 374:Lib/AI_Runtime/Npu/ll_aton/ll_aton.h ****     unsigned char strideX;     /**< Stride value in X direction */
 375:Lib/AI_Runtime/Npu/ll_aton/ll_aton.h ****     unsigned char strideY;     /**< Stride value in Y direction */
 376:Lib/AI_Runtime/Npu/ll_aton/ll_aton.h ****     unsigned short topCrop;    /**< Top cropping size */
 377:Lib/AI_Runtime/Npu/ll_aton/ll_aton.h ****     unsigned short bottomCrop; /**< Bottom cropping size */
 378:Lib/AI_Runtime/Npu/ll_aton/ll_aton.h ****     unsigned short leftCrop;   /**< Left cropping size */
 379:Lib/AI_Runtime/Npu/ll_aton/ll_aton.h ****     unsigned short rightCrop;  /**< Right cropping size */
 380:Lib/AI_Runtime/Npu/ll_aton/ll_aton.h ****     unsigned short topPad;     /**< Top padding size */
 381:Lib/AI_Runtime/Npu/ll_aton/ll_aton.h ****     unsigned short bottomPad;  /**< Bottom padding size */
 382:Lib/AI_Runtime/Npu/ll_aton/ll_aton.h ****     unsigned short leftPad;    /**< Left padding size */
 383:Lib/AI_Runtime/Npu/ll_aton/ll_aton.h ****     unsigned short rightPad;   /**< Right padding size */
ARM GAS  C:\Users\DJESSOU\AppData\Local\Temp\ccFxekaC.s 			page 129


 384:Lib/AI_Runtime/Npu/ll_aton/ll_aton.h ****     unsigned short batchSize;  /**< Batch size */
 385:Lib/AI_Runtime/Npu/ll_aton/ll_aton.h ****     unsigned char shift_f;     /**< Input feature data shift */
 386:Lib/AI_Runtime/Npu/ll_aton/ll_aton.h ****     unsigned char shift_o;     /**< Optional right shift to apply the average pooling output */
 387:Lib/AI_Runtime/Npu/ll_aton/ll_aton.h ****     unsigned dualLine : 1;     /**< Enable dual line, allows each linebuffer line to work as 2 line
 388:Lib/AI_Runtime/Npu/ll_aton/ll_aton.h ****                                 *   applicable for 8-bit data */
 389:Lib/AI_Runtime/Npu/ll_aton/ll_aton.h ****     unsigned nbytes : 2;       /**< input data number of bytes */
 390:Lib/AI_Runtime/Npu/ll_aton/ll_aton.h ****     unsigned rounding_f : 1;   /**< Input feature data rounding */
 391:Lib/AI_Runtime/Npu/ll_aton/ll_aton.h ****     unsigned saturation_f : 1; /**< Input feature data saturation */
 392:Lib/AI_Runtime/Npu/ll_aton/ll_aton.h ****     unsigned round_mode_f : 2; /**< Rounding mode to apply to input feature data */
 393:Lib/AI_Runtime/Npu/ll_aton/ll_aton.h ****     unsigned inbytes_f : 2;    /**< Input data width in bytes. Valid values are 1, 2 or 3 bytes */
 394:Lib/AI_Runtime/Npu/ll_aton/ll_aton.h ****     unsigned outbytes_f : 2;   /**< Number of output bytes to use for final result after rounding o
 395:Lib/AI_Runtime/Npu/ll_aton/ll_aton.h ****                                 *   Valid values are 1 or 2 bytes */
 396:Lib/AI_Runtime/Npu/ll_aton/ll_aton.h ****     unsigned rounding_o : 1;   /**< Enable output rounding using round-to-nearest (round up)
 397:Lib/AI_Runtime/Npu/ll_aton/ll_aton.h ****                                 *   (applicable to average pooling operations) */
 398:Lib/AI_Runtime/Npu/ll_aton/ll_aton.h ****     unsigned saturation_o : 1; /**< Enable output saturation (applicable to average pooling operati
 399:Lib/AI_Runtime/Npu/ll_aton/ll_aton.h ****     unsigned round_mode_o : 1; /**< Rounding mode to apply to output feature data */
 400:Lib/AI_Runtime/Npu/ll_aton/ll_aton.h ****     unsigned relu_mode_o : 1;  /**< Apply Relu operation before rounding */
 401:Lib/AI_Runtime/Npu/ll_aton/ll_aton.h ****     unsigned outbytes_o : 2;   /**< Number of output bytes to use for final result after rounding o
 402:Lib/AI_Runtime/Npu/ll_aton/ll_aton.h ****                                 *   Valid values are 1 or 2 bytes */
 403:Lib/AI_Runtime/Npu/ll_aton/ll_aton.h ****     short mulval;              /**< constant to be multiplied to accumulated sum of pooling window.
 404:Lib/AI_Runtime/Npu/ll_aton/ll_aton.h ****                                 * For average operation, it represents the reciprocal of the diviso
 405:Lib/AI_Runtime/Npu/ll_aton/ll_aton.h ****                                 * The average is computed by multiplying this constant with the acc
 406:Lib/AI_Runtime/Npu/ll_aton/ll_aton.h ****                                 * relevant right shift at the output. (Applicable to average poolin
 407:Lib/AI_Runtime/Npu/ll_aton/ll_aton.h ****     unsigned pad_val_en : 1;   /**< Enable padding value */
 408:Lib/AI_Runtime/Npu/ll_aton/ll_aton.h ****     short pad_val;             /**< Padding value to be used for padding operation */
 409:Lib/AI_Runtime/Npu/ll_aton/ll_aton.h ****   } LL_Poolacc_InitTypeDef;
 410:Lib/AI_Runtime/Npu/ll_aton/ll_aton.h **** 
 411:Lib/AI_Runtime/Npu/ll_aton/ll_aton.h ****   /**
 412:Lib/AI_Runtime/Npu/ll_aton/ll_aton.h ****    * @brief Epoch Controller configuration structure
 413:Lib/AI_Runtime/Npu/ll_aton/ll_aton.h ****    */
 414:Lib/AI_Runtime/Npu/ll_aton/ll_aton.h ****   typedef struct
 415:Lib/AI_Runtime/Npu/ll_aton/ll_aton.h ****   {
 416:Lib/AI_Runtime/Npu/ll_aton/ll_aton.h ****     uint32_t blobaddr;     /**< Blob code start address. Must be 8 byte aligned */
 417:Lib/AI_Runtime/Npu/ll_aton/ll_aton.h ****     unsigned stepmode : 1; /**< Enable step mode. Used for debugging purposes */
 418:Lib/AI_Runtime/Npu/ll_aton/ll_aton.h ****   } LL_EpochCtrl_InitTypeDef;
 419:Lib/AI_Runtime/Npu/ll_aton/ll_aton.h **** 
 420:Lib/AI_Runtime/Npu/ll_aton/ll_aton.h ****   /** @defgroup LL_POOL Pooling unit configuration functions
 421:Lib/AI_Runtime/Npu/ll_aton/ll_aton.h ****    * @{
 422:Lib/AI_Runtime/Npu/ll_aton/ll_aton.h ****    */
 423:Lib/AI_Runtime/Npu/ll_aton/ll_aton.h ****   int LL_Poolacc_Init(int id, const LL_Poolacc_InitTypeDef *conf);
 424:Lib/AI_Runtime/Npu/ll_aton/ll_aton.h ****   /**
 425:Lib/AI_Runtime/Npu/ll_aton/ll_aton.h ****    * @}
 426:Lib/AI_Runtime/Npu/ll_aton/ll_aton.h ****    */
 427:Lib/AI_Runtime/Npu/ll_aton/ll_aton.h **** 
 428:Lib/AI_Runtime/Npu/ll_aton/ll_aton.h ****   /**
 429:Lib/AI_Runtime/Npu/ll_aton/ll_aton.h ****    * @brief Streaming engine configuration structure
 430:Lib/AI_Runtime/Npu/ll_aton/ll_aton.h ****    */
 431:Lib/AI_Runtime/Npu/ll_aton/ll_aton.h ****   typedef struct
 432:Lib/AI_Runtime/Npu/ll_aton/ll_aton.h ****   {
 433:Lib/AI_Runtime/Npu/ll_aton/ll_aton.h ****     unsigned dir : 1;             /**< Stream Direction: 0 input, 1 output */
 434:Lib/AI_Runtime/Npu/ll_aton/ll_aton.h ****     unsigned raw : 1;             /**< Set RAW mode (1) or raster mode (0) */
 435:Lib/AI_Runtime/Npu/ll_aton/ll_aton.h ****     unsigned raw_out : 1;         /**< Force RAW output (bus to stream only)
 436:Lib/AI_Runtime/Npu/ll_aton/ll_aton.h ****                                    *   even if the engine is programmed in raster mode */
 437:Lib/AI_Runtime/Npu/ll_aton/ll_aton.h ****     unsigned continuous : 1;      /**< Do not restart address pointer at end of frame */
 438:Lib/AI_Runtime/Npu/ll_aton/ll_aton.h ****     unsigned noblk : 1;           /**< Do not use blocks wider that the native bus size */
 439:Lib/AI_Runtime/Npu/ll_aton/ll_aton.h ****     unsigned noinc : 1;           /**< Do not increment address */
 440:Lib/AI_Runtime/Npu/ll_aton/ll_aton.h ****     unsigned align_right : 1;     /**< Alignment for data on switch (default left) */
ARM GAS  C:\Users\DJESSOU\AppData\Local\Temp\ccFxekaC.s 			page 130


 441:Lib/AI_Runtime/Npu/ll_aton/ll_aton.h ****     unsigned mem_lsb : 1;         /**< For when nbits_in != nbits_out to decide which bits are read
 442:Lib/AI_Runtime/Npu/ll_aton/ll_aton.h ****                                    *   (default msb) */
 443:Lib/AI_Runtime/Npu/ll_aton/ll_aton.h ****     unsigned sync_with_other : 1; /**< Enable synchronizations signals between engines */
 444:Lib/AI_Runtime/Npu/ll_aton/ll_aton.h ****     unsigned nbits_unsigned : 1;  /**< Disable sign extension */
 445:Lib/AI_Runtime/Npu/ll_aton/ll_aton.h ****     unsigned bus_cid : 3;         /**< Set Compartment ID cache attribute */
 446:Lib/AI_Runtime/Npu/ll_aton/ll_aton.h ****     unsigned cacheable : 1;       /**< Set cacheable bus attribute */
 447:Lib/AI_Runtime/Npu/ll_aton/ll_aton.h ****     unsigned cache_allocate : 1;  /**< Set cache allocate bus attribute */
 448:Lib/AI_Runtime/Npu/ll_aton/ll_aton.h ****     unsigned bus_pfetch : 1;      /**< Enable bus prefetch */
 449:Lib/AI_Runtime/Npu/ll_aton/ll_aton.h ****     unsigned cache_linesize : 2;  /**< Cache Line size: 0 -> 64B, 1 -> 128B, 2 -> 256B, 3 -> 512B *
 450:Lib/AI_Runtime/Npu/ll_aton/ll_aton.h ****     unsigned cipher_en : 1;       /**< Enable ciphering: 0 -> disable, 1-> enable  */
 451:Lib/AI_Runtime/Npu/ll_aton/ll_aton.h ****     unsigned key_sel : 1;         /**< Bus Interface key to be used for ciphering (0, 1) */
 452:Lib/AI_Runtime/Npu/ll_aton/ll_aton.h ****     unsigned char sync_dma;       /**< Synchronization signals source engine */
 453:Lib/AI_Runtime/Npu/ll_aton/ll_aton.h ****     ll_aton_pointer addr_base;    /**< Source/Destination base address */
 454:Lib/AI_Runtime/Npu/ll_aton/ll_aton.h ****     unsigned offset_start;        /**< Offset of the Source/Destination start address from the base
 455:Lib/AI_Runtime/Npu/ll_aton/ll_aton.h ****     unsigned offset_end;          /**< Offset of the Source/Destination end address from the base a
 456:Lib/AI_Runtime/Npu/ll_aton/ll_aton.h ****     unsigned offset_limit;        /**< Offset of the Stream engine address limit from the base addr
 457:Lib/AI_Runtime/Npu/ll_aton/ll_aton.h ****                                    *   Used to prevent prefetch beyond memory boundaries */
 458:Lib/AI_Runtime/Npu/ll_aton/ll_aton.h ****     unsigned frame_count;         /**< Number of frames to transfer */
 459:Lib/AI_Runtime/Npu/ll_aton/ll_aton.h ****     unsigned fwidth;              /**< Frame width (pixel per line) */
 460:Lib/AI_Runtime/Npu/ll_aton/ll_aton.h ****     unsigned fheight;             /**< Frame height (number of lines) */
 461:Lib/AI_Runtime/Npu/ll_aton/ll_aton.h ****     unsigned batch_depth;         /**< Batch depth (subpix per pixel) */
 462:Lib/AI_Runtime/Npu/ll_aton/ll_aton.h ****     unsigned batch_offset;        /**< Offset (bytes) between batches */
 463:Lib/AI_Runtime/Npu/ll_aton/ll_aton.h ****     unsigned frame_offset;        /**< Offset between multiple frames within frame repetition loop 
 464:Lib/AI_Runtime/Npu/ll_aton/ll_aton.h ****     unsigned line_offset;         /**< Offset between multiple frames within frame repetition loop.
 465:Lib/AI_Runtime/Npu/ll_aton/ll_aton.h ****                                    *   If set to zero it's derived from width and batch_offset */
 466:Lib/AI_Runtime/Npu/ll_aton/ll_aton.h ****     unsigned loop_offset;         /**< Offset between frame repetition loops */
 467:Lib/AI_Runtime/Npu/ll_aton/ll_aton.h ****     unsigned frame_loop_cnt;      /**< Number of frames to loop */
 468:Lib/AI_Runtime/Npu/ll_aton/ll_aton.h ****     unsigned
 469:Lib/AI_Runtime/Npu/ll_aton/ll_aton.h ****         loop_offset2; /**< 2nd level offset between frame repetition loops. If set, has priority ov
 470:Lib/AI_Runtime/Npu/ll_aton/ll_aton.h ****     unsigned frame_loop_cnt2; /**< 2nd level number of frames to loop */
 471:Lib/AI_Runtime/Npu/ll_aton/ll_aton.h ****     unsigned frame_tot_cnt;   /**< Frame limit */
 472:Lib/AI_Runtime/Npu/ll_aton/ll_aton.h ****     unsigned char nbits_in;   /**< Data size in bits if reading */
 473:Lib/AI_Runtime/Npu/ll_aton/ll_aton.h ****     unsigned char nbits_out;  /**< Data size in bits if writing */
 474:Lib/AI_Runtime/Npu/ll_aton/ll_aton.h ****   } LL_Streng_TensorInitTypeDef;
 475:Lib/AI_Runtime/Npu/ll_aton/ll_aton.h **** 
 476:Lib/AI_Runtime/Npu/ll_aton/ll_aton.h ****   static inline unsigned char *LL_Streng_addr_start(const LL_Streng_TensorInitTypeDef *conf)
 477:Lib/AI_Runtime/Npu/ll_aton/ll_aton.h ****   {
 478:Lib/AI_Runtime/Npu/ll_aton/ll_aton.h ****     return conf->addr_base.p + conf->offset_start;
 479:Lib/AI_Runtime/Npu/ll_aton/ll_aton.h ****   }
 480:Lib/AI_Runtime/Npu/ll_aton/ll_aton.h **** 
 481:Lib/AI_Runtime/Npu/ll_aton/ll_aton.h ****   static inline unsigned char *LL_Streng_addr_end(const LL_Streng_TensorInitTypeDef *conf)
 482:Lib/AI_Runtime/Npu/ll_aton/ll_aton.h ****   {
 483:Lib/AI_Runtime/Npu/ll_aton/ll_aton.h ****     return conf->addr_base.p + conf->offset_end;
 484:Lib/AI_Runtime/Npu/ll_aton/ll_aton.h ****   }
 485:Lib/AI_Runtime/Npu/ll_aton/ll_aton.h **** 
 486:Lib/AI_Runtime/Npu/ll_aton/ll_aton.h ****   static inline unsigned char *LL_Streng_addr_limit(const LL_Streng_TensorInitTypeDef *conf)
 487:Lib/AI_Runtime/Npu/ll_aton/ll_aton.h ****   {
 488:Lib/AI_Runtime/Npu/ll_aton/ll_aton.h ****     return conf->addr_base.p + conf->offset_limit;
 489:Lib/AI_Runtime/Npu/ll_aton/ll_aton.h ****   }
 490:Lib/AI_Runtime/Npu/ll_aton/ll_aton.h **** 
 491:Lib/AI_Runtime/Npu/ll_aton/ll_aton.h ****   static inline uint32_t LL_Streng_len(const LL_Streng_TensorInitTypeDef *conf)
 3375              		.loc 2 491 26 view .LVU1056
 3376              	.LBB52:
 492:Lib/AI_Runtime/Npu/ll_aton/ll_aton.h ****   {
 493:Lib/AI_Runtime/Npu/ll_aton/ll_aton.h ****     return conf->offset_end - conf->offset_start;
 3377              		.loc 2 493 5 view .LVU1057
 3378              		.loc 2 493 5 is_stmt 0 view .LVU1058
ARM GAS  C:\Users\DJESSOU\AppData\Local\Temp\ccFxekaC.s 			page 131


 3379              	.LBE52:
 3380              	.LBE51:
 654:Lib/AI_Runtime/Npu/ll_aton/ll_aton.c ****     }
 3381              		.loc 1 654 72 discriminator 1 view .LVU1059
 3382 0140 10F0010F 		tst	r0, #1
 3383 0144 18BF     		it	ne
 3384 0146 6646     		movne	r6, ip
 3385              	.LBB54:
 3386              	.LBB53:
 3387              		.loc 2 493 29 view .LVU1060
 3388 0148 E368     		ldr	r3, [r4, #12]
 3389 014a A3EB0903 		sub	r3, r3, r9
 3390              	.LBE53:
 3391              	.LBE54:
 654:Lib/AI_Runtime/Npu/ll_aton/ll_aton.c ****     }
 3392              		.loc 1 654 32 discriminator 1 view .LVU1061
 3393 014e DB00     		lsls	r3, r3, #3
 654:Lib/AI_Runtime/Npu/ll_aton/ll_aton.c ****     }
 3394              		.loc 1 654 9 discriminator 4 view .LVU1062
 3395 0150 B3FBF6F3 		udiv	r3, r3, r6
 3396              	.LVL365:
 3397              	.L274:
 656:Lib/AI_Runtime/Npu/ll_aton/ll_aton.c ****   }
 3398              		.loc 1 656 5 is_stmt 1 view .LVU1063
 656:Lib/AI_Runtime/Npu/ll_aton/ll_aton.c ****   }
 3399              		.loc 1 656 5 view .LVU1064
 656:Lib/AI_Runtime/Npu/ll_aton/ll_aton.c ****   }
 3400              		.loc 1 656 5 view .LVU1065
 499:Lib/AI_Runtime/Npu/ll_aton/ll_aton.c ****   uint32_t t_streng_event = ATON_STRENG_EVENT_DT;
 3401              		.loc 1 499 12 is_stmt 0 view .LVU1066
 3402 0154 0020     		movs	r0, #0
 656:Lib/AI_Runtime/Npu/ll_aton/ll_aton.c ****   }
 3403              		.loc 1 656 5 discriminator 4 view .LVU1067
 3404 0156 45F80E30 		str	r3, [r5, lr]
 656:Lib/AI_Runtime/Npu/ll_aton/ll_aton.c ****   }
 3405              		.loc 1 656 5 is_stmt 1 discriminator 4 view .LVU1068
 656:Lib/AI_Runtime/Npu/ll_aton/ll_aton.c ****   }
 3406              		.loc 1 656 5 discriminator 4 view .LVU1069
 3407              	.LVL366:
 3408              	.L277:
 3409              	.LBB55:
 678:Lib/AI_Runtime/Npu/ll_aton/ll_aton.c ****   }
 3410              		.loc 1 678 5 discriminator 5 view .LVU1070
 678:Lib/AI_Runtime/Npu/ll_aton/ll_aton.c ****   }
 3411              		.loc 1 678 5 discriminator 5 view .LVU1071
 3412              	.LBE55:
 681:Lib/AI_Runtime/Npu/ll_aton/ll_aton.c **** 
 3413              		.loc 1 681 3 view .LVU1072
 681:Lib/AI_Runtime/Npu/ll_aton/ll_aton.c **** 
 3414              		.loc 1 681 3 view .LVU1073
 681:Lib/AI_Runtime/Npu/ll_aton/ll_aton.c **** 
 3415              		.loc 1 681 3 view .LVU1074
 681:Lib/AI_Runtime/Npu/ll_aton/ll_aton.c **** 
 3416              		.loc 1 681 3 is_stmt 0 discriminator 4 view .LVU1075
 3417 015a A36A     		ldr	r3, [r4, #40]
 3418              	.LVL367:
 681:Lib/AI_Runtime/Npu/ll_aton/ll_aton.c **** 
ARM GAS  C:\Users\DJESSOU\AppData\Local\Temp\ccFxekaC.s 			page 132


 3419              		.loc 1 681 3 discriminator 4 view .LVU1076
 3420 015c 574E     		ldr	r6, .L298+4
 698:Lib/AI_Runtime/Npu/ll_aton/ll_aton.c **** #endif
 3421              		.loc 1 698 7 view .LVU1077
 3422 015e 6FF30F01 		bfc	r1, #0, #16
 681:Lib/AI_Runtime/Npu/ll_aton/ll_aton.c **** 
 3423              		.loc 1 681 3 discriminator 4 view .LVU1078
 3424 0162 AB51     		str	r3, [r5, r6]
 681:Lib/AI_Runtime/Npu/ll_aton/ll_aton.c **** 
 3425              		.loc 1 681 3 is_stmt 1 discriminator 4 view .LVU1079
 681:Lib/AI_Runtime/Npu/ll_aton/ll_aton.c **** 
 3426              		.loc 1 681 3 discriminator 4 view .LVU1080
 684:Lib/AI_Runtime/Npu/ll_aton/ll_aton.c ****   ATON_STRENG_FRAME_RPT_SET(id, conf->frame_loop_cnt);
 3427              		.loc 1 684 3 view .LVU1081
 684:Lib/AI_Runtime/Npu/ll_aton/ll_aton.c ****   ATON_STRENG_FRAME_RPT_SET(id, conf->frame_loop_cnt);
 3428              		.loc 1 684 3 view .LVU1082
 684:Lib/AI_Runtime/Npu/ll_aton/ll_aton.c ****   ATON_STRENG_FRAME_RPT_SET(id, conf->frame_loop_cnt);
 3429              		.loc 1 684 3 view .LVU1083
 684:Lib/AI_Runtime/Npu/ll_aton/ll_aton.c ****   ATON_STRENG_FRAME_RPT_SET(id, conf->frame_loop_cnt);
 3430              		.loc 1 684 3 is_stmt 0 discriminator 4 view .LVU1084
 3431 0164 236B     		ldr	r3, [r4, #48]
 3432 0166 0836     		adds	r6, r6, #8
 3433 0168 AB51     		str	r3, [r5, r6]
 684:Lib/AI_Runtime/Npu/ll_aton/ll_aton.c ****   ATON_STRENG_FRAME_RPT_SET(id, conf->frame_loop_cnt);
 3434              		.loc 1 684 3 is_stmt 1 discriminator 4 view .LVU1085
 684:Lib/AI_Runtime/Npu/ll_aton/ll_aton.c ****   ATON_STRENG_FRAME_RPT_SET(id, conf->frame_loop_cnt);
 3435              		.loc 1 684 3 discriminator 4 view .LVU1086
 685:Lib/AI_Runtime/Npu/ll_aton/ll_aton.c **** 
 3436              		.loc 1 685 3 view .LVU1087
 685:Lib/AI_Runtime/Npu/ll_aton/ll_aton.c **** 
 3437              		.loc 1 685 3 view .LVU1088
 685:Lib/AI_Runtime/Npu/ll_aton/ll_aton.c **** 
 3438              		.loc 1 685 3 view .LVU1089
 685:Lib/AI_Runtime/Npu/ll_aton/ll_aton.c **** 
 3439              		.loc 1 685 3 is_stmt 0 discriminator 4 view .LVU1090
 3440 016a 636B     		ldr	r3, [r4, #52]
 3441 016c 043E     		subs	r6, r6, #4
 3442 016e AB51     		str	r3, [r5, r6]
 685:Lib/AI_Runtime/Npu/ll_aton/ll_aton.c **** 
 3443              		.loc 1 685 3 is_stmt 1 discriminator 4 view .LVU1091
 685:Lib/AI_Runtime/Npu/ll_aton/ll_aton.c **** 
 3444              		.loc 1 685 3 discriminator 4 view .LVU1092
 695:Lib/AI_Runtime/Npu/ll_aton/ll_aton.c ****   t = ATON_STRENG_LIMITEN_SET_FRAMELIMIT(t, 1);
 3445              		.loc 1 695 3 view .LVU1093
 3446              	.LVL368:
 696:Lib/AI_Runtime/Npu/ll_aton/ll_aton.c **** #if defined(ATON_STRENG_LIMITEN_SET_DOFF_MSB)
 3447              		.loc 1 696 3 view .LVU1094
 698:Lib/AI_Runtime/Npu/ll_aton/ll_aton.c **** #endif
 3448              		.loc 1 698 3 view .LVU1095
 698:Lib/AI_Runtime/Npu/ll_aton/ll_aton.c **** #endif
 3449              		.loc 1 698 5 is_stmt 0 view .LVU1096
 3450 0170 41F00603 		orr	r3, r1, #6
 3451              	.LVL369:
 700:Lib/AI_Runtime/Npu/ll_aton/ll_aton.c **** 
 3452              		.loc 1 700 3 is_stmt 1 view .LVU1097
 700:Lib/AI_Runtime/Npu/ll_aton/ll_aton.c **** 
 3453              		.loc 1 700 3 view .LVU1098
ARM GAS  C:\Users\DJESSOU\AppData\Local\Temp\ccFxekaC.s 			page 133


 700:Lib/AI_Runtime/Npu/ll_aton/ll_aton.c **** 
 3454              		.loc 1 700 3 view .LVU1099
 700:Lib/AI_Runtime/Npu/ll_aton/ll_aton.c **** 
 3455              		.loc 1 700 3 is_stmt 0 discriminator 1 view .LVU1100
 3456 0174 1436     		adds	r6, r6, #20
 700:Lib/AI_Runtime/Npu/ll_aton/ll_aton.c **** 
 3457              		.loc 1 700 3 discriminator 4 view .LVU1101
 3458 0176 AB51     		str	r3, [r5, r6]
 700:Lib/AI_Runtime/Npu/ll_aton/ll_aton.c **** 
 3459              		.loc 1 700 3 is_stmt 1 discriminator 4 view .LVU1102
 700:Lib/AI_Runtime/Npu/ll_aton/ll_aton.c **** 
 3460              		.loc 1 700 3 discriminator 4 view .LVU1103
 702:Lib/AI_Runtime/Npu/ll_aton/ll_aton.c ****   {
 3461              		.loc 1 702 3 view .LVU1104
 702:Lib/AI_Runtime/Npu/ll_aton/ll_aton.c ****   {
 3462              		.loc 1 702 37 is_stmt 0 view .LVU1105
 3463 0178 2369     		ldr	r3, [r4, #16]
 3464              	.LVL370:
 702:Lib/AI_Runtime/Npu/ll_aton/ll_aton.c ****   {
 3465              		.loc 1 702 6 view .LVU1106
 3466 017a 33B1     		cbz	r3, .L279
 704:Lib/AI_Runtime/Npu/ll_aton/ll_aton.c ****     t = ATON_STRENG_LIMITEN_SET_STOPPREFTC(t, 1);
 3467              		.loc 1 704 5 is_stmt 1 view .LVU1107
 3468              	.LVL371:
 705:Lib/AI_Runtime/Npu/ll_aton/ll_aton.c ****     ATON_STRENG_LIMITEN_SET(id, t);
 3469              		.loc 1 705 5 view .LVU1108
 709:Lib/AI_Runtime/Npu/ll_aton/ll_aton.c ****                          conf->offset_limit - 1);
 3470              		.loc 1 709 5 is_stmt 0 view .LVU1109
 3471 017c 1F44     		add	r7, r7, r3
 709:Lib/AI_Runtime/Npu/ll_aton/ll_aton.c ****                          conf->offset_limit - 1);
 3472              		.loc 1 709 5 discriminator 4 view .LVU1110
 3473 017e 504B     		ldr	r3, .L298+8
 705:Lib/AI_Runtime/Npu/ll_aton/ll_aton.c ****     ATON_STRENG_LIMITEN_SET(id, t);
 3474              		.loc 1 705 7 view .LVU1111
 3475 0180 41F00701 		orr	r1, r1, #7
 3476              	.LVL372:
 706:Lib/AI_Runtime/Npu/ll_aton/ll_aton.c ****     // NOTE: limiter is to be set to last accessible byte address
 3477              		.loc 1 706 5 is_stmt 1 view .LVU1112
 706:Lib/AI_Runtime/Npu/ll_aton/ll_aton.c ****     // NOTE: limiter is to be set to last accessible byte address
 3478              		.loc 1 706 5 view .LVU1113
 706:Lib/AI_Runtime/Npu/ll_aton/ll_aton.c ****     // NOTE: limiter is to be set to last accessible byte address
 3479              		.loc 1 706 5 view .LVU1114
 709:Lib/AI_Runtime/Npu/ll_aton/ll_aton.c ****                          conf->offset_limit - 1);
 3480              		.loc 1 709 5 is_stmt 0 discriminator 4 view .LVU1115
 3481 0184 013F     		subs	r7, r7, #1
 706:Lib/AI_Runtime/Npu/ll_aton/ll_aton.c ****     // NOTE: limiter is to be set to last accessible byte address
 3482              		.loc 1 706 5 discriminator 4 view .LVU1116
 3483 0186 A951     		str	r1, [r5, r6]
 706:Lib/AI_Runtime/Npu/ll_aton/ll_aton.c ****     // NOTE: limiter is to be set to last accessible byte address
 3484              		.loc 1 706 5 is_stmt 1 discriminator 4 view .LVU1117
 706:Lib/AI_Runtime/Npu/ll_aton/ll_aton.c ****     // NOTE: limiter is to be set to last accessible byte address
 3485              		.loc 1 706 5 discriminator 4 view .LVU1118
 709:Lib/AI_Runtime/Npu/ll_aton/ll_aton.c ****                          conf->offset_limit - 1);
 3486              		.loc 1 709 5 view .LVU1119
 709:Lib/AI_Runtime/Npu/ll_aton/ll_aton.c ****                          conf->offset_limit - 1);
 3487              		.loc 1 709 5 view .LVU1120
 709:Lib/AI_Runtime/Npu/ll_aton/ll_aton.c ****                          conf->offset_limit - 1);
ARM GAS  C:\Users\DJESSOU\AppData\Local\Temp\ccFxekaC.s 			page 134


 3488              		.loc 1 709 5 is_stmt 0 discriminator 4 view .LVU1121
 3489 0188 EF50     		str	r7, [r5, r3]
 3490              	.LVL373:
 3491              	.L279:
 709:Lib/AI_Runtime/Npu/ll_aton/ll_aton.c ****                          conf->offset_limit - 1);
 3492              		.loc 1 709 5 is_stmt 1 discriminator 5 view .LVU1122
 713:Lib/AI_Runtime/Npu/ll_aton/ll_aton.c ****   // LL_ATON_PRINTF("frame_tot_cnt=%d\n", conf->frame_tot_cnt);
 3493              		.loc 1 713 3 view .LVU1123
 713:Lib/AI_Runtime/Npu/ll_aton/ll_aton.c ****   // LL_ATON_PRINTF("frame_tot_cnt=%d\n", conf->frame_tot_cnt);
 3494              		.loc 1 713 3 view .LVU1124
 713:Lib/AI_Runtime/Npu/ll_aton/ll_aton.c ****   // LL_ATON_PRINTF("frame_tot_cnt=%d\n", conf->frame_tot_cnt);
 3495              		.loc 1 713 3 view .LVU1125
 718:Lib/AI_Runtime/Npu/ll_aton/ll_aton.c ****   t_streng_cid_cache = ATON_STRENG_CID_CACHE_SET_ALLOC(t_streng_cid_cache, conf->cache_allocate);
 3496              		.loc 1 718 24 is_stmt 0 view .LVU1126
 3497 018a 6178     		ldrb	r1, [r4, #1]	@ zero_extendqisi2
 713:Lib/AI_Runtime/Npu/ll_aton/ll_aton.c ****   // LL_ATON_PRINTF("frame_tot_cnt=%d\n", conf->frame_tot_cnt);
 3498              		.loc 1 713 3 discriminator 1 view .LVU1127
 3499 018c 4D4B     		ldr	r3, .L298+12
 718:Lib/AI_Runtime/Npu/ll_aton/ll_aton.c ****   t_streng_cid_cache = ATON_STRENG_CID_CACHE_SET_ALLOC(t_streng_cid_cache, conf->cache_allocate);
 3500              		.loc 1 718 24 view .LVU1128
 3501 018e C1F34016 		ubfx	r6, r1, #5, #1
 713:Lib/AI_Runtime/Npu/ll_aton/ll_aton.c ****   // LL_ATON_PRINTF("frame_tot_cnt=%d\n", conf->frame_tot_cnt);
 3502              		.loc 1 713 3 discriminator 4 view .LVU1129
 3503 0192 45F803A0 		str	r10, [r5, r3]
 713:Lib/AI_Runtime/Npu/ll_aton/ll_aton.c ****   // LL_ATON_PRINTF("frame_tot_cnt=%d\n", conf->frame_tot_cnt);
 3504              		.loc 1 713 3 is_stmt 1 discriminator 4 view .LVU1130
 713:Lib/AI_Runtime/Npu/ll_aton/ll_aton.c ****   // LL_ATON_PRINTF("frame_tot_cnt=%d\n", conf->frame_tot_cnt);
 3505              		.loc 1 713 3 discriminator 4 view .LVU1131
 717:Lib/AI_Runtime/Npu/ll_aton/ll_aton.c ****   t_streng_cid_cache = ATON_STRENG_CID_CACHE_SET_CACHEABLE(t_streng_cid_cache, conf->cacheable);
 3506              		.loc 1 717 3 view .LVU1132
 3507              	.LVL374:
 718:Lib/AI_Runtime/Npu/ll_aton/ll_aton.c ****   t_streng_cid_cache = ATON_STRENG_CID_CACHE_SET_ALLOC(t_streng_cid_cache, conf->cache_allocate);
 3508              		.loc 1 718 3 view .LVU1133
 719:Lib/AI_Runtime/Npu/ll_aton/ll_aton.c ****   t_streng_cid_cache = ATON_STRENG_CID_CACHE_SET_PFETCH(t_streng_cid_cache, conf->bus_pfetch);
 3509              		.loc 1 719 3 view .LVU1134
 720:Lib/AI_Runtime/Npu/ll_aton/ll_aton.c ****   t_streng_cid_cache = ATON_STRENG_CID_CACHE_SET_LINESIZE(t_streng_cid_cache, conf->cache_linesize)
 3510              		.loc 1 720 3 view .LVU1135
 721:Lib/AI_Runtime/Npu/ll_aton/ll_aton.c **** #endif
 3511              		.loc 1 721 3 view .LVU1136
 719:Lib/AI_Runtime/Npu/ll_aton/ll_aton.c ****   t_streng_cid_cache = ATON_STRENG_CID_CACHE_SET_PFETCH(t_streng_cid_cache, conf->bus_pfetch);
 3512              		.loc 1 719 24 is_stmt 0 view .LVU1137
 3513 0196 C1F38013 		ubfx	r3, r1, #6, #1
 3514 019a 1B01     		lsls	r3, r3, #4
 721:Lib/AI_Runtime/Npu/ll_aton/ll_aton.c **** #endif
 3515              		.loc 1 721 22 view .LVU1138
 3516 019c 43EAC603 		orr	r3, r3, r6, lsl #3
 717:Lib/AI_Runtime/Npu/ll_aton/ll_aton.c ****   t_streng_cid_cache = ATON_STRENG_CID_CACHE_SET_CACHEABLE(t_streng_cid_cache, conf->cacheable);
 3517              		.loc 1 717 24 view .LVU1139
 3518 01a0 C1F38206 		ubfx	r6, r1, #2, #3
 721:Lib/AI_Runtime/Npu/ll_aton/ll_aton.c **** #endif
 3519              		.loc 1 721 22 view .LVU1140
 3520 01a4 3343     		orrs	r3, r3, r6
 721:Lib/AI_Runtime/Npu/ll_aton/ll_aton.c **** #endif
 3521              		.loc 1 721 24 view .LVU1141
 3522 01a6 A678     		ldrb	r6, [r4, #2]	@ zero_extendqisi2
 720:Lib/AI_Runtime/Npu/ll_aton/ll_aton.c ****   t_streng_cid_cache = ATON_STRENG_CID_CACHE_SET_LINESIZE(t_streng_cid_cache, conf->cache_linesize)
 3523              		.loc 1 720 24 view .LVU1142
ARM GAS  C:\Users\DJESSOU\AppData\Local\Temp\ccFxekaC.s 			page 135


 3524 01a8 C909     		lsrs	r1, r1, #7
 744:Lib/AI_Runtime/Npu/ll_aton/ll_aton.c ****   {
 3525              		.loc 1 744 6 view .LVU1143
 3526 01aa 28F0FE08 		bic	r8, r8, #254
 721:Lib/AI_Runtime/Npu/ll_aton/ll_aton.c **** #endif
 3527              		.loc 1 721 22 view .LVU1144
 3528 01ae 43EA4113 		orr	r3, r3, r1, lsl #5
 744:Lib/AI_Runtime/Npu/ll_aton/ll_aton.c ****   {
 3529              		.loc 1 744 6 view .LVU1145
 3530 01b2 4FEAC858 		lsl	r8, r8, #23
 721:Lib/AI_Runtime/Npu/ll_aton/ll_aton.c **** #endif
 3531              		.loc 1 721 24 view .LVU1146
 3532 01b6 06F00301 		and	r1, r6, #3
 721:Lib/AI_Runtime/Npu/ll_aton/ll_aton.c **** #endif
 3533              		.loc 1 721 22 view .LVU1147
 3534 01ba 43EA8113 		orr	r3, r3, r1, lsl #6
 744:Lib/AI_Runtime/Npu/ll_aton/ll_aton.c ****   {
 3535              		.loc 1 744 6 view .LVU1148
 3536 01be 4FEAD858 		lsr	r8, r8, #23
 725:Lib/AI_Runtime/Npu/ll_aton/ll_aton.c ****   {
 3537              		.loc 1 725 6 view .LVU1149
 3538 01c2 0199     		ldr	r1, [sp, #4]
 744:Lib/AI_Runtime/Npu/ll_aton/ll_aton.c ****   {
 3539              		.loc 1 744 6 view .LVU1150
 3540 01c4 B8F5807F 		cmp	r8, #256
 721:Lib/AI_Runtime/Npu/ll_aton/ll_aton.c **** #endif
 3541              		.loc 1 721 22 view .LVU1151
 3542 01c8 43EA0003 		orr	r3, r3, r0
 3543              	.LVL375:
 725:Lib/AI_Runtime/Npu/ll_aton/ll_aton.c ****   {
 3544              		.loc 1 725 3 is_stmt 1 view .LVU1152
 725:Lib/AI_Runtime/Npu/ll_aton/ll_aton.c ****   {
 3545              		.loc 1 725 6 is_stmt 0 view .LVU1153
 3546 01cc 4FEAC140 		lsl	r0, r1, #19
 3547              	.LVL376:
 738:Lib/AI_Runtime/Npu/ll_aton/ll_aton.c ****   t = ATON_STRENG_EVENT_SET_EN_ILLCFG(t, 1); // Enable Illegal Configuration interrupt
 3548              		.loc 1 738 3 is_stmt 1 view .LVU1154
 739:Lib/AI_Runtime/Npu/ll_aton/ll_aton.c ****   // t = ATON_STRENG_EVENT_SET_EN_FMTMM(t, 1); // Enable Format Mismatch interrupt (intentionally n
 3549              		.loc 1 739 3 view .LVU1155
 741:Lib/AI_Runtime/Npu/ll_aton/ll_aton.c **** #endif // LL_ATON_EN_ERROR_IRQ
 3550              		.loc 1 741 3 view .LVU1156
 744:Lib/AI_Runtime/Npu/ll_aton/ll_aton.c ****   {
 3551              		.loc 1 744 3 view .LVU1157
 748:Lib/AI_Runtime/Npu/ll_aton/ll_aton.c ****     t_streng_event = t;
 3552              		.loc 1 748 9 is_stmt 0 view .LVU1158
 3553 01d0 08BF     		it	eq
 3554 01d2 E178     		ldrbeq	r1, [r4, #3]	@ zero_extendqisi2
 755:Lib/AI_Runtime/Npu/ll_aton/ll_aton.c **** #endif
 3555              		.loc 1 755 3 discriminator 4 view .LVU1159
 3556 01d4 4FF02404 		mov	r4, #36
 3557              	.LVL377:
 748:Lib/AI_Runtime/Npu/ll_aton/ll_aton.c ****     t_streng_event = t;
 3558              		.loc 1 748 9 view .LVU1160
 3559 01d8 03BF     		ittte	eq
 3560 01da 0906     		lsleq	r1, r1, #24
 3561 01dc 01F0F851 		andeq	r1, r1, #520093696
 748:Lib/AI_Runtime/Npu/ll_aton/ll_aton.c ****     t_streng_event = t;
ARM GAS  C:\Users\DJESSOU\AppData\Local\Temp\ccFxekaC.s 			page 136


 3562              		.loc 1 748 7 view .LVU1161
 3563 01e0 0143     		orreq	r1, r1, r0
 739:Lib/AI_Runtime/Npu/ll_aton/ll_aton.c ****   // t = ATON_STRENG_EVENT_SET_EN_FMTMM(t, 1); // Enable Format Mismatch interrupt (intentionally n
 3564              		.loc 1 739 5 view .LVU1162
 3565 01e2 40F48011 		orrne	r1, r0, #1048576
 746:Lib/AI_Runtime/Npu/ll_aton/ll_aton.c ****     t = ATON_STRENG_EVENT_SET_FRMTRG_EN(t, 1);               // Enable synchronizations of frames w
 3566              		.loc 1 746 5 is_stmt 1 view .LVU1163
 747:Lib/AI_Runtime/Npu/ll_aton/ll_aton.c ****     t = ATON_STRENG_EVENT_SET_FRMTRG_SRC(t, conf->sync_dma); // Enable synchronizations of frames w
 3567              		.loc 1 747 5 view .LVU1164
 3568              	.LVL378:
 748:Lib/AI_Runtime/Npu/ll_aton/ll_aton.c ****     t_streng_event = t;
 3569              		.loc 1 748 5 view .LVU1165
 755:Lib/AI_Runtime/Npu/ll_aton/ll_aton.c **** #endif
 3570              		.loc 1 755 3 is_stmt 0 discriminator 4 view .LVU1166
 3571 01e6 3848     		ldr	r0, .L298+16
 3572              	.LVL379:
 748:Lib/AI_Runtime/Npu/ll_aton/ll_aton.c ****     t_streng_event = t;
 3573              		.loc 1 748 7 view .LVU1167
 3574 01e8 08BF     		it	eq
 3575 01ea 41F41001 		orreq	r1, r1, #9437184
 3576              	.LVL380:
 749:Lib/AI_Runtime/Npu/ll_aton/ll_aton.c ****   }
 3577              		.loc 1 749 5 is_stmt 1 view .LVU1168
 753:Lib/AI_Runtime/Npu/ll_aton/ll_aton.c ****   t = ATON_STRENG_POS_SET_GAPCYCLES(t, 0); // set interline gap cycle to 0, as it should be safe to
 3578              		.loc 1 753 3 view .LVU1169
 754:Lib/AI_Runtime/Npu/ll_aton/ll_aton.c ****   ATON_STRENG_POS_SET(id, t);
 3579              		.loc 1 754 3 view .LVU1170
 755:Lib/AI_Runtime/Npu/ll_aton/ll_aton.c **** #endif
 3580              		.loc 1 755 3 view .LVU1171
 755:Lib/AI_Runtime/Npu/ll_aton/ll_aton.c **** #endif
 3581              		.loc 1 755 3 view .LVU1172
 755:Lib/AI_Runtime/Npu/ll_aton/ll_aton.c **** #endif
 3582              		.loc 1 755 3 view .LVU1173
 755:Lib/AI_Runtime/Npu/ll_aton/ll_aton.c **** #endif
 3583              		.loc 1 755 3 is_stmt 0 discriminator 4 view .LVU1174
 3584 01ee 2C50     		str	r4, [r5, r0]
 755:Lib/AI_Runtime/Npu/ll_aton/ll_aton.c **** #endif
 3585              		.loc 1 755 3 is_stmt 1 discriminator 4 view .LVU1175
 755:Lib/AI_Runtime/Npu/ll_aton/ll_aton.c **** #endif
 3586              		.loc 1 755 3 discriminator 4 view .LVU1176
 759:Lib/AI_Runtime/Npu/ll_aton/ll_aton.c ****   ATON_STRENG_CID_CACHE_SET(id, t_streng_cid_cache);
 3587              		.loc 1 759 3 view .LVU1177
 759:Lib/AI_Runtime/Npu/ll_aton/ll_aton.c ****   ATON_STRENG_CID_CACHE_SET(id, t_streng_cid_cache);
 3588              		.loc 1 759 3 view .LVU1178
 759:Lib/AI_Runtime/Npu/ll_aton/ll_aton.c ****   ATON_STRENG_CID_CACHE_SET(id, t_streng_cid_cache);
 3589              		.loc 1 759 3 view .LVU1179
 759:Lib/AI_Runtime/Npu/ll_aton/ll_aton.c ****   ATON_STRENG_CID_CACHE_SET(id, t_streng_cid_cache);
 3590              		.loc 1 759 3 is_stmt 0 discriminator 1 view .LVU1180
 3591 01f0 1038     		subs	r0, r0, #16
 759:Lib/AI_Runtime/Npu/ll_aton/ll_aton.c ****   ATON_STRENG_CID_CACHE_SET(id, t_streng_cid_cache);
 3592              		.loc 1 759 3 discriminator 4 view .LVU1181
 3593 01f2 2A50     		str	r2, [r5, r0]
 759:Lib/AI_Runtime/Npu/ll_aton/ll_aton.c ****   ATON_STRENG_CID_CACHE_SET(id, t_streng_cid_cache);
 3594              		.loc 1 759 3 is_stmt 1 discriminator 4 view .LVU1182
 759:Lib/AI_Runtime/Npu/ll_aton/ll_aton.c ****   ATON_STRENG_CID_CACHE_SET(id, t_streng_cid_cache);
 3595              		.loc 1 759 3 discriminator 4 view .LVU1183
 760:Lib/AI_Runtime/Npu/ll_aton/ll_aton.c ****   ATON_STRENG_EVENT_SET(id, t_streng_event);
ARM GAS  C:\Users\DJESSOU\AppData\Local\Temp\ccFxekaC.s 			page 137


 3596              		.loc 1 760 3 view .LVU1184
 760:Lib/AI_Runtime/Npu/ll_aton/ll_aton.c ****   ATON_STRENG_EVENT_SET(id, t_streng_event);
 3597              		.loc 1 760 3 view .LVU1185
 760:Lib/AI_Runtime/Npu/ll_aton/ll_aton.c ****   ATON_STRENG_EVENT_SET(id, t_streng_event);
 3598              		.loc 1 760 3 view .LVU1186
 760:Lib/AI_Runtime/Npu/ll_aton/ll_aton.c ****   ATON_STRENG_EVENT_SET(id, t_streng_event);
 3599              		.loc 1 760 3 is_stmt 0 discriminator 1 view .LVU1187
 3600 01f4 354A     		ldr	r2, .L298+20
 3601              	.LVL381:
 772:Lib/AI_Runtime/Npu/ll_aton/ll_aton.c **** }
 3602              		.loc 1 772 10 view .LVU1188
 3603 01f6 0020     		movs	r0, #0
 3604              	.LVL382:
 760:Lib/AI_Runtime/Npu/ll_aton/ll_aton.c ****   ATON_STRENG_EVENT_SET(id, t_streng_event);
 3605              		.loc 1 760 3 discriminator 4 view .LVU1189
 3606 01f8 AB50     		str	r3, [r5, r2]
 3607              	.LVL383:
 760:Lib/AI_Runtime/Npu/ll_aton/ll_aton.c ****   ATON_STRENG_EVENT_SET(id, t_streng_event);
 3608              		.loc 1 760 3 is_stmt 1 discriminator 4 view .LVU1190
 760:Lib/AI_Runtime/Npu/ll_aton/ll_aton.c ****   ATON_STRENG_EVENT_SET(id, t_streng_event);
 3609              		.loc 1 760 3 discriminator 4 view .LVU1191
 761:Lib/AI_Runtime/Npu/ll_aton/ll_aton.c **** 
 3610              		.loc 1 761 3 view .LVU1192
 761:Lib/AI_Runtime/Npu/ll_aton/ll_aton.c **** 
 3611              		.loc 1 761 3 view .LVU1193
 761:Lib/AI_Runtime/Npu/ll_aton/ll_aton.c **** 
 3612              		.loc 1 761 3 view .LVU1194
 761:Lib/AI_Runtime/Npu/ll_aton/ll_aton.c **** 
 3613              		.loc 1 761 3 is_stmt 0 discriminator 1 view .LVU1195
 3614 01fa 354B     		ldr	r3, .L298+24
 3615              	.LVL384:
 761:Lib/AI_Runtime/Npu/ll_aton/ll_aton.c **** 
 3616              		.loc 1 761 3 discriminator 4 view .LVU1196
 3617 01fc E950     		str	r1, [r5, r3]
 3618              	.LVL385:
 761:Lib/AI_Runtime/Npu/ll_aton/ll_aton.c **** 
 3619              		.loc 1 761 3 is_stmt 1 discriminator 4 view .LVU1197
 761:Lib/AI_Runtime/Npu/ll_aton/ll_aton.c **** 
 3620              		.loc 1 761 3 discriminator 4 view .LVU1198
 764:Lib/AI_Runtime/Npu/ll_aton/ll_aton.c ****   {
 3621              		.loc 1 764 3 view .LVU1199
 766:Lib/AI_Runtime/Npu/ll_aton/ll_aton.c ****     t = ATON_STRENG_ENCR_MSB_SET_EN(t, conf->cipher_en);
 3622              		.loc 1 766 5 view .LVU1200
 767:Lib/AI_Runtime/Npu/ll_aton/ll_aton.c ****     t = ATON_STRENG_ENCR_MSB_SET_KEY_SEL(t, conf->key_sel);
 3623              		.loc 1 767 5 view .LVU1201
 768:Lib/AI_Runtime/Npu/ll_aton/ll_aton.c ****     ATON_STRENG_ENCR_MSB_SET(id, t);
 3624              		.loc 1 768 5 view .LVU1202
 767:Lib/AI_Runtime/Npu/ll_aton/ll_aton.c ****     t = ATON_STRENG_ENCR_MSB_SET_KEY_SEL(t, conf->key_sel);
 3625              		.loc 1 767 9 is_stmt 0 view .LVU1203
 3626 01fe C6F38003 		ubfx	r3, r6, #2, #1
 768:Lib/AI_Runtime/Npu/ll_aton/ll_aton.c ****     ATON_STRENG_ENCR_MSB_SET(id, t);
 3627              		.loc 1 768 9 view .LVU1204
 3628 0202 C6F3C006 		ubfx	r6, r6, #3, #1
 768:Lib/AI_Runtime/Npu/ll_aton/ll_aton.c ****     ATON_STRENG_ENCR_MSB_SET(id, t);
 3629              		.loc 1 768 9 view .LVU1205
 3630 0206 B603     		lsls	r6, r6, #14
 768:Lib/AI_Runtime/Npu/ll_aton/ll_aton.c ****     ATON_STRENG_ENCR_MSB_SET(id, t);
ARM GAS  C:\Users\DJESSOU\AppData\Local\Temp\ccFxekaC.s 			page 138


 3631              		.loc 1 768 7 view .LVU1206
 3632 0208 46EA0336 		orr	r6, r6, r3, lsl #12
 3633              	.LVL386:
 769:Lib/AI_Runtime/Npu/ll_aton/ll_aton.c ****   }
 3634              		.loc 1 769 5 is_stmt 1 view .LVU1207
 769:Lib/AI_Runtime/Npu/ll_aton/ll_aton.c ****   }
 3635              		.loc 1 769 5 view .LVU1208
 769:Lib/AI_Runtime/Npu/ll_aton/ll_aton.c ****   }
 3636              		.loc 1 769 5 view .LVU1209
 769:Lib/AI_Runtime/Npu/ll_aton/ll_aton.c ****   }
 3637              		.loc 1 769 5 is_stmt 0 discriminator 1 view .LVU1210
 3638 020c 314B     		ldr	r3, .L298+28
 769:Lib/AI_Runtime/Npu/ll_aton/ll_aton.c ****   }
 3639              		.loc 1 769 5 discriminator 4 view .LVU1211
 3640 020e EE50     		str	r6, [r5, r3]
 769:Lib/AI_Runtime/Npu/ll_aton/ll_aton.c ****   }
 3641              		.loc 1 769 5 is_stmt 1 discriminator 5 view .LVU1212
 769:Lib/AI_Runtime/Npu/ll_aton/ll_aton.c ****   }
 3642              		.loc 1 769 5 discriminator 5 view .LVU1213
 772:Lib/AI_Runtime/Npu/ll_aton/ll_aton.c **** }
 3643              		.loc 1 772 3 view .LVU1214
 772:Lib/AI_Runtime/Npu/ll_aton/ll_aton.c **** }
 3644              		.loc 1 772 10 is_stmt 0 view .LVU1215
 3645 0210 FFE6     		b	.L257
 3646              	.LVL387:
 3647              	.L261:
 549:Lib/AI_Runtime/Npu/ll_aton/ll_aton.c ****   io_case += (conf->dir == 0 ? (conf->nbits_in <= conf->nbits_out) : (conf->nbits_in < conf->nbits_
 3648              		.loc 1 549 35 view .LVU1216
 3649 0212 4200     		lsls	r2, r0, #1
 549:Lib/AI_Runtime/Npu/ll_aton/ll_aton.c ****   io_case += (conf->dir == 0 ? (conf->nbits_in <= conf->nbits_out) : (conf->nbits_in < conf->nbits_
 3650              		.loc 1 549 7 view .LVU1217
 3651 0214 02F00202 		and	r2, r2, #2
 550:Lib/AI_Runtime/Npu/ll_aton/ll_aton.c **** 
 3652              		.loc 1 550 11 discriminator 4 view .LVU1218
 3653 0218 6645     		cmp	r6, ip
 3654 021a 52EA2292 		cinc	r2, r2, cc
 3655              	.LVL388:
 552:Lib/AI_Runtime/Npu/ll_aton/ll_aton.c ****   {
 3656              		.loc 1 552 3 is_stmt 1 view .LVU1219
 3657 021e 022A     		cmp	r2, #2
 3658 0220 7FF443AF 		bne	.L262
 3659 0224 0022     		movs	r2, #0
 3660              	.LVL389:
 552:Lib/AI_Runtime/Npu/ll_aton/ll_aton.c ****   {
 3661              		.loc 1 552 3 is_stmt 0 view .LVU1220
 3662 0226 0FE0     		b	.L263
 3663              	.LVL390:
 3664              	.L283:
 552:Lib/AI_Runtime/Npu/ll_aton/ll_aton.c ****   {
 3665              		.loc 1 552 3 view .LVU1221
 3666 0228 0022     		movs	r2, #0
 3667              	.LVL391:
 552:Lib/AI_Runtime/Npu/ll_aton/ll_aton.c ****   {
 3668              		.loc 1 552 3 view .LVU1222
 3669 022a 4FE7     		b	.L265
 3670              	.LVL392:
 3671              	.L284:
ARM GAS  C:\Users\DJESSOU\AppData\Local\Temp\ccFxekaC.s 			page 139


 566:Lib/AI_Runtime/Npu/ll_aton/ll_aton.c ****     in_bits[2] = nbits_in > 16 ? _LL_min(8, nbits_in - 16) : 0;
 3672              		.loc 1 566 16 discriminator 4 view .LVU1223
 3673 022c 0021     		movs	r1, #0
 3674              	.LVL393:
 567:Lib/AI_Runtime/Npu/ll_aton/ll_aton.c ****     if (conf->align_right)
 3675              		.loc 1 567 60 discriminator 2 view .LVU1224
 3676 022e 0B46     		mov	r3, r1
 3677 0230 5BE7     		b	.L267
 3678              	.LVL394:
 3679              	.L264:
 593:Lib/AI_Runtime/Npu/ll_aton/ll_aton.c ****       t_streng_strd = ATON_STRENG_STRD_SET_FGAP(t_streng_strd, (nbits_out - nbits_in));
 3680              		.loc 1 593 5 is_stmt 1 view .LVU1225
 597:Lib/AI_Runtime/Npu/ll_aton/ll_aton.c ****   }
 3681              		.loc 1 597 15 is_stmt 0 view .LVU1226
 3682 0232 3346     		mov	r3, r6
 3683              	.LVL395:
 594:Lib/AI_Runtime/Npu/ll_aton/ll_aton.c ****     else
 3684              		.loc 1 594 23 view .LVU1227
 3685 0234 ACEB0602 		sub	r2, ip, r6
 3686              	.LVL396:
 593:Lib/AI_Runtime/Npu/ll_aton/ll_aton.c ****       t_streng_strd = ATON_STRENG_STRD_SET_FGAP(t_streng_strd, (nbits_out - nbits_in));
 3687              		.loc 1 593 8 view .LVU1228
 3688 0238 0106     		lsls	r1, r0, #24
 3689              	.LVL397:
 594:Lib/AI_Runtime/Npu/ll_aton/ll_aton.c ****     else
 3690              		.loc 1 594 7 is_stmt 1 view .LVU1229
 594:Lib/AI_Runtime/Npu/ll_aton/ll_aton.c ****     else
 3691              		.loc 1 594 23 is_stmt 0 view .LVU1230
 3692 023a 4BBF     		itete	mi
 3693 023c 1204     		lslmi	r2, r2, #16
 596:Lib/AI_Runtime/Npu/ll_aton/ll_aton.c ****     nbits_out = nbits_in;
 3694              		.loc 1 596 23 view .LVU1231
 3695 023e 1206     		lslpl	r2, r2, #24
 594:Lib/AI_Runtime/Npu/ll_aton/ll_aton.c ****     else
 3696              		.loc 1 594 23 view .LVU1232
 3697 0240 02F47C12 		andmi	r2, r2, #4128768
 3698              	.LVL398:
 596:Lib/AI_Runtime/Npu/ll_aton/ll_aton.c ****     nbits_out = nbits_in;
 3699              		.loc 1 596 7 is_stmt 1 view .LVU1233
 596:Lib/AI_Runtime/Npu/ll_aton/ll_aton.c ****     nbits_out = nbits_in;
 3700              		.loc 1 596 23 is_stmt 0 view .LVU1234
 3701 0244 02F07C52 		andpl	r2, r2, #1056964608
 3702              	.LVL399:
 3703              	.L263:
 601:Lib/AI_Runtime/Npu/ll_aton/ll_aton.c ****     out_bits[1] = nbits_out > 8 ? _LL_min(8, nbits_out - 8) : 0;
 3704              		.loc 1 601 5 is_stmt 1 view .LVU1235
 601:Lib/AI_Runtime/Npu/ll_aton/ll_aton.c ****     out_bits[1] = nbits_out > 8 ? _LL_min(8, nbits_out - 8) : 0;
 3705              		.loc 1 601 19 is_stmt 0 view .LVU1236
 3706 0248 082B     		cmp	r3, #8
 3707 024a 9E46     		mov	lr, r3
 3708 024c A8BF     		it	ge
 3709 024e 4FF0080E 		movge	lr, #8
 3710              	.LVL400:
 602:Lib/AI_Runtime/Npu/ll_aton/ll_aton.c ****     out_bits[2] = nbits_out > 16 ? _LL_min(8, nbits_out - 16) : 0;
 3711              		.loc 1 602 5 is_stmt 1 view .LVU1237
 602:Lib/AI_Runtime/Npu/ll_aton/ll_aton.c ****     out_bits[2] = nbits_out > 16 ? _LL_min(8, nbits_out - 16) : 0;
 3712              		.loc 1 602 61 is_stmt 0 view .LVU1238
ARM GAS  C:\Users\DJESSOU\AppData\Local\Temp\ccFxekaC.s 			page 140


 3713 0252 082B     		cmp	r3, #8
 3714 0254 10DD     		ble	.L287
 3715              	.LVL401:
 603:Lib/AI_Runtime/Npu/ll_aton/ll_aton.c ****     if (conf->align_right)
 3716              		.loc 1 603 5 is_stmt 1 view .LVU1239
 603:Lib/AI_Runtime/Npu/ll_aton/ll_aton.c ****     if (conf->align_right)
 3717              		.loc 1 603 63 is_stmt 0 view .LVU1240
 3718 0256 102B     		cmp	r3, #16
 602:Lib/AI_Runtime/Npu/ll_aton/ll_aton.c ****     out_bits[2] = nbits_out > 16 ? _LL_min(8, nbits_out - 16) : 0;
 3719              		.loc 1 602 61 discriminator 1 view .LVU1241
 3720 0258 D5BF     		itete	le
 3721 025a A3F10801 		suble	r1, r3, #8
 602:Lib/AI_Runtime/Npu/ll_aton/ll_aton.c ****     out_bits[2] = nbits_out > 16 ? _LL_min(8, nbits_out - 16) : 0;
 3722              		.loc 1 602 17 discriminator 4 view .LVU1242
 3723 025e 0821     		movgt	r1, #8
 603:Lib/AI_Runtime/Npu/ll_aton/ll_aton.c ****     if (conf->align_right)
 3724              		.loc 1 603 63 discriminator 2 view .LVU1243
 3725 0260 0023     		movle	r3, #0
 3726              	.LVL402:
 603:Lib/AI_Runtime/Npu/ll_aton/ll_aton.c ****     if (conf->align_right)
 3727              		.loc 1 603 63 discriminator 1 view .LVU1244
 3728 0262 103B     		subgt	r3, r3, #16
 3729              	.LVL403:
 3730              	.L271:
 604:Lib/AI_Runtime/Npu/ll_aton/ll_aton.c ****     {
 3731              		.loc 1 604 5 is_stmt 1 view .LVU1245
 604:Lib/AI_Runtime/Npu/ll_aton/ll_aton.c ****     {
 3732              		.loc 1 604 8 is_stmt 0 view .LVU1246
 3733 0264 09F0FF0B 		and	fp, r9, #255
 3734 0268 B9F1000F 		cmp	r9, #0
 3735 026c 7FF44EAF 		bne	.L269
 612:Lib/AI_Runtime/Npu/ll_aton/ll_aton.c ****       {
 3736              		.loc 1 612 7 is_stmt 1 view .LVU1247
 612:Lib/AI_Runtime/Npu/ll_aton/ll_aton.c ****       {
 3737              		.loc 1 612 10 is_stmt 0 view .LVU1248
 3738 0270 102E     		cmp	r6, #16
 3739 0272 04DC     		bgt	.L288
 618:Lib/AI_Runtime/Npu/ll_aton/ll_aton.c ****       {
 3740              		.loc 1 618 12 is_stmt 1 view .LVU1249
 618:Lib/AI_Runtime/Npu/ll_aton/ll_aton.c ****       {
 3741              		.loc 1 618 15 is_stmt 0 view .LVU1250
 3742 0274 082E     		cmp	r6, #8
 3743 0276 43E7     		b	.L297
 3744              	.LVL404:
 3745              	.L287:
 602:Lib/AI_Runtime/Npu/ll_aton/ll_aton.c ****     out_bits[2] = nbits_out > 16 ? _LL_min(8, nbits_out - 16) : 0;
 3746              		.loc 1 602 17 discriminator 4 view .LVU1251
 3747 0278 0021     		movs	r1, #0
 603:Lib/AI_Runtime/Npu/ll_aton/ll_aton.c ****     if (conf->align_right)
 3748              		.loc 1 603 63 discriminator 2 view .LVU1252
 3749 027a 0B46     		mov	r3, r1
 3750              	.LVL405:
 603:Lib/AI_Runtime/Npu/ll_aton/ll_aton.c ****     if (conf->align_right)
 3751              		.loc 1 603 63 discriminator 2 view .LVU1253
 3752 027c F2E7     		b	.L271
 3753              	.LVL406:
 3754              	.L288:
ARM GAS  C:\Users\DJESSOU\AppData\Local\Temp\ccFxekaC.s 			page 141


 603:Lib/AI_Runtime/Npu/ll_aton/ll_aton.c ****     if (conf->align_right)
 3755              		.loc 1 603 63 discriminator 2 view .LVU1254
 3756 027e F146     		mov	r9, lr
 616:Lib/AI_Runtime/Npu/ll_aton/ll_aton.c ****       }
 3757              		.loc 1 616 20 view .LVU1255
 3758 0280 9E46     		mov	lr, r3
 614:Lib/AI_Runtime/Npu/ll_aton/ll_aton.c ****         ch_bits[1] = out_bits[1];
 3759              		.loc 1 614 20 view .LVU1256
 3760 0282 4B46     		mov	r3, r9
 3761 0284 42E7     		b	.L269
 3762              	.L289:
 533:Lib/AI_Runtime/Npu/ll_aton/ll_aton.c ****   int in_bits[3];
 3763              		.loc 1 533 7 view .LVU1257
 3764 0286 5B46     		mov	r3, fp
 3765 0288 5946     		mov	r1, fp
 3766 028a 3FE7     		b	.L269
 3767              	.LVL407:
 3768              	.L273:
 3769              	.LBB56:
 660:Lib/AI_Runtime/Npu/ll_aton/ll_aton.c ****     t = ATON_STRENG_FSIZE_SET_WIDTH(t, conf->fwidth);
 3770              		.loc 1 660 5 is_stmt 1 view .LVU1258
 661:Lib/AI_Runtime/Npu/ll_aton/ll_aton.c ****     t = ATON_STRENG_FSIZE_SET_HEIGHT(t, conf->fheight);
 3771              		.loc 1 661 5 view .LVU1259
 662:Lib/AI_Runtime/Npu/ll_aton/ll_aton.c ****     ATON_STRENG_FSIZE_SET(id, t);
 3772              		.loc 1 662 9 is_stmt 0 view .LVU1260
 3773 028c D4E90663 		ldrd	r6, r3, [r4, #24]
 661:Lib/AI_Runtime/Npu/ll_aton/ll_aton.c ****     t = ATON_STRENG_FSIZE_SET_HEIGHT(t, conf->fheight);
 3774              		.loc 1 661 9 view .LVU1261
 3775 0290 B0B2     		uxth	r0, r6
 665:Lib/AI_Runtime/Npu/ll_aton/ll_aton.c ****     // if line_offset is left=0 then it's computed from the standard geometry of lines and batch
 3776              		.loc 1 665 87 discriminator 1 view .LVU1262
 3777 0292 4E43     		muls	r6, r1, r6
 662:Lib/AI_Runtime/Npu/ll_aton/ll_aton.c ****     ATON_STRENG_FSIZE_SET(id, t);
 3778              		.loc 1 662 7 view .LVU1263
 3779 0294 40EA0343 		orr	r3, r0, r3, lsl #16
 3780              	.LVL408:
 663:Lib/AI_Runtime/Npu/ll_aton/ll_aton.c **** 
 3781              		.loc 1 663 5 is_stmt 1 view .LVU1264
 663:Lib/AI_Runtime/Npu/ll_aton/ll_aton.c **** 
 3782              		.loc 1 663 5 view .LVU1265
 663:Lib/AI_Runtime/Npu/ll_aton/ll_aton.c **** 
 3783              		.loc 1 663 5 view .LVU1266
 665:Lib/AI_Runtime/Npu/ll_aton/ll_aton.c ****     // if line_offset is left=0 then it's computed from the standard geometry of lines and batch
 3784              		.loc 1 665 32 is_stmt 0 view .LVU1267
 3785 0298 E06A     		ldr	r0, [r4, #44]
 663:Lib/AI_Runtime/Npu/ll_aton/ll_aton.c **** 
 3786              		.loc 1 663 5 discriminator 4 view .LVU1268
 3787 029a 45F80E30 		str	r3, [r5, lr]
 663:Lib/AI_Runtime/Npu/ll_aton/ll_aton.c **** 
 3788              		.loc 1 663 5 is_stmt 1 discriminator 4 view .LVU1269
 663:Lib/AI_Runtime/Npu/ll_aton/ll_aton.c **** 
 3789              		.loc 1 663 5 discriminator 4 view .LVU1270
 665:Lib/AI_Runtime/Npu/ll_aton/ll_aton.c ****     // if line_offset is left=0 then it's computed from the standard geometry of lines and batch
 3790              		.loc 1 665 5 view .LVU1271
 665:Lib/AI_Runtime/Npu/ll_aton/ll_aton.c ****     // if line_offset is left=0 then it's computed from the standard geometry of lines and batch
 3791              		.loc 1 665 87 is_stmt 0 discriminator 1 view .LVU1272
 3792 029e 0028     		cmp	r0, #0
ARM GAS  C:\Users\DJESSOU\AppData\Local\Temp\ccFxekaC.s 			page 142


 3793 02a0 08BF     		it	eq
 3794 02a2 3046     		moveq	r0, r6
 3795              	.LVL409:
 667:Lib/AI_Runtime/Npu/ll_aton/ll_aton.c **** 
 3796              		.loc 1 667 5 is_stmt 1 view .LVU1273
 667:Lib/AI_Runtime/Npu/ll_aton/ll_aton.c **** 
 3797              		.loc 1 667 21 is_stmt 0 view .LVU1274
 3798 02a4 83B2     		uxth	r3, r0
 3799              	.LVL410:
 667:Lib/AI_Runtime/Npu/ll_aton/ll_aton.c **** 
 3800              		.loc 1 667 19 view .LVU1275
 3801 02a6 1A43     		orrs	r2, r2, r3
 3802              	.LVL411:
 670:Lib/AI_Runtime/Npu/ll_aton/ll_aton.c ****     t = ATON_STRENG_CID_CACHE_SET_LOFF_MSB(t, (line_offset >> ATON_STRENG_STRD_LOFF_W));
 3803              		.loc 1 670 5 is_stmt 1 view .LVU1276
 671:Lib/AI_Runtime/Npu/ll_aton/ll_aton.c ****     t_streng_cid_cache = t;
 3804              		.loc 1 671 5 view .LVU1277
 676:Lib/AI_Runtime/Npu/ll_aton/ll_aton.c ****     t = ATON_STRENG_DEPTH_SET_OFFSET(t, conf->batch_offset);
 3805              		.loc 1 676 9 is_stmt 0 view .LVU1278
 3806 02a8 238C     		ldrh	r3, [r4, #32]
 678:Lib/AI_Runtime/Npu/ll_aton/ll_aton.c ****   }
 3807              		.loc 1 678 5 discriminator 1 view .LVU1279
 3808 02aa 0B4E     		ldr	r6, .L298+32
 677:Lib/AI_Runtime/Npu/ll_aton/ll_aton.c ****     ATON_STRENG_DEPTH_SET(id, t);
 3809              		.loc 1 677 7 view .LVU1280
 3810 02ac 43EA0143 		orr	r3, r3, r1, lsl #16
 671:Lib/AI_Runtime/Npu/ll_aton/ll_aton.c ****     t_streng_cid_cache = t;
 3811              		.loc 1 671 9 view .LVU1281
 3812 02b0 6FF30F00 		bfc	r0, #0, #16
 3813              	.LVL412:
 672:Lib/AI_Runtime/Npu/ll_aton/ll_aton.c **** #endif
 3814              		.loc 1 672 5 is_stmt 1 view .LVU1282
 675:Lib/AI_Runtime/Npu/ll_aton/ll_aton.c ****     t = ATON_STRENG_DEPTH_SET_SIZE(t, conf->batch_depth);
 3815              		.loc 1 675 5 view .LVU1283
 676:Lib/AI_Runtime/Npu/ll_aton/ll_aton.c ****     t = ATON_STRENG_DEPTH_SET_OFFSET(t, conf->batch_offset);
 3816              		.loc 1 676 5 view .LVU1284
 677:Lib/AI_Runtime/Npu/ll_aton/ll_aton.c ****     ATON_STRENG_DEPTH_SET(id, t);
 3817              		.loc 1 677 5 view .LVU1285
 678:Lib/AI_Runtime/Npu/ll_aton/ll_aton.c ****   }
 3818              		.loc 1 678 5 view .LVU1286
 678:Lib/AI_Runtime/Npu/ll_aton/ll_aton.c ****   }
 3819              		.loc 1 678 5 view .LVU1287
 678:Lib/AI_Runtime/Npu/ll_aton/ll_aton.c ****   }
 3820              		.loc 1 678 5 view .LVU1288
 678:Lib/AI_Runtime/Npu/ll_aton/ll_aton.c ****   }
 3821              		.loc 1 678 5 is_stmt 0 discriminator 4 view .LVU1289
 3822 02b4 AB51     		str	r3, [r5, r6]
 3823 02b6 50E7     		b	.L277
 3824              	.L299:
 3825              		.align	2
 3826              	.L298:
 3827 02b8 08500E58 		.word	1477333000
 3828 02bc 18500E58 		.word	1477333016
 3829 02c0 38500E58 		.word	1477333048
 3830 02c4 34500E58 		.word	1477333044
 3831 02c8 24500E58 		.word	1477333028
 3832 02cc 48500E58 		.word	1477333064
ARM GAS  C:\Users\DJESSOU\AppData\Local\Temp\ccFxekaC.s 			page 143


 3833 02d0 28500E58 		.word	1477333032
 3834 02d4 44500E58 		.word	1477333060
 3835 02d8 10500E58 		.word	1477333008
 3836 02dc 0C500E58 		.word	1477333004
 3837              	.LBE56:
 3838              		.cfi_endproc
 3839              	.LFE292:
 3841              		.section	.text.LL_Streng_ExtSyncInit,"ax",%progbits
 3842              		.align	1
 3843              		.global	LL_Streng_ExtSyncInit
 3844              		.syntax unified
 3845              		.thumb
 3846              		.thumb_func
 3848              	LL_Streng_ExtSyncInit:
 3849              	.LVL413:
 3850              	.LFB293:
 782:Lib/AI_Runtime/Npu/ll_aton/ll_aton.c **** #ifdef ATON_STRENG_EXTSYNC_SET
 3851              		.loc 1 782 1 is_stmt 1 view -0
 3852              		.cfi_startproc
 3853              		@ args = 0, pretend = 0, frame = 0
 3854              		@ frame_needed = 0, uses_anonymous_args = 0
 784:Lib/AI_Runtime/Npu/ll_aton/ll_aton.c **** 
 3855              		.loc 1 784 3 view .LVU1291
 786:Lib/AI_Runtime/Npu/ll_aton/ll_aton.c ****     return LL_ATON_INVALID_ID;
 3856              		.loc 1 786 3 view .LVU1292
 786:Lib/AI_Runtime/Npu/ll_aton/ll_aton.c ****     return LL_ATON_INVALID_ID;
 3857              		.loc 1 786 6 is_stmt 0 view .LVU1293
 3858 0000 0928     		cmp	r0, #9
 782:Lib/AI_Runtime/Npu/ll_aton/ll_aton.c **** #ifdef ATON_STRENG_EXTSYNC_SET
 3859              		.loc 1 782 1 view .LVU1294
 3860 0002 38B5     		push	{r3, r4, r5, lr}
 3861              		.cfi_def_cfa_offset 16
 3862              		.cfi_offset 3, -16
 3863              		.cfi_offset 4, -12
 3864              		.cfi_offset 5, -8
 3865              		.cfi_offset 14, -4
 782:Lib/AI_Runtime/Npu/ll_aton/ll_aton.c **** #ifdef ATON_STRENG_EXTSYNC_SET
 3866              		.loc 1 782 1 view .LVU1295
 3867 0004 0D46     		mov	r5, r1
 786:Lib/AI_Runtime/Npu/ll_aton/ll_aton.c ****     return LL_ATON_INVALID_ID;
 3868              		.loc 1 786 6 view .LVU1296
 3869 0006 16DC     		bgt	.L302
 789:Lib/AI_Runtime/Npu/ll_aton/ll_aton.c **** 
 3870              		.loc 1 789 3 is_stmt 1 view .LVU1297
 789:Lib/AI_Runtime/Npu/ll_aton/ll_aton.c **** 
 3871              		.loc 1 789 3 is_stmt 0 discriminator 4 view .LVU1298
 3872 0008 FFF7FEFF 		bl	LL_ATON_EnableClock
 3873              	.LVL414:
 791:Lib/AI_Runtime/Npu/ll_aton/ll_aton.c ****   t = ATON_STRENG_EXTSYNC_SET_EN(t, conf->enable);
 3874              		.loc 1 791 3 is_stmt 1 view .LVU1299
 792:Lib/AI_Runtime/Npu/ll_aton/ll_aton.c ****   t = ATON_STRENG_EXTSYNC_SET_SRC(t, conf->trig_source);
 3875              		.loc 1 792 3 view .LVU1300
 793:Lib/AI_Runtime/Npu/ll_aton/ll_aton.c ****   t = ATON_STRENG_EXTSYNC_SET_LINES(t, conf->lines);
 3876              		.loc 1 793 3 view .LVU1301
 794:Lib/AI_Runtime/Npu/ll_aton/ll_aton.c ****   ATON_STRENG_EXTSYNC_SET(id, t);
 3877              		.loc 1 794 3 view .LVU1302
 795:Lib/AI_Runtime/Npu/ll_aton/ll_aton.c **** 
ARM GAS  C:\Users\DJESSOU\AppData\Local\Temp\ccFxekaC.s 			page 144


 3878              		.loc 1 795 3 is_stmt 0 discriminator 1 view .LVU1303
 3879 000c 0403     		lsls	r4, r0, #12
 802:Lib/AI_Runtime/Npu/ll_aton/ll_aton.c **** }
 3880              		.loc 1 802 10 view .LVU1304
 3881 000e 0020     		movs	r0, #0
 3882              	.LVL415:
 792:Lib/AI_Runtime/Npu/ll_aton/ll_aton.c ****   t = ATON_STRENG_EXTSYNC_SET_SRC(t, conf->trig_source);
 3883              		.loc 1 792 7 view .LVU1305
 3884 0010 2A78     		ldrb	r2, [r5]	@ zero_extendqisi2
 794:Lib/AI_Runtime/Npu/ll_aton/ll_aton.c ****   ATON_STRENG_EXTSYNC_SET(id, t);
 3885              		.loc 1 794 7 view .LVU1306
 3886 0012 6968     		ldr	r1, [r5, #4]
 792:Lib/AI_Runtime/Npu/ll_aton/ll_aton.c ****   t = ATON_STRENG_EXTSYNC_SET_SRC(t, conf->trig_source);
 3887              		.loc 1 792 7 view .LVU1307
 3888 0014 02F00103 		and	r3, r2, #1
 794:Lib/AI_Runtime/Npu/ll_aton/ll_aton.c ****   ATON_STRENG_EXTSYNC_SET(id, t);
 3889              		.loc 1 794 5 view .LVU1308
 3890 0018 43EA0143 		orr	r3, r3, r1, lsl #16
 793:Lib/AI_Runtime/Npu/ll_aton/ll_aton.c ****   t = ATON_STRENG_EXTSYNC_SET_LINES(t, conf->lines);
 3891              		.loc 1 793 7 view .LVU1309
 3892 001c C2F34302 		ubfx	r2, r2, #1, #4
 794:Lib/AI_Runtime/Npu/ll_aton/ll_aton.c ****   ATON_STRENG_EXTSYNC_SET(id, t);
 3893              		.loc 1 794 5 view .LVU1310
 3894 0020 43EA0213 		orr	r3, r3, r2, lsl #4
 3895              	.LVL416:
 795:Lib/AI_Runtime/Npu/ll_aton/ll_aton.c **** 
 3896              		.loc 1 795 3 is_stmt 1 view .LVU1311
 795:Lib/AI_Runtime/Npu/ll_aton/ll_aton.c **** 
 3897              		.loc 1 795 3 view .LVU1312
 795:Lib/AI_Runtime/Npu/ll_aton/ll_aton.c **** 
 3898              		.loc 1 795 3 view .LVU1313
 795:Lib/AI_Runtime/Npu/ll_aton/ll_aton.c **** 
 3899              		.loc 1 795 3 is_stmt 0 discriminator 1 view .LVU1314
 3900 0024 054A     		ldr	r2, .L303
 795:Lib/AI_Runtime/Npu/ll_aton/ll_aton.c **** 
 3901              		.loc 1 795 3 discriminator 4 view .LVU1315
 3902 0026 A350     		str	r3, [r4, r2]
 795:Lib/AI_Runtime/Npu/ll_aton/ll_aton.c **** 
 3903              		.loc 1 795 3 is_stmt 1 discriminator 4 view .LVU1316
 795:Lib/AI_Runtime/Npu/ll_aton/ll_aton.c **** 
 3904              		.loc 1 795 3 discriminator 4 view .LVU1317
 797:Lib/AI_Runtime/Npu/ll_aton/ll_aton.c ****   t = ATON_STRENG_EXTSYNC2_SET_LINES(t, conf->lines_offset);
 3905              		.loc 1 797 3 view .LVU1318
 3906              	.LVL417:
 798:Lib/AI_Runtime/Npu/ll_aton/ll_aton.c ****   t = ATON_STRENG_EXTSYNC2_SET_OFF(t, conf->offset);
 3907              		.loc 1 798 3 view .LVU1319
 799:Lib/AI_Runtime/Npu/ll_aton/ll_aton.c ****   ATON_STRENG_EXTSYNC2_SET(id, t);
 3908              		.loc 1 799 3 view .LVU1320
 799:Lib/AI_Runtime/Npu/ll_aton/ll_aton.c ****   ATON_STRENG_EXTSYNC2_SET(id, t);
 3909              		.loc 1 799 7 is_stmt 0 view .LVU1321
 3910 0028 EA68     		ldr	r2, [r5, #12]
 798:Lib/AI_Runtime/Npu/ll_aton/ll_aton.c ****   t = ATON_STRENG_EXTSYNC2_SET_OFF(t, conf->offset);
 3911              		.loc 1 798 7 view .LVU1322
 3912 002a 2B89     		ldrh	r3, [r5, #8]
 799:Lib/AI_Runtime/Npu/ll_aton/ll_aton.c ****   ATON_STRENG_EXTSYNC2_SET(id, t);
 3913              		.loc 1 799 5 view .LVU1323
 3914 002c 43EA0243 		orr	r3, r3, r2, lsl #16
ARM GAS  C:\Users\DJESSOU\AppData\Local\Temp\ccFxekaC.s 			page 145


 3915              	.LVL418:
 800:Lib/AI_Runtime/Npu/ll_aton/ll_aton.c **** #endif
 3916              		.loc 1 800 3 is_stmt 1 view .LVU1324
 800:Lib/AI_Runtime/Npu/ll_aton/ll_aton.c **** #endif
 3917              		.loc 1 800 3 view .LVU1325
 800:Lib/AI_Runtime/Npu/ll_aton/ll_aton.c **** #endif
 3918              		.loc 1 800 3 view .LVU1326
 800:Lib/AI_Runtime/Npu/ll_aton/ll_aton.c **** #endif
 3919              		.loc 1 800 3 is_stmt 0 discriminator 1 view .LVU1327
 3920 0030 034A     		ldr	r2, .L303+4
 800:Lib/AI_Runtime/Npu/ll_aton/ll_aton.c **** #endif
 3921              		.loc 1 800 3 discriminator 4 view .LVU1328
 3922 0032 A350     		str	r3, [r4, r2]
 800:Lib/AI_Runtime/Npu/ll_aton/ll_aton.c **** #endif
 3923              		.loc 1 800 3 is_stmt 1 discriminator 4 view .LVU1329
 800:Lib/AI_Runtime/Npu/ll_aton/ll_aton.c **** #endif
 3924              		.loc 1 800 3 discriminator 4 view .LVU1330
 802:Lib/AI_Runtime/Npu/ll_aton/ll_aton.c **** }
 3925              		.loc 1 802 3 view .LVU1331
 3926              	.LVL419:
 3927              	.L300:
 803:Lib/AI_Runtime/Npu/ll_aton/ll_aton.c **** 
 3928              		.loc 1 803 1 is_stmt 0 view .LVU1332
 3929 0034 38BD     		pop	{r3, r4, r5, pc}
 3930              	.LVL420:
 3931              	.L302:
 787:Lib/AI_Runtime/Npu/ll_aton/ll_aton.c **** 
 3932              		.loc 1 787 12 view .LVU1333
 3933 0036 4FF0FF30 		mov	r0, #-1
 3934              	.LVL421:
 787:Lib/AI_Runtime/Npu/ll_aton/ll_aton.c **** 
 3935              		.loc 1 787 12 view .LVU1334
 3936 003a FBE7     		b	.L300
 3937              	.L304:
 3938              		.align	2
 3939              	.L303:
 3940 003c 4C500E58 		.word	1477333068
 3941 0040 50500E58 		.word	1477333072
 3942              		.cfi_endproc
 3943              	.LFE293:
 3945              		.section	.rodata.LL_Decun_Init.str1.1,"aMS",%progbits,1
 3946              	.LC27:
 3947 0000 28636F6E 		.ascii	"(conf->nFormatBytes == 1) || (conf->nFormatBytes =="
 3947      662D3E6E 
 3947      466F726D 
 3947      61744279 
 3947      74657320 
 3948 0033 20322900 		.ascii	" 2)\000"
 3949              		.section	.text.LL_Decun_Init,"ax",%progbits
 3950              		.align	1
 3951              		.global	LL_Decun_Init
 3952              		.syntax unified
 3953              		.thumb
 3954              		.thumb_func
 3956              	LL_Decun_Init:
 3957              	.LVL422:
 3958              	.LFB305:
ARM GAS  C:\Users\DJESSOU\AppData\Local\Temp\ccFxekaC.s 			page 146


1567:Lib/AI_Runtime/Npu/ll_aton/ll_aton.c ****   uint32_t t;
 3959              		.loc 1 1567 1 is_stmt 1 view -0
 3960              		.cfi_startproc
 3961              		@ args = 0, pretend = 0, frame = 0
 3962              		@ frame_needed = 0, uses_anonymous_args = 0
1568:Lib/AI_Runtime/Npu/ll_aton/ll_aton.c **** 
 3963              		.loc 1 1568 3 view .LVU1336
1570:Lib/AI_Runtime/Npu/ll_aton/ll_aton.c ****     return LL_ATON_INVALID_ID;
 3964              		.loc 1 1570 3 view .LVU1337
1570:Lib/AI_Runtime/Npu/ll_aton/ll_aton.c ****     return LL_ATON_INVALID_ID;
 3965              		.loc 1 1570 6 is_stmt 0 view .LVU1338
 3966 0000 0128     		cmp	r0, #1
1567:Lib/AI_Runtime/Npu/ll_aton/ll_aton.c ****   uint32_t t;
 3967              		.loc 1 1567 1 view .LVU1339
 3968 0002 2DE9F84F 		push	{r3, r4, r5, r6, r7, r8, r9, r10, fp, lr}
 3969              		.cfi_def_cfa_offset 40
 3970              		.cfi_offset 3, -40
 3971              		.cfi_offset 4, -36
 3972              		.cfi_offset 5, -32
 3973              		.cfi_offset 6, -28
 3974              		.cfi_offset 7, -24
 3975              		.cfi_offset 8, -20
 3976              		.cfi_offset 9, -16
 3977              		.cfi_offset 10, -12
 3978              		.cfi_offset 11, -8
 3979              		.cfi_offset 14, -4
1567:Lib/AI_Runtime/Npu/ll_aton/ll_aton.c ****   uint32_t t;
 3980              		.loc 1 1567 1 view .LVU1340
 3981 0006 0646     		mov	r6, r0
 3982 0008 0D46     		mov	r5, r1
1570:Lib/AI_Runtime/Npu/ll_aton/ll_aton.c ****     return LL_ATON_INVALID_ID;
 3983              		.loc 1 1570 6 view .LVU1341
 3984 000a 00F38982 		bgt	.L368
1573:Lib/AI_Runtime/Npu/ll_aton/ll_aton.c **** 
 3985              		.loc 1 1573 3 is_stmt 1 view .LVU1342
1573:Lib/AI_Runtime/Npu/ll_aton/ll_aton.c **** 
 3986              		.loc 1 1573 3 is_stmt 0 discriminator 4 view .LVU1343
 3987 000e 0E30     		adds	r0, r0, #14
 3988              	.LVL423:
1573:Lib/AI_Runtime/Npu/ll_aton/ll_aton.c **** 
 3989              		.loc 1 1573 3 discriminator 4 view .LVU1344
 3990 0010 FFF7FEFF 		bl	LL_ATON_EnableClock
 3991              	.LVL424:
1575:Lib/AI_Runtime/Npu/ll_aton/ll_aton.c ****   t = ATON_DECUN_CTRL_SET_DUALIN(t, (conf->noDualInput != 0));
 3992              		.loc 1 1575 3 is_stmt 1 view .LVU1345
1576:Lib/AI_Runtime/Npu/ll_aton/ll_aton.c ****   t = ATON_DECUN_CTRL_SET_OW(t, (conf->noOverWrite != 0));
 3993              		.loc 1 1576 3 view .LVU1346
1577:Lib/AI_Runtime/Npu/ll_aton/ll_aton.c ****   ATON_DECUN_CTRL_SET(id, t);
 3994              		.loc 1 1577 3 view .LVU1347
1576:Lib/AI_Runtime/Npu/ll_aton/ll_aton.c ****   t = ATON_DECUN_CTRL_SET_OW(t, (conf->noOverWrite != 0));
 3995              		.loc 1 1576 7 is_stmt 0 view .LVU1348
 3996 0014 297A     		ldrb	r1, [r5, #8]	@ zero_extendqisi2
1578:Lib/AI_Runtime/Npu/ll_aton/ll_aton.c **** 
 3997              		.loc 1 1578 3 discriminator 1 view .LVU1349
 3998 0016 3703     		lsls	r7, r6, #12
1576:Lib/AI_Runtime/Npu/ll_aton/ll_aton.c ****   t = ATON_DECUN_CTRL_SET_OW(t, (conf->noOverWrite != 0));
 3999              		.loc 1 1576 7 view .LVU1350
ARM GAS  C:\Users\DJESSOU\AppData\Local\Temp\ccFxekaC.s 			page 147


 4000 0018 8900     		lsls	r1, r1, #2
1578:Lib/AI_Runtime/Npu/ll_aton/ll_aton.c **** 
 4001              		.loc 1 1578 3 discriminator 1 view .LVU1351
 4002 001a 07F1B043 		add	r3, r7, #1476395008
1580:Lib/AI_Runtime/Npu/ll_aton/ll_aton.c ****   {
 4003              		.loc 1 1580 11 view .LVU1352
 4004 001e 2C69     		ldr	r4, [r5, #16]
1577:Lib/AI_Runtime/Npu/ll_aton/ll_aton.c ****   ATON_DECUN_CTRL_SET(id, t);
 4005              		.loc 1 1577 5 view .LVU1353
 4006 0020 01F00C01 		and	r1, r1, #12
 4007              	.LVL425:
1578:Lib/AI_Runtime/Npu/ll_aton/ll_aton.c **** 
 4008              		.loc 1 1578 3 is_stmt 1 view .LVU1354
1578:Lib/AI_Runtime/Npu/ll_aton/ll_aton.c **** 
 4009              		.loc 1 1578 3 view .LVU1355
1578:Lib/AI_Runtime/Npu/ll_aton/ll_aton.c **** 
 4010              		.loc 1 1578 3 view .LVU1356
1578:Lib/AI_Runtime/Npu/ll_aton/ll_aton.c **** 
 4011              		.loc 1 1578 3 is_stmt 0 discriminator 1 view .LVU1357
 4012 0024 03F57323 		add	r3, r3, #995328
1578:Lib/AI_Runtime/Npu/ll_aton/ll_aton.c **** 
 4013              		.loc 1 1578 3 discriminator 4 view .LVU1358
 4014 0028 1960     		str	r1, [r3]
1578:Lib/AI_Runtime/Npu/ll_aton/ll_aton.c **** 
 4015              		.loc 1 1578 3 is_stmt 1 discriminator 4 view .LVU1359
1578:Lib/AI_Runtime/Npu/ll_aton/ll_aton.c **** 
 4016              		.loc 1 1578 3 discriminator 4 view .LVU1360
1580:Lib/AI_Runtime/Npu/ll_aton/ll_aton.c ****   {
 4017              		.loc 1 1580 3 view .LVU1361
1580:Lib/AI_Runtime/Npu/ll_aton/ll_aton.c ****   {
 4018              		.loc 1 1580 6 is_stmt 0 view .LVU1362
 4019 002a DCB9     		cbnz	r4, .L307
 4020              	.LVL426:
 4021              	.L331:
1593:Lib/AI_Runtime/Npu/ll_aton/ll_aton.c ****   t = ATON_DECUN_BFORMAT_SET_CVS(t, conf->nCVperCB - 1);
 4022              		.loc 1 1593 3 is_stmt 1 view .LVU1363
1594:Lib/AI_Runtime/Npu/ll_aton/ll_aton.c ****   t = ATON_DECUN_BFORMAT_SET_CWS(t, conf->nCWperCV - 1);
 4023              		.loc 1 1594 3 view .LVU1364
1595:Lib/AI_Runtime/Npu/ll_aton/ll_aton.c ****   t = ATON_DECUN_BFORMAT_SET_OSAM(t, conf->nRCWlastCV);
 4024              		.loc 1 1595 3 view .LVU1365
1596:Lib/AI_Runtime/Npu/ll_aton/ll_aton.c ****   ATON_DECUN_BFORMAT_SET(id, t);
 4025              		.loc 1 1596 3 view .LVU1366
1594:Lib/AI_Runtime/Npu/ll_aton/ll_aton.c ****   t = ATON_DECUN_BFORMAT_SET_CWS(t, conf->nCWperCV - 1);
 4026              		.loc 1 1594 7 is_stmt 0 view .LVU1367
 4027 002c 2B88     		ldrh	r3, [r5]
1596:Lib/AI_Runtime/Npu/ll_aton/ll_aton.c ****   ATON_DECUN_BFORMAT_SET(id, t);
 4028              		.loc 1 1596 7 view .LVU1368
 4029 002e EA78     		ldrb	r2, [r5, #3]	@ zero_extendqisi2
1594:Lib/AI_Runtime/Npu/ll_aton/ll_aton.c ****   t = ATON_DECUN_BFORMAT_SET_CWS(t, conf->nCWperCV - 1);
 4030              		.loc 1 1594 7 view .LVU1369
 4031 0030 013B     		subs	r3, r3, #1
1596:Lib/AI_Runtime/Npu/ll_aton/ll_aton.c ****   ATON_DECUN_BFORMAT_SET(id, t);
 4032              		.loc 1 1596 7 view .LVU1370
 4033 0032 1203     		lsls	r2, r2, #12
 4034 0034 02F4E042 		and	r2, r2, #28672
1594:Lib/AI_Runtime/Npu/ll_aton/ll_aton.c ****   t = ATON_DECUN_BFORMAT_SET_CWS(t, conf->nCWperCV - 1);
 4035              		.loc 1 1594 7 view .LVU1371
ARM GAS  C:\Users\DJESSOU\AppData\Local\Temp\ccFxekaC.s 			page 148


 4036 0038 DBB2     		uxtb	r3, r3
1596:Lib/AI_Runtime/Npu/ll_aton/ll_aton.c ****   ATON_DECUN_BFORMAT_SET(id, t);
 4037              		.loc 1 1596 5 view .LVU1372
 4038 003a 1343     		orrs	r3, r3, r2
1595:Lib/AI_Runtime/Npu/ll_aton/ll_aton.c ****   t = ATON_DECUN_BFORMAT_SET_OSAM(t, conf->nRCWlastCV);
 4039              		.loc 1 1595 7 view .LVU1373
 4040 003c AA78     		ldrb	r2, [r5, #2]	@ zero_extendqisi2
 4041              	.LVL427:
1595:Lib/AI_Runtime/Npu/ll_aton/ll_aton.c ****   t = ATON_DECUN_BFORMAT_SET_OSAM(t, conf->nRCWlastCV);
 4042              		.loc 1 1595 7 view .LVU1374
 4043 003e 013A     		subs	r2, r2, #1
 4044              	.LVL428:
1595:Lib/AI_Runtime/Npu/ll_aton/ll_aton.c ****   t = ATON_DECUN_BFORMAT_SET_OSAM(t, conf->nRCWlastCV);
 4045              		.loc 1 1595 7 view .LVU1375
 4046 0040 1202     		lsls	r2, r2, #8
 4047              	.LVL429:
1595:Lib/AI_Runtime/Npu/ll_aton/ll_aton.c ****   t = ATON_DECUN_BFORMAT_SET_OSAM(t, conf->nRCWlastCV);
 4048              		.loc 1 1595 7 view .LVU1376
 4049 0042 02F4E062 		and	r2, r2, #1792
1596:Lib/AI_Runtime/Npu/ll_aton/ll_aton.c ****   ATON_DECUN_BFORMAT_SET(id, t);
 4050              		.loc 1 1596 5 view .LVU1377
 4051 0046 1343     		orrs	r3, r3, r2
 4052              	.LVL430:
1597:Lib/AI_Runtime/Npu/ll_aton/ll_aton.c **** 
 4053              		.loc 1 1597 3 is_stmt 1 view .LVU1378
1597:Lib/AI_Runtime/Npu/ll_aton/ll_aton.c **** 
 4054              		.loc 1 1597 3 view .LVU1379
1597:Lib/AI_Runtime/Npu/ll_aton/ll_aton.c **** 
 4055              		.loc 1 1597 3 view .LVU1380
1597:Lib/AI_Runtime/Npu/ll_aton/ll_aton.c **** 
 4056              		.loc 1 1597 3 is_stmt 0 discriminator 1 view .LVU1381
 4057 0048 BE4A     		ldr	r2, .L377
1597:Lib/AI_Runtime/Npu/ll_aton/ll_aton.c **** 
 4058              		.loc 1 1597 3 discriminator 4 view .LVU1382
 4059 004a BB50     		str	r3, [r7, r2]
1597:Lib/AI_Runtime/Npu/ll_aton/ll_aton.c **** 
 4060              		.loc 1 1597 3 is_stmt 1 discriminator 4 view .LVU1383
1597:Lib/AI_Runtime/Npu/ll_aton/ll_aton.c **** 
 4061              		.loc 1 1597 3 discriminator 4 view .LVU1384
1599:Lib/AI_Runtime/Npu/ll_aton/ll_aton.c **** 
 4062              		.loc 1 1599 3 view .LVU1385
 4063 004c 2B79     		ldrb	r3, [r5, #4]	@ zero_extendqisi2
 4064              	.LVL431:
1599:Lib/AI_Runtime/Npu/ll_aton/ll_aton.c **** 
 4065              		.loc 1 1599 3 is_stmt 0 view .LVU1386
 4066 004e 5A1E     		subs	r2, r3, #1
 4067              	.LVL432:
1599:Lib/AI_Runtime/Npu/ll_aton/ll_aton.c **** 
 4068              		.loc 1 1599 3 view .LVU1387
 4069 0050 012A     		cmp	r2, #1
 4070 0052 40F25982 		bls	.L376
1599:Lib/AI_Runtime/Npu/ll_aton/ll_aton.c **** 
 4071              		.loc 1 1599 3 discriminator 1 view .LVU1388
 4072 0056 40F23F61 		movw	r1, #1599
 4073 005a BB4B     		ldr	r3, .L377+4
 4074 005c BB4A     		ldr	r2, .L377+8
 4075 005e BC48     		ldr	r0, .L377+12
ARM GAS  C:\Users\DJESSOU\AppData\Local\Temp\ccFxekaC.s 			page 149


 4076 0060 FFF7FEFF 		bl	__assert_func
 4077              	.LVL433:
 4078              	.L307:
1582:Lib/AI_Runtime/Npu/ll_aton/ll_aton.c ****     {
 4079              		.loc 1 1582 5 is_stmt 1 view .LVU1389
1582:Lib/AI_Runtime/Npu/ll_aton/ll_aton.c ****     {
 4080              		.loc 1 1582 8 is_stmt 0 view .LVU1390
 4081 0064 2B79     		ldrb	r3, [r5, #4]	@ zero_extendqisi2
 4082              	.LBB91:
 4083              	.LBB92:
1220:Lib/AI_Runtime/Npu/ll_aton/ll_aton.c ****   {
 4084              		.loc 1 1220 11 view .LVU1391
 4085 0066 95F80280 		ldrb	r8, [r5, #2]	@ zero_extendqisi2
 4086              	.LBE92:
 4087              	.LBE91:
1582:Lib/AI_Runtime/Npu/ll_aton/ll_aton.c ****     {
 4088              		.loc 1 1582 8 view .LVU1392
 4089 006a 012B     		cmp	r3, #1
 4090 006c 40F00C81 		bne	.L310
1584:Lib/AI_Runtime/Npu/ll_aton/ll_aton.c ****     }
 4091              		.loc 1 1584 7 is_stmt 1 view .LVU1393
 4092              	.LVL434:
 4093              	.LBB113:
 4094              	.LBI91:
1214:Lib/AI_Runtime/Npu/ll_aton/ll_aton.c **** {
 4095              		.loc 1 1214 13 view .LVU1394
 4096              	.LBB112:
1216:Lib/AI_Runtime/Npu/ll_aton/ll_aton.c ****   unsigned i, k;
 4097              		.loc 1 1216 3 view .LVU1395
1217:Lib/AI_Runtime/Npu/ll_aton/ll_aton.c ****   unsigned mem_idx_num = ATON_DECUN_MEM_LOW_IDX_MAX - ATON_DECUN_MEM_LOW_IDX_MIN + 1;
 4098              		.loc 1 1217 3 view .LVU1396
1218:Lib/AI_Runtime/Npu/ll_aton/ll_aton.c **** 
 4099              		.loc 1 1218 3 view .LVU1397
1220:Lib/AI_Runtime/Npu/ll_aton/ll_aton.c ****   {
 4100              		.loc 1 1220 3 view .LVU1398
1220:Lib/AI_Runtime/Npu/ll_aton/ll_aton.c ****   {
 4101              		.loc 1 1220 6 is_stmt 0 view .LVU1399
 4102 0070 B8F1010F 		cmp	r8, #1
 4103 0074 16D1     		bne	.L311
 4104              	.LBB93:
1222:Lib/AI_Runtime/Npu/ll_aton/ll_aton.c ****     for (i = 0, k = 0; i < CBsize; i++)
 4105              		.loc 1 1222 5 is_stmt 1 view .LVU1400
 4106              	.LVL435:
1223:Lib/AI_Runtime/Npu/ll_aton/ll_aton.c ****     {
 4107              		.loc 1 1223 5 view .LVU1401
1223:Lib/AI_Runtime/Npu/ll_aton/ll_aton.c ****     {
 4108              		.loc 1 1223 26 discriminator 1 view .LVU1402
1223:Lib/AI_Runtime/Npu/ll_aton/ll_aton.c ****     {
 4109              		.loc 1 1223 19 is_stmt 0 view .LVU1403
 4110 0076 0023     		movs	r3, #0
 4111 0078 D5F80C80 		ldr	r8, [r5, #12]
 4112 007c 04EB0809 		add	r9, r4, r8
 4113              	.LBB94:
1226:Lib/AI_Runtime/Npu/ll_aton/ll_aton.c ****       k++;
 4114              		.loc 1 1226 7 discriminator 1 view .LVU1404
 4115 0080 B44C     		ldr	r4, .L377+16
 4116              	.LVL436:
ARM GAS  C:\Users\DJESSOU\AppData\Local\Temp\ccFxekaC.s 			page 150


1226:Lib/AI_Runtime/Npu/ll_aton/ll_aton.c ****       k++;
 4117              		.loc 1 1226 7 discriminator 1 view .LVU1405
 4118 0082 3C44     		add	r4, r4, r7
 4119              	.LVL437:
 4120              	.L313:
1225:Lib/AI_Runtime/Npu/ll_aton/ll_aton.c ****       ATON_DECUN_MEM_LOW_SET(id, k, temp);
 4121              		.loc 1 1225 7 is_stmt 1 view .LVU1406
1225:Lib/AI_Runtime/Npu/ll_aton/ll_aton.c ****       ATON_DECUN_MEM_LOW_SET(id, k, temp);
 4122              		.loc 1 1225 26 is_stmt 0 view .LVU1407
 4123 0084 18F8012B 		ldrb	r2, [r8], #1	@ zero_extendqisi2
 4124              	.LVL438:
1226:Lib/AI_Runtime/Npu/ll_aton/ll_aton.c ****       k++;
 4125              		.loc 1 1226 7 is_stmt 1 view .LVU1408
1226:Lib/AI_Runtime/Npu/ll_aton/ll_aton.c ****       k++;
 4126              		.loc 1 1226 7 view .LVU1409
1226:Lib/AI_Runtime/Npu/ll_aton/ll_aton.c ****       k++;
 4127              		.loc 1 1226 7 is_stmt 0 discriminator 4 view .LVU1410
 4128 0088 44F83320 		str	r2, [r4, r3, lsl #3]
1226:Lib/AI_Runtime/Npu/ll_aton/ll_aton.c ****       k++;
 4129              		.loc 1 1226 7 is_stmt 1 discriminator 4 view .LVU1411
1227:Lib/AI_Runtime/Npu/ll_aton/ll_aton.c ****       if (k == mem_idx_num)
 4130              		.loc 1 1227 7 view .LVU1412
1227:Lib/AI_Runtime/Npu/ll_aton/ll_aton.c ****       if (k == mem_idx_num)
 4131              		.loc 1 1227 8 is_stmt 0 view .LVU1413
 4132 008c 0133     		adds	r3, r3, #1
 4133              	.LVL439:
1228:Lib/AI_Runtime/Npu/ll_aton/ll_aton.c ****       {
 4134              		.loc 1 1228 7 is_stmt 1 view .LVU1414
1228:Lib/AI_Runtime/Npu/ll_aton/ll_aton.c ****       {
 4135              		.loc 1 1228 10 is_stmt 0 view .LVU1415
 4136 008e B3F5807F 		cmp	r3, #256
 4137 0092 04D1     		bne	.L312
1230:Lib/AI_Runtime/Npu/ll_aton/ll_aton.c ****         k = 0;
 4138              		.loc 1 1230 9 is_stmt 1 view .LVU1416
1230:Lib/AI_Runtime/Npu/ll_aton/ll_aton.c ****         k = 0;
 4139              		.loc 1 1230 20 is_stmt 0 view .LVU1417
 4140 0094 3046     		mov	r0, r6
 4141 0096 FFF7FEFF 		bl	decun_inc_page_addr
 4142              	.LVL440:
1231:Lib/AI_Runtime/Npu/ll_aton/ll_aton.c ****       }
 4143              		.loc 1 1231 11 view .LVU1418
 4144 009a 0023     		movs	r3, #0
1230:Lib/AI_Runtime/Npu/ll_aton/ll_aton.c ****         k = 0;
 4145              		.loc 1 1230 20 view .LVU1419
 4146 009c 0146     		mov	r1, r0
 4147              	.LVL441:
1231:Lib/AI_Runtime/Npu/ll_aton/ll_aton.c ****       }
 4148              		.loc 1 1231 9 is_stmt 1 view .LVU1420
 4149              	.L312:
1231:Lib/AI_Runtime/Npu/ll_aton/ll_aton.c ****       }
 4150              		.loc 1 1231 9 is_stmt 0 view .LVU1421
 4151              	.LBE94:
1223:Lib/AI_Runtime/Npu/ll_aton/ll_aton.c ****     {
 4152              		.loc 1 1223 37 is_stmt 1 discriminator 2 view .LVU1422
1223:Lib/AI_Runtime/Npu/ll_aton/ll_aton.c ****     {
 4153              		.loc 1 1223 26 discriminator 1 view .LVU1423
 4154 009e C145     		cmp	r9, r8
ARM GAS  C:\Users\DJESSOU\AppData\Local\Temp\ccFxekaC.s 			page 151


 4155 00a0 F0D1     		bne	.L313
1223:Lib/AI_Runtime/Npu/ll_aton/ll_aton.c ****     {
 4156              		.loc 1 1223 26 is_stmt 0 discriminator 1 view .LVU1424
 4157 00a2 C3E7     		b	.L331
 4158              	.LVL442:
 4159              	.L311:
1223:Lib/AI_Runtime/Npu/ll_aton/ll_aton.c ****     {
 4160              		.loc 1 1223 26 discriminator 1 view .LVU1425
 4161              	.LBE93:
1235:Lib/AI_Runtime/Npu/ll_aton/ll_aton.c ****   {
 4162              		.loc 1 1235 3 is_stmt 1 view .LVU1426
1235:Lib/AI_Runtime/Npu/ll_aton/ll_aton.c ****   {
 4163              		.loc 1 1235 6 is_stmt 0 view .LVU1427
 4164 00a4 B8F1020F 		cmp	r8, #2
 4165 00a8 18D1     		bne	.L315
 4166              	.LBB95:
1251:Lib/AI_Runtime/Npu/ll_aton/ll_aton.c ****     for (i = 0, k = 0; i < CBsize / 2; i++)
 4167              		.loc 1 1251 5 is_stmt 1 view .LVU1428
 4168              	.LVL443:
1252:Lib/AI_Runtime/Npu/ll_aton/ll_aton.c ****     {
 4169              		.loc 1 1252 5 view .LVU1429
1252:Lib/AI_Runtime/Npu/ll_aton/ll_aton.c ****     {
 4170              		.loc 1 1252 19 is_stmt 0 view .LVU1430
 4171 00aa 0023     		movs	r3, #0
 4172 00ac D5F80C80 		ldr	r8, [r5, #12]
 4173              	.LBB96:
1255:Lib/AI_Runtime/Npu/ll_aton/ll_aton.c ****       k++;
 4174              		.loc 1 1255 7 discriminator 1 view .LVU1431
 4175 00b0 DFF8A092 		ldr	r9, .L377+16
 4176 00b4 24F00104 		bic	r4, r4, #1
 4177              	.LVL444:
1255:Lib/AI_Runtime/Npu/ll_aton/ll_aton.c ****       k++;
 4178              		.loc 1 1255 7 discriminator 1 view .LVU1432
 4179 00b8 4444     		add	r4, r4, r8
 4180 00ba B944     		add	r9, r9, r7
 4181              	.LVL445:
 4182              	.L316:
1255:Lib/AI_Runtime/Npu/ll_aton/ll_aton.c ****       k++;
 4183              		.loc 1 1255 7 discriminator 1 view .LVU1433
 4184              	.LBE96:
1252:Lib/AI_Runtime/Npu/ll_aton/ll_aton.c ****     {
 4185              		.loc 1 1252 26 is_stmt 1 discriminator 1 view .LVU1434
 4186 00bc 4445     		cmp	r4, r8
 4187 00be B5D0     		beq	.L331
 4188              	.LBB97:
1254:Lib/AI_Runtime/Npu/ll_aton/ll_aton.c ****       ATON_DECUN_MEM_LOW_SET(id, k, temp);
 4189              		.loc 1 1254 7 view .LVU1435
1254:Lib/AI_Runtime/Npu/ll_aton/ll_aton.c ****       ATON_DECUN_MEM_LOW_SET(id, k, temp);
 4190              		.loc 1 1254 26 is_stmt 0 view .LVU1436
 4191 00c0 38F8022B 		ldrh	r2, [r8], #2
 4192              	.LVL446:
1255:Lib/AI_Runtime/Npu/ll_aton/ll_aton.c ****       k++;
 4193              		.loc 1 1255 7 is_stmt 1 view .LVU1437
1255:Lib/AI_Runtime/Npu/ll_aton/ll_aton.c ****       k++;
 4194              		.loc 1 1255 7 view .LVU1438
1255:Lib/AI_Runtime/Npu/ll_aton/ll_aton.c ****       k++;
 4195              		.loc 1 1255 7 is_stmt 0 discriminator 4 view .LVU1439
ARM GAS  C:\Users\DJESSOU\AppData\Local\Temp\ccFxekaC.s 			page 152


 4196 00c4 49F83320 		str	r2, [r9, r3, lsl #3]
1255:Lib/AI_Runtime/Npu/ll_aton/ll_aton.c ****       k++;
 4197              		.loc 1 1255 7 is_stmt 1 discriminator 4 view .LVU1440
1256:Lib/AI_Runtime/Npu/ll_aton/ll_aton.c ****       if (k == mem_idx_num)
 4198              		.loc 1 1256 7 view .LVU1441
1256:Lib/AI_Runtime/Npu/ll_aton/ll_aton.c ****       if (k == mem_idx_num)
 4199              		.loc 1 1256 8 is_stmt 0 view .LVU1442
 4200 00c8 0133     		adds	r3, r3, #1
 4201              	.LVL447:
1257:Lib/AI_Runtime/Npu/ll_aton/ll_aton.c ****       {
 4202              		.loc 1 1257 7 is_stmt 1 view .LVU1443
1257:Lib/AI_Runtime/Npu/ll_aton/ll_aton.c ****       {
 4203              		.loc 1 1257 10 is_stmt 0 view .LVU1444
 4204 00ca B3F5807F 		cmp	r3, #256
 4205 00ce F5D1     		bne	.L316
1259:Lib/AI_Runtime/Npu/ll_aton/ll_aton.c ****         k = 0;
 4206              		.loc 1 1259 9 is_stmt 1 view .LVU1445
1259:Lib/AI_Runtime/Npu/ll_aton/ll_aton.c ****         k = 0;
 4207              		.loc 1 1259 20 is_stmt 0 view .LVU1446
 4208 00d0 3046     		mov	r0, r6
 4209 00d2 FFF7FEFF 		bl	decun_inc_page_addr
 4210              	.LVL448:
1260:Lib/AI_Runtime/Npu/ll_aton/ll_aton.c ****       }
 4211              		.loc 1 1260 11 view .LVU1447
 4212 00d6 0023     		movs	r3, #0
1259:Lib/AI_Runtime/Npu/ll_aton/ll_aton.c ****         k = 0;
 4213              		.loc 1 1259 20 view .LVU1448
 4214 00d8 0146     		mov	r1, r0
 4215              	.LVL449:
1260:Lib/AI_Runtime/Npu/ll_aton/ll_aton.c ****       }
 4216              		.loc 1 1260 9 is_stmt 1 view .LVU1449
1260:Lib/AI_Runtime/Npu/ll_aton/ll_aton.c ****       }
 4217              		.loc 1 1260 9 is_stmt 0 view .LVU1450
 4218              	.LBE97:
1252:Lib/AI_Runtime/Npu/ll_aton/ll_aton.c ****     {
 4219              		.loc 1 1252 41 is_stmt 1 discriminator 2 view .LVU1451
 4220 00da EFE7     		b	.L316
 4221              	.LVL450:
 4222              	.L315:
1252:Lib/AI_Runtime/Npu/ll_aton/ll_aton.c ****     {
 4223              		.loc 1 1252 41 is_stmt 0 discriminator 2 view .LVU1452
 4224              	.LBE95:
1265:Lib/AI_Runtime/Npu/ll_aton/ll_aton.c ****   {
 4225              		.loc 1 1265 3 is_stmt 1 view .LVU1453
1265:Lib/AI_Runtime/Npu/ll_aton/ll_aton.c ****   {
 4226              		.loc 1 1265 6 is_stmt 0 view .LVU1454
 4227 00dc B8F1030F 		cmp	r8, #3
 4228 00e0 22D1     		bne	.L314
 4229              	.LBB98:
1267:Lib/AI_Runtime/Npu/ll_aton/ll_aton.c ****     for (i = 0, k = 0; i < CBsize; i += 3)
 4230              		.loc 1 1267 5 is_stmt 1 view .LVU1455
 4231              	.LVL451:
1268:Lib/AI_Runtime/Npu/ll_aton/ll_aton.c ****     {
 4232              		.loc 1 1268 5 view .LVU1456
1268:Lib/AI_Runtime/Npu/ll_aton/ll_aton.c ****     {
 4233              		.loc 1 1268 26 discriminator 1 view .LVU1457
 4234 00e2 D5F80CA0 		ldr	r10, [r5, #12]
ARM GAS  C:\Users\DJESSOU\AppData\Local\Temp\ccFxekaC.s 			page 153


1268:Lib/AI_Runtime/Npu/ll_aton/ll_aton.c ****     {
 4235              		.loc 1 1268 19 is_stmt 0 view .LVU1458
 4236 00e6 0022     		movs	r2, #0
1267:Lib/AI_Runtime/Npu/ll_aton/ll_aton.c ****     for (i = 0, k = 0; i < CBsize; i += 3)
 4237              		.loc 1 1267 14 view .LVU1459
 4238 00e8 D046     		mov	r8, r10
 4239              	.LBB99:
1271:Lib/AI_Runtime/Npu/ll_aton/ll_aton.c ****       k++;
 4240              		.loc 1 1271 7 discriminator 1 view .LVU1460
 4241 00ea DFF86892 		ldr	r9, .L377+16
 4242 00ee B944     		add	r9, r9, r7
 4243              	.LVL452:
 4244              	.L321:
1270:Lib/AI_Runtime/Npu/ll_aton/ll_aton.c ****       ATON_DECUN_MEM_LOW_SET(id, k, temp);
 4245              		.loc 1 1270 7 is_stmt 1 view .LVU1461
1270:Lib/AI_Runtime/Npu/ll_aton/ll_aton.c ****       ATON_DECUN_MEM_LOW_SET(id, k, temp);
 4246              		.loc 1 1270 56 is_stmt 0 view .LVU1462
 4247 00f0 98F80230 		ldrb	r3, [r8, #2]	@ zero_extendqisi2
1270:Lib/AI_Runtime/Npu/ll_aton/ll_aton.c ****       ATON_DECUN_MEM_LOW_SET(id, k, temp);
 4248              		.loc 1 1270 36 view .LVU1463
 4249 00f4 98F80100 		ldrb	r0, [r8, #1]	@ zero_extendqisi2
1270:Lib/AI_Runtime/Npu/ll_aton/ll_aton.c ****       ATON_DECUN_MEM_LOW_SET(id, k, temp);
 4250              		.loc 1 1270 64 view .LVU1464
 4251 00f8 1B04     		lsls	r3, r3, #16
1270:Lib/AI_Runtime/Npu/ll_aton/ll_aton.c ****       ATON_DECUN_MEM_LOW_SET(id, k, temp);
 4252              		.loc 1 1270 50 view .LVU1465
 4253 00fa 43EA0023 		orr	r3, r3, r0, lsl #8
1270:Lib/AI_Runtime/Npu/ll_aton/ll_aton.c ****       ATON_DECUN_MEM_LOW_SET(id, k, temp);
 4254              		.loc 1 1270 26 view .LVU1466
 4255 00fe 98F80000 		ldrb	r0, [r8]	@ zero_extendqisi2
1270:Lib/AI_Runtime/Npu/ll_aton/ll_aton.c ****       ATON_DECUN_MEM_LOW_SET(id, k, temp);
 4256              		.loc 1 1270 50 view .LVU1467
 4257 0102 0343     		orrs	r3, r3, r0
 4258              	.LVL453:
1271:Lib/AI_Runtime/Npu/ll_aton/ll_aton.c ****       k++;
 4259              		.loc 1 1271 7 is_stmt 1 view .LVU1468
1271:Lib/AI_Runtime/Npu/ll_aton/ll_aton.c ****       k++;
 4260              		.loc 1 1271 7 view .LVU1469
1271:Lib/AI_Runtime/Npu/ll_aton/ll_aton.c ****       k++;
 4261              		.loc 1 1271 7 is_stmt 0 discriminator 4 view .LVU1470
 4262 0104 49F83230 		str	r3, [r9, r2, lsl #3]
1271:Lib/AI_Runtime/Npu/ll_aton/ll_aton.c ****       k++;
 4263              		.loc 1 1271 7 is_stmt 1 discriminator 4 view .LVU1471
1272:Lib/AI_Runtime/Npu/ll_aton/ll_aton.c ****       if (k == mem_idx_num)
 4264              		.loc 1 1272 7 view .LVU1472
1272:Lib/AI_Runtime/Npu/ll_aton/ll_aton.c ****       if (k == mem_idx_num)
 4265              		.loc 1 1272 8 is_stmt 0 view .LVU1473
 4266 0108 0132     		adds	r2, r2, #1
 4267              	.LVL454:
1273:Lib/AI_Runtime/Npu/ll_aton/ll_aton.c ****       {
 4268              		.loc 1 1273 7 is_stmt 1 view .LVU1474
1273:Lib/AI_Runtime/Npu/ll_aton/ll_aton.c ****       {
 4269              		.loc 1 1273 10 is_stmt 0 view .LVU1475
 4270 010a B2F5807F 		cmp	r2, #256
 4271 010e 04D1     		bne	.L320
1275:Lib/AI_Runtime/Npu/ll_aton/ll_aton.c ****         k = 0;
 4272              		.loc 1 1275 9 is_stmt 1 view .LVU1476
ARM GAS  C:\Users\DJESSOU\AppData\Local\Temp\ccFxekaC.s 			page 154


1275:Lib/AI_Runtime/Npu/ll_aton/ll_aton.c ****         k = 0;
 4273              		.loc 1 1275 20 is_stmt 0 view .LVU1477
 4274 0110 3046     		mov	r0, r6
 4275 0112 FFF7FEFF 		bl	decun_inc_page_addr
 4276              	.LVL455:
1276:Lib/AI_Runtime/Npu/ll_aton/ll_aton.c ****       }
 4277              		.loc 1 1276 11 view .LVU1478
 4278 0116 0022     		movs	r2, #0
1275:Lib/AI_Runtime/Npu/ll_aton/ll_aton.c ****         k = 0;
 4279              		.loc 1 1275 20 view .LVU1479
 4280 0118 0146     		mov	r1, r0
 4281              	.LVL456:
1276:Lib/AI_Runtime/Npu/ll_aton/ll_aton.c ****       }
 4282              		.loc 1 1276 9 is_stmt 1 view .LVU1480
 4283              	.L320:
1276:Lib/AI_Runtime/Npu/ll_aton/ll_aton.c ****       }
 4284              		.loc 1 1276 9 is_stmt 0 view .LVU1481
 4285              	.LBE99:
1268:Lib/AI_Runtime/Npu/ll_aton/ll_aton.c ****     {
 4286              		.loc 1 1268 38 is_stmt 1 discriminator 2 view .LVU1482
1268:Lib/AI_Runtime/Npu/ll_aton/ll_aton.c ****     {
 4287              		.loc 1 1268 26 discriminator 1 view .LVU1483
 4288 011a 08F10308 		add	r8, r8, #3
 4289              	.LVL457:
1268:Lib/AI_Runtime/Npu/ll_aton/ll_aton.c ****     {
 4290              		.loc 1 1268 26 is_stmt 0 discriminator 1 view .LVU1484
 4291 011e A8EB0A03 		sub	r3, r8, r10
 4292 0122 9C42     		cmp	r4, r3
 4293 0124 E4D8     		bhi	.L321
1268:Lib/AI_Runtime/Npu/ll_aton/ll_aton.c ****     {
 4294              		.loc 1 1268 26 discriminator 1 view .LVU1485
 4295 0126 81E7     		b	.L331
 4296              	.LVL458:
 4297              	.L314:
1268:Lib/AI_Runtime/Npu/ll_aton/ll_aton.c ****     {
 4298              		.loc 1 1268 26 discriminator 1 view .LVU1486
 4299              	.LBE98:
1280:Lib/AI_Runtime/Npu/ll_aton/ll_aton.c ****   {
 4300              		.loc 1 1280 3 is_stmt 1 view .LVU1487
1280:Lib/AI_Runtime/Npu/ll_aton/ll_aton.c ****   {
 4301              		.loc 1 1280 6 is_stmt 0 view .LVU1488
 4302 0128 B8F1040F 		cmp	r8, #4
 4303 012c 02D0     		beq	.L323
 4304              	.LVL459:
1280:Lib/AI_Runtime/Npu/ll_aton/ll_aton.c ****   {
 4305              		.loc 1 1280 27 discriminator 1 view .LVU1489
 4306 012e B8F1080F 		cmp	r8, #8
 4307 0132 52D1     		bne	.L324
 4308              	.L323:
 4309              	.LBB100:
1282:Lib/AI_Runtime/Npu/ll_aton/ll_aton.c ****     for (i = 0, k = 0; i < CBsize / 4; i++)
 4310              		.loc 1 1282 5 is_stmt 1 view .LVU1490
 4311              	.LVL460:
1283:Lib/AI_Runtime/Npu/ll_aton/ll_aton.c ****     {
 4312              		.loc 1 1283 5 view .LVU1491
1283:Lib/AI_Runtime/Npu/ll_aton/ll_aton.c ****     {
 4313              		.loc 1 1283 19 is_stmt 0 view .LVU1492
ARM GAS  C:\Users\DJESSOU\AppData\Local\Temp\ccFxekaC.s 			page 155


 4314 0134 0023     		movs	r3, #0
 4315 0136 D5F80C90 		ldr	r9, [r5, #12]
 4316              	.LBB101:
1286:Lib/AI_Runtime/Npu/ll_aton/ll_aton.c ****       k++;
 4317              		.loc 1 1286 7 discriminator 1 view .LVU1493
 4318 013a DFF818B2 		ldr	fp, .L377+16
 4319 013e 24F0030A 		bic	r10, r4, #3
 4320 0142 CA44     		add	r10, r10, r9
 4321 0144 BB44     		add	fp, fp, r7
 4322              	.LVL461:
 4323              	.L325:
1286:Lib/AI_Runtime/Npu/ll_aton/ll_aton.c ****       k++;
 4324              		.loc 1 1286 7 discriminator 1 view .LVU1494
 4325              	.LBE101:
1283:Lib/AI_Runtime/Npu/ll_aton/ll_aton.c ****     {
 4326              		.loc 1 1283 26 is_stmt 1 discriminator 1 view .LVU1495
 4327 0146 CA45     		cmp	r10, r9
 4328 0148 39D1     		bne	.L327
 4329              	.LVL462:
 4330              	.L328:
1283:Lib/AI_Runtime/Npu/ll_aton/ll_aton.c ****     {
 4331              		.loc 1 1283 26 is_stmt 0 discriminator 1 view .LVU1496
 4332              	.LBE100:
1349:Lib/AI_Runtime/Npu/ll_aton/ll_aton.c ****   {
 4333              		.loc 1 1349 3 is_stmt 1 view .LVU1497
1349:Lib/AI_Runtime/Npu/ll_aton/ll_aton.c ****   {
 4334              		.loc 1 1349 6 is_stmt 0 view .LVU1498
 4335 014a B8F1070F 		cmp	r8, #7
 4336 014e 7FF46DAF 		bne	.L331
 4337              	.LBB103:
1351:Lib/AI_Runtime/Npu/ll_aton/ll_aton.c ****     for (i = 0, k = 0; i < CBsize; i += 7)
 4338              		.loc 1 1351 5 is_stmt 1 view .LVU1499
 4339              	.LVL463:
1352:Lib/AI_Runtime/Npu/ll_aton/ll_aton.c ****     {
 4340              		.loc 1 1352 5 view .LVU1500
1352:Lib/AI_Runtime/Npu/ll_aton/ll_aton.c ****     {
 4341              		.loc 1 1352 26 discriminator 1 view .LVU1501
 4342 0152 D5F80CA0 		ldr	r10, [r5, #12]
1352:Lib/AI_Runtime/Npu/ll_aton/ll_aton.c ****     {
 4343              		.loc 1 1352 19 is_stmt 0 view .LVU1502
 4344 0156 0022     		movs	r2, #0
1351:Lib/AI_Runtime/Npu/ll_aton/ll_aton.c ****     for (i = 0, k = 0; i < CBsize; i += 7)
 4345              		.loc 1 1351 14 view .LVU1503
 4346 0158 D046     		mov	r8, r10
 4347              	.LBB104:
1355:Lib/AI_Runtime/Npu/ll_aton/ll_aton.c ****       k++;
 4348              		.loc 1 1355 7 discriminator 1 view .LVU1504
 4349 015a DFF8F891 		ldr	r9, .L377+16
 4350 015e B944     		add	r9, r9, r7
 4351              	.LVL464:
 4352              	.L336:
1354:Lib/AI_Runtime/Npu/ll_aton/ll_aton.c ****       ATON_DECUN_MEM_LOW_SET(id, k, temp);
 4353              		.loc 1 1354 7 is_stmt 1 view .LVU1505
1354:Lib/AI_Runtime/Npu/ll_aton/ll_aton.c ****       ATON_DECUN_MEM_LOW_SET(id, k, temp);
 4354              		.loc 1 1354 56 is_stmt 0 view .LVU1506
 4355 0160 98F80230 		ldrb	r3, [r8, #2]	@ zero_extendqisi2
1354:Lib/AI_Runtime/Npu/ll_aton/ll_aton.c ****       ATON_DECUN_MEM_LOW_SET(id, k, temp);
ARM GAS  C:\Users\DJESSOU\AppData\Local\Temp\ccFxekaC.s 			page 156


 4356              		.loc 1 1354 36 view .LVU1507
 4357 0164 98F80100 		ldrb	r0, [r8, #1]	@ zero_extendqisi2
1354:Lib/AI_Runtime/Npu/ll_aton/ll_aton.c ****       ATON_DECUN_MEM_LOW_SET(id, k, temp);
 4358              		.loc 1 1354 64 view .LVU1508
 4359 0168 1B04     		lsls	r3, r3, #16
1354:Lib/AI_Runtime/Npu/ll_aton/ll_aton.c ****       ATON_DECUN_MEM_LOW_SET(id, k, temp);
 4360              		.loc 1 1354 50 view .LVU1509
 4361 016a 43EA0023 		orr	r3, r3, r0, lsl #8
1354:Lib/AI_Runtime/Npu/ll_aton/ll_aton.c ****       ATON_DECUN_MEM_LOW_SET(id, k, temp);
 4362              		.loc 1 1354 26 view .LVU1510
 4363 016e 98F80000 		ldrb	r0, [r8]	@ zero_extendqisi2
1354:Lib/AI_Runtime/Npu/ll_aton/ll_aton.c ****       ATON_DECUN_MEM_LOW_SET(id, k, temp);
 4364              		.loc 1 1354 50 view .LVU1511
 4365 0172 0343     		orrs	r3, r3, r0
1354:Lib/AI_Runtime/Npu/ll_aton/ll_aton.c ****       ATON_DECUN_MEM_LOW_SET(id, k, temp);
 4366              		.loc 1 1354 77 view .LVU1512
 4367 0174 98F80300 		ldrb	r0, [r8, #3]	@ zero_extendqisi2
1354:Lib/AI_Runtime/Npu/ll_aton/ll_aton.c ****       ATON_DECUN_MEM_LOW_SET(id, k, temp);
 4368              		.loc 1 1354 71 view .LVU1513
 4369 0178 43EA0063 		orr	r3, r3, r0, lsl #24
 4370              	.LVL465:
1355:Lib/AI_Runtime/Npu/ll_aton/ll_aton.c ****       k++;
 4371              		.loc 1 1355 7 is_stmt 1 view .LVU1514
1355:Lib/AI_Runtime/Npu/ll_aton/ll_aton.c ****       k++;
 4372              		.loc 1 1355 7 view .LVU1515
1355:Lib/AI_Runtime/Npu/ll_aton/ll_aton.c ****       k++;
 4373              		.loc 1 1355 7 is_stmt 0 discriminator 4 view .LVU1516
 4374 017c 49F83230 		str	r3, [r9, r2, lsl #3]
1355:Lib/AI_Runtime/Npu/ll_aton/ll_aton.c ****       k++;
 4375              		.loc 1 1355 7 is_stmt 1 discriminator 4 view .LVU1517
1356:Lib/AI_Runtime/Npu/ll_aton/ll_aton.c ****       temp = CBp[i + 4] | (CBp[i + 5] << 8) | (CBp[i + 6] << 16);
 4376              		.loc 1 1356 7 view .LVU1518
 4377              	.LVL466:
1357:Lib/AI_Runtime/Npu/ll_aton/ll_aton.c ****       ATON_DECUN_MEM_LOW_SET(id, k, temp);
 4378              		.loc 1 1357 7 view .LVU1519
1357:Lib/AI_Runtime/Npu/ll_aton/ll_aton.c ****       ATON_DECUN_MEM_LOW_SET(id, k, temp);
 4379              		.loc 1 1357 51 is_stmt 0 view .LVU1520
 4380 0180 98F80630 		ldrb	r3, [r8, #6]	@ zero_extendqisi2
 4381              	.LVL467:
1357:Lib/AI_Runtime/Npu/ll_aton/ll_aton.c ****       ATON_DECUN_MEM_LOW_SET(id, k, temp);
 4382              		.loc 1 1357 31 view .LVU1521
 4383 0184 98F805C0 		ldrb	ip, [r8, #5]	@ zero_extendqisi2
1357:Lib/AI_Runtime/Npu/ll_aton/ll_aton.c ****       ATON_DECUN_MEM_LOW_SET(id, k, temp);
 4384              		.loc 1 1357 59 view .LVU1522
 4385 0188 1B04     		lsls	r3, r3, #16
1357:Lib/AI_Runtime/Npu/ll_aton/ll_aton.c ****       ATON_DECUN_MEM_LOW_SET(id, k, temp);
 4386              		.loc 1 1357 45 view .LVU1523
 4387 018a 43EA0C23 		orr	r3, r3, ip, lsl #8
1357:Lib/AI_Runtime/Npu/ll_aton/ll_aton.c ****       ATON_DECUN_MEM_LOW_SET(id, k, temp);
 4388              		.loc 1 1357 17 view .LVU1524
 4389 018e 98F804C0 		ldrb	ip, [r8, #4]	@ zero_extendqisi2
1355:Lib/AI_Runtime/Npu/ll_aton/ll_aton.c ****       k++;
 4390              		.loc 1 1355 7 discriminator 4 view .LVU1525
 4391 0192 D000     		lsls	r0, r2, #3
1359:Lib/AI_Runtime/Npu/ll_aton/ll_aton.c ****       if (k == mem_idx_num)
 4392              		.loc 1 1359 8 view .LVU1526
 4393 0194 0232     		adds	r2, r2, #2
ARM GAS  C:\Users\DJESSOU\AppData\Local\Temp\ccFxekaC.s 			page 157


 4394              	.LVL468:
1357:Lib/AI_Runtime/Npu/ll_aton/ll_aton.c ****       ATON_DECUN_MEM_LOW_SET(id, k, temp);
 4395              		.loc 1 1357 45 view .LVU1527
 4396 0196 43EA0C03 		orr	r3, r3, ip
 4397              	.LVL469:
1358:Lib/AI_Runtime/Npu/ll_aton/ll_aton.c ****       k++;
 4398              		.loc 1 1358 7 is_stmt 1 view .LVU1528
1358:Lib/AI_Runtime/Npu/ll_aton/ll_aton.c ****       k++;
 4399              		.loc 1 1358 7 view .LVU1529
1358:Lib/AI_Runtime/Npu/ll_aton/ll_aton.c ****       k++;
 4400              		.loc 1 1358 7 is_stmt 0 discriminator 4 view .LVU1530
 4401 019a 0830     		adds	r0, r0, #8
1360:Lib/AI_Runtime/Npu/ll_aton/ll_aton.c ****       {
 4402              		.loc 1 1360 10 view .LVU1531
 4403 019c B2F5807F 		cmp	r2, #256
1358:Lib/AI_Runtime/Npu/ll_aton/ll_aton.c ****       k++;
 4404              		.loc 1 1358 7 discriminator 4 view .LVU1532
 4405 01a0 40F80930 		str	r3, [r0, r9]
1358:Lib/AI_Runtime/Npu/ll_aton/ll_aton.c ****       k++;
 4406              		.loc 1 1358 7 is_stmt 1 discriminator 4 view .LVU1533
1359:Lib/AI_Runtime/Npu/ll_aton/ll_aton.c ****       if (k == mem_idx_num)
 4407              		.loc 1 1359 7 view .LVU1534
 4408              	.LVL470:
1360:Lib/AI_Runtime/Npu/ll_aton/ll_aton.c ****       {
 4409              		.loc 1 1360 7 view .LVU1535
1360:Lib/AI_Runtime/Npu/ll_aton/ll_aton.c ****       {
 4410              		.loc 1 1360 10 is_stmt 0 view .LVU1536
 4411 01a4 04D1     		bne	.L335
1362:Lib/AI_Runtime/Npu/ll_aton/ll_aton.c ****         k = 0;
 4412              		.loc 1 1362 9 is_stmt 1 view .LVU1537
1362:Lib/AI_Runtime/Npu/ll_aton/ll_aton.c ****         k = 0;
 4413              		.loc 1 1362 20 is_stmt 0 view .LVU1538
 4414 01a6 3046     		mov	r0, r6
 4415 01a8 FFF7FEFF 		bl	decun_inc_page_addr
 4416              	.LVL471:
1363:Lib/AI_Runtime/Npu/ll_aton/ll_aton.c ****       }
 4417              		.loc 1 1363 11 view .LVU1539
 4418 01ac 0022     		movs	r2, #0
1362:Lib/AI_Runtime/Npu/ll_aton/ll_aton.c ****         k = 0;
 4419              		.loc 1 1362 20 view .LVU1540
 4420 01ae 0146     		mov	r1, r0
 4421              	.LVL472:
1363:Lib/AI_Runtime/Npu/ll_aton/ll_aton.c ****       }
 4422              		.loc 1 1363 9 is_stmt 1 view .LVU1541
 4423              	.L335:
1363:Lib/AI_Runtime/Npu/ll_aton/ll_aton.c ****       }
 4424              		.loc 1 1363 9 is_stmt 0 view .LVU1542
 4425              	.LBE104:
1352:Lib/AI_Runtime/Npu/ll_aton/ll_aton.c ****     {
 4426              		.loc 1 1352 38 is_stmt 1 discriminator 2 view .LVU1543
1352:Lib/AI_Runtime/Npu/ll_aton/ll_aton.c ****     {
 4427              		.loc 1 1352 26 discriminator 1 view .LVU1544
 4428 01b0 08F10708 		add	r8, r8, #7
 4429              	.LVL473:
1352:Lib/AI_Runtime/Npu/ll_aton/ll_aton.c ****     {
 4430              		.loc 1 1352 26 is_stmt 0 discriminator 1 view .LVU1545
 4431 01b4 A8EB0A03 		sub	r3, r8, r10
ARM GAS  C:\Users\DJESSOU\AppData\Local\Temp\ccFxekaC.s 			page 158


 4432 01b8 9C42     		cmp	r4, r3
 4433 01ba D1D8     		bhi	.L336
1352:Lib/AI_Runtime/Npu/ll_aton/ll_aton.c ****     {
 4434              		.loc 1 1352 26 discriminator 1 view .LVU1546
 4435 01bc 36E7     		b	.L331
 4436              	.LVL474:
 4437              	.L327:
1352:Lib/AI_Runtime/Npu/ll_aton/ll_aton.c ****     {
 4438              		.loc 1 1352 26 discriminator 1 view .LVU1547
 4439              	.LBE103:
 4440              	.LBB105:
 4441              	.LBB102:
1285:Lib/AI_Runtime/Npu/ll_aton/ll_aton.c ****       ATON_DECUN_MEM_LOW_SET(id, k, temp);
 4442              		.loc 1 1285 7 is_stmt 1 view .LVU1548
1285:Lib/AI_Runtime/Npu/ll_aton/ll_aton.c ****       ATON_DECUN_MEM_LOW_SET(id, k, temp);
 4443              		.loc 1 1285 16 is_stmt 0 view .LVU1549
 4444 01be 59F8042B 		ldr	r2, [r9], #4
 4445              	.LVL475:
1286:Lib/AI_Runtime/Npu/ll_aton/ll_aton.c ****       k++;
 4446              		.loc 1 1286 7 is_stmt 1 view .LVU1550
1286:Lib/AI_Runtime/Npu/ll_aton/ll_aton.c ****       k++;
 4447              		.loc 1 1286 7 view .LVU1551
1286:Lib/AI_Runtime/Npu/ll_aton/ll_aton.c ****       k++;
 4448              		.loc 1 1286 7 is_stmt 0 discriminator 4 view .LVU1552
 4449 01c2 4BF83320 		str	r2, [fp, r3, lsl #3]
1286:Lib/AI_Runtime/Npu/ll_aton/ll_aton.c ****       k++;
 4450              		.loc 1 1286 7 is_stmt 1 discriminator 4 view .LVU1553
1287:Lib/AI_Runtime/Npu/ll_aton/ll_aton.c ****       if (k == mem_idx_num)
 4451              		.loc 1 1287 7 view .LVU1554
1287:Lib/AI_Runtime/Npu/ll_aton/ll_aton.c ****       if (k == mem_idx_num)
 4452              		.loc 1 1287 8 is_stmt 0 view .LVU1555
 4453 01c6 0133     		adds	r3, r3, #1
 4454              	.LVL476:
1288:Lib/AI_Runtime/Npu/ll_aton/ll_aton.c ****       {
 4455              		.loc 1 1288 7 is_stmt 1 view .LVU1556
1288:Lib/AI_Runtime/Npu/ll_aton/ll_aton.c ****       {
 4456              		.loc 1 1288 10 is_stmt 0 view .LVU1557
 4457 01c8 B3F5807F 		cmp	r3, #256
 4458 01cc BBD1     		bne	.L325
1290:Lib/AI_Runtime/Npu/ll_aton/ll_aton.c ****         k = 0;
 4459              		.loc 1 1290 9 is_stmt 1 view .LVU1558
1290:Lib/AI_Runtime/Npu/ll_aton/ll_aton.c ****         k = 0;
 4460              		.loc 1 1290 20 is_stmt 0 view .LVU1559
 4461 01ce 3046     		mov	r0, r6
 4462 01d0 FFF7FEFF 		bl	decun_inc_page_addr
 4463              	.LVL477:
1291:Lib/AI_Runtime/Npu/ll_aton/ll_aton.c ****       }
 4464              		.loc 1 1291 11 view .LVU1560
 4465 01d4 0023     		movs	r3, #0
1290:Lib/AI_Runtime/Npu/ll_aton/ll_aton.c ****         k = 0;
 4466              		.loc 1 1290 20 view .LVU1561
 4467 01d6 0146     		mov	r1, r0
 4468              	.LVL478:
1291:Lib/AI_Runtime/Npu/ll_aton/ll_aton.c ****       }
 4469              		.loc 1 1291 9 is_stmt 1 view .LVU1562
1291:Lib/AI_Runtime/Npu/ll_aton/ll_aton.c ****       }
 4470              		.loc 1 1291 9 is_stmt 0 view .LVU1563
ARM GAS  C:\Users\DJESSOU\AppData\Local\Temp\ccFxekaC.s 			page 159


 4471              	.LBE102:
1283:Lib/AI_Runtime/Npu/ll_aton/ll_aton.c ****     {
 4472              		.loc 1 1283 41 is_stmt 1 discriminator 2 view .LVU1564
 4473 01d8 B5E7     		b	.L325
 4474              	.LVL479:
 4475              	.L324:
1283:Lib/AI_Runtime/Npu/ll_aton/ll_aton.c ****     {
 4476              		.loc 1 1283 41 is_stmt 0 discriminator 2 view .LVU1565
 4477              	.LBE105:
1295:Lib/AI_Runtime/Npu/ll_aton/ll_aton.c ****   {
 4478              		.loc 1 1295 3 is_stmt 1 view .LVU1566
1295:Lib/AI_Runtime/Npu/ll_aton/ll_aton.c ****   {
 4479              		.loc 1 1295 6 is_stmt 0 view .LVU1567
 4480 01da B8F1050F 		cmp	r8, #5
 4481 01de 2DD1     		bne	.L322
 4482              	.LBB106:
1297:Lib/AI_Runtime/Npu/ll_aton/ll_aton.c ****     for (i = 0, k = 0; i < CBsize; i += 5)
 4483              		.loc 1 1297 5 is_stmt 1 view .LVU1568
 4484              	.LVL480:
1298:Lib/AI_Runtime/Npu/ll_aton/ll_aton.c ****     {
 4485              		.loc 1 1298 5 view .LVU1569
1298:Lib/AI_Runtime/Npu/ll_aton/ll_aton.c ****     {
 4486              		.loc 1 1298 26 discriminator 1 view .LVU1570
 4487 01e0 D5F80CA0 		ldr	r10, [r5, #12]
1298:Lib/AI_Runtime/Npu/ll_aton/ll_aton.c ****     {
 4488              		.loc 1 1298 19 is_stmt 0 view .LVU1571
 4489 01e4 0022     		movs	r2, #0
1297:Lib/AI_Runtime/Npu/ll_aton/ll_aton.c ****     for (i = 0, k = 0; i < CBsize; i += 5)
 4490              		.loc 1 1297 14 view .LVU1572
 4491 01e6 D046     		mov	r8, r10
 4492              	.LBB107:
1301:Lib/AI_Runtime/Npu/ll_aton/ll_aton.c ****       k++;
 4493              		.loc 1 1301 7 discriminator 1 view .LVU1573
 4494 01e8 DFF86891 		ldr	r9, .L377+16
 4495 01ec B944     		add	r9, r9, r7
 4496              	.LVL481:
 4497              	.L330:
1300:Lib/AI_Runtime/Npu/ll_aton/ll_aton.c ****       ATON_DECUN_MEM_LOW_SET(id, k, temp);
 4498              		.loc 1 1300 7 is_stmt 1 view .LVU1574
1300:Lib/AI_Runtime/Npu/ll_aton/ll_aton.c ****       ATON_DECUN_MEM_LOW_SET(id, k, temp);
 4499              		.loc 1 1300 56 is_stmt 0 view .LVU1575
 4500 01ee 98F80230 		ldrb	r3, [r8, #2]	@ zero_extendqisi2
1300:Lib/AI_Runtime/Npu/ll_aton/ll_aton.c ****       ATON_DECUN_MEM_LOW_SET(id, k, temp);
 4501              		.loc 1 1300 36 view .LVU1576
 4502 01f2 98F80100 		ldrb	r0, [r8, #1]	@ zero_extendqisi2
1300:Lib/AI_Runtime/Npu/ll_aton/ll_aton.c ****       ATON_DECUN_MEM_LOW_SET(id, k, temp);
 4503              		.loc 1 1300 64 view .LVU1577
 4504 01f6 1B04     		lsls	r3, r3, #16
1300:Lib/AI_Runtime/Npu/ll_aton/ll_aton.c ****       ATON_DECUN_MEM_LOW_SET(id, k, temp);
 4505              		.loc 1 1300 50 view .LVU1578
 4506 01f8 43EA0023 		orr	r3, r3, r0, lsl #8
1300:Lib/AI_Runtime/Npu/ll_aton/ll_aton.c ****       ATON_DECUN_MEM_LOW_SET(id, k, temp);
 4507              		.loc 1 1300 26 view .LVU1579
 4508 01fc 98F80000 		ldrb	r0, [r8]	@ zero_extendqisi2
1300:Lib/AI_Runtime/Npu/ll_aton/ll_aton.c ****       ATON_DECUN_MEM_LOW_SET(id, k, temp);
 4509              		.loc 1 1300 50 view .LVU1580
 4510 0200 0343     		orrs	r3, r3, r0
ARM GAS  C:\Users\DJESSOU\AppData\Local\Temp\ccFxekaC.s 			page 160


1300:Lib/AI_Runtime/Npu/ll_aton/ll_aton.c ****       ATON_DECUN_MEM_LOW_SET(id, k, temp);
 4511              		.loc 1 1300 77 view .LVU1581
 4512 0202 98F80300 		ldrb	r0, [r8, #3]	@ zero_extendqisi2
1300:Lib/AI_Runtime/Npu/ll_aton/ll_aton.c ****       ATON_DECUN_MEM_LOW_SET(id, k, temp);
 4513              		.loc 1 1300 71 view .LVU1582
 4514 0206 43EA0063 		orr	r3, r3, r0, lsl #24
 4515              	.LVL482:
1301:Lib/AI_Runtime/Npu/ll_aton/ll_aton.c ****       k++;
 4516              		.loc 1 1301 7 is_stmt 1 view .LVU1583
1301:Lib/AI_Runtime/Npu/ll_aton/ll_aton.c ****       k++;
 4517              		.loc 1 1301 7 view .LVU1584
1301:Lib/AI_Runtime/Npu/ll_aton/ll_aton.c ****       k++;
 4518              		.loc 1 1301 7 is_stmt 0 discriminator 4 view .LVU1585
 4519 020a 49F83230 		str	r3, [r9, r2, lsl #3]
1301:Lib/AI_Runtime/Npu/ll_aton/ll_aton.c ****       k++;
 4520              		.loc 1 1301 7 is_stmt 1 discriminator 4 view .LVU1586
1302:Lib/AI_Runtime/Npu/ll_aton/ll_aton.c ****       temp = CBp[i + 4];
 4521              		.loc 1 1302 7 view .LVU1587
 4522              	.LVL483:
1303:Lib/AI_Runtime/Npu/ll_aton/ll_aton.c ****       ATON_DECUN_MEM_LOW_SET(id, k, temp);
 4523              		.loc 1 1303 7 view .LVU1588
1301:Lib/AI_Runtime/Npu/ll_aton/ll_aton.c ****       k++;
 4524              		.loc 1 1301 7 is_stmt 0 discriminator 4 view .LVU1589
 4525 020e D000     		lsls	r0, r2, #3
1303:Lib/AI_Runtime/Npu/ll_aton/ll_aton.c ****       ATON_DECUN_MEM_LOW_SET(id, k, temp);
 4526              		.loc 1 1303 12 view .LVU1590
 4527 0210 98F804C0 		ldrb	ip, [r8, #4]	@ zero_extendqisi2
 4528              	.LVL484:
1304:Lib/AI_Runtime/Npu/ll_aton/ll_aton.c ****       k++;
 4529              		.loc 1 1304 7 is_stmt 1 view .LVU1591
1304:Lib/AI_Runtime/Npu/ll_aton/ll_aton.c ****       k++;
 4530              		.loc 1 1304 7 view .LVU1592
1305:Lib/AI_Runtime/Npu/ll_aton/ll_aton.c ****       if (k == mem_idx_num)
 4531              		.loc 1 1305 8 is_stmt 0 view .LVU1593
 4532 0214 0232     		adds	r2, r2, #2
 4533              	.LVL485:
1304:Lib/AI_Runtime/Npu/ll_aton/ll_aton.c ****       k++;
 4534              		.loc 1 1304 7 discriminator 4 view .LVU1594
 4535 0216 00F10803 		add	r3, r0, #8
1306:Lib/AI_Runtime/Npu/ll_aton/ll_aton.c ****       {
 4536              		.loc 1 1306 10 view .LVU1595
 4537 021a B2F5807F 		cmp	r2, #256
1304:Lib/AI_Runtime/Npu/ll_aton/ll_aton.c ****       k++;
 4538              		.loc 1 1304 7 discriminator 4 view .LVU1596
 4539 021e 43F809C0 		str	ip, [r3, r9]
1304:Lib/AI_Runtime/Npu/ll_aton/ll_aton.c ****       k++;
 4540              		.loc 1 1304 7 is_stmt 1 discriminator 4 view .LVU1597
1305:Lib/AI_Runtime/Npu/ll_aton/ll_aton.c ****       if (k == mem_idx_num)
 4541              		.loc 1 1305 7 view .LVU1598
 4542              	.LVL486:
1306:Lib/AI_Runtime/Npu/ll_aton/ll_aton.c ****       {
 4543              		.loc 1 1306 7 view .LVU1599
1306:Lib/AI_Runtime/Npu/ll_aton/ll_aton.c ****       {
 4544              		.loc 1 1306 10 is_stmt 0 view .LVU1600
 4545 0222 04D1     		bne	.L329
1308:Lib/AI_Runtime/Npu/ll_aton/ll_aton.c ****         k = 0;
 4546              		.loc 1 1308 9 is_stmt 1 view .LVU1601
ARM GAS  C:\Users\DJESSOU\AppData\Local\Temp\ccFxekaC.s 			page 161


1308:Lib/AI_Runtime/Npu/ll_aton/ll_aton.c ****         k = 0;
 4547              		.loc 1 1308 20 is_stmt 0 view .LVU1602
 4548 0224 3046     		mov	r0, r6
 4549 0226 FFF7FEFF 		bl	decun_inc_page_addr
 4550              	.LVL487:
1309:Lib/AI_Runtime/Npu/ll_aton/ll_aton.c ****       }
 4551              		.loc 1 1309 11 view .LVU1603
 4552 022a 0022     		movs	r2, #0
1308:Lib/AI_Runtime/Npu/ll_aton/ll_aton.c ****         k = 0;
 4553              		.loc 1 1308 20 view .LVU1604
 4554 022c 0146     		mov	r1, r0
 4555              	.LVL488:
1309:Lib/AI_Runtime/Npu/ll_aton/ll_aton.c ****       }
 4556              		.loc 1 1309 9 is_stmt 1 view .LVU1605
 4557              	.L329:
1309:Lib/AI_Runtime/Npu/ll_aton/ll_aton.c ****       }
 4558              		.loc 1 1309 9 is_stmt 0 view .LVU1606
 4559              	.LBE107:
1298:Lib/AI_Runtime/Npu/ll_aton/ll_aton.c ****     {
 4560              		.loc 1 1298 38 is_stmt 1 discriminator 2 view .LVU1607
1298:Lib/AI_Runtime/Npu/ll_aton/ll_aton.c ****     {
 4561              		.loc 1 1298 26 discriminator 1 view .LVU1608
 4562 022e 08F10508 		add	r8, r8, #5
 4563              	.LVL489:
1298:Lib/AI_Runtime/Npu/ll_aton/ll_aton.c ****     {
 4564              		.loc 1 1298 26 is_stmt 0 discriminator 1 view .LVU1609
 4565 0232 A8EB0A03 		sub	r3, r8, r10
 4566 0236 9C42     		cmp	r4, r3
 4567 0238 D9D8     		bhi	.L330
1298:Lib/AI_Runtime/Npu/ll_aton/ll_aton.c ****     {
 4568              		.loc 1 1298 26 discriminator 1 view .LVU1610
 4569 023a F7E6     		b	.L331
 4570              	.LVL490:
 4571              	.L322:
1298:Lib/AI_Runtime/Npu/ll_aton/ll_aton.c ****     {
 4572              		.loc 1 1298 26 discriminator 1 view .LVU1611
 4573              	.LBE106:
1313:Lib/AI_Runtime/Npu/ll_aton/ll_aton.c ****   {
 4574              		.loc 1 1313 3 is_stmt 1 view .LVU1612
1313:Lib/AI_Runtime/Npu/ll_aton/ll_aton.c ****   {
 4575              		.loc 1 1313 6 is_stmt 0 view .LVU1613
 4576 023c B8F1060F 		cmp	r8, #6
 4577 0240 83D1     		bne	.L328
 4578              	.LBB108:
1332:Lib/AI_Runtime/Npu/ll_aton/ll_aton.c ****     for (i = 0, k = 0; i < CBsize / 2; i += 3)
 4579              		.loc 1 1332 5 is_stmt 1 view .LVU1614
 4580              	.LVL491:
1333:Lib/AI_Runtime/Npu/ll_aton/ll_aton.c ****     {
 4581              		.loc 1 1333 5 view .LVU1615
1333:Lib/AI_Runtime/Npu/ll_aton/ll_aton.c ****     {
 4582              		.loc 1 1333 19 is_stmt 0 view .LVU1616
 4583 0242 0023     		movs	r3, #0
1333:Lib/AI_Runtime/Npu/ll_aton/ll_aton.c ****     {
 4584              		.loc 1 1333 12 view .LVU1617
 4585 0244 9946     		mov	r9, r3
 4586              	.LBB109:
1336:Lib/AI_Runtime/Npu/ll_aton/ll_aton.c ****       k++;
ARM GAS  C:\Users\DJESSOU\AppData\Local\Temp\ccFxekaC.s 			page 162


 4587              		.loc 1 1336 7 discriminator 1 view .LVU1618
 4588 0246 DFF80C81 		ldr	r8, .L377+16
 4589              	.LBE109:
1333:Lib/AI_Runtime/Npu/ll_aton/ll_aton.c ****     {
 4590              		.loc 1 1333 35 discriminator 1 view .LVU1619
 4591 024a 4FEA540A 		lsr	r10, r4, #1
 4592 024e EC68     		ldr	r4, [r5, #12]
 4593              	.LVL492:
 4594              	.LBB110:
1336:Lib/AI_Runtime/Npu/ll_aton/ll_aton.c ****       k++;
 4595              		.loc 1 1336 7 discriminator 1 view .LVU1620
 4596 0250 B844     		add	r8, r8, r7
 4597              	.LVL493:
 4598              	.L332:
1336:Lib/AI_Runtime/Npu/ll_aton/ll_aton.c ****       k++;
 4599              		.loc 1 1336 7 discriminator 1 view .LVU1621
 4600              	.LBE110:
1333:Lib/AI_Runtime/Npu/ll_aton/ll_aton.c ****     {
 4601              		.loc 1 1333 26 is_stmt 1 discriminator 1 view .LVU1622
 4602 0252 D145     		cmp	r9, r10
 4603 0254 BFF4EAAE 		bcs	.L331
 4604              	.LBB111:
1335:Lib/AI_Runtime/Npu/ll_aton/ll_aton.c ****       ATON_DECUN_MEM_LOW_SET(id, k, temp);
 4605              		.loc 1 1335 7 view .LVU1623
1335:Lib/AI_Runtime/Npu/ll_aton/ll_aton.c ****       ATON_DECUN_MEM_LOW_SET(id, k, temp);
 4606              		.loc 1 1335 36 is_stmt 0 view .LVU1624
 4607 0258 6288     		ldrh	r2, [r4, #2]
1335:Lib/AI_Runtime/Npu/ll_aton/ll_aton.c ****       ATON_DECUN_MEM_LOW_SET(id, k, temp);
 4608              		.loc 1 1335 26 view .LVU1625
 4609 025a 2088     		ldrh	r0, [r4]
1335:Lib/AI_Runtime/Npu/ll_aton/ll_aton.c ****       ATON_DECUN_MEM_LOW_SET(id, k, temp);
 4610              		.loc 1 1335 30 view .LVU1626
 4611 025c 40EA0240 		orr	r0, r0, r2, lsl #16
 4612              	.LVL494:
1336:Lib/AI_Runtime/Npu/ll_aton/ll_aton.c ****       k++;
 4613              		.loc 1 1336 7 is_stmt 1 view .LVU1627
1336:Lib/AI_Runtime/Npu/ll_aton/ll_aton.c ****       k++;
 4614              		.loc 1 1336 7 view .LVU1628
1336:Lib/AI_Runtime/Npu/ll_aton/ll_aton.c ****       k++;
 4615              		.loc 1 1336 7 is_stmt 0 discriminator 4 view .LVU1629
 4616 0260 48F83300 		str	r0, [r8, r3, lsl #3]
1336:Lib/AI_Runtime/Npu/ll_aton/ll_aton.c ****       k++;
 4617              		.loc 1 1336 7 is_stmt 1 discriminator 4 view .LVU1630
1337:Lib/AI_Runtime/Npu/ll_aton/ll_aton.c ****       temp = CBp[i + 2];
 4618              		.loc 1 1337 7 view .LVU1631
 4619              	.LVL495:
1338:Lib/AI_Runtime/Npu/ll_aton/ll_aton.c ****       ATON_DECUN_MEM_LOW_SET(id, k, temp);
 4620              		.loc 1 1338 7 view .LVU1632
1336:Lib/AI_Runtime/Npu/ll_aton/ll_aton.c ****       k++;
 4621              		.loc 1 1336 7 is_stmt 0 discriminator 4 view .LVU1633
 4622 0264 DA00     		lsls	r2, r3, #3
1338:Lib/AI_Runtime/Npu/ll_aton/ll_aton.c ****       ATON_DECUN_MEM_LOW_SET(id, k, temp);
 4623              		.loc 1 1338 12 view .LVU1634
 4624 0266 A088     		ldrh	r0, [r4, #4]
 4625              	.LVL496:
1339:Lib/AI_Runtime/Npu/ll_aton/ll_aton.c ****       k++;
 4626              		.loc 1 1339 7 is_stmt 1 view .LVU1635
ARM GAS  C:\Users\DJESSOU\AppData\Local\Temp\ccFxekaC.s 			page 163


1339:Lib/AI_Runtime/Npu/ll_aton/ll_aton.c ****       k++;
 4627              		.loc 1 1339 7 view .LVU1636
1340:Lib/AI_Runtime/Npu/ll_aton/ll_aton.c ****       if (k == mem_idx_num)
 4628              		.loc 1 1340 8 is_stmt 0 view .LVU1637
 4629 0268 0233     		adds	r3, r3, #2
 4630              	.LVL497:
1339:Lib/AI_Runtime/Npu/ll_aton/ll_aton.c ****       k++;
 4631              		.loc 1 1339 7 discriminator 4 view .LVU1638
 4632 026a 0832     		adds	r2, r2, #8
1341:Lib/AI_Runtime/Npu/ll_aton/ll_aton.c ****       {
 4633              		.loc 1 1341 10 view .LVU1639
 4634 026c B3F5807F 		cmp	r3, #256
1339:Lib/AI_Runtime/Npu/ll_aton/ll_aton.c ****       k++;
 4635              		.loc 1 1339 7 discriminator 4 view .LVU1640
 4636 0270 42F80800 		str	r0, [r2, r8]
1339:Lib/AI_Runtime/Npu/ll_aton/ll_aton.c ****       k++;
 4637              		.loc 1 1339 7 is_stmt 1 discriminator 4 view .LVU1641
1340:Lib/AI_Runtime/Npu/ll_aton/ll_aton.c ****       if (k == mem_idx_num)
 4638              		.loc 1 1340 7 view .LVU1642
 4639              	.LVL498:
1341:Lib/AI_Runtime/Npu/ll_aton/ll_aton.c ****       {
 4640              		.loc 1 1341 7 view .LVU1643
1341:Lib/AI_Runtime/Npu/ll_aton/ll_aton.c ****       {
 4641              		.loc 1 1341 10 is_stmt 0 view .LVU1644
 4642 0274 04D1     		bne	.L333
1343:Lib/AI_Runtime/Npu/ll_aton/ll_aton.c ****         k = 0;
 4643              		.loc 1 1343 9 is_stmt 1 view .LVU1645
1343:Lib/AI_Runtime/Npu/ll_aton/ll_aton.c ****         k = 0;
 4644              		.loc 1 1343 20 is_stmt 0 view .LVU1646
 4645 0276 3046     		mov	r0, r6
 4646              	.LVL499:
1343:Lib/AI_Runtime/Npu/ll_aton/ll_aton.c ****         k = 0;
 4647              		.loc 1 1343 20 view .LVU1647
 4648 0278 FFF7FEFF 		bl	decun_inc_page_addr
 4649              	.LVL500:
1344:Lib/AI_Runtime/Npu/ll_aton/ll_aton.c ****       }
 4650              		.loc 1 1344 11 view .LVU1648
 4651 027c 0023     		movs	r3, #0
1343:Lib/AI_Runtime/Npu/ll_aton/ll_aton.c ****         k = 0;
 4652              		.loc 1 1343 20 view .LVU1649
 4653 027e 0146     		mov	r1, r0
 4654              	.LVL501:
1344:Lib/AI_Runtime/Npu/ll_aton/ll_aton.c ****       }
 4655              		.loc 1 1344 9 is_stmt 1 view .LVU1650
 4656              	.L333:
1344:Lib/AI_Runtime/Npu/ll_aton/ll_aton.c ****       }
 4657              		.loc 1 1344 9 is_stmt 0 view .LVU1651
 4658              	.LBE111:
1333:Lib/AI_Runtime/Npu/ll_aton/ll_aton.c ****     {
 4659              		.loc 1 1333 42 is_stmt 1 discriminator 2 view .LVU1652
 4660 0280 09F10309 		add	r9, r9, #3
 4661              	.LVL502:
1333:Lib/AI_Runtime/Npu/ll_aton/ll_aton.c ****     {
 4662              		.loc 1 1333 42 is_stmt 0 discriminator 2 view .LVU1653
 4663 0284 0634     		adds	r4, r4, #6
 4664 0286 E4E7     		b	.L332
 4665              	.LVL503:
ARM GAS  C:\Users\DJESSOU\AppData\Local\Temp\ccFxekaC.s 			page 164


 4666              	.L310:
1333:Lib/AI_Runtime/Npu/ll_aton/ll_aton.c ****     {
 4667              		.loc 1 1333 42 discriminator 2 view .LVU1654
 4668              	.LBE108:
 4669              	.LBE112:
 4670              	.LBE113:
1589:Lib/AI_Runtime/Npu/ll_aton/ll_aton.c ****     }
 4671              		.loc 1 1589 7 is_stmt 1 view .LVU1655
 4672              	.LBB114:
 4673              	.LBI114:
1369:Lib/AI_Runtime/Npu/ll_aton/ll_aton.c **** {
 4674              		.loc 1 1369 13 view .LVU1656
 4675              	.LBB115:
1371:Lib/AI_Runtime/Npu/ll_aton/ll_aton.c ****   unsigned i, k;
 4676              		.loc 1 1371 3 view .LVU1657
1375:Lib/AI_Runtime/Npu/ll_aton/ll_aton.c ****   {
 4677              		.loc 1 1375 6 is_stmt 0 view .LVU1658
 4678 0288 B8F1010F 		cmp	r8, #1
1371:Lib/AI_Runtime/Npu/ll_aton/ll_aton.c ****   unsigned i, k;
 4679              		.loc 1 1371 12 view .LVU1659
 4680 028c 4FEA5409 		lsr	r9, r4, #1
 4681              	.LVL504:
1372:Lib/AI_Runtime/Npu/ll_aton/ll_aton.c ****   unsigned mem_idx_num = ATON_DECUN_MEM_LOW_IDX_MAX - ATON_DECUN_MEM_LOW_IDX_MIN + 1;
 4682              		.loc 1 1372 3 is_stmt 1 view .LVU1660
1373:Lib/AI_Runtime/Npu/ll_aton/ll_aton.c **** 
 4683              		.loc 1 1373 3 view .LVU1661
1375:Lib/AI_Runtime/Npu/ll_aton/ll_aton.c ****   {
 4684              		.loc 1 1375 3 view .LVU1662
1375:Lib/AI_Runtime/Npu/ll_aton/ll_aton.c ****   {
 4685              		.loc 1 1375 6 is_stmt 0 view .LVU1663
 4686 0290 17D1     		bne	.L337
 4687              	.LBB116:
1377:Lib/AI_Runtime/Npu/ll_aton/ll_aton.c ****     for (i = 0, k = 0; i < CBsize; i++)
 4688              		.loc 1 1377 5 is_stmt 1 view .LVU1664
 4689              	.LVL505:
1378:Lib/AI_Runtime/Npu/ll_aton/ll_aton.c ****     {
 4690              		.loc 1 1378 5 view .LVU1665
1378:Lib/AI_Runtime/Npu/ll_aton/ll_aton.c ****     {
 4691              		.loc 1 1378 19 is_stmt 0 view .LVU1666
 4692 0292 0023     		movs	r3, #0
 4693 0294 EC68     		ldr	r4, [r5, #12]
 4694              	.LBB117:
1381:Lib/AI_Runtime/Npu/ll_aton/ll_aton.c ****       k++;
 4695              		.loc 1 1381 7 discriminator 1 view .LVU1667
 4696 0296 DFF8BC80 		ldr	r8, .L377+16
 4697 029a 04EB4909 		add	r9, r4, r9, lsl #1
 4698              	.LVL506:
1381:Lib/AI_Runtime/Npu/ll_aton/ll_aton.c ****       k++;
 4699              		.loc 1 1381 7 discriminator 1 view .LVU1668
 4700 029e B844     		add	r8, r8, r7
 4701              	.LVL507:
 4702              	.L338:
1381:Lib/AI_Runtime/Npu/ll_aton/ll_aton.c ****       k++;
 4703              		.loc 1 1381 7 discriminator 1 view .LVU1669
 4704              	.LBE117:
1378:Lib/AI_Runtime/Npu/ll_aton/ll_aton.c ****     {
 4705              		.loc 1 1378 26 is_stmt 1 discriminator 1 view .LVU1670
ARM GAS  C:\Users\DJESSOU\AppData\Local\Temp\ccFxekaC.s 			page 165


 4706 02a0 A145     		cmp	r9, r4
 4707 02a2 3FF4C3AE 		beq	.L331
 4708              	.LBB118:
1380:Lib/AI_Runtime/Npu/ll_aton/ll_aton.c ****       ATON_DECUN_MEM_LOW_SET(id, k, temp);
 4709              		.loc 1 1380 7 view .LVU1671
1380:Lib/AI_Runtime/Npu/ll_aton/ll_aton.c ****       ATON_DECUN_MEM_LOW_SET(id, k, temp);
 4710              		.loc 1 1380 26 is_stmt 0 view .LVU1672
 4711 02a6 34F8022B 		ldrh	r2, [r4], #2
 4712              	.LVL508:
1381:Lib/AI_Runtime/Npu/ll_aton/ll_aton.c ****       k++;
 4713              		.loc 1 1381 7 is_stmt 1 view .LVU1673
1381:Lib/AI_Runtime/Npu/ll_aton/ll_aton.c ****       k++;
 4714              		.loc 1 1381 7 view .LVU1674
1381:Lib/AI_Runtime/Npu/ll_aton/ll_aton.c ****       k++;
 4715              		.loc 1 1381 7 is_stmt 0 discriminator 4 view .LVU1675
 4716 02aa 48F83320 		str	r2, [r8, r3, lsl #3]
1381:Lib/AI_Runtime/Npu/ll_aton/ll_aton.c ****       k++;
 4717              		.loc 1 1381 7 is_stmt 1 discriminator 4 view .LVU1676
1382:Lib/AI_Runtime/Npu/ll_aton/ll_aton.c ****       if (k == mem_idx_num)
 4718              		.loc 1 1382 7 view .LVU1677
1382:Lib/AI_Runtime/Npu/ll_aton/ll_aton.c ****       if (k == mem_idx_num)
 4719              		.loc 1 1382 8 is_stmt 0 view .LVU1678
 4720 02ae 0133     		adds	r3, r3, #1
 4721              	.LVL509:
1383:Lib/AI_Runtime/Npu/ll_aton/ll_aton.c ****       {
 4722              		.loc 1 1383 7 is_stmt 1 view .LVU1679
1383:Lib/AI_Runtime/Npu/ll_aton/ll_aton.c ****       {
 4723              		.loc 1 1383 10 is_stmt 0 view .LVU1680
 4724 02b0 B3F5807F 		cmp	r3, #256
 4725 02b4 F4D1     		bne	.L338
1385:Lib/AI_Runtime/Npu/ll_aton/ll_aton.c ****         k = 0;
 4726              		.loc 1 1385 9 is_stmt 1 view .LVU1681
1385:Lib/AI_Runtime/Npu/ll_aton/ll_aton.c ****         k = 0;
 4727              		.loc 1 1385 20 is_stmt 0 view .LVU1682
 4728 02b6 3046     		mov	r0, r6
 4729 02b8 FFF7FEFF 		bl	decun_inc_page_addr
 4730              	.LVL510:
1386:Lib/AI_Runtime/Npu/ll_aton/ll_aton.c ****       }
 4731              		.loc 1 1386 11 view .LVU1683
 4732 02bc 0023     		movs	r3, #0
1385:Lib/AI_Runtime/Npu/ll_aton/ll_aton.c ****         k = 0;
 4733              		.loc 1 1385 20 view .LVU1684
 4734 02be 0146     		mov	r1, r0
 4735              	.LVL511:
1386:Lib/AI_Runtime/Npu/ll_aton/ll_aton.c ****       }
 4736              		.loc 1 1386 9 is_stmt 1 view .LVU1685
1386:Lib/AI_Runtime/Npu/ll_aton/ll_aton.c ****       }
 4737              		.loc 1 1386 9 is_stmt 0 view .LVU1686
 4738              	.LBE118:
1378:Lib/AI_Runtime/Npu/ll_aton/ll_aton.c ****     {
 4739              		.loc 1 1378 37 is_stmt 1 discriminator 2 view .LVU1687
 4740 02c0 EEE7     		b	.L338
 4741              	.LVL512:
 4742              	.L337:
1378:Lib/AI_Runtime/Npu/ll_aton/ll_aton.c ****     {
 4743              		.loc 1 1378 37 is_stmt 0 discriminator 2 view .LVU1688
 4744              	.LBE116:
ARM GAS  C:\Users\DJESSOU\AppData\Local\Temp\ccFxekaC.s 			page 166


1390:Lib/AI_Runtime/Npu/ll_aton/ll_aton.c ****   {
 4745              		.loc 1 1390 3 is_stmt 1 view .LVU1689
1390:Lib/AI_Runtime/Npu/ll_aton/ll_aton.c ****   {
 4746              		.loc 1 1390 6 is_stmt 0 view .LVU1690
 4747 02c2 B8F1020F 		cmp	r8, #2
 4748 02c6 19D1     		bne	.L342
 4749              	.LBB119:
1406:Lib/AI_Runtime/Npu/ll_aton/ll_aton.c ****     for (i = 0, k = 0; i < CBsize / 2; i++)
 4750              		.loc 1 1406 5 is_stmt 1 view .LVU1691
 4751              	.LVL513:
1407:Lib/AI_Runtime/Npu/ll_aton/ll_aton.c ****     {
 4752              		.loc 1 1407 5 view .LVU1692
1407:Lib/AI_Runtime/Npu/ll_aton/ll_aton.c ****     {
 4753              		.loc 1 1407 19 is_stmt 0 view .LVU1693
 4754 02c8 0023     		movs	r3, #0
 4755 02ca D5F80C80 		ldr	r8, [r5, #12]
 4756              	.LBB120:
1410:Lib/AI_Runtime/Npu/ll_aton/ll_aton.c ****       k++;
 4757              		.loc 1 1410 7 discriminator 1 view .LVU1694
 4758 02ce DFF88490 		ldr	r9, .L377+16
 4759              	.LVL514:
1410:Lib/AI_Runtime/Npu/ll_aton/ll_aton.c ****       k++;
 4760              		.loc 1 1410 7 discriminator 1 view .LVU1695
 4761 02d2 24F00304 		bic	r4, r4, #3
 4762              	.LVL515:
1410:Lib/AI_Runtime/Npu/ll_aton/ll_aton.c ****       k++;
 4763              		.loc 1 1410 7 discriminator 1 view .LVU1696
 4764 02d6 4444     		add	r4, r4, r8
 4765 02d8 B944     		add	r9, r9, r7
 4766              	.LVL516:
 4767              	.L343:
1410:Lib/AI_Runtime/Npu/ll_aton/ll_aton.c ****       k++;
 4768              		.loc 1 1410 7 discriminator 1 view .LVU1697
 4769              	.LBE120:
1407:Lib/AI_Runtime/Npu/ll_aton/ll_aton.c ****     {
 4770              		.loc 1 1407 26 is_stmt 1 discriminator 1 view .LVU1698
 4771 02da 4445     		cmp	r4, r8
 4772 02dc 3FF4A6AE 		beq	.L331
 4773              	.LBB121:
1409:Lib/AI_Runtime/Npu/ll_aton/ll_aton.c ****       ATON_DECUN_MEM_LOW_SET(id, k, temp);
 4774              		.loc 1 1409 7 view .LVU1699
1409:Lib/AI_Runtime/Npu/ll_aton/ll_aton.c ****       ATON_DECUN_MEM_LOW_SET(id, k, temp);
 4775              		.loc 1 1409 16 is_stmt 0 view .LVU1700
 4776 02e0 58F8042B 		ldr	r2, [r8], #4
 4777              	.LVL517:
1410:Lib/AI_Runtime/Npu/ll_aton/ll_aton.c ****       k++;
 4778              		.loc 1 1410 7 is_stmt 1 view .LVU1701
1410:Lib/AI_Runtime/Npu/ll_aton/ll_aton.c ****       k++;
 4779              		.loc 1 1410 7 view .LVU1702
1410:Lib/AI_Runtime/Npu/ll_aton/ll_aton.c ****       k++;
 4780              		.loc 1 1410 7 is_stmt 0 discriminator 4 view .LVU1703
 4781 02e4 49F83320 		str	r2, [r9, r3, lsl #3]
1410:Lib/AI_Runtime/Npu/ll_aton/ll_aton.c ****       k++;
 4782              		.loc 1 1410 7 is_stmt 1 discriminator 4 view .LVU1704
1411:Lib/AI_Runtime/Npu/ll_aton/ll_aton.c ****       if (k == mem_idx_num)
 4783              		.loc 1 1411 7 view .LVU1705
1411:Lib/AI_Runtime/Npu/ll_aton/ll_aton.c ****       if (k == mem_idx_num)
ARM GAS  C:\Users\DJESSOU\AppData\Local\Temp\ccFxekaC.s 			page 167


 4784              		.loc 1 1411 8 is_stmt 0 view .LVU1706
 4785 02e8 0133     		adds	r3, r3, #1
 4786              	.LVL518:
1412:Lib/AI_Runtime/Npu/ll_aton/ll_aton.c ****       {
 4787              		.loc 1 1412 7 is_stmt 1 view .LVU1707
1412:Lib/AI_Runtime/Npu/ll_aton/ll_aton.c ****       {
 4788              		.loc 1 1412 10 is_stmt 0 view .LVU1708
 4789 02ea B3F5807F 		cmp	r3, #256
 4790 02ee F4D1     		bne	.L343
1414:Lib/AI_Runtime/Npu/ll_aton/ll_aton.c ****         k = 0;
 4791              		.loc 1 1414 9 is_stmt 1 view .LVU1709
1414:Lib/AI_Runtime/Npu/ll_aton/ll_aton.c ****         k = 0;
 4792              		.loc 1 1414 20 is_stmt 0 view .LVU1710
 4793 02f0 3046     		mov	r0, r6
 4794 02f2 FFF7FEFF 		bl	decun_inc_page_addr
 4795              	.LVL519:
1415:Lib/AI_Runtime/Npu/ll_aton/ll_aton.c ****       }
 4796              		.loc 1 1415 11 view .LVU1711
 4797 02f6 0023     		movs	r3, #0
1414:Lib/AI_Runtime/Npu/ll_aton/ll_aton.c ****         k = 0;
 4798              		.loc 1 1414 20 view .LVU1712
 4799 02f8 0146     		mov	r1, r0
 4800              	.LVL520:
1415:Lib/AI_Runtime/Npu/ll_aton/ll_aton.c ****       }
 4801              		.loc 1 1415 9 is_stmt 1 view .LVU1713
1415:Lib/AI_Runtime/Npu/ll_aton/ll_aton.c ****       }
 4802              		.loc 1 1415 9 is_stmt 0 view .LVU1714
 4803              	.LBE121:
1407:Lib/AI_Runtime/Npu/ll_aton/ll_aton.c ****     {
 4804              		.loc 1 1407 41 is_stmt 1 discriminator 2 view .LVU1715
 4805 02fa EEE7     		b	.L343
 4806              	.LVL521:
 4807              	.L342:
1407:Lib/AI_Runtime/Npu/ll_aton/ll_aton.c ****     {
 4808              		.loc 1 1407 41 is_stmt 0 discriminator 2 view .LVU1716
 4809              	.LBE119:
1420:Lib/AI_Runtime/Npu/ll_aton/ll_aton.c ****   {
 4810              		.loc 1 1420 3 is_stmt 1 view .LVU1717
1420:Lib/AI_Runtime/Npu/ll_aton/ll_aton.c ****   {
 4811              		.loc 1 1420 6 is_stmt 0 view .LVU1718
 4812 02fc B8F1030F 		cmp	r8, #3
 4813 0300 2AD1     		bne	.L341
 4814              	.LBB122:
1422:Lib/AI_Runtime/Npu/ll_aton/ll_aton.c ****     for (i = 0, k = 0; i < CBsize; i += 3)
 4815              		.loc 1 1422 5 is_stmt 1 view .LVU1719
 4816              	.LVL522:
1423:Lib/AI_Runtime/Npu/ll_aton/ll_aton.c ****     {
 4817              		.loc 1 1423 5 view .LVU1720
1423:Lib/AI_Runtime/Npu/ll_aton/ll_aton.c ****     {
 4818              		.loc 1 1423 19 is_stmt 0 view .LVU1721
 4819 0302 0023     		movs	r3, #0
1423:Lib/AI_Runtime/Npu/ll_aton/ll_aton.c ****     {
 4820              		.loc 1 1423 12 view .LVU1722
 4821 0304 9A46     		mov	r10, r3
 4822              	.LBB123:
1426:Lib/AI_Runtime/Npu/ll_aton/ll_aton.c ****       temp = CBp[i + 2];
 4823              		.loc 1 1426 7 discriminator 1 view .LVU1723
ARM GAS  C:\Users\DJESSOU\AppData\Local\Temp\ccFxekaC.s 			page 168


 4824 0306 DFF84C80 		ldr	r8, .L377+16
 4825 030a EC68     		ldr	r4, [r5, #12]
 4826 030c B844     		add	r8, r8, r7
 4827              	.LVL523:
 4828              	.L347:
1426:Lib/AI_Runtime/Npu/ll_aton/ll_aton.c ****       temp = CBp[i + 2];
 4829              		.loc 1 1426 7 discriminator 1 view .LVU1724
 4830              	.LBE123:
1423:Lib/AI_Runtime/Npu/ll_aton/ll_aton.c ****     {
 4831              		.loc 1 1423 26 is_stmt 1 discriminator 1 view .LVU1725
 4832 030e D145     		cmp	r9, r10
 4833 0310 7FF68CAE 		bls	.L331
 4834              	.LBB124:
1425:Lib/AI_Runtime/Npu/ll_aton/ll_aton.c ****       ATON_DECUN_MEM_LOW_SET(id, k, temp);
 4835              		.loc 1 1425 7 view .LVU1726
1425:Lib/AI_Runtime/Npu/ll_aton/ll_aton.c ****       ATON_DECUN_MEM_LOW_SET(id, k, temp);
 4836              		.loc 1 1425 36 is_stmt 0 view .LVU1727
 4837 0314 6088     		ldrh	r0, [r4, #2]
1425:Lib/AI_Runtime/Npu/ll_aton/ll_aton.c ****       ATON_DECUN_MEM_LOW_SET(id, k, temp);
 4838              		.loc 1 1425 26 view .LVU1728
 4839 0316 2288     		ldrh	r2, [r4]
1425:Lib/AI_Runtime/Npu/ll_aton/ll_aton.c ****       ATON_DECUN_MEM_LOW_SET(id, k, temp);
 4840              		.loc 1 1425 30 view .LVU1729
 4841 0318 42EA0042 		orr	r2, r2, r0, lsl #16
 4842              	.LVL524:
1426:Lib/AI_Runtime/Npu/ll_aton/ll_aton.c ****       temp = CBp[i + 2];
 4843              		.loc 1 1426 7 is_stmt 1 view .LVU1730
1426:Lib/AI_Runtime/Npu/ll_aton/ll_aton.c ****       temp = CBp[i + 2];
 4844              		.loc 1 1426 7 view .LVU1731
1426:Lib/AI_Runtime/Npu/ll_aton/ll_aton.c ****       temp = CBp[i + 2];
 4845              		.loc 1 1426 7 is_stmt 0 discriminator 4 view .LVU1732
 4846 031c 48F83320 		str	r2, [r8, r3, lsl #3]
1426:Lib/AI_Runtime/Npu/ll_aton/ll_aton.c ****       temp = CBp[i + 2];
 4847              		.loc 1 1426 7 is_stmt 1 discriminator 4 view .LVU1733
1427:Lib/AI_Runtime/Npu/ll_aton/ll_aton.c ****       ATON_DECUN_MEM_HIGH_SET(id, k, temp);
 4848              		.loc 1 1427 7 view .LVU1734
1426:Lib/AI_Runtime/Npu/ll_aton/ll_aton.c ****       temp = CBp[i + 2];
 4849              		.loc 1 1426 7 is_stmt 0 discriminator 4 view .LVU1735
 4850 0320 08EBC300 		add	r0, r8, r3, lsl #3
1427:Lib/AI_Runtime/Npu/ll_aton/ll_aton.c ****       ATON_DECUN_MEM_HIGH_SET(id, k, temp);
 4851              		.loc 1 1427 12 view .LVU1736
 4852 0324 A288     		ldrh	r2, [r4, #4]
 4853              	.LVL525:
1428:Lib/AI_Runtime/Npu/ll_aton/ll_aton.c ****       k++;
 4854              		.loc 1 1428 7 is_stmt 1 view .LVU1737
1428:Lib/AI_Runtime/Npu/ll_aton/ll_aton.c ****       k++;
 4855              		.loc 1 1428 7 view .LVU1738
1429:Lib/AI_Runtime/Npu/ll_aton/ll_aton.c ****       if (k == mem_idx_num)
 4856              		.loc 1 1429 8 is_stmt 0 view .LVU1739
 4857 0326 0133     		adds	r3, r3, #1
 4858              	.LVL526:
1430:Lib/AI_Runtime/Npu/ll_aton/ll_aton.c ****       {
 4859              		.loc 1 1430 10 view .LVU1740
 4860 0328 B3F5807F 		cmp	r3, #256
1428:Lib/AI_Runtime/Npu/ll_aton/ll_aton.c ****       k++;
 4861              		.loc 1 1428 7 discriminator 4 view .LVU1741
 4862 032c 4260     		str	r2, [r0, #4]
ARM GAS  C:\Users\DJESSOU\AppData\Local\Temp\ccFxekaC.s 			page 169


1428:Lib/AI_Runtime/Npu/ll_aton/ll_aton.c ****       k++;
 4863              		.loc 1 1428 7 is_stmt 1 discriminator 4 view .LVU1742
1429:Lib/AI_Runtime/Npu/ll_aton/ll_aton.c ****       if (k == mem_idx_num)
 4864              		.loc 1 1429 7 view .LVU1743
 4865              	.LVL527:
1430:Lib/AI_Runtime/Npu/ll_aton/ll_aton.c ****       {
 4866              		.loc 1 1430 7 view .LVU1744
1430:Lib/AI_Runtime/Npu/ll_aton/ll_aton.c ****       {
 4867              		.loc 1 1430 10 is_stmt 0 view .LVU1745
 4868 032e 04D1     		bne	.L348
1432:Lib/AI_Runtime/Npu/ll_aton/ll_aton.c ****         k = 0;
 4869              		.loc 1 1432 9 is_stmt 1 view .LVU1746
1432:Lib/AI_Runtime/Npu/ll_aton/ll_aton.c ****         k = 0;
 4870              		.loc 1 1432 20 is_stmt 0 view .LVU1747
 4871 0330 3046     		mov	r0, r6
 4872 0332 FFF7FEFF 		bl	decun_inc_page_addr
 4873              	.LVL528:
1433:Lib/AI_Runtime/Npu/ll_aton/ll_aton.c ****       }
 4874              		.loc 1 1433 11 view .LVU1748
 4875 0336 0023     		movs	r3, #0
1432:Lib/AI_Runtime/Npu/ll_aton/ll_aton.c ****         k = 0;
 4876              		.loc 1 1432 20 view .LVU1749
 4877 0338 0146     		mov	r1, r0
 4878              	.LVL529:
1433:Lib/AI_Runtime/Npu/ll_aton/ll_aton.c ****       }
 4879              		.loc 1 1433 9 is_stmt 1 view .LVU1750
 4880              	.L348:
1433:Lib/AI_Runtime/Npu/ll_aton/ll_aton.c ****       }
 4881              		.loc 1 1433 9 is_stmt 0 view .LVU1751
 4882              	.LBE124:
1423:Lib/AI_Runtime/Npu/ll_aton/ll_aton.c ****     {
 4883              		.loc 1 1423 38 is_stmt 1 discriminator 2 view .LVU1752
 4884 033a 0AF1030A 		add	r10, r10, #3
 4885              	.LVL530:
1423:Lib/AI_Runtime/Npu/ll_aton/ll_aton.c ****     {
 4886              		.loc 1 1423 38 is_stmt 0 discriminator 2 view .LVU1753
 4887 033e 0634     		adds	r4, r4, #6
 4888 0340 E5E7     		b	.L347
 4889              	.L378:
 4890 0342 00BF     		.align	2
 4891              	.L377:
 4892 0344 08300F58 		.word	1477390344
 4893 0348 00000000 		.word	.LC27
 4894 034c 00000000 		.word	__func__.5
 4895 0350 05000000 		.word	.LC4
 4896 0354 00380F58 		.word	1477392384
 4897              	.LVL531:
 4898              	.L341:
1423:Lib/AI_Runtime/Npu/ll_aton/ll_aton.c ****     {
 4899              		.loc 1 1423 38 discriminator 2 view .LVU1754
 4900              	.LBE122:
1437:Lib/AI_Runtime/Npu/ll_aton/ll_aton.c ****   {
 4901              		.loc 1 1437 3 is_stmt 1 view .LVU1755
1437:Lib/AI_Runtime/Npu/ll_aton/ll_aton.c ****   {
 4902              		.loc 1 1437 6 is_stmt 0 view .LVU1756
 4903 0358 B8F1040F 		cmp	r8, #4
 4904 035c 22D1     		bne	.L346
ARM GAS  C:\Users\DJESSOU\AppData\Local\Temp\ccFxekaC.s 			page 170


 4905              	.LBB125:
1439:Lib/AI_Runtime/Npu/ll_aton/ll_aton.c ****     for (i = 0, k = 0; i < CBsize / 2; i += 2)
 4906              		.loc 1 1439 5 is_stmt 1 view .LVU1757
 4907              	.LVL532:
1440:Lib/AI_Runtime/Npu/ll_aton/ll_aton.c ****     {
 4908              		.loc 1 1440 5 view .LVU1758
1440:Lib/AI_Runtime/Npu/ll_aton/ll_aton.c ****     {
 4909              		.loc 1 1440 19 is_stmt 0 view .LVU1759
 4910 035e 0022     		movs	r2, #0
1440:Lib/AI_Runtime/Npu/ll_aton/ll_aton.c ****     {
 4911              		.loc 1 1440 12 view .LVU1760
 4912 0360 9146     		mov	r9, r2
 4913              	.LVL533:
1440:Lib/AI_Runtime/Npu/ll_aton/ll_aton.c ****     {
 4914              		.loc 1 1440 12 view .LVU1761
 4915 0362 EB68     		ldr	r3, [r5, #12]
1440:Lib/AI_Runtime/Npu/ll_aton/ll_aton.c ****     {
 4916              		.loc 1 1440 35 discriminator 1 view .LVU1762
 4917 0364 4FEA940A 		lsr	r10, r4, #2
 4918              	.LBB126:
1443:Lib/AI_Runtime/Npu/ll_aton/ll_aton.c ****       temp = CBp[i + 1];
 4919              		.loc 1 1443 7 discriminator 1 view .LVU1763
 4920 0368 6F4C     		ldr	r4, .L379
 4921              	.LVL534:
1443:Lib/AI_Runtime/Npu/ll_aton/ll_aton.c ****       temp = CBp[i + 1];
 4922              		.loc 1 1443 7 discriminator 1 view .LVU1764
 4923 036a 03F10408 		add	r8, r3, #4
 4924 036e 3C44     		add	r4, r4, r7
 4925              	.LVL535:
 4926              	.L351:
1443:Lib/AI_Runtime/Npu/ll_aton/ll_aton.c ****       temp = CBp[i + 1];
 4927              		.loc 1 1443 7 discriminator 1 view .LVU1765
 4928              	.LBE126:
1440:Lib/AI_Runtime/Npu/ll_aton/ll_aton.c ****     {
 4929              		.loc 1 1440 26 is_stmt 1 discriminator 1 view .LVU1766
 4930 0370 D145     		cmp	r9, r10
 4931 0372 BFF45BAE 		bcs	.L331
 4932              	.LBB127:
1442:Lib/AI_Runtime/Npu/ll_aton/ll_aton.c ****       ATON_DECUN_MEM_LOW_SET(id, k, temp);
 4933              		.loc 1 1442 7 view .LVU1767
1442:Lib/AI_Runtime/Npu/ll_aton/ll_aton.c ****       ATON_DECUN_MEM_LOW_SET(id, k, temp);
 4934              		.loc 1 1442 16 is_stmt 0 view .LVU1768
 4935 0376 58F8043C 		ldr	r3, [r8, #-4]
 4936              	.LVL536:
1443:Lib/AI_Runtime/Npu/ll_aton/ll_aton.c ****       temp = CBp[i + 1];
 4937              		.loc 1 1443 7 is_stmt 1 view .LVU1769
1443:Lib/AI_Runtime/Npu/ll_aton/ll_aton.c ****       temp = CBp[i + 1];
 4938              		.loc 1 1443 7 view .LVU1770
1443:Lib/AI_Runtime/Npu/ll_aton/ll_aton.c ****       temp = CBp[i + 1];
 4939              		.loc 1 1443 7 is_stmt 0 discriminator 4 view .LVU1771
 4940 037a 04EBC200 		add	r0, r4, r2, lsl #3
 4941 037e 44F83230 		str	r3, [r4, r2, lsl #3]
1443:Lib/AI_Runtime/Npu/ll_aton/ll_aton.c ****       temp = CBp[i + 1];
 4942              		.loc 1 1443 7 is_stmt 1 discriminator 4 view .LVU1772
1444:Lib/AI_Runtime/Npu/ll_aton/ll_aton.c ****       ATON_DECUN_MEM_HIGH_SET(id, k, temp);
 4943              		.loc 1 1444 7 view .LVU1773
1444:Lib/AI_Runtime/Npu/ll_aton/ll_aton.c ****       ATON_DECUN_MEM_HIGH_SET(id, k, temp);
ARM GAS  C:\Users\DJESSOU\AppData\Local\Temp\ccFxekaC.s 			page 171


 4944              		.loc 1 1444 12 is_stmt 0 view .LVU1774
 4945 0382 D8F80030 		ldr	r3, [r8]
 4946              	.LVL537:
1445:Lib/AI_Runtime/Npu/ll_aton/ll_aton.c ****       k++;
 4947              		.loc 1 1445 7 is_stmt 1 view .LVU1775
1445:Lib/AI_Runtime/Npu/ll_aton/ll_aton.c ****       k++;
 4948              		.loc 1 1445 7 view .LVU1776
1446:Lib/AI_Runtime/Npu/ll_aton/ll_aton.c ****       if (k == mem_idx_num)
 4949              		.loc 1 1446 8 is_stmt 0 view .LVU1777
 4950 0386 0132     		adds	r2, r2, #1
 4951              	.LVL538:
1447:Lib/AI_Runtime/Npu/ll_aton/ll_aton.c ****       {
 4952              		.loc 1 1447 10 view .LVU1778
 4953 0388 B2F5807F 		cmp	r2, #256
1445:Lib/AI_Runtime/Npu/ll_aton/ll_aton.c ****       k++;
 4954              		.loc 1 1445 7 discriminator 4 view .LVU1779
 4955 038c 4360     		str	r3, [r0, #4]
1445:Lib/AI_Runtime/Npu/ll_aton/ll_aton.c ****       k++;
 4956              		.loc 1 1445 7 is_stmt 1 discriminator 4 view .LVU1780
1446:Lib/AI_Runtime/Npu/ll_aton/ll_aton.c ****       if (k == mem_idx_num)
 4957              		.loc 1 1446 7 view .LVU1781
 4958              	.LVL539:
1447:Lib/AI_Runtime/Npu/ll_aton/ll_aton.c ****       {
 4959              		.loc 1 1447 7 view .LVU1782
1447:Lib/AI_Runtime/Npu/ll_aton/ll_aton.c ****       {
 4960              		.loc 1 1447 10 is_stmt 0 view .LVU1783
 4961 038e 04D1     		bne	.L352
1449:Lib/AI_Runtime/Npu/ll_aton/ll_aton.c ****         k = 0;
 4962              		.loc 1 1449 9 is_stmt 1 view .LVU1784
1449:Lib/AI_Runtime/Npu/ll_aton/ll_aton.c ****         k = 0;
 4963              		.loc 1 1449 20 is_stmt 0 view .LVU1785
 4964 0390 3046     		mov	r0, r6
 4965 0392 FFF7FEFF 		bl	decun_inc_page_addr
 4966              	.LVL540:
1450:Lib/AI_Runtime/Npu/ll_aton/ll_aton.c ****       }
 4967              		.loc 1 1450 11 view .LVU1786
 4968 0396 0022     		movs	r2, #0
1449:Lib/AI_Runtime/Npu/ll_aton/ll_aton.c ****         k = 0;
 4969              		.loc 1 1449 20 view .LVU1787
 4970 0398 0146     		mov	r1, r0
 4971              	.LVL541:
1450:Lib/AI_Runtime/Npu/ll_aton/ll_aton.c ****       }
 4972              		.loc 1 1450 9 is_stmt 1 view .LVU1788
 4973              	.L352:
1450:Lib/AI_Runtime/Npu/ll_aton/ll_aton.c ****       }
 4974              		.loc 1 1450 9 is_stmt 0 view .LVU1789
 4975              	.LBE127:
1440:Lib/AI_Runtime/Npu/ll_aton/ll_aton.c ****     {
 4976              		.loc 1 1440 42 is_stmt 1 discriminator 2 view .LVU1790
 4977 039a 09F10209 		add	r9, r9, #2
 4978              	.LVL542:
1440:Lib/AI_Runtime/Npu/ll_aton/ll_aton.c ****     {
 4979              		.loc 1 1440 42 is_stmt 0 discriminator 2 view .LVU1791
 4980 039e 08F10808 		add	r8, r8, #8
 4981 03a2 E5E7     		b	.L351
 4982              	.LVL543:
 4983              	.L346:
ARM GAS  C:\Users\DJESSOU\AppData\Local\Temp\ccFxekaC.s 			page 172


1440:Lib/AI_Runtime/Npu/ll_aton/ll_aton.c ****     {
 4984              		.loc 1 1440 42 discriminator 2 view .LVU1792
 4985              	.LBE125:
1454:Lib/AI_Runtime/Npu/ll_aton/ll_aton.c ****   {
 4986              		.loc 1 1454 3 is_stmt 1 view .LVU1793
1454:Lib/AI_Runtime/Npu/ll_aton/ll_aton.c ****   {
 4987              		.loc 1 1454 6 is_stmt 0 view .LVU1794
 4988 03a4 B8F1050F 		cmp	r8, #5
 4989 03a8 29D1     		bne	.L350
 4990              	.LBB128:
1456:Lib/AI_Runtime/Npu/ll_aton/ll_aton.c ****     for (i = 0, k = 0; i < CBsize; i += 5)
 4991              		.loc 1 1456 5 is_stmt 1 view .LVU1795
 4992              	.LVL544:
1457:Lib/AI_Runtime/Npu/ll_aton/ll_aton.c ****     {
 4993              		.loc 1 1457 5 view .LVU1796
1457:Lib/AI_Runtime/Npu/ll_aton/ll_aton.c ****     {
 4994              		.loc 1 1457 19 is_stmt 0 view .LVU1797
 4995 03aa 0023     		movs	r3, #0
1457:Lib/AI_Runtime/Npu/ll_aton/ll_aton.c ****     {
 4996              		.loc 1 1457 12 view .LVU1798
 4997 03ac 9A46     		mov	r10, r3
 4998              	.LBB129:
1460:Lib/AI_Runtime/Npu/ll_aton/ll_aton.c ****       temp = CBp[i + 2] | (CBp[i + 3] << 16);
 4999              		.loc 1 1460 7 discriminator 1 view .LVU1799
 5000 03ae DFF87881 		ldr	r8, .L379
 5001 03b2 EC68     		ldr	r4, [r5, #12]
 5002 03b4 B844     		add	r8, r8, r7
 5003              	.LVL545:
 5004              	.L355:
1460:Lib/AI_Runtime/Npu/ll_aton/ll_aton.c ****       temp = CBp[i + 2] | (CBp[i + 3] << 16);
 5005              		.loc 1 1460 7 discriminator 1 view .LVU1800
 5006              	.LBE129:
1457:Lib/AI_Runtime/Npu/ll_aton/ll_aton.c ****     {
 5007              		.loc 1 1457 26 is_stmt 1 discriminator 1 view .LVU1801
 5008 03b6 D145     		cmp	r9, r10
 5009 03b8 7FF638AE 		bls	.L331
 5010              	.LBB130:
1459:Lib/AI_Runtime/Npu/ll_aton/ll_aton.c ****       ATON_DECUN_MEM_LOW_SET(id, k, temp);
 5011              		.loc 1 1459 7 view .LVU1802
1459:Lib/AI_Runtime/Npu/ll_aton/ll_aton.c ****       ATON_DECUN_MEM_LOW_SET(id, k, temp);
 5012              		.loc 1 1459 36 is_stmt 0 view .LVU1803
 5013 03bc 6288     		ldrh	r2, [r4, #2]
1459:Lib/AI_Runtime/Npu/ll_aton/ll_aton.c ****       ATON_DECUN_MEM_LOW_SET(id, k, temp);
 5014              		.loc 1 1459 26 view .LVU1804
 5015 03be 2088     		ldrh	r0, [r4]
1461:Lib/AI_Runtime/Npu/ll_aton/ll_aton.c ****       ATON_DECUN_MEM_HIGH_SET(id, k, temp);
 5016              		.loc 1 1461 31 view .LVU1805
 5017 03c0 B4F806E0 		ldrh	lr, [r4, #6]
1459:Lib/AI_Runtime/Npu/ll_aton/ll_aton.c ****       ATON_DECUN_MEM_LOW_SET(id, k, temp);
 5018              		.loc 1 1459 30 view .LVU1806
 5019 03c4 40EA0240 		orr	r0, r0, r2, lsl #16
 5020              	.LVL546:
1460:Lib/AI_Runtime/Npu/ll_aton/ll_aton.c ****       temp = CBp[i + 2] | (CBp[i + 3] << 16);
 5021              		.loc 1 1460 7 is_stmt 1 view .LVU1807
1460:Lib/AI_Runtime/Npu/ll_aton/ll_aton.c ****       temp = CBp[i + 2] | (CBp[i + 3] << 16);
 5022              		.loc 1 1460 7 view .LVU1808
1460:Lib/AI_Runtime/Npu/ll_aton/ll_aton.c ****       temp = CBp[i + 2] | (CBp[i + 3] << 16);
ARM GAS  C:\Users\DJESSOU\AppData\Local\Temp\ccFxekaC.s 			page 173


 5023              		.loc 1 1460 7 is_stmt 0 discriminator 4 view .LVU1809
 5024 03c8 48F83300 		str	r0, [r8, r3, lsl #3]
1460:Lib/AI_Runtime/Npu/ll_aton/ll_aton.c ****       temp = CBp[i + 2] | (CBp[i + 3] << 16);
 5025              		.loc 1 1460 7 is_stmt 1 discriminator 4 view .LVU1810
1461:Lib/AI_Runtime/Npu/ll_aton/ll_aton.c ****       ATON_DECUN_MEM_HIGH_SET(id, k, temp);
 5026              		.loc 1 1461 7 view .LVU1811
1461:Lib/AI_Runtime/Npu/ll_aton/ll_aton.c ****       ATON_DECUN_MEM_HIGH_SET(id, k, temp);
 5027              		.loc 1 1461 17 is_stmt 0 view .LVU1812
 5028 03cc A088     		ldrh	r0, [r4, #4]
 5029              	.LVL547:
1460:Lib/AI_Runtime/Npu/ll_aton/ll_aton.c ****       temp = CBp[i + 2] | (CBp[i + 3] << 16);
 5030              		.loc 1 1460 7 discriminator 4 view .LVU1813
 5031 03ce 08EBC30C 		add	ip, r8, r3, lsl #3
1461:Lib/AI_Runtime/Npu/ll_aton/ll_aton.c ****       ATON_DECUN_MEM_HIGH_SET(id, k, temp);
 5032              		.loc 1 1461 25 view .LVU1814
 5033 03d2 40EA0E40 		orr	r0, r0, lr, lsl #16
 5034              	.LVL548:
1462:Lib/AI_Runtime/Npu/ll_aton/ll_aton.c ****       k++;
 5035              		.loc 1 1462 7 is_stmt 1 view .LVU1815
1462:Lib/AI_Runtime/Npu/ll_aton/ll_aton.c ****       k++;
 5036              		.loc 1 1462 7 view .LVU1816
1460:Lib/AI_Runtime/Npu/ll_aton/ll_aton.c ****       temp = CBp[i + 2] | (CBp[i + 3] << 16);
 5037              		.loc 1 1460 7 is_stmt 0 discriminator 4 view .LVU1817
 5038 03d6 DA00     		lsls	r2, r3, #3
1462:Lib/AI_Runtime/Npu/ll_aton/ll_aton.c ****       k++;
 5039              		.loc 1 1462 7 discriminator 4 view .LVU1818
 5040 03d8 CCF80400 		str	r0, [ip, #4]
1462:Lib/AI_Runtime/Npu/ll_aton/ll_aton.c ****       k++;
 5041              		.loc 1 1462 7 is_stmt 1 discriminator 4 view .LVU1819
1463:Lib/AI_Runtime/Npu/ll_aton/ll_aton.c ****       temp = CBp[i + 4];
 5042              		.loc 1 1463 7 view .LVU1820
 5043              	.LVL549:
1464:Lib/AI_Runtime/Npu/ll_aton/ll_aton.c ****       ATON_DECUN_MEM_LOW_SET(id, k, temp);
 5044              		.loc 1 1464 7 view .LVU1821
1466:Lib/AI_Runtime/Npu/ll_aton/ll_aton.c ****       if (k == mem_idx_num)
 5045              		.loc 1 1466 8 is_stmt 0 view .LVU1822
 5046 03dc 0233     		adds	r3, r3, #2
 5047              	.LVL550:
1464:Lib/AI_Runtime/Npu/ll_aton/ll_aton.c ****       ATON_DECUN_MEM_LOW_SET(id, k, temp);
 5048              		.loc 1 1464 12 view .LVU1823
 5049 03de 2089     		ldrh	r0, [r4, #8]
 5050              	.LVL551:
1465:Lib/AI_Runtime/Npu/ll_aton/ll_aton.c ****       k++;
 5051              		.loc 1 1465 7 is_stmt 1 view .LVU1824
1465:Lib/AI_Runtime/Npu/ll_aton/ll_aton.c ****       k++;
 5052              		.loc 1 1465 7 view .LVU1825
1465:Lib/AI_Runtime/Npu/ll_aton/ll_aton.c ****       k++;
 5053              		.loc 1 1465 7 is_stmt 0 discriminator 4 view .LVU1826
 5054 03e0 0832     		adds	r2, r2, #8
1467:Lib/AI_Runtime/Npu/ll_aton/ll_aton.c ****       {
 5055              		.loc 1 1467 10 view .LVU1827
 5056 03e2 B3F5807F 		cmp	r3, #256
1465:Lib/AI_Runtime/Npu/ll_aton/ll_aton.c ****       k++;
 5057              		.loc 1 1465 7 discriminator 4 view .LVU1828
 5058 03e6 42F80800 		str	r0, [r2, r8]
1465:Lib/AI_Runtime/Npu/ll_aton/ll_aton.c ****       k++;
 5059              		.loc 1 1465 7 is_stmt 1 discriminator 4 view .LVU1829
ARM GAS  C:\Users\DJESSOU\AppData\Local\Temp\ccFxekaC.s 			page 174


1466:Lib/AI_Runtime/Npu/ll_aton/ll_aton.c ****       if (k == mem_idx_num)
 5060              		.loc 1 1466 7 view .LVU1830
 5061              	.LVL552:
1467:Lib/AI_Runtime/Npu/ll_aton/ll_aton.c ****       {
 5062              		.loc 1 1467 7 view .LVU1831
1467:Lib/AI_Runtime/Npu/ll_aton/ll_aton.c ****       {
 5063              		.loc 1 1467 10 is_stmt 0 view .LVU1832
 5064 03ea 04D1     		bne	.L356
1469:Lib/AI_Runtime/Npu/ll_aton/ll_aton.c ****         k = 0;
 5065              		.loc 1 1469 9 is_stmt 1 view .LVU1833
1469:Lib/AI_Runtime/Npu/ll_aton/ll_aton.c ****         k = 0;
 5066              		.loc 1 1469 20 is_stmt 0 view .LVU1834
 5067 03ec 3046     		mov	r0, r6
 5068              	.LVL553:
1469:Lib/AI_Runtime/Npu/ll_aton/ll_aton.c ****         k = 0;
 5069              		.loc 1 1469 20 view .LVU1835
 5070 03ee FFF7FEFF 		bl	decun_inc_page_addr
 5071              	.LVL554:
1470:Lib/AI_Runtime/Npu/ll_aton/ll_aton.c ****       }
 5072              		.loc 1 1470 11 view .LVU1836
 5073 03f2 0023     		movs	r3, #0
1469:Lib/AI_Runtime/Npu/ll_aton/ll_aton.c ****         k = 0;
 5074              		.loc 1 1469 20 view .LVU1837
 5075 03f4 0146     		mov	r1, r0
 5076              	.LVL555:
1470:Lib/AI_Runtime/Npu/ll_aton/ll_aton.c ****       }
 5077              		.loc 1 1470 9 is_stmt 1 view .LVU1838
 5078              	.L356:
1470:Lib/AI_Runtime/Npu/ll_aton/ll_aton.c ****       }
 5079              		.loc 1 1470 9 is_stmt 0 view .LVU1839
 5080              	.LBE130:
1457:Lib/AI_Runtime/Npu/ll_aton/ll_aton.c ****     {
 5081              		.loc 1 1457 38 is_stmt 1 discriminator 2 view .LVU1840
 5082 03f6 0AF1050A 		add	r10, r10, #5
 5083              	.LVL556:
1457:Lib/AI_Runtime/Npu/ll_aton/ll_aton.c ****     {
 5084              		.loc 1 1457 38 is_stmt 0 discriminator 2 view .LVU1841
 5085 03fa 0A34     		adds	r4, r4, #10
 5086 03fc DBE7     		b	.L355
 5087              	.LVL557:
 5088              	.L350:
1457:Lib/AI_Runtime/Npu/ll_aton/ll_aton.c ****     {
 5089              		.loc 1 1457 38 discriminator 2 view .LVU1842
 5090              	.LBE128:
1474:Lib/AI_Runtime/Npu/ll_aton/ll_aton.c ****   {
 5091              		.loc 1 1474 3 is_stmt 1 view .LVU1843
1474:Lib/AI_Runtime/Npu/ll_aton/ll_aton.c ****   {
 5092              		.loc 1 1474 6 is_stmt 0 view .LVU1844
 5093 03fe B8F1060F 		cmp	r8, #6
 5094 0402 24D1     		bne	.L354
 5095              	.LBB131:
1500:Lib/AI_Runtime/Npu/ll_aton/ll_aton.c ****     for (i = 0, k = 0; i < CBsize / 2; i += 3)
 5096              		.loc 1 1500 5 is_stmt 1 view .LVU1845
 5097              	.LVL558:
1501:Lib/AI_Runtime/Npu/ll_aton/ll_aton.c ****     {
 5098              		.loc 1 1501 5 view .LVU1846
1501:Lib/AI_Runtime/Npu/ll_aton/ll_aton.c ****     {
ARM GAS  C:\Users\DJESSOU\AppData\Local\Temp\ccFxekaC.s 			page 175


 5099              		.loc 1 1501 19 is_stmt 0 view .LVU1847
 5100 0404 0022     		movs	r2, #0
1501:Lib/AI_Runtime/Npu/ll_aton/ll_aton.c ****     {
 5101              		.loc 1 1501 12 view .LVU1848
 5102 0406 9146     		mov	r9, r2
 5103              	.LVL559:
 5104              	.LBB132:
1504:Lib/AI_Runtime/Npu/ll_aton/ll_aton.c ****       temp = CBp[i + 1];
 5105              		.loc 1 1504 7 discriminator 1 view .LVU1849
 5106 0408 DFF81C81 		ldr	r8, .L379
 5107              	.LBE132:
1501:Lib/AI_Runtime/Npu/ll_aton/ll_aton.c ****     {
 5108              		.loc 1 1501 35 discriminator 1 view .LVU1850
 5109 040c 4FEA940A 		lsr	r10, r4, #2
 5110 0410 EC68     		ldr	r4, [r5, #12]
 5111              	.LVL560:
 5112              	.LBB133:
1504:Lib/AI_Runtime/Npu/ll_aton/ll_aton.c ****       temp = CBp[i + 1];
 5113              		.loc 1 1504 7 discriminator 1 view .LVU1851
 5114 0412 B844     		add	r8, r8, r7
 5115              	.LVL561:
 5116              	.L359:
1504:Lib/AI_Runtime/Npu/ll_aton/ll_aton.c ****       temp = CBp[i + 1];
 5117              		.loc 1 1504 7 discriminator 1 view .LVU1852
 5118              	.LBE133:
1501:Lib/AI_Runtime/Npu/ll_aton/ll_aton.c ****     {
 5119              		.loc 1 1501 26 is_stmt 1 discriminator 1 view .LVU1853
 5120 0414 D145     		cmp	r9, r10
 5121 0416 BFF409AE 		bcs	.L331
 5122              	.LBB134:
1503:Lib/AI_Runtime/Npu/ll_aton/ll_aton.c ****       ATON_DECUN_MEM_LOW_SET(id, k, temp);
 5123              		.loc 1 1503 7 view .LVU1854
1503:Lib/AI_Runtime/Npu/ll_aton/ll_aton.c ****       ATON_DECUN_MEM_LOW_SET(id, k, temp);
 5124              		.loc 1 1503 16 is_stmt 0 view .LVU1855
 5125 041a 2368     		ldr	r3, [r4]
 5126              	.LVL562:
1504:Lib/AI_Runtime/Npu/ll_aton/ll_aton.c ****       temp = CBp[i + 1];
 5127              		.loc 1 1504 7 is_stmt 1 view .LVU1856
1504:Lib/AI_Runtime/Npu/ll_aton/ll_aton.c ****       temp = CBp[i + 1];
 5128              		.loc 1 1504 7 view .LVU1857
1504:Lib/AI_Runtime/Npu/ll_aton/ll_aton.c ****       temp = CBp[i + 1];
 5129              		.loc 1 1504 7 is_stmt 0 discriminator 4 view .LVU1858
 5130 041c 08EBC20C 		add	ip, r8, r2, lsl #3
 5131 0420 48F83230 		str	r3, [r8, r2, lsl #3]
1504:Lib/AI_Runtime/Npu/ll_aton/ll_aton.c ****       temp = CBp[i + 1];
 5132              		.loc 1 1504 7 is_stmt 1 discriminator 4 view .LVU1859
1505:Lib/AI_Runtime/Npu/ll_aton/ll_aton.c ****       ATON_DECUN_MEM_HIGH_SET(id, k, temp);
 5133              		.loc 1 1505 7 view .LVU1860
1505:Lib/AI_Runtime/Npu/ll_aton/ll_aton.c ****       ATON_DECUN_MEM_HIGH_SET(id, k, temp);
 5134              		.loc 1 1505 12 is_stmt 0 view .LVU1861
 5135 0424 6368     		ldr	r3, [r4, #4]
 5136              	.LVL563:
1506:Lib/AI_Runtime/Npu/ll_aton/ll_aton.c ****       k++;
 5137              		.loc 1 1506 7 is_stmt 1 view .LVU1862
1506:Lib/AI_Runtime/Npu/ll_aton/ll_aton.c ****       k++;
 5138              		.loc 1 1506 7 view .LVU1863
1504:Lib/AI_Runtime/Npu/ll_aton/ll_aton.c ****       temp = CBp[i + 1];
ARM GAS  C:\Users\DJESSOU\AppData\Local\Temp\ccFxekaC.s 			page 176


 5139              		.loc 1 1504 7 is_stmt 0 discriminator 4 view .LVU1864
 5140 0426 D000     		lsls	r0, r2, #3
1506:Lib/AI_Runtime/Npu/ll_aton/ll_aton.c ****       k++;
 5141              		.loc 1 1506 7 discriminator 4 view .LVU1865
 5142 0428 CCF80430 		str	r3, [ip, #4]
1506:Lib/AI_Runtime/Npu/ll_aton/ll_aton.c ****       k++;
 5143              		.loc 1 1506 7 is_stmt 1 discriminator 4 view .LVU1866
1507:Lib/AI_Runtime/Npu/ll_aton/ll_aton.c ****       temp = CBp[i + 2];
 5144              		.loc 1 1507 7 view .LVU1867
 5145              	.LVL564:
1508:Lib/AI_Runtime/Npu/ll_aton/ll_aton.c ****       ATON_DECUN_MEM_LOW_SET(id, k, temp);
 5146              		.loc 1 1508 7 view .LVU1868
1508:Lib/AI_Runtime/Npu/ll_aton/ll_aton.c ****       ATON_DECUN_MEM_LOW_SET(id, k, temp);
 5147              		.loc 1 1508 12 is_stmt 0 view .LVU1869
 5148 042c A368     		ldr	r3, [r4, #8]
 5149              	.LVL565:
1509:Lib/AI_Runtime/Npu/ll_aton/ll_aton.c ****       k++;
 5150              		.loc 1 1509 7 is_stmt 1 view .LVU1870
1509:Lib/AI_Runtime/Npu/ll_aton/ll_aton.c ****       k++;
 5151              		.loc 1 1509 7 view .LVU1871
1510:Lib/AI_Runtime/Npu/ll_aton/ll_aton.c ****       if (k == mem_idx_num)
 5152              		.loc 1 1510 8 is_stmt 0 view .LVU1872
 5153 042e 0232     		adds	r2, r2, #2
 5154              	.LVL566:
1509:Lib/AI_Runtime/Npu/ll_aton/ll_aton.c ****       k++;
 5155              		.loc 1 1509 7 discriminator 4 view .LVU1873
 5156 0430 0830     		adds	r0, r0, #8
1511:Lib/AI_Runtime/Npu/ll_aton/ll_aton.c ****       {
 5157              		.loc 1 1511 10 view .LVU1874
 5158 0432 B2F5807F 		cmp	r2, #256
1509:Lib/AI_Runtime/Npu/ll_aton/ll_aton.c ****       k++;
 5159              		.loc 1 1509 7 discriminator 4 view .LVU1875
 5160 0436 40F80830 		str	r3, [r0, r8]
1509:Lib/AI_Runtime/Npu/ll_aton/ll_aton.c ****       k++;
 5161              		.loc 1 1509 7 is_stmt 1 discriminator 4 view .LVU1876
1510:Lib/AI_Runtime/Npu/ll_aton/ll_aton.c ****       if (k == mem_idx_num)
 5162              		.loc 1 1510 7 view .LVU1877
 5163              	.LVL567:
1511:Lib/AI_Runtime/Npu/ll_aton/ll_aton.c ****       {
 5164              		.loc 1 1511 7 view .LVU1878
1511:Lib/AI_Runtime/Npu/ll_aton/ll_aton.c ****       {
 5165              		.loc 1 1511 10 is_stmt 0 view .LVU1879
 5166 043a 04D1     		bne	.L360
1513:Lib/AI_Runtime/Npu/ll_aton/ll_aton.c ****         k = 0;
 5167              		.loc 1 1513 9 is_stmt 1 view .LVU1880
1513:Lib/AI_Runtime/Npu/ll_aton/ll_aton.c ****         k = 0;
 5168              		.loc 1 1513 20 is_stmt 0 view .LVU1881
 5169 043c 3046     		mov	r0, r6
 5170 043e FFF7FEFF 		bl	decun_inc_page_addr
 5171              	.LVL568:
1514:Lib/AI_Runtime/Npu/ll_aton/ll_aton.c ****       }
 5172              		.loc 1 1514 11 view .LVU1882
 5173 0442 0022     		movs	r2, #0
1513:Lib/AI_Runtime/Npu/ll_aton/ll_aton.c ****         k = 0;
 5174              		.loc 1 1513 20 view .LVU1883
 5175 0444 0146     		mov	r1, r0
 5176              	.LVL569:
ARM GAS  C:\Users\DJESSOU\AppData\Local\Temp\ccFxekaC.s 			page 177


1514:Lib/AI_Runtime/Npu/ll_aton/ll_aton.c ****       }
 5177              		.loc 1 1514 9 is_stmt 1 view .LVU1884
 5178              	.L360:
1514:Lib/AI_Runtime/Npu/ll_aton/ll_aton.c ****       }
 5179              		.loc 1 1514 9 is_stmt 0 view .LVU1885
 5180              	.LBE134:
1501:Lib/AI_Runtime/Npu/ll_aton/ll_aton.c ****     {
 5181              		.loc 1 1501 42 is_stmt 1 discriminator 2 view .LVU1886
 5182 0446 09F10309 		add	r9, r9, #3
 5183              	.LVL570:
1501:Lib/AI_Runtime/Npu/ll_aton/ll_aton.c ****     {
 5184              		.loc 1 1501 42 is_stmt 0 discriminator 2 view .LVU1887
 5185 044a 0C34     		adds	r4, r4, #12
 5186 044c E2E7     		b	.L359
 5187              	.LVL571:
 5188              	.L354:
1501:Lib/AI_Runtime/Npu/ll_aton/ll_aton.c ****     {
 5189              		.loc 1 1501 42 discriminator 2 view .LVU1888
 5190              	.LBE131:
1519:Lib/AI_Runtime/Npu/ll_aton/ll_aton.c ****   {
 5191              		.loc 1 1519 3 is_stmt 1 view .LVU1889
1519:Lib/AI_Runtime/Npu/ll_aton/ll_aton.c ****   {
 5192              		.loc 1 1519 6 is_stmt 0 view .LVU1890
 5193 044e B8F1070F 		cmp	r8, #7
 5194 0452 32D1     		bne	.L358
 5195              	.LBB135:
1521:Lib/AI_Runtime/Npu/ll_aton/ll_aton.c ****     for (i = 0, k = 0; i < CBsize; i += 7)
 5196              		.loc 1 1521 5 is_stmt 1 view .LVU1891
 5197              	.LVL572:
1522:Lib/AI_Runtime/Npu/ll_aton/ll_aton.c ****     {
 5198              		.loc 1 1522 5 view .LVU1892
1522:Lib/AI_Runtime/Npu/ll_aton/ll_aton.c ****     {
 5199              		.loc 1 1522 19 is_stmt 0 view .LVU1893
 5200 0454 0023     		movs	r3, #0
1522:Lib/AI_Runtime/Npu/ll_aton/ll_aton.c ****     {
 5201              		.loc 1 1522 12 view .LVU1894
 5202 0456 9A46     		mov	r10, r3
 5203              	.LBB136:
1525:Lib/AI_Runtime/Npu/ll_aton/ll_aton.c ****       temp = CBp[i + 2] | (CBp[i + 3] << 16);
 5204              		.loc 1 1525 7 discriminator 1 view .LVU1895
 5205 0458 DFF8CC80 		ldr	r8, .L379
 5206 045c EC68     		ldr	r4, [r5, #12]
 5207 045e B844     		add	r8, r8, r7
 5208              	.LVL573:
 5209              	.L362:
1525:Lib/AI_Runtime/Npu/ll_aton/ll_aton.c ****       temp = CBp[i + 2] | (CBp[i + 3] << 16);
 5210              		.loc 1 1525 7 discriminator 1 view .LVU1896
 5211              	.LBE136:
1522:Lib/AI_Runtime/Npu/ll_aton/ll_aton.c ****     {
 5212              		.loc 1 1522 26 is_stmt 1 discriminator 1 view .LVU1897
 5213 0460 D145     		cmp	r9, r10
 5214 0462 7FF6E3AD 		bls	.L331
 5215              	.LBB137:
1524:Lib/AI_Runtime/Npu/ll_aton/ll_aton.c ****       ATON_DECUN_MEM_LOW_SET(id, k, temp);
 5216              		.loc 1 1524 7 view .LVU1898
1524:Lib/AI_Runtime/Npu/ll_aton/ll_aton.c ****       ATON_DECUN_MEM_LOW_SET(id, k, temp);
 5217              		.loc 1 1524 36 is_stmt 0 view .LVU1899
ARM GAS  C:\Users\DJESSOU\AppData\Local\Temp\ccFxekaC.s 			page 178


 5218 0466 6288     		ldrh	r2, [r4, #2]
1524:Lib/AI_Runtime/Npu/ll_aton/ll_aton.c ****       ATON_DECUN_MEM_LOW_SET(id, k, temp);
 5219              		.loc 1 1524 26 view .LVU1900
 5220 0468 2088     		ldrh	r0, [r4]
1526:Lib/AI_Runtime/Npu/ll_aton/ll_aton.c ****       ATON_DECUN_MEM_HIGH_SET(id, k, temp);
 5221              		.loc 1 1526 31 view .LVU1901
 5222 046a B4F806E0 		ldrh	lr, [r4, #6]
1524:Lib/AI_Runtime/Npu/ll_aton/ll_aton.c ****       ATON_DECUN_MEM_LOW_SET(id, k, temp);
 5223              		.loc 1 1524 30 view .LVU1902
 5224 046e 40EA0240 		orr	r0, r0, r2, lsl #16
 5225              	.LVL574:
1525:Lib/AI_Runtime/Npu/ll_aton/ll_aton.c ****       temp = CBp[i + 2] | (CBp[i + 3] << 16);
 5226              		.loc 1 1525 7 is_stmt 1 view .LVU1903
1525:Lib/AI_Runtime/Npu/ll_aton/ll_aton.c ****       temp = CBp[i + 2] | (CBp[i + 3] << 16);
 5227              		.loc 1 1525 7 view .LVU1904
1525:Lib/AI_Runtime/Npu/ll_aton/ll_aton.c ****       temp = CBp[i + 2] | (CBp[i + 3] << 16);
 5228              		.loc 1 1525 7 is_stmt 0 discriminator 4 view .LVU1905
 5229 0472 48F83300 		str	r0, [r8, r3, lsl #3]
1525:Lib/AI_Runtime/Npu/ll_aton/ll_aton.c ****       temp = CBp[i + 2] | (CBp[i + 3] << 16);
 5230              		.loc 1 1525 7 is_stmt 1 discriminator 4 view .LVU1906
1526:Lib/AI_Runtime/Npu/ll_aton/ll_aton.c ****       ATON_DECUN_MEM_HIGH_SET(id, k, temp);
 5231              		.loc 1 1526 7 view .LVU1907
1526:Lib/AI_Runtime/Npu/ll_aton/ll_aton.c ****       ATON_DECUN_MEM_HIGH_SET(id, k, temp);
 5232              		.loc 1 1526 17 is_stmt 0 view .LVU1908
 5233 0476 A088     		ldrh	r0, [r4, #4]
 5234              	.LVL575:
1525:Lib/AI_Runtime/Npu/ll_aton/ll_aton.c ****       temp = CBp[i + 2] | (CBp[i + 3] << 16);
 5235              		.loc 1 1525 7 discriminator 4 view .LVU1909
 5236 0478 08EBC30C 		add	ip, r8, r3, lsl #3
1526:Lib/AI_Runtime/Npu/ll_aton/ll_aton.c ****       ATON_DECUN_MEM_HIGH_SET(id, k, temp);
 5237              		.loc 1 1526 25 view .LVU1910
 5238 047c 40EA0E40 		orr	r0, r0, lr, lsl #16
 5239              	.LVL576:
1527:Lib/AI_Runtime/Npu/ll_aton/ll_aton.c ****       k++;
 5240              		.loc 1 1527 7 is_stmt 1 view .LVU1911
1527:Lib/AI_Runtime/Npu/ll_aton/ll_aton.c ****       k++;
 5241              		.loc 1 1527 7 view .LVU1912
1527:Lib/AI_Runtime/Npu/ll_aton/ll_aton.c ****       k++;
 5242              		.loc 1 1527 7 is_stmt 0 discriminator 4 view .LVU1913
 5243 0480 CCF80400 		str	r0, [ip, #4]
1527:Lib/AI_Runtime/Npu/ll_aton/ll_aton.c ****       k++;
 5244              		.loc 1 1527 7 is_stmt 1 discriminator 4 view .LVU1914
1528:Lib/AI_Runtime/Npu/ll_aton/ll_aton.c ****       temp = CBp[i + 4] | (CBp[i + 5] << 16);
 5245              		.loc 1 1528 7 view .LVU1915
 5246              	.LVL577:
1529:Lib/AI_Runtime/Npu/ll_aton/ll_aton.c ****       ATON_DECUN_MEM_LOW_SET(id, k, temp);
 5247              		.loc 1 1529 7 view .LVU1916
1529:Lib/AI_Runtime/Npu/ll_aton/ll_aton.c ****       ATON_DECUN_MEM_LOW_SET(id, k, temp);
 5248              		.loc 1 1529 31 is_stmt 0 view .LVU1917
 5249 0484 B4F80AC0 		ldrh	ip, [r4, #10]
1529:Lib/AI_Runtime/Npu/ll_aton/ll_aton.c ****       ATON_DECUN_MEM_LOW_SET(id, k, temp);
 5250              		.loc 1 1529 17 view .LVU1918
 5251 0488 2089     		ldrh	r0, [r4, #8]
 5252              	.LVL578:
1525:Lib/AI_Runtime/Npu/ll_aton/ll_aton.c ****       temp = CBp[i + 2] | (CBp[i + 3] << 16);
 5253              		.loc 1 1525 7 discriminator 4 view .LVU1919
 5254 048a DA00     		lsls	r2, r3, #3
ARM GAS  C:\Users\DJESSOU\AppData\Local\Temp\ccFxekaC.s 			page 179


1530:Lib/AI_Runtime/Npu/ll_aton/ll_aton.c ****       temp = CBp[i + 6];
 5255              		.loc 1 1530 7 discriminator 4 view .LVU1920
 5256 048c 0832     		adds	r2, r2, #8
1529:Lib/AI_Runtime/Npu/ll_aton/ll_aton.c ****       ATON_DECUN_MEM_LOW_SET(id, k, temp);
 5257              		.loc 1 1529 25 view .LVU1921
 5258 048e 40EA0C40 		orr	r0, r0, ip, lsl #16
 5259              	.LVL579:
1530:Lib/AI_Runtime/Npu/ll_aton/ll_aton.c ****       temp = CBp[i + 6];
 5260              		.loc 1 1530 7 is_stmt 1 view .LVU1922
1530:Lib/AI_Runtime/Npu/ll_aton/ll_aton.c ****       temp = CBp[i + 6];
 5261              		.loc 1 1530 7 view .LVU1923
1530:Lib/AI_Runtime/Npu/ll_aton/ll_aton.c ****       temp = CBp[i + 6];
 5262              		.loc 1 1530 7 is_stmt 0 discriminator 4 view .LVU1924
 5263 0492 42F80800 		str	r0, [r2, r8]
1530:Lib/AI_Runtime/Npu/ll_aton/ll_aton.c ****       temp = CBp[i + 6];
 5264              		.loc 1 1530 7 is_stmt 1 discriminator 4 view .LVU1925
1531:Lib/AI_Runtime/Npu/ll_aton/ll_aton.c ****       ATON_DECUN_MEM_HIGH_SET(id, k, temp);
 5265              		.loc 1 1531 7 view .LVU1926
1530:Lib/AI_Runtime/Npu/ll_aton/ll_aton.c ****       temp = CBp[i + 6];
 5266              		.loc 1 1530 7 is_stmt 0 discriminator 4 view .LVU1927
 5267 0496 02EB080C 		add	ip, r2, r8
1533:Lib/AI_Runtime/Npu/ll_aton/ll_aton.c ****       if (k == mem_idx_num)
 5268              		.loc 1 1533 8 view .LVU1928
 5269 049a 0233     		adds	r3, r3, #2
 5270              	.LVL580:
1531:Lib/AI_Runtime/Npu/ll_aton/ll_aton.c ****       ATON_DECUN_MEM_HIGH_SET(id, k, temp);
 5271              		.loc 1 1531 12 view .LVU1929
 5272 049c A289     		ldrh	r2, [r4, #12]
 5273              	.LVL581:
1532:Lib/AI_Runtime/Npu/ll_aton/ll_aton.c ****       k++;
 5274              		.loc 1 1532 7 is_stmt 1 view .LVU1930
1532:Lib/AI_Runtime/Npu/ll_aton/ll_aton.c ****       k++;
 5275              		.loc 1 1532 7 view .LVU1931
1534:Lib/AI_Runtime/Npu/ll_aton/ll_aton.c ****       {
 5276              		.loc 1 1534 10 is_stmt 0 view .LVU1932
 5277 049e B3F5807F 		cmp	r3, #256
1532:Lib/AI_Runtime/Npu/ll_aton/ll_aton.c ****       k++;
 5278              		.loc 1 1532 7 discriminator 4 view .LVU1933
 5279 04a2 CCF80420 		str	r2, [ip, #4]
1532:Lib/AI_Runtime/Npu/ll_aton/ll_aton.c ****       k++;
 5280              		.loc 1 1532 7 is_stmt 1 discriminator 4 view .LVU1934
1533:Lib/AI_Runtime/Npu/ll_aton/ll_aton.c ****       if (k == mem_idx_num)
 5281              		.loc 1 1533 7 view .LVU1935
 5282              	.LVL582:
1534:Lib/AI_Runtime/Npu/ll_aton/ll_aton.c ****       {
 5283              		.loc 1 1534 7 view .LVU1936
1534:Lib/AI_Runtime/Npu/ll_aton/ll_aton.c ****       {
 5284              		.loc 1 1534 10 is_stmt 0 view .LVU1937
 5285 04a6 04D1     		bne	.L363
1536:Lib/AI_Runtime/Npu/ll_aton/ll_aton.c ****         k = 0;
 5286              		.loc 1 1536 9 is_stmt 1 view .LVU1938
1536:Lib/AI_Runtime/Npu/ll_aton/ll_aton.c ****         k = 0;
 5287              		.loc 1 1536 20 is_stmt 0 view .LVU1939
 5288 04a8 3046     		mov	r0, r6
 5289 04aa FFF7FEFF 		bl	decun_inc_page_addr
 5290              	.LVL583:
1537:Lib/AI_Runtime/Npu/ll_aton/ll_aton.c ****       }
ARM GAS  C:\Users\DJESSOU\AppData\Local\Temp\ccFxekaC.s 			page 180


 5291              		.loc 1 1537 11 view .LVU1940
 5292 04ae 0023     		movs	r3, #0
1536:Lib/AI_Runtime/Npu/ll_aton/ll_aton.c ****         k = 0;
 5293              		.loc 1 1536 20 view .LVU1941
 5294 04b0 0146     		mov	r1, r0
 5295              	.LVL584:
1537:Lib/AI_Runtime/Npu/ll_aton/ll_aton.c ****       }
 5296              		.loc 1 1537 9 is_stmt 1 view .LVU1942
 5297              	.L363:
1537:Lib/AI_Runtime/Npu/ll_aton/ll_aton.c ****       }
 5298              		.loc 1 1537 9 is_stmt 0 view .LVU1943
 5299              	.LBE137:
1522:Lib/AI_Runtime/Npu/ll_aton/ll_aton.c ****     {
 5300              		.loc 1 1522 38 is_stmt 1 discriminator 2 view .LVU1944
 5301 04b2 0AF1070A 		add	r10, r10, #7
 5302              	.LVL585:
1522:Lib/AI_Runtime/Npu/ll_aton/ll_aton.c ****     {
 5303              		.loc 1 1522 38 is_stmt 0 discriminator 2 view .LVU1945
 5304 04b6 0E34     		adds	r4, r4, #14
 5305 04b8 D2E7     		b	.L362
 5306              	.LVL586:
 5307              	.L358:
1522:Lib/AI_Runtime/Npu/ll_aton/ll_aton.c ****     {
 5308              		.loc 1 1522 38 discriminator 2 view .LVU1946
 5309              	.LBE135:
1541:Lib/AI_Runtime/Npu/ll_aton/ll_aton.c ****   {
 5310              		.loc 1 1541 3 is_stmt 1 view .LVU1947
1541:Lib/AI_Runtime/Npu/ll_aton/ll_aton.c ****   {
 5311              		.loc 1 1541 6 is_stmt 0 view .LVU1948
 5312 04ba B8F1080F 		cmp	r8, #8
 5313 04be 7FF4B5AD 		bne	.L331
 5314              	.LBB138:
1543:Lib/AI_Runtime/Npu/ll_aton/ll_aton.c ****     for (i = 0, k = 0; i < CBsize / 2; i += 2)
 5315              		.loc 1 1543 5 is_stmt 1 view .LVU1949
 5316              	.LVL587:
1544:Lib/AI_Runtime/Npu/ll_aton/ll_aton.c ****     {
 5317              		.loc 1 1544 5 view .LVU1950
1544:Lib/AI_Runtime/Npu/ll_aton/ll_aton.c ****     {
 5318              		.loc 1 1544 19 is_stmt 0 view .LVU1951
 5319 04c2 0022     		movs	r2, #0
1544:Lib/AI_Runtime/Npu/ll_aton/ll_aton.c ****     {
 5320              		.loc 1 1544 12 view .LVU1952
 5321 04c4 9146     		mov	r9, r2
 5322              	.LVL588:
1544:Lib/AI_Runtime/Npu/ll_aton/ll_aton.c ****     {
 5323              		.loc 1 1544 12 view .LVU1953
 5324 04c6 EB68     		ldr	r3, [r5, #12]
1544:Lib/AI_Runtime/Npu/ll_aton/ll_aton.c ****     {
 5325              		.loc 1 1544 35 discriminator 1 view .LVU1954
 5326 04c8 4FEA940A 		lsr	r10, r4, #2
 5327              	.LBB139:
1547:Lib/AI_Runtime/Npu/ll_aton/ll_aton.c ****       temp = CBp[i + 1];
 5328              		.loc 1 1547 7 discriminator 1 view .LVU1955
 5329 04cc 164C     		ldr	r4, .L379
 5330              	.LVL589:
1547:Lib/AI_Runtime/Npu/ll_aton/ll_aton.c ****       temp = CBp[i + 1];
 5331              		.loc 1 1547 7 discriminator 1 view .LVU1956
ARM GAS  C:\Users\DJESSOU\AppData\Local\Temp\ccFxekaC.s 			page 181


 5332 04ce 03F10408 		add	r8, r3, #4
 5333 04d2 3C44     		add	r4, r4, r7
 5334              	.LVL590:
 5335              	.L365:
1547:Lib/AI_Runtime/Npu/ll_aton/ll_aton.c ****       temp = CBp[i + 1];
 5336              		.loc 1 1547 7 discriminator 1 view .LVU1957
 5337              	.LBE139:
1544:Lib/AI_Runtime/Npu/ll_aton/ll_aton.c ****     {
 5338              		.loc 1 1544 26 is_stmt 1 discriminator 1 view .LVU1958
 5339 04d4 D145     		cmp	r9, r10
 5340 04d6 BFF4A9AD 		bcs	.L331
 5341              	.LBB140:
1546:Lib/AI_Runtime/Npu/ll_aton/ll_aton.c ****       ATON_DECUN_MEM_LOW_SET(id, k, temp);
 5342              		.loc 1 1546 7 view .LVU1959
1546:Lib/AI_Runtime/Npu/ll_aton/ll_aton.c ****       ATON_DECUN_MEM_LOW_SET(id, k, temp);
 5343              		.loc 1 1546 16 is_stmt 0 view .LVU1960
 5344 04da 58F8043C 		ldr	r3, [r8, #-4]
 5345              	.LVL591:
1547:Lib/AI_Runtime/Npu/ll_aton/ll_aton.c ****       temp = CBp[i + 1];
 5346              		.loc 1 1547 7 is_stmt 1 view .LVU1961
1547:Lib/AI_Runtime/Npu/ll_aton/ll_aton.c ****       temp = CBp[i + 1];
 5347              		.loc 1 1547 7 view .LVU1962
1547:Lib/AI_Runtime/Npu/ll_aton/ll_aton.c ****       temp = CBp[i + 1];
 5348              		.loc 1 1547 7 is_stmt 0 discriminator 4 view .LVU1963
 5349 04de 04EBC200 		add	r0, r4, r2, lsl #3
 5350 04e2 44F83230 		str	r3, [r4, r2, lsl #3]
1547:Lib/AI_Runtime/Npu/ll_aton/ll_aton.c ****       temp = CBp[i + 1];
 5351              		.loc 1 1547 7 is_stmt 1 discriminator 4 view .LVU1964
1548:Lib/AI_Runtime/Npu/ll_aton/ll_aton.c ****       ATON_DECUN_MEM_HIGH_SET(id, k, temp);
 5352              		.loc 1 1548 7 view .LVU1965
1548:Lib/AI_Runtime/Npu/ll_aton/ll_aton.c ****       ATON_DECUN_MEM_HIGH_SET(id, k, temp);
 5353              		.loc 1 1548 12 is_stmt 0 view .LVU1966
 5354 04e6 D8F80030 		ldr	r3, [r8]
 5355              	.LVL592:
1549:Lib/AI_Runtime/Npu/ll_aton/ll_aton.c ****       k++;
 5356              		.loc 1 1549 7 is_stmt 1 view .LVU1967
1549:Lib/AI_Runtime/Npu/ll_aton/ll_aton.c ****       k++;
 5357              		.loc 1 1549 7 view .LVU1968
1550:Lib/AI_Runtime/Npu/ll_aton/ll_aton.c ****       if (k == mem_idx_num)
 5358              		.loc 1 1550 8 is_stmt 0 view .LVU1969
 5359 04ea 0132     		adds	r2, r2, #1
 5360              	.LVL593:
1551:Lib/AI_Runtime/Npu/ll_aton/ll_aton.c ****       {
 5361              		.loc 1 1551 10 view .LVU1970
 5362 04ec B2F5807F 		cmp	r2, #256
1549:Lib/AI_Runtime/Npu/ll_aton/ll_aton.c ****       k++;
 5363              		.loc 1 1549 7 discriminator 4 view .LVU1971
 5364 04f0 4360     		str	r3, [r0, #4]
1549:Lib/AI_Runtime/Npu/ll_aton/ll_aton.c ****       k++;
 5365              		.loc 1 1549 7 is_stmt 1 discriminator 4 view .LVU1972
1550:Lib/AI_Runtime/Npu/ll_aton/ll_aton.c ****       if (k == mem_idx_num)
 5366              		.loc 1 1550 7 view .LVU1973
 5367              	.LVL594:
1551:Lib/AI_Runtime/Npu/ll_aton/ll_aton.c ****       {
 5368              		.loc 1 1551 7 view .LVU1974
1551:Lib/AI_Runtime/Npu/ll_aton/ll_aton.c ****       {
 5369              		.loc 1 1551 10 is_stmt 0 view .LVU1975
ARM GAS  C:\Users\DJESSOU\AppData\Local\Temp\ccFxekaC.s 			page 182


 5370 04f2 04D1     		bne	.L366
1553:Lib/AI_Runtime/Npu/ll_aton/ll_aton.c ****         k = 0;
 5371              		.loc 1 1553 9 is_stmt 1 view .LVU1976
1553:Lib/AI_Runtime/Npu/ll_aton/ll_aton.c ****         k = 0;
 5372              		.loc 1 1553 20 is_stmt 0 view .LVU1977
 5373 04f4 3046     		mov	r0, r6
 5374 04f6 FFF7FEFF 		bl	decun_inc_page_addr
 5375              	.LVL595:
1554:Lib/AI_Runtime/Npu/ll_aton/ll_aton.c ****       }
 5376              		.loc 1 1554 11 view .LVU1978
 5377 04fa 0022     		movs	r2, #0
1553:Lib/AI_Runtime/Npu/ll_aton/ll_aton.c ****         k = 0;
 5378              		.loc 1 1553 20 view .LVU1979
 5379 04fc 0146     		mov	r1, r0
 5380              	.LVL596:
1554:Lib/AI_Runtime/Npu/ll_aton/ll_aton.c ****       }
 5381              		.loc 1 1554 9 is_stmt 1 view .LVU1980
 5382              	.L366:
1554:Lib/AI_Runtime/Npu/ll_aton/ll_aton.c ****       }
 5383              		.loc 1 1554 9 is_stmt 0 view .LVU1981
 5384              	.LBE140:
1544:Lib/AI_Runtime/Npu/ll_aton/ll_aton.c ****     {
 5385              		.loc 1 1544 42 is_stmt 1 discriminator 2 view .LVU1982
 5386 04fe 09F10209 		add	r9, r9, #2
 5387              	.LVL597:
1544:Lib/AI_Runtime/Npu/ll_aton/ll_aton.c ****     {
 5388              		.loc 1 1544 42 is_stmt 0 discriminator 2 view .LVU1983
 5389 0502 08F10808 		add	r8, r8, #8
 5390 0506 E5E7     		b	.L365
 5391              	.LVL598:
 5392              	.L376:
1544:Lib/AI_Runtime/Npu/ll_aton/ll_aton.c ****     {
 5393              		.loc 1 1544 42 discriminator 2 view .LVU1984
 5394              	.LBE138:
 5395              	.LBE115:
 5396              	.LBE114:
1601:Lib/AI_Runtime/Npu/ll_aton/ll_aton.c ****   t = ATON_DECUN_DFORMAT_SET_CV8(t, conf->nFormatBytes & 0x1);
 5397              		.loc 1 1601 3 is_stmt 1 view .LVU1985
1602:Lib/AI_Runtime/Npu/ll_aton/ll_aton.c ****   ATON_DECUN_DFORMAT_SET(id, t);
 5398              		.loc 1 1602 3 view .LVU1986
1609:Lib/AI_Runtime/Npu/ll_aton/ll_aton.c **** }
 5399              		.loc 1 1609 10 is_stmt 0 view .LVU1987
 5400 0508 0020     		movs	r0, #0
1603:Lib/AI_Runtime/Npu/ll_aton/ll_aton.c **** 
 5401              		.loc 1 1603 3 discriminator 1 view .LVU1988
 5402 050a 084A     		ldr	r2, .L379+4
1602:Lib/AI_Runtime/Npu/ll_aton/ll_aton.c ****   ATON_DECUN_DFORMAT_SET(id, t);
 5403              		.loc 1 1602 7 view .LVU1989
 5404 050c 03F00103 		and	r3, r3, #1
 5405              	.LVL599:
1603:Lib/AI_Runtime/Npu/ll_aton/ll_aton.c **** 
 5406              		.loc 1 1603 3 is_stmt 1 view .LVU1990
1603:Lib/AI_Runtime/Npu/ll_aton/ll_aton.c **** 
 5407              		.loc 1 1603 3 view .LVU1991
1603:Lib/AI_Runtime/Npu/ll_aton/ll_aton.c **** 
 5408              		.loc 1 1603 3 view .LVU1992
1603:Lib/AI_Runtime/Npu/ll_aton/ll_aton.c **** 
ARM GAS  C:\Users\DJESSOU\AppData\Local\Temp\ccFxekaC.s 			page 183


 5409              		.loc 1 1603 3 is_stmt 0 discriminator 4 view .LVU1993
 5410 0510 BB50     		str	r3, [r7, r2]
1603:Lib/AI_Runtime/Npu/ll_aton/ll_aton.c **** 
 5411              		.loc 1 1603 3 is_stmt 1 discriminator 4 view .LVU1994
1603:Lib/AI_Runtime/Npu/ll_aton/ll_aton.c **** 
 5412              		.loc 1 1603 3 discriminator 4 view .LVU1995
1605:Lib/AI_Runtime/Npu/ll_aton/ll_aton.c ****   t = ATON_DECUN_FFORMAT_SET_BN(t, conf->nBatches);
 5413              		.loc 1 1605 3 view .LVU1996
 5414              	.LVL600:
1606:Lib/AI_Runtime/Npu/ll_aton/ll_aton.c ****   ATON_DECUN_FFORMAT_SET(id, t);
 5415              		.loc 1 1606 3 view .LVU1997
1606:Lib/AI_Runtime/Npu/ll_aton/ll_aton.c ****   ATON_DECUN_FFORMAT_SET(id, t);
 5416              		.loc 1 1606 7 is_stmt 0 view .LVU1998
 5417 0512 EB88     		ldrh	r3, [r5, #6]
1607:Lib/AI_Runtime/Npu/ll_aton/ll_aton.c **** 
 5418              		.loc 1 1607 3 discriminator 1 view .LVU1999
 5419 0514 0432     		adds	r2, r2, #4
1606:Lib/AI_Runtime/Npu/ll_aton/ll_aton.c ****   ATON_DECUN_FFORMAT_SET(id, t);
 5420              		.loc 1 1606 7 view .LVU2000
 5421 0516 C3F30903 		ubfx	r3, r3, #0, #10
 5422              	.LVL601:
1607:Lib/AI_Runtime/Npu/ll_aton/ll_aton.c **** 
 5423              		.loc 1 1607 3 is_stmt 1 view .LVU2001
1607:Lib/AI_Runtime/Npu/ll_aton/ll_aton.c **** 
 5424              		.loc 1 1607 3 view .LVU2002
1607:Lib/AI_Runtime/Npu/ll_aton/ll_aton.c **** 
 5425              		.loc 1 1607 3 view .LVU2003
1607:Lib/AI_Runtime/Npu/ll_aton/ll_aton.c **** 
 5426              		.loc 1 1607 3 is_stmt 0 discriminator 4 view .LVU2004
 5427 051a BB50     		str	r3, [r7, r2]
1607:Lib/AI_Runtime/Npu/ll_aton/ll_aton.c **** 
 5428              		.loc 1 1607 3 is_stmt 1 discriminator 4 view .LVU2005
1607:Lib/AI_Runtime/Npu/ll_aton/ll_aton.c **** 
 5429              		.loc 1 1607 3 discriminator 4 view .LVU2006
1609:Lib/AI_Runtime/Npu/ll_aton/ll_aton.c **** }
 5430              		.loc 1 1609 3 view .LVU2007
 5431              	.LVL602:
 5432              	.L305:
1610:Lib/AI_Runtime/Npu/ll_aton/ll_aton.c **** #endif // ATON_DECUN_NUM
 5433              		.loc 1 1610 1 is_stmt 0 view .LVU2008
 5434 051c BDE8F88F 		pop	{r3, r4, r5, r6, r7, r8, r9, r10, fp, pc}
 5435              	.LVL603:
 5436              	.L368:
1571:Lib/AI_Runtime/Npu/ll_aton/ll_aton.c **** 
 5437              		.loc 1 1571 12 view .LVU2009
 5438 0520 4FF0FF30 		mov	r0, #-1
 5439              	.LVL604:
1571:Lib/AI_Runtime/Npu/ll_aton/ll_aton.c **** 
 5440              		.loc 1 1571 12 view .LVU2010
 5441 0524 FAE7     		b	.L305
 5442              	.L380:
 5443 0526 00BF     		.align	2
 5444              	.L379:
 5445 0528 00380F58 		.word	1477392384
 5446 052c 0C300F58 		.word	1477390348
 5447              		.cfi_endproc
 5448              	.LFE305:
ARM GAS  C:\Users\DJESSOU\AppData\Local\Temp\ccFxekaC.s 			page 184


 5450              		.section	.text.LL_Convacc_Init,"ax",%progbits
 5451              		.align	1
 5452              		.global	LL_Convacc_Init
 5453              		.syntax unified
 5454              		.thumb
 5455              		.thumb_func
 5457              	LL_Convacc_Init:
 5458              	.LVL605:
 5459              	.LFB306:
1621:Lib/AI_Runtime/Npu/ll_aton/ll_aton.c ****   uint32_t t;
 5460              		.loc 1 1621 1 is_stmt 1 view -0
 5461              		.cfi_startproc
 5462              		@ args = 0, pretend = 0, frame = 0
 5463              		@ frame_needed = 0, uses_anonymous_args = 0
1622:Lib/AI_Runtime/Npu/ll_aton/ll_aton.c **** 
 5464              		.loc 1 1622 3 view .LVU2012
1624:Lib/AI_Runtime/Npu/ll_aton/ll_aton.c ****     return LL_ATON_INVALID_ID;
 5465              		.loc 1 1624 3 view .LVU2013
1624:Lib/AI_Runtime/Npu/ll_aton/ll_aton.c ****     return LL_ATON_INVALID_ID;
 5466              		.loc 1 1624 6 is_stmt 0 view .LVU2014
 5467 0000 0328     		cmp	r0, #3
1621:Lib/AI_Runtime/Npu/ll_aton/ll_aton.c ****   uint32_t t;
 5468              		.loc 1 1621 1 view .LVU2015
 5469 0002 2DE9F047 		push	{r4, r5, r6, r7, r8, r9, r10, lr}
 5470              		.cfi_def_cfa_offset 32
 5471              		.cfi_offset 4, -32
 5472              		.cfi_offset 5, -28
 5473              		.cfi_offset 6, -24
 5474              		.cfi_offset 7, -20
 5475              		.cfi_offset 8, -16
 5476              		.cfi_offset 9, -12
 5477              		.cfi_offset 10, -8
 5478              		.cfi_offset 14, -4
1621:Lib/AI_Runtime/Npu/ll_aton/ll_aton.c ****   uint32_t t;
 5479              		.loc 1 1621 1 view .LVU2016
 5480 0006 0646     		mov	r6, r0
 5481 0008 0C46     		mov	r4, r1
1624:Lib/AI_Runtime/Npu/ll_aton/ll_aton.c ****     return LL_ATON_INVALID_ID;
 5482              		.loc 1 1624 6 view .LVU2017
 5483 000a 00F36081 		bgt	.L398
1627:Lib/AI_Runtime/Npu/ll_aton/ll_aton.c **** 
 5484              		.loc 1 1627 3 is_stmt 1 view .LVU2018
1627:Lib/AI_Runtime/Npu/ll_aton/ll_aton.c **** 
 5485              		.loc 1 1627 3 is_stmt 0 discriminator 4 view .LVU2019
 5486 000e 0A30     		adds	r0, r0, #10
 5487              	.LVL606:
1627:Lib/AI_Runtime/Npu/ll_aton/ll_aton.c **** 
 5488              		.loc 1 1627 3 discriminator 4 view .LVU2020
 5489 0010 FFF7FEFF 		bl	LL_ATON_EnableClock
 5490              	.LVL607:
1629:Lib/AI_Runtime/Npu/ll_aton/ll_aton.c ****   t = ATON_CONVACC_CTRL_SET_NOSUM(t, (conf->accumulate == 0));
 5491              		.loc 1 1629 3 is_stmt 1 view .LVU2021
1630:Lib/AI_Runtime/Npu/ll_aton/ll_aton.c ****   t = ATON_CONVACC_CTRL_SET_NO1SUM(t, (conf->accumulate_first == 0));
 5492              		.loc 1 1630 3 view .LVU2022
1631:Lib/AI_Runtime/Npu/ll_aton/ll_aton.c ****   t = ATON_CONVACC_CTRL_SET_GEN1SUM(t, (conf->accumulate_gen_first != 0));
 5493              		.loc 1 1631 3 view .LVU2023
1632:Lib/AI_Runtime/Npu/ll_aton/ll_aton.c ****   t = ATON_CONVACC_CTRL_SET_AFILTMODE(t, conf->afilt_mode);
ARM GAS  C:\Users\DJESSOU\AppData\Local\Temp\ccFxekaC.s 			page 185


 5494              		.loc 1 1632 3 view .LVU2024
1632:Lib/AI_Runtime/Npu/ll_aton/ll_aton.c ****   t = ATON_CONVACC_CTRL_SET_AFILTMODE(t, conf->afilt_mode);
 5495              		.loc 1 1632 7 is_stmt 0 view .LVU2025
 5496 0014 A578     		ldrb	r5, [r4, #2]	@ zero_extendqisi2
 5497              	.LVL608:
1633:Lib/AI_Runtime/Npu/ll_aton/ll_aton.c ****   t = ATON_CONVACC_CTRL_SET_SIMD(t, (conf->simd));
 5498              		.loc 1 1633 3 is_stmt 1 view .LVU2026
1634:Lib/AI_Runtime/Npu/ll_aton/ll_aton.c ****   t = ATON_CONVACC_CTRL_SET_KT1(t, (conf->kt1_mode != 0));
 5499              		.loc 1 1634 7 is_stmt 0 view .LVU2027
 5500 0016 6278     		ldrb	r2, [r4, #1]	@ zero_extendqisi2
1635:Lib/AI_Runtime/Npu/ll_aton/ll_aton.c ****   t = ATON_CONVACC_CTRL_SET_KSETEN(t, conf->kseten);
 5501              		.loc 1 1635 7 view .LVU2028
 5502 0018 05F00803 		and	r3, r5, #8
1634:Lib/AI_Runtime/Npu/ll_aton/ll_aton.c ****   t = ATON_CONVACC_CTRL_SET_KT1(t, (conf->kt1_mode != 0));
 5503              		.loc 1 1634 7 view .LVU2029
 5504 001c C2F30111 		ubfx	r1, r2, #4, #2
1638:Lib/AI_Runtime/Npu/ll_aton/ll_aton.c **** #if defined(ATON_CONVACC_CTRL_SET_FSTAT)
 5505              		.loc 1 1638 5 view .LVU2030
 5506 0020 43EA4113 		orr	r3, r3, r1, lsl #5
1636:Lib/AI_Runtime/Npu/ll_aton/ll_aton.c ****   t = ATON_CONVACC_CTRL_SET_FUNSIGNED(t, conf->f_unsigned);
 5507              		.loc 1 1636 7 view .LVU2031
 5508 0024 E178     		ldrb	r1, [r4, #3]	@ zero_extendqisi2
1633:Lib/AI_Runtime/Npu/ll_aton/ll_aton.c ****   t = ATON_CONVACC_CTRL_SET_SIMD(t, (conf->simd));
 5509              		.loc 1 1633 7 view .LVU2032
 5510 0026 94F82A00 		ldrb	r0, [r4, #42]	@ zero_extendqisi2
 5511              	.LVL609:
1634:Lib/AI_Runtime/Npu/ll_aton/ll_aton.c ****   t = ATON_CONVACC_CTRL_SET_KT1(t, (conf->kt1_mode != 0));
 5512              		.loc 1 1634 3 is_stmt 1 view .LVU2033
1635:Lib/AI_Runtime/Npu/ll_aton/ll_aton.c ****   t = ATON_CONVACC_CTRL_SET_KSETEN(t, conf->kseten);
 5513              		.loc 1 1635 3 view .LVU2034
1636:Lib/AI_Runtime/Npu/ll_aton/ll_aton.c ****   t = ATON_CONVACC_CTRL_SET_FUNSIGNED(t, conf->f_unsigned);
 5514              		.loc 1 1636 3 view .LVU2035
1637:Lib/AI_Runtime/Npu/ll_aton/ll_aton.c ****   t = ATON_CONVACC_CTRL_SET_KUNSIGNED(t, conf->k_unsigned);
 5515              		.loc 1 1637 3 view .LVU2036
1638:Lib/AI_Runtime/Npu/ll_aton/ll_aton.c **** #if defined(ATON_CONVACC_CTRL_SET_FSTAT)
 5516              		.loc 1 1638 3 view .LVU2037
1636:Lib/AI_Runtime/Npu/ll_aton/ll_aton.c ****   t = ATON_CONVACC_CTRL_SET_FUNSIGNED(t, conf->f_unsigned);
 5517              		.loc 1 1636 7 is_stmt 0 view .LVU2038
 5518 002a 01F00301 		and	r1, r1, #3
1638:Lib/AI_Runtime/Npu/ll_aton/ll_aton.c **** #if defined(ATON_CONVACC_CTRL_SET_FSTAT)
 5519              		.loc 1 1638 5 view .LVU2039
 5520 002e 43EA8153 		orr	r3, r3, r1, lsl #22
1637:Lib/AI_Runtime/Npu/ll_aton/ll_aton.c ****   t = ATON_CONVACC_CTRL_SET_KUNSIGNED(t, conf->k_unsigned);
 5521              		.loc 1 1637 7 view .LVU2040
 5522 0032 C5F38011 		ubfx	r1, r5, #6, #1
1638:Lib/AI_Runtime/Npu/ll_aton/ll_aton.c **** #if defined(ATON_CONVACC_CTRL_SET_FSTAT)
 5523              		.loc 1 1638 5 view .LVU2041
 5524 0036 43EA0153 		orr	r3, r3, r1, lsl #20
1638:Lib/AI_Runtime/Npu/ll_aton/ll_aton.c **** #if defined(ATON_CONVACC_CTRL_SET_FSTAT)
 5525              		.loc 1 1638 7 view .LVU2042
 5526 003a E909     		lsrs	r1, r5, #7
1638:Lib/AI_Runtime/Npu/ll_aton/ll_aton.c **** #if defined(ATON_CONVACC_CTRL_SET_FSTAT)
 5527              		.loc 1 1638 5 view .LVU2043
 5528 003c 43EA4153 		orr	r3, r3, r1, lsl #21
1630:Lib/AI_Runtime/Npu/ll_aton/ll_aton.c ****   t = ATON_CONVACC_CTRL_SET_NO1SUM(t, (conf->accumulate_first == 0));
 5529              		.loc 1 1630 7 view .LVU2044
 5530 0040 C2F38011 		ubfx	r1, r2, #6, #1
ARM GAS  C:\Users\DJESSOU\AppData\Local\Temp\ccFxekaC.s 			page 186


 5531 0044 81F00101 		eor	r1, r1, #1
 5532 0048 C9B2     		uxtb	r1, r1
1638:Lib/AI_Runtime/Npu/ll_aton/ll_aton.c **** #if defined(ATON_CONVACC_CTRL_SET_FSTAT)
 5533              		.loc 1 1638 5 view .LVU2045
 5534 004a 43EA8103 		orr	r3, r3, r1, lsl #2
1631:Lib/AI_Runtime/Npu/ll_aton/ll_aton.c ****   t = ATON_CONVACC_CTRL_SET_GEN1SUM(t, (conf->accumulate_gen_first != 0));
 5535              		.loc 1 1631 7 view .LVU2046
 5536 004e 82F08001 		eor	r1, r2, #128
 5537 0052 C909     		lsrs	r1, r1, #7
1638:Lib/AI_Runtime/Npu/ll_aton/ll_aton.c **** #if defined(ATON_CONVACC_CTRL_SET_FSTAT)
 5538              		.loc 1 1638 5 view .LVU2047
 5539 0054 43EA0113 		orr	r3, r3, r1, lsl #4
1632:Lib/AI_Runtime/Npu/ll_aton/ll_aton.c ****   t = ATON_CONVACC_CTRL_SET_AFILTMODE(t, conf->afilt_mode);
 5540              		.loc 1 1632 7 view .LVU2048
 5541 0058 A902     		lsls	r1, r5, #10
 5542 005a 01F48061 		and	r1, r1, #1024
1638:Lib/AI_Runtime/Npu/ll_aton/ll_aton.c **** #if defined(ATON_CONVACC_CTRL_SET_FSTAT)
 5543              		.loc 1 1638 5 view .LVU2049
 5544 005e 0B43     		orrs	r3, r3, r1
1633:Lib/AI_Runtime/Npu/ll_aton/ll_aton.c ****   t = ATON_CONVACC_CTRL_SET_SIMD(t, (conf->simd));
 5545              		.loc 1 1633 7 view .LVU2050
 5546 0060 0102     		lsls	r1, r0, #8
 5547 0062 01F44071 		and	r1, r1, #768
1638:Lib/AI_Runtime/Npu/ll_aton/ll_aton.c **** #if defined(ATON_CONVACC_CTRL_SET_FSTAT)
 5548              		.loc 1 1638 5 view .LVU2051
 5549 0066 0B43     		orrs	r3, r3, r1
 5550              	.LVL610:
1640:Lib/AI_Runtime/Npu/ll_aton/ll_aton.c **** #endif
 5551              		.loc 1 1640 3 is_stmt 1 view .LVU2052
1640:Lib/AI_Runtime/Npu/ll_aton/ll_aton.c **** #endif
 5552              		.loc 1 1640 7 is_stmt 0 view .LVU2053
 5553 0068 E905     		lsls	r1, r5, #23
 5554 006a 01F08071 		and	r1, r1, #16777216
1640:Lib/AI_Runtime/Npu/ll_aton/ll_aton.c **** #endif
 5555              		.loc 1 1640 5 view .LVU2054
 5556 006e 1943     		orrs	r1, r1, r3
 5557              	.LVL611:
1644:Lib/AI_Runtime/Npu/ll_aton/ll_aton.c **** #if defined(ATON_CONVACC_CTRL_SET_FSTAT)
 5558              		.loc 1 1644 3 is_stmt 1 view .LVU2055
1644:Lib/AI_Runtime/Npu/ll_aton/ll_aton.c **** #if defined(ATON_CONVACC_CTRL_SET_FSTAT)
 5559              		.loc 1 1644 7 is_stmt 0 view .LVU2056
 5560 0070 2B06     		lsls	r3, r5, #24
 5561 0072 03F08057 		and	r7, r3, #268435456
1644:Lib/AI_Runtime/Npu/ll_aton/ll_aton.c **** #if defined(ATON_CONVACC_CTRL_SET_FSTAT)
 5562              		.loc 1 1644 5 view .LVU2057
 5563 0076 3943     		orrs	r1, r1, r7
 5564              	.LVL612:
1647:Lib/AI_Runtime/Npu/ll_aton/ll_aton.c ****   {
 5565              		.loc 1 1647 3 is_stmt 1 view .LVU2058
1647:Lib/AI_Runtime/Npu/ll_aton/ll_aton.c ****   {
 5566              		.loc 1 1647 6 is_stmt 0 view .LVU2059
 5567 0078 05F01207 		and	r7, r5, #18
 5568 007c 122F     		cmp	r7, #18
 5569 007e 00F02981 		beq	.L401
1655:Lib/AI_Runtime/Npu/ll_aton/ll_aton.c **** #if defined(ATON_CONVACC_CTRL_SET_FSTAT)
 5570              		.loc 1 1655 3 is_stmt 1 view .LVU2060
1655:Lib/AI_Runtime/Npu/ll_aton/ll_aton.c **** #if defined(ATON_CONVACC_CTRL_SET_FSTAT)
ARM GAS  C:\Users\DJESSOU\AppData\Local\Temp\ccFxekaC.s 			page 187


 5571              		.loc 1 1655 7 is_stmt 0 view .LVU2061
 5572 0082 03F00053 		and	r3, r3, #536870912
1655:Lib/AI_Runtime/Npu/ll_aton/ll_aton.c **** #if defined(ATON_CONVACC_CTRL_SET_FSTAT)
 5573              		.loc 1 1655 5 view .LVU2062
 5574 0086 0B43     		orrs	r3, r3, r1
 5575              	.LVL613:
1658:Lib/AI_Runtime/Npu/ll_aton/ll_aton.c ****   {
 5576              		.loc 1 1658 3 is_stmt 1 view .LVU2063
1658:Lib/AI_Runtime/Npu/ll_aton/ll_aton.c ****   {
 5577              		.loc 1 1658 6 is_stmt 0 view .LVU2064
 5578 0088 05F02201 		and	r1, r5, #34
 5579 008c 2229     		cmp	r1, #34
 5580 008e 00F02181 		beq	.L401
1667:Lib/AI_Runtime/Npu/ll_aton/ll_aton.c ****   {
 5581              		.loc 1 1667 3 is_stmt 1 view .LVU2065
1667:Lib/AI_Runtime/Npu/ll_aton/ll_aton.c ****   {
 5582              		.loc 1 1667 6 is_stmt 0 view .LVU2066
 5583 0092 05F03001 		and	r1, r5, #48
 5584 0096 3029     		cmp	r1, #48
 5585 0098 00F01C81 		beq	.L401
1673:Lib/AI_Runtime/Npu/ll_aton/ll_aton.c ****   Conv_ctrl_bits[id] = t;
 5586              		.loc 1 1673 3 is_stmt 1 view .LVU2067
1673:Lib/AI_Runtime/Npu/ll_aton/ll_aton.c ****   Conv_ctrl_bits[id] = t;
 5587              		.loc 1 1673 3 view .LVU2068
1673:Lib/AI_Runtime/Npu/ll_aton/ll_aton.c ****   Conv_ctrl_bits[id] = t;
 5588              		.loc 1 1673 3 view .LVU2069
1673:Lib/AI_Runtime/Npu/ll_aton/ll_aton.c ****   Conv_ctrl_bits[id] = t;
 5589              		.loc 1 1673 3 is_stmt 0 discriminator 1 view .LVU2070
 5590 009c 3103     		lsls	r1, r6, #12
 5591 009e 01F1B047 		add	r7, r1, #1476395008
 5592 00a2 07F56F27 		add	r7, r7, #978944
1673:Lib/AI_Runtime/Npu/ll_aton/ll_aton.c ****   Conv_ctrl_bits[id] = t;
 5593              		.loc 1 1673 3 discriminator 4 view .LVU2071
 5594 00a6 3B60     		str	r3, [r7]
1673:Lib/AI_Runtime/Npu/ll_aton/ll_aton.c ****   Conv_ctrl_bits[id] = t;
 5595              		.loc 1 1673 3 is_stmt 1 discriminator 4 view .LVU2072
1673:Lib/AI_Runtime/Npu/ll_aton/ll_aton.c ****   Conv_ctrl_bits[id] = t;
 5596              		.loc 1 1673 3 discriminator 4 view .LVU2073
1674:Lib/AI_Runtime/Npu/ll_aton/ll_aton.c **** 
 5597              		.loc 1 1674 3 view .LVU2074
1674:Lib/AI_Runtime/Npu/ll_aton/ll_aton.c **** 
 5598              		.loc 1 1674 22 is_stmt 0 view .LVU2075
 5599 00a8 8C4F     		ldr	r7, .L422
 5600 00aa 47F82630 		str	r3, [r7, r6, lsl #2]
1676:Lib/AI_Runtime/Npu/ll_aton/ll_aton.c ****   {
 5601              		.loc 1 1676 3 is_stmt 1 view .LVU2076
1676:Lib/AI_Runtime/Npu/ll_aton/ll_aton.c ****   {
 5602              		.loc 1 1676 6 is_stmt 0 view .LVU2077
 5603 00ae 58B1     		cbz	r0, .L383
1678:Lib/AI_Runtime/Npu/ll_aton/ll_aton.c ****     t = ATON_CONVACC_AFILT_SET_TOT(t, conf->afilt_tot);
 5604              		.loc 1 1678 5 is_stmt 1 view .LVU2078
 5605              	.LVL614:
1679:Lib/AI_Runtime/Npu/ll_aton/ll_aton.c ****     t = ATON_CONVACC_AFILT_SET_FIRST(t, conf->afilt_first);
 5606              		.loc 1 1679 5 view .LVU2079
1680:Lib/AI_Runtime/Npu/ll_aton/ll_aton.c ****     t = ATON_CONVACC_AFILT_SET_LAST(t, conf->afilt_last);
 5607              		.loc 1 1680 5 view .LVU2080
1681:Lib/AI_Runtime/Npu/ll_aton/ll_aton.c ****     ATON_CONVACC_AFILT_SET(id, t);
ARM GAS  C:\Users\DJESSOU\AppData\Local\Temp\ccFxekaC.s 			page 188


 5608              		.loc 1 1681 5 view .LVU2081
1681:Lib/AI_Runtime/Npu/ll_aton/ll_aton.c ****     ATON_CONVACC_AFILT_SET(id, t);
 5609              		.loc 1 1681 9 is_stmt 0 view .LVU2082
 5610 00b0 94F82D30 		ldrb	r3, [r4, #45]	@ zero_extendqisi2
1680:Lib/AI_Runtime/Npu/ll_aton/ll_aton.c ****     t = ATON_CONVACC_AFILT_SET_LAST(t, conf->afilt_last);
 5611              		.loc 1 1680 9 view .LVU2083
 5612 00b4 94F82C00 		ldrb	r0, [r4, #44]	@ zero_extendqisi2
1681:Lib/AI_Runtime/Npu/ll_aton/ll_aton.c ****     ATON_CONVACC_AFILT_SET(id, t);
 5613              		.loc 1 1681 9 view .LVU2084
 5614 00b8 1B04     		lsls	r3, r3, #16
1681:Lib/AI_Runtime/Npu/ll_aton/ll_aton.c ****     ATON_CONVACC_AFILT_SET(id, t);
 5615              		.loc 1 1681 7 view .LVU2085
 5616 00ba 43EA0023 		orr	r3, r3, r0, lsl #8
1679:Lib/AI_Runtime/Npu/ll_aton/ll_aton.c ****     t = ATON_CONVACC_AFILT_SET_FIRST(t, conf->afilt_first);
 5617              		.loc 1 1679 9 view .LVU2086
 5618 00be 94F82B00 		ldrb	r0, [r4, #43]	@ zero_extendqisi2
1681:Lib/AI_Runtime/Npu/ll_aton/ll_aton.c ****     ATON_CONVACC_AFILT_SET(id, t);
 5619              		.loc 1 1681 7 view .LVU2087
 5620 00c2 0343     		orrs	r3, r3, r0
 5621              	.LVL615:
1682:Lib/AI_Runtime/Npu/ll_aton/ll_aton.c ****   }
 5622              		.loc 1 1682 5 is_stmt 1 view .LVU2088
1682:Lib/AI_Runtime/Npu/ll_aton/ll_aton.c ****   }
 5623              		.loc 1 1682 5 view .LVU2089
1682:Lib/AI_Runtime/Npu/ll_aton/ll_aton.c ****   }
 5624              		.loc 1 1682 5 view .LVU2090
1682:Lib/AI_Runtime/Npu/ll_aton/ll_aton.c ****   }
 5625              		.loc 1 1682 5 is_stmt 0 discriminator 1 view .LVU2091
 5626 00c4 8648     		ldr	r0, .L422+4
1682:Lib/AI_Runtime/Npu/ll_aton/ll_aton.c ****   }
 5627              		.loc 1 1682 5 discriminator 4 view .LVU2092
 5628 00c6 0B50     		str	r3, [r1, r0]
 5629              	.L383:
1682:Lib/AI_Runtime/Npu/ll_aton/ll_aton.c ****   }
 5630              		.loc 1 1682 5 is_stmt 1 discriminator 5 view .LVU2093
1682:Lib/AI_Runtime/Npu/ll_aton/ll_aton.c ****   }
 5631              		.loc 1 1682 5 discriminator 5 view .LVU2094
1685:Lib/AI_Runtime/Npu/ll_aton/ll_aton.c ****   {
 5632              		.loc 1 1685 3 view .LVU2095
1685:Lib/AI_Runtime/Npu/ll_aton/ll_aton.c ****   {
 5633              		.loc 1 1685 11 is_stmt 0 view .LVU2096
 5634 00c8 94F82E60 		ldrb	r6, [r4, #46]	@ zero_extendqisi2
 5635              	.LVL616:
1691:Lib/AI_Runtime/Npu/ll_aton/ll_aton.c ****   }
 5636              		.loc 1 1691 5 discriminator 1 view .LVU2097
 5637 00cc 8548     		ldr	r0, .L422+8
1685:Lib/AI_Runtime/Npu/ll_aton/ll_aton.c ****   {
 5638              		.loc 1 1685 6 view .LVU2098
 5639 00ce 002E     		cmp	r6, #0
 5640 00d0 00F0F680 		beq	.L384
1687:Lib/AI_Runtime/Npu/ll_aton/ll_aton.c ****     t = ATON_CONVACC_KFILT_SET_TOT(t, conf->kfilt_tot);
 5641              		.loc 1 1687 5 is_stmt 1 view .LVU2099
 5642              	.LVL617:
1688:Lib/AI_Runtime/Npu/ll_aton/ll_aton.c ****     t = ATON_CONVACC_KFILT_SET_FIRST(t, conf->kfilt_first);
 5643              		.loc 1 1688 5 view .LVU2100
1689:Lib/AI_Runtime/Npu/ll_aton/ll_aton.c ****     t = ATON_CONVACC_KFILT_SET_LAST(t, conf->kfilt_last);
 5644              		.loc 1 1689 5 view .LVU2101
ARM GAS  C:\Users\DJESSOU\AppData\Local\Temp\ccFxekaC.s 			page 189


1690:Lib/AI_Runtime/Npu/ll_aton/ll_aton.c ****     ATON_CONVACC_KFILT_SET(id, t);
 5645              		.loc 1 1690 5 view .LVU2102
1690:Lib/AI_Runtime/Npu/ll_aton/ll_aton.c ****     ATON_CONVACC_KFILT_SET(id, t);
 5646              		.loc 1 1690 9 is_stmt 0 view .LVU2103
 5647 00d4 94F83030 		ldrb	r3, [r4, #48]	@ zero_extendqisi2
1689:Lib/AI_Runtime/Npu/ll_aton/ll_aton.c ****     t = ATON_CONVACC_KFILT_SET_LAST(t, conf->kfilt_last);
 5648              		.loc 1 1689 9 view .LVU2104
 5649 00d8 94F82F70 		ldrb	r7, [r4, #47]	@ zero_extendqisi2
1690:Lib/AI_Runtime/Npu/ll_aton/ll_aton.c ****     ATON_CONVACC_KFILT_SET(id, t);
 5650              		.loc 1 1690 9 view .LVU2105
 5651 00dc 1B04     		lsls	r3, r3, #16
1690:Lib/AI_Runtime/Npu/ll_aton/ll_aton.c ****     ATON_CONVACC_KFILT_SET(id, t);
 5652              		.loc 1 1690 7 view .LVU2106
 5653 00de 43EA0723 		orr	r3, r3, r7, lsl #8
 5654 00e2 3343     		orrs	r3, r3, r6
 5655              	.LVL618:
1691:Lib/AI_Runtime/Npu/ll_aton/ll_aton.c ****   }
 5656              		.loc 1 1691 5 is_stmt 1 view .LVU2107
1691:Lib/AI_Runtime/Npu/ll_aton/ll_aton.c ****   }
 5657              		.loc 1 1691 5 view .LVU2108
1691:Lib/AI_Runtime/Npu/ll_aton/ll_aton.c ****   }
 5658              		.loc 1 1691 5 view .LVU2109
 5659              	.L421:
1695:Lib/AI_Runtime/Npu/ll_aton/ll_aton.c ****   }
 5660              		.loc 1 1695 5 is_stmt 0 discriminator 4 view .LVU2110
 5661 00e4 0B50     		str	r3, [r1, r0]
1695:Lib/AI_Runtime/Npu/ll_aton/ll_aton.c ****   }
 5662              		.loc 1 1695 5 is_stmt 1 discriminator 5 view .LVU2111
1695:Lib/AI_Runtime/Npu/ll_aton/ll_aton.c ****   }
 5663              		.loc 1 1695 5 discriminator 5 view .LVU2112
1698:Lib/AI_Runtime/Npu/ll_aton/ll_aton.c ****   t = ATON_CONVACC_DFORMAT_SET_FROUND(t, conf->rounding_f);
 5664              		.loc 1 1698 3 view .LVU2113
 5665              	.LVL619:
1699:Lib/AI_Runtime/Npu/ll_aton/ll_aton.c ****   t = ATON_CONVACC_DFORMAT_SET_FSAT(t, conf->saturation_f);
 5666              		.loc 1 1699 3 view .LVU2114
1700:Lib/AI_Runtime/Npu/ll_aton/ll_aton.c ****   t = ATON_CONVACC_DFORMAT_SET_FRNDMODE(t, conf->round_mode_f);
 5667              		.loc 1 1700 3 view .LVU2115
1701:Lib/AI_Runtime/Npu/ll_aton/ll_aton.c ****   t = ATON_CONVACC_DFORMAT_SET_FBYTES(t, conf->inbytes_f);
 5668              		.loc 1 1701 3 view .LVU2116
1702:Lib/AI_Runtime/Npu/ll_aton/ll_aton.c ****   t = ATON_CONVACC_DFORMAT_SET_FSHIFT(t, ATON_SHIFT(conf->shift_f));
 5669              		.loc 1 1702 3 view .LVU2117
1703:Lib/AI_Runtime/Npu/ll_aton/ll_aton.c **** 
 5670              		.loc 1 1703 3 view .LVU2118
1705:Lib/AI_Runtime/Npu/ll_aton/ll_aton.c ****   t = ATON_CONVACC_DFORMAT_SET_SAT(t, conf->saturation_o);
 5671              		.loc 1 1705 3 view .LVU2119
1706:Lib/AI_Runtime/Npu/ll_aton/ll_aton.c ****   t = ATON_CONVACC_DFORMAT_SET_ORNDMODE(t, (conf->relu_mode_o << 1) | conf->round_mode_o);
 5672              		.loc 1 1706 3 view .LVU2120
1707:Lib/AI_Runtime/Npu/ll_aton/ll_aton.c ****   t = ATON_CONVACC_DFORMAT_SET_OBYTES(t, conf->outbytes_o);
 5673              		.loc 1 1707 3 view .LVU2121
1708:Lib/AI_Runtime/Npu/ll_aton/ll_aton.c ****   t = ATON_CONVACC_DFORMAT_SET_OUTSHIFT(t, conf->shift_o); // shift right only
 5674              		.loc 1 1708 3 view .LVU2122
1703:Lib/AI_Runtime/Npu/ll_aton/ll_aton.c **** 
 5675              		.loc 1 1703 7 is_stmt 0 view .LVU2123
 5676 00e6 2379     		ldrb	r3, [r4, #4]	@ zero_extendqisi2
 5677              	.LVL620:
1705:Lib/AI_Runtime/Npu/ll_aton/ll_aton.c ****   t = ATON_CONVACC_DFORMAT_SET_SAT(t, conf->saturation_o);
 5678              		.loc 1 1705 7 view .LVU2124
ARM GAS  C:\Users\DJESSOU\AppData\Local\Temp\ccFxekaC.s 			page 190


 5679 00e8 2678     		ldrb	r6, [r4]	@ zero_extendqisi2
1703:Lib/AI_Runtime/Npu/ll_aton/ll_aton.c **** 
 5680              		.loc 1 1703 7 view .LVU2125
 5681 00ea 1033     		adds	r3, r3, #16
 5682              	.LVL621:
1706:Lib/AI_Runtime/Npu/ll_aton/ll_aton.c ****   t = ATON_CONVACC_DFORMAT_SET_ORNDMODE(t, (conf->relu_mode_o << 1) | conf->round_mode_o);
 5683              		.loc 1 1706 7 view .LVU2126
 5684 00ec B002     		lsls	r0, r6, #10
1703:Lib/AI_Runtime/Npu/ll_aton/ll_aton.c **** 
 5685              		.loc 1 1703 7 view .LVU2127
 5686 00ee 1B06     		lsls	r3, r3, #24
 5687              	.LVL622:
1703:Lib/AI_Runtime/Npu/ll_aton/ll_aton.c **** 
 5688              		.loc 1 1703 7 view .LVU2128
 5689 00f0 03F07C53 		and	r3, r3, #1056964608
1707:Lib/AI_Runtime/Npu/ll_aton/ll_aton.c ****   t = ATON_CONVACC_DFORMAT_SET_OBYTES(t, conf->outbytes_o);
 5690              		.loc 1 1707 5 view .LVU2129
 5691 00f4 00F44030 		and	r0, r0, #196608
 5692 00f8 1843     		orrs	r0, r0, r3
1707:Lib/AI_Runtime/Npu/ll_aton/ll_aton.c ****   t = ATON_CONVACC_DFORMAT_SET_OBYTES(t, conf->outbytes_o);
 5693              		.loc 1 1707 7 view .LVU2130
 5694 00fa 02F00303 		and	r3, r2, #3
1707:Lib/AI_Runtime/Npu/ll_aton/ll_aton.c ****   t = ATON_CONVACC_DFORMAT_SET_OBYTES(t, conf->outbytes_o);
 5695              		.loc 1 1707 5 view .LVU2131
 5696 00fe 40EA8330 		orr	r0, r0, r3, lsl #14
1702:Lib/AI_Runtime/Npu/ll_aton/ll_aton.c ****   t = ATON_CONVACC_DFORMAT_SET_FSHIFT(t, ATON_SHIFT(conf->shift_f));
 5697              		.loc 1 1702 7 view .LVU2132
 5698 0102 C6F30113 		ubfx	r3, r6, #4, #2
1699:Lib/AI_Runtime/Npu/ll_aton/ll_aton.c ****   t = ATON_CONVACC_DFORMAT_SET_FSAT(t, conf->saturation_f);
 5699              		.loc 1 1699 7 view .LVU2133
 5700 0106 06F00107 		and	r7, r6, #1
1702:Lib/AI_Runtime/Npu/ll_aton/ll_aton.c ****   t = ATON_CONVACC_DFORMAT_SET_FSHIFT(t, ATON_SHIFT(conf->shift_f));
 5701              		.loc 1 1702 7 view .LVU2134
 5702 010a 9B05     		lsls	r3, r3, #22
1703:Lib/AI_Runtime/Npu/ll_aton/ll_aton.c **** 
 5703              		.loc 1 1703 7 view .LVU2135
 5704 010c 43EA8773 		orr	r3, r3, r7, lsl #30
1700:Lib/AI_Runtime/Npu/ll_aton/ll_aton.c ****   t = ATON_CONVACC_DFORMAT_SET_FRNDMODE(t, conf->round_mode_f);
 5705              		.loc 1 1700 7 view .LVU2136
 5706 0110 C6F34007 		ubfx	r7, r6, #1, #1
1703:Lib/AI_Runtime/Npu/ll_aton/ll_aton.c **** 
 5707              		.loc 1 1703 7 view .LVU2137
 5708 0114 43EAC773 		orr	r3, r3, r7, lsl #31
1701:Lib/AI_Runtime/Npu/ll_aton/ll_aton.c ****   t = ATON_CONVACC_DFORMAT_SET_FBYTES(t, conf->inbytes_f);
 5709              		.loc 1 1701 7 view .LVU2138
 5710 0118 C6F38106 		ubfx	r6, r6, #2, #2
1703:Lib/AI_Runtime/Npu/ll_aton/ll_aton.c **** 
 5711              		.loc 1 1703 7 view .LVU2139
 5712 011c 43EA8613 		orr	r3, r3, r6, lsl #6
1707:Lib/AI_Runtime/Npu/ll_aton/ll_aton.c ****   t = ATON_CONVACC_DFORMAT_SET_OBYTES(t, conf->outbytes_o);
 5713              		.loc 1 1707 5 view .LVU2140
 5714 0120 0343     		orrs	r3, r3, r0
 5715              	.LVL623:
1709:Lib/AI_Runtime/Npu/ll_aton/ll_aton.c ****   t = ATON_CONVACC_DFORMAT_SET_RAW(t, conf->raw_o);
 5716              		.loc 1 1709 3 is_stmt 1 view .LVU2141
1708:Lib/AI_Runtime/Npu/ll_aton/ll_aton.c ****   t = ATON_CONVACC_DFORMAT_SET_OUTSHIFT(t, conf->shift_o); // shift right only
 5717              		.loc 1 1708 7 is_stmt 0 view .LVU2142
ARM GAS  C:\Users\DJESSOU\AppData\Local\Temp\ccFxekaC.s 			page 191


 5718 0122 C2F38102 		ubfx	r2, r2, #2, #2
1708:Lib/AI_Runtime/Npu/ll_aton/ll_aton.c ****   t = ATON_CONVACC_DFORMAT_SET_OUTSHIFT(t, conf->shift_o); // shift right only
 5719              		.loc 1 1708 5 view .LVU2143
 5720 0126 43EA0253 		orr	r3, r3, r2, lsl #20
 5721              	.LVL624:
1710:Lib/AI_Runtime/Npu/ll_aton/ll_aton.c **** 
 5722              		.loc 1 1710 3 is_stmt 1 view .LVU2144
1712:Lib/AI_Runtime/Npu/ll_aton/ll_aton.c ****   ATON_CONVACC_DFORMAT_SET(id, t);
 5723              		.loc 1 1712 3 view .LVU2145
1709:Lib/AI_Runtime/Npu/ll_aton/ll_aton.c ****   t = ATON_CONVACC_DFORMAT_SET_RAW(t, conf->raw_o);
 5724              		.loc 1 1709 7 is_stmt 0 view .LVU2146
 5725 012a A279     		ldrb	r2, [r4, #6]	@ zero_extendqisi2
 5726              	.LVL625:
1710:Lib/AI_Runtime/Npu/ll_aton/ll_aton.c **** 
 5727              		.loc 1 1710 7 view .LVU2147
 5728 012c C5F38000 		ubfx	r0, r5, #2, #1
1709:Lib/AI_Runtime/Npu/ll_aton/ll_aton.c ****   t = ATON_CONVACC_DFORMAT_SET_RAW(t, conf->raw_o);
 5729              		.loc 1 1709 7 view .LVU2148
 5730 0130 1202     		lsls	r2, r2, #8
 5731              	.LVL626:
1709:Lib/AI_Runtime/Npu/ll_aton/ll_aton.c ****   t = ATON_CONVACC_DFORMAT_SET_RAW(t, conf->raw_o);
 5732              		.loc 1 1709 7 view .LVU2149
 5733 0132 02F47C52 		and	r2, r2, #16128
1710:Lib/AI_Runtime/Npu/ll_aton/ll_aton.c **** 
 5734              		.loc 1 1710 5 view .LVU2150
 5735 0136 42EA8042 		orr	r2, r2, r0, lsl #18
1712:Lib/AI_Runtime/Npu/ll_aton/ll_aton.c ****   ATON_CONVACC_DFORMAT_SET(id, t);
 5736              		.loc 1 1712 7 view .LVU2151
 5737 013a 1343     		orrs	r3, r3, r2
 5738              	.LVL627:
1712:Lib/AI_Runtime/Npu/ll_aton/ll_aton.c ****   ATON_CONVACC_DFORMAT_SET(id, t);
 5739              		.loc 1 1712 7 view .LVU2152
 5740 013c 6279     		ldrb	r2, [r4, #5]	@ zero_extendqisi2
1716:Lib/AI_Runtime/Npu/ll_aton/ll_aton.c ****   t = ATON_CONVACC_FFORMAT_SET_HEIGHT(t, conf->fHeight);
 5741              		.loc 1 1716 7 view .LVU2153
 5742 013e A08A     		ldrh	r0, [r4, #20]
1712:Lib/AI_Runtime/Npu/ll_aton/ll_aton.c ****   ATON_CONVACC_DFORMAT_SET(id, t);
 5743              		.loc 1 1712 7 view .LVU2154
 5744 0140 02F03F02 		and	r2, r2, #63
1712:Lib/AI_Runtime/Npu/ll_aton/ll_aton.c ****   ATON_CONVACC_DFORMAT_SET(id, t);
 5745              		.loc 1 1712 5 view .LVU2155
 5746 0144 1343     		orrs	r3, r3, r2
 5747              	.LVL628:
1713:Lib/AI_Runtime/Npu/ll_aton/ll_aton.c **** 
 5748              		.loc 1 1713 3 is_stmt 1 view .LVU2156
1713:Lib/AI_Runtime/Npu/ll_aton/ll_aton.c **** 
 5749              		.loc 1 1713 3 view .LVU2157
1713:Lib/AI_Runtime/Npu/ll_aton/ll_aton.c **** 
 5750              		.loc 1 1713 3 view .LVU2158
1713:Lib/AI_Runtime/Npu/ll_aton/ll_aton.c **** 
 5751              		.loc 1 1713 3 is_stmt 0 discriminator 1 view .LVU2159
 5752 0146 684A     		ldr	r2, .L422+12
1731:Lib/AI_Runtime/Npu/ll_aton/ll_aton.c ****   int p_bot = (conf->bot_padding < conf->kernelHeight ? conf->bot_padding : conf->kernelHeight - 1)
 5753              		.loc 1 1731 20 view .LVU2160
 5754 0148 B4F81C80 		ldrh	r8, [r4, #28]
1713:Lib/AI_Runtime/Npu/ll_aton/ll_aton.c **** 
 5755              		.loc 1 1713 3 discriminator 4 view .LVU2161
ARM GAS  C:\Users\DJESSOU\AppData\Local\Temp\ccFxekaC.s 			page 192


 5756 014c 8B50     		str	r3, [r1, r2]
1713:Lib/AI_Runtime/Npu/ll_aton/ll_aton.c **** 
 5757              		.loc 1 1713 3 is_stmt 1 discriminator 4 view .LVU2162
1713:Lib/AI_Runtime/Npu/ll_aton/ll_aton.c **** 
 5758              		.loc 1 1713 3 discriminator 4 view .LVU2163
1715:Lib/AI_Runtime/Npu/ll_aton/ll_aton.c ****   t = ATON_CONVACC_FFORMAT_SET_WIDTH(t, conf->fWidth * conf->batchDepth);
 5759              		.loc 1 1715 3 view .LVU2164
 5760              	.LVL629:
1716:Lib/AI_Runtime/Npu/ll_aton/ll_aton.c ****   t = ATON_CONVACC_FFORMAT_SET_HEIGHT(t, conf->fHeight);
 5761              		.loc 1 1716 3 view .LVU2165
1717:Lib/AI_Runtime/Npu/ll_aton/ll_aton.c ****   ATON_CONVACC_FFORMAT_SET(id, t);
 5762              		.loc 1 1717 3 view .LVU2166
1716:Lib/AI_Runtime/Npu/ll_aton/ll_aton.c ****   t = ATON_CONVACC_FFORMAT_SET_HEIGHT(t, conf->fHeight);
 5763              		.loc 1 1716 7 is_stmt 0 view .LVU2167
 5764 014e A368     		ldr	r3, [r4, #8]
1717:Lib/AI_Runtime/Npu/ll_aton/ll_aton.c ****   ATON_CONVACC_FFORMAT_SET(id, t);
 5765              		.loc 1 1717 7 view .LVU2168
 5766 0150 E268     		ldr	r2, [r4, #12]
1716:Lib/AI_Runtime/Npu/ll_aton/ll_aton.c ****   t = ATON_CONVACC_FFORMAT_SET_HEIGHT(t, conf->fHeight);
 5767              		.loc 1 1716 7 view .LVU2169
 5768 0152 4343     		muls	r3, r0, r3
 5769 0154 9BB2     		uxth	r3, r3
1717:Lib/AI_Runtime/Npu/ll_aton/ll_aton.c ****   ATON_CONVACC_FFORMAT_SET(id, t);
 5770              		.loc 1 1717 5 view .LVU2170
 5771 0156 43EA0243 		orr	r3, r3, r2, lsl #16
 5772              	.LVL630:
1718:Lib/AI_Runtime/Npu/ll_aton/ll_aton.c **** 
 5773              		.loc 1 1718 3 is_stmt 1 view .LVU2171
1718:Lib/AI_Runtime/Npu/ll_aton/ll_aton.c **** 
 5774              		.loc 1 1718 3 view .LVU2172
1718:Lib/AI_Runtime/Npu/ll_aton/ll_aton.c **** 
 5775              		.loc 1 1718 3 view .LVU2173
1718:Lib/AI_Runtime/Npu/ll_aton/ll_aton.c **** 
 5776              		.loc 1 1718 3 is_stmt 0 discriminator 1 view .LVU2174
 5777 015a 644A     		ldr	r2, .L422+16
1732:Lib/AI_Runtime/Npu/ll_aton/ll_aton.c ****   int p_left = (conf->left_padding < conf->kernelWidth ? conf->left_padding : conf->kernelWidth - 1
 5778              		.loc 1 1732 20 view .LVU2175
 5779 015c B4F81EA0 		ldrh	r10, [r4, #30]
1718:Lib/AI_Runtime/Npu/ll_aton/ll_aton.c **** 
 5780              		.loc 1 1718 3 discriminator 4 view .LVU2176
 5781 0160 8B50     		str	r3, [r1, r2]
1718:Lib/AI_Runtime/Npu/ll_aton/ll_aton.c **** 
 5782              		.loc 1 1718 3 is_stmt 1 discriminator 4 view .LVU2177
1718:Lib/AI_Runtime/Npu/ll_aton/ll_aton.c **** 
 5783              		.loc 1 1718 3 discriminator 4 view .LVU2178
1720:Lib/AI_Runtime/Npu/ll_aton/ll_aton.c ****   t = ATON_CONVACC_KFORMAT_SET_WIDTH(t, conf->kernelWidth);
 5784              		.loc 1 1720 3 view .LVU2179
 5785              	.LVL631:
1721:Lib/AI_Runtime/Npu/ll_aton/ll_aton.c ****   t = ATON_CONVACC_KFORMAT_SET_HEIGHT(t, conf->kernelHeight);
 5786              		.loc 1 1721 3 view .LVU2180
1724:Lib/AI_Runtime/Npu/ll_aton/ll_aton.c ****   ATON_CONVACC_KFORMAT_SET(id, t);
 5787              		.loc 1 1724 5 is_stmt 0 view .LVU2181
 5788 0162 278A     		ldrh	r7, [r4, #16]
1723:Lib/AI_Runtime/Npu/ll_aton/ll_aton.c ****   t = ATON_CONVACC_KFORMAT_SET_NR(t, conf->nKernels);
 5789              		.loc 1 1723 7 view .LVU2182
 5790 0164 0304     		lsls	r3, r0, #16
 5791 0166 03F47F03 		and	r3, r3, #16711680
ARM GAS  C:\Users\DJESSOU\AppData\Local\Temp\ccFxekaC.s 			page 193


1724:Lib/AI_Runtime/Npu/ll_aton/ll_aton.c ****   ATON_CONVACC_KFORMAT_SET(id, t);
 5792              		.loc 1 1724 5 view .LVU2183
 5793 016a 3B43     		orrs	r3, r3, r7
1724:Lib/AI_Runtime/Npu/ll_aton/ll_aton.c ****   ATON_CONVACC_KFORMAT_SET(id, t);
 5794              		.loc 1 1724 7 view .LVU2184
 5795 016c A77C     		ldrb	r7, [r4, #18]	@ zero_extendqisi2
1722:Lib/AI_Runtime/Npu/ll_aton/ll_aton.c ****   t = ATON_CONVACC_KFORMAT_SET_BTCDEPTH(t, conf->batchDepth);
 5796              		.loc 1 1722 7 view .LVU2185
 5797 016e 627C     		ldrb	r2, [r4, #17]	@ zero_extendqisi2
1724:Lib/AI_Runtime/Npu/ll_aton/ll_aton.c ****   ATON_CONVACC_KFORMAT_SET(id, t);
 5798              		.loc 1 1724 5 view .LVU2186
 5799 0170 43EA0763 		orr	r3, r3, r7, lsl #24
1725:Lib/AI_Runtime/Npu/ll_aton/ll_aton.c **** 
 5800              		.loc 1 1725 3 discriminator 1 view .LVU2187
 5801 0174 5E4F     		ldr	r7, .L422+20
1721:Lib/AI_Runtime/Npu/ll_aton/ll_aton.c ****   t = ATON_CONVACC_KFORMAT_SET_HEIGHT(t, conf->kernelHeight);
 5802              		.loc 1 1721 7 view .LVU2188
 5803 0176 267C     		ldrb	r6, [r4, #16]	@ zero_extendqisi2
 5804              	.LVL632:
1722:Lib/AI_Runtime/Npu/ll_aton/ll_aton.c ****   t = ATON_CONVACC_KFORMAT_SET_BTCDEPTH(t, conf->batchDepth);
 5805              		.loc 1 1722 3 is_stmt 1 view .LVU2189
1723:Lib/AI_Runtime/Npu/ll_aton/ll_aton.c ****   t = ATON_CONVACC_KFORMAT_SET_NR(t, conf->nKernels);
 5806              		.loc 1 1723 3 view .LVU2190
1724:Lib/AI_Runtime/Npu/ll_aton/ll_aton.c ****   ATON_CONVACC_KFORMAT_SET(id, t);
 5807              		.loc 1 1724 3 view .LVU2191
1725:Lib/AI_Runtime/Npu/ll_aton/ll_aton.c **** 
 5808              		.loc 1 1725 3 view .LVU2192
1725:Lib/AI_Runtime/Npu/ll_aton/ll_aton.c **** 
 5809              		.loc 1 1725 3 view .LVU2193
1725:Lib/AI_Runtime/Npu/ll_aton/ll_aton.c **** 
 5810              		.loc 1 1725 3 view .LVU2194
1731:Lib/AI_Runtime/Npu/ll_aton/ll_aton.c ****   int p_bot = (conf->bot_padding < conf->kernelHeight ? conf->bot_padding : conf->kernelHeight - 1)
 5811              		.loc 1 1731 75 is_stmt 0 discriminator 2 view .LVU2195
 5812 0178 9045     		cmp	r8, r2
1733:Lib/AI_Runtime/Npu/ll_aton/ll_aton.c ****   int p_right = (conf->right_padding < conf->kernelWidth ? conf->right_padding : conf->kernelWidth 
 5813              		.loc 1 1733 21 view .LVU2196
 5814 017a B4F81890 		ldrh	r9, [r4, #24]
1725:Lib/AI_Runtime/Npu/ll_aton/ll_aton.c **** 
 5815              		.loc 1 1725 3 discriminator 4 view .LVU2197
 5816 017e CB51     		str	r3, [r1, r7]
1725:Lib/AI_Runtime/Npu/ll_aton/ll_aton.c **** 
 5817              		.loc 1 1725 3 is_stmt 1 discriminator 4 view .LVU2198
1725:Lib/AI_Runtime/Npu/ll_aton/ll_aton.c **** 
 5818              		.loc 1 1725 3 discriminator 4 view .LVU2199
1731:Lib/AI_Runtime/Npu/ll_aton/ll_aton.c ****   int p_bot = (conf->bot_padding < conf->kernelHeight ? conf->bot_padding : conf->kernelHeight - 1)
 5819              		.loc 1 1731 3 view .LVU2200
1731:Lib/AI_Runtime/Npu/ll_aton/ll_aton.c ****   int p_bot = (conf->bot_padding < conf->kernelHeight ? conf->bot_padding : conf->kernelHeight - 1)
 5820              		.loc 1 1731 75 is_stmt 0 discriminator 2 view .LVU2201
 5821 0180 02F1FF37 		add	r7, r2, #-1
 5822 0184 2CBF     		ite	cs
 5823 0186 BC46     		movcs	ip, r7
 5824 0188 C446     		movcc	ip, r8
 5825              	.LVL633:
1732:Lib/AI_Runtime/Npu/ll_aton/ll_aton.c ****   int p_left = (conf->left_padding < conf->kernelWidth ? conf->left_padding : conf->kernelWidth - 1
 5826              		.loc 1 1732 3 is_stmt 1 view .LVU2202
1732:Lib/AI_Runtime/Npu/ll_aton/ll_aton.c ****   int p_left = (conf->left_padding < conf->kernelWidth ? conf->left_padding : conf->kernelWidth - 1
 5827              		.loc 1 1732 75 is_stmt 0 discriminator 2 view .LVU2203
ARM GAS  C:\Users\DJESSOU\AppData\Local\Temp\ccFxekaC.s 			page 194


 5828 018a 5245     		cmp	r2, r10
1734:Lib/AI_Runtime/Npu/ll_aton/ll_aton.c **** 
 5829              		.loc 1 1734 22 view .LVU2204
 5830 018c 628B     		ldrh	r2, [r4, #26]
1733:Lib/AI_Runtime/Npu/ll_aton/ll_aton.c ****   int p_right = (conf->right_padding < conf->kernelWidth ? conf->right_padding : conf->kernelWidth 
 5831              		.loc 1 1733 77 discriminator 2 view .LVU2205
 5832 018e 06F1FF33 		add	r3, r6, #-1
 5833              	.LVL634:
1732:Lib/AI_Runtime/Npu/ll_aton/ll_aton.c ****   int p_left = (conf->left_padding < conf->kernelWidth ? conf->left_padding : conf->kernelWidth - 1
 5834              		.loc 1 1732 75 discriminator 2 view .LVU2206
 5835 0192 88BF     		it	hi
 5836 0194 5746     		movhi	r7, r10
 5837              	.LVL635:
1733:Lib/AI_Runtime/Npu/ll_aton/ll_aton.c ****   int p_right = (conf->right_padding < conf->kernelWidth ? conf->right_padding : conf->kernelWidth 
 5838              		.loc 1 1733 3 is_stmt 1 view .LVU2207
1733:Lib/AI_Runtime/Npu/ll_aton/ll_aton.c ****   int p_right = (conf->right_padding < conf->kernelWidth ? conf->right_padding : conf->kernelWidth 
 5839              		.loc 1 1733 77 is_stmt 0 discriminator 2 view .LVU2208
 5840 0196 B145     		cmp	r9, r6
 5841 0198 2CBF     		ite	cs
 5842 019a 9E46     		movcs	lr, r3
 5843 019c CE46     		movcc	lr, r9
 5844              	.LVL636:
1734:Lib/AI_Runtime/Npu/ll_aton/ll_aton.c **** 
 5845              		.loc 1 1734 3 is_stmt 1 view .LVU2209
1734:Lib/AI_Runtime/Npu/ll_aton/ll_aton.c **** 
 5846              		.loc 1 1734 80 is_stmt 0 discriminator 2 view .LVU2210
 5847 019e 9642     		cmp	r6, r2
 5848 01a0 88BF     		it	hi
 5849 01a2 1346     		movhi	r3, r2
 5850              	.LVL637:
1736:Lib/AI_Runtime/Npu/ll_aton/ll_aton.c ****   p_bot = (p_bot <= 2 ? p_bot : 2);
 5851              		.loc 1 1736 3 is_stmt 1 view .LVU2211
1737:Lib/AI_Runtime/Npu/ll_aton/ll_aton.c ****   p_left = (p_left <= 2 ? p_left : 2);
 5852              		.loc 1 1737 3 view .LVU2212
1738:Lib/AI_Runtime/Npu/ll_aton/ll_aton.c ****   p_right = (p_right <= 2 ? p_right : 2);
 5853              		.loc 1 1738 3 view .LVU2213
1739:Lib/AI_Runtime/Npu/ll_aton/ll_aton.c ****   // LL_ATON_PRINTF("p_t=%d p_b=%d p_l=%d p_r=%d\n",p_top,p_bot,p_left,p_right);
 5854              		.loc 1 1739 3 view .LVU2214
1745:Lib/AI_Runtime/Npu/ll_aton/ll_aton.c ****     p_top = p_bot = p_left = p_right = 0;
 5855              		.loc 1 1745 3 view .LVU2215
1745:Lib/AI_Runtime/Npu/ll_aton/ll_aton.c ****     p_top = p_bot = p_left = p_right = 0;
 5856              		.loc 1 1745 6 is_stmt 0 view .LVU2216
 5857 01a4 EE06     		lsls	r6, r5, #27
 5858 01a6 00F18D80 		bmi	.L406
1736:Lib/AI_Runtime/Npu/ll_aton/ll_aton.c ****   p_bot = (p_bot <= 2 ? p_bot : 2);
 5859              		.loc 1 1736 9 view .LVU2217
 5860 01aa BCF1020F 		cmp	ip, #2
 5861 01ae A8BF     		it	ge
 5862 01b0 4FF0020C 		movge	ip, #2
 5863              	.LVL638:
1737:Lib/AI_Runtime/Npu/ll_aton/ll_aton.c ****   p_left = (p_left <= 2 ? p_left : 2);
 5864              		.loc 1 1737 9 view .LVU2218
 5865 01b4 022F     		cmp	r7, #2
 5866 01b6 A8BF     		it	ge
 5867 01b8 0227     		movge	r7, #2
 5868              	.LVL639:
1738:Lib/AI_Runtime/Npu/ll_aton/ll_aton.c ****   p_right = (p_right <= 2 ? p_right : 2);
ARM GAS  C:\Users\DJESSOU\AppData\Local\Temp\ccFxekaC.s 			page 195


 5869              		.loc 1 1738 10 view .LVU2219
 5870 01ba BEF1020F 		cmp	lr, #2
 5871 01be A8BF     		it	ge
 5872 01c0 4FF0020E 		movge	lr, #2
 5873              	.LVL640:
1739:Lib/AI_Runtime/Npu/ll_aton/ll_aton.c ****   // LL_ATON_PRINTF("p_t=%d p_b=%d p_l=%d p_r=%d\n",p_top,p_bot,p_left,p_right);
 5874              		.loc 1 1739 11 view .LVU2220
 5875 01c4 022B     		cmp	r3, #2
 5876 01c6 A8BF     		it	ge
 5877 01c8 0223     		movge	r3, #2
 5878              	.LVL641:
 5879              	.L390:
1751:Lib/AI_Runtime/Npu/ll_aton/ll_aton.c ****     p_top = p_bot = p_left = p_right = 0;
 5880              		.loc 1 1751 3 is_stmt 1 view .LVU2221
1751:Lib/AI_Runtime/Npu/ll_aton/ll_aton.c ****     p_top = p_bot = p_left = p_right = 0;
 5881              		.loc 1 1751 6 is_stmt 0 view .LVU2222
 5882 01ca AE06     		lsls	r6, r5, #26
1752:Lib/AI_Runtime/Npu/ll_aton/ll_aton.c **** #endif
 5883              		.loc 1 1752 38 view .LVU2223
 5884 01cc 48BF     		it	mi
 5885 01ce 0023     		movmi	r3, #0
 5886              	.LVL642:
1757:Lib/AI_Runtime/Npu/ll_aton/ll_aton.c ****     p_top = p_bot = p_left = p_right = 0;
 5887              		.loc 1 1757 11 view .LVU2224
 5888 01d0 B4F93A60 		ldrsh	r6, [r4, #58]
1752:Lib/AI_Runtime/Npu/ll_aton/ll_aton.c **** #endif
 5889              		.loc 1 1752 28 view .LVU2225
 5890 01d4 42BF     		ittt	mi
 5891 01d6 9E46     		movmi	lr, r3
 5892              	.LVL643:
1752:Lib/AI_Runtime/Npu/ll_aton/ll_aton.c **** #endif
 5893              		.loc 1 1752 19 view .LVU2226
 5894 01d8 1F46     		movmi	r7, r3
 5895              	.LVL644:
1752:Lib/AI_Runtime/Npu/ll_aton/ll_aton.c **** #endif
 5896              		.loc 1 1752 11 view .LVU2227
 5897 01da 9C46     		movmi	ip, r3
 5898              	.LVL645:
1757:Lib/AI_Runtime/Npu/ll_aton/ll_aton.c ****     p_top = p_bot = p_left = p_right = 0;
 5899              		.loc 1 1757 3 is_stmt 1 view .LVU2228
1757:Lib/AI_Runtime/Npu/ll_aton/ll_aton.c ****     p_top = p_bot = p_left = p_right = 0;
 5900              		.loc 1 1757 6 is_stmt 0 view .LVU2229
 5901 01dc 1EB1     		cbz	r6, .L392
1758:Lib/AI_Runtime/Npu/ll_aton/ll_aton.c **** #endif
 5902              		.loc 1 1758 38 view .LVU2230
 5903 01de 0023     		movs	r3, #0
 5904              	.LVL646:
1758:Lib/AI_Runtime/Npu/ll_aton/ll_aton.c **** #endif
 5905              		.loc 1 1758 28 view .LVU2231
 5906 01e0 9E46     		mov	lr, r3
 5907              	.LVL647:
1758:Lib/AI_Runtime/Npu/ll_aton/ll_aton.c **** #endif
 5908              		.loc 1 1758 19 view .LVU2232
 5909 01e2 1F46     		mov	r7, r3
 5910              	.LVL648:
1758:Lib/AI_Runtime/Npu/ll_aton/ll_aton.c **** #endif
 5911              		.loc 1 1758 11 view .LVU2233
ARM GAS  C:\Users\DJESSOU\AppData\Local\Temp\ccFxekaC.s 			page 196


 5912 01e4 9C46     		mov	ip, r3
 5913              	.LVL649:
 5914              	.L392:
1761:Lib/AI_Runtime/Npu/ll_aton/ll_aton.c ****   int z_bot = (conf->bot_padding - p_bot);
 5915              		.loc 1 1761 3 is_stmt 1 view .LVU2234
1762:Lib/AI_Runtime/Npu/ll_aton/ll_aton.c ****   int z_left = (conf->left_padding - p_left);
 5916              		.loc 1 1762 3 view .LVU2235
1763:Lib/AI_Runtime/Npu/ll_aton/ll_aton.c ****   int z_right = (conf->right_padding - p_right);
 5917              		.loc 1 1763 3 view .LVU2236
1764:Lib/AI_Runtime/Npu/ll_aton/ll_aton.c ****   // LL_ATON_PRINTF("z_t=%d z_b=%d z_l=%d z_r=%d\n",z_top,z_bot,z_left*conf->batchDepth,z_right*con
 5918              		.loc 1 1764 3 view .LVU2237
1767:Lib/AI_Runtime/Npu/ll_aton/ll_aton.c ****   t = ATON_CONVACC_ZFRAME_SET_TOP(t, z_top);
 5919              		.loc 1 1767 3 view .LVU2238
1768:Lib/AI_Runtime/Npu/ll_aton/ll_aton.c ****   t = ATON_CONVACC_ZFRAME_SET_BOTTOM(t, z_bot);
 5920              		.loc 1 1768 3 view .LVU2239
1769:Lib/AI_Runtime/Npu/ll_aton/ll_aton.c ****   t = ATON_CONVACC_ZFRAME_SET_LEFT(t, z_left * conf->batchDepth);
 5921              		.loc 1 1769 3 view .LVU2240
1770:Lib/AI_Runtime/Npu/ll_aton/ll_aton.c ****   t = ATON_CONVACC_ZFRAME_SET_RIGHT(t, z_right * conf->batchDepth);
 5922              		.loc 1 1770 3 view .LVU2241
1763:Lib/AI_Runtime/Npu/ll_aton/ll_aton.c ****   int z_right = (conf->right_padding - p_right);
 5923              		.loc 1 1763 7 is_stmt 0 view .LVU2242
 5924 01e6 A9EB0E09 		sub	r9, r9, lr
 5925              	.LVL650:
1770:Lib/AI_Runtime/Npu/ll_aton/ll_aton.c ****   t = ATON_CONVACC_ZFRAME_SET_RIGHT(t, z_right * conf->batchDepth);
 5926              		.loc 1 1770 7 view .LVU2243
 5927 01ea 00FB09F9 		mul	r9, r0, r9
 5928              	.LVL651:
1764:Lib/AI_Runtime/Npu/ll_aton/ll_aton.c ****   // LL_ATON_PRINTF("z_t=%d z_b=%d z_l=%d z_r=%d\n",z_top,z_bot,z_left*conf->batchDepth,z_right*con
 5929              		.loc 1 1764 7 view .LVU2244
 5930 01ee D21A     		subs	r2, r2, r3
 5931              	.LVL652:
1771:Lib/AI_Runtime/Npu/ll_aton/ll_aton.c ****   ATON_CONVACC_ZFRAME_SET(id, t);
 5932              		.loc 1 1771 7 view .LVU2245
 5933 01f0 4243     		muls	r2, r0, r2
 5934              	.LVL653:
1761:Lib/AI_Runtime/Npu/ll_aton/ll_aton.c ****   int z_bot = (conf->bot_padding - p_bot);
 5935              		.loc 1 1761 7 view .LVU2246
 5936 01f2 A8EB0C08 		sub	r8, r8, ip
 5937              	.LVL654:
1768:Lib/AI_Runtime/Npu/ll_aton/ll_aton.c ****   t = ATON_CONVACC_ZFRAME_SET_BOTTOM(t, z_bot);
 5938              		.loc 1 1768 7 view .LVU2247
 5939 01f6 4FEA0848 		lsl	r8, r8, #16
 5940              	.LVL655:
1768:Lib/AI_Runtime/Npu/ll_aton/ll_aton.c ****   t = ATON_CONVACC_ZFRAME_SET_BOTTOM(t, z_bot);
 5941              		.loc 1 1768 7 view .LVU2248
 5942 01fa 08F47F08 		and	r8, r8, #16711680
1770:Lib/AI_Runtime/Npu/ll_aton/ll_aton.c ****   t = ATON_CONVACC_ZFRAME_SET_RIGHT(t, z_right * conf->batchDepth);
 5943              		.loc 1 1770 7 view .LVU2249
 5944 01fe 5FFA89F9 		uxtb	r9, r9
1762:Lib/AI_Runtime/Npu/ll_aton/ll_aton.c ****   int z_left = (conf->left_padding - p_left);
 5945              		.loc 1 1762 7 view .LVU2250
 5946 0202 AAEB070A 		sub	r10, r10, r7
 5947              	.LVL656:
1770:Lib/AI_Runtime/Npu/ll_aton/ll_aton.c ****   t = ATON_CONVACC_ZFRAME_SET_RIGHT(t, z_right * conf->batchDepth);
 5948              		.loc 1 1770 5 view .LVU2251
 5949 0206 48EA0908 		orr	r8, r8, r9
1771:Lib/AI_Runtime/Npu/ll_aton/ll_aton.c ****   ATON_CONVACC_ZFRAME_SET(id, t);
ARM GAS  C:\Users\DJESSOU\AppData\Local\Temp\ccFxekaC.s 			page 197


 5950              		.loc 1 1771 7 view .LVU2252
 5951 020a 1202     		lsls	r2, r2, #8
1770:Lib/AI_Runtime/Npu/ll_aton/ll_aton.c ****   t = ATON_CONVACC_ZFRAME_SET_RIGHT(t, z_right * conf->batchDepth);
 5952              		.loc 1 1770 5 view .LVU2253
 5953 020c 48EA0A68 		orr	r8, r8, r10, lsl #24
 5954              	.LVL657:
1771:Lib/AI_Runtime/Npu/ll_aton/ll_aton.c ****   ATON_CONVACC_ZFRAME_SET(id, t);
 5955              		.loc 1 1771 3 is_stmt 1 view .LVU2254
1771:Lib/AI_Runtime/Npu/ll_aton/ll_aton.c ****   ATON_CONVACC_ZFRAME_SET(id, t);
 5956              		.loc 1 1771 7 is_stmt 0 view .LVU2255
 5957 0210 92B2     		uxth	r2, r2
1771:Lib/AI_Runtime/Npu/ll_aton/ll_aton.c ****   ATON_CONVACC_ZFRAME_SET(id, t);
 5958              		.loc 1 1771 5 view .LVU2256
 5959 0212 42EA0802 		orr	r2, r2, r8
 5960              	.LVL658:
1772:Lib/AI_Runtime/Npu/ll_aton/ll_aton.c **** 
 5961              		.loc 1 1772 3 is_stmt 1 view .LVU2257
1772:Lib/AI_Runtime/Npu/ll_aton/ll_aton.c **** 
 5962              		.loc 1 1772 3 view .LVU2258
1772:Lib/AI_Runtime/Npu/ll_aton/ll_aton.c **** 
 5963              		.loc 1 1772 3 view .LVU2259
1772:Lib/AI_Runtime/Npu/ll_aton/ll_aton.c **** 
 5964              		.loc 1 1772 3 is_stmt 0 discriminator 1 view .LVU2260
 5965 0216 DFF8F080 		ldr	r8, .L422+44
1778:Lib/AI_Runtime/Npu/ll_aton/ll_aton.c ****   t = ATON_CONVACC_SAMPLE_SET_HSTRD(t, conf->hstride);
 5966              		.loc 1 1778 7 view .LVU2261
 5967 021a 9B00     		lsls	r3, r3, #2
 5968              	.LVL659:
1772:Lib/AI_Runtime/Npu/ll_aton/ll_aton.c **** 
 5969              		.loc 1 1772 3 discriminator 4 view .LVU2262
 5970 021c 41F80820 		str	r2, [r1, r8]
1772:Lib/AI_Runtime/Npu/ll_aton/ll_aton.c **** 
 5971              		.loc 1 1772 3 is_stmt 1 discriminator 4 view .LVU2263
1772:Lib/AI_Runtime/Npu/ll_aton/ll_aton.c **** 
 5972              		.loc 1 1772 3 discriminator 4 view .LVU2264
1774:Lib/AI_Runtime/Npu/ll_aton/ll_aton.c ****   t = ATON_CONVACC_SAMPLE_SET_TPAD(t, p_top);
 5973              		.loc 1 1774 3 view .LVU2265
 5974              	.LVL660:
1775:Lib/AI_Runtime/Npu/ll_aton/ll_aton.c ****   t = ATON_CONVACC_SAMPLE_SET_BPAD(t, p_bot);
 5975              		.loc 1 1775 3 view .LVU2266
1776:Lib/AI_Runtime/Npu/ll_aton/ll_aton.c ****   t = ATON_CONVACC_SAMPLE_SET_LPAD(t, p_left);
 5976              		.loc 1 1776 3 view .LVU2267
1777:Lib/AI_Runtime/Npu/ll_aton/ll_aton.c ****   t = ATON_CONVACC_SAMPLE_SET_RPAD(t, p_right);
 5977              		.loc 1 1777 3 view .LVU2268
1778:Lib/AI_Runtime/Npu/ll_aton/ll_aton.c ****   t = ATON_CONVACC_SAMPLE_SET_HSTRD(t, conf->hstride);
 5978              		.loc 1 1778 3 view .LVU2269
1779:Lib/AI_Runtime/Npu/ll_aton/ll_aton.c ****   t = ATON_CONVACC_SAMPLE_SET_VSTRD(t, conf->vstride);
 5979              		.loc 1 1779 3 view .LVU2270
1780:Lib/AI_Runtime/Npu/ll_aton/ll_aton.c **** #if defined(ATON_CONVACC_SAMPLE_SET_FSTATCNT)
 5980              		.loc 1 1780 3 view .LVU2271
1779:Lib/AI_Runtime/Npu/ll_aton/ll_aton.c ****   t = ATON_CONVACC_SAMPLE_SET_VSTRD(t, conf->vstride);
 5981              		.loc 1 1779 7 is_stmt 0 view .LVU2272
 5982 0220 A27D     		ldrb	r2, [r4, #22]	@ zero_extendqisi2
1778:Lib/AI_Runtime/Npu/ll_aton/ll_aton.c ****   t = ATON_CONVACC_SAMPLE_SET_HSTRD(t, conf->hstride);
 5983              		.loc 1 1778 7 view .LVU2273
 5984 0222 03F00C03 		and	r3, r3, #12
1779:Lib/AI_Runtime/Npu/ll_aton/ll_aton.c ****   t = ATON_CONVACC_SAMPLE_SET_VSTRD(t, conf->vstride);
ARM GAS  C:\Users\DJESSOU\AppData\Local\Temp\ccFxekaC.s 			page 198


 5985              		.loc 1 1779 7 view .LVU2274
 5986 0226 1202     		lsls	r2, r2, #8
 5987 0228 02F4E062 		and	r2, r2, #1792
1780:Lib/AI_Runtime/Npu/ll_aton/ll_aton.c **** #if defined(ATON_CONVACC_SAMPLE_SET_FSTATCNT)
 5988              		.loc 1 1780 5 view .LVU2275
 5989 022c 1343     		orrs	r3, r3, r2
1777:Lib/AI_Runtime/Npu/ll_aton/ll_aton.c ****   t = ATON_CONVACC_SAMPLE_SET_RPAD(t, p_right);
 5990              		.loc 1 1777 7 view .LVU2276
 5991 022e 0EF0030E 		and	lr, lr, #3
 5992              	.LVL661:
1780:Lib/AI_Runtime/Npu/ll_aton/ll_aton.c **** #if defined(ATON_CONVACC_SAMPLE_SET_FSTATCNT)
 5993              		.loc 1 1780 7 view .LVU2277
 5994 0232 E27D     		ldrb	r2, [r4, #23]	@ zero_extendqisi2
1775:Lib/AI_Runtime/Npu/ll_aton/ll_aton.c ****   t = ATON_CONVACC_SAMPLE_SET_BPAD(t, p_bot);
 5995              		.loc 1 1775 7 view .LVU2278
 5996 0234 4FEA0C1C 		lsl	ip, ip, #4
 5997              	.LVL662:
1775:Lib/AI_Runtime/Npu/ll_aton/ll_aton.c ****   t = ATON_CONVACC_SAMPLE_SET_BPAD(t, p_bot);
 5998              		.loc 1 1775 7 view .LVU2279
 5999 0238 0CF0300C 		and	ip, ip, #48
1780:Lib/AI_Runtime/Npu/ll_aton/ll_aton.c **** #if defined(ATON_CONVACC_SAMPLE_SET_FSTATCNT)
 6000              		.loc 1 1780 5 view .LVU2280
 6001 023c 43EA0E03 		orr	r3, r3, lr
1776:Lib/AI_Runtime/Npu/ll_aton/ll_aton.c ****   t = ATON_CONVACC_SAMPLE_SET_LPAD(t, p_left);
 6002              		.loc 1 1776 7 view .LVU2281
 6003 0240 BF01     		lsls	r7, r7, #6
 6004              	.LVL663:
1780:Lib/AI_Runtime/Npu/ll_aton/ll_aton.c **** #if defined(ATON_CONVACC_SAMPLE_SET_FSTATCNT)
 6005              		.loc 1 1780 5 view .LVU2282
 6006 0242 43EA0C03 		orr	r3, r3, ip
1776:Lib/AI_Runtime/Npu/ll_aton/ll_aton.c ****   t = ATON_CONVACC_SAMPLE_SET_LPAD(t, p_left);
 6007              		.loc 1 1776 7 view .LVU2283
 6008 0246 FFB2     		uxtb	r7, r7
1780:Lib/AI_Runtime/Npu/ll_aton/ll_aton.c **** #if defined(ATON_CONVACC_SAMPLE_SET_FSTATCNT)
 6009              		.loc 1 1780 7 view .LVU2284
 6010 0248 1203     		lsls	r2, r2, #12
 6011 024a 02F4E042 		and	r2, r2, #28672
1780:Lib/AI_Runtime/Npu/ll_aton/ll_aton.c **** #if defined(ATON_CONVACC_SAMPLE_SET_FSTATCNT)
 6012              		.loc 1 1780 5 view .LVU2285
 6013 024e 3B43     		orrs	r3, r3, r7
 6014 0250 1343     		orrs	r3, r3, r2
 6015              	.LVL664:
1782:Lib/AI_Runtime/Npu/ll_aton/ll_aton.c ****     t = ATON_CONVACC_SAMPLE_SET_FSTATCNT(t, conf->fstatcnt);
 6016              		.loc 1 1782 3 is_stmt 1 view .LVU2286
1782:Lib/AI_Runtime/Npu/ll_aton/ll_aton.c ****     t = ATON_CONVACC_SAMPLE_SET_FSTATCNT(t, conf->fstatcnt);
 6017              		.loc 1 1782 6 is_stmt 0 view .LVU2287
 6018 0252 AA07     		lsls	r2, r5, #30
1783:Lib/AI_Runtime/Npu/ll_aton/ll_aton.c **** #endif
 6019              		.loc 1 1783 5 is_stmt 1 view .LVU2288
1783:Lib/AI_Runtime/Npu/ll_aton/ll_aton.c **** #endif
 6020              		.loc 1 1783 9 is_stmt 0 view .LVU2289
 6021 0254 48BF     		it	mi
 6022 0256 228D     		ldrhmi	r2, [r4, #40]
1790:Lib/AI_Runtime/Npu/ll_aton/ll_aton.c ****   if (conf->right_crop > 0)
 6023              		.loc 1 1790 7 view .LVU2290
 6024 0258 264F     		ldr	r7, .L422+24
1783:Lib/AI_Runtime/Npu/ll_aton/ll_aton.c **** #endif
ARM GAS  C:\Users\DJESSOU\AppData\Local\Temp\ccFxekaC.s 			page 199


 6025              		.loc 1 1783 7 view .LVU2291
 6026 025a 48BF     		it	mi
 6027 025c 43EA0243 		orrmi	r3, r3, r2, lsl #16
 6028              	.LVL665:
1785:Lib/AI_Runtime/Npu/ll_aton/ll_aton.c **** 
 6029              		.loc 1 1785 3 is_stmt 1 view .LVU2292
1785:Lib/AI_Runtime/Npu/ll_aton/ll_aton.c **** 
 6030              		.loc 1 1785 3 view .LVU2293
1785:Lib/AI_Runtime/Npu/ll_aton/ll_aton.c **** 
 6031              		.loc 1 1785 3 view .LVU2294
1785:Lib/AI_Runtime/Npu/ll_aton/ll_aton.c **** 
 6032              		.loc 1 1785 3 is_stmt 0 discriminator 1 view .LVU2295
 6033 0260 254A     		ldr	r2, .L422+28
1791:Lib/AI_Runtime/Npu/ll_aton/ll_aton.c ****     t = ATON_CONVACC_FHCROP_SET_RIGHT(t, conf->right_crop * conf->batchDepth + (conf->batchDepth - 
 6034              		.loc 1 1791 11 view .LVU2296
 6035 0262 B4F822C0 		ldrh	ip, [r4, #34]
1785:Lib/AI_Runtime/Npu/ll_aton/ll_aton.c **** 
 6036              		.loc 1 1785 3 discriminator 4 view .LVU2297
 6037 0266 8B50     		str	r3, [r1, r2]
1785:Lib/AI_Runtime/Npu/ll_aton/ll_aton.c **** 
 6038              		.loc 1 1785 3 is_stmt 1 discriminator 4 view .LVU2298
1785:Lib/AI_Runtime/Npu/ll_aton/ll_aton.c **** 
 6039              		.loc 1 1785 3 discriminator 4 view .LVU2299
1788:Lib/AI_Runtime/Npu/ll_aton/ll_aton.c ****   if (conf->left_crop > 0)
 6040              		.loc 1 1788 3 view .LVU2300
 6041              	.LVL666:
1789:Lib/AI_Runtime/Npu/ll_aton/ll_aton.c ****     t = ATON_CONVACC_FHCROP_SET_LEFT(t, conf->left_crop * conf->batchDepth);
 6042              		.loc 1 1789 3 view .LVU2301
1789:Lib/AI_Runtime/Npu/ll_aton/ll_aton.c ****     t = ATON_CONVACC_FHCROP_SET_LEFT(t, conf->left_crop * conf->batchDepth);
 6043              		.loc 1 1789 11 is_stmt 0 view .LVU2302
 6044 0268 228C     		ldrh	r2, [r4, #32]
1792:Lib/AI_Runtime/Npu/ll_aton/ll_aton.c ****   ATON_CONVACC_FHCROP_SET(id, t);
 6045              		.loc 1 1792 7 view .LVU2303
 6046 026a 451E     		subs	r5, r0, #1
1790:Lib/AI_Runtime/Npu/ll_aton/ll_aton.c ****   if (conf->right_crop > 0)
 6047              		.loc 1 1790 7 view .LVU2304
 6048 026c 00FB02F3 		mul	r3, r0, r2
 6049 0270 6FEA0343 		mvn	r3, r3, lsl #16
 6050 0274 002A     		cmp	r2, #0
 6051 0276 6FEA1343 		mvn	r3, r3, lsr #16
 6052 027a 08BF     		it	eq
 6053 027c 3B46     		moveq	r3, r7
 6054              	.LVL667:
1791:Lib/AI_Runtime/Npu/ll_aton/ll_aton.c ****     t = ATON_CONVACC_FHCROP_SET_RIGHT(t, conf->right_crop * conf->batchDepth + (conf->batchDepth - 
 6055              		.loc 1 1791 3 is_stmt 1 view .LVU2305
1792:Lib/AI_Runtime/Npu/ll_aton/ll_aton.c ****   ATON_CONVACC_FHCROP_SET(id, t);
 6056              		.loc 1 1792 7 is_stmt 0 view .LVU2306
 6057 027e 00FB0C50 		mla	r0, r0, ip, r5
 6058 0282 9AB2     		uxth	r2, r3
 6059 0284 42EA0042 		orr	r2, r2, r0, lsl #16
 6060 0288 BCF1000F 		cmp	ip, #0
 6061 028c 18BF     		it	ne
 6062 028e 1346     		movne	r3, r2
 6063              	.LVL668:
1793:Lib/AI_Runtime/Npu/ll_aton/ll_aton.c **** 
 6064              		.loc 1 1793 3 is_stmt 1 view .LVU2307
1793:Lib/AI_Runtime/Npu/ll_aton/ll_aton.c **** 
ARM GAS  C:\Users\DJESSOU\AppData\Local\Temp\ccFxekaC.s 			page 200


 6065              		.loc 1 1793 3 view .LVU2308
1793:Lib/AI_Runtime/Npu/ll_aton/ll_aton.c **** 
 6066              		.loc 1 1793 3 view .LVU2309
1793:Lib/AI_Runtime/Npu/ll_aton/ll_aton.c **** 
 6067              		.loc 1 1793 3 is_stmt 0 discriminator 1 view .LVU2310
 6068 0290 1A4A     		ldr	r2, .L422+32
1798:Lib/AI_Runtime/Npu/ll_aton/ll_aton.c ****     t = ATON_CONVACC_FVCROP_SET_BOTTOM(t, conf->bot_crop);
 6069              		.loc 1 1798 6 view .LVU2311
 6070 0292 E08C     		ldrh	r0, [r4, #38]
1793:Lib/AI_Runtime/Npu/ll_aton/ll_aton.c **** 
 6071              		.loc 1 1793 3 discriminator 4 view .LVU2312
 6072 0294 8B50     		str	r3, [r1, r2]
1793:Lib/AI_Runtime/Npu/ll_aton/ll_aton.c **** 
 6073              		.loc 1 1793 3 is_stmt 1 discriminator 4 view .LVU2313
1793:Lib/AI_Runtime/Npu/ll_aton/ll_aton.c **** 
 6074              		.loc 1 1793 3 discriminator 4 view .LVU2314
1795:Lib/AI_Runtime/Npu/ll_aton/ll_aton.c ****   if (conf->top_crop > 0)
 6075              		.loc 1 1795 3 view .LVU2315
 6076              	.LVL669:
1796:Lib/AI_Runtime/Npu/ll_aton/ll_aton.c ****     t = ATON_CONVACC_FVCROP_SET_TOP(t, conf->top_crop);
 6077              		.loc 1 1796 3 view .LVU2316
1796:Lib/AI_Runtime/Npu/ll_aton/ll_aton.c ****     t = ATON_CONVACC_FVCROP_SET_TOP(t, conf->top_crop);
 6078              		.loc 1 1796 11 is_stmt 0 view .LVU2317
 6079 0296 A28C     		ldrh	r2, [r4, #36]
 6080              	.LVL670:
1798:Lib/AI_Runtime/Npu/ll_aton/ll_aton.c ****     t = ATON_CONVACC_FVCROP_SET_BOTTOM(t, conf->bot_crop);
 6081              		.loc 1 1798 3 is_stmt 1 view .LVU2318
1797:Lib/AI_Runtime/Npu/ll_aton/ll_aton.c ****   if (conf->bot_crop > 0)
 6082              		.loc 1 1797 7 is_stmt 0 view .LVU2319
 6083 0298 0028     		cmp	r0, #0
 6084 029a 42EA0702 		orr	r2, r2, r7
 6085              	.LVL671:
1799:Lib/AI_Runtime/Npu/ll_aton/ll_aton.c ****   ATON_CONVACC_FVCROP_SET(id, t);
 6086              		.loc 1 1799 7 view .LVU2320
 6087 029e 636A     		ldr	r3, [r4, #36]
1797:Lib/AI_Runtime/Npu/ll_aton/ll_aton.c ****   if (conf->bot_crop > 0)
 6088              		.loc 1 1797 7 view .LVU2321
 6089 02a0 08BF     		it	eq
 6090 02a2 1346     		moveq	r3, r2
 6091              	.LVL672:
1800:Lib/AI_Runtime/Npu/ll_aton/ll_aton.c ****   // LL_ATON_PRINTF("c_t=%d c_b=%d c_l=%d c_r=%d\n",conf->top_crop,conf->bot_crop,conf->left_crop  
 6092              		.loc 1 1800 3 is_stmt 1 view .LVU2322
1800:Lib/AI_Runtime/Npu/ll_aton/ll_aton.c ****   // LL_ATON_PRINTF("c_t=%d c_b=%d c_l=%d c_r=%d\n",conf->top_crop,conf->bot_crop,conf->left_crop  
 6093              		.loc 1 1800 3 view .LVU2323
1800:Lib/AI_Runtime/Npu/ll_aton/ll_aton.c ****   // LL_ATON_PRINTF("c_t=%d c_b=%d c_l=%d c_r=%d\n",conf->top_crop,conf->bot_crop,conf->left_crop  
 6094              		.loc 1 1800 3 view .LVU2324
1800:Lib/AI_Runtime/Npu/ll_aton/ll_aton.c ****   // LL_ATON_PRINTF("c_t=%d c_b=%d c_l=%d c_r=%d\n",conf->top_crop,conf->bot_crop,conf->left_crop  
 6095              		.loc 1 1800 3 is_stmt 0 discriminator 1 view .LVU2325
 6096 02a4 164A     		ldr	r2, .L422+36
1800:Lib/AI_Runtime/Npu/ll_aton/ll_aton.c ****   // LL_ATON_PRINTF("c_t=%d c_b=%d c_l=%d c_r=%d\n",conf->top_crop,conf->bot_crop,conf->left_crop  
 6097              		.loc 1 1800 3 discriminator 4 view .LVU2326
 6098 02a6 8B50     		str	r3, [r1, r2]
1800:Lib/AI_Runtime/Npu/ll_aton/ll_aton.c ****   // LL_ATON_PRINTF("c_t=%d c_b=%d c_l=%d c_r=%d\n",conf->top_crop,conf->bot_crop,conf->left_crop  
 6099              		.loc 1 1800 3 is_stmt 1 discriminator 4 view .LVU2327
1800:Lib/AI_Runtime/Npu/ll_aton/ll_aton.c ****   // LL_ATON_PRINTF("c_t=%d c_b=%d c_l=%d c_r=%d\n",conf->top_crop,conf->bot_crop,conf->left_crop  
 6100              		.loc 1 1800 3 discriminator 4 view .LVU2328
1805:Lib/AI_Runtime/Npu/ll_aton/ll_aton.c ****   {
ARM GAS  C:\Users\DJESSOU\AppData\Local\Temp\ccFxekaC.s 			page 201


 6101              		.loc 1 1805 3 view .LVU2329
1805:Lib/AI_Runtime/Npu/ll_aton/ll_aton.c ****   {
 6102              		.loc 1 1805 11 is_stmt 0 view .LVU2330
 6103 02a8 636B     		ldr	r3, [r4, #52]
 6104              	.LVL673:
1805:Lib/AI_Runtime/Npu/ll_aton/ll_aton.c ****   {
 6105              		.loc 1 1805 6 view .LVU2331
 6106 02aa 1BB1     		cbz	r3, .L397
1807:Lib/AI_Runtime/Npu/ll_aton/ll_aton.c ****     t = ATON_CONVACC_FSUB_SET_FSUB(t, conf->fsub);
 6107              		.loc 1 1807 5 is_stmt 1 view .LVU2332
 6108              	.LVL674:
1808:Lib/AI_Runtime/Npu/ll_aton/ll_aton.c ****     ATON_CONVACC_FSUB_SET(id, t);
 6109              		.loc 1 1808 5 view .LVU2333
1808:Lib/AI_Runtime/Npu/ll_aton/ll_aton.c ****     ATON_CONVACC_FSUB_SET(id, t);
 6110              		.loc 1 1808 9 is_stmt 0 view .LVU2334
 6111 02ac 23F07F43 		bic	r3, r3, #-16777216
 6112              	.LVL675:
1809:Lib/AI_Runtime/Npu/ll_aton/ll_aton.c ****   }
 6113              		.loc 1 1809 5 is_stmt 1 view .LVU2335
1809:Lib/AI_Runtime/Npu/ll_aton/ll_aton.c ****   }
 6114              		.loc 1 1809 5 view .LVU2336
1809:Lib/AI_Runtime/Npu/ll_aton/ll_aton.c ****   }
 6115              		.loc 1 1809 5 view .LVU2337
1809:Lib/AI_Runtime/Npu/ll_aton/ll_aton.c ****   }
 6116              		.loc 1 1809 5 is_stmt 0 discriminator 1 view .LVU2338
 6117 02b0 1432     		adds	r2, r2, #20
1809:Lib/AI_Runtime/Npu/ll_aton/ll_aton.c ****   }
 6118              		.loc 1 1809 5 discriminator 4 view .LVU2339
 6119 02b2 8B50     		str	r3, [r1, r2]
 6120              	.LVL676:
 6121              	.L397:
1809:Lib/AI_Runtime/Npu/ll_aton/ll_aton.c ****   }
 6122              		.loc 1 1809 5 is_stmt 1 discriminator 5 view .LVU2340
1809:Lib/AI_Runtime/Npu/ll_aton/ll_aton.c ****   }
 6123              		.loc 1 1809 5 discriminator 5 view .LVU2341
1824:Lib/AI_Runtime/Npu/ll_aton/ll_aton.c ****   if (conf->zfbias != 0)
 6124              		.loc 1 1824 3 view .LVU2342
1825:Lib/AI_Runtime/Npu/ll_aton/ll_aton.c ****   {
 6125              		.loc 1 1825 3 view .LVU2343
1839:Lib/AI_Runtime/Npu/ll_aton/ll_aton.c **** }
 6126              		.loc 1 1839 10 is_stmt 0 view .LVU2344
 6127 02b4 0020     		movs	r0, #0
1836:Lib/AI_Runtime/Npu/ll_aton/ll_aton.c **** #endif
 6128              		.loc 1 1836 3 discriminator 1 view .LVU2345
 6129 02b6 134B     		ldr	r3, .L422+40
1827:Lib/AI_Runtime/Npu/ll_aton/ll_aton.c ****   }
 6130              		.loc 1 1827 9 view .LVU2346
 6131 02b8 B6B2     		uxth	r6, r6
 6132              	.LVL677:
1836:Lib/AI_Runtime/Npu/ll_aton/ll_aton.c **** #endif
 6133              		.loc 1 1836 3 is_stmt 1 view .LVU2347
1836:Lib/AI_Runtime/Npu/ll_aton/ll_aton.c **** #endif
 6134              		.loc 1 1836 3 view .LVU2348
1836:Lib/AI_Runtime/Npu/ll_aton/ll_aton.c **** #endif
 6135              		.loc 1 1836 3 view .LVU2349
1836:Lib/AI_Runtime/Npu/ll_aton/ll_aton.c **** #endif
 6136              		.loc 1 1836 3 is_stmt 0 discriminator 4 view .LVU2350
ARM GAS  C:\Users\DJESSOU\AppData\Local\Temp\ccFxekaC.s 			page 202


 6137 02ba CE50     		str	r6, [r1, r3]
1836:Lib/AI_Runtime/Npu/ll_aton/ll_aton.c **** #endif
 6138              		.loc 1 1836 3 is_stmt 1 discriminator 4 view .LVU2351
1836:Lib/AI_Runtime/Npu/ll_aton/ll_aton.c **** #endif
 6139              		.loc 1 1836 3 discriminator 4 view .LVU2352
1839:Lib/AI_Runtime/Npu/ll_aton/ll_aton.c **** }
 6140              		.loc 1 1839 3 view .LVU2353
 6141              	.LVL678:
 6142              	.L381:
1840:Lib/AI_Runtime/Npu/ll_aton/ll_aton.c **** #endif // ATON_CONVACC_NUM
 6143              		.loc 1 1840 1 is_stmt 0 view .LVU2354
 6144 02bc BDE8F087 		pop	{r4, r5, r6, r7, r8, r9, r10, pc}
 6145              	.LVL679:
 6146              	.L384:
1695:Lib/AI_Runtime/Npu/ll_aton/ll_aton.c ****   }
 6147              		.loc 1 1695 5 is_stmt 1 view .LVU2355
1695:Lib/AI_Runtime/Npu/ll_aton/ll_aton.c ****   }
 6148              		.loc 1 1695 5 view .LVU2356
1695:Lib/AI_Runtime/Npu/ll_aton/ll_aton.c ****   }
 6149              		.loc 1 1695 5 view .LVU2357
1695:Lib/AI_Runtime/Npu/ll_aton/ll_aton.c ****   }
 6150              		.loc 1 1695 5 is_stmt 0 discriminator 4 view .LVU2358
 6151 02c0 0123     		movs	r3, #1
 6152              	.LVL680:
1695:Lib/AI_Runtime/Npu/ll_aton/ll_aton.c ****   }
 6153              		.loc 1 1695 5 discriminator 4 view .LVU2359
 6154 02c2 0FE7     		b	.L421
 6155              	.LVL681:
 6156              	.L406:
1746:Lib/AI_Runtime/Npu/ll_aton/ll_aton.c **** #endif
 6157              		.loc 1 1746 38 view .LVU2360
 6158 02c4 0023     		movs	r3, #0
 6159              	.LVL682:
1746:Lib/AI_Runtime/Npu/ll_aton/ll_aton.c **** #endif
 6160              		.loc 1 1746 28 view .LVU2361
 6161 02c6 9E46     		mov	lr, r3
 6162              	.LVL683:
1746:Lib/AI_Runtime/Npu/ll_aton/ll_aton.c **** #endif
 6163              		.loc 1 1746 19 view .LVU2362
 6164 02c8 1F46     		mov	r7, r3
 6165              	.LVL684:
1746:Lib/AI_Runtime/Npu/ll_aton/ll_aton.c **** #endif
 6166              		.loc 1 1746 11 view .LVU2363
 6167 02ca 9C46     		mov	ip, r3
 6168              	.LVL685:
1746:Lib/AI_Runtime/Npu/ll_aton/ll_aton.c **** #endif
 6169              		.loc 1 1746 11 view .LVU2364
 6170 02cc 7DE7     		b	.L390
 6171              	.LVL686:
 6172              	.L398:
1625:Lib/AI_Runtime/Npu/ll_aton/ll_aton.c **** 
 6173              		.loc 1 1625 12 view .LVU2365
 6174 02ce 4FF0FF30 		mov	r0, #-1
 6175              	.LVL687:
1625:Lib/AI_Runtime/Npu/ll_aton/ll_aton.c **** 
 6176              		.loc 1 1625 12 view .LVU2366
 6177 02d2 F3E7     		b	.L381
ARM GAS  C:\Users\DJESSOU\AppData\Local\Temp\ccFxekaC.s 			page 203


 6178              	.LVL688:
 6179              	.L401:
1649:Lib/AI_Runtime/Npu/ll_aton/ll_aton.c ****   }
 6180              		.loc 1 1649 12 view .LVU2367
 6181 02d4 6FF00100 		mvn	r0, #1
 6182 02d8 F0E7     		b	.L381
 6183              	.L423:
 6184 02da 00BF     		.align	2
 6185              	.L422:
 6186 02dc 00000000 		.word	Conv_ctrl_bits
 6187 02e0 24F00E58 		.word	1477373988
 6188 02e4 20F00E58 		.word	1477373984
 6189 02e8 10F00E58 		.word	1477373968
 6190 02ec 14F00E58 		.word	1477373972
 6191 02f0 08F00E58 		.word	1477373960
 6192 02f4 0000FFFF 		.word	-65536
 6193 02f8 0CF00E58 		.word	1477373964
 6194 02fc 18F00E58 		.word	1477373976
 6195 0300 1CF00E58 		.word	1477373980
 6196 0304 34F00E58 		.word	1477374004
 6197 0308 28F00E58 		.word	1477373992
 6198              		.cfi_endproc
 6199              	.LFE306:
 6201              		.section	.text.LL_Activacc_Init,"ax",%progbits
 6202              		.align	1
 6203              		.global	LL_Activacc_Init
 6204              		.syntax unified
 6205              		.thumb
 6206              		.thumb_func
 6208              	LL_Activacc_Init:
 6209              	.LVL689:
 6210              	.LFB308:
1875:Lib/AI_Runtime/Npu/ll_aton/ll_aton.c ****   uint32_t t;
 6211              		.loc 1 1875 1 is_stmt 1 view -0
 6212              		.cfi_startproc
 6213              		@ args = 0, pretend = 0, frame = 0
 6214              		@ frame_needed = 0, uses_anonymous_args = 0
1876:Lib/AI_Runtime/Npu/ll_aton/ll_aton.c **** 
 6215              		.loc 1 1876 3 view .LVU2369
1878:Lib/AI_Runtime/Npu/ll_aton/ll_aton.c ****     return LL_ATON_INVALID_ID;
 6216              		.loc 1 1878 3 view .LVU2370
1878:Lib/AI_Runtime/Npu/ll_aton/ll_aton.c ****     return LL_ATON_INVALID_ID;
 6217              		.loc 1 1878 6 is_stmt 0 view .LVU2371
 6218 0000 0128     		cmp	r0, #1
1875:Lib/AI_Runtime/Npu/ll_aton/ll_aton.c ****   uint32_t t;
 6219              		.loc 1 1875 1 view .LVU2372
 6220 0002 F8B5     		push	{r3, r4, r5, r6, r7, lr}
 6221              		.cfi_def_cfa_offset 24
 6222              		.cfi_offset 3, -24
 6223              		.cfi_offset 4, -20
 6224              		.cfi_offset 5, -16
 6225              		.cfi_offset 6, -12
 6226              		.cfi_offset 7, -8
 6227              		.cfi_offset 14, -4
1875:Lib/AI_Runtime/Npu/ll_aton/ll_aton.c ****   uint32_t t;
 6228              		.loc 1 1875 1 view .LVU2373
 6229 0004 0446     		mov	r4, r0
ARM GAS  C:\Users\DJESSOU\AppData\Local\Temp\ccFxekaC.s 			page 204


 6230 0006 0D46     		mov	r5, r1
1878:Lib/AI_Runtime/Npu/ll_aton/ll_aton.c ****     return LL_ATON_INVALID_ID;
 6231              		.loc 1 1878 6 view .LVU2374
 6232 0008 00F3AE80 		bgt	.L438
1881:Lib/AI_Runtime/Npu/ll_aton/ll_aton.c **** 
 6233              		.loc 1 1881 3 is_stmt 1 view .LVU2375
1881:Lib/AI_Runtime/Npu/ll_aton/ll_aton.c **** 
 6234              		.loc 1 1881 3 is_stmt 0 discriminator 4 view .LVU2376
 6235 000c 1030     		adds	r0, r0, #16
 6236              	.LVL690:
1881:Lib/AI_Runtime/Npu/ll_aton/ll_aton.c **** 
 6237              		.loc 1 1881 3 discriminator 4 view .LVU2377
 6238 000e FFF7FEFF 		bl	LL_ATON_EnableClock
 6239              	.LVL691:
1883:Lib/AI_Runtime/Npu/ll_aton/ll_aton.c ****   t = ATON_ACTIV_CTRL_SET_TYPE(t, get_Activacc_type(conf->operation));
 6240              		.loc 1 1883 3 is_stmt 1 view .LVU2378
1884:Lib/AI_Runtime/Npu/ll_aton/ll_aton.c ****   t = ATON_ACTIV_CTRL_SET_FBYTES(t, conf->inbytes_f);
 6241              		.loc 1 1884 3 view .LVU2379
1884:Lib/AI_Runtime/Npu/ll_aton/ll_aton.c ****   t = ATON_ACTIV_CTRL_SET_FBYTES(t, conf->inbytes_f);
 6242              		.loc 1 1884 7 is_stmt 0 view .LVU2380
 6243 0012 95F82C10 		ldrb	r1, [r5, #44]	@ zero_extendqisi2
 6244              	.LVL692:
 6245              	.LBB147:
 6246              	.LBI147:
1845:Lib/AI_Runtime/Npu/ll_aton/ll_aton.c **** {
 6247              		.loc 1 1845 16 is_stmt 1 view .LVU2381
 6248              	.LBB148:
1847:Lib/AI_Runtime/Npu/ll_aton/ll_aton.c ****   {
 6249              		.loc 1 1847 3 view .LVU2382
 6250 0016 4F1E     		subs	r7, r1, #1
 6251 0018 FBB2     		uxtb	r3, r7
 6252 001a 032B     		cmp	r3, #3
 6253 001c 4AD8     		bhi	.L426
 6254              	.LVL693:
1847:Lib/AI_Runtime/Npu/ll_aton/ll_aton.c ****   {
 6255              		.loc 1 1847 3 is_stmt 0 view .LVU2383
 6256              	.LBE148:
 6257              	.LBE147:
1885:Lib/AI_Runtime/Npu/ll_aton/ll_aton.c ****   t = ATON_ACTIV_CTRL_SET_FSHIFT(t, ATON_SHIFT(conf->shift_f));
 6258              		.loc 1 1885 3 is_stmt 1 view .LVU2384
1886:Lib/AI_Runtime/Npu/ll_aton/ll_aton.c ****   t = ATON_ACTIV_CTRL_SET_FROUND(t, conf->rounding_f);
 6259              		.loc 1 1886 3 view .LVU2385
1887:Lib/AI_Runtime/Npu/ll_aton/ll_aton.c ****   t = ATON_ACTIV_CTRL_SET_FSAT(t, (conf->saturation_f != 0));
 6260              		.loc 1 1887 3 view .LVU2386
1888:Lib/AI_Runtime/Npu/ll_aton/ll_aton.c ****   t = ATON_ACTIV_CTRL_SET_FRNDMODE(t, conf->round_mode_f);
 6261              		.loc 1 1888 3 view .LVU2387
1889:Lib/AI_Runtime/Npu/ll_aton/ll_aton.c ****   t = ATON_ACTIV_CTRL_SET_FOBYTES(t, conf->outbytes_f);
 6262              		.loc 1 1889 3 view .LVU2388
1890:Lib/AI_Runtime/Npu/ll_aton/ll_aton.c **** 
 6263              		.loc 1 1890 3 view .LVU2389
1892:Lib/AI_Runtime/Npu/ll_aton/ll_aton.c ****   t = ATON_ACTIV_CTRL_SET_SAT(t, (conf->saturation_o != 0));
 6264              		.loc 1 1892 3 view .LVU2390
1885:Lib/AI_Runtime/Npu/ll_aton/ll_aton.c ****   t = ATON_ACTIV_CTRL_SET_FSHIFT(t, ATON_SHIFT(conf->shift_f));
 6265              		.loc 1 1885 7 is_stmt 0 view .LVU2391
 6266 001e 2878     		ldrb	r0, [r5]	@ zero_extendqisi2
1892:Lib/AI_Runtime/Npu/ll_aton/ll_aton.c ****   t = ATON_ACTIV_CTRL_SET_SAT(t, (conf->saturation_o != 0));
 6267              		.loc 1 1892 7 view .LVU2392
ARM GAS  C:\Users\DJESSOU\AppData\Local\Temp\ccFxekaC.s 			page 205


 6268 0020 6A78     		ldrb	r2, [r5, #1]	@ zero_extendqisi2
 6269              	.LVL694:
1893:Lib/AI_Runtime/Npu/ll_aton/ll_aton.c ****   t = ATON_ACTIV_CTRL_SET_OBYTES(t, conf->outbytes_o);
 6270              		.loc 1 1893 3 is_stmt 1 view .LVU2393
1894:Lib/AI_Runtime/Npu/ll_aton/ll_aton.c ****   t = ATON_ACTIV_CTRL_SET_ORNDMODE(t, (conf->relu_mode_o << 1) | conf->round_mode_o);
 6271              		.loc 1 1894 3 view .LVU2394
1887:Lib/AI_Runtime/Npu/ll_aton/ll_aton.c ****   t = ATON_ACTIV_CTRL_SET_FSAT(t, (conf->saturation_f != 0));
 6272              		.loc 1 1887 7 is_stmt 0 view .LVU2395
 6273 0022 00F00103 		and	r3, r0, #1
1885:Lib/AI_Runtime/Npu/ll_aton/ll_aton.c ****   t = ATON_ACTIV_CTRL_SET_FSHIFT(t, ATON_SHIFT(conf->shift_f));
 6274              		.loc 1 1885 7 view .LVU2396
 6275 0026 C0F30116 		ubfx	r6, r0, #4, #2
1887:Lib/AI_Runtime/Npu/ll_aton/ll_aton.c ****   t = ATON_ACTIV_CTRL_SET_FSAT(t, (conf->saturation_f != 0));
 6276              		.loc 1 1887 7 view .LVU2397
 6277 002a 9B03     		lsls	r3, r3, #14
1890:Lib/AI_Runtime/Npu/ll_aton/ll_aton.c **** 
 6278              		.loc 1 1890 7 view .LVU2398
 6279 002c 43EA8613 		orr	r3, r3, r6, lsl #6
1886:Lib/AI_Runtime/Npu/ll_aton/ll_aton.c ****   t = ATON_ACTIV_CTRL_SET_FROUND(t, conf->rounding_f);
 6280              		.loc 1 1886 7 view .LVU2399
 6281 0030 AE78     		ldrb	r6, [r5, #2]	@ zero_extendqisi2
1896:Lib/AI_Runtime/Npu/ll_aton/ll_aton.c **** 
 6282              		.loc 1 1896 3 discriminator 1 view .LVU2400
 6283 0032 2403     		lsls	r4, r4, #12
 6284              	.LVL695:
1886:Lib/AI_Runtime/Npu/ll_aton/ll_aton.c ****   t = ATON_ACTIV_CTRL_SET_FROUND(t, conf->rounding_f);
 6285              		.loc 1 1886 7 view .LVU2401
 6286 0034 1036     		adds	r6, r6, #16
 6287              	.LVL696:
1886:Lib/AI_Runtime/Npu/ll_aton/ll_aton.c ****   t = ATON_ACTIV_CTRL_SET_FROUND(t, conf->rounding_f);
 6288              		.loc 1 1886 7 view .LVU2402
 6289 0036 3602     		lsls	r6, r6, #8
 6290              	.LVL697:
1886:Lib/AI_Runtime/Npu/ll_aton/ll_aton.c ****   t = ATON_ACTIV_CTRL_SET_FROUND(t, conf->rounding_f);
 6291              		.loc 1 1886 7 view .LVU2403
 6292 0038 06F47C56 		and	r6, r6, #16128
1890:Lib/AI_Runtime/Npu/ll_aton/ll_aton.c **** 
 6293              		.loc 1 1890 7 view .LVU2404
 6294 003c 3343     		orrs	r3, r3, r6
1889:Lib/AI_Runtime/Npu/ll_aton/ll_aton.c ****   t = ATON_ACTIV_CTRL_SET_FOBYTES(t, conf->outbytes_f);
 6295              		.loc 1 1889 7 view .LVU2405
 6296 003e C0F38106 		ubfx	r6, r0, #2, #2
1890:Lib/AI_Runtime/Npu/ll_aton/ll_aton.c **** 
 6297              		.loc 1 1890 7 view .LVU2406
 6298 0042 43EA0643 		orr	r3, r3, r6, lsl #16
1888:Lib/AI_Runtime/Npu/ll_aton/ll_aton.c ****   t = ATON_ACTIV_CTRL_SET_FRNDMODE(t, conf->round_mode_f);
 6299              		.loc 1 1888 7 view .LVU2407
 6300 0046 8603     		lsls	r6, r0, #14
 6301 0048 06F40046 		and	r6, r6, #32768
 6302              	.LVL698:
1890:Lib/AI_Runtime/Npu/ll_aton/ll_aton.c **** 
 6303              		.loc 1 1890 7 view .LVU2408
 6304 004c 43EA8703 		orr	r3, r3, r7, lsl #2
 6305 0050 3343     		orrs	r3, r3, r6
1892:Lib/AI_Runtime/Npu/ll_aton/ll_aton.c ****   t = ATON_ACTIV_CTRL_SET_SAT(t, (conf->saturation_o != 0));
 6306              		.loc 1 1892 7 view .LVU2409
 6307 0052 1605     		lsls	r6, r2, #20
ARM GAS  C:\Users\DJESSOU\AppData\Local\Temp\ccFxekaC.s 			page 206


 6308              	.LVL699:
1893:Lib/AI_Runtime/Npu/ll_aton/ll_aton.c ****   t = ATON_ACTIV_CTRL_SET_OBYTES(t, conf->outbytes_o);
 6309              		.loc 1 1893 5 view .LVU2410
 6310 0054 06F44016 		and	r6, r6, #3145728
1890:Lib/AI_Runtime/Npu/ll_aton/ll_aton.c **** 
 6311              		.loc 1 1890 7 view .LVU2411
 6312 0058 8009     		lsrs	r0, r0, #6
1893:Lib/AI_Runtime/Npu/ll_aton/ll_aton.c ****   t = ATON_ACTIV_CTRL_SET_OBYTES(t, conf->outbytes_o);
 6313              		.loc 1 1893 5 view .LVU2412
 6314 005a 23F44003 		bic	r3, r3, #12582912
 6315 005e 46EA8040 		orr	r0, r6, r0, lsl #18
 6316 0062 23F00303 		bic	r3, r3, #3
1894:Lib/AI_Runtime/Npu/ll_aton/ll_aton.c ****   t = ATON_ACTIV_CTRL_SET_ORNDMODE(t, (conf->relu_mode_o << 1) | conf->round_mode_o);
 6317              		.loc 1 1894 7 view .LVU2413
 6318 0066 0343     		orrs	r3, r3, r0
 6319              	.LVL700:
1895:Lib/AI_Runtime/Npu/ll_aton/ll_aton.c ****   ATON_ACTIV_CTRL_SET(id, t);
 6320              		.loc 1 1895 3 is_stmt 1 view .LVU2414
1894:Lib/AI_Runtime/Npu/ll_aton/ll_aton.c ****   t = ATON_ACTIV_CTRL_SET_ORNDMODE(t, (conf->relu_mode_o << 1) | conf->round_mode_o);
 6321              		.loc 1 1894 7 is_stmt 0 view .LVU2415
 6322 0068 C2F30110 		ubfx	r0, r2, #4, #2
1895:Lib/AI_Runtime/Npu/ll_aton/ll_aton.c ****   ATON_ACTIV_CTRL_SET(id, t);
 6323              		.loc 1 1895 7 view .LVU2416
 6324 006c C2F38106 		ubfx	r6, r2, #2, #2
1894:Lib/AI_Runtime/Npu/ll_aton/ll_aton.c ****   t = ATON_ACTIV_CTRL_SET_ORNDMODE(t, (conf->relu_mode_o << 1) | conf->round_mode_o);
 6325              		.loc 1 1894 7 view .LVU2417
 6326 0070 8005     		lsls	r0, r0, #22
1895:Lib/AI_Runtime/Npu/ll_aton/ll_aton.c ****   ATON_ACTIV_CTRL_SET(id, t);
 6327              		.loc 1 1895 5 view .LVU2418
 6328 0072 40EA0660 		orr	r0, r0, r6, lsl #24
 6329 0076 0343     		orrs	r3, r3, r0
 6330              	.LVL701:
1896:Lib/AI_Runtime/Npu/ll_aton/ll_aton.c **** 
 6331              		.loc 1 1896 3 is_stmt 1 view .LVU2419
1896:Lib/AI_Runtime/Npu/ll_aton/ll_aton.c **** 
 6332              		.loc 1 1896 3 view .LVU2420
1896:Lib/AI_Runtime/Npu/ll_aton/ll_aton.c **** 
 6333              		.loc 1 1896 3 view .LVU2421
1896:Lib/AI_Runtime/Npu/ll_aton/ll_aton.c **** 
 6334              		.loc 1 1896 3 is_stmt 0 discriminator 1 view .LVU2422
 6335 0078 04F1B040 		add	r0, r4, #1476395008
 6336 007c 00F57520 		add	r0, r0, #1003520
1896:Lib/AI_Runtime/Npu/ll_aton/ll_aton.c **** 
 6337              		.loc 1 1896 3 discriminator 4 view .LVU2423
 6338 0080 0360     		str	r3, [r0]
1896:Lib/AI_Runtime/Npu/ll_aton/ll_aton.c **** 
 6339              		.loc 1 1896 3 is_stmt 1 discriminator 4 view .LVU2424
1896:Lib/AI_Runtime/Npu/ll_aton/ll_aton.c **** 
 6340              		.loc 1 1896 3 discriminator 4 view .LVU2425
1899:Lib/AI_Runtime/Npu/ll_aton/ll_aton.c ****   {
 6341              		.loc 1 1899 3 view .LVU2426
1899:Lib/AI_Runtime/Npu/ll_aton/ll_aton.c ****   {
 6342              		.loc 1 1899 11 is_stmt 0 view .LVU2427
 6343 0082 AB6A     		ldr	r3, [r5, #40]
 6344              	.LVL702:
1899:Lib/AI_Runtime/Npu/ll_aton/ll_aton.c ****   {
 6345              		.loc 1 1899 6 view .LVU2428
ARM GAS  C:\Users\DJESSOU\AppData\Local\Temp\ccFxekaC.s 			page 207


 6346 0084 EBB9     		cbnz	r3, .L427
 6347              	.LVL703:
 6348              	.L428:
1903:Lib/AI_Runtime/Npu/ll_aton/ll_aton.c ****   }
 6349              		.loc 1 1903 5 is_stmt 1 discriminator 5 view .LVU2429
1903:Lib/AI_Runtime/Npu/ll_aton/ll_aton.c ****   }
 6350              		.loc 1 1903 5 discriminator 5 view .LVU2430
1907:Lib/AI_Runtime/Npu/ll_aton/ll_aton.c ****   {
 6351              		.loc 1 1907 3 view .LVU2431
1922:Lib/AI_Runtime/Npu/ll_aton/ll_aton.c ****     ATON_ACTIV_FUNC_SET(id, t);
 6352              		.loc 1 1922 9 is_stmt 0 view .LVU2432
 6353 0086 95F803E0 		ldrb	lr, [r5, #3]	@ zero_extendqisi2
1921:Lib/AI_Runtime/Npu/ll_aton/ll_aton.c ****     t = ATON_ACTIV_FUNC_SET_OUTSHIFT(t, conf->shift_o);
 6354              		.loc 1 1921 9 view .LVU2433
 6355 008a 9203     		lsls	r2, r2, #14
1907:Lib/AI_Runtime/Npu/ll_aton/ll_aton.c ****   {
 6356              		.loc 1 1907 3 view .LVU2434
 6357 008c 0429     		cmp	r1, #4
1913:Lib/AI_Runtime/Npu/ll_aton/ll_aton.c ****     ATON_ACTIV_ACTIVPARAM_SET(id, t);
 6358              		.loc 1 1913 9 view .LVU2435
 6359 008e AF88     		ldrh	r7, [r5, #4]
1914:Lib/AI_Runtime/Npu/ll_aton/ll_aton.c **** 
 6360              		.loc 1 1914 5 discriminator 1 view .LVU2436
 6361 0090 374E     		ldr	r6, .L442
1923:Lib/AI_Runtime/Npu/ll_aton/ll_aton.c ****     break;
 6362              		.loc 1 1923 5 discriminator 1 view .LVU2437
 6363 0092 DFF8F4C0 		ldr	ip, .L442+24
1921:Lib/AI_Runtime/Npu/ll_aton/ll_aton.c ****     t = ATON_ACTIV_FUNC_SET_OUTSHIFT(t, conf->shift_o);
 6364              		.loc 1 1921 9 view .LVU2438
 6365 0096 02F48012 		and	r2, r2, #1048576
1922:Lib/AI_Runtime/Npu/ll_aton/ll_aton.c ****     ATON_ACTIV_FUNC_SET(id, t);
 6366              		.loc 1 1922 9 view .LVU2439
 6367 009a 0EF03F0E 		and	lr, lr, #63
1907:Lib/AI_Runtime/Npu/ll_aton/ll_aton.c ****   {
 6368              		.loc 1 1907 3 view .LVU2440
 6369 009e 15D0     		beq	.L429
1912:Lib/AI_Runtime/Npu/ll_aton/ll_aton.c ****     t = ATON_ACTIV_ACTIVPARAM_SET_PARAM(t, conf->parameter);
 6370              		.loc 1 1912 5 is_stmt 1 view .LVU2441
 6371              	.LVL704:
1913:Lib/AI_Runtime/Npu/ll_aton/ll_aton.c ****     ATON_ACTIV_ACTIVPARAM_SET(id, t);
 6372              		.loc 1 1913 5 view .LVU2442
1914:Lib/AI_Runtime/Npu/ll_aton/ll_aton.c **** 
 6373              		.loc 1 1914 5 view .LVU2443
1914:Lib/AI_Runtime/Npu/ll_aton/ll_aton.c **** 
 6374              		.loc 1 1914 5 view .LVU2444
1914:Lib/AI_Runtime/Npu/ll_aton/ll_aton.c **** 
 6375              		.loc 1 1914 5 view .LVU2445
1917:Lib/AI_Runtime/Npu/ll_aton/ll_aton.c ****     ATON_ACTIV_ACTIVPARAM2_SET(id, t);
 6376              		.loc 1 1917 9 is_stmt 0 view .LVU2446
 6377 00a0 2989     		ldrh	r1, [r5, #8]
1918:Lib/AI_Runtime/Npu/ll_aton/ll_aton.c **** 
 6378              		.loc 1 1918 5 discriminator 1 view .LVU2447
 6379 00a2 344B     		ldr	r3, .L442+4
1922:Lib/AI_Runtime/Npu/ll_aton/ll_aton.c ****     ATON_ACTIV_FUNC_SET(id, t);
 6380              		.loc 1 1922 7 view .LVU2448
 6381 00a4 4EEA0202 		orr	r2, lr, r2
1914:Lib/AI_Runtime/Npu/ll_aton/ll_aton.c **** 
ARM GAS  C:\Users\DJESSOU\AppData\Local\Temp\ccFxekaC.s 			page 208


 6382              		.loc 1 1914 5 discriminator 4 view .LVU2449
 6383 00a8 A751     		str	r7, [r4, r6]
1914:Lib/AI_Runtime/Npu/ll_aton/ll_aton.c **** 
 6384              		.loc 1 1914 5 is_stmt 1 discriminator 4 view .LVU2450
1914:Lib/AI_Runtime/Npu/ll_aton/ll_aton.c **** 
 6385              		.loc 1 1914 5 discriminator 4 view .LVU2451
1916:Lib/AI_Runtime/Npu/ll_aton/ll_aton.c ****     t = ATON_ACTIV_ACTIVPARAM2_SET_PARAM2(t, conf->parameter_2);
 6386              		.loc 1 1916 5 view .LVU2452
 6387              	.LVL705:
1917:Lib/AI_Runtime/Npu/ll_aton/ll_aton.c ****     ATON_ACTIV_ACTIVPARAM2_SET(id, t);
 6388              		.loc 1 1917 5 view .LVU2453
1918:Lib/AI_Runtime/Npu/ll_aton/ll_aton.c **** 
 6389              		.loc 1 1918 5 view .LVU2454
1918:Lib/AI_Runtime/Npu/ll_aton/ll_aton.c **** 
 6390              		.loc 1 1918 5 view .LVU2455
1918:Lib/AI_Runtime/Npu/ll_aton/ll_aton.c **** 
 6391              		.loc 1 1918 5 view .LVU2456
1918:Lib/AI_Runtime/Npu/ll_aton/ll_aton.c **** 
 6392              		.loc 1 1918 5 is_stmt 0 discriminator 4 view .LVU2457
 6393 00aa E150     		str	r1, [r4, r3]
1918:Lib/AI_Runtime/Npu/ll_aton/ll_aton.c **** 
 6394              		.loc 1 1918 5 is_stmt 1 discriminator 4 view .LVU2458
1918:Lib/AI_Runtime/Npu/ll_aton/ll_aton.c **** 
 6395              		.loc 1 1918 5 discriminator 4 view .LVU2459
1920:Lib/AI_Runtime/Npu/ll_aton/ll_aton.c ****     t = ATON_ACTIV_FUNC_SET_SIGNEDOP(t, (conf->signedop != 0));
 6396              		.loc 1 1920 5 view .LVU2460
 6397              	.LVL706:
1921:Lib/AI_Runtime/Npu/ll_aton/ll_aton.c ****     t = ATON_ACTIV_FUNC_SET_OUTSHIFT(t, conf->shift_o);
 6398              		.loc 1 1921 5 view .LVU2461
1922:Lib/AI_Runtime/Npu/ll_aton/ll_aton.c ****     ATON_ACTIV_FUNC_SET(id, t);
 6399              		.loc 1 1922 5 view .LVU2462
1923:Lib/AI_Runtime/Npu/ll_aton/ll_aton.c ****     break;
 6400              		.loc 1 1923 5 view .LVU2463
1923:Lib/AI_Runtime/Npu/ll_aton/ll_aton.c ****     break;
 6401              		.loc 1 1923 5 view .LVU2464
1923:Lib/AI_Runtime/Npu/ll_aton/ll_aton.c ****     break;
 6402              		.loc 1 1923 5 view .LVU2465
1923:Lib/AI_Runtime/Npu/ll_aton/ll_aton.c ****     break;
 6403              		.loc 1 1923 5 is_stmt 0 discriminator 4 view .LVU2466
 6404 00ac 44F80C20 		str	r2, [r4, ip]
1923:Lib/AI_Runtime/Npu/ll_aton/ll_aton.c ****     break;
 6405              		.loc 1 1923 5 is_stmt 1 discriminator 4 view .LVU2467
1923:Lib/AI_Runtime/Npu/ll_aton/ll_aton.c ****     break;
 6406              		.loc 1 1923 5 discriminator 4 view .LVU2468
1924:Lib/AI_Runtime/Npu/ll_aton/ll_aton.c ****   case ACTIV_FUNC:
 6407              		.loc 1 1924 5 view .LVU2469
 6408              	.LVL707:
 6409              	.L437:
1988:Lib/AI_Runtime/Npu/ll_aton/ll_aton.c **** }
 6410              		.loc 1 1988 10 is_stmt 0 view .LVU2470
 6411 00b0 0020     		movs	r0, #0
 6412              	.L424:
1989:Lib/AI_Runtime/Npu/ll_aton/ll_aton.c **** #endif // ATON_ACTIV_NUM
 6413              		.loc 1 1989 1 view .LVU2471
 6414 00b2 F8BD     		pop	{r3, r4, r5, r6, r7, pc}
 6415              	.LVL708:
 6416              	.L426:
ARM GAS  C:\Users\DJESSOU\AppData\Local\Temp\ccFxekaC.s 			page 209


 6417              	.LBB150:
 6418              	.LBB149:
1862:Lib/AI_Runtime/Npu/ll_aton/ll_aton.c ****   }
 6419              		.loc 1 1862 5 is_stmt 1 view .LVU2472
1864:Lib/AI_Runtime/Npu/ll_aton/ll_aton.c ****   return 0;
 6420              		.loc 1 1864 3 view .LVU2473
 6421 00b4 4FF4E961 		mov	r1, #1864
 6422              	.LVL709:
1864:Lib/AI_Runtime/Npu/ll_aton/ll_aton.c ****   return 0;
 6423              		.loc 1 1864 3 is_stmt 0 view .LVU2474
 6424 00b8 2F4B     		ldr	r3, .L442+8
 6425 00ba 304A     		ldr	r2, .L442+12
 6426 00bc 3048     		ldr	r0, .L442+16
 6427 00be FFF7FEFF 		bl	__assert_func
 6428              	.LVL710:
 6429              	.L427:
1864:Lib/AI_Runtime/Npu/ll_aton/ll_aton.c ****   return 0;
 6430              		.loc 1 1864 3 view .LVU2475
 6431              	.LBE149:
 6432              	.LBE150:
1901:Lib/AI_Runtime/Npu/ll_aton/ll_aton.c ****     t = ATON_ACTIV_FSUB_SET_FSUB(t, conf->fsub);
 6433              		.loc 1 1901 5 is_stmt 1 view .LVU2476
1902:Lib/AI_Runtime/Npu/ll_aton/ll_aton.c ****     ATON_ACTIV_FSUB_SET(id, t);
 6434              		.loc 1 1902 5 view .LVU2477
1903:Lib/AI_Runtime/Npu/ll_aton/ll_aton.c ****   }
 6435              		.loc 1 1903 5 is_stmt 0 discriminator 1 view .LVU2478
 6436 00c2 304E     		ldr	r6, .L442+20
1902:Lib/AI_Runtime/Npu/ll_aton/ll_aton.c ****     ATON_ACTIV_FSUB_SET(id, t);
 6437              		.loc 1 1902 9 view .LVU2479
 6438 00c4 23F07F43 		bic	r3, r3, #-16777216
 6439              	.LVL711:
1903:Lib/AI_Runtime/Npu/ll_aton/ll_aton.c ****   }
 6440              		.loc 1 1903 5 is_stmt 1 view .LVU2480
1903:Lib/AI_Runtime/Npu/ll_aton/ll_aton.c ****   }
 6441              		.loc 1 1903 5 view .LVU2481
1903:Lib/AI_Runtime/Npu/ll_aton/ll_aton.c ****   }
 6442              		.loc 1 1903 5 view .LVU2482
1903:Lib/AI_Runtime/Npu/ll_aton/ll_aton.c ****   }
 6443              		.loc 1 1903 5 is_stmt 0 discriminator 4 view .LVU2483
 6444 00c8 A351     		str	r3, [r4, r6]
 6445 00ca DCE7     		b	.L428
 6446              	.LVL712:
 6447              	.L429:
1927:Lib/AI_Runtime/Npu/ll_aton/ll_aton.c ****     t = ATON_ACTIV_FUNC_SET_SIGNEDOP(t, (conf->signedop != 0));
 6448              		.loc 1 1927 5 is_stmt 1 view .LVU2484
1928:Lib/AI_Runtime/Npu/ll_aton/ll_aton.c ****     t = ATON_ACTIV_FUNC_SET_OUTSHIFT(t, conf->shift_o);
 6449              		.loc 1 1928 5 view .LVU2485
1929:Lib/AI_Runtime/Npu/ll_aton/ll_aton.c ****     t = ATON_ACTIV_FUNC_SET_BSHIFT(t, conf->shift_b);
 6450              		.loc 1 1929 5 view .LVU2486
1930:Lib/AI_Runtime/Npu/ll_aton/ll_aton.c ****     t = ATON_ACTIV_FUNC_SET_CSHIFT(t, conf->shift_c);
 6451              		.loc 1 1930 5 view .LVU2487
1930:Lib/AI_Runtime/Npu/ll_aton/ll_aton.c ****     t = ATON_ACTIV_FUNC_SET_CSHIFT(t, conf->shift_c);
 6452              		.loc 1 1930 9 is_stmt 0 view .LVU2488
 6453 00cc 95F82430 		ldrb	r3, [r5, #36]	@ zero_extendqisi2
 6454 00d0 1B03     		lsls	r3, r3, #12
 6455 00d2 03F4F833 		and	r3, r3, #126976
1930:Lib/AI_Runtime/Npu/ll_aton/ll_aton.c ****     t = ATON_ACTIV_FUNC_SET_CSHIFT(t, conf->shift_c);
ARM GAS  C:\Users\DJESSOU\AppData\Local\Temp\ccFxekaC.s 			page 210


 6456              		.loc 1 1930 7 view .LVU2489
 6457 00d6 1A43     		orrs	r2, r2, r3
1931:Lib/AI_Runtime/Npu/ll_aton/ll_aton.c ****     t = ATON_ACTIV_FUNC_SET_BWIDTH(t, conf->bwidth);
 6458              		.loc 1 1931 9 view .LVU2490
 6459 00d8 95F82530 		ldrb	r3, [r5, #37]	@ zero_extendqisi2
1930:Lib/AI_Runtime/Npu/ll_aton/ll_aton.c ****     t = ATON_ACTIV_FUNC_SET_CSHIFT(t, conf->shift_c);
 6460              		.loc 1 1930 7 view .LVU2491
 6461 00dc 42EA0E02 		orr	r2, r2, lr
 6462              	.LVL713:
1931:Lib/AI_Runtime/Npu/ll_aton/ll_aton.c ****     t = ATON_ACTIV_FUNC_SET_BWIDTH(t, conf->bwidth);
 6463              		.loc 1 1931 5 is_stmt 1 view .LVU2492
1931:Lib/AI_Runtime/Npu/ll_aton/ll_aton.c ****     t = ATON_ACTIV_FUNC_SET_BWIDTH(t, conf->bwidth);
 6464              		.loc 1 1931 9 is_stmt 0 view .LVU2493
 6465 00e0 9B01     		lsls	r3, r3, #6
 6466 00e2 03F47C63 		and	r3, r3, #4032
1931:Lib/AI_Runtime/Npu/ll_aton/ll_aton.c ****     t = ATON_ACTIV_FUNC_SET_BWIDTH(t, conf->bwidth);
 6467              		.loc 1 1931 7 view .LVU2494
 6468 00e6 1A43     		orrs	r2, r2, r3
 6469              	.LVL714:
1932:Lib/AI_Runtime/Npu/ll_aton/ll_aton.c ****     ATON_ACTIV_FUNC_SET(id, t);
 6470              		.loc 1 1932 5 is_stmt 1 view .LVU2495
1932:Lib/AI_Runtime/Npu/ll_aton/ll_aton.c ****     ATON_ACTIV_FUNC_SET(id, t);
 6471              		.loc 1 1932 9 is_stmt 0 view .LVU2496
 6472 00e8 95F82730 		ldrb	r3, [r5, #39]	@ zero_extendqisi2
 6473 00ec DB05     		lsls	r3, r3, #23
 6474 00ee 03F06073 		and	r3, r3, #58720256
1932:Lib/AI_Runtime/Npu/ll_aton/ll_aton.c ****     ATON_ACTIV_FUNC_SET(id, t);
 6475              		.loc 1 1932 7 view .LVU2497
 6476 00f2 1343     		orrs	r3, r3, r2
 6477              	.LVL715:
1933:Lib/AI_Runtime/Npu/ll_aton/ll_aton.c **** 
 6478              		.loc 1 1933 5 is_stmt 1 view .LVU2498
1933:Lib/AI_Runtime/Npu/ll_aton/ll_aton.c **** 
 6479              		.loc 1 1933 5 view .LVU2499
1933:Lib/AI_Runtime/Npu/ll_aton/ll_aton.c **** 
 6480              		.loc 1 1933 5 view .LVU2500
1933:Lib/AI_Runtime/Npu/ll_aton/ll_aton.c **** 
 6481              		.loc 1 1933 5 is_stmt 0 discriminator 4 view .LVU2501
 6482 00f4 44F80C30 		str	r3, [r4, ip]
1933:Lib/AI_Runtime/Npu/ll_aton/ll_aton.c **** 
 6483              		.loc 1 1933 5 is_stmt 1 discriminator 4 view .LVU2502
1933:Lib/AI_Runtime/Npu/ll_aton/ll_aton.c **** 
 6484              		.loc 1 1933 5 discriminator 4 view .LVU2503
1935:Lib/AI_Runtime/Npu/ll_aton/ll_aton.c ****     t = ATON_ACTIV_ACTIVPARAM_SET_PARAM(t, conf->parameter);
 6485              		.loc 1 1935 5 view .LVU2504
 6486              	.LVL716:
1936:Lib/AI_Runtime/Npu/ll_aton/ll_aton.c ****     t = ATON_ACTIV_ACTIVPARAM_SET_FUNC(t, conf->shift_norm);
 6487              		.loc 1 1936 5 view .LVU2505
1937:Lib/AI_Runtime/Npu/ll_aton/ll_aton.c ****     ATON_ACTIV_ACTIVPARAM_SET(id, t);
 6488              		.loc 1 1937 5 view .LVU2506
1937:Lib/AI_Runtime/Npu/ll_aton/ll_aton.c ****     ATON_ACTIV_ACTIVPARAM_SET(id, t);
 6489              		.loc 1 1937 9 is_stmt 0 view .LVU2507
 6490 00f8 95F82630 		ldrb	r3, [r5, #38]	@ zero_extendqisi2
 6491 00fc EA69     		ldr	r2, [r5, #28]
 6492 00fe 1B04     		lsls	r3, r3, #16
 6493 0100 03F47023 		and	r3, r3, #983040
1937:Lib/AI_Runtime/Npu/ll_aton/ll_aton.c ****     ATON_ACTIV_ACTIVPARAM_SET(id, t);
ARM GAS  C:\Users\DJESSOU\AppData\Local\Temp\ccFxekaC.s 			page 211


 6494              		.loc 1 1937 7 view .LVU2508
 6495 0104 3B43     		orrs	r3, r3, r7
 6496              	.LVL717:
1938:Lib/AI_Runtime/Npu/ll_aton/ll_aton.c **** 
 6497              		.loc 1 1938 5 is_stmt 1 view .LVU2509
1938:Lib/AI_Runtime/Npu/ll_aton/ll_aton.c **** 
 6498              		.loc 1 1938 5 view .LVU2510
1938:Lib/AI_Runtime/Npu/ll_aton/ll_aton.c **** 
 6499              		.loc 1 1938 5 view .LVU2511
1938:Lib/AI_Runtime/Npu/ll_aton/ll_aton.c **** 
 6500              		.loc 1 1938 5 is_stmt 0 discriminator 4 view .LVU2512
 6501 0106 A351     		str	r3, [r4, r6]
1938:Lib/AI_Runtime/Npu/ll_aton/ll_aton.c **** 
 6502              		.loc 1 1938 5 is_stmt 1 discriminator 4 view .LVU2513
1938:Lib/AI_Runtime/Npu/ll_aton/ll_aton.c **** 
 6503              		.loc 1 1938 5 discriminator 4 view .LVU2514
 6504              	.LBB151:
1941:Lib/AI_Runtime/Npu/ll_aton/ll_aton.c ****       unsigned ROM0_rows = conf->ROM0_nbytes / (1 * 1);
 6505              		.loc 1 1941 7 view .LVU2515
 6506              	.LBB152:
1943:Lib/AI_Runtime/Npu/ll_aton/ll_aton.c ****       {
 6507              		.loc 1 1943 16 is_stmt 0 view .LVU2516
 6508 0108 0023     		movs	r3, #0
 6509              	.LVL718:
1947:Lib/AI_Runtime/Npu/ll_aton/ll_aton.c ****       }
 6510              		.loc 1 1947 9 discriminator 5 view .LVU2517
 6511 010a 1E46     		mov	r6, r3
 6512              	.LVL719:
1947:Lib/AI_Runtime/Npu/ll_aton/ll_aton.c ****       }
 6513              		.loc 1 1947 9 discriminator 5 view .LVU2518
 6514              	.LBE152:
1941:Lib/AI_Runtime/Npu/ll_aton/ll_aton.c ****       unsigned ROM0_rows = conf->ROM0_nbytes / (1 * 1);
 6515              		.loc 1 1941 16 view .LVU2519
 6516 010c 2C69     		ldr	r4, [r5, #16]
 6517              	.LVL720:
1942:Lib/AI_Runtime/Npu/ll_aton/ll_aton.c ****       for (int i = 0; i < ROM0_rows; i++)
 6518              		.loc 1 1942 7 is_stmt 1 view .LVU2520
1943:Lib/AI_Runtime/Npu/ll_aton/ll_aton.c ****       {
 6519              		.loc 1 1943 7 view .LVU2521
 6520              	.LBB153:
1943:Lib/AI_Runtime/Npu/ll_aton/ll_aton.c ****       {
 6521              		.loc 1 1943 12 view .LVU2522
1947:Lib/AI_Runtime/Npu/ll_aton/ll_aton.c ****       }
 6522              		.loc 1 1947 9 is_stmt 0 discriminator 5 view .LVU2523
 6523 010e 0132     		adds	r2, r2, #1
 6524              	.LVL721:
 6525              	.L430:
1943:Lib/AI_Runtime/Npu/ll_aton/ll_aton.c ****       {
 6526              		.loc 1 1943 25 is_stmt 1 discriminator 1 view .LVU2524
 6527 0110 013A     		subs	r2, r2, #1
 6528 0112 1FD1     		bne	.L432
 6529              	.LBE153:
 6530              	.LBE151:
 6531              	.LBB155:
1951:Lib/AI_Runtime/Npu/ll_aton/ll_aton.c ****       unsigned ROM1_rows = conf->ROM1_nbytes / (3 * 2);
 6532              		.loc 1 1951 7 view .LVU2525
 6533              	.LVL722:
ARM GAS  C:\Users\DJESSOU\AppData\Local\Temp\ccFxekaC.s 			page 212


1952:Lib/AI_Runtime/Npu/ll_aton/ll_aton.c ****       for (int i = 0; i < ROM1_rows; i++)
 6534              		.loc 1 1952 7 view .LVU2526
1953:Lib/AI_Runtime/Npu/ll_aton/ll_aton.c ****       {
 6535              		.loc 1 1953 7 view .LVU2527
 6536              	.LBB156:
1953:Lib/AI_Runtime/Npu/ll_aton/ll_aton.c ****       {
 6537              		.loc 1 1953 12 view .LVU2528
1953:Lib/AI_Runtime/Npu/ll_aton/ll_aton.c ****       {
 6538              		.loc 1 1953 12 is_stmt 0 view .LVU2529
 6539              	.LBE156:
1952:Lib/AI_Runtime/Npu/ll_aton/ll_aton.c ****       for (int i = 0; i < ROM1_rows; i++)
 6540              		.loc 1 1952 16 view .LVU2530
 6541 0114 0622     		movs	r2, #6
 6542 0116 2B6A     		ldr	r3, [r5, #32]
 6543              	.LVL723:
 6544              	.LBB157:
1953:Lib/AI_Runtime/Npu/ll_aton/ll_aton.c ****       {
 6545              		.loc 1 1953 7 view .LVU2531
 6546 0118 40F60404 		movw	r4, #2052
 6547              	.LVL724:
1953:Lib/AI_Runtime/Npu/ll_aton/ll_aton.c ****       {
 6548              		.loc 1 1953 7 view .LVU2532
 6549              	.LBE157:
1952:Lib/AI_Runtime/Npu/ll_aton/ll_aton.c ****       for (int i = 0; i < ROM1_rows; i++)
 6550              		.loc 1 1952 16 view .LVU2533
 6551 011c B3FBF2F3 		udiv	r3, r3, r2
 6552              	.LVL725:
 6553              	.LBB158:
1953:Lib/AI_Runtime/Npu/ll_aton/ll_aton.c ****       {
 6554              		.loc 1 1953 16 view .LVU2534
 6555 0120 0022     		movs	r2, #0
1958:Lib/AI_Runtime/Npu/ll_aton/ll_aton.c ****         t = ATON_ACTIV_ROM1_C_DT;
 6556              		.loc 1 1958 9 discriminator 5 view .LVU2535
 6557 0122 1746     		mov	r7, r2
 6558 0124 6969     		ldr	r1, [r5, #20]
 6559 0126 0133     		adds	r3, r3, #1
 6560              	.LVL726:
 6561              	.L433:
1953:Lib/AI_Runtime/Npu/ll_aton/ll_aton.c ****       {
 6562              		.loc 1 1953 25 is_stmt 1 discriminator 1 view .LVU2536
 6563 0128 013B     		subs	r3, r3, #1
 6564 012a C1D0     		beq	.L437
1955:Lib/AI_Runtime/Npu/ll_aton/ll_aton.c ****         t = ATON_ACTIV_ROM1_AB_SET_A(t, R1p[3 * i + 0]);
 6565              		.loc 1 1955 9 view .LVU2537
 6566              	.LVL727:
1956:Lib/AI_Runtime/Npu/ll_aton/ll_aton.c ****         t = ATON_ACTIV_ROM1_AB_SET_B(t, R1p[3 * i + 1]);
 6567              		.loc 1 1956 9 view .LVU2538
1957:Lib/AI_Runtime/Npu/ll_aton/ll_aton.c ****         ATON_ACTIV_ROM1_AB_SET(id, i, t);
 6568              		.loc 1 1957 9 view .LVU2539
1957:Lib/AI_Runtime/Npu/ll_aton/ll_aton.c ****         ATON_ACTIV_ROM1_AB_SET(id, i, t);
 6569              		.loc 1 1957 13 is_stmt 0 view .LVU2540
 6570 012c 4D88     		ldrh	r5, [r1, #2]
1956:Lib/AI_Runtime/Npu/ll_aton/ll_aton.c ****         t = ATON_ACTIV_ROM1_AB_SET_B(t, R1p[3 * i + 1]);
 6571              		.loc 1 1956 13 view .LVU2541
 6572 012e 0E88     		ldrh	r6, [r1]
 6573              	.LVL728:
1958:Lib/AI_Runtime/Npu/ll_aton/ll_aton.c ****         t = ATON_ACTIV_ROM1_C_DT;
ARM GAS  C:\Users\DJESSOU\AppData\Local\Temp\ccFxekaC.s 			page 213


 6574              		.loc 1 1958 9 discriminator 5 view .LVU2542
 6575 0130 402A     		cmp	r2, #64
1957:Lib/AI_Runtime/Npu/ll_aton/ll_aton.c ****         ATON_ACTIV_ROM1_AB_SET(id, i, t);
 6576              		.loc 1 1957 11 view .LVU2543
 6577 0132 46EA0546 		orr	r6, r6, r5, lsl #16
 6578              	.LVL729:
1958:Lib/AI_Runtime/Npu/ll_aton/ll_aton.c ****         t = ATON_ACTIV_ROM1_C_DT;
 6579              		.loc 1 1958 9 is_stmt 1 view .LVU2544
1958:Lib/AI_Runtime/Npu/ll_aton/ll_aton.c ****         t = ATON_ACTIV_ROM1_C_DT;
 6580              		.loc 1 1958 9 view .LVU2545
1958:Lib/AI_Runtime/Npu/ll_aton/ll_aton.c ****         t = ATON_ACTIV_ROM1_C_DT;
 6581              		.loc 1 1958 9 view .LVU2546
1958:Lib/AI_Runtime/Npu/ll_aton/ll_aton.c ****         t = ATON_ACTIV_ROM1_C_DT;
 6582              		.loc 1 1958 9 is_stmt 0 discriminator 5 view .LVU2547
 6583 0136 A4F10405 		sub	r5, r4, #4
 6584 013a A8BF     		it	ge
 6585 013c 3D46     		movge	r5, r7
1961:Lib/AI_Runtime/Npu/ll_aton/ll_aton.c ****       }
 6586              		.loc 1 1961 9 discriminator 5 view .LVU2548
 6587 013e 3F2A     		cmp	r2, #63
1958:Lib/AI_Runtime/Npu/ll_aton/ll_aton.c ****         t = ATON_ACTIV_ROM1_C_DT;
 6588              		.loc 1 1958 9 discriminator 8 view .LVU2549
 6589 0140 4651     		str	r6, [r0, r5]
1958:Lib/AI_Runtime/Npu/ll_aton/ll_aton.c ****         t = ATON_ACTIV_ROM1_C_DT;
 6590              		.loc 1 1958 9 is_stmt 1 discriminator 8 view .LVU2550
1958:Lib/AI_Runtime/Npu/ll_aton/ll_aton.c ****         t = ATON_ACTIV_ROM1_C_DT;
 6591              		.loc 1 1958 9 discriminator 8 view .LVU2551
1959:Lib/AI_Runtime/Npu/ll_aton/ll_aton.c ****         t = ATON_ACTIV_ROM1_C_SET_C(t, R1p[3 * i + 2]);
 6592              		.loc 1 1959 9 view .LVU2552
 6593              	.LVL730:
1960:Lib/AI_Runtime/Npu/ll_aton/ll_aton.c ****         ATON_ACTIV_ROM1_C_SET(id, i, t);
 6594              		.loc 1 1960 9 view .LVU2553
1961:Lib/AI_Runtime/Npu/ll_aton/ll_aton.c ****       }
 6595              		.loc 1 1961 9 is_stmt 0 discriminator 5 view .LVU2554
 6596 0142 D4BF     		ite	le
 6597 0144 2546     		movle	r5, r4
 6598 0146 0025     		movgt	r5, #0
1960:Lib/AI_Runtime/Npu/ll_aton/ll_aton.c ****         ATON_ACTIV_ROM1_C_SET(id, i, t);
 6599              		.loc 1 1960 13 view .LVU2555
 6600 0148 8E88     		ldrh	r6, [r1, #4]
 6601              	.LVL731:
1961:Lib/AI_Runtime/Npu/ll_aton/ll_aton.c ****       }
 6602              		.loc 1 1961 9 is_stmt 1 view .LVU2556
1961:Lib/AI_Runtime/Npu/ll_aton/ll_aton.c ****       }
 6603              		.loc 1 1961 9 view .LVU2557
1961:Lib/AI_Runtime/Npu/ll_aton/ll_aton.c ****       }
 6604              		.loc 1 1961 9 view .LVU2558
1953:Lib/AI_Runtime/Npu/ll_aton/ll_aton.c ****       {
 6605              		.loc 1 1953 39 is_stmt 0 discriminator 2 view .LVU2559
 6606 014a 0132     		adds	r2, r2, #1
 6607              	.LVL732:
1961:Lib/AI_Runtime/Npu/ll_aton/ll_aton.c ****       }
 6608              		.loc 1 1961 9 discriminator 8 view .LVU2560
 6609 014c 4651     		str	r6, [r0, r5]
1961:Lib/AI_Runtime/Npu/ll_aton/ll_aton.c ****       }
 6610              		.loc 1 1961 9 is_stmt 1 discriminator 8 view .LVU2561
1961:Lib/AI_Runtime/Npu/ll_aton/ll_aton.c ****       }
ARM GAS  C:\Users\DJESSOU\AppData\Local\Temp\ccFxekaC.s 			page 214


 6611              		.loc 1 1961 9 discriminator 8 view .LVU2562
1953:Lib/AI_Runtime/Npu/ll_aton/ll_aton.c ****       {
 6612              		.loc 1 1953 39 discriminator 2 view .LVU2563
 6613              	.LVL733:
1953:Lib/AI_Runtime/Npu/ll_aton/ll_aton.c ****       {
 6614              		.loc 1 1953 39 is_stmt 0 discriminator 2 view .LVU2564
 6615 014e 0834     		adds	r4, r4, #8
 6616 0150 0631     		adds	r1, r1, #6
 6617 0152 E9E7     		b	.L433
 6618              	.LVL734:
 6619              	.L432:
1953:Lib/AI_Runtime/Npu/ll_aton/ll_aton.c ****       {
 6620              		.loc 1 1953 39 discriminator 2 view .LVU2565
 6621              	.LBE158:
 6622              	.LBE155:
 6623              	.LBB159:
 6624              	.LBB154:
1945:Lib/AI_Runtime/Npu/ll_aton/ll_aton.c ****         t = ATON_ACTIV_ROM0_SET_ENTRY(t, R0p[i]);
 6625              		.loc 1 1945 9 is_stmt 1 view .LVU2566
1946:Lib/AI_Runtime/Npu/ll_aton/ll_aton.c ****         ATON_ACTIV_ROM0_SET(id, i, t);
 6626              		.loc 1 1946 9 view .LVU2567
1947:Lib/AI_Runtime/Npu/ll_aton/ll_aton.c ****       }
 6627              		.loc 1 1947 9 is_stmt 0 discriminator 5 view .LVU2568
 6628 0154 9900     		lsls	r1, r3, #2
 6629 0156 202B     		cmp	r3, #32
 6630 0158 01F58061 		add	r1, r1, #1024
 6631 015c A8BF     		it	ge
 6632 015e 3146     		movge	r1, r6
1946:Lib/AI_Runtime/Npu/ll_aton/ll_aton.c ****         ATON_ACTIV_ROM0_SET(id, i, t);
 6633              		.loc 1 1946 13 view .LVU2569
 6634 0160 E75C     		ldrb	r7, [r4, r3]	@ zero_extendqisi2
 6635              	.LVL735:
1947:Lib/AI_Runtime/Npu/ll_aton/ll_aton.c ****       }
 6636              		.loc 1 1947 9 is_stmt 1 view .LVU2570
1947:Lib/AI_Runtime/Npu/ll_aton/ll_aton.c ****       }
 6637              		.loc 1 1947 9 view .LVU2571
1947:Lib/AI_Runtime/Npu/ll_aton/ll_aton.c ****       }
 6638              		.loc 1 1947 9 view .LVU2572
1943:Lib/AI_Runtime/Npu/ll_aton/ll_aton.c ****       {
 6639              		.loc 1 1943 39 is_stmt 0 discriminator 2 view .LVU2573
 6640 0162 0133     		adds	r3, r3, #1
 6641              	.LVL736:
1947:Lib/AI_Runtime/Npu/ll_aton/ll_aton.c ****       }
 6642              		.loc 1 1947 9 discriminator 8 view .LVU2574
 6643 0164 4750     		str	r7, [r0, r1]
1947:Lib/AI_Runtime/Npu/ll_aton/ll_aton.c ****       }
 6644              		.loc 1 1947 9 is_stmt 1 discriminator 8 view .LVU2575
1947:Lib/AI_Runtime/Npu/ll_aton/ll_aton.c ****       }
 6645              		.loc 1 1947 9 discriminator 8 view .LVU2576
1943:Lib/AI_Runtime/Npu/ll_aton/ll_aton.c ****       {
 6646              		.loc 1 1943 39 discriminator 2 view .LVU2577
 6647              	.LVL737:
1943:Lib/AI_Runtime/Npu/ll_aton/ll_aton.c ****       {
 6648              		.loc 1 1943 39 is_stmt 0 discriminator 2 view .LVU2578
 6649 0166 D3E7     		b	.L430
 6650              	.LVL738:
 6651              	.L438:
ARM GAS  C:\Users\DJESSOU\AppData\Local\Temp\ccFxekaC.s 			page 215


1943:Lib/AI_Runtime/Npu/ll_aton/ll_aton.c ****       {
 6652              		.loc 1 1943 39 discriminator 2 view .LVU2579
 6653              	.LBE154:
 6654              	.LBE159:
1879:Lib/AI_Runtime/Npu/ll_aton/ll_aton.c **** 
 6655              		.loc 1 1879 12 view .LVU2580
 6656 0168 4FF0FF30 		mov	r0, #-1
 6657              	.LVL739:
1879:Lib/AI_Runtime/Npu/ll_aton/ll_aton.c **** 
 6658              		.loc 1 1879 12 view .LVU2581
 6659 016c A1E7     		b	.L424
 6660              	.L443:
 6661 016e 00BF     		.align	2
 6662              	.L442:
 6663 0170 08500F58 		.word	1477398536
 6664 0174 10500F58 		.word	1477398544
 6665 0178 95000000 		.word	.LC7
 6666 017c 00000000 		.word	__func__.4
 6667 0180 05000000 		.word	.LC4
 6668 0184 14500F58 		.word	1477398548
 6669 0188 0C500F58 		.word	1477398540
 6670              		.cfi_endproc
 6671              	.LFE308:
 6673              		.section	.rodata.LL_Arithacc_Init.str1.1,"aMS",%progbits,1
 6674              	.LC28:
 6675 0000 636F6E66 		.ascii	"conf->combinebc == 0 || (Cp == ((void *)0) && Bp =="
 6675      2D3E636F 
 6675      6D62696E 
 6675      65626320 
 6675      3D3D2030 
 6676 0033 20282876 		.ascii	" ((void *)0)) || (Cp != ((void *)0) && Bp == ((void"
 6676      6F696420 
 6676      2A293029 
 6676      29207C7C 
 6676      20284370 
 6677 0066 202A2930 		.ascii	" *)0))\000"
 6677      292900
 6678              		.section	.text.LL_Arithacc_Init,"ax",%progbits
 6679              		.align	1
 6680              		.global	LL_Arithacc_Init
 6681              		.syntax unified
 6682              		.thumb
 6683              		.thumb_func
 6685              	LL_Arithacc_Init:
 6686              	.LVL740:
 6687              	.LFB310:
2044:Lib/AI_Runtime/Npu/ll_aton/ll_aton.c ****   uint32_t t;
 6688              		.loc 1 2044 1 is_stmt 1 view -0
 6689              		.cfi_startproc
 6690              		@ args = 0, pretend = 0, frame = 48
 6691              		@ frame_needed = 0, uses_anonymous_args = 0
2045:Lib/AI_Runtime/Npu/ll_aton/ll_aton.c ****   char sshift;
 6692              		.loc 1 2045 3 view .LVU2583
2046:Lib/AI_Runtime/Npu/ll_aton/ll_aton.c **** 
 6693              		.loc 1 2046 3 view .LVU2584
2048:Lib/AI_Runtime/Npu/ll_aton/ll_aton.c ****     return LL_ATON_INVALID_ID;
 6694              		.loc 1 2048 3 view .LVU2585
ARM GAS  C:\Users\DJESSOU\AppData\Local\Temp\ccFxekaC.s 			page 216


2044:Lib/AI_Runtime/Npu/ll_aton/ll_aton.c ****   uint32_t t;
 6695              		.loc 1 2044 1 is_stmt 0 view .LVU2586
 6696 0000 2DE9F04F 		push	{r4, r5, r6, r7, r8, r9, r10, fp, lr}
 6697              		.cfi_def_cfa_offset 36
 6698              		.cfi_offset 4, -36
 6699              		.cfi_offset 5, -32
 6700              		.cfi_offset 6, -28
 6701              		.cfi_offset 7, -24
 6702              		.cfi_offset 8, -20
 6703              		.cfi_offset 9, -16
 6704              		.cfi_offset 10, -12
 6705              		.cfi_offset 11, -8
 6706              		.cfi_offset 14, -4
2048:Lib/AI_Runtime/Npu/ll_aton/ll_aton.c ****     return LL_ATON_INVALID_ID;
 6707              		.loc 1 2048 6 view .LVU2587
 6708 0004 0328     		cmp	r0, #3
2044:Lib/AI_Runtime/Npu/ll_aton/ll_aton.c ****   uint32_t t;
 6709              		.loc 1 2044 1 view .LVU2588
 6710 0006 0546     		mov	r5, r0
 6711 0008 0C46     		mov	r4, r1
 6712 000a 8DB0     		sub	sp, sp, #52
 6713              		.cfi_def_cfa_offset 88
2048:Lib/AI_Runtime/Npu/ll_aton/ll_aton.c ****     return LL_ATON_INVALID_ID;
 6714              		.loc 1 2048 6 view .LVU2589
 6715 000c 00F3B981 		bgt	.L477
2052:Lib/AI_Runtime/Npu/ll_aton/ll_aton.c ****     sshift = 16;
 6716              		.loc 1 2052 3 is_stmt 1 view .LVU2590
2055:Lib/AI_Runtime/Npu/ll_aton/ll_aton.c **** 
 6717              		.loc 1 2055 5 view .LVU2591
 6718              	.LVL741:
2057:Lib/AI_Runtime/Npu/ll_aton/ll_aton.c **** 
 6719              		.loc 1 2057 3 view .LVU2592
2057:Lib/AI_Runtime/Npu/ll_aton/ll_aton.c **** 
 6720              		.loc 1 2057 3 is_stmt 0 discriminator 4 view .LVU2593
 6721 0010 1230     		adds	r0, r0, #18
 6722              	.LVL742:
2057:Lib/AI_Runtime/Npu/ll_aton/ll_aton.c **** 
 6723              		.loc 1 2057 3 discriminator 4 view .LVU2594
 6724 0012 FFF7FEFF 		bl	LL_ATON_EnableClock
 6725              	.LVL743:
2059:Lib/AI_Runtime/Npu/ll_aton/ll_aton.c ****   ATON_ARITH_CTRL_SET(id, t);
 6726              		.loc 1 2059 3 is_stmt 1 view .LVU2595
2060:Lib/AI_Runtime/Npu/ll_aton/ll_aton.c **** 
 6727              		.loc 1 2060 3 view .LVU2596
2060:Lib/AI_Runtime/Npu/ll_aton/ll_aton.c **** 
 6728              		.loc 1 2060 3 view .LVU2597
2060:Lib/AI_Runtime/Npu/ll_aton/ll_aton.c **** 
 6729              		.loc 1 2060 3 view .LVU2598
2060:Lib/AI_Runtime/Npu/ll_aton/ll_aton.c **** 
 6730              		.loc 1 2060 3 is_stmt 0 discriminator 4 view .LVU2599
 6731 0016 4FF00063 		mov	r3, #134217728
2063:Lib/AI_Runtime/Npu/ll_aton/ll_aton.c ****   t = ATON_ARITH_CTRL_SET_CNT2(t, (conf->scalar == 0) && (conf->bcast == ARITH_BCAST_CHAN));
 6732              		.loc 1 2063 7 view .LVU2600
 6733 001a E279     		ldrb	r2, [r4, #7]	@ zero_extendqisi2
2060:Lib/AI_Runtime/Npu/ll_aton/ll_aton.c **** 
 6734              		.loc 1 2060 3 discriminator 1 view .LVU2601
 6735 001c 2803     		lsls	r0, r5, #12
ARM GAS  C:\Users\DJESSOU\AppData\Local\Temp\ccFxekaC.s 			page 217


 6736 001e 00F1B048 		add	r8, r0, #1476395008
2063:Lib/AI_Runtime/Npu/ll_aton/ll_aton.c ****   t = ATON_ARITH_CTRL_SET_CNT2(t, (conf->scalar == 0) && (conf->bcast == ARITH_BCAST_CHAN));
 6737              		.loc 1 2063 7 view .LVU2602
 6738 0022 02F00106 		and	r6, r2, #1
2060:Lib/AI_Runtime/Npu/ll_aton/ll_aton.c **** 
 6739              		.loc 1 2060 3 discriminator 1 view .LVU2603
 6740 0026 08F57728 		add	r8, r8, #1011712
2063:Lib/AI_Runtime/Npu/ll_aton/ll_aton.c ****   t = ATON_ARITH_CTRL_SET_CNT2(t, (conf->scalar == 0) && (conf->bcast == ARITH_BCAST_CHAN));
 6741              		.loc 1 2063 7 view .LVU2604
 6742 002a 86F0010E 		eor	lr, r6, #1
2064:Lib/AI_Runtime/Npu/ll_aton/ll_aton.c ****   t = ATON_ARITH_CTRL_SET_CNT3(t, (conf->scalar == 0) && (conf->bcast == ARITH_BCAST_CHAN));
 6743              		.loc 1 2064 7 view .LVU2605
 6744 002e 12F00105 		ands	r5, r2, #1
 6745              	.LVL744:
2060:Lib/AI_Runtime/Npu/ll_aton/ll_aton.c **** 
 6746              		.loc 1 2060 3 discriminator 4 view .LVU2606
 6747 0032 C8F80030 		str	r3, [r8]
2060:Lib/AI_Runtime/Npu/ll_aton/ll_aton.c **** 
 6748              		.loc 1 2060 3 is_stmt 1 discriminator 4 view .LVU2607
2060:Lib/AI_Runtime/Npu/ll_aton/ll_aton.c **** 
 6749              		.loc 1 2060 3 discriminator 4 view .LVU2608
2062:Lib/AI_Runtime/Npu/ll_aton/ll_aton.c ****   t = ATON_ARITH_CTRL_SET_CNT1(t, (conf->scalar == 0)); // these must be handled yet FIXME !!!
 6750              		.loc 1 2062 3 view .LVU2609
2063:Lib/AI_Runtime/Npu/ll_aton/ll_aton.c ****   t = ATON_ARITH_CTRL_SET_CNT2(t, (conf->scalar == 0) && (conf->bcast == ARITH_BCAST_CHAN));
 6751              		.loc 1 2063 3 view .LVU2610
2063:Lib/AI_Runtime/Npu/ll_aton/ll_aton.c ****   t = ATON_ARITH_CTRL_SET_CNT2(t, (conf->scalar == 0) && (conf->bcast == ARITH_BCAST_CHAN));
 6752              		.loc 1 2063 7 is_stmt 0 view .LVU2611
 6753 0036 4FEA8E0E 		lsl	lr, lr, #2
 6754              	.LVL745:
2064:Lib/AI_Runtime/Npu/ll_aton/ll_aton.c ****   t = ATON_ARITH_CTRL_SET_CNT3(t, (conf->scalar == 0) && (conf->bcast == ARITH_BCAST_CHAN));
 6755              		.loc 1 2064 3 is_stmt 1 view .LVU2612
2064:Lib/AI_Runtime/Npu/ll_aton/ll_aton.c ****   t = ATON_ARITH_CTRL_SET_CNT3(t, (conf->scalar == 0) && (conf->bcast == ARITH_BCAST_CHAN));
 6756              		.loc 1 2064 7 is_stmt 0 view .LVU2613
 6757 003a 40F0A280 		bne	.L478
2064:Lib/AI_Runtime/Npu/ll_aton/ll_aton.c ****   t = ATON_ARITH_CTRL_SET_CNT3(t, (conf->scalar == 0) && (conf->bcast == ARITH_BCAST_CHAN));
 6758              		.loc 1 2064 7 discriminator 1 view .LVU2614
 6759 003e 617A     		ldrb	r1, [r4, #9]	@ zero_extendqisi2
 6760 0040 4F1E     		subs	r7, r1, #1
 6761 0042 7942     		rsbs	r1, r7, #0
 6762 0044 7941     		adcs	r1, r1, r7
 6763              	.L446:
 6764              	.LVL746:
2065:Lib/AI_Runtime/Npu/ll_aton/ll_aton.c ****   t = ATON_ARITH_CTRL_SET_ROUND(t, (conf->rounding_o != 0));
 6765              		.loc 1 2065 3 is_stmt 1 view .LVU2615
2066:Lib/AI_Runtime/Npu/ll_aton/ll_aton.c ****   t = ATON_ARITH_CTRL_SET_ORNDMODE(t, (conf->relu_mode_o << 1) | conf->round_mode_o);
 6766              		.loc 1 2066 3 view .LVU2616
2066:Lib/AI_Runtime/Npu/ll_aton/ll_aton.c ****   t = ATON_ARITH_CTRL_SET_ORNDMODE(t, (conf->relu_mode_o << 1) | conf->round_mode_o);
 6767              		.loc 1 2066 7 is_stmt 0 view .LVU2617
 6768 0046 6779     		ldrb	r7, [r4, #5]	@ zero_extendqisi2
 6769 0048 4FEA471C 		lsl	ip, r7, #5
 6770              	.LVL747:
2067:Lib/AI_Runtime/Npu/ll_aton/ll_aton.c ****   // t = ATON_ARITH_CTRL_SET_OBYTES(t,((conf->dataw_o + 7) >> 3));
 6771              		.loc 1 2067 3 is_stmt 1 view .LVU2618
2069:Lib/AI_Runtime/Npu/ll_aton/ll_aton.c ****   t = ATON_ARITH_CTRL_SET_SAT(t, (conf->saturation_o != 0));
 6772              		.loc 1 2069 3 view .LVU2619
2070:Lib/AI_Runtime/Npu/ll_aton/ll_aton.c ****   t = ATON_ARITH_CTRL_SET_COEFFA(t, (conf->scalar == 0));
 6773              		.loc 1 2070 3 view .LVU2620
ARM GAS  C:\Users\DJESSOU\AppData\Local\Temp\ccFxekaC.s 			page 218


2066:Lib/AI_Runtime/Npu/ll_aton/ll_aton.c ****   t = ATON_ARITH_CTRL_SET_ORNDMODE(t, (conf->relu_mode_o << 1) | conf->round_mode_o);
 6774              		.loc 1 2066 7 is_stmt 0 view .LVU2621
 6775 004c 0CF02003 		and	r3, ip, #32
 6776              	.LVL748:
2069:Lib/AI_Runtime/Npu/ll_aton/ll_aton.c ****   t = ATON_ARITH_CTRL_SET_SAT(t, (conf->saturation_o != 0));
 6777              		.loc 1 2069 7 view .LVU2622
 6778 0050 C7F30119 		ubfx	r9, r7, #4, #2
2070:Lib/AI_Runtime/Npu/ll_aton/ll_aton.c ****   t = ATON_ARITH_CTRL_SET_COEFFA(t, (conf->scalar == 0));
 6779              		.loc 1 2070 5 view .LVU2623
 6780 0054 43EA0E03 		orr	r3, r3, lr
 6781              	.LVL749:
2070:Lib/AI_Runtime/Npu/ll_aton/ll_aton.c ****   t = ATON_ARITH_CTRL_SET_COEFFA(t, (conf->scalar == 0));
 6782              		.loc 1 2070 5 view .LVU2624
 6783 0058 43EA8963 		orr	r3, r3, r9, lsl #26
2070:Lib/AI_Runtime/Npu/ll_aton/ll_aton.c ****   t = ATON_ARITH_CTRL_SET_COEFFA(t, (conf->scalar == 0));
 6784              		.loc 1 2070 7 view .LVU2625
 6785 005c 0CF0400C 		and	ip, ip, #64
 6786              	.LVL750:
2070:Lib/AI_Runtime/Npu/ll_aton/ll_aton.c ****   t = ATON_ARITH_CTRL_SET_COEFFA(t, (conf->scalar == 0));
 6787              		.loc 1 2070 5 view .LVU2626
 6788 0060 43EA0C03 		orr	r3, r3, ip
2067:Lib/AI_Runtime/Npu/ll_aton/ll_aton.c ****   // t = ATON_ARITH_CTRL_SET_OBYTES(t,((conf->dataw_o + 7) >> 3));
 6789              		.loc 1 2067 7 view .LVU2627
 6790 0064 C7F38107 		ubfx	r7, r7, #2, #2
 6791              	.LVL751:
2070:Lib/AI_Runtime/Npu/ll_aton/ll_aton.c ****   t = ATON_ARITH_CTRL_SET_COEFFA(t, (conf->scalar == 0));
 6792              		.loc 1 2070 5 view .LVU2628
 6793 0068 43EA0763 		orr	r3, r3, r7, lsl #24
 6794 006c 43EAC103 		orr	r3, r3, r1, lsl #3
 6795 0070 43EA0113 		orr	r3, r3, r1, lsl #4
 6796              	.LVL752:
2071:Lib/AI_Runtime/Npu/ll_aton/ll_aton.c ****   t = ATON_ARITH_CTRL_SET_COEFFB(t, (conf->scalar == 0));
 6797              		.loc 1 2071 3 is_stmt 1 view .LVU2629
2071:Lib/AI_Runtime/Npu/ll_aton/ll_aton.c ****   t = ATON_ARITH_CTRL_SET_COEFFB(t, (conf->scalar == 0));
 6798              		.loc 1 2071 7 is_stmt 0 view .LVU2630
 6799 0074 002E     		cmp	r6, #0
 6800 0076 40F08680 		bne	.L479
 6801              	.LVL753:
2072:Lib/AI_Runtime/Npu/ll_aton/ll_aton.c ****   t = ATON_ARITH_CTRL_SET_COEFFC(t, (conf->scalar == 0));
 6802              		.loc 1 2072 3 is_stmt 1 view .LVU2631
2073:Lib/AI_Runtime/Npu/ll_aton/ll_aton.c ****   t = ATON_ARITH_CTRL_SET_DUALIN(t, (conf->dualinput != 0));
 6803              		.loc 1 2073 7 is_stmt 0 discriminator 2 view .LVU2632
 6804 007a 4FF48006 		mov	r6, #4194304
2072:Lib/AI_Runtime/Npu/ll_aton/ll_aton.c ****   t = ATON_ARITH_CTRL_SET_COEFFC(t, (conf->scalar == 0));
 6805              		.loc 1 2072 5 discriminator 4 view .LVU2633
 6806 007e 43F40013 		orr	r3, r3, #2097152
 6807              	.LVL754:
2072:Lib/AI_Runtime/Npu/ll_aton/ll_aton.c ****   t = ATON_ARITH_CTRL_SET_COEFFC(t, (conf->scalar == 0));
 6808              		.loc 1 2072 5 discriminator 4 view .LVU2634
 6809 0082 43F08003 		orr	r3, r3, #128
 6810              	.LVL755:
2073:Lib/AI_Runtime/Npu/ll_aton/ll_aton.c ****   t = ATON_ARITH_CTRL_SET_DUALIN(t, (conf->dualinput != 0));
 6811              		.loc 1 2073 3 is_stmt 1 view .LVU2635
 6812              	.L447:
2074:Lib/AI_Runtime/Npu/ll_aton/ll_aton.c ****   t = ATON_ARITH_CTRL_SET_COMBINEBC(t, (conf->combinebc != 0));
 6813              		.loc 1 2074 3 view .LVU2636
2075:Lib/AI_Runtime/Npu/ll_aton/ll_aton.c **** #ifdef ATON_ARITH_CTRL_SET_CLIPOUT
ARM GAS  C:\Users\DJESSOU\AppData\Local\Temp\ccFxekaC.s 			page 219


 6814              		.loc 1 2075 3 view .LVU2637
2075:Lib/AI_Runtime/Npu/ll_aton/ll_aton.c **** #ifdef ATON_ARITH_CTRL_SET_CLIPOUT
 6815              		.loc 1 2075 7 is_stmt 0 view .LVU2638
 6816 0086 E178     		ldrb	r1, [r4, #3]	@ zero_extendqisi2
2079:Lib/AI_Runtime/Npu/ll_aton/ll_aton.c ****   if (conf->operation == ARITH_NOT_X)
 6817              		.loc 1 2079 7 view .LVU2639
 6818 0088 277A     		ldrb	r7, [r4, #8]	@ zero_extendqisi2
2075:Lib/AI_Runtime/Npu/ll_aton/ll_aton.c **** #ifdef ATON_ARITH_CTRL_SET_CLIPOUT
 6819              		.loc 1 2075 7 view .LVU2640
 6820 008a 4FEA017C 		lsl	ip, r1, #28
 6821              	.LVL756:
2077:Lib/AI_Runtime/Npu/ll_aton/ll_aton.c **** #endif
 6822              		.loc 1 2077 3 is_stmt 1 view .LVU2641
2074:Lib/AI_Runtime/Npu/ll_aton/ll_aton.c ****   t = ATON_ARITH_CTRL_SET_COMBINEBC(t, (conf->combinebc != 0));
 6823              		.loc 1 2074 7 is_stmt 0 view .LVU2642
 6824 008e D201     		lsls	r2, r2, #7
 6825              	.LVL757:
2074:Lib/AI_Runtime/Npu/ll_aton/ll_aton.c ****   t = ATON_ARITH_CTRL_SET_COMBINEBC(t, (conf->combinebc != 0));
 6826              		.loc 1 2074 7 view .LVU2643
 6827 0090 02F48072 		and	r2, r2, #256
2077:Lib/AI_Runtime/Npu/ll_aton/ll_aton.c **** #endif
 6828              		.loc 1 2077 7 view .LVU2644
 6829 0094 0CF0405C 		and	ip, ip, #805306368
 6830              	.LVL758:
2077:Lib/AI_Runtime/Npu/ll_aton/ll_aton.c **** #endif
 6831              		.loc 1 2077 7 view .LVU2645
 6832 0098 4CEA020C 		orr	ip, ip, r2
 6833              	.LVL759:
2079:Lib/AI_Runtime/Npu/ll_aton/ll_aton.c ****   if (conf->operation == ARITH_NOT_X)
 6834              		.loc 1 2079 3 is_stmt 1 view .LVU2646
 6835              	.LBB164:
 6836              	.LBI164:
1994:Lib/AI_Runtime/Npu/ll_aton/ll_aton.c **** {
 6837              		.loc 1 1994 16 view .LVU2647
 6838              	.LBB165:
1996:Lib/AI_Runtime/Npu/ll_aton/ll_aton.c ****   {
 6839              		.loc 1 1996 3 view .LVU2648
 6840 009c 7A1E     		subs	r2, r7, #1
 6841 009e D2B2     		uxtb	r2, r2
 6842 00a0 0F2A     		cmp	r2, #15
 6843 00a2 72D8     		bhi	.L448
 6844              	.LVL760:
1996:Lib/AI_Runtime/Npu/ll_aton/ll_aton.c ****   {
 6845              		.loc 1 1996 3 is_stmt 0 view .LVU2649
 6846              	.LBE165:
 6847              	.LBE164:
2079:Lib/AI_Runtime/Npu/ll_aton/ll_aton.c ****   if (conf->operation == ARITH_NOT_X)
 6848              		.loc 1 2079 7 discriminator 1 view .LVU2650
 6849 00a4 DFF830E3 		ldr	lr, .L495+72
2082:Lib/AI_Runtime/Npu/ll_aton/ll_aton.c ****   }
 6850              		.loc 1 2082 7 view .LVU2651
 6851 00a8 072F     		cmp	r7, #7
2079:Lib/AI_Runtime/Npu/ll_aton/ll_aton.c ****   if (conf->operation == ARITH_NOT_X)
 6852              		.loc 1 2079 7 discriminator 1 view .LVU2652
 6853 00aa 1EF90220 		ldrsb	r2, [lr, r2]
 6854 00ae 4FEA4222 		lsl	r2, r2, #9
 6855 00b2 02F4FC42 		and	r2, r2, #32256
ARM GAS  C:\Users\DJESSOU\AppData\Local\Temp\ccFxekaC.s 			page 220


2079:Lib/AI_Runtime/Npu/ll_aton/ll_aton.c ****   if (conf->operation == ARITH_NOT_X)
 6856              		.loc 1 2079 5 discriminator 1 view .LVU2653
 6857 00b6 42EA0C02 		orr	r2, r2, ip
 6858 00ba 42EA0602 		orr	r2, r2, r6
 6859 00be 43EA0203 		orr	r3, r3, r2
 6860              	.LVL761:
2080:Lib/AI_Runtime/Npu/ll_aton/ll_aton.c ****   { // WORKAROUND
 6861              		.loc 1 2080 3 is_stmt 1 view .LVU2654
2082:Lib/AI_Runtime/Npu/ll_aton/ll_aton.c ****   }
 6862              		.loc 1 2082 7 is_stmt 0 view .LVU2655
 6863 00c2 43F40002 		orr	r2, r3, #8388608
 6864 00c6 08BF     		it	eq
 6865 00c8 1346     		moveq	r3, r2
 6866              	.LVL762:
2084:Lib/AI_Runtime/Npu/ll_aton/ll_aton.c **** 
 6867              		.loc 1 2084 3 is_stmt 1 view .LVU2656
2084:Lib/AI_Runtime/Npu/ll_aton/ll_aton.c **** 
 6868              		.loc 1 2084 3 view .LVU2657
2084:Lib/AI_Runtime/Npu/ll_aton/ll_aton.c **** 
 6869              		.loc 1 2084 3 view .LVU2658
2084:Lib/AI_Runtime/Npu/ll_aton/ll_aton.c **** 
 6870              		.loc 1 2084 3 is_stmt 0 discriminator 4 view .LVU2659
 6871 00ca C8F80030 		str	r3, [r8]
2084:Lib/AI_Runtime/Npu/ll_aton/ll_aton.c **** 
 6872              		.loc 1 2084 3 is_stmt 1 discriminator 4 view .LVU2660
2084:Lib/AI_Runtime/Npu/ll_aton/ll_aton.c **** 
 6873              		.loc 1 2084 3 discriminator 4 view .LVU2661
2086:Lib/AI_Runtime/Npu/ll_aton/ll_aton.c ****   t = ATON_ARITH_INSHIFTER_SET_FBYTESX(t, conf->inbytes_x);
 6874              		.loc 1 2086 3 view .LVU2662
 6875              	.LVL763:
2087:Lib/AI_Runtime/Npu/ll_aton/ll_aton.c ****   t = ATON_ARITH_INSHIFTER_SET_FSHIFTX(t, ATON_SHIFT(conf->shift_x));
 6876              		.loc 1 2087 3 view .LVU2663
2088:Lib/AI_Runtime/Npu/ll_aton/ll_aton.c ****   t = ATON_ARITH_INSHIFTER_SET_FROUNDX(t, (conf->rounding_x != 0));
 6877              		.loc 1 2088 3 view .LVU2664
2089:Lib/AI_Runtime/Npu/ll_aton/ll_aton.c ****   t = ATON_ARITH_INSHIFTER_SET_FSATX(t, (conf->saturation_x != 0));
 6878              		.loc 1 2089 3 view .LVU2665
2088:Lib/AI_Runtime/Npu/ll_aton/ll_aton.c ****   t = ATON_ARITH_INSHIFTER_SET_FROUNDX(t, (conf->rounding_x != 0));
 6879              		.loc 1 2088 7 is_stmt 0 view .LVU2666
 6880 00ce 94F90130 		ldrsb	r3, [r4, #1]
2089:Lib/AI_Runtime/Npu/ll_aton/ll_aton.c ****   t = ATON_ARITH_INSHIFTER_SET_FSATX(t, (conf->saturation_x != 0));
 6881              		.loc 1 2089 7 view .LVU2667
 6882 00d2 2678     		ldrb	r6, [r4]	@ zero_extendqisi2
2088:Lib/AI_Runtime/Npu/ll_aton/ll_aton.c ****   t = ATON_ARITH_INSHIFTER_SET_FROUNDX(t, (conf->rounding_x != 0));
 6883              		.loc 1 2088 7 view .LVU2668
 6884 00d4 1033     		adds	r3, r3, #16
 6885 00d6 9B00     		lsls	r3, r3, #2
2087:Lib/AI_Runtime/Npu/ll_aton/ll_aton.c ****   t = ATON_ARITH_INSHIFTER_SET_FSHIFTX(t, ATON_SHIFT(conf->shift_x));
 6886              		.loc 1 2087 7 view .LVU2669
 6887 00d8 C6F30117 		ubfx	r7, r6, #4, #2
2088:Lib/AI_Runtime/Npu/ll_aton/ll_aton.c ****   t = ATON_ARITH_INSHIFTER_SET_FROUNDX(t, (conf->rounding_x != 0));
 6888              		.loc 1 2088 7 view .LVU2670
 6889 00dc DBB2     		uxtb	r3, r3
2094:Lib/AI_Runtime/Npu/ll_aton/ll_aton.c ****   t = ATON_ARITH_INSHIFTER_SET_FSHIFTY(t, ATON_SHIFT(conf->shift_y));
 6890              		.loc 1 2094 7 view .LVU2671
 6891 00de 3B43     		orrs	r3, r3, r7
2091:Lib/AI_Runtime/Npu/ll_aton/ll_aton.c ****   t = ATON_ARITH_INSHIFTER_SET_FOBYTESX(t, conf->outbytes_x);
 6892              		.loc 1 2091 7 view .LVU2672
ARM GAS  C:\Users\DJESSOU\AppData\Local\Temp\ccFxekaC.s 			page 221


 6893 00e0 C6F38107 		ubfx	r7, r6, #2, #2
2089:Lib/AI_Runtime/Npu/ll_aton/ll_aton.c ****   t = ATON_ARITH_INSHIFTER_SET_FSATX(t, (conf->saturation_x != 0));
 6894              		.loc 1 2089 7 view .LVU2673
 6895 00e4 3202     		lsls	r2, r6, #8
 6896              	.LVL764:
2090:Lib/AI_Runtime/Npu/ll_aton/ll_aton.c ****   t = ATON_ARITH_INSHIFTER_SET_FRNDMODEX(t, conf->round_mode_x);
 6897              		.loc 1 2090 3 is_stmt 1 view .LVU2674
2091:Lib/AI_Runtime/Npu/ll_aton/ll_aton.c ****   t = ATON_ARITH_INSHIFTER_SET_FOBYTESX(t, conf->outbytes_x);
 6898              		.loc 1 2091 3 view .LVU2675
2092:Lib/AI_Runtime/Npu/ll_aton/ll_aton.c **** 
 6899              		.loc 1 2092 3 view .LVU2676
2094:Lib/AI_Runtime/Npu/ll_aton/ll_aton.c ****   t = ATON_ARITH_INSHIFTER_SET_FSHIFTY(t, ATON_SHIFT(conf->shift_y));
 6900              		.loc 1 2094 3 view .LVU2677
2095:Lib/AI_Runtime/Npu/ll_aton/ll_aton.c ****   t = ATON_ARITH_INSHIFTER_SET_FROUNDY(t, (conf->rounding_y != 0));
 6901              		.loc 1 2095 3 view .LVU2678
2094:Lib/AI_Runtime/Npu/ll_aton/ll_aton.c ****   t = ATON_ARITH_INSHIFTER_SET_FSHIFTY(t, ATON_SHIFT(conf->shift_y));
 6902              		.loc 1 2094 7 is_stmt 0 view .LVU2679
 6903 00e6 43EA8723 		orr	r3, r3, r7, lsl #10
2092:Lib/AI_Runtime/Npu/ll_aton/ll_aton.c **** 
 6904              		.loc 1 2092 7 view .LVU2680
 6905 00ea B609     		lsrs	r6, r6, #6
2094:Lib/AI_Runtime/Npu/ll_aton/ll_aton.c ****   t = ATON_ARITH_INSHIFTER_SET_FSHIFTY(t, ATON_SHIFT(conf->shift_y));
 6906              		.loc 1 2094 7 view .LVU2681
 6907 00ec 43EA0633 		orr	r3, r3, r6, lsl #12
 6908 00f0 A678     		ldrb	r6, [r4, #2]	@ zero_extendqisi2
2090:Lib/AI_Runtime/Npu/ll_aton/ll_aton.c ****   t = ATON_ARITH_INSHIFTER_SET_FRNDMODEX(t, conf->round_mode_x);
 6909              		.loc 1 2090 7 view .LVU2682
 6910 00f2 02F44072 		and	r2, r2, #768
 6911              	.LVL765:
2094:Lib/AI_Runtime/Npu/ll_aton/ll_aton.c ****   t = ATON_ARITH_INSHIFTER_SET_FSHIFTY(t, ATON_SHIFT(conf->shift_y));
 6912              		.loc 1 2094 7 view .LVU2683
 6913 00f6 1343     		orrs	r3, r3, r2
 6914 00f8 C6F30112 		ubfx	r2, r6, #4, #2
2094:Lib/AI_Runtime/Npu/ll_aton/ll_aton.c ****   t = ATON_ARITH_INSHIFTER_SET_FSHIFTY(t, ATON_SHIFT(conf->shift_y));
 6915              		.loc 1 2094 5 view .LVU2684
 6916 00fc 43EA0243 		orr	r3, r3, r2, lsl #16
 6917              	.LVL766:
2096:Lib/AI_Runtime/Npu/ll_aton/ll_aton.c ****   t = ATON_ARITH_INSHIFTER_SET_FSATY(t, (conf->saturation_y != 0));
 6918              		.loc 1 2096 3 is_stmt 1 view .LVU2685
2097:Lib/AI_Runtime/Npu/ll_aton/ll_aton.c ****   t = ATON_ARITH_INSHIFTER_SET_FRNDMODEY(t, conf->round_mode_y);
 6919              		.loc 1 2097 3 view .LVU2686
2098:Lib/AI_Runtime/Npu/ll_aton/ll_aton.c ****   t = ATON_ARITH_INSHIFTER_SET_FOBYTESY(t, conf->outbytes_y);
 6920              		.loc 1 2098 3 view .LVU2687
2099:Lib/AI_Runtime/Npu/ll_aton/ll_aton.c ****   ATON_ARITH_INSHIFTER_SET(id, t);
 6921              		.loc 1 2099 3 view .LVU2688
2098:Lib/AI_Runtime/Npu/ll_aton/ll_aton.c ****   t = ATON_ARITH_INSHIFTER_SET_FOBYTESY(t, conf->outbytes_y);
 6922              		.loc 1 2098 7 is_stmt 0 view .LVU2689
 6923 0100 3206     		lsls	r2, r6, #24
 6924              	.LVL767:
2098:Lib/AI_Runtime/Npu/ll_aton/ll_aton.c ****   t = ATON_ARITH_INSHIFTER_SET_FOBYTESY(t, conf->outbytes_y);
 6925              		.loc 1 2098 5 view .LVU2690
 6926 0102 02F07067 		and	r7, r2, #251658240
2095:Lib/AI_Runtime/Npu/ll_aton/ll_aton.c ****   t = ATON_ARITH_INSHIFTER_SET_FROUNDY(t, (conf->rounding_y != 0));
 6927              		.loc 1 2095 7 view .LVU2691
 6928 0106 94F90420 		ldrsb	r2, [r4, #4]
 6929              	.LVL768:
2099:Lib/AI_Runtime/Npu/ll_aton/ll_aton.c ****   ATON_ARITH_INSHIFTER_SET(id, t);
ARM GAS  C:\Users\DJESSOU\AppData\Local\Temp\ccFxekaC.s 			page 222


 6930              		.loc 1 2099 7 view .LVU2692
 6931 010a B609     		lsrs	r6, r6, #6
2095:Lib/AI_Runtime/Npu/ll_aton/ll_aton.c ****   t = ATON_ARITH_INSHIFTER_SET_FROUNDY(t, (conf->rounding_y != 0));
 6932              		.loc 1 2095 7 view .LVU2693
 6933 010c 1032     		adds	r2, r2, #16
 6934 010e 9204     		lsls	r2, r2, #18
 6935 0110 02F47C02 		and	r2, r2, #16515072
2098:Lib/AI_Runtime/Npu/ll_aton/ll_aton.c ****   t = ATON_ARITH_INSHIFTER_SET_FOBYTESY(t, conf->outbytes_y);
 6936              		.loc 1 2098 5 view .LVU2694
 6937 0114 3A43     		orrs	r2, r2, r7
2099:Lib/AI_Runtime/Npu/ll_aton/ll_aton.c ****   ATON_ARITH_INSHIFTER_SET(id, t);
 6938              		.loc 1 2099 7 view .LVU2695
 6939 0116 1343     		orrs	r3, r3, r2
 6940              	.LVL769:
2100:Lib/AI_Runtime/Npu/ll_aton/ll_aton.c **** 
 6941              		.loc 1 2100 3 discriminator 1 view .LVU2696
 6942 0118 9D4A     		ldr	r2, .L495
2099:Lib/AI_Runtime/Npu/ll_aton/ll_aton.c ****   ATON_ARITH_INSHIFTER_SET(id, t);
 6943              		.loc 1 2099 5 view .LVU2697
 6944 011a 43EA0673 		orr	r3, r3, r6, lsl #28
 6945              	.LVL770:
2100:Lib/AI_Runtime/Npu/ll_aton/ll_aton.c **** 
 6946              		.loc 1 2100 3 is_stmt 1 view .LVU2698
2100:Lib/AI_Runtime/Npu/ll_aton/ll_aton.c **** 
 6947              		.loc 1 2100 3 view .LVU2699
2100:Lib/AI_Runtime/Npu/ll_aton/ll_aton.c **** 
 6948              		.loc 1 2100 3 view .LVU2700
2100:Lib/AI_Runtime/Npu/ll_aton/ll_aton.c **** 
 6949              		.loc 1 2100 3 is_stmt 0 discriminator 4 view .LVU2701
 6950 011e 8350     		str	r3, [r0, r2]
2100:Lib/AI_Runtime/Npu/ll_aton/ll_aton.c **** 
 6951              		.loc 1 2100 3 is_stmt 1 discriminator 4 view .LVU2702
2100:Lib/AI_Runtime/Npu/ll_aton/ll_aton.c **** 
 6952              		.loc 1 2100 3 discriminator 4 view .LVU2703
2102:Lib/AI_Runtime/Npu/ll_aton/ll_aton.c ****   t = ATON_ARITH_SHIFT_SET_AX(t, conf->Ax_shift + sshift);
 6953              		.loc 1 2102 3 view .LVU2704
 6954              	.LVL771:
2103:Lib/AI_Runtime/Npu/ll_aton/ll_aton.c ****   t = ATON_ARITH_SHIFT_SET_BY(t, conf->By_shift + sshift);
 6955              		.loc 1 2103 3 view .LVU2705
2104:Lib/AI_Runtime/Npu/ll_aton/ll_aton.c ****   t = ATON_ARITH_SHIFT_SET_C(t, conf->C_shift + sshift);
 6956              		.loc 1 2104 3 view .LVU2706
2105:Lib/AI_Runtime/Npu/ll_aton/ll_aton.c ****   t = ATON_ARITH_SHIFT_SET_RES(t, conf->shift_o); // right shift only
 6957              		.loc 1 2105 3 view .LVU2707
2104:Lib/AI_Runtime/Npu/ll_aton/ll_aton.c ****   t = ATON_ARITH_SHIFT_SET_C(t, conf->C_shift + sshift);
 6958              		.loc 1 2104 7 is_stmt 0 view .LVU2708
 6959 0120 E37A     		ldrb	r3, [r4, #11]	@ zero_extendqisi2
2105:Lib/AI_Runtime/Npu/ll_aton/ll_aton.c ****   t = ATON_ARITH_SHIFT_SET_RES(t, conf->shift_o); // right shift only
 6960              		.loc 1 2105 7 view .LVU2709
 6961 0122 227B     		ldrb	r2, [r4, #12]	@ zero_extendqisi2
2104:Lib/AI_Runtime/Npu/ll_aton/ll_aton.c ****   t = ATON_ARITH_SHIFT_SET_C(t, conf->C_shift + sshift);
 6962              		.loc 1 2104 7 view .LVU2710
 6963 0124 5B01     		lsls	r3, r3, #5
2105:Lib/AI_Runtime/Npu/ll_aton/ll_aton.c ****   t = ATON_ARITH_SHIFT_SET_RES(t, conf->shift_o); // right shift only
 6964              		.loc 1 2105 7 view .LVU2711
 6965 0126 9202     		lsls	r2, r2, #10
 6966 0128 02F4F842 		and	r2, r2, #31744
2104:Lib/AI_Runtime/Npu/ll_aton/ll_aton.c ****   t = ATON_ARITH_SHIFT_SET_C(t, conf->C_shift + sshift);
ARM GAS  C:\Users\DJESSOU\AppData\Local\Temp\ccFxekaC.s 			page 223


 6967              		.loc 1 2104 7 view .LVU2712
 6968 012c 03F47873 		and	r3, r3, #992
2105:Lib/AI_Runtime/Npu/ll_aton/ll_aton.c ****   t = ATON_ARITH_SHIFT_SET_RES(t, conf->shift_o); // right shift only
 6969              		.loc 1 2105 5 view .LVU2713
 6970 0130 1343     		orrs	r3, r3, r2
2103:Lib/AI_Runtime/Npu/ll_aton/ll_aton.c ****   t = ATON_ARITH_SHIFT_SET_BY(t, conf->By_shift + sshift);
 6971              		.loc 1 2103 7 view .LVU2714
 6972 0132 A27A     		ldrb	r2, [r4, #10]	@ zero_extendqisi2
2112:Lib/AI_Runtime/Npu/ll_aton/ll_aton.c **** 
 6973              		.loc 1 2112 3 discriminator 1 view .LVU2715
 6974 0134 974E     		ldr	r6, .L495+4
2103:Lib/AI_Runtime/Npu/ll_aton/ll_aton.c ****   t = ATON_ARITH_SHIFT_SET_BY(t, conf->By_shift + sshift);
 6975              		.loc 1 2103 7 view .LVU2716
 6976 0136 02F01F02 		and	r2, r2, #31
2105:Lib/AI_Runtime/Npu/ll_aton/ll_aton.c ****   t = ATON_ARITH_SHIFT_SET_RES(t, conf->shift_o); // right shift only
 6977              		.loc 1 2105 5 view .LVU2717
 6978 013a 1343     		orrs	r3, r3, r2
 6979              	.LVL772:
2106:Lib/AI_Runtime/Npu/ll_aton/ll_aton.c ****   ATON_ARITH_SHIFT_SET(id, t);
 6980              		.loc 1 2106 3 is_stmt 1 view .LVU2718
2106:Lib/AI_Runtime/Npu/ll_aton/ll_aton.c ****   ATON_ARITH_SHIFT_SET(id, t);
 6981              		.loc 1 2106 7 is_stmt 0 view .LVU2719
 6982 013c A279     		ldrb	r2, [r4, #6]	@ zero_extendqisi2
2119:Lib/AI_Runtime/Npu/ll_aton/ll_aton.c ****   {
 6983              		.loc 1 2119 6 view .LVU2720
 6984 013e 8907     		lsls	r1, r1, #30
2106:Lib/AI_Runtime/Npu/ll_aton/ll_aton.c ****   ATON_ARITH_SHIFT_SET(id, t);
 6985              		.loc 1 2106 7 view .LVU2721
 6986 0140 4FEAC232 		lsl	r2, r2, #15
 6987 0144 02F4FC12 		and	r2, r2, #2064384
2106:Lib/AI_Runtime/Npu/ll_aton/ll_aton.c ****   ATON_ARITH_SHIFT_SET(id, t);
 6988              		.loc 1 2106 5 view .LVU2722
 6989 0148 43EA0203 		orr	r3, r3, r2
 6990              	.LVL773:
2107:Lib/AI_Runtime/Npu/ll_aton/ll_aton.c **** 
 6991              		.loc 1 2107 3 is_stmt 1 view .LVU2723
2107:Lib/AI_Runtime/Npu/ll_aton/ll_aton.c **** 
 6992              		.loc 1 2107 3 view .LVU2724
2107:Lib/AI_Runtime/Npu/ll_aton/ll_aton.c **** 
 6993              		.loc 1 2107 3 view .LVU2725
2107:Lib/AI_Runtime/Npu/ll_aton/ll_aton.c **** 
 6994              		.loc 1 2107 3 is_stmt 0 discriminator 1 view .LVU2726
 6995 014c 924A     		ldr	r2, .L495+8
2107:Lib/AI_Runtime/Npu/ll_aton/ll_aton.c **** 
 6996              		.loc 1 2107 3 discriminator 4 view .LVU2727
 6997 014e 8350     		str	r3, [r0, r2]
2107:Lib/AI_Runtime/Npu/ll_aton/ll_aton.c **** 
 6998              		.loc 1 2107 3 is_stmt 1 discriminator 4 view .LVU2728
2107:Lib/AI_Runtime/Npu/ll_aton/ll_aton.c **** 
 6999              		.loc 1 2107 3 discriminator 4 view .LVU2729
2109:Lib/AI_Runtime/Npu/ll_aton/ll_aton.c ****   t = ATON_ARITH_COEFFAC_SET_A(t, conf->A_scalar);
 7000              		.loc 1 2109 3 view .LVU2730
 7001              	.LVL774:
2110:Lib/AI_Runtime/Npu/ll_aton/ll_aton.c ****   t = ATON_ARITH_COEFFAC_SET_C(t, conf->C_scalar);
 7002              		.loc 1 2110 3 view .LVU2731
2111:Lib/AI_Runtime/Npu/ll_aton/ll_aton.c ****   ATON_ARITH_COEFFAC_SET(id, t);
 7003              		.loc 1 2111 3 view .LVU2732
ARM GAS  C:\Users\DJESSOU\AppData\Local\Temp\ccFxekaC.s 			page 224


2111:Lib/AI_Runtime/Npu/ll_aton/ll_aton.c ****   ATON_ARITH_COEFFAC_SET(id, t);
 7004              		.loc 1 2111 7 is_stmt 0 view .LVU2733
 7005 0150 B4F92420 		ldrsh	r2, [r4, #36]
2110:Lib/AI_Runtime/Npu/ll_aton/ll_aton.c ****   t = ATON_ARITH_COEFFAC_SET_C(t, conf->C_scalar);
 7006              		.loc 1 2110 7 view .LVU2734
 7007 0154 238C     		ldrh	r3, [r4, #32]
 7008              	.LVL775:
2111:Lib/AI_Runtime/Npu/ll_aton/ll_aton.c ****   ATON_ARITH_COEFFAC_SET(id, t);
 7009              		.loc 1 2111 5 view .LVU2735
 7010 0156 43EA0243 		orr	r3, r3, r2, lsl #16
 7011              	.LVL776:
2112:Lib/AI_Runtime/Npu/ll_aton/ll_aton.c **** 
 7012              		.loc 1 2112 3 is_stmt 1 view .LVU2736
2112:Lib/AI_Runtime/Npu/ll_aton/ll_aton.c **** 
 7013              		.loc 1 2112 3 view .LVU2737
2112:Lib/AI_Runtime/Npu/ll_aton/ll_aton.c **** 
 7014              		.loc 1 2112 3 view .LVU2738
2112:Lib/AI_Runtime/Npu/ll_aton/ll_aton.c **** 
 7015              		.loc 1 2112 3 is_stmt 0 discriminator 4 view .LVU2739
 7016 015a 8351     		str	r3, [r0, r6]
2112:Lib/AI_Runtime/Npu/ll_aton/ll_aton.c **** 
 7017              		.loc 1 2112 3 is_stmt 1 discriminator 4 view .LVU2740
2112:Lib/AI_Runtime/Npu/ll_aton/ll_aton.c **** 
 7018              		.loc 1 2112 3 discriminator 4 view .LVU2741
2114:Lib/AI_Runtime/Npu/ll_aton/ll_aton.c ****   t = ATON_ARITH_COEFFB_SET_B(t, conf->B_scalar);
 7019              		.loc 1 2114 3 view .LVU2742
 7020              	.LVL777:
2115:Lib/AI_Runtime/Npu/ll_aton/ll_aton.c ****   ATON_ARITH_COEFFB_SET(id, t);
 7021              		.loc 1 2115 3 view .LVU2743
2115:Lib/AI_Runtime/Npu/ll_aton/ll_aton.c ****   ATON_ARITH_COEFFB_SET(id, t);
 7022              		.loc 1 2115 7 is_stmt 0 view .LVU2744
 7023 015c 668C     		ldrh	r6, [r4, #34]
 7024              	.LVL778:
2116:Lib/AI_Runtime/Npu/ll_aton/ll_aton.c **** 
 7025              		.loc 1 2116 3 is_stmt 1 view .LVU2745
2116:Lib/AI_Runtime/Npu/ll_aton/ll_aton.c **** 
 7026              		.loc 1 2116 3 view .LVU2746
2116:Lib/AI_Runtime/Npu/ll_aton/ll_aton.c **** 
 7027              		.loc 1 2116 3 view .LVU2747
2116:Lib/AI_Runtime/Npu/ll_aton/ll_aton.c **** 
 7028              		.loc 1 2116 3 is_stmt 0 discriminator 1 view .LVU2748
 7029 015e 8F4B     		ldr	r3, .L495+12
2116:Lib/AI_Runtime/Npu/ll_aton/ll_aton.c **** 
 7030              		.loc 1 2116 3 discriminator 4 view .LVU2749
 7031 0160 C650     		str	r6, [r0, r3]
2116:Lib/AI_Runtime/Npu/ll_aton/ll_aton.c **** 
 7032              		.loc 1 2116 3 is_stmt 1 discriminator 4 view .LVU2750
2116:Lib/AI_Runtime/Npu/ll_aton/ll_aton.c **** 
 7033              		.loc 1 2116 3 discriminator 4 view .LVU2751
2119:Lib/AI_Runtime/Npu/ll_aton/ll_aton.c ****   {
 7034              		.loc 1 2119 3 view .LVU2752
2119:Lib/AI_Runtime/Npu/ll_aton/ll_aton.c ****   {
 7035              		.loc 1 2119 6 is_stmt 0 view .LVU2753
 7036 0162 06D5     		bpl	.L451
2121:Lib/AI_Runtime/Npu/ll_aton/ll_aton.c ****     t = ATON_ARITH_CLIPRANGE_SET_CLIPMAX(t, (conf->clipmax & 0xFFFFU));
 7037              		.loc 1 2121 5 is_stmt 1 view .LVU2754
 7038              	.LVL779:
ARM GAS  C:\Users\DJESSOU\AppData\Local\Temp\ccFxekaC.s 			page 225


2122:Lib/AI_Runtime/Npu/ll_aton/ll_aton.c ****     t = ATON_ARITH_CLIPRANGE_SET_CLIPMIN(t, (conf->clipmin & 0xFFFFU));
 7039              		.loc 1 2122 5 view .LVU2755
2123:Lib/AI_Runtime/Npu/ll_aton/ll_aton.c ****     ATON_ARITH_CLIPRANGE_SET(id, t);
 7040              		.loc 1 2123 5 view .LVU2756
2123:Lib/AI_Runtime/Npu/ll_aton/ll_aton.c ****     ATON_ARITH_CLIPRANGE_SET(id, t);
 7041              		.loc 1 2123 9 is_stmt 0 view .LVU2757
 7042 0164 B4F91C10 		ldrsh	r1, [r4, #28]
2122:Lib/AI_Runtime/Npu/ll_aton/ll_aton.c ****     t = ATON_ARITH_CLIPRANGE_SET_CLIPMIN(t, (conf->clipmin & 0xFFFFU));
 7043              		.loc 1 2122 9 view .LVU2758
 7044 0168 E38B     		ldrh	r3, [r4, #30]
 7045              	.LVL780:
2123:Lib/AI_Runtime/Npu/ll_aton/ll_aton.c ****     ATON_ARITH_CLIPRANGE_SET(id, t);
 7046              		.loc 1 2123 7 view .LVU2759
 7047 016a 43EA0143 		orr	r3, r3, r1, lsl #16
 7048              	.LVL781:
2124:Lib/AI_Runtime/Npu/ll_aton/ll_aton.c **** 
 7049              		.loc 1 2124 5 is_stmt 1 view .LVU2760
2124:Lib/AI_Runtime/Npu/ll_aton/ll_aton.c **** 
 7050              		.loc 1 2124 5 view .LVU2761
2124:Lib/AI_Runtime/Npu/ll_aton/ll_aton.c **** 
 7051              		.loc 1 2124 5 view .LVU2762
2124:Lib/AI_Runtime/Npu/ll_aton/ll_aton.c **** 
 7052              		.loc 1 2124 5 is_stmt 0 discriminator 1 view .LVU2763
 7053 016e 8C49     		ldr	r1, .L495+16
2124:Lib/AI_Runtime/Npu/ll_aton/ll_aton.c **** 
 7054              		.loc 1 2124 5 discriminator 4 view .LVU2764
 7055 0170 4350     		str	r3, [r0, r1]
 7056              	.LVL782:
 7057              	.L451:
2124:Lib/AI_Runtime/Npu/ll_aton/ll_aton.c **** 
 7058              		.loc 1 2124 5 is_stmt 1 discriminator 5 view .LVU2765
2124:Lib/AI_Runtime/Npu/ll_aton/ll_aton.c **** 
 7059              		.loc 1 2124 5 discriminator 5 view .LVU2766
2135:Lib/AI_Runtime/Npu/ll_aton/ll_aton.c **** 
 7060              		.loc 1 2135 3 view .LVU2767
2135:Lib/AI_Runtime/Npu/ll_aton/ll_aton.c **** 
 7061              		.loc 1 2135 3 view .LVU2768
2135:Lib/AI_Runtime/Npu/ll_aton/ll_aton.c **** 
 7062              		.loc 1 2135 3 view .LVU2769
2135:Lib/AI_Runtime/Npu/ll_aton/ll_aton.c **** 
 7063              		.loc 1 2135 3 is_stmt 0 discriminator 4 view .LVU2770
 7064 0172 0021     		movs	r1, #0
 7065 0174 8B4B     		ldr	r3, .L495+20
 7066 0176 C150     		str	r1, [r0, r3]
2135:Lib/AI_Runtime/Npu/ll_aton/ll_aton.c **** 
 7067              		.loc 1 2135 3 is_stmt 1 discriminator 4 view .LVU2771
2135:Lib/AI_Runtime/Npu/ll_aton/ll_aton.c **** 
 7068              		.loc 1 2135 3 discriminator 4 view .LVU2772
2137:Lib/AI_Runtime/Npu/ll_aton/ll_aton.c ****   if (conf->scalar == 0)
 7069              		.loc 1 2137 3 view .LVU2773
 7070              	.LVL783:
2138:Lib/AI_Runtime/Npu/ll_aton/ll_aton.c ****   { // vector mode
 7071              		.loc 1 2138 3 view .LVU2774
2138:Lib/AI_Runtime/Npu/ll_aton/ll_aton.c ****   { // vector mode
 7072              		.loc 1 2138 6 is_stmt 0 view .LVU2775
 7073 0178 75B1     		cbz	r5, .L452
 7074              	.LVL784:
ARM GAS  C:\Users\DJESSOU\AppData\Local\Temp\ccFxekaC.s 			page 226


 7075              	.L476:
2272:Lib/AI_Runtime/Npu/ll_aton/ll_aton.c **** }
 7076              		.loc 1 2272 10 view .LVU2776
 7077 017a 0020     		movs	r0, #0
 7078              	.LVL785:
 7079              	.L444:
2273:Lib/AI_Runtime/Npu/ll_aton/ll_aton.c **** #endif // ATON_ARITH_NUM
 7080              		.loc 1 2273 1 view .LVU2777
 7081 017c 0DB0     		add	sp, sp, #52
 7082              		.cfi_remember_state
 7083              		.cfi_def_cfa_offset 36
 7084              		@ sp needed
 7085 017e BDE8F08F 		pop	{r4, r5, r6, r7, r8, r9, r10, fp, pc}
 7086              	.LVL786:
 7087              	.L478:
 7088              		.cfi_restore_state
2064:Lib/AI_Runtime/Npu/ll_aton/ll_aton.c ****   t = ATON_ARITH_CTRL_SET_CNT3(t, (conf->scalar == 0) && (conf->bcast == ARITH_BCAST_CHAN));
 7089              		.loc 1 2064 7 discriminator 4 view .LVU2778
 7090 0182 0021     		movs	r1, #0
 7091 0184 5FE7     		b	.L446
 7092              	.LVL787:
 7093              	.L479:
2073:Lib/AI_Runtime/Npu/ll_aton/ll_aton.c ****   t = ATON_ARITH_CTRL_SET_DUALIN(t, (conf->dualinput != 0));
 7094              		.loc 1 2073 7 discriminator 1 view .LVU2779
 7095 0186 0026     		movs	r6, #0
 7096 0188 7DE7     		b	.L447
 7097              	.LVL788:
 7098              	.L448:
 7099              	.LBB167:
 7100              	.LBB166:
2031:Lib/AI_Runtime/Npu/ll_aton/ll_aton.c ****   }
 7101              		.loc 1 2031 5 is_stmt 1 view .LVU2780
2033:Lib/AI_Runtime/Npu/ll_aton/ll_aton.c ****   return 0;
 7102              		.loc 1 2033 3 view .LVU2781
 7103 018a 40F2F171 		movw	r1, #2033
 7104              	.LVL789:
2033:Lib/AI_Runtime/Npu/ll_aton/ll_aton.c ****   return 0;
 7105              		.loc 1 2033 3 is_stmt 0 view .LVU2782
 7106 018e 864B     		ldr	r3, .L495+24
 7107              	.LVL790:
2033:Lib/AI_Runtime/Npu/ll_aton/ll_aton.c ****   return 0;
 7108              		.loc 1 2033 3 view .LVU2783
 7109 0190 864A     		ldr	r2, .L495+28
 7110              	.LVL791:
 7111              	.L493:
2033:Lib/AI_Runtime/Npu/ll_aton/ll_aton.c ****   return 0;
 7112              		.loc 1 2033 3 view .LVU2784
 7113              	.LBE166:
 7114              	.LBE167:
 7115              	.LBB168:
 7116              	.LBB169:
2245:Lib/AI_Runtime/Npu/ll_aton/ll_aton.c ****       if (conf->combinebc && Cp != NULL)
 7117              		.loc 1 2245 7 discriminator 7 view .LVU2785
 7118 0192 8748     		ldr	r0, .L495+32
 7119 0194 FFF7FEFF 		bl	__assert_func
 7120              	.LVL792:
 7121              	.L452:
ARM GAS  C:\Users\DJESSOU\AppData\Local\Temp\ccFxekaC.s 			page 227


2245:Lib/AI_Runtime/Npu/ll_aton/ll_aton.c ****       if (conf->combinebc && Cp != NULL)
 7122              		.loc 1 2245 7 discriminator 7 view .LVU2786
 7123              	.LBE169:
2140:Lib/AI_Runtime/Npu/ll_aton/ll_aton.c ****     {
 7124              		.loc 1 2140 5 is_stmt 1 view .LVU2787
 7125 0198 637A     		ldrb	r3, [r4, #9]	@ zero_extendqisi2
 7126 019a 013B     		subs	r3, r3, #1
 7127 019c 042B     		cmp	r3, #4
 7128 019e 00F2F380 		bhi	.L480
 7129 01a2 DFE803F0 		tbb	[pc, r3]
 7130              	.L454:
 7131 01a6 03       		.byte	(.L458-.L454)/2
 7132 01a7 81       		.byte	(.L457-.L454)/2
 7133 01a8 99       		.byte	(.L456-.L454)/2
 7134 01a9 A2       		.byte	(.L455-.L454)/2
 7135 01aa AC       		.byte	(.L453-.L454)/2
 7136 01ab 00       		.p2align 1
 7137              	.L458:
2143:Lib/AI_Runtime/Npu/ll_aton/ll_aton.c ****       ATON_ARITH_INCCNT_SET(id, t);
 7138              		.loc 1 2143 7 view .LVU2788
 7139              	.LVL793:
2144:Lib/AI_Runtime/Npu/ll_aton/ll_aton.c **** 
 7140              		.loc 1 2144 7 view .LVU2789
2144:Lib/AI_Runtime/Npu/ll_aton/ll_aton.c **** 
 7141              		.loc 1 2144 7 view .LVU2790
2144:Lib/AI_Runtime/Npu/ll_aton/ll_aton.c **** 
 7142              		.loc 1 2144 7 view .LVU2791
2144:Lib/AI_Runtime/Npu/ll_aton/ll_aton.c **** 
 7143              		.loc 1 2144 7 is_stmt 0 discriminator 4 view .LVU2792
 7144 01ac 0021     		movs	r1, #0
2146:Lib/AI_Runtime/Npu/ll_aton/ll_aton.c ****       ATON_ARITH_RSTCNT1_SET(id, t);
 7145              		.loc 1 2146 11 view .LVU2793
 7146 01ae 658B     		ldrh	r5, [r4, #26]
2144:Lib/AI_Runtime/Npu/ll_aton/ll_aton.c **** 
 7147              		.loc 1 2144 7 discriminator 4 view .LVU2794
 7148 01b0 804B     		ldr	r3, .L495+36
2151:Lib/AI_Runtime/Npu/ll_aton/ll_aton.c **** 
 7149              		.loc 1 2151 7 discriminator 1 view .LVU2795
 7150 01b2 814E     		ldr	r6, .L495+40
2144:Lib/AI_Runtime/Npu/ll_aton/ll_aton.c **** 
 7151              		.loc 1 2144 7 discriminator 4 view .LVU2796
 7152 01b4 C150     		str	r1, [r0, r3]
2144:Lib/AI_Runtime/Npu/ll_aton/ll_aton.c **** 
 7153              		.loc 1 2144 7 is_stmt 1 discriminator 4 view .LVU2797
2144:Lib/AI_Runtime/Npu/ll_aton/ll_aton.c **** 
 7154              		.loc 1 2144 7 discriminator 4 view .LVU2798
2146:Lib/AI_Runtime/Npu/ll_aton/ll_aton.c ****       ATON_ARITH_RSTCNT1_SET(id, t);
 7155              		.loc 1 2146 7 view .LVU2799
2147:Lib/AI_Runtime/Npu/ll_aton/ll_aton.c **** 
 7156              		.loc 1 2147 7 is_stmt 0 discriminator 1 view .LVU2800
 7157 01b6 8149     		ldr	r1, .L495+44
2146:Lib/AI_Runtime/Npu/ll_aton/ll_aton.c ****       ATON_ARITH_RSTCNT1_SET(id, t);
 7158              		.loc 1 2146 11 view .LVU2801
 7159 01b8 6B1E     		subs	r3, r5, #1
2146:Lib/AI_Runtime/Npu/ll_aton/ll_aton.c ****       ATON_ARITH_RSTCNT1_SET(id, t);
 7160              		.loc 1 2146 9 view .LVU2802
 7161 01ba 23F07843 		bic	r3, r3, #-134217728
ARM GAS  C:\Users\DJESSOU\AppData\Local\Temp\ccFxekaC.s 			page 228


 7162              	.LVL794:
2147:Lib/AI_Runtime/Npu/ll_aton/ll_aton.c **** 
 7163              		.loc 1 2147 7 is_stmt 1 view .LVU2803
2147:Lib/AI_Runtime/Npu/ll_aton/ll_aton.c **** 
 7164              		.loc 1 2147 7 view .LVU2804
2147:Lib/AI_Runtime/Npu/ll_aton/ll_aton.c **** 
 7165              		.loc 1 2147 7 view .LVU2805
2147:Lib/AI_Runtime/Npu/ll_aton/ll_aton.c **** 
 7166              		.loc 1 2147 7 is_stmt 0 discriminator 4 view .LVU2806
 7167 01be 4350     		str	r3, [r0, r1]
2147:Lib/AI_Runtime/Npu/ll_aton/ll_aton.c **** 
 7168              		.loc 1 2147 7 is_stmt 1 discriminator 4 view .LVU2807
2147:Lib/AI_Runtime/Npu/ll_aton/ll_aton.c **** 
 7169              		.loc 1 2147 7 discriminator 4 view .LVU2808
2149:Lib/AI_Runtime/Npu/ll_aton/ll_aton.c ****           0, (conf->fWidth * conf->fHeight * conf->batchDepth - 1)); // must check this fits into 2
 7170              		.loc 1 2149 7 view .LVU2809
2149:Lib/AI_Runtime/Npu/ll_aton/ll_aton.c ****           0, (conf->fWidth * conf->fHeight * conf->batchDepth - 1)); // must check this fits into 2
 7171              		.loc 1 2149 11 is_stmt 0 view .LVU2810
 7172 01c0 D4E90413 		ldrd	r1, r3, [r4, #16]
 7173              	.LVL795:
2149:Lib/AI_Runtime/Npu/ll_aton/ll_aton.c ****           0, (conf->fWidth * conf->fHeight * conf->batchDepth - 1)); // must check this fits into 2
 7174              		.loc 1 2149 11 view .LVU2811
 7175 01c4 5943     		muls	r1, r3, r1
 7176 01c6 01FB05F3 		mul	r3, r1, r5
 7177 01ca 013B     		subs	r3, r3, #1
2149:Lib/AI_Runtime/Npu/ll_aton/ll_aton.c ****           0, (conf->fWidth * conf->fHeight * conf->batchDepth - 1)); // must check this fits into 2
 7178              		.loc 1 2149 9 view .LVU2812
 7179 01cc 23F07843 		bic	r3, r3, #-134217728
 7180              	.LVL796:
2151:Lib/AI_Runtime/Npu/ll_aton/ll_aton.c **** 
 7181              		.loc 1 2151 7 is_stmt 1 view .LVU2813
2151:Lib/AI_Runtime/Npu/ll_aton/ll_aton.c **** 
 7182              		.loc 1 2151 7 view .LVU2814
2151:Lib/AI_Runtime/Npu/ll_aton/ll_aton.c **** 
 7183              		.loc 1 2151 7 view .LVU2815
2151:Lib/AI_Runtime/Npu/ll_aton/ll_aton.c **** 
 7184              		.loc 1 2151 7 is_stmt 0 discriminator 4 view .LVU2816
 7185 01d0 8351     		str	r3, [r0, r6]
2151:Lib/AI_Runtime/Npu/ll_aton/ll_aton.c **** 
 7186              		.loc 1 2151 7 is_stmt 1 discriminator 4 view .LVU2817
2151:Lib/AI_Runtime/Npu/ll_aton/ll_aton.c **** 
 7187              		.loc 1 2151 7 discriminator 4 view .LVU2818
2153:Lib/AI_Runtime/Npu/ll_aton/ll_aton.c ****           0, (conf->fWidth * conf->fHeight * conf->fChannels - 1)); // must check this fits into 27
 7188              		.loc 1 2153 7 view .LVU2819
2153:Lib/AI_Runtime/Npu/ll_aton/ll_aton.c ****           0, (conf->fWidth * conf->fHeight * conf->fChannels - 1)); // must check this fits into 27
 7189              		.loc 1 2153 11 is_stmt 0 view .LVU2820
 7190 01d2 238B     		ldrh	r3, [r4, #24]
 7191              	.LVL797:
2155:Lib/AI_Runtime/Npu/ll_aton/ll_aton.c **** 
 7192              		.loc 1 2155 7 discriminator 1 view .LVU2821
 7193 01d4 0436     		adds	r6, r6, #4
 7194              	.LVL798:
2153:Lib/AI_Runtime/Npu/ll_aton/ll_aton.c ****           0, (conf->fWidth * conf->fHeight * conf->fChannels - 1)); // must check this fits into 27
 7195              		.loc 1 2153 11 view .LVU2822
 7196 01d6 5943     		muls	r1, r3, r1
 7197 01d8 0139     		subs	r1, r1, #1
2153:Lib/AI_Runtime/Npu/ll_aton/ll_aton.c ****           0, (conf->fWidth * conf->fHeight * conf->fChannels - 1)); // must check this fits into 27
ARM GAS  C:\Users\DJESSOU\AppData\Local\Temp\ccFxekaC.s 			page 229


 7198              		.loc 1 2153 9 view .LVU2823
 7199 01da 21F07841 		bic	r1, r1, #-134217728
 7200              	.LVL799:
2155:Lib/AI_Runtime/Npu/ll_aton/ll_aton.c **** 
 7201              		.loc 1 2155 7 is_stmt 1 view .LVU2824
2155:Lib/AI_Runtime/Npu/ll_aton/ll_aton.c **** 
 7202              		.loc 1 2155 7 view .LVU2825
2155:Lib/AI_Runtime/Npu/ll_aton/ll_aton.c **** 
 7203              		.loc 1 2155 7 view .LVU2826
2155:Lib/AI_Runtime/Npu/ll_aton/ll_aton.c **** 
 7204              		.loc 1 2155 7 is_stmt 0 discriminator 4 view .LVU2827
 7205 01de 8151     		str	r1, [r0, r6]
2155:Lib/AI_Runtime/Npu/ll_aton/ll_aton.c **** 
 7206              		.loc 1 2155 7 is_stmt 1 discriminator 4 view .LVU2828
2155:Lib/AI_Runtime/Npu/ll_aton/ll_aton.c **** 
 7207              		.loc 1 2155 7 discriminator 4 view .LVU2829
2157:Lib/AI_Runtime/Npu/ll_aton/ll_aton.c ****       ATON_ARITH_INCOFFSET_SET(id, t);
 7208              		.loc 1 2157 7 view .LVU2830
 7209              	.LVL800:
2158:Lib/AI_Runtime/Npu/ll_aton/ll_aton.c **** 
 7210              		.loc 1 2158 7 view .LVU2831
2158:Lib/AI_Runtime/Npu/ll_aton/ll_aton.c **** 
 7211              		.loc 1 2158 7 view .LVU2832
2158:Lib/AI_Runtime/Npu/ll_aton/ll_aton.c **** 
 7212              		.loc 1 2158 7 view .LVU2833
2158:Lib/AI_Runtime/Npu/ll_aton/ll_aton.c **** 
 7213              		.loc 1 2158 7 is_stmt 0 discriminator 4 view .LVU2834
 7214 01e0 0126     		movs	r6, #1
 7215 01e2 7749     		ldr	r1, .L495+48
2160:Lib/AI_Runtime/Npu/ll_aton/ll_aton.c ****       t = ATON_ARITH_ADDROFFSET_SET_OFFSET2(t, 1);
 7216              		.loc 1 2160 11 view .LVU2835
 7217 01e4 751B     		subs	r5, r6, r5
2158:Lib/AI_Runtime/Npu/ll_aton/ll_aton.c **** 
 7218              		.loc 1 2158 7 discriminator 4 view .LVU2836
 7219 01e6 4650     		str	r6, [r0, r1]
2158:Lib/AI_Runtime/Npu/ll_aton/ll_aton.c **** 
 7220              		.loc 1 2158 7 is_stmt 1 discriminator 4 view .LVU2837
2158:Lib/AI_Runtime/Npu/ll_aton/ll_aton.c **** 
 7221              		.loc 1 2158 7 discriminator 4 view .LVU2838
2160:Lib/AI_Runtime/Npu/ll_aton/ll_aton.c ****       t = ATON_ARITH_ADDROFFSET_SET_OFFSET2(t, 1);
 7222              		.loc 1 2160 7 view .LVU2839
 7223              	.LVL801:
2161:Lib/AI_Runtime/Npu/ll_aton/ll_aton.c ****       t = ATON_ARITH_ADDROFFSET_SET_OFFSET3(t, -(conf->fChannels - 1));
 7224              		.loc 1 2161 7 view .LVU2840
2162:Lib/AI_Runtime/Npu/ll_aton/ll_aton.c ****       ATON_ARITH_ADDROFFSET_SET(id, t);
 7225              		.loc 1 2162 11 is_stmt 0 view .LVU2841
 7226 01e8 7649     		ldr	r1, .L495+52
2161:Lib/AI_Runtime/Npu/ll_aton/ll_aton.c ****       t = ATON_ARITH_ADDROFFSET_SET_OFFSET3(t, -(conf->fChannels - 1));
 7227              		.loc 1 2161 9 view .LVU2842
 7228 01ea C5F30805 		ubfx	r5, r5, #0, #9
2162:Lib/AI_Runtime/Npu/ll_aton/ll_aton.c ****       ATON_ARITH_ADDROFFSET_SET(id, t);
 7229              		.loc 1 2162 11 view .LVU2843
 7230 01ee F61A     		subs	r6, r6, r3
2161:Lib/AI_Runtime/Npu/ll_aton/ll_aton.c ****       t = ATON_ARITH_ADDROFFSET_SET_OFFSET3(t, -(conf->fChannels - 1));
 7231              		.loc 1 2161 9 view .LVU2844
 7232 01f0 45F40075 		orr	r5, r5, #512
 7233              	.LVL802:
ARM GAS  C:\Users\DJESSOU\AppData\Local\Temp\ccFxekaC.s 			page 230


2162:Lib/AI_Runtime/Npu/ll_aton/ll_aton.c ****       ATON_ARITH_ADDROFFSET_SET(id, t);
 7234              		.loc 1 2162 7 is_stmt 1 view .LVU2845
2162:Lib/AI_Runtime/Npu/ll_aton/ll_aton.c ****       ATON_ARITH_ADDROFFSET_SET(id, t);
 7235              		.loc 1 2162 11 is_stmt 0 view .LVU2846
 7236 01f4 01EA8641 		and	r1, r1, r6, lsl #18
2162:Lib/AI_Runtime/Npu/ll_aton/ll_aton.c ****       ATON_ARITH_ADDROFFSET_SET(id, t);
 7237              		.loc 1 2162 9 view .LVU2847
 7238 01f8 2943     		orrs	r1, r1, r5
 7239              	.LVL803:
2163:Lib/AI_Runtime/Npu/ll_aton/ll_aton.c ****       maxc = conf->fChannels;
 7240              		.loc 1 2163 7 is_stmt 1 view .LVU2848
2163:Lib/AI_Runtime/Npu/ll_aton/ll_aton.c ****       maxc = conf->fChannels;
 7241              		.loc 1 2163 7 view .LVU2849
2163:Lib/AI_Runtime/Npu/ll_aton/ll_aton.c ****       maxc = conf->fChannels;
 7242              		.loc 1 2163 7 view .LVU2850
 7243              	.L491:
2177:Lib/AI_Runtime/Npu/ll_aton/ll_aton.c ****       maxc = conf->fHeight;
 7244              		.loc 1 2177 7 view .LVU2851
2177:Lib/AI_Runtime/Npu/ll_aton/ll_aton.c ****       maxc = conf->fHeight;
 7245              		.loc 1 2177 7 view .LVU2852
2177:Lib/AI_Runtime/Npu/ll_aton/ll_aton.c ****       maxc = conf->fHeight;
 7246              		.loc 1 2177 7 view .LVU2853
2177:Lib/AI_Runtime/Npu/ll_aton/ll_aton.c ****       maxc = conf->fHeight;
 7247              		.loc 1 2177 7 is_stmt 0 discriminator 1 view .LVU2854
 7248 01fa 734D     		ldr	r5, .L495+56
2177:Lib/AI_Runtime/Npu/ll_aton/ll_aton.c ****       maxc = conf->fHeight;
 7249              		.loc 1 2177 7 discriminator 4 view .LVU2855
 7250 01fc 4151     		str	r1, [r0, r5]
2177:Lib/AI_Runtime/Npu/ll_aton/ll_aton.c ****       maxc = conf->fHeight;
 7251              		.loc 1 2177 7 is_stmt 1 discriminator 4 view .LVU2856
2177:Lib/AI_Runtime/Npu/ll_aton/ll_aton.c ****       maxc = conf->fHeight;
 7252              		.loc 1 2177 7 discriminator 4 view .LVU2857
2178:Lib/AI_Runtime/Npu/ll_aton/ll_aton.c ****       break;
 7253              		.loc 1 2178 7 view .LVU2858
 7254              	.LVL804:
2179:Lib/AI_Runtime/Npu/ll_aton/ll_aton.c ****     case ARITH_BCAST_WIDTH:
 7255              		.loc 1 2179 7 view .LVU2859
 7256              	.L459:
2221:Lib/AI_Runtime/Npu/ll_aton/ll_aton.c ****     int i, k;
 7257              		.loc 1 2221 5 view .LVU2860
2221:Lib/AI_Runtime/Npu/ll_aton/ll_aton.c ****     int i, k;
 7258              		.loc 1 2221 10 is_stmt 0 view .LVU2861
 7259 01fe B3F5007F 		cmp	r3, #512
 7260 0202 A8BF     		it	ge
 7261 0204 4FF40073 		movge	r3, #512
 7262              	.LVL805:
2221:Lib/AI_Runtime/Npu/ll_aton/ll_aton.c ****     int i, k;
 7263              		.loc 1 2221 10 view .LVU2862
 7264 0208 0993     		str	r3, [sp, #36]
 7265              	.LVL806:
2222:Lib/AI_Runtime/Npu/ll_aton/ll_aton.c ****     uint32_t *Ap = (uint32_t *)conf->A_vector.p;
 7266              		.loc 1 2222 5 is_stmt 1 view .LVU2863
2223:Lib/AI_Runtime/Npu/ll_aton/ll_aton.c ****     uint32_t *Bp = (uint32_t *)conf->B_vector.p;
 7267              		.loc 1 2223 5 view .LVU2864
2223:Lib/AI_Runtime/Npu/ll_aton/ll_aton.c ****     uint32_t *Bp = (uint32_t *)conf->B_vector.p;
 7268              		.loc 1 2223 15 is_stmt 0 view .LVU2865
 7269 020a A36A     		ldr	r3, [r4, #40]
ARM GAS  C:\Users\DJESSOU\AppData\Local\Temp\ccFxekaC.s 			page 231


 7270              	.LVL807:
2234:Lib/AI_Runtime/Npu/ll_aton/ll_aton.c **** #if (LL_ATON_PLATFORM == LL_ATON_PLAT_EC_TRACE)
 7271              		.loc 1 2234 49 discriminator 1 view .LVU2866
 7272 020c 0132     		adds	r2, r2, #1
2223:Lib/AI_Runtime/Npu/ll_aton/ll_aton.c ****     uint32_t *Bp = (uint32_t *)conf->B_vector.p;
 7273              		.loc 1 2223 15 view .LVU2867
 7274 020e 0493     		str	r3, [sp, #16]
 7275              	.LVL808:
2224:Lib/AI_Runtime/Npu/ll_aton/ll_aton.c ****     uint32_t *Cp = (uint32_t *)conf->C_vector.p;
 7276              		.loc 1 2224 5 is_stmt 1 view .LVU2868
2225:Lib/AI_Runtime/Npu/ll_aton/ll_aton.c ****     int nbits_A = conf->vec_precision[0];
 7277              		.loc 1 2225 15 is_stmt 0 view .LVU2869
 7278 0210 D4E90B93 		ldrd	r9, r3, [r4, #44]
 7279              	.LVL809:
2225:Lib/AI_Runtime/Npu/ll_aton/ll_aton.c ****     int nbits_A = conf->vec_precision[0];
 7280              		.loc 1 2225 15 view .LVU2870
 7281 0214 0393     		str	r3, [sp, #12]
 7282              	.LVL810:
2226:Lib/AI_Runtime/Npu/ll_aton/ll_aton.c ****     int nbits_B = conf->vec_precision[1];
 7283              		.loc 1 2226 5 is_stmt 1 view .LVU2871
2226:Lib/AI_Runtime/Npu/ll_aton/ll_aton.c ****     int nbits_B = conf->vec_precision[1];
 7284              		.loc 1 2226 9 is_stmt 0 view .LVU2872
 7285 0216 94F83430 		ldrb	r3, [r4, #52]	@ zero_extendqisi2
 7286              	.LVL811:
2231:Lib/AI_Runtime/Npu/ll_aton/ll_aton.c ****     int mem_idx_num = ATON_ARITH_COEFF_AB_IDX_MAX - ATON_ARITH_COEFF_AB_IDX_MIN + 1;
 7287              		.loc 1 2231 9 view .LVU2873
 7288 021a 4FF00005 		mov	r5, #0
2226:Lib/AI_Runtime/Npu/ll_aton/ll_aton.c ****     int nbits_B = conf->vec_precision[1];
 7289              		.loc 1 2226 9 view .LVU2874
 7290 021e 0593     		str	r3, [sp, #20]
 7291              	.LVL812:
2227:Lib/AI_Runtime/Npu/ll_aton/ll_aton.c ****     int nbits_C = conf->vec_precision[2];
 7292              		.loc 1 2227 5 is_stmt 1 view .LVU2875
2227:Lib/AI_Runtime/Npu/ll_aton/ll_aton.c ****     int nbits_C = conf->vec_precision[2];
 7293              		.loc 1 2227 9 is_stmt 0 view .LVU2876
 7294 0220 94F83530 		ldrb	r3, [r4, #53]	@ zero_extendqisi2
 7295              	.LVL813:
2239:Lib/AI_Runtime/Npu/ll_aton/ll_aton.c ****     {
 7296              		.loc 1 2239 19 view .LVU2877
 7297 0224 2F46     		mov	r7, r5
2227:Lib/AI_Runtime/Npu/ll_aton/ll_aton.c ****     int nbits_C = conf->vec_precision[2];
 7298              		.loc 1 2227 9 view .LVU2878
 7299 0226 0693     		str	r3, [sp, #24]
 7300              	.LVL814:
2228:Lib/AI_Runtime/Npu/ll_aton/ll_aton.c ****     int bitcnt_A = 0;
 7301              		.loc 1 2228 5 is_stmt 1 view .LVU2879
2228:Lib/AI_Runtime/Npu/ll_aton/ll_aton.c ****     int bitcnt_A = 0;
 7302              		.loc 1 2228 9 is_stmt 0 view .LVU2880
 7303 0228 94F83630 		ldrb	r3, [r4, #54]	@ zero_extendqisi2
 7304              	.LVL815:
2239:Lib/AI_Runtime/Npu/ll_aton/ll_aton.c ****     {
 7305              		.loc 1 2239 12 view .LVU2881
 7306 022c AA46     		mov	r10, r5
2228:Lib/AI_Runtime/Npu/ll_aton/ll_aton.c ****     int bitcnt_A = 0;
 7307              		.loc 1 2228 9 view .LVU2882
 7308 022e 0793     		str	r3, [sp, #28]
 7309              	.LVL816:
ARM GAS  C:\Users\DJESSOU\AppData\Local\Temp\ccFxekaC.s 			page 232


2229:Lib/AI_Runtime/Npu/ll_aton/ll_aton.c ****     int bitcnt_B = 0;
 7310              		.loc 1 2229 5 is_stmt 1 view .LVU2883
2230:Lib/AI_Runtime/Npu/ll_aton/ll_aton.c ****     int bitcnt_C = 0;
 7311              		.loc 1 2230 5 view .LVU2884
2231:Lib/AI_Runtime/Npu/ll_aton/ll_aton.c ****     int mem_idx_num = ATON_ARITH_COEFF_AB_IDX_MAX - ATON_ARITH_COEFF_AB_IDX_MIN + 1;
 7312              		.loc 1 2231 5 view .LVU2885
2232:Lib/AI_Runtime/Npu/ll_aton/ll_aton.c **** 
 7313              		.loc 1 2232 5 view .LVU2886
2234:Lib/AI_Runtime/Npu/ll_aton/ll_aton.c **** #if (LL_ATON_PLATFORM == LL_ATON_PLAT_EC_TRACE)
 7314              		.loc 1 2234 5 view .LVU2887
2234:Lib/AI_Runtime/Npu/ll_aton/ll_aton.c **** #if (LL_ATON_PLATFORM == LL_ATON_PLAT_EC_TRACE)
 7315              		.loc 1 2234 49 is_stmt 0 discriminator 1 view .LVU2888
 7316 0230 14BF     		ite	ne
 7317 0232 0123     		movne	r3, #1
 7318              	.LVL817:
2234:Lib/AI_Runtime/Npu/ll_aton/ll_aton.c **** #if (LL_ATON_PLATFORM == LL_ATON_PLAT_EC_TRACE)
 7319              		.loc 1 2234 49 discriminator 1 view .LVU2889
 7320 0234 4FF0FF33 		moveq	r3, #-1
 7321 0238 0893     		str	r3, [sp, #32]
 7322              	.LVL818:
2238:Lib/AI_Runtime/Npu/ll_aton/ll_aton.c ****     for (i = 0, k = 0; i < maxc; i++, k++)
 7323              		.loc 1 2238 5 is_stmt 1 view .LVU2890
2238:Lib/AI_Runtime/Npu/ll_aton/ll_aton.c ****     for (i = 0, k = 0; i < maxc; i++, k++)
 7324              		.loc 1 2238 5 view .LVU2891
2238:Lib/AI_Runtime/Npu/ll_aton/ll_aton.c ****     for (i = 0, k = 0; i < maxc; i++, k++)
 7325              		.loc 1 2238 5 view .LVU2892
2238:Lib/AI_Runtime/Npu/ll_aton/ll_aton.c ****     for (i = 0, k = 0; i < maxc; i++, k++)
 7326              		.loc 1 2238 5 is_stmt 0 discriminator 1 view .LVU2893
 7327 023a 644B     		ldr	r3, .L495+60
 7328              	.LVL819:
 7329              	.LBB170:
2256:Lib/AI_Runtime/Npu/ll_aton/ll_aton.c ****         k -= (256 / 2);
 7330              		.loc 1 2256 9 discriminator 4 view .LVU2894
 7331 023c AB46     		mov	fp, r5
 7332              	.LBE170:
2238:Lib/AI_Runtime/Npu/ll_aton/ll_aton.c ****     for (i = 0, k = 0; i < maxc; i++, k++)
 7333              		.loc 1 2238 5 discriminator 1 view .LVU2895
 7334 023e C218     		adds	r2, r0, r3
 7335 0240 0A92     		str	r2, [sp, #40]
2238:Lib/AI_Runtime/Npu/ll_aton/ll_aton.c ****     for (i = 0, k = 0; i < maxc; i++, k++)
 7336              		.loc 1 2238 5 discriminator 4 view .LVU2896
 7337 0242 0122     		movs	r2, #1
2229:Lib/AI_Runtime/Npu/ll_aton/ll_aton.c ****     int bitcnt_B = 0;
 7338              		.loc 1 2229 9 view .LVU2897
 7339 0244 CDE90155 		strd	r5, r5, [sp, #4]
2238:Lib/AI_Runtime/Npu/ll_aton/ll_aton.c ****     for (i = 0, k = 0; i < maxc; i++, k++)
 7340              		.loc 1 2238 5 discriminator 4 view .LVU2898
 7341 0248 C250     		str	r2, [r0, r3]
2238:Lib/AI_Runtime/Npu/ll_aton/ll_aton.c ****     for (i = 0, k = 0; i < maxc; i++, k++)
 7342              		.loc 1 2238 5 is_stmt 1 discriminator 4 view .LVU2899
2238:Lib/AI_Runtime/Npu/ll_aton/ll_aton.c ****     for (i = 0, k = 0; i < maxc; i++, k++)
 7343              		.loc 1 2238 5 discriminator 4 view .LVU2900
2239:Lib/AI_Runtime/Npu/ll_aton/ll_aton.c ****     {
 7344              		.loc 1 2239 5 view .LVU2901
 7345              	.LVL820:
 7346              	.L461:
2239:Lib/AI_Runtime/Npu/ll_aton/ll_aton.c ****     {
ARM GAS  C:\Users\DJESSOU\AppData\Local\Temp\ccFxekaC.s 			page 233


 7347              		.loc 1 2239 26 discriminator 1 view .LVU2902
 7348 024a 099B     		ldr	r3, [sp, #36]
 7349 024c 9A45     		cmp	r10, r3
 7350 024e 94DA     		bge	.L476
 7351              	.LBB171:
2241:Lib/AI_Runtime/Npu/ll_aton/ll_aton.c ****       uint32_t A = Ap != NULL ? LL_ATON_getbits(Ap, bitcnt_A, nbits_A) : (uint32_t)conf->A_scalar;
 7352              		.loc 1 2241 7 view .LVU2903
2242:Lib/AI_Runtime/Npu/ll_aton/ll_aton.c ****       uint32_t B = Bp != NULL ? LL_ATON_getbits(Bp, bitcnt_B, nbits_B) : (uint32_t)conf->B_scalar;
 7353              		.loc 1 2242 7 view .LVU2904
2242:Lib/AI_Runtime/Npu/ll_aton/ll_aton.c ****       uint32_t B = Bp != NULL ? LL_ATON_getbits(Bp, bitcnt_B, nbits_B) : (uint32_t)conf->B_scalar;
 7354              		.loc 1 2242 72 is_stmt 0 view .LVU2905
 7355 0250 049B     		ldr	r3, [sp, #16]
 7356 0252 002B     		cmp	r3, #0
 7357 0254 5AD0     		beq	.L462
2242:Lib/AI_Runtime/Npu/ll_aton/ll_aton.c ****       uint32_t B = Bp != NULL ? LL_ATON_getbits(Bp, bitcnt_B, nbits_B) : (uint32_t)conf->B_scalar;
 7358              		.loc 1 2242 33 discriminator 1 view .LVU2906
 7359 0256 1846     		mov	r0, r3
 7360 0258 059A     		ldr	r2, [sp, #20]
 7361 025a 0199     		ldr	r1, [sp, #4]
 7362 025c FFF7FEFF 		bl	LL_ATON_getbits
 7363              	.LVL821:
 7364 0260 0646     		mov	r6, r0
 7365              	.L463:
 7366              	.LVL822:
2243:Lib/AI_Runtime/Npu/ll_aton/ll_aton.c ****       uint32_t C = Cp != NULL ? (c_sign * LL_ATON_getbits(Cp, bitcnt_C, nbits_C)) : (uint32_t)conf-
 7367              		.loc 1 2243 7 is_stmt 1 view .LVU2907
2243:Lib/AI_Runtime/Npu/ll_aton/ll_aton.c ****       uint32_t C = Cp != NULL ? (c_sign * LL_ATON_getbits(Cp, bitcnt_C, nbits_C)) : (uint32_t)conf-
 7368              		.loc 1 2243 72 is_stmt 0 view .LVU2908
 7369 0262 B9F1000F 		cmp	r9, #0
 7370 0266 54D0     		beq	.L464
2243:Lib/AI_Runtime/Npu/ll_aton/ll_aton.c ****       uint32_t C = Cp != NULL ? (c_sign * LL_ATON_getbits(Cp, bitcnt_C, nbits_C)) : (uint32_t)conf-
 7371              		.loc 1 2243 33 discriminator 1 view .LVU2909
 7372 0268 4846     		mov	r0, r9
 7373 026a 069A     		ldr	r2, [sp, #24]
 7374 026c 0299     		ldr	r1, [sp, #8]
 7375 026e FFF7FEFF 		bl	LL_ATON_getbits
 7376              	.LVL823:
 7377 0272 0346     		mov	r3, r0
 7378              	.L465:
 7379              	.LVL824:
2244:Lib/AI_Runtime/Npu/ll_aton/ll_aton.c ****       LL_ATON_ASSERT(conf->combinebc == 0 || (Cp == NULL && Bp == NULL) || (Cp != NULL && Bp == NUL
 7380              		.loc 1 2244 7 is_stmt 1 view .LVU2910
2244:Lib/AI_Runtime/Npu/ll_aton/ll_aton.c ****       LL_ATON_ASSERT(conf->combinebc == 0 || (Cp == NULL && Bp == NULL) || (Cp != NULL && Bp == NUL
 7381              		.loc 1 2244 83 is_stmt 0 view .LVU2911
 7382 0274 039A     		ldr	r2, [sp, #12]
 7383 0276 002A     		cmp	r2, #0
 7384 0278 4ED0     		beq	.L466
2244:Lib/AI_Runtime/Npu/ll_aton/ll_aton.c ****       LL_ATON_ASSERT(conf->combinebc == 0 || (Cp == NULL && Bp == NULL) || (Cp != NULL && Bp == NUL
 7385              		.loc 1 2244 43 discriminator 1 view .LVU2912
 7386 027a 2946     		mov	r1, r5
 7387 027c 079A     		ldr	r2, [sp, #28]
 7388 027e 0398     		ldr	r0, [sp, #12]
 7389 0280 0B93     		str	r3, [sp, #44]
 7390 0282 FFF7FEFF 		bl	LL_ATON_getbits
 7391              	.LVL825:
2244:Lib/AI_Runtime/Npu/ll_aton/ll_aton.c ****       LL_ATON_ASSERT(conf->combinebc == 0 || (Cp == NULL && Bp == NULL) || (Cp != NULL && Bp == NUL
 7392              		.loc 1 2244 83 discriminator 1 view .LVU2913
ARM GAS  C:\Users\DJESSOU\AppData\Local\Temp\ccFxekaC.s 			page 234


 7393 0286 089B     		ldr	r3, [sp, #32]
 7394 0288 5843     		muls	r0, r3, r0
 7395 028a 0B9B     		ldr	r3, [sp, #44]
 7396              	.LVL826:
 7397              	.L467:
2245:Lib/AI_Runtime/Npu/ll_aton/ll_aton.c ****       if (conf->combinebc && Cp != NULL)
 7398              		.loc 1 2245 7 is_stmt 1 view .LVU2914
 7399 028c E278     		ldrb	r2, [r4, #3]	@ zero_extendqisi2
 7400 028e D207     		lsls	r2, r2, #31
 7401 0290 4AD5     		bpl	.L468
2245:Lib/AI_Runtime/Npu/ll_aton/ll_aton.c ****       if (conf->combinebc && Cp != NULL)
 7402              		.loc 1 2245 7 is_stmt 0 discriminator 1 view .LVU2915
 7403 0292 039A     		ldr	r2, [sp, #12]
 7404 0294 002A     		cmp	r2, #0
 7405 0296 42D1     		bne	.L469
2245:Lib/AI_Runtime/Npu/ll_aton/ll_aton.c ****       if (conf->combinebc && Cp != NULL)
 7406              		.loc 1 2245 7 discriminator 3 view .LVU2916
 7407 0298 B9F1000F 		cmp	r9, #0
 7408 029c 44D0     		beq	.L468
 7409              	.L470:
2245:Lib/AI_Runtime/Npu/ll_aton/ll_aton.c ****       if (conf->combinebc && Cp != NULL)
 7410              		.loc 1 2245 7 discriminator 7 view .LVU2917
 7411 029e 40F6C501 		movw	r1, #2245
 7412 02a2 4B4B     		ldr	r3, .L495+64
 7413 02a4 4B4A     		ldr	r2, .L495+68
 7414 02a6 74E7     		b	.L493
 7415              	.LVL827:
 7416              	.L457:
2245:Lib/AI_Runtime/Npu/ll_aton/ll_aton.c ****       if (conf->combinebc && Cp != NULL)
 7417              		.loc 1 2245 7 discriminator 7 view .LVU2918
 7418              	.LBE171:
2167:Lib/AI_Runtime/Npu/ll_aton/ll_aton.c ****       ATON_ARITH_INCCNT_SET(id, t);
 7419              		.loc 1 2167 7 is_stmt 1 view .LVU2919
2167:Lib/AI_Runtime/Npu/ll_aton/ll_aton.c ****       ATON_ARITH_INCCNT_SET(id, t);
 7420              		.loc 1 2167 11 is_stmt 0 view .LVU2920
 7421 02a8 2169     		ldr	r1, [r4, #16]
 7422 02aa 658B     		ldrh	r5, [r4, #26]
2168:Lib/AI_Runtime/Npu/ll_aton/ll_aton.c **** 
 7423              		.loc 1 2168 7 discriminator 1 view .LVU2921
 7424 02ac 414E     		ldr	r6, .L495+36
2167:Lib/AI_Runtime/Npu/ll_aton/ll_aton.c ****       ATON_ARITH_INCCNT_SET(id, t);
 7425              		.loc 1 2167 11 view .LVU2922
 7426 02ae 05FB01F3 		mul	r3, r5, r1
 7427 02b2 013B     		subs	r3, r3, #1
2167:Lib/AI_Runtime/Npu/ll_aton/ll_aton.c ****       ATON_ARITH_INCCNT_SET(id, t);
 7428              		.loc 1 2167 9 view .LVU2923
 7429 02b4 23F07843 		bic	r3, r3, #-134217728
 7430              	.LVL828:
2168:Lib/AI_Runtime/Npu/ll_aton/ll_aton.c **** 
 7431              		.loc 1 2168 7 is_stmt 1 view .LVU2924
2168:Lib/AI_Runtime/Npu/ll_aton/ll_aton.c **** 
 7432              		.loc 1 2168 7 view .LVU2925
2168:Lib/AI_Runtime/Npu/ll_aton/ll_aton.c **** 
 7433              		.loc 1 2168 7 view .LVU2926
2168:Lib/AI_Runtime/Npu/ll_aton/ll_aton.c **** 
 7434              		.loc 1 2168 7 is_stmt 0 discriminator 4 view .LVU2927
 7435 02b8 8351     		str	r3, [r0, r6]
ARM GAS  C:\Users\DJESSOU\AppData\Local\Temp\ccFxekaC.s 			page 235


2168:Lib/AI_Runtime/Npu/ll_aton/ll_aton.c **** 
 7436              		.loc 1 2168 7 is_stmt 1 discriminator 4 view .LVU2928
2168:Lib/AI_Runtime/Npu/ll_aton/ll_aton.c **** 
 7437              		.loc 1 2168 7 discriminator 4 view .LVU2929
2170:Lib/AI_Runtime/Npu/ll_aton/ll_aton.c ****       ATON_ARITH_RSTCNT1_SET(id, t);
 7438              		.loc 1 2170 7 view .LVU2930
2170:Lib/AI_Runtime/Npu/ll_aton/ll_aton.c ****       ATON_ARITH_RSTCNT1_SET(id, t);
 7439              		.loc 1 2170 11 is_stmt 0 view .LVU2931
 7440 02ba 6369     		ldr	r3, [r4, #20]
 7441              	.LVL829:
2170:Lib/AI_Runtime/Npu/ll_aton/ll_aton.c ****       ATON_ARITH_RSTCNT1_SET(id, t);
 7442              		.loc 1 2170 11 view .LVU2932
 7443 02bc 5943     		muls	r1, r3, r1
 7444 02be 6943     		muls	r1, r5, r1
 7445              	.LVL830:
 7446              	.L492:
2171:Lib/AI_Runtime/Npu/ll_aton/ll_aton.c **** 
 7447              		.loc 1 2171 7 discriminator 1 view .LVU2933
 7448 02c0 3E4D     		ldr	r5, .L495+44
2170:Lib/AI_Runtime/Npu/ll_aton/ll_aton.c ****       ATON_ARITH_RSTCNT1_SET(id, t);
 7449              		.loc 1 2170 11 view .LVU2934
 7450 02c2 0139     		subs	r1, r1, #1
2170:Lib/AI_Runtime/Npu/ll_aton/ll_aton.c ****       ATON_ARITH_RSTCNT1_SET(id, t);
 7451              		.loc 1 2170 9 view .LVU2935
 7452 02c4 21F07841 		bic	r1, r1, #-134217728
 7453              	.LVL831:
2171:Lib/AI_Runtime/Npu/ll_aton/ll_aton.c **** 
 7454              		.loc 1 2171 7 is_stmt 1 view .LVU2936
2171:Lib/AI_Runtime/Npu/ll_aton/ll_aton.c **** 
 7455              		.loc 1 2171 7 view .LVU2937
2171:Lib/AI_Runtime/Npu/ll_aton/ll_aton.c **** 
 7456              		.loc 1 2171 7 view .LVU2938
2171:Lib/AI_Runtime/Npu/ll_aton/ll_aton.c **** 
 7457              		.loc 1 2171 7 is_stmt 0 discriminator 4 view .LVU2939
 7458 02c8 4151     		str	r1, [r0, r5]
2171:Lib/AI_Runtime/Npu/ll_aton/ll_aton.c **** 
 7459              		.loc 1 2171 7 is_stmt 1 discriminator 4 view .LVU2940
2171:Lib/AI_Runtime/Npu/ll_aton/ll_aton.c **** 
 7460              		.loc 1 2171 7 discriminator 4 view .LVU2941
2173:Lib/AI_Runtime/Npu/ll_aton/ll_aton.c ****       ATON_ARITH_INCOFFSET_SET(id, t);
 7461              		.loc 1 2173 7 view .LVU2942
 7462              	.LVL832:
2174:Lib/AI_Runtime/Npu/ll_aton/ll_aton.c **** 
 7463              		.loc 1 2174 7 view .LVU2943
2174:Lib/AI_Runtime/Npu/ll_aton/ll_aton.c **** 
 7464              		.loc 1 2174 7 view .LVU2944
2174:Lib/AI_Runtime/Npu/ll_aton/ll_aton.c **** 
 7465              		.loc 1 2174 7 view .LVU2945
2174:Lib/AI_Runtime/Npu/ll_aton/ll_aton.c **** 
 7466              		.loc 1 2174 7 is_stmt 0 discriminator 4 view .LVU2946
 7467 02ca 0125     		movs	r5, #1
 7468 02cc 3C49     		ldr	r1, .L495+48
 7469 02ce 4550     		str	r5, [r0, r1]
2174:Lib/AI_Runtime/Npu/ll_aton/ll_aton.c **** 
 7470              		.loc 1 2174 7 is_stmt 1 discriminator 4 view .LVU2947
2174:Lib/AI_Runtime/Npu/ll_aton/ll_aton.c **** 
 7471              		.loc 1 2174 7 discriminator 4 view .LVU2948
ARM GAS  C:\Users\DJESSOU\AppData\Local\Temp\ccFxekaC.s 			page 236


2176:Lib/AI_Runtime/Npu/ll_aton/ll_aton.c ****       ATON_ARITH_ADDROFFSET_SET(id, t);
 7472              		.loc 1 2176 7 view .LVU2949
2176:Lib/AI_Runtime/Npu/ll_aton/ll_aton.c ****       ATON_ARITH_ADDROFFSET_SET(id, t);
 7473              		.loc 1 2176 11 is_stmt 0 view .LVU2950
 7474 02d0 E91A     		subs	r1, r5, r3
2176:Lib/AI_Runtime/Npu/ll_aton/ll_aton.c ****       ATON_ARITH_ADDROFFSET_SET(id, t);
 7475              		.loc 1 2176 9 view .LVU2951
 7476 02d2 C1F30801 		ubfx	r1, r1, #0, #9
 7477 02d6 90E7     		b	.L491
 7478              	.LVL833:
 7479              	.L456:
2181:Lib/AI_Runtime/Npu/ll_aton/ll_aton.c ****       ATON_ARITH_INCCNT_SET(id, t);
 7480              		.loc 1 2181 7 is_stmt 1 view .LVU2952
2181:Lib/AI_Runtime/Npu/ll_aton/ll_aton.c ****       ATON_ARITH_INCCNT_SET(id, t);
 7481              		.loc 1 2181 11 is_stmt 0 view .LVU2953
 7482 02d8 618B     		ldrh	r1, [r4, #26]
2182:Lib/AI_Runtime/Npu/ll_aton/ll_aton.c **** 
 7483              		.loc 1 2182 7 discriminator 1 view .LVU2954
 7484 02da 364D     		ldr	r5, .L495+36
2181:Lib/AI_Runtime/Npu/ll_aton/ll_aton.c ****       ATON_ARITH_INCCNT_SET(id, t);
 7485              		.loc 1 2181 11 view .LVU2955
 7486 02dc 4B1E     		subs	r3, r1, #1
2181:Lib/AI_Runtime/Npu/ll_aton/ll_aton.c ****       ATON_ARITH_INCCNT_SET(id, t);
 7487              		.loc 1 2181 9 view .LVU2956
 7488 02de 23F07843 		bic	r3, r3, #-134217728
 7489              	.LVL834:
2182:Lib/AI_Runtime/Npu/ll_aton/ll_aton.c **** 
 7490              		.loc 1 2182 7 is_stmt 1 view .LVU2957
2182:Lib/AI_Runtime/Npu/ll_aton/ll_aton.c **** 
 7491              		.loc 1 2182 7 view .LVU2958
2182:Lib/AI_Runtime/Npu/ll_aton/ll_aton.c **** 
 7492              		.loc 1 2182 7 view .LVU2959
2182:Lib/AI_Runtime/Npu/ll_aton/ll_aton.c **** 
 7493              		.loc 1 2182 7 is_stmt 0 discriminator 4 view .LVU2960
 7494 02e2 4351     		str	r3, [r0, r5]
2182:Lib/AI_Runtime/Npu/ll_aton/ll_aton.c **** 
 7495              		.loc 1 2182 7 is_stmt 1 discriminator 4 view .LVU2961
2182:Lib/AI_Runtime/Npu/ll_aton/ll_aton.c **** 
 7496              		.loc 1 2182 7 discriminator 4 view .LVU2962
2184:Lib/AI_Runtime/Npu/ll_aton/ll_aton.c ****       ATON_ARITH_RSTCNT1_SET(id, t);
 7497              		.loc 1 2184 7 view .LVU2963
2184:Lib/AI_Runtime/Npu/ll_aton/ll_aton.c ****       ATON_ARITH_RSTCNT1_SET(id, t);
 7498              		.loc 1 2184 11 is_stmt 0 view .LVU2964
 7499 02e4 2369     		ldr	r3, [r4, #16]
 7500              	.LVL835:
 7501              	.L494:
2198:Lib/AI_Runtime/Npu/ll_aton/ll_aton.c ****       ATON_ARITH_RSTCNT1_SET(id, t);
 7502              		.loc 1 2198 11 view .LVU2965
 7503 02e6 5943     		muls	r1, r3, r1
 7504 02e8 EAE7     		b	.L492
 7505              	.L455:
2195:Lib/AI_Runtime/Npu/ll_aton/ll_aton.c ****       ATON_ARITH_INCCNT_SET(id, t);
 7506              		.loc 1 2195 7 is_stmt 1 view .LVU2966
2195:Lib/AI_Runtime/Npu/ll_aton/ll_aton.c ****       ATON_ARITH_INCCNT_SET(id, t);
 7507              		.loc 1 2195 11 is_stmt 0 view .LVU2967
 7508 02ea 618B     		ldrh	r1, [r4, #26]
2196:Lib/AI_Runtime/Npu/ll_aton/ll_aton.c **** 
ARM GAS  C:\Users\DJESSOU\AppData\Local\Temp\ccFxekaC.s 			page 237


 7509              		.loc 1 2196 7 discriminator 1 view .LVU2968
 7510 02ec 314D     		ldr	r5, .L495+36
2195:Lib/AI_Runtime/Npu/ll_aton/ll_aton.c ****       ATON_ARITH_INCCNT_SET(id, t);
 7511              		.loc 1 2195 11 view .LVU2969
 7512 02ee 4B1E     		subs	r3, r1, #1
2195:Lib/AI_Runtime/Npu/ll_aton/ll_aton.c ****       ATON_ARITH_INCCNT_SET(id, t);
 7513              		.loc 1 2195 9 view .LVU2970
 7514 02f0 23F07843 		bic	r3, r3, #-134217728
 7515              	.LVL836:
2196:Lib/AI_Runtime/Npu/ll_aton/ll_aton.c **** 
 7516              		.loc 1 2196 7 is_stmt 1 view .LVU2971
2196:Lib/AI_Runtime/Npu/ll_aton/ll_aton.c **** 
 7517              		.loc 1 2196 7 view .LVU2972
2196:Lib/AI_Runtime/Npu/ll_aton/ll_aton.c **** 
 7518              		.loc 1 2196 7 view .LVU2973
2196:Lib/AI_Runtime/Npu/ll_aton/ll_aton.c **** 
 7519              		.loc 1 2196 7 is_stmt 0 discriminator 4 view .LVU2974
 7520 02f4 4351     		str	r3, [r0, r5]
2196:Lib/AI_Runtime/Npu/ll_aton/ll_aton.c **** 
 7521              		.loc 1 2196 7 is_stmt 1 discriminator 4 view .LVU2975
2196:Lib/AI_Runtime/Npu/ll_aton/ll_aton.c **** 
 7522              		.loc 1 2196 7 discriminator 4 view .LVU2976
2198:Lib/AI_Runtime/Npu/ll_aton/ll_aton.c ****       ATON_ARITH_RSTCNT1_SET(id, t);
 7523              		.loc 1 2198 7 view .LVU2977
2198:Lib/AI_Runtime/Npu/ll_aton/ll_aton.c ****       ATON_ARITH_RSTCNT1_SET(id, t);
 7524              		.loc 1 2198 11 is_stmt 0 view .LVU2978
 7525 02f6 D4E90453 		ldrd	r5, r3, [r4, #16]
 7526              	.LVL837:
2198:Lib/AI_Runtime/Npu/ll_aton/ll_aton.c ****       ATON_ARITH_RSTCNT1_SET(id, t);
 7527              		.loc 1 2198 11 view .LVU2979
 7528 02fa 6B43     		muls	r3, r5, r3
 7529 02fc F3E7     		b	.L494
 7530              	.LVL838:
 7531              	.L453:
2209:Lib/AI_Runtime/Npu/ll_aton/ll_aton.c ****       ATON_ARITH_INCCNT_SET(id, t);
 7532              		.loc 1 2209 7 is_stmt 1 view .LVU2980
2210:Lib/AI_Runtime/Npu/ll_aton/ll_aton.c **** 
 7533              		.loc 1 2210 7 view .LVU2981
2210:Lib/AI_Runtime/Npu/ll_aton/ll_aton.c **** 
 7534              		.loc 1 2210 7 view .LVU2982
2210:Lib/AI_Runtime/Npu/ll_aton/ll_aton.c **** 
 7535              		.loc 1 2210 7 view .LVU2983
2210:Lib/AI_Runtime/Npu/ll_aton/ll_aton.c **** 
 7536              		.loc 1 2210 7 is_stmt 0 discriminator 4 view .LVU2984
 7537 02fe 0023     		movs	r3, #0
 7538 0300 2C49     		ldr	r1, .L495+36
 7539 0302 4350     		str	r3, [r0, r1]
2210:Lib/AI_Runtime/Npu/ll_aton/ll_aton.c **** 
 7540              		.loc 1 2210 7 is_stmt 1 discriminator 4 view .LVU2985
2210:Lib/AI_Runtime/Npu/ll_aton/ll_aton.c **** 
 7541              		.loc 1 2210 7 discriminator 4 view .LVU2986
2212:Lib/AI_Runtime/Npu/ll_aton/ll_aton.c ****       ATON_ARITH_INCOFFSET_SET(id, t);
 7542              		.loc 1 2212 7 view .LVU2987
2213:Lib/AI_Runtime/Npu/ll_aton/ll_aton.c **** 
 7543              		.loc 1 2213 7 view .LVU2988
2213:Lib/AI_Runtime/Npu/ll_aton/ll_aton.c **** 
 7544              		.loc 1 2213 7 view .LVU2989
ARM GAS  C:\Users\DJESSOU\AppData\Local\Temp\ccFxekaC.s 			page 238


2213:Lib/AI_Runtime/Npu/ll_aton/ll_aton.c **** 
 7545              		.loc 1 2213 7 view .LVU2990
2213:Lib/AI_Runtime/Npu/ll_aton/ll_aton.c **** 
 7546              		.loc 1 2213 7 is_stmt 0 discriminator 1 view .LVU2991
 7547 0304 1C31     		adds	r1, r1, #28
2213:Lib/AI_Runtime/Npu/ll_aton/ll_aton.c **** 
 7548              		.loc 1 2213 7 discriminator 4 view .LVU2992
 7549 0306 4350     		str	r3, [r0, r1]
2213:Lib/AI_Runtime/Npu/ll_aton/ll_aton.c **** 
 7550              		.loc 1 2213 7 is_stmt 1 discriminator 4 view .LVU2993
2213:Lib/AI_Runtime/Npu/ll_aton/ll_aton.c **** 
 7551              		.loc 1 2213 7 discriminator 4 view .LVU2994
2215:Lib/AI_Runtime/Npu/ll_aton/ll_aton.c ****       break;
 7552              		.loc 1 2215 7 view .LVU2995
 7553              	.LVL839:
2216:Lib/AI_Runtime/Npu/ll_aton/ll_aton.c ****     default:
 7554              		.loc 1 2216 7 view .LVU2996
2215:Lib/AI_Runtime/Npu/ll_aton/ll_aton.c ****       break;
 7555              		.loc 1 2215 12 is_stmt 0 view .LVU2997
 7556 0308 0123     		movs	r3, #1
2216:Lib/AI_Runtime/Npu/ll_aton/ll_aton.c ****     default:
 7557              		.loc 1 2216 7 view .LVU2998
 7558 030a 78E7     		b	.L459
 7559              	.LVL840:
 7560              	.L462:
 7561              	.LBB172:
2242:Lib/AI_Runtime/Npu/ll_aton/ll_aton.c ****       uint32_t B = Bp != NULL ? LL_ATON_getbits(Bp, bitcnt_B, nbits_B) : (uint32_t)conf->B_scalar;
 7562              		.loc 1 2242 72 discriminator 2 view .LVU2999
 7563 030c B4F92060 		ldrsh	r6, [r4, #32]
 7564 0310 A7E7     		b	.L463
 7565              	.LVL841:
 7566              	.L464:
2243:Lib/AI_Runtime/Npu/ll_aton/ll_aton.c ****       uint32_t C = Cp != NULL ? (c_sign * LL_ATON_getbits(Cp, bitcnt_C, nbits_C)) : (uint32_t)conf-
 7567              		.loc 1 2243 72 discriminator 2 view .LVU3000
 7568 0312 B4F92230 		ldrsh	r3, [r4, #34]
 7569 0316 ADE7     		b	.L465
 7570              	.LVL842:
 7571              	.L466:
2244:Lib/AI_Runtime/Npu/ll_aton/ll_aton.c ****       LL_ATON_ASSERT(conf->combinebc == 0 || (Cp == NULL && Bp == NULL) || (Cp != NULL && Bp == NUL
 7572              		.loc 1 2244 83 discriminator 2 view .LVU3001
 7573 0318 B4F92400 		ldrsh	r0, [r4, #36]
 7574 031c B6E7     		b	.L467
 7575              	.LVL843:
 7576              	.L469:
2245:Lib/AI_Runtime/Npu/ll_aton/ll_aton.c ****       if (conf->combinebc && Cp != NULL)
 7577              		.loc 1 2245 7 discriminator 6 view .LVU3002
 7578 031e B9F1000F 		cmp	r9, #0
 7579 0322 BCD1     		bne	.L470
2248:Lib/AI_Runtime/Npu/ll_aton/ll_aton.c ****         C = (C & 0xFFFF);
 7580              		.loc 1 2248 9 is_stmt 1 view .LVU3003
2248:Lib/AI_Runtime/Npu/ll_aton/ll_aton.c ****         C = (C & 0xFFFF);
 7581              		.loc 1 2248 11 is_stmt 0 view .LVU3004
 7582 0324 030C     		lsrs	r3, r0, #16
 7583              	.LVL844:
2249:Lib/AI_Runtime/Npu/ll_aton/ll_aton.c ****       }
 7584              		.loc 1 2249 9 is_stmt 1 view .LVU3005
2249:Lib/AI_Runtime/Npu/ll_aton/ll_aton.c ****       }
ARM GAS  C:\Users\DJESSOU\AppData\Local\Temp\ccFxekaC.s 			page 239


 7585              		.loc 1 2249 11 is_stmt 0 view .LVU3006
 7586 0326 80B2     		uxth	r0, r0
 7587              	.LVL845:
 7588              	.L468:
2251:Lib/AI_Runtime/Npu/ll_aton/ll_aton.c ****       {
 7589              		.loc 1 2251 7 is_stmt 1 view .LVU3007
2251:Lib/AI_Runtime/Npu/ll_aton/ll_aton.c ****       {
 7590              		.loc 1 2251 10 is_stmt 0 view .LVU3008
 7591 0328 B7F5C07F 		cmp	r7, #384
2256:Lib/AI_Runtime/Npu/ll_aton/ll_aton.c ****         k -= (256 / 2);
 7592              		.loc 1 2256 9 is_stmt 1 view .LVU3009
2256:Lib/AI_Runtime/Npu/ll_aton/ll_aton.c ****         k -= (256 / 2);
 7593              		.loc 1 2256 9 view .LVU3010
2256:Lib/AI_Runtime/Npu/ll_aton/ll_aton.c ****         k -= (256 / 2);
 7594              		.loc 1 2256 9 view .LVU3011
2257:Lib/AI_Runtime/Npu/ll_aton/ll_aton.c ****       }
 7595              		.loc 1 2257 11 is_stmt 0 view .LVU3012
 7596 032c 04BF     		itt	eq
 7597 032e 4FF48077 		moveq	r7, #256
 7598              	.LVL846:
2256:Lib/AI_Runtime/Npu/ll_aton/ll_aton.c ****         k -= (256 / 2);
 7599              		.loc 1 2256 9 discriminator 4 view .LVU3013
 7600 0332 0A9A     		ldreq	r2, [sp, #40]
2260:Lib/AI_Runtime/Npu/ll_aton/ll_aton.c ****       t = ATON_ARITH_COEFF_AB_SET_B(t, B);
 7601              		.loc 1 2260 11 view .LVU3014
 7602 0334 B6B2     		uxth	r6, r6
 7603              	.LVL847:
2256:Lib/AI_Runtime/Npu/ll_aton/ll_aton.c ****         k -= (256 / 2);
 7604              		.loc 1 2256 9 discriminator 4 view .LVU3015
 7605 0336 08BF     		it	eq
 7606 0338 C2F800B0 		streq	fp, [r2]
2256:Lib/AI_Runtime/Npu/ll_aton/ll_aton.c ****         k -= (256 / 2);
 7607              		.loc 1 2256 9 is_stmt 1 discriminator 4 view .LVU3016
2256:Lib/AI_Runtime/Npu/ll_aton/ll_aton.c ****         k -= (256 / 2);
 7608              		.loc 1 2256 9 discriminator 4 view .LVU3017
2257:Lib/AI_Runtime/Npu/ll_aton/ll_aton.c ****       }
 7609              		.loc 1 2257 9 view .LVU3018
 7610              	.LVL848:
2259:Lib/AI_Runtime/Npu/ll_aton/ll_aton.c ****       t = ATON_ARITH_COEFF_AB_SET_A(t, A);
 7611              		.loc 1 2259 7 view .LVU3019
2260:Lib/AI_Runtime/Npu/ll_aton/ll_aton.c ****       t = ATON_ARITH_COEFF_AB_SET_B(t, B);
 7612              		.loc 1 2260 7 view .LVU3020
2261:Lib/AI_Runtime/Npu/ll_aton/ll_aton.c ****       ATON_ARITH_COEFF_AB_SET(id, k, t);
 7613              		.loc 1 2261 7 view .LVU3021
2261:Lib/AI_Runtime/Npu/ll_aton/ll_aton.c ****       ATON_ARITH_COEFF_AB_SET(id, k, t);
 7614              		.loc 1 2261 9 is_stmt 0 view .LVU3022
 7615 033c 46EA0346 		orr	r6, r6, r3, lsl #16
 7616              	.LVL849:
2262:Lib/AI_Runtime/Npu/ll_aton/ll_aton.c ****       t = ATON_ARITH_COEFF_C_DT;
 7617              		.loc 1 2262 7 is_stmt 1 view .LVU3023
2262:Lib/AI_Runtime/Npu/ll_aton/ll_aton.c ****       t = ATON_ARITH_COEFF_C_DT;
 7618              		.loc 1 2262 7 view .LVU3024
2262:Lib/AI_Runtime/Npu/ll_aton/ll_aton.c ****       t = ATON_ARITH_COEFF_C_DT;
 7619              		.loc 1 2262 7 view .LVU3025
2262:Lib/AI_Runtime/Npu/ll_aton/ll_aton.c ****       t = ATON_ARITH_COEFF_C_DT;
 7620              		.loc 1 2262 7 is_stmt 0 discriminator 5 view .LVU3026
 7621 0340 B7F5C07F 		cmp	r7, #384
ARM GAS  C:\Users\DJESSOU\AppData\Local\Temp\ccFxekaC.s 			page 240


 7622 0344 07F18003 		add	r3, r7, #128
 7623              	.LVL850:
2262:Lib/AI_Runtime/Npu/ll_aton/ll_aton.c ****       t = ATON_ARITH_COEFF_C_DT;
 7624              		.loc 1 2262 7 discriminator 5 view .LVU3027
 7625 0348 4FEAC303 		lsl	r3, r3, #3
 7626 034c 28BF     		it	cs
 7627 034e 5B46     		movcs	r3, fp
2262:Lib/AI_Runtime/Npu/ll_aton/ll_aton.c ****       t = ATON_ARITH_COEFF_C_DT;
 7628              		.loc 1 2262 7 discriminator 8 view .LVU3028
 7629 0350 48F80360 		str	r6, [r8, r3]
2262:Lib/AI_Runtime/Npu/ll_aton/ll_aton.c ****       t = ATON_ARITH_COEFF_C_DT;
 7630              		.loc 1 2262 7 is_stmt 1 discriminator 8 view .LVU3029
2262:Lib/AI_Runtime/Npu/ll_aton/ll_aton.c ****       t = ATON_ARITH_COEFF_C_DT;
 7631              		.loc 1 2262 7 discriminator 8 view .LVU3030
2263:Lib/AI_Runtime/Npu/ll_aton/ll_aton.c ****       t = ATON_ARITH_COEFF_C_SET_C(t, C);
 7632              		.loc 1 2263 7 view .LVU3031
 7633              	.LVL851:
2264:Lib/AI_Runtime/Npu/ll_aton/ll_aton.c ****       ATON_ARITH_COEFF_C_SET(id, k, t);
 7634              		.loc 1 2264 7 view .LVU3032
2265:Lib/AI_Runtime/Npu/ll_aton/ll_aton.c **** 
 7635              		.loc 1 2265 7 is_stmt 0 discriminator 5 view .LVU3033
 7636 0354 4FEAC703 		lsl	r3, r7, #3
 7637 0358 03F20443 		addw	r3, r3, #1028
 7638 035c 28BF     		it	cs
 7639 035e 5B46     		movcs	r3, fp
2264:Lib/AI_Runtime/Npu/ll_aton/ll_aton.c ****       ATON_ARITH_COEFF_C_SET(id, k, t);
 7640              		.loc 1 2264 11 view .LVU3034
 7641 0360 80B2     		uxth	r0, r0
 7642              	.LVL852:
2265:Lib/AI_Runtime/Npu/ll_aton/ll_aton.c **** 
 7643              		.loc 1 2265 7 is_stmt 1 view .LVU3035
2265:Lib/AI_Runtime/Npu/ll_aton/ll_aton.c **** 
 7644              		.loc 1 2265 7 view .LVU3036
2265:Lib/AI_Runtime/Npu/ll_aton/ll_aton.c **** 
 7645              		.loc 1 2265 7 view .LVU3037
2267:Lib/AI_Runtime/Npu/ll_aton/ll_aton.c ****       bitcnt_B += nbits_B;
 7646              		.loc 1 2267 16 is_stmt 0 view .LVU3038
 7647 0362 059A     		ldr	r2, [sp, #20]
2265:Lib/AI_Runtime/Npu/ll_aton/ll_aton.c **** 
 7648              		.loc 1 2265 7 discriminator 8 view .LVU3039
 7649 0364 48F80300 		str	r0, [r8, r3]
2265:Lib/AI_Runtime/Npu/ll_aton/ll_aton.c **** 
 7650              		.loc 1 2265 7 is_stmt 1 discriminator 8 view .LVU3040
2265:Lib/AI_Runtime/Npu/ll_aton/ll_aton.c **** 
 7651              		.loc 1 2265 7 discriminator 8 view .LVU3041
2267:Lib/AI_Runtime/Npu/ll_aton/ll_aton.c ****       bitcnt_B += nbits_B;
 7652              		.loc 1 2267 7 view .LVU3042
2267:Lib/AI_Runtime/Npu/ll_aton/ll_aton.c ****       bitcnt_B += nbits_B;
 7653              		.loc 1 2267 16 is_stmt 0 view .LVU3043
 7654 0368 019B     		ldr	r3, [sp, #4]
 7655              	.LBE172:
2239:Lib/AI_Runtime/Npu/ll_aton/ll_aton.c ****     {
 7656              		.loc 1 2239 35 discriminator 2 view .LVU3044
 7657 036a 0AF1010A 		add	r10, r10, #1
 7658              	.LVL853:
 7659              	.LBB173:
2267:Lib/AI_Runtime/Npu/ll_aton/ll_aton.c ****       bitcnt_B += nbits_B;
ARM GAS  C:\Users\DJESSOU\AppData\Local\Temp\ccFxekaC.s 			page 241


 7660              		.loc 1 2267 16 view .LVU3045
 7661 036e 1344     		add	r3, r3, r2
 7662 0370 0193     		str	r3, [sp, #4]
 7663              	.LVL854:
2268:Lib/AI_Runtime/Npu/ll_aton/ll_aton.c ****       bitcnt_C += nbits_C;
 7664              		.loc 1 2268 7 is_stmt 1 view .LVU3046
2268:Lib/AI_Runtime/Npu/ll_aton/ll_aton.c ****       bitcnt_C += nbits_C;
 7665              		.loc 1 2268 16 is_stmt 0 view .LVU3047
 7666 0372 069A     		ldr	r2, [sp, #24]
 7667 0374 029B     		ldr	r3, [sp, #8]
 7668              	.LVL855:
2268:Lib/AI_Runtime/Npu/ll_aton/ll_aton.c ****       bitcnt_C += nbits_C;
 7669              		.loc 1 2268 16 view .LVU3048
 7670              	.LBE173:
2239:Lib/AI_Runtime/Npu/ll_aton/ll_aton.c ****     {
 7671              		.loc 1 2239 40 discriminator 2 view .LVU3049
 7672 0376 0137     		adds	r7, r7, #1
 7673              	.LVL856:
 7674              	.LBB174:
2268:Lib/AI_Runtime/Npu/ll_aton/ll_aton.c ****       bitcnt_C += nbits_C;
 7675              		.loc 1 2268 16 view .LVU3050
 7676 0378 1344     		add	r3, r3, r2
 7677 037a 0293     		str	r3, [sp, #8]
 7678              	.LVL857:
2269:Lib/AI_Runtime/Npu/ll_aton/ll_aton.c ****     }
 7679              		.loc 1 2269 7 is_stmt 1 view .LVU3051
2269:Lib/AI_Runtime/Npu/ll_aton/ll_aton.c ****     }
 7680              		.loc 1 2269 16 is_stmt 0 view .LVU3052
 7681 037c 079B     		ldr	r3, [sp, #28]
 7682              	.LVL858:
2269:Lib/AI_Runtime/Npu/ll_aton/ll_aton.c ****     }
 7683              		.loc 1 2269 16 view .LVU3053
 7684 037e 1D44     		add	r5, r5, r3
 7685              	.LVL859:
2269:Lib/AI_Runtime/Npu/ll_aton/ll_aton.c ****     }
 7686              		.loc 1 2269 16 view .LVU3054
 7687              	.LBE174:
2239:Lib/AI_Runtime/Npu/ll_aton/ll_aton.c ****     {
 7688              		.loc 1 2239 37 is_stmt 1 discriminator 2 view .LVU3055
2239:Lib/AI_Runtime/Npu/ll_aton/ll_aton.c ****     {
 7689              		.loc 1 2239 37 is_stmt 0 discriminator 2 view .LVU3056
 7690 0380 63E7     		b	.L461
 7691              	.LVL860:
 7692              	.L477:
2239:Lib/AI_Runtime/Npu/ll_aton/ll_aton.c ****     {
 7693              		.loc 1 2239 37 discriminator 2 view .LVU3057
 7694              	.LBE168:
2049:Lib/AI_Runtime/Npu/ll_aton/ll_aton.c **** 
 7695              		.loc 1 2049 12 view .LVU3058
 7696 0382 4FF0FF30 		mov	r0, #-1
 7697              	.LVL861:
2049:Lib/AI_Runtime/Npu/ll_aton/ll_aton.c **** 
 7698              		.loc 1 2049 12 view .LVU3059
 7699 0386 F9E6     		b	.L444
 7700              	.LVL862:
 7701              	.L480:
 7702              	.LBB175:
ARM GAS  C:\Users\DJESSOU\AppData\Local\Temp\ccFxekaC.s 			page 242


2140:Lib/AI_Runtime/Npu/ll_aton/ll_aton.c ****     {
 7703              		.loc 1 2140 5 view .LVU3060
 7704 0388 6FF00100 		mvn	r0, #1
 7705 038c F6E6     		b	.L444
 7706              	.L496:
 7707 038e 00BF     		.align	2
 7708              	.L495:
 7709 0390 34700F58 		.word	1477406772
 7710 0394 1C700F58 		.word	1477406748
 7711 0398 08700F58 		.word	1477406728
 7712 039c 20700F58 		.word	1477406752
 7713 03a0 38700F58 		.word	1477406776
 7714 03a4 30700F58 		.word	1477406768
 7715 03a8 95000000 		.word	.LC7
 7716 03ac 00000000 		.word	__func__.2
 7717 03b0 05000000 		.word	.LC4
 7718 03b4 0C700F58 		.word	1477406732
 7719 03b8 14700F58 		.word	1477406740
 7720 03bc 10700F58 		.word	1477406736
 7721 03c0 28700F58 		.word	1477406760
 7722 03c4 0000FC07 		.word	133955584
 7723 03c8 24700F58 		.word	1477406756
 7724 03cc 2C700F58 		.word	1477406764
 7725 03d0 00000000 		.word	.LC28
 7726 03d4 00000000 		.word	__func__.3
 7727 03d8 00000000 		.word	CSWTCH.279
 7728              	.LBE175:
 7729              		.cfi_endproc
 7730              	.LFE310:
 7732              		.section	.text.LL_Poolacc_Init,"ax",%progbits
 7733              		.align	1
 7734              		.global	LL_Poolacc_Init
 7735              		.syntax unified
 7736              		.thumb
 7737              		.thumb_func
 7739              	LL_Poolacc_Init:
 7740              	.LVL863:
 7741              	.LFB312:
2308:Lib/AI_Runtime/Npu/ll_aton/ll_aton.c ****   uint32_t t;
 7742              		.loc 1 2308 1 is_stmt 1 view -0
 7743              		.cfi_startproc
 7744              		@ args = 0, pretend = 0, frame = 0
 7745              		@ frame_needed = 0, uses_anonymous_args = 0
2309:Lib/AI_Runtime/Npu/ll_aton/ll_aton.c **** 
 7746              		.loc 1 2309 3 view .LVU3062
2311:Lib/AI_Runtime/Npu/ll_aton/ll_aton.c ****     return LL_ATON_INVALID_ID;
 7747              		.loc 1 2311 3 view .LVU3063
2311:Lib/AI_Runtime/Npu/ll_aton/ll_aton.c ****     return LL_ATON_INVALID_ID;
 7748              		.loc 1 2311 6 is_stmt 0 view .LVU3064
 7749 0000 0128     		cmp	r0, #1
2308:Lib/AI_Runtime/Npu/ll_aton/ll_aton.c ****   uint32_t t;
 7750              		.loc 1 2308 1 view .LVU3065
 7751 0002 F8B5     		push	{r3, r4, r5, r6, r7, lr}
 7752              		.cfi_def_cfa_offset 24
 7753              		.cfi_offset 3, -24
 7754              		.cfi_offset 4, -20
 7755              		.cfi_offset 5, -16
ARM GAS  C:\Users\DJESSOU\AppData\Local\Temp\ccFxekaC.s 			page 243


 7756              		.cfi_offset 6, -12
 7757              		.cfi_offset 7, -8
 7758              		.cfi_offset 14, -4
2308:Lib/AI_Runtime/Npu/ll_aton/ll_aton.c ****   uint32_t t;
 7759              		.loc 1 2308 1 view .LVU3066
 7760 0004 0546     		mov	r5, r0
 7761 0006 0C46     		mov	r4, r1
2311:Lib/AI_Runtime/Npu/ll_aton/ll_aton.c ****     return LL_ATON_INVALID_ID;
 7762              		.loc 1 2311 6 view .LVU3067
 7763 0008 00F3BC80 		bgt	.L504
2314:Lib/AI_Runtime/Npu/ll_aton/ll_aton.c **** 
 7764              		.loc 1 2314 3 is_stmt 1 view .LVU3068
2314:Lib/AI_Runtime/Npu/ll_aton/ll_aton.c **** 
 7765              		.loc 1 2314 3 is_stmt 0 discriminator 4 view .LVU3069
 7766 000c 1630     		adds	r0, r0, #22
 7767              	.LVL864:
2314:Lib/AI_Runtime/Npu/ll_aton/ll_aton.c **** 
 7768              		.loc 1 2314 3 discriminator 4 view .LVU3070
 7769 000e FFF7FEFF 		bl	LL_ATON_EnableClock
 7770              	.LVL865:
2326:Lib/AI_Runtime/Npu/ll_aton/ll_aton.c ****   t = ATON_POOL_CTRL_SET_TYPE(t, get_Poolacc_type(conf->operation));
 7771              		.loc 1 2326 3 is_stmt 1 view .LVU3071
2327:Lib/AI_Runtime/Npu/ll_aton/ll_aton.c ****   t = ATON_POOL_CTRL_SET_ROUND(t, (conf->rounding_o != 0));
 7772              		.loc 1 2327 3 view .LVU3072
 7773              	.LBB178:
 7774              	.LBI178:
2278:Lib/AI_Runtime/Npu/ll_aton/ll_aton.c **** {
 7775              		.loc 1 2278 16 view .LVU3073
 7776              	.LBB179:
2280:Lib/AI_Runtime/Npu/ll_aton/ll_aton.c ****   {
 7777              		.loc 1 2280 3 view .LVU3074
 7778 0012 2378     		ldrb	r3, [r4]	@ zero_extendqisi2
 7779 0014 013B     		subs	r3, r3, #1
 7780 0016 DBB2     		uxtb	r3, r3
 7781 0018 052B     		cmp	r3, #5
 7782 001a 00F2AC80 		bhi	.L499
 7783              	.LVL866:
2280:Lib/AI_Runtime/Npu/ll_aton/ll_aton.c ****   {
 7784              		.loc 1 2280 3 is_stmt 0 view .LVU3075
 7785              	.LBE179:
 7786              	.LBE178:
2328:Lib/AI_Runtime/Npu/ll_aton/ll_aton.c ****   t = ATON_POOL_CTRL_SET_SAT(t, (conf->saturation_o != 0));
 7787              		.loc 1 2328 3 is_stmt 1 view .LVU3076
2329:Lib/AI_Runtime/Npu/ll_aton/ll_aton.c ****   t = ATON_POOL_CTRL_SET_OUTSHIFT(t, conf->shift_o);
 7788              		.loc 1 2329 3 view .LVU3077
2330:Lib/AI_Runtime/Npu/ll_aton/ll_aton.c ****   t = ATON_POOL_CTRL_SET_FBYTES(t, conf->inbytes_f);
 7789              		.loc 1 2330 3 view .LVU3078
2331:Lib/AI_Runtime/Npu/ll_aton/ll_aton.c ****   t = ATON_POOL_CTRL_SET_FSHIFT(t, ATON_SHIFT(conf->shift_f));
 7790              		.loc 1 2331 3 view .LVU3079
2332:Lib/AI_Runtime/Npu/ll_aton/ll_aton.c ****   t = ATON_POOL_CTRL_SET_FROUND(t, (conf->rounding_f != 0));
 7791              		.loc 1 2332 3 view .LVU3080
2333:Lib/AI_Runtime/Npu/ll_aton/ll_aton.c ****   t = ATON_POOL_CTRL_SET_FSAT(t, (conf->saturation_f != 0));
 7792              		.loc 1 2333 3 view .LVU3081
2327:Lib/AI_Runtime/Npu/ll_aton/ll_aton.c ****   t = ATON_POOL_CTRL_SET_ROUND(t, (conf->rounding_o != 0));
 7793              		.loc 1 2327 7 is_stmt 0 discriminator 1 view .LVU3082
 7794 001e 5B49     		ldr	r1, .L507
2333:Lib/AI_Runtime/Npu/ll_aton/ll_aton.c ****   t = ATON_POOL_CTRL_SET_FSAT(t, (conf->saturation_f != 0));
ARM GAS  C:\Users\DJESSOU\AppData\Local\Temp\ccFxekaC.s 			page 244


 7795              		.loc 1 2333 7 view .LVU3083
 7796 0020 94F82200 		ldrb	r0, [r4, #34]	@ zero_extendqisi2
2327:Lib/AI_Runtime/Npu/ll_aton/ll_aton.c ****   t = ATON_POOL_CTRL_SET_ROUND(t, (conf->rounding_o != 0));
 7797              		.loc 1 2327 7 discriminator 1 view .LVU3084
 7798 0024 CB56     		ldrsb	r3, [r1, r3]
 7799              	.LVL867:
2331:Lib/AI_Runtime/Npu/ll_aton/ll_aton.c ****   t = ATON_POOL_CTRL_SET_FSHIFT(t, ATON_SHIFT(conf->shift_f));
 7800              		.loc 1 2331 7 view .LVU3085
 7801 0026 618C     		ldrh	r1, [r4, #34]
2327:Lib/AI_Runtime/Npu/ll_aton/ll_aton.c ****   t = ATON_POOL_CTRL_SET_ROUND(t, (conf->rounding_o != 0));
 7802              		.loc 1 2327 7 discriminator 1 view .LVU3086
 7803 0028 9B00     		lsls	r3, r3, #2
2331:Lib/AI_Runtime/Npu/ll_aton/ll_aton.c ****   t = ATON_POOL_CTRL_SET_FSHIFT(t, ATON_SHIFT(conf->shift_f));
 7804              		.loc 1 2331 7 view .LVU3087
 7805 002a C1F3C111 		ubfx	r1, r1, #7, #2
2327:Lib/AI_Runtime/Npu/ll_aton/ll_aton.c ****   t = ATON_POOL_CTRL_SET_ROUND(t, (conf->rounding_o != 0));
 7806              		.loc 1 2327 7 discriminator 1 view .LVU3088
 7807 002e 03F03C03 		and	r3, r3, #60
2338:Lib/AI_Runtime/Npu/ll_aton/ll_aton.c **** #if 0
 7808              		.loc 1 2338 5 view .LVU3089
 7809 0032 43EA0143 		orr	r3, r3, r1, lsl #16
2328:Lib/AI_Runtime/Npu/ll_aton/ll_aton.c ****   t = ATON_POOL_CTRL_SET_SAT(t, (conf->saturation_o != 0));
 7810              		.loc 1 2328 7 view .LVU3090
 7811 0036 94F82310 		ldrb	r1, [r4, #35]	@ zero_extendqisi2
2333:Lib/AI_Runtime/Npu/ll_aton/ll_aton.c ****   t = ATON_POOL_CTRL_SET_FSAT(t, (conf->saturation_f != 0));
 7812              		.loc 1 2333 7 view .LVU3091
 7813 003a 4205     		lsls	r2, r0, #21
 7814              	.LVL868:
2334:Lib/AI_Runtime/Npu/ll_aton/ll_aton.c **** #ifdef ATON_POOL_CTRL_SET_AVGNOPAD
 7815              		.loc 1 2334 3 is_stmt 1 view .LVU3092
2338:Lib/AI_Runtime/Npu/ll_aton/ll_aton.c **** #if 0
 7816              		.loc 1 2338 3 view .LVU3093
2328:Lib/AI_Runtime/Npu/ll_aton/ll_aton.c ****   t = ATON_POOL_CTRL_SET_SAT(t, (conf->saturation_o != 0));
 7817              		.loc 1 2328 7 is_stmt 0 view .LVU3094
 7818 003c C900     		lsls	r1, r1, #3
2338:Lib/AI_Runtime/Npu/ll_aton/ll_aton.c **** #if 0
 7819              		.loc 1 2338 5 view .LVU3095
 7820 003e 01F0C001 		and	r1, r1, #192
 7821 0042 0B43     		orrs	r3, r3, r1
2330:Lib/AI_Runtime/Npu/ll_aton/ll_aton.c ****   t = ATON_POOL_CTRL_SET_FBYTES(t, conf->inbytes_f);
 7822              		.loc 1 2330 7 view .LVU3096
 7823 0044 94F82110 		ldrb	r1, [r4, #33]	@ zero_extendqisi2
2338:Lib/AI_Runtime/Npu/ll_aton/ll_aton.c **** #if 0
 7824              		.loc 1 2338 7 view .LVU3097
 7825 0048 00F00100 		and	r0, r0, #1
2330:Lib/AI_Runtime/Npu/ll_aton/ll_aton.c ****   t = ATON_POOL_CTRL_SET_FBYTES(t, conf->inbytes_f);
 7826              		.loc 1 2330 7 view .LVU3098
 7827 004c 0902     		lsls	r1, r1, #8
 7828              	.LVL869:
2330:Lib/AI_Runtime/Npu/ll_aton/ll_aton.c ****   t = ATON_POOL_CTRL_SET_FBYTES(t, conf->inbytes_f);
 7829              		.loc 1 2330 7 view .LVU3099
 7830 004e 01F47C51 		and	r1, r1, #16128
 7831              	.LVL870:
2338:Lib/AI_Runtime/Npu/ll_aton/ll_aton.c **** #if 0
 7832              		.loc 1 2338 5 view .LVU3100
 7833 0052 0B43     		orrs	r3, r3, r1
 7834 0054 43EA8033 		orr	r3, r3, r0, lsl #14
ARM GAS  C:\Users\DJESSOU\AppData\Local\Temp\ccFxekaC.s 			page 245


2334:Lib/AI_Runtime/Npu/ll_aton/ll_aton.c **** #ifdef ATON_POOL_CTRL_SET_AVGNOPAD
 7835              		.loc 1 2334 7 view .LVU3101
 7836 0058 02F04072 		and	r2, r2, #50331648
 7837              	.LVL871:
2338:Lib/AI_Runtime/Npu/ll_aton/ll_aton.c **** #if 0
 7838              		.loc 1 2338 5 view .LVU3102
 7839 005c 1343     		orrs	r3, r3, r2
2332:Lib/AI_Runtime/Npu/ll_aton/ll_aton.c ****   t = ATON_POOL_CTRL_SET_FROUND(t, (conf->rounding_f != 0));
 7840              		.loc 1 2332 7 view .LVU3103
 7841 005e 94F82020 		ldrb	r2, [r4, #32]	@ zero_extendqisi2
2345:Lib/AI_Runtime/Npu/ll_aton/ll_aton.c **** 
 7842              		.loc 1 2345 3 discriminator 1 view .LVU3104
 7843 0062 2D03     		lsls	r5, r5, #12
 7844              	.LVL872:
2332:Lib/AI_Runtime/Npu/ll_aton/ll_aton.c ****   t = ATON_POOL_CTRL_SET_FROUND(t, (conf->rounding_f != 0));
 7845              		.loc 1 2332 7 view .LVU3105
 7846 0064 1032     		adds	r2, r2, #16
 7847              	.LVL873:
2332:Lib/AI_Runtime/Npu/ll_aton/ll_aton.c ****   t = ATON_POOL_CTRL_SET_FROUND(t, (conf->rounding_f != 0));
 7848              		.loc 1 2332 7 view .LVU3106
 7849 0066 9204     		lsls	r2, r2, #18
 7850              	.LVL874:
2332:Lib/AI_Runtime/Npu/ll_aton/ll_aton.c ****   t = ATON_POOL_CTRL_SET_FROUND(t, (conf->rounding_f != 0));
 7851              		.loc 1 2332 7 view .LVU3107
 7852 0068 02F47C02 		and	r2, r2, #16515072
2338:Lib/AI_Runtime/Npu/ll_aton/ll_aton.c **** #if 0
 7853              		.loc 1 2338 5 view .LVU3108
 7854 006c 1343     		orrs	r3, r3, r2
 7855              	.LVL875:
2342:Lib/AI_Runtime/Npu/ll_aton/ll_aton.c **** #endif
 7856              		.loc 1 2342 3 is_stmt 1 view .LVU3109
2344:Lib/AI_Runtime/Npu/ll_aton/ll_aton.c ****   ATON_POOL_CTRL_SET(id, t);
 7857              		.loc 1 2344 3 view .LVU3110
2345:Lib/AI_Runtime/Npu/ll_aton/ll_aton.c **** 
 7858              		.loc 1 2345 3 is_stmt 0 discriminator 1 view .LVU3111
 7859 006e 05F1B042 		add	r2, r5, #1476395008
2344:Lib/AI_Runtime/Npu/ll_aton/ll_aton.c ****   ATON_POOL_CTRL_SET(id, t);
 7860              		.loc 1 2344 5 view .LVU3112
 7861 0072 43F40043 		orr	r3, r3, #32768
 7862              	.LVL876:
2345:Lib/AI_Runtime/Npu/ll_aton/ll_aton.c **** 
 7863              		.loc 1 2345 3 is_stmt 1 view .LVU3113
2345:Lib/AI_Runtime/Npu/ll_aton/ll_aton.c **** 
 7864              		.loc 1 2345 3 view .LVU3114
2345:Lib/AI_Runtime/Npu/ll_aton/ll_aton.c **** 
 7865              		.loc 1 2345 3 view .LVU3115
2345:Lib/AI_Runtime/Npu/ll_aton/ll_aton.c **** 
 7866              		.loc 1 2345 3 is_stmt 0 discriminator 1 view .LVU3116
 7867 0076 02F57B22 		add	r2, r2, #1028096
2345:Lib/AI_Runtime/Npu/ll_aton/ll_aton.c **** 
 7868              		.loc 1 2345 3 discriminator 4 view .LVU3117
 7869 007a 1360     		str	r3, [r2]
2345:Lib/AI_Runtime/Npu/ll_aton/ll_aton.c **** 
 7870              		.loc 1 2345 3 is_stmt 1 discriminator 4 view .LVU3118
2345:Lib/AI_Runtime/Npu/ll_aton/ll_aton.c **** 
 7871              		.loc 1 2345 3 discriminator 4 view .LVU3119
2348:Lib/AI_Runtime/Npu/ll_aton/ll_aton.c ****   t = ATON_POOL_RNDCTRL_SET_FOBYTES(t, conf->outbytes_f);
ARM GAS  C:\Users\DJESSOU\AppData\Local\Temp\ccFxekaC.s 			page 246


 7872              		.loc 1 2348 3 view .LVU3120
 7873              	.LVL877:
2349:Lib/AI_Runtime/Npu/ll_aton/ll_aton.c ****   t = ATON_POOL_RNDCTRL_SET_FRNDMODE(t, conf->round_mode_f);
 7874              		.loc 1 2349 3 view .LVU3121
2350:Lib/AI_Runtime/Npu/ll_aton/ll_aton.c ****   t = ATON_POOL_RNDCTRL_SET_OBYTES(t, conf->outbytes_o);
 7875              		.loc 1 2350 3 view .LVU3122
2351:Lib/AI_Runtime/Npu/ll_aton/ll_aton.c ****   t = ATON_POOL_RNDCTRL_SET_ORNDMODE(t, (conf->relu_mode_o << 1) | conf->round_mode_o);
 7876              		.loc 1 2351 3 view .LVU3123
2351:Lib/AI_Runtime/Npu/ll_aton/ll_aton.c ****   t = ATON_POOL_RNDCTRL_SET_ORNDMODE(t, (conf->relu_mode_o << 1) | conf->round_mode_o);
 7877              		.loc 1 2351 7 is_stmt 0 view .LVU3124
 7878 007c 94F82430 		ldrb	r3, [r4, #36]	@ zero_extendqisi2
2350:Lib/AI_Runtime/Npu/ll_aton/ll_aton.c ****   t = ATON_POOL_RNDCTRL_SET_OBYTES(t, conf->outbytes_o);
 7879              		.loc 1 2350 7 view .LVU3125
 7880 0080 94F82220 		ldrb	r2, [r4, #34]	@ zero_extendqisi2
2351:Lib/AI_Runtime/Npu/ll_aton/ll_aton.c ****   t = ATON_POOL_RNDCTRL_SET_ORNDMODE(t, (conf->relu_mode_o << 1) | conf->round_mode_o);
 7881              		.loc 1 2351 7 view .LVU3126
 7882 0084 03F00303 		and	r3, r3, #3
2350:Lib/AI_Runtime/Npu/ll_aton/ll_aton.c ****   t = ATON_POOL_RNDCTRL_SET_OBYTES(t, conf->outbytes_o);
 7883              		.loc 1 2350 7 view .LVU3127
 7884 0088 C2F34112 		ubfx	r2, r2, #5, #2
2351:Lib/AI_Runtime/Npu/ll_aton/ll_aton.c ****   t = ATON_POOL_RNDCTRL_SET_ORNDMODE(t, (conf->relu_mode_o << 1) | conf->round_mode_o);
 7885              		.loc 1 2351 7 view .LVU3128
 7886 008c 1B04     		lsls	r3, r3, #16
2351:Lib/AI_Runtime/Npu/ll_aton/ll_aton.c ****   t = ATON_POOL_RNDCTRL_SET_ORNDMODE(t, (conf->relu_mode_o << 1) | conf->round_mode_o);
 7887              		.loc 1 2351 5 view .LVU3129
 7888 008e 43EA8203 		orr	r3, r3, r2, lsl #2
2349:Lib/AI_Runtime/Npu/ll_aton/ll_aton.c ****   t = ATON_POOL_RNDCTRL_SET_FRNDMODE(t, conf->round_mode_f);
 7889              		.loc 1 2349 7 view .LVU3130
 7890 0092 94F82320 		ldrb	r2, [r4, #35]	@ zero_extendqisi2
2371:Lib/AI_Runtime/Npu/ll_aton/ll_aton.c ****   ATON_POOL_FDIMS_SET(id, t);
 7891              		.loc 1 2371 7 view .LVU3131
 7892 0096 A088     		ldrh	r0, [r4, #4]
2349:Lib/AI_Runtime/Npu/ll_aton/ll_aton.c ****   t = ATON_POOL_RNDCTRL_SET_FRNDMODE(t, conf->round_mode_f);
 7893              		.loc 1 2349 7 view .LVU3132
 7894 0098 C2F34101 		ubfx	r1, r2, #1, #2
2351:Lib/AI_Runtime/Npu/ll_aton/ll_aton.c ****   t = ATON_POOL_RNDCTRL_SET_ORNDMODE(t, (conf->relu_mode_o << 1) | conf->round_mode_o);
 7895              		.loc 1 2351 5 view .LVU3133
 7896 009c 0B43     		orrs	r3, r3, r1
 7897              	.LVL878:
2352:Lib/AI_Runtime/Npu/ll_aton/ll_aton.c ****   ATON_POOL_RNDCTRL_SET(id, t);
 7898              		.loc 1 2352 3 is_stmt 1 view .LVU3134
2352:Lib/AI_Runtime/Npu/ll_aton/ll_aton.c ****   ATON_POOL_RNDCTRL_SET(id, t);
 7899              		.loc 1 2352 7 is_stmt 0 view .LVU3135
 7900 009e C2F34112 		ubfx	r2, r2, #5, #2
2352:Lib/AI_Runtime/Npu/ll_aton/ll_aton.c ****   ATON_POOL_RNDCTRL_SET(id, t);
 7901              		.loc 1 2352 5 view .LVU3136
 7902 00a2 43EA8243 		orr	r3, r3, r2, lsl #18
 7903              	.LVL879:
2353:Lib/AI_Runtime/Npu/ll_aton/ll_aton.c **** 
 7904              		.loc 1 2353 3 is_stmt 1 view .LVU3137
2353:Lib/AI_Runtime/Npu/ll_aton/ll_aton.c **** 
 7905              		.loc 1 2353 3 view .LVU3138
2353:Lib/AI_Runtime/Npu/ll_aton/ll_aton.c **** 
 7906              		.loc 1 2353 3 view .LVU3139
2353:Lib/AI_Runtime/Npu/ll_aton/ll_aton.c **** 
 7907              		.loc 1 2353 3 is_stmt 0 discriminator 1 view .LVU3140
 7908 00a6 3A4A     		ldr	r2, .L507+4
ARM GAS  C:\Users\DJESSOU\AppData\Local\Temp\ccFxekaC.s 			page 247


2365:Lib/AI_Runtime/Npu/ll_aton/ll_aton.c ****   ATON_POOL_PDIMS_SET(id, t);
 7909              		.loc 1 2365 7 view .LVU3141
 7910 00a8 E18B     		ldrh	r1, [r4, #30]
2353:Lib/AI_Runtime/Npu/ll_aton/ll_aton.c **** 
 7911              		.loc 1 2353 3 discriminator 4 view .LVU3142
 7912 00aa AB50     		str	r3, [r5, r2]
2353:Lib/AI_Runtime/Npu/ll_aton/ll_aton.c **** 
 7913              		.loc 1 2353 3 is_stmt 1 discriminator 4 view .LVU3143
2353:Lib/AI_Runtime/Npu/ll_aton/ll_aton.c **** 
 7914              		.loc 1 2353 3 discriminator 4 view .LVU3144
2356:Lib/AI_Runtime/Npu/ll_aton/ll_aton.c ****   t = ATON_POOL_PDIMS_SET_WINX(t, conf->poolWinX);
 7915              		.loc 1 2356 3 view .LVU3145
 7916              	.LVL880:
2357:Lib/AI_Runtime/Npu/ll_aton/ll_aton.c ****   t = ATON_POOL_PDIMS_SET_WINY(t, conf->poolWinY);
 7917              		.loc 1 2357 3 view .LVU3146
2358:Lib/AI_Runtime/Npu/ll_aton/ll_aton.c ****   t = ATON_POOL_PDIMS_SET_STRDX(t, conf->strideX);
 7918              		.loc 1 2358 3 view .LVU3147
2359:Lib/AI_Runtime/Npu/ll_aton/ll_aton.c ****   t = ATON_POOL_PDIMS_SET_STRDY(t, conf->strideY);
 7919              		.loc 1 2359 3 view .LVU3148
2358:Lib/AI_Runtime/Npu/ll_aton/ll_aton.c ****   t = ATON_POOL_PDIMS_SET_STRDX(t, conf->strideX);
 7920              		.loc 1 2358 7 is_stmt 0 view .LVU3149
 7921 00ac E37A     		ldrb	r3, [r4, #11]	@ zero_extendqisi2
2359:Lib/AI_Runtime/Npu/ll_aton/ll_aton.c ****   t = ATON_POOL_PDIMS_SET_STRDY(t, conf->strideY);
 7922              		.loc 1 2359 7 view .LVU3150
 7923 00ae 227B     		ldrb	r2, [r4, #12]	@ zero_extendqisi2
2358:Lib/AI_Runtime/Npu/ll_aton/ll_aton.c ****   t = ATON_POOL_PDIMS_SET_STRDX(t, conf->strideX);
 7924              		.loc 1 2358 7 view .LVU3151
 7925 00b0 DB00     		lsls	r3, r3, #3
2359:Lib/AI_Runtime/Npu/ll_aton/ll_aton.c ****   t = ATON_POOL_PDIMS_SET_STRDY(t, conf->strideY);
 7926              		.loc 1 2359 7 view .LVU3152
 7927 00b2 9201     		lsls	r2, r2, #6
 7928 00b4 02F47072 		and	r2, r2, #960
2358:Lib/AI_Runtime/Npu/ll_aton/ll_aton.c ****   t = ATON_POOL_PDIMS_SET_STRDX(t, conf->strideX);
 7929              		.loc 1 2358 7 view .LVU3153
 7930 00b8 03F03803 		and	r3, r3, #56
2359:Lib/AI_Runtime/Npu/ll_aton/ll_aton.c ****   t = ATON_POOL_PDIMS_SET_STRDY(t, conf->strideY);
 7931              		.loc 1 2359 5 view .LVU3154
 7932 00bc 1343     		orrs	r3, r3, r2
2357:Lib/AI_Runtime/Npu/ll_aton/ll_aton.c ****   t = ATON_POOL_PDIMS_SET_WINY(t, conf->poolWinY);
 7933              		.loc 1 2357 7 view .LVU3155
 7934 00be A27A     		ldrb	r2, [r4, #10]	@ zero_extendqisi2
2402:Lib/AI_Runtime/Npu/ll_aton/ll_aton.c ****     t = ATON_POOL_XCROP_SET_LCROP(t, conf->leftCrop * conf->batchSize);
 7935              		.loc 1 2402 11 view .LVU3156
 7936 00c0 668A     		ldrh	r6, [r4, #18]
2357:Lib/AI_Runtime/Npu/ll_aton/ll_aton.c ****   t = ATON_POOL_PDIMS_SET_WINY(t, conf->poolWinY);
 7937              		.loc 1 2357 7 view .LVU3157
 7938 00c2 02F00702 		and	r2, r2, #7
2359:Lib/AI_Runtime/Npu/ll_aton/ll_aton.c ****   t = ATON_POOL_PDIMS_SET_STRDY(t, conf->strideY);
 7939              		.loc 1 2359 5 view .LVU3158
 7940 00c6 1343     		orrs	r3, r3, r2
 7941              	.LVL881:
2360:Lib/AI_Runtime/Npu/ll_aton/ll_aton.c ****   t = ATON_POOL_PDIMS_SET_TPAD(t, conf->topPad);
 7942              		.loc 1 2360 3 is_stmt 1 view .LVU3159
2360:Lib/AI_Runtime/Npu/ll_aton/ll_aton.c ****   t = ATON_POOL_PDIMS_SET_TPAD(t, conf->topPad);
 7943              		.loc 1 2360 7 is_stmt 0 view .LVU3160
 7944 00c8 627B     		ldrb	r2, [r4, #13]	@ zero_extendqisi2
2404:Lib/AI_Runtime/Npu/ll_aton/ll_aton.c ****   if (r_crop > 0)
ARM GAS  C:\Users\DJESSOU\AppData\Local\Temp\ccFxekaC.s 			page 248


 7945              		.loc 1 2404 20 view .LVU3161
 7946 00ca A78A     		ldrh	r7, [r4, #20]
2360:Lib/AI_Runtime/Npu/ll_aton/ll_aton.c ****   t = ATON_POOL_PDIMS_SET_TPAD(t, conf->topPad);
 7947              		.loc 1 2360 7 view .LVU3162
 7948 00cc 9202     		lsls	r2, r2, #10
 7949 00ce 02F47052 		and	r2, r2, #15360
2360:Lib/AI_Runtime/Npu/ll_aton/ll_aton.c ****   t = ATON_POOL_PDIMS_SET_TPAD(t, conf->topPad);
 7950              		.loc 1 2360 5 view .LVU3163
 7951 00d2 1343     		orrs	r3, r3, r2
 7952              	.LVL882:
2361:Lib/AI_Runtime/Npu/ll_aton/ll_aton.c ****   t = ATON_POOL_PDIMS_SET_BPAD(t, conf->bottomPad);
 7953              		.loc 1 2361 3 is_stmt 1 view .LVU3164
2361:Lib/AI_Runtime/Npu/ll_aton/ll_aton.c ****   t = ATON_POOL_PDIMS_SET_BPAD(t, conf->bottomPad);
 7954              		.loc 1 2361 7 is_stmt 0 view .LVU3165
 7955 00d4 E28A     		ldrh	r2, [r4, #22]
 7956 00d6 9203     		lsls	r2, r2, #14
 7957 00d8 02F4E032 		and	r2, r2, #114688
2361:Lib/AI_Runtime/Npu/ll_aton/ll_aton.c ****   t = ATON_POOL_PDIMS_SET_BPAD(t, conf->bottomPad);
 7958              		.loc 1 2361 5 view .LVU3166
 7959 00dc 1A43     		orrs	r2, r2, r3
 7960              	.LVL883:
2362:Lib/AI_Runtime/Npu/ll_aton/ll_aton.c ****   t = ATON_POOL_PDIMS_SET_LPAD(t, conf->leftPad);
 7961              		.loc 1 2362 3 is_stmt 1 view .LVU3167
2362:Lib/AI_Runtime/Npu/ll_aton/ll_aton.c ****   t = ATON_POOL_PDIMS_SET_LPAD(t, conf->leftPad);
 7962              		.loc 1 2362 7 is_stmt 0 view .LVU3168
 7963 00de 238B     		ldrh	r3, [r4, #24]
 7964 00e0 5B04     		lsls	r3, r3, #17
 7965 00e2 03F46023 		and	r3, r3, #917504
2362:Lib/AI_Runtime/Npu/ll_aton/ll_aton.c ****   t = ATON_POOL_PDIMS_SET_LPAD(t, conf->leftPad);
 7966              		.loc 1 2362 5 view .LVU3169
 7967 00e6 1343     		orrs	r3, r3, r2
 7968              	.LVL884:
2363:Lib/AI_Runtime/Npu/ll_aton/ll_aton.c ****   t = ATON_POOL_PDIMS_SET_RPAD(t, conf->rightPad);
 7969              		.loc 1 2363 3 is_stmt 1 view .LVU3170
2363:Lib/AI_Runtime/Npu/ll_aton/ll_aton.c ****   t = ATON_POOL_PDIMS_SET_RPAD(t, conf->rightPad);
 7970              		.loc 1 2363 7 is_stmt 0 view .LVU3171
 7971 00e8 628B     		ldrh	r2, [r4, #26]
 7972 00ea 1205     		lsls	r2, r2, #20
 7973 00ec 02F4E002 		and	r2, r2, #7340032
2363:Lib/AI_Runtime/Npu/ll_aton/ll_aton.c ****   t = ATON_POOL_PDIMS_SET_RPAD(t, conf->rightPad);
 7974              		.loc 1 2363 5 view .LVU3172
 7975 00f0 1A43     		orrs	r2, r2, r3
 7976              	.LVL885:
2364:Lib/AI_Runtime/Npu/ll_aton/ll_aton.c ****   t = ATON_POOL_PDIMS_SET_BSIZE(t, conf->batchSize);
 7977              		.loc 1 2364 3 is_stmt 1 view .LVU3173
2364:Lib/AI_Runtime/Npu/ll_aton/ll_aton.c ****   t = ATON_POOL_PDIMS_SET_BSIZE(t, conf->batchSize);
 7978              		.loc 1 2364 7 is_stmt 0 view .LVU3174
 7979 00f2 A38B     		ldrh	r3, [r4, #28]
 7980 00f4 DB05     		lsls	r3, r3, #23
 7981 00f6 03F06073 		and	r3, r3, #58720256
2364:Lib/AI_Runtime/Npu/ll_aton/ll_aton.c ****   t = ATON_POOL_PDIMS_SET_BSIZE(t, conf->batchSize);
 7982              		.loc 1 2364 5 view .LVU3175
 7983 00fa 1343     		orrs	r3, r3, r2
 7984              	.LVL886:
2365:Lib/AI_Runtime/Npu/ll_aton/ll_aton.c ****   ATON_POOL_PDIMS_SET(id, t);
 7985              		.loc 1 2365 3 is_stmt 1 view .LVU3176
2365:Lib/AI_Runtime/Npu/ll_aton/ll_aton.c ****   ATON_POOL_PDIMS_SET(id, t);
ARM GAS  C:\Users\DJESSOU\AppData\Local\Temp\ccFxekaC.s 			page 249


 7986              		.loc 1 2365 7 is_stmt 0 view .LVU3177
 7987 00fc 8A06     		lsls	r2, r1, #26
 7988 00fe 02F07052 		and	r2, r2, #1006632960
2365:Lib/AI_Runtime/Npu/ll_aton/ll_aton.c ****   ATON_POOL_PDIMS_SET(id, t);
 7989              		.loc 1 2365 5 view .LVU3178
 7990 0102 1343     		orrs	r3, r3, r2
 7991              	.LVL887:
2366:Lib/AI_Runtime/Npu/ll_aton/ll_aton.c **** 
 7992              		.loc 1 2366 3 is_stmt 1 view .LVU3179
2366:Lib/AI_Runtime/Npu/ll_aton/ll_aton.c **** 
 7993              		.loc 1 2366 3 view .LVU3180
2366:Lib/AI_Runtime/Npu/ll_aton/ll_aton.c **** 
 7994              		.loc 1 2366 3 view .LVU3181
2366:Lib/AI_Runtime/Npu/ll_aton/ll_aton.c **** 
 7995              		.loc 1 2366 3 is_stmt 0 discriminator 1 view .LVU3182
 7996 0104 234A     		ldr	r2, .L507+8
2366:Lib/AI_Runtime/Npu/ll_aton/ll_aton.c **** 
 7997              		.loc 1 2366 3 discriminator 4 view .LVU3183
 7998 0106 AB50     		str	r3, [r5, r2]
2366:Lib/AI_Runtime/Npu/ll_aton/ll_aton.c **** 
 7999              		.loc 1 2366 3 is_stmt 1 discriminator 4 view .LVU3184
2366:Lib/AI_Runtime/Npu/ll_aton/ll_aton.c **** 
 8000              		.loc 1 2366 3 discriminator 4 view .LVU3185
2369:Lib/AI_Runtime/Npu/ll_aton/ll_aton.c ****   t = ATON_POOL_FDIMS_SET_FEATX(t, conf->inputX * conf->batchSize);
 8001              		.loc 1 2369 3 view .LVU3186
 8002              	.LVL888:
2370:Lib/AI_Runtime/Npu/ll_aton/ll_aton.c ****   t = ATON_POOL_FDIMS_SET_FEATY(t, conf->inputY);
 8003              		.loc 1 2370 3 view .LVU3187
2371:Lib/AI_Runtime/Npu/ll_aton/ll_aton.c ****   ATON_POOL_FDIMS_SET(id, t);
 8004              		.loc 1 2371 3 view .LVU3188
2370:Lib/AI_Runtime/Npu/ll_aton/ll_aton.c ****   t = ATON_POOL_FDIMS_SET_FEATY(t, conf->inputY);
 8005              		.loc 1 2370 7 is_stmt 0 view .LVU3189
 8006 0108 6288     		ldrh	r2, [r4, #2]
2371:Lib/AI_Runtime/Npu/ll_aton/ll_aton.c ****   ATON_POOL_FDIMS_SET(id, t);
 8007              		.loc 1 2371 7 view .LVU3190
 8008 010a 234B     		ldr	r3, .L507+12
2370:Lib/AI_Runtime/Npu/ll_aton/ll_aton.c ****   t = ATON_POOL_FDIMS_SET_FEATY(t, conf->inputY);
 8009              		.loc 1 2370 7 view .LVU3191
 8010 010c 4A43     		muls	r2, r1, r2
2371:Lib/AI_Runtime/Npu/ll_aton/ll_aton.c ****   ATON_POOL_FDIMS_SET(id, t);
 8011              		.loc 1 2371 7 view .LVU3192
 8012 010e 03EA0040 		and	r0, r3, r0, lsl #16
2370:Lib/AI_Runtime/Npu/ll_aton/ll_aton.c ****   t = ATON_POOL_FDIMS_SET_FEATY(t, conf->inputY);
 8013              		.loc 1 2370 7 view .LVU3193
 8014 0112 C2F30B02 		ubfx	r2, r2, #0, #12
2371:Lib/AI_Runtime/Npu/ll_aton/ll_aton.c ****   ATON_POOL_FDIMS_SET(id, t);
 8015              		.loc 1 2371 5 view .LVU3194
 8016 0116 0243     		orrs	r2, r2, r0
 8017              	.LVL889:
2372:Lib/AI_Runtime/Npu/ll_aton/ll_aton.c **** 
 8018              		.loc 1 2372 3 is_stmt 1 view .LVU3195
2372:Lib/AI_Runtime/Npu/ll_aton/ll_aton.c **** 
 8019              		.loc 1 2372 3 view .LVU3196
2372:Lib/AI_Runtime/Npu/ll_aton/ll_aton.c **** 
 8020              		.loc 1 2372 3 view .LVU3197
2372:Lib/AI_Runtime/Npu/ll_aton/ll_aton.c **** 
 8021              		.loc 1 2372 3 is_stmt 0 discriminator 1 view .LVU3198
ARM GAS  C:\Users\DJESSOU\AppData\Local\Temp\ccFxekaC.s 			page 250


 8022 0118 2048     		ldr	r0, .L507+16
2372:Lib/AI_Runtime/Npu/ll_aton/ll_aton.c **** 
 8023              		.loc 1 2372 3 discriminator 4 view .LVU3199
 8024 011a 2A50     		str	r2, [r5, r0]
2372:Lib/AI_Runtime/Npu/ll_aton/ll_aton.c **** 
 8025              		.loc 1 2372 3 is_stmt 1 discriminator 4 view .LVU3200
2372:Lib/AI_Runtime/Npu/ll_aton/ll_aton.c **** 
 8026              		.loc 1 2372 3 discriminator 4 view .LVU3201
2375:Lib/AI_Runtime/Npu/ll_aton/ll_aton.c ****   t = ATON_POOL_OUTDIMS_SET_FEATX(t, conf->outputX);
 8027              		.loc 1 2375 3 view .LVU3202
 8028              	.LVL890:
2376:Lib/AI_Runtime/Npu/ll_aton/ll_aton.c ****   t = ATON_POOL_OUTDIMS_SET_FEATY(t, conf->outputY);
 8029              		.loc 1 2376 3 view .LVU3203
2377:Lib/AI_Runtime/Npu/ll_aton/ll_aton.c ****   ATON_POOL_OUTDIMS_SET(id, t);
 8030              		.loc 1 2377 3 view .LVU3204
2377:Lib/AI_Runtime/Npu/ll_aton/ll_aton.c ****   ATON_POOL_OUTDIMS_SET(id, t);
 8031              		.loc 1 2377 7 is_stmt 0 view .LVU3205
 8032 011c 2289     		ldrh	r2, [r4, #8]
2376:Lib/AI_Runtime/Npu/ll_aton/ll_aton.c ****   t = ATON_POOL_OUTDIMS_SET_FEATY(t, conf->outputY);
 8033              		.loc 1 2376 7 view .LVU3206
 8034 011e E088     		ldrh	r0, [r4, #6]
2377:Lib/AI_Runtime/Npu/ll_aton/ll_aton.c ****   ATON_POOL_OUTDIMS_SET(id, t);
 8035              		.loc 1 2377 7 view .LVU3207
 8036 0120 03EA0242 		and	r2, r3, r2, lsl #16
2376:Lib/AI_Runtime/Npu/ll_aton/ll_aton.c ****   t = ATON_POOL_OUTDIMS_SET_FEATY(t, conf->outputY);
 8037              		.loc 1 2376 7 view .LVU3208
 8038 0124 C0F30B00 		ubfx	r0, r0, #0, #12
2377:Lib/AI_Runtime/Npu/ll_aton/ll_aton.c ****   ATON_POOL_OUTDIMS_SET(id, t);
 8039              		.loc 1 2377 5 view .LVU3209
 8040 0128 0243     		orrs	r2, r2, r0
 8041              	.LVL891:
2378:Lib/AI_Runtime/Npu/ll_aton/ll_aton.c **** 
 8042              		.loc 1 2378 3 is_stmt 1 view .LVU3210
2378:Lib/AI_Runtime/Npu/ll_aton/ll_aton.c **** 
 8043              		.loc 1 2378 3 view .LVU3211
2378:Lib/AI_Runtime/Npu/ll_aton/ll_aton.c **** 
 8044              		.loc 1 2378 3 view .LVU3212
2378:Lib/AI_Runtime/Npu/ll_aton/ll_aton.c **** 
 8045              		.loc 1 2378 3 is_stmt 0 discriminator 1 view .LVU3213
 8046 012a 1D48     		ldr	r0, .L507+20
2378:Lib/AI_Runtime/Npu/ll_aton/ll_aton.c **** 
 8047              		.loc 1 2378 3 discriminator 4 view .LVU3214
 8048 012c 2A50     		str	r2, [r5, r0]
2378:Lib/AI_Runtime/Npu/ll_aton/ll_aton.c **** 
 8049              		.loc 1 2378 3 is_stmt 1 discriminator 4 view .LVU3215
2378:Lib/AI_Runtime/Npu/ll_aton/ll_aton.c **** 
 8050              		.loc 1 2378 3 discriminator 4 view .LVU3216
2381:Lib/AI_Runtime/Npu/ll_aton/ll_aton.c ****   t = ATON_POOL_MULVAL_SET_MULVAL(t, conf->mulval);
 8051              		.loc 1 2381 3 view .LVU3217
 8052              	.LVL892:
2382:Lib/AI_Runtime/Npu/ll_aton/ll_aton.c ****   ATON_POOL_MULVAL_SET(id, t);
 8053              		.loc 1 2382 3 view .LVU3218
2382:Lib/AI_Runtime/Npu/ll_aton/ll_aton.c ****   ATON_POOL_MULVAL_SET(id, t);
 8054              		.loc 1 2382 7 is_stmt 0 view .LVU3219
 8055 012e E08C     		ldrh	r0, [r4, #38]
 8056              	.LVL893:
2383:Lib/AI_Runtime/Npu/ll_aton/ll_aton.c **** 
ARM GAS  C:\Users\DJESSOU\AppData\Local\Temp\ccFxekaC.s 			page 251


 8057              		.loc 1 2383 3 is_stmt 1 view .LVU3220
2383:Lib/AI_Runtime/Npu/ll_aton/ll_aton.c **** 
 8058              		.loc 1 2383 3 view .LVU3221
2383:Lib/AI_Runtime/Npu/ll_aton/ll_aton.c **** 
 8059              		.loc 1 2383 3 view .LVU3222
2383:Lib/AI_Runtime/Npu/ll_aton/ll_aton.c **** 
 8060              		.loc 1 2383 3 is_stmt 0 discriminator 1 view .LVU3223
 8061 0130 1C4A     		ldr	r2, .L507+24
2383:Lib/AI_Runtime/Npu/ll_aton/ll_aton.c **** 
 8062              		.loc 1 2383 3 discriminator 4 view .LVU3224
 8063 0132 A850     		str	r0, [r5, r2]
2383:Lib/AI_Runtime/Npu/ll_aton/ll_aton.c **** 
 8064              		.loc 1 2383 3 is_stmt 1 discriminator 4 view .LVU3225
2383:Lib/AI_Runtime/Npu/ll_aton/ll_aton.c **** 
 8065              		.loc 1 2383 3 discriminator 4 view .LVU3226
2401:Lib/AI_Runtime/Npu/ll_aton/ll_aton.c ****   if (conf->leftCrop > 0)
 8066              		.loc 1 2401 3 view .LVU3227
 8067              	.LVL894:
2402:Lib/AI_Runtime/Npu/ll_aton/ll_aton.c ****     t = ATON_POOL_XCROP_SET_LCROP(t, conf->leftCrop * conf->batchSize);
 8068              		.loc 1 2402 3 view .LVU3228
2401:Lib/AI_Runtime/Npu/ll_aton/ll_aton.c ****   if (conf->leftCrop > 0)
 8069              		.loc 1 2401 5 is_stmt 0 view .LVU3229
 8070 0134 0020     		movs	r0, #0
 8071 0136 01FB06F2 		mul	r2, r1, r6
 8072 013a 8642     		cmp	r6, r0
 8073 013c C2F30B02 		ubfx	r2, r2, #0, #12
 8074 0140 08BF     		it	eq
 8075 0142 0246     		moveq	r2, r0
 8076              	.LVL895:
2404:Lib/AI_Runtime/Npu/ll_aton/ll_aton.c ****   if (r_crop > 0)
 8077              		.loc 1 2404 3 is_stmt 1 view .LVU3230
2404:Lib/AI_Runtime/Npu/ll_aton/ll_aton.c ****   if (r_crop > 0)
 8078              		.loc 1 2404 69 is_stmt 0 view .LVU3231
 8079 0144 4E1E     		subs	r6, r1, #1
2404:Lib/AI_Runtime/Npu/ll_aton/ll_aton.c ****   if (r_crop > 0)
 8080              		.loc 1 2404 7 view .LVU3232
 8081 0146 01FB0761 		mla	r1, r1, r7, r6
 8082              	.LVL896:
2405:Lib/AI_Runtime/Npu/ll_aton/ll_aton.c ****     t = ATON_POOL_XCROP_SET_RCROP(t, conf->rightCrop * conf->batchSize + (conf->batchSize - 1));
 8083              		.loc 1 2405 3 is_stmt 1 view .LVU3233
2406:Lib/AI_Runtime/Npu/ll_aton/ll_aton.c ****   ATON_POOL_XCROP_SET(id, t);
 8084              		.loc 1 2406 7 is_stmt 0 view .LVU3234
 8085 014a 03EA0146 		and	r6, r3, r1, lsl #16
 8086 014e 8142     		cmp	r1, r0
 8087 0150 46EA0206 		orr	r6, r6, r2
 8088 0154 C8BF     		it	gt
 8089 0156 3246     		movgt	r2, r6
 8090              	.LVL897:
2407:Lib/AI_Runtime/Npu/ll_aton/ll_aton.c **** 
 8091              		.loc 1 2407 3 is_stmt 1 view .LVU3235
2407:Lib/AI_Runtime/Npu/ll_aton/ll_aton.c **** 
 8092              		.loc 1 2407 3 view .LVU3236
2407:Lib/AI_Runtime/Npu/ll_aton/ll_aton.c **** 
 8093              		.loc 1 2407 3 view .LVU3237
2407:Lib/AI_Runtime/Npu/ll_aton/ll_aton.c **** 
 8094              		.loc 1 2407 3 is_stmt 0 discriminator 1 view .LVU3238
 8095 0158 1349     		ldr	r1, .L507+28
ARM GAS  C:\Users\DJESSOU\AppData\Local\Temp\ccFxekaC.s 			page 252


 8096              	.LVL898:
2407:Lib/AI_Runtime/Npu/ll_aton/ll_aton.c **** 
 8097              		.loc 1 2407 3 discriminator 4 view .LVU3239
 8098 015a 6A50     		str	r2, [r5, r1]
2407:Lib/AI_Runtime/Npu/ll_aton/ll_aton.c **** 
 8099              		.loc 1 2407 3 is_stmt 1 discriminator 4 view .LVU3240
2407:Lib/AI_Runtime/Npu/ll_aton/ll_aton.c **** 
 8100              		.loc 1 2407 3 discriminator 4 view .LVU3241
2409:Lib/AI_Runtime/Npu/ll_aton/ll_aton.c ****   if (conf->topCrop > 0)
 8101              		.loc 1 2409 3 view .LVU3242
 8102              	.LVL899:
2410:Lib/AI_Runtime/Npu/ll_aton/ll_aton.c ****     t = ATON_POOL_YCROP_SET_TCROP(t, conf->topCrop);
 8103              		.loc 1 2410 3 view .LVU3243
2411:Lib/AI_Runtime/Npu/ll_aton/ll_aton.c ****   if (conf->bottomCrop > 0)
 8104              		.loc 1 2411 9 is_stmt 0 view .LVU3244
 8105 015c E289     		ldrh	r2, [r4, #14]
2412:Lib/AI_Runtime/Npu/ll_aton/ll_aton.c ****     t = ATON_POOL_YCROP_SET_BCROP(t, conf->bottomCrop);
 8106              		.loc 1 2412 11 view .LVU3245
 8107 015e 218A     		ldrh	r1, [r4, #16]
2411:Lib/AI_Runtime/Npu/ll_aton/ll_aton.c ****   if (conf->bottomCrop > 0)
 8108              		.loc 1 2411 9 view .LVU3246
 8109 0160 C2F30B02 		ubfx	r2, r2, #0, #12
 8110              	.LVL900:
2412:Lib/AI_Runtime/Npu/ll_aton/ll_aton.c ****     t = ATON_POOL_YCROP_SET_BCROP(t, conf->bottomCrop);
 8111              		.loc 1 2412 3 is_stmt 1 view .LVU3247
2413:Lib/AI_Runtime/Npu/ll_aton/ll_aton.c ****   ATON_POOL_YCROP_SET(id, t);
 8112              		.loc 1 2413 7 is_stmt 0 view .LVU3248
 8113 0164 03EA0143 		and	r3, r3, r1, lsl #16
 8114 0168 1343     		orrs	r3, r3, r2
 8115 016a 8142     		cmp	r1, r0
 8116 016c 18BF     		it	ne
 8117 016e 1A46     		movne	r2, r3
 8118              	.LVL901:
2414:Lib/AI_Runtime/Npu/ll_aton/ll_aton.c **** 
 8119              		.loc 1 2414 3 is_stmt 1 view .LVU3249
2414:Lib/AI_Runtime/Npu/ll_aton/ll_aton.c **** 
 8120              		.loc 1 2414 3 view .LVU3250
2414:Lib/AI_Runtime/Npu/ll_aton/ll_aton.c **** 
 8121              		.loc 1 2414 3 view .LVU3251
2414:Lib/AI_Runtime/Npu/ll_aton/ll_aton.c **** 
 8122              		.loc 1 2414 3 is_stmt 0 discriminator 1 view .LVU3252
 8123 0170 0E4B     		ldr	r3, .L507+32
2414:Lib/AI_Runtime/Npu/ll_aton/ll_aton.c **** 
 8124              		.loc 1 2414 3 discriminator 4 view .LVU3253
 8125 0172 EA50     		str	r2, [r5, r3]
2414:Lib/AI_Runtime/Npu/ll_aton/ll_aton.c **** 
 8126              		.loc 1 2414 3 is_stmt 1 discriminator 4 view .LVU3254
2414:Lib/AI_Runtime/Npu/ll_aton/ll_aton.c **** 
 8127              		.loc 1 2414 3 discriminator 4 view .LVU3255
2426:Lib/AI_Runtime/Npu/ll_aton/ll_aton.c **** }
 8128              		.loc 1 2426 3 view .LVU3256
 8129              	.LVL902:
 8130              	.L497:
2427:Lib/AI_Runtime/Npu/ll_aton/ll_aton.c **** #endif // ATON_POOL_NUM
 8131              		.loc 1 2427 1 is_stmt 0 view .LVU3257
 8132 0174 F8BD     		pop	{r3, r4, r5, r6, r7, pc}
 8133              	.LVL903:
ARM GAS  C:\Users\DJESSOU\AppData\Local\Temp\ccFxekaC.s 			page 253


 8134              	.L499:
 8135              	.LBB181:
 8136              	.LBB180:
2295:Lib/AI_Runtime/Npu/ll_aton/ll_aton.c ****   }
 8137              		.loc 1 2295 5 is_stmt 1 view .LVU3258
2297:Lib/AI_Runtime/Npu/ll_aton/ll_aton.c ****   return 0;
 8138              		.loc 1 2297 3 view .LVU3259
 8139 0176 40F6F901 		movw	r1, #2297
 8140 017a 0D4B     		ldr	r3, .L507+36
 8141 017c 0D4A     		ldr	r2, .L507+40
 8142 017e 0E48     		ldr	r0, .L507+44
 8143 0180 FFF7FEFF 		bl	__assert_func
 8144              	.LVL904:
 8145              	.L504:
2297:Lib/AI_Runtime/Npu/ll_aton/ll_aton.c ****   return 0;
 8146              		.loc 1 2297 3 is_stmt 0 view .LVU3260
 8147              	.LBE180:
 8148              	.LBE181:
2312:Lib/AI_Runtime/Npu/ll_aton/ll_aton.c **** 
 8149              		.loc 1 2312 12 view .LVU3261
 8150 0184 4FF0FF30 		mov	r0, #-1
 8151              	.LVL905:
2312:Lib/AI_Runtime/Npu/ll_aton/ll_aton.c **** 
 8152              		.loc 1 2312 12 view .LVU3262
 8153 0188 F4E7     		b	.L497
 8154              	.L508:
 8155 018a 00BF     		.align	2
 8156              	.L507:
 8157 018c 00000000 		.word	CSWTCH.281
 8158 0190 20B00F58 		.word	1477423136
 8159 0194 08B00F58 		.word	1477423112
 8160 0198 0000FF0F 		.word	268369920
 8161 019c 0CB00F58 		.word	1477423116
 8162 01a0 10B00F58 		.word	1477423120
 8163 01a4 14B00F58 		.word	1477423124
 8164 01a8 18B00F58 		.word	1477423128
 8165 01ac 1CB00F58 		.word	1477423132
 8166 01b0 95000000 		.word	.LC7
 8167 01b4 00000000 		.word	__func__.1
 8168 01b8 05000000 		.word	.LC4
 8169              		.cfi_endproc
 8170              	.LFE312:
 8172              		.section	.text.LL_ATON_DisableClock,"ax",%progbits
 8173              		.align	1
 8174              		.global	LL_ATON_DisableClock
 8175              		.syntax unified
 8176              		.thumb
 8177              		.thumb_func
 8179              	LL_ATON_DisableClock:
 8180              	.LVL906:
 8181              	.LFB318:
2534:Lib/AI_Runtime/Npu/ll_aton/ll_aton.c **** 
2535:Lib/AI_Runtime/Npu/ll_aton/ll_aton.c **** void LL_ATON_DisableClock(unsigned int clock)
2536:Lib/AI_Runtime/Npu/ll_aton/ll_aton.c **** {
 8182              		.loc 1 2536 1 is_stmt 1 view -0
 8183              		.cfi_startproc
 8184              		@ args = 0, pretend = 0, frame = 0
ARM GAS  C:\Users\DJESSOU\AppData\Local\Temp\ccFxekaC.s 			page 254


 8185              		@ frame_needed = 0, uses_anonymous_args = 0
2537:Lib/AI_Runtime/Npu/ll_aton/ll_aton.c **** #if (LL_ATON_ENABLE_CLOCK_GATING == 1)
2538:Lib/AI_Runtime/Npu/ll_aton/ll_aton.c ****   if (clock <= 31)
 8186              		.loc 1 2538 3 view .LVU3264
 8187              		.loc 1 2538 6 is_stmt 0 view .LVU3265
 8188 0000 1F28     		cmp	r0, #31
2536:Lib/AI_Runtime/Npu/ll_aton/ll_aton.c **** #if (LL_ATON_ENABLE_CLOCK_GATING == 1)
 8189              		.loc 1 2536 1 view .LVU3266
 8190 0002 30B5     		push	{r4, r5, lr}
 8191              		.cfi_def_cfa_offset 12
 8192              		.cfi_offset 4, -12
 8193              		.cfi_offset 5, -8
 8194              		.cfi_offset 14, -4
 8195              		.loc 1 2538 6 view .LVU3267
 8196 0004 08D8     		bhi	.L509
 8197              	.LVL907:
 8198              	.LBB185:
 8199              	.LBI185:
2535:Lib/AI_Runtime/Npu/ll_aton/ll_aton.c **** {
 8200              		.loc 1 2535 6 is_stmt 1 view .LVU3268
 8201              	.LBB186:
2539:Lib/AI_Runtime/Npu/ll_aton/ll_aton.c ****   {
2540:Lib/AI_Runtime/Npu/ll_aton/ll_aton.c ****     ATON_REG_WRITE_FIELD_RANGE(CLKCTRL, 0, BGATES, clock, 1, 0);
 8202              		.loc 1 2540 5 view .LVU3269
 8203              	.LBB187:
 8204              		.loc 1 2540 5 view .LVU3270
 8205 0006 0124     		movs	r4, #1
 8206 0008 0025     		movs	r5, #0
 8207 000a 54EA0D05 		lsll	r4, r5, r0
 8208 000e 034A     		ldr	r2, .L511
 8209 0010 1369     		ldr	r3, [r2, #16]
 8210              	.LVL908:
 8211              		.loc 1 2540 5 view .LVU3271
 8212 0012 23EA0403 		bic	r3, r3, r4
 8213              	.LVL909:
 8214              		.loc 1 2540 5 view .LVU3272
 8215              		.loc 1 2540 5 view .LVU3273
 8216              		.loc 1 2540 5 view .LVU3274
 8217 0016 1361     		str	r3, [r2, #16]
 8218              		.loc 1 2540 5 discriminator 1 view .LVU3275
 8219              		.loc 1 2540 5 discriminator 1 view .LVU3276
 8220              	.LBE187:
 8221              		.loc 1 2540 5 discriminator 1 view .LVU3277
 8222              	.LVL910:
 8223              		.loc 1 2540 5 is_stmt 0 discriminator 1 view .LVU3278
 8224              	.LBE186:
 8225              	.LBE185:
 8226              		.loc 1 2540 5 is_stmt 1 discriminator 1 view .LVU3279
 8227              		.loc 1 2540 5 discriminator 1 view .LVU3280
 8228              		.loc 1 2540 5 discriminator 1 view .LVU3281
 8229              	.L509:
2541:Lib/AI_Runtime/Npu/ll_aton/ll_aton.c ****   }
2542:Lib/AI_Runtime/Npu/ll_aton/ll_aton.c **** #ifdef ATON_CLKCTRL_BGATES1_OFFSET
2543:Lib/AI_Runtime/Npu/ll_aton/ll_aton.c ****   else
2544:Lib/AI_Runtime/Npu/ll_aton/ll_aton.c ****   {
2545:Lib/AI_Runtime/Npu/ll_aton/ll_aton.c ****     clock -= 32;
2546:Lib/AI_Runtime/Npu/ll_aton/ll_aton.c ****     ATON_REG_WRITE_FIELD_RANGE(CLKCTRL, 0, BGATES1, clock, 1, 0);
ARM GAS  C:\Users\DJESSOU\AppData\Local\Temp\ccFxekaC.s 			page 255


2547:Lib/AI_Runtime/Npu/ll_aton/ll_aton.c ****   }
2548:Lib/AI_Runtime/Npu/ll_aton/ll_aton.c **** #endif
2549:Lib/AI_Runtime/Npu/ll_aton/ll_aton.c **** #endif
2550:Lib/AI_Runtime/Npu/ll_aton/ll_aton.c **** }
 8230              		.loc 1 2550 1 is_stmt 0 view .LVU3282
 8231 0018 30BD     		pop	{r4, r5, pc}
 8232              	.L512:
 8233 001a 00BF     		.align	2
 8234              	.L511:
 8235 001c 00000E58 		.word	1477312512
 8236              		.cfi_endproc
 8237              	.LFE318:
 8239              		.section	.text.LL_ATON_DisableUnits_Init,"ax",%progbits
 8240              		.align	1
 8241              		.global	LL_ATON_DisableUnits_Init
 8242              		.syntax unified
 8243              		.thumb
 8244              		.thumb_func
 8246              	LL_ATON_DisableUnits_Init:
 8247              	.LVL911:
 8248              	.LFB290:
 381:Lib/AI_Runtime/Npu/ll_aton/ll_aton.c ****   int i;
 8249              		.loc 1 381 1 is_stmt 1 view -0
 8250              		.cfi_startproc
 8251              		@ args = 0, pretend = 0, frame = 0
 8252              		@ frame_needed = 0, uses_anonymous_args = 0
 382:Lib/AI_Runtime/Npu/ll_aton/ll_aton.c ****   enum AccelUnitsType unitType;
 8253              		.loc 1 382 3 view .LVU3284
 383:Lib/AI_Runtime/Npu/ll_aton/ll_aton.c ****   uint32_t unitId;
 8254              		.loc 1 383 3 view .LVU3285
 384:Lib/AI_Runtime/Npu/ll_aton/ll_aton.c ****   uint32_t t;
 8255              		.loc 1 384 3 view .LVU3286
 385:Lib/AI_Runtime/Npu/ll_aton/ll_aton.c **** 
 8256              		.loc 1 385 3 view .LVU3287
 387:Lib/AI_Runtime/Npu/ll_aton/ll_aton.c ****   {
 8257              		.loc 1 387 3 view .LVU3288
 381:Lib/AI_Runtime/Npu/ll_aton/ll_aton.c ****   int i;
 8258              		.loc 1 381 1 is_stmt 0 view .LVU3289
 8259 0000 70B5     		push	{r4, r5, r6, lr}
 8260              		.cfi_def_cfa_offset 16
 8261              		.cfi_offset 4, -16
 8262              		.cfi_offset 5, -12
 8263              		.cfi_offset 6, -8
 8264              		.cfi_offset 14, -4
 381:Lib/AI_Runtime/Npu/ll_aton/ll_aton.c ****   int i;
 8265              		.loc 1 381 1 view .LVU3290
 8266 0002 0546     		mov	r5, r0
 387:Lib/AI_Runtime/Npu/ll_aton/ll_aton.c ****   {
 8267              		.loc 1 387 10 view .LVU3291
 8268 0004 0024     		movs	r4, #0
 390:Lib/AI_Runtime/Npu/ll_aton/ll_aton.c **** 
 8269              		.loc 1 390 53 view .LVU3292
 8270 0006 861C     		adds	r6, r0, #2
 8271              	.LVL912:
 8272              	.L514:
 387:Lib/AI_Runtime/Npu/ll_aton/ll_aton.c ****   {
 8273              		.loc 1 387 17 is_stmt 1 discriminator 1 view .LVU3293
ARM GAS  C:\Users\DJESSOU\AppData\Local\Temp\ccFxekaC.s 			page 256


 8274 0008 8C42     		cmp	r4, r1
 8275 000a 01DB     		blt	.L546
 453:Lib/AI_Runtime/Npu/ll_aton/ll_aton.c **** }
 8276              		.loc 1 453 10 is_stmt 0 view .LVU3294
 8277 000c 0020     		movs	r0, #0
 8278              	.L513:
 454:Lib/AI_Runtime/Npu/ll_aton/ll_aton.c **** 
 8279              		.loc 1 454 1 view .LVU3295
 8280 000e 70BD     		pop	{r4, r5, r6, pc}
 8281              	.LVL913:
 8282              	.L546:
 389:Lib/AI_Runtime/Npu/ll_aton/ll_aton.c ****     unitId = LL_ATON_DisableUnits_InitStruct[i].unit.unit_num;
 8283              		.loc 1 389 5 is_stmt 1 view .LVU3296
 390:Lib/AI_Runtime/Npu/ll_aton/ll_aton.c **** 
 8284              		.loc 1 390 5 view .LVU3297
 392:Lib/AI_Runtime/Npu/ll_aton/ll_aton.c ****     {
 8285              		.loc 1 392 5 is_stmt 0 view .LVU3298
 8286 0010 15F82430 		ldrb	r3, [r5, r4, lsl #2]	@ zero_extendqisi2
 390:Lib/AI_Runtime/Npu/ll_aton/ll_aton.c **** 
 8287              		.loc 1 390 12 view .LVU3299
 8288 0014 36F82400 		ldrh	r0, [r6, r4, lsl #2]
 8289              	.LVL914:
 392:Lib/AI_Runtime/Npu/ll_aton/ll_aton.c ****     {
 8290              		.loc 1 392 5 is_stmt 1 view .LVU3300
 8291 0018 082B     		cmp	r3, #8
 8292 001a 00F28980 		bhi	.L547
 8293 001e DFE803F0 		tbb	[pc, r3]
 8294              	.L517:
 8295 0022 05       		.byte	(.L523-.L517)/2
 8296 0023 87       		.byte	(.L547-.L517)/2
 8297 0024 1B       		.byte	(.L522-.L517)/2
 8298 0025 2E       		.byte	(.L521-.L517)/2
 8299 0026 41       		.byte	(.L520-.L517)/2
 8300 0027 53       		.byte	(.L519-.L517)/2
 8301 0028 66       		.byte	(.L518-.L517)/2
 8302 0029 87       		.byte	(.L547-.L517)/2
 8303 002a 78       		.byte	(.L516-.L517)/2
 8304 002b 00       		.p2align 1
 8305              	.L523:
 396:Lib/AI_Runtime/Npu/ll_aton/ll_aton.c ****       LL_ATON_DisableClock(ATON_STRENG_CLKB_CLK(unitId));
 8306              		.loc 1 396 7 view .LVU3301
 396:Lib/AI_Runtime/Npu/ll_aton/ll_aton.c ****       LL_ATON_DisableClock(ATON_STRENG_CLKB_CLK(unitId));
 8307              		.loc 1 396 7 view .LVU3302
 8308              	.LVL915:
 396:Lib/AI_Runtime/Npu/ll_aton/ll_aton.c ****       LL_ATON_DisableClock(ATON_STRENG_CLKB_CLK(unitId));
 8309              		.loc 1 396 7 view .LVU3303
 396:Lib/AI_Runtime/Npu/ll_aton/ll_aton.c ****       LL_ATON_DisableClock(ATON_STRENG_CLKB_CLK(unitId));
 8310              		.loc 1 396 7 view .LVU3304
 396:Lib/AI_Runtime/Npu/ll_aton/ll_aton.c ****       LL_ATON_DisableClock(ATON_STRENG_CLKB_CLK(unitId));
 8311              		.loc 1 396 7 view .LVU3305
 396:Lib/AI_Runtime/Npu/ll_aton/ll_aton.c ****       LL_ATON_DisableClock(ATON_STRENG_CLKB_CLK(unitId));
 8312              		.loc 1 396 7 view .LVU3306
 396:Lib/AI_Runtime/Npu/ll_aton/ll_aton.c ****       LL_ATON_DisableClock(ATON_STRENG_CLKB_CLK(unitId));
 8313              		.loc 1 396 7 view .LVU3307
 8314 002c 0928     		cmp	r0, #9
 8315 002e 00F28280 		bhi	.L543
 396:Lib/AI_Runtime/Npu/ll_aton/ll_aton.c ****       LL_ATON_DisableClock(ATON_STRENG_CLKB_CLK(unitId));
ARM GAS  C:\Users\DJESSOU\AppData\Local\Temp\ccFxekaC.s 			page 257


 8316              		.loc 1 396 7 is_stmt 0 discriminator 4 view .LVU3308
 8317 0032 0222     		movs	r2, #2
 396:Lib/AI_Runtime/Npu/ll_aton/ll_aton.c ****       LL_ATON_DisableClock(ATON_STRENG_CLKB_CLK(unitId));
 8318              		.loc 1 396 7 discriminator 1 view .LVU3309
 8319 0034 00F5B023 		add	r3, r0, #360448
 8320 0038 E533     		adds	r3, r3, #229
 8321 003a 1B03     		lsls	r3, r3, #12
 396:Lib/AI_Runtime/Npu/ll_aton/ll_aton.c ****       LL_ATON_DisableClock(ATON_STRENG_CLKB_CLK(unitId));
 8322              		.loc 1 396 7 discriminator 4 view .LVU3310
 8323 003c 1A60     		str	r2, [r3]
 8324              	.LVL916:
 396:Lib/AI_Runtime/Npu/ll_aton/ll_aton.c ****       LL_ATON_DisableClock(ATON_STRENG_CLKB_CLK(unitId));
 8325              		.loc 1 396 7 is_stmt 1 discriminator 4 view .LVU3311
 396:Lib/AI_Runtime/Npu/ll_aton/ll_aton.c ****       LL_ATON_DisableClock(ATON_STRENG_CLKB_CLK(unitId));
 8326              		.loc 1 396 7 discriminator 4 view .LVU3312
 396:Lib/AI_Runtime/Npu/ll_aton/ll_aton.c ****       LL_ATON_DisableClock(ATON_STRENG_CLKB_CLK(unitId));
 8327              		.loc 1 396 7 discriminator 4 view .LVU3313
 396:Lib/AI_Runtime/Npu/ll_aton/ll_aton.c ****       LL_ATON_DisableClock(ATON_STRENG_CLKB_CLK(unitId));
 8328              		.loc 1 396 7 discriminator 4 view .LVU3314
 8329              	.L525:
 396:Lib/AI_Runtime/Npu/ll_aton/ll_aton.c ****       LL_ATON_DisableClock(ATON_STRENG_CLKB_CLK(unitId));
 8330              		.loc 1 396 7 discriminator 10 view .LVU3315
 396:Lib/AI_Runtime/Npu/ll_aton/ll_aton.c ****       LL_ATON_DisableClock(ATON_STRENG_CLKB_CLK(unitId));
 8331              		.loc 1 396 7 discriminator 10 view .LVU3316
 396:Lib/AI_Runtime/Npu/ll_aton/ll_aton.c ****       LL_ATON_DisableClock(ATON_STRENG_CLKB_CLK(unitId));
 8332              		.loc 1 396 7 is_stmt 0 discriminator 9 view .LVU3317
 8333 003e 1A68     		ldr	r2, [r3]
 8334 0040 9207     		lsls	r2, r2, #30
 8335 0042 FCD4     		bmi	.L525
 396:Lib/AI_Runtime/Npu/ll_aton/ll_aton.c ****       LL_ATON_DisableClock(ATON_STRENG_CLKB_CLK(unitId));
 8336              		.loc 1 396 7 is_stmt 1 discriminator 11 view .LVU3318
 396:Lib/AI_Runtime/Npu/ll_aton/ll_aton.c ****       LL_ATON_DisableClock(ATON_STRENG_CLKB_CLK(unitId));
 8337              		.loc 1 396 7 discriminator 11 view .LVU3319
 8338              	.LVL917:
 396:Lib/AI_Runtime/Npu/ll_aton/ll_aton.c ****       LL_ATON_DisableClock(ATON_STRENG_CLKB_CLK(unitId));
 8339              		.loc 1 396 7 discriminator 11 view .LVU3320
 396:Lib/AI_Runtime/Npu/ll_aton/ll_aton.c ****       LL_ATON_DisableClock(ATON_STRENG_CLKB_CLK(unitId));
 8340              		.loc 1 396 7 discriminator 11 view .LVU3321
 396:Lib/AI_Runtime/Npu/ll_aton/ll_aton.c ****       LL_ATON_DisableClock(ATON_STRENG_CLKB_CLK(unitId));
 8341              		.loc 1 396 7 discriminator 11 view .LVU3322
 396:Lib/AI_Runtime/Npu/ll_aton/ll_aton.c ****       LL_ATON_DisableClock(ATON_STRENG_CLKB_CLK(unitId));
 8342              		.loc 1 396 7 discriminator 11 view .LVU3323
 396:Lib/AI_Runtime/Npu/ll_aton/ll_aton.c ****       LL_ATON_DisableClock(ATON_STRENG_CLKB_CLK(unitId));
 8343              		.loc 1 396 7 is_stmt 0 discriminator 15 view .LVU3324
 8344 0044 4FF08042 		mov	r2, #1073741824
 8345 0048 1A60     		str	r2, [r3]
 396:Lib/AI_Runtime/Npu/ll_aton/ll_aton.c ****       LL_ATON_DisableClock(ATON_STRENG_CLKB_CLK(unitId));
 8346              		.loc 1 396 7 is_stmt 1 discriminator 15 view .LVU3325
 396:Lib/AI_Runtime/Npu/ll_aton/ll_aton.c ****       LL_ATON_DisableClock(ATON_STRENG_CLKB_CLK(unitId));
 8347              		.loc 1 396 7 discriminator 15 view .LVU3326
 396:Lib/AI_Runtime/Npu/ll_aton/ll_aton.c ****       LL_ATON_DisableClock(ATON_STRENG_CLKB_CLK(unitId));
 8348              		.loc 1 396 7 discriminator 15 view .LVU3327
 396:Lib/AI_Runtime/Npu/ll_aton/ll_aton.c ****       LL_ATON_DisableClock(ATON_STRENG_CLKB_CLK(unitId));
 8349              		.loc 1 396 7 discriminator 15 view .LVU3328
 8350              	.L526:
 396:Lib/AI_Runtime/Npu/ll_aton/ll_aton.c ****       LL_ATON_DisableClock(ATON_STRENG_CLKB_CLK(unitId));
 8351              		.loc 1 396 7 discriminator 21 view .LVU3329
ARM GAS  C:\Users\DJESSOU\AppData\Local\Temp\ccFxekaC.s 			page 258


 396:Lib/AI_Runtime/Npu/ll_aton/ll_aton.c ****       LL_ATON_DisableClock(ATON_STRENG_CLKB_CLK(unitId));
 8352              		.loc 1 396 7 discriminator 21 view .LVU3330
 396:Lib/AI_Runtime/Npu/ll_aton/ll_aton.c ****       LL_ATON_DisableClock(ATON_STRENG_CLKB_CLK(unitId));
 8353              		.loc 1 396 7 is_stmt 0 discriminator 20 view .LVU3331
 8354 004a 1A68     		ldr	r2, [r3]
 8355 004c 5200     		lsls	r2, r2, #1
 8356 004e FCD4     		bmi	.L526
 8357              	.LVL918:
 8358              	.L562:
 444:Lib/AI_Runtime/Npu/ll_aton/ll_aton.c ****       break;
 8359              		.loc 1 444 7 discriminator 4 view .LVU3332
 8360 0050 FFF7FEFF 		bl	LL_ATON_DisableClock
 8361              	.LVL919:
 445:Lib/AI_Runtime/Npu/ll_aton/ll_aton.c **** #endif
 8362              		.loc 1 445 7 is_stmt 1 view .LVU3333
 387:Lib/AI_Runtime/Npu/ll_aton/ll_aton.c ****   {
 8363              		.loc 1 387 23 discriminator 2 view .LVU3334
 8364 0054 0134     		adds	r4, r4, #1
 8365              	.LVL920:
 387:Lib/AI_Runtime/Npu/ll_aton/ll_aton.c ****   {
 8366              		.loc 1 387 23 is_stmt 0 discriminator 2 view .LVU3335
 8367 0056 D7E7     		b	.L514
 8368              	.LVL921:
 8369              	.L522:
 403:Lib/AI_Runtime/Npu/ll_aton/ll_aton.c ****       LL_ATON_DisableClock(ATON_CONVACC_CLKB_CLK(unitId));
 8370              		.loc 1 403 7 is_stmt 1 view .LVU3336
 403:Lib/AI_Runtime/Npu/ll_aton/ll_aton.c ****       LL_ATON_DisableClock(ATON_CONVACC_CLKB_CLK(unitId));
 8371              		.loc 1 403 7 view .LVU3337
 403:Lib/AI_Runtime/Npu/ll_aton/ll_aton.c ****       LL_ATON_DisableClock(ATON_CONVACC_CLKB_CLK(unitId));
 8372              		.loc 1 403 7 view .LVU3338
 403:Lib/AI_Runtime/Npu/ll_aton/ll_aton.c ****       LL_ATON_DisableClock(ATON_CONVACC_CLKB_CLK(unitId));
 8373              		.loc 1 403 7 view .LVU3339
 403:Lib/AI_Runtime/Npu/ll_aton/ll_aton.c ****       LL_ATON_DisableClock(ATON_CONVACC_CLKB_CLK(unitId));
 8374              		.loc 1 403 7 view .LVU3340
 403:Lib/AI_Runtime/Npu/ll_aton/ll_aton.c ****       LL_ATON_DisableClock(ATON_CONVACC_CLKB_CLK(unitId));
 8375              		.loc 1 403 7 view .LVU3341
 403:Lib/AI_Runtime/Npu/ll_aton/ll_aton.c ****       LL_ATON_DisableClock(ATON_CONVACC_CLKB_CLK(unitId));
 8376              		.loc 1 403 7 view .LVU3342
 8377 0058 0328     		cmp	r0, #3
 8378 005a 6CD8     		bhi	.L543
 403:Lib/AI_Runtime/Npu/ll_aton/ll_aton.c ****       LL_ATON_DisableClock(ATON_CONVACC_CLKB_CLK(unitId));
 8379              		.loc 1 403 7 is_stmt 0 discriminator 4 view .LVU3343
 8380 005c 0222     		movs	r2, #2
 403:Lib/AI_Runtime/Npu/ll_aton/ll_aton.c ****       LL_ATON_DisableClock(ATON_CONVACC_CLKB_CLK(unitId));
 8381              		.loc 1 403 7 discriminator 1 view .LVU3344
 8382 005e 00F5B023 		add	r3, r0, #360448
 8383 0062 EF33     		adds	r3, r3, #239
 8384 0064 1B03     		lsls	r3, r3, #12
 403:Lib/AI_Runtime/Npu/ll_aton/ll_aton.c ****       LL_ATON_DisableClock(ATON_CONVACC_CLKB_CLK(unitId));
 8385              		.loc 1 403 7 discriminator 4 view .LVU3345
 8386 0066 1A60     		str	r2, [r3]
 8387              	.LVL922:
 403:Lib/AI_Runtime/Npu/ll_aton/ll_aton.c ****       LL_ATON_DisableClock(ATON_CONVACC_CLKB_CLK(unitId));
 8388              		.loc 1 403 7 is_stmt 1 discriminator 4 view .LVU3346
 403:Lib/AI_Runtime/Npu/ll_aton/ll_aton.c ****       LL_ATON_DisableClock(ATON_CONVACC_CLKB_CLK(unitId));
 8389              		.loc 1 403 7 discriminator 4 view .LVU3347
 403:Lib/AI_Runtime/Npu/ll_aton/ll_aton.c ****       LL_ATON_DisableClock(ATON_CONVACC_CLKB_CLK(unitId));
ARM GAS  C:\Users\DJESSOU\AppData\Local\Temp\ccFxekaC.s 			page 259


 8390              		.loc 1 403 7 discriminator 4 view .LVU3348
 403:Lib/AI_Runtime/Npu/ll_aton/ll_aton.c ****       LL_ATON_DisableClock(ATON_CONVACC_CLKB_CLK(unitId));
 8391              		.loc 1 403 7 discriminator 4 view .LVU3349
 8392              	.L529:
 403:Lib/AI_Runtime/Npu/ll_aton/ll_aton.c ****       LL_ATON_DisableClock(ATON_CONVACC_CLKB_CLK(unitId));
 8393              		.loc 1 403 7 discriminator 10 view .LVU3350
 403:Lib/AI_Runtime/Npu/ll_aton/ll_aton.c ****       LL_ATON_DisableClock(ATON_CONVACC_CLKB_CLK(unitId));
 8394              		.loc 1 403 7 discriminator 10 view .LVU3351
 403:Lib/AI_Runtime/Npu/ll_aton/ll_aton.c ****       LL_ATON_DisableClock(ATON_CONVACC_CLKB_CLK(unitId));
 8395              		.loc 1 403 7 is_stmt 0 discriminator 9 view .LVU3352
 8396 0068 1A68     		ldr	r2, [r3]
 8397 006a 9207     		lsls	r2, r2, #30
 8398 006c FCD4     		bmi	.L529
 403:Lib/AI_Runtime/Npu/ll_aton/ll_aton.c ****       LL_ATON_DisableClock(ATON_CONVACC_CLKB_CLK(unitId));
 8399              		.loc 1 403 7 is_stmt 1 discriminator 11 view .LVU3353
 403:Lib/AI_Runtime/Npu/ll_aton/ll_aton.c ****       LL_ATON_DisableClock(ATON_CONVACC_CLKB_CLK(unitId));
 8400              		.loc 1 403 7 discriminator 11 view .LVU3354
 8401              	.LVL923:
 403:Lib/AI_Runtime/Npu/ll_aton/ll_aton.c ****       LL_ATON_DisableClock(ATON_CONVACC_CLKB_CLK(unitId));
 8402              		.loc 1 403 7 discriminator 11 view .LVU3355
 403:Lib/AI_Runtime/Npu/ll_aton/ll_aton.c ****       LL_ATON_DisableClock(ATON_CONVACC_CLKB_CLK(unitId));
 8403              		.loc 1 403 7 discriminator 11 view .LVU3356
 403:Lib/AI_Runtime/Npu/ll_aton/ll_aton.c ****       LL_ATON_DisableClock(ATON_CONVACC_CLKB_CLK(unitId));
 8404              		.loc 1 403 7 discriminator 11 view .LVU3357
 403:Lib/AI_Runtime/Npu/ll_aton/ll_aton.c ****       LL_ATON_DisableClock(ATON_CONVACC_CLKB_CLK(unitId));
 8405              		.loc 1 403 7 discriminator 11 view .LVU3358
 403:Lib/AI_Runtime/Npu/ll_aton/ll_aton.c ****       LL_ATON_DisableClock(ATON_CONVACC_CLKB_CLK(unitId));
 8406              		.loc 1 403 7 is_stmt 0 discriminator 15 view .LVU3359
 8407 006e 4FF08042 		mov	r2, #1073741824
 8408 0072 1A60     		str	r2, [r3]
 403:Lib/AI_Runtime/Npu/ll_aton/ll_aton.c ****       LL_ATON_DisableClock(ATON_CONVACC_CLKB_CLK(unitId));
 8409              		.loc 1 403 7 is_stmt 1 discriminator 15 view .LVU3360
 403:Lib/AI_Runtime/Npu/ll_aton/ll_aton.c ****       LL_ATON_DisableClock(ATON_CONVACC_CLKB_CLK(unitId));
 8410              		.loc 1 403 7 discriminator 15 view .LVU3361
 403:Lib/AI_Runtime/Npu/ll_aton/ll_aton.c ****       LL_ATON_DisableClock(ATON_CONVACC_CLKB_CLK(unitId));
 8411              		.loc 1 403 7 discriminator 15 view .LVU3362
 403:Lib/AI_Runtime/Npu/ll_aton/ll_aton.c ****       LL_ATON_DisableClock(ATON_CONVACC_CLKB_CLK(unitId));
 8412              		.loc 1 403 7 discriminator 15 view .LVU3363
 8413              	.L530:
 403:Lib/AI_Runtime/Npu/ll_aton/ll_aton.c ****       LL_ATON_DisableClock(ATON_CONVACC_CLKB_CLK(unitId));
 8414              		.loc 1 403 7 discriminator 21 view .LVU3364
 403:Lib/AI_Runtime/Npu/ll_aton/ll_aton.c ****       LL_ATON_DisableClock(ATON_CONVACC_CLKB_CLK(unitId));
 8415              		.loc 1 403 7 discriminator 21 view .LVU3365
 403:Lib/AI_Runtime/Npu/ll_aton/ll_aton.c ****       LL_ATON_DisableClock(ATON_CONVACC_CLKB_CLK(unitId));
 8416              		.loc 1 403 7 is_stmt 0 discriminator 20 view .LVU3366
 8417 0074 1A68     		ldr	r2, [r3]
 8418 0076 5200     		lsls	r2, r2, #1
 8419 0078 FCD4     		bmi	.L530
 403:Lib/AI_Runtime/Npu/ll_aton/ll_aton.c ****       LL_ATON_DisableClock(ATON_CONVACC_CLKB_CLK(unitId));
 8420              		.loc 1 403 7 is_stmt 1 discriminator 22 view .LVU3367
 403:Lib/AI_Runtime/Npu/ll_aton/ll_aton.c ****       LL_ATON_DisableClock(ATON_CONVACC_CLKB_CLK(unitId));
 8421              		.loc 1 403 7 discriminator 22 view .LVU3368
 404:Lib/AI_Runtime/Npu/ll_aton/ll_aton.c ****       break;
 8422              		.loc 1 404 7 view .LVU3369
 404:Lib/AI_Runtime/Npu/ll_aton/ll_aton.c ****       break;
 8423              		.loc 1 404 7 is_stmt 0 discriminator 4 view .LVU3370
 8424 007a 0A30     		adds	r0, r0, #10
ARM GAS  C:\Users\DJESSOU\AppData\Local\Temp\ccFxekaC.s 			page 260


 8425              	.LVL924:
 404:Lib/AI_Runtime/Npu/ll_aton/ll_aton.c ****       break;
 8426              		.loc 1 404 7 discriminator 4 view .LVU3371
 8427 007c E8E7     		b	.L562
 8428              	.LVL925:
 8429              	.L521:
 410:Lib/AI_Runtime/Npu/ll_aton/ll_aton.c ****       LL_ATON_DisableClock(ATON_DECUN_CLKB_CLK(unitId));
 8430              		.loc 1 410 7 is_stmt 1 view .LVU3372
 410:Lib/AI_Runtime/Npu/ll_aton/ll_aton.c ****       LL_ATON_DisableClock(ATON_DECUN_CLKB_CLK(unitId));
 8431              		.loc 1 410 7 view .LVU3373
 410:Lib/AI_Runtime/Npu/ll_aton/ll_aton.c ****       LL_ATON_DisableClock(ATON_DECUN_CLKB_CLK(unitId));
 8432              		.loc 1 410 7 view .LVU3374
 410:Lib/AI_Runtime/Npu/ll_aton/ll_aton.c ****       LL_ATON_DisableClock(ATON_DECUN_CLKB_CLK(unitId));
 8433              		.loc 1 410 7 view .LVU3375
 410:Lib/AI_Runtime/Npu/ll_aton/ll_aton.c ****       LL_ATON_DisableClock(ATON_DECUN_CLKB_CLK(unitId));
 8434              		.loc 1 410 7 view .LVU3376
 410:Lib/AI_Runtime/Npu/ll_aton/ll_aton.c ****       LL_ATON_DisableClock(ATON_DECUN_CLKB_CLK(unitId));
 8435              		.loc 1 410 7 view .LVU3377
 410:Lib/AI_Runtime/Npu/ll_aton/ll_aton.c ****       LL_ATON_DisableClock(ATON_DECUN_CLKB_CLK(unitId));
 8436              		.loc 1 410 7 view .LVU3378
 8437 007e 0128     		cmp	r0, #1
 8438 0080 59D8     		bhi	.L543
 410:Lib/AI_Runtime/Npu/ll_aton/ll_aton.c ****       LL_ATON_DisableClock(ATON_DECUN_CLKB_CLK(unitId));
 8439              		.loc 1 410 7 is_stmt 0 discriminator 4 view .LVU3379
 8440 0082 0222     		movs	r2, #2
 410:Lib/AI_Runtime/Npu/ll_aton/ll_aton.c ****       LL_ATON_DisableClock(ATON_DECUN_CLKB_CLK(unitId));
 8441              		.loc 1 410 7 discriminator 1 view .LVU3380
 8442 0084 00F5B023 		add	r3, r0, #360448
 8443 0088 F333     		adds	r3, r3, #243
 8444 008a 1B03     		lsls	r3, r3, #12
 410:Lib/AI_Runtime/Npu/ll_aton/ll_aton.c ****       LL_ATON_DisableClock(ATON_DECUN_CLKB_CLK(unitId));
 8445              		.loc 1 410 7 discriminator 4 view .LVU3381
 8446 008c 1A60     		str	r2, [r3]
 8447              	.LVL926:
 410:Lib/AI_Runtime/Npu/ll_aton/ll_aton.c ****       LL_ATON_DisableClock(ATON_DECUN_CLKB_CLK(unitId));
 8448              		.loc 1 410 7 is_stmt 1 discriminator 4 view .LVU3382
 410:Lib/AI_Runtime/Npu/ll_aton/ll_aton.c ****       LL_ATON_DisableClock(ATON_DECUN_CLKB_CLK(unitId));
 8449              		.loc 1 410 7 discriminator 4 view .LVU3383
 410:Lib/AI_Runtime/Npu/ll_aton/ll_aton.c ****       LL_ATON_DisableClock(ATON_DECUN_CLKB_CLK(unitId));
 8450              		.loc 1 410 7 discriminator 4 view .LVU3384
 410:Lib/AI_Runtime/Npu/ll_aton/ll_aton.c ****       LL_ATON_DisableClock(ATON_DECUN_CLKB_CLK(unitId));
 8451              		.loc 1 410 7 discriminator 4 view .LVU3385
 8452              	.L532:
 410:Lib/AI_Runtime/Npu/ll_aton/ll_aton.c ****       LL_ATON_DisableClock(ATON_DECUN_CLKB_CLK(unitId));
 8453              		.loc 1 410 7 discriminator 10 view .LVU3386
 410:Lib/AI_Runtime/Npu/ll_aton/ll_aton.c ****       LL_ATON_DisableClock(ATON_DECUN_CLKB_CLK(unitId));
 8454              		.loc 1 410 7 discriminator 10 view .LVU3387
 410:Lib/AI_Runtime/Npu/ll_aton/ll_aton.c ****       LL_ATON_DisableClock(ATON_DECUN_CLKB_CLK(unitId));
 8455              		.loc 1 410 7 is_stmt 0 discriminator 9 view .LVU3388
 8456 008e 1A68     		ldr	r2, [r3]
 8457 0090 9207     		lsls	r2, r2, #30
 8458 0092 FCD4     		bmi	.L532
 410:Lib/AI_Runtime/Npu/ll_aton/ll_aton.c ****       LL_ATON_DisableClock(ATON_DECUN_CLKB_CLK(unitId));
 8459              		.loc 1 410 7 is_stmt 1 discriminator 11 view .LVU3389
 410:Lib/AI_Runtime/Npu/ll_aton/ll_aton.c ****       LL_ATON_DisableClock(ATON_DECUN_CLKB_CLK(unitId));
 8460              		.loc 1 410 7 discriminator 11 view .LVU3390
 8461              	.LVL927:
ARM GAS  C:\Users\DJESSOU\AppData\Local\Temp\ccFxekaC.s 			page 261


 410:Lib/AI_Runtime/Npu/ll_aton/ll_aton.c ****       LL_ATON_DisableClock(ATON_DECUN_CLKB_CLK(unitId));
 8462              		.loc 1 410 7 discriminator 11 view .LVU3391
 410:Lib/AI_Runtime/Npu/ll_aton/ll_aton.c ****       LL_ATON_DisableClock(ATON_DECUN_CLKB_CLK(unitId));
 8463              		.loc 1 410 7 discriminator 11 view .LVU3392
 410:Lib/AI_Runtime/Npu/ll_aton/ll_aton.c ****       LL_ATON_DisableClock(ATON_DECUN_CLKB_CLK(unitId));
 8464              		.loc 1 410 7 discriminator 11 view .LVU3393
 410:Lib/AI_Runtime/Npu/ll_aton/ll_aton.c ****       LL_ATON_DisableClock(ATON_DECUN_CLKB_CLK(unitId));
 8465              		.loc 1 410 7 discriminator 11 view .LVU3394
 410:Lib/AI_Runtime/Npu/ll_aton/ll_aton.c ****       LL_ATON_DisableClock(ATON_DECUN_CLKB_CLK(unitId));
 8466              		.loc 1 410 7 is_stmt 0 discriminator 15 view .LVU3395
 8467 0094 4FF08042 		mov	r2, #1073741824
 8468 0098 1A60     		str	r2, [r3]
 410:Lib/AI_Runtime/Npu/ll_aton/ll_aton.c ****       LL_ATON_DisableClock(ATON_DECUN_CLKB_CLK(unitId));
 8469              		.loc 1 410 7 is_stmt 1 discriminator 15 view .LVU3396
 410:Lib/AI_Runtime/Npu/ll_aton/ll_aton.c ****       LL_ATON_DisableClock(ATON_DECUN_CLKB_CLK(unitId));
 8470              		.loc 1 410 7 discriminator 15 view .LVU3397
 410:Lib/AI_Runtime/Npu/ll_aton/ll_aton.c ****       LL_ATON_DisableClock(ATON_DECUN_CLKB_CLK(unitId));
 8471              		.loc 1 410 7 discriminator 15 view .LVU3398
 410:Lib/AI_Runtime/Npu/ll_aton/ll_aton.c ****       LL_ATON_DisableClock(ATON_DECUN_CLKB_CLK(unitId));
 8472              		.loc 1 410 7 discriminator 15 view .LVU3399
 8473              	.L533:
 410:Lib/AI_Runtime/Npu/ll_aton/ll_aton.c ****       LL_ATON_DisableClock(ATON_DECUN_CLKB_CLK(unitId));
 8474              		.loc 1 410 7 discriminator 21 view .LVU3400
 410:Lib/AI_Runtime/Npu/ll_aton/ll_aton.c ****       LL_ATON_DisableClock(ATON_DECUN_CLKB_CLK(unitId));
 8475              		.loc 1 410 7 discriminator 21 view .LVU3401
 410:Lib/AI_Runtime/Npu/ll_aton/ll_aton.c ****       LL_ATON_DisableClock(ATON_DECUN_CLKB_CLK(unitId));
 8476              		.loc 1 410 7 is_stmt 0 discriminator 20 view .LVU3402
 8477 009a 1A68     		ldr	r2, [r3]
 8478 009c 5200     		lsls	r2, r2, #1
 8479 009e FCD4     		bmi	.L533
 410:Lib/AI_Runtime/Npu/ll_aton/ll_aton.c ****       LL_ATON_DisableClock(ATON_DECUN_CLKB_CLK(unitId));
 8480              		.loc 1 410 7 is_stmt 1 discriminator 22 view .LVU3403
 410:Lib/AI_Runtime/Npu/ll_aton/ll_aton.c ****       LL_ATON_DisableClock(ATON_DECUN_CLKB_CLK(unitId));
 8481              		.loc 1 410 7 discriminator 22 view .LVU3404
 411:Lib/AI_Runtime/Npu/ll_aton/ll_aton.c ****       break;
 8482              		.loc 1 411 7 view .LVU3405
 411:Lib/AI_Runtime/Npu/ll_aton/ll_aton.c ****       break;
 8483              		.loc 1 411 7 is_stmt 0 discriminator 4 view .LVU3406
 8484 00a0 0E30     		adds	r0, r0, #14
 8485              	.LVL928:
 411:Lib/AI_Runtime/Npu/ll_aton/ll_aton.c ****       break;
 8486              		.loc 1 411 7 discriminator 4 view .LVU3407
 8487 00a2 D5E7     		b	.L562
 8488              	.LVL929:
 8489              	.L520:
 417:Lib/AI_Runtime/Npu/ll_aton/ll_aton.c ****       LL_ATON_DisableClock(ATON_ACTIV_CLKB_CLK(unitId));
 8490              		.loc 1 417 7 is_stmt 1 view .LVU3408
 417:Lib/AI_Runtime/Npu/ll_aton/ll_aton.c ****       LL_ATON_DisableClock(ATON_ACTIV_CLKB_CLK(unitId));
 8491              		.loc 1 417 7 view .LVU3409
 417:Lib/AI_Runtime/Npu/ll_aton/ll_aton.c ****       LL_ATON_DisableClock(ATON_ACTIV_CLKB_CLK(unitId));
 8492              		.loc 1 417 7 view .LVU3410
 417:Lib/AI_Runtime/Npu/ll_aton/ll_aton.c ****       LL_ATON_DisableClock(ATON_ACTIV_CLKB_CLK(unitId));
 8493              		.loc 1 417 7 view .LVU3411
 417:Lib/AI_Runtime/Npu/ll_aton/ll_aton.c ****       LL_ATON_DisableClock(ATON_ACTIV_CLKB_CLK(unitId));
 8494              		.loc 1 417 7 view .LVU3412
 417:Lib/AI_Runtime/Npu/ll_aton/ll_aton.c ****       LL_ATON_DisableClock(ATON_ACTIV_CLKB_CLK(unitId));
 8495              		.loc 1 417 7 view .LVU3413
ARM GAS  C:\Users\DJESSOU\AppData\Local\Temp\ccFxekaC.s 			page 262


 417:Lib/AI_Runtime/Npu/ll_aton/ll_aton.c ****       LL_ATON_DisableClock(ATON_ACTIV_CLKB_CLK(unitId));
 8496              		.loc 1 417 7 view .LVU3414
 8497 00a4 0128     		cmp	r0, #1
 8498 00a6 46D8     		bhi	.L543
 417:Lib/AI_Runtime/Npu/ll_aton/ll_aton.c ****       LL_ATON_DisableClock(ATON_ACTIV_CLKB_CLK(unitId));
 8499              		.loc 1 417 7 is_stmt 0 discriminator 1 view .LVU3415
 8500 00a8 00F5B023 		add	r3, r0, #360448
 417:Lib/AI_Runtime/Npu/ll_aton/ll_aton.c ****       LL_ATON_DisableClock(ATON_ACTIV_CLKB_CLK(unitId));
 8501              		.loc 1 417 7 discriminator 4 view .LVU3416
 8502 00ac 234A     		ldr	r2, .L563
 417:Lib/AI_Runtime/Npu/ll_aton/ll_aton.c ****       LL_ATON_DisableClock(ATON_ACTIV_CLKB_CLK(unitId));
 8503              		.loc 1 417 7 discriminator 1 view .LVU3417
 8504 00ae F533     		adds	r3, r3, #245
 8505 00b0 1B03     		lsls	r3, r3, #12
 417:Lib/AI_Runtime/Npu/ll_aton/ll_aton.c ****       LL_ATON_DisableClock(ATON_ACTIV_CLKB_CLK(unitId));
 8506              		.loc 1 417 7 discriminator 4 view .LVU3418
 8507 00b2 1A60     		str	r2, [r3]
 8508              	.LVL930:
 417:Lib/AI_Runtime/Npu/ll_aton/ll_aton.c ****       LL_ATON_DisableClock(ATON_ACTIV_CLKB_CLK(unitId));
 8509              		.loc 1 417 7 is_stmt 1 discriminator 4 view .LVU3419
 417:Lib/AI_Runtime/Npu/ll_aton/ll_aton.c ****       LL_ATON_DisableClock(ATON_ACTIV_CLKB_CLK(unitId));
 8510              		.loc 1 417 7 discriminator 4 view .LVU3420
 417:Lib/AI_Runtime/Npu/ll_aton/ll_aton.c ****       LL_ATON_DisableClock(ATON_ACTIV_CLKB_CLK(unitId));
 8511              		.loc 1 417 7 discriminator 4 view .LVU3421
 417:Lib/AI_Runtime/Npu/ll_aton/ll_aton.c ****       LL_ATON_DisableClock(ATON_ACTIV_CLKB_CLK(unitId));
 8512              		.loc 1 417 7 discriminator 4 view .LVU3422
 8513              	.L535:
 417:Lib/AI_Runtime/Npu/ll_aton/ll_aton.c ****       LL_ATON_DisableClock(ATON_ACTIV_CLKB_CLK(unitId));
 8514              		.loc 1 417 7 discriminator 10 view .LVU3423
 417:Lib/AI_Runtime/Npu/ll_aton/ll_aton.c ****       LL_ATON_DisableClock(ATON_ACTIV_CLKB_CLK(unitId));
 8515              		.loc 1 417 7 discriminator 10 view .LVU3424
 417:Lib/AI_Runtime/Npu/ll_aton/ll_aton.c ****       LL_ATON_DisableClock(ATON_ACTIV_CLKB_CLK(unitId));
 8516              		.loc 1 417 7 is_stmt 0 discriminator 9 view .LVU3425
 8517 00b4 1A68     		ldr	r2, [r3]
 8518 00b6 9207     		lsls	r2, r2, #30
 8519 00b8 FCD4     		bmi	.L535
 417:Lib/AI_Runtime/Npu/ll_aton/ll_aton.c ****       LL_ATON_DisableClock(ATON_ACTIV_CLKB_CLK(unitId));
 8520              		.loc 1 417 7 is_stmt 1 discriminator 11 view .LVU3426
 417:Lib/AI_Runtime/Npu/ll_aton/ll_aton.c ****       LL_ATON_DisableClock(ATON_ACTIV_CLKB_CLK(unitId));
 8521              		.loc 1 417 7 discriminator 11 view .LVU3427
 8522              	.LVL931:
 417:Lib/AI_Runtime/Npu/ll_aton/ll_aton.c ****       LL_ATON_DisableClock(ATON_ACTIV_CLKB_CLK(unitId));
 8523              		.loc 1 417 7 discriminator 11 view .LVU3428
 417:Lib/AI_Runtime/Npu/ll_aton/ll_aton.c ****       LL_ATON_DisableClock(ATON_ACTIV_CLKB_CLK(unitId));
 8524              		.loc 1 417 7 discriminator 11 view .LVU3429
 417:Lib/AI_Runtime/Npu/ll_aton/ll_aton.c ****       LL_ATON_DisableClock(ATON_ACTIV_CLKB_CLK(unitId));
 8525              		.loc 1 417 7 discriminator 11 view .LVU3430
 417:Lib/AI_Runtime/Npu/ll_aton/ll_aton.c ****       LL_ATON_DisableClock(ATON_ACTIV_CLKB_CLK(unitId));
 8526              		.loc 1 417 7 discriminator 11 view .LVU3431
 417:Lib/AI_Runtime/Npu/ll_aton/ll_aton.c ****       LL_ATON_DisableClock(ATON_ACTIV_CLKB_CLK(unitId));
 8527              		.loc 1 417 7 is_stmt 0 discriminator 15 view .LVU3432
 8528 00ba 214A     		ldr	r2, .L563+4
 8529 00bc 1A60     		str	r2, [r3]
 417:Lib/AI_Runtime/Npu/ll_aton/ll_aton.c ****       LL_ATON_DisableClock(ATON_ACTIV_CLKB_CLK(unitId));
 8530              		.loc 1 417 7 is_stmt 1 discriminator 15 view .LVU3433
 417:Lib/AI_Runtime/Npu/ll_aton/ll_aton.c ****       LL_ATON_DisableClock(ATON_ACTIV_CLKB_CLK(unitId));
 8531              		.loc 1 417 7 discriminator 15 view .LVU3434
ARM GAS  C:\Users\DJESSOU\AppData\Local\Temp\ccFxekaC.s 			page 263


 417:Lib/AI_Runtime/Npu/ll_aton/ll_aton.c ****       LL_ATON_DisableClock(ATON_ACTIV_CLKB_CLK(unitId));
 8532              		.loc 1 417 7 discriminator 15 view .LVU3435
 417:Lib/AI_Runtime/Npu/ll_aton/ll_aton.c ****       LL_ATON_DisableClock(ATON_ACTIV_CLKB_CLK(unitId));
 8533              		.loc 1 417 7 discriminator 15 view .LVU3436
 8534              	.L536:
 417:Lib/AI_Runtime/Npu/ll_aton/ll_aton.c ****       LL_ATON_DisableClock(ATON_ACTIV_CLKB_CLK(unitId));
 8535              		.loc 1 417 7 discriminator 21 view .LVU3437
 417:Lib/AI_Runtime/Npu/ll_aton/ll_aton.c ****       LL_ATON_DisableClock(ATON_ACTIV_CLKB_CLK(unitId));
 8536              		.loc 1 417 7 discriminator 21 view .LVU3438
 417:Lib/AI_Runtime/Npu/ll_aton/ll_aton.c ****       LL_ATON_DisableClock(ATON_ACTIV_CLKB_CLK(unitId));
 8537              		.loc 1 417 7 is_stmt 0 discriminator 20 view .LVU3439
 8538 00be 1A68     		ldr	r2, [r3]
 8539 00c0 5200     		lsls	r2, r2, #1
 8540 00c2 FCD4     		bmi	.L536
 417:Lib/AI_Runtime/Npu/ll_aton/ll_aton.c ****       LL_ATON_DisableClock(ATON_ACTIV_CLKB_CLK(unitId));
 8541              		.loc 1 417 7 is_stmt 1 discriminator 22 view .LVU3440
 417:Lib/AI_Runtime/Npu/ll_aton/ll_aton.c ****       LL_ATON_DisableClock(ATON_ACTIV_CLKB_CLK(unitId));
 8542              		.loc 1 417 7 discriminator 22 view .LVU3441
 418:Lib/AI_Runtime/Npu/ll_aton/ll_aton.c ****       break;
 8543              		.loc 1 418 7 view .LVU3442
 418:Lib/AI_Runtime/Npu/ll_aton/ll_aton.c ****       break;
 8544              		.loc 1 418 7 is_stmt 0 discriminator 4 view .LVU3443
 8545 00c4 1030     		adds	r0, r0, #16
 8546              	.LVL932:
 418:Lib/AI_Runtime/Npu/ll_aton/ll_aton.c ****       break;
 8547              		.loc 1 418 7 discriminator 4 view .LVU3444
 8548 00c6 C3E7     		b	.L562
 8549              	.LVL933:
 8550              	.L519:
 424:Lib/AI_Runtime/Npu/ll_aton/ll_aton.c ****       LL_ATON_DisableClock(ATON_ARITH_CLKB_CLK(unitId));
 8551              		.loc 1 424 7 is_stmt 1 view .LVU3445
 424:Lib/AI_Runtime/Npu/ll_aton/ll_aton.c ****       LL_ATON_DisableClock(ATON_ARITH_CLKB_CLK(unitId));
 8552              		.loc 1 424 7 view .LVU3446
 424:Lib/AI_Runtime/Npu/ll_aton/ll_aton.c ****       LL_ATON_DisableClock(ATON_ARITH_CLKB_CLK(unitId));
 8553              		.loc 1 424 7 view .LVU3447
 424:Lib/AI_Runtime/Npu/ll_aton/ll_aton.c ****       LL_ATON_DisableClock(ATON_ARITH_CLKB_CLK(unitId));
 8554              		.loc 1 424 7 view .LVU3448
 424:Lib/AI_Runtime/Npu/ll_aton/ll_aton.c ****       LL_ATON_DisableClock(ATON_ARITH_CLKB_CLK(unitId));
 8555              		.loc 1 424 7 view .LVU3449
 424:Lib/AI_Runtime/Npu/ll_aton/ll_aton.c ****       LL_ATON_DisableClock(ATON_ARITH_CLKB_CLK(unitId));
 8556              		.loc 1 424 7 view .LVU3450
 424:Lib/AI_Runtime/Npu/ll_aton/ll_aton.c ****       LL_ATON_DisableClock(ATON_ARITH_CLKB_CLK(unitId));
 8557              		.loc 1 424 7 view .LVU3451
 8558 00c8 0328     		cmp	r0, #3
 8559 00ca 34D8     		bhi	.L543
 424:Lib/AI_Runtime/Npu/ll_aton/ll_aton.c ****       LL_ATON_DisableClock(ATON_ARITH_CLKB_CLK(unitId));
 8560              		.loc 1 424 7 is_stmt 0 discriminator 1 view .LVU3452
 8561 00cc 00F5B023 		add	r3, r0, #360448
 424:Lib/AI_Runtime/Npu/ll_aton/ll_aton.c ****       LL_ATON_DisableClock(ATON_ARITH_CLKB_CLK(unitId));
 8562              		.loc 1 424 7 discriminator 4 view .LVU3453
 8563 00d0 1C4A     		ldr	r2, .L563+8
 424:Lib/AI_Runtime/Npu/ll_aton/ll_aton.c ****       LL_ATON_DisableClock(ATON_ARITH_CLKB_CLK(unitId));
 8564              		.loc 1 424 7 discriminator 1 view .LVU3454
 8565 00d2 F733     		adds	r3, r3, #247
 8566 00d4 1B03     		lsls	r3, r3, #12
 424:Lib/AI_Runtime/Npu/ll_aton/ll_aton.c ****       LL_ATON_DisableClock(ATON_ARITH_CLKB_CLK(unitId));
 8567              		.loc 1 424 7 discriminator 4 view .LVU3455
ARM GAS  C:\Users\DJESSOU\AppData\Local\Temp\ccFxekaC.s 			page 264


 8568 00d6 1A60     		str	r2, [r3]
 8569              	.LVL934:
 424:Lib/AI_Runtime/Npu/ll_aton/ll_aton.c ****       LL_ATON_DisableClock(ATON_ARITH_CLKB_CLK(unitId));
 8570              		.loc 1 424 7 is_stmt 1 discriminator 4 view .LVU3456
 424:Lib/AI_Runtime/Npu/ll_aton/ll_aton.c ****       LL_ATON_DisableClock(ATON_ARITH_CLKB_CLK(unitId));
 8571              		.loc 1 424 7 discriminator 4 view .LVU3457
 424:Lib/AI_Runtime/Npu/ll_aton/ll_aton.c ****       LL_ATON_DisableClock(ATON_ARITH_CLKB_CLK(unitId));
 8572              		.loc 1 424 7 discriminator 4 view .LVU3458
 424:Lib/AI_Runtime/Npu/ll_aton/ll_aton.c ****       LL_ATON_DisableClock(ATON_ARITH_CLKB_CLK(unitId));
 8573              		.loc 1 424 7 discriminator 4 view .LVU3459
 8574              	.L538:
 424:Lib/AI_Runtime/Npu/ll_aton/ll_aton.c ****       LL_ATON_DisableClock(ATON_ARITH_CLKB_CLK(unitId));
 8575              		.loc 1 424 7 discriminator 10 view .LVU3460
 424:Lib/AI_Runtime/Npu/ll_aton/ll_aton.c ****       LL_ATON_DisableClock(ATON_ARITH_CLKB_CLK(unitId));
 8576              		.loc 1 424 7 discriminator 10 view .LVU3461
 424:Lib/AI_Runtime/Npu/ll_aton/ll_aton.c ****       LL_ATON_DisableClock(ATON_ARITH_CLKB_CLK(unitId));
 8577              		.loc 1 424 7 is_stmt 0 discriminator 9 view .LVU3462
 8578 00d8 1A68     		ldr	r2, [r3]
 8579 00da 9207     		lsls	r2, r2, #30
 8580 00dc FCD4     		bmi	.L538
 424:Lib/AI_Runtime/Npu/ll_aton/ll_aton.c ****       LL_ATON_DisableClock(ATON_ARITH_CLKB_CLK(unitId));
 8581              		.loc 1 424 7 is_stmt 1 discriminator 11 view .LVU3463
 424:Lib/AI_Runtime/Npu/ll_aton/ll_aton.c ****       LL_ATON_DisableClock(ATON_ARITH_CLKB_CLK(unitId));
 8582              		.loc 1 424 7 discriminator 11 view .LVU3464
 8583              	.LVL935:
 424:Lib/AI_Runtime/Npu/ll_aton/ll_aton.c ****       LL_ATON_DisableClock(ATON_ARITH_CLKB_CLK(unitId));
 8584              		.loc 1 424 7 discriminator 11 view .LVU3465
 424:Lib/AI_Runtime/Npu/ll_aton/ll_aton.c ****       LL_ATON_DisableClock(ATON_ARITH_CLKB_CLK(unitId));
 8585              		.loc 1 424 7 discriminator 11 view .LVU3466
 424:Lib/AI_Runtime/Npu/ll_aton/ll_aton.c ****       LL_ATON_DisableClock(ATON_ARITH_CLKB_CLK(unitId));
 8586              		.loc 1 424 7 discriminator 11 view .LVU3467
 424:Lib/AI_Runtime/Npu/ll_aton/ll_aton.c ****       LL_ATON_DisableClock(ATON_ARITH_CLKB_CLK(unitId));
 8587              		.loc 1 424 7 discriminator 11 view .LVU3468
 424:Lib/AI_Runtime/Npu/ll_aton/ll_aton.c ****       LL_ATON_DisableClock(ATON_ARITH_CLKB_CLK(unitId));
 8588              		.loc 1 424 7 is_stmt 0 discriminator 15 view .LVU3469
 8589 00de 4FF09042 		mov	r2, #1207959552
 8590 00e2 1A60     		str	r2, [r3]
 424:Lib/AI_Runtime/Npu/ll_aton/ll_aton.c ****       LL_ATON_DisableClock(ATON_ARITH_CLKB_CLK(unitId));
 8591              		.loc 1 424 7 is_stmt 1 discriminator 15 view .LVU3470
 424:Lib/AI_Runtime/Npu/ll_aton/ll_aton.c ****       LL_ATON_DisableClock(ATON_ARITH_CLKB_CLK(unitId));
 8592              		.loc 1 424 7 discriminator 15 view .LVU3471
 424:Lib/AI_Runtime/Npu/ll_aton/ll_aton.c ****       LL_ATON_DisableClock(ATON_ARITH_CLKB_CLK(unitId));
 8593              		.loc 1 424 7 discriminator 15 view .LVU3472
 424:Lib/AI_Runtime/Npu/ll_aton/ll_aton.c ****       LL_ATON_DisableClock(ATON_ARITH_CLKB_CLK(unitId));
 8594              		.loc 1 424 7 discriminator 15 view .LVU3473
 8595              	.L539:
 424:Lib/AI_Runtime/Npu/ll_aton/ll_aton.c ****       LL_ATON_DisableClock(ATON_ARITH_CLKB_CLK(unitId));
 8596              		.loc 1 424 7 discriminator 21 view .LVU3474
 424:Lib/AI_Runtime/Npu/ll_aton/ll_aton.c ****       LL_ATON_DisableClock(ATON_ARITH_CLKB_CLK(unitId));
 8597              		.loc 1 424 7 discriminator 21 view .LVU3475
 424:Lib/AI_Runtime/Npu/ll_aton/ll_aton.c ****       LL_ATON_DisableClock(ATON_ARITH_CLKB_CLK(unitId));
 8598              		.loc 1 424 7 is_stmt 0 discriminator 20 view .LVU3476
 8599 00e4 1A68     		ldr	r2, [r3]
 8600 00e6 5200     		lsls	r2, r2, #1
 8601 00e8 FCD4     		bmi	.L539
 424:Lib/AI_Runtime/Npu/ll_aton/ll_aton.c ****       LL_ATON_DisableClock(ATON_ARITH_CLKB_CLK(unitId));
 8602              		.loc 1 424 7 is_stmt 1 discriminator 22 view .LVU3477
ARM GAS  C:\Users\DJESSOU\AppData\Local\Temp\ccFxekaC.s 			page 265


 424:Lib/AI_Runtime/Npu/ll_aton/ll_aton.c ****       LL_ATON_DisableClock(ATON_ARITH_CLKB_CLK(unitId));
 8603              		.loc 1 424 7 discriminator 22 view .LVU3478
 425:Lib/AI_Runtime/Npu/ll_aton/ll_aton.c ****       break;
 8604              		.loc 1 425 7 view .LVU3479
 425:Lib/AI_Runtime/Npu/ll_aton/ll_aton.c ****       break;
 8605              		.loc 1 425 7 is_stmt 0 discriminator 4 view .LVU3480
 8606 00ea 1230     		adds	r0, r0, #18
 8607              	.LVL936:
 425:Lib/AI_Runtime/Npu/ll_aton/ll_aton.c ****       break;
 8608              		.loc 1 425 7 discriminator 4 view .LVU3481
 8609 00ec B0E7     		b	.L562
 8610              	.LVL937:
 8611              	.L518:
 434:Lib/AI_Runtime/Npu/ll_aton/ll_aton.c **** #endif // !POOL_RC14
 8612              		.loc 1 434 7 is_stmt 1 view .LVU3482
 434:Lib/AI_Runtime/Npu/ll_aton/ll_aton.c **** #endif // !POOL_RC14
 8613              		.loc 1 434 7 view .LVU3483
 434:Lib/AI_Runtime/Npu/ll_aton/ll_aton.c **** #endif // !POOL_RC14
 8614              		.loc 1 434 7 view .LVU3484
 434:Lib/AI_Runtime/Npu/ll_aton/ll_aton.c **** #endif // !POOL_RC14
 8615              		.loc 1 434 7 view .LVU3485
 434:Lib/AI_Runtime/Npu/ll_aton/ll_aton.c **** #endif // !POOL_RC14
 8616              		.loc 1 434 7 view .LVU3486
 434:Lib/AI_Runtime/Npu/ll_aton/ll_aton.c **** #endif // !POOL_RC14
 8617              		.loc 1 434 7 view .LVU3487
 434:Lib/AI_Runtime/Npu/ll_aton/ll_aton.c **** #endif // !POOL_RC14
 8618              		.loc 1 434 7 view .LVU3488
 8619 00ee 0128     		cmp	r0, #1
 8620 00f0 21D8     		bhi	.L543
 434:Lib/AI_Runtime/Npu/ll_aton/ll_aton.c **** #endif // !POOL_RC14
 8621              		.loc 1 434 7 is_stmt 0 discriminator 1 view .LVU3489
 8622 00f2 00F5B023 		add	r3, r0, #360448
 434:Lib/AI_Runtime/Npu/ll_aton/ll_aton.c **** #endif // !POOL_RC14
 8623              		.loc 1 434 7 discriminator 4 view .LVU3490
 8624 00f6 144A     		ldr	r2, .L563+12
 434:Lib/AI_Runtime/Npu/ll_aton/ll_aton.c **** #endif // !POOL_RC14
 8625              		.loc 1 434 7 discriminator 1 view .LVU3491
 8626 00f8 FB33     		adds	r3, r3, #251
 8627 00fa 1B03     		lsls	r3, r3, #12
 434:Lib/AI_Runtime/Npu/ll_aton/ll_aton.c **** #endif // !POOL_RC14
 8628              		.loc 1 434 7 discriminator 4 view .LVU3492
 8629 00fc 1A60     		str	r2, [r3]
 8630              	.LVL938:
 434:Lib/AI_Runtime/Npu/ll_aton/ll_aton.c **** #endif // !POOL_RC14
 8631              		.loc 1 434 7 is_stmt 1 discriminator 4 view .LVU3493
 434:Lib/AI_Runtime/Npu/ll_aton/ll_aton.c **** #endif // !POOL_RC14
 8632              		.loc 1 434 7 discriminator 4 view .LVU3494
 434:Lib/AI_Runtime/Npu/ll_aton/ll_aton.c **** #endif // !POOL_RC14
 8633              		.loc 1 434 7 discriminator 4 view .LVU3495
 434:Lib/AI_Runtime/Npu/ll_aton/ll_aton.c **** #endif // !POOL_RC14
 8634              		.loc 1 434 7 discriminator 4 view .LVU3496
 8635              	.L541:
 434:Lib/AI_Runtime/Npu/ll_aton/ll_aton.c **** #endif // !POOL_RC14
 8636              		.loc 1 434 7 discriminator 10 view .LVU3497
 434:Lib/AI_Runtime/Npu/ll_aton/ll_aton.c **** #endif // !POOL_RC14
 8637              		.loc 1 434 7 discriminator 10 view .LVU3498
 434:Lib/AI_Runtime/Npu/ll_aton/ll_aton.c **** #endif // !POOL_RC14
ARM GAS  C:\Users\DJESSOU\AppData\Local\Temp\ccFxekaC.s 			page 266


 8638              		.loc 1 434 7 is_stmt 0 discriminator 9 view .LVU3499
 8639 00fe 1A68     		ldr	r2, [r3]
 8640 0100 9207     		lsls	r2, r2, #30
 8641 0102 FCD4     		bmi	.L541
 434:Lib/AI_Runtime/Npu/ll_aton/ll_aton.c **** #endif // !POOL_RC14
 8642              		.loc 1 434 7 is_stmt 1 discriminator 11 view .LVU3500
 434:Lib/AI_Runtime/Npu/ll_aton/ll_aton.c **** #endif // !POOL_RC14
 8643              		.loc 1 434 7 discriminator 11 view .LVU3501
 8644              	.LVL939:
 434:Lib/AI_Runtime/Npu/ll_aton/ll_aton.c **** #endif // !POOL_RC14
 8645              		.loc 1 434 7 discriminator 11 view .LVU3502
 434:Lib/AI_Runtime/Npu/ll_aton/ll_aton.c **** #endif // !POOL_RC14
 8646              		.loc 1 434 7 discriminator 11 view .LVU3503
 434:Lib/AI_Runtime/Npu/ll_aton/ll_aton.c **** #endif // !POOL_RC14
 8647              		.loc 1 434 7 discriminator 11 view .LVU3504
 434:Lib/AI_Runtime/Npu/ll_aton/ll_aton.c **** #endif // !POOL_RC14
 8648              		.loc 1 434 7 discriminator 11 view .LVU3505
 434:Lib/AI_Runtime/Npu/ll_aton/ll_aton.c **** #endif // !POOL_RC14
 8649              		.loc 1 434 7 is_stmt 0 discriminator 15 view .LVU3506
 8650 0104 114A     		ldr	r2, .L563+16
 8651 0106 1A60     		str	r2, [r3]
 434:Lib/AI_Runtime/Npu/ll_aton/ll_aton.c **** #endif // !POOL_RC14
 8652              		.loc 1 434 7 is_stmt 1 discriminator 15 view .LVU3507
 434:Lib/AI_Runtime/Npu/ll_aton/ll_aton.c **** #endif // !POOL_RC14
 8653              		.loc 1 434 7 discriminator 15 view .LVU3508
 434:Lib/AI_Runtime/Npu/ll_aton/ll_aton.c **** #endif // !POOL_RC14
 8654              		.loc 1 434 7 discriminator 15 view .LVU3509
 434:Lib/AI_Runtime/Npu/ll_aton/ll_aton.c **** #endif // !POOL_RC14
 8655              		.loc 1 434 7 discriminator 15 view .LVU3510
 8656              	.L542:
 434:Lib/AI_Runtime/Npu/ll_aton/ll_aton.c **** #endif // !POOL_RC14
 8657              		.loc 1 434 7 discriminator 21 view .LVU3511
 434:Lib/AI_Runtime/Npu/ll_aton/ll_aton.c **** #endif // !POOL_RC14
 8658              		.loc 1 434 7 discriminator 21 view .LVU3512
 434:Lib/AI_Runtime/Npu/ll_aton/ll_aton.c **** #endif // !POOL_RC14
 8659              		.loc 1 434 7 is_stmt 0 discriminator 20 view .LVU3513
 8660 0108 1A68     		ldr	r2, [r3]
 8661 010a 5200     		lsls	r2, r2, #1
 8662 010c FCD4     		bmi	.L542
 434:Lib/AI_Runtime/Npu/ll_aton/ll_aton.c **** #endif // !POOL_RC14
 8663              		.loc 1 434 7 is_stmt 1 discriminator 22 view .LVU3514
 434:Lib/AI_Runtime/Npu/ll_aton/ll_aton.c **** #endif // !POOL_RC14
 8664              		.loc 1 434 7 discriminator 22 view .LVU3515
 437:Lib/AI_Runtime/Npu/ll_aton/ll_aton.c ****       break;
 8665              		.loc 1 437 7 view .LVU3516
 437:Lib/AI_Runtime/Npu/ll_aton/ll_aton.c ****       break;
 8666              		.loc 1 437 7 is_stmt 0 discriminator 4 view .LVU3517
 8667 010e 1630     		adds	r0, r0, #22
 8668              	.LVL940:
 437:Lib/AI_Runtime/Npu/ll_aton/ll_aton.c ****       break;
 8669              		.loc 1 437 7 discriminator 4 view .LVU3518
 8670 0110 9EE7     		b	.L562
 8671              	.LVL941:
 8672              	.L516:
 443:Lib/AI_Runtime/Npu/ll_aton/ll_aton.c ****       LL_ATON_DisableClock(ATON_RECBUF_CLKB_CLK(unitId));
 8673              		.loc 1 443 7 is_stmt 1 view .LVU3519
 443:Lib/AI_Runtime/Npu/ll_aton/ll_aton.c ****       LL_ATON_DisableClock(ATON_RECBUF_CLKB_CLK(unitId));
ARM GAS  C:\Users\DJESSOU\AppData\Local\Temp\ccFxekaC.s 			page 267


 8674              		.loc 1 443 7 view .LVU3520
 443:Lib/AI_Runtime/Npu/ll_aton/ll_aton.c ****       LL_ATON_DisableClock(ATON_RECBUF_CLKB_CLK(unitId));
 8675              		.loc 1 443 7 view .LVU3521
 443:Lib/AI_Runtime/Npu/ll_aton/ll_aton.c ****       LL_ATON_DisableClock(ATON_RECBUF_CLKB_CLK(unitId));
 8676              		.loc 1 443 7 view .LVU3522
 443:Lib/AI_Runtime/Npu/ll_aton/ll_aton.c ****       LL_ATON_DisableClock(ATON_RECBUF_CLKB_CLK(unitId));
 8677              		.loc 1 443 7 view .LVU3523
 443:Lib/AI_Runtime/Npu/ll_aton/ll_aton.c ****       LL_ATON_DisableClock(ATON_RECBUF_CLKB_CLK(unitId));
 8678              		.loc 1 443 7 view .LVU3524
 443:Lib/AI_Runtime/Npu/ll_aton/ll_aton.c ****       LL_ATON_DisableClock(ATON_RECBUF_CLKB_CLK(unitId));
 8679              		.loc 1 443 7 view .LVU3525
 8680 0112 80B9     		cbnz	r0, .L543
 443:Lib/AI_Runtime/Npu/ll_aton/ll_aton.c ****       LL_ATON_DisableClock(ATON_RECBUF_CLKB_CLK(unitId));
 8681              		.loc 1 443 7 is_stmt 0 discriminator 4 view .LVU3526
 8682 0114 0222     		movs	r2, #2
 8683 0116 0E4B     		ldr	r3, .L563+20
 8684 0118 1A60     		str	r2, [r3]
 8685              	.LVL942:
 443:Lib/AI_Runtime/Npu/ll_aton/ll_aton.c ****       LL_ATON_DisableClock(ATON_RECBUF_CLKB_CLK(unitId));
 8686              		.loc 1 443 7 is_stmt 1 discriminator 4 view .LVU3527
 443:Lib/AI_Runtime/Npu/ll_aton/ll_aton.c ****       LL_ATON_DisableClock(ATON_RECBUF_CLKB_CLK(unitId));
 8687              		.loc 1 443 7 discriminator 4 view .LVU3528
 443:Lib/AI_Runtime/Npu/ll_aton/ll_aton.c ****       LL_ATON_DisableClock(ATON_RECBUF_CLKB_CLK(unitId));
 8688              		.loc 1 443 7 discriminator 4 view .LVU3529
 443:Lib/AI_Runtime/Npu/ll_aton/ll_aton.c ****       LL_ATON_DisableClock(ATON_RECBUF_CLKB_CLK(unitId));
 8689              		.loc 1 443 7 discriminator 4 view .LVU3530
 8690              	.L544:
 443:Lib/AI_Runtime/Npu/ll_aton/ll_aton.c ****       LL_ATON_DisableClock(ATON_RECBUF_CLKB_CLK(unitId));
 8691              		.loc 1 443 7 discriminator 10 view .LVU3531
 443:Lib/AI_Runtime/Npu/ll_aton/ll_aton.c ****       LL_ATON_DisableClock(ATON_RECBUF_CLKB_CLK(unitId));
 8692              		.loc 1 443 7 discriminator 10 view .LVU3532
 443:Lib/AI_Runtime/Npu/ll_aton/ll_aton.c ****       LL_ATON_DisableClock(ATON_RECBUF_CLKB_CLK(unitId));
 8693              		.loc 1 443 7 is_stmt 0 discriminator 9 view .LVU3533
 8694 011a 1A68     		ldr	r2, [r3]
 8695 011c 9007     		lsls	r0, r2, #30
 8696 011e FCD4     		bmi	.L544
 443:Lib/AI_Runtime/Npu/ll_aton/ll_aton.c ****       LL_ATON_DisableClock(ATON_RECBUF_CLKB_CLK(unitId));
 8697              		.loc 1 443 7 is_stmt 1 discriminator 11 view .LVU3534
 443:Lib/AI_Runtime/Npu/ll_aton/ll_aton.c ****       LL_ATON_DisableClock(ATON_RECBUF_CLKB_CLK(unitId));
 8698              		.loc 1 443 7 discriminator 11 view .LVU3535
 8699              	.LVL943:
 443:Lib/AI_Runtime/Npu/ll_aton/ll_aton.c ****       LL_ATON_DisableClock(ATON_RECBUF_CLKB_CLK(unitId));
 8700              		.loc 1 443 7 discriminator 11 view .LVU3536
 443:Lib/AI_Runtime/Npu/ll_aton/ll_aton.c ****       LL_ATON_DisableClock(ATON_RECBUF_CLKB_CLK(unitId));
 8701              		.loc 1 443 7 discriminator 11 view .LVU3537
 443:Lib/AI_Runtime/Npu/ll_aton/ll_aton.c ****       LL_ATON_DisableClock(ATON_RECBUF_CLKB_CLK(unitId));
 8702              		.loc 1 443 7 discriminator 11 view .LVU3538
 443:Lib/AI_Runtime/Npu/ll_aton/ll_aton.c ****       LL_ATON_DisableClock(ATON_RECBUF_CLKB_CLK(unitId));
 8703              		.loc 1 443 7 discriminator 11 view .LVU3539
 443:Lib/AI_Runtime/Npu/ll_aton/ll_aton.c ****       LL_ATON_DisableClock(ATON_RECBUF_CLKB_CLK(unitId));
 8704              		.loc 1 443 7 is_stmt 0 discriminator 15 view .LVU3540
 8705 0120 4FF08042 		mov	r2, #1073741824
 8706 0124 1A60     		str	r2, [r3]
 443:Lib/AI_Runtime/Npu/ll_aton/ll_aton.c ****       LL_ATON_DisableClock(ATON_RECBUF_CLKB_CLK(unitId));
 8707              		.loc 1 443 7 is_stmt 1 discriminator 15 view .LVU3541
 443:Lib/AI_Runtime/Npu/ll_aton/ll_aton.c ****       LL_ATON_DisableClock(ATON_RECBUF_CLKB_CLK(unitId));
 8708              		.loc 1 443 7 discriminator 15 view .LVU3542
ARM GAS  C:\Users\DJESSOU\AppData\Local\Temp\ccFxekaC.s 			page 268


 443:Lib/AI_Runtime/Npu/ll_aton/ll_aton.c ****       LL_ATON_DisableClock(ATON_RECBUF_CLKB_CLK(unitId));
 8709              		.loc 1 443 7 discriminator 15 view .LVU3543
 443:Lib/AI_Runtime/Npu/ll_aton/ll_aton.c ****       LL_ATON_DisableClock(ATON_RECBUF_CLKB_CLK(unitId));
 8710              		.loc 1 443 7 discriminator 15 view .LVU3544
 8711              	.L545:
 443:Lib/AI_Runtime/Npu/ll_aton/ll_aton.c ****       LL_ATON_DisableClock(ATON_RECBUF_CLKB_CLK(unitId));
 8712              		.loc 1 443 7 discriminator 21 view .LVU3545
 443:Lib/AI_Runtime/Npu/ll_aton/ll_aton.c ****       LL_ATON_DisableClock(ATON_RECBUF_CLKB_CLK(unitId));
 8713              		.loc 1 443 7 discriminator 21 view .LVU3546
 443:Lib/AI_Runtime/Npu/ll_aton/ll_aton.c ****       LL_ATON_DisableClock(ATON_RECBUF_CLKB_CLK(unitId));
 8714              		.loc 1 443 7 is_stmt 0 discriminator 20 view .LVU3547
 8715 0126 1A68     		ldr	r2, [r3]
 8716 0128 5200     		lsls	r2, r2, #1
 8717 012a FCD4     		bmi	.L545
 443:Lib/AI_Runtime/Npu/ll_aton/ll_aton.c ****       LL_ATON_DisableClock(ATON_RECBUF_CLKB_CLK(unitId));
 8718              		.loc 1 443 7 is_stmt 1 discriminator 22 view .LVU3548
 443:Lib/AI_Runtime/Npu/ll_aton/ll_aton.c ****       LL_ATON_DisableClock(ATON_RECBUF_CLKB_CLK(unitId));
 8719              		.loc 1 443 7 discriminator 22 view .LVU3549
 444:Lib/AI_Runtime/Npu/ll_aton/ll_aton.c ****       break;
 8720              		.loc 1 444 7 view .LVU3550
 444:Lib/AI_Runtime/Npu/ll_aton/ll_aton.c ****       break;
 8721              		.loc 1 444 7 is_stmt 0 discriminator 4 view .LVU3551
 8722 012c 1820     		movs	r0, #24
 8723 012e 8FE7     		b	.L562
 8724              	.LVL944:
 8725              	.L547:
 392:Lib/AI_Runtime/Npu/ll_aton/ll_aton.c ****     {
 8726              		.loc 1 392 5 view .LVU3552
 8727 0130 6FF00100 		mvn	r0, #1
 8728              	.LVL945:
 392:Lib/AI_Runtime/Npu/ll_aton/ll_aton.c ****     {
 8729              		.loc 1 392 5 view .LVU3553
 8730 0134 6BE7     		b	.L513
 8731              	.LVL946:
 8732              	.L543:
 443:Lib/AI_Runtime/Npu/ll_aton/ll_aton.c ****       LL_ATON_DisableClock(ATON_RECBUF_CLKB_CLK(unitId));
 8733              		.loc 1 443 7 discriminator 4 view .LVU3554
 8734 0136 0023     		movs	r3, #0
 8735 0138 1B60     		str	r3, [r3]
 8736              	.LVL947:
 443:Lib/AI_Runtime/Npu/ll_aton/ll_aton.c ****       LL_ATON_DisableClock(ATON_RECBUF_CLKB_CLK(unitId));
 8737              		.loc 1 443 7 discriminator 4 view .LVU3555
 8738 013a FFDE     		.inst	0xdeff
 8739              	.L564:
 8740              		.align	2
 8741              	.L563:
 8742 013c 82108800 		.word	8917122
 8743 0140 80108840 		.word	1082658944
 8744 0144 02000008 		.word	134217730
 8745 0148 02004200 		.word	4325378
 8746 014c 00004240 		.word	1078067200
 8747 0150 00D00F58 		.word	1477431296
 8748              		.cfi_endproc
 8749              	.LFE290:
 8751              		.section	.text.LL_ATON_Dma_memcpy,"ax",%progbits
 8752              		.align	1
 8753              		.weak	LL_ATON_Dma_memcpy
ARM GAS  C:\Users\DJESSOU\AppData\Local\Temp\ccFxekaC.s 			page 269


 8754              		.syntax unified
 8755              		.thumb
 8756              		.thumb_func
 8758              	LL_ATON_Dma_memcpy:
 8759              	.LVL948:
 8760              	.LFB319:
2551:Lib/AI_Runtime/Npu/ll_aton/ll_aton.c **** 
2552:Lib/AI_Runtime/Npu/ll_aton/ll_aton.c **** /**
2553:Lib/AI_Runtime/Npu/ll_aton/ll_aton.c ****  * @brief  DMA version of a memcpy functionality, this function could be overloaded if a system DMA
2554:Lib/AI_Runtime/Npu/ll_aton/ll_aton.c ****  * @param  dst destination memory address
2555:Lib/AI_Runtime/Npu/ll_aton/ll_aton.c ****  * @param  src source memory address
2556:Lib/AI_Runtime/Npu/ll_aton/ll_aton.c ****  * @param  src_limit memory pool end address of `src`
2557:Lib/AI_Runtime/Npu/ll_aton/ll_aton.c ****  * @param  n number of bytes to be transferred
2558:Lib/AI_Runtime/Npu/ll_aton/ll_aton.c ****  * @param dst_cached Destination under cache flag
2559:Lib/AI_Runtime/Npu/ll_aton/ll_aton.c ****  * @param dst_cached Source under cache flag
2560:Lib/AI_Runtime/Npu/ll_aton/ll_aton.c ****  * @retval Error code E.g.: Invalid ID, invalid parameters, not idle,..
2561:Lib/AI_Runtime/Npu/ll_aton/ll_aton.c ****  *
2562:Lib/AI_Runtime/Npu/ll_aton/ll_aton.c ****  * @note:  This function completely undermines any possibility for integrating correctly
2563:Lib/AI_Runtime/Npu/ll_aton/ll_aton.c ****  *         SW operators (or any other functionality which calls this function) in any of the three 
2564:Lib/AI_Runtime/Npu/ll_aton/ll_aton.c ****  * scheduling modes. In other words, function `LL_ATON_Dma_memcpy()` and its usage are incompatible
2565:Lib/AI_Runtime/Npu/ll_aton/ll_aton.c ****  * runtime. Therefore either `memcpy()` should be used in its place or calls to `LL_ATON_Dma_memcpy
2566:Lib/AI_Runtime/Npu/ll_aton/ll_aton.c ****  * transformed in a sequence of "epoch blocks" which can be integrated with the ATON runtime (as an
2567:Lib/AI_Runtime/Npu/ll_aton/ll_aton.c ****  * ATON-accelerated implementation of operator `Concat`)!
2568:Lib/AI_Runtime/Npu/ll_aton/ll_aton.c ****  */
2569:Lib/AI_Runtime/Npu/ll_aton/ll_aton.c **** /* N.B. assumes DMA0 and 1 are free to use */
2570:Lib/AI_Runtime/Npu/ll_aton/ll_aton.c **** #define MIN_BUFF_LEN 40
2571:Lib/AI_Runtime/Npu/ll_aton/ll_aton.c **** LL_ATON_WEAK void *LL_ATON_Dma_memcpy(void *dst, void *src, void *src_limit, size_t n, int dst_cach
2572:Lib/AI_Runtime/Npu/ll_aton/ll_aton.c **** {
 8761              		.loc 1 2572 1 is_stmt 1 view -0
 8762              		.cfi_startproc
 8763              		@ args = 8, pretend = 0, frame = 168
 8764              		@ frame_needed = 0, uses_anonymous_args = 0
2573:Lib/AI_Runtime/Npu/ll_aton/ll_aton.c ****   uint8_t *_dst_orig = dst;
 8765              		.loc 1 2573 3 view .LVU3557
2574:Lib/AI_Runtime/Npu/ll_aton/ll_aton.c **** 
2575:Lib/AI_Runtime/Npu/ll_aton/ll_aton.c ****   int prolog_len = (n % 3);
2576:Lib/AI_Runtime/Npu/ll_aton/ll_aton.c ****   int i;
2577:Lib/AI_Runtime/Npu/ll_aton/ll_aton.c ****   uint8_t *_dst = (uint8_t *)dst;
2578:Lib/AI_Runtime/Npu/ll_aton/ll_aton.c ****   uint8_t *_src = (uint8_t *)src;
2579:Lib/AI_Runtime/Npu/ll_aton/ll_aton.c **** 
2580:Lib/AI_Runtime/Npu/ll_aton/ll_aton.c ****   if (n < MIN_BUFF_LEN)
 8766              		.loc 1 2580 6 is_stmt 0 view .LVU3558
 8767 0000 272B     		cmp	r3, #39
2572:Lib/AI_Runtime/Npu/ll_aton/ll_aton.c ****   uint8_t *_dst_orig = dst;
 8768              		.loc 1 2572 1 view .LVU3559
 8769 0002 2DE9F047 		push	{r4, r5, r6, r7, r8, r9, r10, lr}
 8770              		.cfi_def_cfa_offset 32
 8771              		.cfi_offset 4, -32
 8772              		.cfi_offset 5, -28
 8773              		.cfi_offset 6, -24
 8774              		.cfi_offset 7, -20
 8775              		.cfi_offset 8, -16
 8776              		.cfi_offset 9, -12
 8777              		.cfi_offset 10, -8
 8778              		.cfi_offset 14, -4
 8779 0006 1C46     		mov	r4, r3
2575:Lib/AI_Runtime/Npu/ll_aton/ll_aton.c ****   int i;
ARM GAS  C:\Users\DJESSOU\AppData\Local\Temp\ccFxekaC.s 			page 270


 8780              		.loc 1 2575 23 view .LVU3560
 8781 0008 84BF     		itt	hi
 8782 000a 0324     		movhi	r4, #3
 8783 000c B3FBF4F4 		udivhi	r4, r3, r4
2572:Lib/AI_Runtime/Npu/ll_aton/ll_aton.c ****   uint8_t *_dst_orig = dst;
 8784              		.loc 1 2572 1 view .LVU3561
 8785 0010 9146     		mov	r9, r2
2581:Lib/AI_Runtime/Npu/ll_aton/ll_aton.c ****     prolog_len = n; // not worth it ...
2582:Lib/AI_Runtime/Npu/ll_aton/ll_aton.c ****   // LL_ATON_PRINTF("n=%d prolog=%d\n",n,prolog_len);
2583:Lib/AI_Runtime/Npu/ll_aton/ll_aton.c **** 
2584:Lib/AI_Runtime/Npu/ll_aton/ll_aton.c ****   for (i = 0; i < prolog_len; i++)
 8786              		.loc 1 2584 10 view .LVU3562
 8787 0012 4FF00002 		mov	r2, #0
 8788              	.LVL949:
2575:Lib/AI_Runtime/Npu/ll_aton/ll_aton.c ****   int i;
 8789              		.loc 1 2575 23 view .LVU3563
 8790 0016 84BF     		itt	hi
 8791 0018 04EB4404 		addhi	r4, r4, r4, lsl #1
 8792 001c 1C1B     		subhi	r4, r3, r4
 8793 001e 9442     		cmp	r4, r2
 8794 0020 04F1010C 		add	ip, r4, #1
2572:Lib/AI_Runtime/Npu/ll_aton/ll_aton.c ****   uint8_t *_dst_orig = dst;
 8795              		.loc 1 2572 1 view .LVU3564
 8796 0024 8046     		mov	r8, r0
 8797              	.LVL950:
2575:Lib/AI_Runtime/Npu/ll_aton/ll_aton.c ****   int i;
 8798              		.loc 1 2575 3 is_stmt 1 view .LVU3565
2576:Lib/AI_Runtime/Npu/ll_aton/ll_aton.c ****   uint8_t *_dst = (uint8_t *)dst;
 8799              		.loc 1 2576 3 view .LVU3566
2577:Lib/AI_Runtime/Npu/ll_aton/ll_aton.c ****   uint8_t *_src = (uint8_t *)src;
 8800              		.loc 1 2577 3 view .LVU3567
2578:Lib/AI_Runtime/Npu/ll_aton/ll_aton.c **** 
 8801              		.loc 1 2578 3 view .LVU3568
2572:Lib/AI_Runtime/Npu/ll_aton/ll_aton.c ****   uint8_t *_dst_orig = dst;
 8802              		.loc 1 2572 1 is_stmt 0 view .LVU3569
 8803 0026 8A46     		mov	r10, r1
 8804              	.LVL951:
2580:Lib/AI_Runtime/Npu/ll_aton/ll_aton.c ****     prolog_len = n; // not worth it ...
 8805              		.loc 1 2580 3 is_stmt 1 view .LVU3570
 8806              		.loc 1 2584 3 view .LVU3571
 8807              		.loc 1 2584 3 is_stmt 0 view .LVU3572
 8808 0028 B8BF     		it	lt
 8809 002a 4FF0010C 		movlt	ip, #1
2572:Lib/AI_Runtime/Npu/ll_aton/ll_aton.c ****   uint8_t *_dst_orig = dst;
 8810              		.loc 1 2572 1 view .LVU3573
 8811 002e AAB0     		sub	sp, sp, #168
 8812              		.cfi_def_cfa_offset 200
2572:Lib/AI_Runtime/Npu/ll_aton/ll_aton.c ****   uint8_t *_dst_orig = dst;
 8813              		.loc 1 2572 1 view .LVU3574
 8814 0030 339F     		ldr	r7, [sp, #204]
 8815              	.LVL952:
 8816              	.L567:
 8817              		.loc 1 2584 17 is_stmt 1 discriminator 1 view .LVU3575
 8818 0032 BCF1010C 		subs	ip, ip, #1
 8819 0036 73D1     		bne	.L568
2585:Lib/AI_Runtime/Npu/ll_aton/ll_aton.c ****     *_dst++ = *_src++;
2586:Lib/AI_Runtime/Npu/ll_aton/ll_aton.c ****   n -= prolog_len;
ARM GAS  C:\Users\DJESSOU\AppData\Local\Temp\ccFxekaC.s 			page 271


 8820              		.loc 1 2586 3 view .LVU3576
 8821              		.loc 1 2586 5 is_stmt 0 view .LVU3577
 8822 0038 1D1B     		subs	r5, r3, r4
 8823              	.LVL953:
2587:Lib/AI_Runtime/Npu/ll_aton/ll_aton.c **** 
2588:Lib/AI_Runtime/Npu/ll_aton/ll_aton.c ****   if (prolog_len > 0)
 8824              		.loc 1 2588 3 is_stmt 1 view .LVU3578
 8825              		.loc 1 2588 6 is_stmt 0 view .LVU3579
 8826 003a 24B1     		cbz	r4, .L569
2589:Lib/AI_Runtime/Npu/ll_aton/ll_aton.c ****   {
2590:Lib/AI_Runtime/Npu/ll_aton/ll_aton.c ****     /* *** MCU cache clean & invalidate operation (SW) *** */
2591:Lib/AI_Runtime/Npu/ll_aton/ll_aton.c ****     LL_ATON_Cache_MCU_Clean_Invalidate_Range(ATON_LIB_PHYSICAL_TO_VIRTUAL_ADDR((uintptr_t)_dst_orig
 8827              		.loc 1 2591 5 is_stmt 1 view .LVU3580
 8828              	.LVL954:
 8829              	.LBB191:
 8830              	.LBI191:
 8831              		.file 3 "Lib/AI_Runtime/Npu/ll_aton/ll_aton_caches_interface.h"
   1:Lib/AI_Runtime/Npu/ll_aton/ll_aton_caches_interface.h **** /**
   2:Lib/AI_Runtime/Npu/ll_aton/ll_aton_caches_interface.h ****  ******************************************************************************
   3:Lib/AI_Runtime/Npu/ll_aton/ll_aton_caches_interface.h ****  * @file    ll_aton_caches_interface.h
   4:Lib/AI_Runtime/Npu/ll_aton/ll_aton_caches_interface.h ****  * @author  SRA Artificial Intelligence & Embedded Architectures
   5:Lib/AI_Runtime/Npu/ll_aton/ll_aton_caches_interface.h ****  * @brief   Header file for defining an implementing generic cache handling
   6:Lib/AI_Runtime/Npu/ll_aton/ll_aton_caches_interface.h ****  *          functions for the application writer
   7:Lib/AI_Runtime/Npu/ll_aton/ll_aton_caches_interface.h ****  ******************************************************************************
   8:Lib/AI_Runtime/Npu/ll_aton/ll_aton_caches_interface.h ****  * @attention
   9:Lib/AI_Runtime/Npu/ll_aton/ll_aton_caches_interface.h ****  *
  10:Lib/AI_Runtime/Npu/ll_aton/ll_aton_caches_interface.h ****  * Copyright (c) 2024 STMicroelectronics.
  11:Lib/AI_Runtime/Npu/ll_aton/ll_aton_caches_interface.h ****  * All rights reserved.
  12:Lib/AI_Runtime/Npu/ll_aton/ll_aton_caches_interface.h ****  *
  13:Lib/AI_Runtime/Npu/ll_aton/ll_aton_caches_interface.h ****  * This software is licensed under terms that can be found in the LICENSE file
  14:Lib/AI_Runtime/Npu/ll_aton/ll_aton_caches_interface.h ****  * in the root directory of this software component.
  15:Lib/AI_Runtime/Npu/ll_aton/ll_aton_caches_interface.h ****  * If no LICENSE file comes with this software, it is provided AS-IS.
  16:Lib/AI_Runtime/Npu/ll_aton/ll_aton_caches_interface.h ****  *
  17:Lib/AI_Runtime/Npu/ll_aton/ll_aton_caches_interface.h ****  ******************************************************************************
  18:Lib/AI_Runtime/Npu/ll_aton/ll_aton_caches_interface.h ****  */
  19:Lib/AI_Runtime/Npu/ll_aton/ll_aton_caches_interface.h **** 
  20:Lib/AI_Runtime/Npu/ll_aton/ll_aton_caches_interface.h **** #ifndef __LL_ATON_CACHES_H
  21:Lib/AI_Runtime/Npu/ll_aton/ll_aton_caches_interface.h **** #define __LL_ATON_CACHES_H
  22:Lib/AI_Runtime/Npu/ll_aton/ll_aton_caches_interface.h **** 
  23:Lib/AI_Runtime/Npu/ll_aton/ll_aton_caches_interface.h **** #include <stdint.h>
  24:Lib/AI_Runtime/Npu/ll_aton/ll_aton_caches_interface.h **** 
  25:Lib/AI_Runtime/Npu/ll_aton/ll_aton_caches_interface.h **** #ifdef __cplusplus
  26:Lib/AI_Runtime/Npu/ll_aton/ll_aton_caches_interface.h **** extern "C"
  27:Lib/AI_Runtime/Npu/ll_aton/ll_aton_caches_interface.h **** {
  28:Lib/AI_Runtime/Npu/ll_aton/ll_aton_caches_interface.h **** #endif
  29:Lib/AI_Runtime/Npu/ll_aton/ll_aton_caches_interface.h **** 
  30:Lib/AI_Runtime/Npu/ll_aton/ll_aton_caches_interface.h **** #include "ll_aton_osal.h"
  31:Lib/AI_Runtime/Npu/ll_aton/ll_aton_caches_interface.h **** #include "ll_aton_platform.h"
  32:Lib/AI_Runtime/Npu/ll_aton/ll_aton_caches_interface.h **** 
  33:Lib/AI_Runtime/Npu/ll_aton/ll_aton_caches_interface.h **** #if !defined(BUILD_AI_NETWORK_RELOC)
  34:Lib/AI_Runtime/Npu/ll_aton/ll_aton_caches_interface.h **** 
  35:Lib/AI_Runtime/Npu/ll_aton/ll_aton_caches_interface.h **** #if (LL_ATON_PLATFORM == LL_ATON_PLAT_STM32N6)
  36:Lib/AI_Runtime/Npu/ll_aton/ll_aton_caches_interface.h **** 
  37:Lib/AI_Runtime/Npu/ll_aton/ll_aton_caches_interface.h ****   /*** MCU cache maintenance functions ***/
  38:Lib/AI_Runtime/Npu/ll_aton/ll_aton_caches_interface.h **** 
  39:Lib/AI_Runtime/Npu/ll_aton/ll_aton_caches_interface.h ****   /**
  40:Lib/AI_Runtime/Npu/ll_aton/ll_aton_caches_interface.h ****    * @brief perform MCU cache clean maintenance operation on an address range
ARM GAS  C:\Users\DJESSOU\AppData\Local\Temp\ccFxekaC.s 			page 272


  41:Lib/AI_Runtime/Npu/ll_aton/ll_aton_caches_interface.h ****    * @details whenever the content of a buffer is changed by the application (which is especially t
  42:Lib/AI_Runtime/Npu/ll_aton/ll_aton_caches_interface.h ****    *          buffers) cache maintenance MUST be taken into account before being able to run the ne
  43:Lib/AI_Runtime/Npu/ll_aton/ll_aton_caches_interface.h ****    * @param[in] virtual_addr start address (host-side/virtual) of address range
  44:Lib/AI_Runtime/Npu/ll_aton/ll_aton_caches_interface.h ****    * @param[in] size size of address range
  45:Lib/AI_Runtime/Npu/ll_aton/ll_aton_caches_interface.h ****    *
  46:Lib/AI_Runtime/Npu/ll_aton/ll_aton_caches_interface.h ****    * @note the address range should fulfill alignment constraints with respect to the MCU cache lin
  47:Lib/AI_Runtime/Npu/ll_aton/ll_aton_caches_interface.h ****    *       for both its `address` & `size` (to better correspond to what this operation will actual
  48:Lib/AI_Runtime/Npu/ll_aton/ll_aton_caches_interface.h ****    * @note this function is intended to handle the case where a buffer has been filled by the MCU/p
  49:Lib/AI_Runtime/Npu/ll_aton/ll_aton_caches_interface.h ****    *       passing thru the MCU cache) and should be called AFTER that the buffer has been filled
  50:Lib/AI_Runtime/Npu/ll_aton/ll_aton_caches_interface.h ****    */
  51:Lib/AI_Runtime/Npu/ll_aton/ll_aton_caches_interface.h ****   static inline void LL_ATON_Cache_MCU_Clean_Range(uintptr_t virtual_addr, uint32_t size)
  52:Lib/AI_Runtime/Npu/ll_aton/ll_aton_caches_interface.h ****   {
  53:Lib/AI_Runtime/Npu/ll_aton/ll_aton_caches_interface.h ****     LL_ATON_OSAL_LOCK_MCU_CACHE();
  54:Lib/AI_Runtime/Npu/ll_aton/ll_aton_caches_interface.h ****     mcu_cache_clean_range(virtual_addr, virtual_addr + size);
  55:Lib/AI_Runtime/Npu/ll_aton/ll_aton_caches_interface.h ****     LL_ATON_OSAL_UNLOCK_MCU_CACHE();
  56:Lib/AI_Runtime/Npu/ll_aton/ll_aton_caches_interface.h ****   }
  57:Lib/AI_Runtime/Npu/ll_aton/ll_aton_caches_interface.h **** 
  58:Lib/AI_Runtime/Npu/ll_aton/ll_aton_caches_interface.h ****   /**
  59:Lib/AI_Runtime/Npu/ll_aton/ll_aton_caches_interface.h ****    * @brief perform MCU cache invalidate maintenance operation on an address range
  60:Lib/AI_Runtime/Npu/ll_aton/ll_aton_caches_interface.h ****    * @details whenever the content of a buffer is changed by the application (which is especially t
  61:Lib/AI_Runtime/Npu/ll_aton/ll_aton_caches_interface.h ****    *          buffers) cache maintenance MUST be taken into account before being able to run the ne
  62:Lib/AI_Runtime/Npu/ll_aton/ll_aton_caches_interface.h ****    * @param[in] virtual_addr start address (host-side/virtual) of address range
  63:Lib/AI_Runtime/Npu/ll_aton/ll_aton_caches_interface.h ****    * @param[in] size size of address range
  64:Lib/AI_Runtime/Npu/ll_aton/ll_aton_caches_interface.h ****    *
  65:Lib/AI_Runtime/Npu/ll_aton/ll_aton_caches_interface.h ****    * @note the address range should fulfill alignment constraints with respect to the MCU cache lin
  66:Lib/AI_Runtime/Npu/ll_aton/ll_aton_caches_interface.h ****    *       for both its `address` & `size` (to better correspond to what this operation will actual
  67:Lib/AI_Runtime/Npu/ll_aton/ll_aton_caches_interface.h ****    * @note this function is intended to handle the case where a buffer has been filled by-passing t
  68:Lib/AI_Runtime/Npu/ll_aton/ll_aton_caches_interface.h ****    *       cache (e.g. using a DMA) and should be called BEFORE the buffer gets filled
  69:Lib/AI_Runtime/Npu/ll_aton/ll_aton_caches_interface.h ****    */
  70:Lib/AI_Runtime/Npu/ll_aton/ll_aton_caches_interface.h ****   static inline void LL_ATON_Cache_MCU_Invalidate_Range(uintptr_t virtual_addr, uint32_t size)
  71:Lib/AI_Runtime/Npu/ll_aton/ll_aton_caches_interface.h ****   {
  72:Lib/AI_Runtime/Npu/ll_aton/ll_aton_caches_interface.h ****     LL_ATON_OSAL_LOCK_MCU_CACHE();
  73:Lib/AI_Runtime/Npu/ll_aton/ll_aton_caches_interface.h ****     mcu_cache_invalidate_range(virtual_addr, virtual_addr + size);
  74:Lib/AI_Runtime/Npu/ll_aton/ll_aton_caches_interface.h ****     LL_ATON_OSAL_UNLOCK_MCU_CACHE();
  75:Lib/AI_Runtime/Npu/ll_aton/ll_aton_caches_interface.h ****   }
  76:Lib/AI_Runtime/Npu/ll_aton/ll_aton_caches_interface.h **** 
  77:Lib/AI_Runtime/Npu/ll_aton/ll_aton_caches_interface.h ****   /**
  78:Lib/AI_Runtime/Npu/ll_aton/ll_aton_caches_interface.h ****    * @brief perform MCU cache clean & invalidate maintenance operation on an address range
  79:Lib/AI_Runtime/Npu/ll_aton/ll_aton_caches_interface.h ****    * @details whenever the content of a buffer is changed by the application (which is especially t
  80:Lib/AI_Runtime/Npu/ll_aton/ll_aton_caches_interface.h ****    *          buffers) cache maintenance MUST be taken into account before being able to run the ne
  81:Lib/AI_Runtime/Npu/ll_aton/ll_aton_caches_interface.h ****    * @param[in] virtual_addr start address (host-side/virtual) of address range
  82:Lib/AI_Runtime/Npu/ll_aton/ll_aton_caches_interface.h ****    * @param[in] size size of address range
  83:Lib/AI_Runtime/Npu/ll_aton/ll_aton_caches_interface.h ****    *
  84:Lib/AI_Runtime/Npu/ll_aton/ll_aton_caches_interface.h ****    * @note the address range should fulfill alignment constraints with respect to the MCU cache lin
  85:Lib/AI_Runtime/Npu/ll_aton/ll_aton_caches_interface.h ****    *       for both its `address` & `size` (to better correspond to what this operation will actual
  86:Lib/AI_Runtime/Npu/ll_aton/ll_aton_caches_interface.h ****    * @note this function is intended to handle the case where a buffer has been filled by the MCU/p
  87:Lib/AI_Runtime/Npu/ll_aton/ll_aton_caches_interface.h ****    *       (such passing thru the MCU cache) and is gonna to be modified immediately afterwards by-
  88:Lib/AI_Runtime/Npu/ll_aton/ll_aton_caches_interface.h ****    *       the MCU/processor cache (e.g. using a DMA). It should be called AFTER that the buffer ha
  89:Lib/AI_Runtime/Npu/ll_aton/ll_aton_caches_interface.h ****    *       filled
  90:Lib/AI_Runtime/Npu/ll_aton/ll_aton_caches_interface.h ****    */
  91:Lib/AI_Runtime/Npu/ll_aton/ll_aton_caches_interface.h ****   static inline void LL_ATON_Cache_MCU_Clean_Invalidate_Range(uintptr_t virtual_addr, uint32_t size
 8832              		.loc 3 91 22 view .LVU3581
 8833              	.LBB192:
  92:Lib/AI_Runtime/Npu/ll_aton/ll_aton_caches_interface.h ****   {
  93:Lib/AI_Runtime/Npu/ll_aton/ll_aton_caches_interface.h ****     LL_ATON_OSAL_LOCK_MCU_CACHE();
 8834              		.loc 3 93 34 view .LVU3582
  94:Lib/AI_Runtime/Npu/ll_aton/ll_aton_caches_interface.h ****     mcu_cache_clean_invalidate_range(virtual_addr, virtual_addr + size);
ARM GAS  C:\Users\DJESSOU\AppData\Local\Temp\ccFxekaC.s 			page 273


 8835              		.loc 3 94 5 view .LVU3583
 8836 003c 4046     		mov	r0, r8
 8837              	.LVL955:
 8838              		.loc 3 94 5 is_stmt 0 view .LVU3584
 8839 003e 08EB0401 		add	r1, r8, r4
 8840 0042 FFF7FEFF 		bl	mcu_cache_clean_invalidate_range
 8841              	.LVL956:
  95:Lib/AI_Runtime/Npu/ll_aton/ll_aton_caches_interface.h ****     LL_ATON_OSAL_UNLOCK_MCU_CACHE();
 8842              		.loc 3 95 36 is_stmt 1 view .LVU3585
 8843              	.L569:
 8844              		.loc 3 95 36 is_stmt 0 view .LVU3586
 8845              	.LBE192:
 8846              	.LBE191:
2592:Lib/AI_Runtime/Npu/ll_aton/ll_aton.c ****   }
2593:Lib/AI_Runtime/Npu/ll_aton/ll_aton.c **** 
2594:Lib/AI_Runtime/Npu/ll_aton/ll_aton.c ****   if (n > 0)
 8847              		.loc 1 2594 3 is_stmt 1 view .LVU3587
 8848              		.loc 1 2594 6 is_stmt 0 view .LVU3588
 8849 0046 002D     		cmp	r5, #0
 8850 0048 66D0     		beq	.L570
 8851              	.LBB193:
2595:Lib/AI_Runtime/Npu/ll_aton/ll_aton.c ****   {
2596:Lib/AI_Runtime/Npu/ll_aton/ll_aton.c ****     LL_Streng_TensorInitTypeDef dma_in = {
 8852              		.loc 1 2596 5 is_stmt 1 view .LVU3589
 8853              		.loc 1 2596 33 is_stmt 0 view .LVU3590
 8854 004a 4822     		movs	r2, #72
 8855 004c 0021     		movs	r1, #0
 8856 004e 06A8     		add	r0, sp, #24
 8857 0050 FFF7FEFF 		bl	memset
 8858              	.LVL957:
 8859 0054 0223     		movs	r3, #2
 8860 0056 8DF81830 		strb	r3, [sp, #24]
 8861 005a 0AEB0403 		add	r3, r10, r4
 8862 005e 0126     		movs	r6, #1
 8863 0060 0793     		str	r3, [sp, #28]
2597:Lib/AI_Runtime/Npu/ll_aton/ll_aton.c ****         .dir = 0,
2598:Lib/AI_Runtime/Npu/ll_aton/ll_aton.c ****         .addr_base = {_src},
2599:Lib/AI_Runtime/Npu/ll_aton/ll_aton.c ****         .offset_start = 0,
2600:Lib/AI_Runtime/Npu/ll_aton/ll_aton.c ****         .offset_end = n,
2601:Lib/AI_Runtime/Npu/ll_aton/ll_aton.c ****         .offset_limit = ((uintptr_t)src_limit - (uintptr_t)src), // awful FIXME Francesco
 8864              		.loc 1 2601 47 view .LVU3591
 8865 0062 A9EB0A03 		sub	r3, r9, r10
2596:Lib/AI_Runtime/Npu/ll_aton/ll_aton.c ****         .dir = 0,
 8866              		.loc 1 2596 33 view .LVU3592
 8867 0066 41F61809 		movw	r9, #6168
 8868              	.LVL958:
2602:Lib/AI_Runtime/Npu/ll_aton/ll_aton.c ****         .raw = 1,
2603:Lib/AI_Runtime/Npu/ll_aton/ll_aton.c ****         .frame_count = 0,
2604:Lib/AI_Runtime/Npu/ll_aton/ll_aton.c ****         .fwidth = 0,
2605:Lib/AI_Runtime/Npu/ll_aton/ll_aton.c ****         .fheight = 0,
2606:Lib/AI_Runtime/Npu/ll_aton/ll_aton.c ****         .batch_depth = 0,
2607:Lib/AI_Runtime/Npu/ll_aton/ll_aton.c ****         .batch_offset = 0,
2608:Lib/AI_Runtime/Npu/ll_aton/ll_aton.c ****         .frame_offset = n,
2609:Lib/AI_Runtime/Npu/ll_aton/ll_aton.c ****         .line_offset = 0,
2610:Lib/AI_Runtime/Npu/ll_aton/ll_aton.c ****         .loop_offset = 0,
2611:Lib/AI_Runtime/Npu/ll_aton/ll_aton.c ****         .frame_loop_cnt = 0,
2612:Lib/AI_Runtime/Npu/ll_aton/ll_aton.c ****         .frame_tot_cnt = 1,
ARM GAS  C:\Users\DJESSOU\AppData\Local\Temp\ccFxekaC.s 			page 274


2613:Lib/AI_Runtime/Npu/ll_aton/ll_aton.c ****         .nbits_in = 24,
2614:Lib/AI_Runtime/Npu/ll_aton/ll_aton.c ****         .nbits_out = 24,
2615:Lib/AI_Runtime/Npu/ll_aton/ll_aton.c ****         .nbits_unsigned = 0,
2616:Lib/AI_Runtime/Npu/ll_aton/ll_aton.c ****         .align_right = 0,
2617:Lib/AI_Runtime/Npu/ll_aton/ll_aton.c ****         .noblk = 0,
2618:Lib/AI_Runtime/Npu/ll_aton/ll_aton.c ****     };
2619:Lib/AI_Runtime/Npu/ll_aton/ll_aton.c **** 
2620:Lib/AI_Runtime/Npu/ll_aton/ll_aton.c ****     LL_Streng_TensorInitTypeDef dma_out = {
 8869              		.loc 1 2620 33 view .LVU3593
 8870 006a 4822     		movs	r2, #72
 8871 006c 0021     		movs	r1, #0
 8872 006e 18A8     		add	r0, sp, #96
2596:Lib/AI_Runtime/Npu/ll_aton/ll_aton.c ****         .dir = 0,
 8873              		.loc 1 2596 33 view .LVU3594
 8874 0070 0A93     		str	r3, [sp, #40]
 8875 0072 0995     		str	r5, [sp, #36]
 8876 0074 1095     		str	r5, [sp, #64]
 8877 0076 1696     		str	r6, [sp, #88]
 8878 0078 ADF85C90 		strh	r9, [sp, #92]	@ movhi
 8879              		.loc 1 2620 5 is_stmt 1 view .LVU3595
 8880              		.loc 1 2620 33 is_stmt 0 view .LVU3596
 8881 007c FFF7FEFF 		bl	memset
 8882              	.LVL959:
 8883 0080 0323     		movs	r3, #3
 8884 0082 4444     		add	r4, r4, r8
 8885              	.LVL960:
 8886              		.loc 1 2620 33 view .LVU3597
 8887 0084 8DF86030 		strb	r3, [sp, #96]
 8888 0088 1994     		str	r4, [sp, #100]
 8889 008a 1B95     		str	r5, [sp, #108]
 8890 008c 2295     		str	r5, [sp, #136]
 8891 008e 2896     		str	r6, [sp, #160]
 8892 0090 ADF8A490 		strh	r9, [sp, #164]	@ movhi
2621:Lib/AI_Runtime/Npu/ll_aton/ll_aton.c ****         .dir = 1,
2622:Lib/AI_Runtime/Npu/ll_aton/ll_aton.c ****         .addr_base = {_dst},
2623:Lib/AI_Runtime/Npu/ll_aton/ll_aton.c ****         .offset_start = 0,
2624:Lib/AI_Runtime/Npu/ll_aton/ll_aton.c ****         .offset_end = n,
2625:Lib/AI_Runtime/Npu/ll_aton/ll_aton.c ****         .raw = 1,
2626:Lib/AI_Runtime/Npu/ll_aton/ll_aton.c ****         .frame_count = 0,
2627:Lib/AI_Runtime/Npu/ll_aton/ll_aton.c ****         .fwidth = 0,
2628:Lib/AI_Runtime/Npu/ll_aton/ll_aton.c ****         .fheight = 0,
2629:Lib/AI_Runtime/Npu/ll_aton/ll_aton.c ****         .batch_depth = 0,
2630:Lib/AI_Runtime/Npu/ll_aton/ll_aton.c ****         .batch_offset = 0,
2631:Lib/AI_Runtime/Npu/ll_aton/ll_aton.c ****         .frame_offset = n,
2632:Lib/AI_Runtime/Npu/ll_aton/ll_aton.c ****         .line_offset = 0,
2633:Lib/AI_Runtime/Npu/ll_aton/ll_aton.c ****         .loop_offset = 0,
2634:Lib/AI_Runtime/Npu/ll_aton/ll_aton.c ****         .frame_loop_cnt = 0,
2635:Lib/AI_Runtime/Npu/ll_aton/ll_aton.c ****         .frame_tot_cnt = 1,
2636:Lib/AI_Runtime/Npu/ll_aton/ll_aton.c ****         .nbits_in = 24,
2637:Lib/AI_Runtime/Npu/ll_aton/ll_aton.c ****         .nbits_out = 24,
2638:Lib/AI_Runtime/Npu/ll_aton/ll_aton.c ****         .nbits_unsigned = 0,
2639:Lib/AI_Runtime/Npu/ll_aton/ll_aton.c ****         .align_right = 0,
2640:Lib/AI_Runtime/Npu/ll_aton/ll_aton.c ****         .noblk = 0,
2641:Lib/AI_Runtime/Npu/ll_aton/ll_aton.c ****     };
2642:Lib/AI_Runtime/Npu/ll_aton/ll_aton.c **** 
2643:Lib/AI_Runtime/Npu/ll_aton/ll_aton.c ****     if (src_cached)
 8893              		.loc 1 2643 5 is_stmt 1 view .LVU3598
ARM GAS  C:\Users\DJESSOU\AppData\Local\Temp\ccFxekaC.s 			page 275


 8894              		.loc 1 2643 8 is_stmt 0 view .LVU3599
 8895 0094 3FB1     		cbz	r7, .L571
2644:Lib/AI_Runtime/Npu/ll_aton/ll_aton.c ****     {
2645:Lib/AI_Runtime/Npu/ll_aton/ll_aton.c ****       dma_in.cacheable = 1;
 8896              		.loc 1 2645 7 is_stmt 1 view .LVU3600
2646:Lib/AI_Runtime/Npu/ll_aton/ll_aton.c ****       dma_in.cache_allocate = 1;
 8897              		.loc 1 2646 7 view .LVU3601
2645:Lib/AI_Runtime/Npu/ll_aton/ll_aton.c ****       dma_in.cache_allocate = 1;
 8898              		.loc 1 2645 24 is_stmt 0 view .LVU3602
 8899 0096 9DF81930 		ldrb	r3, [sp, #25]	@ zero_extendqisi2
 8900 009a 23F06003 		bic	r3, r3, #96
 8901 009e 43F06003 		orr	r3, r3, #96
 8902 00a2 8DF81930 		strb	r3, [sp, #25]
 8903              	.L571:
2647:Lib/AI_Runtime/Npu/ll_aton/ll_aton.c ****     }
2648:Lib/AI_Runtime/Npu/ll_aton/ll_aton.c **** 
2649:Lib/AI_Runtime/Npu/ll_aton/ll_aton.c ****     if (dst_cached)
 8904              		.loc 1 2649 5 is_stmt 1 view .LVU3603
 8905              		.loc 1 2649 8 is_stmt 0 view .LVU3604
 8906 00a6 329B     		ldr	r3, [sp, #200]
 8907 00a8 3BB1     		cbz	r3, .L572
2650:Lib/AI_Runtime/Npu/ll_aton/ll_aton.c ****     {
2651:Lib/AI_Runtime/Npu/ll_aton/ll_aton.c ****       dma_out.cacheable = 1;
 8908              		.loc 1 2651 7 is_stmt 1 view .LVU3605
2652:Lib/AI_Runtime/Npu/ll_aton/ll_aton.c ****       dma_out.cache_allocate = 1;
 8909              		.loc 1 2652 7 view .LVU3606
2651:Lib/AI_Runtime/Npu/ll_aton/ll_aton.c ****       dma_out.cache_allocate = 1;
 8910              		.loc 1 2651 25 is_stmt 0 view .LVU3607
 8911 00aa 9DF86130 		ldrb	r3, [sp, #97]	@ zero_extendqisi2
 8912 00ae 23F06003 		bic	r3, r3, #96
 8913 00b2 43F06003 		orr	r3, r3, #96
 8914 00b6 8DF86130 		strb	r3, [sp, #97]
 8915              	.L572:
2653:Lib/AI_Runtime/Npu/ll_aton/ll_aton.c ****     }
2654:Lib/AI_Runtime/Npu/ll_aton/ll_aton.c **** 
2655:Lib/AI_Runtime/Npu/ll_aton/ll_aton.c ****     const LL_Switch_InitTypeDef switch_init = {LL_Switch_Init_Dest() = ATONN_DSTPORT(STRSWITCH, 0, 
 8916              		.loc 1 2655 5 is_stmt 1 view .LVU3608
 8917              		.loc 1 2655 33 is_stmt 0 view .LVU3609
 8918 00ba 1022     		movs	r2, #16
 8919 00bc 0021     		movs	r1, #0
 8920 00be 02A8     		add	r0, sp, #8
 8921 00c0 FFF7FEFF 		bl	memset
 8922              	.LVL961:
 8923 00c4 0C23     		movs	r3, #12
 8924 00c6 0493     		str	r3, [sp, #16]
 8925 00c8 0123     		movs	r3, #1
2656:Lib/AI_Runtime/Npu/ll_aton/ll_aton.c ****                                                LL_Switch_Init_Source(0) = ATONN_SRCPORT(STRSWITCH, 
2657:Lib/AI_Runtime/Npu/ll_aton/ll_aton.c ****                                                LL_Switch_Init_Context(0) = 1, LL_Switch_Init_Frames
2658:Lib/AI_Runtime/Npu/ll_aton/ll_aton.c ****     const LL_ATON_EnableUnits_InitTypeDef dma_units[] = {{{STRENG, 1}}, {{STRENG, 0}}};
 8926              		.loc 1 2658 43 view .LVU3610
 8927 00ca 0020     		movs	r0, #0
 8928 00cc 1C46     		mov	r4, r3
2659:Lib/AI_Runtime/Npu/ll_aton/ll_aton.c ****     const uint32_t dma_wait_mask = 0x2;
2660:Lib/AI_Runtime/Npu/ll_aton/ll_aton.c **** 
2661:Lib/AI_Runtime/Npu/ll_aton/ll_aton.c ****     LL_Streng_TensorInit(0, &dma_in, 1);
 8929              		.loc 1 2661 5 view .LVU3611
 8930 00ce 1A46     		mov	r2, r3
ARM GAS  C:\Users\DJESSOU\AppData\Local\Temp\ccFxekaC.s 			page 276


 8931 00d0 06A9     		add	r1, sp, #24
2655:Lib/AI_Runtime/Npu/ll_aton/ll_aton.c ****                                                LL_Switch_Init_Source(0) = ATONN_SRCPORT(STRSWITCH, 
 8932              		.loc 1 2655 33 view .LVU3612
 8933 00d2 8DF81630 		strb	r3, [sp, #22]
2658:Lib/AI_Runtime/Npu/ll_aton/ll_aton.c ****     const uint32_t dma_wait_mask = 0x2;
 8934              		.loc 1 2658 5 is_stmt 1 view .LVU3613
2658:Lib/AI_Runtime/Npu/ll_aton/ll_aton.c ****     const uint32_t dma_wait_mask = 0x2;
 8935              		.loc 1 2658 43 is_stmt 0 view .LVU3614
 8936 00d6 ADF80230 		strh	r3, [sp, #2]	@ movhi
 8937 00da 8DF80000 		strb	r0, [sp]
 8938 00de 8DF80400 		strb	r0, [sp, #4]
 8939 00e2 ADF80600 		strh	r0, [sp, #6]	@ movhi
2659:Lib/AI_Runtime/Npu/ll_aton/ll_aton.c ****     const uint32_t dma_wait_mask = 0x2;
 8940              		.loc 1 2659 5 is_stmt 1 view .LVU3615
 8941              	.LVL962:
 8942              		.loc 1 2661 5 view .LVU3616
 8943 00e6 FFF7FEFF 		bl	LL_Streng_TensorInit
 8944              	.LVL963:
2662:Lib/AI_Runtime/Npu/ll_aton/ll_aton.c ****     LL_Streng_TensorInit(1, &dma_out, 1);
 8945              		.loc 1 2662 5 view .LVU3617
 8946 00ea 2246     		mov	r2, r4
 8947 00ec 18A9     		add	r1, sp, #96
 8948 00ee 2046     		mov	r0, r4
 8949 00f0 FFF7FEFF 		bl	LL_Streng_TensorInit
 8950              	.LVL964:
2663:Lib/AI_Runtime/Npu/ll_aton/ll_aton.c ****     LL_Switch_Init(&switch_init, 1);
 8951              		.loc 1 2663 5 view .LVU3618
 8952 00f4 2146     		mov	r1, r4
 8953 00f6 02A8     		add	r0, sp, #8
 8954 00f8 FFF7FEFF 		bl	LL_Switch_Init
 8955              	.LVL965:
2664:Lib/AI_Runtime/Npu/ll_aton/ll_aton.c ****     LL_ATON_EnableUnits_Init(dma_units, 2);
 8956              		.loc 1 2664 5 view .LVU3619
 8957 00fc 0221     		movs	r1, #2
 8958 00fe 6846     		mov	r0, sp
 8959 0100 FFF7FEFF 		bl	LL_ATON_EnableUnits_Init
 8960              	.LVL966:
2665:Lib/AI_Runtime/Npu/ll_aton/ll_aton.c ****     LL_Streng_Wait(dma_wait_mask);
 8961              		.loc 1 2665 5 view .LVU3620
 8962 0104 0220     		movs	r0, #2
 8963 0106 FFF7FEFF 		bl	LL_Streng_Wait
 8964              	.LVL967:
2666:Lib/AI_Runtime/Npu/ll_aton/ll_aton.c ****     LL_ATON_DisableUnits_Init(dma_units, 1);
 8965              		.loc 1 2666 5 view .LVU3621
 8966 010a 2146     		mov	r1, r4
 8967 010c 6846     		mov	r0, sp
 8968 010e FFF7FEFF 		bl	LL_ATON_DisableUnits_Init
 8969              	.LVL968:
2667:Lib/AI_Runtime/Npu/ll_aton/ll_aton.c ****     LL_Switch_Deinit(&switch_init, 1);
 8970              		.loc 1 2667 5 view .LVU3622
 8971 0112 02A8     		add	r0, sp, #8
 8972 0114 FFF7FEFF 		bl	LL_Switch_Deinit
 8973              	.LVL969:
 8974              	.L570:
 8975              		.loc 1 2667 5 is_stmt 0 view .LVU3623
 8976              	.LBE193:
2668:Lib/AI_Runtime/Npu/ll_aton/ll_aton.c ****   }
ARM GAS  C:\Users\DJESSOU\AppData\Local\Temp\ccFxekaC.s 			page 277


2669:Lib/AI_Runtime/Npu/ll_aton/ll_aton.c **** 
2670:Lib/AI_Runtime/Npu/ll_aton/ll_aton.c ****   return dst;
 8977              		.loc 1 2670 3 is_stmt 1 view .LVU3624
2671:Lib/AI_Runtime/Npu/ll_aton/ll_aton.c **** }
 8978              		.loc 1 2671 1 is_stmt 0 view .LVU3625
 8979 0118 4046     		mov	r0, r8
 8980 011a 2AB0     		add	sp, sp, #168
 8981              		.cfi_remember_state
 8982              		.cfi_def_cfa_offset 32
 8983              		@ sp needed
 8984 011c BDE8F087 		pop	{r4, r5, r6, r7, r8, r9, r10, pc}
 8985              	.LVL970:
 8986              	.L568:
 8987              		.cfi_restore_state
2585:Lib/AI_Runtime/Npu/ll_aton/ll_aton.c ****   n -= prolog_len;
 8988              		.loc 1 2585 5 is_stmt 1 view .LVU3626
2585:Lib/AI_Runtime/Npu/ll_aton/ll_aton.c ****   n -= prolog_len;
 8989              		.loc 1 2585 15 is_stmt 0 view .LVU3627
 8990 0120 1AF80210 		ldrb	r1, [r10, r2]	@ zero_extendqisi2
2585:Lib/AI_Runtime/Npu/ll_aton/ll_aton.c ****   n -= prolog_len;
 8991              		.loc 1 2585 13 view .LVU3628
 8992 0124 08F80210 		strb	r1, [r8, r2]
2584:Lib/AI_Runtime/Npu/ll_aton/ll_aton.c ****     *_dst++ = *_src++;
 8993              		.loc 1 2584 32 is_stmt 1 discriminator 3 view .LVU3629
 8994 0128 0132     		adds	r2, r2, #1
 8995              	.LVL971:
2584:Lib/AI_Runtime/Npu/ll_aton/ll_aton.c ****     *_dst++ = *_src++;
 8996              		.loc 1 2584 32 is_stmt 0 discriminator 3 view .LVU3630
 8997 012a 82E7     		b	.L567
 8998              		.cfi_endproc
 8999              	.LFE319:
 9001              		.section	.rodata.CSWTCH.281,"a"
 9004              	CSWTCH.281:
 9005 0000 00       		.byte	0
 9006 0001 01       		.byte	1
 9007 0002 02       		.byte	2
 9008 0003 08       		.byte	8
 9009 0004 09       		.byte	9
 9010 0005 0A       		.byte	10
 9011              		.section	.rodata.CSWTCH.279,"a"
 9014              	CSWTCH.279:
 9015 0000 00       		.byte	0
 9016 0001 01       		.byte	1
 9017 0002 02       		.byte	2
 9018 0003 07       		.byte	7
 9019 0004 0B       		.byte	11
 9020 0005 0F       		.byte	15
 9021 0006 13       		.byte	19
 9022 0007 17       		.byte	23
 9023 0008 1B       		.byte	27
 9024 0009 1F       		.byte	31
 9025 000a 23       		.byte	35
 9026 000b 27       		.byte	39
 9027 000c 2B       		.byte	43
 9028 000d 2F       		.byte	47
 9029 000e 33       		.byte	51
 9030 000f 37       		.byte	55
ARM GAS  C:\Users\DJESSOU\AppData\Local\Temp\ccFxekaC.s 			page 278


 9031              		.section	.rodata.__func__.0,"a"
 9034              	__func__.0:
 9035 0000 4C4C5F45 		.ascii	"LL_EpochCtrl_Wait\000"
 9035      706F6368 
 9035      4374726C 
 9035      5F576169 
 9035      7400
 9036              		.section	.rodata.__func__.1,"a"
 9039              	__func__.1:
 9040 0000 6765745F 		.ascii	"get_Poolacc_type\000"
 9040      506F6F6C 
 9040      6163635F 
 9040      74797065 
 9040      00
 9041              		.section	.rodata.__func__.2,"a"
 9044              	__func__.2:
 9045 0000 6765745F 		.ascii	"get_Arithacc_type\000"
 9045      41726974 
 9045      68616363 
 9045      5F747970 
 9045      6500
 9046              		.section	.rodata.__func__.3,"a"
 9049              	__func__.3:
 9050 0000 4C4C5F41 		.ascii	"LL_Arithacc_Init\000"
 9050      72697468 
 9050      6163635F 
 9050      496E6974 
 9050      00
 9051              		.section	.rodata.__func__.4,"a"
 9054              	__func__.4:
 9055 0000 6765745F 		.ascii	"get_Activacc_type\000"
 9055      41637469 
 9055      76616363 
 9055      5F747970 
 9055      6500
 9056              		.section	.rodata.__func__.5,"a"
 9059              	__func__.5:
 9060 0000 4C4C5F44 		.ascii	"LL_Decun_Init\000"
 9060      6563756E 
 9060      5F496E69 
 9060      7400
 9061              		.section	.rodata.__func__.6,"a"
 9064              	__func__.6:
 9065 0000 5F5F6174 		.ascii	"__atonn_getDstPortID\000"
 9065      6F6E6E5F 
 9065      67657444 
 9065      7374506F 
 9065      72744944 
 9066              		.section	.rodata.__func__.7,"a"
 9069              	__func__.7:
 9070 0000 5F5F6174 		.ascii	"__atonn_getSrcPortID\000"
 9070      6F6E6E5F 
 9070      67657453 
 9070      7263506F 
 9070      72744944 
 9071              		.section	.rodata.__func__.8,"a"
 9074              	__func__.8:
ARM GAS  C:\Users\DJESSOU\AppData\Local\Temp\ccFxekaC.s 			page 279


 9075 0000 4C4C5F53 		.ascii	"LL_Streng_Wait\000"
 9075      7472656E 
 9075      675F5761 
 9075      697400
 9076              		.section	.bss.done.10,"aw",%nobits
 9079              	done.10:
 9080 0000 00       		.space	1
 9081              		.section	.rodata.__func__.11,"a"
 9084              	__func__.11:
 9085 0000 4C4C5F41 		.ascii	"LL_ATON_Init\000"
 9085      544F4E5F 
 9085      496E6974 
 9085      00
 9086              		.section	.bss.Conv_ctrl_bits,"aw",%nobits
 9087              		.align	2
 9090              	Conv_ctrl_bits:
 9091 0000 00000000 		.space	16
 9091      00000000 
 9091      00000000 
 9091      00000000 
 9092              		.text
 9093              	.Letext0:
 9094              		.file 4 "C:\\ST\\STM32CubeIDE_1.18.1\\STM32CubeIDE\\plugins\\com.st.stm32cube.ide.mcu.externaltool
 9095              		.file 5 "C:\\ST\\STM32CubeIDE_1.18.1\\STM32CubeIDE\\plugins\\com.st.stm32cube.ide.mcu.externaltool
 9096              		.file 6 "C:\\ST\\STM32CubeIDE_1.18.1\\STM32CubeIDE\\plugins\\com.st.stm32cube.ide.mcu.externaltool
 9097              		.file 7 "Lib/AI_Runtime/Npu/ll_aton/ll_aton_util.h"
 9098              		.file 8 "C:\\ST\\STM32CubeIDE_1.18.1\\STM32CubeIDE\\plugins\\com.st.stm32cube.ide.mcu.externaltool
 9099              		.file 9 "C:\\ST\\STM32CubeIDE_1.18.1\\STM32CubeIDE\\plugins\\com.st.stm32cube.ide.mcu.externaltool
 9100              		.file 10 "C:\\ST\\STM32CubeIDE_1.18.1\\STM32CubeIDE\\plugins\\com.st.stm32cube.ide.mcu.externaltoo
 9101              		.file 11 "Lib/AI_Runtime/Npu/Devices/STM32N6xx/mcu_cache.h"
 9102              		.file 12 "C:\\ST\\STM32CubeIDE_1.18.1\\STM32CubeIDE\\plugins\\com.st.stm32cube.ide.mcu.externaltoo
 9103              		.file 13 "<built-in>"
ARM GAS  C:\Users\DJESSOU\AppData\Local\Temp\ccFxekaC.s 			page 280


DEFINED SYMBOLS
                            *ABS*:00000000 ll_aton.c
C:\Users\DJESSOU\AppData\Local\Temp\ccFxekaC.s:26     .text.decun_inc_page_addr:00000000 $t
C:\Users\DJESSOU\AppData\Local\Temp\ccFxekaC.s:31     .text.decun_inc_page_addr:00000000 decun_inc_page_addr
C:\Users\DJESSOU\AppData\Local\Temp\ccFxekaC.s:84     .text.LL_Address_Physical2Virtual:00000000 $t
C:\Users\DJESSOU\AppData\Local\Temp\ccFxekaC.s:90     .text.LL_Address_Physical2Virtual:00000000 LL_Address_Physical2Virtual
C:\Users\DJESSOU\AppData\Local\Temp\ccFxekaC.s:105    .text.LL_Address_Virtual2Physical:00000000 $t
C:\Users\DJESSOU\AppData\Local\Temp\ccFxekaC.s:111    .text.LL_Address_Virtual2Physical:00000000 LL_Address_Virtual2Physical
C:\Users\DJESSOU\AppData\Local\Temp\ccFxekaC.s:123    .text.startWatchdog:00000000 $t
C:\Users\DJESSOU\AppData\Local\Temp\ccFxekaC.s:129    .text.startWatchdog:00000000 startWatchdog
C:\Users\DJESSOU\AppData\Local\Temp\ccFxekaC.s:148    .text.checkWatchdog:00000000 $t
C:\Users\DJESSOU\AppData\Local\Temp\ccFxekaC.s:154    .text.checkWatchdog:00000000 checkWatchdog
C:\Users\DJESSOU\AppData\Local\Temp\ccFxekaC.s:204    .text.LL_ATON_Init:00000000 $t
C:\Users\DJESSOU\AppData\Local\Temp\ccFxekaC.s:210    .text.LL_ATON_Init:00000000 LL_ATON_Init
C:\Users\DJESSOU\AppData\Local\Temp\ccFxekaC.s:735    .text.LL_ATON_Init:00000290 $d
C:\Users\DJESSOU\AppData\Local\Temp\ccFxekaC.s:9079   .bss.done.10:00000000 done.10
C:\Users\DJESSOU\AppData\Local\Temp\ccFxekaC.s:9084   .rodata.__func__.11:00000000 __func__.11
C:\Users\DJESSOU\AppData\Local\Temp\ccFxekaC.s:759    .text.LL_ATON_Init:000002e8 $t
C:\Users\DJESSOU\AppData\Local\Temp\ccFxekaC.s:1140   .text.LL_ATON_Init:00000504 $d
C:\Users\DJESSOU\AppData\Local\Temp\ccFxekaC.s:1157   .text.LL_ATON_DeInit:00000000 $t
C:\Users\DJESSOU\AppData\Local\Temp\ccFxekaC.s:1163   .text.LL_ATON_DeInit:00000000 LL_ATON_DeInit
C:\Users\DJESSOU\AppData\Local\Temp\ccFxekaC.s:1235   .text.LL_ATON_DeInit:00000020 $d
C:\Users\DJESSOU\AppData\Local\Temp\ccFxekaC.s:1240   .text.LL_ATON_EnableUnits_Init:00000000 $t
C:\Users\DJESSOU\AppData\Local\Temp\ccFxekaC.s:1246   .text.LL_ATON_EnableUnits_Init:00000000 LL_ATON_EnableUnits_Init
C:\Users\DJESSOU\AppData\Local\Temp\ccFxekaC.s:1299   .text.LL_ATON_EnableUnits_Init:0000002a $d
C:\Users\DJESSOU\AppData\Local\Temp\ccFxekaC.s:1485   .text.LL_ATON_EnableUnits_Init:000000a8 $d
C:\Users\DJESSOU\AppData\Local\Temp\ccFxekaC.s:9090   .bss.Conv_ctrl_bits:00000000 Conv_ctrl_bits
C:\Users\DJESSOU\AppData\Local\Temp\ccFxekaC.s:1494   .text.LL_Streng_Wait:00000000 $t
C:\Users\DJESSOU\AppData\Local\Temp\ccFxekaC.s:1500   .text.LL_Streng_Wait:00000000 LL_Streng_Wait
C:\Users\DJESSOU\AppData\Local\Temp\ccFxekaC.s:1599   .text.LL_Streng_Wait:00000050 $d
C:\Users\DJESSOU\AppData\Local\Temp\ccFxekaC.s:9074   .rodata.__func__.8:00000000 __func__.8
C:\Users\DJESSOU\AppData\Local\Temp\ccFxekaC.s:1607   .text.LL_TriggerHigh:00000000 $t
C:\Users\DJESSOU\AppData\Local\Temp\ccFxekaC.s:1613   .text.LL_TriggerHigh:00000000 LL_TriggerHigh
C:\Users\DJESSOU\AppData\Local\Temp\ccFxekaC.s:1666   .text.LL_TriggerHigh:00000028 $d
C:\Users\DJESSOU\AppData\Local\Temp\ccFxekaC.s:1672   .text.LL_TriggerLow:00000000 $t
C:\Users\DJESSOU\AppData\Local\Temp\ccFxekaC.s:1678   .text.LL_TriggerLow:00000000 LL_TriggerLow
C:\Users\DJESSOU\AppData\Local\Temp\ccFxekaC.s:1711   .text.LL_TriggerLow:00000018 $d
C:\Users\DJESSOU\AppData\Local\Temp\ccFxekaC.s:1727   .text.__atonn_getSrcPortID:00000000 $t
C:\Users\DJESSOU\AppData\Local\Temp\ccFxekaC.s:1733   .text.__atonn_getSrcPortID:00000000 __atonn_getSrcPortID
C:\Users\DJESSOU\AppData\Local\Temp\ccFxekaC.s:1789   .text.__atonn_getSrcPortID:0000002e $d
C:\Users\DJESSOU\AppData\Local\Temp\ccFxekaC.s:2024   .text.__atonn_getSrcPortID:00000108 $d
C:\Users\DJESSOU\AppData\Local\Temp\ccFxekaC.s:9069   .rodata.__func__.7:00000000 __func__.7
C:\Users\DJESSOU\AppData\Local\Temp\ccFxekaC.s:2041   .text.__atonn_getDstPortID:00000000 $t
C:\Users\DJESSOU\AppData\Local\Temp\ccFxekaC.s:2047   .text.__atonn_getDstPortID:00000000 __atonn_getDstPortID
C:\Users\DJESSOU\AppData\Local\Temp\ccFxekaC.s:2105   .text.__atonn_getDstPortID:0000002e $d
C:\Users\DJESSOU\AppData\Local\Temp\ccFxekaC.s:2371   .text.__atonn_getDstPortID:0000012c $d
C:\Users\DJESSOU\AppData\Local\Temp\ccFxekaC.s:9064   .rodata.__func__.6:00000000 __func__.6
C:\Users\DJESSOU\AppData\Local\Temp\ccFxekaC.s:2385   .text.LL_Switch_Init_NoReset:00000000 $t
C:\Users\DJESSOU\AppData\Local\Temp\ccFxekaC.s:2391   .text.LL_Switch_Init_NoReset:00000000 LL_Switch_Init_NoReset
C:\Users\DJESSOU\AppData\Local\Temp\ccFxekaC.s:2490   .text.LL_Switch_Init_NoReset:00000050 $d
C:\Users\DJESSOU\AppData\Local\Temp\ccFxekaC.s:2495   .text.LL_Switch_Init:00000000 $t
C:\Users\DJESSOU\AppData\Local\Temp\ccFxekaC.s:2501   .text.LL_Switch_Init:00000000 LL_Switch_Init
C:\Users\DJESSOU\AppData\Local\Temp\ccFxekaC.s:2559   .text.LL_Switch_Init:0000001c $d
C:\Users\DJESSOU\AppData\Local\Temp\ccFxekaC.s:2564   .text.LL_Switch_Deinit:00000000 $t
C:\Users\DJESSOU\AppData\Local\Temp\ccFxekaC.s:2570   .text.LL_Switch_Deinit:00000000 LL_Switch_Deinit
C:\Users\DJESSOU\AppData\Local\Temp\ccFxekaC.s:2633   .text.LL_Switch_Deinit_Fine_Grained:00000000 $t
C:\Users\DJESSOU\AppData\Local\Temp\ccFxekaC.s:2639   .text.LL_Switch_Deinit_Fine_Grained:00000000 LL_Switch_Deinit_Fine_Grained
ARM GAS  C:\Users\DJESSOU\AppData\Local\Temp\ccFxekaC.s 			page 281


C:\Users\DJESSOU\AppData\Local\Temp\ccFxekaC.s:2709   .text.LL_EpochCtrl_Init:00000000 $t
C:\Users\DJESSOU\AppData\Local\Temp\ccFxekaC.s:2715   .text.LL_EpochCtrl_Init:00000000 LL_EpochCtrl_Init
C:\Users\DJESSOU\AppData\Local\Temp\ccFxekaC.s:2813   .text.LL_EpochCtrl_Init:00000034 $d
C:\Users\DJESSOU\AppData\Local\Temp\ccFxekaC.s:2818   .text.LL_EpochCtrl_Step:00000000 $t
C:\Users\DJESSOU\AppData\Local\Temp\ccFxekaC.s:2824   .text.LL_EpochCtrl_Step:00000000 LL_EpochCtrl_Step
C:\Users\DJESSOU\AppData\Local\Temp\ccFxekaC.s:2862   .text.LL_EpochCtrl_Step:00000014 $d
C:\Users\DJESSOU\AppData\Local\Temp\ccFxekaC.s:2867   .text.LL_EpochCtrl_Wait:00000000 $t
C:\Users\DJESSOU\AppData\Local\Temp\ccFxekaC.s:2873   .text.LL_EpochCtrl_Wait:00000000 LL_EpochCtrl_Wait
C:\Users\DJESSOU\AppData\Local\Temp\ccFxekaC.s:2942   .text.LL_EpochCtrl_Wait:00000034 $d
C:\Users\DJESSOU\AppData\Local\Temp\ccFxekaC.s:9034   .rodata.__func__.0:00000000 __func__.0
C:\Users\DJESSOU\AppData\Local\Temp\ccFxekaC.s:2951   .text.LL_EpochCtrl_GetBlobSize:00000000 $t
C:\Users\DJESSOU\AppData\Local\Temp\ccFxekaC.s:2957   .text.LL_EpochCtrl_GetBlobSize:00000000 LL_EpochCtrl_GetBlobSize
C:\Users\DJESSOU\AppData\Local\Temp\ccFxekaC.s:2982   .text.LL_ATON_EnableClock:00000000 $t
C:\Users\DJESSOU\AppData\Local\Temp\ccFxekaC.s:2988   .text.LL_ATON_EnableClock:00000000 LL_ATON_EnableClock
C:\Users\DJESSOU\AppData\Local\Temp\ccFxekaC.s:3048   .text.LL_ATON_EnableClock:00000020 $d
C:\Users\DJESSOU\AppData\Local\Temp\ccFxekaC.s:3053   .text.LL_Streng_TensorInit:00000000 $t
C:\Users\DJESSOU\AppData\Local\Temp\ccFxekaC.s:3059   .text.LL_Streng_TensorInit:00000000 LL_Streng_TensorInit
C:\Users\DJESSOU\AppData\Local\Temp\ccFxekaC.s:3827   .text.LL_Streng_TensorInit:000002b8 $d
C:\Users\DJESSOU\AppData\Local\Temp\ccFxekaC.s:3842   .text.LL_Streng_ExtSyncInit:00000000 $t
C:\Users\DJESSOU\AppData\Local\Temp\ccFxekaC.s:3848   .text.LL_Streng_ExtSyncInit:00000000 LL_Streng_ExtSyncInit
C:\Users\DJESSOU\AppData\Local\Temp\ccFxekaC.s:3940   .text.LL_Streng_ExtSyncInit:0000003c $d
C:\Users\DJESSOU\AppData\Local\Temp\ccFxekaC.s:3950   .text.LL_Decun_Init:00000000 $t
C:\Users\DJESSOU\AppData\Local\Temp\ccFxekaC.s:3956   .text.LL_Decun_Init:00000000 LL_Decun_Init
C:\Users\DJESSOU\AppData\Local\Temp\ccFxekaC.s:4892   .text.LL_Decun_Init:00000344 $d
C:\Users\DJESSOU\AppData\Local\Temp\ccFxekaC.s:9059   .rodata.__func__.5:00000000 __func__.5
C:\Users\DJESSOU\AppData\Local\Temp\ccFxekaC.s:4903   .text.LL_Decun_Init:00000358 $t
C:\Users\DJESSOU\AppData\Local\Temp\ccFxekaC.s:5445   .text.LL_Decun_Init:00000528 $d
C:\Users\DJESSOU\AppData\Local\Temp\ccFxekaC.s:5451   .text.LL_Convacc_Init:00000000 $t
C:\Users\DJESSOU\AppData\Local\Temp\ccFxekaC.s:5457   .text.LL_Convacc_Init:00000000 LL_Convacc_Init
C:\Users\DJESSOU\AppData\Local\Temp\ccFxekaC.s:6186   .text.LL_Convacc_Init:000002dc $d
C:\Users\DJESSOU\AppData\Local\Temp\ccFxekaC.s:6202   .text.LL_Activacc_Init:00000000 $t
C:\Users\DJESSOU\AppData\Local\Temp\ccFxekaC.s:6208   .text.LL_Activacc_Init:00000000 LL_Activacc_Init
C:\Users\DJESSOU\AppData\Local\Temp\ccFxekaC.s:6663   .text.LL_Activacc_Init:00000170 $d
C:\Users\DJESSOU\AppData\Local\Temp\ccFxekaC.s:9054   .rodata.__func__.4:00000000 __func__.4
C:\Users\DJESSOU\AppData\Local\Temp\ccFxekaC.s:6679   .text.LL_Arithacc_Init:00000000 $t
C:\Users\DJESSOU\AppData\Local\Temp\ccFxekaC.s:6685   .text.LL_Arithacc_Init:00000000 LL_Arithacc_Init
C:\Users\DJESSOU\AppData\Local\Temp\ccFxekaC.s:7131   .text.LL_Arithacc_Init:000001a6 $d
C:\Users\DJESSOU\AppData\Local\Temp\ccFxekaC.s:7709   .text.LL_Arithacc_Init:00000390 $d
C:\Users\DJESSOU\AppData\Local\Temp\ccFxekaC.s:9044   .rodata.__func__.2:00000000 __func__.2
C:\Users\DJESSOU\AppData\Local\Temp\ccFxekaC.s:9049   .rodata.__func__.3:00000000 __func__.3
C:\Users\DJESSOU\AppData\Local\Temp\ccFxekaC.s:9014   .rodata.CSWTCH.279:00000000 CSWTCH.279
C:\Users\DJESSOU\AppData\Local\Temp\ccFxekaC.s:7733   .text.LL_Poolacc_Init:00000000 $t
C:\Users\DJESSOU\AppData\Local\Temp\ccFxekaC.s:7739   .text.LL_Poolacc_Init:00000000 LL_Poolacc_Init
C:\Users\DJESSOU\AppData\Local\Temp\ccFxekaC.s:8157   .text.LL_Poolacc_Init:0000018c $d
C:\Users\DJESSOU\AppData\Local\Temp\ccFxekaC.s:9004   .rodata.CSWTCH.281:00000000 CSWTCH.281
C:\Users\DJESSOU\AppData\Local\Temp\ccFxekaC.s:9039   .rodata.__func__.1:00000000 __func__.1
C:\Users\DJESSOU\AppData\Local\Temp\ccFxekaC.s:8173   .text.LL_ATON_DisableClock:00000000 $t
C:\Users\DJESSOU\AppData\Local\Temp\ccFxekaC.s:8179   .text.LL_ATON_DisableClock:00000000 LL_ATON_DisableClock
C:\Users\DJESSOU\AppData\Local\Temp\ccFxekaC.s:8235   .text.LL_ATON_DisableClock:0000001c $d
C:\Users\DJESSOU\AppData\Local\Temp\ccFxekaC.s:8240   .text.LL_ATON_DisableUnits_Init:00000000 $t
C:\Users\DJESSOU\AppData\Local\Temp\ccFxekaC.s:8246   .text.LL_ATON_DisableUnits_Init:00000000 LL_ATON_DisableUnits_Init
C:\Users\DJESSOU\AppData\Local\Temp\ccFxekaC.s:8295   .text.LL_ATON_DisableUnits_Init:00000022 $d
C:\Users\DJESSOU\AppData\Local\Temp\ccFxekaC.s:8742   .text.LL_ATON_DisableUnits_Init:0000013c $d
C:\Users\DJESSOU\AppData\Local\Temp\ccFxekaC.s:8752   .text.LL_ATON_Dma_memcpy:00000000 $t
C:\Users\DJESSOU\AppData\Local\Temp\ccFxekaC.s:8758   .text.LL_ATON_Dma_memcpy:00000000 LL_ATON_Dma_memcpy
C:\Users\DJESSOU\AppData\Local\Temp\ccFxekaC.s:9080   .bss.done.10:00000000 $d
C:\Users\DJESSOU\AppData\Local\Temp\ccFxekaC.s:9087   .bss.Conv_ctrl_bits:00000000 $d
ARM GAS  C:\Users\DJESSOU\AppData\Local\Temp\ccFxekaC.s 			page 282


C:\Users\DJESSOU\AppData\Local\Temp\ccFxekaC.s:1308   .text.LL_ATON_EnableUnits_Init:00000033 $d
C:\Users\DJESSOU\AppData\Local\Temp\ccFxekaC.s:1308   .text.LL_ATON_EnableUnits_Init:00000034 $t
C:\Users\DJESSOU\AppData\Local\Temp\ccFxekaC.s:1796   .text.__atonn_getSrcPortID:00000035 $d
C:\Users\DJESSOU\AppData\Local\Temp\ccFxekaC.s:1796   .text.__atonn_getSrcPortID:00000036 $t
C:\Users\DJESSOU\AppData\Local\Temp\ccFxekaC.s:2112   .text.__atonn_getDstPortID:00000035 $d
C:\Users\DJESSOU\AppData\Local\Temp\ccFxekaC.s:2112   .text.__atonn_getDstPortID:00000036 $t
C:\Users\DJESSOU\AppData\Local\Temp\ccFxekaC.s:7136   .text.LL_Arithacc_Init:000001ab $d
C:\Users\DJESSOU\AppData\Local\Temp\ccFxekaC.s:7136   .text.LL_Arithacc_Init:000001ac $t
C:\Users\DJESSOU\AppData\Local\Temp\ccFxekaC.s:8304   .text.LL_ATON_DisableUnits_Init:0000002b $d
C:\Users\DJESSOU\AppData\Local\Temp\ccFxekaC.s:8304   .text.LL_ATON_DisableUnits_Init:0000002c $t
                           .group:00000000 wm4.0.c530a555507323ed657a04d5a22acbf4
                           .group:00000000 wm4._newlib_version.h.4.411db44ea2338a62eca2f0777f81481b
                           .group:00000000 wm4.newlib.h.27.a82728f74da661df333d09507bfef510
                           .group:00000000 wm4.ieeefp.h.77.bd5feb87d9990dd328793ced294f6a87
                           .group:00000000 wm4.features.h.22.9dfb1293666eb4caf24cccb81c86a551
                           .group:00000000 wm4.config.h.224.10ee1ad185d877c6e334e6581faab44d
                           .group:00000000 wm4._intsup.h.10.48bafbb683905c4daa4565a85aeeb264
                           .group:00000000 wm4._ansi.h.8.aeadd4934928258a76627d21910677e3
                           .group:00000000 wm4._default_types.h.6.959254cf5f09734ea7516c89e8bb21bd
                           .group:00000000 wm4._stdint.h.10.c24fa3af3bc1706662bb5593a907e841
                           .group:00000000 wm4.stdint.h.23.d53047a68f4a85177f80b422d52785ed
                           .group:00000000 wm4.stddef.h.267.6dda48f8b0edf141523347999dd9ec79
                           .group:00000000 wm4.inttypes.h.28.684aa7736e7ecc9a6ffc44acc61c7a90
                           .group:00000000 wm4.stddef.h.39.9af043fe601e315768567300ad642a8e
                           .group:00000000 wm4.stdlib.h.13.4ed386f5c1a80d71e72172885d946ef2
                           .group:00000000 wm4.stddef.h.158.eec8bf00b5213f43d095cb984c5f22e3
                           .group:00000000 wm4.cdefs.h.49.70fc7af612f78ddcace70fdd90b5623b
                           .group:00000000 wm4._types.h.20.dd0d04dca3800a0d2a6129b87f3adbb2
                           .group:00000000 wm4.stddef.h.158.6f8e08a347b1cff664332fa350bfceb3
                           .group:00000000 wm4._types.h.127.3bdfe3ff8ea2d0985b03d9cbe93480e3
                           .group:00000000 wm4.reent.h.18.25503cdc8b7e55dd0d6ea7b3e5af7a03
                           .group:00000000 wm4.lock.h.2.1461d1fff82dffe8bfddc23307f6484f
                           .group:00000000 wm4.reent.h.78.6b87466b04591b1f1cb88c14fdf2ba9e
                           .group:00000000 wm4.alloca.h.8.dfc0c703c47ec3e69746825b17d9e66d
                           .group:00000000 wm4.stdlib.h.56.f4862cfbf4363a1db01842d5bdf72c18
                           .group:00000000 wm4.ll_aton_attributes.h.20.26d469460cb32db5740effdc8cc403f3
                           .group:00000000 wm4.ll_aton_config.h.20.27cfa9f6f5afc4105991355367358a39
                           .group:00000000 wm4.assert.h.11.db24e541f16414db224bf986d21017e2
                           .group:00000000 wm4.errno.h.2.ba016d646105af6cad23be83630b6a3f
                           .group:00000000 wm4.errno.h.9.ae5ea2b0ff9ea6e39e585807e35200d3
                           .group:00000000 wm4.stdio.h.27.3fc80220048df77954e38daec3bb9670
                           .group:00000000 wm4.stdarg.h.34.3a23a216c0c293b3d2ea2e89281481e6
                           .group:00000000 wm4.stdio.h.47.dc31ec4674d7bcb103c9f08809549f45
                           .group:00000000 wm4.stdio.h.2.4aa87247282eca6c8f36f9de33d8df1a
                           .group:00000000 wm4.stdio.h.87.a1e20d2651f9bfb66e51bfbe849db00a
                           .group:00000000 wm4.ll_aton_util.h.34.9098eaa90d3d72b819973556e3e5fe44
                           .group:00000000 wm4.FreeRTOS.h.59.647b1b0da38e4e98108aae13c8abe9ee
                           .group:00000000 wm4.assert.h.11.d99a111e320bc5106fc4046225782672
                           .group:00000000 wm4.FreeRTOSConfig.h.59.2629c72cff9e6dbe880a2dc225eae516
                           .group:00000000 wm4.FreeRTOS.h.80.7742fabaf5accf3762dc12f7f259a8a0
                           .group:00000000 wm4.projdefs.h.30.55a824156f299c075c33148a9fdadb99
                           .group:00000000 wm4.portmacro.h.30.cbb4b2da41f551c2a9904f0d03a1ce3e
                           .group:00000000 wm4.portmacrocommon.h.30.d5cb67896ab50a95311be7e023da5c4f
                           .group:00000000 wm4.portmacro.h.68.4051ecf710d074fb55b16d91dfebeeaa
                           .group:00000000 wm4.portable.h.61.d557c57974d490f056246a26cdcddd6c
                           .group:00000000 wm4.mpu_wrappers.h.30.ccc5f1a6903f941a88c268f5f62af3fe
                           .group:00000000 wm4.portable.h.189.522b8bd52a171d3fd1432ef06d0caa63
ARM GAS  C:\Users\DJESSOU\AppData\Local\Temp\ccFxekaC.s 			page 283


                           .group:00000000 wm4.FreeRTOS.h.102.fb871f3e464d99c5a57b3115545a02ad
                           .group:00000000 wm4.list.h.59.bce6419520cd4f5f98779a1530bf2118
                           .group:00000000 wm4.task.h.56.84290139c73b47f5b9aac361361a2a31
                           .group:00000000 wm4.queue.h.68.219f47fba8b59640449b84d04c5bd6d8
                           .group:00000000 wm4.semphr.h.40.c1a9c6f5bf0feb4da0b6a45d234a79d0
                           .group:00000000 wm4.ll_aton_platform.h.20.8f1d4e7781c282794886ffdd00ccd30b
                           .group:00000000 wm4.stm32n6xx.h.34.c523a1ffdf274a69e8802892c6776332
                           .group:00000000 wm4.stm32n657xx.h.26.acd272cb67318cc1a4791ce2f0720ca6
                           .group:00000000 wm4.cmsis_version.h.30.d128735bf87720f7436b74fefeb5043c
                           .group:00000000 wm4.core_cm55.h.67.25006a3ce7048d64bcddd2996d5fac93
                           .group:00000000 wm4.arm_acle.h.28.ce8f475a5cc50333e54ae4adeb8c0298
                           .group:00000000 wm4.cmsis_gcc.h.39.eba7438bc45fd1a6e6376b63ffe44436
                           .group:00000000 wm4.cmsis_gcc_m.h.24.e590ec51aeda3a1242400351d73f5dce
                           .group:00000000 wm4.core_cm55.h.213.0528f46a674315ef8d35c4477e230358
                           .group:00000000 wm4.armv8m_mpu.h.24.bf28cc25bee30a7ff9d2f7a44a5e2230
                           .group:00000000 wm4.armv8m_pmu.h.24.6ded195d2625055391fd378c0e1d2519
                           .group:00000000 wm4.core_cm55.h.4477.396e822ef855bcfb932819ad48de1c4c
                           .group:00000000 wm4.armv7m_cachel1.h.24.936dd92d6e204a8d0b17d5e4ea4a356e
                           .group:00000000 wm4.stm32n657xx.h.575.78d331c417ec710388ced647138f735f
                           .group:00000000 wm4.stm32n6xx.h.116.b4247d9785590e7c5ec9234ffb2153bf
                           .group:00000000 wm4.ll_aton_platform.h.205.098bebcb126012e5dfc0544db0a7d4c8
                           .group:00000000 wm4.stdbool.h.29.c08aa3eec75cf5b9b5003883f43253f0
                           .group:00000000 wm4.syslimits.h.34.de5cbd310098bc5895998b6bde577ed2
                           .group:00000000 wm4.limits.h.9.70fb0ada6f71b16202a66baaa6d8ea70
                           .group:00000000 wm4.limits.h.60.56a1ae353e2028a24298ec6463b8b593
                           .group:00000000 wm4.string.h.8.c4b8571ce60dff2817f43fec8b86aecd
                           .group:00000000 wm4.string.h.177.59a005921fa78485abc80a0267de5752
                           .group:00000000 wm4.ATONidxs.h.16.969ebf3fd32e13543179e6907b3869c9
                           .group:00000000 wm4.ATON.h.19.0bce86f27eb7ac354272c44c1804cd24
                           .group:00000000 wm4.ll_aton_rcompat.h.22.4788366561a5f8dfb37661f794bdd403
                           .group:00000000 wm4.ll_aton_platform.h.279.2fa1ab569e6816db5b603cc3ef09d875
                           .group:00000000 wm4.ll_aton_osal_freertos.h.63.1e66f105894f6ee9e5e9ee361a3df896
                           .group:00000000 wm4.ll_aton_osal.h.117.70ff644e90427fadc04622c387869938
                           .group:00000000 wm4.ll_aton.h.44.a69cab2c3dfd65cb5a1024375349aaea

UNDEFINED SYMBOLS
__errno
strerror
printf
__assert_func
LL_ATON_getbits
mcu_cache_clean_invalidate_range
memset
