ARM GAS  C:\Users\DJESSOU\AppData\Local\Temp\ccdFeyMS.s 			page 1


   1              		.arch armv8.1-m.main
   2              		.fpu fpv5-d16
   3              		.arch_extension dsp
   4              		.arch_extension fp
   5              		.arch_extension fp.dp
   6              		.arch_extension mve
   7              		.arch_extension mve.fp
   8              		.eabi_attribute 5, "cortex-m55"
   9              		.eabi_attribute 28, 1
  10              		.eabi_attribute 20, 1
  11              		.eabi_attribute 21, 1
  12              		.eabi_attribute 23, 3
  13              		.eabi_attribute 24, 1
  14              		.eabi_attribute 25, 1
  15              		.eabi_attribute 26, 1
  16              		.eabi_attribute 30, 4
  17              		.eabi_attribute 34, 1
  18              		.eabi_attribute 38, 1
  19              		.eabi_attribute 18, 4
  20              		.file	"ll_sw_float.c"
  21              		.text
  22              	.Ltext0:
  23              		.cfi_sections	.debug_frame
  24              		.file 1 "Lib/AI_Runtime/Npu/ll_aton/ll_sw_float.c"
  25              		.section	.text.ll_sw_forward_conv,"ax",%progbits
  26              		.align	1
  27              		.global	ll_sw_forward_conv
  28              		.syntax unified
  29              		.thumb
  30              		.thumb_func
  32              	ll_sw_forward_conv:
  33              	.LVL0:
  34              	.LFB15:
   1:Lib/AI_Runtime/Npu/ll_aton/ll_sw_float.c **** /**
   2:Lib/AI_Runtime/Npu/ll_aton/ll_sw_float.c ****  ******************************************************************************
   3:Lib/AI_Runtime/Npu/ll_aton/ll_sw_float.c ****  * @file    ll_sw_float.c
   4:Lib/AI_Runtime/Npu/ll_aton/ll_sw_float.c ****  * @author  SRA Artificial Intelligence & Embedded Architectures
   5:Lib/AI_Runtime/Npu/ll_aton/ll_sw_float.c ****  * @brief   Low Level Software library for Floating Point inference interfacing with EmbedNets(c)
   6:Lib/AI_Runtime/Npu/ll_aton/ll_sw_float.c ****  ******************************************************************************
   7:Lib/AI_Runtime/Npu/ll_aton/ll_sw_float.c ****  * @attention
   8:Lib/AI_Runtime/Npu/ll_aton/ll_sw_float.c ****  *
   9:Lib/AI_Runtime/Npu/ll_aton/ll_sw_float.c ****  * Copyright (c) 2024 STMicroelectronics.
  10:Lib/AI_Runtime/Npu/ll_aton/ll_sw_float.c ****  * All rights reserved.
  11:Lib/AI_Runtime/Npu/ll_aton/ll_sw_float.c ****  *
  12:Lib/AI_Runtime/Npu/ll_aton/ll_sw_float.c ****  * This software is licensed under terms that can be found in the LICENSE file
  13:Lib/AI_Runtime/Npu/ll_aton/ll_sw_float.c ****  * in the root directory of this software component.
  14:Lib/AI_Runtime/Npu/ll_aton/ll_sw_float.c ****  * If no LICENSE file comes with this software, it is provided AS-IS.
  15:Lib/AI_Runtime/Npu/ll_aton/ll_sw_float.c ****  *
  16:Lib/AI_Runtime/Npu/ll_aton/ll_sw_float.c ****  ******************************************************************************
  17:Lib/AI_Runtime/Npu/ll_aton/ll_sw_float.c ****  */
  18:Lib/AI_Runtime/Npu/ll_aton/ll_sw_float.c **** 
  19:Lib/AI_Runtime/Npu/ll_aton/ll_sw_float.c **** #include "ll_aton_config.h"
  20:Lib/AI_Runtime/Npu/ll_aton/ll_sw_float.c **** 
  21:Lib/AI_Runtime/Npu/ll_aton/ll_sw_float.c **** #if LL_ATON_SW_FALLBACK == 1
  22:Lib/AI_Runtime/Npu/ll_aton/ll_sw_float.c **** 
  23:Lib/AI_Runtime/Npu/ll_aton/ll_sw_float.c **** #include <stdint.h>
  24:Lib/AI_Runtime/Npu/ll_aton/ll_sw_float.c **** #include <stdio.h>
ARM GAS  C:\Users\DJESSOU\AppData\Local\Temp\ccdFeyMS.s 			page 2


  25:Lib/AI_Runtime/Npu/ll_aton/ll_sw_float.c **** 
  26:Lib/AI_Runtime/Npu/ll_aton/ll_sw_float.c **** #include "ll_sw.h"
  27:Lib/AI_Runtime/Npu/ll_aton/ll_sw_float.c **** #include "ll_sw_float.h"
  28:Lib/AI_Runtime/Npu/ll_aton/ll_sw_float.c **** 
  29:Lib/AI_Runtime/Npu/ll_aton/ll_sw_float.c **** #include "ai_datatypes_internal.h"
  30:Lib/AI_Runtime/Npu/ll_aton/ll_sw_float.c **** #include "ai_math_helpers.h"
  31:Lib/AI_Runtime/Npu/ll_aton/ll_sw_float.c **** #include "core_private.h"
  32:Lib/AI_Runtime/Npu/ll_aton/ll_sw_float.c **** #include "layers.h"
  33:Lib/AI_Runtime/Npu/ll_aton/ll_sw_float.c **** #include "ll_aton_util.h"
  34:Lib/AI_Runtime/Npu/ll_aton/ll_sw_float.c **** 
  35:Lib/AI_Runtime/Npu/ll_aton/ll_sw_float.c **** #define FORMAT AI_ARRAY_FORMAT_FLOAT
  36:Lib/AI_Runtime/Npu/ll_aton/ll_sw_float.c **** 
  37:Lib/AI_Runtime/Npu/ll_aton/ll_sw_float.c **** #define SHAPE_INIT(a_, b_, c_, d_) AI_SHAPE_INIT(4, (d_), (c_), (b_), (a_))
  38:Lib/AI_Runtime/Npu/ll_aton/ll_sw_float.c **** 
  39:Lib/AI_Runtime/Npu/ll_aton/ll_sw_float.c **** #define SHAPE_2D_INIT(h_, w_) AI_SHAPE_2D_INIT((w_), (h_))
  40:Lib/AI_Runtime/Npu/ll_aton/ll_sw_float.c **** 
  41:Lib/AI_Runtime/Npu/ll_aton/ll_sw_float.c **** #define STRIDE_INIT(a_, b_, c_, d_) AI_STRIDE_INIT(4, (d_), (c_), (b_), (a_))
  42:Lib/AI_Runtime/Npu/ll_aton/ll_sw_float.c **** 
  43:Lib/AI_Runtime/Npu/ll_aton/ll_sw_float.c **** #define TENSORS(...) __VA_ARGS__
  44:Lib/AI_Runtime/Npu/ll_aton/ll_sw_float.c **** 
  45:Lib/AI_Runtime/Npu/ll_aton/ll_sw_float.c **** /* Managing shape index to be consistent with the enum in embednets ai_platform.h */
  46:Lib/AI_Runtime/Npu/ll_aton/ll_sw_float.c **** static int helper_emit_shape_index_axis(int onnx_axis)
  47:Lib/AI_Runtime/Npu/ll_aton/ll_sw_float.c **** {
  48:Lib/AI_Runtime/Npu/ll_aton/ll_sw_float.c ****   switch (onnx_axis)
  49:Lib/AI_Runtime/Npu/ll_aton/ll_sw_float.c ****   {
  50:Lib/AI_Runtime/Npu/ll_aton/ll_sw_float.c ****   case 0:
  51:Lib/AI_Runtime/Npu/ll_aton/ll_sw_float.c ****     return AI_SHAPE_IN_CHANNEL;
  52:Lib/AI_Runtime/Npu/ll_aton/ll_sw_float.c ****   case 1:
  53:Lib/AI_Runtime/Npu/ll_aton/ll_sw_float.c ****     return AI_SHAPE_CHANNEL;
  54:Lib/AI_Runtime/Npu/ll_aton/ll_sw_float.c ****   case 2:
  55:Lib/AI_Runtime/Npu/ll_aton/ll_sw_float.c ****     return AI_SHAPE_HEIGHT; // note the switch required with case 3
  56:Lib/AI_Runtime/Npu/ll_aton/ll_sw_float.c ****   case 3:
  57:Lib/AI_Runtime/Npu/ll_aton/ll_sw_float.c ****     return AI_SHAPE_WIDTH; // note the switch required with case 2
  58:Lib/AI_Runtime/Npu/ll_aton/ll_sw_float.c ****   default:
  59:Lib/AI_Runtime/Npu/ll_aton/ll_sw_float.c **** #ifdef LL_SW_ENABLE_ASSERTS
  60:Lib/AI_Runtime/Npu/ll_aton/ll_sw_float.c ****     LL_ATON_ASSERT(0 && "axis index not supported");
  61:Lib/AI_Runtime/Npu/ll_aton/ll_sw_float.c **** #endif
  62:Lib/AI_Runtime/Npu/ll_aton/ll_sw_float.c ****     return -1;
  63:Lib/AI_Runtime/Npu/ll_aton/ll_sw_float.c ****   }
  64:Lib/AI_Runtime/Npu/ll_aton/ll_sw_float.c **** }
  65:Lib/AI_Runtime/Npu/ll_aton/ll_sw_float.c **** 
  66:Lib/AI_Runtime/Npu/ll_aton/ll_sw_float.c **** //##########################################################################################
  67:Lib/AI_Runtime/Npu/ll_aton/ll_sw_float.c **** /** Conv forward function */
  68:Lib/AI_Runtime/Npu/ll_aton/ll_sw_float.c **** void ll_sw_forward_conv(/* int processor, */ void *sw_info_struct)
  69:Lib/AI_Runtime/Npu/ll_aton/ll_sw_float.c **** {
  35              		.loc 1 69 1 view -0
  36              		.cfi_startproc
  37              		@ args = 0, pretend = 0, frame = 488
  38              		@ frame_needed = 0, uses_anonymous_args = 0
  70:Lib/AI_Runtime/Npu/ll_aton/ll_sw_float.c ****   Conv_sw_info *sw_info = (Conv_sw_info *)sw_info_struct;
  39              		.loc 1 70 3 view .LVU1
  71:Lib/AI_Runtime/Npu/ll_aton/ll_sw_float.c ****   // array init
  72:Lib/AI_Runtime/Npu/ll_aton/ll_sw_float.c ****   AI_ARRAY_OBJ_DECLARE(input_output_array, FORMAT, sw_info->general.input.mem.start_offset,
  40              		.loc 1 72 3 view .LVU2
  69:Lib/AI_Runtime/Npu/ll_aton/ll_sw_float.c ****   Conv_sw_info *sw_info = (Conv_sw_info *)sw_info_struct;
  41              		.loc 1 69 1 is_stmt 0 view .LVU3
  42 0000 2DE9F04F 		push	{r4, r5, r6, r7, r8, r9, r10, fp, lr}
ARM GAS  C:\Users\DJESSOU\AppData\Local\Temp\ccdFeyMS.s 			page 3


  43              		.cfi_def_cfa_offset 36
  44              		.cfi_offset 4, -36
  45              		.cfi_offset 5, -32
  46              		.cfi_offset 6, -28
  47              		.cfi_offset 7, -24
  48              		.cfi_offset 8, -20
  49              		.cfi_offset 9, -16
  50              		.cfi_offset 10, -12
  51              		.cfi_offset 11, -8
  52              		.cfi_offset 14, -4
  73:Lib/AI_Runtime/Npu/ll_aton/ll_sw_float.c ****                        sw_info->general.input.mem.start_offset, sw_info->general.input.dim.num_elem
  74:Lib/AI_Runtime/Npu/ll_aton/ll_sw_float.c ****   AI_ARRAY_OBJ_DECLARE(conv_weights_array, FORMAT, sw_info->weights.mem.start_offset, sw_info->weig
  75:Lib/AI_Runtime/Npu/ll_aton/ll_sw_float.c ****                        sw_info->weights.dim.num_elem, )
  76:Lib/AI_Runtime/Npu/ll_aton/ll_sw_float.c ****   AI_ARRAY_OBJ_DECLARE(conv_output_array, FORMAT, sw_info->general.output.mem.start_offset,
  77:Lib/AI_Runtime/Npu/ll_aton/ll_sw_float.c ****                        sw_info->general.output.mem.start_offset, sw_info->general.output.dim.num_el
  78:Lib/AI_Runtime/Npu/ll_aton/ll_sw_float.c **** 
  79:Lib/AI_Runtime/Npu/ll_aton/ll_sw_float.c ****   AI_TENSOR_OBJ_DECLARE(conv_weights, , 0x0, 4,
  53              		.loc 1 79 3 view .LVU4
  54 0004 0021     		movs	r1, #0
  55 0006 4FF0827E 		mov	lr, #17039360
  56 000a 40F2014A 		movw	r10, #1025
  76:Lib/AI_Runtime/Npu/ll_aton/ll_sw_float.c ****                        sw_info->general.output.mem.start_offset, sw_info->general.output.dim.num_el
  57              		.loc 1 76 3 view .LVU5
  58 000e 026C     		ldr	r2, [r0, #64]
  69:Lib/AI_Runtime/Npu/ll_aton/ll_sw_float.c ****   Conv_sw_info *sw_info = (Conv_sw_info *)sw_info_struct;
  59              		.loc 1 69 1 view .LVU6
  60 0010 FBB0     		sub	sp, sp, #492
  61              		.cfi_def_cfa_offset 528
  62              		.loc 1 79 3 view .LVU7
  63 0012 40F2024C 		movw	ip, #1026
  76:Lib/AI_Runtime/Npu/ll_aton/ll_sw_float.c ****                        sw_info->general.output.mem.start_offset, sw_info->general.output.dim.num_el
  64              		.loc 1 76 3 view .LVU8
  65 0016 1692     		str	r2, [sp, #88]
  66 0018 426D     		ldr	r2, [r0, #84]
  72:Lib/AI_Runtime/Npu/ll_aton/ll_sw_float.c ****                        sw_info->general.input.mem.start_offset, sw_info->general.input.dim.num_elem
  67              		.loc 1 72 3 view .LVU9
  68 001a 4369     		ldr	r3, [r0, #20]
  76:Lib/AI_Runtime/Npu/ll_aton/ll_sw_float.c ****                        sw_info->general.output.mem.start_offset, sw_info->general.output.dim.num_el
  69              		.loc 1 76 3 view .LVU10
  70 001c CDE91722 		strd	r2, r2, [sp, #92]
  71              		.loc 1 79 3 view .LVU11
  72 0020 426E     		ldr	r2, [r0, #100]
  72:Lib/AI_Runtime/Npu/ll_aton/ll_sw_float.c ****                        sw_info->general.input.mem.start_offset, sw_info->general.input.dim.num_elem
  73              		.loc 1 72 3 view .LVU12
  74 0022 0E93     		str	r3, [sp, #56]
  75              		.loc 1 79 3 view .LVU13
  76 0024 1992     		str	r2, [sp, #100]
  72:Lib/AI_Runtime/Npu/ll_aton/ll_sw_float.c ****                        sw_info->general.input.mem.start_offset, sw_info->general.input.dim.num_elem
  77              		.loc 1 72 3 view .LVU14
  78 0026 836A     		ldr	r3, [r0, #40]
  79              		.loc 1 79 3 view .LVU15
  80 0028 026E     		ldr	r2, [r0, #96]
  72:Lib/AI_Runtime/Npu/ll_aton/ll_sw_float.c ****                        sw_info->general.input.mem.start_offset, sw_info->general.input.dim.num_elem
  81              		.loc 1 72 3 view .LVU16
  82 002a CDE90F33 		strd	r3, r3, [sp, #60]
  74:Lib/AI_Runtime/Npu/ll_aton/ll_sw_float.c ****                        sw_info->weights.dim.num_elem, )
  83              		.loc 1 74 3 is_stmt 1 view .LVU17
ARM GAS  C:\Users\DJESSOU\AppData\Local\Temp\ccdFeyMS.s 			page 4


  84              		.loc 1 79 3 is_stmt 0 view .LVU18
  85 002e 1A92     		str	r2, [sp, #104]
  74:Lib/AI_Runtime/Npu/ll_aton/ll_sw_float.c ****                        sw_info->weights.dim.num_elem, )
  86              		.loc 1 74 3 view .LVU19
  87 0030 C36E     		ldr	r3, [r0, #108]
  88              		.loc 1 79 3 view .LVU20
  89 0032 C26D     		ldr	r2, [r0, #92]
  72:Lib/AI_Runtime/Npu/ll_aton/ll_sw_float.c ****                        sw_info->general.input.mem.start_offset, sw_info->general.input.dim.num_elem
  90              		.loc 1 72 3 view .LVU21
  91 0034 DFF840B2 		ldr	fp, .L5+8
  74:Lib/AI_Runtime/Npu/ll_aton/ll_sw_float.c ****                        sw_info->weights.dim.num_elem, )
  92              		.loc 1 74 3 view .LVU22
  93 0038 1293     		str	r3, [sp, #72]
  94              		.loc 1 79 3 view .LVU23
  95 003a 1B92     		str	r2, [sp, #108]
  74:Lib/AI_Runtime/Npu/ll_aton/ll_sw_float.c ****                        sw_info->weights.dim.num_elem, )
  96              		.loc 1 74 3 view .LVU24
  97 003c D0F88030 		ldr	r3, [r0, #128]
  98              		.loc 1 79 3 view .LVU25
  99 0040 826E     		ldr	r2, [r0, #104]
 100 0042 19AE     		add	r6, sp, #100
  74:Lib/AI_Runtime/Npu/ll_aton/ll_sw_float.c ****                        sw_info->weights.dim.num_elem, )
 101              		.loc 1 74 3 view .LVU26
 102 0044 CDE91333 		strd	r3, r3, [sp, #76]
  76:Lib/AI_Runtime/Npu/ll_aton/ll_sw_float.c ****                        sw_info->general.output.mem.start_offset, sw_info->general.output.dim.num_el
 103              		.loc 1 76 3 is_stmt 1 view .LVU27
 104              		.loc 1 79 3 view .LVU28
 105 0048 1C92     		str	r2, [sp, #112]
 106 004a CDE9411E 		strd	r1, lr, [sp, #260]
  72:Lib/AI_Runtime/Npu/ll_aton/ll_sw_float.c ****                        sw_info->general.input.mem.start_offset, sw_info->general.input.dim.num_elem
 107              		.loc 1 72 3 is_stmt 0 view .LVU29
 108 004e CDF834B0 		str	fp, [sp, #52]
  74:Lib/AI_Runtime/Npu/ll_aton/ll_sw_float.c ****                        sw_info->weights.dim.num_elem, )
 109              		.loc 1 74 3 view .LVU30
 110 0052 CDF844B0 		str	fp, [sp, #68]
  76:Lib/AI_Runtime/Npu/ll_aton/ll_sw_float.c ****                        sw_info->general.output.mem.start_offset, sw_info->general.output.dim.num_el
 111              		.loc 1 76 3 view .LVU31
 112 0056 CDF854B0 		str	fp, [sp, #84]
 113              		.loc 1 79 3 view .LVU32
 114 005a CDF80CA1 		str	r10, [sp, #268]
 115 005e 4496     		str	r6, [sp, #272]
 116 0060 C26F     		ldr	r2, [r0, #124]
  74:Lib/AI_Runtime/Npu/ll_aton/ll_sw_float.c ****                        sw_info->weights.dim.num_elem, )
 117              		.loc 1 74 3 view .LVU33
 118 0062 11AD     		add	r5, sp, #68
 119              		.loc 1 79 3 view .LVU34
 120 0064 CDE91D22 		strd	r2, r2, [sp, #116]
 121 0068 426F     		ldr	r2, [r0, #116]
 122 006a 1DAE     		add	r6, sp, #116
 123 006c 1F92     		str	r2, [sp, #124]
 124 006e 026F     		ldr	r2, [r0, #112]
 125 0070 CDE94665 		strd	r6, r5, [sp, #280]
  80:Lib/AI_Runtime/Npu/ll_aton/ll_sw_float.c ****                         SHAPE_INIT(sw_info->weights.dim.tensor_b, sw_info->weights.dim.tensor_h,
  81:Lib/AI_Runtime/Npu/ll_aton/ll_sw_float.c ****                                    sw_info->weights.dim.tensor_w, sw_info->weights.dim.tensor_c),
  82:Lib/AI_Runtime/Npu/ll_aton/ll_sw_float.c ****                         STRIDE_INIT(sw_info->weights.stride.h, sw_info->weights.stride.w, sw_info->
  83:Lib/AI_Runtime/Npu/ll_aton/ll_sw_float.c ****                                     sw_info->weights.stride.b),
  84:Lib/AI_Runtime/Npu/ll_aton/ll_sw_float.c ****                         1, &conv_weights_array, NULL);
ARM GAS  C:\Users\DJESSOU\AppData\Local\Temp\ccdFeyMS.s 			page 5


 126              		.loc 1 84 54 is_stmt 1 view .LVU35
  85:Lib/AI_Runtime/Npu/ll_aton/ll_sw_float.c ****   AI_TENSOR_OBJ_DECLARE(input_output, , 0x0, 4,
 127              		.loc 1 85 3 view .LVU36
  79:Lib/AI_Runtime/Npu/ll_aton/ll_sw_float.c ****                         SHAPE_INIT(sw_info->weights.dim.tensor_b, sw_info->weights.dim.tensor_h,
 128              		.loc 1 79 3 is_stmt 0 view .LVU37
 129 0074 2092     		str	r2, [sp, #128]
 130              		.loc 1 85 3 view .LVU38
 131 0076 0269     		ldr	r2, [r0, #16]
 132 0078 21AD     		add	r5, sp, #132
 133 007a 2192     		str	r2, [sp, #132]
 134 007c C268     		ldr	r2, [r0, #12]
 135 007e CDE94B5C 		strd	r5, ip, [sp, #300]
 136 0082 2292     		str	r2, [sp, #136]
 137 0084 8268     		ldr	r2, [r0, #8]
  72:Lib/AI_Runtime/Npu/ll_aton/ll_sw_float.c ****                        sw_info->general.input.mem.start_offset, sw_info->general.input.dim.num_elem
 138              		.loc 1 72 3 view .LVU39
 139 0086 0DAC     		add	r4, sp, #52
 140              		.loc 1 85 3 view .LVU40
 141 0088 2392     		str	r2, [sp, #140]
 142 008a 4268     		ldr	r2, [r0, #4]
 143 008c 25AD     		add	r5, sp, #148
 144 008e 2492     		str	r2, [sp, #144]
 145 0090 426A     		ldr	r2, [r0, #36]
 146 0092 CDE9481E 		strd	r1, lr, [sp, #288]
 147 0096 2592     		str	r2, [sp, #148]
 148 0098 026A     		ldr	r2, [r0, #32]
  79:Lib/AI_Runtime/Npu/ll_aton/ll_sw_float.c ****                         SHAPE_INIT(sw_info->weights.dim.tensor_b, sw_info->weights.dim.tensor_h,
 149              		.loc 1 79 3 view .LVU41
 150 009a CDF814C1 		str	ip, [sp, #276]
 151              		.loc 1 85 3 view .LVU42
 152 009e 2692     		str	r2, [sp, #152]
 153 00a0 C269     		ldr	r2, [r0, #28]
 154 00a2 CDF828A1 		str	r10, [sp, #296]
 155 00a6 2792     		str	r2, [sp, #156]
 156 00a8 8269     		ldr	r2, [r0, #24]
  76:Lib/AI_Runtime/Npu/ll_aton/ll_sw_float.c ****                        sw_info->general.output.mem.start_offset, sw_info->general.output.dim.num_el
 157              		.loc 1 76 3 view .LVU43
 158 00aa 15AB     		add	r3, sp, #84
 159              		.loc 1 85 3 view .LVU44
 160 00ac 2892     		str	r2, [sp, #160]
 161 00ae CDE94D54 		strd	r5, r4, [sp, #308]
  86:Lib/AI_Runtime/Npu/ll_aton/ll_sw_float.c ****                         SHAPE_INIT(sw_info->general.input.dim.tensor_h, sw_info->general.input.dim.
  87:Lib/AI_Runtime/Npu/ll_aton/ll_sw_float.c ****                                    sw_info->general.input.dim.tensor_c, sw_info->general.input.dim.
  88:Lib/AI_Runtime/Npu/ll_aton/ll_sw_float.c ****                         STRIDE_INIT(sw_info->general.input.stride.h, sw_info->general.input.stride.
  89:Lib/AI_Runtime/Npu/ll_aton/ll_sw_float.c ****                                     sw_info->general.input.stride.c, sw_info->general.input.stride.
  90:Lib/AI_Runtime/Npu/ll_aton/ll_sw_float.c ****                         1, &input_output_array, NULL);
 162              		.loc 1 90 54 is_stmt 1 view .LVU45
  91:Lib/AI_Runtime/Npu/ll_aton/ll_sw_float.c ****   AI_TENSOR_OBJ_DECLARE(conv_output, , 0x0, 4,
 163              		.loc 1 91 3 view .LVU46
 164              	.LBB2:
  92:Lib/AI_Runtime/Npu/ll_aton/ll_sw_float.c ****                         SHAPE_INIT(sw_info->general.output.dim.tensor_h, sw_info->general.output.di
  93:Lib/AI_Runtime/Npu/ll_aton/ll_sw_float.c ****                                    sw_info->general.output.dim.tensor_c, sw_info->general.output.di
  94:Lib/AI_Runtime/Npu/ll_aton/ll_sw_float.c ****                         STRIDE_INIT(sw_info->general.output.stride.h, sw_info->general.output.strid
  95:Lib/AI_Runtime/Npu/ll_aton/ll_sw_float.c ****                                     sw_info->general.output.stride.c, sw_info->general.output.strid
  96:Lib/AI_Runtime/Npu/ll_aton/ll_sw_float.c ****                         1, &conv_output_array, NULL);
  97:Lib/AI_Runtime/Npu/ll_aton/ll_sw_float.c **** 
  98:Lib/AI_Runtime/Npu/ll_aton/ll_sw_float.c ****   if (sw_info->bias.mem.start_offset != NULL)
ARM GAS  C:\Users\DJESSOU\AppData\Local\Temp\ccdFeyMS.s 			page 6


  99:Lib/AI_Runtime/Npu/ll_aton/ll_sw_float.c ****   {
 100:Lib/AI_Runtime/Npu/ll_aton/ll_sw_float.c ****     AI_ARRAY_OBJ_DECLARE(conv_bias_array, FORMAT, sw_info->bias.mem.start_offset, sw_info->bias.mem
 101:Lib/AI_Runtime/Npu/ll_aton/ll_sw_float.c ****                          sw_info->bias.dim.num_elem, )
 102:Lib/AI_Runtime/Npu/ll_aton/ll_sw_float.c ****     AI_TENSOR_OBJ_DECLARE(
 103:Lib/AI_Runtime/Npu/ll_aton/ll_sw_float.c ****         conv_bias, , 0x0, 4,
 104:Lib/AI_Runtime/Npu/ll_aton/ll_sw_float.c ****         SHAPE_INIT(sw_info->bias.dim.tensor_h, sw_info->bias.dim.tensor_w, sw_info->bias.dim.tensor
 105:Lib/AI_Runtime/Npu/ll_aton/ll_sw_float.c ****                    sw_info->bias.dim.tensor_b),
 106:Lib/AI_Runtime/Npu/ll_aton/ll_sw_float.c ****         STRIDE_INIT(sw_info->bias.stride.h, sw_info->bias.stride.w, sw_info->bias.stride.c, sw_info
 107:Lib/AI_Runtime/Npu/ll_aton/ll_sw_float.c ****         &conv_bias_array, NULL);
 108:Lib/AI_Runtime/Npu/ll_aton/ll_sw_float.c **** 
 109:Lib/AI_Runtime/Npu/ll_aton/ll_sw_float.c ****     // tensor chain initialization
 110:Lib/AI_Runtime/Npu/ll_aton/ll_sw_float.c ****     AI_TENSOR_CHAIN_OBJ_DECLARE(conv_chain, , 4, AI_TENSOR_LIST_OBJ_INIT(AI_FLAG_NONE, 1, TENSORS(&
 111:Lib/AI_Runtime/Npu/ll_aton/ll_sw_float.c ****                                 AI_TENSOR_LIST_OBJ_INIT(AI_FLAG_NONE, 1, TENSORS(&conv_output)),
 112:Lib/AI_Runtime/Npu/ll_aton/ll_sw_float.c ****                                 AI_TENSOR_LIST_OBJ_INIT(AI_FLAG_NONE, 3, TENSORS(&conv_weights, &co
 113:Lib/AI_Runtime/Npu/ll_aton/ll_sw_float.c ****                                 AI_TENSOR_LIST_OBJ_INIT(AI_FLAG_NONE, 2, TENSORS(NULL, NULL)))
 114:Lib/AI_Runtime/Npu/ll_aton/ll_sw_float.c ****     // layer initialization
 115:Lib/AI_Runtime/Npu/ll_aton/ll_sw_float.c ****     AI_LAYER_OBJ_DECLARE(conv_layer, 1, CONV2D_TYPE, 0x0, NULL, conv2d, forward_conv2d_if32of32wf32
 165              		.loc 1 115 5 is_stmt 0 view .LVU47
 166 00b2 D0E94878 		ldrd	r7, r8, [r0, #288]
 167 00b6 D0E94C56 		ldrd	r5, r6, [r0, #304]
 168              	.LBE2:
  91:Lib/AI_Runtime/Npu/ll_aton/ll_sw_float.c ****   AI_TENSOR_OBJ_DECLARE(conv_output, , 0x0, 4,
 169              		.loc 1 91 3 view .LVU48
 170 00ba C26B     		ldr	r2, [r0, #60]
 171 00bc 29AC     		add	r4, sp, #164
 172 00be 2992     		str	r2, [sp, #164]
 173 00c0 826B     		ldr	r2, [r0, #56]
 174 00c2 CDE9524C 		strd	r4, ip, [sp, #328]
 175 00c6 2A92     		str	r2, [sp, #168]
 176 00c8 426B     		ldr	r2, [r0, #52]
 177 00ca 2DAC     		add	r4, sp, #180
 178 00cc 2B92     		str	r2, [sp, #172]
 179 00ce 026B     		ldr	r2, [r0, #48]
 180 00d0 CDE95443 		strd	r4, r3, [sp, #336]
  96:Lib/AI_Runtime/Npu/ll_aton/ll_sw_float.c **** 
 181              		.loc 1 96 53 is_stmt 1 view .LVU49
  98:Lib/AI_Runtime/Npu/ll_aton/ll_sw_float.c ****   {
 182              		.loc 1 98 3 view .LVU50
  91:Lib/AI_Runtime/Npu/ll_aton/ll_sw_float.c ****                         SHAPE_INIT(sw_info->general.output.dim.tensor_h, sw_info->general.output.di
 183              		.loc 1 91 3 is_stmt 0 view .LVU51
 184 00d4 2C92     		str	r2, [sp, #176]
 185 00d6 026D     		ldr	r2, [r0, #80]
 186 00d8 CDE94F1E 		strd	r1, lr, [sp, #316]
 187 00dc 2D92     		str	r2, [sp, #180]
 188 00de C26C     		ldr	r2, [r0, #76]
  98:Lib/AI_Runtime/Npu/ll_aton/ll_sw_float.c ****   {
 189              		.loc 1 98 24 view .LVU52
 190 00e0 D0F8D830 		ldr	r3, [r0, #216]
  91:Lib/AI_Runtime/Npu/ll_aton/ll_sw_float.c ****                         SHAPE_INIT(sw_info->general.output.dim.tensor_h, sw_info->general.output.di
 191              		.loc 1 91 3 view .LVU53
 192 00e4 2E92     		str	r2, [sp, #184]
 193 00e6 826C     		ldr	r2, [r0, #72]
 194              	.LBB3:
 195              		.loc 1 115 5 view .LVU54
 196 00e8 D0F80C91 		ldr	r9, [r0, #268]
 197              	.LBE3:
  91:Lib/AI_Runtime/Npu/ll_aton/ll_sw_float.c ****                         SHAPE_INIT(sw_info->general.output.dim.tensor_h, sw_info->general.output.di
ARM GAS  C:\Users\DJESSOU\AppData\Local\Temp\ccdFeyMS.s 			page 7


 198              		.loc 1 91 3 view .LVU55
 199 00ec 2F92     		str	r2, [sp, #188]
 200 00ee 426C     		ldr	r2, [r0, #68]
 201 00f0 CDF844A1 		str	r10, [sp, #324]
 202 00f4 3092     		str	r2, [sp, #192]
 203              	.LBB4:
 204              		.loc 1 115 5 view .LVU56
 205 00f6 D0F81021 		ldr	r2, [r0, #272]
 206 00fa 0092     		str	r2, [sp]
 207 00fc D0F81421 		ldr	r2, [r0, #276]
 208 0100 0192     		str	r2, [sp, #4]
 209 0102 D0F81821 		ldr	r2, [r0, #280]
 210 0106 0292     		str	r2, [sp, #8]
 211 0108 D0F81C21 		ldr	r2, [r0, #284]
 212 010c 0392     		str	r2, [sp, #12]
 213              	.LBE4:
  98:Lib/AI_Runtime/Npu/ll_aton/ll_sw_float.c ****   {
 214              		.loc 1 98 6 view .LVU57
 215 010e 002B     		cmp	r3, #0
 216 0110 6ED0     		beq	.L2
 217              	.LBB5:
 100:Lib/AI_Runtime/Npu/ll_aton/ll_sw_float.c ****                          sw_info->bias.dim.num_elem, )
 218              		.loc 1 100 5 is_stmt 1 view .LVU58
 219 0112 D0F8C440 		ldr	r4, [r0, #196]
 220 0116 3493     		str	r3, [sp, #208]
 102:Lib/AI_Runtime/Npu/ll_aton/ll_sw_float.c ****         conv_bias, , 0x0, 4,
 221              		.loc 1 102 5 view .LVU59
 100:Lib/AI_Runtime/Npu/ll_aton/ll_sw_float.c ****                          sw_info->bias.dim.num_elem, )
 222              		.loc 1 100 5 is_stmt 0 view .LVU60
 223 0118 CDE93243 		strd	r4, r3, [sp, #200]
 102:Lib/AI_Runtime/Npu/ll_aton/ll_sw_float.c ****         conv_bias, , 0x0, 4,
 224              		.loc 1 102 5 view .LVU61
 225 011c 35AB     		add	r3, sp, #212
 226 011e CDE9593C 		strd	r3, ip, [sp, #356]
 100:Lib/AI_Runtime/Npu/ll_aton/ll_sw_float.c ****                          sw_info->bias.dim.num_elem, )
 227              		.loc 1 100 5 view .LVU62
 228 0122 31AA     		add	r2, sp, #196
 102:Lib/AI_Runtime/Npu/ll_aton/ll_sw_float.c ****         conv_bias, , 0x0, 4,
 229              		.loc 1 102 5 view .LVU63
 230 0124 39AB     		add	r3, sp, #228
 231 0126 CDE95B32 		strd	r3, r2, [sp, #364]
 107:Lib/AI_Runtime/Npu/ll_aton/ll_sw_float.c **** 
 232              		.loc 1 107 32 is_stmt 1 view .LVU64
 110:Lib/AI_Runtime/Npu/ll_aton/ll_sw_float.c ****                                 AI_TENSOR_LIST_OBJ_INIT(AI_FLAG_NONE, 1, TENSORS(&conv_output)),
 233              		.loc 1 110 5 view .LVU65
 234 012a 0423     		movs	r3, #4
 235 012c 0693     		str	r3, [sp, #24]
 236 012e 0123     		movs	r3, #1
 102:Lib/AI_Runtime/Npu/ll_aton/ll_sw_float.c ****         conv_bias, , 0x0, 4,
 237              		.loc 1 102 5 is_stmt 0 view .LVU66
 238 0130 D0F8C040 		ldr	r4, [r0, #192]
 110:Lib/AI_Runtime/Npu/ll_aton/ll_sw_float.c ****                                 AI_TENSOR_LIST_OBJ_INIT(AI_FLAG_NONE, 1, TENSORS(&conv_output)),
 239              		.loc 1 110 5 view .LVU67
 240 0134 48AA     		add	r2, sp, #288
 102:Lib/AI_Runtime/Npu/ll_aton/ll_sw_float.c ****         conv_bias, , 0x0, 4,
 241              		.loc 1 102 5 view .LVU68
 242 0136 3594     		str	r4, [sp, #212]
ARM GAS  C:\Users\DJESSOU\AppData\Local\Temp\ccdFeyMS.s 			page 8


 243 0138 D0F8BC40 		ldr	r4, [r0, #188]
 110:Lib/AI_Runtime/Npu/ll_aton/ll_sw_float.c ****                                 AI_TENSOR_LIST_OBJ_INIT(AI_FLAG_NONE, 1, TENSORS(&conv_output)),
 244              		.loc 1 110 5 view .LVU69
 245 013c 0492     		str	r2, [sp, #16]
 102:Lib/AI_Runtime/Npu/ll_aton/ll_sw_float.c ****         conv_bias, , 0x0, 4,
 246              		.loc 1 102 5 view .LVU70
 247 013e 3694     		str	r4, [sp, #216]
 248 0140 D0F8B840 		ldr	r4, [r0, #184]
 110:Lib/AI_Runtime/Npu/ll_aton/ll_sw_float.c ****                                 AI_TENSOR_LIST_OBJ_INIT(AI_FLAG_NONE, 1, TENSORS(&conv_output)),
 249              		.loc 1 110 5 view .LVU71
 250 0144 04AA     		add	r2, sp, #16
 102:Lib/AI_Runtime/Npu/ll_aton/ll_sw_float.c ****         conv_bias, , 0x0, 4,
 251              		.loc 1 102 5 view .LVU72
 252 0146 3794     		str	r4, [sp, #220]
 253 0148 D0F8B440 		ldr	r4, [r0, #180]
 254 014c CDE9561E 		strd	r1, lr, [sp, #344]
 255 0150 3894     		str	r4, [sp, #224]
 256 0152 D0F8D440 		ldr	r4, [r0, #212]
 100:Lib/AI_Runtime/Npu/ll_aton/ll_sw_float.c ****                          sw_info->bias.dim.num_elem, )
 257              		.loc 1 100 5 view .LVU73
 258 0156 CDF8C4B0 		str	fp, [sp, #196]
 102:Lib/AI_Runtime/Npu/ll_aton/ll_sw_float.c ****         conv_bias, , 0x0, 4,
 259              		.loc 1 102 5 view .LVU74
 260 015a 3994     		str	r4, [sp, #228]
 261 015c D0F8D040 		ldr	r4, [r0, #208]
 110:Lib/AI_Runtime/Npu/ll_aton/ll_sw_float.c ****                                 AI_TENSOR_LIST_OBJ_INIT(AI_FLAG_NONE, 1, TENSORS(&conv_output)),
 262              		.loc 1 110 5 view .LVU75
 263 0160 5D93     		str	r3, [sp, #372]
 102:Lib/AI_Runtime/Npu/ll_aton/ll_sw_float.c ****         conv_bias, , 0x0, 4,
 264              		.loc 1 102 5 view .LVU76
 265 0162 3A94     		str	r4, [sp, #232]
 266 0164 D0F8CC40 		ldr	r4, [r0, #204]
 267 0168 D0F8C800 		ldr	r0, [r0, #200]
 268              	.LVL1:
 102:Lib/AI_Runtime/Npu/ll_aton/ll_sw_float.c ****         conv_bias, , 0x0, 4,
 269              		.loc 1 102 5 view .LVU77
 270 016c CDF860A1 		str	r10, [sp, #352]
 271 0170 3C90     		str	r0, [sp, #240]
 272 0172 3B94     		str	r4, [sp, #236]
 110:Lib/AI_Runtime/Npu/ll_aton/ll_sw_float.c ****                                 AI_TENSOR_LIST_OBJ_INIT(AI_FLAG_NONE, 1, TENSORS(&conv_output)),
 273              		.loc 1 110 5 view .LVU78
 274 0174 CDE95E21 		strd	r2, r1, [sp, #376]
 275 0178 6093     		str	r3, [sp, #384]
 276 017a 05AB     		add	r3, sp, #20
 277 017c CDE96131 		strd	r3, r1, [sp, #388]
 278 0180 0323     		movs	r3, #3
 279 0182 6393     		str	r3, [sp, #396]
 280 0184 0AAB     		add	r3, sp, #40
 281 0186 CDE96431 		strd	r3, r1, [sp, #400]
 282 018a 0223     		movs	r3, #2
 283 018c 4FAA     		add	r2, sp, #316
 284 018e 6693     		str	r3, [sp, #408]
 285 0190 08AB     		add	r3, sp, #32
 286 0192 CDE96731 		strd	r3, r1, [sp, #412]
 287 0196 0592     		str	r2, [sp, #20]
 288 0198 5DAB     		add	r3, sp, #372
 289 019a 41AA     		add	r2, sp, #260
ARM GAS  C:\Users\DJESSOU\AppData\Local\Temp\ccdFeyMS.s 			page 9


 290 019c 0A92     		str	r2, [sp, #40]
 291 019e 0793     		str	r3, [sp, #28]
 292              		.loc 1 115 5 is_stmt 1 view .LVU79
 110:Lib/AI_Runtime/Npu/ll_aton/ll_sw_float.c ****                                 AI_TENSOR_LIST_OBJ_INIT(AI_FLAG_NONE, 1, TENSORS(&conv_output)),
 293              		.loc 1 110 5 is_stmt 0 view .LVU80
 294 01a0 56AA     		add	r2, sp, #344
 295              		.loc 1 115 5 view .LVU81
 296 01a2 334B     		ldr	r3, .L5
 110:Lib/AI_Runtime/Npu/ll_aton/ll_sw_float.c ****                                 AI_TENSOR_LIST_OBJ_INIT(AI_FLAG_NONE, 1, TENSORS(&conv_output)),
 297              		.loc 1 110 5 view .LVU82
 298 01a4 CDE90B21 		strd	r2, r1, [sp, #44]
 299              		.loc 1 115 5 view .LVU83
 300 01a8 6AA8     		add	r0, sp, #424
 301 01aa 4022     		movs	r2, #64
 302 01ac 6993     		str	r3, [sp, #420]
 110:Lib/AI_Runtime/Npu/ll_aton/ll_sw_float.c ****                                 AI_TENSOR_LIST_OBJ_INIT(AI_FLAG_NONE, 1, TENSORS(&conv_output)),
 303              		.loc 1 110 5 view .LVU84
 304 01ae CDE90811 		strd	r1, r1, [sp, #32]
 305              		.loc 1 115 5 view .LVU85
 306 01b2 FFF7FEFF 		bl	memset
 307              	.LVL2:
 308 01b6 2F4B     		ldr	r3, .L5+4
 110:Lib/AI_Runtime/Npu/ll_aton/ll_sw_float.c ****                                 AI_TENSOR_LIST_OBJ_INIT(AI_FLAG_NONE, 1, TENSORS(&conv_output)),
 309              		.loc 1 110 5 view .LVU86
 310 01b8 0DF1180B 		add	fp, sp, #24
 311              		.loc 1 115 5 view .LVU87
 312 01bc CDE96E3B 		strd	r3, fp, [sp, #440]
 313 01c0 009B     		ldr	r3, [sp]
 314 01c2 CDE97387 		strd	r8, r7, [sp, #460]
 315 01c6 3D93     		str	r3, [sp, #244]
 316 01c8 019B     		ldr	r3, [sp, #4]
 317 01ca CDE97565 		strd	r6, r5, [sp, #468]
 318 01ce 3E93     		str	r3, [sp, #248]
 319 01d0 029B     		ldr	r3, [sp, #8]
 320 01d2 CDF8C091 		str	r9, [sp, #448]
 321 01d6 3F93     		str	r3, [sp, #252]
 322 01d8 039B     		ldr	r3, [sp, #12]
 323 01da CDF8DCA1 		str	r10, [sp, #476]
 324 01de 4093     		str	r3, [sp, #256]
 325 01e0 3DAB     		add	r3, sp, #244
 326              	.L4:
 327              	.LBE5:
 328              	.LBB6:
 116:Lib/AI_Runtime/Npu/ll_aton/ll_sw_float.c ****                          NULL, NULL, , .groups = sw_info->ngroup, .nl_params = NULL, .nl_func = NUL
 117:Lib/AI_Runtime/Npu/ll_aton/ll_sw_float.c ****                          .filter_stride = SHAPE_2D_INIT(sw_info->strides[0],
 118:Lib/AI_Runtime/Npu/ll_aton/ll_sw_float.c ****                                                         sw_info->strides[1]), // controlla perche' 
 119:Lib/AI_Runtime/Npu/ll_aton/ll_sw_float.c ****                          .filter_pad =
 120:Lib/AI_Runtime/Npu/ll_aton/ll_sw_float.c ****                              SHAPE_INIT(sw_info->pads[3], sw_info->pads[2], sw_info->pads[1], sw_in
 121:Lib/AI_Runtime/Npu/ll_aton/ll_sw_float.c ****                          .dilation = SHAPE_2D_INIT(sw_info->dilations[0], sw_info->dilations[1]), )
 122:Lib/AI_Runtime/Npu/ll_aton/ll_sw_float.c ****     conv_layer.forward(AI_LAYER_OBJ(&conv_layer));
 123:Lib/AI_Runtime/Npu/ll_aton/ll_sw_float.c ****   }
 124:Lib/AI_Runtime/Npu/ll_aton/ll_sw_float.c ****   else
 125:Lib/AI_Runtime/Npu/ll_aton/ll_sw_float.c ****   {
 126:Lib/AI_Runtime/Npu/ll_aton/ll_sw_float.c ****     // tensor chain initialization
 127:Lib/AI_Runtime/Npu/ll_aton/ll_sw_float.c ****     AI_TENSOR_CHAIN_OBJ_DECLARE(conv_chain, , 4, AI_TENSOR_LIST_OBJ_INIT(AI_FLAG_NONE, 1, TENSORS(&
 128:Lib/AI_Runtime/Npu/ll_aton/ll_sw_float.c ****                                 AI_TENSOR_LIST_OBJ_INIT(AI_FLAG_NONE, 1, TENSORS(&conv_output)),
 129:Lib/AI_Runtime/Npu/ll_aton/ll_sw_float.c ****                                 AI_TENSOR_LIST_OBJ_INIT(AI_FLAG_NONE, 3, TENSORS(&conv_weights, NUL
ARM GAS  C:\Users\DJESSOU\AppData\Local\Temp\ccdFeyMS.s 			page 10


 130:Lib/AI_Runtime/Npu/ll_aton/ll_sw_float.c ****                                 AI_TENSOR_LIST_OBJ_INIT(AI_FLAG_NONE, 2, TENSORS(NULL, NULL)))
 131:Lib/AI_Runtime/Npu/ll_aton/ll_sw_float.c ****     // layer initialization
 132:Lib/AI_Runtime/Npu/ll_aton/ll_sw_float.c ****     AI_LAYER_OBJ_DECLARE(conv_layer, 1, CONV2D_TYPE, 0x0, NULL, conv2d, forward_conv2d_if32of32wf32
 133:Lib/AI_Runtime/Npu/ll_aton/ll_sw_float.c ****                          NULL, NULL, , .groups = sw_info->ngroup, .nl_params = NULL, .nl_func = NUL
 134:Lib/AI_Runtime/Npu/ll_aton/ll_sw_float.c ****                          .filter_stride = SHAPE_2D_INIT(sw_info->strides[0],
 135:Lib/AI_Runtime/Npu/ll_aton/ll_sw_float.c ****                                                         sw_info->strides[1]), // controlla perche' 
 136:Lib/AI_Runtime/Npu/ll_aton/ll_sw_float.c ****                          .filter_pad =
 137:Lib/AI_Runtime/Npu/ll_aton/ll_sw_float.c ****                              SHAPE_INIT(sw_info->pads[3], sw_info->pads[2], sw_info->pads[1], sw_in
 138:Lib/AI_Runtime/Npu/ll_aton/ll_sw_float.c ****                          .dilation = SHAPE_2D_INIT(sw_info->dilations[0], sw_info->dilations[1]), )
 139:Lib/AI_Runtime/Npu/ll_aton/ll_sw_float.c ****     conv_layer.forward(AI_LAYER_OBJ(&conv_layer));
 329              		.loc 1 139 5 view .LVU88
 330 01e2 69A8     		add	r0, sp, #420
 132:Lib/AI_Runtime/Npu/ll_aton/ll_sw_float.c ****                          NULL, NULL, , .groups = sw_info->ngroup, .nl_params = NULL, .nl_func = NUL
 331              		.loc 1 132 5 view .LVU89
 332 01e4 7893     		str	r3, [sp, #480]
 333              		.loc 1 139 5 is_stmt 1 view .LVU90
 334 01e6 FFF7FEFF 		bl	forward_conv2d_if32of32wf32_group
 335              	.LVL3:
 336              	.LBE6:
 140:Lib/AI_Runtime/Npu/ll_aton/ll_sw_float.c ****   }
 141:Lib/AI_Runtime/Npu/ll_aton/ll_sw_float.c **** }
 337              		.loc 1 141 1 is_stmt 0 view .LVU91
 338 01ea 7BB0     		add	sp, sp, #492
 339              		.cfi_remember_state
 340              		.cfi_def_cfa_offset 36
 341              		@ sp needed
 342 01ec BDE8F08F 		pop	{r4, r5, r6, r7, r8, r9, r10, fp, pc}
 343              	.LVL4:
 344              	.L2:
 345              		.cfi_restore_state
 346              	.LBB7:
 127:Lib/AI_Runtime/Npu/ll_aton/ll_sw_float.c ****                                 AI_TENSOR_LIST_OBJ_INIT(AI_FLAG_NONE, 1, TENSORS(&conv_output)),
 347              		.loc 1 127 5 is_stmt 1 view .LVU92
 348 01f0 0422     		movs	r2, #4
 349 01f2 3592     		str	r2, [sp, #212]
 350 01f4 0122     		movs	r2, #1
 351 01f6 5D92     		str	r2, [sp, #372]
 352 01f8 6092     		str	r2, [sp, #384]
 353 01fa 31AA     		add	r2, sp, #196
 354 01fc CDE96123 		strd	r2, r3, [sp, #388]
 355 0200 0322     		movs	r2, #3
 356 0202 6392     		str	r2, [sp, #396]
 357 0204 41AA     		add	r2, sp, #260
 358 0206 CDE93D23 		strd	r2, r3, [sp, #244]
 359 020a 3DAA     		add	r2, sp, #244
 360 020c CDE96423 		strd	r2, r3, [sp, #400]
 361 0210 0222     		movs	r2, #2
 362 0212 6692     		str	r2, [sp, #408]
 363 0214 39AA     		add	r2, sp, #228
 364 0216 CDE96723 		strd	r2, r3, [sp, #412]
 365 021a 5DAA     		add	r2, sp, #372
 366 021c 0AA9     		add	r1, sp, #40
 367 021e 3692     		str	r2, [sp, #216]
 132:Lib/AI_Runtime/Npu/ll_aton/ll_sw_float.c ****                          NULL, NULL, , .groups = sw_info->ngroup, .nl_params = NULL, .nl_func = NUL
 368              		.loc 1 132 5 view .LVU93
 369 0220 134A     		ldr	r2, .L5
 127:Lib/AI_Runtime/Npu/ll_aton/ll_sw_float.c ****                                 AI_TENSOR_LIST_OBJ_INIT(AI_FLAG_NONE, 1, TENSORS(&conv_output)),
ARM GAS  C:\Users\DJESSOU\AppData\Local\Temp\ccdFeyMS.s 			page 11


 370              		.loc 1 127 5 is_stmt 0 view .LVU94
 371 0222 CDE95E13 		strd	r1, r3, [sp, #376]
 372 0226 48A8     		add	r0, sp, #288
 373              	.LVL5:
 127:Lib/AI_Runtime/Npu/ll_aton/ll_sw_float.c ****                                 AI_TENSOR_LIST_OBJ_INIT(AI_FLAG_NONE, 1, TENSORS(&conv_output)),
 374              		.loc 1 127 5 view .LVU95
 375 0228 4FA9     		add	r1, sp, #316
 376 022a 0A90     		str	r0, [sp, #40]
 377 022c 3191     		str	r1, [sp, #196]
 132:Lib/AI_Runtime/Npu/ll_aton/ll_sw_float.c ****                          NULL, NULL, , .groups = sw_info->ngroup, .nl_params = NULL, .nl_func = NUL
 378              		.loc 1 132 5 view .LVU96
 379 022e 6992     		str	r2, [sp, #420]
 380 0230 1946     		mov	r1, r3
 381 0232 4022     		movs	r2, #64
 382 0234 6AA8     		add	r0, sp, #424
 127:Lib/AI_Runtime/Npu/ll_aton/ll_sw_float.c ****                                 AI_TENSOR_LIST_OBJ_INIT(AI_FLAG_NONE, 1, TENSORS(&conv_output)),
 383              		.loc 1 127 5 view .LVU97
 384 0236 CDE93933 		strd	r3, r3, [sp, #228]
 385 023a 3F93     		str	r3, [sp, #252]
 132:Lib/AI_Runtime/Npu/ll_aton/ll_sw_float.c ****                          NULL, NULL, , .groups = sw_info->ngroup, .nl_params = NULL, .nl_func = NUL
 386              		.loc 1 132 5 view .LVU98
 387 023c FFF7FEFF 		bl	memset
 388              	.LVL6:
 389 0240 0C4B     		ldr	r3, .L5+4
 127:Lib/AI_Runtime/Npu/ll_aton/ll_sw_float.c ****                                 AI_TENSOR_LIST_OBJ_INIT(AI_FLAG_NONE, 1, TENSORS(&conv_output)),
 390              		.loc 1 127 5 view .LVU99
 391 0242 0DF1D40B 		add	fp, sp, #212
 132:Lib/AI_Runtime/Npu/ll_aton/ll_sw_float.c ****                          NULL, NULL, , .groups = sw_info->ngroup, .nl_params = NULL, .nl_func = NUL
 392              		.loc 1 132 5 view .LVU100
 393 0246 CDE96E3B 		strd	r3, fp, [sp, #440]
 394 024a 009B     		ldr	r3, [sp]
 395 024c CDE97387 		strd	r8, r7, [sp, #460]
 396 0250 5693     		str	r3, [sp, #344]
 397 0252 019B     		ldr	r3, [sp, #4]
 398 0254 CDE97565 		strd	r6, r5, [sp, #468]
 399 0258 5793     		str	r3, [sp, #348]
 400 025a 029B     		ldr	r3, [sp, #8]
 401 025c CDF8C091 		str	r9, [sp, #448]
 402 0260 5893     		str	r3, [sp, #352]
 403 0262 039B     		ldr	r3, [sp, #12]
 404 0264 CDF8DCA1 		str	r10, [sp, #476]
 405 0268 5993     		str	r3, [sp, #356]
 406 026a 56AB     		add	r3, sp, #344
 407 026c B9E7     		b	.L4
 408              	.L6:
 409 026e 00BF     		.align	2
 410              	.L5:
 411 0270 03010100 		.word	65795
 412 0274 00000000 		.word	forward_conv2d_if32of32wf32_group
 413 0278 40108200 		.word	8523840
 414              	.LBE7:
 415              		.cfi_endproc
 416              	.LFE15:
 418              		.section	.text.ll_sw_forward_gemm,"ax",%progbits
 419              		.align	1
 420              		.global	ll_sw_forward_gemm
 421              		.syntax unified
ARM GAS  C:\Users\DJESSOU\AppData\Local\Temp\ccdFeyMS.s 			page 12


 422              		.thumb
 423              		.thumb_func
 425              	ll_sw_forward_gemm:
 426              	.LVL7:
 427              	.LFB16:
 142:Lib/AI_Runtime/Npu/ll_aton/ll_sw_float.c **** 
 143:Lib/AI_Runtime/Npu/ll_aton/ll_sw_float.c **** //##########################################################################################
 144:Lib/AI_Runtime/Npu/ll_aton/ll_sw_float.c **** /** GEMM forward function */
 145:Lib/AI_Runtime/Npu/ll_aton/ll_sw_float.c **** void ll_sw_forward_gemm(/* int processor, */ void *sw_info_struct)
 146:Lib/AI_Runtime/Npu/ll_aton/ll_sw_float.c **** {
 428              		.loc 1 146 1 is_stmt 1 view -0
 429              		.cfi_startproc
 430              		@ args = 0, pretend = 0, frame = 424
 431              		@ frame_needed = 0, uses_anonymous_args = 0
 147:Lib/AI_Runtime/Npu/ll_aton/ll_sw_float.c ****   Gemm_sw_info *sw_info = (Gemm_sw_info *)sw_info_struct;
 432              		.loc 1 147 3 view .LVU102
 148:Lib/AI_Runtime/Npu/ll_aton/ll_sw_float.c ****   // array init
 149:Lib/AI_Runtime/Npu/ll_aton/ll_sw_float.c ****   AI_ARRAY_OBJ_DECLARE(input_output_array, FORMAT, sw_info->general.input.mem.start_offset,
 433              		.loc 1 149 3 view .LVU103
 146:Lib/AI_Runtime/Npu/ll_aton/ll_sw_float.c ****   Gemm_sw_info *sw_info = (Gemm_sw_info *)sw_info_struct;
 434              		.loc 1 146 1 is_stmt 0 view .LVU104
 435 0000 2DE9F041 		push	{r4, r5, r6, r7, r8, lr}
 436              		.cfi_def_cfa_offset 24
 437              		.cfi_offset 4, -24
 438              		.cfi_offset 5, -20
 439              		.cfi_offset 6, -16
 440              		.cfi_offset 7, -12
 441              		.cfi_offset 8, -8
 442              		.cfi_offset 14, -4
 443              		.loc 1 149 3 view .LVU105
 444 0004 694B     		ldr	r3, .L8
 146:Lib/AI_Runtime/Npu/ll_aton/ll_sw_float.c ****   Gemm_sw_info *sw_info = (Gemm_sw_info *)sw_info_struct;
 445              		.loc 1 146 1 view .LVU106
 446 0006 EAB0     		sub	sp, sp, #424
 447              		.cfi_def_cfa_offset 448
 448              		.loc 1 149 3 view .LVU107
 449 0008 0893     		str	r3, [sp, #32]
 150:Lib/AI_Runtime/Npu/ll_aton/ll_sw_float.c ****                        sw_info->general.input.mem.start_offset, sw_info->general.input.dim.num_elem
 151:Lib/AI_Runtime/Npu/ll_aton/ll_sw_float.c **** 
 152:Lib/AI_Runtime/Npu/ll_aton/ll_sw_float.c ****   AI_ARRAY_OBJ_DECLARE(gemm_operand_b_array, FORMAT, sw_info->operand_b.mem.start_offset,
 450              		.loc 1 152 3 view .LVU108
 451 000a 0C93     		str	r3, [sp, #48]
 153:Lib/AI_Runtime/Npu/ll_aton/ll_sw_float.c ****                        sw_info->operand_b.mem.start_offset, sw_info->operand_b.dim.num_elem, )
 154:Lib/AI_Runtime/Npu/ll_aton/ll_sw_float.c **** 
 155:Lib/AI_Runtime/Npu/ll_aton/ll_sw_float.c ****   AI_ARRAY_OBJ_DECLARE(gemm_operand_c_array, FORMAT, sw_info->operand_c.mem.start_offset,
 452              		.loc 1 155 3 view .LVU109
 453 000c 1093     		str	r3, [sp, #64]
 156:Lib/AI_Runtime/Npu/ll_aton/ll_sw_float.c ****                        sw_info->operand_c.mem.start_offset, sw_info->operand_c.dim.num_elem, )
 157:Lib/AI_Runtime/Npu/ll_aton/ll_sw_float.c **** 
 158:Lib/AI_Runtime/Npu/ll_aton/ll_sw_float.c ****   AI_ARRAY_OBJ_DECLARE(gemm_output_array, FORMAT, sw_info->general.output.mem.start_offset,
 454              		.loc 1 158 3 view .LVU110
 455 000e 1493     		str	r3, [sp, #80]
 456 0010 036C     		ldr	r3, [r0, #64]
 159:Lib/AI_Runtime/Npu/ll_aton/ll_sw_float.c ****                        sw_info->general.output.mem.start_offset, sw_info->general.output.dim.num_el
 160:Lib/AI_Runtime/Npu/ll_aton/ll_sw_float.c **** 
 161:Lib/AI_Runtime/Npu/ll_aton/ll_sw_float.c ****   AI_TENSOR_OBJ_DECLARE(input_output, , 0x0, 4,
 457              		.loc 1 161 3 view .LVU111
ARM GAS  C:\Users\DJESSOU\AppData\Local\Temp\ccdFeyMS.s 			page 13


 458 0012 4FF0827C 		mov	ip, #17039360
 158:Lib/AI_Runtime/Npu/ll_aton/ll_sw_float.c ****                        sw_info->general.output.mem.start_offset, sw_info->general.output.dim.num_el
 459              		.loc 1 158 3 view .LVU112
 460 0016 1593     		str	r3, [sp, #84]
 461 0018 436D     		ldr	r3, [r0, #84]
 462              		.loc 1 161 3 view .LVU113
 463 001a 40F20148 		movw	r8, #1025
 158:Lib/AI_Runtime/Npu/ll_aton/ll_sw_float.c ****                        sw_info->general.output.mem.start_offset, sw_info->general.output.dim.num_el
 464              		.loc 1 158 3 view .LVU114
 465 001e CDE91633 		strd	r3, r3, [sp, #88]
 466              		.loc 1 161 3 view .LVU115
 467 0022 0023     		movs	r3, #0
 468 0024 40F2024E 		movw	lr, #1026
 149:Lib/AI_Runtime/Npu/ll_aton/ll_sw_float.c ****                        sw_info->general.input.mem.start_offset, sw_info->general.input.dim.num_elem
 469              		.loc 1 149 3 view .LVU116
 470 0028 4269     		ldr	r2, [r0, #20]
 471              		.loc 1 161 3 view .LVU117
 472 002a 0669     		ldr	r6, [r0, #16]
 149:Lib/AI_Runtime/Npu/ll_aton/ll_sw_float.c ****                        sw_info->general.input.mem.start_offset, sw_info->general.input.dim.num_elem
 473              		.loc 1 149 3 view .LVU118
 474 002c 0992     		str	r2, [sp, #36]
 475 002e 826A     		ldr	r2, [r0, #40]
 476              		.loc 1 161 3 view .LVU119
 477 0030 CDE9383C 		strd	r3, ip, [sp, #224]
 149:Lib/AI_Runtime/Npu/ll_aton/ll_sw_float.c ****                        sw_info->general.input.mem.start_offset, sw_info->general.input.dim.num_elem
 478              		.loc 1 149 3 view .LVU120
 479 0034 CDE90A22 		strd	r2, r2, [sp, #40]
 152:Lib/AI_Runtime/Npu/ll_aton/ll_sw_float.c ****                        sw_info->operand_b.mem.start_offset, sw_info->operand_b.dim.num_elem, )
 480              		.loc 1 152 3 is_stmt 1 view .LVU121
 481 0038 C26E     		ldr	r2, [r0, #108]
 482              		.loc 1 161 3 is_stmt 0 view .LVU122
 483 003a CDF8E880 		str	r8, [sp, #232]
 152:Lib/AI_Runtime/Npu/ll_aton/ll_sw_float.c ****                        sw_info->operand_b.mem.start_offset, sw_info->operand_b.dim.num_elem, )
 484              		.loc 1 152 3 view .LVU123
 485 003e 0D92     		str	r2, [sp, #52]
 486 0040 D0F88020 		ldr	r2, [r0, #128]
 487              		.loc 1 161 3 view .LVU124
 488 0044 1896     		str	r6, [sp, #96]
 152:Lib/AI_Runtime/Npu/ll_aton/ll_sw_float.c ****                        sw_info->operand_b.mem.start_offset, sw_info->operand_b.dim.num_elem, )
 489              		.loc 1 152 3 view .LVU125
 490 0046 CDE90E22 		strd	r2, r2, [sp, #56]
 155:Lib/AI_Runtime/Npu/ll_aton/ll_sw_float.c ****                        sw_info->operand_c.mem.start_offset, sw_info->operand_c.dim.num_elem, )
 491              		.loc 1 155 3 is_stmt 1 view .LVU126
 492 004a D0F89820 		ldr	r2, [r0, #152]
 493              		.loc 1 161 3 is_stmt 0 view .LVU127
 494 004e 18AF     		add	r7, sp, #96
 155:Lib/AI_Runtime/Npu/ll_aton/ll_sw_float.c ****                        sw_info->operand_c.mem.start_offset, sw_info->operand_c.dim.num_elem, )
 495              		.loc 1 155 3 view .LVU128
 496 0050 1192     		str	r2, [sp, #68]
 497 0052 D0F8AC20 		ldr	r2, [r0, #172]
 149:Lib/AI_Runtime/Npu/ll_aton/ll_sw_float.c ****                        sw_info->general.input.mem.start_offset, sw_info->general.input.dim.num_elem
 498              		.loc 1 149 3 view .LVU129
 499 0056 08AD     		add	r5, sp, #32
 155:Lib/AI_Runtime/Npu/ll_aton/ll_sw_float.c ****                        sw_info->operand_c.mem.start_offset, sw_info->operand_c.dim.num_elem, )
 500              		.loc 1 155 3 view .LVU130
 501 0058 CDE91222 		strd	r2, r2, [sp, #72]
 158:Lib/AI_Runtime/Npu/ll_aton/ll_sw_float.c ****                        sw_info->general.output.mem.start_offset, sw_info->general.output.dim.num_el
ARM GAS  C:\Users\DJESSOU\AppData\Local\Temp\ccdFeyMS.s 			page 14


 502              		.loc 1 158 3 is_stmt 1 view .LVU131
 503              		.loc 1 161 3 view .LVU132
 504 005c C668     		ldr	r6, [r0, #12]
 505 005e 3B97     		str	r7, [sp, #236]
 506 0060 1996     		str	r6, [sp, #100]
 507 0062 8668     		ldr	r6, [r0, #8]
 508 0064 1CAF     		add	r7, sp, #112
 509 0066 CDE93D75 		strd	r7, r5, [sp, #244]
 162:Lib/AI_Runtime/Npu/ll_aton/ll_sw_float.c ****                         SHAPE_INIT(sw_info->general.input.dim.tensor_h, sw_info->general.input.dim.
 163:Lib/AI_Runtime/Npu/ll_aton/ll_sw_float.c ****                                    sw_info->general.input.dim.tensor_c, sw_info->general.input.dim.
 164:Lib/AI_Runtime/Npu/ll_aton/ll_sw_float.c ****                         STRIDE_INIT(sw_info->general.input.stride.h, sw_info->general.input.stride.
 165:Lib/AI_Runtime/Npu/ll_aton/ll_sw_float.c ****                                     sw_info->general.input.stride.c, sw_info->general.input.stride.
 166:Lib/AI_Runtime/Npu/ll_aton/ll_sw_float.c ****                         1, &input_output_array, NULL);
 510              		.loc 1 166 54 view .LVU133
 167:Lib/AI_Runtime/Npu/ll_aton/ll_sw_float.c ****   AI_TENSOR_OBJ_DECLARE(gemm_operand_b, , 0x0, 4,
 511              		.loc 1 167 3 view .LVU134
 161:Lib/AI_Runtime/Npu/ll_aton/ll_sw_float.c ****                         SHAPE_INIT(sw_info->general.input.dim.tensor_h, sw_info->general.input.dim.
 512              		.loc 1 161 3 is_stmt 0 view .LVU135
 513 006a 1A96     		str	r6, [sp, #104]
 514              		.loc 1 167 3 view .LVU136
 515 006c 856E     		ldr	r5, [r0, #104]
 161:Lib/AI_Runtime/Npu/ll_aton/ll_sw_float.c ****                         SHAPE_INIT(sw_info->general.input.dim.tensor_h, sw_info->general.input.dim.
 516              		.loc 1 161 3 view .LVU137
 517 006e 4668     		ldr	r6, [r0, #4]
 518              		.loc 1 167 3 view .LVU138
 519 0070 2095     		str	r5, [sp, #128]
 161:Lib/AI_Runtime/Npu/ll_aton/ll_sw_float.c ****                         SHAPE_INIT(sw_info->general.input.dim.tensor_h, sw_info->general.input.dim.
 520              		.loc 1 161 3 view .LVU139
 521 0072 1B96     		str	r6, [sp, #108]
 522              		.loc 1 167 3 view .LVU140
 523 0074 456E     		ldr	r5, [r0, #100]
 161:Lib/AI_Runtime/Npu/ll_aton/ll_sw_float.c ****                         SHAPE_INIT(sw_info->general.input.dim.tensor_h, sw_info->general.input.dim.
 524              		.loc 1 161 3 view .LVU141
 525 0076 466A     		ldr	r6, [r0, #36]
 526              		.loc 1 167 3 view .LVU142
 527 0078 2195     		str	r5, [sp, #132]
 161:Lib/AI_Runtime/Npu/ll_aton/ll_sw_float.c ****                         SHAPE_INIT(sw_info->general.input.dim.tensor_h, sw_info->general.input.dim.
 528              		.loc 1 161 3 view .LVU143
 529 007a 1C96     		str	r6, [sp, #112]
 530              		.loc 1 167 3 view .LVU144
 531 007c 056E     		ldr	r5, [r0, #96]
 161:Lib/AI_Runtime/Npu/ll_aton/ll_sw_float.c ****                         SHAPE_INIT(sw_info->general.input.dim.tensor_h, sw_info->general.input.dim.
 532              		.loc 1 161 3 view .LVU145
 533 007e 066A     		ldr	r6, [r0, #32]
 534              		.loc 1 167 3 view .LVU146
 535 0080 2295     		str	r5, [sp, #136]
 161:Lib/AI_Runtime/Npu/ll_aton/ll_sw_float.c ****                         SHAPE_INIT(sw_info->general.input.dim.tensor_h, sw_info->general.input.dim.
 536              		.loc 1 161 3 view .LVU147
 537 0082 1D96     		str	r6, [sp, #116]
 538              		.loc 1 167 3 view .LVU148
 539 0084 C56D     		ldr	r5, [r0, #92]
 161:Lib/AI_Runtime/Npu/ll_aton/ll_sw_float.c ****                         SHAPE_INIT(sw_info->general.input.dim.tensor_h, sw_info->general.input.dim.
 540              		.loc 1 161 3 view .LVU149
 541 0086 C669     		ldr	r6, [r0, #28]
 542              		.loc 1 167 3 view .LVU150
 543 0088 20AF     		add	r7, sp, #128
 161:Lib/AI_Runtime/Npu/ll_aton/ll_sw_float.c ****                         SHAPE_INIT(sw_info->general.input.dim.tensor_h, sw_info->general.input.dim.
ARM GAS  C:\Users\DJESSOU\AppData\Local\Temp\ccdFeyMS.s 			page 15


 544              		.loc 1 161 3 view .LVU151
 545 008a 1E96     		str	r6, [sp, #120]
 546              		.loc 1 167 3 view .LVU152
 547 008c 2395     		str	r5, [sp, #140]
 161:Lib/AI_Runtime/Npu/ll_aton/ll_sw_float.c ****                         SHAPE_INIT(sw_info->general.input.dim.tensor_h, sw_info->general.input.dim.
 548              		.loc 1 161 3 view .LVU153
 549 008e 8669     		ldr	r6, [r0, #24]
 550              		.loc 1 167 3 view .LVU154
 551 0090 C56F     		ldr	r5, [r0, #124]
 552 0092 CDE9427E 		strd	r7, lr, [sp, #264]
 152:Lib/AI_Runtime/Npu/ll_aton/ll_sw_float.c ****                        sw_info->operand_b.mem.start_offset, sw_info->operand_b.dim.num_elem, )
 553              		.loc 1 152 3 view .LVU155
 554 0096 0CAC     		add	r4, sp, #48
 555              		.loc 1 167 3 view .LVU156
 556 0098 24AF     		add	r7, sp, #144
 557 009a CDE93F3C 		strd	r3, ip, [sp, #252]
 161:Lib/AI_Runtime/Npu/ll_aton/ll_sw_float.c ****                         SHAPE_INIT(sw_info->general.input.dim.tensor_h, sw_info->general.input.dim.
 558              		.loc 1 161 3 view .LVU157
 559 009e CDF8F0E0 		str	lr, [sp, #240]
 560 00a2 1F96     		str	r6, [sp, #124]
 561              		.loc 1 167 3 view .LVU158
 562 00a4 CDF80481 		str	r8, [sp, #260]
 563 00a8 2495     		str	r5, [sp, #144]
 564 00aa CDE94474 		strd	r7, r4, [sp, #272]
 168:Lib/AI_Runtime/Npu/ll_aton/ll_sw_float.c ****                         SHAPE_INIT(sw_info->operand_b.dim.tensor_h, sw_info->operand_b.dim.tensor_w
 169:Lib/AI_Runtime/Npu/ll_aton/ll_sw_float.c ****                                    sw_info->operand_b.dim.tensor_c, sw_info->operand_b.dim.tensor_b
 170:Lib/AI_Runtime/Npu/ll_aton/ll_sw_float.c ****                         STRIDE_INIT(sw_info->operand_b.stride.h, sw_info->operand_b.stride.w,
 171:Lib/AI_Runtime/Npu/ll_aton/ll_sw_float.c ****                                     sw_info->operand_b.stride.c, sw_info->operand_b.stride.b),
 172:Lib/AI_Runtime/Npu/ll_aton/ll_sw_float.c ****                         1, &gemm_operand_b_array, NULL);
 565              		.loc 1 172 56 is_stmt 1 view .LVU159
 173:Lib/AI_Runtime/Npu/ll_aton/ll_sw_float.c ****   AI_TENSOR_OBJ_DECLARE(gemm_operand_c, , 0x0, 4,
 566              		.loc 1 173 3 view .LVU160
 567 00ae D0F89440 		ldr	r4, [r0, #148]
 167:Lib/AI_Runtime/Npu/ll_aton/ll_sw_float.c ****                         SHAPE_INIT(sw_info->operand_b.dim.tensor_h, sw_info->operand_b.dim.tensor_w
 568              		.loc 1 167 3 is_stmt 0 view .LVU161
 569 00b2 856F     		ldr	r5, [r0, #120]
 570              		.loc 1 173 3 view .LVU162
 571 00b4 2894     		str	r4, [sp, #160]
 572 00b6 D0F89040 		ldr	r4, [r0, #144]
 167:Lib/AI_Runtime/Npu/ll_aton/ll_sw_float.c ****                         SHAPE_INIT(sw_info->operand_b.dim.tensor_h, sw_info->operand_b.dim.tensor_w
 573              		.loc 1 167 3 view .LVU163
 574 00ba 2595     		str	r5, [sp, #148]
 575              		.loc 1 173 3 view .LVU164
 576 00bc 2994     		str	r4, [sp, #164]
 577 00be D0F88C40 		ldr	r4, [r0, #140]
 167:Lib/AI_Runtime/Npu/ll_aton/ll_sw_float.c ****                         SHAPE_INIT(sw_info->operand_b.dim.tensor_h, sw_info->operand_b.dim.tensor_w
 578              		.loc 1 167 3 view .LVU165
 579 00c2 456F     		ldr	r5, [r0, #116]
 580              		.loc 1 173 3 view .LVU166
 581 00c4 2A94     		str	r4, [sp, #168]
 582 00c6 D0F88840 		ldr	r4, [r0, #136]
 167:Lib/AI_Runtime/Npu/ll_aton/ll_sw_float.c ****                         SHAPE_INIT(sw_info->operand_b.dim.tensor_h, sw_info->operand_b.dim.tensor_w
 583              		.loc 1 167 3 view .LVU167
 584 00ca 2695     		str	r5, [sp, #152]
 585              		.loc 1 173 3 view .LVU168
 586 00cc 2B94     		str	r4, [sp, #172]
 587 00ce D0F8A840 		ldr	r4, [r0, #168]
ARM GAS  C:\Users\DJESSOU\AppData\Local\Temp\ccdFeyMS.s 			page 16


 167:Lib/AI_Runtime/Npu/ll_aton/ll_sw_float.c ****                         SHAPE_INIT(sw_info->operand_b.dim.tensor_h, sw_info->operand_b.dim.tensor_w
 588              		.loc 1 167 3 view .LVU169
 589 00d2 056F     		ldr	r5, [r0, #112]
 590              		.loc 1 173 3 view .LVU170
 591 00d4 2C94     		str	r4, [sp, #176]
 592 00d6 D0F8A440 		ldr	r4, [r0, #164]
 155:Lib/AI_Runtime/Npu/ll_aton/ll_sw_float.c ****                        sw_info->operand_c.mem.start_offset, sw_info->operand_c.dim.num_elem, )
 593              		.loc 1 155 3 view .LVU171
 594 00da 10A9     		add	r1, sp, #64
 595              		.loc 1 173 3 view .LVU172
 596 00dc 2D94     		str	r4, [sp, #180]
 597 00de D0F8A040 		ldr	r4, [r0, #160]
 167:Lib/AI_Runtime/Npu/ll_aton/ll_sw_float.c ****                         SHAPE_INIT(sw_info->operand_b.dim.tensor_h, sw_info->operand_b.dim.tensor_w
 598              		.loc 1 167 3 view .LVU173
 599 00e2 2795     		str	r5, [sp, #156]
 600              		.loc 1 173 3 view .LVU174
 601 00e4 2E94     		str	r4, [sp, #184]
 602 00e6 D0F89C40 		ldr	r4, [r0, #156]
 603 00ea 28AD     		add	r5, sp, #160
 604 00ec 2F94     		str	r4, [sp, #188]
 605 00ee 2CAC     		add	r4, sp, #176
 606 00f0 CDE9463C 		strd	r3, ip, [sp, #280]
 607 00f4 CDE94B41 		strd	r4, r1, [sp, #300]
 174:Lib/AI_Runtime/Npu/ll_aton/ll_sw_float.c ****                         SHAPE_INIT(sw_info->operand_c.dim.tensor_h, sw_info->operand_c.dim.tensor_w
 175:Lib/AI_Runtime/Npu/ll_aton/ll_sw_float.c ****                                    sw_info->operand_c.dim.tensor_c, sw_info->operand_c.dim.tensor_b
 176:Lib/AI_Runtime/Npu/ll_aton/ll_sw_float.c ****                         STRIDE_INIT(sw_info->operand_c.stride.h, sw_info->operand_c.stride.w,
 177:Lib/AI_Runtime/Npu/ll_aton/ll_sw_float.c ****                                     sw_info->operand_c.stride.c, sw_info->operand_c.stride.b),
 178:Lib/AI_Runtime/Npu/ll_aton/ll_sw_float.c ****                         1, &gemm_operand_c_array, NULL);
 608              		.loc 1 178 56 is_stmt 1 view .LVU175
 179:Lib/AI_Runtime/Npu/ll_aton/ll_sw_float.c **** 
 180:Lib/AI_Runtime/Npu/ll_aton/ll_sw_float.c ****   AI_TENSOR_OBJ_DECLARE(gemm_output, , 0x0, 4,
 609              		.loc 1 180 3 view .LVU176
 173:Lib/AI_Runtime/Npu/ll_aton/ll_sw_float.c ****                         SHAPE_INIT(sw_info->operand_c.dim.tensor_h, sw_info->operand_c.dim.tensor_w
 610              		.loc 1 173 3 is_stmt 0 view .LVU177
 611 00f8 CDE9495E 		strd	r5, lr, [sp, #292]
 612 00fc CDF82081 		str	r8, [sp, #288]
 613              		.loc 1 180 3 view .LVU178
 614 0100 CDE94D3C 		strd	r3, ip, [sp, #308]
 615 0104 C16B     		ldr	r1, [r0, #60]
 158:Lib/AI_Runtime/Npu/ll_aton/ll_sw_float.c ****                        sw_info->general.output.mem.start_offset, sw_info->general.output.dim.num_el
 616              		.loc 1 158 3 view .LVU179
 617 0106 14AA     		add	r2, sp, #80
 618              		.loc 1 180 3 view .LVU180
 619 0108 3091     		str	r1, [sp, #192]
 620 010a 816B     		ldr	r1, [r0, #56]
 181:Lib/AI_Runtime/Npu/ll_aton/ll_sw_float.c ****                         SHAPE_INIT(sw_info->general.output.dim.tensor_h, sw_info->general.output.di
 182:Lib/AI_Runtime/Npu/ll_aton/ll_sw_float.c ****                                    sw_info->general.output.dim.tensor_c, sw_info->general.output.di
 183:Lib/AI_Runtime/Npu/ll_aton/ll_sw_float.c ****                         STRIDE_INIT(sw_info->general.output.stride.h, sw_info->general.output.strid
 184:Lib/AI_Runtime/Npu/ll_aton/ll_sw_float.c ****                                     sw_info->general.output.stride.c, sw_info->general.output.strid
 185:Lib/AI_Runtime/Npu/ll_aton/ll_sw_float.c ****                         1, &gemm_output_array, NULL);
 186:Lib/AI_Runtime/Npu/ll_aton/ll_sw_float.c ****   // tensor chain initialization
 187:Lib/AI_Runtime/Npu/ll_aton/ll_sw_float.c ****   AI_TENSOR_CHAIN_OBJ_DECLARE(
 621              		.loc 1 187 3 view .LVU181
 622 010c 38AC     		add	r4, sp, #224
 180:Lib/AI_Runtime/Npu/ll_aton/ll_sw_float.c ****                         SHAPE_INIT(sw_info->general.output.dim.tensor_h, sw_info->general.output.di
 623              		.loc 1 180 3 view .LVU182
 624 010e 3191     		str	r1, [sp, #196]
ARM GAS  C:\Users\DJESSOU\AppData\Local\Temp\ccdFeyMS.s 			page 17


 625 0110 416B     		ldr	r1, [r0, #52]
 626              		.loc 1 187 3 view .LVU183
 627 0112 0594     		str	r4, [sp, #20]
 180:Lib/AI_Runtime/Npu/ll_aton/ll_sw_float.c ****                         SHAPE_INIT(sw_info->general.output.dim.tensor_h, sw_info->general.output.di
 628              		.loc 1 180 3 view .LVU184
 629 0114 3291     		str	r1, [sp, #200]
 630 0116 016B     		ldr	r1, [r0, #48]
 631              		.loc 1 187 3 view .LVU185
 632 0118 3FAC     		add	r4, sp, #252
 180:Lib/AI_Runtime/Npu/ll_aton/ll_sw_float.c ****                         SHAPE_INIT(sw_info->general.output.dim.tensor_h, sw_info->general.output.di
 633              		.loc 1 180 3 view .LVU186
 634 011a 3391     		str	r1, [sp, #204]
 635 011c 30A9     		add	r1, sp, #192
 636 011e CDE9501E 		strd	r1, lr, [sp, #320]
 637 0122 016D     		ldr	r1, [r0, #80]
 638              		.loc 1 187 3 view .LVU187
 639 0124 0694     		str	r4, [sp, #24]
 180:Lib/AI_Runtime/Npu/ll_aton/ll_sw_float.c ****                         SHAPE_INIT(sw_info->general.output.dim.tensor_h, sw_info->general.output.di
 640              		.loc 1 180 3 view .LVU188
 641 0126 3491     		str	r1, [sp, #208]
 642 0128 C16C     		ldr	r1, [r0, #76]
 643              		.loc 1 187 3 view .LVU189
 644 012a 46AC     		add	r4, sp, #280
 180:Lib/AI_Runtime/Npu/ll_aton/ll_sw_float.c ****                         SHAPE_INIT(sw_info->general.output.dim.tensor_h, sw_info->general.output.di
 645              		.loc 1 180 3 view .LVU190
 646 012c 3591     		str	r1, [sp, #212]
 647 012e 816C     		ldr	r1, [r0, #72]
 648 0130 CDF83C81 		str	r8, [sp, #316]
 649 0134 3691     		str	r1, [sp, #216]
 650 0136 416C     		ldr	r1, [r0, #68]
 651              		.loc 1 187 3 view .LVU191
 652 0138 0794     		str	r4, [sp, #28]
 180:Lib/AI_Runtime/Npu/ll_aton/ll_sw_float.c ****                         SHAPE_INIT(sw_info->general.output.dim.tensor_h, sw_info->general.output.di
 653              		.loc 1 180 3 view .LVU192
 654 013a 3791     		str	r1, [sp, #220]
 655 013c 34A9     		add	r1, sp, #208
 656 013e CDE95212 		strd	r1, r2, [sp, #328]
 185:Lib/AI_Runtime/Npu/ll_aton/ll_sw_float.c ****   // tensor chain initialization
 657              		.loc 1 185 53 is_stmt 1 view .LVU193
 658              		.loc 1 187 3 view .LVU194
 659 0142 0422     		movs	r2, #4
 660 0144 0392     		str	r2, [sp, #12]
 661 0146 0322     		movs	r2, #3
 662 0148 5E92     		str	r2, [sp, #376]
 663 014a 05AA     		add	r2, sp, #20
 664 014c CDE95F23 		strd	r2, r3, [sp, #380]
 665 0150 0122     		movs	r2, #1
 666 0152 6192     		str	r2, [sp, #388]
 667 0154 4DAA     		add	r2, sp, #308
 668 0156 0092     		str	r2, [sp]
 669 0158 01AA     		add	r2, sp, #4
 670 015a CDF888D1 		str	sp, [sp, #392]
 671 015e CDE96333 		strd	r3, r3, [sp, #396]
 672 0162 CDE96523 		strd	r2, r3, [sp, #404]
 673 0166 02AA     		add	r2, sp, #8
 674 0168 CDE96823 		strd	r2, r3, [sp, #416]
 675 016c 5EAA     		add	r2, sp, #376
ARM GAS  C:\Users\DJESSOU\AppData\Local\Temp\ccdFeyMS.s 			page 18


 676 016e 0492     		str	r2, [sp, #16]
 188:Lib/AI_Runtime/Npu/ll_aton/ll_sw_float.c ****       gemm_chain, , 4,
 189:Lib/AI_Runtime/Npu/ll_aton/ll_sw_float.c ****       AI_TENSOR_LIST_OBJ_INIT(AI_FLAG_NONE, 3, TENSORS(&input_output, &gemm_operand_b, &gemm_operan
 190:Lib/AI_Runtime/Npu/ll_aton/ll_sw_float.c ****       AI_TENSOR_LIST_OBJ_INIT(AI_FLAG_NONE, 1, TENSORS(&gemm_output)), AI_TENSOR_LIST_OBJ_EMPTY,
 191:Lib/AI_Runtime/Npu/ll_aton/ll_sw_float.c ****       AI_TENSOR_LIST_OBJ_EMPTY)
 192:Lib/AI_Runtime/Npu/ll_aton/ll_sw_float.c ****   // layer initialization
 193:Lib/AI_Runtime/Npu/ll_aton/ll_sw_float.c ****   AI_LAYER_OBJ_DECLARE(gemm_layer, 1, GEMM_TYPE, 0x0, NULL, gemm, forward_gemm, &gemm_chain, NULL, 
 677              		.loc 1 193 3 view .LVU195
 678 0170 0F4A     		ldr	r2, .L8+4
 679 0172 CDE95633 		strd	r3, r3, [sp, #344]
 680 0176 CDE95423 		strd	r2, r3, [sp, #336]
 187:Lib/AI_Runtime/Npu/ll_aton/ll_sw_float.c ****       gemm_chain, , 4,
 681              		.loc 1 187 3 is_stmt 0 view .LVU196
 682 017a 0193     		str	r3, [sp, #4]
 683 017c 6793     		str	r3, [sp, #412]
 684 017e 0293     		str	r3, [sp, #8]
 685              		.loc 1 193 3 view .LVU197
 686 0180 5893     		str	r3, [sp, #352]
 687 0182 0C4B     		ldr	r3, .L8+8
 187:Lib/AI_Runtime/Npu/ll_aton/ll_sw_float.c ****       gemm_chain, , 4,
 688              		.loc 1 187 3 view .LVU198
 689 0184 03A9     		add	r1, sp, #12
 690              		.loc 1 193 3 view .LVU199
 691 0186 CDE95931 		strd	r3, r1, [sp, #356]
 692 018a D0F8B830 		ldr	r3, [r0, #184]	@ float
 693 018e D0F8B420 		ldr	r2, [r0, #180]	@ float
 694 0192 5C93     		str	r3, [sp, #368]	@ float
 695 0194 B0F8BC30 		ldrh	r3, [r0, #188]
 194:Lib/AI_Runtime/Npu/ll_aton/ll_sw_float.c ****                        .alpha = sw_info->alpha, .beta = sw_info->beta, .tA = sw_info->tA, .tB = sw_
 195:Lib/AI_Runtime/Npu/ll_aton/ll_sw_float.c ****   gemm_layer.forward(AI_LAYER_OBJ(&gemm_layer));
 696              		.loc 1 195 3 view .LVU200
 697 0198 54A8     		add	r0, sp, #336
 698              	.LVL8:
 193:Lib/AI_Runtime/Npu/ll_aton/ll_sw_float.c ****                        .alpha = sw_info->alpha, .beta = sw_info->beta, .tA = sw_info->tA, .tB = sw_
 699              		.loc 1 193 3 view .LVU201
 700 019a 5B92     		str	r2, [sp, #364]	@ float
 701 019c ADF87431 		strh	r3, [sp, #372]	@ movhi
 702              		.loc 1 195 3 is_stmt 1 view .LVU202
 703 01a0 FFF7FEFF 		bl	forward_gemm
 704              	.LVL9:
 196:Lib/AI_Runtime/Npu/ll_aton/ll_sw_float.c **** }
 705              		.loc 1 196 1 is_stmt 0 view .LVU203
 706 01a4 6AB0     		add	sp, sp, #424
 707              		.cfi_def_cfa_offset 24
 708              		@ sp needed
 709 01a6 BDE8F081 		pop	{r4, r5, r6, r7, r8, pc}
 710              	.L9:
 711 01aa 00BF     		.align	2
 712              	.L8:
 713 01ac 40108200 		.word	8523840
 714 01b0 11010100 		.word	65809
 715 01b4 00000000 		.word	forward_gemm
 716              		.cfi_endproc
 717              	.LFE16:
 719              		.section	.text.ll_sw_forward_matmul,"ax",%progbits
 720              		.align	1
 721              		.global	ll_sw_forward_matmul
ARM GAS  C:\Users\DJESSOU\AppData\Local\Temp\ccdFeyMS.s 			page 19


 722              		.syntax unified
 723              		.thumb
 724              		.thumb_func
 726              	ll_sw_forward_matmul:
 727              	.LVL10:
 728              	.LFB17:
 197:Lib/AI_Runtime/Npu/ll_aton/ll_sw_float.c **** 
 198:Lib/AI_Runtime/Npu/ll_aton/ll_sw_float.c **** //##########################################################################################
 199:Lib/AI_Runtime/Npu/ll_aton/ll_sw_float.c **** /** MatMul forward function */
 200:Lib/AI_Runtime/Npu/ll_aton/ll_sw_float.c **** void ll_sw_forward_matmul(/* int processor, */ void *sw_info_struct)
 201:Lib/AI_Runtime/Npu/ll_aton/ll_sw_float.c **** {
 729              		.loc 1 201 1 is_stmt 1 view -0
 730              		.cfi_startproc
 731              		@ args = 0, pretend = 0, frame = 336
 732              		@ frame_needed = 0, uses_anonymous_args = 0
 202:Lib/AI_Runtime/Npu/ll_aton/ll_sw_float.c ****   Matmul_sw_info *sw_info = (Matmul_sw_info *)sw_info_struct;
 733              		.loc 1 202 3 view .LVU205
 203:Lib/AI_Runtime/Npu/ll_aton/ll_sw_float.c ****   // array init
 204:Lib/AI_Runtime/Npu/ll_aton/ll_sw_float.c ****   AI_ARRAY_OBJ_DECLARE(input_output_array, FORMAT, sw_info->general.input.mem.start_offset,
 734              		.loc 1 204 3 view .LVU206
 201:Lib/AI_Runtime/Npu/ll_aton/ll_sw_float.c ****   Matmul_sw_info *sw_info = (Matmul_sw_info *)sw_info_struct;
 735              		.loc 1 201 1 is_stmt 0 view .LVU207
 736 0000 F0B5     		push	{r4, r5, r6, r7, lr}
 737              		.cfi_def_cfa_offset 20
 738              		.cfi_offset 4, -20
 739              		.cfi_offset 5, -16
 740              		.cfi_offset 6, -12
 741              		.cfi_offset 7, -8
 742              		.cfi_offset 14, -4
 743              		.loc 1 204 3 view .LVU208
 744 0002 4B49     		ldr	r1, .L11
 201:Lib/AI_Runtime/Npu/ll_aton/ll_sw_float.c ****   Matmul_sw_info *sw_info = (Matmul_sw_info *)sw_info_struct;
 745              		.loc 1 201 1 view .LVU209
 746 0004 D5B0     		sub	sp, sp, #340
 747              		.cfi_def_cfa_offset 360
 748              		.loc 1 204 3 view .LVU210
 749 0006 0791     		str	r1, [sp, #28]
 205:Lib/AI_Runtime/Npu/ll_aton/ll_sw_float.c ****                        sw_info->general.input.mem.start_offset, sw_info->general.input.dim.num_elem
 206:Lib/AI_Runtime/Npu/ll_aton/ll_sw_float.c **** 
 207:Lib/AI_Runtime/Npu/ll_aton/ll_sw_float.c ****   AI_ARRAY_OBJ_DECLARE(matmul_operand_b_array, FORMAT, sw_info->operand_b.mem.start_offset,
 750              		.loc 1 207 3 view .LVU211
 751 0008 0B91     		str	r1, [sp, #44]
 208:Lib/AI_Runtime/Npu/ll_aton/ll_sw_float.c ****                        sw_info->operand_b.mem.start_offset, sw_info->operand_b.dim.num_elem, )
 209:Lib/AI_Runtime/Npu/ll_aton/ll_sw_float.c **** 
 210:Lib/AI_Runtime/Npu/ll_aton/ll_sw_float.c ****   AI_ARRAY_OBJ_DECLARE(matmul_output_array, FORMAT, sw_info->general.output.mem.start_offset,
 752              		.loc 1 210 3 view .LVU212
 753 000a 0F91     		str	r1, [sp, #60]
 754 000c 016C     		ldr	r1, [r0, #64]
 211:Lib/AI_Runtime/Npu/ll_aton/ll_sw_float.c ****                        sw_info->general.output.mem.start_offset, sw_info->general.output.dim.num_el
 212:Lib/AI_Runtime/Npu/ll_aton/ll_sw_float.c **** 
 213:Lib/AI_Runtime/Npu/ll_aton/ll_sw_float.c ****   AI_TENSOR_OBJ_DECLARE(input_output, , 0x0, 4,
 755              		.loc 1 213 3 view .LVU213
 756 000e 4FF0827C 		mov	ip, #17039360
 210:Lib/AI_Runtime/Npu/ll_aton/ll_sw_float.c ****                        sw_info->general.output.mem.start_offset, sw_info->general.output.dim.num_el
 757              		.loc 1 210 3 view .LVU214
 758 0012 1091     		str	r1, [sp, #64]
 759 0014 416D     		ldr	r1, [r0, #84]
ARM GAS  C:\Users\DJESSOU\AppData\Local\Temp\ccdFeyMS.s 			page 20


 760              		.loc 1 213 3 view .LVU215
 761 0016 40F20146 		movw	r6, #1025
 210:Lib/AI_Runtime/Npu/ll_aton/ll_sw_float.c ****                        sw_info->general.output.mem.start_offset, sw_info->general.output.dim.num_el
 762              		.loc 1 210 3 view .LVU216
 763 001a CDE91111 		strd	r1, r1, [sp, #68]
 764              		.loc 1 213 3 view .LVU217
 765 001e 0021     		movs	r1, #0
 766 0020 0769     		ldr	r7, [r0, #16]
 204:Lib/AI_Runtime/Npu/ll_aton/ll_sw_float.c ****                        sw_info->general.input.mem.start_offset, sw_info->general.input.dim.num_elem
 767              		.loc 1 204 3 view .LVU218
 768 0022 4369     		ldr	r3, [r0, #20]
 769              		.loc 1 213 3 view .LVU219
 770 0024 1397     		str	r7, [sp, #76]
 771 0026 C768     		ldr	r7, [r0, #12]
 204:Lib/AI_Runtime/Npu/ll_aton/ll_sw_float.c ****                        sw_info->general.input.mem.start_offset, sw_info->general.input.dim.num_elem
 772              		.loc 1 204 3 view .LVU220
 773 0028 0893     		str	r3, [sp, #32]
 774              		.loc 1 213 3 view .LVU221
 775 002a 1497     		str	r7, [sp, #80]
 776 002c 8768     		ldr	r7, [r0, #8]
 204:Lib/AI_Runtime/Npu/ll_aton/ll_sw_float.c ****                        sw_info->general.input.mem.start_offset, sw_info->general.input.dim.num_elem
 777              		.loc 1 204 3 view .LVU222
 778 002e 836A     		ldr	r3, [r0, #40]
 779              		.loc 1 213 3 view .LVU223
 780 0030 1597     		str	r7, [sp, #84]
 781 0032 4768     		ldr	r7, [r0, #4]
 204:Lib/AI_Runtime/Npu/ll_aton/ll_sw_float.c ****                        sw_info->general.input.mem.start_offset, sw_info->general.input.dim.num_elem
 782              		.loc 1 204 3 view .LVU224
 783 0034 CDE90933 		strd	r3, r3, [sp, #36]
 207:Lib/AI_Runtime/Npu/ll_aton/ll_sw_float.c ****                        sw_info->operand_b.mem.start_offset, sw_info->operand_b.dim.num_elem, )
 784              		.loc 1 207 3 is_stmt 1 view .LVU225
 785              		.loc 1 213 3 is_stmt 0 view .LVU226
 786 0038 1697     		str	r7, [sp, #88]
 787 003a 40F20247 		movw	r7, #1026
 207:Lib/AI_Runtime/Npu/ll_aton/ll_sw_float.c ****                        sw_info->operand_b.mem.start_offset, sw_info->operand_b.dim.num_elem, )
 788              		.loc 1 207 3 view .LVU227
 789 003e C36E     		ldr	r3, [r0, #108]
 790              		.loc 1 213 3 view .LVU228
 791 0040 13AD     		add	r5, sp, #76
 207:Lib/AI_Runtime/Npu/ll_aton/ll_sw_float.c ****                        sw_info->operand_b.mem.start_offset, sw_info->operand_b.dim.num_elem, )
 792              		.loc 1 207 3 view .LVU229
 793 0042 0C93     		str	r3, [sp, #48]
 794 0044 D0F88030 		ldr	r3, [r0, #128]
 795              		.loc 1 213 3 view .LVU230
 796 0048 CDE92B1C 		strd	r1, ip, [sp, #172]
 207:Lib/AI_Runtime/Npu/ll_aton/ll_sw_float.c ****                        sw_info->operand_b.mem.start_offset, sw_info->operand_b.dim.num_elem, )
 797              		.loc 1 207 3 view .LVU231
 798 004c CDE90D33 		strd	r3, r3, [sp, #52]
 210:Lib/AI_Runtime/Npu/ll_aton/ll_sw_float.c ****                        sw_info->general.output.mem.start_offset, sw_info->general.output.dim.num_el
 799              		.loc 1 210 3 is_stmt 1 view .LVU232
 800              		.loc 1 213 3 view .LVU233
 801 0050 2D96     		str	r6, [sp, #180]
 802 0052 2E95     		str	r5, [sp, #184]
 803 0054 456A     		ldr	r5, [r0, #36]
 204:Lib/AI_Runtime/Npu/ll_aton/ll_sw_float.c ****                        sw_info->general.input.mem.start_offset, sw_info->general.input.dim.num_elem
 804              		.loc 1 204 3 is_stmt 0 view .LVU234
 805 0056 07AC     		add	r4, sp, #28
ARM GAS  C:\Users\DJESSOU\AppData\Local\Temp\ccdFeyMS.s 			page 21


 806              		.loc 1 213 3 view .LVU235
 807 0058 1795     		str	r5, [sp, #92]
 808 005a 056A     		ldr	r5, [r0, #32]
 207:Lib/AI_Runtime/Npu/ll_aton/ll_sw_float.c ****                        sw_info->operand_b.mem.start_offset, sw_info->operand_b.dim.num_elem, )
 809              		.loc 1 207 3 view .LVU236
 810 005c 0BAA     		add	r2, sp, #44
 811              		.loc 1 213 3 view .LVU237
 812 005e 1895     		str	r5, [sp, #96]
 813 0060 C569     		ldr	r5, [r0, #28]
 214:Lib/AI_Runtime/Npu/ll_aton/ll_sw_float.c ****                         SHAPE_INIT(sw_info->general.input.dim.tensor_h, sw_info->general.input.dim.
 215:Lib/AI_Runtime/Npu/ll_aton/ll_sw_float.c ****                                    sw_info->general.input.dim.tensor_c, sw_info->general.input.dim.
 216:Lib/AI_Runtime/Npu/ll_aton/ll_sw_float.c ****                         STRIDE_INIT(sw_info->general.input.stride.h, sw_info->general.input.stride.
 217:Lib/AI_Runtime/Npu/ll_aton/ll_sw_float.c ****                                     sw_info->general.input.stride.c, sw_info->general.input.stride.
 218:Lib/AI_Runtime/Npu/ll_aton/ll_sw_float.c ****                         1, &input_output_array, NULL);
 219:Lib/AI_Runtime/Npu/ll_aton/ll_sw_float.c ****   AI_TENSOR_OBJ_DECLARE(matmul_operand_b, , 0x0, 4,
 814              		.loc 1 219 3 view .LVU238
 815 0062 CDE9321C 		strd	r1, ip, [sp, #200]
 213:Lib/AI_Runtime/Npu/ll_aton/ll_sw_float.c ****                         SHAPE_INIT(sw_info->general.input.dim.tensor_h, sw_info->general.input.dim.
 816              		.loc 1 213 3 view .LVU239
 817 0066 1995     		str	r5, [sp, #100]
 818 0068 8569     		ldr	r5, [r0, #24]
 819 006a 2F97     		str	r7, [sp, #188]
 820 006c 1A95     		str	r5, [sp, #104]
 821 006e 17AD     		add	r5, sp, #92
 822 0070 CDE93054 		strd	r5, r4, [sp, #192]
 218:Lib/AI_Runtime/Npu/ll_aton/ll_sw_float.c ****   AI_TENSOR_OBJ_DECLARE(matmul_operand_b, , 0x0, 4,
 823              		.loc 1 218 54 is_stmt 1 view .LVU240
 824              		.loc 1 219 3 view .LVU241
 825 0074 846E     		ldr	r4, [r0, #104]
 826 0076 3496     		str	r6, [sp, #208]
 827 0078 1B94     		str	r4, [sp, #108]
 828 007a 446E     		ldr	r4, [r0, #100]
 210:Lib/AI_Runtime/Npu/ll_aton/ll_sw_float.c ****                        sw_info->general.output.mem.start_offset, sw_info->general.output.dim.num_el
 829              		.loc 1 210 3 is_stmt 0 view .LVU242
 830 007c 0FAB     		add	r3, sp, #60
 831              		.loc 1 219 3 view .LVU243
 832 007e 1C94     		str	r4, [sp, #112]
 833 0080 046E     		ldr	r4, [r0, #96]
 834 0082 1D94     		str	r4, [sp, #116]
 835 0084 C46D     		ldr	r4, [r0, #92]
 836 0086 1E94     		str	r4, [sp, #120]
 837 0088 1BAC     		add	r4, sp, #108
 838 008a CDE93547 		strd	r4, r7, [sp, #212]
 839 008e C46F     		ldr	r4, [r0, #124]
 840 0090 1F94     		str	r4, [sp, #124]
 841 0092 846F     		ldr	r4, [r0, #120]
 842 0094 2094     		str	r4, [sp, #128]
 843 0096 446F     		ldr	r4, [r0, #116]
 844 0098 2194     		str	r4, [sp, #132]
 845 009a 046F     		ldr	r4, [r0, #112]
 846 009c 2294     		str	r4, [sp, #136]
 847 009e 1FAC     		add	r4, sp, #124
 848 00a0 CDE93742 		strd	r4, r2, [sp, #220]
 220:Lib/AI_Runtime/Npu/ll_aton/ll_sw_float.c ****                         SHAPE_INIT(sw_info->operand_b.dim.tensor_h, sw_info->operand_b.dim.tensor_w
 221:Lib/AI_Runtime/Npu/ll_aton/ll_sw_float.c ****                                    sw_info->operand_b.dim.tensor_c, sw_info->operand_b.dim.tensor_b
 222:Lib/AI_Runtime/Npu/ll_aton/ll_sw_float.c ****                         STRIDE_INIT(sw_info->operand_b.stride.h, sw_info->operand_b.stride.w,
 223:Lib/AI_Runtime/Npu/ll_aton/ll_sw_float.c ****                                     sw_info->operand_b.stride.c, sw_info->operand_b.stride.b),
ARM GAS  C:\Users\DJESSOU\AppData\Local\Temp\ccdFeyMS.s 			page 22


 224:Lib/AI_Runtime/Npu/ll_aton/ll_sw_float.c ****                         1, &matmul_operand_b_array, NULL);
 849              		.loc 1 224 58 is_stmt 1 view .LVU244
 225:Lib/AI_Runtime/Npu/ll_aton/ll_sw_float.c **** 
 226:Lib/AI_Runtime/Npu/ll_aton/ll_sw_float.c ****   AI_TENSOR_OBJ_DECLARE(matmul_output, , 0x0, 4,
 850              		.loc 1 226 3 view .LVU245
 851 00a4 C26B     		ldr	r2, [r0, #60]
 852 00a6 CDE9391C 		strd	r1, ip, [sp, #228]
 853 00aa 2392     		str	r2, [sp, #140]
 854 00ac 826B     		ldr	r2, [r0, #56]
 855 00ae 3B96     		str	r6, [sp, #236]
 856 00b0 2492     		str	r2, [sp, #144]
 857 00b2 426B     		ldr	r2, [r0, #52]
 227:Lib/AI_Runtime/Npu/ll_aton/ll_sw_float.c ****                         SHAPE_INIT(sw_info->general.output.dim.tensor_h, sw_info->general.output.di
 228:Lib/AI_Runtime/Npu/ll_aton/ll_sw_float.c ****                                    sw_info->general.output.dim.tensor_c, sw_info->general.output.di
 229:Lib/AI_Runtime/Npu/ll_aton/ll_sw_float.c ****                         STRIDE_INIT(sw_info->general.output.stride.h, sw_info->general.output.strid
 230:Lib/AI_Runtime/Npu/ll_aton/ll_sw_float.c ****                                     sw_info->general.output.stride.c, sw_info->general.output.strid
 231:Lib/AI_Runtime/Npu/ll_aton/ll_sw_float.c ****                         1, &matmul_output_array, NULL);
 232:Lib/AI_Runtime/Npu/ll_aton/ll_sw_float.c ****   // tensor chain initialization
 233:Lib/AI_Runtime/Npu/ll_aton/ll_sw_float.c ****   AI_TENSOR_CHAIN_OBJ_DECLARE(matmul_chain, , 4,
 858              		.loc 1 233 3 is_stmt 0 view .LVU246
 859 00b4 03AC     		add	r4, sp, #12
 226:Lib/AI_Runtime/Npu/ll_aton/ll_sw_float.c ****                         SHAPE_INIT(sw_info->general.output.dim.tensor_h, sw_info->general.output.di
 860              		.loc 1 226 3 view .LVU247
 861 00b6 2592     		str	r2, [sp, #148]
 862 00b8 026B     		ldr	r2, [r0, #48]
 863 00ba 2692     		str	r2, [sp, #152]
 864 00bc 23AA     		add	r2, sp, #140
 865 00be CDE93C27 		strd	r2, r7, [sp, #240]
 866 00c2 026D     		ldr	r2, [r0, #80]
 867 00c4 2792     		str	r2, [sp, #156]
 868 00c6 C26C     		ldr	r2, [r0, #76]
 869 00c8 2892     		str	r2, [sp, #160]
 870 00ca 826C     		ldr	r2, [r0, #72]
 871 00cc 2992     		str	r2, [sp, #164]
 872 00ce 426C     		ldr	r2, [r0, #68]
 234:Lib/AI_Runtime/Npu/ll_aton/ll_sw_float.c ****                               AI_TENSOR_LIST_OBJ_INIT(AI_FLAG_NONE, 2, TENSORS(&input_output, &matm
 235:Lib/AI_Runtime/Npu/ll_aton/ll_sw_float.c ****                               AI_TENSOR_LIST_OBJ_INIT(AI_FLAG_NONE, 1, TENSORS(&matmul_output)),
 236:Lib/AI_Runtime/Npu/ll_aton/ll_sw_float.c ****                               AI_TENSOR_LIST_OBJ_EMPTY, AI_TENSOR_LIST_OBJ_EMPTY)
 237:Lib/AI_Runtime/Npu/ll_aton/ll_sw_float.c ****   // layer initialization
 238:Lib/AI_Runtime/Npu/ll_aton/ll_sw_float.c ****   AI_LAYER_OBJ_DECLARE(matmul_layer, 1, NL_TYPE, 0x0, NULL, nl, forward_matmul, &matmul_chain, NULL
 873              		.loc 1 238 3 view .LVU248
 874 00d0 41A8     		add	r0, sp, #260
 875              	.LVL11:
 226:Lib/AI_Runtime/Npu/ll_aton/ll_sw_float.c ****                         SHAPE_INIT(sw_info->general.output.dim.tensor_h, sw_info->general.output.di
 876              		.loc 1 226 3 view .LVU249
 877 00d2 2A92     		str	r2, [sp, #168]
 878 00d4 27AA     		add	r2, sp, #156
 879 00d6 CDE93E23 		strd	r2, r3, [sp, #248]
 231:Lib/AI_Runtime/Npu/ll_aton/ll_sw_float.c ****   // tensor chain initialization
 880              		.loc 1 231 55 is_stmt 1 view .LVU250
 233:Lib/AI_Runtime/Npu/ll_aton/ll_sw_float.c ****                               AI_TENSOR_LIST_OBJ_INIT(AI_FLAG_NONE, 2, TENSORS(&input_output, &matm
 881              		.loc 1 233 3 view .LVU251
 882 00da 0423     		movs	r3, #4
 883 00dc 0393     		str	r3, [sp, #12]
 884 00de 0223     		movs	r3, #2
 885 00e0 4893     		str	r3, [sp, #288]
 886 00e2 05AB     		add	r3, sp, #20
ARM GAS  C:\Users\DJESSOU\AppData\Local\Temp\ccdFeyMS.s 			page 23


 887 00e4 CDE94931 		strd	r3, r1, [sp, #292]
 888 00e8 0123     		movs	r3, #1
 889 00ea 2BAA     		add	r2, sp, #172
 890 00ec 4B93     		str	r3, [sp, #300]
 891 00ee 39AB     		add	r3, sp, #228
 892 00f0 0592     		str	r2, [sp, #20]
 893 00f2 0093     		str	r3, [sp]
 894 00f4 32AA     		add	r2, sp, #200
 895 00f6 01AB     		add	r3, sp, #4
 896 00f8 0692     		str	r2, [sp, #24]
 897 00fa CDF830D1 		str	sp, [sp, #304]
 898 00fe CDE94F31 		strd	r3, r1, [sp, #316]
 899 0102 02AB     		add	r3, sp, #8
 900 0104 CDE95231 		strd	r3, r1, [sp, #328]
 901 0108 48AB     		add	r3, sp, #288
 902 010a 0493     		str	r3, [sp, #16]
 903              		.loc 1 238 3 view .LVU252
 904 010c 094B     		ldr	r3, .L11+4
 905 010e 1C22     		movs	r2, #28
 233:Lib/AI_Runtime/Npu/ll_aton/ll_sw_float.c ****                               AI_TENSOR_LIST_OBJ_INIT(AI_FLAG_NONE, 2, TENSORS(&input_output, &matm
 906              		.loc 1 233 3 is_stmt 0 view .LVU253
 907 0110 CDE94D11 		strd	r1, r1, [sp, #308]
 908 0114 0191     		str	r1, [sp, #4]
 909 0116 5191     		str	r1, [sp, #324]
 910 0118 0291     		str	r1, [sp, #8]
 911              		.loc 1 238 3 view .LVU254
 912 011a 4093     		str	r3, [sp, #256]
 913 011c FFF7FEFF 		bl	memset
 914              	.LVL12:
 915 0120 054B     		ldr	r3, .L11+8
 239:Lib/AI_Runtime/Npu/ll_aton/ll_sw_float.c ****   matmul_layer.forward(AI_LAYER_OBJ(&matmul_layer));
 916              		.loc 1 239 3 view .LVU255
 917 0122 40A8     		add	r0, sp, #256
 238:Lib/AI_Runtime/Npu/ll_aton/ll_sw_float.c ****   matmul_layer.forward(AI_LAYER_OBJ(&matmul_layer));
 918              		.loc 1 238 3 view .LVU256
 919 0124 CDE94534 		strd	r3, r4, [sp, #276]
 920              		.loc 1 239 3 is_stmt 1 view .LVU257
 921 0128 FFF7FEFF 		bl	forward_matmul
 922              	.LVL13:
 240:Lib/AI_Runtime/Npu/ll_aton/ll_sw_float.c **** }
 923              		.loc 1 240 1 is_stmt 0 view .LVU258
 924 012c 55B0     		add	sp, sp, #340
 925              		.cfi_def_cfa_offset 20
 926              		@ sp needed
 927 012e F0BD     		pop	{r4, r5, r6, r7, pc}
 928              	.L12:
 929              		.align	2
 930              	.L11:
 931 0130 40108200 		.word	8523840
 932 0134 07010100 		.word	65799
 933 0138 00000000 		.word	forward_matmul
 934              		.cfi_endproc
 935              	.LFE17:
 937              		.section	.text.ll_sw_forward_resize,"ax",%progbits
 938              		.align	1
 939              		.global	ll_sw_forward_resize
 940              		.syntax unified
ARM GAS  C:\Users\DJESSOU\AppData\Local\Temp\ccdFeyMS.s 			page 24


 941              		.thumb
 942              		.thumb_func
 944              	ll_sw_forward_resize:
 945              	.LVL14:
 946              	.LFB18:
 241:Lib/AI_Runtime/Npu/ll_aton/ll_sw_float.c **** 
 242:Lib/AI_Runtime/Npu/ll_aton/ll_sw_float.c **** //##########################################################################################
 243:Lib/AI_Runtime/Npu/ll_aton/ll_sw_float.c **** /** Resize forward function */
 244:Lib/AI_Runtime/Npu/ll_aton/ll_sw_float.c **** void ll_sw_forward_resize(/* int processor, */ void *sw_info_struct)
 245:Lib/AI_Runtime/Npu/ll_aton/ll_sw_float.c **** {
 947              		.loc 1 245 1 is_stmt 1 view -0
 948              		.cfi_startproc
 949              		@ args = 0, pretend = 0, frame = 320
 950              		@ frame_needed = 0, uses_anonymous_args = 0
 246:Lib/AI_Runtime/Npu/ll_aton/ll_sw_float.c ****   Resize_sw_info *sw_info = (Resize_sw_info *)sw_info_struct;
 951              		.loc 1 246 3 view .LVU260
 247:Lib/AI_Runtime/Npu/ll_aton/ll_sw_float.c ****   // array init
 248:Lib/AI_Runtime/Npu/ll_aton/ll_sw_float.c ****   AI_ARRAY_OBJ_DECLARE(input_output_array, FORMAT, sw_info->general.input.mem.start_offset,
 952              		.loc 1 248 3 view .LVU261
 245:Lib/AI_Runtime/Npu/ll_aton/ll_sw_float.c ****   Resize_sw_info *sw_info = (Resize_sw_info *)sw_info_struct;
 953              		.loc 1 245 1 is_stmt 0 view .LVU262
 954 0000 2DE9F041 		push	{r4, r5, r6, r7, r8, lr}
 955              		.cfi_def_cfa_offset 24
 956              		.cfi_offset 4, -24
 957              		.cfi_offset 5, -20
 958              		.cfi_offset 6, -16
 959              		.cfi_offset 7, -12
 960              		.cfi_offset 8, -8
 961              		.cfi_offset 14, -4
 962              		.loc 1 248 3 view .LVU263
 963 0004 4269     		ldr	r2, [r0, #20]
 245:Lib/AI_Runtime/Npu/ll_aton/ll_sw_float.c ****   Resize_sw_info *sw_info = (Resize_sw_info *)sw_info_struct;
 964              		.loc 1 245 1 view .LVU264
 965 0006 D0B0     		sub	sp, sp, #320
 966              		.cfi_def_cfa_offset 344
 967              		.loc 1 248 3 view .LVU265
 968 0008 0992     		str	r2, [sp, #36]
 969 000a 826A     		ldr	r2, [r0, #40]
 970 000c 08AC     		add	r4, sp, #32
 971 000e C4E90222 		strd	r2, r2, [r4, #8]
 249:Lib/AI_Runtime/Npu/ll_aton/ll_sw_float.c ****                        sw_info->general.input.mem.start_offset, sw_info->general.input.dim.num_elem
 250:Lib/AI_Runtime/Npu/ll_aton/ll_sw_float.c **** 
 251:Lib/AI_Runtime/Npu/ll_aton/ll_sw_float.c ****   AI_ARRAY_OBJ_DECLARE(resize_scales_array, FORMAT, sw_info->scales.mem.start_offset, sw_info->scal
 972              		.loc 1 251 3 is_stmt 1 view .LVU266
 248:Lib/AI_Runtime/Npu/ll_aton/ll_sw_float.c ****                        sw_info->general.input.mem.start_offset, sw_info->general.input.dim.num_elem
 973              		.loc 1 248 3 is_stmt 0 view .LVU267
 974 0012 594B     		ldr	r3, .L20
 252:Lib/AI_Runtime/Npu/ll_aton/ll_sw_float.c ****                        sw_info->scales.dim.num_elem, )
 253:Lib/AI_Runtime/Npu/ll_aton/ll_sw_float.c **** 
 254:Lib/AI_Runtime/Npu/ll_aton/ll_sw_float.c ****   ai_array *resize_roi_array_ptr = NULL;
 255:Lib/AI_Runtime/Npu/ll_aton/ll_sw_float.c ****   ai_array resize_roi_array;
 256:Lib/AI_Runtime/Npu/ll_aton/ll_sw_float.c ****   if (sw_info->roi.mem.start_offset != NULL)
 975              		.loc 1 256 23 view .LVU268
 976 0014 D0F8AC20 		ldr	r2, [r0, #172]
 251:Lib/AI_Runtime/Npu/ll_aton/ll_sw_float.c ****                        sw_info->scales.dim.num_elem, )
 977              		.loc 1 251 3 view .LVU269
 978 0018 D0F88050 		ldr	r5, [r0, #128]
ARM GAS  C:\Users\DJESSOU\AppData\Local\Temp\ccdFeyMS.s 			page 25


 254:Lib/AI_Runtime/Npu/ll_aton/ll_sw_float.c ****   ai_array resize_roi_array;
 979              		.loc 1 254 3 is_stmt 1 view .LVU270
 980              	.LVL15:
 255:Lib/AI_Runtime/Npu/ll_aton/ll_sw_float.c ****   if (sw_info->roi.mem.start_offset != NULL)
 981              		.loc 1 255 3 view .LVU271
 982              		.loc 1 256 3 view .LVU272
 248:Lib/AI_Runtime/Npu/ll_aton/ll_sw_float.c ****                        sw_info->general.input.mem.start_offset, sw_info->general.input.dim.num_elem
 983              		.loc 1 248 3 is_stmt 0 view .LVU273
 984 001c 2360     		str	r3, [r4]
 985              		.loc 1 256 6 view .LVU274
 986 001e 32B1     		cbz	r2, .L14
 987              	.LBB8:
 257:Lib/AI_Runtime/Npu/ll_aton/ll_sw_float.c ****   {
 258:Lib/AI_Runtime/Npu/ll_aton/ll_sw_float.c ****     resize_roi_array = (ai_array)AI_ARRAY_OBJ_INIT(FORMAT, sw_info->roi.mem.start_offset, sw_info->
 988              		.loc 1 258 5 is_stmt 1 view .LVU275
 989              		.loc 1 258 34 is_stmt 0 view .LVU276
 990 0020 D0F89810 		ldr	r1, [r0, #152]
 991              		.loc 1 258 22 view .LVU277
 992 0024 CDE90E22 		strd	r2, r2, [sp, #56]
 259:Lib/AI_Runtime/Npu/ll_aton/ll_sw_float.c ****                                                    sw_info->roi.dim.num_elem);
 260:Lib/AI_Runtime/Npu/ll_aton/ll_sw_float.c ****     resize_roi_array_ptr = &resize_roi_array;
 993              		.loc 1 260 5 is_stmt 1 view .LVU278
 994              	.LVL16:
 258:Lib/AI_Runtime/Npu/ll_aton/ll_sw_float.c ****                                                    sw_info->roi.dim.num_elem);
 995              		.loc 1 258 22 is_stmt 0 view .LVU279
 996 0028 CDE90C31 		strd	r3, r1, [sp, #48]
 997              		.loc 1 260 26 view .LVU280
 998 002c 0CAA     		add	r2, sp, #48
 999              	.LVL17:
 1000              	.L14:
 1001              		.loc 1 260 26 view .LVU281
 1002              	.LBE8:
 261:Lib/AI_Runtime/Npu/ll_aton/ll_sw_float.c ****   }
 262:Lib/AI_Runtime/Npu/ll_aton/ll_sw_float.c **** 
 263:Lib/AI_Runtime/Npu/ll_aton/ll_sw_float.c ****   AI_ARRAY_OBJ_DECLARE(resize_output_array, FORMAT, sw_info->general.output.mem.start_offset,
 1003              		.loc 1 263 3 is_stmt 1 view .LVU282
 1004 002e 036C     		ldr	r3, [r0, #64]
 264:Lib/AI_Runtime/Npu/ll_aton/ll_sw_float.c ****                        sw_info->general.output.mem.start_offset, sw_info->general.output.dim.num_el
 265:Lib/AI_Runtime/Npu/ll_aton/ll_sw_float.c **** 
 266:Lib/AI_Runtime/Npu/ll_aton/ll_sw_float.c ****   AI_TENSOR_OBJ_DECLARE(input_output, , 0x0, 4,
 1005              		.loc 1 266 3 is_stmt 0 view .LVU283
 1006 0030 4FF0827E 		mov	lr, #17039360
 263:Lib/AI_Runtime/Npu/ll_aton/ll_sw_float.c ****                        sw_info->general.output.mem.start_offset, sw_info->general.output.dim.num_el
 1007              		.loc 1 263 3 view .LVU284
 1008 0034 1193     		str	r3, [sp, #68]
 1009 0036 436D     		ldr	r3, [r0, #84]
 1010              		.loc 1 266 3 view .LVU285
 1011 0038 40F2014C 		movw	ip, #1025
 1012 003c 40F20248 		movw	r8, #1026
 263:Lib/AI_Runtime/Npu/ll_aton/ll_sw_float.c ****                        sw_info->general.output.mem.start_offset, sw_info->general.output.dim.num_el
 1013              		.loc 1 263 3 view .LVU286
 1014 0040 CDE91233 		strd	r3, r3, [sp, #72]
 1015              		.loc 1 266 3 is_stmt 1 view .LVU287
 1016 0044 0023     		movs	r3, #0
 1017 0046 0769     		ldr	r7, [r0, #16]
 263:Lib/AI_Runtime/Npu/ll_aton/ll_sw_float.c ****                        sw_info->general.output.mem.start_offset, sw_info->general.output.dim.num_el
 1018              		.loc 1 263 3 is_stmt 0 view .LVU288
ARM GAS  C:\Users\DJESSOU\AppData\Local\Temp\ccdFeyMS.s 			page 26


 1019 0048 4B4E     		ldr	r6, .L20
 1020              		.loc 1 266 3 view .LVU289
 1021 004a 1497     		str	r7, [sp, #80]
 1022 004c C768     		ldr	r7, [r0, #12]
 263:Lib/AI_Runtime/Npu/ll_aton/ll_sw_float.c ****                        sw_info->general.output.mem.start_offset, sw_info->general.output.dim.num_el
 1023              		.loc 1 263 3 view .LVU290
 1024 004e 1096     		str	r6, [sp, #64]
 1025              		.loc 1 266 3 view .LVU291
 1026 0050 1597     		str	r7, [sp, #84]
 1027 0052 8768     		ldr	r7, [r0, #8]
 1028 0054 CDE9283E 		strd	r3, lr, [sp, #160]
 1029 0058 1697     		str	r7, [sp, #88]
 1030 005a 4768     		ldr	r7, [r0, #4]
 267:Lib/AI_Runtime/Npu/ll_aton/ll_sw_float.c ****                         SHAPE_INIT(sw_info->general.input.dim.tensor_h, sw_info->general.input.dim.
 268:Lib/AI_Runtime/Npu/ll_aton/ll_sw_float.c ****                                    sw_info->general.input.dim.tensor_c, sw_info->general.input.dim.
 269:Lib/AI_Runtime/Npu/ll_aton/ll_sw_float.c ****                         STRIDE_INIT(sw_info->general.input.stride.h, sw_info->general.input.stride.
 270:Lib/AI_Runtime/Npu/ll_aton/ll_sw_float.c ****                                     sw_info->general.input.stride.c, sw_info->general.input.stride.
 271:Lib/AI_Runtime/Npu/ll_aton/ll_sw_float.c ****                         1, &input_output_array, NULL);
 272:Lib/AI_Runtime/Npu/ll_aton/ll_sw_float.c ****   AI_TENSOR_OBJ_DECLARE(resize_scales, , 0x0, 4,
 273:Lib/AI_Runtime/Npu/ll_aton/ll_sw_float.c ****                         SHAPE_INIT(sw_info->scales.dim.tensor_h, sw_info->scales.dim.tensor_w,
 274:Lib/AI_Runtime/Npu/ll_aton/ll_sw_float.c ****                                    sw_info->scales.dim.tensor_c, sw_info->scales.dim.tensor_b),
 275:Lib/AI_Runtime/Npu/ll_aton/ll_sw_float.c ****                         STRIDE_INIT(sw_info->scales.stride.h, sw_info->scales.stride.w, sw_info->sc
 276:Lib/AI_Runtime/Npu/ll_aton/ll_sw_float.c ****                                     sw_info->scales.stride.b),
 277:Lib/AI_Runtime/Npu/ll_aton/ll_sw_float.c ****                         1, &resize_scales_array, NULL);
 278:Lib/AI_Runtime/Npu/ll_aton/ll_sw_float.c **** 
 279:Lib/AI_Runtime/Npu/ll_aton/ll_sw_float.c ****   AI_TENSOR_OBJ_DECLARE(resize_output, , 0x0, 4,
 1031              		.loc 1 279 3 view .LVU292
 1032 005c CDE92F3E 		strd	r3, lr, [sp, #188]
 266:Lib/AI_Runtime/Npu/ll_aton/ll_sw_float.c ****                         SHAPE_INIT(sw_info->general.input.dim.tensor_h, sw_info->general.input.dim.
 1033              		.loc 1 266 3 view .LVU293
 1034 0060 1797     		str	r7, [sp, #92]
 1035 0062 14AF     		add	r7, sp, #80
 1036 0064 2B97     		str	r7, [sp, #172]
 1037 0066 476A     		ldr	r7, [r0, #36]
 1038 0068 CDF8A8C0 		str	ip, [sp, #168]
 1039 006c 1897     		str	r7, [sp, #96]
 1040 006e 076A     		ldr	r7, [r0, #32]
 1041 0070 CDF8B080 		str	r8, [sp, #176]
 1042 0074 1997     		str	r7, [sp, #100]
 1043 0076 C769     		ldr	r7, [r0, #28]
 1044              		.loc 1 279 3 view .LVU294
 1045 0078 CDF8C4C0 		str	ip, [sp, #196]
 266:Lib/AI_Runtime/Npu/ll_aton/ll_sw_float.c ****                         SHAPE_INIT(sw_info->general.input.dim.tensor_h, sw_info->general.input.dim.
 1046              		.loc 1 266 3 view .LVU295
 1047 007c 1A97     		str	r7, [sp, #104]
 1048 007e 8769     		ldr	r7, [r0, #24]
 263:Lib/AI_Runtime/Npu/ll_aton/ll_sw_float.c ****                        sw_info->general.output.mem.start_offset, sw_info->general.output.dim.num_el
 1049              		.loc 1 263 3 view .LVU296
 1050 0080 10A9     		add	r1, sp, #64
 266:Lib/AI_Runtime/Npu/ll_aton/ll_sw_float.c ****                         SHAPE_INIT(sw_info->general.input.dim.tensor_h, sw_info->general.input.dim.
 1051              		.loc 1 266 3 view .LVU297
 1052 0082 1B97     		str	r7, [sp, #108]
 1053 0084 18AF     		add	r7, sp, #96
 1054 0086 CDE92D74 		strd	r7, r4, [sp, #180]
 271:Lib/AI_Runtime/Npu/ll_aton/ll_sw_float.c ****   AI_TENSOR_OBJ_DECLARE(resize_scales, , 0x0, 4,
 1055              		.loc 1 271 54 is_stmt 1 view .LVU298
 272:Lib/AI_Runtime/Npu/ll_aton/ll_sw_float.c ****                         SHAPE_INIT(sw_info->scales.dim.tensor_h, sw_info->scales.dim.tensor_w,
ARM GAS  C:\Users\DJESSOU\AppData\Local\Temp\ccdFeyMS.s 			page 27


 1056              		.loc 1 272 3 view .LVU299
 1057              	.LVL18:
 277:Lib/AI_Runtime/Npu/ll_aton/ll_sw_float.c **** 
 1058              		.loc 1 277 55 view .LVU300
 1059              		.loc 1 279 3 view .LVU301
 1060 008a C46B     		ldr	r4, [r0, #60]
 280:Lib/AI_Runtime/Npu/ll_aton/ll_sw_float.c ****                         SHAPE_INIT(sw_info->general.output.dim.tensor_h, sw_info->general.output.di
 281:Lib/AI_Runtime/Npu/ll_aton/ll_sw_float.c ****                                    sw_info->general.output.dim.tensor_c, sw_info->general.output.di
 282:Lib/AI_Runtime/Npu/ll_aton/ll_sw_float.c ****                         STRIDE_INIT(sw_info->general.output.stride.h, sw_info->general.output.strid
 283:Lib/AI_Runtime/Npu/ll_aton/ll_sw_float.c ****                                     sw_info->general.output.stride.c, sw_info->general.output.strid
 284:Lib/AI_Runtime/Npu/ll_aton/ll_sw_float.c ****                         1, &resize_output_array, NULL);
 285:Lib/AI_Runtime/Npu/ll_aton/ll_sw_float.c ****   // tensor chain initialization
 286:Lib/AI_Runtime/Npu/ll_aton/ll_sw_float.c ****   AI_TENSOR_CHAIN_OBJ_DECLARE(resize_chain, , 4, AI_TENSOR_LIST_OBJ_INIT(AI_FLAG_NONE, 1, TENSORS(&
 1061              		.loc 1 286 3 is_stmt 0 view .LVU302
 1062 008c 28AF     		add	r7, sp, #160
 279:Lib/AI_Runtime/Npu/ll_aton/ll_sw_float.c ****                         SHAPE_INIT(sw_info->general.output.dim.tensor_h, sw_info->general.output.di
 1063              		.loc 1 279 3 view .LVU303
 1064 008e 1C94     		str	r4, [sp, #112]
 1065 0090 846B     		ldr	r4, [r0, #56]
 1066              		.loc 1 286 3 view .LVU304
 1067 0092 0097     		str	r7, [sp]
 279:Lib/AI_Runtime/Npu/ll_aton/ll_sw_float.c ****                         SHAPE_INIT(sw_info->general.output.dim.tensor_h, sw_info->general.output.di
 1068              		.loc 1 279 3 view .LVU305
 1069 0094 1D94     		str	r4, [sp, #116]
 1070 0096 446B     		ldr	r4, [r0, #52]
 1071              		.loc 1 286 3 view .LVU306
 1072 0098 2FAF     		add	r7, sp, #188
 279:Lib/AI_Runtime/Npu/ll_aton/ll_sw_float.c ****                         SHAPE_INIT(sw_info->general.output.dim.tensor_h, sw_info->general.output.di
 1073              		.loc 1 279 3 view .LVU307
 1074 009a 1E94     		str	r4, [sp, #120]
 1075 009c 046B     		ldr	r4, [r0, #48]
 1076              		.loc 1 286 3 view .LVU308
 1077 009e CDF8DCD0 		str	sp, [sp, #220]
 279:Lib/AI_Runtime/Npu/ll_aton/ll_sw_float.c ****                         SHAPE_INIT(sw_info->general.output.dim.tensor_h, sw_info->general.output.di
 1078              		.loc 1 279 3 view .LVU309
 1079 00a2 1F94     		str	r4, [sp, #124]
 1080 00a4 1CAC     		add	r4, sp, #112
 1081 00a6 CDE93248 		strd	r4, r8, [sp, #200]
 1082 00aa 046D     		ldr	r4, [r0, #80]
 1083              		.loc 1 286 3 view .LVU310
 1084 00ac 0197     		str	r7, [sp, #4]
 279:Lib/AI_Runtime/Npu/ll_aton/ll_sw_float.c ****                         SHAPE_INIT(sw_info->general.output.dim.tensor_h, sw_info->general.output.di
 1085              		.loc 1 279 3 view .LVU311
 1086 00ae 2094     		str	r4, [sp, #128]
 1087 00b0 C46C     		ldr	r4, [r0, #76]
 1088              		.loc 1 286 3 view .LVU312
 1089 00b2 3C93     		str	r3, [sp, #240]
 279:Lib/AI_Runtime/Npu/ll_aton/ll_sw_float.c ****                         SHAPE_INIT(sw_info->general.output.dim.tensor_h, sw_info->general.output.di
 1090              		.loc 1 279 3 view .LVU313
 1091 00b4 2194     		str	r4, [sp, #132]
 1092 00b6 846C     		ldr	r4, [r0, #72]
 1093              		.loc 1 286 3 view .LVU314
 1094 00b8 0293     		str	r3, [sp, #8]
 279:Lib/AI_Runtime/Npu/ll_aton/ll_sw_float.c ****                         SHAPE_INIT(sw_info->general.output.dim.tensor_h, sw_info->general.output.di
 1095              		.loc 1 279 3 view .LVU315
 1096 00ba 2294     		str	r4, [sp, #136]
 1097 00bc 446C     		ldr	r4, [r0, #68]
ARM GAS  C:\Users\DJESSOU\AppData\Local\Temp\ccdFeyMS.s 			page 28


 1098 00be 2394     		str	r4, [sp, #140]
 1099 00c0 20AC     		add	r4, sp, #128
 1100 00c2 CDE93441 		strd	r4, r1, [sp, #208]
 284:Lib/AI_Runtime/Npu/ll_aton/ll_sw_float.c ****   // tensor chain initialization
 1101              		.loc 1 284 55 is_stmt 1 view .LVU316
 1102              		.loc 1 286 3 view .LVU317
 1103 00c6 0421     		movs	r1, #4
 1104 00c8 0491     		str	r1, [sp, #16]
 1105 00ca 0121     		movs	r1, #1
 1106 00cc CDE93831 		strd	r3, r1, [sp, #224]
 1107 00d0 3691     		str	r1, [sp, #216]
 1108 00d2 01A9     		add	r1, sp, #4
 1109 00d4 CDE93A13 		strd	r1, r3, [sp, #232]
 1110 00d8 02A9     		add	r1, sp, #8
 1111 00da CDE93D13 		strd	r1, r3, [sp, #244]
 1112 00de 03A9     		add	r1, sp, #12
 1113 00e0 CDE94013 		strd	r1, r3, [sp, #256]
 1114 00e4 36A9     		add	r1, sp, #216
 1115 00e6 0591     		str	r1, [sp, #20]
 287:Lib/AI_Runtime/Npu/ll_aton/ll_sw_float.c ****                               AI_TENSOR_LIST_OBJ_INIT(AI_FLAG_NONE, 1, TENSORS(&resize_output)),
 288:Lib/AI_Runtime/Npu/ll_aton/ll_sw_float.c ****                               AI_TENSOR_LIST_OBJ_EMPTY, AI_TENSOR_LIST_OBJ_EMPTY)
 289:Lib/AI_Runtime/Npu/ll_aton/ll_sw_float.c **** 
 290:Lib/AI_Runtime/Npu/ll_aton/ll_sw_float.c ****   // extrapolating the scales values needed
 291:Lib/AI_Runtime/Npu/ll_aton/ll_sw_float.c ****   const ai_tensor *p = &resize_scales;
 1116              		.loc 1 291 3 view .LVU318
 1117              	.LVL19:
 292:Lib/AI_Runtime/Npu/ll_aton/ll_sw_float.c ****   const ai_float *s = AI_ARRAY_OBJ_DATA(p->data, ai_float);
 1118              		.loc 1 292 3 view .LVU319
 293:Lib/AI_Runtime/Npu/ll_aton/ll_sw_float.c ****   AI_ARRAY_OBJ_DECLARE_STATIC(rs, ai_float, AI_ARRAY_FORMAT_FLOAT, AI_CONST, 2, s[2], s[3])
 1119              		.loc 1 293 3 view .LVU320
 1120 00e8 0221     		movs	r1, #2
 1121 00ea 2591     		str	r1, [sp, #148]
 1122 00ec 06A9     		add	r1, sp, #24
 1123 00ee 2496     		str	r6, [sp, #144]
 1124 00f0 AE68     		ldr	r6, [r5, #8]	@ float
 1125 00f2 ED68     		ldr	r5, [r5, #12]	@ float
 1126              	.LVL20:
 1127              		.loc 1 293 3 is_stmt 0 view .LVU321
 1128 00f4 CDE92613 		strd	r1, r3, [sp, #152]
 294:Lib/AI_Runtime/Npu/ll_aton/ll_sw_float.c **** 
 295:Lib/AI_Runtime/Npu/ll_aton/ll_sw_float.c ****   // layer initialization
 296:Lib/AI_Runtime/Npu/ll_aton/ll_sw_float.c ****   if ((ai_resize_mode)sw_info->mode == AI_RESIZE_ZEROS)
 1129              		.loc 1 296 3 is_stmt 1 view .LVU322
 1130              		.loc 1 296 30 is_stmt 0 view .LVU323
 1131 00f8 90F8EC10 		ldrb	r1, [r0, #236]	@ zero_extendqisi2
 286:Lib/AI_Runtime/Npu/ll_aton/ll_sw_float.c ****                               AI_TENSOR_LIST_OBJ_INIT(AI_FLAG_NONE, 1, TENSORS(&resize_output)),
 1132              		.loc 1 286 3 view .LVU324
 1133 00fc 04AC     		add	r4, sp, #16
 293:Lib/AI_Runtime/Npu/ll_aton/ll_sw_float.c ****   AI_ARRAY_OBJ_DECLARE_STATIC(rs, ai_float, AI_ARRAY_FORMAT_FLOAT, AI_CONST, 2, s[2], s[3])
 1134              		.loc 1 293 3 view .LVU325
 1135 00fe 0795     		str	r5, [sp, #28]	@ float
 286:Lib/AI_Runtime/Npu/ll_aton/ll_sw_float.c ****                               AI_TENSOR_LIST_OBJ_INIT(AI_FLAG_NONE, 1, TENSORS(&resize_output)),
 1136              		.loc 1 286 3 view .LVU326
 1137 0100 3F93     		str	r3, [sp, #252]
 1138 0102 0393     		str	r3, [sp, #12]
 293:Lib/AI_Runtime/Npu/ll_aton/ll_sw_float.c ****   AI_ARRAY_OBJ_DECLARE_STATIC(rs, ai_float, AI_ARRAY_FORMAT_FLOAT, AI_CONST, 2, s[2], s[3])
 1139              		.loc 1 293 3 view .LVU327
ARM GAS  C:\Users\DJESSOU\AppData\Local\Temp\ccdFeyMS.s 			page 29


 1140 0104 0696     		str	r6, [sp, #24]	@ float
 1141 0106 24AD     		add	r5, sp, #144
 1142              		.loc 1 296 6 view .LVU328
 1143 0108 99B9     		cbnz	r1, .L15
 1144              	.LBB9:
 297:Lib/AI_Runtime/Npu/ll_aton/ll_sw_float.c ****   {
 298:Lib/AI_Runtime/Npu/ll_aton/ll_sw_float.c ****     AI_LAYER_OBJ_DECLARE(resize_layer, 1, UPSAMPLE_TYPE, 0x0, NULL, upsample, forward_upsample_zero
 1145              		.loc 1 298 5 is_stmt 1 view .LVU329
 1146 010a 1C4B     		ldr	r3, .L20+4
 299:Lib/AI_Runtime/Npu/ll_aton/ll_sw_float.c ****                          NULL, NULL, , .mode = AI_UPSAMPLE_ZEROS, .center = false, .scales = AI_ARR
 300:Lib/AI_Runtime/Npu/ll_aton/ll_sw_float.c ****                          .nearest_mode = AI_ROUND_PREFER_FLOOR)
 301:Lib/AI_Runtime/Npu/ll_aton/ll_sw_float.c ****     resize_layer.forward(AI_LAYER_OBJ(&resize_layer));
 1147              		.loc 1 301 5 is_stmt 0 view .LVU330
 1148 010c 42A8     		add	r0, sp, #264
 1149              	.LVL21:
 298:Lib/AI_Runtime/Npu/ll_aton/ll_sw_float.c ****                          NULL, NULL, , .mode = AI_UPSAMPLE_ZEROS, .center = false, .scales = AI_ARR
 1150              		.loc 1 298 5 view .LVU331
 1151 010e CDE94231 		strd	r3, r1, [sp, #264]
 1152 0112 1B4B     		ldr	r3, .L20+8
 1153 0114 CDE94411 		strd	r1, r1, [sp, #272]
 1154 0118 CDE94734 		strd	r3, r4, [sp, #284]
 1155 011c 4691     		str	r1, [sp, #280]
 1156 011e ADF82411 		strh	r1, [sp, #292]	@ movhi
 1157 0122 4A95     		str	r5, [sp, #296]
 1158 0124 8DF82C11 		strb	r1, [sp, #300]
 1159              		.loc 1 301 5 is_stmt 1 view .LVU332
 1160 0128 FFF7FEFF 		bl	forward_upsample_zeros
 1161              	.LVL22:
 1162              	.L13:
 1163              		.loc 1 301 5 is_stmt 0 view .LVU333
 1164              	.LBE9:
 302:Lib/AI_Runtime/Npu/ll_aton/ll_sw_float.c ****   }
 303:Lib/AI_Runtime/Npu/ll_aton/ll_sw_float.c ****   else
 304:Lib/AI_Runtime/Npu/ll_aton/ll_sw_float.c ****   {
 305:Lib/AI_Runtime/Npu/ll_aton/ll_sw_float.c ****     AI_LAYER_OBJ_DECLARE(resize_layer, 1, RESIZE_TYPE, 0x0, NULL, resize, forward_resize, &resize_c
 306:Lib/AI_Runtime/Npu/ll_aton/ll_sw_float.c ****                          .cubic_coeff_a = sw_info->cubic_coeff_a, .exclude_outside = sw_info->exclu
 307:Lib/AI_Runtime/Npu/ll_aton/ll_sw_float.c ****                          .extrapol_val = sw_info->extrapol_val, .mode = (ai_resize_mode)sw_info->mo
 308:Lib/AI_Runtime/Npu/ll_aton/ll_sw_float.c ****                          .nearest_mode = (ai_nearest_mode)sw_info->nearest_mode,
 309:Lib/AI_Runtime/Npu/ll_aton/ll_sw_float.c ****                          .coord_transf_mode = (ai_coord_transf_mode)sw_info->coord_transf_mode,
 310:Lib/AI_Runtime/Npu/ll_aton/ll_sw_float.c ****                          .scales = AI_ARRAY_OBJ(&rs), .roi = resize_roi_array_ptr)
 311:Lib/AI_Runtime/Npu/ll_aton/ll_sw_float.c ****     resize_layer.forward(AI_LAYER_OBJ(&resize_layer));
 312:Lib/AI_Runtime/Npu/ll_aton/ll_sw_float.c ****   }
 313:Lib/AI_Runtime/Npu/ll_aton/ll_sw_float.c **** }
 1165              		.loc 1 313 1 view .LVU334
 1166 012c 50B0     		add	sp, sp, #320
 1167              		.cfi_remember_state
 1168              		.cfi_def_cfa_offset 24
 1169              		@ sp needed
 1170 012e BDE8F081 		pop	{r4, r5, r6, r7, r8, pc}
 1171              	.LVL23:
 1172              	.L15:
 1173              		.cfi_restore_state
 1174              	.LBB10:
 305:Lib/AI_Runtime/Npu/ll_aton/ll_sw_float.c ****                          .cubic_coeff_a = sw_info->cubic_coeff_a, .exclude_outside = sw_info->exclu
 1175              		.loc 1 305 5 is_stmt 1 view .LVU335
 1176 0132 144E     		ldr	r6, .L20+12
 1177 0134 CDE94433 		strd	r3, r3, [sp, #272]
ARM GAS  C:\Users\DJESSOU\AppData\Local\Temp\ccdFeyMS.s 			page 30


 1178 0138 CDE94263 		strd	r6, r3, [sp, #264]
 1179 013c 4693     		str	r3, [sp, #280]
 1180 013e 124B     		ldr	r3, .L20+16
 1181 0140 CDE94E52 		strd	r5, r2, [sp, #312]
 311:Lib/AI_Runtime/Npu/ll_aton/ll_sw_float.c ****   }
 1182              		.loc 1 311 5 view .LVU336
 305:Lib/AI_Runtime/Npu/ll_aton/ll_sw_float.c ****                          .cubic_coeff_a = sw_info->cubic_coeff_a, .exclude_outside = sw_info->exclu
 1183              		.loc 1 305 5 is_stmt 0 view .LVU337
 1184 0144 CDE94734 		strd	r3, r4, [sp, #284]
 1185 0148 90F8EE30 		ldrb	r3, [r0, #238]	@ zero_extendqisi2
 1186 014c 8DF83411 		strb	r1, [sp, #308]
 1187 0150 8DF82431 		strb	r3, [sp, #292]
 1188 0154 D0F8E030 		ldr	r3, [r0, #224]	@ float
 1189 0158 4A93     		str	r3, [sp, #296]	@ float
 1190 015a 90F8E430 		ldrb	r3, [r0, #228]	@ zero_extendqisi2
 1191 015e 8DF82C31 		strb	r3, [sp, #300]
 1192 0162 D0F8E830 		ldr	r3, [r0, #232]	@ float
 1193 0166 4C93     		str	r3, [sp, #304]	@ float
 1194 0168 90F8ED30 		ldrb	r3, [r0, #237]	@ zero_extendqisi2
 311:Lib/AI_Runtime/Npu/ll_aton/ll_sw_float.c ****   }
 1195              		.loc 1 311 5 view .LVU338
 1196 016c 42A8     		add	r0, sp, #264
 1197              	.LVL24:
 305:Lib/AI_Runtime/Npu/ll_aton/ll_sw_float.c ****                          .cubic_coeff_a = sw_info->cubic_coeff_a, .exclude_outside = sw_info->exclu
 1198              		.loc 1 305 5 view .LVU339
 1199 016e 8DF83531 		strb	r3, [sp, #309]
 311:Lib/AI_Runtime/Npu/ll_aton/ll_sw_float.c ****   }
 1200              		.loc 1 311 5 view .LVU340
 1201 0172 FFF7FEFF 		bl	forward_resize
 1202              	.LVL25:
 311:Lib/AI_Runtime/Npu/ll_aton/ll_sw_float.c ****   }
 1203              		.loc 1 311 5 view .LVU341
 1204              	.LBE10:
 1205              		.loc 1 313 1 view .LVU342
 1206 0176 D9E7     		b	.L13
 1207              	.L21:
 1208              		.align	2
 1209              	.L20:
 1210 0178 40108200 		.word	8523840
 1211 017c 12010100 		.word	65810
 1212 0180 00000000 		.word	forward_upsample_zeros
 1213 0184 1B010100 		.word	65819
 1214 0188 00000000 		.word	forward_resize
 1215              		.cfi_endproc
 1216              	.LFE18:
 1218              		.section	.text.ll_sw_forward_softmax,"ax",%progbits
 1219              		.align	1
 1220              		.global	ll_sw_forward_softmax
 1221              		.syntax unified
 1222              		.thumb
 1223              		.thumb_func
 1225              	ll_sw_forward_softmax:
 1226              	.LVL26:
 1227              	.LFB19:
 314:Lib/AI_Runtime/Npu/ll_aton/ll_sw_float.c **** 
 315:Lib/AI_Runtime/Npu/ll_aton/ll_sw_float.c **** //##########################################################################################
 316:Lib/AI_Runtime/Npu/ll_aton/ll_sw_float.c **** /** Softmax forward function */
ARM GAS  C:\Users\DJESSOU\AppData\Local\Temp\ccdFeyMS.s 			page 31


 317:Lib/AI_Runtime/Npu/ll_aton/ll_sw_float.c **** void ll_sw_forward_softmax(/* int processor, */ void *sw_info_struct)
 318:Lib/AI_Runtime/Npu/ll_aton/ll_sw_float.c **** {
 1228              		.loc 1 318 1 is_stmt 1 view -0
 1229              		.cfi_startproc
 1230              		@ args = 0, pretend = 0, frame = 336
 1231              		@ frame_needed = 0, uses_anonymous_args = 0
 319:Lib/AI_Runtime/Npu/ll_aton/ll_sw_float.c ****   Softmax_sw_info *sw_info = (Softmax_sw_info *)sw_info_struct;
 1232              		.loc 1 319 3 view .LVU344
 320:Lib/AI_Runtime/Npu/ll_aton/ll_sw_float.c **** 
 321:Lib/AI_Runtime/Npu/ll_aton/ll_sw_float.c ****   // array init
 322:Lib/AI_Runtime/Npu/ll_aton/ll_sw_float.c ****   int32_t format = sw_info->general.input.format.is_signed ? (AI_ARRAY_FORMAT_S8 | AI_FMT_FLAG_IS_I
 1233              		.loc 1 322 3 view .LVU345
 323:Lib/AI_Runtime/Npu/ll_aton/ll_sw_float.c ****                                                            : (AI_ARRAY_FORMAT_U8 | AI_FMT_FLAG_IS_I
 1234              		.loc 1 323 60 is_stmt 0 view .LVU346
 1235 0000 90F82C10 		ldrb	r1, [r0, #44]	@ zero_extendqisi2
 1236              		.loc 1 323 60 discriminator 1 view .LVU347
 1237 0004 564B     		ldr	r3, .L29
 1238 0006 574A     		ldr	r2, .L29+4
 1239 0008 0029     		cmp	r1, #0
 318:Lib/AI_Runtime/Npu/ll_aton/ll_sw_float.c ****   Softmax_sw_info *sw_info = (Softmax_sw_info *)sw_info_struct;
 1240              		.loc 1 318 1 view .LVU348
 1241 000a F0B5     		push	{r4, r5, r6, r7, lr}
 1242              		.cfi_def_cfa_offset 20
 1243              		.cfi_offset 4, -20
 1244              		.cfi_offset 5, -16
 1245              		.cfi_offset 6, -12
 1246              		.cfi_offset 7, -8
 1247              		.cfi_offset 14, -4
 1248              		.loc 1 323 60 discriminator 1 view .LVU349
 1249 000c 08BF     		it	eq
 1250 000e 1946     		moveq	r1, r3
 318:Lib/AI_Runtime/Npu/ll_aton/ll_sw_float.c ****   Softmax_sw_info *sw_info = (Softmax_sw_info *)sw_info_struct;
 1251              		.loc 1 318 1 view .LVU350
 1252 0010 0446     		mov	r4, r0
 1253              		.loc 1 323 60 discriminator 1 view .LVU351
 1254 0012 18BF     		it	ne
 1255 0014 1146     		movne	r1, r2
 1256              	.LVL27:
 324:Lib/AI_Runtime/Npu/ll_aton/ll_sw_float.c ****   AI_ARRAY_OBJ_DECLARE(input_output_array, format, sw_info->general.input.mem.start_offset,
 1257              		.loc 1 324 3 is_stmt 1 view .LVU352
 318:Lib/AI_Runtime/Npu/ll_aton/ll_sw_float.c ****   Softmax_sw_info *sw_info = (Softmax_sw_info *)sw_info_struct;
 1258              		.loc 1 318 1 is_stmt 0 view .LVU353
 1259 0016 D5B0     		sub	sp, sp, #340
 1260              		.cfi_def_cfa_offset 360
 1261              		.loc 1 324 3 view .LVU354
 1262 0018 0691     		str	r1, [sp, #24]
 1263 001a 6169     		ldr	r1, [r4, #20]
 1264              	.LVL28:
 325:Lib/AI_Runtime/Npu/ll_aton/ll_sw_float.c ****                        sw_info->general.input.mem.start_offset, sw_info->general.input.dim.num_elem
 326:Lib/AI_Runtime/Npu/ll_aton/ll_sw_float.c **** 
 327:Lib/AI_Runtime/Npu/ll_aton/ll_sw_float.c ****   format = sw_info->general.output.format.is_signed ? (AI_ARRAY_FORMAT_S8 | AI_FMT_FLAG_IS_IO)
 328:Lib/AI_Runtime/Npu/ll_aton/ll_sw_float.c ****                                                     : (AI_ARRAY_FORMAT_U8 | AI_FMT_FLAG_IS_IO);
 329:Lib/AI_Runtime/Npu/ll_aton/ll_sw_float.c ****   AI_ARRAY_OBJ_DECLARE(softmax_output_array, format, sw_info->general.output.mem.start_offset,
 330:Lib/AI_Runtime/Npu/ll_aton/ll_sw_float.c ****                        sw_info->general.output.mem.start_offset, sw_info->general.output.dim.num_el
 331:Lib/AI_Runtime/Npu/ll_aton/ll_sw_float.c **** 
 332:Lib/AI_Runtime/Npu/ll_aton/ll_sw_float.c ****   AI_ARRAY_OBJ_DECLARE(sm_scratch0_array, AI_ARRAY_FORMAT_S32, sw_info->scratch.mem.start_offset,
 333:Lib/AI_Runtime/Npu/ll_aton/ll_sw_float.c ****                        sw_info->scratch.mem.start_offset, sw_info->scratch.dim.num_elem, )
ARM GAS  C:\Users\DJESSOU\AppData\Local\Temp\ccdFeyMS.s 			page 32


 334:Lib/AI_Runtime/Npu/ll_aton/ll_sw_float.c **** 
 335:Lib/AI_Runtime/Npu/ll_aton/ll_sw_float.c ****   AI_TENSOR_OBJ_DECLARE(input_output, , 0x0, 4,
 1265              		.loc 1 335 3 view .LVU355
 1266 001c 4FF0827C 		mov	ip, #17039360
 324:Lib/AI_Runtime/Npu/ll_aton/ll_sw_float.c ****   AI_ARRAY_OBJ_DECLARE(input_output_array, format, sw_info->general.input.mem.start_offset,
 1267              		.loc 1 324 3 view .LVU356
 1268 0020 0791     		str	r1, [sp, #28]
 1269 0022 A16A     		ldr	r1, [r4, #40]
 1270              		.loc 1 335 3 view .LVU357
 1271 0024 40F20146 		movw	r6, #1025
 324:Lib/AI_Runtime/Npu/ll_aton/ll_sw_float.c ****   AI_ARRAY_OBJ_DECLARE(input_output_array, format, sw_info->general.input.mem.start_offset,
 1272              		.loc 1 324 3 view .LVU358
 1273 0028 CDE90811 		strd	r1, r1, [sp, #32]
 327:Lib/AI_Runtime/Npu/ll_aton/ll_sw_float.c ****                                                     : (AI_ARRAY_FORMAT_U8 | AI_FMT_FLAG_IS_IO);
 1274              		.loc 1 327 3 is_stmt 1 view .LVU359
 328:Lib/AI_Runtime/Npu/ll_aton/ll_sw_float.c ****   AI_ARRAY_OBJ_DECLARE(softmax_output_array, format, sw_info->general.output.mem.start_offset,
 1275              		.loc 1 328 53 is_stmt 0 view .LVU360
 1276 002c 94F85810 		ldrb	r1, [r4, #88]	@ zero_extendqisi2
 1277              		.loc 1 335 3 view .LVU361
 1278 0030 2769     		ldr	r7, [r4, #16]
 328:Lib/AI_Runtime/Npu/ll_aton/ll_sw_float.c ****   AI_ARRAY_OBJ_DECLARE(softmax_output_array, format, sw_info->general.output.mem.start_offset,
 1279              		.loc 1 328 53 discriminator 1 view .LVU362
 1280 0032 0029     		cmp	r1, #0
 332:Lib/AI_Runtime/Npu/ll_aton/ll_sw_float.c ****                        sw_info->scratch.mem.start_offset, sw_info->scratch.dim.num_elem, )
 1281              		.loc 1 332 3 view .LVU363
 1282 0034 4C49     		ldr	r1, .L29+8
 328:Lib/AI_Runtime/Npu/ll_aton/ll_sw_float.c ****   AI_ARRAY_OBJ_DECLARE(softmax_output_array, format, sw_info->general.output.mem.start_offset,
 1283              		.loc 1 328 53 discriminator 1 view .LVU364
 1284 0036 18BF     		it	ne
 1285 0038 1346     		movne	r3, r2
 1286              	.LVL29:
 329:Lib/AI_Runtime/Npu/ll_aton/ll_sw_float.c ****                        sw_info->general.output.mem.start_offset, sw_info->general.output.dim.num_el
 1287              		.loc 1 329 3 is_stmt 1 view .LVU365
 332:Lib/AI_Runtime/Npu/ll_aton/ll_sw_float.c ****                        sw_info->scratch.mem.start_offset, sw_info->scratch.dim.num_elem, )
 1288              		.loc 1 332 3 is_stmt 0 view .LVU366
 1289 003a 0E91     		str	r1, [sp, #56]
 1290 003c E16E     		ldr	r1, [r4, #108]
 329:Lib/AI_Runtime/Npu/ll_aton/ll_sw_float.c ****                        sw_info->general.output.mem.start_offset, sw_info->general.output.dim.num_el
 1291              		.loc 1 329 3 view .LVU367
 1292 003e 0A93     		str	r3, [sp, #40]
 332:Lib/AI_Runtime/Npu/ll_aton/ll_sw_float.c ****                        sw_info->scratch.mem.start_offset, sw_info->scratch.dim.num_elem, )
 1293              		.loc 1 332 3 view .LVU368
 1294 0040 0F91     		str	r1, [sp, #60]
 1295 0042 D4F88010 		ldr	r1, [r4, #128]
 329:Lib/AI_Runtime/Npu/ll_aton/ll_sw_float.c ****                        sw_info->general.output.mem.start_offset, sw_info->general.output.dim.num_el
 1296              		.loc 1 329 3 view .LVU369
 1297 0046 236C     		ldr	r3, [r4, #64]
 1298              	.LVL30:
 332:Lib/AI_Runtime/Npu/ll_aton/ll_sw_float.c ****                        sw_info->scratch.mem.start_offset, sw_info->scratch.dim.num_elem, )
 1299              		.loc 1 332 3 view .LVU370
 1300 0048 CDE91011 		strd	r1, r1, [sp, #64]
 1301              		.loc 1 335 3 view .LVU371
 1302 004c 0021     		movs	r1, #0
 1303 004e 1297     		str	r7, [sp, #72]
 1304 0050 E768     		ldr	r7, [r4, #12]
 329:Lib/AI_Runtime/Npu/ll_aton/ll_sw_float.c ****                        sw_info->general.output.mem.start_offset, sw_info->general.output.dim.num_el
 1305              		.loc 1 329 3 view .LVU372
ARM GAS  C:\Users\DJESSOU\AppData\Local\Temp\ccdFeyMS.s 			page 33


 1306 0052 0B93     		str	r3, [sp, #44]
 1307              		.loc 1 335 3 view .LVU373
 1308 0054 1397     		str	r7, [sp, #76]
 329:Lib/AI_Runtime/Npu/ll_aton/ll_sw_float.c ****                        sw_info->general.output.mem.start_offset, sw_info->general.output.dim.num_el
 1309              		.loc 1 329 3 view .LVU374
 1310 0056 636D     		ldr	r3, [r4, #84]
 1311              		.loc 1 335 3 view .LVU375
 1312 0058 A768     		ldr	r7, [r4, #8]
 1313 005a CDE92A1C 		strd	r1, ip, [sp, #168]
 329:Lib/AI_Runtime/Npu/ll_aton/ll_sw_float.c ****                        sw_info->general.output.mem.start_offset, sw_info->general.output.dim.num_el
 1314              		.loc 1 329 3 view .LVU376
 1315 005e CDE90C33 		strd	r3, r3, [sp, #48]
 332:Lib/AI_Runtime/Npu/ll_aton/ll_sw_float.c ****                        sw_info->scratch.mem.start_offset, sw_info->scratch.dim.num_elem, )
 1316              		.loc 1 332 3 is_stmt 1 view .LVU377
 1317              		.loc 1 335 3 view .LVU378
 1318 0062 2C96     		str	r6, [sp, #176]
 1319 0064 1497     		str	r7, [sp, #80]
 1320 0066 6768     		ldr	r7, [r4, #4]
 1321 0068 12AD     		add	r5, sp, #72
 1322 006a 1597     		str	r7, [sp, #84]
 1323 006c 40F20247 		movw	r7, #1026
 1324 0070 2D95     		str	r5, [sp, #180]
 1325 0072 656A     		ldr	r5, [r4, #36]
 324:Lib/AI_Runtime/Npu/ll_aton/ll_sw_float.c ****                        sw_info->general.input.mem.start_offset, sw_info->general.input.dim.num_elem
 1326              		.loc 1 324 3 is_stmt 0 view .LVU379
 1327 0074 06A8     		add	r0, sp, #24
 1328              	.LVL31:
 1329              		.loc 1 335 3 view .LVU380
 1330 0076 1695     		str	r5, [sp, #88]
 1331 0078 256A     		ldr	r5, [r4, #32]
 336:Lib/AI_Runtime/Npu/ll_aton/ll_sw_float.c ****                         SHAPE_INIT(sw_info->general.input.dim.tensor_h, sw_info->general.input.dim.
 337:Lib/AI_Runtime/Npu/ll_aton/ll_sw_float.c ****                                    sw_info->general.input.dim.tensor_c, sw_info->general.input.dim.
 338:Lib/AI_Runtime/Npu/ll_aton/ll_sw_float.c ****                         STRIDE_INIT(sw_info->general.input.stride.h, sw_info->general.input.stride.
 339:Lib/AI_Runtime/Npu/ll_aton/ll_sw_float.c ****                                     sw_info->general.input.stride.c, sw_info->general.input.stride.
 340:Lib/AI_Runtime/Npu/ll_aton/ll_sw_float.c ****                         1, &input_output_array, NULL);
 341:Lib/AI_Runtime/Npu/ll_aton/ll_sw_float.c **** 
 342:Lib/AI_Runtime/Npu/ll_aton/ll_sw_float.c ****   AI_TENSOR_OBJ_DECLARE(softmax_output, , 0x0, 4,
 1332              		.loc 1 342 3 view .LVU381
 1333 007a CDE9311C 		strd	r1, ip, [sp, #196]
 335:Lib/AI_Runtime/Npu/ll_aton/ll_sw_float.c ****                         SHAPE_INIT(sw_info->general.input.dim.tensor_h, sw_info->general.input.dim.
 1334              		.loc 1 335 3 view .LVU382
 1335 007e 1795     		str	r5, [sp, #92]
 1336 0080 E569     		ldr	r5, [r4, #28]
 1337 0082 2E97     		str	r7, [sp, #184]
 1338 0084 1895     		str	r5, [sp, #96]
 1339 0086 A569     		ldr	r5, [r4, #24]
 1340              		.loc 1 342 3 view .LVU383
 1341 0088 3396     		str	r6, [sp, #204]
 335:Lib/AI_Runtime/Npu/ll_aton/ll_sw_float.c ****                         SHAPE_INIT(sw_info->general.input.dim.tensor_h, sw_info->general.input.dim.
 1342              		.loc 1 335 3 view .LVU384
 1343 008a 1995     		str	r5, [sp, #100]
 1344 008c 16AD     		add	r5, sp, #88
 1345 008e CDE92F50 		strd	r5, r0, [sp, #188]
 340:Lib/AI_Runtime/Npu/ll_aton/ll_sw_float.c **** 
 1346              		.loc 1 340 54 is_stmt 1 view .LVU385
 1347              		.loc 1 342 3 view .LVU386
 1348 0092 E06B     		ldr	r0, [r4, #60]
ARM GAS  C:\Users\DJESSOU\AppData\Local\Temp\ccdFeyMS.s 			page 34


 329:Lib/AI_Runtime/Npu/ll_aton/ll_sw_float.c ****                        sw_info->general.output.mem.start_offset, sw_info->general.output.dim.num_el
 1349              		.loc 1 329 3 is_stmt 0 view .LVU387
 1350 0094 0AAA     		add	r2, sp, #40
 1351              	.LVL32:
 1352              		.loc 1 342 3 view .LVU388
 1353 0096 1A90     		str	r0, [sp, #104]
 1354 0098 A06B     		ldr	r0, [r4, #56]
 332:Lib/AI_Runtime/Npu/ll_aton/ll_sw_float.c ****                        sw_info->scratch.mem.start_offset, sw_info->scratch.dim.num_elem, )
 1355              		.loc 1 332 3 view .LVU389
 1356 009a 0EAB     		add	r3, sp, #56
 1357              		.loc 1 342 3 view .LVU390
 1358 009c 1B90     		str	r0, [sp, #108]
 1359 009e 606B     		ldr	r0, [r4, #52]
 343:Lib/AI_Runtime/Npu/ll_aton/ll_sw_float.c ****                         SHAPE_INIT(sw_info->general.output.dim.tensor_h, sw_info->general.output.di
 344:Lib/AI_Runtime/Npu/ll_aton/ll_sw_float.c ****                                    sw_info->general.output.dim.tensor_c, sw_info->general.output.di
 345:Lib/AI_Runtime/Npu/ll_aton/ll_sw_float.c ****                         STRIDE_INIT(sw_info->general.output.stride.h, sw_info->general.output.strid
 346:Lib/AI_Runtime/Npu/ll_aton/ll_sw_float.c ****                                     sw_info->general.output.stride.c, sw_info->general.output.strid
 347:Lib/AI_Runtime/Npu/ll_aton/ll_sw_float.c ****                         1, &softmax_output_array, NULL);
 348:Lib/AI_Runtime/Npu/ll_aton/ll_sw_float.c **** 
 349:Lib/AI_Runtime/Npu/ll_aton/ll_sw_float.c ****   AI_TENSOR_OBJ_DECLARE(sm_scratch0, , 0x0, 4,
 350:Lib/AI_Runtime/Npu/ll_aton/ll_sw_float.c ****                         SHAPE_INIT(sw_info->scratch.dim.tensor_h, sw_info->scratch.dim.tensor_w,
 351:Lib/AI_Runtime/Npu/ll_aton/ll_sw_float.c ****                                    sw_info->scratch.dim.tensor_c, sw_info->scratch.dim.tensor_b),
 352:Lib/AI_Runtime/Npu/ll_aton/ll_sw_float.c ****                         STRIDE_INIT(sw_info->scratch.stride.h, sw_info->scratch.stride.w, sw_info->
 353:Lib/AI_Runtime/Npu/ll_aton/ll_sw_float.c ****                                     sw_info->scratch.stride.b),
 354:Lib/AI_Runtime/Npu/ll_aton/ll_sw_float.c ****                         1, &sm_scratch0_array, NULL);
 355:Lib/AI_Runtime/Npu/ll_aton/ll_sw_float.c **** 
 356:Lib/AI_Runtime/Npu/ll_aton/ll_sw_float.c ****   // tensor chain initialization
 357:Lib/AI_Runtime/Npu/ll_aton/ll_sw_float.c ****   AI_TENSOR_CHAIN_OBJ_DECLARE(softmax_chain, , 4, AI_TENSOR_LIST_OBJ_INIT(AI_FLAG_NONE, 1, TENSORS(
 1360              		.loc 1 357 3 view .LVU391
 1361 00a0 04AD     		add	r5, sp, #16
 342:Lib/AI_Runtime/Npu/ll_aton/ll_sw_float.c ****                         SHAPE_INIT(sw_info->general.output.dim.tensor_h, sw_info->general.output.di
 1362              		.loc 1 342 3 view .LVU392
 1363 00a2 1C90     		str	r0, [sp, #112]
 1364 00a4 206B     		ldr	r0, [r4, #48]
 1365 00a6 1D90     		str	r0, [sp, #116]
 1366 00a8 1AA8     		add	r0, sp, #104
 1367 00aa CDE93407 		strd	r0, r7, [sp, #208]
 1368 00ae 206D     		ldr	r0, [r4, #80]
 1369 00b0 1E90     		str	r0, [sp, #120]
 1370 00b2 E06C     		ldr	r0, [r4, #76]
 1371 00b4 1F90     		str	r0, [sp, #124]
 1372 00b6 A06C     		ldr	r0, [r4, #72]
 1373 00b8 2090     		str	r0, [sp, #128]
 1374 00ba 606C     		ldr	r0, [r4, #68]
 349:Lib/AI_Runtime/Npu/ll_aton/ll_sw_float.c ****                         SHAPE_INIT(sw_info->scratch.dim.tensor_h, sw_info->scratch.dim.tensor_w,
 1375              		.loc 1 349 3 view .LVU393
 1376 00bc CDE9381C 		strd	r1, ip, [sp, #224]
 342:Lib/AI_Runtime/Npu/ll_aton/ll_sw_float.c ****                         SHAPE_INIT(sw_info->general.output.dim.tensor_h, sw_info->general.output.di
 1377              		.loc 1 342 3 view .LVU394
 1378 00c0 2190     		str	r0, [sp, #132]
 1379 00c2 1EA8     		add	r0, sp, #120
 1380 00c4 CDE93602 		strd	r0, r2, [sp, #216]
 347:Lib/AI_Runtime/Npu/ll_aton/ll_sw_float.c **** 
 1381              		.loc 1 347 56 is_stmt 1 view .LVU395
 349:Lib/AI_Runtime/Npu/ll_aton/ll_sw_float.c ****                         SHAPE_INIT(sw_info->scratch.dim.tensor_h, sw_info->scratch.dim.tensor_w,
 1382              		.loc 1 349 3 view .LVU396
 1383 00c8 A26E     		ldr	r2, [r4, #104]
ARM GAS  C:\Users\DJESSOU\AppData\Local\Temp\ccdFeyMS.s 			page 35


 1384              	.LVL33:
 349:Lib/AI_Runtime/Npu/ll_aton/ll_sw_float.c ****                         SHAPE_INIT(sw_info->scratch.dim.tensor_h, sw_info->scratch.dim.tensor_w,
 1385              		.loc 1 349 3 is_stmt 0 view .LVU397
 1386 00ca 3A96     		str	r6, [sp, #232]
 1387 00cc 2292     		str	r2, [sp, #136]
 1388 00ce 626E     		ldr	r2, [r4, #100]
 1389              		.loc 1 357 3 view .LVU398
 1390 00d0 CDF824D1 		str	sp, [sp, #292]
 349:Lib/AI_Runtime/Npu/ll_aton/ll_sw_float.c ****                         SHAPE_INIT(sw_info->scratch.dim.tensor_h, sw_info->scratch.dim.tensor_w,
 1391              		.loc 1 349 3 view .LVU399
 1392 00d4 2392     		str	r2, [sp, #140]
 1393 00d6 226E     		ldr	r2, [r4, #96]
 1394              		.loc 1 357 3 view .LVU400
 1395 00d8 31A8     		add	r0, sp, #196
 349:Lib/AI_Runtime/Npu/ll_aton/ll_sw_float.c ****                         SHAPE_INIT(sw_info->scratch.dim.tensor_h, sw_info->scratch.dim.tensor_w,
 1396              		.loc 1 349 3 view .LVU401
 1397 00da 2492     		str	r2, [sp, #144]
 1398 00dc E26D     		ldr	r2, [r4, #92]
 1399 00de 2592     		str	r2, [sp, #148]
 1400 00e0 22AA     		add	r2, sp, #136
 1401 00e2 CDE93B27 		strd	r2, r7, [sp, #236]
 1402 00e6 E26F     		ldr	r2, [r4, #124]
 1403 00e8 2692     		str	r2, [sp, #152]
 1404 00ea A26F     		ldr	r2, [r4, #120]
 1405 00ec 2792     		str	r2, [sp, #156]
 1406 00ee 626F     		ldr	r2, [r4, #116]
 1407 00f0 2892     		str	r2, [sp, #160]
 1408 00f2 226F     		ldr	r2, [r4, #112]
 1409 00f4 2992     		str	r2, [sp, #164]
 1410 00f6 26AA     		add	r2, sp, #152
 1411 00f8 CDE93D23 		strd	r2, r3, [sp, #244]
 354:Lib/AI_Runtime/Npu/ll_aton/ll_sw_float.c **** 
 1412              		.loc 1 354 53 is_stmt 1 view .LVU402
 1413              		.loc 1 357 3 view .LVU403
 1414 00fc 0423     		movs	r3, #4
 1415 00fe 0493     		str	r3, [sp, #16]
 1416 0100 0123     		movs	r3, #1
 1417 0102 2AAA     		add	r2, sp, #168
 1418 0104 4893     		str	r3, [sp, #288]
 1419 0106 0092     		str	r2, [sp]
 1420 0108 CDE94A13 		strd	r1, r3, [sp, #296]
 1421 010c 01AA     		add	r2, sp, #4
 1422 010e 5193     		str	r3, [sp, #324]
 1423 0110 03AB     		add	r3, sp, #12
 1424 0112 CDE94C21 		strd	r2, r1, [sp, #304]
 1425 0116 CDE95231 		strd	r3, r1, [sp, #328]
 1426 011a 02AA     		add	r2, sp, #8
 1427 011c 48AB     		add	r3, sp, #288
 1428 011e CDE94F21 		strd	r2, r1, [sp, #316]
 1429 0122 0593     		str	r3, [sp, #20]
 358:Lib/AI_Runtime/Npu/ll_aton/ll_sw_float.c ****                               AI_TENSOR_LIST_OBJ_INIT(AI_FLAG_NONE, 1, TENSORS(&softmax_output)),
 359:Lib/AI_Runtime/Npu/ll_aton/ll_sw_float.c ****                               AI_TENSOR_LIST_OBJ_EMPTY, AI_TENSOR_LIST_OBJ_INIT(AI_FLAG_NONE, 1, TE
 360:Lib/AI_Runtime/Npu/ll_aton/ll_sw_float.c **** 
 361:Lib/AI_Runtime/Npu/ll_aton/ll_sw_float.c ****   AI_LAYER_OBJ_DECLARE(sm_layer, 1, SM_TYPE, 0x0, NULL, sm, forward_sm, &softmax_chain, NULL, NULL,
 1430              		.loc 1 361 3 view .LVU404
 357:Lib/AI_Runtime/Npu/ll_aton/ll_sw_float.c ****                               AI_TENSOR_LIST_OBJ_INIT(AI_FLAG_NONE, 1, TENSORS(&softmax_output)),
 1431              		.loc 1 357 3 is_stmt 0 view .LVU405
ARM GAS  C:\Users\DJESSOU\AppData\Local\Temp\ccdFeyMS.s 			page 36


 1432 0124 38AA     		add	r2, sp, #224
 1433              		.loc 1 361 3 view .LVU406
 1434 0126 114B     		ldr	r3, .L29+12
 357:Lib/AI_Runtime/Npu/ll_aton/ll_sw_float.c ****                               AI_TENSOR_LIST_OBJ_INIT(AI_FLAG_NONE, 1, TENSORS(&softmax_output)),
 1435              		.loc 1 357 3 view .LVU407
 1436 0128 0190     		str	r0, [sp, #4]
 1437 012a 0392     		str	r2, [sp, #12]
 1438              		.loc 1 361 3 view .LVU408
 1439 012c 40A8     		add	r0, sp, #256
 1440 012e 2022     		movs	r2, #32
 357:Lib/AI_Runtime/Npu/ll_aton/ll_sw_float.c ****                               AI_TENSOR_LIST_OBJ_INIT(AI_FLAG_NONE, 1, TENSORS(&softmax_output)),
 1441              		.loc 1 357 3 view .LVU409
 1442 0130 4E91     		str	r1, [sp, #312]
 1443 0132 0291     		str	r1, [sp, #8]
 1444              		.loc 1 361 3 view .LVU410
 1445 0134 3F93     		str	r3, [sp, #252]
 1446 0136 FFF7FEFF 		bl	memset
 1447              	.LVL34:
 1448              		.loc 1 361 3 view .LVU411
 1449 013a 0D4B     		ldr	r3, .L29+16
 362:Lib/AI_Runtime/Npu/ll_aton/ll_sw_float.c ****                        .axis = helper_emit_shape_index_axis(sw_info->axis))
 363:Lib/AI_Runtime/Npu/ll_aton/ll_sw_float.c ****   sm_layer.forward(AI_LAYER_OBJ(&sm_layer));
 1450              		.loc 1 363 3 view .LVU412
 1451 013c 3FA8     		add	r0, sp, #252
 361:Lib/AI_Runtime/Npu/ll_aton/ll_sw_float.c ****                        .axis = helper_emit_shape_index_axis(sw_info->axis))
 1452              		.loc 1 361 3 view .LVU413
 1453 013e CDE94435 		strd	r3, r5, [sp, #272]
 1454              	.LVL35:
 1455              	.LBB13:
 1456              	.LBI13:
  46:Lib/AI_Runtime/Npu/ll_aton/ll_sw_float.c **** {
 1457              		.loc 1 46 12 is_stmt 1 view .LVU414
  48:Lib/AI_Runtime/Npu/ll_aton/ll_sw_float.c ****   {
 1458              		.loc 1 48 3 view .LVU415
 1459 0142 D4F88830 		ldr	r3, [r4, #136]
 1460 0146 032B     		cmp	r3, #3
 1461              	.LBE13:
 361:Lib/AI_Runtime/Npu/ll_aton/ll_sw_float.c ****                        .axis = helper_emit_shape_index_axis(sw_info->axis))
 1462              		.loc 1 361 3 is_stmt 0 view .LVU416
 1463 0148 8EBF     		itee	hi
 1464 014a 4FF0FF33 		movhi	r3, #-1
 1465              	.LVL36:
 361:Lib/AI_Runtime/Npu/ll_aton/ll_sw_float.c ****                        .axis = helper_emit_shape_index_axis(sw_info->axis))
 1466              		.loc 1 361 3 view .LVU417
 1467 014e 094A     		ldrls	r2, .L29+20
 1468 0150 D356     		ldrsbls	r3, [r2, r3]
 361:Lib/AI_Runtime/Npu/ll_aton/ll_sw_float.c ****                        .axis = helper_emit_shape_index_axis(sw_info->axis))
 1469              		.loc 1 361 3 discriminator 1 view .LVU418
 1470 0152 ADF81C31 		strh	r3, [sp, #284]	@ movhi
 1471              		.loc 1 363 3 is_stmt 1 view .LVU419
 1472 0156 FFF7FEFF 		bl	forward_sm
 1473              	.LVL37:
 364:Lib/AI_Runtime/Npu/ll_aton/ll_sw_float.c **** }
 1474              		.loc 1 364 1 is_stmt 0 view .LVU420
 1475 015a 55B0     		add	sp, sp, #340
 1476              		.cfi_def_cfa_offset 20
 1477              		@ sp needed
ARM GAS  C:\Users\DJESSOU\AppData\Local\Temp\ccdFeyMS.s 			page 37


 1478 015c F0BD     		pop	{r4, r5, r6, r7, pc}
 1479              	.LVL38:
 1480              	.L30:
 1481              		.loc 1 364 1 view .LVU421
 1482 015e 00BF     		.align	2
 1483              	.L29:
 1484 0160 40040408 		.word	134480960
 1485 0164 40048408 		.word	142869568
 1486 0168 40108400 		.word	8654912
 1487 016c 0C010100 		.word	65804
 1488 0170 00000000 		.word	forward_sm
 1489 0174 00000000 		.word	CSWTCH.4
 1490              		.cfi_endproc
 1491              	.LFE19:
 1493              		.section	.text.ll_sw_forward_activ,"ax",%progbits
 1494              		.align	1
 1495              		.global	ll_sw_forward_activ
 1496              		.syntax unified
 1497              		.thumb
 1498              		.thumb_func
 1500              	ll_sw_forward_activ:
 1501              	.LVL39:
 1502              	.LFB20:
 365:Lib/AI_Runtime/Npu/ll_aton/ll_sw_float.c **** 
 366:Lib/AI_Runtime/Npu/ll_aton/ll_sw_float.c **** //##########################################################################################
 367:Lib/AI_Runtime/Npu/ll_aton/ll_sw_float.c **** /** activ forward function  */
 368:Lib/AI_Runtime/Npu/ll_aton/ll_sw_float.c **** void ll_sw_forward_activ(/* int processor, */ void *sw_info_struct)
 369:Lib/AI_Runtime/Npu/ll_aton/ll_sw_float.c **** {
 1503              		.loc 1 369 1 is_stmt 1 view -0
 1504              		.cfi_startproc
 1505              		@ args = 0, pretend = 0, frame = 408
 1506              		@ frame_needed = 0, uses_anonymous_args = 0
 370:Lib/AI_Runtime/Npu/ll_aton/ll_sw_float.c ****   Activ_sw_info *sw_info = (Activ_sw_info *)sw_info_struct;
 1507              		.loc 1 370 3 view .LVU423
 371:Lib/AI_Runtime/Npu/ll_aton/ll_sw_float.c ****   // array init
 372:Lib/AI_Runtime/Npu/ll_aton/ll_sw_float.c ****   AI_ARRAY_OBJ_DECLARE(input_output_array, FORMAT, sw_info->general.input.mem.start_offset,
 1508              		.loc 1 372 3 view .LVU424
 369:Lib/AI_Runtime/Npu/ll_aton/ll_sw_float.c ****   Activ_sw_info *sw_info = (Activ_sw_info *)sw_info_struct;
 1509              		.loc 1 369 1 is_stmt 0 view .LVU425
 1510 0000 F0B5     		push	{r4, r5, r6, r7, lr}
 1511              		.cfi_def_cfa_offset 20
 1512              		.cfi_offset 4, -20
 1513              		.cfi_offset 5, -16
 1514              		.cfi_offset 6, -12
 1515              		.cfi_offset 7, -8
 1516              		.cfi_offset 14, -4
 1517              		.loc 1 372 3 view .LVU426
 1518 0002 4369     		ldr	r3, [r0, #20]
 369:Lib/AI_Runtime/Npu/ll_aton/ll_sw_float.c ****   Activ_sw_info *sw_info = (Activ_sw_info *)sw_info_struct;
 1519              		.loc 1 369 1 view .LVU427
 1520 0004 E7B0     		sub	sp, sp, #412
 1521              		.cfi_def_cfa_offset 432
 1522              		.loc 1 372 3 view .LVU428
 1523 0006 0E93     		str	r3, [sp, #56]
 1524 0008 836A     		ldr	r3, [r0, #40]
 373:Lib/AI_Runtime/Npu/ll_aton/ll_sw_float.c ****                        sw_info->general.input.mem.start_offset, sw_info->general.input.dim.num_elem
 374:Lib/AI_Runtime/Npu/ll_aton/ll_sw_float.c ****   AI_ARRAY_OBJ_DECLARE(activ_output_array, FORMAT, sw_info->general.output.mem.start_offset,
ARM GAS  C:\Users\DJESSOU\AppData\Local\Temp\ccdFeyMS.s 			page 38


 375:Lib/AI_Runtime/Npu/ll_aton/ll_sw_float.c ****                        sw_info->general.output.mem.start_offset, sw_info->general.output.dim.num_el
 376:Lib/AI_Runtime/Npu/ll_aton/ll_sw_float.c ****   // tensors init
 377:Lib/AI_Runtime/Npu/ll_aton/ll_sw_float.c ****   AI_TENSOR_OBJ_DECLARE(input_output, , 0x0, 4,
 1525              		.loc 1 377 3 view .LVU429
 1526 000a 15AF     		add	r7, sp, #84
 372:Lib/AI_Runtime/Npu/ll_aton/ll_sw_float.c ****                        sw_info->general.input.mem.start_offset, sw_info->general.input.dim.num_elem
 1527              		.loc 1 372 3 view .LVU430
 1528 000c CDE90F33 		strd	r3, r3, [sp, #60]
 374:Lib/AI_Runtime/Npu/ll_aton/ll_sw_float.c ****                        sw_info->general.output.mem.start_offset, sw_info->general.output.dim.num_el
 1529              		.loc 1 374 3 is_stmt 1 view .LVU431
 1530 0010 036C     		ldr	r3, [r0, #64]
 1531              		.loc 1 377 3 is_stmt 0 view .LVU432
 1532 0012 4FF0827C 		mov	ip, #17039360
 374:Lib/AI_Runtime/Npu/ll_aton/ll_sw_float.c ****                        sw_info->general.output.mem.start_offset, sw_info->general.output.dim.num_el
 1533              		.loc 1 374 3 view .LVU433
 1534 0016 1293     		str	r3, [sp, #72]
 1535 0018 436D     		ldr	r3, [r0, #84]
 1536              		.loc 1 377 3 view .LVU434
 1537 001a 40F2014E 		movw	lr, #1025
 374:Lib/AI_Runtime/Npu/ll_aton/ll_sw_float.c ****                        sw_info->general.output.mem.start_offset, sw_info->general.output.dim.num_el
 1538              		.loc 1 374 3 view .LVU435
 1539 001e CDE91333 		strd	r3, r3, [sp, #76]
 1540              		.loc 1 377 3 is_stmt 1 view .LVU436
 1541 0022 3497     		str	r7, [sp, #208]
 1542 0024 0023     		movs	r3, #0
 1543 0026 40F20247 		movw	r7, #1026
 1544 002a 0569     		ldr	r5, [r0, #16]
 1545 002c 466A     		ldr	r6, [r0, #36]
 1546 002e 1595     		str	r5, [sp, #84]
 1547 0030 C568     		ldr	r5, [r0, #12]
 372:Lib/AI_Runtime/Npu/ll_aton/ll_sw_float.c ****                        sw_info->general.input.mem.start_offset, sw_info->general.input.dim.num_elem
 1548              		.loc 1 372 3 is_stmt 0 view .LVU437
 1549 0032 9249     		ldr	r1, .L71
 1550              		.loc 1 377 3 view .LVU438
 1551 0034 1695     		str	r5, [sp, #88]
 1552 0036 8568     		ldr	r5, [r0, #8]
 1553 0038 1996     		str	r6, [sp, #100]
 1554 003a 1795     		str	r5, [sp, #92]
 1555 003c 4568     		ldr	r5, [r0, #4]
 1556 003e 066A     		ldr	r6, [r0, #32]
 372:Lib/AI_Runtime/Npu/ll_aton/ll_sw_float.c ****                        sw_info->general.input.mem.start_offset, sw_info->general.input.dim.num_elem
 1557              		.loc 1 372 3 view .LVU439
 1558 0040 0DAC     		add	r4, sp, #52
 1559              		.loc 1 377 3 view .LVU440
 1560 0042 1895     		str	r5, [sp, #96]
 1561 0044 19AD     		add	r5, sp, #100
 1562 0046 3597     		str	r7, [sp, #212]
 1563 0048 CDE9313C 		strd	r3, ip, [sp, #196]
 372:Lib/AI_Runtime/Npu/ll_aton/ll_sw_float.c ****                        sw_info->general.input.mem.start_offset, sw_info->general.input.dim.num_elem
 1564              		.loc 1 372 3 view .LVU441
 1565 004c 0D91     		str	r1, [sp, #52]
 374:Lib/AI_Runtime/Npu/ll_aton/ll_sw_float.c ****                        sw_info->general.output.mem.start_offset, sw_info->general.output.dim.num_el
 1566              		.loc 1 374 3 view .LVU442
 1567 004e 1191     		str	r1, [sp, #68]
 1568              		.loc 1 377 3 view .LVU443
 1569 0050 CDF8CCE0 		str	lr, [sp, #204]
 1570 0054 1A96     		str	r6, [sp, #104]
ARM GAS  C:\Users\DJESSOU\AppData\Local\Temp\ccdFeyMS.s 			page 39


 1571 0056 C669     		ldr	r6, [r0, #28]
 1572 0058 CDE93654 		strd	r5, r4, [sp, #216]
 378:Lib/AI_Runtime/Npu/ll_aton/ll_sw_float.c ****                         SHAPE_INIT(sw_info->general.input.dim.tensor_h, sw_info->general.input.dim.
 379:Lib/AI_Runtime/Npu/ll_aton/ll_sw_float.c ****                                    sw_info->general.input.dim.tensor_c, sw_info->general.input.dim.
 380:Lib/AI_Runtime/Npu/ll_aton/ll_sw_float.c ****                         STRIDE_INIT(sw_info->general.input.stride.h, sw_info->general.input.stride.
 381:Lib/AI_Runtime/Npu/ll_aton/ll_sw_float.c ****                                     sw_info->general.input.stride.c, sw_info->general.input.stride.
 382:Lib/AI_Runtime/Npu/ll_aton/ll_sw_float.c ****                         1, &input_output_array, NULL)
 383:Lib/AI_Runtime/Npu/ll_aton/ll_sw_float.c ****   AI_TENSOR_OBJ_DECLARE(activ_output, , 0x0, 4,
 1573              		.loc 1 383 3 is_stmt 1 view .LVU444
 1574 005c 1DAC     		add	r4, sp, #116
 374:Lib/AI_Runtime/Npu/ll_aton/ll_sw_float.c ****                        sw_info->general.output.mem.start_offset, sw_info->general.output.dim.num_el
 1575              		.loc 1 374 3 is_stmt 0 view .LVU445
 1576 005e 11AA     		add	r2, sp, #68
 1577              		.loc 1 383 3 view .LVU446
 1578 0060 CDE93B47 		strd	r4, r7, [sp, #236]
 1579 0064 21AC     		add	r4, sp, #132
 1580 0066 CDE93D42 		strd	r4, r2, [sp, #244]
 384:Lib/AI_Runtime/Npu/ll_aton/ll_sw_float.c ****                         SHAPE_INIT(sw_info->general.output.dim.tensor_h, sw_info->general.output.di
 385:Lib/AI_Runtime/Npu/ll_aton/ll_sw_float.c ****                                    sw_info->general.output.dim.tensor_c, sw_info->general.output.di
 386:Lib/AI_Runtime/Npu/ll_aton/ll_sw_float.c ****                         STRIDE_INIT(sw_info->general.output.stride.h, sw_info->general.output.strid
 387:Lib/AI_Runtime/Npu/ll_aton/ll_sw_float.c ****                                     sw_info->general.output.stride.c, sw_info->general.output.strid
 388:Lib/AI_Runtime/Npu/ll_aton/ll_sw_float.c ****                         1, &activ_output_array, NULL)
 389:Lib/AI_Runtime/Npu/ll_aton/ll_sw_float.c ****   // tensor chains init
 390:Lib/AI_Runtime/Npu/ll_aton/ll_sw_float.c ****   AI_TENSOR_CHAIN_OBJ_DECLARE(activ_chain, , 4, AI_TENSOR_LIST_OBJ_INIT(AI_FLAG_NONE, 1, TENSORS(&i
 1581              		.loc 1 390 3 is_stmt 1 view .LVU447
 1582 006a 0424     		movs	r4, #4
 1583 006c 0994     		str	r4, [sp, #36]
 1584 006e 0124     		movs	r4, #1
 383:Lib/AI_Runtime/Npu/ll_aton/ll_sw_float.c ****                         SHAPE_INIT(sw_info->general.output.dim.tensor_h, sw_info->general.output.di
 1585              		.loc 1 383 3 is_stmt 0 view .LVU448
 1586 0070 C56B     		ldr	r5, [r0, #60]
 377:Lib/AI_Runtime/Npu/ll_aton/ll_sw_float.c ****                         SHAPE_INIT(sw_info->general.input.dim.tensor_h, sw_info->general.input.dim.
 1587              		.loc 1 377 3 view .LVU449
 1588 0072 1B96     		str	r6, [sp, #108]
 383:Lib/AI_Runtime/Npu/ll_aton/ll_sw_float.c ****                         SHAPE_INIT(sw_info->general.output.dim.tensor_h, sw_info->general.output.di
 1589              		.loc 1 383 3 view .LVU450
 1590 0074 1D95     		str	r5, [sp, #116]
 1591 0076 856B     		ldr	r5, [r0, #56]
 377:Lib/AI_Runtime/Npu/ll_aton/ll_sw_float.c ****                         SHAPE_INIT(sw_info->general.input.dim.tensor_h, sw_info->general.input.dim.
 1592              		.loc 1 377 3 view .LVU451
 1593 0078 8669     		ldr	r6, [r0, #24]
 383:Lib/AI_Runtime/Npu/ll_aton/ll_sw_float.c ****                         SHAPE_INIT(sw_info->general.output.dim.tensor_h, sw_info->general.output.di
 1594              		.loc 1 383 3 view .LVU452
 1595 007a 1E95     		str	r5, [sp, #120]
 1596 007c 456B     		ldr	r5, [r0, #52]
 377:Lib/AI_Runtime/Npu/ll_aton/ll_sw_float.c ****                         SHAPE_INIT(sw_info->general.input.dim.tensor_h, sw_info->general.input.dim.
 1597              		.loc 1 377 3 view .LVU453
 1598 007e 1C96     		str	r6, [sp, #112]
 383:Lib/AI_Runtime/Npu/ll_aton/ll_sw_float.c ****                         SHAPE_INIT(sw_info->general.output.dim.tensor_h, sw_info->general.output.di
 1599              		.loc 1 383 3 view .LVU454
 1600 0080 1F95     		str	r5, [sp, #124]
 1601 0082 056B     		ldr	r5, [r0, #48]
 1602              		.loc 1 390 3 view .LVU455
 1603 0084 02AF     		add	r7, sp, #8
 383:Lib/AI_Runtime/Npu/ll_aton/ll_sw_float.c ****                         SHAPE_INIT(sw_info->general.output.dim.tensor_h, sw_info->general.output.di
 1604              		.loc 1 383 3 view .LVU456
 1605 0086 2095     		str	r5, [sp, #128]
ARM GAS  C:\Users\DJESSOU\AppData\Local\Temp\ccdFeyMS.s 			page 40


 1606 0088 056D     		ldr	r5, [r0, #80]
 1607              		.loc 1 390 3 view .LVU457
 1608 008a 31AE     		add	r6, sp, #196
 383:Lib/AI_Runtime/Npu/ll_aton/ll_sw_float.c ****                         SHAPE_INIT(sw_info->general.output.dim.tensor_h, sw_info->general.output.di
 1609              		.loc 1 383 3 view .LVU458
 1610 008c 2195     		str	r5, [sp, #132]
 1611 008e C56C     		ldr	r5, [r0, #76]
 1612 0090 CDE9383C 		strd	r3, ip, [sp, #224]
 1613 0094 2295     		str	r5, [sp, #136]
 1614 0096 856C     		ldr	r5, [r0, #72]
 1615 0098 CDF8E8E0 		str	lr, [sp, #232]
 1616 009c 2395     		str	r5, [sp, #140]
 1617 009e 456C     		ldr	r5, [r0, #68]
 1618              		.loc 1 390 3 view .LVU459
 1619 00a0 4E94     		str	r4, [sp, #312]
 383:Lib/AI_Runtime/Npu/ll_aton/ll_sw_float.c ****                         SHAPE_INIT(sw_info->general.output.dim.tensor_h, sw_info->general.output.di
 1620              		.loc 1 383 3 view .LVU460
 1621 00a2 2495     		str	r5, [sp, #144]
 1622              		.loc 1 390 3 view .LVU461
 1623 00a4 01AD     		add	r5, sp, #4
 1624 00a6 0196     		str	r6, [sp, #4]
 1625 00a8 CDE94F53 		strd	r5, r3, [sp, #316]
 1626 00ac CDE95273 		strd	r7, r3, [sp, #328]
 1627 00b0 03AF     		add	r7, sp, #12
 1628 00b2 CDE95573 		strd	r7, r3, [sp, #340]
 1629 00b6 04AF     		add	r7, sp, #16
 1630 00b8 CDE95873 		strd	r7, r3, [sp, #352]
 1631 00bc 4EAF     		add	r7, sp, #312
 1632 00be 0A97     		str	r7, [sp, #40]
 391:Lib/AI_Runtime/Npu/ll_aton/ll_sw_float.c ****                               AI_TENSOR_LIST_OBJ_INIT(AI_FLAG_NONE, 1, TENSORS(&activ_output)),
 392:Lib/AI_Runtime/Npu/ll_aton/ll_sw_float.c ****                               AI_TENSOR_LIST_OBJ_EMPTY, AI_TENSOR_LIST_OBJ_EMPTY)
 393:Lib/AI_Runtime/Npu/ll_aton/ll_sw_float.c **** 
 394:Lib/AI_Runtime/Npu/ll_aton/ll_sw_float.c ****   // layer initialization
 395:Lib/AI_Runtime/Npu/ll_aton/ll_sw_float.c ****   switch (sw_info->general.type)
 1633              		.loc 1 395 3 is_stmt 1 view .LVU462
 1634 00c0 0778     		ldrb	r7, [r0]	@ zero_extendqisi2
 390:Lib/AI_Runtime/Npu/ll_aton/ll_sw_float.c ****                               AI_TENSOR_LIST_OBJ_INIT(AI_FLAG_NONE, 1, TENSORS(&activ_output)),
 1635              		.loc 1 390 3 is_stmt 0 view .LVU463
 1636 00c2 38AD     		add	r5, sp, #224
 1637              		.loc 1 395 3 view .LVU464
 1638 00c4 013F     		subs	r7, r7, #1
 390:Lib/AI_Runtime/Npu/ll_aton/ll_sw_float.c ****                               AI_TENSOR_LIST_OBJ_INIT(AI_FLAG_NONE, 1, TENSORS(&activ_output)),
 1639              		.loc 1 390 3 view .LVU465
 1640 00c6 09AA     		add	r2, sp, #36
 1641 00c8 5194     		str	r4, [sp, #324]
 1642 00ca 0295     		str	r5, [sp, #8]
 1643 00cc 5493     		str	r3, [sp, #336]
 1644 00ce 0393     		str	r3, [sp, #12]
 1645 00d0 5793     		str	r3, [sp, #348]
 1646 00d2 0493     		str	r3, [sp, #16]
 1647              		.loc 1 395 3 view .LVU466
 1648 00d4 522F     		cmp	r7, #82
 1649 00d6 61D8     		bhi	.L31
 1650 00d8 DFE817F0 		tbh	[pc, r7, lsl #1]
 1651              	.L34:
 1652 00dc 5300     		.2byte	(.L69-.L34)/2
 1653 00de 7E00     		.2byte	(.L68-.L34)/2
ARM GAS  C:\Users\DJESSOU\AppData\Local\Temp\ccdFeyMS.s 			page 41


 1654 00e0 F200     		.2byte	(.L67-.L34)/2
 1655 00e2 DA00     		.2byte	(.L66-.L34)/2
 1656 00e4 0A01     		.2byte	(.L65-.L34)/2
 1657 00e6 6000     		.2byte	(.L31-.L34)/2
 1658 00e8 6000     		.2byte	(.L31-.L34)/2
 1659 00ea 6000     		.2byte	(.L31-.L34)/2
 1660 00ec 6000     		.2byte	(.L31-.L34)/2
 1661 00ee 6000     		.2byte	(.L31-.L34)/2
 1662 00f0 6000     		.2byte	(.L31-.L34)/2
 1663 00f2 6000     		.2byte	(.L31-.L34)/2
 1664 00f4 6000     		.2byte	(.L31-.L34)/2
 1665 00f6 6000     		.2byte	(.L31-.L34)/2
 1666 00f8 6000     		.2byte	(.L31-.L34)/2
 1667 00fa 6000     		.2byte	(.L31-.L34)/2
 1668 00fc 6000     		.2byte	(.L31-.L34)/2
 1669 00fe 6000     		.2byte	(.L31-.L34)/2
 1670 0100 6000     		.2byte	(.L31-.L34)/2
 1671 0102 0602     		.2byte	(.L64-.L34)/2
 1672 0104 9601     		.2byte	(.L63-.L34)/2
 1673 0106 A401     		.2byte	(.L62-.L34)/2
 1674 0108 5E01     		.2byte	(.L61-.L34)/2
 1675 010a 6C01     		.2byte	(.L60-.L34)/2
 1676 010c 7A01     		.2byte	(.L59-.L34)/2
 1677 010e 8801     		.2byte	(.L58-.L34)/2
 1678 0110 F801     		.2byte	(.L57-.L34)/2
 1679 0112 EA01     		.2byte	(.L56-.L34)/2
 1680 0114 B201     		.2byte	(.L55-.L34)/2
 1681 0116 C001     		.2byte	(.L54-.L34)/2
 1682 0118 CE01     		.2byte	(.L53-.L34)/2
 1683 011a DC01     		.2byte	(.L52-.L34)/2
 1684 011c 1402     		.2byte	(.L51-.L34)/2
 1685 011e 2601     		.2byte	(.L50-.L34)/2
 1686 0120 6000     		.2byte	(.L31-.L34)/2
 1687 0122 3401     		.2byte	(.L49-.L34)/2
 1688 0124 4201     		.2byte	(.L48-.L34)/2
 1689 0126 5001     		.2byte	(.L47-.L34)/2
 1690 0128 6000     		.2byte	(.L31-.L34)/2
 1691 012a 6000     		.2byte	(.L31-.L34)/2
 1692 012c 6000     		.2byte	(.L31-.L34)/2
 1693 012e 6000     		.2byte	(.L31-.L34)/2
 1694 0130 6000     		.2byte	(.L31-.L34)/2
 1695 0132 6000     		.2byte	(.L31-.L34)/2
 1696 0134 6000     		.2byte	(.L31-.L34)/2
 1697 0136 2202     		.2byte	(.L46-.L34)/2
 1698 0138 6000     		.2byte	(.L31-.L34)/2
 1699 013a 6000     		.2byte	(.L31-.L34)/2
 1700 013c 6000     		.2byte	(.L31-.L34)/2
 1701 013e 6000     		.2byte	(.L31-.L34)/2
 1702 0140 6000     		.2byte	(.L31-.L34)/2
 1703 0142 6000     		.2byte	(.L31-.L34)/2
 1704 0144 6000     		.2byte	(.L31-.L34)/2
 1705 0146 6000     		.2byte	(.L31-.L34)/2
 1706 0148 6000     		.2byte	(.L31-.L34)/2
 1707 014a 6200     		.2byte	(.L45-.L34)/2
 1708 014c 7C02     		.2byte	(.L44-.L34)/2
 1709 014e B402     		.2byte	(.L43-.L34)/2
 1710 0150 A602     		.2byte	(.L42-.L34)/2
ARM GAS  C:\Users\DJESSOU\AppData\Local\Temp\ccdFeyMS.s 			page 42


 1711 0152 9802     		.2byte	(.L41-.L34)/2
 1712 0154 C202     		.2byte	(.L40-.L34)/2
 1713 0156 6000     		.2byte	(.L31-.L34)/2
 1714 0158 6000     		.2byte	(.L31-.L34)/2
 1715 015a 6000     		.2byte	(.L31-.L34)/2
 1716 015c 6000     		.2byte	(.L31-.L34)/2
 1717 015e 6000     		.2byte	(.L31-.L34)/2
 1718 0160 6000     		.2byte	(.L31-.L34)/2
 1719 0162 6E02     		.2byte	(.L39-.L34)/2
 1720 0164 3002     		.2byte	(.L38-.L34)/2
 1721 0166 6000     		.2byte	(.L31-.L34)/2
 1722 0168 6000     		.2byte	(.L31-.L34)/2
 1723 016a 6000     		.2byte	(.L31-.L34)/2
 1724 016c 6000     		.2byte	(.L31-.L34)/2
 1725 016e 6000     		.2byte	(.L31-.L34)/2
 1726 0170 6000     		.2byte	(.L31-.L34)/2
 1727 0172 D002     		.2byte	(.L37-.L34)/2
 1728 0174 DE02     		.2byte	(.L36-.L34)/2
 1729 0176 6000     		.2byte	(.L31-.L34)/2
 1730 0178 EC02     		.2byte	(.L35-.L34)/2
 1731 017a 6000     		.2byte	(.L31-.L34)/2
 1732 017c 6000     		.2byte	(.L31-.L34)/2
 1733 017e 6000     		.2byte	(.L31-.L34)/2
 1734 0180 FA02     		.2byte	(.L33-.L34)/2
 1735              		.p2align 1
 1736              	.L69:
 1737              	.LBB14:
 396:Lib/AI_Runtime/Npu/ll_aton/ll_sw_float.c ****   {
 397:Lib/AI_Runtime/Npu/ll_aton/ll_sw_float.c ****   case LL_SW_RELU:
 398:Lib/AI_Runtime/Npu/ll_aton/ll_sw_float.c ****   {
 399:Lib/AI_Runtime/Npu/ll_aton/ll_sw_float.c ****     AI_LAYER_OBJ_DECLARE(nonlinearity_layer, 2, NL_TYPE, 0x0, NULL, nl, forward_relu, &activ_chain,
 1738              		.loc 1 399 5 is_stmt 1 view .LVU467
 1739 0182 3F49     		ldr	r1, .L71+4
 400:Lib/AI_Runtime/Npu/ll_aton/ll_sw_float.c ****                          .nl_params = NULL, )
 401:Lib/AI_Runtime/Npu/ll_aton/ll_sw_float.c ****     nonlinearity_layer.forward(AI_LAYER_OBJ(&nonlinearity_layer));
 1740              		.loc 1 401 5 is_stmt 0 view .LVU468
 1741 0184 5AA8     		add	r0, sp, #360
 1742              	.LVL40:
 399:Lib/AI_Runtime/Npu/ll_aton/ll_sw_float.c ****                          .nl_params = NULL, )
 1743              		.loc 1 399 5 view .LVU469
 1744 0186 CDE95A13 		strd	r1, r3, [sp, #360]
 1745 018a 3E49     		ldr	r1, .L71+8
 1746 018c CDE95C33 		strd	r3, r3, [sp, #368]
 1747 0190 CDE95F12 		strd	r1, r2, [sp, #380]
 1748 0194 5E93     		str	r3, [sp, #376]
 1749 0196 6193     		str	r3, [sp, #388]
 1750              		.loc 1 401 5 is_stmt 1 view .LVU470
 1751 0198 FFF7FEFF 		bl	forward_relu
 1752              	.LVL41:
 1753              	.LBE14:
 402:Lib/AI_Runtime/Npu/ll_aton/ll_sw_float.c ****   }
 403:Lib/AI_Runtime/Npu/ll_aton/ll_sw_float.c ****   break;
 1754              		.loc 1 403 3 view .LVU471
 1755              	.L31:
 404:Lib/AI_Runtime/Npu/ll_aton/ll_sw_float.c ****   case LL_SW_CLIP:
 405:Lib/AI_Runtime/Npu/ll_aton/ll_sw_float.c ****   {
 406:Lib/AI_Runtime/Npu/ll_aton/ll_sw_float.c ****     AI_ARRAY_OBJ_DECLARE_STATIC(clip_layer_params, ai_float, AI_ARRAY_FORMAT_FLOAT, AI_CONST, 2, sw
ARM GAS  C:\Users\DJESSOU\AppData\Local\Temp\ccdFeyMS.s 			page 43


 407:Lib/AI_Runtime/Npu/ll_aton/ll_sw_float.c ****                                 sw_info->max)
 408:Lib/AI_Runtime/Npu/ll_aton/ll_sw_float.c ****     AI_LAYER_OBJ_DECLARE(nonlinearity_layer, 2, NL_TYPE, 0x0, NULL, nl, forward_clip, &activ_chain,
 409:Lib/AI_Runtime/Npu/ll_aton/ll_sw_float.c ****                          .nl_params = AI_ARRAY_OBJ(&clip_layer_params))
 410:Lib/AI_Runtime/Npu/ll_aton/ll_sw_float.c ****     nonlinearity_layer.forward(AI_LAYER_OBJ(&nonlinearity_layer));
 411:Lib/AI_Runtime/Npu/ll_aton/ll_sw_float.c ****   }
 412:Lib/AI_Runtime/Npu/ll_aton/ll_sw_float.c ****   break;
 413:Lib/AI_Runtime/Npu/ll_aton/ll_sw_float.c ****   case LL_SW_PRELU:
 414:Lib/AI_Runtime/Npu/ll_aton/ll_sw_float.c ****   {
 415:Lib/AI_Runtime/Npu/ll_aton/ll_sw_float.c ****     AI_ARRAY_OBJ_DECLARE(activ_operand_array, FORMAT, sw_info->operand.mem.start_offset,
 416:Lib/AI_Runtime/Npu/ll_aton/ll_sw_float.c ****                          sw_info->operand.mem.start_offset, sw_info->operand.dim.num_elem, )
 417:Lib/AI_Runtime/Npu/ll_aton/ll_sw_float.c **** 
 418:Lib/AI_Runtime/Npu/ll_aton/ll_sw_float.c ****     AI_TENSOR_OBJ_DECLARE(activ_operand, , 0x0, 4,
 419:Lib/AI_Runtime/Npu/ll_aton/ll_sw_float.c ****                           SHAPE_INIT(sw_info->operand.dim.tensor_h, sw_info->operand.dim.tensor_w,
 420:Lib/AI_Runtime/Npu/ll_aton/ll_sw_float.c ****                                      sw_info->operand.dim.tensor_c, sw_info->operand.dim.tensor_b),
 421:Lib/AI_Runtime/Npu/ll_aton/ll_sw_float.c ****                           STRIDE_INIT(sw_info->operand.stride.h, sw_info->operand.stride.w, sw_info
 422:Lib/AI_Runtime/Npu/ll_aton/ll_sw_float.c ****                                       sw_info->operand.stride.b),
 423:Lib/AI_Runtime/Npu/ll_aton/ll_sw_float.c ****                           1, &activ_operand_array, NULL)
 424:Lib/AI_Runtime/Npu/ll_aton/ll_sw_float.c **** 
 425:Lib/AI_Runtime/Npu/ll_aton/ll_sw_float.c ****     // tensor chains init
 426:Lib/AI_Runtime/Npu/ll_aton/ll_sw_float.c ****     AI_TENSOR_CHAIN_OBJ_DECLARE(
 427:Lib/AI_Runtime/Npu/ll_aton/ll_sw_float.c ****         prelu_activ_chain, , 4, AI_TENSOR_LIST_OBJ_INIT(AI_FLAG_NONE, 1, TENSORS(&input_output)),
 428:Lib/AI_Runtime/Npu/ll_aton/ll_sw_float.c ****         AI_TENSOR_LIST_OBJ_INIT(AI_FLAG_NONE, 1, TENSORS(&activ_output)),
 429:Lib/AI_Runtime/Npu/ll_aton/ll_sw_float.c ****         AI_TENSOR_LIST_OBJ_INIT(AI_FLAG_NONE, 1, TENSORS(&activ_operand)), AI_TENSOR_LIST_OBJ_EMPTY
 430:Lib/AI_Runtime/Npu/ll_aton/ll_sw_float.c **** 
 431:Lib/AI_Runtime/Npu/ll_aton/ll_sw_float.c ****     AI_LAYER_OBJ_DECLARE(nonlinearity_layer, 2, NL_TYPE, 0x0, NULL, nl, forward_prelu, &prelu_activ
 432:Lib/AI_Runtime/Npu/ll_aton/ll_sw_float.c ****                          .nl_params = NULL, )
 433:Lib/AI_Runtime/Npu/ll_aton/ll_sw_float.c ****     nonlinearity_layer.forward(AI_LAYER_OBJ(&nonlinearity_layer));
 434:Lib/AI_Runtime/Npu/ll_aton/ll_sw_float.c ****   }
 435:Lib/AI_Runtime/Npu/ll_aton/ll_sw_float.c ****   break;
 436:Lib/AI_Runtime/Npu/ll_aton/ll_sw_float.c ****   case LL_SW_ELU:
 437:Lib/AI_Runtime/Npu/ll_aton/ll_sw_float.c ****   {
 438:Lib/AI_Runtime/Npu/ll_aton/ll_sw_float.c ****     // defining the array of params needed
 439:Lib/AI_Runtime/Npu/ll_aton/ll_sw_float.c ****     AI_ARRAY_OBJ_DECLARE_STATIC(elu_layer_params, ai_float, FORMAT, , 1, sw_info->alpha)
 440:Lib/AI_Runtime/Npu/ll_aton/ll_sw_float.c **** 
 441:Lib/AI_Runtime/Npu/ll_aton/ll_sw_float.c ****     AI_LAYER_OBJ_DECLARE(nonlinearity_layer, 2, NL_TYPE, 0x0, NULL, nl, forward_elu, &activ_chain, 
 442:Lib/AI_Runtime/Npu/ll_aton/ll_sw_float.c ****                          .nl_params = AI_ARRAY_OBJ(&elu_layer_params), )
 443:Lib/AI_Runtime/Npu/ll_aton/ll_sw_float.c ****     nonlinearity_layer.forward(AI_LAYER_OBJ(&nonlinearity_layer));
 444:Lib/AI_Runtime/Npu/ll_aton/ll_sw_float.c ****   }
 445:Lib/AI_Runtime/Npu/ll_aton/ll_sw_float.c ****   break;
 446:Lib/AI_Runtime/Npu/ll_aton/ll_sw_float.c ****   case LL_SW_THRESHOLDEDRELU:
 447:Lib/AI_Runtime/Npu/ll_aton/ll_sw_float.c ****   {
 448:Lib/AI_Runtime/Npu/ll_aton/ll_sw_float.c ****     // defining the array of params needed
 449:Lib/AI_Runtime/Npu/ll_aton/ll_sw_float.c ****     AI_ARRAY_OBJ_DECLARE_STATIC(thresholdedrelu_layer_params, ai_float, FORMAT, , 1, sw_info->alpha
 450:Lib/AI_Runtime/Npu/ll_aton/ll_sw_float.c **** 
 451:Lib/AI_Runtime/Npu/ll_aton/ll_sw_float.c ****     AI_LAYER_OBJ_DECLARE(nonlinearity_layer, 2, NL_TYPE, 0x0, NULL, nl, forward_relu_thresholded, &
 452:Lib/AI_Runtime/Npu/ll_aton/ll_sw_float.c ****                          NULL, , .nl_params = AI_ARRAY_OBJ(&thresholdedrelu_layer_params), )
 453:Lib/AI_Runtime/Npu/ll_aton/ll_sw_float.c ****     nonlinearity_layer.forward(AI_LAYER_OBJ(&nonlinearity_layer));
 454:Lib/AI_Runtime/Npu/ll_aton/ll_sw_float.c ****   }
 455:Lib/AI_Runtime/Npu/ll_aton/ll_sw_float.c ****   break;
 456:Lib/AI_Runtime/Npu/ll_aton/ll_sw_float.c ****   case LL_SW_SELU:
 457:Lib/AI_Runtime/Npu/ll_aton/ll_sw_float.c ****   {
 458:Lib/AI_Runtime/Npu/ll_aton/ll_sw_float.c ****     // defining the array of params needed
 459:Lib/AI_Runtime/Npu/ll_aton/ll_sw_float.c ****     AI_ARRAY_OBJ_DECLARE_STATIC(selu_layer_params, ai_float, FORMAT, , 2, sw_info->alpha, sw_info->
 460:Lib/AI_Runtime/Npu/ll_aton/ll_sw_float.c **** 
 461:Lib/AI_Runtime/Npu/ll_aton/ll_sw_float.c ****     AI_LAYER_OBJ_DECLARE(nonlinearity_layer, 2, NL_TYPE, 0x0, NULL, nl, forward_selu, &activ_chain,
 462:Lib/AI_Runtime/Npu/ll_aton/ll_sw_float.c ****                          .nl_params = AI_ARRAY_OBJ(&selu_layer_params), )
 463:Lib/AI_Runtime/Npu/ll_aton/ll_sw_float.c ****     nonlinearity_layer.forward(AI_LAYER_OBJ(&nonlinearity_layer));
ARM GAS  C:\Users\DJESSOU\AppData\Local\Temp\ccdFeyMS.s 			page 44


 464:Lib/AI_Runtime/Npu/ll_aton/ll_sw_float.c ****   }
 465:Lib/AI_Runtime/Npu/ll_aton/ll_sw_float.c ****   break;
 466:Lib/AI_Runtime/Npu/ll_aton/ll_sw_float.c ****   case LL_SW_CEIL:
 467:Lib/AI_Runtime/Npu/ll_aton/ll_sw_float.c ****   {
 468:Lib/AI_Runtime/Npu/ll_aton/ll_sw_float.c ****     AI_LAYER_OBJ_DECLARE(nonlinearity_layer, 2, NL_TYPE, 0x0, NULL, nl, forward_ceil, &activ_chain,
 469:Lib/AI_Runtime/Npu/ll_aton/ll_sw_float.c ****                          .nl_params = NULL, )
 470:Lib/AI_Runtime/Npu/ll_aton/ll_sw_float.c ****     nonlinearity_layer.forward(AI_LAYER_OBJ(&nonlinearity_layer));
 471:Lib/AI_Runtime/Npu/ll_aton/ll_sw_float.c ****   }
 472:Lib/AI_Runtime/Npu/ll_aton/ll_sw_float.c ****   break;
 473:Lib/AI_Runtime/Npu/ll_aton/ll_sw_float.c ****   case LL_SW_FLOOR:
 474:Lib/AI_Runtime/Npu/ll_aton/ll_sw_float.c ****   {
 475:Lib/AI_Runtime/Npu/ll_aton/ll_sw_float.c ****     AI_LAYER_OBJ_DECLARE(nonlinearity_layer, 2, NL_TYPE, 0x0, NULL, nl, forward_floor, &activ_chain
 476:Lib/AI_Runtime/Npu/ll_aton/ll_sw_float.c ****                          .nl_params = NULL, )
 477:Lib/AI_Runtime/Npu/ll_aton/ll_sw_float.c ****     nonlinearity_layer.forward(AI_LAYER_OBJ(&nonlinearity_layer));
 478:Lib/AI_Runtime/Npu/ll_aton/ll_sw_float.c ****   }
 479:Lib/AI_Runtime/Npu/ll_aton/ll_sw_float.c ****   break;
 480:Lib/AI_Runtime/Npu/ll_aton/ll_sw_float.c ****   case LL_SW_EXP:
 481:Lib/AI_Runtime/Npu/ll_aton/ll_sw_float.c ****   {
 482:Lib/AI_Runtime/Npu/ll_aton/ll_sw_float.c ****     AI_LAYER_OBJ_DECLARE(nonlinearity_layer, 2, NL_TYPE, 0x0, NULL, nl, forward_exp, &activ_chain, 
 483:Lib/AI_Runtime/Npu/ll_aton/ll_sw_float.c ****                          .nl_params = NULL, )
 484:Lib/AI_Runtime/Npu/ll_aton/ll_sw_float.c ****     nonlinearity_layer.forward(AI_LAYER_OBJ(&nonlinearity_layer));
 485:Lib/AI_Runtime/Npu/ll_aton/ll_sw_float.c ****   }
 486:Lib/AI_Runtime/Npu/ll_aton/ll_sw_float.c ****   break;
 487:Lib/AI_Runtime/Npu/ll_aton/ll_sw_float.c ****   case LL_SW_LOG:
 488:Lib/AI_Runtime/Npu/ll_aton/ll_sw_float.c ****   {
 489:Lib/AI_Runtime/Npu/ll_aton/ll_sw_float.c ****     AI_LAYER_OBJ_DECLARE(nonlinearity_layer, 2, NL_TYPE, 0x0, NULL, nl, forward_log, &activ_chain, 
 490:Lib/AI_Runtime/Npu/ll_aton/ll_sw_float.c ****                          .nl_params = NULL, )
 491:Lib/AI_Runtime/Npu/ll_aton/ll_sw_float.c ****     nonlinearity_layer.forward(AI_LAYER_OBJ(&nonlinearity_layer));
 492:Lib/AI_Runtime/Npu/ll_aton/ll_sw_float.c ****   }
 493:Lib/AI_Runtime/Npu/ll_aton/ll_sw_float.c ****   break;
 494:Lib/AI_Runtime/Npu/ll_aton/ll_sw_float.c ****   case LL_SW_ACOS:
 495:Lib/AI_Runtime/Npu/ll_aton/ll_sw_float.c ****   {
 496:Lib/AI_Runtime/Npu/ll_aton/ll_sw_float.c ****     AI_LAYER_OBJ_DECLARE(nonlinearity_layer, 2, NL_TYPE, 0x0, NULL, nl, forward_acos, &activ_chain,
 497:Lib/AI_Runtime/Npu/ll_aton/ll_sw_float.c ****                          .nl_params = NULL, )
 498:Lib/AI_Runtime/Npu/ll_aton/ll_sw_float.c ****     nonlinearity_layer.forward(AI_LAYER_OBJ(&nonlinearity_layer));
 499:Lib/AI_Runtime/Npu/ll_aton/ll_sw_float.c ****   }
 500:Lib/AI_Runtime/Npu/ll_aton/ll_sw_float.c ****   break;
 501:Lib/AI_Runtime/Npu/ll_aton/ll_sw_float.c ****   case LL_SW_ACOSH:
 502:Lib/AI_Runtime/Npu/ll_aton/ll_sw_float.c ****   {
 503:Lib/AI_Runtime/Npu/ll_aton/ll_sw_float.c ****     AI_LAYER_OBJ_DECLARE(nonlinearity_layer, 2, NL_TYPE, 0x0, NULL, nl, forward_acosh, &activ_chain
 504:Lib/AI_Runtime/Npu/ll_aton/ll_sw_float.c ****                          .nl_params = NULL, )
 505:Lib/AI_Runtime/Npu/ll_aton/ll_sw_float.c ****     nonlinearity_layer.forward(AI_LAYER_OBJ(&nonlinearity_layer));
 506:Lib/AI_Runtime/Npu/ll_aton/ll_sw_float.c ****   }
 507:Lib/AI_Runtime/Npu/ll_aton/ll_sw_float.c ****   break;
 508:Lib/AI_Runtime/Npu/ll_aton/ll_sw_float.c ****   case LL_SW_ASIN:
 509:Lib/AI_Runtime/Npu/ll_aton/ll_sw_float.c ****   {
 510:Lib/AI_Runtime/Npu/ll_aton/ll_sw_float.c ****     AI_LAYER_OBJ_DECLARE(nonlinearity_layer, 2, NL_TYPE, 0x0, NULL, nl, forward_asin, &activ_chain,
 511:Lib/AI_Runtime/Npu/ll_aton/ll_sw_float.c ****                          .nl_params = NULL, )
 512:Lib/AI_Runtime/Npu/ll_aton/ll_sw_float.c ****     nonlinearity_layer.forward(AI_LAYER_OBJ(&nonlinearity_layer));
 513:Lib/AI_Runtime/Npu/ll_aton/ll_sw_float.c ****   }
 514:Lib/AI_Runtime/Npu/ll_aton/ll_sw_float.c ****   break;
 515:Lib/AI_Runtime/Npu/ll_aton/ll_sw_float.c ****   case LL_SW_ASINH:
 516:Lib/AI_Runtime/Npu/ll_aton/ll_sw_float.c ****   {
 517:Lib/AI_Runtime/Npu/ll_aton/ll_sw_float.c ****     AI_LAYER_OBJ_DECLARE(nonlinearity_layer, 2, NL_TYPE, 0x0, NULL, nl, forward_asinh, &activ_chain
 518:Lib/AI_Runtime/Npu/ll_aton/ll_sw_float.c ****                          .nl_params = NULL, )
 519:Lib/AI_Runtime/Npu/ll_aton/ll_sw_float.c ****     nonlinearity_layer.forward(AI_LAYER_OBJ(&nonlinearity_layer));
 520:Lib/AI_Runtime/Npu/ll_aton/ll_sw_float.c ****   }
ARM GAS  C:\Users\DJESSOU\AppData\Local\Temp\ccdFeyMS.s 			page 45


 521:Lib/AI_Runtime/Npu/ll_aton/ll_sw_float.c ****   break;
 522:Lib/AI_Runtime/Npu/ll_aton/ll_sw_float.c ****   case LL_SW_ATAN:
 523:Lib/AI_Runtime/Npu/ll_aton/ll_sw_float.c ****   {
 524:Lib/AI_Runtime/Npu/ll_aton/ll_sw_float.c ****     AI_LAYER_OBJ_DECLARE(nonlinearity_layer, 2, NL_TYPE, 0x0, NULL, nl, forward_atan, &activ_chain,
 525:Lib/AI_Runtime/Npu/ll_aton/ll_sw_float.c ****                          .nl_params = NULL, )
 526:Lib/AI_Runtime/Npu/ll_aton/ll_sw_float.c ****     nonlinearity_layer.forward(AI_LAYER_OBJ(&nonlinearity_layer));
 527:Lib/AI_Runtime/Npu/ll_aton/ll_sw_float.c ****   }
 528:Lib/AI_Runtime/Npu/ll_aton/ll_sw_float.c ****   break;
 529:Lib/AI_Runtime/Npu/ll_aton/ll_sw_float.c ****   case LL_SW_ATANH:
 530:Lib/AI_Runtime/Npu/ll_aton/ll_sw_float.c ****   {
 531:Lib/AI_Runtime/Npu/ll_aton/ll_sw_float.c ****     AI_LAYER_OBJ_DECLARE(nonlinearity_layer, 2, NL_TYPE, 0x0, NULL, nl, forward_atanh, &activ_chain
 532:Lib/AI_Runtime/Npu/ll_aton/ll_sw_float.c ****                          .nl_params = NULL, )
 533:Lib/AI_Runtime/Npu/ll_aton/ll_sw_float.c ****     nonlinearity_layer.forward(AI_LAYER_OBJ(&nonlinearity_layer));
 534:Lib/AI_Runtime/Npu/ll_aton/ll_sw_float.c ****   }
 535:Lib/AI_Runtime/Npu/ll_aton/ll_sw_float.c ****   break;
 536:Lib/AI_Runtime/Npu/ll_aton/ll_sw_float.c ****   case LL_SW_COS:
 537:Lib/AI_Runtime/Npu/ll_aton/ll_sw_float.c ****   {
 538:Lib/AI_Runtime/Npu/ll_aton/ll_sw_float.c ****     AI_LAYER_OBJ_DECLARE(nonlinearity_layer, 2, NL_TYPE, 0x0, NULL, nl, forward_cos, &activ_chain, 
 539:Lib/AI_Runtime/Npu/ll_aton/ll_sw_float.c ****                          .nl_params = NULL, )
 540:Lib/AI_Runtime/Npu/ll_aton/ll_sw_float.c ****     nonlinearity_layer.forward(AI_LAYER_OBJ(&nonlinearity_layer));
 541:Lib/AI_Runtime/Npu/ll_aton/ll_sw_float.c ****   }
 542:Lib/AI_Runtime/Npu/ll_aton/ll_sw_float.c ****   break;
 543:Lib/AI_Runtime/Npu/ll_aton/ll_sw_float.c ****   case LL_SW_COSH:
 544:Lib/AI_Runtime/Npu/ll_aton/ll_sw_float.c ****   {
 545:Lib/AI_Runtime/Npu/ll_aton/ll_sw_float.c ****     AI_LAYER_OBJ_DECLARE(nonlinearity_layer, 2, NL_TYPE, 0x0, NULL, nl, forward_cosh, &activ_chain,
 546:Lib/AI_Runtime/Npu/ll_aton/ll_sw_float.c ****                          .nl_params = NULL, )
 547:Lib/AI_Runtime/Npu/ll_aton/ll_sw_float.c ****     nonlinearity_layer.forward(AI_LAYER_OBJ(&nonlinearity_layer));
 548:Lib/AI_Runtime/Npu/ll_aton/ll_sw_float.c ****   }
 549:Lib/AI_Runtime/Npu/ll_aton/ll_sw_float.c ****   break;
 550:Lib/AI_Runtime/Npu/ll_aton/ll_sw_float.c ****   case LL_SW_SIN:
 551:Lib/AI_Runtime/Npu/ll_aton/ll_sw_float.c ****   {
 552:Lib/AI_Runtime/Npu/ll_aton/ll_sw_float.c ****     AI_LAYER_OBJ_DECLARE(nonlinearity_layer, 2, NL_TYPE, 0x0, NULL, nl, forward_sin, &activ_chain, 
 553:Lib/AI_Runtime/Npu/ll_aton/ll_sw_float.c ****                          .nl_params = NULL, )
 554:Lib/AI_Runtime/Npu/ll_aton/ll_sw_float.c ****     nonlinearity_layer.forward(AI_LAYER_OBJ(&nonlinearity_layer));
 555:Lib/AI_Runtime/Npu/ll_aton/ll_sw_float.c ****   }
 556:Lib/AI_Runtime/Npu/ll_aton/ll_sw_float.c ****   break;
 557:Lib/AI_Runtime/Npu/ll_aton/ll_sw_float.c ****   case LL_SW_SINH:
 558:Lib/AI_Runtime/Npu/ll_aton/ll_sw_float.c ****   {
 559:Lib/AI_Runtime/Npu/ll_aton/ll_sw_float.c ****     AI_LAYER_OBJ_DECLARE(nonlinearity_layer, 2, NL_TYPE, 0x0, NULL, nl, forward_sinh, &activ_chain,
 560:Lib/AI_Runtime/Npu/ll_aton/ll_sw_float.c ****                          .nl_params = NULL, )
 561:Lib/AI_Runtime/Npu/ll_aton/ll_sw_float.c ****     nonlinearity_layer.forward(AI_LAYER_OBJ(&nonlinearity_layer));
 562:Lib/AI_Runtime/Npu/ll_aton/ll_sw_float.c ****   }
 563:Lib/AI_Runtime/Npu/ll_aton/ll_sw_float.c ****   break;
 564:Lib/AI_Runtime/Npu/ll_aton/ll_sw_float.c ****   case LL_SW_TANH:
 565:Lib/AI_Runtime/Npu/ll_aton/ll_sw_float.c ****   {
 566:Lib/AI_Runtime/Npu/ll_aton/ll_sw_float.c ****     AI_LAYER_OBJ_DECLARE(nonlinearity_layer, 2, NL_TYPE, 0x0, NULL, nl, forward_tanh, &activ_chain,
 567:Lib/AI_Runtime/Npu/ll_aton/ll_sw_float.c ****                          .nl_params = NULL, )
 568:Lib/AI_Runtime/Npu/ll_aton/ll_sw_float.c ****     nonlinearity_layer.forward(AI_LAYER_OBJ(&nonlinearity_layer));
 569:Lib/AI_Runtime/Npu/ll_aton/ll_sw_float.c ****   }
 570:Lib/AI_Runtime/Npu/ll_aton/ll_sw_float.c ****   break;
 571:Lib/AI_Runtime/Npu/ll_aton/ll_sw_float.c ****   case LL_SW_TAN:
 572:Lib/AI_Runtime/Npu/ll_aton/ll_sw_float.c ****   {
 573:Lib/AI_Runtime/Npu/ll_aton/ll_sw_float.c ****     AI_LAYER_OBJ_DECLARE(nonlinearity_layer, 2, NL_TYPE, 0x0, NULL, nl, forward_tan, &activ_chain, 
 574:Lib/AI_Runtime/Npu/ll_aton/ll_sw_float.c ****                          .nl_params = NULL, )
 575:Lib/AI_Runtime/Npu/ll_aton/ll_sw_float.c ****     nonlinearity_layer.forward(AI_LAYER_OBJ(&nonlinearity_layer));
 576:Lib/AI_Runtime/Npu/ll_aton/ll_sw_float.c ****   }
 577:Lib/AI_Runtime/Npu/ll_aton/ll_sw_float.c ****   break;
ARM GAS  C:\Users\DJESSOU\AppData\Local\Temp\ccdFeyMS.s 			page 46


 578:Lib/AI_Runtime/Npu/ll_aton/ll_sw_float.c ****   case LL_SW_SIGMOID:
 579:Lib/AI_Runtime/Npu/ll_aton/ll_sw_float.c ****   {
 580:Lib/AI_Runtime/Npu/ll_aton/ll_sw_float.c ****     AI_LAYER_OBJ_DECLARE(nonlinearity_layer, 2, NL_TYPE, 0x0, NULL, nl, forward_sigmoid, &activ_cha
 581:Lib/AI_Runtime/Npu/ll_aton/ll_sw_float.c ****                          .nl_params = NULL, )
 582:Lib/AI_Runtime/Npu/ll_aton/ll_sw_float.c ****     nonlinearity_layer.forward(AI_LAYER_OBJ(&nonlinearity_layer));
 583:Lib/AI_Runtime/Npu/ll_aton/ll_sw_float.c ****   }
 584:Lib/AI_Runtime/Npu/ll_aton/ll_sw_float.c ****   break;
 585:Lib/AI_Runtime/Npu/ll_aton/ll_sw_float.c ****   case LL_SW_SQRT:
 586:Lib/AI_Runtime/Npu/ll_aton/ll_sw_float.c ****   {
 587:Lib/AI_Runtime/Npu/ll_aton/ll_sw_float.c ****     AI_LAYER_OBJ_DECLARE(nonlinearity_layer, 2, NL_TYPE, 0x0, NULL, nl, forward_sqrt, &activ_chain,
 588:Lib/AI_Runtime/Npu/ll_aton/ll_sw_float.c ****                          .nl_params = NULL, )
 589:Lib/AI_Runtime/Npu/ll_aton/ll_sw_float.c ****     nonlinearity_layer.forward(AI_LAYER_OBJ(&nonlinearity_layer));
 590:Lib/AI_Runtime/Npu/ll_aton/ll_sw_float.c ****   }
 591:Lib/AI_Runtime/Npu/ll_aton/ll_sw_float.c ****   break;
 592:Lib/AI_Runtime/Npu/ll_aton/ll_sw_float.c ****   case LL_SW_ERF:
 593:Lib/AI_Runtime/Npu/ll_aton/ll_sw_float.c ****   {
 594:Lib/AI_Runtime/Npu/ll_aton/ll_sw_float.c ****     AI_LAYER_OBJ_DECLARE(nonlinearity_layer, 2, NL_TYPE, 0x0, NULL, nl, forward_erf, &activ_chain, 
 595:Lib/AI_Runtime/Npu/ll_aton/ll_sw_float.c ****                          .nl_params = NULL, )
 596:Lib/AI_Runtime/Npu/ll_aton/ll_sw_float.c ****     nonlinearity_layer.forward(AI_LAYER_OBJ(&nonlinearity_layer));
 597:Lib/AI_Runtime/Npu/ll_aton/ll_sw_float.c ****   }
 598:Lib/AI_Runtime/Npu/ll_aton/ll_sw_float.c ****   break;
 599:Lib/AI_Runtime/Npu/ll_aton/ll_sw_float.c ****   case LL_SW_SOFTPLUS:
 600:Lib/AI_Runtime/Npu/ll_aton/ll_sw_float.c ****   {
 601:Lib/AI_Runtime/Npu/ll_aton/ll_sw_float.c ****     AI_LAYER_OBJ_DECLARE(nonlinearity_layer, 2, NL_TYPE, 0x0, NULL, nl, forward_soft_plus, &activ_c
 602:Lib/AI_Runtime/Npu/ll_aton/ll_sw_float.c ****                          .nl_params = NULL, )
 603:Lib/AI_Runtime/Npu/ll_aton/ll_sw_float.c ****     nonlinearity_layer.forward(AI_LAYER_OBJ(&nonlinearity_layer));
 604:Lib/AI_Runtime/Npu/ll_aton/ll_sw_float.c ****   }
 605:Lib/AI_Runtime/Npu/ll_aton/ll_sw_float.c ****   break;
 606:Lib/AI_Runtime/Npu/ll_aton/ll_sw_float.c ****   case LL_SW_SOFTSIGN:
 607:Lib/AI_Runtime/Npu/ll_aton/ll_sw_float.c ****   {
 608:Lib/AI_Runtime/Npu/ll_aton/ll_sw_float.c ****     AI_LAYER_OBJ_DECLARE(nonlinearity_layer, 2, NL_TYPE, 0x0, NULL, nl, forward_soft_sign, &activ_c
 609:Lib/AI_Runtime/Npu/ll_aton/ll_sw_float.c ****                          .nl_params = NULL, )
 610:Lib/AI_Runtime/Npu/ll_aton/ll_sw_float.c ****     nonlinearity_layer.forward(AI_LAYER_OBJ(&nonlinearity_layer));
 611:Lib/AI_Runtime/Npu/ll_aton/ll_sw_float.c ****   }
 612:Lib/AI_Runtime/Npu/ll_aton/ll_sw_float.c ****   break;
 613:Lib/AI_Runtime/Npu/ll_aton/ll_sw_float.c ****   case LL_SW_HARDSIGMOID:
 614:Lib/AI_Runtime/Npu/ll_aton/ll_sw_float.c ****   {
 615:Lib/AI_Runtime/Npu/ll_aton/ll_sw_float.c ****     AI_ARRAY_OBJ_DECLARE_STATIC(hard_sigmoid_layer_params, ai_float, AI_ARRAY_FORMAT_FLOAT, AI_CONS
 616:Lib/AI_Runtime/Npu/ll_aton/ll_sw_float.c ****                                 sw_info->beta)
 617:Lib/AI_Runtime/Npu/ll_aton/ll_sw_float.c ****     AI_LAYER_OBJ_DECLARE(nonlinearity_layer, 2, NL_TYPE, 0x0, NULL, nl, forward_hard_sigmoid, &acti
 618:Lib/AI_Runtime/Npu/ll_aton/ll_sw_float.c ****                          , .nl_params = AI_ARRAY_OBJ(&hard_sigmoid_layer_params), )
 619:Lib/AI_Runtime/Npu/ll_aton/ll_sw_float.c ****     nonlinearity_layer.forward(AI_LAYER_OBJ(&nonlinearity_layer));
 620:Lib/AI_Runtime/Npu/ll_aton/ll_sw_float.c ****   }
 621:Lib/AI_Runtime/Npu/ll_aton/ll_sw_float.c ****   break;
 622:Lib/AI_Runtime/Npu/ll_aton/ll_sw_float.c ****   case LL_SW_SWISH:
 623:Lib/AI_Runtime/Npu/ll_aton/ll_sw_float.c ****   {
 624:Lib/AI_Runtime/Npu/ll_aton/ll_sw_float.c ****     AI_LAYER_OBJ_DECLARE(nonlinearity_layer, 2, NL_TYPE, 0x0, NULL, nl, forward_swish, &activ_chain
 625:Lib/AI_Runtime/Npu/ll_aton/ll_sw_float.c ****                          .nl_params = NULL, )
 626:Lib/AI_Runtime/Npu/ll_aton/ll_sw_float.c ****     nonlinearity_layer.forward(AI_LAYER_OBJ(&nonlinearity_layer));
 627:Lib/AI_Runtime/Npu/ll_aton/ll_sw_float.c ****   }
 628:Lib/AI_Runtime/Npu/ll_aton/ll_sw_float.c ****   break;
 629:Lib/AI_Runtime/Npu/ll_aton/ll_sw_float.c ****   case LL_SW_HARDSWISH:
 630:Lib/AI_Runtime/Npu/ll_aton/ll_sw_float.c ****   {
 631:Lib/AI_Runtime/Npu/ll_aton/ll_sw_float.c ****     AI_LAYER_OBJ_DECLARE(nonlinearity_layer, 2, NL_TYPE, 0x0, NULL, nl, forward_hard_swish, &activ_
 632:Lib/AI_Runtime/Npu/ll_aton/ll_sw_float.c ****                          .nl_params = NULL, )
 633:Lib/AI_Runtime/Npu/ll_aton/ll_sw_float.c ****     nonlinearity_layer.forward(AI_LAYER_OBJ(&nonlinearity_layer));
 634:Lib/AI_Runtime/Npu/ll_aton/ll_sw_float.c ****   }
ARM GAS  C:\Users\DJESSOU\AppData\Local\Temp\ccdFeyMS.s 			page 47


 635:Lib/AI_Runtime/Npu/ll_aton/ll_sw_float.c ****   break;
 636:Lib/AI_Runtime/Npu/ll_aton/ll_sw_float.c ****   case LL_SW_HARDMAX:
 637:Lib/AI_Runtime/Npu/ll_aton/ll_sw_float.c ****   {
 638:Lib/AI_Runtime/Npu/ll_aton/ll_sw_float.c ****     AI_LAYER_OBJ_DECLARE(nonlinearity_layer, 2, NL_TYPE, 0x0, NULL, nl, forward_hardmax, &activ_cha
 639:Lib/AI_Runtime/Npu/ll_aton/ll_sw_float.c ****                          .nl_params = NULL, )
 640:Lib/AI_Runtime/Npu/ll_aton/ll_sw_float.c ****     nonlinearity_layer.forward(AI_LAYER_OBJ(&nonlinearity_layer));
 641:Lib/AI_Runtime/Npu/ll_aton/ll_sw_float.c ****   }
 642:Lib/AI_Runtime/Npu/ll_aton/ll_sw_float.c ****   break;
 643:Lib/AI_Runtime/Npu/ll_aton/ll_sw_float.c ****   case LL_SW_ABS:
 644:Lib/AI_Runtime/Npu/ll_aton/ll_sw_float.c ****   {
 645:Lib/AI_Runtime/Npu/ll_aton/ll_sw_float.c ****     AI_LAYER_OBJ_DECLARE(nonlinearity_layer, 2, NL_TYPE, 0x0, NULL, nl, forward_abs, &activ_chain, 
 646:Lib/AI_Runtime/Npu/ll_aton/ll_sw_float.c ****                          .nl_params = NULL, )
 647:Lib/AI_Runtime/Npu/ll_aton/ll_sw_float.c ****     nonlinearity_layer.forward(AI_LAYER_OBJ(&nonlinearity_layer));
 648:Lib/AI_Runtime/Npu/ll_aton/ll_sw_float.c ****   }
 649:Lib/AI_Runtime/Npu/ll_aton/ll_sw_float.c ****   break;
 650:Lib/AI_Runtime/Npu/ll_aton/ll_sw_float.c ****   case LL_SW_NEG:
 651:Lib/AI_Runtime/Npu/ll_aton/ll_sw_float.c ****   {
 652:Lib/AI_Runtime/Npu/ll_aton/ll_sw_float.c ****     AI_LAYER_OBJ_DECLARE(nonlinearity_layer, 2, NL_TYPE, 0x0, NULL, nl, forward_neg, &activ_chain, 
 653:Lib/AI_Runtime/Npu/ll_aton/ll_sw_float.c ****                          .nl_params = NULL, )
 654:Lib/AI_Runtime/Npu/ll_aton/ll_sw_float.c ****     nonlinearity_layer.forward(AI_LAYER_OBJ(&nonlinearity_layer));
 655:Lib/AI_Runtime/Npu/ll_aton/ll_sw_float.c ****   }
 656:Lib/AI_Runtime/Npu/ll_aton/ll_sw_float.c ****   break;
 657:Lib/AI_Runtime/Npu/ll_aton/ll_sw_float.c ****   case LL_SW_RECIPROCAL:
 658:Lib/AI_Runtime/Npu/ll_aton/ll_sw_float.c ****   {
 659:Lib/AI_Runtime/Npu/ll_aton/ll_sw_float.c ****     AI_LAYER_OBJ_DECLARE(nonlinearity_layer, 2, NL_TYPE, 0x0, NULL, nl, forward_reciprocal, &activ_
 660:Lib/AI_Runtime/Npu/ll_aton/ll_sw_float.c ****                          .nl_params = NULL, )
 661:Lib/AI_Runtime/Npu/ll_aton/ll_sw_float.c ****     nonlinearity_layer.forward(AI_LAYER_OBJ(&nonlinearity_layer));
 662:Lib/AI_Runtime/Npu/ll_aton/ll_sw_float.c ****   }
 663:Lib/AI_Runtime/Npu/ll_aton/ll_sw_float.c ****   break;
 664:Lib/AI_Runtime/Npu/ll_aton/ll_sw_float.c ****   case LL_SW_ROUND:
 665:Lib/AI_Runtime/Npu/ll_aton/ll_sw_float.c ****   {
 666:Lib/AI_Runtime/Npu/ll_aton/ll_sw_float.c ****     AI_LAYER_OBJ_DECLARE(nonlinearity_layer, 2, NL_TYPE, 0x0, NULL, nl, forward_round, &activ_chain
 667:Lib/AI_Runtime/Npu/ll_aton/ll_sw_float.c ****                          .nl_params = NULL, )
 668:Lib/AI_Runtime/Npu/ll_aton/ll_sw_float.c ****     nonlinearity_layer.forward(AI_LAYER_OBJ(&nonlinearity_layer));
 669:Lib/AI_Runtime/Npu/ll_aton/ll_sw_float.c ****   }
 670:Lib/AI_Runtime/Npu/ll_aton/ll_sw_float.c ****   break;
 671:Lib/AI_Runtime/Npu/ll_aton/ll_sw_float.c ****   case LL_SW_GELU:
 672:Lib/AI_Runtime/Npu/ll_aton/ll_sw_float.c ****   {
 673:Lib/AI_Runtime/Npu/ll_aton/ll_sw_float.c ****     AI_ARRAY_OBJ_DECLARE_STATIC(gelu_no_approximate_layer_params, ai_bool, AI_ARRAY_FORMAT_BOOL, AI
 674:Lib/AI_Runtime/Npu/ll_aton/ll_sw_float.c ****     AI_LAYER_OBJ_DECLARE(nonlinearity_layer, 2, NL_TYPE, 0x0, NULL, nl, forward_gelu, &activ_chain,
 675:Lib/AI_Runtime/Npu/ll_aton/ll_sw_float.c ****                          .nl_params = AI_ARRAY_OBJ(&gelu_no_approximate_layer_params), )
 676:Lib/AI_Runtime/Npu/ll_aton/ll_sw_float.c ****     nonlinearity_layer.forward(AI_LAYER_OBJ(&nonlinearity_layer));
 677:Lib/AI_Runtime/Npu/ll_aton/ll_sw_float.c ****   }
 678:Lib/AI_Runtime/Npu/ll_aton/ll_sw_float.c ****   break;
 679:Lib/AI_Runtime/Npu/ll_aton/ll_sw_float.c ****   default:
 680:Lib/AI_Runtime/Npu/ll_aton/ll_sw_float.c **** #ifdef LL_SW_ENABLE_ASSERTS
 681:Lib/AI_Runtime/Npu/ll_aton/ll_sw_float.c ****     LL_ATON_ASSERT(0 && "NL OPERATION NOT SUPPORTED");
 682:Lib/AI_Runtime/Npu/ll_aton/ll_sw_float.c **** #endif
 683:Lib/AI_Runtime/Npu/ll_aton/ll_sw_float.c ****     break;
 684:Lib/AI_Runtime/Npu/ll_aton/ll_sw_float.c ****   }
 685:Lib/AI_Runtime/Npu/ll_aton/ll_sw_float.c **** }
 1756              		.loc 1 685 1 is_stmt 0 view .LVU472
 1757 019c 67B0     		add	sp, sp, #412
 1758              		.cfi_remember_state
 1759              		.cfi_def_cfa_offset 20
 1760              		@ sp needed
 1761 019e F0BD     		pop	{r4, r5, r6, r7, pc}
ARM GAS  C:\Users\DJESSOU\AppData\Local\Temp\ccdFeyMS.s 			page 48


 1762              	.LVL42:
 1763              	.L45:
 1764              		.cfi_restore_state
 1765              	.LBB15:
 406:Lib/AI_Runtime/Npu/ll_aton/ll_sw_float.c ****                                 sw_info->max)
 1766              		.loc 1 406 5 is_stmt 1 view .LVU473
 1767 01a0 0223     		movs	r3, #2
 1768 01a2 4793     		str	r3, [sp, #284]
 1769 01a4 D0F89430 		ldr	r3, [r0, #148]	@ float
 1770 01a8 4691     		str	r1, [sp, #280]
 1771 01aa 3F93     		str	r3, [sp, #252]	@ float
 1772 01ac D0F89830 		ldr	r3, [r0, #152]	@ float
 408:Lib/AI_Runtime/Npu/ll_aton/ll_sw_float.c ****                          .nl_params = AI_ARRAY_OBJ(&clip_layer_params))
 1773              		.loc 1 408 5 is_stmt 0 view .LVU474
 1774 01b0 3349     		ldr	r1, .L71+4
 406:Lib/AI_Runtime/Npu/ll_aton/ll_sw_float.c ****                                 sw_info->max)
 1775              		.loc 1 406 5 view .LVU475
 1776 01b2 4093     		str	r3, [sp, #256]	@ float
 1777 01b4 3FAB     		add	r3, sp, #252
 1778 01b6 4893     		str	r3, [sp, #288]
 1779 01b8 0023     		movs	r3, #0
 408:Lib/AI_Runtime/Npu/ll_aton/ll_sw_float.c ****                          .nl_params = AI_ARRAY_OBJ(&clip_layer_params))
 1780              		.loc 1 408 5 view .LVU476
 1781 01ba CDE95A13 		strd	r1, r3, [sp, #360]
 1782 01be CDE95C33 		strd	r3, r3, [sp, #368]
 406:Lib/AI_Runtime/Npu/ll_aton/ll_sw_float.c ****                                 sw_info->max)
 1783              		.loc 1 406 5 view .LVU477
 1784 01c2 4993     		str	r3, [sp, #292]
 408:Lib/AI_Runtime/Npu/ll_aton/ll_sw_float.c ****                          .nl_params = AI_ARRAY_OBJ(&clip_layer_params))
 1785              		.loc 1 408 5 is_stmt 1 view .LVU478
 1786 01c4 5E93     		str	r3, [sp, #376]
 1787 01c6 304B     		ldr	r3, .L71+12
 410:Lib/AI_Runtime/Npu/ll_aton/ll_sw_float.c ****   }
 1788              		.loc 1 410 5 is_stmt 0 view .LVU479
 1789 01c8 5AA8     		add	r0, sp, #360
 1790              	.LVL43:
 408:Lib/AI_Runtime/Npu/ll_aton/ll_sw_float.c ****                          .nl_params = AI_ARRAY_OBJ(&clip_layer_params))
 1791              		.loc 1 408 5 view .LVU480
 1792 01ca CDE95F32 		strd	r3, r2, [sp, #380]
 1793 01ce 46AB     		add	r3, sp, #280
 1794 01d0 6193     		str	r3, [sp, #388]
 410:Lib/AI_Runtime/Npu/ll_aton/ll_sw_float.c ****   }
 1795              		.loc 1 410 5 is_stmt 1 view .LVU481
 1796 01d2 FFF7FEFF 		bl	forward_clip
 1797              	.LVL44:
 1798              	.LBE15:
 412:Lib/AI_Runtime/Npu/ll_aton/ll_sw_float.c ****   case LL_SW_PRELU:
 1799              		.loc 1 412 3 view .LVU482
 1800 01d6 E1E7     		b	.L31
 1801              	.LVL45:
 1802              	.L68:
 1803              	.LBB16:
 415:Lib/AI_Runtime/Npu/ll_aton/ll_sw_float.c ****                          sw_info->operand.mem.start_offset, sw_info->operand.dim.num_elem, )
 1804              		.loc 1 415 5 view .LVU483
 1805 01d8 C36E     		ldr	r3, [r0, #108]
 1806 01da 2591     		str	r1, [sp, #148]
 1807 01dc 2693     		str	r3, [sp, #152]
ARM GAS  C:\Users\DJESSOU\AppData\Local\Temp\ccdFeyMS.s 			page 49


 1808 01de D0F88030 		ldr	r3, [r0, #128]
 418:Lib/AI_Runtime/Npu/ll_aton/ll_sw_float.c ****                           SHAPE_INIT(sw_info->operand.dim.tensor_h, sw_info->operand.dim.tensor_w,
 1809              		.loc 1 418 5 is_stmt 0 view .LVU484
 1810 01e2 4FF08271 		mov	r1, #17039360
 415:Lib/AI_Runtime/Npu/ll_aton/ll_sw_float.c ****                          sw_info->operand.mem.start_offset, sw_info->operand.dim.num_elem, )
 1811              		.loc 1 415 5 view .LVU485
 1812 01e6 CDE92733 		strd	r3, r3, [sp, #156]
 418:Lib/AI_Runtime/Npu/ll_aton/ll_sw_float.c ****                           SHAPE_INIT(sw_info->operand.dim.tensor_h, sw_info->operand.dim.tensor_w,
 1813              		.loc 1 418 5 is_stmt 1 view .LVU486
 1814 01ea 0023     		movs	r3, #0
 1815 01ec CDE93F31 		strd	r3, r1, [sp, #252]
 1816 01f0 40F20141 		movw	r1, #1025
 1817 01f4 4191     		str	r1, [sp, #260]
 1818 01f6 816E     		ldr	r1, [r0, #104]
 415:Lib/AI_Runtime/Npu/ll_aton/ll_sw_float.c ****                          sw_info->operand.mem.start_offset, sw_info->operand.dim.num_elem, )
 1819              		.loc 1 415 5 is_stmt 0 view .LVU487
 1820 01f8 25AA     		add	r2, sp, #148
 418:Lib/AI_Runtime/Npu/ll_aton/ll_sw_float.c ****                           SHAPE_INIT(sw_info->operand.dim.tensor_h, sw_info->operand.dim.tensor_w,
 1821              		.loc 1 418 5 view .LVU488
 1822 01fa 2991     		str	r1, [sp, #164]
 1823 01fc 416E     		ldr	r1, [r0, #100]
 426:Lib/AI_Runtime/Npu/ll_aton/ll_sw_float.c ****         prelu_activ_chain, , 4, AI_TENSOR_LIST_OBJ_INIT(AI_FLAG_NONE, 1, TENSORS(&input_output)),
 1824              		.loc 1 426 5 view .LVU489
 1825 01fe 0596     		str	r6, [sp, #20]
 418:Lib/AI_Runtime/Npu/ll_aton/ll_sw_float.c ****                           SHAPE_INIT(sw_info->operand.dim.tensor_h, sw_info->operand.dim.tensor_w,
 1826              		.loc 1 418 5 view .LVU490
 1827 0200 2A91     		str	r1, [sp, #168]
 1828 0202 016E     		ldr	r1, [r0, #96]
 1829 0204 2B91     		str	r1, [sp, #172]
 1830 0206 C16D     		ldr	r1, [r0, #92]
 1831 0208 2C91     		str	r1, [sp, #176]
 1832 020a 29A9     		add	r1, sp, #164
 1833 020c 4291     		str	r1, [sp, #264]
 1834 020e 40F20241 		movw	r1, #1026
 1835 0212 4391     		str	r1, [sp, #268]
 1836 0214 C16F     		ldr	r1, [r0, #124]
 1837 0216 2D91     		str	r1, [sp, #180]
 1838 0218 816F     		ldr	r1, [r0, #120]
 1839 021a 2E91     		str	r1, [sp, #184]
 1840 021c 416F     		ldr	r1, [r0, #116]
 1841 021e 2F91     		str	r1, [sp, #188]
 1842 0220 016F     		ldr	r1, [r0, #112]
 426:Lib/AI_Runtime/Npu/ll_aton/ll_sw_float.c ****         prelu_activ_chain, , 4, AI_TENSOR_LIST_OBJ_INIT(AI_FLAG_NONE, 1, TENSORS(&input_output)),
 1843              		.loc 1 426 5 view .LVU491
 1844 0222 05A8     		add	r0, sp, #20
 1845              	.LVL46:
 418:Lib/AI_Runtime/Npu/ll_aton/ll_sw_float.c ****                           SHAPE_INIT(sw_info->operand.dim.tensor_h, sw_info->operand.dim.tensor_w,
 1846              		.loc 1 418 5 view .LVU492
 1847 0224 3091     		str	r1, [sp, #192]
 1848 0226 2DA9     		add	r1, sp, #180
 1849 0228 CDE94412 		strd	r1, r2, [sp, #272]
 426:Lib/AI_Runtime/Npu/ll_aton/ll_sw_float.c ****         prelu_activ_chain, , 4, AI_TENSOR_LIST_OBJ_INIT(AI_FLAG_NONE, 1, TENSORS(&input_output)),
 1850              		.loc 1 426 5 is_stmt 1 view .LVU493
 1851 022c 0421     		movs	r1, #4
 1852 022e 0B91     		str	r1, [sp, #44]
 1853 0230 0121     		movs	r1, #1
 1854 0232 5A91     		str	r1, [sp, #360]
ARM GAS  C:\Users\DJESSOU\AppData\Local\Temp\ccdFeyMS.s 			page 50


 1855 0234 CDE95B03 		strd	r0, r3, [sp, #364]
 1856 0238 5D91     		str	r1, [sp, #372]
 1857 023a 6091     		str	r1, [sp, #384]
 1858 023c 07A9     		add	r1, sp, #28
 1859 023e CDE96113 		strd	r1, r3, [sp, #388]
 1860 0242 08A9     		add	r1, sp, #32
 1861 0244 CDE96413 		strd	r1, r3, [sp, #400]
 1862 0248 5AA9     		add	r1, sp, #360
 1863 024a 0C91     		str	r1, [sp, #48]
 431:Lib/AI_Runtime/Npu/ll_aton/ll_sw_float.c ****                          .nl_params = NULL, )
 1864              		.loc 1 431 5 view .LVU494
 1865 024c 0C49     		ldr	r1, .L71+4
 426:Lib/AI_Runtime/Npu/ll_aton/ll_sw_float.c ****         prelu_activ_chain, , 4, AI_TENSOR_LIST_OBJ_INIT(AI_FLAG_NONE, 1, TENSORS(&input_output)),
 1866              		.loc 1 426 5 is_stmt 0 view .LVU495
 1867 024e 06A8     		add	r0, sp, #24
 1868 0250 CDE95E03 		strd	r0, r3, [sp, #376]
 431:Lib/AI_Runtime/Npu/ll_aton/ll_sw_float.c ****                          .nl_params = NULL, )
 1869              		.loc 1 431 5 view .LVU496
 1870 0254 CDE94613 		strd	r1, r3, [sp, #280]
 426:Lib/AI_Runtime/Npu/ll_aton/ll_sw_float.c ****         prelu_activ_chain, , 4, AI_TENSOR_LIST_OBJ_INIT(AI_FLAG_NONE, 1, TENSORS(&input_output)),
 1871              		.loc 1 426 5 view .LVU497
 1872 0258 3FA8     		add	r0, sp, #252
 431:Lib/AI_Runtime/Npu/ll_aton/ll_sw_float.c ****                          .nl_params = NULL, )
 1873              		.loc 1 431 5 view .LVU498
 1874 025a 0C49     		ldr	r1, .L71+16
 426:Lib/AI_Runtime/Npu/ll_aton/ll_sw_float.c ****         prelu_activ_chain, , 4, AI_TENSOR_LIST_OBJ_INIT(AI_FLAG_NONE, 1, TENSORS(&input_output)),
 1875              		.loc 1 426 5 view .LVU499
 1876 025c 0BAA     		add	r2, sp, #44
 1877 025e 0790     		str	r0, [sp, #28]
 433:Lib/AI_Runtime/Npu/ll_aton/ll_sw_float.c ****   }
 1878              		.loc 1 433 5 view .LVU500
 1879 0260 46A8     		add	r0, sp, #280
 431:Lib/AI_Runtime/Npu/ll_aton/ll_sw_float.c ****                          .nl_params = NULL, )
 1880              		.loc 1 431 5 view .LVU501
 1881 0262 CDE94833 		strd	r3, r3, [sp, #288]
 1882 0266 CDE94B12 		strd	r1, r2, [sp, #300]
 426:Lib/AI_Runtime/Npu/ll_aton/ll_sw_float.c ****         prelu_activ_chain, , 4, AI_TENSOR_LIST_OBJ_INIT(AI_FLAG_NONE, 1, TENSORS(&input_output)),
 1883              		.loc 1 426 5 view .LVU502
 1884 026a 0695     		str	r5, [sp, #24]
 1885 026c 6393     		str	r3, [sp, #396]
 1886 026e 0893     		str	r3, [sp, #32]
 431:Lib/AI_Runtime/Npu/ll_aton/ll_sw_float.c ****                          .nl_params = NULL, )
 1887              		.loc 1 431 5 view .LVU503
 1888 0270 4A93     		str	r3, [sp, #296]
 1889 0272 4D93     		str	r3, [sp, #308]
 433:Lib/AI_Runtime/Npu/ll_aton/ll_sw_float.c ****   }
 1890              		.loc 1 433 5 is_stmt 1 view .LVU504
 1891 0274 FFF7FEFF 		bl	forward_prelu
 1892              	.LVL47:
 1893              	.LBE16:
 435:Lib/AI_Runtime/Npu/ll_aton/ll_sw_float.c ****   case LL_SW_ELU:
 1894              		.loc 1 435 3 view .LVU505
 1895 0278 90E7     		b	.L31
 1896              	.L72:
 1897 027a 00BF     		.align	2
 1898              	.L71:
 1899 027c 40108200 		.word	8523840
ARM GAS  C:\Users\DJESSOU\AppData\Local\Temp\ccdFeyMS.s 			page 51


 1900 0280 07010200 		.word	131335
 1901 0284 00000000 		.word	forward_relu
 1902 0288 00000000 		.word	forward_clip
 1903 028c 00000000 		.word	forward_prelu
 1904              	.LVL48:
 1905              	.L66:
 1906              	.LBB17:
 439:Lib/AI_Runtime/Npu/ll_aton/ll_sw_float.c **** 
 1907              		.loc 1 439 5 view .LVU506
 1908 0290 D0F88830 		ldr	r3, [r0, #136]	@ float
 1909 0294 CDE94614 		strd	r1, r4, [sp, #280]
 1910 0298 3F93     		str	r3, [sp, #252]	@ float
 1911 029a 3FAB     		add	r3, sp, #252
 1912 029c 4893     		str	r3, [sp, #288]
 1913 029e 0023     		movs	r3, #0
 441:Lib/AI_Runtime/Npu/ll_aton/ll_sw_float.c ****                          .nl_params = AI_ARRAY_OBJ(&elu_layer_params), )
 1914              		.loc 1 441 5 is_stmt 0 view .LVU507
 1915 02a0 AD49     		ldr	r1, .L73
 1916 02a2 CDE95C33 		strd	r3, r3, [sp, #368]
 1917 02a6 CDE95A13 		strd	r1, r3, [sp, #360]
 439:Lib/AI_Runtime/Npu/ll_aton/ll_sw_float.c **** 
 1918              		.loc 1 439 5 view .LVU508
 1919 02aa 4993     		str	r3, [sp, #292]
 441:Lib/AI_Runtime/Npu/ll_aton/ll_sw_float.c ****                          .nl_params = AI_ARRAY_OBJ(&elu_layer_params), )
 1920              		.loc 1 441 5 is_stmt 1 view .LVU509
 1921 02ac 5E93     		str	r3, [sp, #376]
 1922 02ae AB4B     		ldr	r3, .L73+4
 443:Lib/AI_Runtime/Npu/ll_aton/ll_sw_float.c ****   }
 1923              		.loc 1 443 5 is_stmt 0 view .LVU510
 1924 02b0 5AA8     		add	r0, sp, #360
 1925              	.LVL49:
 441:Lib/AI_Runtime/Npu/ll_aton/ll_sw_float.c ****                          .nl_params = AI_ARRAY_OBJ(&elu_layer_params), )
 1926              		.loc 1 441 5 view .LVU511
 1927 02b2 CDE95F32 		strd	r3, r2, [sp, #380]
 1928 02b6 46AB     		add	r3, sp, #280
 1929 02b8 6193     		str	r3, [sp, #388]
 443:Lib/AI_Runtime/Npu/ll_aton/ll_sw_float.c ****   }
 1930              		.loc 1 443 5 is_stmt 1 view .LVU512
 1931 02ba FFF7FEFF 		bl	forward_elu
 1932              	.LVL50:
 1933              	.LBE17:
 445:Lib/AI_Runtime/Npu/ll_aton/ll_sw_float.c ****   case LL_SW_THRESHOLDEDRELU:
 1934              		.loc 1 445 3 view .LVU513
 1935 02be 6DE7     		b	.L31
 1936              	.LVL51:
 1937              	.L67:
 1938              	.LBB18:
 449:Lib/AI_Runtime/Npu/ll_aton/ll_sw_float.c **** 
 1939              		.loc 1 449 5 view .LVU514
 1940 02c0 D0F88830 		ldr	r3, [r0, #136]	@ float
 1941 02c4 CDE94614 		strd	r1, r4, [sp, #280]
 1942 02c8 3F93     		str	r3, [sp, #252]	@ float
 1943 02ca 3FAB     		add	r3, sp, #252
 1944 02cc 4893     		str	r3, [sp, #288]
 1945 02ce 0023     		movs	r3, #0
 451:Lib/AI_Runtime/Npu/ll_aton/ll_sw_float.c ****                          NULL, , .nl_params = AI_ARRAY_OBJ(&thresholdedrelu_layer_params), )
 1946              		.loc 1 451 5 is_stmt 0 view .LVU515
ARM GAS  C:\Users\DJESSOU\AppData\Local\Temp\ccdFeyMS.s 			page 52


 1947 02d0 A149     		ldr	r1, .L73
 1948 02d2 CDE95C33 		strd	r3, r3, [sp, #368]
 1949 02d6 CDE95A13 		strd	r1, r3, [sp, #360]
 449:Lib/AI_Runtime/Npu/ll_aton/ll_sw_float.c **** 
 1950              		.loc 1 449 5 view .LVU516
 1951 02da 4993     		str	r3, [sp, #292]
 451:Lib/AI_Runtime/Npu/ll_aton/ll_sw_float.c ****                          NULL, , .nl_params = AI_ARRAY_OBJ(&thresholdedrelu_layer_params), )
 1952              		.loc 1 451 5 is_stmt 1 view .LVU517
 1953 02dc 5E93     		str	r3, [sp, #376]
 1954 02de A04B     		ldr	r3, .L73+8
 453:Lib/AI_Runtime/Npu/ll_aton/ll_sw_float.c ****   }
 1955              		.loc 1 453 5 is_stmt 0 view .LVU518
 1956 02e0 5AA8     		add	r0, sp, #360
 1957              	.LVL52:
 451:Lib/AI_Runtime/Npu/ll_aton/ll_sw_float.c ****                          NULL, , .nl_params = AI_ARRAY_OBJ(&thresholdedrelu_layer_params), )
 1958              		.loc 1 451 5 view .LVU519
 1959 02e2 CDE95F32 		strd	r3, r2, [sp, #380]
 1960 02e6 46AB     		add	r3, sp, #280
 1961 02e8 6193     		str	r3, [sp, #388]
 453:Lib/AI_Runtime/Npu/ll_aton/ll_sw_float.c ****   }
 1962              		.loc 1 453 5 is_stmt 1 view .LVU520
 1963 02ea FFF7FEFF 		bl	forward_relu_thresholded
 1964              	.LVL53:
 1965              	.LBE18:
 455:Lib/AI_Runtime/Npu/ll_aton/ll_sw_float.c ****   case LL_SW_SELU:
 1966              		.loc 1 455 3 view .LVU521
 1967 02ee 55E7     		b	.L31
 1968              	.LVL54:
 1969              	.L65:
 1970              	.LBB19:
 459:Lib/AI_Runtime/Npu/ll_aton/ll_sw_float.c **** 
 1971              		.loc 1 459 5 view .LVU522
 1972 02f0 0223     		movs	r3, #2
 1973 02f2 4793     		str	r3, [sp, #284]
 1974 02f4 D0F88830 		ldr	r3, [r0, #136]	@ float
 1975 02f8 4691     		str	r1, [sp, #280]
 1976 02fa 3F93     		str	r3, [sp, #252]	@ float
 1977 02fc D0F89030 		ldr	r3, [r0, #144]	@ float
 461:Lib/AI_Runtime/Npu/ll_aton/ll_sw_float.c ****                          .nl_params = AI_ARRAY_OBJ(&selu_layer_params), )
 1978              		.loc 1 461 5 is_stmt 0 view .LVU523
 1979 0300 9549     		ldr	r1, .L73
 459:Lib/AI_Runtime/Npu/ll_aton/ll_sw_float.c **** 
 1980              		.loc 1 459 5 view .LVU524
 1981 0302 4093     		str	r3, [sp, #256]	@ float
 1982 0304 3FAB     		add	r3, sp, #252
 1983 0306 4893     		str	r3, [sp, #288]
 1984 0308 0023     		movs	r3, #0
 461:Lib/AI_Runtime/Npu/ll_aton/ll_sw_float.c ****                          .nl_params = AI_ARRAY_OBJ(&selu_layer_params), )
 1985              		.loc 1 461 5 view .LVU525
 1986 030a CDE95A13 		strd	r1, r3, [sp, #360]
 1987 030e CDE95C33 		strd	r3, r3, [sp, #368]
 459:Lib/AI_Runtime/Npu/ll_aton/ll_sw_float.c **** 
 1988              		.loc 1 459 5 view .LVU526
 1989 0312 4993     		str	r3, [sp, #292]
 461:Lib/AI_Runtime/Npu/ll_aton/ll_sw_float.c ****                          .nl_params = AI_ARRAY_OBJ(&selu_layer_params), )
 1990              		.loc 1 461 5 is_stmt 1 view .LVU527
 1991 0314 5E93     		str	r3, [sp, #376]
ARM GAS  C:\Users\DJESSOU\AppData\Local\Temp\ccdFeyMS.s 			page 53


 1992 0316 934B     		ldr	r3, .L73+12
 463:Lib/AI_Runtime/Npu/ll_aton/ll_sw_float.c ****   }
 1993              		.loc 1 463 5 is_stmt 0 view .LVU528
 1994 0318 5AA8     		add	r0, sp, #360
 1995              	.LVL55:
 461:Lib/AI_Runtime/Npu/ll_aton/ll_sw_float.c ****                          .nl_params = AI_ARRAY_OBJ(&selu_layer_params), )
 1996              		.loc 1 461 5 view .LVU529
 1997 031a CDE95F32 		strd	r3, r2, [sp, #380]
 1998 031e 46AB     		add	r3, sp, #280
 1999 0320 6193     		str	r3, [sp, #388]
 463:Lib/AI_Runtime/Npu/ll_aton/ll_sw_float.c ****   }
 2000              		.loc 1 463 5 is_stmt 1 view .LVU530
 2001 0322 FFF7FEFF 		bl	forward_selu
 2002              	.LVL56:
 2003              	.LBE19:
 465:Lib/AI_Runtime/Npu/ll_aton/ll_sw_float.c ****   case LL_SW_CEIL:
 2004              		.loc 1 465 3 view .LVU531
 2005 0326 39E7     		b	.L31
 2006              	.LVL57:
 2007              	.L50:
 2008              	.LBB20:
 468:Lib/AI_Runtime/Npu/ll_aton/ll_sw_float.c ****                          .nl_params = NULL, )
 2009              		.loc 1 468 5 view .LVU532
 2010 0328 8B49     		ldr	r1, .L73
 470:Lib/AI_Runtime/Npu/ll_aton/ll_sw_float.c ****   }
 2011              		.loc 1 470 5 is_stmt 0 view .LVU533
 2012 032a 5AA8     		add	r0, sp, #360
 2013              	.LVL58:
 468:Lib/AI_Runtime/Npu/ll_aton/ll_sw_float.c ****                          .nl_params = NULL, )
 2014              		.loc 1 468 5 view .LVU534
 2015 032c CDE95A13 		strd	r1, r3, [sp, #360]
 2016 0330 8D49     		ldr	r1, .L73+16
 2017 0332 CDE95C33 		strd	r3, r3, [sp, #368]
 2018 0336 CDE95F12 		strd	r1, r2, [sp, #380]
 2019 033a 5E93     		str	r3, [sp, #376]
 2020 033c 6193     		str	r3, [sp, #388]
 470:Lib/AI_Runtime/Npu/ll_aton/ll_sw_float.c ****   }
 2021              		.loc 1 470 5 is_stmt 1 view .LVU535
 2022 033e FFF7FEFF 		bl	forward_ceil
 2023              	.LVL59:
 2024              	.LBE20:
 472:Lib/AI_Runtime/Npu/ll_aton/ll_sw_float.c ****   case LL_SW_FLOOR:
 2025              		.loc 1 472 3 view .LVU536
 2026 0342 2BE7     		b	.L31
 2027              	.LVL60:
 2028              	.L49:
 2029              	.LBB21:
 475:Lib/AI_Runtime/Npu/ll_aton/ll_sw_float.c ****                          .nl_params = NULL, )
 2030              		.loc 1 475 5 view .LVU537
 2031 0344 8449     		ldr	r1, .L73
 477:Lib/AI_Runtime/Npu/ll_aton/ll_sw_float.c ****   }
 2032              		.loc 1 477 5 is_stmt 0 view .LVU538
 2033 0346 5AA8     		add	r0, sp, #360
 2034              	.LVL61:
 475:Lib/AI_Runtime/Npu/ll_aton/ll_sw_float.c ****                          .nl_params = NULL, )
 2035              		.loc 1 475 5 view .LVU539
 2036 0348 CDE95A13 		strd	r1, r3, [sp, #360]
ARM GAS  C:\Users\DJESSOU\AppData\Local\Temp\ccdFeyMS.s 			page 54


 2037 034c 8749     		ldr	r1, .L73+20
 2038 034e CDE95C33 		strd	r3, r3, [sp, #368]
 2039 0352 CDE95F12 		strd	r1, r2, [sp, #380]
 2040 0356 5E93     		str	r3, [sp, #376]
 2041 0358 6193     		str	r3, [sp, #388]
 477:Lib/AI_Runtime/Npu/ll_aton/ll_sw_float.c ****   }
 2042              		.loc 1 477 5 is_stmt 1 view .LVU540
 2043 035a FFF7FEFF 		bl	forward_floor
 2044              	.LVL62:
 2045              	.LBE21:
 479:Lib/AI_Runtime/Npu/ll_aton/ll_sw_float.c ****   case LL_SW_EXP:
 2046              		.loc 1 479 3 view .LVU541
 2047 035e 1DE7     		b	.L31
 2048              	.LVL63:
 2049              	.L48:
 2050              	.LBB22:
 482:Lib/AI_Runtime/Npu/ll_aton/ll_sw_float.c ****                          .nl_params = NULL, )
 2051              		.loc 1 482 5 view .LVU542
 2052 0360 7D49     		ldr	r1, .L73
 484:Lib/AI_Runtime/Npu/ll_aton/ll_sw_float.c ****   }
 2053              		.loc 1 484 5 is_stmt 0 view .LVU543
 2054 0362 5AA8     		add	r0, sp, #360
 2055              	.LVL64:
 482:Lib/AI_Runtime/Npu/ll_aton/ll_sw_float.c ****                          .nl_params = NULL, )
 2056              		.loc 1 482 5 view .LVU544
 2057 0364 CDE95A13 		strd	r1, r3, [sp, #360]
 2058 0368 8149     		ldr	r1, .L73+24
 2059 036a CDE95C33 		strd	r3, r3, [sp, #368]
 2060 036e CDE95F12 		strd	r1, r2, [sp, #380]
 2061 0372 5E93     		str	r3, [sp, #376]
 2062 0374 6193     		str	r3, [sp, #388]
 484:Lib/AI_Runtime/Npu/ll_aton/ll_sw_float.c ****   }
 2063              		.loc 1 484 5 is_stmt 1 view .LVU545
 2064 0376 FFF7FEFF 		bl	forward_exp
 2065              	.LVL65:
 2066              	.LBE22:
 486:Lib/AI_Runtime/Npu/ll_aton/ll_sw_float.c ****   case LL_SW_LOG:
 2067              		.loc 1 486 3 view .LVU546
 2068 037a 0FE7     		b	.L31
 2069              	.LVL66:
 2070              	.L47:
 2071              	.LBB23:
 489:Lib/AI_Runtime/Npu/ll_aton/ll_sw_float.c ****                          .nl_params = NULL, )
 2072              		.loc 1 489 5 view .LVU547
 2073 037c 7649     		ldr	r1, .L73
 491:Lib/AI_Runtime/Npu/ll_aton/ll_sw_float.c ****   }
 2074              		.loc 1 491 5 is_stmt 0 view .LVU548
 2075 037e 5AA8     		add	r0, sp, #360
 2076              	.LVL67:
 489:Lib/AI_Runtime/Npu/ll_aton/ll_sw_float.c ****                          .nl_params = NULL, )
 2077              		.loc 1 489 5 view .LVU549
 2078 0380 CDE95A13 		strd	r1, r3, [sp, #360]
 2079 0384 7B49     		ldr	r1, .L73+28
 2080 0386 CDE95C33 		strd	r3, r3, [sp, #368]
 2081 038a CDE95F12 		strd	r1, r2, [sp, #380]
 2082 038e 5E93     		str	r3, [sp, #376]
 2083 0390 6193     		str	r3, [sp, #388]
ARM GAS  C:\Users\DJESSOU\AppData\Local\Temp\ccdFeyMS.s 			page 55


 491:Lib/AI_Runtime/Npu/ll_aton/ll_sw_float.c ****   }
 2084              		.loc 1 491 5 is_stmt 1 view .LVU550
 2085 0392 FFF7FEFF 		bl	forward_log
 2086              	.LVL68:
 2087              	.LBE23:
 493:Lib/AI_Runtime/Npu/ll_aton/ll_sw_float.c ****   case LL_SW_ACOS:
 2088              		.loc 1 493 3 view .LVU551
 2089 0396 01E7     		b	.L31
 2090              	.LVL69:
 2091              	.L61:
 2092              	.LBB24:
 496:Lib/AI_Runtime/Npu/ll_aton/ll_sw_float.c ****                          .nl_params = NULL, )
 2093              		.loc 1 496 5 view .LVU552
 2094 0398 6F49     		ldr	r1, .L73
 498:Lib/AI_Runtime/Npu/ll_aton/ll_sw_float.c ****   }
 2095              		.loc 1 498 5 is_stmt 0 view .LVU553
 2096 039a 5AA8     		add	r0, sp, #360
 2097              	.LVL70:
 496:Lib/AI_Runtime/Npu/ll_aton/ll_sw_float.c ****                          .nl_params = NULL, )
 2098              		.loc 1 496 5 view .LVU554
 2099 039c CDE95A13 		strd	r1, r3, [sp, #360]
 2100 03a0 7549     		ldr	r1, .L73+32
 2101 03a2 CDE95C33 		strd	r3, r3, [sp, #368]
 2102 03a6 CDE95F12 		strd	r1, r2, [sp, #380]
 2103 03aa 5E93     		str	r3, [sp, #376]
 2104 03ac 6193     		str	r3, [sp, #388]
 498:Lib/AI_Runtime/Npu/ll_aton/ll_sw_float.c ****   }
 2105              		.loc 1 498 5 is_stmt 1 view .LVU555
 2106 03ae FFF7FEFF 		bl	forward_acos
 2107              	.LVL71:
 2108              	.LBE24:
 500:Lib/AI_Runtime/Npu/ll_aton/ll_sw_float.c ****   case LL_SW_ACOSH:
 2109              		.loc 1 500 3 view .LVU556
 2110 03b2 F3E6     		b	.L31
 2111              	.LVL72:
 2112              	.L60:
 2113              	.LBB25:
 503:Lib/AI_Runtime/Npu/ll_aton/ll_sw_float.c ****                          .nl_params = NULL, )
 2114              		.loc 1 503 5 view .LVU557
 2115 03b4 6849     		ldr	r1, .L73
 505:Lib/AI_Runtime/Npu/ll_aton/ll_sw_float.c ****   }
 2116              		.loc 1 505 5 is_stmt 0 view .LVU558
 2117 03b6 5AA8     		add	r0, sp, #360
 2118              	.LVL73:
 503:Lib/AI_Runtime/Npu/ll_aton/ll_sw_float.c ****                          .nl_params = NULL, )
 2119              		.loc 1 503 5 view .LVU559
 2120 03b8 CDE95A13 		strd	r1, r3, [sp, #360]
 2121 03bc 6F49     		ldr	r1, .L73+36
 2122 03be CDE95C33 		strd	r3, r3, [sp, #368]
 2123 03c2 CDE95F12 		strd	r1, r2, [sp, #380]
 2124 03c6 5E93     		str	r3, [sp, #376]
 2125 03c8 6193     		str	r3, [sp, #388]
 505:Lib/AI_Runtime/Npu/ll_aton/ll_sw_float.c ****   }
 2126              		.loc 1 505 5 is_stmt 1 view .LVU560
 2127 03ca FFF7FEFF 		bl	forward_acosh
 2128              	.LVL74:
 2129              	.LBE25:
ARM GAS  C:\Users\DJESSOU\AppData\Local\Temp\ccdFeyMS.s 			page 56


 507:Lib/AI_Runtime/Npu/ll_aton/ll_sw_float.c ****   case LL_SW_ASIN:
 2130              		.loc 1 507 3 view .LVU561
 2131 03ce E5E6     		b	.L31
 2132              	.LVL75:
 2133              	.L59:
 2134              	.LBB26:
 510:Lib/AI_Runtime/Npu/ll_aton/ll_sw_float.c ****                          .nl_params = NULL, )
 2135              		.loc 1 510 5 view .LVU562
 2136 03d0 6149     		ldr	r1, .L73
 512:Lib/AI_Runtime/Npu/ll_aton/ll_sw_float.c ****   }
 2137              		.loc 1 512 5 is_stmt 0 view .LVU563
 2138 03d2 5AA8     		add	r0, sp, #360
 2139              	.LVL76:
 510:Lib/AI_Runtime/Npu/ll_aton/ll_sw_float.c ****                          .nl_params = NULL, )
 2140              		.loc 1 510 5 view .LVU564
 2141 03d4 CDE95A13 		strd	r1, r3, [sp, #360]
 2142 03d8 6949     		ldr	r1, .L73+40
 2143 03da CDE95C33 		strd	r3, r3, [sp, #368]
 2144 03de CDE95F12 		strd	r1, r2, [sp, #380]
 2145 03e2 5E93     		str	r3, [sp, #376]
 2146 03e4 6193     		str	r3, [sp, #388]
 512:Lib/AI_Runtime/Npu/ll_aton/ll_sw_float.c ****   }
 2147              		.loc 1 512 5 is_stmt 1 view .LVU565
 2148 03e6 FFF7FEFF 		bl	forward_asin
 2149              	.LVL77:
 2150              	.LBE26:
 514:Lib/AI_Runtime/Npu/ll_aton/ll_sw_float.c ****   case LL_SW_ASINH:
 2151              		.loc 1 514 3 view .LVU566
 2152 03ea D7E6     		b	.L31
 2153              	.LVL78:
 2154              	.L58:
 2155              	.LBB27:
 517:Lib/AI_Runtime/Npu/ll_aton/ll_sw_float.c ****                          .nl_params = NULL, )
 2156              		.loc 1 517 5 view .LVU567
 2157 03ec 5A49     		ldr	r1, .L73
 519:Lib/AI_Runtime/Npu/ll_aton/ll_sw_float.c ****   }
 2158              		.loc 1 519 5 is_stmt 0 view .LVU568
 2159 03ee 5AA8     		add	r0, sp, #360
 2160              	.LVL79:
 517:Lib/AI_Runtime/Npu/ll_aton/ll_sw_float.c ****                          .nl_params = NULL, )
 2161              		.loc 1 517 5 view .LVU569
 2162 03f0 CDE95A13 		strd	r1, r3, [sp, #360]
 2163 03f4 6349     		ldr	r1, .L73+44
 2164 03f6 CDE95C33 		strd	r3, r3, [sp, #368]
 2165 03fa CDE95F12 		strd	r1, r2, [sp, #380]
 2166 03fe 5E93     		str	r3, [sp, #376]
 2167 0400 6193     		str	r3, [sp, #388]
 519:Lib/AI_Runtime/Npu/ll_aton/ll_sw_float.c ****   }
 2168              		.loc 1 519 5 is_stmt 1 view .LVU570
 2169 0402 FFF7FEFF 		bl	forward_asinh
 2170              	.LVL80:
 2171              	.LBE27:
 521:Lib/AI_Runtime/Npu/ll_aton/ll_sw_float.c ****   case LL_SW_ATAN:
 2172              		.loc 1 521 3 view .LVU571
 2173 0406 C9E6     		b	.L31
 2174              	.LVL81:
 2175              	.L63:
ARM GAS  C:\Users\DJESSOU\AppData\Local\Temp\ccdFeyMS.s 			page 57


 2176              	.LBB28:
 524:Lib/AI_Runtime/Npu/ll_aton/ll_sw_float.c ****                          .nl_params = NULL, )
 2177              		.loc 1 524 5 view .LVU572
 2178 0408 5349     		ldr	r1, .L73
 526:Lib/AI_Runtime/Npu/ll_aton/ll_sw_float.c ****   }
 2179              		.loc 1 526 5 is_stmt 0 view .LVU573
 2180 040a 5AA8     		add	r0, sp, #360
 2181              	.LVL82:
 524:Lib/AI_Runtime/Npu/ll_aton/ll_sw_float.c ****                          .nl_params = NULL, )
 2182              		.loc 1 524 5 view .LVU574
 2183 040c CDE95A13 		strd	r1, r3, [sp, #360]
 2184 0410 5D49     		ldr	r1, .L73+48
 2185 0412 CDE95C33 		strd	r3, r3, [sp, #368]
 2186 0416 CDE95F12 		strd	r1, r2, [sp, #380]
 2187 041a 5E93     		str	r3, [sp, #376]
 2188 041c 6193     		str	r3, [sp, #388]
 526:Lib/AI_Runtime/Npu/ll_aton/ll_sw_float.c ****   }
 2189              		.loc 1 526 5 is_stmt 1 view .LVU575
 2190 041e FFF7FEFF 		bl	forward_atan
 2191              	.LVL83:
 2192              	.LBE28:
 528:Lib/AI_Runtime/Npu/ll_aton/ll_sw_float.c ****   case LL_SW_ATANH:
 2193              		.loc 1 528 3 view .LVU576
 2194 0422 BBE6     		b	.L31
 2195              	.LVL84:
 2196              	.L62:
 2197              	.LBB29:
 531:Lib/AI_Runtime/Npu/ll_aton/ll_sw_float.c ****                          .nl_params = NULL, )
 2198              		.loc 1 531 5 view .LVU577
 2199 0424 4C49     		ldr	r1, .L73
 533:Lib/AI_Runtime/Npu/ll_aton/ll_sw_float.c ****   }
 2200              		.loc 1 533 5 is_stmt 0 view .LVU578
 2201 0426 5AA8     		add	r0, sp, #360
 2202              	.LVL85:
 531:Lib/AI_Runtime/Npu/ll_aton/ll_sw_float.c ****                          .nl_params = NULL, )
 2203              		.loc 1 531 5 view .LVU579
 2204 0428 CDE95A13 		strd	r1, r3, [sp, #360]
 2205 042c 5749     		ldr	r1, .L73+52
 2206 042e CDE95C33 		strd	r3, r3, [sp, #368]
 2207 0432 CDE95F12 		strd	r1, r2, [sp, #380]
 2208 0436 5E93     		str	r3, [sp, #376]
 2209 0438 6193     		str	r3, [sp, #388]
 533:Lib/AI_Runtime/Npu/ll_aton/ll_sw_float.c ****   }
 2210              		.loc 1 533 5 is_stmt 1 view .LVU580
 2211 043a FFF7FEFF 		bl	forward_atanh
 2212              	.LVL86:
 2213              	.LBE29:
 535:Lib/AI_Runtime/Npu/ll_aton/ll_sw_float.c ****   case LL_SW_COS:
 2214              		.loc 1 535 3 view .LVU581
 2215 043e ADE6     		b	.L31
 2216              	.LVL87:
 2217              	.L55:
 2218              	.LBB30:
 538:Lib/AI_Runtime/Npu/ll_aton/ll_sw_float.c ****                          .nl_params = NULL, )
 2219              		.loc 1 538 5 view .LVU582
 2220 0440 4549     		ldr	r1, .L73
 540:Lib/AI_Runtime/Npu/ll_aton/ll_sw_float.c ****   }
ARM GAS  C:\Users\DJESSOU\AppData\Local\Temp\ccdFeyMS.s 			page 58


 2221              		.loc 1 540 5 is_stmt 0 view .LVU583
 2222 0442 5AA8     		add	r0, sp, #360
 2223              	.LVL88:
 538:Lib/AI_Runtime/Npu/ll_aton/ll_sw_float.c ****                          .nl_params = NULL, )
 2224              		.loc 1 538 5 view .LVU584
 2225 0444 CDE95A13 		strd	r1, r3, [sp, #360]
 2226 0448 5149     		ldr	r1, .L73+56
 2227 044a CDE95C33 		strd	r3, r3, [sp, #368]
 2228 044e CDE95F12 		strd	r1, r2, [sp, #380]
 2229 0452 5E93     		str	r3, [sp, #376]
 2230 0454 6193     		str	r3, [sp, #388]
 540:Lib/AI_Runtime/Npu/ll_aton/ll_sw_float.c ****   }
 2231              		.loc 1 540 5 is_stmt 1 view .LVU585
 2232 0456 FFF7FEFF 		bl	forward_cos
 2233              	.LVL89:
 2234              	.LBE30:
 542:Lib/AI_Runtime/Npu/ll_aton/ll_sw_float.c ****   case LL_SW_COSH:
 2235              		.loc 1 542 3 view .LVU586
 2236 045a 9FE6     		b	.L31
 2237              	.LVL90:
 2238              	.L54:
 2239              	.LBB31:
 545:Lib/AI_Runtime/Npu/ll_aton/ll_sw_float.c ****                          .nl_params = NULL, )
 2240              		.loc 1 545 5 view .LVU587
 2241 045c 3E49     		ldr	r1, .L73
 547:Lib/AI_Runtime/Npu/ll_aton/ll_sw_float.c ****   }
 2242              		.loc 1 547 5 is_stmt 0 view .LVU588
 2243 045e 5AA8     		add	r0, sp, #360
 2244              	.LVL91:
 545:Lib/AI_Runtime/Npu/ll_aton/ll_sw_float.c ****                          .nl_params = NULL, )
 2245              		.loc 1 545 5 view .LVU589
 2246 0460 CDE95A13 		strd	r1, r3, [sp, #360]
 2247 0464 4B49     		ldr	r1, .L73+60
 2248 0466 CDE95C33 		strd	r3, r3, [sp, #368]
 2249 046a CDE95F12 		strd	r1, r2, [sp, #380]
 2250 046e 5E93     		str	r3, [sp, #376]
 2251 0470 6193     		str	r3, [sp, #388]
 547:Lib/AI_Runtime/Npu/ll_aton/ll_sw_float.c ****   }
 2252              		.loc 1 547 5 is_stmt 1 view .LVU590
 2253 0472 FFF7FEFF 		bl	forward_cosh
 2254              	.LVL92:
 2255              	.LBE31:
 549:Lib/AI_Runtime/Npu/ll_aton/ll_sw_float.c ****   case LL_SW_SIN:
 2256              		.loc 1 549 3 view .LVU591
 2257 0476 91E6     		b	.L31
 2258              	.LVL93:
 2259              	.L53:
 2260              	.LBB32:
 552:Lib/AI_Runtime/Npu/ll_aton/ll_sw_float.c ****                          .nl_params = NULL, )
 2261              		.loc 1 552 5 view .LVU592
 2262 0478 3749     		ldr	r1, .L73
 554:Lib/AI_Runtime/Npu/ll_aton/ll_sw_float.c ****   }
 2263              		.loc 1 554 5 is_stmt 0 view .LVU593
 2264 047a 5AA8     		add	r0, sp, #360
 2265              	.LVL94:
 552:Lib/AI_Runtime/Npu/ll_aton/ll_sw_float.c ****                          .nl_params = NULL, )
 2266              		.loc 1 552 5 view .LVU594
ARM GAS  C:\Users\DJESSOU\AppData\Local\Temp\ccdFeyMS.s 			page 59


 2267 047c CDE95A13 		strd	r1, r3, [sp, #360]
 2268 0480 4549     		ldr	r1, .L73+64
 2269 0482 CDE95C33 		strd	r3, r3, [sp, #368]
 2270 0486 CDE95F12 		strd	r1, r2, [sp, #380]
 2271 048a 5E93     		str	r3, [sp, #376]
 2272 048c 6193     		str	r3, [sp, #388]
 554:Lib/AI_Runtime/Npu/ll_aton/ll_sw_float.c ****   }
 2273              		.loc 1 554 5 is_stmt 1 view .LVU595
 2274 048e FFF7FEFF 		bl	forward_sin
 2275              	.LVL95:
 2276              	.LBE32:
 556:Lib/AI_Runtime/Npu/ll_aton/ll_sw_float.c ****   case LL_SW_SINH:
 2277              		.loc 1 556 3 view .LVU596
 2278 0492 83E6     		b	.L31
 2279              	.LVL96:
 2280              	.L52:
 2281              	.LBB33:
 559:Lib/AI_Runtime/Npu/ll_aton/ll_sw_float.c ****                          .nl_params = NULL, )
 2282              		.loc 1 559 5 view .LVU597
 2283 0494 3049     		ldr	r1, .L73
 561:Lib/AI_Runtime/Npu/ll_aton/ll_sw_float.c ****   }
 2284              		.loc 1 561 5 is_stmt 0 view .LVU598
 2285 0496 5AA8     		add	r0, sp, #360
 2286              	.LVL97:
 559:Lib/AI_Runtime/Npu/ll_aton/ll_sw_float.c ****                          .nl_params = NULL, )
 2287              		.loc 1 559 5 view .LVU599
 2288 0498 CDE95A13 		strd	r1, r3, [sp, #360]
 2289 049c 3F49     		ldr	r1, .L73+68
 2290 049e CDE95C33 		strd	r3, r3, [sp, #368]
 2291 04a2 CDE95F12 		strd	r1, r2, [sp, #380]
 2292 04a6 5E93     		str	r3, [sp, #376]
 2293 04a8 6193     		str	r3, [sp, #388]
 561:Lib/AI_Runtime/Npu/ll_aton/ll_sw_float.c ****   }
 2294              		.loc 1 561 5 is_stmt 1 view .LVU600
 2295 04aa FFF7FEFF 		bl	forward_sinh
 2296              	.LVL98:
 2297              	.LBE33:
 563:Lib/AI_Runtime/Npu/ll_aton/ll_sw_float.c ****   case LL_SW_TANH:
 2298              		.loc 1 563 3 view .LVU601
 2299 04ae 75E6     		b	.L31
 2300              	.LVL99:
 2301              	.L56:
 2302              	.LBB34:
 566:Lib/AI_Runtime/Npu/ll_aton/ll_sw_float.c ****                          .nl_params = NULL, )
 2303              		.loc 1 566 5 view .LVU602
 2304 04b0 2949     		ldr	r1, .L73
 568:Lib/AI_Runtime/Npu/ll_aton/ll_sw_float.c ****   }
 2305              		.loc 1 568 5 is_stmt 0 view .LVU603
 2306 04b2 5AA8     		add	r0, sp, #360
 2307              	.LVL100:
 566:Lib/AI_Runtime/Npu/ll_aton/ll_sw_float.c ****                          .nl_params = NULL, )
 2308              		.loc 1 566 5 view .LVU604
 2309 04b4 CDE95A13 		strd	r1, r3, [sp, #360]
 2310 04b8 3949     		ldr	r1, .L73+72
 2311 04ba CDE95C33 		strd	r3, r3, [sp, #368]
 2312 04be CDE95F12 		strd	r1, r2, [sp, #380]
 2313 04c2 5E93     		str	r3, [sp, #376]
ARM GAS  C:\Users\DJESSOU\AppData\Local\Temp\ccdFeyMS.s 			page 60


 2314 04c4 6193     		str	r3, [sp, #388]
 568:Lib/AI_Runtime/Npu/ll_aton/ll_sw_float.c ****   }
 2315              		.loc 1 568 5 is_stmt 1 view .LVU605
 2316 04c6 FFF7FEFF 		bl	forward_tanh
 2317              	.LVL101:
 2318              	.LBE34:
 570:Lib/AI_Runtime/Npu/ll_aton/ll_sw_float.c ****   case LL_SW_TAN:
 2319              		.loc 1 570 3 view .LVU606
 2320 04ca 67E6     		b	.L31
 2321              	.LVL102:
 2322              	.L57:
 2323              	.LBB35:
 573:Lib/AI_Runtime/Npu/ll_aton/ll_sw_float.c ****                          .nl_params = NULL, )
 2324              		.loc 1 573 5 view .LVU607
 2325 04cc 2249     		ldr	r1, .L73
 575:Lib/AI_Runtime/Npu/ll_aton/ll_sw_float.c ****   }
 2326              		.loc 1 575 5 is_stmt 0 view .LVU608
 2327 04ce 5AA8     		add	r0, sp, #360
 2328              	.LVL103:
 573:Lib/AI_Runtime/Npu/ll_aton/ll_sw_float.c ****                          .nl_params = NULL, )
 2329              		.loc 1 573 5 view .LVU609
 2330 04d0 CDE95A13 		strd	r1, r3, [sp, #360]
 2331 04d4 3349     		ldr	r1, .L73+76
 2332 04d6 CDE95C33 		strd	r3, r3, [sp, #368]
 2333 04da CDE95F12 		strd	r1, r2, [sp, #380]
 2334 04de 5E93     		str	r3, [sp, #376]
 2335 04e0 6193     		str	r3, [sp, #388]
 575:Lib/AI_Runtime/Npu/ll_aton/ll_sw_float.c ****   }
 2336              		.loc 1 575 5 is_stmt 1 view .LVU610
 2337 04e2 FFF7FEFF 		bl	forward_tan
 2338              	.LVL104:
 2339              	.LBE35:
 577:Lib/AI_Runtime/Npu/ll_aton/ll_sw_float.c ****   case LL_SW_SIGMOID:
 2340              		.loc 1 577 3 view .LVU611
 2341 04e6 59E6     		b	.L31
 2342              	.LVL105:
 2343              	.L64:
 2344              	.LBB36:
 580:Lib/AI_Runtime/Npu/ll_aton/ll_sw_float.c ****                          .nl_params = NULL, )
 2345              		.loc 1 580 5 view .LVU612
 2346 04e8 1B49     		ldr	r1, .L73
 582:Lib/AI_Runtime/Npu/ll_aton/ll_sw_float.c ****   }
 2347              		.loc 1 582 5 is_stmt 0 view .LVU613
 2348 04ea 5AA8     		add	r0, sp, #360
 2349              	.LVL106:
 580:Lib/AI_Runtime/Npu/ll_aton/ll_sw_float.c ****                          .nl_params = NULL, )
 2350              		.loc 1 580 5 view .LVU614
 2351 04ec CDE95A13 		strd	r1, r3, [sp, #360]
 2352 04f0 2D49     		ldr	r1, .L73+80
 2353 04f2 CDE95C33 		strd	r3, r3, [sp, #368]
 2354 04f6 CDE95F12 		strd	r1, r2, [sp, #380]
 2355 04fa 5E93     		str	r3, [sp, #376]
 2356 04fc 6193     		str	r3, [sp, #388]
 582:Lib/AI_Runtime/Npu/ll_aton/ll_sw_float.c ****   }
 2357              		.loc 1 582 5 is_stmt 1 view .LVU615
 2358 04fe FFF7FEFF 		bl	forward_sigmoid
 2359              	.LVL107:
ARM GAS  C:\Users\DJESSOU\AppData\Local\Temp\ccdFeyMS.s 			page 61


 2360              	.LBE36:
 584:Lib/AI_Runtime/Npu/ll_aton/ll_sw_float.c ****   case LL_SW_SQRT:
 2361              		.loc 1 584 3 view .LVU616
 2362 0502 4BE6     		b	.L31
 2363              	.LVL108:
 2364              	.L51:
 2365              	.LBB37:
 587:Lib/AI_Runtime/Npu/ll_aton/ll_sw_float.c ****                          .nl_params = NULL, )
 2366              		.loc 1 587 5 view .LVU617
 2367 0504 1449     		ldr	r1, .L73
 589:Lib/AI_Runtime/Npu/ll_aton/ll_sw_float.c ****   }
 2368              		.loc 1 589 5 is_stmt 0 view .LVU618
 2369 0506 5AA8     		add	r0, sp, #360
 2370              	.LVL109:
 587:Lib/AI_Runtime/Npu/ll_aton/ll_sw_float.c ****                          .nl_params = NULL, )
 2371              		.loc 1 587 5 view .LVU619
 2372 0508 CDE95A13 		strd	r1, r3, [sp, #360]
 2373 050c 2749     		ldr	r1, .L73+84
 2374 050e CDE95C33 		strd	r3, r3, [sp, #368]
 2375 0512 CDE95F12 		strd	r1, r2, [sp, #380]
 2376 0516 5E93     		str	r3, [sp, #376]
 2377 0518 6193     		str	r3, [sp, #388]
 589:Lib/AI_Runtime/Npu/ll_aton/ll_sw_float.c ****   }
 2378              		.loc 1 589 5 is_stmt 1 view .LVU620
 2379 051a FFF7FEFF 		bl	forward_sqrt
 2380              	.LVL110:
 2381              	.LBE37:
 591:Lib/AI_Runtime/Npu/ll_aton/ll_sw_float.c ****   case LL_SW_ERF:
 2382              		.loc 1 591 3 view .LVU621
 2383 051e 3DE6     		b	.L31
 2384              	.LVL111:
 2385              	.L46:
 2386              	.LBB38:
 594:Lib/AI_Runtime/Npu/ll_aton/ll_sw_float.c ****                          .nl_params = NULL, )
 2387              		.loc 1 594 5 view .LVU622
 2388 0520 0D49     		ldr	r1, .L73
 596:Lib/AI_Runtime/Npu/ll_aton/ll_sw_float.c ****   }
 2389              		.loc 1 596 5 is_stmt 0 view .LVU623
 2390 0522 5AA8     		add	r0, sp, #360
 2391              	.LVL112:
 594:Lib/AI_Runtime/Npu/ll_aton/ll_sw_float.c ****                          .nl_params = NULL, )
 2392              		.loc 1 594 5 view .LVU624
 2393 0524 CDE95A13 		strd	r1, r3, [sp, #360]
 2394 0528 2149     		ldr	r1, .L73+88
 2395 052a CDE95C33 		strd	r3, r3, [sp, #368]
 2396 052e CDE95F12 		strd	r1, r2, [sp, #380]
 2397 0532 5E93     		str	r3, [sp, #376]
 2398 0534 6193     		str	r3, [sp, #388]
 596:Lib/AI_Runtime/Npu/ll_aton/ll_sw_float.c ****   }
 2399              		.loc 1 596 5 is_stmt 1 view .LVU625
 2400 0536 FFF7FEFF 		bl	forward_erf
 2401              	.LVL113:
 2402              	.LBE38:
 598:Lib/AI_Runtime/Npu/ll_aton/ll_sw_float.c ****   case LL_SW_SOFTPLUS:
 2403              		.loc 1 598 3 view .LVU626
 2404 053a 2FE6     		b	.L31
 2405              	.LVL114:
ARM GAS  C:\Users\DJESSOU\AppData\Local\Temp\ccdFeyMS.s 			page 62


 2406              	.L38:
 2407              	.LBB39:
 601:Lib/AI_Runtime/Npu/ll_aton/ll_sw_float.c ****                          .nl_params = NULL, )
 2408              		.loc 1 601 5 view .LVU627
 2409 053c 0649     		ldr	r1, .L73
 603:Lib/AI_Runtime/Npu/ll_aton/ll_sw_float.c ****   }
 2410              		.loc 1 603 5 is_stmt 0 view .LVU628
 2411 053e 5AA8     		add	r0, sp, #360
 2412              	.LVL115:
 601:Lib/AI_Runtime/Npu/ll_aton/ll_sw_float.c ****                          .nl_params = NULL, )
 2413              		.loc 1 601 5 view .LVU629
 2414 0540 CDE95A13 		strd	r1, r3, [sp, #360]
 2415 0544 1B49     		ldr	r1, .L73+92
 2416 0546 CDE95C33 		strd	r3, r3, [sp, #368]
 2417 054a CDE95F12 		strd	r1, r2, [sp, #380]
 2418 054e 5E93     		str	r3, [sp, #376]
 2419 0550 6193     		str	r3, [sp, #388]
 603:Lib/AI_Runtime/Npu/ll_aton/ll_sw_float.c ****   }
 2420              		.loc 1 603 5 is_stmt 1 view .LVU630
 2421 0552 FFF7FEFF 		bl	forward_soft_plus
 2422              	.LVL116:
 2423              	.LBE39:
 605:Lib/AI_Runtime/Npu/ll_aton/ll_sw_float.c ****   case LL_SW_SOFTSIGN:
 2424              		.loc 1 605 3 view .LVU631
 2425 0556 21E6     		b	.L31
 2426              	.L74:
 2427              		.align	2
 2428              	.L73:
 2429 0558 07010200 		.word	131335
 2430 055c 00000000 		.word	forward_elu
 2431 0560 00000000 		.word	forward_relu_thresholded
 2432 0564 00000000 		.word	forward_selu
 2433 0568 00000000 		.word	forward_ceil
 2434 056c 00000000 		.word	forward_floor
 2435 0570 00000000 		.word	forward_exp
 2436 0574 00000000 		.word	forward_log
 2437 0578 00000000 		.word	forward_acos
 2438 057c 00000000 		.word	forward_acosh
 2439 0580 00000000 		.word	forward_asin
 2440 0584 00000000 		.word	forward_asinh
 2441 0588 00000000 		.word	forward_atan
 2442 058c 00000000 		.word	forward_atanh
 2443 0590 00000000 		.word	forward_cos
 2444 0594 00000000 		.word	forward_cosh
 2445 0598 00000000 		.word	forward_sin
 2446 059c 00000000 		.word	forward_sinh
 2447 05a0 00000000 		.word	forward_tanh
 2448 05a4 00000000 		.word	forward_tan
 2449 05a8 00000000 		.word	forward_sigmoid
 2450 05ac 00000000 		.word	forward_sqrt
 2451 05b0 00000000 		.word	forward_erf
 2452 05b4 00000000 		.word	forward_soft_plus
 2453              	.LVL117:
 2454              	.L39:
 2455              	.LBB40:
 608:Lib/AI_Runtime/Npu/ll_aton/ll_sw_float.c ****                          .nl_params = NULL, )
 2456              		.loc 1 608 5 view .LVU632
ARM GAS  C:\Users\DJESSOU\AppData\Local\Temp\ccdFeyMS.s 			page 63


 2457 05b8 5149     		ldr	r1, .L75
 610:Lib/AI_Runtime/Npu/ll_aton/ll_sw_float.c ****   }
 2458              		.loc 1 610 5 is_stmt 0 view .LVU633
 2459 05ba 5AA8     		add	r0, sp, #360
 2460              	.LVL118:
 608:Lib/AI_Runtime/Npu/ll_aton/ll_sw_float.c ****                          .nl_params = NULL, )
 2461              		.loc 1 608 5 view .LVU634
 2462 05bc CDE95A13 		strd	r1, r3, [sp, #360]
 2463 05c0 5049     		ldr	r1, .L75+4
 2464 05c2 CDE95C33 		strd	r3, r3, [sp, #368]
 2465 05c6 CDE95F12 		strd	r1, r2, [sp, #380]
 2466 05ca 5E93     		str	r3, [sp, #376]
 2467 05cc 6193     		str	r3, [sp, #388]
 610:Lib/AI_Runtime/Npu/ll_aton/ll_sw_float.c ****   }
 2468              		.loc 1 610 5 is_stmt 1 view .LVU635
 2469 05ce FFF7FEFF 		bl	forward_soft_sign
 2470              	.LVL119:
 2471              	.LBE40:
 612:Lib/AI_Runtime/Npu/ll_aton/ll_sw_float.c ****   case LL_SW_HARDSIGMOID:
 2472              		.loc 1 612 3 view .LVU636
 2473 05d2 E3E5     		b	.L31
 2474              	.LVL120:
 2475              	.L44:
 2476              	.LBB41:
 615:Lib/AI_Runtime/Npu/ll_aton/ll_sw_float.c ****                                 sw_info->beta)
 2477              		.loc 1 615 5 view .LVU637
 2478 05d4 0223     		movs	r3, #2
 2479 05d6 4793     		str	r3, [sp, #284]
 2480 05d8 D0F88830 		ldr	r3, [r0, #136]	@ float
 2481 05dc 4691     		str	r1, [sp, #280]
 2482 05de 3F93     		str	r3, [sp, #252]	@ float
 2483 05e0 D0F88C30 		ldr	r3, [r0, #140]	@ float
 617:Lib/AI_Runtime/Npu/ll_aton/ll_sw_float.c ****                          , .nl_params = AI_ARRAY_OBJ(&hard_sigmoid_layer_params), )
 2484              		.loc 1 617 5 is_stmt 0 view .LVU638
 2485 05e4 4649     		ldr	r1, .L75
 615:Lib/AI_Runtime/Npu/ll_aton/ll_sw_float.c ****                                 sw_info->beta)
 2486              		.loc 1 615 5 view .LVU639
 2487 05e6 4093     		str	r3, [sp, #256]	@ float
 2488 05e8 3FAB     		add	r3, sp, #252
 2489 05ea 4893     		str	r3, [sp, #288]
 2490 05ec 0023     		movs	r3, #0
 617:Lib/AI_Runtime/Npu/ll_aton/ll_sw_float.c ****                          , .nl_params = AI_ARRAY_OBJ(&hard_sigmoid_layer_params), )
 2491              		.loc 1 617 5 view .LVU640
 2492 05ee CDE95A13 		strd	r1, r3, [sp, #360]
 2493 05f2 CDE95C33 		strd	r3, r3, [sp, #368]
 615:Lib/AI_Runtime/Npu/ll_aton/ll_sw_float.c ****                                 sw_info->beta)
 2494              		.loc 1 615 5 view .LVU641
 2495 05f6 4993     		str	r3, [sp, #292]
 617:Lib/AI_Runtime/Npu/ll_aton/ll_sw_float.c ****                          , .nl_params = AI_ARRAY_OBJ(&hard_sigmoid_layer_params), )
 2496              		.loc 1 617 5 is_stmt 1 view .LVU642
 2497 05f8 5E93     		str	r3, [sp, #376]
 2498 05fa 434B     		ldr	r3, .L75+8
 619:Lib/AI_Runtime/Npu/ll_aton/ll_sw_float.c ****   }
 2499              		.loc 1 619 5 is_stmt 0 view .LVU643
 2500 05fc 5AA8     		add	r0, sp, #360
 2501              	.LVL121:
 617:Lib/AI_Runtime/Npu/ll_aton/ll_sw_float.c ****                          , .nl_params = AI_ARRAY_OBJ(&hard_sigmoid_layer_params), )
ARM GAS  C:\Users\DJESSOU\AppData\Local\Temp\ccdFeyMS.s 			page 64


 2502              		.loc 1 617 5 view .LVU644
 2503 05fe CDE95F32 		strd	r3, r2, [sp, #380]
 2504 0602 46AB     		add	r3, sp, #280
 2505 0604 6193     		str	r3, [sp, #388]
 619:Lib/AI_Runtime/Npu/ll_aton/ll_sw_float.c ****   }
 2506              		.loc 1 619 5 is_stmt 1 view .LVU645
 2507 0606 FFF7FEFF 		bl	forward_hard_sigmoid
 2508              	.LVL122:
 2509              	.LBE41:
 621:Lib/AI_Runtime/Npu/ll_aton/ll_sw_float.c ****   case LL_SW_SWISH:
 2510              		.loc 1 621 3 view .LVU646
 2511 060a C7E5     		b	.L31
 2512              	.LVL123:
 2513              	.L41:
 2514              	.LBB42:
 624:Lib/AI_Runtime/Npu/ll_aton/ll_sw_float.c ****                          .nl_params = NULL, )
 2515              		.loc 1 624 5 view .LVU647
 2516 060c 3C49     		ldr	r1, .L75
 626:Lib/AI_Runtime/Npu/ll_aton/ll_sw_float.c ****   }
 2517              		.loc 1 626 5 is_stmt 0 view .LVU648
 2518 060e 5AA8     		add	r0, sp, #360
 2519              	.LVL124:
 624:Lib/AI_Runtime/Npu/ll_aton/ll_sw_float.c ****                          .nl_params = NULL, )
 2520              		.loc 1 624 5 view .LVU649
 2521 0610 CDE95A13 		strd	r1, r3, [sp, #360]
 2522 0614 3D49     		ldr	r1, .L75+12
 2523 0616 CDE95C33 		strd	r3, r3, [sp, #368]
 2524 061a CDE95F12 		strd	r1, r2, [sp, #380]
 2525 061e 5E93     		str	r3, [sp, #376]
 2526 0620 6193     		str	r3, [sp, #388]
 626:Lib/AI_Runtime/Npu/ll_aton/ll_sw_float.c ****   }
 2527              		.loc 1 626 5 is_stmt 1 view .LVU650
 2528 0622 FFF7FEFF 		bl	forward_swish
 2529              	.LVL125:
 2530              	.LBE42:
 628:Lib/AI_Runtime/Npu/ll_aton/ll_sw_float.c ****   case LL_SW_HARDSWISH:
 2531              		.loc 1 628 3 view .LVU651
 2532 0626 B9E5     		b	.L31
 2533              	.LVL126:
 2534              	.L42:
 2535              	.LBB43:
 631:Lib/AI_Runtime/Npu/ll_aton/ll_sw_float.c ****                          .nl_params = NULL, )
 2536              		.loc 1 631 5 view .LVU652
 2537 0628 3549     		ldr	r1, .L75
 633:Lib/AI_Runtime/Npu/ll_aton/ll_sw_float.c ****   }
 2538              		.loc 1 633 5 is_stmt 0 view .LVU653
 2539 062a 5AA8     		add	r0, sp, #360
 2540              	.LVL127:
 631:Lib/AI_Runtime/Npu/ll_aton/ll_sw_float.c ****                          .nl_params = NULL, )
 2541              		.loc 1 631 5 view .LVU654
 2542 062c CDE95A13 		strd	r1, r3, [sp, #360]
 2543 0630 3749     		ldr	r1, .L75+16
 2544 0632 CDE95C33 		strd	r3, r3, [sp, #368]
 2545 0636 CDE95F12 		strd	r1, r2, [sp, #380]
 2546 063a 5E93     		str	r3, [sp, #376]
 2547 063c 6193     		str	r3, [sp, #388]
 633:Lib/AI_Runtime/Npu/ll_aton/ll_sw_float.c ****   }
ARM GAS  C:\Users\DJESSOU\AppData\Local\Temp\ccdFeyMS.s 			page 65


 2548              		.loc 1 633 5 is_stmt 1 view .LVU655
 2549 063e FFF7FEFF 		bl	forward_hard_swish
 2550              	.LVL128:
 2551              	.LBE43:
 635:Lib/AI_Runtime/Npu/ll_aton/ll_sw_float.c ****   case LL_SW_HARDMAX:
 2552              		.loc 1 635 3 view .LVU656
 2553 0642 ABE5     		b	.L31
 2554              	.LVL129:
 2555              	.L43:
 2556              	.LBB44:
 638:Lib/AI_Runtime/Npu/ll_aton/ll_sw_float.c ****                          .nl_params = NULL, )
 2557              		.loc 1 638 5 view .LVU657
 2558 0644 2E49     		ldr	r1, .L75
 640:Lib/AI_Runtime/Npu/ll_aton/ll_sw_float.c ****   }
 2559              		.loc 1 640 5 is_stmt 0 view .LVU658
 2560 0646 5AA8     		add	r0, sp, #360
 2561              	.LVL130:
 638:Lib/AI_Runtime/Npu/ll_aton/ll_sw_float.c ****                          .nl_params = NULL, )
 2562              		.loc 1 638 5 view .LVU659
 2563 0648 CDE95A13 		strd	r1, r3, [sp, #360]
 2564 064c 3149     		ldr	r1, .L75+20
 2565 064e CDE95C33 		strd	r3, r3, [sp, #368]
 2566 0652 CDE95F12 		strd	r1, r2, [sp, #380]
 2567 0656 5E93     		str	r3, [sp, #376]
 2568 0658 6193     		str	r3, [sp, #388]
 640:Lib/AI_Runtime/Npu/ll_aton/ll_sw_float.c ****   }
 2569              		.loc 1 640 5 is_stmt 1 view .LVU660
 2570 065a FFF7FEFF 		bl	forward_hardmax
 2571              	.LVL131:
 2572              	.LBE44:
 642:Lib/AI_Runtime/Npu/ll_aton/ll_sw_float.c ****   case LL_SW_ABS:
 2573              		.loc 1 642 3 view .LVU661
 2574 065e 9DE5     		b	.L31
 2575              	.LVL132:
 2576              	.L40:
 2577              	.LBB45:
 645:Lib/AI_Runtime/Npu/ll_aton/ll_sw_float.c ****                          .nl_params = NULL, )
 2578              		.loc 1 645 5 view .LVU662
 2579 0660 2749     		ldr	r1, .L75
 647:Lib/AI_Runtime/Npu/ll_aton/ll_sw_float.c ****   }
 2580              		.loc 1 647 5 is_stmt 0 view .LVU663
 2581 0662 5AA8     		add	r0, sp, #360
 2582              	.LVL133:
 645:Lib/AI_Runtime/Npu/ll_aton/ll_sw_float.c ****                          .nl_params = NULL, )
 2583              		.loc 1 645 5 view .LVU664
 2584 0664 CDE95A13 		strd	r1, r3, [sp, #360]
 2585 0668 2B49     		ldr	r1, .L75+24
 2586 066a CDE95C33 		strd	r3, r3, [sp, #368]
 2587 066e CDE95F12 		strd	r1, r2, [sp, #380]
 2588 0672 5E93     		str	r3, [sp, #376]
 2589 0674 6193     		str	r3, [sp, #388]
 647:Lib/AI_Runtime/Npu/ll_aton/ll_sw_float.c ****   }
 2590              		.loc 1 647 5 is_stmt 1 view .LVU665
 2591 0676 FFF7FEFF 		bl	forward_abs
 2592              	.LVL134:
 2593              	.LBE45:
 649:Lib/AI_Runtime/Npu/ll_aton/ll_sw_float.c ****   case LL_SW_NEG:
ARM GAS  C:\Users\DJESSOU\AppData\Local\Temp\ccdFeyMS.s 			page 66


 2594              		.loc 1 649 3 view .LVU666
 2595 067a 8FE5     		b	.L31
 2596              	.LVL135:
 2597              	.L37:
 2598              	.LBB46:
 652:Lib/AI_Runtime/Npu/ll_aton/ll_sw_float.c ****                          .nl_params = NULL, )
 2599              		.loc 1 652 5 view .LVU667
 2600 067c 2049     		ldr	r1, .L75
 654:Lib/AI_Runtime/Npu/ll_aton/ll_sw_float.c ****   }
 2601              		.loc 1 654 5 is_stmt 0 view .LVU668
 2602 067e 5AA8     		add	r0, sp, #360
 2603              	.LVL136:
 652:Lib/AI_Runtime/Npu/ll_aton/ll_sw_float.c ****                          .nl_params = NULL, )
 2604              		.loc 1 652 5 view .LVU669
 2605 0680 CDE95A13 		strd	r1, r3, [sp, #360]
 2606 0684 2549     		ldr	r1, .L75+28
 2607 0686 CDE95C33 		strd	r3, r3, [sp, #368]
 2608 068a CDE95F12 		strd	r1, r2, [sp, #380]
 2609 068e 5E93     		str	r3, [sp, #376]
 2610 0690 6193     		str	r3, [sp, #388]
 654:Lib/AI_Runtime/Npu/ll_aton/ll_sw_float.c ****   }
 2611              		.loc 1 654 5 is_stmt 1 view .LVU670
 2612 0692 FFF7FEFF 		bl	forward_neg
 2613              	.LVL137:
 2614              	.LBE46:
 656:Lib/AI_Runtime/Npu/ll_aton/ll_sw_float.c ****   case LL_SW_RECIPROCAL:
 2615              		.loc 1 656 3 view .LVU671
 2616 0696 81E5     		b	.L31
 2617              	.LVL138:
 2618              	.L36:
 2619              	.LBB47:
 659:Lib/AI_Runtime/Npu/ll_aton/ll_sw_float.c ****                          .nl_params = NULL, )
 2620              		.loc 1 659 5 view .LVU672
 2621 0698 1949     		ldr	r1, .L75
 661:Lib/AI_Runtime/Npu/ll_aton/ll_sw_float.c ****   }
 2622              		.loc 1 661 5 is_stmt 0 view .LVU673
 2623 069a 5AA8     		add	r0, sp, #360
 2624              	.LVL139:
 659:Lib/AI_Runtime/Npu/ll_aton/ll_sw_float.c ****                          .nl_params = NULL, )
 2625              		.loc 1 659 5 view .LVU674
 2626 069c CDE95A13 		strd	r1, r3, [sp, #360]
 2627 06a0 1F49     		ldr	r1, .L75+32
 2628 06a2 CDE95C33 		strd	r3, r3, [sp, #368]
 2629 06a6 CDE95F12 		strd	r1, r2, [sp, #380]
 2630 06aa 5E93     		str	r3, [sp, #376]
 2631 06ac 6193     		str	r3, [sp, #388]
 661:Lib/AI_Runtime/Npu/ll_aton/ll_sw_float.c ****   }
 2632              		.loc 1 661 5 is_stmt 1 view .LVU675
 2633 06ae FFF7FEFF 		bl	forward_reciprocal
 2634              	.LVL140:
 2635              	.LBE47:
 663:Lib/AI_Runtime/Npu/ll_aton/ll_sw_float.c ****   case LL_SW_ROUND:
 2636              		.loc 1 663 3 view .LVU676
 2637 06b2 73E5     		b	.L31
 2638              	.LVL141:
 2639              	.L35:
 2640              	.LBB48:
ARM GAS  C:\Users\DJESSOU\AppData\Local\Temp\ccdFeyMS.s 			page 67


 666:Lib/AI_Runtime/Npu/ll_aton/ll_sw_float.c ****                          .nl_params = NULL, )
 2641              		.loc 1 666 5 view .LVU677
 2642 06b4 1249     		ldr	r1, .L75
 668:Lib/AI_Runtime/Npu/ll_aton/ll_sw_float.c ****   }
 2643              		.loc 1 668 5 is_stmt 0 view .LVU678
 2644 06b6 5AA8     		add	r0, sp, #360
 2645              	.LVL142:
 666:Lib/AI_Runtime/Npu/ll_aton/ll_sw_float.c ****                          .nl_params = NULL, )
 2646              		.loc 1 666 5 view .LVU679
 2647 06b8 CDE95A13 		strd	r1, r3, [sp, #360]
 2648 06bc 1949     		ldr	r1, .L75+36
 2649 06be CDE95C33 		strd	r3, r3, [sp, #368]
 2650 06c2 CDE95F12 		strd	r1, r2, [sp, #380]
 2651 06c6 5E93     		str	r3, [sp, #376]
 2652 06c8 6193     		str	r3, [sp, #388]
 668:Lib/AI_Runtime/Npu/ll_aton/ll_sw_float.c ****   }
 2653              		.loc 1 668 5 is_stmt 1 view .LVU680
 2654 06ca FFF7FEFF 		bl	forward_round
 2655              	.LVL143:
 2656              	.LBE48:
 670:Lib/AI_Runtime/Npu/ll_aton/ll_sw_float.c ****   case LL_SW_GELU:
 2657              		.loc 1 670 3 view .LVU681
 2658 06ce 65E5     		b	.L31
 2659              	.LVL144:
 2660              	.L33:
 2661              	.LBB49:
 673:Lib/AI_Runtime/Npu/ll_aton/ll_sw_float.c ****     AI_LAYER_OBJ_DECLARE(nonlinearity_layer, 2, NL_TYPE, 0x0, NULL, nl, forward_gelu, &activ_chain,
 2662              		.loc 1 673 5 view .LVU682
 2663 06d0 154B     		ldr	r3, .L75+40
 2664 06d2 3FA9     		add	r1, sp, #252
 2665 06d4 CDE94634 		strd	r3, r4, [sp, #280]
 2666 06d8 0023     		movs	r3, #0
 2667 06da CDE94813 		strd	r1, r3, [sp, #288]
 674:Lib/AI_Runtime/Npu/ll_aton/ll_sw_float.c ****                          .nl_params = AI_ARRAY_OBJ(&gelu_no_approximate_layer_params), )
 2668              		.loc 1 674 5 view .LVU683
 2669 06de 0849     		ldr	r1, .L75
 2670 06e0 CDE95C33 		strd	r3, r3, [sp, #368]
 2671 06e4 CDE95A13 		strd	r1, r3, [sp, #360]
 673:Lib/AI_Runtime/Npu/ll_aton/ll_sw_float.c ****     AI_LAYER_OBJ_DECLARE(nonlinearity_layer, 2, NL_TYPE, 0x0, NULL, nl, forward_gelu, &activ_chain,
 2672              		.loc 1 673 5 is_stmt 0 view .LVU684
 2673 06e8 8DF8FC30 		strb	r3, [sp, #252]
 674:Lib/AI_Runtime/Npu/ll_aton/ll_sw_float.c ****                          .nl_params = AI_ARRAY_OBJ(&gelu_no_approximate_layer_params), )
 2674              		.loc 1 674 5 view .LVU685
 2675 06ec 5E93     		str	r3, [sp, #376]
 2676 06ee 0F4B     		ldr	r3, .L75+44
 676:Lib/AI_Runtime/Npu/ll_aton/ll_sw_float.c ****   }
 2677              		.loc 1 676 5 view .LVU686
 2678 06f0 5AA8     		add	r0, sp, #360
 2679              	.LVL145:
 674:Lib/AI_Runtime/Npu/ll_aton/ll_sw_float.c ****                          .nl_params = AI_ARRAY_OBJ(&gelu_no_approximate_layer_params), )
 2680              		.loc 1 674 5 view .LVU687
 2681 06f2 CDE95F32 		strd	r3, r2, [sp, #380]
 2682 06f6 46AB     		add	r3, sp, #280
 2683 06f8 6193     		str	r3, [sp, #388]
 676:Lib/AI_Runtime/Npu/ll_aton/ll_sw_float.c ****   }
 2684              		.loc 1 676 5 is_stmt 1 view .LVU688
 2685 06fa FFF7FEFF 		bl	forward_gelu
ARM GAS  C:\Users\DJESSOU\AppData\Local\Temp\ccdFeyMS.s 			page 68


 2686              	.LVL146:
 2687              	.LBE49:
 678:Lib/AI_Runtime/Npu/ll_aton/ll_sw_float.c ****   default:
 2688              		.loc 1 678 3 view .LVU689
 2689              		.loc 1 685 1 is_stmt 0 view .LVU690
 2690 06fe 4DE5     		b	.L31
 2691              	.L76:
 2692              		.align	2
 2693              	.L75:
 2694 0700 07010200 		.word	131335
 2695 0704 00000000 		.word	forward_soft_sign
 2696 0708 00000000 		.word	forward_hard_sigmoid
 2697 070c 00000000 		.word	forward_swish
 2698 0710 00000000 		.word	forward_hard_swish
 2699 0714 00000000 		.word	forward_hardmax
 2700 0718 00000000 		.word	forward_abs
 2701 071c 00000000 		.word	forward_neg
 2702 0720 00000000 		.word	forward_reciprocal
 2703 0724 00000000 		.word	forward_round
 2704 0728 40040600 		.word	394304
 2705 072c 00000000 		.word	forward_gelu
 2706              		.cfi_endproc
 2707              	.LFE20:
 2709              		.section	.text.ll_sw_forward_arith,"ax",%progbits
 2710              		.align	1
 2711              		.global	ll_sw_forward_arith
 2712              		.syntax unified
 2713              		.thumb
 2714              		.thumb_func
 2716              	ll_sw_forward_arith:
 2717              	.LVL147:
 2718              	.LFB21:
 686:Lib/AI_Runtime/Npu/ll_aton/ll_sw_float.c **** 
 687:Lib/AI_Runtime/Npu/ll_aton/ll_sw_float.c **** //##########################################################################################
 688:Lib/AI_Runtime/Npu/ll_aton/ll_sw_float.c **** /** activ forward function  */
 689:Lib/AI_Runtime/Npu/ll_aton/ll_sw_float.c **** void ll_sw_forward_arith(/* int processor, */ void *sw_info_struct)
 690:Lib/AI_Runtime/Npu/ll_aton/ll_sw_float.c **** {
 2719              		.loc 1 690 1 is_stmt 1 view -0
 2720              		.cfi_startproc
 2721              		@ args = 0, pretend = 0, frame = 504
 2722              		@ frame_needed = 0, uses_anonymous_args = 0
 691:Lib/AI_Runtime/Npu/ll_aton/ll_sw_float.c ****   Arith_sw_info *sw_info = (Arith_sw_info *)sw_info_struct;
 2723              		.loc 1 691 3 view .LVU692
 692:Lib/AI_Runtime/Npu/ll_aton/ll_sw_float.c ****   // array init
 693:Lib/AI_Runtime/Npu/ll_aton/ll_sw_float.c ****   AI_ARRAY_OBJ_DECLARE(input_output_array, FORMAT, sw_info->general.input.mem.start_offset,
 2724              		.loc 1 693 3 view .LVU693
 690:Lib/AI_Runtime/Npu/ll_aton/ll_sw_float.c ****   Arith_sw_info *sw_info = (Arith_sw_info *)sw_info_struct;
 2725              		.loc 1 690 1 is_stmt 0 view .LVU694
 2726 0000 2DE9F04F 		push	{r4, r5, r6, r7, r8, r9, r10, fp, lr}
 2727              		.cfi_def_cfa_offset 36
 2728              		.cfi_offset 4, -36
 2729              		.cfi_offset 5, -32
 2730              		.cfi_offset 6, -28
 2731              		.cfi_offset 7, -24
 2732              		.cfi_offset 8, -20
 2733              		.cfi_offset 9, -16
 2734              		.cfi_offset 10, -12
ARM GAS  C:\Users\DJESSOU\AppData\Local\Temp\ccdFeyMS.s 			page 69


 2735              		.cfi_offset 11, -8
 2736              		.cfi_offset 14, -4
 2737              		.loc 1 693 3 view .LVU695
 2738 0004 4369     		ldr	r3, [r0, #20]
 690:Lib/AI_Runtime/Npu/ll_aton/ll_sw_float.c ****   Arith_sw_info *sw_info = (Arith_sw_info *)sw_info_struct;
 2739              		.loc 1 690 1 view .LVU696
 2740 0006 FFB0     		sub	sp, sp, #508
 2741              		.cfi_def_cfa_offset 544
 2742              		.loc 1 693 3 view .LVU697
 2743 0008 0793     		str	r3, [sp, #28]
 2744 000a 836A     		ldr	r3, [r0, #40]
 694:Lib/AI_Runtime/Npu/ll_aton/ll_sw_float.c ****                        sw_info->general.input.mem.start_offset, sw_info->general.input.dim.num_elem
 695:Lib/AI_Runtime/Npu/ll_aton/ll_sw_float.c ****   AI_ARRAY_OBJ_DECLARE(arith_output_array, FORMAT, sw_info->general.output.mem.start_offset,
 696:Lib/AI_Runtime/Npu/ll_aton/ll_sw_float.c ****                        sw_info->general.output.mem.start_offset, sw_info->general.output.dim.num_el
 697:Lib/AI_Runtime/Npu/ll_aton/ll_sw_float.c ****   AI_ARRAY_OBJ_DECLARE(arith_operand_array, FORMAT, sw_info->operand.mem.start_offset,
 698:Lib/AI_Runtime/Npu/ll_aton/ll_sw_float.c ****                        sw_info->operand.mem.start_offset, sw_info->operand.dim.num_elem, )
 699:Lib/AI_Runtime/Npu/ll_aton/ll_sw_float.c ****   AI_TENSOR_OBJ_DECLARE(input_output, , 0x0, 4,
 2745              		.loc 1 699 3 view .LVU698
 2746 000c 40F20144 		movw	r4, #1025
 693:Lib/AI_Runtime/Npu/ll_aton/ll_sw_float.c ****                        sw_info->general.input.mem.start_offset, sw_info->general.input.dim.num_elem
 2747              		.loc 1 693 3 view .LVU699
 2748 0010 CDE90833 		strd	r3, r3, [sp, #32]
 695:Lib/AI_Runtime/Npu/ll_aton/ll_sw_float.c ****                        sw_info->general.output.mem.start_offset, sw_info->general.output.dim.num_el
 2749              		.loc 1 695 3 is_stmt 1 view .LVU700
 2750 0014 036C     		ldr	r3, [r0, #64]
 2751              		.loc 1 699 3 is_stmt 0 view .LVU701
 2752 0016 4FF08276 		mov	r6, #17039360
 695:Lib/AI_Runtime/Npu/ll_aton/ll_sw_float.c ****                        sw_info->general.output.mem.start_offset, sw_info->general.output.dim.num_el
 2753              		.loc 1 695 3 view .LVU702
 2754 001a 0B93     		str	r3, [sp, #44]
 2755 001c 436D     		ldr	r3, [r0, #84]
 2756              		.loc 1 699 3 view .LVU703
 2757 001e 0569     		ldr	r5, [r0, #16]
 695:Lib/AI_Runtime/Npu/ll_aton/ll_sw_float.c ****                        sw_info->general.output.mem.start_offset, sw_info->general.output.dim.num_el
 2758              		.loc 1 695 3 view .LVU704
 2759 0020 CDE90C33 		strd	r3, r3, [sp, #48]
 697:Lib/AI_Runtime/Npu/ll_aton/ll_sw_float.c ****                        sw_info->operand.mem.start_offset, sw_info->operand.dim.num_elem, )
 2760              		.loc 1 697 3 is_stmt 1 view .LVU705
 2761 0024 C36E     		ldr	r3, [r0, #108]
 2762              		.loc 1 699 3 is_stmt 0 view .LVU706
 2763 0026 1295     		str	r5, [sp, #72]
 697:Lib/AI_Runtime/Npu/ll_aton/ll_sw_float.c ****                        sw_info->operand.mem.start_offset, sw_info->operand.dim.num_elem, )
 2764              		.loc 1 697 3 view .LVU707
 2765 0028 0F93     		str	r3, [sp, #60]
 2766 002a D0F88030 		ldr	r3, [r0, #128]
 2767              		.loc 1 699 3 view .LVU708
 2768 002e C568     		ldr	r5, [r0, #12]
 697:Lib/AI_Runtime/Npu/ll_aton/ll_sw_float.c ****                        sw_info->operand.mem.start_offset, sw_info->operand.dim.num_elem, )
 2769              		.loc 1 697 3 view .LVU709
 2770 0030 CDE91033 		strd	r3, r3, [sp, #64]
 2771              		.loc 1 699 3 is_stmt 1 view .LVU710
 2772 0034 0023     		movs	r3, #0
 2773 0036 1395     		str	r5, [sp, #76]
 2774 0038 8568     		ldr	r5, [r0, #8]
 693:Lib/AI_Runtime/Npu/ll_aton/ll_sw_float.c ****                        sw_info->general.input.mem.start_offset, sw_info->general.input.dim.num_elem
 2775              		.loc 1 693 3 is_stmt 0 view .LVU711
 2776 003a 954F     		ldr	r7, .L86
ARM GAS  C:\Users\DJESSOU\AppData\Local\Temp\ccdFeyMS.s 			page 70


 2777              		.loc 1 699 3 view .LVU712
 2778 003c 1495     		str	r5, [sp, #80]
 2779 003e 4568     		ldr	r5, [r0, #4]
 2780 0040 4894     		str	r4, [sp, #288]
 2781 0042 12AC     		add	r4, sp, #72
 2782 0044 1595     		str	r5, [sp, #84]
 2783 0046 CDE94636 		strd	r3, r6, [sp, #280]
 693:Lib/AI_Runtime/Npu/ll_aton/ll_sw_float.c ****                        sw_info->general.input.mem.start_offset, sw_info->general.input.dim.num_elem
 2784              		.loc 1 693 3 view .LVU713
 2785 004a 0697     		str	r7, [sp, #24]
 695:Lib/AI_Runtime/Npu/ll_aton/ll_sw_float.c ****                        sw_info->general.output.mem.start_offset, sw_info->general.output.dim.num_el
 2786              		.loc 1 695 3 view .LVU714
 2787 004c 0A97     		str	r7, [sp, #40]
 697:Lib/AI_Runtime/Npu/ll_aton/ll_sw_float.c ****                        sw_info->operand.mem.start_offset, sw_info->operand.dim.num_elem, )
 2788              		.loc 1 697 3 view .LVU715
 2789 004e 0E97     		str	r7, [sp, #56]
 2790              		.loc 1 699 3 view .LVU716
 2791 0050 4994     		str	r4, [sp, #292]
 2792 0052 456A     		ldr	r5, [r0, #36]
 2793 0054 40F20244 		movw	r4, #1026
 2794 0058 1695     		str	r5, [sp, #88]
 2795 005a 056A     		ldr	r5, [r0, #32]
 693:Lib/AI_Runtime/Npu/ll_aton/ll_sw_float.c ****                        sw_info->general.input.mem.start_offset, sw_info->general.input.dim.num_elem
 2796              		.loc 1 693 3 view .LVU717
 2797 005c 0DF1180E 		add	lr, sp, #24
 2798              		.loc 1 699 3 view .LVU718
 2799 0060 1795     		str	r5, [sp, #92]
 2800 0062 C569     		ldr	r5, [r0, #28]
 2801 0064 0DF15808 		add	r8, sp, #88
 2802 0068 1895     		str	r5, [sp, #96]
 2803 006a 8569     		ldr	r5, [r0, #24]
 2804 006c CDE94B8E 		strd	r8, lr, [sp, #300]
 700:Lib/AI_Runtime/Npu/ll_aton/ll_sw_float.c ****                         SHAPE_INIT(sw_info->general.input.dim.tensor_h, sw_info->general.input.dim.
 701:Lib/AI_Runtime/Npu/ll_aton/ll_sw_float.c ****                                    sw_info->general.input.dim.tensor_c, sw_info->general.input.dim.
 702:Lib/AI_Runtime/Npu/ll_aton/ll_sw_float.c ****                         STRIDE_INIT(sw_info->general.input.stride.h, sw_info->general.input.stride.
 703:Lib/AI_Runtime/Npu/ll_aton/ll_sw_float.c ****                                     sw_info->general.input.stride.c, sw_info->general.input.stride.
 704:Lib/AI_Runtime/Npu/ll_aton/ll_sw_float.c ****                         1, &input_output_array, NULL)
 705:Lib/AI_Runtime/Npu/ll_aton/ll_sw_float.c ****   AI_TENSOR_OBJ_DECLARE(arith_operand, , 0x0, 4,
 2805              		.loc 1 705 3 is_stmt 1 view .LVU719
 699:Lib/AI_Runtime/Npu/ll_aton/ll_sw_float.c ****                         SHAPE_INIT(sw_info->general.input.dim.tensor_h, sw_info->general.input.dim.
 2806              		.loc 1 699 3 is_stmt 0 view .LVU720
 2807 0070 1995     		str	r5, [sp, #100]
 2808              		.loc 1 705 3 view .LVU721
 2809 0072 40F20145 		movw	r5, #1025
 2810 0076 4F95     		str	r5, [sp, #316]
 2811 0078 856E     		ldr	r5, [r0, #104]
 2812 007a 0DF1680E 		add	lr, sp, #104
 2813 007e 1A95     		str	r5, [sp, #104]
 2814 0080 456E     		ldr	r5, [r0, #100]
 2815 0082 CDE950E4 		strd	lr, r4, [sp, #320]
 2816 0086 1B95     		str	r5, [sp, #108]
 2817 0088 056E     		ldr	r5, [r0, #96]
 697:Lib/AI_Runtime/Npu/ll_aton/ll_sw_float.c ****                        sw_info->operand.mem.start_offset, sw_info->operand.dim.num_elem, )
 2818              		.loc 1 697 3 view .LVU722
 2819 008a 0EA9     		add	r1, sp, #56
 2820              		.loc 1 705 3 view .LVU723
 2821 008c 1C95     		str	r5, [sp, #112]
ARM GAS  C:\Users\DJESSOU\AppData\Local\Temp\ccdFeyMS.s 			page 71


 2822 008e C56D     		ldr	r5, [r0, #92]
 2823 0090 0DF1780E 		add	lr, sp, #120
 2824 0094 1D95     		str	r5, [sp, #116]
 2825 0096 C56F     		ldr	r5, [r0, #124]
 2826 0098 CDE94D36 		strd	r3, r6, [sp, #308]
 2827 009c 1E95     		str	r5, [sp, #120]
 2828 009e 856F     		ldr	r5, [r0, #120]
 699:Lib/AI_Runtime/Npu/ll_aton/ll_sw_float.c ****                         SHAPE_INIT(sw_info->general.input.dim.tensor_h, sw_info->general.input.dim.
 2829              		.loc 1 699 3 view .LVU724
 2830 00a0 4A94     		str	r4, [sp, #296]
 2831              		.loc 1 705 3 view .LVU725
 2832 00a2 1F95     		str	r5, [sp, #124]
 2833 00a4 456F     		ldr	r5, [r0, #116]
 695:Lib/AI_Runtime/Npu/ll_aton/ll_sw_float.c ****                        sw_info->general.output.mem.start_offset, sw_info->general.output.dim.num_el
 2834              		.loc 1 695 3 view .LVU726
 2835 00a6 0AAA     		add	r2, sp, #40
 2836              		.loc 1 705 3 view .LVU727
 2837 00a8 2095     		str	r5, [sp, #128]
 2838 00aa 056F     		ldr	r5, [r0, #112]
 2839 00ac 0DF58C7B 		add	fp, sp, #280
 2840 00b0 2195     		str	r5, [sp, #132]
 2841 00b2 CDE952E1 		strd	lr, r1, [sp, #328]
 706:Lib/AI_Runtime/Npu/ll_aton/ll_sw_float.c ****                         SHAPE_INIT(sw_info->operand.dim.tensor_h, sw_info->operand.dim.tensor_w,
 707:Lib/AI_Runtime/Npu/ll_aton/ll_sw_float.c ****                                    sw_info->operand.dim.tensor_c, sw_info->operand.dim.tensor_b),
 708:Lib/AI_Runtime/Npu/ll_aton/ll_sw_float.c ****                         STRIDE_INIT(sw_info->operand.stride.h, sw_info->operand.stride.w, sw_info->
 709:Lib/AI_Runtime/Npu/ll_aton/ll_sw_float.c ****                                     sw_info->operand.stride.b),
 710:Lib/AI_Runtime/Npu/ll_aton/ll_sw_float.c ****                         1, &arith_operand_array, NULL)
 711:Lib/AI_Runtime/Npu/ll_aton/ll_sw_float.c ****   AI_TENSOR_OBJ_DECLARE(arith_output, , 0x0, 4,
 2842              		.loc 1 711 3 is_stmt 1 view .LVU728
 2843 00b6 40F20141 		movw	r1, #1025
 2844 00ba C56B     		ldr	r5, [r0, #60]
 712:Lib/AI_Runtime/Npu/ll_aton/ll_sw_float.c ****                         SHAPE_INIT(sw_info->general.output.dim.tensor_h, sw_info->general.output.di
 713:Lib/AI_Runtime/Npu/ll_aton/ll_sw_float.c ****                                    sw_info->general.output.dim.tensor_c, sw_info->general.output.di
 714:Lib/AI_Runtime/Npu/ll_aton/ll_sw_float.c ****                         STRIDE_INIT(sw_info->general.output.stride.h, sw_info->general.output.strid
 715:Lib/AI_Runtime/Npu/ll_aton/ll_sw_float.c ****                                     sw_info->general.output.stride.c, sw_info->general.output.strid
 716:Lib/AI_Runtime/Npu/ll_aton/ll_sw_float.c ****                         1, &arith_output_array, NULL)
 717:Lib/AI_Runtime/Npu/ll_aton/ll_sw_float.c **** 
 718:Lib/AI_Runtime/Npu/ll_aton/ll_sw_float.c ****   // layer initialization
 719:Lib/AI_Runtime/Npu/ll_aton/ll_sw_float.c ****   func_binary op = ai_sum;                      /**< operation to apply elementwise */
 720:Lib/AI_Runtime/Npu/ll_aton/ll_sw_float.c ****   func_buffer_binary buffer_op = ai_sum_buffer; /**< operation to apply elementwise */
 721:Lib/AI_Runtime/Npu/ll_aton/ll_sw_float.c **** 
 722:Lib/AI_Runtime/Npu/ll_aton/ll_sw_float.c ****   switch (sw_info->general.type)
 2845              		.loc 1 722 27 is_stmt 0 view .LVU729
 2846 00bc 90F800E0 		ldrb	lr, [r0]	@ zero_extendqisi2
 711:Lib/AI_Runtime/Npu/ll_aton/ll_sw_float.c ****                         SHAPE_INIT(sw_info->general.output.dim.tensor_h, sw_info->general.output.di
 2847              		.loc 1 711 3 view .LVU730
 2848 00c0 2295     		str	r5, [sp, #136]
 2849 00c2 856B     		ldr	r5, [r0, #56]
 2850 00c4 AEF10E0C 		sub	ip, lr, #14
 2851 00c8 2395     		str	r5, [sp, #140]
 2852 00ca 456B     		ldr	r5, [r0, #52]
 2853 00cc 5691     		str	r1, [sp, #344]
 2854 00ce 2495     		str	r5, [sp, #144]
 2855 00d0 056B     		ldr	r5, [r0, #48]
 2856 00d2 22A9     		add	r1, sp, #136
 2857 00d4 2595     		str	r5, [sp, #148]
 2858 00d6 056D     		ldr	r5, [r0, #80]
ARM GAS  C:\Users\DJESSOU\AppData\Local\Temp\ccdFeyMS.s 			page 72


 2859 00d8 5FFA8CFC 		uxtb	ip, ip
 2860 00dc 2695     		str	r5, [sp, #152]
 2861 00de C56C     		ldr	r5, [r0, #76]
