ARM GAS  C:\Users\DJESSOU\AppData\Local\Temp\ccdFeyMS.s 			page 1


   1              		.arch armv8.1-m.main
   2              		.fpu fpv5-d16
   3              		.arch_extension dsp
   4              		.arch_extension fp
   5              		.arch_extension fp.dp
   6              		.arch_extension mve
   7              		.arch_extension mve.fp
   8              		.eabi_attribute 5, "cortex-m55"
   9              		.eabi_attribute 28, 1
  10              		.eabi_attribute 20, 1
  11              		.eabi_attribute 21, 1
  12              		.eabi_attribute 23, 3
  13              		.eabi_attribute 24, 1
  14              		.eabi_attribute 25, 1
  15              		.eabi_attribute 26, 1
  16              		.eabi_attribute 30, 4
  17              		.eabi_attribute 34, 1
  18              		.eabi_attribute 38, 1
  19              		.eabi_attribute 18, 4
  20              		.file	"ll_sw_float.c"
  21              		.text
  22              	.Ltext0:
  23              		.cfi_sections	.debug_frame
  24              		.file 1 "Lib/AI_Runtime/Npu/ll_aton/ll_sw_float.c"
  25              		.section	.text.ll_sw_forward_conv,"ax",%progbits
  26              		.align	1
  27              		.global	ll_sw_forward_conv
  28              		.syntax unified
  29              		.thumb
  30              		.thumb_func
  32              	ll_sw_forward_conv:
  33              	.LVL0:
  34              	.LFB15:
   1:Lib/AI_Runtime/Npu/ll_aton/ll_sw_float.c **** /**
   2:Lib/AI_Runtime/Npu/ll_aton/ll_sw_float.c ****  ******************************************************************************
   3:Lib/AI_Runtime/Npu/ll_aton/ll_sw_float.c ****  * @file    ll_sw_float.c
   4:Lib/AI_Runtime/Npu/ll_aton/ll_sw_float.c ****  * @author  SRA Artificial Intelligence & Embedded Architectures
   5:Lib/AI_Runtime/Npu/ll_aton/ll_sw_float.c ****  * @brief   Low Level Software library for Floating Point inference interfacing with EmbedNets(c)
   6:Lib/AI_Runtime/Npu/ll_aton/ll_sw_float.c ****  ******************************************************************************
   7:Lib/AI_Runtime/Npu/ll_aton/ll_sw_float.c ****  * @attention
   8:Lib/AI_Runtime/Npu/ll_aton/ll_sw_float.c ****  *
   9:Lib/AI_Runtime/Npu/ll_aton/ll_sw_float.c ****  * Copyright (c) 2024 STMicroelectronics.
  10:Lib/AI_Runtime/Npu/ll_aton/ll_sw_float.c ****  * All rights reserved.
  11:Lib/AI_Runtime/Npu/ll_aton/ll_sw_float.c ****  *
  12:Lib/AI_Runtime/Npu/ll_aton/ll_sw_float.c ****  * This software is licensed under terms that can be found in the LICENSE file
  13:Lib/AI_Runtime/Npu/ll_aton/ll_sw_float.c ****  * in the root directory of this software component.
  14:Lib/AI_Runtime/Npu/ll_aton/ll_sw_float.c ****  * If no LICENSE file comes with this software, it is provided AS-IS.
  15:Lib/AI_Runtime/Npu/ll_aton/ll_sw_float.c ****  *
  16:Lib/AI_Runtime/Npu/ll_aton/ll_sw_float.c ****  ******************************************************************************
  17:Lib/AI_Runtime/Npu/ll_aton/ll_sw_float.c ****  */
  18:Lib/AI_Runtime/Npu/ll_aton/ll_sw_float.c **** 
  19:Lib/AI_Runtime/Npu/ll_aton/ll_sw_float.c **** #include "ll_aton_config.h"
  20:Lib/AI_Runtime/Npu/ll_aton/ll_sw_float.c **** 
  21:Lib/AI_Runtime/Npu/ll_aton/ll_sw_float.c **** #if LL_ATON_SW_FALLBACK == 1
  22:Lib/AI_Runtime/Npu/ll_aton/ll_sw_float.c **** 
  23:Lib/AI_Runtime/Npu/ll_aton/ll_sw_float.c **** #include <stdint.h>
  24:Lib/AI_Runtime/Npu/ll_aton/ll_sw_float.c **** #include <stdio.h>
ARM GAS  C:\Users\DJESSOU\AppData\Local\Temp\ccdFeyMS.s 			page 2


  25:Lib/AI_Runtime/Npu/ll_aton/ll_sw_float.c **** 
  26:Lib/AI_Runtime/Npu/ll_aton/ll_sw_float.c **** #include "ll_sw.h"
  27:Lib/AI_Runtime/Npu/ll_aton/ll_sw_float.c **** #include "ll_sw_float.h"
  28:Lib/AI_Runtime/Npu/ll_aton/ll_sw_float.c **** 
  29:Lib/AI_Runtime/Npu/ll_aton/ll_sw_float.c **** #include "ai_datatypes_internal.h"
  30:Lib/AI_Runtime/Npu/ll_aton/ll_sw_float.c **** #include "ai_math_helpers.h"
  31:Lib/AI_Runtime/Npu/ll_aton/ll_sw_float.c **** #include "core_private.h"
  32:Lib/AI_Runtime/Npu/ll_aton/ll_sw_float.c **** #include "layers.h"
  33:Lib/AI_Runtime/Npu/ll_aton/ll_sw_float.c **** #include "ll_aton_util.h"
  34:Lib/AI_Runtime/Npu/ll_aton/ll_sw_float.c **** 
  35:Lib/AI_Runtime/Npu/ll_aton/ll_sw_float.c **** #define FORMAT AI_ARRAY_FORMAT_FLOAT
  36:Lib/AI_Runtime/Npu/ll_aton/ll_sw_float.c **** 
  37:Lib/AI_Runtime/Npu/ll_aton/ll_sw_float.c **** #define SHAPE_INIT(a_, b_, c_, d_) AI_SHAPE_INIT(4, (d_), (c_), (b_), (a_))
  38:Lib/AI_Runtime/Npu/ll_aton/ll_sw_float.c **** 
  39:Lib/AI_Runtime/Npu/ll_aton/ll_sw_float.c **** #define SHAPE_2D_INIT(h_, w_) AI_SHAPE_2D_INIT((w_), (h_))
  40:Lib/AI_Runtime/Npu/ll_aton/ll_sw_float.c **** 
  41:Lib/AI_Runtime/Npu/ll_aton/ll_sw_float.c **** #define STRIDE_INIT(a_, b_, c_, d_) AI_STRIDE_INIT(4, (d_), (c_), (b_), (a_))
  42:Lib/AI_Runtime/Npu/ll_aton/ll_sw_float.c **** 
  43:Lib/AI_Runtime/Npu/ll_aton/ll_sw_float.c **** #define TENSORS(...) __VA_ARGS__
  44:Lib/AI_Runtime/Npu/ll_aton/ll_sw_float.c **** 
  45:Lib/AI_Runtime/Npu/ll_aton/ll_sw_float.c **** /* Managing shape index to be consistent with the enum in embednets ai_platform.h */
  46:Lib/AI_Runtime/Npu/ll_aton/ll_sw_float.c **** static int helper_emit_shape_index_axis(int onnx_axis)
  47:Lib/AI_Runtime/Npu/ll_aton/ll_sw_float.c **** {
  48:Lib/AI_Runtime/Npu/ll_aton/ll_sw_float.c ****   switch (onnx_axis)
  49:Lib/AI_Runtime/Npu/ll_aton/ll_sw_float.c ****   {
  50:Lib/AI_Runtime/Npu/ll_aton/ll_sw_float.c ****   case 0:
  51:Lib/AI_Runtime/Npu/ll_aton/ll_sw_float.c ****     return AI_SHAPE_IN_CHANNEL;
  52:Lib/AI_Runtime/Npu/ll_aton/ll_sw_float.c ****   case 1:
  53:Lib/AI_Runtime/Npu/ll_aton/ll_sw_float.c ****     return AI_SHAPE_CHANNEL;
  54:Lib/AI_Runtime/Npu/ll_aton/ll_sw_float.c ****   case 2:
  55:Lib/AI_Runtime/Npu/ll_aton/ll_sw_float.c ****     return AI_SHAPE_HEIGHT; // note the switch required with case 3
  56:Lib/AI_Runtime/Npu/ll_aton/ll_sw_float.c ****   case 3:
  57:Lib/AI_Runtime/Npu/ll_aton/ll_sw_float.c ****     return AI_SHAPE_WIDTH; // note the switch required with case 2
  58:Lib/AI_Runtime/Npu/ll_aton/ll_sw_float.c ****   default:
  59:Lib/AI_Runtime/Npu/ll_aton/ll_sw_float.c **** #ifdef LL_SW_ENABLE_ASSERTS
  60:Lib/AI_Runtime/Npu/ll_aton/ll_sw_float.c ****     LL_ATON_ASSERT(0 && "axis index not supported");
  61:Lib/AI_Runtime/Npu/ll_aton/ll_sw_float.c **** #endif
  62:Lib/AI_Runtime/Npu/ll_aton/ll_sw_float.c ****     return -1;
  63:Lib/AI_Runtime/Npu/ll_aton/ll_sw_float.c ****   }
  64:Lib/AI_Runtime/Npu/ll_aton/ll_sw_float.c **** }
  65:Lib/AI_Runtime/Npu/ll_aton/ll_sw_float.c **** 
  66:Lib/AI_Runtime/Npu/ll_aton/ll_sw_float.c **** //##########################################################################################
  67:Lib/AI_Runtime/Npu/ll_aton/ll_sw_float.c **** /** Conv forward function */
  68:Lib/AI_Runtime/Npu/ll_aton/ll_sw_float.c **** void ll_sw_forward_conv(/* int processor, */ void *sw_info_struct)
  69:Lib/AI_Runtime/Npu/ll_aton/ll_sw_float.c **** {
  35              		.loc 1 69 1 view -0
  36              		.cfi_startproc
  37              		@ args = 0, pretend = 0, frame = 488
  38              		@ frame_needed = 0, uses_anonymous_args = 0
  70:Lib/AI_Runtime/Npu/ll_aton/ll_sw_float.c ****   Conv_sw_info *sw_info = (Conv_sw_info *)sw_info_struct;
  39              		.loc 1 70 3 view .LVU1
  71:Lib/AI_Runtime/Npu/ll_aton/ll_sw_float.c ****   // array init
  72:Lib/AI_Runtime/Npu/ll_aton/ll_sw_float.c ****   AI_ARRAY_OBJ_DECLARE(input_output_array, FORMAT, sw_info->general.input.mem.start_offset,
  40              		.loc 1 72 3 view .LVU2
  69:Lib/AI_Runtime/Npu/ll_aton/ll_sw_float.c ****   Conv_sw_info *sw_info = (Conv_sw_info *)sw_info_struct;
  41              		.loc 1 69 1 is_stmt 0 view .LVU3
  42 0000 2DE9F04F 		push	{r4, r5, r6, r7, r8, r9, r10, fp, lr}
ARM GAS  C:\Users\DJESSOU\AppData\Local\Temp\ccdFeyMS.s 			page 3


  43              		.cfi_def_cfa_offset 36
  44              		.cfi_offset 4, -36
  45              		.cfi_offset 5, -32
  46              		.cfi_offset 6, -28
  47              		.cfi_offset 7, -24
  48              		.cfi_offset 8, -20
  49              		.cfi_offset 9, -16
  50              		.cfi_offset 10, -12
  51              		.cfi_offset 11, -8
  52              		.cfi_offset 14, -4
  73:Lib/AI_Runtime/Npu/ll_aton/ll_sw_float.c ****                        sw_info->general.input.mem.start_offset, sw_info->general.input.dim.num_elem
  74:Lib/AI_Runtime/Npu/ll_aton/ll_sw_float.c ****   AI_ARRAY_OBJ_DECLARE(conv_weights_array, FORMAT, sw_info->weights.mem.start_offset, sw_info->weig
  75:Lib/AI_Runtime/Npu/ll_aton/ll_sw_float.c ****                        sw_info->weights.dim.num_elem, )
  76:Lib/AI_Runtime/Npu/ll_aton/ll_sw_float.c ****   AI_ARRAY_OBJ_DECLARE(conv_output_array, FORMAT, sw_info->general.output.mem.start_offset,
  77:Lib/AI_Runtime/Npu/ll_aton/ll_sw_float.c ****                        sw_info->general.output.mem.start_offset, sw_info->general.output.dim.num_el
  78:Lib/AI_Runtime/Npu/ll_aton/ll_sw_float.c **** 
  79:Lib/AI_Runtime/Npu/ll_aton/ll_sw_float.c ****   AI_TENSOR_OBJ_DECLARE(conv_weights, , 0x0, 4,
  53              		.loc 1 79 3 view .LVU4
  54 0004 0021     		movs	r1, #0
  55 0006 4FF0827E 		mov	lr, #17039360
  56 000a 40F2014A 		movw	r10, #1025
  76:Lib/AI_Runtime/Npu/ll_aton/ll_sw_float.c ****                        sw_info->general.output.mem.start_offset, sw_info->general.output.dim.num_el
  57              		.loc 1 76 3 view .LVU5
  58 000e 026C     		ldr	r2, [r0, #64]
  69:Lib/AI_Runtime/Npu/ll_aton/ll_sw_float.c ****   Conv_sw_info *sw_info = (Conv_sw_info *)sw_info_struct;
  59              		.loc 1 69 1 view .LVU6
  60 0010 FBB0     		sub	sp, sp, #492
  61              		.cfi_def_cfa_offset 528
  62              		.loc 1 79 3 view .LVU7
  63 0012 40F2024C 		movw	ip, #1026
  76:Lib/AI_Runtime/Npu/ll_aton/ll_sw_float.c ****                        sw_info->general.output.mem.start_offset, sw_info->general.output.dim.num_el
  64              		.loc 1 76 3 view .LVU8
  65 0016 1692     		str	r2, [sp, #88]
  66 0018 426D     		ldr	r2, [r0, #84]
  72:Lib/AI_Runtime/Npu/ll_aton/ll_sw_float.c ****                        sw_info->general.input.mem.start_offset, sw_info->general.input.dim.num_elem
  67              		.loc 1 72 3 view .LVU9
  68 001a 4369     		ldr	r3, [r0, #20]
  76:Lib/AI_Runtime/Npu/ll_aton/ll_sw_float.c ****                        sw_info->general.output.mem.start_offset, sw_info->general.output.dim.num_el
  69              		.loc 1 76 3 view .LVU10
  70 001c CDE91722 		strd	r2, r2, [sp, #92]
  71              		.loc 1 79 3 view .LVU11
  72 0020 426E     		ldr	r2, [r0, #100]
  72:Lib/AI_Runtime/Npu/ll_aton/ll_sw_float.c ****                        sw_info->general.input.mem.start_offset, sw_info->general.input.dim.num_elem
  73              		.loc 1 72 3 view .LVU12
  74 0022 0E93     		str	r3, [sp, #56]
  75              		.loc 1 79 3 view .LVU13
  76 0024 1992     		str	r2, [sp, #100]
  72:Lib/AI_Runtime/Npu/ll_aton/ll_sw_float.c ****                        sw_info->general.input.mem.start_offset, sw_info->general.input.dim.num_elem
  77              		.loc 1 72 3 view .LVU14
  78 0026 836A     		ldr	r3, [r0, #40]
  79              		.loc 1 79 3 view .LVU15
  80 0028 026E     		ldr	r2, [r0, #96]
  72:Lib/AI_Runtime/Npu/ll_aton/ll_sw_float.c ****                        sw_info->general.input.mem.start_offset, sw_info->general.input.dim.num_elem
  81              		.loc 1 72 3 view .LVU16
  82 002a CDE90F33 		strd	r3, r3, [sp, #60]
  74:Lib/AI_Runtime/Npu/ll_aton/ll_sw_float.c ****                        sw_info->weights.dim.num_elem, )
  83              		.loc 1 74 3 is_stmt 1 view .LVU17
ARM GAS  C:\Users\DJESSOU\AppData\Local\Temp\ccdFeyMS.s 			page 4


  84              		.loc 1 79 3 is_stmt 0 view .LVU18
  85 002e 1A92     		str	r2, [sp, #104]
  74:Lib/AI_Runtime/Npu/ll_aton/ll_sw_float.c ****                        sw_info->weights.dim.num_elem, )
  86              		.loc 1 74 3 view .LVU19
  87 0030 C36E     		ldr	r3, [r0, #108]
  88              		.loc 1 79 3 view .LVU20
  89 0032 C26D     		ldr	r2, [r0, #92]
  72:Lib/AI_Runtime/Npu/ll_aton/ll_sw_float.c ****                        sw_info->general.input.mem.start_offset, sw_info->general.input.dim.num_elem
  90              		.loc 1 72 3 view .LVU21
  91 0034 DFF840B2 		ldr	fp, .L5+8
  74:Lib/AI_Runtime/Npu/ll_aton/ll_sw_float.c ****                        sw_info->weights.dim.num_elem, )
  92              		.loc 1 74 3 view .LVU22
  93 0038 1293     		str	r3, [sp, #72]
  94              		.loc 1 79 3 view .LVU23
  95 003a 1B92     		str	r2, [sp, #108]
  74:Lib/AI_Runtime/Npu/ll_aton/ll_sw_float.c ****                        sw_info->weights.dim.num_elem, )
  96              		.loc 1 74 3 view .LVU24
  97 003c D0F88030 		ldr	r3, [r0, #128]
  98              		.loc 1 79 3 view .LVU25
  99 0040 826E     		ldr	r2, [r0, #104]
 100 0042 19AE     		add	r6, sp, #100
  74:Lib/AI_Runtime/Npu/ll_aton/ll_sw_float.c ****                        sw_info->weights.dim.num_elem, )
 101              		.loc 1 74 3 view .LVU26
 102 0044 CDE91333 		strd	r3, r3, [sp, #76]
  76:Lib/AI_Runtime/Npu/ll_aton/ll_sw_float.c ****                        sw_info->general.output.mem.start_offset, sw_info->general.output.dim.num_el
 103              		.loc 1 76 3 is_stmt 1 view .LVU27
 104              		.loc 1 79 3 view .LVU28
 105 0048 1C92     		str	r2, [sp, #112]
 106 004a CDE9411E 		strd	r1, lr, [sp, #260]
  72:Lib/AI_Runtime/Npu/ll_aton/ll_sw_float.c ****                        sw_info->general.input.mem.start_offset, sw_info->general.input.dim.num_elem
 107              		.loc 1 72 3 is_stmt 0 view .LVU29
 108 004e CDF834B0 		str	fp, [sp, #52]
  74:Lib/AI_Runtime/Npu/ll_aton/ll_sw_float.c ****                        sw_info->weights.dim.num_elem, )
 109              		.loc 1 74 3 view .LVU30
 110 0052 CDF844B0 		str	fp, [sp, #68]
  76:Lib/AI_Runtime/Npu/ll_aton/ll_sw_float.c ****                        sw_info->general.output.mem.start_offset, sw_info->general.output.dim.num_el
 111              		.loc 1 76 3 view .LVU31
 112 0056 CDF854B0 		str	fp, [sp, #84]
 113              		.loc 1 79 3 view .LVU32
 114 005a CDF80CA1 		str	r10, [sp, #268]
 115 005e 4496     		str	r6, [sp, #272]
 116 0060 C26F     		ldr	r2, [r0, #124]
  74:Lib/AI_Runtime/Npu/ll_aton/ll_sw_float.c ****                        sw_info->weights.dim.num_elem, )
 117              		.loc 1 74 3 view .LVU33
 118 0062 11AD     		add	r5, sp, #68
 119              		.loc 1 79 3 view .LVU34
 120 0064 CDE91D22 		strd	r2, r2, [sp, #116]
 121 0068 426F     		ldr	r2, [r0, #116]
 122 006a 1DAE     		add	r6, sp, #116
 123 006c 1F92     		str	r2, [sp, #124]
 124 006e 026F     		ldr	r2, [r0, #112]
 125 0070 CDE94665 		strd	r6, r5, [sp, #280]
  80:Lib/AI_Runtime/Npu/ll_aton/ll_sw_float.c ****                         SHAPE_INIT(sw_info->weights.dim.tensor_b, sw_info->weights.dim.tensor_h,
  81:Lib/AI_Runtime/Npu/ll_aton/ll_sw_float.c ****                                    sw_info->weights.dim.tensor_w, sw_info->weights.dim.tensor_c),
  82:Lib/AI_Runtime/Npu/ll_aton/ll_sw_float.c ****                         STRIDE_INIT(sw_info->weights.stride.h, sw_info->weights.stride.w, sw_info->
  83:Lib/AI_Runtime/Npu/ll_aton/ll_sw_float.c ****                                     sw_info->weights.stride.b),
  84:Lib/AI_Runtime/Npu/ll_aton/ll_sw_float.c ****                         1, &conv_weights_array, NULL);
ARM GAS  C:\Users\DJESSOU\AppData\Local\Temp\ccdFeyMS.s 			page 5


 126              		.loc 1 84 54 is_stmt 1 view .LVU35
  85:Lib/AI_Runtime/Npu/ll_aton/ll_sw_float.c ****   AI_TENSOR_OBJ_DECLARE(input_output, , 0x0, 4,
 127              		.loc 1 85 3 view .LVU36
  79:Lib/AI_Runtime/Npu/ll_aton/ll_sw_float.c ****                         SHAPE_INIT(sw_info->weights.dim.tensor_b, sw_info->weights.dim.tensor_h,
 128              		.loc 1 79 3 is_stmt 0 view .LVU37
 129 0074 2092     		str	r2, [sp, #128]
 130              		.loc 1 85 3 view .LVU38
 131 0076 0269     		ldr	r2, [r0, #16]
 132 0078 21AD     		add	r5, sp, #132
 133 007a 2192     		str	r2, [sp, #132]
 134 007c C268     		ldr	r2, [r0, #12]
 135 007e CDE94B5C 		strd	r5, ip, [sp, #300]
 136 0082 2292     		str	r2, [sp, #136]
 137 0084 8268     		ldr	r2, [r0, #8]
  72:Lib/AI_Runtime/Npu/ll_aton/ll_sw_float.c ****                        sw_info->general.input.mem.start_offset, sw_info->general.input.dim.num_elem
 138              		.loc 1 72 3 view .LVU39
 139 0086 0DAC     		add	r4, sp, #52
 140              		.loc 1 85 3 view .LVU40
 141 0088 2392     		str	r2, [sp, #140]
 142 008a 4268     		ldr	r2, [r0, #4]
 143 008c 25AD     		add	r5, sp, #148
 144 008e 2492     		str	r2, [sp, #144]
 145 0090 426A     		ldr	r2, [r0, #36]
 146 0092 CDE9481E 		strd	r1, lr, [sp, #288]
 147 0096 2592     		str	r2, [sp, #148]
 148 0098 026A     		ldr	r2, [r0, #32]
  79:Lib/AI_Runtime/Npu/ll_aton/ll_sw_float.c ****                         SHAPE_INIT(sw_info->weights.dim.tensor_b, sw_info->weights.dim.tensor_h,
 149              		.loc 1 79 3 view .LVU41
 150 009a CDF814C1 		str	ip, [sp, #276]
 151              		.loc 1 85 3 view .LVU42
 152 009e 2692     		str	r2, [sp, #152]
 153 00a0 C269     		ldr	r2, [r0, #28]
 154 00a2 CDF828A1 		str	r10, [sp, #296]
 155 00a6 2792     		str	r2, [sp, #156]
 156 00a8 8269     		ldr	r2, [r0, #24]
  76:Lib/AI_Runtime/Npu/ll_aton/ll_sw_float.c ****                        sw_info->general.output.mem.start_offset, sw_info->general.output.dim.num_el
 157              		.loc 1 76 3 view .LVU43
 158 00aa 15AB     		add	r3, sp, #84
 159              		.loc 1 85 3 view .LVU44
 160 00ac 2892     		str	r2, [sp, #160]
 161 00ae CDE94D54 		strd	r5, r4, [sp, #308]
  86:Lib/AI_Runtime/Npu/ll_aton/ll_sw_float.c ****                         SHAPE_INIT(sw_info->general.input.dim.tensor_h, sw_info->general.input.dim.
  87:Lib/AI_Runtime/Npu/ll_aton/ll_sw_float.c ****                                    sw_info->general.input.dim.tensor_c, sw_info->general.input.dim.
  88:Lib/AI_Runtime/Npu/ll_aton/ll_sw_float.c ****                         STRIDE_INIT(sw_info->general.input.stride.h, sw_info->general.input.stride.
  89:Lib/AI_Runtime/Npu/ll_aton/ll_sw_float.c ****                                     sw_info->general.input.stride.c, sw_info->general.input.stride.
  90:Lib/AI_Runtime/Npu/ll_aton/ll_sw_float.c ****                         1, &input_output_array, NULL);
 162              		.loc 1 90 54 is_stmt 1 view .LVU45
  91:Lib/AI_Runtime/Npu/ll_aton/ll_sw_float.c ****   AI_TENSOR_OBJ_DECLARE(conv_output, , 0x0, 4,
 163              		.loc 1 91 3 view .LVU46
 164              	.LBB2:
  92:Lib/AI_Runtime/Npu/ll_aton/ll_sw_float.c ****                         SHAPE_INIT(sw_info->general.output.dim.tensor_h, sw_info->general.output.di
  93:Lib/AI_Runtime/Npu/ll_aton/ll_sw_float.c ****                                    sw_info->general.output.dim.tensor_c, sw_info->general.output.di
  94:Lib/AI_Runtime/Npu/ll_aton/ll_sw_float.c ****                         STRIDE_INIT(sw_info->general.output.stride.h, sw_info->general.output.strid
  95:Lib/AI_Runtime/Npu/ll_aton/ll_sw_float.c ****                                     sw_info->general.output.stride.c, sw_info->general.output.strid
  96:Lib/AI_Runtime/Npu/ll_aton/ll_sw_float.c ****                         1, &conv_output_array, NULL);
  97:Lib/AI_Runtime/Npu/ll_aton/ll_sw_float.c **** 
  98:Lib/AI_Runtime/Npu/ll_aton/ll_sw_float.c ****   if (sw_info->bias.mem.start_offset != NULL)
ARM GAS  C:\Users\DJESSOU\AppData\Local\Temp\ccdFeyMS.s 			page 6


  99:Lib/AI_Runtime/Npu/ll_aton/ll_sw_float.c ****   {
 100:Lib/AI_Runtime/Npu/ll_aton/ll_sw_float.c ****     AI_ARRAY_OBJ_DECLARE(conv_bias_array, FORMAT, sw_info->bias.mem.start_offset, sw_info->bias.mem
 101:Lib/AI_Runtime/Npu/ll_aton/ll_sw_float.c ****                          sw_info->bias.dim.num_elem, )
 102:Lib/AI_Runtime/Npu/ll_aton/ll_sw_float.c ****     AI_TENSOR_OBJ_DECLARE(
 103:Lib/AI_Runtime/Npu/ll_aton/ll_sw_float.c ****         conv_bias, , 0x0, 4,
 104:Lib/AI_Runtime/Npu/ll_aton/ll_sw_float.c ****         SHAPE_INIT(sw_info->bias.dim.tensor_h, sw_info->bias.dim.tensor_w, sw_info->bias.dim.tensor
 105:Lib/AI_Runtime/Npu/ll_aton/ll_sw_float.c ****                    sw_info->bias.dim.tensor_b),
 106:Lib/AI_Runtime/Npu/ll_aton/ll_sw_float.c ****         STRIDE_INIT(sw_info->bias.stride.h, sw_info->bias.stride.w, sw_info->bias.stride.c, sw_info
 107:Lib/AI_Runtime/Npu/ll_aton/ll_sw_float.c ****         &conv_bias_array, NULL);
 108:Lib/AI_Runtime/Npu/ll_aton/ll_sw_float.c **** 
 109:Lib/AI_Runtime/Npu/ll_aton/ll_sw_float.c ****     // tensor chain initialization
 110:Lib/AI_Runtime/Npu/ll_aton/ll_sw_float.c ****     AI_TENSOR_CHAIN_OBJ_DECLARE(conv_chain, , 4, AI_TENSOR_LIST_OBJ_INIT(AI_FLAG_NONE, 1, TENSORS(&
 111:Lib/AI_Runtime/Npu/ll_aton/ll_sw_float.c ****                                 AI_TENSOR_LIST_OBJ_INIT(AI_FLAG_NONE, 1, TENSORS(&conv_output)),
 112:Lib/AI_Runtime/Npu/ll_aton/ll_sw_float.c ****                                 AI_TENSOR_LIST_OBJ_INIT(AI_FLAG_NONE, 3, TENSORS(&conv_weights, &co
 113:Lib/AI_Runtime/Npu/ll_aton/ll_sw_float.c ****                                 AI_TENSOR_LIST_OBJ_INIT(AI_FLAG_NONE, 2, TENSORS(NULL, NULL)))
 114:Lib/AI_Runtime/Npu/ll_aton/ll_sw_float.c ****     // layer initialization
 115:Lib/AI_Runtime/Npu/ll_aton/ll_sw_float.c ****     AI_LAYER_OBJ_DECLARE(conv_layer, 1, CONV2D_TYPE, 0x0, NULL, conv2d, forward_conv2d_if32of32wf32
 165              		.loc 1 115 5 is_stmt 0 view .LVU47
 166 00b2 D0E94878 		ldrd	r7, r8, [r0, #288]
 167 00b6 D0E94C56 		ldrd	r5, r6, [r0, #304]
 168              	.LBE2:
  91:Lib/AI_Runtime/Npu/ll_aton/ll_sw_float.c ****   AI_TENSOR_OBJ_DECLARE(conv_output, , 0x0, 4,
 169              		.loc 1 91 3 view .LVU48
 170 00ba C26B     		ldr	r2, [r0, #60]
 171 00bc 29AC     		add	r4, sp, #164
 172 00be 2992     		str	r2, [sp, #164]
 173 00c0 826B     		ldr	r2, [r0, #56]
 174 00c2 CDE9524C 		strd	r4, ip, [sp, #328]
 175 00c6 2A92     		str	r2, [sp, #168]
 176 00c8 426B     		ldr	r2, [r0, #52]
 177 00ca 2DAC     		add	r4, sp, #180
 178 00cc 2B92     		str	r2, [sp, #172]
 179 00ce 026B     		ldr	r2, [r0, #48]
 180 00d0 CDE95443 		strd	r4, r3, [sp, #336]
  96:Lib/AI_Runtime/Npu/ll_aton/ll_sw_float.c **** 
 181              		.loc 1 96 53 is_stmt 1 view .LVU49
  98:Lib/AI_Runtime/Npu/ll_aton/ll_sw_float.c ****   {
 182              		.loc 1 98 3 view .LVU50
  91:Lib/AI_Runtime/Npu/ll_aton/ll_sw_float.c ****                         SHAPE_INIT(sw_info->general.output.dim.tensor_h, sw_info->general.output.di
 183              		.loc 1 91 3 is_stmt 0 view .LVU51
 184 00d4 2C92     		str	r2, [sp, #176]
 185 00d6 026D     		ldr	r2, [r0, #80]
 186 00d8 CDE94F1E 		strd	r1, lr, [sp, #316]
 187 00dc 2D92     		str	r2, [sp, #180]
 188 00de C26C     		ldr	r2, [r0, #76]
  98:Lib/AI_Runtime/Npu/ll_aton/ll_sw_float.c ****   {
 189              		.loc 1 98 24 view .LVU52
 190 00e0 D0F8D830 		ldr	r3, [r0, #216]
  91:Lib/AI_Runtime/Npu/ll_aton/ll_sw_float.c ****                         SHAPE_INIT(sw_info->general.output.dim.tensor_h, sw_info->general.output.di
 191              		.loc 1 91 3 view .LVU53
 192 00e4 2E92     		str	r2, [sp, #184]
 193 00e6 826C     		ldr	r2, [r0, #72]
 194              	.LBB3:
 195              		.loc 1 115 5 view .LVU54
 196 00e8 D0F80C91 		ldr	r9, [r0, #268]
 197              	.LBE3:
  91:Lib/AI_Runtime/Npu/ll_aton/ll_sw_float.c ****                         SHAPE_INIT(sw_info->general.output.dim.tensor_h, sw_info->general.output.di
ARM GAS  C:\Users\DJESSOU\AppData\Local\Temp\ccdFeyMS.s 			page 7


 198              		.loc 1 91 3 view .LVU55
 199 00ec 2F92     		str	r2, [sp, #188]
 200 00ee 426C     		ldr	r2, [r0, #68]
 201 00f0 CDF844A1 		str	r10, [sp, #324]
 202 00f4 3092     		str	r2, [sp, #192]
 203              	.LBB4:
 204              		.loc 1 115 5 view .LVU56
 205 00f6 D0F81021 		ldr	r2, [r0, #272]
 206 00fa 0092     		str	r2, [sp]
 207 00fc D0F81421 		ldr	r2, [r0, #276]
 208 0100 0192     		str	r2, [sp, #4]
 209 0102 D0F81821 		ldr	r2, [r0, #280]
 210 0106 0292     		str	r2, [sp, #8]
 211 0108 D0F81C21 		ldr	r2, [r0, #284]
 212 010c 0392     		str	r2, [sp, #12]
 213              	.LBE4:
  98:Lib/AI_Runtime/Npu/ll_aton/ll_sw_float.c ****   {
 214              		.loc 1 98 6 view .LVU57
 215 010e 002B     		cmp	r3, #0
 216 0110 6ED0     		beq	.L2
 217              	.LBB5:
 100:Lib/AI_Runtime/Npu/ll_aton/ll_sw_float.c ****                          sw_info->bias.dim.num_elem, )
 218              		.loc 1 100 5 is_stmt 1 view .LVU58
 219 0112 D0F8C440 		ldr	r4, [r0, #196]
 220 0116 3493     		str	r3, [sp, #208]
 102:Lib/AI_Runtime/Npu/ll_aton/ll_sw_float.c ****         conv_bias, , 0x0, 4,
 221              		.loc 1 102 5 view .LVU59
 100:Lib/AI_Runtime/Npu/ll_aton/ll_sw_float.c ****                          sw_info->bias.dim.num_elem, )
 222              		.loc 1 100 5 is_stmt 0 view .LVU60
 223 0118 CDE93243 		strd	r4, r3, [sp, #200]
 102:Lib/AI_Runtime/Npu/ll_aton/ll_sw_float.c ****         conv_bias, , 0x0, 4,
 224              		.loc 1 102 5 view .LVU61
 225 011c 35AB     		add	r3, sp, #212
 226 011e CDE9593C 		strd	r3, ip, [sp, #356]
 100:Lib/AI_Runtime/Npu/ll_aton/ll_sw_float.c ****                          sw_info->bias.dim.num_elem, )
 227              		.loc 1 100 5 view .LVU62
 228 0122 31AA     		add	r2, sp, #196
 102:Lib/AI_Runtime/Npu/ll_aton/ll_sw_float.c ****         conv_bias, , 0x0, 4,
 229              		.loc 1 102 5 view .LVU63
 230 0124 39AB     		add	r3, sp, #228
 231 0126 CDE95B32 		strd	r3, r2, [sp, #364]
 107:Lib/AI_Runtime/Npu/ll_aton/ll_sw_float.c **** 
 232              		.loc 1 107 32 is_stmt 1 view .LVU64
 110:Lib/AI_Runtime/Npu/ll_aton/ll_sw_float.c ****                                 AI_TENSOR_LIST_OBJ_INIT(AI_FLAG_NONE, 1, TENSORS(&conv_output)),
 233              		.loc 1 110 5 view .LVU65
 234 012a 0423     		movs	r3, #4
 235 012c 0693     		str	r3, [sp, #24]
 236 012e 0123     		movs	r3, #1
 102:Lib/AI_Runtime/Npu/ll_aton/ll_sw_float.c ****         conv_bias, , 0x0, 4,
 237              		.loc 1 102 5 is_stmt 0 view .LVU66
 238 0130 D0F8C040 		ldr	r4, [r0, #192]
 110:Lib/AI_Runtime/Npu/ll_aton/ll_sw_float.c ****                                 AI_TENSOR_LIST_OBJ_INIT(AI_FLAG_NONE, 1, TENSORS(&conv_output)),
 239              		.loc 1 110 5 view .LVU67
 240 0134 48AA     		add	r2, sp, #288
 102:Lib/AI_Runtime/Npu/ll_aton/ll_sw_float.c ****         conv_bias, , 0x0, 4,
 241              		.loc 1 102 5 view .LVU68
 242 0136 3594     		str	r4, [sp, #212]
ARM GAS  C:\Users\DJESSOU\AppData\Local\Temp\ccdFeyMS.s 			page 8


 243 0138 D0F8BC40 		ldr	r4, [r0, #188]
 110:Lib/AI_Runtime/Npu/ll_aton/ll_sw_float.c ****                                 AI_TENSOR_LIST_OBJ_INIT(AI_FLAG_NONE, 1, TENSORS(&conv_output)),
 244              		.loc 1 110 5 view .LVU69
 245 013c 0492     		str	r2, [sp, #16]
 102:Lib/AI_Runtime/Npu/ll_aton/ll_sw_float.c ****         conv_bias, , 0x0, 4,
 246              		.loc 1 102 5 view .LVU70
 247 013e 3694     		str	r4, [sp, #216]
 248 0140 D0F8B840 		ldr	r4, [r0, #184]
 110:Lib/AI_Runtime/Npu/ll_aton/ll_sw_float.c ****                                 AI_TENSOR_LIST_OBJ_INIT(AI_FLAG_NONE, 1, TENSORS(&conv_output)),
 249              		.loc 1 110 5 view .LVU71
 250 0144 04AA     		add	r2, sp, #16
 102:Lib/AI_Runtime/Npu/ll_aton/ll_sw_float.c ****         conv_bias, , 0x0, 4,
 251              		.loc 1 102 5 view .LVU72
 252 0146 3794     		str	r4, [sp, #220]
 253 0148 D0F8B440 		ldr	r4, [r0, #180]
 254 014c CDE9561E 		strd	r1, lr, [sp, #344]
 255 0150 3894     		str	r4, [sp, #224]
 256 0152 D0F8D440 		ldr	r4, [r0, #212]
 100:Lib/AI_Runtime/Npu/ll_aton/ll_sw_float.c ****                          sw_info->bias.dim.num_elem, )
 257              		.loc 1 100 5 view .LVU73
 258 0156 CDF8C4B0 		str	fp, [sp, #196]
 102:Lib/AI_Runtime/Npu/ll_aton/ll_sw_float.c ****         conv_bias, , 0x0, 4,
 259              		.loc 1 102 5 view .LVU74
 260 015a 3994     		str	r4, [sp, #228]
 261 015c D0F8D040 		ldr	r4, [r0, #208]
 110:Lib/AI_Runtime/Npu/ll_aton/ll_sw_float.c ****                                 AI_TENSOR_LIST_OBJ_INIT(AI_FLAG_NONE, 1, TENSORS(&conv_output)),
 262              		.loc 1 110 5 view .LVU75
 263 0160 5D93     		str	r3, [sp, #372]
 102:Lib/AI_Runtime/Npu/ll_aton/ll_sw_float.c ****         conv_bias, , 0x0, 4,
 264              		.loc 1 102 5 view .LVU76
 265 0162 3A94     		str	r4, [sp, #232]
 266 0164 D0F8CC40 		ldr	r4, [r0, #204]
 267 0168 D0F8C800 		ldr	r0, [r0, #200]
 268              	.LVL1:
 102:Lib/AI_Runtime/Npu/ll_aton/ll_sw_float.c ****         conv_bias, , 0x0, 4,
 269              		.loc 1 102 5 view .LVU77
 270 016c CDF860A1 		str	r10, [sp, #352]
 271 0170 3C90     		str	r0, [sp, #240]
 272 0172 3B94     		str	r4, [sp, #236]
 110:Lib/AI_Runtime/Npu/ll_aton/ll_sw_float.c ****                                 AI_TENSOR_LIST_OBJ_INIT(AI_FLAG_NONE, 1, TENSORS(&conv_output)),
 273              		.loc 1 110 5 view .LVU78
 274 0174 CDE95E21 		strd	r2, r1, [sp, #376]
 275 0178 6093     		str	r3, [sp, #384]
 276 017a 05AB     		add	r3, sp, #20
 277 017c CDE96131 		strd	r3, r1, [sp, #388]
 278 0180 0323     		movs	r3, #3
 279 0182 6393     		str	r3, [sp, #396]
 280 0184 0AAB     		add	r3, sp, #40
 281 0186 CDE96431 		strd	r3, r1, [sp, #400]
 282 018a 0223     		movs	r3, #2
 283 018c 4FAA     		add	r2, sp, #316
 284 018e 6693     		str	r3, [sp, #408]
 285 0190 08AB     		add	r3, sp, #32
 286 0192 CDE96731 		strd	r3, r1, [sp, #412]
 287 0196 0592     		str	r2, [sp, #20]
 288 0198 5DAB     		add	r3, sp, #372
 289 019a 41AA     		add	r2, sp, #260
ARM GAS  C:\Users\DJESSOU\AppData\Local\Temp\ccdFeyMS.s 			page 9


 290 019c 0A92     		str	r2, [sp, #40]
 291 019e 0793     		str	r3, [sp, #28]
 292              		.loc 1 115 5 is_stmt 1 view .LVU79
 110:Lib/AI_Runtime/Npu/ll_aton/ll_sw_float.c ****                                 AI_TENSOR_LIST_OBJ_INIT(AI_FLAG_NONE, 1, TENSORS(&conv_output)),
 293              		.loc 1 110 5 is_stmt 0 view .LVU80
 294 01a0 56AA     		add	r2, sp, #344
 295              		.loc 1 115 5 view .LVU81
 296 01a2 334B     		ldr	r3, .L5
 110:Lib/AI_Runtime/Npu/ll_aton/ll_sw_float.c ****                                 AI_TENSOR_LIST_OBJ_INIT(AI_FLAG_NONE, 1, TENSORS(&conv_output)),
 297              		.loc 1 110 5 view .LVU82
 298 01a4 CDE90B21 		strd	r2, r1, [sp, #44]
 299              		.loc 1 115 5 view .LVU83
 300 01a8 6AA8     		add	r0, sp, #424
 301 01aa 4022     		movs	r2, #64
 302 01ac 6993     		str	r3, [sp, #420]
 110:Lib/AI_Runtime/Npu/ll_aton/ll_sw_float.c ****                                 AI_TENSOR_LIST_OBJ_INIT(AI_FLAG_NONE, 1, TENSORS(&conv_output)),
 303              		.loc 1 110 5 view .LVU84
 304 01ae CDE90811 		strd	r1, r1, [sp, #32]
 305              		.loc 1 115 5 view .LVU85
 306 01b2 FFF7FEFF 		bl	memset
 307              	.LVL2:
 308 01b6 2F4B     		ldr	r3, .L5+4
 110:Lib/AI_Runtime/Npu/ll_aton/ll_sw_float.c ****                                 AI_TENSOR_LIST_OBJ_INIT(AI_FLAG_NONE, 1, TENSORS(&conv_output)),
 309              		.loc 1 110 5 view .LVU86
 310 01b8 0DF1180B 		add	fp, sp, #24
 311              		.loc 1 115 5 view .LVU87
 312 01bc CDE96E3B 		strd	r3, fp, [sp, #440]
 313 01c0 009B     		ldr	r3, [sp]
 314 01c2 CDE97387 		strd	r8, r7, [sp, #460]
 315 01c6 3D93     		str	r3, [sp, #244]
 316 01c8 019B     		ldr	r3, [sp, #4]
 317 01ca CDE97565 		strd	r6, r5, [sp, #468]
 318 01ce 3E93     		str	r3, [sp, #248]
 319 01d0 029B     		ldr	r3, [sp, #8]
 320 01d2 CDF8C091 		str	r9, [sp, #448]
 321 01d6 3F93     		str	r3, [sp, #252]
 322 01d8 039B     		ldr	r3, [sp, #12]
 323 01da CDF8DCA1 		str	r10, [sp, #476]
 324 01de 4093     		str	r3, [sp, #256]
 325 01e0 3DAB     		add	r3, sp, #244
 326              	.L4:
 327              	.LBE5:
 328              	.LBB6:
 116:Lib/AI_Runtime/Npu/ll_aton/ll_sw_float.c ****                          NULL, NULL, , .groups = sw_info->ngroup, .nl_params = NULL, .nl_func = NUL
 117:Lib/AI_Runtime/Npu/ll_aton/ll_sw_float.c ****                          .filter_stride = SHAPE_2D_INIT(sw_info->strides[0],
 118:Lib/AI_Runtime/Npu/ll_aton/ll_sw_float.c ****                                                         sw_info->strides[1]), // controlla perche' 
 119:Lib/AI_Runtime/Npu/ll_aton/ll_sw_float.c ****                          .filter_pad =
 120:Lib/AI_Runtime/Npu/ll_aton/ll_sw_float.c ****                              SHAPE_INIT(sw_info->pads[3], sw_info->pads[2], sw_info->pads[1], sw_in
 121:Lib/AI_Runtime/Npu/ll_aton/ll_sw_float.c ****                          .dilation = SHAPE_2D_INIT(sw_info->dilations[0], sw_info->dilations[1]), )
 122:Lib/AI_Runtime/Npu/ll_aton/ll_sw_float.c ****     conv_layer.forward(AI_LAYER_OBJ(&conv_layer));
 123:Lib/AI_Runtime/Npu/ll_aton/ll_sw_float.c ****   }
 124:Lib/AI_Runtime/Npu/ll_aton/ll_sw_float.c ****   else
 125:Lib/AI_Runtime/Npu/ll_aton/ll_sw_float.c ****   {
 126:Lib/AI_Runtime/Npu/ll_aton/ll_sw_float.c ****     // tensor chain initialization
 127:Lib/AI_Runtime/Npu/ll_aton/ll_sw_float.c ****     AI_TENSOR_CHAIN_OBJ_DECLARE(conv_chain, , 4, AI_TENSOR_LIST_OBJ_INIT(AI_FLAG_NONE, 1, TENSORS(&
 128:Lib/AI_Runtime/Npu/ll_aton/ll_sw_float.c ****                                 AI_TENSOR_LIST_OBJ_INIT(AI_FLAG_NONE, 1, TENSORS(&conv_output)),
 129:Lib/AI_Runtime/Npu/ll_aton/ll_sw_float.c ****                                 AI_TENSOR_LIST_OBJ_INIT(AI_FLAG_NONE, 3, TENSORS(&conv_weights, NUL
ARM GAS  C:\Users\DJESSOU\AppData\Local\Temp\ccdFeyMS.s 			page 10


 130:Lib/AI_Runtime/Npu/ll_aton/ll_sw_float.c ****                                 AI_TENSOR_LIST_OBJ_INIT(AI_FLAG_NONE, 2, TENSORS(NULL, NULL)))
 131:Lib/AI_Runtime/Npu/ll_aton/ll_sw_float.c ****     // layer initialization
 132:Lib/AI_Runtime/Npu/ll_aton/ll_sw_float.c ****     AI_LAYER_OBJ_DECLARE(conv_layer, 1, CONV2D_TYPE, 0x0, NULL, conv2d, forward_conv2d_if32of32wf32
 133:Lib/AI_Runtime/Npu/ll_aton/ll_sw_float.c ****                          NULL, NULL, , .groups = sw_info->ngroup, .nl_params = NULL, .nl_func = NUL
 134:Lib/AI_Runtime/Npu/ll_aton/ll_sw_float.c ****                          .filter_stride = SHAPE_2D_INIT(sw_info->strides[0],
 135:Lib/AI_Runtime/Npu/ll_aton/ll_sw_float.c ****                                                         sw_info->strides[1]), // controlla perche' 
 136:Lib/AI_Runtime/Npu/ll_aton/ll_sw_float.c ****                          .filter_pad =
 137:Lib/AI_Runtime/Npu/ll_aton/ll_sw_float.c ****                              SHAPE_INIT(sw_info->pads[3], sw_info->pads[2], sw_info->pads[1], sw_in
 138:Lib/AI_Runtime/Npu/ll_aton/ll_sw_float.c ****                          .dilation = SHAPE_2D_INIT(sw_info->dilations[0], sw_info->dilations[1]), )
 139:Lib/AI_Runtime/Npu/ll_aton/ll_sw_float.c ****     conv_layer.forward(AI_LAYER_OBJ(&conv_layer));
 329              		.loc 1 139 5 view .LVU88
 330 01e2 69A8     		add	r0, sp, #420
 132:Lib/AI_Runtime/Npu/ll_aton/ll_sw_float.c ****                          NULL, NULL, , .groups = sw_info->ngroup, .nl_params = NULL, .nl_func = NUL
 331              		.loc 1 132 5 view .LVU89
 332 01e4 7893     		str	r3, [sp, #480]
 333              		.loc 1 139 5 is_stmt 1 view .LVU90
 334 01e6 FFF7FEFF 		bl	forward_conv2d_if32of32wf32_group
 335              	.LVL3:
 336              	.LBE6:
 140:Lib/AI_Runtime/Npu/ll_aton/ll_sw_float.c ****   }
 141:Lib/AI_Runtime/Npu/ll_aton/ll_sw_float.c **** }
 337              		.loc 1 141 1 is_stmt 0 view .LVU91
 338 01ea 7BB0     		add	sp, sp, #492
 339              		.cfi_remember_state
 340              		.cfi_def_cfa_offset 36
 341              		@ sp needed
 342 01ec BDE8F08F 		pop	{r4, r5, r6, r7, r8, r9, r10, fp, pc}
 343              	.LVL4:
 344              	.L2:
 345              		.cfi_restore_state
 346              	.LBB7:
 127:Lib/AI_Runtime/Npu/ll_aton/ll_sw_float.c ****                                 AI_TENSOR_LIST_OBJ_INIT(AI_FLAG_NONE, 1, TENSORS(&conv_output)),
 347              		.loc 1 127 5 is_stmt 1 view .LVU92
 348 01f0 0422     		movs	r2, #4
 349 01f2 3592     		str	r2, [sp, #212]
 350 01f4 0122     		movs	r2, #1
 351 01f6 5D92     		str	r2, [sp, #372]
 352 01f8 6092     		str	r2, [sp, #384]
 353 01fa 31AA     		add	r2, sp, #196
 354 01fc CDE96123 		strd	r2, r3, [sp, #388]
 355 0200 0322     		movs	r2, #3
 356 0202 6392     		str	r2, [sp, #396]
 357 0204 41AA     		add	r2, sp, #260
 358 0206 CDE93D23 		strd	r2, r3, [sp, #244]
 359 020a 3DAA     		add	r2, sp, #244
 360 020c CDE96423 		strd	r2, r3, [sp, #400]
 361 0210 0222     		movs	r2, #2
 362 0212 6692     		str	r2, [sp, #408]
 363 0214 39AA     		add	r2, sp, #228
 364 0216 CDE96723 		strd	r2, r3, [sp, #412]
 365 021a 5DAA     		add	r2, sp, #372
 366 021c 0AA9     		add	r1, sp, #40
 367 021e 3692     		str	r2, [sp, #216]
 132:Lib/AI_Runtime/Npu/ll_aton/ll_sw_float.c ****                          NULL, NULL, , .groups = sw_info->ngroup, .nl_params = NULL, .nl_func = NUL
 368              		.loc 1 132 5 view .LVU93
 369 0220 134A     		ldr	r2, .L5
 127:Lib/AI_Runtime/Npu/ll_aton/ll_sw_float.c ****                                 AI_TENSOR_LIST_OBJ_INIT(AI_FLAG_NONE, 1, TENSORS(&conv_output)),
ARM GAS  C:\Users\DJESSOU\AppData\Local\Temp\ccdFeyMS.s 			page 11


 370              		.loc 1 127 5 is_stmt 0 view .LVU94
 371 0222 CDE95E13 		strd	r1, r3, [sp, #376]
 372 0226 48A8     		add	r0, sp, #288
 373              	.LVL5:
 127:Lib/AI_Runtime/Npu/ll_aton/ll_sw_float.c ****                                 AI_TENSOR_LIST_OBJ_INIT(AI_FLAG_NONE, 1, TENSORS(&conv_output)),
 374              		.loc 1 127 5 view .LVU95
 375 0228 4FA9     		add	r1, sp, #316
 376 022a 0A90     		str	r0, [sp, #40]
 377 022c 3191     		str	r1, [sp, #196]
 132:Lib/AI_Runtime/Npu/ll_aton/ll_sw_float.c ****                          NULL, NULL, , .groups = sw_info->ngroup, .nl_params = NULL, .nl_func = NUL
 378              		.loc 1 132 5 view .LVU96
 379 022e 6992     		str	r2, [sp, #420]
 380 0230 1946     		mov	r1, r3
 381 0232 4022     		movs	r2, #64
 382 0234 6AA8     		add	r0, sp, #424
 127:Lib/AI_Runtime/Npu/ll_aton/ll_sw_float.c ****                                 AI_TENSOR_LIST_OBJ_INIT(AI_FLAG_NONE, 1, TENSORS(&conv_output)),
 383              		.loc 1 127 5 view .LVU97
 384 0236 CDE93933 		strd	r3, r3, [sp, #228]
 385 023a 3F93     		str	r3, [sp, #252]
 132:Lib/AI_Runtime/Npu/ll_aton/ll_sw_float.c ****                          NULL, NULL, , .groups = sw_info->ngroup, .nl_params = NULL, .nl_func = NUL
 386              		.loc 1 132 5 view .LVU98
 387 023c FFF7FEFF 		bl	memset
 388              	.LVL6:
 389 0240 0C4B     		ldr	r3, .L5+4
 127:Lib/AI_Runtime/Npu/ll_aton/ll_sw_float.c ****                                 AI_TENSOR_LIST_OBJ_INIT(AI_FLAG_NONE, 1, TENSORS(&conv_output)),
 390              		.loc 1 127 5 view .LVU99
 391 0242 0DF1D40B 		add	fp, sp, #212
 132:Lib/AI_Runtime/Npu/ll_aton/ll_sw_float.c ****                          NULL, NULL, , .groups = sw_info->ngroup, .nl_params = NULL, .nl_func = NUL
 392              		.loc 1 132 5 view .LVU100
 393 0246 CDE96E3B 		strd	r3, fp, [sp, #440]
 394 024a 009B     		ldr	r3, [sp]
 395 024c CDE97387 		strd	r8, r7, [sp, #460]
 396 0250 5693     		str	r3, [sp, #344]
 397 0252 019B     		ldr	r3, [sp, #4]
 398 0254 CDE97565 		strd	r6, r5, [sp, #468]
 399 0258 5793     		str	r3, [sp, #348]
 400 025a 029B     		ldr	r3, [sp, #8]
 401 025c CDF8C091 		str	r9, [sp, #448]
 402 0260 5893     		str	r3, [sp, #352]
 403 0262 039B     		ldr	r3, [sp, #12]
 404 0264 CDF8DCA1 		str	r10, [sp, #476]
 405 0268 5993     		str	r3, [sp, #356]
 406 026a 56AB     		add	r3, sp, #344
 407 026c B9E7     		b	.L4
 408              	.L6:
 409 026e 00BF     		.align	2
 410              	.L5:
 411 0270 03010100 		.word	65795
 412 0274 00000000 		.word	forward_conv2d_if32of32wf32_group
 413 0278 40108200 		.word	8523840
 414              	.LBE7:
 415              		.cfi_endproc
 416              	.LFE15:
 418              		.section	.text.ll_sw_forward_gemm,"ax",%progbits
 419              		.align	1
 420              		.global	ll_sw_forward_gemm
 421              		.syntax unified
ARM GAS  C:\Users\DJESSOU\AppData\Local\Temp\ccdFeyMS.s 			page 12


 422              		.thumb
 423              		.thumb_func
 425              	ll_sw_forward_gemm:
 426              	.LVL7:
 427              	.LFB16:
 142:Lib/AI_Runtime/Npu/ll_aton/ll_sw_float.c **** 
 143:Lib/AI_Runtime/Npu/ll_aton/ll_sw_float.c **** //##########################################################################################
 144:Lib/AI_Runtime/Npu/ll_aton/ll_sw_float.c **** /** GEMM forward function */
 145:Lib/AI_Runtime/Npu/ll_aton/ll_sw_float.c **** void ll_sw_forward_gemm(/* int processor, */ void *sw_info_struct)
 146:Lib/AI_Runtime/Npu/ll_aton/ll_sw_float.c **** {
 428              		.loc 1 146 1 is_stmt 1 view -0
 429              		.cfi_startproc
 430              		@ args = 0, pretend = 0, frame = 424
 431              		@ frame_needed = 0, uses_anonymous_args = 0
 147:Lib/AI_Runtime/Npu/ll_aton/ll_sw_float.c ****   Gemm_sw_info *sw_info = (Gemm_sw_info *)sw_info_struct;
 432              		.loc 1 147 3 view .LVU102
 148:Lib/AI_Runtime/Npu/ll_aton/ll_sw_float.c ****   // array init
 149:Lib/AI_Runtime/Npu/ll_aton/ll_sw_float.c ****   AI_ARRAY_OBJ_DECLARE(input_output_array, FORMAT, sw_info->general.input.mem.start_offset,
 433              		.loc 1 149 3 view .LVU103
 146:Lib/AI_Runtime/Npu/ll_aton/ll_sw_float.c ****   Gemm_sw_info *sw_info = (Gemm_sw_info *)sw_info_struct;
 434              		.loc 1 146 1 is_stmt 0 view .LVU104
 435 0000 2DE9F041 		push	{r4, r5, r6, r7, r8, lr}
 436              		.cfi_def_cfa_offset 24
 437              		.cfi_offset 4, -24
 438              		.cfi_offset 5, -20
 439              		.cfi_offset 6, -16
 440              		.cfi_offset 7, -12
 441              		.cfi_offset 8, -8
 442              		.cfi_offset 14, -4
 443              		.loc 1 149 3 view .LVU105
 444 0004 694B     		ldr	r3, .L8
 146:Lib/AI_Runtime/Npu/ll_aton/ll_sw_float.c ****   Gemm_sw_info *sw_info = (Gemm_sw_info *)sw_info_struct;
 445              		.loc 1 146 1 view .LVU106
 446 0006 EAB0     		sub	sp, sp, #424
 447              		.cfi_def_cfa_offset 448
 448              		.loc 1 149 3 view .LVU107
 449 0008 0893     		str	r3, [sp, #32]
 150:Lib/AI_Runtime/Npu/ll_aton/ll_sw_float.c ****                        sw_info->general.input.mem.start_offset, sw_info->general.input.dim.num_elem
 151:Lib/AI_Runtime/Npu/ll_aton/ll_sw_float.c **** 
 152:Lib/AI_Runtime/Npu/ll_aton/ll_sw_float.c ****   AI_ARRAY_OBJ_DECLARE(gemm_operand_b_array, FORMAT, sw_info->operand_b.mem.start_offset,
 450              		.loc 1 152 3 view .LVU108
 451 000a 0C93     		str	r3, [sp, #48]
 153:Lib/AI_Runtime/Npu/ll_aton/ll_sw_float.c ****                        sw_info->operand_b.mem.start_offset, sw_info->operand_b.dim.num_elem, )
 154:Lib/AI_Runtime/Npu/ll_aton/ll_sw_float.c **** 
 155:Lib/AI_Runtime/Npu/ll_aton/ll_sw_float.c ****   AI_ARRAY_OBJ_DECLARE(gemm_operand_c_array, FORMAT, sw_info->operand_c.mem.start_offset,
 452              		.loc 1 155 3 view .LVU109
 453 000c 1093     		str	r3, [sp, #64]
 156:Lib/AI_Runtime/Npu/ll_aton/ll_sw_float.c ****                        sw_info->operand_c.mem.start_offset, sw_info->operand_c.dim.num_elem, )
 157:Lib/AI_Runtime/Npu/ll_aton/ll_sw_float.c **** 
 158:Lib/AI_Runtime/Npu/ll_aton/ll_sw_float.c ****   AI_ARRAY_OBJ_DECLARE(gemm_output_array, FORMAT, sw_info->general.output.mem.start_offset,
 454              		.loc 1 158 3 view .LVU110
 455 000e 1493     		str	r3, [sp, #80]
 456 0010 036C     		ldr	r3, [r0, #64]
 159:Lib/AI_Runtime/Npu/ll_aton/ll_sw_float.c ****                        sw_info->general.output.mem.start_offset, sw_info->general.output.dim.num_el
 160:Lib/AI_Runtime/Npu/ll_aton/ll_sw_float.c **** 
 161:Lib/AI_Runtime/Npu/ll_aton/ll_sw_float.c ****   AI_TENSOR_OBJ_DECLARE(input_output, , 0x0, 4,
 457              		.loc 1 161 3 view .LVU111
ARM GAS  C:\Users\DJESSOU\AppData\Local\Temp\ccdFeyMS.s 			page 13


 458 0012 4FF0827C 		mov	ip, #17039360
 158:Lib/AI_Runtime/Npu/ll_aton/ll_sw_float.c ****                        sw_info->general.output.mem.start_offset, sw_info->general.output.dim.num_el
 459              		.loc 1 158 3 view .LVU112
 460 0016 1593     		str	r3, [sp, #84]
 461 0018 436D     		ldr	r3, [r0, #84]
 462              		.loc 1 161 3 view .LVU113
 463 001a 40F20148 		movw	r8, #1025
 158:Lib/AI_Runtime/Npu/ll_aton/ll_sw_float.c ****                        sw_info->general.output.mem.start_offset, sw_info->general.output.dim.num_el
 464              		.loc 1 158 3 view .LVU114
 465 001e CDE91633 		strd	r3, r3, [sp, #88]
 466              		.loc 1 161 3 view .LVU115
 467 0022 0023     		movs	r3, #0
 468 0024 40F2024E 		movw	lr, #1026
 149:Lib/AI_Runtime/Npu/ll_aton/ll_sw_float.c ****                        sw_info->general.input.mem.start_offset, sw_info->general.input.dim.num_elem
 469              		.loc 1 149 3 view .LVU116
 470 0028 4269     		ldr	r2, [r0, #20]
 471              		.loc 1 161 3 view .LVU117
 472 002a 0669     		ldr	r6, [r0, #16]
 149:Lib/AI_Runtime/Npu/ll_aton/ll_sw_float.c ****                        sw_info->general.input.mem.start_offset, sw_info->general.input.dim.num_elem
 473              		.loc 1 149 3 view .LVU118
 474 002c 0992     		str	r2, [sp, #36]
 475 002e 826A     		ldr	r2, [r0, #40]
 476              		.loc 1 161 3 view .LVU119
 477 0030 CDE9383C 		strd	r3, ip, [sp, #224]
 149:Lib/AI_Runtime/Npu/ll_aton/ll_sw_float.c ****                        sw_info->general.input.mem.start_offset, sw_info->general.input.dim.num_elem
 478              		.loc 1 149 3 view .LVU120
 479 0034 CDE90A22 		strd	r2, r2, [sp, #40]
 152:Lib/AI_Runtime/Npu/ll_aton/ll_sw_float.c ****                        sw_info->operand_b.mem.start_offset, sw_info->operand_b.dim.num_elem, )
 480              		.loc 1 152 3 is_stmt 1 view .LVU121
 481 0038 C26E     		ldr	r2, [r0, #108]
 482              		.loc 1 161 3 is_stmt 0 view .LVU122
 483 003a CDF8E880 		str	r8, [sp, #232]
 152:Lib/AI_Runtime/Npu/ll_aton/ll_sw_float.c ****                        sw_info->operand_b.mem.start_offset, sw_info->operand_b.dim.num_elem, )
 484              		.loc 1 152 3 view .LVU123
 485 003e 0D92     		str	r2, [sp, #52]
 486 0040 D0F88020 		ldr	r2, [r0, #128]
 487              		.loc 1 161 3 view .LVU124
 488 0044 1896     		str	r6, [sp, #96]
 152:Lib/AI_Runtime/Npu/ll_aton/ll_sw_float.c ****                        sw_info->operand_b.mem.start_offset, sw_info->operand_b.dim.num_elem, )
 489              		.loc 1 152 3 view .LVU125
 490 0046 CDE90E22 		strd	r2, r2, [sp, #56]
 155:Lib/AI_Runtime/Npu/ll_aton/ll_sw_float.c ****                        sw_info->operand_c.mem.start_offset, sw_info->operand_c.dim.num_elem, )
 491              		.loc 1 155 3 is_stmt 1 view .LVU126
 492 004a D0F89820 		ldr	r2, [r0, #152]
 493              		.loc 1 161 3 is_stmt 0 view .LVU127
 494 004e 18AF     		add	r7, sp, #96
 155:Lib/AI_Runtime/Npu/ll_aton/ll_sw_float.c ****                        sw_info->operand_c.mem.start_offset, sw_info->operand_c.dim.num_elem, )
 495              		.loc 1 155 3 view .LVU128
 496 0050 1192     		str	r2, [sp, #68]
 497 0052 D0F8AC20 		ldr	r2, [r0, #172]
 149:Lib/AI_Runtime/Npu/ll_aton/ll_sw_float.c ****                        sw_info->general.input.mem.start_offset, sw_info->general.input.dim.num_elem
 498              		.loc 1 149 3 view .LVU129
 499 0056 08AD     		add	r5, sp, #32
 155:Lib/AI_Runtime/Npu/ll_aton/ll_sw_float.c ****                        sw_info->operand_c.mem.start_offset, sw_info->operand_c.dim.num_elem, )
 500              		.loc 1 155 3 view .LVU130
 501 0058 CDE91222 		strd	r2, r2, [sp, #72]
 158:Lib/AI_Runtime/Npu/ll_aton/ll_sw_float.c ****                        sw_info->general.output.mem.start_offset, sw_info->general.output.dim.num_el
ARM GAS  C:\Users\DJESSOU\AppData\Local\Temp\ccdFeyMS.s 			page 14


 502              		.loc 1 158 3 is_stmt 1 view .LVU131
 503              		.loc 1 161 3 view .LVU132
 504 005c C668     		ldr	r6, [r0, #12]
 505 005e 3B97     		str	r7, [sp, #236]
 506 0060 1996     		str	r6, [sp, #100]
 507 0062 8668     		ldr	r6, [r0, #8]
 508 0064 1CAF     		add	r7, sp, #112
 509 0066 CDE93D75 		strd	r7, r5, [sp, #244]
 162:Lib/AI_Runtime/Npu/ll_aton/ll_sw_float.c ****                         SHAPE_INIT(sw_info->general.input.dim.tensor_h, sw_info->general.input.dim.
 163:Lib/AI_Runtime/Npu/ll_aton/ll_sw_float.c ****                                    sw_info->general.input.dim.tensor_c, sw_info->general.input.dim.
 164:Lib/AI_Runtime/Npu/ll_aton/ll_sw_float.c ****                         STRIDE_INIT(sw_info->general.input.stride.h, sw_info->general.input.stride.
 165:Lib/AI_Runtime/Npu/ll_aton/ll_sw_float.c ****                                     sw_info->general.input.stride.c, sw_info->general.input.stride.
 166:Lib/AI_Runtime/Npu/ll_aton/ll_sw_float.c ****                         1, &input_output_array, NULL);
 510              		.loc 1 166 54 view .LVU133
 167:Lib/AI_Runtime/Npu/ll_aton/ll_sw_float.c ****   AI_TENSOR_OBJ_DECLARE(gemm_operand_b, , 0x0, 4,
 511              		.loc 1 167 3 view .LVU134
 161:Lib/AI_Runtime/Npu/ll_aton/ll_sw_float.c ****                         SHAPE_INIT(sw_info->general.input.dim.tensor_h, sw_info->general.input.dim.
 512              		.loc 1 161 3 is_stmt 0 view .LVU135
 513 006a 1A96     		str	r6, [sp, #104]
 514              		.loc 1 167 3 view .LVU136
 515 006c 856E     		ldr	r5, [r0, #104]
 161:Lib/AI_Runtime/Npu/ll_aton/ll_sw_float.c ****                         SHAPE_INIT(sw_info->general.input.dim.tensor_h, sw_info->general.input.dim.
 516              		.loc 1 161 3 view .LVU137
 517 006e 4668     		ldr	r6, [r0, #4]
 518              		.loc 1 167 3 view .LVU138
 519 0070 2095     		str	r5, [sp, #128]
 161:Lib/AI_Runtime/Npu/ll_aton/ll_sw_float.c ****                         SHAPE_INIT(sw_info->general.input.dim.tensor_h, sw_info->general.input.dim.
 520              		.loc 1 161 3 view .LVU139
 521 0072 1B96     		str	r6, [sp, #108]
 522              		.loc 1 167 3 view .LVU140
 523 0074 456E     		ldr	r5, [r0, #100]
 161:Lib/AI_Runtime/Npu/ll_aton/ll_sw_float.c ****                         SHAPE_INIT(sw_info->general.input.dim.tensor_h, sw_info->general.input.dim.
 524              		.loc 1 161 3 view .LVU141
 525 0076 466A     		ldr	r6, [r0, #36]
 526              		.loc 1 167 3 view .LVU142
 527 0078 2195     		str	r5, [sp, #132]
 161:Lib/AI_Runtime/Npu/ll_aton/ll_sw_float.c ****                         SHAPE_INIT(sw_info->general.input.dim.tensor_h, sw_info->general.input.dim.
 528              		.loc 1 161 3 view .LVU143
 529 007a 1C96     		str	r6, [sp, #112]
 530              		.loc 1 167 3 view .LVU144
 531 007c 056E     		ldr	r5, [r0, #96]
 161:Lib/AI_Runtime/Npu/ll_aton/ll_sw_float.c ****                         SHAPE_INIT(sw_info->general.input.dim.tensor_h, sw_info->general.input.dim.
 532              		.loc 1 161 3 view .LVU145
 533 007e 066A     		ldr	r6, [r0, #32]
 534              		.loc 1 167 3 view .LVU146
 535 0080 2295     		str	r5, [sp, #136]
 161:Lib/AI_Runtime/Npu/ll_aton/ll_sw_float.c ****                         SHAPE_INIT(sw_info->general.input.dim.tensor_h, sw_info->general.input.dim.
 536              		.loc 1 161 3 view .LVU147
 537 0082 1D96     		str	r6, [sp, #116]
 538              		.loc 1 167 3 view .LVU148
 539 0084 C56D     		ldr	r5, [r0, #92]
 161:Lib/AI_Runtime/Npu/ll_aton/ll_sw_float.c ****                         SHAPE_INIT(sw_info->general.input.dim.tensor_h, sw_info->general.input.dim.
 540              		.loc 1 161 3 view .LVU149
 541 0086 C669     		ldr	r6, [r0, #28]
 542              		.loc 1 167 3 view .LVU150
 543 0088 20AF     		add	r7, sp, #128
 161:Lib/AI_Runtime/Npu/ll_aton/ll_sw_float.c ****                         SHAPE_INIT(sw_info->general.input.dim.tensor_h, sw_info->general.input.dim.
ARM GAS  C:\Users\DJESSOU\AppData\Local\Temp\ccdFeyMS.s 			page 15


 544              		.loc 1 161 3 view .LVU151
 545 008a 1E96     		str	r6, [sp, #120]
 546              		.loc 1 167 3 view .LVU152
 547 008c 2395     		str	r5, [sp, #140]
 161:Lib/AI_Runtime/Npu/ll_aton/ll_sw_float.c ****                         SHAPE_INIT(sw_info->general.input.dim.tensor_h, sw_info->general.input.dim.
 548              		.loc 1 161 3 view .LVU153
 549 008e 8669     		ldr	r6, [r0, #24]
 550              		.loc 1 167 3 view .LVU154
 551 0090 C56F     		ldr	r5, [r0, #124]
 552 0092 CDE9427E 		strd	r7, lr, [sp, #264]
 152:Lib/AI_Runtime/Npu/ll_aton/ll_sw_float.c ****                        sw_info->operand_b.mem.start_offset, sw_info->operand_b.dim.num_elem, )
 553              		.loc 1 152 3 view .LVU155
 554 0096 0CAC     		add	r4, sp, #48
 555              		.loc 1 167 3 view .LVU156
 556 0098 24AF     		add	r7, sp, #144
 557 009a CDE93F3C 		strd	r3, ip, [sp, #252]
 161:Lib/AI_Runtime/Npu/ll_aton/ll_sw_float.c ****                         SHAPE_INIT(sw_info->general.input.dim.tensor_h, sw_info->general.input.dim.
 558              		.loc 1 161 3 view .LVU157
 559 009e CDF8F0E0 		str	lr, [sp, #240]
 560 00a2 1F96     		str	r6, [sp, #124]
 561              		.loc 1 167 3 view .LVU158
 562 00a4 CDF80481 		str	r8, [sp, #260]
 563 00a8 2495     		str	r5, [sp, #144]
 564 00aa CDE94474 		strd	r7, r4, [sp, #272]
 168:Lib/AI_Runtime/Npu/ll_aton/ll_sw_float.c ****                         SHAPE_INIT(sw_info->operand_b.dim.tensor_h, sw_info->operand_b.dim.tensor_w
 169:Lib/AI_Runtime/Npu/ll_aton/ll_sw_float.c ****                                    sw_info->operand_b.dim.tensor_c, sw_info->operand_b.dim.tensor_b
 170:Lib/AI_Runtime/Npu/ll_aton/ll_sw_float.c ****                         STRIDE_INIT(sw_info->operand_b.stride.h, sw_info->operand_b.stride.w,
 171:Lib/AI_Runtime/Npu/ll_aton/ll_sw_float.c ****                                     sw_info->operand_b.stride.c, sw_info->operand_b.stride.b),
 172:Lib/AI_Runtime/Npu/ll_aton/ll_sw_float.c ****                         1, &gemm_operand_b_array, NULL);
 565              		.loc 1 172 56 is_stmt 1 view .LVU159
 173:Lib/AI_Runtime/Npu/ll_aton/ll_sw_float.c ****   AI_TENSOR_OBJ_DECLARE(gemm_operand_c, , 0x0, 4,
 566              		.loc 1 173 3 view .LVU160
 567 00ae D0F89440 		ldr	r4, [r0, #148]
 167:Lib/AI_Runtime/Npu/ll_aton/ll_sw_float.c ****                         SHAPE_INIT(sw_info->operand_b.dim.tensor_h, sw_info->operand_b.dim.tensor_w
 568              		.loc 1 167 3 is_stmt 0 view .LVU161
 569 00b2 856F     		ldr	r5, [r0, #120]
 570              		.loc 1 173 3 view .LVU162
 571 00b4 2894     		str	r4, [sp, #160]
 572 00b6 D0F89040 		ldr	r4, [r0, #144]
 167:Lib/AI_Runtime/Npu/ll_aton/ll_sw_float.c ****                         SHAPE_INIT(sw_info->operand_b.dim.tensor_h, sw_info->operand_b.dim.tensor_w
 573              		.loc 1 167 3 view .LVU163
 574 00ba 2595     		str	r5, [sp, #148]
 575              		.loc 1 173 3 view .LVU164
 576 00bc 2994     		str	r4, [sp, #164]
 577 00be D0F88C40 		ldr	r4, [r0, #140]
 167:Lib/AI_Runtime/Npu/ll_aton/ll_sw_float.c ****                         SHAPE_INIT(sw_info->operand_b.dim.tensor_h, sw_info->operand_b.dim.tensor_w
 578              		.loc 1 167 3 view .LVU165
 579 00c2 456F     		ldr	r5, [r0, #116]
 580              		.loc 1 173 3 view .LVU166
 581 00c4 2A94     		str	r4, [sp, #168]
 582 00c6 D0F88840 		ldr	r4, [r0, #136]
 167:Lib/AI_Runtime/Npu/ll_aton/ll_sw_float.c ****                         SHAPE_INIT(sw_info->operand_b.dim.tensor_h, sw_info->operand_b.dim.tensor_w
 583              		.loc 1 167 3 view .LVU167
 584 00ca 2695     		str	r5, [sp, #152]
 585              		.loc 1 173 3 view .LVU168
 586 00cc 2B94     		str	r4, [sp, #172]
 587 00ce D0F8A840 		ldr	r4, [r0, #168]
ARM GAS  C:\Users\DJESSOU\AppData\Local\Temp\ccdFeyMS.s 			page 16


 167:Lib/AI_Runtime/Npu/ll_aton/ll_sw_float.c ****                         SHAPE_INIT(sw_info->operand_b.dim.tensor_h, sw_info->operand_b.dim.tensor_w
 588              		.loc 1 167 3 view .LVU169
 589 00d2 056F     		ldr	r5, [r0, #112]
 590              		.loc 1 173 3 view .LVU170
 591 00d4 2C94     		str	r4, [sp, #176]
 592 00d6 D0F8A440 		ldr	r4, [r0, #164]
 155:Lib/AI_Runtime/Npu/ll_aton/ll_sw_float.c ****                        sw_info->operand_c.mem.start_offset, sw_info->operand_c.dim.num_elem, )
 593              		.loc 1 155 3 view .LVU171
 594 00da 10A9     		add	r1, sp, #64
 595              		.loc 1 173 3 view .LVU172
 596 00dc 2D94     		str	r4, [sp, #180]
 597 00de D0F8A040 		ldr	r4, [r0, #160]
 167:Lib/AI_Runtime/Npu/ll_aton/ll_sw_float.c ****                         SHAPE_INIT(sw_info->operand_b.dim.tensor_h, sw_info->operand_b.dim.tensor_w
 598              		.loc 1 167 3 view .LVU173
 599 00e2 2795     		str	r5, [sp, #156]
 600              		.loc 1 173 3 view .LVU174
 601 00e4 2E94     		str	r4, [sp, #184]
 602 00e6 D0F89C40 		ldr	r4, [r0, #156]
 603 00ea 28AD     		add	r5, sp, #160
 604 00ec 2F94     		str	r4, [sp, #188]
 605 00ee 2CAC     		add	r4, sp, #176
 606 00f0 CDE9463C 		strd	r3, ip, [sp, #280]
 607 00f4 CDE94B41 		strd	r4, r1, [sp, #300]
 174:Lib/AI_Runtime/Npu/ll_aton/ll_sw_float.c ****                         SHAPE_INIT(sw_info->operand_c.dim.tensor_h, sw_info->operand_c.dim.tensor_w
 175:Lib/AI_Runtime/Npu/ll_aton/ll_sw_float.c ****                                    sw_info->operand_c.dim.tensor_c, sw_info->operand_c.dim.tensor_b
 176:Lib/AI_Runtime/Npu/ll_aton/ll_sw_float.c ****                         STRIDE_INIT(sw_info->operand_c.stride.h, sw_info->operand_c.stride.w,
 177:Lib/AI_Runtime/Npu/ll_aton/ll_sw_float.c ****                                     sw_info->operand_c.stride.c, sw_info->operand_c.stride.b),
 178:Lib/AI_Runtime/Npu/ll_aton/ll_sw_float.c ****                         1, &gemm_operand_c_array, NULL);
 608              		.loc 1 178 56 is_stmt 1 view .LVU175
 179:Lib/AI_Runtime/Npu/ll_aton/ll_sw_float.c **** 
 180:Lib/AI_Runtime/Npu/ll_aton/ll_sw_float.c ****   AI_TENSOR_OBJ_DECLARE(gemm_output, , 0x0, 4,
 609              		.loc 1 180 3 view .LVU176
 173:Lib/AI_Runtime/Npu/ll_aton/ll_sw_float.c ****                         SHAPE_INIT(sw_info->operand_c.dim.tensor_h, sw_info->operand_c.dim.tensor_w
 610              		.loc 1 173 3 is_stmt 0 view .LVU177
 611 00f8 CDE9495E 		strd	r5, lr, [sp, #292]
 612 00fc CDF82081 		str	r8, [sp, #288]
 613              		.loc 1 180 3 view .LVU178
 614 0100 CDE94D3C 		strd	r3, ip, [sp, #308]
 615 0104 C16B     		ldr	r1, [r0, #60]
 158:Lib/AI_Runtime/Npu/ll_aton/ll_sw_float.c ****                        sw_info->general.output.mem.start_offset, sw_info->general.output.dim.num_el
 616              		.loc 1 158 3 view .LVU179
 617 0106 14AA     		add	r2, sp, #80
 618              		.loc 1 180 3 view .LVU180
 619 0108 3091     		str	r1, [sp, #192]
 620 010a 816B     		ldr	r1, [r0, #56]
 181:Lib/AI_Runtime/Npu/ll_aton/ll_sw_float.c ****                         SHAPE_INIT(sw_info->general.output.dim.tensor_h, sw_info->general.output.di
 182:Lib/AI_Runtime/Npu/ll_aton/ll_sw_float.c ****                                    sw_info->general.output.dim.tensor_c, sw_info->general.output.di
 183:Lib/AI_Runtime/Npu/ll_aton/ll_sw_float.c ****                         STRIDE_INIT(sw_info->general.output.stride.h, sw_info->general.output.strid
 184:Lib/AI_Runtime/Npu/ll_aton/ll_sw_float.c ****                                     sw_info->general.output.stride.c, sw_info->general.output.strid
 185:Lib/AI_Runtime/Npu/ll_aton/ll_sw_float.c ****                         1, &gemm_output_array, NULL);
 186:Lib/AI_Runtime/Npu/ll_aton/ll_sw_float.c ****   // tensor chain initialization
 187:Lib/AI_Runtime/Npu/ll_aton/ll_sw_float.c ****   AI_TENSOR_CHAIN_OBJ_DECLARE(
 621              		.loc 1 187 3 view .LVU181
 622 010c 38AC     		add	r4, sp, #224
 180:Lib/AI_Runtime/Npu/ll_aton/ll_sw_float.c ****                         SHAPE_INIT(sw_info->general.output.dim.tensor_h, sw_info->general.output.di
 623              		.loc 1 180 3 view .LVU182
 624 010e 3191     		str	r1, [sp, #196]
ARM GAS  C:\Users\DJESSOU\AppData\Local\Temp\ccdFeyMS.s 			page 17


 625 0110 416B     		ldr	r1, [r0, #52]
 626              		.loc 1 187 3 view .LVU183
 627 0112 0594     		str	r4, [sp, #20]
 180:Lib/AI_Runtime/Npu/ll_aton/ll_sw_float.c ****                         SHAPE_INIT(sw_info->general.output.dim.tensor_h, sw_info->general.output.di
 628              		.loc 1 180 3 view .LVU184
 629 0114 3291     		str	r1, [sp, #200]
 630 0116 016B     		ldr	r1, [r0, #48]
 631              		.loc 1 187 3 view .LVU185
 632 0118 3FAC     		add	r4, sp, #252
 180:Lib/AI_Runtime/Npu/ll_aton/ll_sw_float.c ****                         SHAPE_INIT(sw_info->general.output.dim.tensor_h, sw_info->general.output.di
 633              		.loc 1 180 3 view .LVU186
 634 011a 3391     		str	r1, [sp, #204]
 635 011c 30A9     		add	r1, sp, #192
 636 011e CDE9501E 		strd	r1, lr, [sp, #320]
 637 0122 016D     		ldr	r1, [r0, #80]
 638              		.loc 1 187 3 view .LVU187
 639 0124 0694     		str	r4, [sp, #24]
 180:Lib/AI_Runtime/Npu/ll_aton/ll_sw_float.c ****                         SHAPE_INIT(sw_info->general.output.dim.tensor_h, sw_info->general.output.di
 640              		.loc 1 180 3 view .LVU188
 641 0126 3491     		str	r1, [sp, #208]
 642 0128 C16C     		ldr	r1, [r0, #76]
 643              		.loc 1 187 3 view .LVU189
 644 012a 46AC     		add	r4, sp, #280
 180:Lib/AI_Runtime/Npu/ll_aton/ll_sw_float.c ****                         SHAPE_INIT(sw_info->general.output.dim.tensor_h, sw_info->general.output.di
 645              		.loc 1 180 3 view .LVU190
 646 012c 3591     		str	r1, [sp, #212]
 647 012e 816C     		ldr	r1, [r0, #72]
 648 0130 CDF83C81 		str	r8, [sp, #316]
 649 0134 3691     		str	r1, [sp, #216]
 650 0136 416C     		ldr	r1, [r0, #68]
 651              		.loc 1 187 3 view .LVU191
 652 0138 0794     		str	r4, [sp, #28]
 180:Lib/AI_Runtime/Npu/ll_aton/ll_sw_float.c ****                         SHAPE_INIT(sw_info->general.output.dim.tensor_h, sw_info->general.output.di
 653              		.loc 1 180 3 view .LVU192
 654 013a 3791     		str	r1, [sp, #220]
 655 013c 34A9     		add	r1, sp, #208
 656 013e CDE95212 		strd	r1, r2, [sp, #328]
 185:Lib/AI_Runtime/Npu/ll_aton/ll_sw_float.c ****   // tensor chain initialization
 657              		.loc 1 185 53 is_stmt 1 view .LVU193
 658              		.loc 1 187 3 view .LVU194
 659 0142 0422     		movs	r2, #4
 660 0144 0392     		str	r2, [sp, #12]
 661 0146 0322     		movs	r2, #3
 662 0148 5E92     		str	r2, [sp, #376]
 663 014a 05AA     		add	r2, sp, #20
 664 014c CDE95F23 		strd	r2, r3, [sp, #380]
 665 0150 0122     		movs	r2, #1
 666 0152 6192     		str	r2, [sp, #388]
 667 0154 4DAA     		add	r2, sp, #308
 668 0156 0092     		str	r2, [sp]
 669 0158 01AA     		add	r2, sp, #4
 670 015a CDF888D1 		str	sp, [sp, #392]
 671 015e CDE96333 		strd	r3, r3, [sp, #396]
 672 0162 CDE96523 		strd	r2, r3, [sp, #404]
 673 0166 02AA     		add	r2, sp, #8
 674 0168 CDE96823 		strd	r2, r3, [sp, #416]
 675 016c 5EAA     		add	r2, sp, #376
ARM GAS  C:\Users\DJESSOU\AppData\Local\Temp\ccdFeyMS.s 			page 18


 676 016e 0492     		str	r2, [sp, #16]
 188:Lib/AI_Runtime/Npu/ll_aton/ll_sw_float.c ****       gemm_chain, , 4,
 189:Lib/AI_Runtime/Npu/ll_aton/ll_sw_float.c ****       AI_TENSOR_LIST_OBJ_INIT(AI_FLAG_NONE, 3, TENSORS(&input_output, &gemm_operand_b, &gemm_operan
 190:Lib/AI_Runtime/Npu/ll_aton/ll_sw_float.c ****       AI_TENSOR_LIST_OBJ_INIT(AI_FLAG_NONE, 1, TENSORS(&gemm_output)), AI_TENSOR_LIST_OBJ_EMPTY,
 191:Lib/AI_Runtime/Npu/ll_aton/ll_sw_float.c ****       AI_TENSOR_LIST_OBJ_EMPTY)
 192:Lib/AI_Runtime/Npu/ll_aton/ll_sw_float.c ****   // layer initialization
 193:Lib/AI_Runtime/Npu/ll_aton/ll_sw_float.c ****   AI_LAYER_OBJ_DECLARE(gemm_layer, 1, GEMM_TYPE, 0x0, NULL, gemm, forward_gemm, &gemm_chain, NULL, 
 677              		.loc 1 193 3 view .LVU195
 678 0170 0F4A     		ldr	r2, .L8+4
 679 0172 CDE95633 		strd	r3, r3, [sp, #344]
 680 0176 CDE95423 		strd	r2, r3, [sp, #336]
 187:Lib/AI_Runtime/Npu/ll_aton/ll_sw_float.c ****       gemm_chain, , 4,
 681              		.loc 1 187 3 is_stmt 0 view .LVU196
 682 017a 0193     		str	r3, [sp, #4]
 683 017c 6793     		str	r3, [sp, #412]
 684 017e 0293     		str	r3, [sp, #8]
 685              		.loc 1 193 3 view .LVU197
 686 0180 5893     		str	r3, [sp, #352]
 687 0182 0C4B     		ldr	r3, .L8+8
 187:Lib/AI_Runtime/Npu/ll_aton/ll_sw_float.c ****       gemm_chain, , 4,
 688              		.loc 1 187 3 view .LVU198
 689 0184 03A9     		add	r1, sp, #12
 690              		.loc 1 193 3 view .LVU199
 691 0186 CDE95931 		strd	r3, r1, [sp, #356]
 692 018a D0F8B830 		ldr	r3, [r0, #184]	@ float
 693 018e D0F8B420 		ldr	r2, [r0, #180]	@ float
 694 0192 5C93     		str	r3, [sp, #368]	@ float
 695 0194 B0F8BC30 		ldrh	r3, [r0, #188]
 194:Lib/AI_Runtime/Npu/ll_aton/ll_sw_float.c ****                        .alpha = sw_info->alpha, .beta = sw_info->beta, .tA = sw_info->tA, .tB = sw_
 195:Lib/AI_Runtime/Npu/ll_aton/ll_sw_float.c ****   gemm_layer.forward(AI_LAYER_OBJ(&gemm_layer));
 696              		.loc 1 195 3 view .LVU200
 697 0198 54A8     		add	r0, sp, #336
 698              	.LVL8:
 193:Lib/AI_Runtime/Npu/ll_aton/ll_sw_float.c ****                        .alpha = sw_info->alpha, .beta = sw_info->beta, .tA = sw_info->tA, .tB = sw_
 699              		.loc 1 193 3 view .LVU201
 700 019a 5B92     		str	r2, [sp, #364]	@ float
 701 019c ADF87431 		strh	r3, [sp, #372]	@ movhi
 702              		.loc 1 195 3 is_stmt 1 view .LVU202
 703 01a0 FFF7FEFF 		bl	forward_gemm
 704              	.LVL9:
 196:Lib/AI_Runtime/Npu/ll_aton/ll_sw_float.c **** }
 705              		.loc 1 196 1 is_stmt 0 view .LVU203
 706 01a4 6AB0     		add	sp, sp, #424
 707              		.cfi_def_cfa_offset 24
 708              		@ sp needed
 709 01a6 BDE8F081 		pop	{r4, r5, r6, r7, r8, pc}
 710              	.L9:
 711 01aa 00BF     		.align	2
 712              	.L8:
 713 01ac 40108200 		.word	8523840
 714 01b0 11010100 		.word	65809
 715 01b4 00000000 		.word	forward_gemm
 716              		.cfi_endproc
 717              	.LFE16:
 719              		.section	.text.ll_sw_forward_matmul,"ax",%progbits
 720              		.align	1
 721              		.global	ll_sw_forward_matmul
ARM GAS  C:\Users\DJESSOU\AppData\Local\Temp\ccdFeyMS.s 			page 19


 722              		.syntax unified
 723              		.thumb
 724              		.thumb_func
 726              	ll_sw_forward_matmul:
 727              	.LVL10:
 728              	.LFB17:
 197:Lib/AI_Runtime/Npu/ll_aton/ll_sw_float.c **** 
 198:Lib/AI_Runtime/Npu/ll_aton/ll_sw_float.c **** //##########################################################################################
 199:Lib/AI_Runtime/Npu/ll_aton/ll_sw_float.c **** /** MatMul forward function */
 200:Lib/AI_Runtime/Npu/ll_aton/ll_sw_float.c **** void ll_sw_forward_matmul(/* int processor, */ void *sw_info_struct)
 201:Lib/AI_Runtime/Npu/ll_aton/ll_sw_float.c **** {
 729              		.loc 1 201 1 is_stmt 1 view -0
 730              		.cfi_startproc
 731              		@ args = 0, pretend = 0, frame = 336
 732              		@ frame_needed = 0, uses_anonymous_args = 0
 202:Lib/AI_Runtime/Npu/ll_aton/ll_sw_float.c ****   Matmul_sw_info *sw_info = (Matmul_sw_info *)sw_info_struct;
 733              		.loc 1 202 3 view .LVU205
 203:Lib/AI_Runtime/Npu/ll_aton/ll_sw_float.c ****   // array init
 204:Lib/AI_Runtime/Npu/ll_aton/ll_sw_float.c ****   AI_ARRAY_OBJ_DECLARE(input_output_array, FORMAT, sw_info->general.input.mem.start_offset,
 734              		.loc 1 204 3 view .LVU206
 201:Lib/AI_Runtime/Npu/ll_aton/ll_sw_float.c ****   Matmul_sw_info *sw_info = (Matmul_sw_info *)sw_info_struct;
 735              		.loc 1 201 1 is_stmt 0 view .LVU207
 736 0000 F0B5     		push	{r4, r5, r6, r7, lr}
 737              		.cfi_def_cfa_offset 20
 738              		.cfi_offset 4, -20
 739              		.cfi_offset 5, -16
 740              		.cfi_offset 6, -12
 741              		.cfi_offset 7, -8
 742              		.cfi_offset 14, -4
 743              		.loc 1 204 3 view .LVU208
 744 0002 4B49     		ldr	r1, .L11
 201:Lib/AI_Runtime/Npu/ll_aton/ll_sw_float.c ****   Matmul_sw_info *sw_info = (Matmul_sw_info *)sw_info_struct;
 745              		.loc 1 201 1 view .LVU209
 746 0004 D5B0     		sub	sp, sp, #340
 747              		.cfi_def_cfa_offset 360
 748              		.loc 1 204 3 view .LVU210
 749 0006 0791     		str	r1, [sp, #28]
 205:Lib/AI_Runtime/Npu/ll_aton/ll_sw_float.c ****                        sw_info->general.input.mem.start_offset, sw_info->general.input.dim.num_elem
 206:Lib/AI_Runtime/Npu/ll_aton/ll_sw_float.c **** 
 207:Lib/AI_Runtime/Npu/ll_aton/ll_sw_float.c ****   AI_ARRAY_OBJ_DECLARE(matmul_operand_b_array, FORMAT, sw_info->operand_b.mem.start_offset,
 750              		.loc 1 207 3 view .LVU211
 751 0008 0B91     		str	r1, [sp, #44]
 208:Lib/AI_Runtime/Npu/ll_aton/ll_sw_float.c ****                        sw_info->operand_b.mem.start_offset, sw_info->operand_b.dim.num_elem, )
 209:Lib/AI_Runtime/Npu/ll_aton/ll_sw_float.c **** 
 210:Lib/AI_Runtime/Npu/ll_aton/ll_sw_float.c ****   AI_ARRAY_OBJ_DECLARE(matmul_output_array, FORMAT, sw_info->general.output.mem.start_offset,
 752              		.loc 1 210 3 view .LVU212
 753 000a 0F91     		str	r1, [sp, #60]
 754 000c 016C     		ldr	r1, [r0, #64]
 211:Lib/AI_Runtime/Npu/ll_aton/ll_sw_float.c ****                        sw_info->general.output.mem.start_offset, sw_info->general.output.dim.num_el
 212:Lib/AI_Runtime/Npu/ll_aton/ll_sw_float.c **** 
 213:Lib/AI_Runtime/Npu/ll_aton/ll_sw_float.c ****   AI_TENSOR_OBJ_DECLARE(input_output, , 0x0, 4,
 755              		.loc 1 213 3 view .LVU213
 756 000e 4FF0827C 		mov	ip, #17039360
 210:Lib/AI_Runtime/Npu/ll_aton/ll_sw_float.c ****                        sw_info->general.output.mem.start_offset, sw_info->general.output.dim.num_el
 757              		.loc 1 210 3 view .LVU214
 758 0012 1091     		str	r1, [sp, #64]
 759 0014 416D     		ldr	r1, [r0, #84]
ARM GAS  C:\Users\DJESSOU\AppData\Local\Temp\ccdFeyMS.s 			page 20


 760              		.loc 1 213 3 view .LVU215
 761 0016 40F20146 		movw	r6, #1025
 210:Lib/AI_Runtime/Npu/ll_aton/ll_sw_float.c ****                        sw_info->general.output.mem.start_offset, sw_info->general.output.dim.num_el
 762              		.loc 1 210 3 view .LVU216
 763 001a CDE91111 		strd	r1, r1, [sp, #68]
 764              		.loc 1 213 3 view .LVU217
 765 001e 0021     		movs	r1, #0
 766 0020 0769     		ldr	r7, [r0, #16]
 204:Lib/AI_Runtime/Npu/ll_aton/ll_sw_float.c ****                        sw_info->general.input.mem.start_offset, sw_info->general.input.dim.num_elem
 767              		.loc 1 204 3 view .LVU218
 768 0022 4369     		ldr	r3, [r0, #20]
 769              		.loc 1 213 3 view .LVU219
 770 0024 1397     		str	r7, [sp, #76]
 771 0026 C768     		ldr	r7, [r0, #12]
 204:Lib/AI_Runtime/Npu/ll_aton/ll_sw_float.c ****                        sw_info->general.input.mem.start_offset, sw_info->general.input.dim.num_elem
 772              		.loc 1 204 3 view .LVU220
 773 0028 0893     		str	r3, [sp, #32]
 774              		.loc 1 213 3 view .LVU221
 775 002a 1497     		str	r7, [sp, #80]
 776 002c 8768     		ldr	r7, [r0, #8]
 204:Lib/AI_Runtime/Npu/ll_aton/ll_sw_float.c ****                        sw_info->general.input.mem.start_offset, sw_info->general.input.dim.num_elem
 777              		.loc 1 204 3 view .LVU222
 778 002e 836A     		ldr	r3, [r0, #40]
 779              		.loc 1 213 3 view .LVU223
 780 0030 1597     		str	r7, [sp, #84]
 781 0032 4768     		ldr	r7, [r0, #4]
 204:Lib/AI_Runtime/Npu/ll_aton/ll_sw_float.c ****                        sw_info->general.input.mem.start_offset, sw_info->general.input.dim.num_elem
 782              		.loc 1 204 3 view .LVU224
 783 0034 CDE90933 		strd	r3, r3, [sp, #36]
 207:Lib/AI_Runtime/Npu/ll_aton/ll_sw_float.c ****                        sw_info->operand_b.mem.start_offset, sw_info->operand_b.dim.num_elem, )
 784              		.loc 1 207 3 is_stmt 1 view .LVU225
 785              		.loc 1 213 3 is_stmt 0 view .LVU226
 786 0038 1697     		str	r7, [sp, #88]
 787 003a 40F20247 		movw	r7, #1026
 207:Lib/AI_Runtime/Npu/ll_aton/ll_sw_float.c ****                        sw_info->operand_b.mem.start_offset, sw_info->operand_b.dim.num_elem, )
 788              		.loc 1 207 3 view .LVU227
 789 003e C36E     		ldr	r3, [r0, #108]
 790              		.loc 1 213 3 view .LVU228
 791 0040 13AD     		add	r5, sp, #76
 207:Lib/AI_Runtime/Npu/ll_aton/ll_sw_float.c ****                        sw_info->operand_b.mem.start_offset, sw_info->operand_b.dim.num_elem, )
 792              		.loc 1 207 3 view .LVU229
 793 0042 0C93     		str	r3, [sp, #48]
 794 0044 D0F88030 		ldr	r3, [r0, #128]
 795              		.loc 1 213 3 view .LVU230
 796 0048 CDE92B1C 		strd	r1, ip, [sp, #172]
 207:Lib/AI_Runtime/Npu/ll_aton/ll_sw_float.c ****                        sw_info->operand_b.mem.start_offset, sw_info->operand_b.dim.num_elem, )
 797              		.loc 1 207 3 view .LVU231
 798 004c CDE90D33 		strd	r3, r3, [sp, #52]
 210:Lib/AI_Runtime/Npu/ll_aton/ll_sw_float.c ****                        sw_info->general.output.mem.start_offset, sw_info->general.output.dim.num_el
 799              		.loc 1 210 3 is_stmt 1 view .LVU232
 800              		.loc 1 213 3 view .LVU233
 801 0050 2D96     		str	r6, [sp, #180]
 802 0052 2E95     		str	r5, [sp, #184]
 803 0054 456A     		ldr	r5, [r0, #36]
 204:Lib/AI_Runtime/Npu/ll_aton/ll_sw_float.c ****                        sw_info->general.input.mem.start_offset, sw_info->general.input.dim.num_elem
 804              		.loc 1 204 3 is_stmt 0 view .LVU234
 805 0056 07AC     		add	r4, sp, #28
ARM GAS  C:\Users\DJESSOU\AppData\Local\Temp\ccdFeyMS.s 			page 21


 806              		.loc 1 213 3 view .LVU235
 807 0058 1795     		str	r5, [sp, #92]
 808 005a 056A     		ldr	r5, [r0, #32]
 207:Lib/AI_Runtime/Npu/ll_aton/ll_sw_float.c ****                        sw_info->operand_b.mem.start_offset, sw_info->operand_b.dim.num_elem, )
 809              		.loc 1 207 3 view .LVU236
 810 005c 0BAA     		add	r2, sp, #44
 811              		.loc 1 213 3 view .LVU237
 812 005e 1895     		str	r5, [sp, #96]
 813 0060 C569     		ldr	r5, [r0, #28]
 214:Lib/AI_Runtime/Npu/ll_aton/ll_sw_float.c ****                         SHAPE_INIT(sw_info->general.input.dim.tensor_h, sw_info->general.input.dim.
 215:Lib/AI_Runtime/Npu/ll_aton/ll_sw_float.c ****                                    sw_info->general.input.dim.tensor_c, sw_info->general.input.dim.
 216:Lib/AI_Runtime/Npu/ll_aton/ll_sw_float.c ****                         STRIDE_INIT(sw_info->general.input.stride.h, sw_info->general.input.stride.
 217:Lib/AI_Runtime/Npu/ll_aton/ll_sw_float.c ****                                     sw_info->general.input.stride.c, sw_info->general.input.stride.
 218:Lib/AI_Runtime/Npu/ll_aton/ll_sw_float.c ****                         1, &input_output_array, NULL);
 219:Lib/AI_Runtime/Npu/ll_aton/ll_sw_float.c ****   AI_TENSOR_OBJ_DECLARE(matmul_operand_b, , 0x0, 4,
 814              		.loc 1 219 3 view .LVU238
 815 0062 CDE9321C 		strd	r1, ip, [sp, #200]
 213:Lib/AI_Runtime/Npu/ll_aton/ll_sw_float.c ****                         SHAPE_INIT(sw_info->general.input.dim.tensor_h, sw_info->general.input.dim.
 816              		.loc 1 213 3 view .LVU239
 817 0066 1995     		str	r5, [sp, #100]
 818 0068 8569     		ldr	r5, [r0, #24]
 819 006a 2F97     		str	r7, [sp, #188]
 820 006c 1A95     		str	r5, [sp, #104]
 821 006e 17AD     		add	r5, sp, #92
 822 0070 CDE93054 		strd	r5, r4, [sp, #192]
 218:Lib/AI_Runtime/Npu/ll_aton/ll_sw_float.c ****   AI_TENSOR_OBJ_DECLARE(matmul_operand_b, , 0x0, 4,
 823              		.loc 1 218 54 is_stmt 1 view .LVU240
 824              		.loc 1 219 3 view .LVU241
 825 0074 846E     		ldr	r4, [r0, #104]
 826 0076 3496     		str	r6, [sp, #208]
 827 0078 1B94     		str	r4, [sp, #108]
 828 007a 446E     		ldr	r4, [r0, #100]
 210:Lib/AI_Runtime/Npu/ll_aton/ll_sw_float.c ****                        sw_info->general.output.mem.start_offset, sw_info->general.output.dim.num_el
 829              		.loc 1 210 3 is_stmt 0 view .LVU242
 830 007c 0FAB     		add	r3, sp, #60
 831              		.loc 1 219 3 view .LVU243
 832 007e 1C94     		str	r4, [sp, #112]
 833 0080 046E     		ldr	r4, [r0, #96]
 834 0082 1D94     		str	r4, [sp, #116]
 835 0084 C46D     		ldr	r4, [r0, #92]
 836 0086 1E94     		str	r4, [sp, #120]
 837 0088 1BAC     		add	r4, sp, #108
 838 008a CDE93547 		strd	r4, r7, [sp, #212]
 839 008e C46F     		ldr	r4, [r0, #124]
 840 0090 1F94     		str	r4, [sp, #124]
 841 0092 846F     		ldr	r4, [r0, #120]
 842 0094 2094     		str	r4, [sp, #128]
 843 0096 446F     		ldr	r4, [r0, #116]
 844 0098 2194     		str	r4, [sp, #132]
 845 009a 046F     		ldr	r4, [r0, #112]
 846 009c 2294     		str	r4, [sp, #136]
 847 009e 1FAC     		add	r4, sp, #124
 848 00a0 CDE93742 		strd	r4, r2, [sp, #220]
 220:Lib/AI_Runtime/Npu/ll_aton/ll_sw_float.c ****                         SHAPE_INIT(sw_info->operand_b.dim.tensor_h, sw_info->operand_b.dim.tensor_w
 221:Lib/AI_Runtime/Npu/ll_aton/ll_sw_float.c ****                                    sw_info->operand_b.dim.tensor_c, sw_info->operand_b.dim.tensor_b
 222:Lib/AI_Runtime/Npu/ll_aton/ll_sw_float.c ****                         STRIDE_INIT(sw_info->operand_b.stride.h, sw_info->operand_b.stride.w,
 223:Lib/AI_Runtime/Npu/ll_aton/ll_sw_float.c ****                                     sw_info->operand_b.stride.c, sw_info->operand_b.stride.b),
ARM GAS  C:\Users\DJESSOU\AppData\Local\Temp\ccdFeyMS.s 			page 22


 224:Lib/AI_Runtime/Npu/ll_aton/ll_sw_float.c ****                         1, &matmul_operand_b_array, NULL);
 849              		.loc 1 224 58 is_stmt 1 view .LVU244
 225:Lib/AI_Runtime/Npu/ll_aton/ll_sw_float.c **** 
 226:Lib/AI_Runtime/Npu/ll_aton/ll_sw_float.c ****   AI_TENSOR_OBJ_DECLARE(matmul_output, , 0x0, 4,
 850              		.loc 1 226 3 view .LVU245
 851 00a4 C26B     		ldr	r2, [r0, #60]
 852 00a6 CDE9391C 		strd	r1, ip, [sp, #228]
 853 00aa 2392     		str	r2, [sp, #140]
 854 00ac 826B     		ldr	r2, [r0, #56]
 855 00ae 3B96     		str	r6, [sp, #236]
 856 00b0 2492     		str	r2, [sp, #144]
 857 00b2 426B     		ldr	r2, [r0, #52]
 227:Lib/AI_Runtime/Npu/ll_aton/ll_sw_float.c ****                         SHAPE_INIT(sw_info->general.output.dim.tensor_h, sw_info->general.output.di
 228:Lib/AI_Runtime/Npu/ll_aton/ll_sw_float.c ****                                    sw_info->general.output.dim.tensor_c, sw_info->general.output.di
 229:Lib/AI_Runtime/Npu/ll_aton/ll_sw_float.c ****                         STRIDE_INIT(sw_info->general.output.stride.h, sw_info->general.output.strid
 230:Lib/AI_Runtime/Npu/ll_aton/ll_sw_float.c ****                                     sw_info->general.output.stride.c, sw_info->general.output.strid
 231:Lib/AI_Runtime/Npu/ll_aton/ll_sw_float.c ****                         1, &matmul_output_array, NULL);
 232:Lib/AI_Runtime/Npu/ll_aton/ll_sw_float.c ****   // tensor chain initialization
 233:Lib/AI_Runtime/Npu/ll_aton/ll_sw_float.c ****   AI_TENSOR_CHAIN_OBJ_DECLARE(matmul_chain, , 4,
 858              		.loc 1 233 3 is_stmt 0 view .LVU246
 859 00b4 03AC     		add	r4, sp, #12
 226:Lib/AI_Runtime/Npu/ll_aton/ll_sw_float.c ****                         SHAPE_INIT(sw_info->general.output.dim.tensor_h, sw_info->general.output.di
 860              		.loc 1 226 3 view .LVU247
 861 00b6 2592     		str	r2, [sp, #148]
 862 00b8 026B     		ldr	r2, [r0, #48]
 863 00ba 2692     		str	r2, [sp, #152]
 864 00bc 23AA     		add	r2, sp, #140
 865 00be CDE93C27 		strd	r2, r7, [sp, #240]
 866 00c2 026D     		ldr	r2, [r0, #80]
 867 00c4 2792     		str	r2, [sp, #156]
 868 00c6 C26C     		ldr	r2, [r0, #76]
 869 00c8 2892     		str	r2, [sp, #160]
 870 00ca 826C     		ldr	r2, [r0, #72]
 871 00cc 2992     		str	r2, [sp, #164]
 872 00ce 426C     		ldr	r2, [r0, #68]
 234:Lib/AI_Runtime/Npu/ll_aton/ll_sw_float.c ****                               AI_TENSOR_LIST_OBJ_INIT(AI_FLAG_NONE, 2, TENSORS(&input_output, &matm
 235:Lib/AI_Runtime/Npu/ll_aton/ll_sw_float.c ****                               AI_TENSOR_LIST_OBJ_INIT(AI_FLAG_NONE, 1, TENSORS(&matmul_output)),
 236:Lib/AI_Runtime/Npu/ll_aton/ll_sw_float.c ****                               AI_TENSOR_LIST_OBJ_EMPTY, AI_TENSOR_LIST_OBJ_EMPTY)
 237:Lib/AI_Runtime/Npu/ll_aton/ll_sw_float.c ****   // layer initialization
 238:Lib/AI_Runtime/Npu/ll_aton/ll_sw_float.c ****   AI_LAYER_OBJ_DECLARE(matmul_layer, 1, NL_TYPE, 0x0, NULL, nl, forward_matmul, &matmul_chain, NULL
 873              		.loc 1 238 3 view .LVU248
 874 00d0 41A8     		add	r0, sp, #260
 875              	.LVL11:
 226:Lib/AI_Runtime/Npu/ll_aton/ll_sw_float.c ****                         SHAPE_INIT(sw_info->general.output.dim.tensor_h, sw_info->general.output.di
 876              		.loc 1 226 3 view .LVU249
 877 00d2 2A92     		str	r2, [sp, #168]
 878 00d4 27AA     		add	r2, sp, #156
 879 00d6 CDE93E23 		strd	r2, r3, [sp, #248]
 231:Lib/AI_Runtime/Npu/ll_aton/ll_sw_float.c ****   // tensor chain initialization
 880              		.loc 1 231 55 is_stmt 1 view .LVU250
 233:Lib/AI_Runtime/Npu/ll_aton/ll_sw_float.c ****                               AI_TENSOR_LIST_OBJ_INIT(AI_FLAG_NONE, 2, TENSORS(&input_output, &matm
 881              		.loc 1 233 3 view .LVU251
 882 00da 0423     		movs	r3, #4
 883 00dc 0393     		str	r3, [sp, #12]
 884 00de 0223     		movs	r3, #2
 885 00e0 4893     		str	r3, [sp, #288]
 886 00e2 05AB     		add	r3, sp, #20
ARM GAS  C:\Users\DJESSOU\AppData\Local\Temp\ccdFeyMS.s 			page 23


 887 00e4 CDE94931 		strd	r3, r1, [sp, #292]
 888 00e8 0123     		movs	r3, #1
 889 00ea 2BAA     		add	r2, sp, #172
 890 00ec 4B93     		str	r3, [sp, #300]
 891 00ee 39AB     		add	r3, sp, #228
 892 00f0 0592     		str	r2, [sp, #20]
 893 00f2 0093     		str	r3, [sp]
 894 00f4 32AA     		add	r2, sp, #200
 895 00f6 01AB     		add	r3, sp, #4
 896 00f8 0692     		str	r2, [sp, #24]
 897 00fa CDF830D1 		str	sp, [sp, #304]
 898 00fe CDE94F31 		strd	r3, r1, [sp, #316]
 899 0102 02AB     		add	r3, sp, #8
 900 0104 CDE95231 		strd	r3, r1, [sp, #328]
 901 0108 48AB     		add	r3, sp, #288
 902 010a 0493     		str	r3, [sp, #16]
 903              		.loc 1 238 3 view .LVU252
 904 010c 094B     		ldr	r3, .L11+4
 905 010e 1C22     		movs	r2, #28
 233:Lib/AI_Runtime/Npu/ll_aton/ll_sw_float.c ****                               AI_TENSOR_LIST_OBJ_INIT(AI_FLAG_NONE, 2, TENSORS(&input_output, &matm
 906              		.loc 1 233 3 is_stmt 0 view .LVU253
 907 0110 CDE94D11 		strd	r1, r1, [sp, #308]
 908 0114 0191     		str	r1, [sp, #4]
 909 0116 5191     		str	r1, [sp, #324]
 910 0118 0291     		str	r1, [sp, #8]
 911              		.loc 1 238 3 view .LVU254
 912 011a 4093     		str	r3, [sp, #256]
 913 011c FFF7FEFF 		bl	memset
 914              	.LVL12:
 915 0120 054B     		ldr	r3, .L11+8
 239:Lib/AI_Runtime/Npu/ll_aton/ll_sw_float.c ****   matmul_layer.forward(AI_LAYER_OBJ(&matmul_layer));
 916              		.loc 1 239 3 view .LVU255
 917 0122 40A8     		add	r0, sp, #256
 238:Lib/AI_Runtime/Npu/ll_aton/ll_sw_float.c ****   matmul_layer.forward(AI_LAYER_OBJ(&matmul_layer));
 918              		.loc 1 238 3 view .LVU256
 919 0124 CDE94534 		strd	r3, r4, [sp, #276]
 920              		.loc 1 239 3 is_stmt 1 view .LVU257
 921 0128 FFF7FEFF 		bl	forward_matmul
 922              	.LVL13:
 240:Lib/AI_Runtime/Npu/ll_aton/ll_sw_float.c **** }
 923              		.loc 1 240 1 is_stmt 0 view .LVU258
 924 012c 55B0     		add	sp, sp, #340
 925              		.cfi_def_cfa_offset 20
 926              		@ sp needed
 927 012e F0BD     		pop	{r4, r5, r6, r7, pc}
 928              	.L12:
 929              		.align	2
 930              	.L11:
 931 0130 40108200 		.word	8523840
 932 0134 07010100 		.word	65799
 933 0138 00000000 		.word	forward_matmul
 934              		.cfi_endproc
 935              	.LFE17:
 937              		.section	.text.ll_sw_forward_resize,"ax",%progbits
 938              		.align	1
 939              		.global	ll_sw_forward_resize
 940              		.syntax unified
ARM GAS  C:\Users\DJESSOU\AppData\Local\Temp\ccdFeyMS.s 			page 24


 941              		.thumb
 942              		.thumb_func
 944              	ll_sw_forward_resize:
 945              	.LVL14:
 946              	.LFB18:
 241:Lib/AI_Runtime/Npu/ll_aton/ll_sw_float.c **** 
 242:Lib/AI_Runtime/Npu/ll_aton/ll_sw_float.c **** //##########################################################################################
 243:Lib/AI_Runtime/Npu/ll_aton/ll_sw_float.c **** /** Resize forward function */
 244:Lib/AI_Runtime/Npu/ll_aton/ll_sw_float.c **** void ll_sw_forward_resize(/* int processor, */ void *sw_info_struct)
 245:Lib/AI_Runtime/Npu/ll_aton/ll_sw_float.c **** {
 947              		.loc 1 245 1 is_stmt 1 view -0
 948              		.cfi_startproc
 949              		@ args = 0, pretend = 0, frame = 320
 950              		@ frame_needed = 0, uses_anonymous_args = 0
 246:Lib/AI_Runtime/Npu/ll_aton/ll_sw_float.c ****   Resize_sw_info *sw_info = (Resize_sw_info *)sw_info_struct;
 951              		.loc 1 246 3 view .LVU260
 247:Lib/AI_Runtime/Npu/ll_aton/ll_sw_float.c ****   // array init
 248:Lib/AI_Runtime/Npu/ll_aton/ll_sw_float.c ****   AI_ARRAY_OBJ_DECLARE(input_output_array, FORMAT, sw_info->general.input.mem.start_offset,
 952              		.loc 1 248 3 view .LVU261
 245:Lib/AI_Runtime/Npu/ll_aton/ll_sw_float.c ****   Resize_sw_info *sw_info = (Resize_sw_info *)sw_info_struct;
 953              		.loc 1 245 1 is_stmt 0 view .LVU262
 954 0000 2DE9F041 		push	{r4, r5, r6, r7, r8, lr}
 955              		.cfi_def_cfa_offset 24
 956              		.cfi_offset 4, -24
 957              		.cfi_offset 5, -20
 958              		.cfi_offset 6, -16
 959              		.cfi_offset 7, -12
 960              		.cfi_offset 8, -8
 961              		.cfi_offset 14, -4
 962              		.loc 1 248 3 view .LVU263
 963 0004 4269     		ldr	r2, [r0, #20]
 245:Lib/AI_Runtime/Npu/ll_aton/ll_sw_float.c ****   Resize_sw_info *sw_info = (Resize_sw_info *)sw_info_struct;
 964              		.loc 1 245 1 view .LVU264
 965 0006 D0B0     		sub	sp, sp, #320
 966              		.cfi_def_cfa_offset 344
 967              		.loc 1 248 3 view .LVU265
 968 0008 0992     		str	r2, [sp, #36]
 969 000a 826A     		ldr	r2, [r0, #40]
 970 000c 08AC     		add	r4, sp, #32
 971 000e C4E90222 		strd	r2, r2, [r4, #8]
 249:Lib/AI_Runtime/Npu/ll_aton/ll_sw_float.c ****                        sw_info->general.input.mem.start_offset, sw_info->general.input.dim.num_elem
 250:Lib/AI_Runtime/Npu/ll_aton/ll_sw_float.c **** 
 251:Lib/AI_Runtime/Npu/ll_aton/ll_sw_float.c ****   AI_ARRAY_OBJ_DECLARE(resize_scales_array, FORMAT, sw_info->scales.mem.start_offset, sw_info->scal
 972              		.loc 1 251 3 is_stmt 1 view .LVU266
 248:Lib/AI_Runtime/Npu/ll_aton/ll_sw_float.c ****                        sw_info->general.input.mem.start_offset, sw_info->general.input.dim.num_elem
 973              		.loc 1 248 3 is_stmt 0 view .LVU267
 974 0012 594B     		ldr	r3, .L20
 252:Lib/AI_Runtime/Npu/ll_aton/ll_sw_float.c ****                        sw_info->scales.dim.num_elem, )
 253:Lib/AI_Runtime/Npu/ll_aton/ll_sw_float.c **** 
 254:Lib/AI_Runtime/Npu/ll_aton/ll_sw_float.c ****   ai_array *resize_roi_array_ptr = NULL;
 255:Lib/AI_Runtime/Npu/ll_aton/ll_sw_float.c ****   ai_array resize_roi_array;
 256:Lib/AI_Runtime/Npu/ll_aton/ll_sw_float.c ****   if (sw_info->roi.mem.start_offset != NULL)
 975              		.loc 1 256 23 view .LVU268
 976 0014 D0F8AC20 		ldr	r2, [r0, #172]
 251:Lib/AI_Runtime/Npu/ll_aton/ll_sw_float.c ****                        sw_info->scales.dim.num_elem, )
 977              		.loc 1 251 3 view .LVU269
 978 0018 D0F88050 		ldr	r5, [r0, #128]
ARM GAS  C:\Users\DJESSOU\AppData\Local\Temp\ccdFeyMS.s 			page 25


 254:Lib/AI_Runtime/Npu/ll_aton/ll_sw_float.c ****   ai_array resize_roi_array;
 979              		.loc 1 254 3 is_stmt 1 view .LVU270
 980              	.LVL15:
 255:Lib/AI_Runtime/Npu/ll_aton/ll_sw_float.c ****   if (sw_info->roi.mem.start_offset != NULL)
 981              		.loc 1 255 3 view .LVU271
 982              		.loc 1 256 3 view .LVU272
 248:Lib/AI_Runtime/Npu/ll_aton/ll_sw_float.c ****                        sw_info->general.input.mem.start_offset, sw_info->general.input.dim.num_elem
 983              		.loc 1 248 3 is_stmt 0 view .LVU273
 984 001c 2360     		str	r3, [r4]
 985              		.loc 1 256 6 view .LVU274
 986 001e 32B1     		cbz	r2, .L14
 987              	.LBB8:
 257:Lib/AI_Runtime/Npu/ll_aton/ll_sw_float.c ****   {
 258:Lib/AI_Runtime/Npu/ll_aton/ll_sw_float.c ****     resize_roi_array = (ai_array)AI_ARRAY_OBJ_INIT(FORMAT, sw_info->roi.mem.start_offset, sw_info->
 988              		.loc 1 258 5 is_stmt 1 view .LVU275
 989              		.loc 1 258 34 is_stmt 0 view .LVU276
 990 0020 D0F89810 		ldr	r1, [r0, #152]
 991              		.loc 1 258 22 view .LVU277
 992 0024 CDE90E22 		strd	r2, r2, [sp, #56]
 259:Lib/AI_Runtime/Npu/ll_aton/ll_sw_float.c ****                                                    sw_info->roi.dim.num_elem);
 260:Lib/AI_Runtime/Npu/ll_aton/ll_sw_float.c ****     resize_roi_array_ptr = &resize_roi_array;
 993              		.loc 1 260 5 is_stmt 1 view .LVU278
 994              	.LVL16:
 258:Lib/AI_Runtime/Npu/ll_aton/ll_sw_float.c ****                                                    sw_info->roi.dim.num_elem);
 995              		.loc 1 258 22 is_stmt 0 view .LVU279
 996 0028 CDE90C31 		strd	r3, r1, [sp, #48]
 997              		.loc 1 260 26 view .LVU280
 998 002c 0CAA     		add	r2, sp, #48
 999              	.LVL17:
 1000              	.L14:
 1001              		.loc 1 260 26 view .LVU281
 1002              	.LBE8:
 261:Lib/AI_Runtime/Npu/ll_aton/ll_sw_float.c ****   }
 262:Lib/AI_Runtime/Npu/ll_aton/ll_sw_float.c **** 
 263:Lib/AI_Runtime/Npu/ll_aton/ll_sw_float.c ****   AI_ARRAY_OBJ_DECLARE(resize_output_array, FORMAT, sw_info->general.output.mem.start_offset,
 1003              		.loc 1 263 3 is_stmt 1 view .LVU282
 1004 002e 036C     		ldr	r3, [r0, #64]
 264:Lib/AI_Runtime/Npu/ll_aton/ll_sw_float.c ****                        sw_info->general.output.mem.start_offset, sw_info->general.output.dim.num_el
 265:Lib/AI_Runtime/Npu/ll_aton/ll_sw_float.c **** 
 266:Lib/AI_Runtime/Npu/ll_aton/ll_sw_float.c ****   AI_TENSOR_OBJ_DECLARE(input_output, , 0x0, 4,
 1005              		.loc 1 266 3 is_stmt 0 view .LVU283
 1006 0030 4FF0827E 		mov	lr, #17039360
 263:Lib/AI_Runtime/Npu/ll_aton/ll_sw_float.c ****                        sw_info->general.output.mem.start_offset, sw_info->general.output.dim.num_el
 1007              		.loc 1 263 3 view .LVU284
 1008 0034 1193     		str	r3, [sp, #68]
 1009 0036 436D     		ldr	r3, [r0, #84]
 1010              		.loc 1 266 3 view .LVU285
 1011 0038 40F2014C 		movw	ip, #1025
 1012 003c 40F20248 		movw	r8, #1026
 263:Lib/AI_Runtime/Npu/ll_aton/ll_sw_float.c ****                        sw_info->general.output.mem.start_offset, sw_info->general.output.dim.num_el
 1013              		.loc 1 263 3 view .LVU286
 1014 0040 CDE91233 		strd	r3, r3, [sp, #72]
 1015              		.loc 1 266 3 is_stmt 1 view .LVU287
 1016 0044 0023     		movs	r3, #0
 1017 0046 0769     		ldr	r7, [r0, #16]
 263:Lib/AI_Runtime/Npu/ll_aton/ll_sw_float.c ****                        sw_info->general.output.mem.start_offset, sw_info->general.output.dim.num_el
 1018              		.loc 1 263 3 is_stmt 0 view .LVU288
ARM GAS  C:\Users\DJESSOU\AppData\Local\Temp\ccdFeyMS.s 			page 26


 1019 0048 4B4E     		ldr	r6, .L20
 1020              		.loc 1 266 3 view .LVU289
 1021 004a 1497     		str	r7, [sp, #80]
 1022 004c C768     		ldr	r7, [r0, #12]
 263:Lib/AI_Runtime/Npu/ll_aton/ll_sw_float.c ****                        sw_info->general.output.mem.start_offset, sw_info->general.output.dim.num_el
 1023              		.loc 1 263 3 view .LVU290
 1024 004e 1096     		str	r6, [sp, #64]
 1025              		.loc 1 266 3 view .LVU291
 1026 0050 1597     		str	r7, [sp, #84]
 1027 0052 8768     		ldr	r7, [r0, #8]
 1028 0054 CDE9283E 		strd	r3, lr, [sp, #160]
 1029 0058 1697     		str	r7, [sp, #88]
 1030 005a 4768     		ldr	r7, [r0, #4]
 267:Lib/AI_Runtime/Npu/ll_aton/ll_sw_float.c ****                         SHAPE_INIT(sw_info->general.input.dim.tensor_h, sw_info->general.input.dim.
 268:Lib/AI_Runtime/Npu/ll_aton/ll_sw_float.c ****                                    sw_info->general.input.dim.tensor_c, sw_info->general.input.dim.
 269:Lib/AI_Runtime/Npu/ll_aton/ll_sw_float.c ****                         STRIDE_INIT(sw_info->general.input.stride.h, sw_info->general.input.stride.
 270:Lib/AI_Runtime/Npu/ll_aton/ll_sw_float.c ****                                     sw_info->general.input.stride.c, sw_info->general.input.stride.
 271:Lib/AI_Runtime/Npu/ll_aton/ll_sw_float.c ****                         1, &input_output_array, NULL);
 272:Lib/AI_Runtime/Npu/ll_aton/ll_sw_float.c ****   AI_TENSOR_OBJ_DECLARE(resize_scales, , 0x0, 4,
 273:Lib/AI_Runtime/Npu/ll_aton/ll_sw_float.c ****                         SHAPE_INIT(sw_info->scales.dim.tensor_h, sw_info->scales.dim.tensor_w,
 274:Lib/AI_Runtime/Npu/ll_aton/ll_sw_float.c ****                                    sw_info->scales.dim.tensor_c, sw_info->scales.dim.tensor_b),
 275:Lib/AI_Runtime/Npu/ll_aton/ll_sw_float.c ****                         STRIDE_INIT(sw_info->scales.stride.h, sw_info->scales.stride.w, sw_info->sc
 276:Lib/AI_Runtime/Npu/ll_aton/ll_sw_float.c ****                                     sw_info->scales.stride.b),
 277:Lib/AI_Runtime/Npu/ll_aton/ll_sw_float.c ****                         1, &resize_scales_array, NULL);
 278:Lib/AI_Runtime/Npu/ll_aton/ll_sw_float.c **** 
 279:Lib/AI_Runtime/Npu/ll_aton/ll_sw_float.c ****   AI_TENSOR_OBJ_DECLARE(resize_output, , 0x0, 4,
 1031              		.loc 1 279 3 view .LVU292
 1032 005c CDE92F3E 		strd	r3, lr, [sp, #188]
 266:Lib/AI_Runtime/Npu/ll_aton/ll_sw_float.c ****                         SHAPE_INIT(sw_info->general.input.dim.tensor_h, sw_info->general.input.dim.
 1033              		.loc 1 266 3 view .LVU293
 1034 0060 1797     		str	r7, [sp, #92]
 1035 0062 14AF     		add	r7, sp, #80
 1036 0064 2B97     		str	r7, [sp, #172]
 1037 0066 476A     		ldr	r7, [r0, #36]
 1038 0068 CDF8A8C0 		str	ip, [sp, #168]
 1039 006c 1897     		str	r7, [sp, #96]
 1040 006e 076A     		ldr	r7, [r0, #32]
 1041 0070 CDF8B080 		str	r8, [sp, #176]
 1042 0074 1997     		str	r7, [sp, #100]
 1043 0076 C769     		ldr	r7, [r0, #28]
 1044              		.loc 1 279 3 view .LVU294
 1045 0078 CDF8C4C0 		str	ip, [sp, #196]
 266:Lib/AI_Runtime/Npu/ll_aton/ll_sw_float.c ****                         SHAPE_INIT(sw_info->general.input.dim.tensor_h, sw_info->general.input.dim.
 1046              		.loc 1 266 3 view .LVU295
 1047 007c 1A97     		str	r7, [sp, #104]
 1048 007e 8769     		ldr	r7, [r0, #24]
 263:Lib/AI_Runtime/Npu/ll_aton/ll_sw_float.c ****                        sw_info->general.output.mem.start_offset, sw_info->general.output.dim.num_el
 1049              		.loc 1 263 3 view .LVU296
 1050 0080 10A9     		add	r1, sp, #64
 266:Lib/AI_Runtime/Npu/ll_aton/ll_sw_float.c ****                         SHAPE_INIT(sw_info->general.input.dim.tensor_h, sw_info->general.input.dim.
 1051              		.loc 1 266 3 view .LVU297
 1052 0082 1B97     		str	r7, [sp, #108]
 1053 0084 18AF     		add	r7, sp, #96
 1054 0086 CDE92D74 		strd	r7, r4, [sp, #180]
 271:Lib/AI_Runtime/Npu/ll_aton/ll_sw_float.c ****   AI_TENSOR_OBJ_DECLARE(resize_scales, , 0x0, 4,
 1055              		.loc 1 271 54 is_stmt 1 view .LVU298
 272:Lib/AI_Runtime/Npu/ll_aton/ll_sw_float.c ****                         SHAPE_INIT(sw_info->scales.dim.tensor_h, sw_info->scales.dim.tensor_w,
ARM GAS  C:\Users\DJESSOU\AppData\Local\Temp\ccdFeyMS.s 			page 27


 1056              		.loc 1 272 3 view .LVU299
 1057              	.LVL18:
 277:Lib/AI_Runtime/Npu/ll_aton/ll_sw_float.c **** 
 1058              		.loc 1 277 55 view .LVU300
 1059              		.loc 1 279 3 view .LVU301
 1060 008a C46B     		ldr	r4, [r0, #60]
 280:Lib/AI_Runtime/Npu/ll_aton/ll_sw_float.c ****                         SHAPE_INIT(sw_info->general.output.dim.tensor_h, sw_info->general.output.di
 281:Lib/AI_Runtime/Npu/ll_aton/ll_sw_float.c ****                                    sw_info->general.output.dim.tensor_c, sw_info->general.output.di
 282:Lib/AI_Runtime/Npu/ll_aton/ll_sw_float.c ****                         STRIDE_INIT(sw_info->general.output.stride.h, sw_info->general.output.strid
 283:Lib/AI_Runtime/Npu/ll_aton/ll_sw_float.c ****                                     sw_info->general.output.stride.c, sw_info->general.output.strid
 284:Lib/AI_Runtime/Npu/ll_aton/ll_sw_float.c ****                         1, &resize_output_array, NULL);
 285:Lib/AI_Runtime/Npu/ll_aton/ll_sw_float.c ****   // tensor chain initialization
 286:Lib/AI_Runtime/Npu/ll_aton/ll_sw_float.c ****   AI_TENSOR_CHAIN_OBJ_DECLARE(resize_chain, , 4, AI_TENSOR_LIST_OBJ_INIT(AI_FLAG_NONE, 1, TENSORS(&
 1061              		.loc 1 286 3 is_stmt 0 view .LVU302
 1062 008c 28AF     		add	r7, sp, #160
 279:Lib/AI_Runtime/Npu/ll_aton/ll_sw_float.c ****                         SHAPE_INIT(sw_info->general.output.dim.tensor_h, sw_info->general.output.di
 1063              		.loc 1 279 3 view .LVU303
 1064 008e 1C94     		str	r4, [sp, #112]
 1065 0090 846B     		ldr	r4, [r0, #56]
 1066              		.loc 1 286 3 view .LVU304
 1067 0092 0097     		str	r7, [sp]
 279:Lib/AI_Runtime/Npu/ll_aton/ll_sw_float.c ****                         SHAPE_INIT(sw_info->general.output.dim.tensor_h, sw_info->general.output.di
 1068              		.loc 1 279 3 view .LVU305
 1069 0094 1D94     		str	r4, [sp, #116]
 1070 0096 446B     		ldr	r4, [r0, #52]
 1071              		.loc 1 286 3 view .LVU306
 1072 0098 2FAF     		add	r7, sp, #188
 279:Lib/AI_Runtime/Npu/ll_aton/ll_sw_float.c ****                         SHAPE_INIT(sw_info->general.output.dim.tensor_h, sw_info->general.output.di
 1073              		.loc 1 279 3 view .LVU307
 1074 009a 1E94     		str	r4, [sp, #120]
 1075 009c 046B     		ldr	r4, [r0, #48]
 1076              		.loc 1 286 3 view .LVU308
 1077 009e CDF8DCD0 		str	sp, [sp, #220]
 279:Lib/AI_Runtime/Npu/ll_aton/ll_sw_float.c ****                         SHAPE_INIT(sw_info->general.output.dim.tensor_h, sw_info->general.output.di
 1078              		.loc 1 279 3 view .LVU309
 1079 00a2 1F94     		str	r4, [sp, #124]
 1080 00a4 1CAC     		add	r4, sp, #112
 1081 00a6 CDE93248 		strd	r4, r8, [sp, #200]
 1082 00aa 046D     		ldr	r4, [r0, #80]
 1083              		.loc 1 286 3 view .LVU310
 1084 00ac 0197     		str	r7, [sp, #4]
 279:Lib/AI_Runtime/Npu/ll_aton/ll_sw_float.c ****                         SHAPE_INIT(sw_info->general.output.dim.tensor_h, sw_info->general.output.di
 1085              		.loc 1 279 3 view .LVU311
 1086 00ae 2094     		str	r4, [sp, #128]
 1087 00b0 C46C     		ldr	r4, [r0, #76]
 1088              		.loc 1 286 3 view .LVU312
 1089 00b2 3C93     		str	r3, [sp, #240]
 279:Lib/AI_Runtime/Npu/ll_aton/ll_sw_float.c ****                         SHAPE_INIT(sw_info->general.output.dim.tensor_h, sw_info->general.output.di
 1090              		.loc 1 279 3 view .LVU313
 1091 00b4 2194     		str	r4, [sp, #132]
 1092 00b6 846C     		ldr	r4, [r0, #72]
 1093              		.loc 1 286 3 view .LVU314
 1094 00b8 0293     		str	r3, [sp, #8]
 279:Lib/AI_Runtime/Npu/ll_aton/ll_sw_float.c ****                         SHAPE_INIT(sw_info->general.output.dim.tensor_h, sw_info->general.output.di
 1095              		.loc 1 279 3 view .LVU315
 1096 00ba 2294     		str	r4, [sp, #136]
 1097 00bc 446C     		ldr	r4, [r0, #68]
ARM GAS  C:\Users\DJESSOU\AppData\Local\Temp\ccdFeyMS.s 			page 28


 1098 00be 2394     		str	r4, [sp, #140]
 1099 00c0 20AC     		add	r4, sp, #128
 1100 00c2 CDE93441 		strd	r4, r1, [sp, #208]
 284:Lib/AI_Runtime/Npu/ll_aton/ll_sw_float.c ****   // tensor chain initialization
 1101              		.loc 1 284 55 is_stmt 1 view .LVU316
 1102              		.loc 1 286 3 view .LVU317
 1103 00c6 0421     		movs	r1, #4
 1104 00c8 0491     		str	r1, [sp, #16]
 1105 00ca 0121     		movs	r1, #1
 1106 00cc CDE93831 		strd	r3, r1, [sp, #224]
 1107 00d0 3691     		str	r1, [sp, #216]
 1108 00d2 01A9     		add	r1, sp, #4
 1109 00d4 CDE93A13 		strd	r1, r3, [sp, #232]
 1110 00d8 02A9     		add	r1, sp, #8
 1111 00da CDE93D13 		strd	r1, r3, [sp, #244]
 1112 00de 03A9     		add	r1, sp, #12
 1113 00e0 CDE94013 		strd	r1, r3, [sp, #256]
 1114 00e4 36A9     		add	r1, sp, #216
 1115 00e6 0591     		str	r1, [sp, #20]
 287:Lib/AI_Runtime/Npu/ll_aton/ll_sw_float.c ****                               AI_TENSOR_LIST_OBJ_INIT(AI_FLAG_NONE, 1, TENSORS(&resize_output)),
 288:Lib/AI_Runtime/Npu/ll_aton/ll_sw_float.c ****                               AI_TENSOR_LIST_OBJ_EMPTY, AI_TENSOR_LIST_OBJ_EMPTY)
 289:Lib/AI_Runtime/Npu/ll_aton/ll_sw_float.c **** 
 290:Lib/AI_Runtime/Npu/ll_aton/ll_sw_float.c ****   // extrapolating the scales values needed
 291:Lib/AI_Runtime/Npu/ll_aton/ll_sw_float.c ****   const ai_tensor *p = &resize_scales;
 1116              		.loc 1 291 3 view .LVU318
 1117              	.LVL19:
 292:Lib/AI_Runtime/Npu/ll_aton/ll_sw_float.c ****   const ai_float *s = AI_ARRAY_OBJ_DATA(p->data, ai_float);
 1118              		.loc 1 292 3 view .LVU319
 293:Lib/AI_Runtime/Npu/ll_aton/ll_sw_float.c ****   AI_ARRAY_OBJ_DECLARE_STATIC(rs, ai_float, AI_ARRAY_FORMAT_FLOAT, AI_CONST, 2, s[2], s[3])
 1119              		.loc 1 293 3 view .LVU320
 1120 00e8 0221     		movs	r1, #2
 1121 00ea 2591     		str	r1, [sp, #148]
 1122 00ec 06A9     		add	r1, sp, #24
 1123 00ee 2496     		str	r6, [sp, #144]
 1124 00f0 AE68     		ldr	r6, [r5, #8]	@ float
 1125 00f2 ED68     		ldr	r5, [r5, #12]	@ float
 1126              	.LVL20:
 1127              		.loc 1 293 3 is_stmt 0 view .LVU321
 1128 00f4 CDE92613 		strd	r1, r3, [sp, #152]
 294:Lib/AI_Runtime/Npu/ll_aton/ll_sw_float.c **** 
 295:Lib/AI_Runtime/Npu/ll_aton/ll_sw_float.c ****   // layer initialization
 296:Lib/AI_Runtime/Npu/ll_aton/ll_sw_float.c ****   if ((ai_resize_mode)sw_info->mode == AI_RESIZE_ZEROS)
 1129              		.loc 1 296 3 is_stmt 1 view .LVU322
 1130              		.loc 1 296 30 is_stmt 0 view .LVU323
 1131 00f8 90F8EC10 		ldrb	r1, [r0, #236]	@ zero_extendqisi2
 286:Lib/AI_Runtime/Npu/ll_aton/ll_sw_float.c ****                               AI_TENSOR_LIST_OBJ_INIT(AI_FLAG_NONE, 1, TENSORS(&resize_output)),
 1132              		.loc 1 286 3 view .LVU324
 1133 00fc 04AC     		add	r4, sp, #16
 293:Lib/AI_Runtime/Npu/ll_aton/ll_sw_float.c ****   AI_ARRAY_OBJ_DECLARE_STATIC(rs, ai_float, AI_ARRAY_FORMAT_FLOAT, AI_CONST, 2, s[2], s[3])
 1134              		.loc 1 293 3 view .LVU325
 1135 00fe 0795     		str	r5, [sp, #28]	@ float
 286:Lib/AI_Runtime/Npu/ll_aton/ll_sw_float.c ****                               AI_TENSOR_LIST_OBJ_INIT(AI_FLAG_NONE, 1, TENSORS(&resize_output)),
 1136              		.loc 1 286 3 view .LVU326
 1137 0100 3F93     		str	r3, [sp, #252]
 1138 0102 0393     		str	r3, [sp, #12]
 293:Lib/AI_Runtime/Npu/ll_aton/ll_sw_float.c ****   AI_ARRAY_OBJ_DECLARE_STATIC(rs, ai_float, AI_ARRAY_FORMAT_FLOAT, AI_CONST, 2, s[2], s[3])
 1139              		.loc 1 293 3 view .LVU327
ARM GAS  C:\Users\DJESSOU\AppData\Local\Temp\ccdFeyMS.s 			page 29


 1140 0104 0696     		str	r6, [sp, #24]	@ float
 1141 0106 24AD     		add	r5, sp, #144
 1142              		.loc 1 296 6 view .LVU328
 1143 0108 99B9     		cbnz	r1, .L15
 1144              	.LBB9:
 297:Lib/AI_Runtime/Npu/ll_aton/ll_sw_float.c ****   {
 298:Lib/AI_Runtime/Npu/ll_aton/ll_sw_float.c ****     AI_LAYER_OBJ_DECLARE(resize_layer, 1, UPSAMPLE_TYPE, 0x0, NULL, upsample, forward_upsample_zero
 1145              		.loc 1 298 5 is_stmt 1 view .LVU329
 1146 010a 1C4B     		ldr	r3, .L20+4
 299:Lib/AI_Runtime/Npu/ll_aton/ll_sw_float.c ****                          NULL, NULL, , .mode = AI_UPSAMPLE_ZEROS, .center = false, .scales = AI_ARR
 300:Lib/AI_Runtime/Npu/ll_aton/ll_sw_float.c ****                          .nearest_mode = AI_ROUND_PREFER_FLOOR)
 301:Lib/AI_Runtime/Npu/ll_aton/ll_sw_float.c ****     resize_layer.forward(AI_LAYER_OBJ(&resize_layer));
 1147              		.loc 1 301 5 is_stmt 0 view .LVU330
 1148 010c 42A8     		add	r0, sp, #264
 1149              	.LVL21:
 298:Lib/AI_Runtime/Npu/ll_aton/ll_sw_float.c ****                          NULL, NULL, , .mode = AI_UPSAMPLE_ZEROS, .center = false, .scales = AI_ARR
 1150              		.loc 1 298 5 view .LVU331
 1151 010e CDE94231 		strd	r3, r1, [sp, #264]
 1152 0112 1B4B     		ldr	r3, .L20+8
 1153 0114 CDE94411 		strd	r1, r1, [sp, #272]
 1154 0118 CDE94734 		strd	r3, r4, [sp, #284]
 1155 011c 4691     		str	r1, [sp, #280]
 1156 011e ADF82411 		strh	r1, [sp, #292]	@ movhi
 1157 0122 4A95     		str	r5, [sp, #296]
 1158 0124 8DF82C11 		strb	r1, [sp, #300]
 1159              		.loc 1 301 5 is_stmt 1 view .LVU332
 1160 0128 FFF7FEFF 		bl	forward_upsample_zeros
 1161              	.LVL22:
 1162              	.L13:
 1163              		.loc 1 301 5 is_stmt 0 view .LVU333
 1164              	.LBE9:
 302:Lib/AI_Runtime/Npu/ll_aton/ll_sw_float.c ****   }
 303:Lib/AI_Runtime/Npu/ll_aton/ll_sw_float.c ****   else
 304:Lib/AI_Runtime/Npu/ll_aton/ll_sw_float.c ****   {
 305:Lib/AI_Runtime/Npu/ll_aton/ll_sw_float.c ****     AI_LAYER_OBJ_DECLARE(resize_layer, 1, RESIZE_TYPE, 0x0, NULL, resize, forward_resize, &resize_c
 306:Lib/AI_Runtime/Npu/ll_aton/ll_sw_float.c ****                          .cubic_coeff_a = sw_info->cubic_coeff_a, .exclude_outside = sw_info->exclu
 307:Lib/AI_Runtime/Npu/ll_aton/ll_sw_float.c ****                          .extrapol_val = sw_info->extrapol_val, .mode = (ai_resize_mode)sw_info->mo
 308:Lib/AI_Runtime/Npu/ll_aton/ll_sw_float.c ****                          .nearest_mode = (ai_nearest_mode)sw_info->nearest_mode,
 309:Lib/AI_Runtime/Npu/ll_aton/ll_sw_float.c ****                          .coord_transf_mode = (ai_coord_transf_mode)sw_info->coord_transf_mode,
 310:Lib/AI_Runtime/Npu/ll_aton/ll_sw_float.c ****                          .scales = AI_ARRAY_OBJ(&rs), .roi = resize_roi_array_ptr)
 311:Lib/AI_Runtime/Npu/ll_aton/ll_sw_float.c ****     resize_layer.forward(AI_LAYER_OBJ(&resize_layer));
 312:Lib/AI_Runtime/Npu/ll_aton/ll_sw_float.c ****   }
 313:Lib/AI_Runtime/Npu/ll_aton/ll_sw_float.c **** }
 1165              		.loc 1 313 1 view .LVU334
 1166 012c 50B0     		add	sp, sp, #320
 1167              		.cfi_remember_state
 1168              		.cfi_def_cfa_offset 24
 1169              		@ sp needed
 1170 012e BDE8F081 		pop	{r4, r5, r6, r7, r8, pc}
 1171              	.LVL23:
 1172              	.L15:
 1173              		.cfi_restore_state
 1174              	.LBB10:
 305:Lib/AI_Runtime/Npu/ll_aton/ll_sw_float.c ****                          .cubic_coeff_a = sw_info->cubic_coeff_a, .exclude_outside = sw_info->exclu
 1175              		.loc 1 305 5 is_stmt 1 view .LVU335
 1176 0132 144E     		ldr	r6, .L20+12
 1177 0134 CDE94433 		strd	r3, r3, [sp, #272]
ARM GAS  C:\Users\DJESSOU\AppData\Local\Temp\ccdFeyMS.s 			page 30


 1178 0138 CDE94263 		strd	r6, r3, [sp, #264]
 1179 013c 4693     		str	r3, [sp, #280]
 1180 013e 124B     		ldr	r3, .L20+16
 1181 0140 CDE94E52 		strd	r5, r2, [sp, #312]
 311:Lib/AI_Runtime/Npu/ll_aton/ll_sw_float.c ****   }
 1182              		.loc 1 311 5 view .LVU336
 305:Lib/AI_Runtime/Npu/ll_aton/ll_sw_float.c ****                          .cubic_coeff_a = sw_info->cubic_coeff_a, .exclude_outside = sw_info->exclu
 1183              		.loc 1 305 5 is_stmt 0 view .LVU337
 1184 0144 CDE94734 		strd	r3, r4, [sp, #284]
 1185 0148 90F8EE30 		ldrb	r3, [r0, #238]	@ zero_extendqisi2
 1186 014c 8DF83411 		strb	r1, [sp, #308]
 1187 0150 8DF82431 		strb	r3, [sp, #292]
 1188 0154 D0F8E030 		ldr	r3, [r0, #224]	@ float
 1189 0158 4A93     		str	r3, [sp, #296]	@ float
 1190 015a 90F8E430 		ldrb	r3, [r0, #228]	@ zero_extendqisi2
 1191 015e 8DF82C31 		strb	r3, [sp, #300]
 1192 0162 D0F8E830 		ldr	r3, [r0, #232]	@ float
 1193 0166 4C93     		str	r3, [sp, #304]	@ float
 1194 0168 90F8ED30 		ldrb	r3, [r0, #237]	@ zero_extendqisi2
 311:Lib/AI_Runtime/Npu/ll_aton/ll_sw_float.c ****   }
 1195              		.loc 1 311 5 view .LVU338
 1196 016c 42A8     		add	r0, sp, #264
 1197              	.LVL24:
 305:Lib/AI_Runtime/Npu/ll_aton/ll_sw_float.c ****                          .cubic_coeff_a = sw_info->cubic_coeff_a, .exclude_outside = sw_info->exclu
 1198              		.loc 1 305 5 view .LVU339
 1199 016e 8DF83531 		strb	r3, [sp, #309]
 311:Lib/AI_Runtime/Npu/ll_aton/ll_sw_float.c ****   }
 1200              		.loc 1 311 5 view .LVU340
 1201 0172 FFF7FEFF 		bl	forward_resize
 1202              	.LVL25:
 311:Lib/AI_Runtime/Npu/ll_aton/ll_sw_float.c ****   }
 1203              		.loc 1 311 5 view .LVU341
 1204              	.LBE10:
 1205              		.loc 1 313 1 view .LVU342
 1206 0176 D9E7     		b	.L13
 1207              	.L21:
 1208              		.align	2
 1209              	.L20:
 1210 0178 40108200 		.word	8523840
 1211 017c 12010100 		.word	65810
 1212 0180 00000000 		.word	forward_upsample_zeros
 1213 0184 1B010100 		.word	65819
 1214 0188 00000000 		.word	forward_resize
 1215              		.cfi_endproc
 1216              	.LFE18:
 1218              		.section	.text.ll_sw_forward_softmax,"ax",%progbits
 1219              		.align	1
 1220              		.global	ll_sw_forward_softmax
 1221              		.syntax unified
 1222              		.thumb
 1223              		.thumb_func
 1225              	ll_sw_forward_softmax:
 1226              	.LVL26:
 1227              	.LFB19:
 314:Lib/AI_Runtime/Npu/ll_aton/ll_sw_float.c **** 
 315:Lib/AI_Runtime/Npu/ll_aton/ll_sw_float.c **** //##########################################################################################
 316:Lib/AI_Runtime/Npu/ll_aton/ll_sw_float.c **** /** Softmax forward function */
ARM GAS  C:\Users\DJESSOU\AppData\Local\Temp\ccdFeyMS.s 			page 31


 317:Lib/AI_Runtime/Npu/ll_aton/ll_sw_float.c **** void ll_sw_forward_softmax(/* int processor, */ void *sw_info_struct)
 318:Lib/AI_Runtime/Npu/ll_aton/ll_sw_float.c **** {
 1228              		.loc 1 318 1 is_stmt 1 view -0
 1229              		.cfi_startproc
 1230              		@ args = 0, pretend = 0, frame = 336
 1231              		@ frame_needed = 0, uses_anonymous_args = 0
 319:Lib/AI_Runtime/Npu/ll_aton/ll_sw_float.c ****   Softmax_sw_info *sw_info = (Softmax_sw_info *)sw_info_struct;
 1232              		.loc 1 319 3 view .LVU344
 320:Lib/AI_Runtime/Npu/ll_aton/ll_sw_float.c **** 
 321:Lib/AI_Runtime/Npu/ll_aton/ll_sw_float.c ****   // array init
 322:Lib/AI_Runtime/Npu/ll_aton/ll_sw_float.c ****   int32_t format = sw_info->general.input.format.is_signed ? (AI_ARRAY_FORMAT_S8 | AI_FMT_FLAG_IS_I
 1233              		.loc 1 322 3 view .LVU345
 323:Lib/AI_Runtime/Npu/ll_aton/ll_sw_float.c ****                                                            : (AI_ARRAY_FORMAT_U8 | AI_FMT_FLAG_IS_I
 1234              		.loc 1 323 60 is_stmt 0 view .LVU346
 1235 0000 90F82C10 		ldrb	r1, [r0, #44]	@ zero_extendqisi2
 1236              		.loc 1 323 60 discriminator 1 view .LVU347
 1237 0004 564B     		ldr	r3, .L29
 1238 0006 574A     		ldr	r2, .L29+4
 1239 0008 0029     		cmp	r1, #0
 318:Lib/AI_Runtime/Npu/ll_aton/ll_sw_float.c ****   Softmax_sw_info *sw_info = (Softmax_sw_info *)sw_info_struct;
 1240              		.loc 1 318 1 view .LVU348
 1241 000a F0B5     		push	{r4, r5, r6, r7, lr}
 1242              		.cfi_def_cfa_offset 20
 1243              		.cfi_offset 4, -20
 1244              		.cfi_offset 5, -16
 1245              		.cfi_offset 6, -12
 1246              		.cfi_offset 7, -8
 1247              		.cfi_offset 14, -4
 1248              		.loc 1 323 60 discriminator 1 view .LVU349
 1249 000c 08BF     		it	eq
 1250 000e 1946     		moveq	r1, r3
 318:Lib/AI_Runtime/Npu/ll_aton/ll_sw_float.c ****   Softmax_sw_info *sw_info = (Softmax_sw_info *)sw_info_struct;
 1251              		.loc 1 318 1 view .LVU350
 1252 0010 0446     		mov	r4, r0
 1253              		.loc 1 323 60 discriminator 1 view .LVU351
 1254 0012 18BF     		it	ne
 1255 0014 1146     		movne	r1, r2
 1256              	.LVL27:
 324:Lib/AI_Runtime/Npu/ll_aton/ll_sw_float.c ****   AI_ARRAY_OBJ_DECLARE(input_output_array, format, sw_info->general.input.mem.start_offset,
 1257              		.loc 1 324 3 is_stmt 1 view .LVU352
 318:Lib/AI_Runtime/Npu/ll_aton/ll_sw_float.c ****   Softmax_sw_info *sw_info = (Softmax_sw_info *)sw_info_struct;
 1258              		.loc 1 318 1 is_stmt 0 view .LVU353
 1259 0016 D5B0     		sub	sp, sp, #340
 1260              		.cfi_def_cfa_offset 360
 1261              		.loc 1 324 3 view .LVU354
 1262 0018 0691     		str	r1, [sp, #24]
 1263 001a 6169     		ldr	r1, [r4, #20]
 1264              	.LVL28:
 325:Lib/AI_Runtime/Npu/ll_aton/ll_sw_float.c ****                        sw_info->general.input.mem.start_offset, sw_info->general.input.dim.num_elem
 326:Lib/AI_Runtime/Npu/ll_aton/ll_sw_float.c **** 
 327:Lib/AI_Runtime/Npu/ll_aton/ll_sw_float.c ****   format = sw_info->general.output.format.is_signed ? (AI_ARRAY_FORMAT_S8 | AI_FMT_FLAG_IS_IO)
 328:Lib/AI_Runtime/Npu/ll_aton/ll_sw_float.c ****                                                     : (AI_ARRAY_FORMAT_U8 | AI_FMT_FLAG_IS_IO);
 329:Lib/AI_Runtime/Npu/ll_aton/ll_sw_float.c ****   AI_ARRAY_OBJ_DECLARE(softmax_output_array, format, sw_info->general.output.mem.start_offset,
 330:Lib/AI_Runtime/Npu/ll_aton/ll_sw_float.c ****                        sw_info->general.output.mem.start_offset, sw_info->general.output.dim.num_el
 331:Lib/AI_Runtime/Npu/ll_aton/ll_sw_float.c **** 
 332:Lib/AI_Runtime/Npu/ll_aton/ll_sw_float.c ****   AI_ARRAY_OBJ_DECLARE(sm_scratch0_array, AI_ARRAY_FORMAT_S32, sw_info->scratch.mem.start_offset,
 333:Lib/AI_Runtime/Npu/ll_aton/ll_sw_float.c ****                        sw_info->scratch.mem.start_offset, sw_info->scratch.dim.num_elem, )
ARM GAS  C:\Users\DJESSOU\AppData\Local\Temp\ccdFeyMS.s 			page 32


 334:Lib/AI_Runtime/Npu/ll_aton/ll_sw_float.c **** 
 335:Lib/AI_Runtime/Npu/ll_aton/ll_sw_float.c ****   AI_TENSOR_OBJ_DECLARE(input_output, , 0x0, 4,
 1265              		.loc 1 335 3 view .LVU355
 1266 001c 4FF0827C 		mov	ip, #17039360
 324:Lib/AI_Runtime/Npu/ll_aton/ll_sw_float.c ****   AI_ARRAY_OBJ_DECLARE(input_output_array, format, sw_info->general.input.mem.start_offset,
 1267              		.loc 1 324 3 view .LVU356
 1268 0020 0791     		str	r1, [sp, #28]
 1269 0022 A16A     		ldr	r1, [r4, #40]
 1270              		.loc 1 335 3 view .LVU357
 1271 0024 40F20146 		movw	r6, #1025
 324:Lib/AI_Runtime/Npu/ll_aton/ll_sw_float.c ****   AI_ARRAY_OBJ_DECLARE(input_output_array, format, sw_info->general.input.mem.start_offset,
 1272              		.loc 1 324 3 view .LVU358
 1273 0028 CDE90811 		strd	r1, r1, [sp, #32]
 327:Lib/AI_Runtime/Npu/ll_aton/ll_sw_float.c ****                                                     : (AI_ARRAY_FORMAT_U8 | AI_FMT_FLAG_IS_IO);
 1274              		.loc 1 327 3 is_stmt 1 view .LVU359
 328:Lib/AI_Runtime/Npu/ll_aton/ll_sw_float.c ****   AI_ARRAY_OBJ_DECLARE(softmax_output_array, format, sw_info->general.output.mem.start_offset,
 1275              		.loc 1 328 53 is_stmt 0 view .LVU360
 1276 002c 94F85810 		ldrb	r1, [r4, #88]	@ zero_extendqisi2
 1277              		.loc 1 335 3 view .LVU361
 1278 0030 2769     		ldr	r7, [r4, #16]
 328:Lib/AI_Runtime/Npu/ll_aton/ll_sw_float.c ****   AI_ARRAY_OBJ_DECLARE(softmax_output_array, format, sw_info->general.output.mem.start_offset,
 1279              		.loc 1 328 53 discriminator 1 view .LVU362
 1280 0032 0029     		cmp	r1, #0
 332:Lib/AI_Runtime/Npu/ll_aton/ll_sw_float.c ****                        sw_info->scratch.mem.start_offset, sw_info->scratch.dim.num_elem, )
 1281              		.loc 1 332 3 view .LVU363
 1282 0034 4C49     		ldr	r1, .L29+8
 328:Lib/AI_Runtime/Npu/ll_aton/ll_sw_float.c ****   AI_ARRAY_OBJ_DECLARE(softmax_output_array, format, sw_info->general.output.mem.start_offset,
 1283              		.loc 1 328 53 discriminator 1 view .LVU364
 1284 0036 18BF     		it	ne
 1285 0038 1346     		movne	r3, r2
 1286              	.LVL29:
 329:Lib/AI_Runtime/Npu/ll_aton/ll_sw_float.c ****                        sw_info->general.output.mem.start_offset, sw_info->general.output.dim.num_el
 1287              		.loc 1 329 3 is_stmt 1 view .LVU365
 332:Lib/AI_Runtime/Npu/ll_aton/ll_sw_float.c ****                        sw_info->scratch.mem.start_offset, sw_info->scratch.dim.num_elem, )
 1288              		.loc 1 332 3 is_stmt 0 view .LVU366
 1289 003a 0E91     		str	r1, [sp, #56]
 1290 003c E16E     		ldr	r1, [r4, #108]
 329:Lib/AI_Runtime/Npu/ll_aton/ll_sw_float.c ****                        sw_info->general.output.mem.start_offset, sw_info->general.output.dim.num_el
 1291              		.loc 1 329 3 view .LVU367
 1292 003e 0A93     		str	r3, [sp, #40]
 332:Lib/AI_Runtime/Npu/ll_aton/ll_sw_float.c ****                        sw_info->scratch.mem.start_offset, sw_info->scratch.dim.num_elem, )
 1293              		.loc 1 332 3 view .LVU368
 1294 0040 0F91     		str	r1, [sp, #60]
 1295 0042 D4F88010 		ldr	r1, [r4, #128]
 329:Lib/AI_Runtime/Npu/ll_aton/ll_sw_float.c ****                        sw_info->general.output.mem.start_offset, sw_info->general.output.dim.num_el
 1296              		.loc 1 329 3 view .LVU369
 1297 0046 236C     		ldr	r3, [r4, #64]
 1298              	.LVL30:
 332:Lib/AI_Runtime/Npu/ll_aton/ll_sw_float.c ****                        sw_info->scratch.mem.start_offset, sw_info->scratch.dim.num_elem, )
 1299              		.loc 1 332 3 view .LVU370
 1300 0048 CDE91011 		strd	r1, r1, [sp, #64]
 1301              		.loc 1 335 3 view .LVU371
 1302 004c 0021     		movs	r1, #0
 1303 004e 1297     		str	r7, [sp, #72]
 1304 0050 E768     		ldr	r7, [r4, #12]
 329:Lib/AI_Runtime/Npu/ll_aton/ll_sw_float.c ****                        sw_info->general.output.mem.start_offset, sw_info->general.output.dim.num_el
 1305              		.loc 1 329 3 view .LVU372
ARM GAS  C:\Users\DJESSOU\AppData\Local\Temp\ccdFeyMS.s 			page 33


 1306 0052 0B93     		str	r3, [sp, #44]
 1307              		.loc 1 335 3 view .LVU373
 1308 0054 1397     		str	r7, [sp, #76]
 329:Lib/AI_Runtime/Npu/ll_aton/ll_sw_float.c ****                        sw_info->general.output.mem.start_offset, sw_info->general.output.dim.num_el
 1309              		.loc 1 329 3 view .LVU374
 1310 0056 636D     		ldr	r3, [r4, #84]
 1311              		.loc 1 335 3 view .LVU375
 1312 0058 A768     		ldr	r7, [r4, #8]
 1313 005a CDE92A1C 		strd	r1, ip, [sp, #168]
 329:Lib/AI_Runtime/Npu/ll_aton/ll_sw_float.c ****                        sw_info->general.output.mem.start_offset, sw_info->general.output.dim.num_el
 1314              		.loc 1 329 3 view .LVU376
 1315 005e CDE90C33 		strd	r3, r3, [sp, #48]
 332:Lib/AI_Runtime/Npu/ll_aton/ll_sw_float.c ****                        sw_info->scratch.mem.start_offset, sw_info->scratch.dim.num_elem, )
 1316              		.loc 1 332 3 is_stmt 1 view .LVU377
 1317              		.loc 1 335 3 view .LVU378
 1318 0062 2C96     		str	r6, [sp, #176]
 1319 0064 1497     		str	r7, [sp, #80]
 1320 0066 6768     		ldr	r7, [r4, #4]
 1321 0068 12AD     		add	r5, sp, #72
 1322 006a 1597     		str	r7, [sp, #84]
 1323 006c 40F20247 		movw	r7, #1026
 1324 0070 2D95     		str	r5, [sp, #180]
 1325 0072 656A     		ldr	r5, [r4, #36]
 324:Lib/AI_Runtime/Npu/ll_aton/ll_sw_float.c ****                        sw_info->general.input.mem.start_offset, sw_info->general.input.dim.num_elem
 1326              		.loc 1 324 3 is_stmt 0 view .LVU379
 1327 0074 06A8     		add	r0, sp, #24
 1328              	.LVL31:
 1329              		.loc 1 335 3 view .LVU380
 1330 0076 1695     		str	r5, [sp, #88]
 1331 0078 256A     		ldr	r5, [r4, #32]
 336:Lib/AI_Runtime/Npu/ll_aton/ll_sw_float.c ****                         SHAPE_INIT(sw_info->general.input.dim.tensor_h, sw_info->general.input.dim.
 337:Lib/AI_Runtime/Npu/ll_aton/ll_sw_float.c ****                                    sw_info->general.input.dim.tensor_c, sw_info->general.input.dim.
 338:Lib/AI_Runtime/Npu/ll_aton/ll_sw_float.c ****                         STRIDE_INIT(sw_info->general.input.stride.h, sw_info->general.input.stride.
 339:Lib/AI_Runtime/Npu/ll_aton/ll_sw_float.c ****                                     sw_info->general.input.stride.c, sw_info->general.input.stride.
 340:Lib/AI_Runtime/Npu/ll_aton/ll_sw_float.c ****                         1, &input_output_array, NULL);
 341:Lib/AI_Runtime/Npu/ll_aton/ll_sw_float.c **** 
 342:Lib/AI_Runtime/Npu/ll_aton/ll_sw_float.c ****   AI_TENSOR_OBJ_DECLARE(softmax_output, , 0x0, 4,
 1332              		.loc 1 342 3 view .LVU381
 1333 007a CDE9311C 		strd	r1, ip, [sp, #196]
 335:Lib/AI_Runtime/Npu/ll_aton/ll_sw_float.c ****                         SHAPE_INIT(sw_info->general.input.dim.tensor_h, sw_info->general.input.dim.
 1334              		.loc 1 335 3 view .LVU382
 1335 007e 1795     		str	r5, [sp, #92]
 1336 0080 E569     		ldr	r5, [r4, #28]
 1337 0082 2E97     		str	r7, [sp, #184]
 1338 0084 1895     		str	r5, [sp, #96]
 1339 0086 A569     		ldr	r5, [r4, #24]
 1340              		.loc 1 342 3 view .LVU383
 1341 0088 3396     		str	r6, [sp, #204]
 335:Lib/AI_Runtime/Npu/ll_aton/ll_sw_float.c ****                         SHAPE_INIT(sw_info->general.input.dim.tensor_h, sw_info->general.input.dim.
 1342              		.loc 1 335 3 view .LVU384
 1343 008a 1995     		str	r5, [sp, #100]
 1344 008c 16AD     		add	r5, sp, #88
 1345 008e CDE92F50 		strd	r5, r0, [sp, #188]
 340:Lib/AI_Runtime/Npu/ll_aton/ll_sw_float.c **** 
 1346              		.loc 1 340 54 is_stmt 1 view .LVU385
 1347              		.loc 1 342 3 view .LVU386
 1348 0092 E06B     		ldr	r0, [r4, #60]
ARM GAS  C:\Users\DJESSOU\AppData\Local\Temp\ccdFeyMS.s 			page 34


 329:Lib/AI_Runtime/Npu/ll_aton/ll_sw_float.c ****                        sw_info->general.output.mem.start_offset, sw_info->general.output.dim.num_el
 1349              		.loc 1 329 3 is_stmt 0 view .LVU387
 1350 0094 0AAA     		add	r2, sp, #40
 1351              	.LVL32:
 1352              		.loc 1 342 3 view .LVU388
 1353 0096 1A90     		str	r0, [sp, #104]
 1354 0098 A06B     		ldr	r0, [r4, #56]
 332:Lib/AI_Runtime/Npu/ll_aton/ll_sw_float.c ****                        sw_info->scratch.mem.start_offset, sw_info->scratch.dim.num_elem, )
 1355              		.loc 1 332 3 view .LVU389
 1356 009a 0EAB     		add	r3, sp, #56
 1357              		.loc 1 342 3 view .LVU390
 1358 009c 1B90     		str	r0, [sp, #108]
 1359 009e 606B     		ldr	r0, [r4, #52]
 343:Lib/AI_Runtime/Npu/ll_aton/ll_sw_float.c ****                         SHAPE_INIT(sw_info->general.output.dim.tensor_h, sw_info->general.output.di
 344:Lib/AI_Runtime/Npu/ll_aton/ll_sw_float.c ****                                    sw_info->general.output.dim.tensor_c, sw_info->general.output.di
 345:Lib/AI_Runtime/Npu/ll_aton/ll_sw_float.c ****                         STRIDE_INIT(sw_info->general.output.stride.h, sw_info->general.output.strid
 346:Lib/AI_Runtime/Npu/ll_aton/ll_sw_float.c ****                                     sw_info->general.output.stride.c, sw_info->general.output.strid
 347:Lib/AI_Runtime/Npu/ll_aton/ll_sw_float.c ****                         1, &softmax_output_array, NULL);
 348:Lib/AI_Runtime/Npu/ll_aton/ll_sw_float.c **** 
 349:Lib/AI_Runtime/Npu/ll_aton/ll_sw_float.c ****   AI_TENSOR_OBJ_DECLARE(sm_scratch0, , 0x0, 4,
 350:Lib/AI_Runtime/Npu/ll_aton/ll_sw_float.c ****                         SHAPE_INIT(sw_info->scratch.dim.tensor_h, sw_info->scratch.dim.tensor_w,
 351:Lib/AI_Runtime/Npu/ll_aton/ll_sw_float.c ****                                    sw_info->scratch.dim.tensor_c, sw_info->scratch.dim.tensor_b),
 352:Lib/AI_Runtime/Npu/ll_aton/ll_sw_float.c ****                         STRIDE_INIT(sw_info->scratch.stride.h, sw_info->scratch.stride.w, sw_info->
 353:Lib/AI_Runtime/Npu/ll_aton/ll_sw_float.c ****                                     sw_info->scratch.stride.b),
 354:Lib/AI_Runtime/Npu/ll_aton/ll_sw_float.c ****                         1, &sm_scratch0_array, NULL);
 355:Lib/AI_Runtime/Npu/ll_aton/ll_sw_float.c **** 
 356:Lib/AI_Runtime/Npu/ll_aton/ll_sw_float.c ****   // tensor chain initialization
 357:Lib/AI_Runtime/Npu/ll_aton/ll_sw_float.c ****   AI_TENSOR_CHAIN_OBJ_DECLARE(softmax_chain, , 4, AI_TENSOR_LIST_OBJ_INIT(AI_FLAG_NONE, 1, TENSORS(
 1360              		.loc 1 357 3 view .LVU391
 1361 00a0 04AD     		add	r5, sp, #16
 342:Lib/AI_Runtime/Npu/ll_aton/ll_sw_float.c ****                         SHAPE_INIT(sw_info->general.output.dim.tensor_h, sw_info->general.output.di
 1362              		.loc 1 342 3 view .LVU392
 1363 00a2 1C90     		str	r0, [sp, #112]
 1364 00a4 206B     		ldr	r0, [r4, #48]
 1365 00a6 1D90     		str	r0, [sp, #116]
 1366 00a8 1AA8     		add	r0, sp, #104
 1367 00aa CDE93407 		strd	r0, r7, [sp, #208]
 1368 00ae 206D     		ldr	r0, [r4, #80]
 1369 00b0 1E90     		str	r0, [sp, #120]
 1370 00b2 E06C     		ldr	r0, [r4, #76]
 1371 00b4 1F90     		str	r0, [sp, #124]
 1372 00b6 A06C     		ldr	r0, [r4, #72]
 1373 00b8 2090     		str	r0, [sp, #128]
 1374 00ba 606C     		ldr	r0, [r4, #68]
 349:Lib/AI_Runtime/Npu/ll_aton/ll_sw_float.c ****                         SHAPE_INIT(sw_info->scratch.dim.tensor_h, sw_info->scratch.dim.tensor_w,
 1375              		.loc 1 349 3 view .LVU393
 1376 00bc CDE9381C 		strd	r1, ip, [sp, #224]
 342:Lib/AI_Runtime/Npu/ll_aton/ll_sw_float.c ****                         SHAPE_INIT(sw_info->general.output.dim.tensor_h, sw_info->general.output.di
 1377              		.loc 1 342 3 view .LVU394
 1378 00c0 2190     		str	r0, [sp, #132]
 1379 00c2 1EA8     		add	r0, sp, #120
 1380 00c4 CDE93602 		strd	r0, r2, [sp, #216]
 347:Lib/AI_Runtime/Npu/ll_aton/ll_sw_float.c **** 
 1381              		.loc 1 347 56 is_stmt 1 view .LVU395
 349:Lib/AI_Runtime/Npu/ll_aton/ll_sw_float.c ****                         SHAPE_INIT(sw_info->scratch.dim.tensor_h, sw_info->scratch.dim.tensor_w,
 1382              		.loc 1 349 3 view .LVU396
 1383 00c8 A26E     		ldr	r2, [r4, #104]
ARM GAS  C:\Users\DJESSOU\AppData\Local\Temp\ccdFeyMS.s 			page 35


 1384              	.LVL33:
 349:Lib/AI_Runtime/Npu/ll_aton/ll_sw_float.c ****                         SHAPE_INIT(sw_info->scratch.dim.tensor_h, sw_info->scratch.dim.tensor_w,
 1385              		.loc 1 349 3 is_stmt 0 view .LVU397
 1386 00ca 3A96     		str	r6, [sp, #232]
 1387 00cc 2292     		str	r2, [sp, #136]
 1388 00ce 626E     		ldr	r2, [r4, #100]
 1389              		.loc 1 357 3 view .LVU398
 1390 00d0 CDF824D1 		str	sp, [sp, #292]
 349:Lib/AI_Runtime/Npu/ll_aton/ll_sw_float.c ****                         SHAPE_INIT(sw_info->scratch.dim.tensor_h, sw_info->scratch.dim.tensor_w,
 1391              		.loc 1 349 3 view .LVU399
 1392 00d4 2392     		str	r2, [sp, #140]
 1393 00d6 226E     		ldr	r2, [r4, #96]
 1394              		.loc 1 357 3 view .LVU400
 1395 00d8 31A8     		add	r0, sp, #196
 349:Lib/AI_Runtime/Npu/ll_aton/ll_sw_float.c ****                         SHAPE_INIT(sw_info->scratch.dim.tensor_h, sw_info->scratch.dim.tensor_w,
 1396              		.loc 1 349 3 view .LVU401
 1397 00da 2492     		str	r2, [sp, #144]
 1398 00dc E26D     		ldr	r2, [r4, #92]
 1399 00de 2592     		str	r2, [sp, #148]
 1400 00e0 22AA     		add	r2, sp, #136
 1401 00e2 CDE93B27 		strd	r2, r7, [sp, #236]
 1402 00e6 E26F     		ldr	r2, [r4, #124]
 1403 00e8 2692     		str	r2, [sp, #152]
 1404 00ea A26F     		ldr	r2, [r4, #120]
 1405 00ec 2792     		str	r2, [sp, #156]
 1406 00ee 626F     		ldr	r2, [r4, #116]
 1407 00f0 2892     		str	r2, [sp, #160]
 1408 00f2 226F     		ldr	r2, [r4, #112]
 1409 00f4 2992     		str	r2, [sp, #164]
 1410 00f6 26AA     		add	r2, sp, #152
 1411 00f8 CDE93D23 		strd	r2, r3, [sp, #244]
 354:Lib/AI_Runtime/Npu/ll_aton/ll_sw_float.c **** 
 1412              		.loc 1 354 53 is_stmt 1 view .LVU402
 1413              		.loc 1 357 3 view .LVU403
 1414 00fc 0423     		movs	r3, #4
 1415 00fe 0493     		str	r3, [sp, #16]
 1416 0100 0123     		movs	r3, #1
 1417 0102 2AAA     		add	r2, sp, #168
 1418 0104 4893     		str	r3, [sp, #288]
 1419 0106 0092     		str	r2, [sp]
 1420 0108 CDE94A13 		strd	r1, r3, [sp, #296]
 1421 010c 01AA     		add	r2, sp, #4
 1422 010e 5193     		str	r3, [sp, #324]
 1423 0110 03AB     		add	r3, sp, #12
 1424 0112 CDE94C21 		strd	r2, r1, [sp, #304]
 1425 0116 CDE95231 		strd	r3, r1, [sp, #328]
 1426 011a 02AA     		add	r2, sp, #8
 1427 011c 48AB     		add	r3, sp, #288
 1428 011e CDE94F21 		strd	r2, r1, [sp, #316]
 1429 0122 0593     		str	r3, [sp, #20]
 358:Lib/AI_Runtime/Npu/ll_aton/ll_sw_float.c ****                               AI_TENSOR_LIST_OBJ_INIT(AI_FLAG_NONE, 1, TENSORS(&softmax_output)),
 359:Lib/AI_Runtime/Npu/ll_aton/ll_sw_float.c ****                               AI_TENSOR_LIST_OBJ_EMPTY, AI_TENSOR_LIST_OBJ_INIT(AI_FLAG_NONE, 1, TE
 360:Lib/AI_Runtime/Npu/ll_aton/ll_sw_float.c **** 
 361:Lib/AI_Runtime/Npu/ll_aton/ll_sw_float.c ****   AI_LAYER_OBJ_DECLARE(sm_layer, 1, SM_TYPE, 0x0, NULL, sm, forward_sm, &softmax_chain, NULL, NULL,
 1430              		.loc 1 361 3 view .LVU404
 357:Lib/AI_Runtime/Npu/ll_aton/ll_sw_float.c ****                               AI_TENSOR_LIST_OBJ_INIT(AI_FLAG_NONE, 1, TENSORS(&softmax_output)),
 1431              		.loc 1 357 3 is_stmt 0 view .LVU405
ARM GAS  C:\Users\DJESSOU\AppData\Local\Temp\ccdFeyMS.s 			page 36


 1432 0124 38AA     		add	r2, sp, #224
 1433              		.loc 1 361 3 view .LVU406
 1434 0126 114B     		ldr	r3, .L29+12
 357:Lib/AI_Runtime/Npu/ll_aton/ll_sw_float.c ****                               AI_TENSOR_LIST_OBJ_INIT(AI_FLAG_NONE, 1, TENSORS(&softmax_output)),
 1435              		.loc 1 357 3 view .LVU407
 1436 0128 0190     		str	r0, [sp, #4]
 1437 012a 0392     		str	r2, [sp, #12]
 1438              		.loc 1 361 3 view .LVU408
 1439 012c 40A8     		add	r0, sp, #256
 1440 012e 2022     		movs	r2, #32
 357:Lib/AI_Runtime/Npu/ll_aton/ll_sw_float.c ****                               AI_TENSOR_LIST_OBJ_INIT(AI_FLAG_NONE, 1, TENSORS(&softmax_output)),
 1441              		.loc 1 357 3 view .LVU409
 1442 0130 4E91     		str	r1, [sp, #312]
 1443 0132 0291     		str	r1, [sp, #8]
 1444              		.loc 1 361 3 view .LVU410
 1445 0134 3F93     		str	r3, [sp, #252]
 1446 0136 FFF7FEFF 		bl	memset
 1447              	.LVL34:
 1448              		.loc 1 361 3 view .LVU411
 1449 013a 0D4B     		ldr	r3, .L29+16
 362:Lib/AI_Runtime/Npu/ll_aton/ll_sw_float.c ****                        .axis = helper_emit_shape_index_axis(sw_info->axis))
 363:Lib/AI_Runtime/Npu/ll_aton/ll_sw_float.c ****   sm_layer.forward(AI_LAYER_OBJ(&sm_layer));
 1450              		.loc 1 363 3 view .LVU412
 1451 013c 3FA8     		add	r0, sp, #252
 361:Lib/AI_Runtime/Npu/ll_aton/ll_sw_float.c ****                        .axis = helper_emit_shape_index_axis(sw_info->axis))
 1452              		.loc 1 361 3 view .LVU413
 1453 013e CDE94435 		strd	r3, r5, [sp, #272]
 1454              	.LVL35:
 1455              	.LBB13:
 1456              	.LBI13:
  46:Lib/AI_Runtime/Npu/ll_aton/ll_sw_float.c **** {
 1457              		.loc 1 46 12 is_stmt 1 view .LVU414
  48:Lib/AI_Runtime/Npu/ll_aton/ll_sw_float.c ****   {
 1458              		.loc 1 48 3 view .LVU415
 1459 0142 D4F88830 		ldr	r3, [r4, #136]
 1460 0146 032B     		cmp	r3, #3
 1461              	.LBE13:
 361:Lib/AI_Runtime/Npu/ll_aton/ll_sw_float.c ****                        .axis = helper_emit_shape_index_axis(sw_info->axis))
 1462              		.loc 1 361 3 is_stmt 0 view .LVU416
 1463 0148 8EBF     		itee	hi
 1464 014a 4FF0FF33 		movhi	r3, #-1
 1465              	.LVL36:
 361:Lib/AI_Runtime/Npu/ll_aton/ll_sw_float.c ****                        .axis = helper_emit_shape_index_axis(sw_info->axis))
 1466              		.loc 1 361 3 view .LVU417
 1467 014e 094A     		ldrls	r2, .L29+20
 1468 0150 D356     		ldrsbls	r3, [r2, r3]
 361:Lib/AI_Runtime/Npu/ll_aton/ll_sw_float.c ****                        .axis = helper_emit_shape_index_axis(sw_info->axis))
 1469              		.loc 1 361 3 discriminator 1 view .LVU418
 1470 0152 ADF81C31 		strh	r3, [sp, #284]	@ movhi
 1471              		.loc 1 363 3 is_stmt 1 view .LVU419
 1472 0156 FFF7FEFF 		bl	forward_sm
 1473              	.LVL37:
 364:Lib/AI_Runtime/Npu/ll_aton/ll_sw_float.c **** }
 1474              		.loc 1 364 1 is_stmt 0 view .LVU420
 1475 015a 55B0     		add	sp, sp, #340
 1476              		.cfi_def_cfa_offset 20
 1477              		@ sp needed
ARM GAS  C:\Users\DJESSOU\AppData\Local\Temp\ccdFeyMS.s 			page 37


 1478 015c F0BD     		pop	{r4, r5, r6, r7, pc}
 1479              	.LVL38:
 1480              	.L30:
 1481              		.loc 1 364 1 view .LVU421
 1482 015e 00BF     		.align	2
 1483              	.L29:
 1484 0160 40040408 		.word	134480960
 1485 0164 40048408 		.word	142869568
 1486 0168 40108400 		.word	8654912
 1487 016c 0C010100 		.word	65804
 1488 0170 00000000 		.word	forward_sm
 1489 0174 00000000 		.word	CSWTCH.4
 1490              		.cfi_endproc
 1491              	.LFE19:
 1493              		.section	.text.ll_sw_forward_activ,"ax",%progbits
 1494              		.align	1
 1495              		.global	ll_sw_forward_activ
 1496              		.syntax unified
 1497              		.thumb
 1498              		.thumb_func
 1500              	ll_sw_forward_activ:
 1501              	.LVL39:
 1502              	.LFB20:
 365:Lib/AI_Runtime/Npu/ll_aton/ll_sw_float.c **** 
 366:Lib/AI_Runtime/Npu/ll_aton/ll_sw_float.c **** //##########################################################################################
 367:Lib/AI_Runtime/Npu/ll_aton/ll_sw_float.c **** /** activ forward function  */
 368:Lib/AI_Runtime/Npu/ll_aton/ll_sw_float.c **** void ll_sw_forward_activ(/* int processor, */ void *sw_info_struct)
 369:Lib/AI_Runtime/Npu/ll_aton/ll_sw_float.c **** {
 1503              		.loc 1 369 1 is_stmt 1 view -0
 1504              		.cfi_startproc
 1505              		@ args = 0, pretend = 0, frame = 408
 1506              		@ frame_needed = 0, uses_anonymous_args = 0
 370:Lib/AI_Runtime/Npu/ll_aton/ll_sw_float.c ****   Activ_sw_info *sw_info = (Activ_sw_info *)sw_info_struct;
 1507              		.loc 1 370 3 view .LVU423
 371:Lib/AI_Runtime/Npu/ll_aton/ll_sw_float.c ****   // array init
 372:Lib/AI_Runtime/Npu/ll_aton/ll_sw_float.c ****   AI_ARRAY_OBJ_DECLARE(input_output_array, FORMAT, sw_info->general.input.mem.start_offset,
 1508              		.loc 1 372 3 view .LVU424
 369:Lib/AI_Runtime/Npu/ll_aton/ll_sw_float.c ****   Activ_sw_info *sw_info = (Activ_sw_info *)sw_info_struct;
 1509              		.loc 1 369 1 is_stmt 0 view .LVU425
 1510 0000 F0B5     		push	{r4, r5, r6, r7, lr}
 1511              		.cfi_def_cfa_offset 20
 1512              		.cfi_offset 4, -20
 1513              		.cfi_offset 5, -16
 1514              		.cfi_offset 6, -12
 1515              		.cfi_offset 7, -8
 1516              		.cfi_offset 14, -4
 1517              		.loc 1 372 3 view .LVU426
 1518 0002 4369     		ldr	r3, [r0, #20]
 369:Lib/AI_Runtime/Npu/ll_aton/ll_sw_float.c ****   Activ_sw_info *sw_info = (Activ_sw_info *)sw_info_struct;
 1519              		.loc 1 369 1 view .LVU427
 1520 0004 E7B0     		sub	sp, sp, #412
 1521              		.cfi_def_cfa_offset 432
 1522              		.loc 1 372 3 view .LVU428
 1523 0006 0E93     		str	r3, [sp, #56]
 1524 0008 836A     		ldr	r3, [r0, #40]
 373:Lib/AI_Runtime/Npu/ll_aton/ll_sw_float.c ****                        sw_info->general.input.mem.start_offset, sw_info->general.input.dim.num_elem
 374:Lib/AI_Runtime/Npu/ll_aton/ll_sw_float.c ****   AI_ARRAY_OBJ_DECLARE(activ_output_array, FORMAT, sw_info->general.output.mem.start_offset,
ARM GAS  C:\Users\DJESSOU\AppData\Local\Temp\ccdFeyMS.s 			page 38


 375:Lib/AI_Runtime/Npu/ll_aton/ll_sw_float.c ****                        sw_info->general.output.mem.start_offset, sw_info->general.output.dim.num_el
 376:Lib/AI_Runtime/Npu/ll_aton/ll_sw_float.c ****   // tensors init
 377:Lib/AI_Runtime/Npu/ll_aton/ll_sw_float.c ****   AI_TENSOR_OBJ_DECLARE(input_output, , 0x0, 4,
 1525              		.loc 1 377 3 view .LVU429
 1526 000a 15AF     		add	r7, sp, #84
 372:Lib/AI_Runtime/Npu/ll_aton/ll_sw_float.c ****                        sw_info->general.input.mem.start_offset, sw_info->general.input.dim.num_elem
 1527              		.loc 1 372 3 view .LVU430
 1528 000c CDE90F33 		strd	r3, r3, [sp, #60]
 374:Lib/AI_Runtime/Npu/ll_aton/ll_sw_float.c ****                        sw_info->general.output.mem.start_offset, sw_info->general.output.dim.num_el
 1529              		.loc 1 374 3 is_stmt 1 view .LVU431
 1530 0010 036C     		ldr	r3, [r0, #64]
 1531              		.loc 1 377 3 is_stmt 0 view .LVU432
 1532 0012 4FF0827C 		mov	ip, #17039360
 374:Lib/AI_Runtime/Npu/ll_aton/ll_sw_float.c ****                        sw_info->general.output.mem.start_offset, sw_info->general.output.dim.num_el
 1533              		.loc 1 374 3 view .LVU433
 1534 0016 1293     		str	r3, [sp, #72]
 1535 0018 436D     		ldr	r3, [r0, #84]
 1536              		.loc 1 377 3 view .LVU434
 1537 001a 40F2014E 		movw	lr, #1025
 374:Lib/AI_Runtime/Npu/ll_aton/ll_sw_float.c ****                        sw_info->general.output.mem.start_offset, sw_info->general.output.dim.num_el
 1538              		.loc 1 374 3 view .LVU435
 1539 001e CDE91333 		strd	r3, r3, [sp, #76]
 1540              		.loc 1 377 3 is_stmt 1 view .LVU436
 1541 0022 3497     		str	r7, [sp, #208]
 1542 0024 0023     		movs	r3, #0
 1543 0026 40F20247 		movw	r7, #1026
 1544 002a 0569     		ldr	r5, [r0, #16]
 1545 002c 466A     		ldr	r6, [r0, #36]
 1546 002e 1595     		str	r5, [sp, #84]
 1547 0030 C568     		ldr	r5, [r0, #12]
 372:Lib/AI_Runtime/Npu/ll_aton/ll_sw_float.c ****                        sw_info->general.input.mem.start_offset, sw_info->general.input.dim.num_elem
 1548              		.loc 1 372 3 is_stmt 0 view .LVU437
 1549 0032 9249     		ldr	r1, .L71
 1550              		.loc 1 377 3 view .LVU438
 1551 0034 1695     		str	r5, [sp, #88]
 1552 0036 8568     		ldr	r5, [r0, #8]
 1553 0038 1996     		str	r6, [sp, #100]
 1554 003a 1795     		str	r5, [sp, #92]
 1555 003c 4568     		ldr	r5, [r0, #4]
 1556 003e 066A     		ldr	r6, [r0, #32]
 372:Lib/AI_Runtime/Npu/ll_aton/ll_sw_float.c ****                        sw_info->general.input.mem.start_offset, sw_info->general.input.dim.num_elem
 1557              		.loc 1 372 3 view .LVU439
 1558 0040 0DAC     		add	r4, sp, #52
 1559              		.loc 1 377 3 view .LVU440
 1560 0042 1895     		str	r5, [sp, #96]
 1561 0044 19AD     		add	r5, sp, #100
 1562 0046 3597     		str	r7, [sp, #212]
 1563 0048 CDE9313C 		strd	r3, ip, [sp, #196]
 372:Lib/AI_Runtime/Npu/ll_aton/ll_sw_float.c ****                        sw_info->general.input.mem.start_offset, sw_info->general.input.dim.num_elem
 1564              		.loc 1 372 3 view .LVU441
 1565 004c 0D91     		str	r1, [sp, #52]
 374:Lib/AI_Runtime/Npu/ll_aton/ll_sw_float.c ****                        sw_info->general.output.mem.start_offset, sw_info->general.output.dim.num_el
 1566              		.loc 1 374 3 view .LVU442
 1567 004e 1191     		str	r1, [sp, #68]
 1568              		.loc 1 377 3 view .LVU443
 1569 0050 CDF8CCE0 		str	lr, [sp, #204]
 1570 0054 1A96     		str	r6, [sp, #104]
ARM GAS  C:\Users\DJESSOU\AppData\Local\Temp\ccdFeyMS.s 			page 39


 1571 0056 C669     		ldr	r6, [r0, #28]
 1572 0058 CDE93654 		strd	r5, r4, [sp, #216]
 378:Lib/AI_Runtime/Npu/ll_aton/ll_sw_float.c ****                         SHAPE_INIT(sw_info->general.input.dim.tensor_h, sw_info->general.input.dim.
 379:Lib/AI_Runtime/Npu/ll_aton/ll_sw_float.c ****                                    sw_info->general.input.dim.tensor_c, sw_info->general.input.dim.
 380:Lib/AI_Runtime/Npu/ll_aton/ll_sw_float.c ****                         STRIDE_INIT(sw_info->general.input.stride.h, sw_info->general.input.stride.
 381:Lib/AI_Runtime/Npu/ll_aton/ll_sw_float.c ****                                     sw_info->general.input.stride.c, sw_info->general.input.stride.
 382:Lib/AI_Runtime/Npu/ll_aton/ll_sw_float.c ****                         1, &input_output_array, NULL)
 383:Lib/AI_Runtime/Npu/ll_aton/ll_sw_float.c ****   AI_TENSOR_OBJ_DECLARE(activ_output, , 0x0, 4,
 1573              		.loc 1 383 3 is_stmt 1 view .LVU444
 1574 005c 1DAC     		add	r4, sp, #116
 374:Lib/AI_Runtime/Npu/ll_aton/ll_sw_float.c ****                        sw_info->general.output.mem.start_offset, sw_info->general.output.dim.num_el
 1575              		.loc 1 374 3 is_stmt 0 view .LVU445
 1576 005e 11AA     		add	r2, sp, #68
 1577              		.loc 1 383 3 view .LVU446
 1578 0060 CDE93B47 		strd	r4, r7, [sp, #236]
 1579 0064 21AC     		add	r4, sp, #132
 1580 0066 CDE93D42 		strd	r4, r2, [sp, #244]
 384:Lib/AI_Runtime/Npu/ll_aton/ll_sw_float.c ****                         SHAPE_INIT(sw_info->general.output.dim.tensor_h, sw_info->general.output.di
 385:Lib/AI_Runtime/Npu/ll_aton/ll_sw_float.c ****                                    sw_info->general.output.dim.tensor_c, sw_info->general.output.di
 386:Lib/AI_Runtime/Npu/ll_aton/ll_sw_float.c ****                         STRIDE_INIT(sw_info->general.output.stride.h, sw_info->general.output.strid
 387:Lib/AI_Runtime/Npu/ll_aton/ll_sw_float.c ****                                     sw_info->general.output.stride.c, sw_info->general.output.strid
 388:Lib/AI_Runtime/Npu/ll_aton/ll_sw_float.c ****                         1, &activ_output_array, NULL)
 389:Lib/AI_Runtime/Npu/ll_aton/ll_sw_float.c ****   // tensor chains init
 390:Lib/AI_Runtime/Npu/ll_aton/ll_sw_float.c ****   AI_TENSOR_CHAIN_OBJ_DECLARE(activ_chain, , 4, AI_TENSOR_LIST_OBJ_INIT(AI_FLAG_NONE, 1, TENSORS(&i
 1581              		.loc 1 390 3 is_stmt 1 view .LVU447
 1582 006a 0424     		movs	r4, #4
 1583 006c 0994     		str	r4, [sp, #36]
 1584 006e 0124     		movs	r4, #1
 383:Lib/AI_Runtime/Npu/ll_aton/ll_sw_float.c ****                         SHAPE_INIT(sw_info->general.output.dim.tensor_h, sw_info->general.output.di
 1585              		.loc 1 383 3 is_stmt 0 view .LVU448
 1586 0070 C56B     		ldr	r5, [r0, #60]
 377:Lib/AI_Runtime/Npu/ll_aton/ll_sw_float.c ****                         SHAPE_INIT(sw_info->general.input.dim.tensor_h, sw_info->general.input.dim.
 1587              		.loc 1 377 3 view .LVU449
 1588 0072 1B96     		str	r6, [sp, #108]
 383:Lib/AI_Runtime/Npu/ll_aton/ll_sw_float.c ****                         SHAPE_INIT(sw_info->general.output.dim.tensor_h, sw_info->general.output.di
 1589              		.loc 1 383 3 view .LVU450
 1590 0074 1D95     		str	r5, [sp, #116]
 1591 0076 856B     		ldr	r5, [r0, #56]
 377:Lib/AI_Runtime/Npu/ll_aton/ll_sw_float.c ****                         SHAPE_INIT(sw_info->general.input.dim.tensor_h, sw_info->general.input.dim.
 1592              		.loc 1 377 3 view .LVU451
 1593 0078 8669     		ldr	r6, [r0, #24]
 383:Lib/AI_Runtime/Npu/ll_aton/ll_sw_float.c ****                         SHAPE_INIT(sw_info->general.output.dim.tensor_h, sw_info->general.output.di
 1594              		.loc 1 383 3 view .LVU452
 1595 007a 1E95     		str	r5, [sp, #120]
 1596 007c 456B     		ldr	r5, [r0, #52]
 377:Lib/AI_Runtime/Npu/ll_aton/ll_sw_float.c ****                         SHAPE_INIT(sw_info->general.input.dim.tensor_h, sw_info->general.input.dim.
 1597              		.loc 1 377 3 view .LVU453
 1598 007e 1C96     		str	r6, [sp, #112]
 383:Lib/AI_Runtime/Npu/ll_aton/ll_sw_float.c ****                         SHAPE_INIT(sw_info->general.output.dim.tensor_h, sw_info->general.output.di
 1599              		.loc 1 383 3 view .LVU454
 1600 0080 1F95     		str	r5, [sp, #124]
 1601 0082 056B     		ldr	r5, [r0, #48]
 1602              		.loc 1 390 3 view .LVU455
 1603 0084 02AF     		add	r7, sp, #8
 383:Lib/AI_Runtime/Npu/ll_aton/ll_sw_float.c ****                         SHAPE_INIT(sw_info->general.output.dim.tensor_h, sw_info->general.output.di
 1604              		.loc 1 383 3 view .LVU456
 1605 0086 2095     		str	r5, [sp, #128]
ARM GAS  C:\Users\DJESSOU\AppData\Local\Temp\ccdFeyMS.s 			page 40


 1606 0088 056D     		ldr	r5, [r0, #80]
 1607              		.loc 1 390 3 view .LVU457
 1608 008a 31AE     		add	r6, sp, #196
 383:Lib/AI_Runtime/Npu/ll_aton/ll_sw_float.c ****                         SHAPE_INIT(sw_info->general.output.dim.tensor_h, sw_info->general.output.di
 1609              		.loc 1 383 3 view .LVU458
 1610 008c 2195     		str	r5, [sp, #132]
 1611 008e C56C     		ldr	r5, [r0, #76]
 1612 0090 CDE9383C 		strd	r3, ip, [sp, #224]
 1613 0094 2295     		str	r5, [sp, #136]
 1614 0096 856C     		ldr	r5, [r0, #72]
 1615 0098 CDF8E8E0 		str	lr, [sp, #232]
 1616 009c 2395     		str	r5, [sp, #140]
 1617 009e 456C     		ldr	r5, [r0, #68]
 1618              		.loc 1 390 3 view .LVU459
 1619 00a0 4E94     		str	r4, [sp, #312]
 383:Lib/AI_Runtime/Npu/ll_aton/ll_sw_float.c ****                         SHAPE_INIT(sw_info->general.output.dim.tensor_h, sw_info->general.output.di
 1620              		.loc 1 383 3 view .LVU460
 1621 00a2 2495     		str	r5, [sp, #144]
 1622              		.loc 1 390 3 view .LVU461
 1623 00a4 01AD     		add	r5, sp, #4
 1624 00a6 0196     		str	r6, [sp, #4]
 1625 00a8 CDE94F53 		strd	r5, r3, [sp, #316]
 1626 00ac CDE95273 		strd	r7, r3, [sp, #328]
 1627 00b0 03AF     		add	r7, sp, #12
 1628 00b2 CDE95573 		strd	r7, r3, [sp, #340]
 1629 00b6 04AF     		add	r7, sp, #16
 1630 00b8 CDE95873 		strd	r7, r3, [sp, #352]
 1631 00bc 4EAF     		add	r7, sp, #312
 1632 00be 0A97     		str	r7, [sp, #40]
 391:Lib/AI_Runtime/Npu/ll_aton/ll_sw_float.c ****                               AI_TENSOR_LIST_OBJ_INIT(AI_FLAG_NONE, 1, TENSORS(&activ_output)),
 392:Lib/AI_Runtime/Npu/ll_aton/ll_sw_float.c ****                               AI_TENSOR_LIST_OBJ_EMPTY, AI_TENSOR_LIST_OBJ_EMPTY)
 393:Lib/AI_Runtime/Npu/ll_aton/ll_sw_float.c **** 
 394:Lib/AI_Runtime/Npu/ll_aton/ll_sw_float.c ****   // layer initialization
 395:Lib/AI_Runtime/Npu/ll_aton/ll_sw_float.c ****   switch (sw_info->general.type)
 1633              		.loc 1 395 3 is_stmt 1 view .LVU462
 1634 00c0 0778     		ldrb	r7, [r0]	@ zero_extendqisi2
 390:Lib/AI_Runtime/Npu/ll_aton/ll_sw_float.c ****                               AI_TENSOR_LIST_OBJ_INIT(AI_FLAG_NONE, 1, TENSORS(&activ_output)),
 1635              		.loc 1 390 3 is_stmt 0 view .LVU463
 1636 00c2 38AD     		add	r5, sp, #224
 1637              		.loc 1 395 3 view .LVU464
 1638 00c4 013F     		subs	r7, r7, #1
 390:Lib/AI_Runtime/Npu/ll_aton/ll_sw_float.c ****                               AI_TENSOR_LIST_OBJ_INIT(AI_FLAG_NONE, 1, TENSORS(&activ_output)),
 1639              		.loc 1 390 3 view .LVU465
 1640 00c6 09AA     		add	r2, sp, #36
 1641 00c8 5194     		str	r4, [sp, #324]
 1642 00ca 0295     		str	r5, [sp, #8]
 1643 00cc 5493     		str	r3, [sp, #336]
 1644 00ce 0393     		str	r3, [sp, #12]
 1645 00d0 5793     		str	r3, [sp, #348]
 1646 00d2 0493     		str	r3, [sp, #16]
 1647              		.loc 1 395 3 view .LVU466
 1648 00d4 522F     		cmp	r7, #82
 1649 00d6 61D8     		bhi	.L31
 1650 00d8 DFE817F0 		tbh	[pc, r7, lsl #1]
 1651              	.L34:
 1652 00dc 5300     		.2byte	(.L69-.L34)/2
 1653 00de 7E00     		.2byte	(.L68-.L34)/2
ARM GAS  C:\Users\DJESSOU\AppData\Local\Temp\ccdFeyMS.s 			page 41


 1654 00e0 F200     		.2byte	(.L67-.L34)/2
 1655 00e2 DA00     		.2byte	(.L66-.L34)/2
 1656 00e4 0A01     		.2byte	(.L65-.L34)/2
 1657 00e6 6000     		.2byte	(.L31-.L34)/2
 1658 00e8 6000     		.2byte	(.L31-.L34)/2
 1659 00ea 6000     		.2byte	(.L31-.L34)/2
 1660 00ec 6000     		.2byte	(.L31-.L34)/2
 1661 00ee 6000     		.2byte	(.L31-.L34)/2
 1662 00f0 6000     		.2byte	(.L31-.L34)/2
 1663 00f2 6000     		.2byte	(.L31-.L34)/2
 1664 00f4 6000     		.2byte	(.L31-.L34)/2
 1665 00f6 6000     		.2byte	(.L31-.L34)/2
 1666 00f8 6000     		.2byte	(.L31-.L34)/2
 1667 00fa 6000     		.2byte	(.L31-.L34)/2
 1668 00fc 6000     		.2byte	(.L31-.L34)/2
 1669 00fe 6000     		.2byte	(.L31-.L34)/2
 1670 0100 6000     		.2byte	(.L31-.L34)/2
 1671 0102 0602     		.2byte	(.L64-.L34)/2
 1672 0104 9601     		.2byte	(.L63-.L34)/2
 1673 0106 A401     		.2byte	(.L62-.L34)/2
 1674 0108 5E01     		.2byte	(.L61-.L34)/2
 1675 010a 6C01     		.2byte	(.L60-.L34)/2
 1676 010c 7A01     		.2byte	(.L59-.L34)/2
 1677 010e 8801     		.2byte	(.L58-.L34)/2
 1678 0110 F801     		.2byte	(.L57-.L34)/2
 1679 0112 EA01     		.2byte	(.L56-.L34)/2
 1680 0114 B201     		.2byte	(.L55-.L34)/2
 1681 0116 C001     		.2byte	(.L54-.L34)/2
 1682 0118 CE01     		.2byte	(.L53-.L34)/2
 1683 011a DC01     		.2byte	(.L52-.L34)/2
 1684 011c 1402     		.2byte	(.L51-.L34)/2
 1685 011e 2601     		.2byte	(.L50-.L34)/2
 1686 0120 6000     		.2byte	(.L31-.L34)/2
 1687 0122 3401     		.2byte	(.L49-.L34)/2
 1688 0124 4201     		.2byte	(.L48-.L34)/2
 1689 0126 5001     		.2byte	(.L47-.L34)/2
 1690 0128 6000     		.2byte	(.L31-.L34)/2
 1691 012a 6000     		.2byte	(.L31-.L34)/2
 1692 012c 6000     		.2byte	(.L31-.L34)/2
 1693 012e 6000     		.2byte	(.L31-.L34)/2
 1694 0130 6000     		.2byte	(.L31-.L34)/2
 1695 0132 6000     		.2byte	(.L31-.L34)/2
 1696 0134 6000     		.2byte	(.L31-.L34)/2
 1697 0136 2202     		.2byte	(.L46-.L34)/2
 1698 0138 6000     		.2byte	(.L31-.L34)/2
 1699 013a 6000     		.2byte	(.L31-.L34)/2
 1700 013c 6000     		.2byte	(.L31-.L34)/2
 1701 013e 6000     		.2byte	(.L31-.L34)/2
 1702 0140 6000     		.2byte	(.L31-.L34)/2
 1703 0142 6000     		.2byte	(.L31-.L34)/2
 1704 0144 6000     		.2byte	(.L31-.L34)/2
 1705 0146 6000     		.2byte	(.L31-.L34)/2
 1706 0148 6000     		.2byte	(.L31-.L34)/2
 1707 014a 6200     		.2byte	(.L45-.L34)/2
 1708 014c 7C02     		.2byte	(.L44-.L34)/2
 1709 014e B402     		.2byte	(.L43-.L34)/2
 1710 0150 A602     		.2byte	(.L42-.L34)/2
ARM GAS  C:\Users\DJESSOU\AppData\Local\Temp\ccdFeyMS.s 			page 42


 1711 0152 9802     		.2byte	(.L41-.L34)/2
 1712 0154 C202     		.2byte	(.L40-.L34)/2
 1713 0156 6000     		.2byte	(.L31-.L34)/2
 1714 0158 6000     		.2byte	(.L31-.L34)/2
 1715 015a 6000     		.2byte	(.L31-.L34)/2
 1716 015c 6000     		.2byte	(.L31-.L34)/2
 1717 015e 6000     		.2byte	(.L31-.L34)/2
 1718 0160 6000     		.2byte	(.L31-.L34)/2
 1719 0162 6E02     		.2byte	(.L39-.L34)/2
 1720 0164 3002     		.2byte	(.L38-.L34)/2
 1721 0166 6000     		.2byte	(.L31-.L34)/2
 1722 0168 6000     		.2byte	(.L31-.L34)/2
 1723 016a 6000     		.2byte	(.L31-.L34)/2
 1724 016c 6000     		.2byte	(.L31-.L34)/2
 1725 016e 6000     		.2byte	(.L31-.L34)/2
 1726 0170 6000     		.2byte	(.L31-.L34)/2
 1727 0172 D002     		.2byte	(.L37-.L34)/2
 1728 0174 DE02     		.2byte	(.L36-.L34)/2
 1729 0176 6000     		.2byte	(.L31-.L34)/2
 1730 0178 EC02     		.2byte	(.L35-.L34)/2
 1731 017a 6000     		.2byte	(.L31-.L34)/2
 1732 017c 6000     		.2byte	(.L31-.L34)/2
 1733 017e 6000     		.2byte	(.L31-.L34)/2
 1734 0180 FA02     		.2byte	(.L33-.L34)/2
 1735              		.p2align 1
 1736              	.L69:
 1737              	.LBB14:
 396:Lib/AI_Runtime/Npu/ll_aton/ll_sw_float.c ****   {
 397:Lib/AI_Runtime/Npu/ll_aton/ll_sw_float.c ****   case LL_SW_RELU:
 398:Lib/AI_Runtime/Npu/ll_aton/ll_sw_float.c ****   {
 399:Lib/AI_Runtime/Npu/ll_aton/ll_sw_float.c ****     AI_LAYER_OBJ_DECLARE(nonlinearity_layer, 2, NL_TYPE, 0x0, NULL, nl, forward_relu, &activ_chain,
 1738              		.loc 1 399 5 is_stmt 1 view .LVU467
 1739 0182 3F49     		ldr	r1, .L71+4
 400:Lib/AI_Runtime/Npu/ll_aton/ll_sw_float.c ****                          .nl_params = NULL, )
 401:Lib/AI_Runtime/Npu/ll_aton/ll_sw_float.c ****     nonlinearity_layer.forward(AI_LAYER_OBJ(&nonlinearity_layer));
 1740              		.loc 1 401 5 is_stmt 0 view .LVU468
 1741 0184 5AA8     		add	r0, sp, #360
 1742              	.LVL40:
 399:Lib/AI_Runtime/Npu/ll_aton/ll_sw_float.c ****                          .nl_params = NULL, )
 1743              		.loc 1 399 5 view .LVU469
 1744 0186 CDE95A13 		strd	r1, r3, [sp, #360]
 1745 018a 3E49     		ldr	r1, .L71+8
 1746 018c CDE95C33 		strd	r3, r3, [sp, #368]
 1747 0190 CDE95F12 		strd	r1, r2, [sp, #380]
 1748 0194 5E93     		str	r3, [sp, #376]
 1749 0196 6193     		str	r3, [sp, #388]
 1750              		.loc 1 401 5 is_stmt 1 view .LVU470
 1751 0198 FFF7FEFF 		bl	forward_relu
 1752              	.LVL41:
 1753              	.LBE14:
 402:Lib/AI_Runtime/Npu/ll_aton/ll_sw_float.c ****   }
 403:Lib/AI_Runtime/Npu/ll_aton/ll_sw_float.c ****   break;
 1754              		.loc 1 403 3 view .LVU471
 1755              	.L31:
 404:Lib/AI_Runtime/Npu/ll_aton/ll_sw_float.c ****   case LL_SW_CLIP:
 405:Lib/AI_Runtime/Npu/ll_aton/ll_sw_float.c ****   {
 406:Lib/AI_Runtime/Npu/ll_aton/ll_sw_float.c ****     AI_ARRAY_OBJ_DECLARE_STATIC(clip_layer_params, ai_float, AI_ARRAY_FORMAT_FLOAT, AI_CONST, 2, sw
ARM GAS  C:\Users\DJESSOU\AppData\Local\Temp\ccdFeyMS.s 			page 43


 407:Lib/AI_Runtime/Npu/ll_aton/ll_sw_float.c ****                                 sw_info->max)
 408:Lib/AI_Runtime/Npu/ll_aton/ll_sw_float.c ****     AI_LAYER_OBJ_DECLARE(nonlinearity_layer, 2, NL_TYPE, 0x0, NULL, nl, forward_clip, &activ_chain,
 409:Lib/AI_Runtime/Npu/ll_aton/ll_sw_float.c ****                          .nl_params = AI_ARRAY_OBJ(&clip_layer_params))
 410:Lib/AI_Runtime/Npu/ll_aton/ll_sw_float.c ****     nonlinearity_layer.forward(AI_LAYER_OBJ(&nonlinearity_layer));
 411:Lib/AI_Runtime/Npu/ll_aton/ll_sw_float.c ****   }
 412:Lib/AI_Runtime/Npu/ll_aton/ll_sw_float.c ****   break;
 413:Lib/AI_Runtime/Npu/ll_aton/ll_sw_float.c ****   case LL_SW_PRELU:
 414:Lib/AI_Runtime/Npu/ll_aton/ll_sw_float.c ****   {
 415:Lib/AI_Runtime/Npu/ll_aton/ll_sw_float.c ****     AI_ARRAY_OBJ_DECLARE(activ_operand_array, FORMAT, sw_info->operand.mem.start_offset,
 416:Lib/AI_Runtime/Npu/ll_aton/ll_sw_float.c ****                          sw_info->operand.mem.start_offset, sw_info->operand.dim.num_elem, )
 417:Lib/AI_Runtime/Npu/ll_aton/ll_sw_float.c **** 
 418:Lib/AI_Runtime/Npu/ll_aton/ll_sw_float.c ****     AI_TENSOR_OBJ_DECLARE(activ_operand, , 0x0, 4,
 419:Lib/AI_Runtime/Npu/ll_aton/ll_sw_float.c ****                           SHAPE_INIT(sw_info->operand.dim.tensor_h, sw_info->operand.dim.tensor_w,
 420:Lib/AI_Runtime/Npu/ll_aton/ll_sw_float.c ****                                      sw_info->operand.dim.tensor_c, sw_info->operand.dim.tensor_b),
 421:Lib/AI_Runtime/Npu/ll_aton/ll_sw_float.c ****                           STRIDE_INIT(sw_info->operand.stride.h, sw_info->operand.stride.w, sw_info
 422:Lib/AI_Runtime/Npu/ll_aton/ll_sw_float.c ****                                       sw_info->operand.stride.b),
 423:Lib/AI_Runtime/Npu/ll_aton/ll_sw_float.c ****                           1, &activ_operand_array, NULL)
 424:Lib/AI_Runtime/Npu/ll_aton/ll_sw_float.c **** 
 425:Lib/AI_Runtime/Npu/ll_aton/ll_sw_float.c ****     // tensor chains init
 426:Lib/AI_Runtime/Npu/ll_aton/ll_sw_float.c ****     AI_TENSOR_CHAIN_OBJ_DECLARE(
 427:Lib/AI_Runtime/Npu/ll_aton/ll_sw_float.c ****         prelu_activ_chain, , 4, AI_TENSOR_LIST_OBJ_INIT(AI_FLAG_NONE, 1, TENSORS(&input_output)),
 428:Lib/AI_Runtime/Npu/ll_aton/ll_sw_float.c ****         AI_TENSOR_LIST_OBJ_INIT(AI_FLAG_NONE, 1, TENSORS(&activ_output)),
 429:Lib/AI_Runtime/Npu/ll_aton/ll_sw_float.c ****         AI_TENSOR_LIST_OBJ_INIT(AI_FLAG_NONE, 1, TENSORS(&activ_operand)), AI_TENSOR_LIST_OBJ_EMPTY
 430:Lib/AI_Runtime/Npu/ll_aton/ll_sw_float.c **** 
 431:Lib/AI_Runtime/Npu/ll_aton/ll_sw_float.c ****     AI_LAYER_OBJ_DECLARE(nonlinearity_layer, 2, NL_TYPE, 0x0, NULL, nl, forward_prelu, &prelu_activ
 432:Lib/AI_Runtime/Npu/ll_aton/ll_sw_float.c ****                          .nl_params = NULL, )
 433:Lib/AI_Runtime/Npu/ll_aton/ll_sw_float.c ****     nonlinearity_layer.forward(AI_LAYER_OBJ(&nonlinearity_layer));
 434:Lib/AI_Runtime/Npu/ll_aton/ll_sw_float.c ****   }
 435:Lib/AI_Runtime/Npu/ll_aton/ll_sw_float.c ****   break;
 436:Lib/AI_Runtime/Npu/ll_aton/ll_sw_float.c ****   case LL_SW_ELU:
 437:Lib/AI_Runtime/Npu/ll_aton/ll_sw_float.c ****   {
 438:Lib/AI_Runtime/Npu/ll_aton/ll_sw_float.c ****     // defining the array of params needed
 439:Lib/AI_Runtime/Npu/ll_aton/ll_sw_float.c ****     AI_ARRAY_OBJ_DECLARE_STATIC(elu_layer_params, ai_float, FORMAT, , 1, sw_info->alpha)
 440:Lib/AI_Runtime/Npu/ll_aton/ll_sw_float.c **** 
 441:Lib/AI_Runtime/Npu/ll_aton/ll_sw_float.c ****     AI_LAYER_OBJ_DECLARE(nonlinearity_layer, 2, NL_TYPE, 0x0, NULL, nl, forward_elu, &activ_chain, 
 442:Lib/AI_Runtime/Npu/ll_aton/ll_sw_float.c ****                          .nl_params = AI_ARRAY_OBJ(&elu_layer_params), )
 443:Lib/AI_Runtime/Npu/ll_aton/ll_sw_float.c ****     nonlinearity_layer.forward(AI_LAYER_OBJ(&nonlinearity_layer));
 444:Lib/AI_Runtime/Npu/ll_aton/ll_sw_float.c ****   }
 445:Lib/AI_Runtime/Npu/ll_aton/ll_sw_float.c ****   break;
 446:Lib/AI_Runtime/Npu/ll_aton/ll_sw_float.c ****   case LL_SW_THRESHOLDEDRELU:
 447:Lib/AI_Runtime/Npu/ll_aton/ll_sw_float.c ****   {
 448:Lib/AI_Runtime/Npu/ll_aton/ll_sw_float.c ****     // defining the array of params needed
 449:Lib/AI_Runtime/Npu/ll_aton/ll_sw_float.c ****     AI_ARRAY_OBJ_DECLARE_STATIC(thresholdedrelu_layer_params, ai_float, FORMAT, , 1, sw_info->alpha
 450:Lib/AI_Runtime/Npu/ll_aton/ll_sw_float.c **** 
 451:Lib/AI_Runtime/Npu/ll_aton/ll_sw_float.c ****     AI_LAYER_OBJ_DECLARE(nonlinearity_layer, 2, NL_TYPE, 0x0, NULL, nl, forward_relu_thresholded, &
 452:Lib/AI_Runtime/Npu/ll_aton/ll_sw_float.c ****                          NULL, , .nl_params = AI_ARRAY_OBJ(&thresholdedrelu_layer_params), )
 453:Lib/AI_Runtime/Npu/ll_aton/ll_sw_float.c ****     nonlinearity_layer.forward(AI_LAYER_OBJ(&nonlinearity_layer));
 454:Lib/AI_Runtime/Npu/ll_aton/ll_sw_float.c ****   }
 455:Lib/AI_Runtime/Npu/ll_aton/ll_sw_float.c ****   break;
 456:Lib/AI_Runtime/Npu/ll_aton/ll_sw_float.c ****   case LL_SW_SELU:
 457:Lib/AI_Runtime/Npu/ll_aton/ll_sw_float.c ****   {
 458:Lib/AI_Runtime/Npu/ll_aton/ll_sw_float.c ****     // defining the array of params needed
 459:Lib/AI_Runtime/Npu/ll_aton/ll_sw_float.c ****     AI_ARRAY_OBJ_DECLARE_STATIC(selu_layer_params, ai_float, FORMAT, , 2, sw_info->alpha, sw_info->
 460:Lib/AI_Runtime/Npu/ll_aton/ll_sw_float.c **** 
 461:Lib/AI_Runtime/Npu/ll_aton/ll_sw_float.c ****     AI_LAYER_OBJ_DECLARE(nonlinearity_layer, 2, NL_TYPE, 0x0, NULL, nl, forward_selu, &activ_chain,
 462:Lib/AI_Runtime/Npu/ll_aton/ll_sw_float.c ****                          .nl_params = AI_ARRAY_OBJ(&selu_layer_params), )
 463:Lib/AI_Runtime/Npu/ll_aton/ll_sw_float.c ****     nonlinearity_layer.forward(AI_LAYER_OBJ(&nonlinearity_layer));
ARM GAS  C:\Users\DJESSOU\AppData\Local\Temp\ccdFeyMS.s 			page 44


 464:Lib/AI_Runtime/Npu/ll_aton/ll_sw_float.c ****   }
 465:Lib/AI_Runtime/Npu/ll_aton/ll_sw_float.c ****   break;
 466:Lib/AI_Runtime/Npu/ll_aton/ll_sw_float.c ****   case LL_SW_CEIL:
 467:Lib/AI_Runtime/Npu/ll_aton/ll_sw_float.c ****   {
 468:Lib/AI_Runtime/Npu/ll_aton/ll_sw_float.c ****     AI_LAYER_OBJ_DECLARE(nonlinearity_layer, 2, NL_TYPE, 0x0, NULL, nl, forward_ceil, &activ_chain,
 469:Lib/AI_Runtime/Npu/ll_aton/ll_sw_float.c ****                          .nl_params = NULL, )
 470:Lib/AI_Runtime/Npu/ll_aton/ll_sw_float.c ****     nonlinearity_layer.forward(AI_LAYER_OBJ(&nonlinearity_layer));
 471:Lib/AI_Runtime/Npu/ll_aton/ll_sw_float.c ****   }
 472:Lib/AI_Runtime/Npu/ll_aton/ll_sw_float.c ****   break;
 473:Lib/AI_Runtime/Npu/ll_aton/ll_sw_float.c ****   case LL_SW_FLOOR:
 474:Lib/AI_Runtime/Npu/ll_aton/ll_sw_float.c ****   {
 475:Lib/AI_Runtime/Npu/ll_aton/ll_sw_float.c ****     AI_LAYER_OBJ_DECLARE(nonlinearity_layer, 2, NL_TYPE, 0x0, NULL, nl, forward_floor, &activ_chain
 476:Lib/AI_Runtime/Npu/ll_aton/ll_sw_float.c ****                          .nl_params = NULL, )
 477:Lib/AI_Runtime/Npu/ll_aton/ll_sw_float.c ****     nonlinearity_layer.forward(AI_LAYER_OBJ(&nonlinearity_layer));
 478:Lib/AI_Runtime/Npu/ll_aton/ll_sw_float.c ****   }
 479:Lib/AI_Runtime/Npu/ll_aton/ll_sw_float.c ****   break;
 480:Lib/AI_Runtime/Npu/ll_aton/ll_sw_float.c ****   case LL_SW_EXP:
 481:Lib/AI_Runtime/Npu/ll_aton/ll_sw_float.c ****   {
 482:Lib/AI_Runtime/Npu/ll_aton/ll_sw_float.c ****     AI_LAYER_OBJ_DECLARE(nonlinearity_layer, 2, NL_TYPE, 0x0, NULL, nl, forward_exp, &activ_chain, 
 483:Lib/AI_Runtime/Npu/ll_aton/ll_sw_float.c ****                          .nl_params = NULL, )
 484:Lib/AI_Runtime/Npu/ll_aton/ll_sw_float.c ****     nonlinearity_layer.forward(AI_LAYER_OBJ(&nonlinearity_layer));
 485:Lib/AI_Runtime/Npu/ll_aton/ll_sw_float.c ****   }
 486:Lib/AI_Runtime/Npu/ll_aton/ll_sw_float.c ****   break;
 487:Lib/AI_Runtime/Npu/ll_aton/ll_sw_float.c ****   case LL_SW_LOG:
 488:Lib/AI_Runtime/Npu/ll_aton/ll_sw_float.c ****   {
 489:Lib/AI_Runtime/Npu/ll_aton/ll_sw_float.c ****     AI_LAYER_OBJ_DECLARE(nonlinearity_layer, 2, NL_TYPE, 0x0, NULL, nl, forward_log, &activ_chain, 
 490:Lib/AI_Runtime/Npu/ll_aton/ll_sw_float.c ****                          .nl_params = NULL, )
 491:Lib/AI_Runtime/Npu/ll_aton/ll_sw_float.c ****     nonlinearity_layer.forward(AI_LAYER_OBJ(&nonlinearity_layer));
 492:Lib/AI_Runtime/Npu/ll_aton/ll_sw_float.c ****   }
 493:Lib/AI_Runtime/Npu/ll_aton/ll_sw_float.c ****   break;
 494:Lib/AI_Runtime/Npu/ll_aton/ll_sw_float.c ****   case LL_SW_ACOS:
 495:Lib/AI_Runtime/Npu/ll_aton/ll_sw_float.c ****   {
 496:Lib/AI_Runtime/Npu/ll_aton/ll_sw_float.c ****     AI_LAYER_OBJ_DECLARE(nonlinearity_layer, 2, NL_TYPE, 0x0, NULL, nl, forward_acos, &activ_chain,
 497:Lib/AI_Runtime/Npu/ll_aton/ll_sw_float.c ****                          .nl_params = NULL, )
 498:Lib/AI_Runtime/Npu/ll_aton/ll_sw_float.c ****     nonlinearity_layer.forward(AI_LAYER_OBJ(&nonlinearity_layer));
 499:Lib/AI_Runtime/Npu/ll_aton/ll_sw_float.c ****   }
 500:Lib/AI_Runtime/Npu/ll_aton/ll_sw_float.c ****   break;
 501:Lib/AI_Runtime/Npu/ll_aton/ll_sw_float.c ****   case LL_SW_ACOSH:
 502:Lib/AI_Runtime/Npu/ll_aton/ll_sw_float.c ****   {
 503:Lib/AI_Runtime/Npu/ll_aton/ll_sw_float.c ****     AI_LAYER_OBJ_DECLARE(nonlinearity_layer, 2, NL_TYPE, 0x0, NULL, nl, forward_acosh, &activ_chain
 504:Lib/AI_Runtime/Npu/ll_aton/ll_sw_float.c ****                          .nl_params = NULL, )
 505:Lib/AI_Runtime/Npu/ll_aton/ll_sw_float.c ****     nonlinearity_layer.forward(AI_LAYER_OBJ(&nonlinearity_layer));
 506:Lib/AI_Runtime/Npu/ll_aton/ll_sw_float.c ****   }
 507:Lib/AI_Runtime/Npu/ll_aton/ll_sw_float.c ****   break;
 508:Lib/AI_Runtime/Npu/ll_aton/ll_sw_float.c ****   case LL_SW_ASIN:
 509:Lib/AI_Runtime/Npu/ll_aton/ll_sw_float.c ****   {
 510:Lib/AI_Runtime/Npu/ll_aton/ll_sw_float.c ****     AI_LAYER_OBJ_DECLARE(nonlinearity_layer, 2, NL_TYPE, 0x0, NULL, nl, forward_asin, &activ_chain,
 511:Lib/AI_Runtime/Npu/ll_aton/ll_sw_float.c ****                          .nl_params = NULL, )
 512:Lib/AI_Runtime/Npu/ll_aton/ll_sw_float.c ****     nonlinearity_layer.forward(AI_LAYER_OBJ(&nonlinearity_layer));
 513:Lib/AI_Runtime/Npu/ll_aton/ll_sw_float.c ****   }
 514:Lib/AI_Runtime/Npu/ll_aton/ll_sw_float.c ****   break;
 515:Lib/AI_Runtime/Npu/ll_aton/ll_sw_float.c ****   case LL_SW_ASINH:
 516:Lib/AI_Runtime/Npu/ll_aton/ll_sw_float.c ****   {
 517:Lib/AI_Runtime/Npu/ll_aton/ll_sw_float.c ****     AI_LAYER_OBJ_DECLARE(nonlinearity_layer, 2, NL_TYPE, 0x0, NULL, nl, forward_asinh, &activ_chain
 518:Lib/AI_Runtime/Npu/ll_aton/ll_sw_float.c ****                          .nl_params = NULL, )
 519:Lib/AI_Runtime/Npu/ll_aton/ll_sw_float.c ****     nonlinearity_layer.forward(AI_LAYER_OBJ(&nonlinearity_layer));
 520:Lib/AI_Runtime/Npu/ll_aton/ll_sw_float.c ****   }
ARM GAS  C:\Users\DJESSOU\AppData\Local\Temp\ccdFeyMS.s 			page 45


 521:Lib/AI_Runtime/Npu/ll_aton/ll_sw_float.c ****   break;
 522:Lib/AI_Runtime/Npu/ll_aton/ll_sw_float.c ****   case LL_SW_ATAN:
 523:Lib/AI_Runtime/Npu/ll_aton/ll_sw_float.c ****   {
 524:Lib/AI_Runtime/Npu/ll_aton/ll_sw_float.c ****     AI_LAYER_OBJ_DECLARE(nonlinearity_layer, 2, NL_TYPE, 0x0, NULL, nl, forward_atan, &activ_chain,
 525:Lib/AI_Runtime/Npu/ll_aton/ll_sw_float.c ****                          .nl_params = NULL, )
 526:Lib/AI_Runtime/Npu/ll_aton/ll_sw_float.c ****     nonlinearity_layer.forward(AI_LAYER_OBJ(&nonlinearity_layer));
 527:Lib/AI_Runtime/Npu/ll_aton/ll_sw_float.c ****   }
 528:Lib/AI_Runtime/Npu/ll_aton/ll_sw_float.c ****   break;
 529:Lib/AI_Runtime/Npu/ll_aton/ll_sw_float.c ****   case LL_SW_ATANH:
 530:Lib/AI_Runtime/Npu/ll_aton/ll_sw_float.c ****   {
 531:Lib/AI_Runtime/Npu/ll_aton/ll_sw_float.c ****     AI_LAYER_OBJ_DECLARE(nonlinearity_layer, 2, NL_TYPE, 0x0, NULL, nl, forward_atanh, &activ_chain
 532:Lib/AI_Runtime/Npu/ll_aton/ll_sw_float.c ****                          .nl_params = NULL, )
 533:Lib/AI_Runtime/Npu/ll_aton/ll_sw_float.c ****     nonlinearity_layer.forward(AI_LAYER_OBJ(&nonlinearity_layer));
 534:Lib/AI_Runtime/Npu/ll_aton/ll_sw_float.c ****   }
 535:Lib/AI_Runtime/Npu/ll_aton/ll_sw_float.c ****   break;
 536:Lib/AI_Runtime/Npu/ll_aton/ll_sw_float.c ****   case LL_SW_COS:
 537:Lib/AI_Runtime/Npu/ll_aton/ll_sw_float.c ****   {
 538:Lib/AI_Runtime/Npu/ll_aton/ll_sw_float.c ****     AI_LAYER_OBJ_DECLARE(nonlinearity_layer, 2, NL_TYPE, 0x0, NULL, nl, forward_cos, &activ_chain, 
 539:Lib/AI_Runtime/Npu/ll_aton/ll_sw_float.c ****                          .nl_params = NULL, )
 540:Lib/AI_Runtime/Npu/ll_aton/ll_sw_float.c ****     nonlinearity_layer.forward(AI_LAYER_OBJ(&nonlinearity_layer));
 541:Lib/AI_Runtime/Npu/ll_aton/ll_sw_float.c ****   }
 542:Lib/AI_Runtime/Npu/ll_aton/ll_sw_float.c ****   break;
 543:Lib/AI_Runtime/Npu/ll_aton/ll_sw_float.c ****   case LL_SW_COSH:
 544:Lib/AI_Runtime/Npu/ll_aton/ll_sw_float.c ****   {
 545:Lib/AI_Runtime/Npu/ll_aton/ll_sw_float.c ****     AI_LAYER_OBJ_DECLARE(nonlinearity_layer, 2, NL_TYPE, 0x0, NULL, nl, forward_cosh, &activ_chain,
 546:Lib/AI_Runtime/Npu/ll_aton/ll_sw_float.c ****                          .nl_params = NULL, )
 547:Lib/AI_Runtime/Npu/ll_aton/ll_sw_float.c ****     nonlinearity_layer.forward(AI_LAYER_OBJ(&nonlinearity_layer));
 548:Lib/AI_Runtime/Npu/ll_aton/ll_sw_float.c ****   }
 549:Lib/AI_Runtime/Npu/ll_aton/ll_sw_float.c ****   break;
 550:Lib/AI_Runtime/Npu/ll_aton/ll_sw_float.c ****   case LL_SW_SIN:
 551:Lib/AI_Runtime/Npu/ll_aton/ll_sw_float.c ****   {
 552:Lib/AI_Runtime/Npu/ll_aton/ll_sw_float.c ****     AI_LAYER_OBJ_DECLARE(nonlinearity_layer, 2, NL_TYPE, 0x0, NULL, nl, forward_sin, &activ_chain, 
 553:Lib/AI_Runtime/Npu/ll_aton/ll_sw_float.c ****                          .nl_params = NULL, )
 554:Lib/AI_Runtime/Npu/ll_aton/ll_sw_float.c ****     nonlinearity_layer.forward(AI_LAYER_OBJ(&nonlinearity_layer));
 555:Lib/AI_Runtime/Npu/ll_aton/ll_sw_float.c ****   }
 556:Lib/AI_Runtime/Npu/ll_aton/ll_sw_float.c ****   break;
 557:Lib/AI_Runtime/Npu/ll_aton/ll_sw_float.c ****   case LL_SW_SINH:
 558:Lib/AI_Runtime/Npu/ll_aton/ll_sw_float.c ****   {
 559:Lib/AI_Runtime/Npu/ll_aton/ll_sw_float.c ****     AI_LAYER_OBJ_DECLARE(nonlinearity_layer, 2, NL_TYPE, 0x0, NULL, nl, forward_sinh, &activ_chain,
 560:Lib/AI_Runtime/Npu/ll_aton/ll_sw_float.c ****                          .nl_params = NULL, )
 561:Lib/AI_Runtime/Npu/ll_aton/ll_sw_float.c ****     nonlinearity_layer.forward(AI_LAYER_OBJ(&nonlinearity_layer));
 562:Lib/AI_Runtime/Npu/ll_aton/ll_sw_float.c ****   }
 563:Lib/AI_Runtime/Npu/ll_aton/ll_sw_float.c ****   break;
 564:Lib/AI_Runtime/Npu/ll_aton/ll_sw_float.c ****   case LL_SW_TANH:
 565:Lib/AI_Runtime/Npu/ll_aton/ll_sw_float.c ****   {
 566:Lib/AI_Runtime/Npu/ll_aton/ll_sw_float.c ****     AI_LAYER_OBJ_DECLARE(nonlinearity_layer, 2, NL_TYPE, 0x0, NULL, nl, forward_tanh, &activ_chain,
 567:Lib/AI_Runtime/Npu/ll_aton/ll_sw_float.c ****                          .nl_params = NULL, )
 568:Lib/AI_Runtime/Npu/ll_aton/ll_sw_float.c ****     nonlinearity_layer.forward(AI_LAYER_OBJ(&nonlinearity_layer));
 569:Lib/AI_Runtime/Npu/ll_aton/ll_sw_float.c ****   }
 570:Lib/AI_Runtime/Npu/ll_aton/ll_sw_float.c ****   break;
 571:Lib/AI_Runtime/Npu/ll_aton/ll_sw_float.c ****   case LL_SW_TAN:
 572:Lib/AI_Runtime/Npu/ll_aton/ll_sw_float.c ****   {
 573:Lib/AI_Runtime/Npu/ll_aton/ll_sw_float.c ****     AI_LAYER_OBJ_DECLARE(nonlinearity_layer, 2, NL_TYPE, 0x0, NULL, nl, forward_tan, &activ_chain, 
 574:Lib/AI_Runtime/Npu/ll_aton/ll_sw_float.c ****                          .nl_params = NULL, )
 575:Lib/AI_Runtime/Npu/ll_aton/ll_sw_float.c ****     nonlinearity_layer.forward(AI_LAYER_OBJ(&nonlinearity_layer));
 576:Lib/AI_Runtime/Npu/ll_aton/ll_sw_float.c ****   }
 577:Lib/AI_Runtime/Npu/ll_aton/ll_sw_float.c ****   break;
ARM GAS  C:\Users\DJESSOU\AppData\Local\Temp\ccdFeyMS.s 			page 46


 578:Lib/AI_Runtime/Npu/ll_aton/ll_sw_float.c ****   case LL_SW_SIGMOID:
 579:Lib/AI_Runtime/Npu/ll_aton/ll_sw_float.c ****   {
 580:Lib/AI_Runtime/Npu/ll_aton/ll_sw_float.c ****     AI_LAYER_OBJ_DECLARE(nonlinearity_layer, 2, NL_TYPE, 0x0, NULL, nl, forward_sigmoid, &activ_cha
 581:Lib/AI_Runtime/Npu/ll_aton/ll_sw_float.c ****                          .nl_params = NULL, )
 582:Lib/AI_Runtime/Npu/ll_aton/ll_sw_float.c ****     nonlinearity_layer.forward(AI_LAYER_OBJ(&nonlinearity_layer));
 583:Lib/AI_Runtime/Npu/ll_aton/ll_sw_float.c ****   }
 584:Lib/AI_Runtime/Npu/ll_aton/ll_sw_float.c ****   break;
 585:Lib/AI_Runtime/Npu/ll_aton/ll_sw_float.c ****   case LL_SW_SQRT:
 586:Lib/AI_Runtime/Npu/ll_aton/ll_sw_float.c ****   {
 587:Lib/AI_Runtime/Npu/ll_aton/ll_sw_float.c ****     AI_LAYER_OBJ_DECLARE(nonlinearity_layer, 2, NL_TYPE, 0x0, NULL, nl, forward_sqrt, &activ_chain,
 588:Lib/AI_Runtime/Npu/ll_aton/ll_sw_float.c ****                          .nl_params = NULL, )
 589:Lib/AI_Runtime/Npu/ll_aton/ll_sw_float.c ****     nonlinearity_layer.forward(AI_LAYER_OBJ(&nonlinearity_layer));
 590:Lib/AI_Runtime/Npu/ll_aton/ll_sw_float.c ****   }
 591:Lib/AI_Runtime/Npu/ll_aton/ll_sw_float.c ****   break;
 592:Lib/AI_Runtime/Npu/ll_aton/ll_sw_float.c ****   case LL_SW_ERF:
 593:Lib/AI_Runtime/Npu/ll_aton/ll_sw_float.c ****   {
 594:Lib/AI_Runtime/Npu/ll_aton/ll_sw_float.c ****     AI_LAYER_OBJ_DECLARE(nonlinearity_layer, 2, NL_TYPE, 0x0, NULL, nl, forward_erf, &activ_chain, 
 595:Lib/AI_Runtime/Npu/ll_aton/ll_sw_float.c ****                          .nl_params = NULL, )
 596:Lib/AI_Runtime/Npu/ll_aton/ll_sw_float.c ****     nonlinearity_layer.forward(AI_LAYER_OBJ(&nonlinearity_layer));
 597:Lib/AI_Runtime/Npu/ll_aton/ll_sw_float.c ****   }
 598:Lib/AI_Runtime/Npu/ll_aton/ll_sw_float.c ****   break;
 599:Lib/AI_Runtime/Npu/ll_aton/ll_sw_float.c ****   case LL_SW_SOFTPLUS:
 600:Lib/AI_Runtime/Npu/ll_aton/ll_sw_float.c ****   {
 601:Lib/AI_Runtime/Npu/ll_aton/ll_sw_float.c ****     AI_LAYER_OBJ_DECLARE(nonlinearity_layer, 2, NL_TYPE, 0x0, NULL, nl, forward_soft_plus, &activ_c
 602:Lib/AI_Runtime/Npu/ll_aton/ll_sw_float.c ****                          .nl_params = NULL, )
 603:Lib/AI_Runtime/Npu/ll_aton/ll_sw_float.c ****     nonlinearity_layer.forward(AI_LAYER_OBJ(&nonlinearity_layer));
 604:Lib/AI_Runtime/Npu/ll_aton/ll_sw_float.c ****   }
 605:Lib/AI_Runtime/Npu/ll_aton/ll_sw_float.c ****   break;
 606:Lib/AI_Runtime/Npu/ll_aton/ll_sw_float.c ****   case LL_SW_SOFTSIGN:
 607:Lib/AI_Runtime/Npu/ll_aton/ll_sw_float.c ****   {
 608:Lib/AI_Runtime/Npu/ll_aton/ll_sw_float.c ****     AI_LAYER_OBJ_DECLARE(nonlinearity_layer, 2, NL_TYPE, 0x0, NULL, nl, forward_soft_sign, &activ_c
 609:Lib/AI_Runtime/Npu/ll_aton/ll_sw_float.c ****                          .nl_params = NULL, )
 610:Lib/AI_Runtime/Npu/ll_aton/ll_sw_float.c ****     nonlinearity_layer.forward(AI_LAYER_OBJ(&nonlinearity_layer));
 611:Lib/AI_Runtime/Npu/ll_aton/ll_sw_float.c ****   }
 612:Lib/AI_Runtime/Npu/ll_aton/ll_sw_float.c ****   break;
 613:Lib/AI_Runtime/Npu/ll_aton/ll_sw_float.c ****   case LL_SW_HARDSIGMOID:
 614:Lib/AI_Runtime/Npu/ll_aton/ll_sw_float.c ****   {
 615:Lib/AI_Runtime/Npu/ll_aton/ll_sw_float.c ****     AI_ARRAY_OBJ_DECLARE_STATIC(hard_sigmoid_layer_params, ai_float, AI_ARRAY_FORMAT_FLOAT, AI_CONS
 616:Lib/AI_Runtime/Npu/ll_aton/ll_sw_float.c ****                                 sw_info->beta)
 617:Lib/AI_Runtime/Npu/ll_aton/ll_sw_float.c ****     AI_LAYER_OBJ_DECLARE(nonlinearity_layer, 2, NL_TYPE, 0x0, NULL, nl, forward_hard_sigmoid, &acti
 618:Lib/AI_Runtime/Npu/ll_aton/ll_sw_float.c ****                          , .nl_params = AI_ARRAY_OBJ(&hard_sigmoid_layer_params), )
 619:Lib/AI_Runtime/Npu/ll_aton/ll_sw_float.c ****     nonlinearity_layer.forward(AI_LAYER_OBJ(&nonlinearity_layer));
 620:Lib/AI_Runtime/Npu/ll_aton/ll_sw_float.c ****   }
 621:Lib/AI_Runtime/Npu/ll_aton/ll_sw_float.c ****   break;
 622:Lib/AI_Runtime/Npu/ll_aton/ll_sw_float.c ****   case LL_SW_SWISH:
 623:Lib/AI_Runtime/Npu/ll_aton/ll_sw_float.c ****   {
 624:Lib/AI_Runtime/Npu/ll_aton/ll_sw_float.c ****     AI_LAYER_OBJ_DECLARE(nonlinearity_layer, 2, NL_TYPE, 0x0, NULL, nl, forward_swish, &activ_chain
 625:Lib/AI_Runtime/Npu/ll_aton/ll_sw_float.c ****                          .nl_params = NULL, )
 626:Lib/AI_Runtime/Npu/ll_aton/ll_sw_float.c ****     nonlinearity_layer.forward(AI_LAYER_OBJ(&nonlinearity_layer));
 627:Lib/AI_Runtime/Npu/ll_aton/ll_sw_float.c ****   }
 628:Lib/AI_Runtime/Npu/ll_aton/ll_sw_float.c ****   break;
 629:Lib/AI_Runtime/Npu/ll_aton/ll_sw_float.c ****   case LL_SW_HARDSWISH:
 630:Lib/AI_Runtime/Npu/ll_aton/ll_sw_float.c ****   {
 631:Lib/AI_Runtime/Npu/ll_aton/ll_sw_float.c ****     AI_LAYER_OBJ_DECLARE(nonlinearity_layer, 2, NL_TYPE, 0x0, NULL, nl, forward_hard_swish, &activ_
 632:Lib/AI_Runtime/Npu/ll_aton/ll_sw_float.c ****                          .nl_params = NULL, )
 633:Lib/AI_Runtime/Npu/ll_aton/ll_sw_float.c ****     nonlinearity_layer.forward(AI_LAYER_OBJ(&nonlinearity_layer));
 634:Lib/AI_Runtime/Npu/ll_aton/ll_sw_float.c ****   }
ARM GAS  C:\Users\DJESSOU\AppData\Local\Temp\ccdFeyMS.s 			page 47


 635:Lib/AI_Runtime/Npu/ll_aton/ll_sw_float.c ****   break;
 636:Lib/AI_Runtime/Npu/ll_aton/ll_sw_float.c ****   case LL_SW_HARDMAX:
 637:Lib/AI_Runtime/Npu/ll_aton/ll_sw_float.c ****   {
 638:Lib/AI_Runtime/Npu/ll_aton/ll_sw_float.c ****     AI_LAYER_OBJ_DECLARE(nonlinearity_layer, 2, NL_TYPE, 0x0, NULL, nl, forward_hardmax, &activ_cha
 639:Lib/AI_Runtime/Npu/ll_aton/ll_sw_float.c ****                          .nl_params = NULL, )
 640:Lib/AI_Runtime/Npu/ll_aton/ll_sw_float.c ****     nonlinearity_layer.forward(AI_LAYER_OBJ(&nonlinearity_layer));
 641:Lib/AI_Runtime/Npu/ll_aton/ll_sw_float.c ****   }
 642:Lib/AI_Runtime/Npu/ll_aton/ll_sw_float.c ****   break;
 643:Lib/AI_Runtime/Npu/ll_aton/ll_sw_float.c ****   case LL_SW_ABS:
 644:Lib/AI_Runtime/Npu/ll_aton/ll_sw_float.c ****   {
 645:Lib/AI_Runtime/Npu/ll_aton/ll_sw_float.c ****     AI_LAYER_OBJ_DECLARE(nonlinearity_layer, 2, NL_TYPE, 0x0, NULL, nl, forward_abs, &activ_chain, 
 646:Lib/AI_Runtime/Npu/ll_aton/ll_sw_float.c ****                          .nl_params = NULL, )
 647:Lib/AI_Runtime/Npu/ll_aton/ll_sw_float.c ****     nonlinearity_layer.forward(AI_LAYER_OBJ(&nonlinearity_layer));
 648:Lib/AI_Runtime/Npu/ll_aton/ll_sw_float.c ****   }
 649:Lib/AI_Runtime/Npu/ll_aton/ll_sw_float.c ****   break;
 650:Lib/AI_Runtime/Npu/ll_aton/ll_sw_float.c ****   case LL_SW_NEG:
 651:Lib/AI_Runtime/Npu/ll_aton/ll_sw_float.c ****   {
 652:Lib/AI_Runtime/Npu/ll_aton/ll_sw_float.c ****     AI_LAYER_OBJ_DECLARE(nonlinearity_layer, 2, NL_TYPE, 0x0, NULL, nl, forward_neg, &activ_chain, 
 653:Lib/AI_Runtime/Npu/ll_aton/ll_sw_float.c ****                          .nl_params = NULL, )
 654:Lib/AI_Runtime/Npu/ll_aton/ll_sw_float.c ****     nonlinearity_layer.forward(AI_LAYER_OBJ(&nonlinearity_layer));
 655:Lib/AI_Runtime/Npu/ll_aton/ll_sw_float.c ****   }
 656:Lib/AI_Runtime/Npu/ll_aton/ll_sw_float.c ****   break;
 657:Lib/AI_Runtime/Npu/ll_aton/ll_sw_float.c ****   case LL_SW_RECIPROCAL:
 658:Lib/AI_Runtime/Npu/ll_aton/ll_sw_float.c ****   {
 659:Lib/AI_Runtime/Npu/ll_aton/ll_sw_float.c ****     AI_LAYER_OBJ_DECLARE(nonlinearity_layer, 2, NL_TYPE, 0x0, NULL, nl, forward_reciprocal, &activ_
 660:Lib/AI_Runtime/Npu/ll_aton/ll_sw_float.c ****                          .nl_params = NULL, )
 661:Lib/AI_Runtime/Npu/ll_aton/ll_sw_float.c ****     nonlinearity_layer.forward(AI_LAYER_OBJ(&nonlinearity_layer));
 662:Lib/AI_Runtime/Npu/ll_aton/ll_sw_float.c ****   }
 663:Lib/AI_Runtime/Npu/ll_aton/ll_sw_float.c ****   break;
 664:Lib/AI_Runtime/Npu/ll_aton/ll_sw_float.c ****   case LL_SW_ROUND:
 665:Lib/AI_Runtime/Npu/ll_aton/ll_sw_float.c ****   {
 666:Lib/AI_Runtime/Npu/ll_aton/ll_sw_float.c ****     AI_LAYER_OBJ_DECLARE(nonlinearity_layer, 2, NL_TYPE, 0x0, NULL, nl, forward_round, &activ_chain
 667:Lib/AI_Runtime/Npu/ll_aton/ll_sw_float.c ****                          .nl_params = NULL, )
 668:Lib/AI_Runtime/Npu/ll_aton/ll_sw_float.c ****     nonlinearity_layer.forward(AI_LAYER_OBJ(&nonlinearity_layer));
 669:Lib/AI_Runtime/Npu/ll_aton/ll_sw_float.c ****   }
 670:Lib/AI_Runtime/Npu/ll_aton/ll_sw_float.c ****   break;
 671:Lib/AI_Runtime/Npu/ll_aton/ll_sw_float.c ****   case LL_SW_GELU:
 672:Lib/AI_Runtime/Npu/ll_aton/ll_sw_float.c ****   {
 673:Lib/AI_Runtime/Npu/ll_aton/ll_sw_float.c ****     AI_ARRAY_OBJ_DECLARE_STATIC(gelu_no_approximate_layer_params, ai_bool, AI_ARRAY_FORMAT_BOOL, AI
 674:Lib/AI_Runtime/Npu/ll_aton/ll_sw_float.c ****     AI_LAYER_OBJ_DECLARE(nonlinearity_layer, 2, NL_TYPE, 0x0, NULL, nl, forward_gelu, &activ_chain,
 675:Lib/AI_Runtime/Npu/ll_aton/ll_sw_float.c ****                          .nl_params = AI_ARRAY_OBJ(&gelu_no_approximate_layer_params), )
 676:Lib/AI_Runtime/Npu/ll_aton/ll_sw_float.c ****     nonlinearity_layer.forward(AI_LAYER_OBJ(&nonlinearity_layer));
 677:Lib/AI_Runtime/Npu/ll_aton/ll_sw_float.c ****   }
 678:Lib/AI_Runtime/Npu/ll_aton/ll_sw_float.c ****   break;
 679:Lib/AI_Runtime/Npu/ll_aton/ll_sw_float.c ****   default:
 680:Lib/AI_Runtime/Npu/ll_aton/ll_sw_float.c **** #ifdef LL_SW_ENABLE_ASSERTS
 681:Lib/AI_Runtime/Npu/ll_aton/ll_sw_float.c ****     LL_ATON_ASSERT(0 && "NL OPERATION NOT SUPPORTED");
 682:Lib/AI_Runtime/Npu/ll_aton/ll_sw_float.c **** #endif
 683:Lib/AI_Runtime/Npu/ll_aton/ll_sw_float.c ****     break;
 684:Lib/AI_Runtime/Npu/ll_aton/ll_sw_float.c ****   }
 685:Lib/AI_Runtime/Npu/ll_aton/ll_sw_float.c **** }
 1756              		.loc 1 685 1 is_stmt 0 view .LVU472
 1757 019c 67B0     		add	sp, sp, #412
 1758              		.cfi_remember_state
 1759              		.cfi_def_cfa_offset 20
 1760              		@ sp needed
 1761 019e F0BD     		pop	{r4, r5, r6, r7, pc}
ARM GAS  C:\Users\DJESSOU\AppData\Local\Temp\ccdFeyMS.s 			page 48


 1762              	.LVL42:
 1763              	.L45:
 1764              		.cfi_restore_state
 1765              	.LBB15:
 406:Lib/AI_Runtime/Npu/ll_aton/ll_sw_float.c ****                                 sw_info->max)
 1766              		.loc 1 406 5 is_stmt 1 view .LVU473
 1767 01a0 0223     		movs	r3, #2
 1768 01a2 4793     		str	r3, [sp, #284]
 1769 01a4 D0F89430 		ldr	r3, [r0, #148]	@ float
 1770 01a8 4691     		str	r1, [sp, #280]
 1771 01aa 3F93     		str	r3, [sp, #252]	@ float
 1772 01ac D0F89830 		ldr	r3, [r0, #152]	@ float
 408:Lib/AI_Runtime/Npu/ll_aton/ll_sw_float.c ****                          .nl_params = AI_ARRAY_OBJ(&clip_layer_params))
 1773              		.loc 1 408 5 is_stmt 0 view .LVU474
 1774 01b0 3349     		ldr	r1, .L71+4
 406:Lib/AI_Runtime/Npu/ll_aton/ll_sw_float.c ****                                 sw_info->max)
 1775              		.loc 1 406 5 view .LVU475
 1776 01b2 4093     		str	r3, [sp, #256]	@ float
 1777 01b4 3FAB     		add	r3, sp, #252
 1778 01b6 4893     		str	r3, [sp, #288]
 1779 01b8 0023     		movs	r3, #0
 408:Lib/AI_Runtime/Npu/ll_aton/ll_sw_float.c ****                          .nl_params = AI_ARRAY_OBJ(&clip_layer_params))
 1780              		.loc 1 408 5 view .LVU476
 1781 01ba CDE95A13 		strd	r1, r3, [sp, #360]
 1782 01be CDE95C33 		strd	r3, r3, [sp, #368]
 406:Lib/AI_Runtime/Npu/ll_aton/ll_sw_float.c ****                                 sw_info->max)
 1783              		.loc 1 406 5 view .LVU477
 1784 01c2 4993     		str	r3, [sp, #292]
 408:Lib/AI_Runtime/Npu/ll_aton/ll_sw_float.c ****                          .nl_params = AI_ARRAY_OBJ(&clip_layer_params))
 1785              		.loc 1 408 5 is_stmt 1 view .LVU478
 1786 01c4 5E93     		str	r3, [sp, #376]
 1787 01c6 304B     		ldr	r3, .L71+12
 410:Lib/AI_Runtime/Npu/ll_aton/ll_sw_float.c ****   }
 1788              		.loc 1 410 5 is_stmt 0 view .LVU479
 1789 01c8 5AA8     		add	r0, sp, #360
 1790              	.LVL43:
 408:Lib/AI_Runtime/Npu/ll_aton/ll_sw_float.c ****                          .nl_params = AI_ARRAY_OBJ(&clip_layer_params))
 1791              		.loc 1 408 5 view .LVU480
 1792 01ca CDE95F32 		strd	r3, r2, [sp, #380]
 1793 01ce 46AB     		add	r3, sp, #280
 1794 01d0 6193     		str	r3, [sp, #388]
 410:Lib/AI_Runtime/Npu/ll_aton/ll_sw_float.c ****   }
 1795              		.loc 1 410 5 is_stmt 1 view .LVU481
 1796 01d2 FFF7FEFF 		bl	forward_clip
 1797              	.LVL44:
 1798              	.LBE15:
 412:Lib/AI_Runtime/Npu/ll_aton/ll_sw_float.c ****   case LL_SW_PRELU:
 1799              		.loc 1 412 3 view .LVU482
 1800 01d6 E1E7     		b	.L31
 1801              	.LVL45:
 1802              	.L68:
 1803              	.LBB16:
 415:Lib/AI_Runtime/Npu/ll_aton/ll_sw_float.c ****                          sw_info->operand.mem.start_offset, sw_info->operand.dim.num_elem, )
 1804              		.loc 1 415 5 view .LVU483
 1805 01d8 C36E     		ldr	r3, [r0, #108]
 1806 01da 2591     		str	r1, [sp, #148]
 1807 01dc 2693     		str	r3, [sp, #152]
ARM GAS  C:\Users\DJESSOU\AppData\Local\Temp\ccdFeyMS.s 			page 49


 1808 01de D0F88030 		ldr	r3, [r0, #128]
 418:Lib/AI_Runtime/Npu/ll_aton/ll_sw_float.c ****                           SHAPE_INIT(sw_info->operand.dim.tensor_h, sw_info->operand.dim.tensor_w,
 1809              		.loc 1 418 5 is_stmt 0 view .LVU484
 1810 01e2 4FF08271 		mov	r1, #17039360
 415:Lib/AI_Runtime/Npu/ll_aton/ll_sw_float.c ****                          sw_info->operand.mem.start_offset, sw_info->operand.dim.num_elem, )
 1811              		.loc 1 415 5 view .LVU485
 1812 01e6 CDE92733 		strd	r3, r3, [sp, #156]
 418:Lib/AI_Runtime/Npu/ll_aton/ll_sw_float.c ****                           SHAPE_INIT(sw_info->operand.dim.tensor_h, sw_info->operand.dim.tensor_w,
 1813              		.loc 1 418 5 is_stmt 1 view .LVU486
 1814 01ea 0023     		movs	r3, #0
 1815 01ec CDE93F31 		strd	r3, r1, [sp, #252]
 1816 01f0 40F20141 		movw	r1, #1025
 1817 01f4 4191     		str	r1, [sp, #260]
 1818 01f6 816E     		ldr	r1, [r0, #104]
 415:Lib/AI_Runtime/Npu/ll_aton/ll_sw_float.c ****                          sw_info->operand.mem.start_offset, sw_info->operand.dim.num_elem, )
 1819              		.loc 1 415 5 is_stmt 0 view .LVU487
 1820 01f8 25AA     		add	r2, sp, #148
 418:Lib/AI_Runtime/Npu/ll_aton/ll_sw_float.c ****                           SHAPE_INIT(sw_info->operand.dim.tensor_h, sw_info->operand.dim.tensor_w,
 1821              		.loc 1 418 5 view .LVU488
 1822 01fa 2991     		str	r1, [sp, #164]
 1823 01fc 416E     		ldr	r1, [r0, #100]
 426:Lib/AI_Runtime/Npu/ll_aton/ll_sw_float.c ****         prelu_activ_chain, , 4, AI_TENSOR_LIST_OBJ_INIT(AI_FLAG_NONE, 1, TENSORS(&input_output)),
 1824              		.loc 1 426 5 view .LVU489
 1825 01fe 0596     		str	r6, [sp, #20]
 418:Lib/AI_Runtime/Npu/ll_aton/ll_sw_float.c ****                           SHAPE_INIT(sw_info->operand.dim.tensor_h, sw_info->operand.dim.tensor_w,
 1826              		.loc 1 418 5 view .LVU490
 1827 0200 2A91     		str	r1, [sp, #168]
 1828 0202 016E     		ldr	r1, [r0, #96]
 1829 0204 2B91     		str	r1, [sp, #172]
 1830 0206 C16D     		ldr	r1, [r0, #92]
 1831 0208 2C91     		str	r1, [sp, #176]
 1832 020a 29A9     		add	r1, sp, #164
 1833 020c 4291     		str	r1, [sp, #264]
 1834 020e 40F20241 		movw	r1, #1026
 1835 0212 4391     		str	r1, [sp, #268]
 1836 0214 C16F     		ldr	r1, [r0, #124]
 1837 0216 2D91     		str	r1, [sp, #180]
 1838 0218 816F     		ldr	r1, [r0, #120]
 1839 021a 2E91     		str	r1, [sp, #184]
 1840 021c 416F     		ldr	r1, [r0, #116]
 1841 021e 2F91     		str	r1, [sp, #188]
 1842 0220 016F     		ldr	r1, [r0, #112]
 426:Lib/AI_Runtime/Npu/ll_aton/ll_sw_float.c ****         prelu_activ_chain, , 4, AI_TENSOR_LIST_OBJ_INIT(AI_FLAG_NONE, 1, TENSORS(&input_output)),
 1843              		.loc 1 426 5 view .LVU491
 1844 0222 05A8     		add	r0, sp, #20
 1845              	.LVL46:
 418:Lib/AI_Runtime/Npu/ll_aton/ll_sw_float.c ****                           SHAPE_INIT(sw_info->operand.dim.tensor_h, sw_info->operand.dim.tensor_w,
 1846              		.loc 1 418 5 view .LVU492
 1847 0224 3091     		str	r1, [sp, #192]
 1848 0226 2DA9     		add	r1, sp, #180
 1849 0228 CDE94412 		strd	r1, r2, [sp, #272]
 426:Lib/AI_Runtime/Npu/ll_aton/ll_sw_float.c ****         prelu_activ_chain, , 4, AI_TENSOR_LIST_OBJ_INIT(AI_FLAG_NONE, 1, TENSORS(&input_output)),
 1850              		.loc 1 426 5 is_stmt 1 view .LVU493
 1851 022c 0421     		movs	r1, #4
 1852 022e 0B91     		str	r1, [sp, #44]
 1853 0230 0121     		movs	r1, #1
 1854 0232 5A91     		str	r1, [sp, #360]
ARM GAS  C:\Users\DJESSOU\AppData\Local\Temp\ccdFeyMS.s 			page 50


 1855 0234 CDE95B03 		strd	r0, r3, [sp, #364]
 1856 0238 5D91     		str	r1, [sp, #372]
 1857 023a 6091     		str	r1, [sp, #384]
 1858 023c 07A9     		add	r1, sp, #28
 1859 023e CDE96113 		strd	r1, r3, [sp, #388]
 1860 0242 08A9     		add	r1, sp, #32
 1861 0244 CDE96413 		strd	r1, r3, [sp, #400]
 1862 0248 5AA9     		add	r1, sp, #360
 1863 024a 0C91     		str	r1, [sp, #48]
 431:Lib/AI_Runtime/Npu/ll_aton/ll_sw_float.c ****                          .nl_params = NULL, )
 1864              		.loc 1 431 5 view .LVU494
 1865 024c 0C49     		ldr	r1, .L71+4
 426:Lib/AI_Runtime/Npu/ll_aton/ll_sw_float.c ****         prelu_activ_chain, , 4, AI_TENSOR_LIST_OBJ_INIT(AI_FLAG_NONE, 1, TENSORS(&input_output)),
 1866              		.loc 1 426 5 is_stmt 0 view .LVU495
 1867 024e 06A8     		add	r0, sp, #24
 1868 0250 CDE95E03 		strd	r0, r3, [sp, #376]
 431:Lib/AI_Runtime/Npu/ll_aton/ll_sw_float.c ****                          .nl_params = NULL, )
 1869              		.loc 1 431 5 view .LVU496
 1870 0254 CDE94613 		strd	r1, r3, [sp, #280]
 426:Lib/AI_Runtime/Npu/ll_aton/ll_sw_float.c ****         prelu_activ_chain, , 4, AI_TENSOR_LIST_OBJ_INIT(AI_FLAG_NONE, 1, TENSORS(&input_output)),
 1871              		.loc 1 426 5 view .LVU497
 1872 0258 3FA8     		add	r0, sp, #252
 431:Lib/AI_Runtime/Npu/ll_aton/ll_sw_float.c ****                          .nl_params = NULL, )
 1873              		.loc 1 431 5 view .LVU498
 1874 025a 0C49     		ldr	r1, .L71+16
 426:Lib/AI_Runtime/Npu/ll_aton/ll_sw_float.c ****         prelu_activ_chain, , 4, AI_TENSOR_LIST_OBJ_INIT(AI_FLAG_NONE, 1, TENSORS(&input_output)),
 1875              		.loc 1 426 5 view .LVU499
 1876 025c 0BAA     		add	r2, sp, #44
 1877 025e 0790     		str	r0, [sp, #28]
 433:Lib/AI_Runtime/Npu/ll_aton/ll_sw_float.c ****   }
 1878              		.loc 1 433 5 view .LVU500
 1879 0260 46A8     		add	r0, sp, #280
 431:Lib/AI_Runtime/Npu/ll_aton/ll_sw_float.c ****                          .nl_params = NULL, )
 1880              		.loc 1 431 5 view .LVU501
 1881 0262 CDE94833 		strd	r3, r3, [sp, #288]
 1882 0266 CDE94B12 		strd	r1, r2, [sp, #300]
 426:Lib/AI_Runtime/Npu/ll_aton/ll_sw_float.c ****         prelu_activ_chain, , 4, AI_TENSOR_LIST_OBJ_INIT(AI_FLAG_NONE, 1, TENSORS(&input_output)),
 1883              		.loc 1 426 5 view .LVU502
 1884 026a 0695     		str	r5, [sp, #24]
 1885 026c 6393     		str	r3, [sp, #396]
 1886 026e 0893     		str	r3, [sp, #32]
 431:Lib/AI_Runtime/Npu/ll_aton/ll_sw_float.c ****                          .nl_params = NULL, )
 1887              		.loc 1 431 5 view .LVU503
 1888 0270 4A93     		str	r3, [sp, #296]
 1889 0272 4D93     		str	r3, [sp, #308]
 433:Lib/AI_Runtime/Npu/ll_aton/ll_sw_float.c ****   }
 1890              		.loc 1 433 5 is_stmt 1 view .LVU504
 1891 0274 FFF7FEFF 		bl	forward_prelu
 1892              	.LVL47:
 1893              	.LBE16:
 435:Lib/AI_Runtime/Npu/ll_aton/ll_sw_float.c ****   case LL_SW_ELU:
 1894              		.loc 1 435 3 view .LVU505
 1895 0278 90E7     		b	.L31
 1896              	.L72:
 1897 027a 00BF     		.align	2
 1898              	.L71:
 1899 027c 40108200 		.word	8523840
ARM GAS  C:\Users\DJESSOU\AppData\Local\Temp\ccdFeyMS.s 			page 51


 1900 0280 07010200 		.word	131335
 1901 0284 00000000 		.word	forward_relu
 1902 0288 00000000 		.word	forward_clip
 1903 028c 00000000 		.word	forward_prelu
 1904              	.LVL48:
 1905              	.L66:
 1906              	.LBB17:
 439:Lib/AI_Runtime/Npu/ll_aton/ll_sw_float.c **** 
 1907              		.loc 1 439 5 view .LVU506
 1908 0290 D0F88830 		ldr	r3, [r0, #136]	@ float
 1909 0294 CDE94614 		strd	r1, r4, [sp, #280]
 1910 0298 3F93     		str	r3, [sp, #252]	@ float
 1911 029a 3FAB     		add	r3, sp, #252
 1912 029c 4893     		str	r3, [sp, #288]
 1913 029e 0023     		movs	r3, #0
 441:Lib/AI_Runtime/Npu/ll_aton/ll_sw_float.c ****                          .nl_params = AI_ARRAY_OBJ(&elu_layer_params), )
 1914              		.loc 1 441 5 is_stmt 0 view .LVU507
 1915 02a0 AD49     		ldr	r1, .L73
 1916 02a2 CDE95C33 		strd	r3, r3, [sp, #368]
 1917 02a6 CDE95A13 		strd	r1, r3, [sp, #360]
 439:Lib/AI_Runtime/Npu/ll_aton/ll_sw_float.c **** 
 1918              		.loc 1 439 5 view .LVU508
 1919 02aa 4993     		str	r3, [sp, #292]
 441:Lib/AI_Runtime/Npu/ll_aton/ll_sw_float.c ****                          .nl_params = AI_ARRAY_OBJ(&elu_layer_params), )
 1920              		.loc 1 441 5 is_stmt 1 view .LVU509
 1921 02ac 5E93     		str	r3, [sp, #376]
 1922 02ae AB4B     		ldr	r3, .L73+4
 443:Lib/AI_Runtime/Npu/ll_aton/ll_sw_float.c ****   }
 1923              		.loc 1 443 5 is_stmt 0 view .LVU510
 1924 02b0 5AA8     		add	r0, sp, #360
 1925              	.LVL49:
 441:Lib/AI_Runtime/Npu/ll_aton/ll_sw_float.c ****                          .nl_params = AI_ARRAY_OBJ(&elu_layer_params), )
 1926              		.loc 1 441 5 view .LVU511
 1927 02b2 CDE95F32 		strd	r3, r2, [sp, #380]
 1928 02b6 46AB     		add	r3, sp, #280
 1929 02b8 6193     		str	r3, [sp, #388]
 443:Lib/AI_Runtime/Npu/ll_aton/ll_sw_float.c ****   }
 1930              		.loc 1 443 5 is_stmt 1 view .LVU512
 1931 02ba FFF7FEFF 		bl	forward_elu
 1932              	.LVL50:
 1933              	.LBE17:
 445:Lib/AI_Runtime/Npu/ll_aton/ll_sw_float.c ****   case LL_SW_THRESHOLDEDRELU:
 1934              		.loc 1 445 3 view .LVU513
 1935 02be 6DE7     		b	.L31
 1936              	.LVL51:
 1937              	.L67:
 1938              	.LBB18:
 449:Lib/AI_Runtime/Npu/ll_aton/ll_sw_float.c **** 
 1939              		.loc 1 449 5 view .LVU514
 1940 02c0 D0F88830 		ldr	r3, [r0, #136]	@ float
 1941 02c4 CDE94614 		strd	r1, r4, [sp, #280]
 1942 02c8 3F93     		str	r3, [sp, #252]	@ float
 1943 02ca 3FAB     		add	r3, sp, #252
 1944 02cc 4893     		str	r3, [sp, #288]
 1945 02ce 0023     		movs	r3, #0
 451:Lib/AI_Runtime/Npu/ll_aton/ll_sw_float.c ****                          NULL, , .nl_params = AI_ARRAY_OBJ(&thresholdedrelu_layer_params), )
 1946              		.loc 1 451 5 is_stmt 0 view .LVU515
ARM GAS  C:\Users\DJESSOU\AppData\Local\Temp\ccdFeyMS.s 			page 52


 1947 02d0 A149     		ldr	r1, .L73
 1948 02d2 CDE95C33 		strd	r3, r3, [sp, #368]
 1949 02d6 CDE95A13 		strd	r1, r3, [sp, #360]
 449:Lib/AI_Runtime/Npu/ll_aton/ll_sw_float.c **** 
 1950              		.loc 1 449 5 view .LVU516
 1951 02da 4993     		str	r3, [sp, #292]
 451:Lib/AI_Runtime/Npu/ll_aton/ll_sw_float.c ****                          NULL, , .nl_params = AI_ARRAY_OBJ(&thresholdedrelu_layer_params), )
 1952              		.loc 1 451 5 is_stmt 1 view .LVU517
 1953 02dc 5E93     		str	r3, [sp, #376]
 1954 02de A04B     		ldr	r3, .L73+8
 453:Lib/AI_Runtime/Npu/ll_aton/ll_sw_float.c ****   }
 1955              		.loc 1 453 5 is_stmt 0 view .LVU518
 1956 02e0 5AA8     		add	r0, sp, #360
 1957              	.LVL52:
 451:Lib/AI_Runtime/Npu/ll_aton/ll_sw_float.c ****                          NULL, , .nl_params = AI_ARRAY_OBJ(&thresholdedrelu_layer_params), )
 1958              		.loc 1 451 5 view .LVU519
 1959 02e2 CDE95F32 		strd	r3, r2, [sp, #380]
 1960 02e6 46AB     		add	r3, sp, #280
 1961 02e8 6193     		str	r3, [sp, #388]
 453:Lib/AI_Runtime/Npu/ll_aton/ll_sw_float.c ****   }
 1962              		.loc 1 453 5 is_stmt 1 view .LVU520
 1963 02ea FFF7FEFF 		bl	forward_relu_thresholded
 1964              	.LVL53:
 1965              	.LBE18:
 455:Lib/AI_Runtime/Npu/ll_aton/ll_sw_float.c ****   case LL_SW_SELU:
 1966              		.loc 1 455 3 view .LVU521
 1967 02ee 55E7     		b	.L31
 1968              	.LVL54:
 1969              	.L65:
 1970              	.LBB19:
 459:Lib/AI_Runtime/Npu/ll_aton/ll_sw_float.c **** 
 1971              		.loc 1 459 5 view .LVU522
 1972 02f0 0223     		movs	r3, #2
 1973 02f2 4793     		str	r3, [sp, #284]
 1974 02f4 D0F88830 		ldr	r3, [r0, #136]	@ float
 1975 02f8 4691     		str	r1, [sp, #280]
 1976 02fa 3F93     		str	r3, [sp, #252]	@ float
 1977 02fc D0F89030 		ldr	r3, [r0, #144]	@ float
 461:Lib/AI_Runtime/Npu/ll_aton/ll_sw_float.c ****                          .nl_params = AI_ARRAY_OBJ(&selu_layer_params), )
 1978              		.loc 1 461 5 is_stmt 0 view .LVU523
 1979 0300 9549     		ldr	r1, .L73
 459:Lib/AI_Runtime/Npu/ll_aton/ll_sw_float.c **** 
 1980              		.loc 1 459 5 view .LVU524
 1981 0302 4093     		str	r3, [sp, #256]	@ float
 1982 0304 3FAB     		add	r3, sp, #252
 1983 0306 4893     		str	r3, [sp, #288]
 1984 0308 0023     		movs	r3, #0
 461:Lib/AI_Runtime/Npu/ll_aton/ll_sw_float.c ****                          .nl_params = AI_ARRAY_OBJ(&selu_layer_params), )
 1985              		.loc 1 461 5 view .LVU525
 1986 030a CDE95A13 		strd	r1, r3, [sp, #360]
 1987 030e CDE95C33 		strd	r3, r3, [sp, #368]
 459:Lib/AI_Runtime/Npu/ll_aton/ll_sw_float.c **** 
 1988              		.loc 1 459 5 view .LVU526
 1989 0312 4993     		str	r3, [sp, #292]
 461:Lib/AI_Runtime/Npu/ll_aton/ll_sw_float.c ****                          .nl_params = AI_ARRAY_OBJ(&selu_layer_params), )
 1990              		.loc 1 461 5 is_stmt 1 view .LVU527
 1991 0314 5E93     		str	r3, [sp, #376]
ARM GAS  C:\Users\DJESSOU\AppData\Local\Temp\ccdFeyMS.s 			page 53


 1992 0316 934B     		ldr	r3, .L73+12
 463:Lib/AI_Runtime/Npu/ll_aton/ll_sw_float.c ****   }
 1993              		.loc 1 463 5 is_stmt 0 view .LVU528
 1994 0318 5AA8     		add	r0, sp, #360
 1995              	.LVL55:
 461:Lib/AI_Runtime/Npu/ll_aton/ll_sw_float.c ****                          .nl_params = AI_ARRAY_OBJ(&selu_layer_params), )
 1996              		.loc 1 461 5 view .LVU529
 1997 031a CDE95F32 		strd	r3, r2, [sp, #380]
 1998 031e 46AB     		add	r3, sp, #280
 1999 0320 6193     		str	r3, [sp, #388]
 463:Lib/AI_Runtime/Npu/ll_aton/ll_sw_float.c ****   }
 2000              		.loc 1 463 5 is_stmt 1 view .LVU530
 2001 0322 FFF7FEFF 		bl	forward_selu
 2002              	.LVL56:
 2003              	.LBE19:
 465:Lib/AI_Runtime/Npu/ll_aton/ll_sw_float.c ****   case LL_SW_CEIL:
 2004              		.loc 1 465 3 view .LVU531
 2005 0326 39E7     		b	.L31
 2006              	.LVL57:
 2007              	.L50:
 2008              	.LBB20:
 468:Lib/AI_Runtime/Npu/ll_aton/ll_sw_float.c ****                          .nl_params = NULL, )
 2009              		.loc 1 468 5 view .LVU532
 2010 0328 8B49     		ldr	r1, .L73
 470:Lib/AI_Runtime/Npu/ll_aton/ll_sw_float.c ****   }
 2011              		.loc 1 470 5 is_stmt 0 view .LVU533
 2012 032a 5AA8     		add	r0, sp, #360
 2013              	.LVL58:
 468:Lib/AI_Runtime/Npu/ll_aton/ll_sw_float.c ****                          .nl_params = NULL, )
 2014              		.loc 1 468 5 view .LVU534
 2015 032c CDE95A13 		strd	r1, r3, [sp, #360]
 2016 0330 8D49     		ldr	r1, .L73+16
 2017 0332 CDE95C33 		strd	r3, r3, [sp, #368]
 2018 0336 CDE95F12 		strd	r1, r2, [sp, #380]
 2019 033a 5E93     		str	r3, [sp, #376]
 2020 033c 6193     		str	r3, [sp, #388]
 470:Lib/AI_Runtime/Npu/ll_aton/ll_sw_float.c ****   }
 2021              		.loc 1 470 5 is_stmt 1 view .LVU535
 2022 033e FFF7FEFF 		bl	forward_ceil
 2023              	.LVL59:
 2024              	.LBE20:
 472:Lib/AI_Runtime/Npu/ll_aton/ll_sw_float.c ****   case LL_SW_FLOOR:
 2025              		.loc 1 472 3 view .LVU536
 2026 0342 2BE7     		b	.L31
 2027              	.LVL60:
 2028              	.L49:
 2029              	.LBB21:
 475:Lib/AI_Runtime/Npu/ll_aton/ll_sw_float.c ****                          .nl_params = NULL, )
 2030              		.loc 1 475 5 view .LVU537
 2031 0344 8449     		ldr	r1, .L73
 477:Lib/AI_Runtime/Npu/ll_aton/ll_sw_float.c ****   }
 2032              		.loc 1 477 5 is_stmt 0 view .LVU538
 2033 0346 5AA8     		add	r0, sp, #360
 2034              	.LVL61:
 475:Lib/AI_Runtime/Npu/ll_aton/ll_sw_float.c ****                          .nl_params = NULL, )
 2035              		.loc 1 475 5 view .LVU539
 2036 0348 CDE95A13 		strd	r1, r3, [sp, #360]
ARM GAS  C:\Users\DJESSOU\AppData\Local\Temp\ccdFeyMS.s 			page 54


 2037 034c 8749     		ldr	r1, .L73+20
 2038 034e CDE95C33 		strd	r3, r3, [sp, #368]
 2039 0352 CDE95F12 		strd	r1, r2, [sp, #380]
 2040 0356 5E93     		str	r3, [sp, #376]
 2041 0358 6193     		str	r3, [sp, #388]
 477:Lib/AI_Runtime/Npu/ll_aton/ll_sw_float.c ****   }
 2042              		.loc 1 477 5 is_stmt 1 view .LVU540
 2043 035a FFF7FEFF 		bl	forward_floor
 2044              	.LVL62:
 2045              	.LBE21:
 479:Lib/AI_Runtime/Npu/ll_aton/ll_sw_float.c ****   case LL_SW_EXP:
 2046              		.loc 1 479 3 view .LVU541
 2047 035e 1DE7     		b	.L31
 2048              	.LVL63:
 2049              	.L48:
 2050              	.LBB22:
 482:Lib/AI_Runtime/Npu/ll_aton/ll_sw_float.c ****                          .nl_params = NULL, )
 2051              		.loc 1 482 5 view .LVU542
 2052 0360 7D49     		ldr	r1, .L73
 484:Lib/AI_Runtime/Npu/ll_aton/ll_sw_float.c ****   }
 2053              		.loc 1 484 5 is_stmt 0 view .LVU543
 2054 0362 5AA8     		add	r0, sp, #360
 2055              	.LVL64:
 482:Lib/AI_Runtime/Npu/ll_aton/ll_sw_float.c ****                          .nl_params = NULL, )
 2056              		.loc 1 482 5 view .LVU544
 2057 0364 CDE95A13 		strd	r1, r3, [sp, #360]
 2058 0368 8149     		ldr	r1, .L73+24
 2059 036a CDE95C33 		strd	r3, r3, [sp, #368]
 2060 036e CDE95F12 		strd	r1, r2, [sp, #380]
 2061 0372 5E93     		str	r3, [sp, #376]
 2062 0374 6193     		str	r3, [sp, #388]
 484:Lib/AI_Runtime/Npu/ll_aton/ll_sw_float.c ****   }
 2063              		.loc 1 484 5 is_stmt 1 view .LVU545
 2064 0376 FFF7FEFF 		bl	forward_exp
 2065              	.LVL65:
 2066              	.LBE22:
 486:Lib/AI_Runtime/Npu/ll_aton/ll_sw_float.c ****   case LL_SW_LOG:
 2067              		.loc 1 486 3 view .LVU546
 2068 037a 0FE7     		b	.L31
 2069              	.LVL66:
 2070              	.L47:
 2071              	.LBB23:
 489:Lib/AI_Runtime/Npu/ll_aton/ll_sw_float.c ****                          .nl_params = NULL, )
 2072              		.loc 1 489 5 view .LVU547
 2073 037c 7649     		ldr	r1, .L73
 491:Lib/AI_Runtime/Npu/ll_aton/ll_sw_float.c ****   }
 2074              		.loc 1 491 5 is_stmt 0 view .LVU548
 2075 037e 5AA8     		add	r0, sp, #360
 2076              	.LVL67:
 489:Lib/AI_Runtime/Npu/ll_aton/ll_sw_float.c ****                          .nl_params = NULL, )
 2077              		.loc 1 489 5 view .LVU549
 2078 0380 CDE95A13 		strd	r1, r3, [sp, #360]
 2079 0384 7B49     		ldr	r1, .L73+28
 2080 0386 CDE95C33 		strd	r3, r3, [sp, #368]
 2081 038a CDE95F12 		strd	r1, r2, [sp, #380]
 2082 038e 5E93     		str	r3, [sp, #376]
 2083 0390 6193     		str	r3, [sp, #388]
ARM GAS  C:\Users\DJESSOU\AppData\Local\Temp\ccdFeyMS.s 			page 55


 491:Lib/AI_Runtime/Npu/ll_aton/ll_sw_float.c ****   }
 2084              		.loc 1 491 5 is_stmt 1 view .LVU550
 2085 0392 FFF7FEFF 		bl	forward_log
 2086              	.LVL68:
 2087              	.LBE23:
 493:Lib/AI_Runtime/Npu/ll_aton/ll_sw_float.c ****   case LL_SW_ACOS:
 2088              		.loc 1 493 3 view .LVU551
 2089 0396 01E7     		b	.L31
 2090              	.LVL69:
 2091              	.L61:
 2092              	.LBB24:
 496:Lib/AI_Runtime/Npu/ll_aton/ll_sw_float.c ****                          .nl_params = NULL, )
 2093              		.loc 1 496 5 view .LVU552
 2094 0398 6F49     		ldr	r1, .L73
 498:Lib/AI_Runtime/Npu/ll_aton/ll_sw_float.c ****   }
 2095              		.loc 1 498 5 is_stmt 0 view .LVU553
 2096 039a 5AA8     		add	r0, sp, #360
 2097              	.LVL70:
 496:Lib/AI_Runtime/Npu/ll_aton/ll_sw_float.c ****                          .nl_params = NULL, )
 2098              		.loc 1 496 5 view .LVU554
 2099 039c CDE95A13 		strd	r1, r3, [sp, #360]
 2100 03a0 7549     		ldr	r1, .L73+32
 2101 03a2 CDE95C33 		strd	r3, r3, [sp, #368]
 2102 03a6 CDE95F12 		strd	r1, r2, [sp, #380]
 2103 03aa 5E93     		str	r3, [sp, #376]
 2104 03ac 6193     		str	r3, [sp, #388]
 498:Lib/AI_Runtime/Npu/ll_aton/ll_sw_float.c ****   }
 2105              		.loc 1 498 5 is_stmt 1 view .LVU555
 2106 03ae FFF7FEFF 		bl	forward_acos
 2107              	.LVL71:
 2108              	.LBE24:
 500:Lib/AI_Runtime/Npu/ll_aton/ll_sw_float.c ****   case LL_SW_ACOSH:
 2109              		.loc 1 500 3 view .LVU556
 2110 03b2 F3E6     		b	.L31
 2111              	.LVL72:
 2112              	.L60:
 2113              	.LBB25:
 503:Lib/AI_Runtime/Npu/ll_aton/ll_sw_float.c ****                          .nl_params = NULL, )
 2114              		.loc 1 503 5 view .LVU557
 2115 03b4 6849     		ldr	r1, .L73
 505:Lib/AI_Runtime/Npu/ll_aton/ll_sw_float.c ****   }
 2116              		.loc 1 505 5 is_stmt 0 view .LVU558
 2117 03b6 5AA8     		add	r0, sp, #360
 2118              	.LVL73:
 503:Lib/AI_Runtime/Npu/ll_aton/ll_sw_float.c ****                          .nl_params = NULL, )
 2119              		.loc 1 503 5 view .LVU559
 2120 03b8 CDE95A13 		strd	r1, r3, [sp, #360]
 2121 03bc 6F49     		ldr	r1, .L73+36
 2122 03be CDE95C33 		strd	r3, r3, [sp, #368]
 2123 03c2 CDE95F12 		strd	r1, r2, [sp, #380]
 2124 03c6 5E93     		str	r3, [sp, #376]
 2125 03c8 6193     		str	r3, [sp, #388]
 505:Lib/AI_Runtime/Npu/ll_aton/ll_sw_float.c ****   }
 2126              		.loc 1 505 5 is_stmt 1 view .LVU560
 2127 03ca FFF7FEFF 		bl	forward_acosh
 2128              	.LVL74:
 2129              	.LBE25:
ARM GAS  C:\Users\DJESSOU\AppData\Local\Temp\ccdFeyMS.s 			page 56


 507:Lib/AI_Runtime/Npu/ll_aton/ll_sw_float.c ****   case LL_SW_ASIN:
 2130              		.loc 1 507 3 view .LVU561
 2131 03ce E5E6     		b	.L31
 2132              	.LVL75:
 2133              	.L59:
 2134              	.LBB26:
 510:Lib/AI_Runtime/Npu/ll_aton/ll_sw_float.c ****                          .nl_params = NULL, )
 2135              		.loc 1 510 5 view .LVU562
 2136 03d0 6149     		ldr	r1, .L73
 512:Lib/AI_Runtime/Npu/ll_aton/ll_sw_float.c ****   }
 2137              		.loc 1 512 5 is_stmt 0 view .LVU563
 2138 03d2 5AA8     		add	r0, sp, #360
 2139              	.LVL76:
 510:Lib/AI_Runtime/Npu/ll_aton/ll_sw_float.c ****                          .nl_params = NULL, )
 2140              		.loc 1 510 5 view .LVU564
 2141 03d4 CDE95A13 		strd	r1, r3, [sp, #360]
 2142 03d8 6949     		ldr	r1, .L73+40
 2143 03da CDE95C33 		strd	r3, r3, [sp, #368]
 2144 03de CDE95F12 		strd	r1, r2, [sp, #380]
 2145 03e2 5E93     		str	r3, [sp, #376]
 2146 03e4 6193     		str	r3, [sp, #388]
 512:Lib/AI_Runtime/Npu/ll_aton/ll_sw_float.c ****   }
 2147              		.loc 1 512 5 is_stmt 1 view .LVU565
 2148 03e6 FFF7FEFF 		bl	forward_asin
 2149              	.LVL77:
 2150              	.LBE26:
 514:Lib/AI_Runtime/Npu/ll_aton/ll_sw_float.c ****   case LL_SW_ASINH:
 2151              		.loc 1 514 3 view .LVU566
 2152 03ea D7E6     		b	.L31
 2153              	.LVL78:
 2154              	.L58:
 2155              	.LBB27:
 517:Lib/AI_Runtime/Npu/ll_aton/ll_sw_float.c ****                          .nl_params = NULL, )
 2156              		.loc 1 517 5 view .LVU567
 2157 03ec 5A49     		ldr	r1, .L73
 519:Lib/AI_Runtime/Npu/ll_aton/ll_sw_float.c ****   }
 2158              		.loc 1 519 5 is_stmt 0 view .LVU568
 2159 03ee 5AA8     		add	r0, sp, #360
 2160              	.LVL79:
 517:Lib/AI_Runtime/Npu/ll_aton/ll_sw_float.c ****                          .nl_params = NULL, )
 2161              		.loc 1 517 5 view .LVU569
 2162 03f0 CDE95A13 		strd	r1, r3, [sp, #360]
 2163 03f4 6349     		ldr	r1, .L73+44
 2164 03f6 CDE95C33 		strd	r3, r3, [sp, #368]
 2165 03fa CDE95F12 		strd	r1, r2, [sp, #380]
 2166 03fe 5E93     		str	r3, [sp, #376]
 2167 0400 6193     		str	r3, [sp, #388]
 519:Lib/AI_Runtime/Npu/ll_aton/ll_sw_float.c ****   }
 2168              		.loc 1 519 5 is_stmt 1 view .LVU570
 2169 0402 FFF7FEFF 		bl	forward_asinh
 2170              	.LVL80:
 2171              	.LBE27:
 521:Lib/AI_Runtime/Npu/ll_aton/ll_sw_float.c ****   case LL_SW_ATAN:
 2172              		.loc 1 521 3 view .LVU571
 2173 0406 C9E6     		b	.L31
 2174              	.LVL81:
 2175              	.L63:
ARM GAS  C:\Users\DJESSOU\AppData\Local\Temp\ccdFeyMS.s 			page 57


 2176              	.LBB28:
 524:Lib/AI_Runtime/Npu/ll_aton/ll_sw_float.c ****                          .nl_params = NULL, )
 2177              		.loc 1 524 5 view .LVU572
 2178 0408 5349     		ldr	r1, .L73
 526:Lib/AI_Runtime/Npu/ll_aton/ll_sw_float.c ****   }
 2179              		.loc 1 526 5 is_stmt 0 view .LVU573
 2180 040a 5AA8     		add	r0, sp, #360
 2181              	.LVL82:
 524:Lib/AI_Runtime/Npu/ll_aton/ll_sw_float.c ****                          .nl_params = NULL, )
 2182              		.loc 1 524 5 view .LVU574
 2183 040c CDE95A13 		strd	r1, r3, [sp, #360]
 2184 0410 5D49     		ldr	r1, .L73+48
 2185 0412 CDE95C33 		strd	r3, r3, [sp, #368]
 2186 0416 CDE95F12 		strd	r1, r2, [sp, #380]
 2187 041a 5E93     		str	r3, [sp, #376]
 2188 041c 6193     		str	r3, [sp, #388]
 526:Lib/AI_Runtime/Npu/ll_aton/ll_sw_float.c ****   }
 2189              		.loc 1 526 5 is_stmt 1 view .LVU575
 2190 041e FFF7FEFF 		bl	forward_atan
 2191              	.LVL83:
 2192              	.LBE28:
 528:Lib/AI_Runtime/Npu/ll_aton/ll_sw_float.c ****   case LL_SW_ATANH:
 2193              		.loc 1 528 3 view .LVU576
 2194 0422 BBE6     		b	.L31
 2195              	.LVL84:
 2196              	.L62:
 2197              	.LBB29:
 531:Lib/AI_Runtime/Npu/ll_aton/ll_sw_float.c ****                          .nl_params = NULL, )
 2198              		.loc 1 531 5 view .LVU577
 2199 0424 4C49     		ldr	r1, .L73
 533:Lib/AI_Runtime/Npu/ll_aton/ll_sw_float.c ****   }
 2200              		.loc 1 533 5 is_stmt 0 view .LVU578
 2201 0426 5AA8     		add	r0, sp, #360
 2202              	.LVL85:
 531:Lib/AI_Runtime/Npu/ll_aton/ll_sw_float.c ****                          .nl_params = NULL, )
 2203              		.loc 1 531 5 view .LVU579
 2204 0428 CDE95A13 		strd	r1, r3, [sp, #360]
 2205 042c 5749     		ldr	r1, .L73+52
 2206 042e CDE95C33 		strd	r3, r3, [sp, #368]
 2207 0432 CDE95F12 		strd	r1, r2, [sp, #380]
 2208 0436 5E93     		str	r3, [sp, #376]
 2209 0438 6193     		str	r3, [sp, #388]
 533:Lib/AI_Runtime/Npu/ll_aton/ll_sw_float.c ****   }
 2210              		.loc 1 533 5 is_stmt 1 view .LVU580
 2211 043a FFF7FEFF 		bl	forward_atanh
 2212              	.LVL86:
 2213              	.LBE29:
 535:Lib/AI_Runtime/Npu/ll_aton/ll_sw_float.c ****   case LL_SW_COS:
 2214              		.loc 1 535 3 view .LVU581
 2215 043e ADE6     		b	.L31
 2216              	.LVL87:
 2217              	.L55:
 2218              	.LBB30:
 538:Lib/AI_Runtime/Npu/ll_aton/ll_sw_float.c ****                          .nl_params = NULL, )
 2219              		.loc 1 538 5 view .LVU582
 2220 0440 4549     		ldr	r1, .L73
 540:Lib/AI_Runtime/Npu/ll_aton/ll_sw_float.c ****   }
ARM GAS  C:\Users\DJESSOU\AppData\Local\Temp\ccdFeyMS.s 			page 58


 2221              		.loc 1 540 5 is_stmt 0 view .LVU583
 2222 0442 5AA8     		add	r0, sp, #360
 2223              	.LVL88:
 538:Lib/AI_Runtime/Npu/ll_aton/ll_sw_float.c ****                          .nl_params = NULL, )
 2224              		.loc 1 538 5 view .LVU584
 2225 0444 CDE95A13 		strd	r1, r3, [sp, #360]
 2226 0448 5149     		ldr	r1, .L73+56
 2227 044a CDE95C33 		strd	r3, r3, [sp, #368]
 2228 044e CDE95F12 		strd	r1, r2, [sp, #380]
 2229 0452 5E93     		str	r3, [sp, #376]
 2230 0454 6193     		str	r3, [sp, #388]
 540:Lib/AI_Runtime/Npu/ll_aton/ll_sw_float.c ****   }
 2231              		.loc 1 540 5 is_stmt 1 view .LVU585
 2232 0456 FFF7FEFF 		bl	forward_cos
 2233              	.LVL89:
 2234              	.LBE30:
 542:Lib/AI_Runtime/Npu/ll_aton/ll_sw_float.c ****   case LL_SW_COSH:
 2235              		.loc 1 542 3 view .LVU586
 2236 045a 9FE6     		b	.L31
 2237              	.LVL90:
 2238              	.L54:
 2239              	.LBB31:
 545:Lib/AI_Runtime/Npu/ll_aton/ll_sw_float.c ****                          .nl_params = NULL, )
 2240              		.loc 1 545 5 view .LVU587
 2241 045c 3E49     		ldr	r1, .L73
 547:Lib/AI_Runtime/Npu/ll_aton/ll_sw_float.c ****   }
 2242              		.loc 1 547 5 is_stmt 0 view .LVU588
 2243 045e 5AA8     		add	r0, sp, #360
 2244              	.LVL91:
 545:Lib/AI_Runtime/Npu/ll_aton/ll_sw_float.c ****                          .nl_params = NULL, )
 2245              		.loc 1 545 5 view .LVU589
 2246 0460 CDE95A13 		strd	r1, r3, [sp, #360]
 2247 0464 4B49     		ldr	r1, .L73+60
 2248 0466 CDE95C33 		strd	r3, r3, [sp, #368]
 2249 046a CDE95F12 		strd	r1, r2, [sp, #380]
 2250 046e 5E93     		str	r3, [sp, #376]
 2251 0470 6193     		str	r3, [sp, #388]
 547:Lib/AI_Runtime/Npu/ll_aton/ll_sw_float.c ****   }
 2252              		.loc 1 547 5 is_stmt 1 view .LVU590
 2253 0472 FFF7FEFF 		bl	forward_cosh
 2254              	.LVL92:
 2255              	.LBE31:
 549:Lib/AI_Runtime/Npu/ll_aton/ll_sw_float.c ****   case LL_SW_SIN:
 2256              		.loc 1 549 3 view .LVU591
 2257 0476 91E6     		b	.L31
 2258              	.LVL93:
 2259              	.L53:
 2260              	.LBB32:
 552:Lib/AI_Runtime/Npu/ll_aton/ll_sw_float.c ****                          .nl_params = NULL, )
 2261              		.loc 1 552 5 view .LVU592
 2262 0478 3749     		ldr	r1, .L73
 554:Lib/AI_Runtime/Npu/ll_aton/ll_sw_float.c ****   }
 2263              		.loc 1 554 5 is_stmt 0 view .LVU593
 2264 047a 5AA8     		add	r0, sp, #360
 2265              	.LVL94:
 552:Lib/AI_Runtime/Npu/ll_aton/ll_sw_float.c ****                          .nl_params = NULL, )
 2266              		.loc 1 552 5 view .LVU594
ARM GAS  C:\Users\DJESSOU\AppData\Local\Temp\ccdFeyMS.s 			page 59


 2267 047c CDE95A13 		strd	r1, r3, [sp, #360]
 2268 0480 4549     		ldr	r1, .L73+64
 2269 0482 CDE95C33 		strd	r3, r3, [sp, #368]
 2270 0486 CDE95F12 		strd	r1, r2, [sp, #380]
 2271 048a 5E93     		str	r3, [sp, #376]
 2272 048c 6193     		str	r3, [sp, #388]
 554:Lib/AI_Runtime/Npu/ll_aton/ll_sw_float.c ****   }
 2273              		.loc 1 554 5 is_stmt 1 view .LVU595
 2274 048e FFF7FEFF 		bl	forward_sin
 2275              	.LVL95:
 2276              	.LBE32:
 556:Lib/AI_Runtime/Npu/ll_aton/ll_sw_float.c ****   case LL_SW_SINH:
 2277              		.loc 1 556 3 view .LVU596
 2278 0492 83E6     		b	.L31
 2279              	.LVL96:
 2280              	.L52:
 2281              	.LBB33:
 559:Lib/AI_Runtime/Npu/ll_aton/ll_sw_float.c ****                          .nl_params = NULL, )
 2282              		.loc 1 559 5 view .LVU597
 2283 0494 3049     		ldr	r1, .L73
 561:Lib/AI_Runtime/Npu/ll_aton/ll_sw_float.c ****   }
 2284              		.loc 1 561 5 is_stmt 0 view .LVU598
 2285 0496 5AA8     		add	r0, sp, #360
 2286              	.LVL97:
 559:Lib/AI_Runtime/Npu/ll_aton/ll_sw_float.c ****                          .nl_params = NULL, )
 2287              		.loc 1 559 5 view .LVU599
 2288 0498 CDE95A13 		strd	r1, r3, [sp, #360]
 2289 049c 3F49     		ldr	r1, .L73+68
 2290 049e CDE95C33 		strd	r3, r3, [sp, #368]
 2291 04a2 CDE95F12 		strd	r1, r2, [sp, #380]
 2292 04a6 5E93     		str	r3, [sp, #376]
 2293 04a8 6193     		str	r3, [sp, #388]
 561:Lib/AI_Runtime/Npu/ll_aton/ll_sw_float.c ****   }
 2294              		.loc 1 561 5 is_stmt 1 view .LVU600
 2295 04aa FFF7FEFF 		bl	forward_sinh
 2296              	.LVL98:
 2297              	.LBE33:
 563:Lib/AI_Runtime/Npu/ll_aton/ll_sw_float.c ****   case LL_SW_TANH:
 2298              		.loc 1 563 3 view .LVU601
 2299 04ae 75E6     		b	.L31
 2300              	.LVL99:
 2301              	.L56:
 2302              	.LBB34:
 566:Lib/AI_Runtime/Npu/ll_aton/ll_sw_float.c ****                          .nl_params = NULL, )
 2303              		.loc 1 566 5 view .LVU602
 2304 04b0 2949     		ldr	r1, .L73
 568:Lib/AI_Runtime/Npu/ll_aton/ll_sw_float.c ****   }
 2305              		.loc 1 568 5 is_stmt 0 view .LVU603
 2306 04b2 5AA8     		add	r0, sp, #360
 2307              	.LVL100:
 566:Lib/AI_Runtime/Npu/ll_aton/ll_sw_float.c ****                          .nl_params = NULL, )
 2308              		.loc 1 566 5 view .LVU604
 2309 04b4 CDE95A13 		strd	r1, r3, [sp, #360]
 2310 04b8 3949     		ldr	r1, .L73+72
 2311 04ba CDE95C33 		strd	r3, r3, [sp, #368]
 2312 04be CDE95F12 		strd	r1, r2, [sp, #380]
 2313 04c2 5E93     		str	r3, [sp, #376]
ARM GAS  C:\Users\DJESSOU\AppData\Local\Temp\ccdFeyMS.s 			page 60


 2314 04c4 6193     		str	r3, [sp, #388]
 568:Lib/AI_Runtime/Npu/ll_aton/ll_sw_float.c ****   }
 2315              		.loc 1 568 5 is_stmt 1 view .LVU605
 2316 04c6 FFF7FEFF 		bl	forward_tanh
 2317              	.LVL101:
 2318              	.LBE34:
 570:Lib/AI_Runtime/Npu/ll_aton/ll_sw_float.c ****   case LL_SW_TAN:
 2319              		.loc 1 570 3 view .LVU606
 2320 04ca 67E6     		b	.L31
 2321              	.LVL102:
 2322              	.L57:
 2323              	.LBB35:
 573:Lib/AI_Runtime/Npu/ll_aton/ll_sw_float.c ****                          .nl_params = NULL, )
 2324              		.loc 1 573 5 view .LVU607
 2325 04cc 2249     		ldr	r1, .L73
 575:Lib/AI_Runtime/Npu/ll_aton/ll_sw_float.c ****   }
 2326              		.loc 1 575 5 is_stmt 0 view .LVU608
 2327 04ce 5AA8     		add	r0, sp, #360
 2328              	.LVL103:
 573:Lib/AI_Runtime/Npu/ll_aton/ll_sw_float.c ****                          .nl_params = NULL, )
 2329              		.loc 1 573 5 view .LVU609
 2330 04d0 CDE95A13 		strd	r1, r3, [sp, #360]
 2331 04d4 3349     		ldr	r1, .L73+76
 2332 04d6 CDE95C33 		strd	r3, r3, [sp, #368]
 2333 04da CDE95F12 		strd	r1, r2, [sp, #380]
 2334 04de 5E93     		str	r3, [sp, #376]
 2335 04e0 6193     		str	r3, [sp, #388]
 575:Lib/AI_Runtime/Npu/ll_aton/ll_sw_float.c ****   }
 2336              		.loc 1 575 5 is_stmt 1 view .LVU610
 2337 04e2 FFF7FEFF 		bl	forward_tan
 2338              	.LVL104:
 2339              	.LBE35:
 577:Lib/AI_Runtime/Npu/ll_aton/ll_sw_float.c ****   case LL_SW_SIGMOID:
 2340              		.loc 1 577 3 view .LVU611
 2341 04e6 59E6     		b	.L31
 2342              	.LVL105:
 2343              	.L64:
 2344              	.LBB36:
 580:Lib/AI_Runtime/Npu/ll_aton/ll_sw_float.c ****                          .nl_params = NULL, )
 2345              		.loc 1 580 5 view .LVU612
 2346 04e8 1B49     		ldr	r1, .L73
 582:Lib/AI_Runtime/Npu/ll_aton/ll_sw_float.c ****   }
 2347              		.loc 1 582 5 is_stmt 0 view .LVU613
 2348 04ea 5AA8     		add	r0, sp, #360
 2349              	.LVL106:
 580:Lib/AI_Runtime/Npu/ll_aton/ll_sw_float.c ****                          .nl_params = NULL, )
 2350              		.loc 1 580 5 view .LVU614
 2351 04ec CDE95A13 		strd	r1, r3, [sp, #360]
 2352 04f0 2D49     		ldr	r1, .L73+80
 2353 04f2 CDE95C33 		strd	r3, r3, [sp, #368]
 2354 04f6 CDE95F12 		strd	r1, r2, [sp, #380]
 2355 04fa 5E93     		str	r3, [sp, #376]
 2356 04fc 6193     		str	r3, [sp, #388]
 582:Lib/AI_Runtime/Npu/ll_aton/ll_sw_float.c ****   }
 2357              		.loc 1 582 5 is_stmt 1 view .LVU615
 2358 04fe FFF7FEFF 		bl	forward_sigmoid
 2359              	.LVL107:
ARM GAS  C:\Users\DJESSOU\AppData\Local\Temp\ccdFeyMS.s 			page 61


 2360              	.LBE36:
 584:Lib/AI_Runtime/Npu/ll_aton/ll_sw_float.c ****   case LL_SW_SQRT:
 2361              		.loc 1 584 3 view .LVU616
 2362 0502 4BE6     		b	.L31
 2363              	.LVL108:
 2364              	.L51:
 2365              	.LBB37:
 587:Lib/AI_Runtime/Npu/ll_aton/ll_sw_float.c ****                          .nl_params = NULL, )
 2366              		.loc 1 587 5 view .LVU617
 2367 0504 1449     		ldr	r1, .L73
 589:Lib/AI_Runtime/Npu/ll_aton/ll_sw_float.c ****   }
 2368              		.loc 1 589 5 is_stmt 0 view .LVU618
 2369 0506 5AA8     		add	r0, sp, #360
 2370              	.LVL109:
 587:Lib/AI_Runtime/Npu/ll_aton/ll_sw_float.c ****                          .nl_params = NULL, )
 2371              		.loc 1 587 5 view .LVU619
 2372 0508 CDE95A13 		strd	r1, r3, [sp, #360]
 2373 050c 2749     		ldr	r1, .L73+84
 2374 050e CDE95C33 		strd	r3, r3, [sp, #368]
 2375 0512 CDE95F12 		strd	r1, r2, [sp, #380]
 2376 0516 5E93     		str	r3, [sp, #376]
 2377 0518 6193     		str	r3, [sp, #388]
 589:Lib/AI_Runtime/Npu/ll_aton/ll_sw_float.c ****   }
 2378              		.loc 1 589 5 is_stmt 1 view .LVU620
 2379 051a FFF7FEFF 		bl	forward_sqrt
 2380              	.LVL110:
 2381              	.LBE37:
 591:Lib/AI_Runtime/Npu/ll_aton/ll_sw_float.c ****   case LL_SW_ERF:
 2382              		.loc 1 591 3 view .LVU621
 2383 051e 3DE6     		b	.L31
 2384              	.LVL111:
 2385              	.L46:
 2386              	.LBB38:
 594:Lib/AI_Runtime/Npu/ll_aton/ll_sw_float.c ****                          .nl_params = NULL, )
 2387              		.loc 1 594 5 view .LVU622
 2388 0520 0D49     		ldr	r1, .L73
 596:Lib/AI_Runtime/Npu/ll_aton/ll_sw_float.c ****   }
 2389              		.loc 1 596 5 is_stmt 0 view .LVU623
 2390 0522 5AA8     		add	r0, sp, #360
 2391              	.LVL112:
 594:Lib/AI_Runtime/Npu/ll_aton/ll_sw_float.c ****                          .nl_params = NULL, )
 2392              		.loc 1 594 5 view .LVU624
 2393 0524 CDE95A13 		strd	r1, r3, [sp, #360]
 2394 0528 2149     		ldr	r1, .L73+88
 2395 052a CDE95C33 		strd	r3, r3, [sp, #368]
 2396 052e CDE95F12 		strd	r1, r2, [sp, #380]
 2397 0532 5E93     		str	r3, [sp, #376]
 2398 0534 6193     		str	r3, [sp, #388]
 596:Lib/AI_Runtime/Npu/ll_aton/ll_sw_float.c ****   }
 2399              		.loc 1 596 5 is_stmt 1 view .LVU625
 2400 0536 FFF7FEFF 		bl	forward_erf
 2401              	.LVL113:
 2402              	.LBE38:
 598:Lib/AI_Runtime/Npu/ll_aton/ll_sw_float.c ****   case LL_SW_SOFTPLUS:
 2403              		.loc 1 598 3 view .LVU626
 2404 053a 2FE6     		b	.L31
 2405              	.LVL114:
ARM GAS  C:\Users\DJESSOU\AppData\Local\Temp\ccdFeyMS.s 			page 62


 2406              	.L38:
 2407              	.LBB39:
 601:Lib/AI_Runtime/Npu/ll_aton/ll_sw_float.c ****                          .nl_params = NULL, )
 2408              		.loc 1 601 5 view .LVU627
 2409 053c 0649     		ldr	r1, .L73
 603:Lib/AI_Runtime/Npu/ll_aton/ll_sw_float.c ****   }
 2410              		.loc 1 603 5 is_stmt 0 view .LVU628
 2411 053e 5AA8     		add	r0, sp, #360
 2412              	.LVL115:
 601:Lib/AI_Runtime/Npu/ll_aton/ll_sw_float.c ****                          .nl_params = NULL, )
 2413              		.loc 1 601 5 view .LVU629
 2414 0540 CDE95A13 		strd	r1, r3, [sp, #360]
 2415 0544 1B49     		ldr	r1, .L73+92
 2416 0546 CDE95C33 		strd	r3, r3, [sp, #368]
 2417 054a CDE95F12 		strd	r1, r2, [sp, #380]
 2418 054e 5E93     		str	r3, [sp, #376]
 2419 0550 6193     		str	r3, [sp, #388]
 603:Lib/AI_Runtime/Npu/ll_aton/ll_sw_float.c ****   }
 2420              		.loc 1 603 5 is_stmt 1 view .LVU630
 2421 0552 FFF7FEFF 		bl	forward_soft_plus
 2422              	.LVL116:
 2423              	.LBE39:
 605:Lib/AI_Runtime/Npu/ll_aton/ll_sw_float.c ****   case LL_SW_SOFTSIGN:
 2424              		.loc 1 605 3 view .LVU631
 2425 0556 21E6     		b	.L31
 2426              	.L74:
 2427              		.align	2
 2428              	.L73:
 2429 0558 07010200 		.word	131335
 2430 055c 00000000 		.word	forward_elu
 2431 0560 00000000 		.word	forward_relu_thresholded
 2432 0564 00000000 		.word	forward_selu
 2433 0568 00000000 		.word	forward_ceil
 2434 056c 00000000 		.word	forward_floor
 2435 0570 00000000 		.word	forward_exp
 2436 0574 00000000 		.word	forward_log
 2437 0578 00000000 		.word	forward_acos
 2438 057c 00000000 		.word	forward_acosh
 2439 0580 00000000 		.word	forward_asin
 2440 0584 00000000 		.word	forward_asinh
 2441 0588 00000000 		.word	forward_atan
 2442 058c 00000000 		.word	forward_atanh
 2443 0590 00000000 		.word	forward_cos
 2444 0594 00000000 		.word	forward_cosh
 2445 0598 00000000 		.word	forward_sin
 2446 059c 00000000 		.word	forward_sinh
 2447 05a0 00000000 		.word	forward_tanh
 2448 05a4 00000000 		.word	forward_tan
 2449 05a8 00000000 		.word	forward_sigmoid
 2450 05ac 00000000 		.word	forward_sqrt
 2451 05b0 00000000 		.word	forward_erf
 2452 05b4 00000000 		.word	forward_soft_plus
 2453              	.LVL117:
 2454              	.L39:
 2455              	.LBB40:
 608:Lib/AI_Runtime/Npu/ll_aton/ll_sw_float.c ****                          .nl_params = NULL, )
 2456              		.loc 1 608 5 view .LVU632
ARM GAS  C:\Users\DJESSOU\AppData\Local\Temp\ccdFeyMS.s 			page 63


 2457 05b8 5149     		ldr	r1, .L75
 610:Lib/AI_Runtime/Npu/ll_aton/ll_sw_float.c ****   }
 2458              		.loc 1 610 5 is_stmt 0 view .LVU633
 2459 05ba 5AA8     		add	r0, sp, #360
 2460              	.LVL118:
 608:Lib/AI_Runtime/Npu/ll_aton/ll_sw_float.c ****                          .nl_params = NULL, )
 2461              		.loc 1 608 5 view .LVU634
 2462 05bc CDE95A13 		strd	r1, r3, [sp, #360]
 2463 05c0 5049     		ldr	r1, .L75+4
 2464 05c2 CDE95C33 		strd	r3, r3, [sp, #368]
 2465 05c6 CDE95F12 		strd	r1, r2, [sp, #380]
 2466 05ca 5E93     		str	r3, [sp, #376]
 2467 05cc 6193     		str	r3, [sp, #388]
 610:Lib/AI_Runtime/Npu/ll_aton/ll_sw_float.c ****   }
 2468              		.loc 1 610 5 is_stmt 1 view .LVU635
 2469 05ce FFF7FEFF 		bl	forward_soft_sign
 2470              	.LVL119:
 2471              	.LBE40:
 612:Lib/AI_Runtime/Npu/ll_aton/ll_sw_float.c ****   case LL_SW_HARDSIGMOID:
 2472              		.loc 1 612 3 view .LVU636
 2473 05d2 E3E5     		b	.L31
 2474              	.LVL120:
 2475              	.L44:
 2476              	.LBB41:
 615:Lib/AI_Runtime/Npu/ll_aton/ll_sw_float.c ****                                 sw_info->beta)
 2477              		.loc 1 615 5 view .LVU637
 2478 05d4 0223     		movs	r3, #2
 2479 05d6 4793     		str	r3, [sp, #284]
 2480 05d8 D0F88830 		ldr	r3, [r0, #136]	@ float
 2481 05dc 4691     		str	r1, [sp, #280]
 2482 05de 3F93     		str	r3, [sp, #252]	@ float
 2483 05e0 D0F88C30 		ldr	r3, [r0, #140]	@ float
 617:Lib/AI_Runtime/Npu/ll_aton/ll_sw_float.c ****                          , .nl_params = AI_ARRAY_OBJ(&hard_sigmoid_layer_params), )
 2484              		.loc 1 617 5 is_stmt 0 view .LVU638
 2485 05e4 4649     		ldr	r1, .L75
 615:Lib/AI_Runtime/Npu/ll_aton/ll_sw_float.c ****                                 sw_info->beta)
 2486              		.loc 1 615 5 view .LVU639
 2487 05e6 4093     		str	r3, [sp, #256]	@ float
 2488 05e8 3FAB     		add	r3, sp, #252
 2489 05ea 4893     		str	r3, [sp, #288]
 2490 05ec 0023     		movs	r3, #0
 617:Lib/AI_Runtime/Npu/ll_aton/ll_sw_float.c ****                          , .nl_params = AI_ARRAY_OBJ(&hard_sigmoid_layer_params), )
 2491              		.loc 1 617 5 view .LVU640
 2492 05ee CDE95A13 		strd	r1, r3, [sp, #360]
 2493 05f2 CDE95C33 		strd	r3, r3, [sp, #368]
 615:Lib/AI_Runtime/Npu/ll_aton/ll_sw_float.c ****                                 sw_info->beta)
 2494              		.loc 1 615 5 view .LVU641
 2495 05f6 4993     		str	r3, [sp, #292]
 617:Lib/AI_Runtime/Npu/ll_aton/ll_sw_float.c ****                          , .nl_params = AI_ARRAY_OBJ(&hard_sigmoid_layer_params), )
 2496              		.loc 1 617 5 is_stmt 1 view .LVU642
 2497 05f8 5E93     		str	r3, [sp, #376]
 2498 05fa 434B     		ldr	r3, .L75+8
 619:Lib/AI_Runtime/Npu/ll_aton/ll_sw_float.c ****   }
 2499              		.loc 1 619 5 is_stmt 0 view .LVU643
 2500 05fc 5AA8     		add	r0, sp, #360
 2501              	.LVL121:
 617:Lib/AI_Runtime/Npu/ll_aton/ll_sw_float.c ****                          , .nl_params = AI_ARRAY_OBJ(&hard_sigmoid_layer_params), )
ARM GAS  C:\Users\DJESSOU\AppData\Local\Temp\ccdFeyMS.s 			page 64


 2502              		.loc 1 617 5 view .LVU644
 2503 05fe CDE95F32 		strd	r3, r2, [sp, #380]
 2504 0602 46AB     		add	r3, sp, #280
 2505 0604 6193     		str	r3, [sp, #388]
 619:Lib/AI_Runtime/Npu/ll_aton/ll_sw_float.c ****   }
 2506              		.loc 1 619 5 is_stmt 1 view .LVU645
 2507 0606 FFF7FEFF 		bl	forward_hard_sigmoid
 2508              	.LVL122:
 2509              	.LBE41:
 621:Lib/AI_Runtime/Npu/ll_aton/ll_sw_float.c ****   case LL_SW_SWISH:
 2510              		.loc 1 621 3 view .LVU646
 2511 060a C7E5     		b	.L31
 2512              	.LVL123:
 2513              	.L41:
 2514              	.LBB42:
 624:Lib/AI_Runtime/Npu/ll_aton/ll_sw_float.c ****                          .nl_params = NULL, )
 2515              		.loc 1 624 5 view .LVU647
 2516 060c 3C49     		ldr	r1, .L75
 626:Lib/AI_Runtime/Npu/ll_aton/ll_sw_float.c ****   }
 2517              		.loc 1 626 5 is_stmt 0 view .LVU648
 2518 060e 5AA8     		add	r0, sp, #360
 2519              	.LVL124:
 624:Lib/AI_Runtime/Npu/ll_aton/ll_sw_float.c ****                          .nl_params = NULL, )
 2520              		.loc 1 624 5 view .LVU649
 2521 0610 CDE95A13 		strd	r1, r3, [sp, #360]
 2522 0614 3D49     		ldr	r1, .L75+12
 2523 0616 CDE95C33 		strd	r3, r3, [sp, #368]
 2524 061a CDE95F12 		strd	r1, r2, [sp, #380]
 2525 061e 5E93     		str	r3, [sp, #376]
 2526 0620 6193     		str	r3, [sp, #388]
 626:Lib/AI_Runtime/Npu/ll_aton/ll_sw_float.c ****   }
 2527              		.loc 1 626 5 is_stmt 1 view .LVU650
 2528 0622 FFF7FEFF 		bl	forward_swish
 2529              	.LVL125:
 2530              	.LBE42:
 628:Lib/AI_Runtime/Npu/ll_aton/ll_sw_float.c ****   case LL_SW_HARDSWISH:
 2531              		.loc 1 628 3 view .LVU651
 2532 0626 B9E5     		b	.L31
 2533              	.LVL126:
 2534              	.L42:
 2535              	.LBB43:
 631:Lib/AI_Runtime/Npu/ll_aton/ll_sw_float.c ****                          .nl_params = NULL, )
 2536              		.loc 1 631 5 view .LVU652
 2537 0628 3549     		ldr	r1, .L75
 633:Lib/AI_Runtime/Npu/ll_aton/ll_sw_float.c ****   }
 2538              		.loc 1 633 5 is_stmt 0 view .LVU653
 2539 062a 5AA8     		add	r0, sp, #360
 2540              	.LVL127:
 631:Lib/AI_Runtime/Npu/ll_aton/ll_sw_float.c ****                          .nl_params = NULL, )
 2541              		.loc 1 631 5 view .LVU654
 2542 062c CDE95A13 		strd	r1, r3, [sp, #360]
 2543 0630 3749     		ldr	r1, .L75+16
 2544 0632 CDE95C33 		strd	r3, r3, [sp, #368]
 2545 0636 CDE95F12 		strd	r1, r2, [sp, #380]
 2546 063a 5E93     		str	r3, [sp, #376]
 2547 063c 6193     		str	r3, [sp, #388]
 633:Lib/AI_Runtime/Npu/ll_aton/ll_sw_float.c ****   }
ARM GAS  C:\Users\DJESSOU\AppData\Local\Temp\ccdFeyMS.s 			page 65


 2548              		.loc 1 633 5 is_stmt 1 view .LVU655
 2549 063e FFF7FEFF 		bl	forward_hard_swish
 2550              	.LVL128:
 2551              	.LBE43:
 635:Lib/AI_Runtime/Npu/ll_aton/ll_sw_float.c ****   case LL_SW_HARDMAX:
 2552              		.loc 1 635 3 view .LVU656
 2553 0642 ABE5     		b	.L31
 2554              	.LVL129:
 2555              	.L43:
 2556              	.LBB44:
 638:Lib/AI_Runtime/Npu/ll_aton/ll_sw_float.c ****                          .nl_params = NULL, )
 2557              		.loc 1 638 5 view .LVU657
 2558 0644 2E49     		ldr	r1, .L75
 640:Lib/AI_Runtime/Npu/ll_aton/ll_sw_float.c ****   }
 2559              		.loc 1 640 5 is_stmt 0 view .LVU658
 2560 0646 5AA8     		add	r0, sp, #360
 2561              	.LVL130:
 638:Lib/AI_Runtime/Npu/ll_aton/ll_sw_float.c ****                          .nl_params = NULL, )
 2562              		.loc 1 638 5 view .LVU659
 2563 0648 CDE95A13 		strd	r1, r3, [sp, #360]
 2564 064c 3149     		ldr	r1, .L75+20
 2565 064e CDE95C33 		strd	r3, r3, [sp, #368]
 2566 0652 CDE95F12 		strd	r1, r2, [sp, #380]
 2567 0656 5E93     		str	r3, [sp, #376]
 2568 0658 6193     		str	r3, [sp, #388]
 640:Lib/AI_Runtime/Npu/ll_aton/ll_sw_float.c ****   }
 2569              		.loc 1 640 5 is_stmt 1 view .LVU660
 2570 065a FFF7FEFF 		bl	forward_hardmax
 2571              	.LVL131:
 2572              	.LBE44:
 642:Lib/AI_Runtime/Npu/ll_aton/ll_sw_float.c ****   case LL_SW_ABS:
 2573              		.loc 1 642 3 view .LVU661
 2574 065e 9DE5     		b	.L31
 2575              	.LVL132:
 2576              	.L40:
 2577              	.LBB45:
 645:Lib/AI_Runtime/Npu/ll_aton/ll_sw_float.c ****                          .nl_params = NULL, )
 2578              		.loc 1 645 5 view .LVU662
 2579 0660 2749     		ldr	r1, .L75
 647:Lib/AI_Runtime/Npu/ll_aton/ll_sw_float.c ****   }
 2580              		.loc 1 647 5 is_stmt 0 view .LVU663
 2581 0662 5AA8     		add	r0, sp, #360
 2582              	.LVL133:
 645:Lib/AI_Runtime/Npu/ll_aton/ll_sw_float.c ****                          .nl_params = NULL, )
 2583              		.loc 1 645 5 view .LVU664
 2584 0664 CDE95A13 		strd	r1, r3, [sp, #360]
 2585 0668 2B49     		ldr	r1, .L75+24
 2586 066a CDE95C33 		strd	r3, r3, [sp, #368]
 2587 066e CDE95F12 		strd	r1, r2, [sp, #380]
 2588 0672 5E93     		str	r3, [sp, #376]
 2589 0674 6193     		str	r3, [sp, #388]
 647:Lib/AI_Runtime/Npu/ll_aton/ll_sw_float.c ****   }
 2590              		.loc 1 647 5 is_stmt 1 view .LVU665
 2591 0676 FFF7FEFF 		bl	forward_abs
 2592              	.LVL134:
 2593              	.LBE45:
 649:Lib/AI_Runtime/Npu/ll_aton/ll_sw_float.c ****   case LL_SW_NEG:
ARM GAS  C:\Users\DJESSOU\AppData\Local\Temp\ccdFeyMS.s 			page 66


 2594              		.loc 1 649 3 view .LVU666
 2595 067a 8FE5     		b	.L31
 2596              	.LVL135:
 2597              	.L37:
 2598              	.LBB46:
 652:Lib/AI_Runtime/Npu/ll_aton/ll_sw_float.c ****                          .nl_params = NULL, )
 2599              		.loc 1 652 5 view .LVU667
 2600 067c 2049     		ldr	r1, .L75
 654:Lib/AI_Runtime/Npu/ll_aton/ll_sw_float.c ****   }
 2601              		.loc 1 654 5 is_stmt 0 view .LVU668
 2602 067e 5AA8     		add	r0, sp, #360
 2603              	.LVL136:
 652:Lib/AI_Runtime/Npu/ll_aton/ll_sw_float.c ****                          .nl_params = NULL, )
 2604              		.loc 1 652 5 view .LVU669
 2605 0680 CDE95A13 		strd	r1, r3, [sp, #360]
 2606 0684 2549     		ldr	r1, .L75+28
 2607 0686 CDE95C33 		strd	r3, r3, [sp, #368]
 2608 068a CDE95F12 		strd	r1, r2, [sp, #380]
 2609 068e 5E93     		str	r3, [sp, #376]
 2610 0690 6193     		str	r3, [sp, #388]
 654:Lib/AI_Runtime/Npu/ll_aton/ll_sw_float.c ****   }
 2611              		.loc 1 654 5 is_stmt 1 view .LVU670
 2612 0692 FFF7FEFF 		bl	forward_neg
 2613              	.LVL137:
 2614              	.LBE46:
 656:Lib/AI_Runtime/Npu/ll_aton/ll_sw_float.c ****   case LL_SW_RECIPROCAL:
 2615              		.loc 1 656 3 view .LVU671
 2616 0696 81E5     		b	.L31
 2617              	.LVL138:
 2618              	.L36:
 2619              	.LBB47:
 659:Lib/AI_Runtime/Npu/ll_aton/ll_sw_float.c ****                          .nl_params = NULL, )
 2620              		.loc 1 659 5 view .LVU672
 2621 0698 1949     		ldr	r1, .L75
 661:Lib/AI_Runtime/Npu/ll_aton/ll_sw_float.c ****   }
 2622              		.loc 1 661 5 is_stmt 0 view .LVU673
 2623 069a 5AA8     		add	r0, sp, #360
 2624              	.LVL139:
 659:Lib/AI_Runtime/Npu/ll_aton/ll_sw_float.c ****                          .nl_params = NULL, )
 2625              		.loc 1 659 5 view .LVU674
 2626 069c CDE95A13 		strd	r1, r3, [sp, #360]
 2627 06a0 1F49     		ldr	r1, .L75+32
 2628 06a2 CDE95C33 		strd	r3, r3, [sp, #368]
 2629 06a6 CDE95F12 		strd	r1, r2, [sp, #380]
 2630 06aa 5E93     		str	r3, [sp, #376]
 2631 06ac 6193     		str	r3, [sp, #388]
 661:Lib/AI_Runtime/Npu/ll_aton/ll_sw_float.c ****   }
 2632              		.loc 1 661 5 is_stmt 1 view .LVU675
 2633 06ae FFF7FEFF 		bl	forward_reciprocal
 2634              	.LVL140:
 2635              	.LBE47:
 663:Lib/AI_Runtime/Npu/ll_aton/ll_sw_float.c ****   case LL_SW_ROUND:
 2636              		.loc 1 663 3 view .LVU676
 2637 06b2 73E5     		b	.L31
 2638              	.LVL141:
 2639              	.L35:
 2640              	.LBB48:
ARM GAS  C:\Users\DJESSOU\AppData\Local\Temp\ccdFeyMS.s 			page 67


 666:Lib/AI_Runtime/Npu/ll_aton/ll_sw_float.c ****                          .nl_params = NULL, )
 2641              		.loc 1 666 5 view .LVU677
 2642 06b4 1249     		ldr	r1, .L75
 668:Lib/AI_Runtime/Npu/ll_aton/ll_sw_float.c ****   }
 2643              		.loc 1 668 5 is_stmt 0 view .LVU678
 2644 06b6 5AA8     		add	r0, sp, #360
 2645              	.LVL142:
 666:Lib/AI_Runtime/Npu/ll_aton/ll_sw_float.c ****                          .nl_params = NULL, )
 2646              		.loc 1 666 5 view .LVU679
 2647 06b8 CDE95A13 		strd	r1, r3, [sp, #360]
 2648 06bc 1949     		ldr	r1, .L75+36
 2649 06be CDE95C33 		strd	r3, r3, [sp, #368]
 2650 06c2 CDE95F12 		strd	r1, r2, [sp, #380]
 2651 06c6 5E93     		str	r3, [sp, #376]
 2652 06c8 6193     		str	r3, [sp, #388]
 668:Lib/AI_Runtime/Npu/ll_aton/ll_sw_float.c ****   }
 2653              		.loc 1 668 5 is_stmt 1 view .LVU680
 2654 06ca FFF7FEFF 		bl	forward_round
 2655              	.LVL143:
 2656              	.LBE48:
 670:Lib/AI_Runtime/Npu/ll_aton/ll_sw_float.c ****   case LL_SW_GELU:
 2657              		.loc 1 670 3 view .LVU681
 2658 06ce 65E5     		b	.L31
 2659              	.LVL144:
 2660              	.L33:
 2661              	.LBB49:
 673:Lib/AI_Runtime/Npu/ll_aton/ll_sw_float.c ****     AI_LAYER_OBJ_DECLARE(nonlinearity_layer, 2, NL_TYPE, 0x0, NULL, nl, forward_gelu, &activ_chain,
 2662              		.loc 1 673 5 view .LVU682
 2663 06d0 154B     		ldr	r3, .L75+40
 2664 06d2 3FA9     		add	r1, sp, #252
 2665 06d4 CDE94634 		strd	r3, r4, [sp, #280]
 2666 06d8 0023     		movs	r3, #0
 2667 06da CDE94813 		strd	r1, r3, [sp, #288]
 674:Lib/AI_Runtime/Npu/ll_aton/ll_sw_float.c ****                          .nl_params = AI_ARRAY_OBJ(&gelu_no_approximate_layer_params), )
 2668              		.loc 1 674 5 view .LVU683
 2669 06de 0849     		ldr	r1, .L75
 2670 06e0 CDE95C33 		strd	r3, r3, [sp, #368]
 2671 06e4 CDE95A13 		strd	r1, r3, [sp, #360]
 673:Lib/AI_Runtime/Npu/ll_aton/ll_sw_float.c ****     AI_LAYER_OBJ_DECLARE(nonlinearity_layer, 2, NL_TYPE, 0x0, NULL, nl, forward_gelu, &activ_chain,
 2672              		.loc 1 673 5 is_stmt 0 view .LVU684
 2673 06e8 8DF8FC30 		strb	r3, [sp, #252]
 674:Lib/AI_Runtime/Npu/ll_aton/ll_sw_float.c ****                          .nl_params = AI_ARRAY_OBJ(&gelu_no_approximate_layer_params), )
 2674              		.loc 1 674 5 view .LVU685
 2675 06ec 5E93     		str	r3, [sp, #376]
 2676 06ee 0F4B     		ldr	r3, .L75+44
 676:Lib/AI_Runtime/Npu/ll_aton/ll_sw_float.c ****   }
 2677              		.loc 1 676 5 view .LVU686
 2678 06f0 5AA8     		add	r0, sp, #360
 2679              	.LVL145:
 674:Lib/AI_Runtime/Npu/ll_aton/ll_sw_float.c ****                          .nl_params = AI_ARRAY_OBJ(&gelu_no_approximate_layer_params), )
 2680              		.loc 1 674 5 view .LVU687
 2681 06f2 CDE95F32 		strd	r3, r2, [sp, #380]
 2682 06f6 46AB     		add	r3, sp, #280
 2683 06f8 6193     		str	r3, [sp, #388]
 676:Lib/AI_Runtime/Npu/ll_aton/ll_sw_float.c ****   }
 2684              		.loc 1 676 5 is_stmt 1 view .LVU688
 2685 06fa FFF7FEFF 		bl	forward_gelu
ARM GAS  C:\Users\DJESSOU\AppData\Local\Temp\ccdFeyMS.s 			page 68


 2686              	.LVL146:
 2687              	.LBE49:
 678:Lib/AI_Runtime/Npu/ll_aton/ll_sw_float.c ****   default:
 2688              		.loc 1 678 3 view .LVU689
 2689              		.loc 1 685 1 is_stmt 0 view .LVU690
 2690 06fe 4DE5     		b	.L31
 2691              	.L76:
 2692              		.align	2
 2693              	.L75:
 2694 0700 07010200 		.word	131335
 2695 0704 00000000 		.word	forward_soft_sign
 2696 0708 00000000 		.word	forward_hard_sigmoid
 2697 070c 00000000 		.word	forward_swish
 2698 0710 00000000 		.word	forward_hard_swish
 2699 0714 00000000 		.word	forward_hardmax
 2700 0718 00000000 		.word	forward_abs
 2701 071c 00000000 		.word	forward_neg
 2702 0720 00000000 		.word	forward_reciprocal
 2703 0724 00000000 		.word	forward_round
 2704 0728 40040600 		.word	394304
 2705 072c 00000000 		.word	forward_gelu
 2706              		.cfi_endproc
 2707              	.LFE20:
 2709              		.section	.text.ll_sw_forward_arith,"ax",%progbits
 2710              		.align	1
 2711              		.global	ll_sw_forward_arith
 2712              		.syntax unified
 2713              		.thumb
 2714              		.thumb_func
 2716              	ll_sw_forward_arith:
 2717              	.LVL147:
 2718              	.LFB21:
 686:Lib/AI_Runtime/Npu/ll_aton/ll_sw_float.c **** 
 687:Lib/AI_Runtime/Npu/ll_aton/ll_sw_float.c **** //##########################################################################################
 688:Lib/AI_Runtime/Npu/ll_aton/ll_sw_float.c **** /** activ forward function  */
 689:Lib/AI_Runtime/Npu/ll_aton/ll_sw_float.c **** void ll_sw_forward_arith(/* int processor, */ void *sw_info_struct)
 690:Lib/AI_Runtime/Npu/ll_aton/ll_sw_float.c **** {
 2719              		.loc 1 690 1 is_stmt 1 view -0
 2720              		.cfi_startproc
 2721              		@ args = 0, pretend = 0, frame = 504
 2722              		@ frame_needed = 0, uses_anonymous_args = 0
 691:Lib/AI_Runtime/Npu/ll_aton/ll_sw_float.c ****   Arith_sw_info *sw_info = (Arith_sw_info *)sw_info_struct;
 2723              		.loc 1 691 3 view .LVU692
 692:Lib/AI_Runtime/Npu/ll_aton/ll_sw_float.c ****   // array init
 693:Lib/AI_Runtime/Npu/ll_aton/ll_sw_float.c ****   AI_ARRAY_OBJ_DECLARE(input_output_array, FORMAT, sw_info->general.input.mem.start_offset,
 2724              		.loc 1 693 3 view .LVU693
 690:Lib/AI_Runtime/Npu/ll_aton/ll_sw_float.c ****   Arith_sw_info *sw_info = (Arith_sw_info *)sw_info_struct;
 2725              		.loc 1 690 1 is_stmt 0 view .LVU694
 2726 0000 2DE9F04F 		push	{r4, r5, r6, r7, r8, r9, r10, fp, lr}
 2727              		.cfi_def_cfa_offset 36
 2728              		.cfi_offset 4, -36
 2729              		.cfi_offset 5, -32
 2730              		.cfi_offset 6, -28
 2731              		.cfi_offset 7, -24
 2732              		.cfi_offset 8, -20
 2733              		.cfi_offset 9, -16
 2734              		.cfi_offset 10, -12
ARM GAS  C:\Users\DJESSOU\AppData\Local\Temp\ccdFeyMS.s 			page 69


 2735              		.cfi_offset 11, -8
 2736              		.cfi_offset 14, -4
 2737              		.loc 1 693 3 view .LVU695
 2738 0004 4369     		ldr	r3, [r0, #20]
 690:Lib/AI_Runtime/Npu/ll_aton/ll_sw_float.c ****   Arith_sw_info *sw_info = (Arith_sw_info *)sw_info_struct;
 2739              		.loc 1 690 1 view .LVU696
 2740 0006 FFB0     		sub	sp, sp, #508
 2741              		.cfi_def_cfa_offset 544
 2742              		.loc 1 693 3 view .LVU697
 2743 0008 0793     		str	r3, [sp, #28]
 2744 000a 836A     		ldr	r3, [r0, #40]
 694:Lib/AI_Runtime/Npu/ll_aton/ll_sw_float.c ****                        sw_info->general.input.mem.start_offset, sw_info->general.input.dim.num_elem
 695:Lib/AI_Runtime/Npu/ll_aton/ll_sw_float.c ****   AI_ARRAY_OBJ_DECLARE(arith_output_array, FORMAT, sw_info->general.output.mem.start_offset,
 696:Lib/AI_Runtime/Npu/ll_aton/ll_sw_float.c ****                        sw_info->general.output.mem.start_offset, sw_info->general.output.dim.num_el
 697:Lib/AI_Runtime/Npu/ll_aton/ll_sw_float.c ****   AI_ARRAY_OBJ_DECLARE(arith_operand_array, FORMAT, sw_info->operand.mem.start_offset,
 698:Lib/AI_Runtime/Npu/ll_aton/ll_sw_float.c ****                        sw_info->operand.mem.start_offset, sw_info->operand.dim.num_elem, )
 699:Lib/AI_Runtime/Npu/ll_aton/ll_sw_float.c ****   AI_TENSOR_OBJ_DECLARE(input_output, , 0x0, 4,
 2745              		.loc 1 699 3 view .LVU698
 2746 000c 40F20144 		movw	r4, #1025
 693:Lib/AI_Runtime/Npu/ll_aton/ll_sw_float.c ****                        sw_info->general.input.mem.start_offset, sw_info->general.input.dim.num_elem
 2747              		.loc 1 693 3 view .LVU699
 2748 0010 CDE90833 		strd	r3, r3, [sp, #32]
 695:Lib/AI_Runtime/Npu/ll_aton/ll_sw_float.c ****                        sw_info->general.output.mem.start_offset, sw_info->general.output.dim.num_el
 2749              		.loc 1 695 3 is_stmt 1 view .LVU700
 2750 0014 036C     		ldr	r3, [r0, #64]
 2751              		.loc 1 699 3 is_stmt 0 view .LVU701
 2752 0016 4FF08276 		mov	r6, #17039360
 695:Lib/AI_Runtime/Npu/ll_aton/ll_sw_float.c ****                        sw_info->general.output.mem.start_offset, sw_info->general.output.dim.num_el
 2753              		.loc 1 695 3 view .LVU702
 2754 001a 0B93     		str	r3, [sp, #44]
 2755 001c 436D     		ldr	r3, [r0, #84]
 2756              		.loc 1 699 3 view .LVU703
 2757 001e 0569     		ldr	r5, [r0, #16]
 695:Lib/AI_Runtime/Npu/ll_aton/ll_sw_float.c ****                        sw_info->general.output.mem.start_offset, sw_info->general.output.dim.num_el
 2758              		.loc 1 695 3 view .LVU704
 2759 0020 CDE90C33 		strd	r3, r3, [sp, #48]
 697:Lib/AI_Runtime/Npu/ll_aton/ll_sw_float.c ****                        sw_info->operand.mem.start_offset, sw_info->operand.dim.num_elem, )
 2760              		.loc 1 697 3 is_stmt 1 view .LVU705
 2761 0024 C36E     		ldr	r3, [r0, #108]
 2762              		.loc 1 699 3 is_stmt 0 view .LVU706
 2763 0026 1295     		str	r5, [sp, #72]
 697:Lib/AI_Runtime/Npu/ll_aton/ll_sw_float.c ****                        sw_info->operand.mem.start_offset, sw_info->operand.dim.num_elem, )
 2764              		.loc 1 697 3 view .LVU707
 2765 0028 0F93     		str	r3, [sp, #60]
 2766 002a D0F88030 		ldr	r3, [r0, #128]
 2767              		.loc 1 699 3 view .LVU708
 2768 002e C568     		ldr	r5, [r0, #12]
 697:Lib/AI_Runtime/Npu/ll_aton/ll_sw_float.c ****                        sw_info->operand.mem.start_offset, sw_info->operand.dim.num_elem, )
 2769              		.loc 1 697 3 view .LVU709
 2770 0030 CDE91033 		strd	r3, r3, [sp, #64]
 2771              		.loc 1 699 3 is_stmt 1 view .LVU710
 2772 0034 0023     		movs	r3, #0
 2773 0036 1395     		str	r5, [sp, #76]
 2774 0038 8568     		ldr	r5, [r0, #8]
 693:Lib/AI_Runtime/Npu/ll_aton/ll_sw_float.c ****                        sw_info->general.input.mem.start_offset, sw_info->general.input.dim.num_elem
 2775              		.loc 1 693 3 is_stmt 0 view .LVU711
 2776 003a 954F     		ldr	r7, .L86
ARM GAS  C:\Users\DJESSOU\AppData\Local\Temp\ccdFeyMS.s 			page 70


 2777              		.loc 1 699 3 view .LVU712
 2778 003c 1495     		str	r5, [sp, #80]
 2779 003e 4568     		ldr	r5, [r0, #4]
 2780 0040 4894     		str	r4, [sp, #288]
 2781 0042 12AC     		add	r4, sp, #72
 2782 0044 1595     		str	r5, [sp, #84]
 2783 0046 CDE94636 		strd	r3, r6, [sp, #280]
 693:Lib/AI_Runtime/Npu/ll_aton/ll_sw_float.c ****                        sw_info->general.input.mem.start_offset, sw_info->general.input.dim.num_elem
 2784              		.loc 1 693 3 view .LVU713
 2785 004a 0697     		str	r7, [sp, #24]
 695:Lib/AI_Runtime/Npu/ll_aton/ll_sw_float.c ****                        sw_info->general.output.mem.start_offset, sw_info->general.output.dim.num_el
 2786              		.loc 1 695 3 view .LVU714
 2787 004c 0A97     		str	r7, [sp, #40]
 697:Lib/AI_Runtime/Npu/ll_aton/ll_sw_float.c ****                        sw_info->operand.mem.start_offset, sw_info->operand.dim.num_elem, )
 2788              		.loc 1 697 3 view .LVU715
 2789 004e 0E97     		str	r7, [sp, #56]
 2790              		.loc 1 699 3 view .LVU716
 2791 0050 4994     		str	r4, [sp, #292]
 2792 0052 456A     		ldr	r5, [r0, #36]
 2793 0054 40F20244 		movw	r4, #1026
 2794 0058 1695     		str	r5, [sp, #88]
 2795 005a 056A     		ldr	r5, [r0, #32]
 693:Lib/AI_Runtime/Npu/ll_aton/ll_sw_float.c ****                        sw_info->general.input.mem.start_offset, sw_info->general.input.dim.num_elem
 2796              		.loc 1 693 3 view .LVU717
 2797 005c 0DF1180E 		add	lr, sp, #24
 2798              		.loc 1 699 3 view .LVU718
 2799 0060 1795     		str	r5, [sp, #92]
 2800 0062 C569     		ldr	r5, [r0, #28]
 2801 0064 0DF15808 		add	r8, sp, #88
 2802 0068 1895     		str	r5, [sp, #96]
 2803 006a 8569     		ldr	r5, [r0, #24]
 2804 006c CDE94B8E 		strd	r8, lr, [sp, #300]
 700:Lib/AI_Runtime/Npu/ll_aton/ll_sw_float.c ****                         SHAPE_INIT(sw_info->general.input.dim.tensor_h, sw_info->general.input.dim.
 701:Lib/AI_Runtime/Npu/ll_aton/ll_sw_float.c ****                                    sw_info->general.input.dim.tensor_c, sw_info->general.input.dim.
 702:Lib/AI_Runtime/Npu/ll_aton/ll_sw_float.c ****                         STRIDE_INIT(sw_info->general.input.stride.h, sw_info->general.input.stride.
 703:Lib/AI_Runtime/Npu/ll_aton/ll_sw_float.c ****                                     sw_info->general.input.stride.c, sw_info->general.input.stride.
 704:Lib/AI_Runtime/Npu/ll_aton/ll_sw_float.c ****                         1, &input_output_array, NULL)
 705:Lib/AI_Runtime/Npu/ll_aton/ll_sw_float.c ****   AI_TENSOR_OBJ_DECLARE(arith_operand, , 0x0, 4,
 2805              		.loc 1 705 3 is_stmt 1 view .LVU719
 699:Lib/AI_Runtime/Npu/ll_aton/ll_sw_float.c ****                         SHAPE_INIT(sw_info->general.input.dim.tensor_h, sw_info->general.input.dim.
 2806              		.loc 1 699 3 is_stmt 0 view .LVU720
 2807 0070 1995     		str	r5, [sp, #100]
 2808              		.loc 1 705 3 view .LVU721
 2809 0072 40F20145 		movw	r5, #1025
 2810 0076 4F95     		str	r5, [sp, #316]
 2811 0078 856E     		ldr	r5, [r0, #104]
 2812 007a 0DF1680E 		add	lr, sp, #104
 2813 007e 1A95     		str	r5, [sp, #104]
 2814 0080 456E     		ldr	r5, [r0, #100]
 2815 0082 CDE950E4 		strd	lr, r4, [sp, #320]
 2816 0086 1B95     		str	r5, [sp, #108]
 2817 0088 056E     		ldr	r5, [r0, #96]
 697:Lib/AI_Runtime/Npu/ll_aton/ll_sw_float.c ****                        sw_info->operand.mem.start_offset, sw_info->operand.dim.num_elem, )
 2818              		.loc 1 697 3 view .LVU722
 2819 008a 0EA9     		add	r1, sp, #56
 2820              		.loc 1 705 3 view .LVU723
 2821 008c 1C95     		str	r5, [sp, #112]
ARM GAS  C:\Users\DJESSOU\AppData\Local\Temp\ccdFeyMS.s 			page 71


 2822 008e C56D     		ldr	r5, [r0, #92]
 2823 0090 0DF1780E 		add	lr, sp, #120
 2824 0094 1D95     		str	r5, [sp, #116]
 2825 0096 C56F     		ldr	r5, [r0, #124]
 2826 0098 CDE94D36 		strd	r3, r6, [sp, #308]
 2827 009c 1E95     		str	r5, [sp, #120]
 2828 009e 856F     		ldr	r5, [r0, #120]
 699:Lib/AI_Runtime/Npu/ll_aton/ll_sw_float.c ****                         SHAPE_INIT(sw_info->general.input.dim.tensor_h, sw_info->general.input.dim.
 2829              		.loc 1 699 3 view .LVU724
 2830 00a0 4A94     		str	r4, [sp, #296]
 2831              		.loc 1 705 3 view .LVU725
 2832 00a2 1F95     		str	r5, [sp, #124]
 2833 00a4 456F     		ldr	r5, [r0, #116]
 695:Lib/AI_Runtime/Npu/ll_aton/ll_sw_float.c ****                        sw_info->general.output.mem.start_offset, sw_info->general.output.dim.num_el
 2834              		.loc 1 695 3 view .LVU726
 2835 00a6 0AAA     		add	r2, sp, #40
 2836              		.loc 1 705 3 view .LVU727
 2837 00a8 2095     		str	r5, [sp, #128]
 2838 00aa 056F     		ldr	r5, [r0, #112]
 2839 00ac 0DF58C7B 		add	fp, sp, #280
 2840 00b0 2195     		str	r5, [sp, #132]
 2841 00b2 CDE952E1 		strd	lr, r1, [sp, #328]
 706:Lib/AI_Runtime/Npu/ll_aton/ll_sw_float.c ****                         SHAPE_INIT(sw_info->operand.dim.tensor_h, sw_info->operand.dim.tensor_w,
 707:Lib/AI_Runtime/Npu/ll_aton/ll_sw_float.c ****                                    sw_info->operand.dim.tensor_c, sw_info->operand.dim.tensor_b),
 708:Lib/AI_Runtime/Npu/ll_aton/ll_sw_float.c ****                         STRIDE_INIT(sw_info->operand.stride.h, sw_info->operand.stride.w, sw_info->
 709:Lib/AI_Runtime/Npu/ll_aton/ll_sw_float.c ****                                     sw_info->operand.stride.b),
 710:Lib/AI_Runtime/Npu/ll_aton/ll_sw_float.c ****                         1, &arith_operand_array, NULL)
 711:Lib/AI_Runtime/Npu/ll_aton/ll_sw_float.c ****   AI_TENSOR_OBJ_DECLARE(arith_output, , 0x0, 4,
 2842              		.loc 1 711 3 is_stmt 1 view .LVU728
 2843 00b6 40F20141 		movw	r1, #1025
 2844 00ba C56B     		ldr	r5, [r0, #60]
 712:Lib/AI_Runtime/Npu/ll_aton/ll_sw_float.c ****                         SHAPE_INIT(sw_info->general.output.dim.tensor_h, sw_info->general.output.di
 713:Lib/AI_Runtime/Npu/ll_aton/ll_sw_float.c ****                                    sw_info->general.output.dim.tensor_c, sw_info->general.output.di
 714:Lib/AI_Runtime/Npu/ll_aton/ll_sw_float.c ****                         STRIDE_INIT(sw_info->general.output.stride.h, sw_info->general.output.strid
 715:Lib/AI_Runtime/Npu/ll_aton/ll_sw_float.c ****                                     sw_info->general.output.stride.c, sw_info->general.output.strid
 716:Lib/AI_Runtime/Npu/ll_aton/ll_sw_float.c ****                         1, &arith_output_array, NULL)
 717:Lib/AI_Runtime/Npu/ll_aton/ll_sw_float.c **** 
 718:Lib/AI_Runtime/Npu/ll_aton/ll_sw_float.c ****   // layer initialization
 719:Lib/AI_Runtime/Npu/ll_aton/ll_sw_float.c ****   func_binary op = ai_sum;                      /**< operation to apply elementwise */
 720:Lib/AI_Runtime/Npu/ll_aton/ll_sw_float.c ****   func_buffer_binary buffer_op = ai_sum_buffer; /**< operation to apply elementwise */
 721:Lib/AI_Runtime/Npu/ll_aton/ll_sw_float.c **** 
 722:Lib/AI_Runtime/Npu/ll_aton/ll_sw_float.c ****   switch (sw_info->general.type)
 2845              		.loc 1 722 27 is_stmt 0 view .LVU729
 2846 00bc 90F800E0 		ldrb	lr, [r0]	@ zero_extendqisi2
 711:Lib/AI_Runtime/Npu/ll_aton/ll_sw_float.c ****                         SHAPE_INIT(sw_info->general.output.dim.tensor_h, sw_info->general.output.di
 2847              		.loc 1 711 3 view .LVU730
 2848 00c0 2295     		str	r5, [sp, #136]
 2849 00c2 856B     		ldr	r5, [r0, #56]
 2850 00c4 AEF10E0C 		sub	ip, lr, #14
 2851 00c8 2395     		str	r5, [sp, #140]
 2852 00ca 456B     		ldr	r5, [r0, #52]
 2853 00cc 5691     		str	r1, [sp, #344]
 2854 00ce 2495     		str	r5, [sp, #144]
 2855 00d0 056B     		ldr	r5, [r0, #48]
 2856 00d2 22A9     		add	r1, sp, #136
 2857 00d4 2595     		str	r5, [sp, #148]
 2858 00d6 056D     		ldr	r5, [r0, #80]
ARM GAS  C:\Users\DJESSOU\AppData\Local\Temp\ccdFeyMS.s 			page 72


 2859 00d8 5FFA8CFC 		uxtb	ip, ip
 2860 00dc 2695     		str	r5, [sp, #152]
 2861 00de C56C     		ldr	r5, [r0, #76]
 2862 00e0 CDE95714 		strd	r1, r4, [sp, #348]
 2863 00e4 2795     		str	r5, [sp, #156]
 2864 00e6 856C     		ldr	r5, [r0, #72]
 2865 00e8 26A9     		add	r1, sp, #152
 2866 00ea 2895     		str	r5, [sp, #160]
 2867 00ec 456C     		ldr	r5, [r0, #68]
 2868 00ee BCF1400F 		cmp	ip, #64
 2869 00f2 CDE95912 		strd	r1, r2, [sp, #356]
 719:Lib/AI_Runtime/Npu/ll_aton/ll_sw_float.c ****   func_buffer_binary buffer_op = ai_sum_buffer; /**< operation to apply elementwise */
 2870              		.loc 1 719 3 is_stmt 1 view .LVU731
 720:Lib/AI_Runtime/Npu/ll_aton/ll_sw_float.c **** 
 2871              		.loc 1 720 3 view .LVU732
 2872              		.loc 1 722 3 view .LVU733
 711:Lib/AI_Runtime/Npu/ll_aton/ll_sw_float.c ****                         SHAPE_INIT(sw_info->general.output.dim.tensor_h, sw_info->general.output.di
 2873              		.loc 1 711 3 is_stmt 0 view .LVU734
 2874 00f6 CDE95436 		strd	r3, r6, [sp, #336]
 2875 00fa 2995     		str	r5, [sp, #164]
 2876 00fc 3AA9     		add	r1, sp, #232
 2877 00fe 3EAA     		add	r2, sp, #248
 2878 0100 0DF59A7A 		add	r10, sp, #308
 2879 0104 0DF5C479 		add	r9, sp, #392
 2880 0108 2DD8     		bhi	.L78
 2881 010a 624B     		ldr	r3, .L86+4
 2882 010c 53F82C40 		ldr	r4, [r3, ip, lsl #2]
 2883 0110 614B     		ldr	r3, .L86+8
 2884 0112 53F82C00 		ldr	r0, [r3, ip, lsl #2]
 2885              	.LVL148:
 723:Lib/AI_Runtime/Npu/ll_aton/ll_sw_float.c ****   {
 724:Lib/AI_Runtime/Npu/ll_aton/ll_sw_float.c ****   case LL_SW_ARITHADD:
 725:Lib/AI_Runtime/Npu/ll_aton/ll_sw_float.c ****   case LL_SW_ARITHSUM:
 726:Lib/AI_Runtime/Npu/ll_aton/ll_sw_float.c ****     op = ((func_binary)(ai_sum));
 727:Lib/AI_Runtime/Npu/ll_aton/ll_sw_float.c ****     buffer_op = ((func_buffer_binary)(ai_sum_buffer));
 728:Lib/AI_Runtime/Npu/ll_aton/ll_sw_float.c ****     break;
 729:Lib/AI_Runtime/Npu/ll_aton/ll_sw_float.c ****   case LL_SW_ARITHMUL:
 730:Lib/AI_Runtime/Npu/ll_aton/ll_sw_float.c ****     op = ((func_binary)(ai_mul));
 731:Lib/AI_Runtime/Npu/ll_aton/ll_sw_float.c ****     buffer_op = ((func_buffer_binary)(ai_mul_buffer));
 732:Lib/AI_Runtime/Npu/ll_aton/ll_sw_float.c ****     break;
 733:Lib/AI_Runtime/Npu/ll_aton/ll_sw_float.c ****   case LL_SW_ARITHDIV:
 734:Lib/AI_Runtime/Npu/ll_aton/ll_sw_float.c ****     op = ((func_binary)(ai_div));
 735:Lib/AI_Runtime/Npu/ll_aton/ll_sw_float.c ****     buffer_op = ((func_buffer_binary)(ai_div_buffer));
 736:Lib/AI_Runtime/Npu/ll_aton/ll_sw_float.c ****     break;
 737:Lib/AI_Runtime/Npu/ll_aton/ll_sw_float.c ****   case LL_SW_ARITHSUB:
 738:Lib/AI_Runtime/Npu/ll_aton/ll_sw_float.c ****     op = ((func_binary)(ai_sub));
 739:Lib/AI_Runtime/Npu/ll_aton/ll_sw_float.c ****     buffer_op = ((func_buffer_binary)(ai_sub_buffer));
 740:Lib/AI_Runtime/Npu/ll_aton/ll_sw_float.c ****     break;
 741:Lib/AI_Runtime/Npu/ll_aton/ll_sw_float.c ****   case LL_SW_POW:
 742:Lib/AI_Runtime/Npu/ll_aton/ll_sw_float.c ****     op = ((func_binary)(ai_pow));
 743:Lib/AI_Runtime/Npu/ll_aton/ll_sw_float.c ****     buffer_op = ((func_buffer_binary)(ai_pow_buffer));
 744:Lib/AI_Runtime/Npu/ll_aton/ll_sw_float.c ****     break;
 745:Lib/AI_Runtime/Npu/ll_aton/ll_sw_float.c ****   case LL_SW_GREATER:
 746:Lib/AI_Runtime/Npu/ll_aton/ll_sw_float.c ****     op = ((func_binary)(ai_greater));
 747:Lib/AI_Runtime/Npu/ll_aton/ll_sw_float.c ****     buffer_op = ((func_buffer_binary)(ai_greater_buffer));
 748:Lib/AI_Runtime/Npu/ll_aton/ll_sw_float.c ****     break;
 749:Lib/AI_Runtime/Npu/ll_aton/ll_sw_float.c ****   case LL_SW_GREATEROREQUAL:
ARM GAS  C:\Users\DJESSOU\AppData\Local\Temp\ccdFeyMS.s 			page 73


 750:Lib/AI_Runtime/Npu/ll_aton/ll_sw_float.c ****     op = ((func_binary)(ai_greater_or_equal));
 751:Lib/AI_Runtime/Npu/ll_aton/ll_sw_float.c ****     buffer_op = ((func_buffer_binary)(ai_greater_or_equal_buffer));
 752:Lib/AI_Runtime/Npu/ll_aton/ll_sw_float.c ****     break;
 753:Lib/AI_Runtime/Npu/ll_aton/ll_sw_float.c ****   case LL_SW_LESS:
 754:Lib/AI_Runtime/Npu/ll_aton/ll_sw_float.c ****     op = ((func_binary)(ai_less));
 755:Lib/AI_Runtime/Npu/ll_aton/ll_sw_float.c ****     buffer_op = ((func_buffer_binary)(ai_less_buffer));
 756:Lib/AI_Runtime/Npu/ll_aton/ll_sw_float.c ****     break;
 757:Lib/AI_Runtime/Npu/ll_aton/ll_sw_float.c ****   case LL_SW_EQUAL:
 758:Lib/AI_Runtime/Npu/ll_aton/ll_sw_float.c ****     op = ((func_binary)(ai_equal));
 759:Lib/AI_Runtime/Npu/ll_aton/ll_sw_float.c ****     buffer_op = ((func_buffer_binary)(ai_equal_buffer));
 760:Lib/AI_Runtime/Npu/ll_aton/ll_sw_float.c ****     break;
 761:Lib/AI_Runtime/Npu/ll_aton/ll_sw_float.c ****   case LL_SW_LESSOREQUAL:
 762:Lib/AI_Runtime/Npu/ll_aton/ll_sw_float.c ****     op = ((func_binary)(ai_less_or_equal));
 763:Lib/AI_Runtime/Npu/ll_aton/ll_sw_float.c ****     buffer_op = ((func_buffer_binary)(ai_less_or_equal_buffer));
 764:Lib/AI_Runtime/Npu/ll_aton/ll_sw_float.c ****     break;
 765:Lib/AI_Runtime/Npu/ll_aton/ll_sw_float.c ****   case LL_SW_MIN:
 766:Lib/AI_Runtime/Npu/ll_aton/ll_sw_float.c ****     op = ((func_binary)(ai_min));
 767:Lib/AI_Runtime/Npu/ll_aton/ll_sw_float.c ****     buffer_op = ((func_buffer_binary)(ai_min_buffer));
 768:Lib/AI_Runtime/Npu/ll_aton/ll_sw_float.c ****     break;
 769:Lib/AI_Runtime/Npu/ll_aton/ll_sw_float.c ****   case LL_SW_MAX:
 770:Lib/AI_Runtime/Npu/ll_aton/ll_sw_float.c ****     op = ((func_binary)(ai_max));
 771:Lib/AI_Runtime/Npu/ll_aton/ll_sw_float.c ****     buffer_op = ((func_buffer_binary)(ai_max_buffer));
 772:Lib/AI_Runtime/Npu/ll_aton/ll_sw_float.c ****     break;
 773:Lib/AI_Runtime/Npu/ll_aton/ll_sw_float.c ****   case LL_SW_MOD:
 774:Lib/AI_Runtime/Npu/ll_aton/ll_sw_float.c ****     op = ((func_binary)(ai_floor_mod));
 775:Lib/AI_Runtime/Npu/ll_aton/ll_sw_float.c ****     buffer_op = ((func_buffer_binary)(ai_floor_mod_buffer));
 776:Lib/AI_Runtime/Npu/ll_aton/ll_sw_float.c ****     break;
 777:Lib/AI_Runtime/Npu/ll_aton/ll_sw_float.c ****   default:
 778:Lib/AI_Runtime/Npu/ll_aton/ll_sw_float.c **** #ifdef LL_SW_ENABLE_ASSERTS
 779:Lib/AI_Runtime/Npu/ll_aton/ll_sw_float.c ****     LL_ATON_ASSERT(0 && "ELEMENT WISE OPERATION NOT SUPPORTED");
 780:Lib/AI_Runtime/Npu/ll_aton/ll_sw_float.c **** #endif
 781:Lib/AI_Runtime/Npu/ll_aton/ll_sw_float.c ****     break;
 782:Lib/AI_Runtime/Npu/ll_aton/ll_sw_float.c ****   }
 783:Lib/AI_Runtime/Npu/ll_aton/ll_sw_float.c **** 
 784:Lib/AI_Runtime/Npu/ll_aton/ll_sw_float.c ****   if (sw_info->general.type == LL_SW_ARITHSUM && sw_info->num_of_inputs == 4)
 2886              		.loc 1 784 3 is_stmt 1 view .LVU735
 785:Lib/AI_Runtime/Npu/ll_aton/ll_sw_float.c ****   {
 786:Lib/AI_Runtime/Npu/ll_aton/ll_sw_float.c ****     AI_ARRAY_OBJ_DECLARE(arith_operand_array1, FORMAT, sw_info->operand1.mem.start_offset,
 787:Lib/AI_Runtime/Npu/ll_aton/ll_sw_float.c ****                          sw_info->operand1.mem.start_offset, sw_info->operand1.dim.num_elem, );
 788:Lib/AI_Runtime/Npu/ll_aton/ll_sw_float.c ****     AI_ARRAY_OBJ_DECLARE(arith_operand_array2, FORMAT, sw_info->operand2.mem.start_offset,
 789:Lib/AI_Runtime/Npu/ll_aton/ll_sw_float.c ****                          sw_info->operand2.mem.start_offset, sw_info->operand2.dim.num_elem, );
 790:Lib/AI_Runtime/Npu/ll_aton/ll_sw_float.c ****     AI_TENSOR_OBJ_DECLARE(arith_operand1, , 0x0, 4,
 791:Lib/AI_Runtime/Npu/ll_aton/ll_sw_float.c ****                           SHAPE_INIT(sw_info->operand1.dim.tensor_h, sw_info->operand1.dim.tensor_w
 792:Lib/AI_Runtime/Npu/ll_aton/ll_sw_float.c ****                                      sw_info->operand1.dim.tensor_c, sw_info->operand1.dim.tensor_b
 793:Lib/AI_Runtime/Npu/ll_aton/ll_sw_float.c ****                           STRIDE_INIT(sw_info->operand1.stride.h, sw_info->operand1.stride.w,
 794:Lib/AI_Runtime/Npu/ll_aton/ll_sw_float.c ****                                       sw_info->operand1.stride.c, sw_info->operand1.stride.b),
 795:Lib/AI_Runtime/Npu/ll_aton/ll_sw_float.c ****                           1, &arith_operand_array1, NULL);
 796:Lib/AI_Runtime/Npu/ll_aton/ll_sw_float.c ****     AI_TENSOR_OBJ_DECLARE(arith_operand2, , 0x0, 4,
 797:Lib/AI_Runtime/Npu/ll_aton/ll_sw_float.c ****                           SHAPE_INIT(sw_info->operand2.dim.tensor_h, sw_info->operand2.dim.tensor_w
 798:Lib/AI_Runtime/Npu/ll_aton/ll_sw_float.c ****                                      sw_info->operand2.dim.tensor_c, sw_info->operand2.dim.tensor_b
 799:Lib/AI_Runtime/Npu/ll_aton/ll_sw_float.c ****                           STRIDE_INIT(sw_info->operand2.stride.h, sw_info->operand2.stride.w,
 800:Lib/AI_Runtime/Npu/ll_aton/ll_sw_float.c ****                                       sw_info->operand2.stride.c, sw_info->operand2.stride.b),
 801:Lib/AI_Runtime/Npu/ll_aton/ll_sw_float.c ****                           1, &arith_operand_array2, NULL);
 802:Lib/AI_Runtime/Npu/ll_aton/ll_sw_float.c **** 
 803:Lib/AI_Runtime/Npu/ll_aton/ll_sw_float.c ****     // LL_ATON_PRINTF("\n\n\n #################### 4 inputs\n\n\n");
 804:Lib/AI_Runtime/Npu/ll_aton/ll_sw_float.c ****     AI_TENSOR_CHAIN_OBJ_DECLARE(
 805:Lib/AI_Runtime/Npu/ll_aton/ll_sw_float.c ****         arith_chain, , 4,
ARM GAS  C:\Users\DJESSOU\AppData\Local\Temp\ccdFeyMS.s 			page 74


 806:Lib/AI_Runtime/Npu/ll_aton/ll_sw_float.c ****         AI_TENSOR_LIST_OBJ_INIT(AI_FLAG_NONE, 4,
 807:Lib/AI_Runtime/Npu/ll_aton/ll_sw_float.c ****                                 TENSORS(&input_output, &arith_operand, &arith_operand1, &arith_oper
 808:Lib/AI_Runtime/Npu/ll_aton/ll_sw_float.c ****         AI_TENSOR_LIST_OBJ_INIT(AI_FLAG_NONE, 1, TENSORS(&arith_output)), AI_TENSOR_LIST_OBJ_EMPTY,
 809:Lib/AI_Runtime/Npu/ll_aton/ll_sw_float.c ****         AI_TENSOR_LIST_OBJ_EMPTY);
 810:Lib/AI_Runtime/Npu/ll_aton/ll_sw_float.c ****     AI_LAYER_OBJ_DECLARE(eltwise_layer, 2, ELTWISE_TYPE, 0x0, NULL, eltwise, forward_eltwise, &arit
 811:Lib/AI_Runtime/Npu/ll_aton/ll_sw_float.c ****                          , .operation = op, .buffer_operation = buffer_op)
 812:Lib/AI_Runtime/Npu/ll_aton/ll_sw_float.c ****     eltwise_layer.forward(AI_LAYER_OBJ(&eltwise_layer));
 813:Lib/AI_Runtime/Npu/ll_aton/ll_sw_float.c ****   }
 814:Lib/AI_Runtime/Npu/ll_aton/ll_sw_float.c ****   else if (sw_info->general.type == LL_SW_ARITHSUM && sw_info->num_of_inputs == 3)
 2887              		.loc 1 814 8 view .LVU736
 2888              	.L79:
 2889              	.LBB50:
 815:Lib/AI_Runtime/Npu/ll_aton/ll_sw_float.c ****   {
 816:Lib/AI_Runtime/Npu/ll_aton/ll_sw_float.c ****     AI_ARRAY_OBJ_DECLARE(arith_operand_array1, FORMAT, sw_info->operand1.mem.start_offset,
 817:Lib/AI_Runtime/Npu/ll_aton/ll_sw_float.c ****                          sw_info->operand1.mem.start_offset, sw_info->operand1.dim.num_elem, );
 818:Lib/AI_Runtime/Npu/ll_aton/ll_sw_float.c ****     AI_TENSOR_OBJ_DECLARE(arith_operand1, , 0x0, 4,
 819:Lib/AI_Runtime/Npu/ll_aton/ll_sw_float.c ****                           SHAPE_INIT(sw_info->operand1.dim.tensor_h, sw_info->operand1.dim.tensor_w
 820:Lib/AI_Runtime/Npu/ll_aton/ll_sw_float.c ****                                      sw_info->operand1.dim.tensor_c, sw_info->operand1.dim.tensor_b
 821:Lib/AI_Runtime/Npu/ll_aton/ll_sw_float.c ****                           STRIDE_INIT(sw_info->operand1.stride.h, sw_info->operand1.stride.w,
 822:Lib/AI_Runtime/Npu/ll_aton/ll_sw_float.c ****                                       sw_info->operand1.stride.c, sw_info->operand1.stride.b),
 823:Lib/AI_Runtime/Npu/ll_aton/ll_sw_float.c ****                           1, &arith_operand_array1, NULL);
 824:Lib/AI_Runtime/Npu/ll_aton/ll_sw_float.c ****     // LL_ATON_PRINTF("\n\n\n #################### 3 inputs\n\n\n");
 825:Lib/AI_Runtime/Npu/ll_aton/ll_sw_float.c ****     AI_TENSOR_CHAIN_OBJ_DECLARE(
 826:Lib/AI_Runtime/Npu/ll_aton/ll_sw_float.c ****         arith_chain, , 4,
 827:Lib/AI_Runtime/Npu/ll_aton/ll_sw_float.c ****         AI_TENSOR_LIST_OBJ_INIT(AI_FLAG_NONE, 3, TENSORS(&input_output, &arith_operand, &arith_oper
 828:Lib/AI_Runtime/Npu/ll_aton/ll_sw_float.c ****         AI_TENSOR_LIST_OBJ_INIT(AI_FLAG_NONE, 1, TENSORS(&arith_output)), AI_TENSOR_LIST_OBJ_EMPTY,
 829:Lib/AI_Runtime/Npu/ll_aton/ll_sw_float.c ****         AI_TENSOR_LIST_OBJ_EMPTY);
 830:Lib/AI_Runtime/Npu/ll_aton/ll_sw_float.c ****     AI_LAYER_OBJ_DECLARE(eltwise_layer, 2, ELTWISE_TYPE, 0x0, NULL, eltwise, forward_eltwise, &arit
 831:Lib/AI_Runtime/Npu/ll_aton/ll_sw_float.c ****                          , .operation = op, .buffer_operation = buffer_op)
 832:Lib/AI_Runtime/Npu/ll_aton/ll_sw_float.c ****     eltwise_layer.forward(AI_LAYER_OBJ(&eltwise_layer));
 833:Lib/AI_Runtime/Npu/ll_aton/ll_sw_float.c ****   }
 834:Lib/AI_Runtime/Npu/ll_aton/ll_sw_float.c ****   else
 835:Lib/AI_Runtime/Npu/ll_aton/ll_sw_float.c ****   {
 836:Lib/AI_Runtime/Npu/ll_aton/ll_sw_float.c ****     // LL_ATON_PRINTF("\n\n\n #################### 2 inputs\n\n\n");
 837:Lib/AI_Runtime/Npu/ll_aton/ll_sw_float.c ****     AI_TENSOR_CHAIN_OBJ_DECLARE(arith_chain, , 4,
 2890              		.loc 1 837 5 view .LVU737
 2891 0116 0423     		movs	r3, #4
 2892 0118 5B93     		str	r3, [sp, #364]
 2893 011a 0223     		movs	r3, #2
 2894 011c 7293     		str	r3, [sp, #456]
 2895 011e 0023     		movs	r3, #0
 2896 0120 0125     		movs	r5, #1
 2897 0122 CDE97923 		strd	r2, r3, [sp, #484]
 2898 0126 1360     		str	r3, [r2]
 2899 0128 42AA     		add	r2, sp, #264
 2900 012a CDE97C23 		strd	r2, r3, [sp, #496]
 2901 012e 72AA     		add	r2, sp, #456
 2902 0130 5C92     		str	r2, [sp, #368]
 838:Lib/AI_Runtime/Npu/ll_aton/ll_sw_float.c ****                                 AI_TENSOR_LIST_OBJ_INIT(AI_FLAG_NONE, 2, TENSORS(&input_output, &ar
 839:Lib/AI_Runtime/Npu/ll_aton/ll_sw_float.c ****                                 AI_TENSOR_LIST_OBJ_INIT(AI_FLAG_NONE, 1, TENSORS(&arith_output)),
 840:Lib/AI_Runtime/Npu/ll_aton/ll_sw_float.c ****                                 AI_TENSOR_LIST_OBJ_EMPTY, AI_TENSOR_LIST_OBJ_EMPTY);
 2903              		.loc 1 840 84 view .LVU738
 841:Lib/AI_Runtime/Npu/ll_aton/ll_sw_float.c ****     AI_LAYER_OBJ_DECLARE(eltwise_layer, 2, ELTWISE_TYPE, 0x0, NULL, eltwise, forward_eltwise, &arit
 2904              		.loc 1 841 5 view .LVU739
 2905 0132 5A4A     		ldr	r2, .L86+12
 837:Lib/AI_Runtime/Npu/ll_aton/ll_sw_float.c ****                                 AI_TENSOR_LIST_OBJ_INIT(AI_FLAG_NONE, 2, TENSORS(&input_output, &ar
 2906              		.loc 1 837 5 is_stmt 0 view .LVU740
ARM GAS  C:\Users\DJESSOU\AppData\Local\Temp\ccdFeyMS.s 			page 75


 2907 0134 CDE97435 		strd	r3, r5, [sp, #464]
 2908 0138 CDE97613 		strd	r1, r3, [sp, #472]
 2909              		.loc 1 841 5 view .LVU741
 2910 013c CDE96923 		strd	r2, r3, [sp, #420]
 2911 0140 CDE96B33 		strd	r3, r3, [sp, #428]
 837:Lib/AI_Runtime/Npu/ll_aton/ll_sw_float.c ****                                 AI_TENSOR_LIST_OBJ_INIT(AI_FLAG_NONE, 2, TENSORS(&input_output, &ar
 2912              		.loc 1 837 5 view .LVU742
 2913 0144 7893     		str	r3, [sp, #480]
 2914 0146 7B93     		str	r3, [sp, #492]
 2915 0148 4293     		str	r3, [sp, #264]
 2916              		.loc 1 841 5 view .LVU743
 2917 014a 6D93     		str	r3, [sp, #436]
 2918 014c 544B     		ldr	r3, .L86+16
 837:Lib/AI_Runtime/Npu/ll_aton/ll_sw_float.c ****                                 AI_TENSOR_LIST_OBJ_INIT(AI_FLAG_NONE, 2, TENSORS(&input_output, &ar
 2919              		.loc 1 837 5 view .LVU744
 2920 014e 54AD     		add	r5, sp, #336
 2921              		.loc 1 841 5 view .LVU745
 2922 0150 6E93     		str	r3, [sp, #440]
 2923 0152 5BAB     		add	r3, sp, #364
 837:Lib/AI_Runtime/Npu/ll_aton/ll_sw_float.c ****                                 AI_TENSOR_LIST_OBJ_INIT(AI_FLAG_NONE, 2, TENSORS(&input_output, &ar
 2924              		.loc 1 837 5 view .LVU746
 2925 0154 CDE962BA 		strd	fp, r10, [sp, #392]
 2926              		.loc 1 841 5 view .LVU747
 2927 0158 CDE96F34 		strd	r3, r4, [sp, #444]
 837:Lib/AI_Runtime/Npu/ll_aton/ll_sw_float.c ****                                 AI_TENSOR_LIST_OBJ_INIT(AI_FLAG_NONE, 2, TENSORS(&input_output, &ar
 2928              		.loc 1 837 5 view .LVU748
 2929 015c CDF8CC91 		str	r9, [sp, #460]
 2930 0160 0D60     		str	r5, [r1]
 2931              		.loc 1 841 5 view .LVU749
 2932 0162 7190     		str	r0, [sp, #452]
 2933 0164 8EE0     		b	.L84
 2934              	.LVL149:
 2935              	.L78:
 2936              		.loc 1 841 5 view .LVU750
 2937              	.LBE50:
 784:Lib/AI_Runtime/Npu/ll_aton/ll_sw_float.c ****   {
 2938              		.loc 1 784 3 is_stmt 1 view .LVU751
 784:Lib/AI_Runtime/Npu/ll_aton/ll_sw_float.c ****   {
 2939              		.loc 1 784 6 is_stmt 0 view .LVU752
 2940 0166 BEF10D0F 		cmp	lr, #13
 2941 016a 40F0EC80 		bne	.L83
 784:Lib/AI_Runtime/Npu/ll_aton/ll_sw_float.c ****   {
 2942              		.loc 1 784 57 discriminator 1 view .LVU753
 2943 016e D0F8E0C0 		ldr	ip, [r0, #224]
 784:Lib/AI_Runtime/Npu/ll_aton/ll_sw_float.c ****   {
 2944              		.loc 1 784 47 discriminator 1 view .LVU754
 2945 0172 BCF1040F 		cmp	ip, #4
 2946 0176 40F09980 		bne	.L80
 2947              	.LBB51:
 786:Lib/AI_Runtime/Npu/ll_aton/ll_sw_float.c ****                          sw_info->operand1.mem.start_offset, sw_info->operand1.dim.num_elem, );
 2948              		.loc 1 786 5 is_stmt 1 view .LVU755
 2949 017a D0F89850 		ldr	r5, [r0, #152]
 2950 017e 2A97     		str	r7, [sp, #168]
 2951 0180 2B95     		str	r5, [sp, #172]
 790:Lib/AI_Runtime/Npu/ll_aton/ll_sw_float.c ****                           SHAPE_INIT(sw_info->operand1.dim.tensor_h, sw_info->operand1.dim.tensor_w
 2952              		.loc 1 790 5 is_stmt 0 view .LVU756
 2953 0182 40F20145 		movw	r5, #1025
ARM GAS  C:\Users\DJESSOU\AppData\Local\Temp\ccdFeyMS.s 			page 76


 2954 0186 5D95     		str	r5, [sp, #372]
 2955 0188 D0F89450 		ldr	r5, [r0, #148]
 788:Lib/AI_Runtime/Npu/ll_aton/ll_sw_float.c ****                          sw_info->operand2.mem.start_offset, sw_info->operand2.dim.num_elem, );
 2956              		.loc 1 788 5 view .LVU757
 2957 018c 2E97     		str	r7, [sp, #184]
 790:Lib/AI_Runtime/Npu/ll_aton/ll_sw_float.c ****                           SHAPE_INIT(sw_info->operand1.dim.tensor_h, sw_info->operand1.dim.tensor_w
 2958              		.loc 1 790 5 view .LVU758
 2959 018e 3295     		str	r5, [sp, #200]
 2960 0190 D0F89050 		ldr	r5, [r0, #144]
 788:Lib/AI_Runtime/Npu/ll_aton/ll_sw_float.c ****                          sw_info->operand2.mem.start_offset, sw_info->operand2.dim.num_elem, );
 2961              		.loc 1 788 5 view .LVU759
 2962 0194 D0F8C470 		ldr	r7, [r0, #196]
 790:Lib/AI_Runtime/Npu/ll_aton/ll_sw_float.c ****                           SHAPE_INIT(sw_info->operand1.dim.tensor_h, sw_info->operand1.dim.tensor_w
 2963              		.loc 1 790 5 view .LVU760
 2964 0198 3395     		str	r5, [sp, #204]
 2965 019a D0F88C50 		ldr	r5, [r0, #140]
 788:Lib/AI_Runtime/Npu/ll_aton/ll_sw_float.c ****                          sw_info->operand2.mem.start_offset, sw_info->operand2.dim.num_elem, );
 2966              		.loc 1 788 5 view .LVU761
 2967 019e 2F97     		str	r7, [sp, #188]
 790:Lib/AI_Runtime/Npu/ll_aton/ll_sw_float.c ****                           SHAPE_INIT(sw_info->operand1.dim.tensor_h, sw_info->operand1.dim.tensor_w
 2968              		.loc 1 790 5 view .LVU762
 2969 01a0 3495     		str	r5, [sp, #208]
 2970 01a2 D0F88850 		ldr	r5, [r0, #136]
 788:Lib/AI_Runtime/Npu/ll_aton/ll_sw_float.c ****                          sw_info->operand2.mem.start_offset, sw_info->operand2.dim.num_elem, );
 2971              		.loc 1 788 5 view .LVU763
 2972 01a6 D0F8D870 		ldr	r7, [r0, #216]
 790:Lib/AI_Runtime/Npu/ll_aton/ll_sw_float.c ****                           SHAPE_INIT(sw_info->operand1.dim.tensor_h, sw_info->operand1.dim.tensor_w
 2973              		.loc 1 790 5 view .LVU764
 2974 01aa 3595     		str	r5, [sp, #212]
 2975 01ac D0F8A850 		ldr	r5, [r0, #168]
 786:Lib/AI_Runtime/Npu/ll_aton/ll_sw_float.c ****                          sw_info->operand1.mem.start_offset, sw_info->operand1.dim.num_elem, );
 2976              		.loc 1 786 5 view .LVU765
 2977 01b0 D0F8ACE0 		ldr	lr, [r0, #172]
 790:Lib/AI_Runtime/Npu/ll_aton/ll_sw_float.c ****                           SHAPE_INIT(sw_info->operand1.dim.tensor_h, sw_info->operand1.dim.tensor_w
 2978              		.loc 1 790 5 view .LVU766
 2979 01b4 3695     		str	r5, [sp, #216]
 2980 01b6 D0F8A450 		ldr	r5, [r0, #164]
 788:Lib/AI_Runtime/Npu/ll_aton/ll_sw_float.c ****                          sw_info->operand2.mem.start_offset, sw_info->operand2.dim.num_elem, );
 2981              		.loc 1 788 5 view .LVU767
 2982 01ba CDE93077 		strd	r7, r7, [sp, #192]
 790:Lib/AI_Runtime/Npu/ll_aton/ll_sw_float.c ****                           SHAPE_INIT(sw_info->operand1.dim.tensor_h, sw_info->operand1.dim.tensor_w
 2983              		.loc 1 790 5 view .LVU768
 2984 01be 3795     		str	r5, [sp, #220]
 2985 01c0 D0F8A050 		ldr	r5, [r0, #160]
 2986 01c4 32AF     		add	r7, sp, #200
 2987 01c6 3895     		str	r5, [sp, #224]
 2988 01c8 D0F89C50 		ldr	r5, [r0, #156]
 786:Lib/AI_Runtime/Npu/ll_aton/ll_sw_float.c ****                          sw_info->operand1.mem.start_offset, sw_info->operand1.dim.num_elem, );
 2989              		.loc 1 786 5 view .LVU769
 2990 01cc CDE92CEE 		strd	lr, lr, [sp, #176]
 787:Lib/AI_Runtime/Npu/ll_aton/ll_sw_float.c ****     AI_ARRAY_OBJ_DECLARE(arith_operand_array2, FORMAT, sw_info->operand2.mem.start_offset,
 2991              		.loc 1 787 95 is_stmt 1 view .LVU770
 788:Lib/AI_Runtime/Npu/ll_aton/ll_sw_float.c ****                          sw_info->operand2.mem.start_offset, sw_info->operand2.dim.num_elem, );
 2992              		.loc 1 788 5 view .LVU771
 789:Lib/AI_Runtime/Npu/ll_aton/ll_sw_float.c ****     AI_TENSOR_OBJ_DECLARE(arith_operand1, , 0x0, 4,
 2993              		.loc 1 789 95 view .LVU772
 790:Lib/AI_Runtime/Npu/ll_aton/ll_sw_float.c ****                           SHAPE_INIT(sw_info->operand1.dim.tensor_h, sw_info->operand1.dim.tensor_w
ARM GAS  C:\Users\DJESSOU\AppData\Local\Temp\ccdFeyMS.s 			page 77


 2994              		.loc 1 790 5 view .LVU773
 2995 01d0 CDE95E74 		strd	r7, r4, [sp, #376]
 2996 01d4 CDE95B36 		strd	r3, r6, [sp, #364]
 2997 01d8 3995     		str	r5, [sp, #228]
 796:Lib/AI_Runtime/Npu/ll_aton/ll_sw_float.c ****                           SHAPE_INIT(sw_info->operand2.dim.tensor_h, sw_info->operand2.dim.tensor_w
 2998              		.loc 1 796 5 is_stmt 0 view .LVU774
 2999 01da 40F20145 		movw	r5, #1025
 3000 01de 6495     		str	r5, [sp, #400]
 3001 01e0 D0F8C050 		ldr	r5, [r0, #192]
 3002 01e4 CDE96514 		strd	r1, r4, [sp, #404]
 3003 01e8 0D60     		str	r5, [r1]
 3004 01ea D0F8BC50 		ldr	r5, [r0, #188]
 786:Lib/AI_Runtime/Npu/ll_aton/ll_sw_float.c ****                          sw_info->operand1.mem.start_offset, sw_info->operand1.dim.num_elem, );
 3005              		.loc 1 786 5 view .LVU775
 3006 01ee 0DF1A808 		add	r8, sp, #168
 796:Lib/AI_Runtime/Npu/ll_aton/ll_sw_float.c ****                           SHAPE_INIT(sw_info->operand2.dim.tensor_h, sw_info->operand2.dim.tensor_w
 3007              		.loc 1 796 5 view .LVU776
 3008 01f2 4D60     		str	r5, [r1, #4]
 3009 01f4 D0F8B850 		ldr	r5, [r0, #184]
 788:Lib/AI_Runtime/Npu/ll_aton/ll_sw_float.c ****                          sw_info->operand2.mem.start_offset, sw_info->operand2.dim.num_elem, );
 3010              		.loc 1 788 5 view .LVU777
 3011 01f8 0DF1B80E 		add	lr, sp, #184
 796:Lib/AI_Runtime/Npu/ll_aton/ll_sw_float.c ****                           SHAPE_INIT(sw_info->operand2.dim.tensor_h, sw_info->operand2.dim.tensor_w
 3012              		.loc 1 796 5 view .LVU778
 3013 01fc 8D60     		str	r5, [r1, #8]
 3014 01fe D0F8B450 		ldr	r5, [r0, #180]
 790:Lib/AI_Runtime/Npu/ll_aton/ll_sw_float.c ****                           SHAPE_INIT(sw_info->operand1.dim.tensor_h, sw_info->operand1.dim.tensor_w
 3015              		.loc 1 790 5 view .LVU779
 3016 0202 36AF     		add	r7, sp, #216
 796:Lib/AI_Runtime/Npu/ll_aton/ll_sw_float.c ****                           SHAPE_INIT(sw_info->operand2.dim.tensor_h, sw_info->operand2.dim.tensor_w
 3017              		.loc 1 796 5 view .LVU780
 3018 0204 CD60     		str	r5, [r1, #12]
 3019 0206 D0F8D410 		ldr	r1, [r0, #212]
 3020 020a CDE9672E 		strd	r2, lr, [sp, #412]
 3021 020e 1160     		str	r1, [r2]
 3022 0210 D0F8D010 		ldr	r1, [r0, #208]
 790:Lib/AI_Runtime/Npu/ll_aton/ll_sw_float.c ****                           SHAPE_INIT(sw_info->operand1.dim.tensor_h, sw_info->operand1.dim.tensor_w
 3023              		.loc 1 790 5 view .LVU781
 3024 0214 CDE96078 		strd	r7, r8, [sp, #384]
 795:Lib/AI_Runtime/Npu/ll_aton/ll_sw_float.c ****     AI_TENSOR_OBJ_DECLARE(arith_operand2, , 0x0, 4,
 3025              		.loc 1 795 58 is_stmt 1 view .LVU782
 796:Lib/AI_Runtime/Npu/ll_aton/ll_sw_float.c ****                           SHAPE_INIT(sw_info->operand2.dim.tensor_h, sw_info->operand2.dim.tensor_w
 3026              		.loc 1 796 5 view .LVU783
 801:Lib/AI_Runtime/Npu/ll_aton/ll_sw_float.c **** 
 3027              		.loc 1 801 58 view .LVU784
 804:Lib/AI_Runtime/Npu/ll_aton/ll_sw_float.c ****         arith_chain, , 4,
 3028              		.loc 1 804 5 view .LVU785
 796:Lib/AI_Runtime/Npu/ll_aton/ll_sw_float.c ****                           SHAPE_INIT(sw_info->operand2.dim.tensor_h, sw_info->operand2.dim.tensor_w
 3029              		.loc 1 796 5 is_stmt 0 view .LVU786
 3030 0218 5160     		str	r1, [r2, #4]
 3031 021a D0F8CC10 		ldr	r1, [r0, #204]
 3032 021e CDE96236 		strd	r3, r6, [sp, #392]
 3033 0222 9160     		str	r1, [r2, #8]
 3034 0224 D0F8C810 		ldr	r1, [r0, #200]
 804:Lib/AI_Runtime/Npu/ll_aton/ll_sw_float.c ****         arith_chain, , 4,
 3035              		.loc 1 804 5 view .LVU787
 3036 0228 CDE942BA 		strd	fp, r10, [sp, #264]
ARM GAS  C:\Users\DJESSOU\AppData\Local\Temp\ccdFeyMS.s 			page 78


 796:Lib/AI_Runtime/Npu/ll_aton/ll_sw_float.c ****                           SHAPE_INIT(sw_info->operand2.dim.tensor_h, sw_info->operand2.dim.tensor_w
 3037              		.loc 1 796 5 view .LVU788
 3038 022c D160     		str	r1, [r2, #12]
 804:Lib/AI_Runtime/Npu/ll_aton/ll_sw_float.c ****         arith_chain, , 4,
 3039              		.loc 1 804 5 view .LVU789
 3040 022e 5BA9     		add	r1, sp, #364
 3041 0230 CDE94419 		strd	r1, r9, [sp, #272]
 3042 0234 42A9     		add	r1, sp, #264
 3043 0236 CDF810C0 		str	ip, [sp, #16]
 3044 023a CDF8C8C1 		str	ip, [sp, #456]
 3045 023e CDE97313 		strd	r1, r3, [sp, #460]
 3046 0242 0121     		movs	r1, #1
 3047 0244 7591     		str	r1, [sp, #468]
 3048 0246 01A9     		add	r1, sp, #4
 3049 0248 CDE97613 		strd	r1, r3, [sp, #472]
 3050 024c 02A9     		add	r1, sp, #8
 3051 024e CDE97913 		strd	r1, r3, [sp, #484]
 3052 0252 03A9     		add	r1, sp, #12
 3053 0254 CDE97C13 		strd	r1, r3, [sp, #496]
 3054 0258 54A8     		add	r0, sp, #336
 3055              	.LVL150:
 804:Lib/AI_Runtime/Npu/ll_aton/ll_sw_float.c ****         arith_chain, , 4,
 3056              		.loc 1 804 5 view .LVU790
 3057 025a 72A9     		add	r1, sp, #456
 3058 025c 04AA     		add	r2, sp, #16
 3059 025e 0190     		str	r0, [sp, #4]
 3060 0260 7893     		str	r3, [sp, #480]
 3061 0262 0293     		str	r3, [sp, #8]
 3062 0264 7B93     		str	r3, [sp, #492]
 3063 0266 0393     		str	r3, [sp, #12]
 3064 0268 0591     		str	r1, [sp, #20]
 809:Lib/AI_Runtime/Npu/ll_aton/ll_sw_float.c ****     AI_LAYER_OBJ_DECLARE(eltwise_layer, 2, ELTWISE_TYPE, 0x0, NULL, eltwise, forward_eltwise, &arit
 3065              		.loc 1 809 34 is_stmt 1 view .LVU791
 810:Lib/AI_Runtime/Npu/ll_aton/ll_sw_float.c ****                          , .operation = op, .buffer_operation = buffer_op)
 3066              		.loc 1 810 5 view .LVU792
 3067              	.L85:
 3068              	.LBE51:
 3069              	.LBB52:
 829:Lib/AI_Runtime/Npu/ll_aton/ll_sw_float.c ****     AI_LAYER_OBJ_DECLARE(eltwise_layer, 2, ELTWISE_TYPE, 0x0, NULL, eltwise, forward_eltwise, &arit
 3070              		.loc 1 829 34 view .LVU793
 830:Lib/AI_Runtime/Npu/ll_aton/ll_sw_float.c ****                          , .operation = op, .buffer_operation = buffer_op)
 3071              		.loc 1 830 5 view .LVU794
 3072 026a 0C49     		ldr	r1, .L86+12
 3073 026c CDE96B33 		strd	r3, r3, [sp, #428]
 3074 0270 CDE96913 		strd	r1, r3, [sp, #420]
 3075 0274 6D93     		str	r3, [sp, #436]
 3076 0276 0A4B     		ldr	r3, .L86+16
 3077 0278 CDE96E32 		strd	r3, r2, [sp, #440]
 3078 027c 094B     		ldr	r3, .L86+20
 3079 027e 7093     		str	r3, [sp, #448]
 3080 0280 094B     		ldr	r3, .L86+24
 3081 0282 7193     		str	r3, [sp, #452]
 832:Lib/AI_Runtime/Npu/ll_aton/ll_sw_float.c ****   }
 3082              		.loc 1 832 5 view .LVU795
 3083              	.L84:
 832:Lib/AI_Runtime/Npu/ll_aton/ll_sw_float.c ****   }
 3084              		.loc 1 832 5 is_stmt 0 view .LVU796
ARM GAS  C:\Users\DJESSOU\AppData\Local\Temp\ccdFeyMS.s 			page 79


 3085              	.LBE52:
 3086              	.LBB53:
 842:Lib/AI_Runtime/Npu/ll_aton/ll_sw_float.c ****                          , .operation = op, .buffer_operation = buffer_op)
 843:Lib/AI_Runtime/Npu/ll_aton/ll_sw_float.c ****     eltwise_layer.forward(AI_LAYER_OBJ(&eltwise_layer));
 3087              		.loc 1 843 5 is_stmt 1 view .LVU797
 3088 0284 69A8     		add	r0, sp, #420
 3089 0286 FFF7FEFF 		bl	forward_eltwise
 3090              	.LVL151:
 3091              	.LBE53:
 844:Lib/AI_Runtime/Npu/ll_aton/ll_sw_float.c ****   }
 845:Lib/AI_Runtime/Npu/ll_aton/ll_sw_float.c **** }
 3092              		.loc 1 845 1 is_stmt 0 view .LVU798
 3093 028a 7FB0     		add	sp, sp, #508
 3094              		.cfi_remember_state
 3095              		.cfi_def_cfa_offset 36
 3096              		@ sp needed
 3097 028c BDE8F08F 		pop	{r4, r5, r6, r7, r8, r9, r10, fp, pc}
 3098              	.L87:
 3099              		.align	2
 3100              	.L86:
 3101 0290 40108200 		.word	8523840
 3102 0294 00000000 		.word	CSWTCH.13
 3103 0298 00000000 		.word	CSWTCH.14
 3104 029c 13010200 		.word	131347
 3105 02a0 00000000 		.word	forward_eltwise
 3106 02a4 00000000 		.word	ai_sum
 3107 02a8 00000000 		.word	ai_sum_buffer
 3108              	.LVL152:
 3109              	.L80:
 3110              		.cfi_restore_state
 814:Lib/AI_Runtime/Npu/ll_aton/ll_sw_float.c ****   {
 3111              		.loc 1 814 52 discriminator 1 view .LVU799
 3112 02ac BCF1030F 		cmp	ip, #3
 3113 02b0 49D1     		bne	.L83
 3114              	.LBB54:
 816:Lib/AI_Runtime/Npu/ll_aton/ll_sw_float.c ****                          sw_info->operand1.mem.start_offset, sw_info->operand1.dim.num_elem, );
 3115              		.loc 1 816 5 is_stmt 1 view .LVU800
 818:Lib/AI_Runtime/Npu/ll_aton/ll_sw_float.c ****                           SHAPE_INIT(sw_info->operand1.dim.tensor_h, sw_info->operand1.dim.tensor_w
 3116              		.loc 1 818 5 is_stmt 0 view .LVU801
 3117 02b2 40F20145 		movw	r5, #1025
 3118 02b6 6495     		str	r5, [sp, #400]
 3119 02b8 D0F89450 		ldr	r5, [r0, #148]
 816:Lib/AI_Runtime/Npu/ll_aton/ll_sw_float.c ****                          sw_info->operand1.mem.start_offset, sw_info->operand1.dim.num_elem, );
 3120              		.loc 1 816 5 view .LVU802
 3121 02bc 1760     		str	r7, [r2]
 818:Lib/AI_Runtime/Npu/ll_aton/ll_sw_float.c ****                           SHAPE_INIT(sw_info->operand1.dim.tensor_h, sw_info->operand1.dim.tensor_w
 3122              		.loc 1 818 5 view .LVU803
 3123 02be 4295     		str	r5, [sp, #264]
 3124 02c0 D0F89050 		ldr	r5, [r0, #144]
 816:Lib/AI_Runtime/Npu/ll_aton/ll_sw_float.c ****                          sw_info->operand1.mem.start_offset, sw_info->operand1.dim.num_elem, );
 3125              		.loc 1 816 5 view .LVU804
 3126 02c4 D0F89870 		ldr	r7, [r0, #152]
 818:Lib/AI_Runtime/Npu/ll_aton/ll_sw_float.c ****                           SHAPE_INIT(sw_info->operand1.dim.tensor_h, sw_info->operand1.dim.tensor_w
 3127              		.loc 1 818 5 view .LVU805
 3128 02c8 4395     		str	r5, [sp, #268]
 3129 02ca D0F88C50 		ldr	r5, [r0, #140]
 816:Lib/AI_Runtime/Npu/ll_aton/ll_sw_float.c ****                          sw_info->operand1.mem.start_offset, sw_info->operand1.dim.num_elem, );
ARM GAS  C:\Users\DJESSOU\AppData\Local\Temp\ccdFeyMS.s 			page 80


 3130              		.loc 1 816 5 view .LVU806
 3131 02ce 5760     		str	r7, [r2, #4]
 818:Lib/AI_Runtime/Npu/ll_aton/ll_sw_float.c ****                           SHAPE_INIT(sw_info->operand1.dim.tensor_h, sw_info->operand1.dim.tensor_w
 3132              		.loc 1 818 5 view .LVU807
 3133 02d0 4495     		str	r5, [sp, #272]
 3134 02d2 D0F88850 		ldr	r5, [r0, #136]
 816:Lib/AI_Runtime/Npu/ll_aton/ll_sw_float.c ****                          sw_info->operand1.mem.start_offset, sw_info->operand1.dim.num_elem, );
 3135              		.loc 1 816 5 view .LVU808
 3136 02d6 D0F8AC70 		ldr	r7, [r0, #172]
 818:Lib/AI_Runtime/Npu/ll_aton/ll_sw_float.c ****                           SHAPE_INIT(sw_info->operand1.dim.tensor_h, sw_info->operand1.dim.tensor_w
 3137              		.loc 1 818 5 view .LVU809
 3138 02da 4595     		str	r5, [sp, #276]
 3139 02dc 42AD     		add	r5, sp, #264
 3140 02de CDE96554 		strd	r5, r4, [sp, #404]
 3141 02e2 D0F8A840 		ldr	r4, [r0, #168]
 816:Lib/AI_Runtime/Npu/ll_aton/ll_sw_float.c ****                          sw_info->operand1.mem.start_offset, sw_info->operand1.dim.num_elem, );
 3142              		.loc 1 816 5 view .LVU810
 3143 02e6 C2E90277 		strd	r7, r7, [r2, #8]
 817:Lib/AI_Runtime/Npu/ll_aton/ll_sw_float.c ****     AI_TENSOR_OBJ_DECLARE(arith_operand1, , 0x0, 4,
 3144              		.loc 1 817 95 is_stmt 1 view .LVU811
 818:Lib/AI_Runtime/Npu/ll_aton/ll_sw_float.c ****                           SHAPE_INIT(sw_info->operand1.dim.tensor_h, sw_info->operand1.dim.tensor_w
 3145              		.loc 1 818 5 view .LVU812
 3146 02ea 5B94     		str	r4, [sp, #364]
 3147 02ec D0F8A440 		ldr	r4, [r0, #164]
 3148 02f0 CDE96236 		strd	r3, r6, [sp, #392]
 3149 02f4 5C94     		str	r4, [sp, #368]
 3150 02f6 D0F8A040 		ldr	r4, [r0, #160]
 3151 02fa D0F89C00 		ldr	r0, [r0, #156]
 3152              	.LVL153:
 818:Lib/AI_Runtime/Npu/ll_aton/ll_sw_float.c ****                           SHAPE_INIT(sw_info->operand1.dim.tensor_h, sw_info->operand1.dim.tensor_w
 3153              		.loc 1 818 5 is_stmt 0 view .LVU813
 3154 02fe 5D94     		str	r4, [sp, #372]
 3155 0300 5E90     		str	r0, [sp, #376]
 3156 0302 5BA8     		add	r0, sp, #364
 3157 0304 CDE96702 		strd	r0, r2, [sp, #412]
 823:Lib/AI_Runtime/Npu/ll_aton/ll_sw_float.c ****     // LL_ATON_PRINTF("\n\n\n #################### 3 inputs\n\n\n");
 3158              		.loc 1 823 58 is_stmt 1 view .LVU814
 825:Lib/AI_Runtime/Npu/ll_aton/ll_sw_float.c ****         arith_chain, , 4,
 3159              		.loc 1 825 5 view .LVU815
 3160 0308 0420     		movs	r0, #4
 3161 030a CDF8C8C1 		str	ip, [sp, #456]
 3162 030e 3690     		str	r0, [sp, #216]
 3163 0310 C1E900BA 		strd	fp, r10, [r1]
 3164 0314 CDE97313 		strd	r1, r3, [sp, #460]
 3165 0318 C1F80890 		str	r9, [r1, #8]
 3166 031c 0121     		movs	r1, #1
 3167 031e 7591     		str	r1, [sp, #468]
 3168 0320 2AA9     		add	r1, sp, #168
 3169 0322 CDE97613 		strd	r1, r3, [sp, #472]
 3170 0326 2EA9     		add	r1, sp, #184
 3171 0328 CDE97913 		strd	r1, r3, [sp, #484]
 3172 032c 32A9     		add	r1, sp, #200
 3173 032e CDE97C13 		strd	r1, r3, [sp, #496]
 3174 0332 54A8     		add	r0, sp, #336
 3175 0334 72A9     		add	r1, sp, #456
 3176 0336 36AA     		add	r2, sp, #216
 3177 0338 2A90     		str	r0, [sp, #168]
ARM GAS  C:\Users\DJESSOU\AppData\Local\Temp\ccdFeyMS.s 			page 81


 3178 033a 7893     		str	r3, [sp, #480]
 3179 033c 2E93     		str	r3, [sp, #184]
 3180 033e 7B93     		str	r3, [sp, #492]
 3181 0340 3293     		str	r3, [sp, #200]
 3182 0342 3791     		str	r1, [sp, #220]
 3183 0344 91E7     		b	.L85
 3184              	.LVL154:
 3185              	.L83:
 825:Lib/AI_Runtime/Npu/ll_aton/ll_sw_float.c ****         arith_chain, , 4,
 3186              		.loc 1 825 5 is_stmt 0 view .LVU816
 3187              	.LBE54:
 3188 0346 0148     		ldr	r0, .L88
 3189              	.LVL155:
 825:Lib/AI_Runtime/Npu/ll_aton/ll_sw_float.c ****         arith_chain, , 4,
 3190              		.loc 1 825 5 view .LVU817
 3191 0348 014C     		ldr	r4, .L88+4
 3192 034a E4E6     		b	.L79
 3193              	.L89:
 3194              		.align	2
 3195              	.L88:
 3196 034c 00000000 		.word	ai_sum_buffer
 3197 0350 00000000 		.word	ai_sum
 3198              		.cfi_endproc
 3199              	.LFE21:
 3201              		.section	.text.ll_sw_forward_pool,"ax",%progbits
 3202              		.align	1
 3203              		.global	ll_sw_forward_pool
 3204              		.syntax unified
 3205              		.thumb
 3206              		.thumb_func
 3208              	ll_sw_forward_pool:
 3209              	.LVL156:
 3210              	.LFB22:
 846:Lib/AI_Runtime/Npu/ll_aton/ll_sw_float.c **** 
 847:Lib/AI_Runtime/Npu/ll_aton/ll_sw_float.c **** //##########################################################################################
 848:Lib/AI_Runtime/Npu/ll_aton/ll_sw_float.c **** /** pool forward function  */
 849:Lib/AI_Runtime/Npu/ll_aton/ll_sw_float.c **** void ll_sw_forward_pool(/* int processor, */ void *sw_info_struct)
 850:Lib/AI_Runtime/Npu/ll_aton/ll_sw_float.c **** {
 3211              		.loc 1 850 1 is_stmt 1 view -0
 3212              		.cfi_startproc
 3213              		@ args = 0, pretend = 0, frame = 296
 3214              		@ frame_needed = 0, uses_anonymous_args = 0
 851:Lib/AI_Runtime/Npu/ll_aton/ll_sw_float.c ****   Pool_sw_info *sw_info = (Pool_sw_info *)sw_info_struct;
 3215              		.loc 1 851 3 view .LVU819
 852:Lib/AI_Runtime/Npu/ll_aton/ll_sw_float.c ****   AI_ARRAY_OBJ_DECLARE(input_output_array, FORMAT, sw_info->general.input.mem.start_offset,
 3216              		.loc 1 852 3 view .LVU820
 850:Lib/AI_Runtime/Npu/ll_aton/ll_sw_float.c ****   Pool_sw_info *sw_info = (Pool_sw_info *)sw_info_struct;
 3217              		.loc 1 850 1 is_stmt 0 view .LVU821
 3218 0000 F0B5     		push	{r4, r5, r6, r7, lr}
 3219              		.cfi_def_cfa_offset 20
 3220              		.cfi_offset 4, -20
 3221              		.cfi_offset 5, -16
 3222              		.cfi_offset 6, -12
 3223              		.cfi_offset 7, -8
 3224              		.cfi_offset 14, -4
 853:Lib/AI_Runtime/Npu/ll_aton/ll_sw_float.c ****                        sw_info->general.input.mem.start_offset, sw_info->general.input.dim.num_elem
 854:Lib/AI_Runtime/Npu/ll_aton/ll_sw_float.c ****   AI_ARRAY_OBJ_DECLARE(pool_output_array, FORMAT, sw_info->general.output.mem.start_offset,
ARM GAS  C:\Users\DJESSOU\AppData\Local\Temp\ccdFeyMS.s 			page 82


 855:Lib/AI_Runtime/Npu/ll_aton/ll_sw_float.c ****                        sw_info->general.output.mem.start_offset, sw_info->general.output.dim.num_el
 856:Lib/AI_Runtime/Npu/ll_aton/ll_sw_float.c ****   // tensor init
 857:Lib/AI_Runtime/Npu/ll_aton/ll_sw_float.c ****   AI_TENSOR_OBJ_DECLARE(input_output, , 0x0, 4,
 3225              		.loc 1 857 3 view .LVU822
 3226 0002 0469     		ldr	r4, [r0, #16]
 850:Lib/AI_Runtime/Npu/ll_aton/ll_sw_float.c ****   Pool_sw_info *sw_info = (Pool_sw_info *)sw_info_struct;
 3227              		.loc 1 850 1 view .LVU823
 3228 0004 CBB0     		sub	sp, sp, #300
 3229              		.cfi_def_cfa_offset 320
 3230              		.loc 1 857 3 view .LVU824
 3231 0006 0E94     		str	r4, [sp, #56]
 3232 0008 C468     		ldr	r4, [r0, #12]
 852:Lib/AI_Runtime/Npu/ll_aton/ll_sw_float.c ****                        sw_info->general.input.mem.start_offset, sw_info->general.input.dim.num_elem
 3233              		.loc 1 852 3 view .LVU825
 3234 000a 494B     		ldr	r3, .L94
 3235              		.loc 1 857 3 view .LVU826
 3236 000c 0F94     		str	r4, [sp, #60]
 3237 000e 8468     		ldr	r4, [r0, #8]
 852:Lib/AI_Runtime/Npu/ll_aton/ll_sw_float.c ****                        sw_info->general.input.mem.start_offset, sw_info->general.input.dim.num_elem
 3238              		.loc 1 852 3 view .LVU827
 3239 0010 0693     		str	r3, [sp, #24]
 854:Lib/AI_Runtime/Npu/ll_aton/ll_sw_float.c ****                        sw_info->general.output.mem.start_offset, sw_info->general.output.dim.num_el
 3240              		.loc 1 854 3 view .LVU828
 3241 0012 0A93     		str	r3, [sp, #40]
 3242 0014 036C     		ldr	r3, [r0, #64]
 3243              		.loc 1 857 3 view .LVU829
 3244 0016 1094     		str	r4, [sp, #64]
 3245 0018 4468     		ldr	r4, [r0, #4]
 854:Lib/AI_Runtime/Npu/ll_aton/ll_sw_float.c ****                        sw_info->general.output.mem.start_offset, sw_info->general.output.dim.num_el
 3246              		.loc 1 854 3 view .LVU830
 3247 001a 0B93     		str	r3, [sp, #44]
 3248 001c 436D     		ldr	r3, [r0, #84]
 3249              		.loc 1 857 3 view .LVU831
 3250 001e 1194     		str	r4, [sp, #68]
 3251 0020 0EAC     		add	r4, sp, #56
 3252 0022 4FF08276 		mov	r6, #17039360
 3253 0026 40F20145 		movw	r5, #1025
 854:Lib/AI_Runtime/Npu/ll_aton/ll_sw_float.c ****                        sw_info->general.output.mem.start_offset, sw_info->general.output.dim.num_el
 3254              		.loc 1 854 3 view .LVU832
 3255 002a CDE90C33 		strd	r3, r3, [sp, #48]
 3256              		.loc 1 857 3 view .LVU833
 3257 002e 2594     		str	r4, [sp, #148]
 3258 0030 0023     		movs	r3, #0
 3259 0032 40F20244 		movw	r4, #1026
 852:Lib/AI_Runtime/Npu/ll_aton/ll_sw_float.c ****                        sw_info->general.input.mem.start_offset, sw_info->general.input.dim.num_elem
 3260              		.loc 1 852 3 view .LVU834
 3261 0036 4269     		ldr	r2, [r0, #20]
 3262              		.loc 1 857 3 view .LVU835
 3263 0038 476A     		ldr	r7, [r0, #36]
 852:Lib/AI_Runtime/Npu/ll_aton/ll_sw_float.c ****                        sw_info->general.input.mem.start_offset, sw_info->general.input.dim.num_elem
 3264              		.loc 1 852 3 view .LVU836
 3265 003a 0792     		str	r2, [sp, #28]
 3266              		.loc 1 857 3 view .LVU837
 3267 003c 1297     		str	r7, [sp, #72]
 852:Lib/AI_Runtime/Npu/ll_aton/ll_sw_float.c ****                        sw_info->general.input.mem.start_offset, sw_info->general.input.dim.num_elem
 3268              		.loc 1 852 3 view .LVU838
 3269 003e 826A     		ldr	r2, [r0, #40]
ARM GAS  C:\Users\DJESSOU\AppData\Local\Temp\ccdFeyMS.s 			page 83


 3270              		.loc 1 857 3 view .LVU839
 3271 0040 076A     		ldr	r7, [r0, #32]
 3272 0042 2694     		str	r4, [sp, #152]
 852:Lib/AI_Runtime/Npu/ll_aton/ll_sw_float.c ****                        sw_info->general.input.mem.start_offset, sw_info->general.input.dim.num_elem
 3273              		.loc 1 852 3 view .LVU840
 3274 0044 CDE90822 		strd	r2, r2, [sp, #32]
 854:Lib/AI_Runtime/Npu/ll_aton/ll_sw_float.c ****                        sw_info->general.output.mem.start_offset, sw_info->general.output.dim.num_el
 3275              		.loc 1 854 3 is_stmt 1 view .LVU841
 3276              		.loc 1 857 3 view .LVU842
 3277 0048 CDE92236 		strd	r3, r6, [sp, #136]
 3278 004c 2495     		str	r5, [sp, #144]
 3279 004e 1397     		str	r7, [sp, #76]
 3280 0050 C769     		ldr	r7, [r0, #28]
 852:Lib/AI_Runtime/Npu/ll_aton/ll_sw_float.c ****                        sw_info->general.input.mem.start_offset, sw_info->general.input.dim.num_elem
 3281              		.loc 1 852 3 is_stmt 0 view .LVU843
 3282 0052 06A9     		add	r1, sp, #24
 3283              		.loc 1 857 3 view .LVU844
 3284 0054 1497     		str	r7, [sp, #80]
 3285 0056 8769     		ldr	r7, [r0, #24]
 854:Lib/AI_Runtime/Npu/ll_aton/ll_sw_float.c ****                        sw_info->general.output.mem.start_offset, sw_info->general.output.dim.num_el
 3286              		.loc 1 854 3 view .LVU845
 3287 0058 0AAA     		add	r2, sp, #40
 3288              		.loc 1 857 3 view .LVU846
 3289 005a 1597     		str	r7, [sp, #84]
 3290 005c 12AF     		add	r7, sp, #72
 3291 005e CDE92771 		strd	r7, r1, [sp, #156]
 858:Lib/AI_Runtime/Npu/ll_aton/ll_sw_float.c ****                         SHAPE_INIT(sw_info->general.input.dim.tensor_h, sw_info->general.input.dim.
 859:Lib/AI_Runtime/Npu/ll_aton/ll_sw_float.c ****                                    sw_info->general.input.dim.tensor_c, sw_info->general.input.dim.
 860:Lib/AI_Runtime/Npu/ll_aton/ll_sw_float.c ****                         STRIDE_INIT(sw_info->general.input.stride.h, sw_info->general.input.stride.
 861:Lib/AI_Runtime/Npu/ll_aton/ll_sw_float.c ****                                     sw_info->general.input.stride.c, sw_info->general.input.stride.
 862:Lib/AI_Runtime/Npu/ll_aton/ll_sw_float.c ****                         1, &input_output_array, NULL)
 863:Lib/AI_Runtime/Npu/ll_aton/ll_sw_float.c ****   AI_TENSOR_OBJ_DECLARE(pool_output, , 0x0, 4,
 3292              		.loc 1 863 3 is_stmt 1 view .LVU847
 3293 0062 C16B     		ldr	r1, [r0, #60]
 3294 0064 CDE92936 		strd	r3, r6, [sp, #164]
 3295 0068 1691     		str	r1, [sp, #88]
 3296 006a 816B     		ldr	r1, [r0, #56]
 3297 006c 2B95     		str	r5, [sp, #172]
 3298 006e 1791     		str	r1, [sp, #92]
 3299 0070 416B     		ldr	r1, [r0, #52]
 3300 0072 1891     		str	r1, [sp, #96]
 3301 0074 016B     		ldr	r1, [r0, #48]
 3302 0076 1991     		str	r1, [sp, #100]
 3303 0078 16A9     		add	r1, sp, #88
 3304 007a CDE92C14 		strd	r1, r4, [sp, #176]
 3305 007e 016D     		ldr	r1, [r0, #80]
 864:Lib/AI_Runtime/Npu/ll_aton/ll_sw_float.c ****                         SHAPE_INIT(sw_info->general.output.dim.tensor_h, sw_info->general.output.di
 865:Lib/AI_Runtime/Npu/ll_aton/ll_sw_float.c ****                                    sw_info->general.output.dim.tensor_c, sw_info->general.output.di
 866:Lib/AI_Runtime/Npu/ll_aton/ll_sw_float.c ****                         STRIDE_INIT(sw_info->general.output.stride.h, sw_info->general.output.strid
 867:Lib/AI_Runtime/Npu/ll_aton/ll_sw_float.c ****                                     sw_info->general.output.stride.c, sw_info->general.output.strid
 868:Lib/AI_Runtime/Npu/ll_aton/ll_sw_float.c ****                         1, &pool_output_array, NULL)
 869:Lib/AI_Runtime/Npu/ll_aton/ll_sw_float.c ****   // tensor chain initialization
 870:Lib/AI_Runtime/Npu/ll_aton/ll_sw_float.c ****   AI_TENSOR_CHAIN_OBJ_DECLARE(pool_chain, , 4, AI_TENSOR_LIST_OBJ_INIT(AI_FLAG_NONE, 1, TENSORS(&in
 3306              		.loc 1 870 3 is_stmt 0 view .LVU848
 3307 0080 04AC     		add	r4, sp, #16
 863:Lib/AI_Runtime/Npu/ll_aton/ll_sw_float.c ****                         SHAPE_INIT(sw_info->general.output.dim.tensor_h, sw_info->general.output.di
 3308              		.loc 1 863 3 view .LVU849
ARM GAS  C:\Users\DJESSOU\AppData\Local\Temp\ccdFeyMS.s 			page 84


 3309 0082 1A91     		str	r1, [sp, #104]
 3310 0084 C16C     		ldr	r1, [r0, #76]
 3311 0086 1B91     		str	r1, [sp, #108]
 3312 0088 816C     		ldr	r1, [r0, #72]
 3313 008a 1C91     		str	r1, [sp, #112]
 3314 008c 416C     		ldr	r1, [r0, #68]
 3315 008e 1D91     		str	r1, [sp, #116]
 3316 0090 1AA9     		add	r1, sp, #104
 3317 0092 CDE92E12 		strd	r1, r2, [sp, #184]
 3318              		.loc 1 870 3 is_stmt 1 view .LVU850
 3319 0096 0422     		movs	r2, #4
 3320 0098 2260     		str	r2, [r4]
 3321 009a 0122     		movs	r2, #1
 3322 009c 22A9     		add	r1, sp, #136
 3323 009e 3092     		str	r2, [sp, #192]
 3324 00a0 0091     		str	r1, [sp]
 3325 00a2 CDF8C4D0 		str	sp, [sp, #196]
 3326 00a6 CDE93232 		strd	r3, r2, [sp, #200]
 3327 00aa 01AA     		add	r2, sp, #4
 3328 00ac CDE93423 		strd	r2, r3, [sp, #208]
 3329 00b0 02AA     		add	r2, sp, #8
 3330 00b2 CDE93723 		strd	r2, r3, [sp, #220]
 3331 00b6 03AA     		add	r2, sp, #12
 3332 00b8 CDE93A23 		strd	r2, r3, [sp, #232]
 3333 00bc 30AA     		add	r2, sp, #192
 3334 00be 6260     		str	r2, [r4, #4]
 871:Lib/AI_Runtime/Npu/ll_aton/ll_sw_float.c ****                               AI_TENSOR_LIST_OBJ_INIT(AI_FLAG_NONE, 1, TENSORS(&pool_output)), AI_T
 872:Lib/AI_Runtime/Npu/ll_aton/ll_sw_float.c ****                               AI_TENSOR_LIST_OBJ_EMPTY)
 873:Lib/AI_Runtime/Npu/ll_aton/ll_sw_float.c **** 
 874:Lib/AI_Runtime/Npu/ll_aton/ll_sw_float.c ****   node_func func = NULL;
 3335              		.loc 1 874 3 view .LVU851
 3336              	.LVL157:
 875:Lib/AI_Runtime/Npu/ll_aton/ll_sw_float.c ****   bool count_include_pad = 0;
 3337              		.loc 1 875 3 view .LVU852
 876:Lib/AI_Runtime/Npu/ll_aton/ll_sw_float.c ****   switch (sw_info->general.type)
 3338              		.loc 1 876 3 view .LVU853
 3339              		.loc 1 876 27 is_stmt 0 view .LVU854
 3340 00c0 0278     		ldrb	r2, [r0]	@ zero_extendqisi2
 870:Lib/AI_Runtime/Npu/ll_aton/ll_sw_float.c ****                               AI_TENSOR_LIST_OBJ_INIT(AI_FLAG_NONE, 1, TENSORS(&pool_output)), AI_T
 3341              		.loc 1 870 3 view .LVU855
 3342 00c2 29A9     		add	r1, sp, #164
 3343              		.loc 1 876 3 view .LVU856
 3344 00c4 062A     		cmp	r2, #6
 870:Lib/AI_Runtime/Npu/ll_aton/ll_sw_float.c ****                               AI_TENSOR_LIST_OBJ_INIT(AI_FLAG_NONE, 1, TENSORS(&pool_output)), AI_T
 3345              		.loc 1 870 3 view .LVU857
 3346 00c6 0191     		str	r1, [sp, #4]
 3347 00c8 3693     		str	r3, [sp, #216]
 3348 00ca 0293     		str	r3, [sp, #8]
 3349 00cc 3993     		str	r3, [sp, #228]
 3350 00ce 0393     		str	r3, [sp, #12]
 3351              		.loc 1 876 3 view .LVU858
 3352 00d0 2AD0     		beq	.L92
 3353 00d2 082A     		cmp	r2, #8
 3354 00d4 2AD1     		bne	.L93
 877:Lib/AI_Runtime/Npu/ll_aton/ll_sw_float.c ****   {
 878:Lib/AI_Runtime/Npu/ll_aton/ll_sw_float.c ****   case LL_SW_AVGPOOL:
 879:Lib/AI_Runtime/Npu/ll_aton/ll_sw_float.c ****     func = ((node_func)(forward_ap));
ARM GAS  C:\Users\DJESSOU\AppData\Local\Temp\ccdFeyMS.s 			page 85


 3355              		.loc 1 879 5 is_stmt 1 view .LVU859
 3356              	.LVL158:
 880:Lib/AI_Runtime/Npu/ll_aton/ll_sw_float.c ****     count_include_pad = sw_info->count_include_pad;
 3357              		.loc 1 880 5 view .LVU860
 3358              		.loc 1 880 23 is_stmt 0 view .LVU861
 3359 00d6 90F88830 		ldrb	r3, [r0, #136]	@ zero_extendqisi2
 3360              	.LVL159:
 881:Lib/AI_Runtime/Npu/ll_aton/ll_sw_float.c ****     break;
 3361              		.loc 1 881 5 is_stmt 1 view .LVU862
 879:Lib/AI_Runtime/Npu/ll_aton/ll_sw_float.c ****     count_include_pad = sw_info->count_include_pad;
 3362              		.loc 1 879 10 is_stmt 0 view .LVU863
 3363 00da 164A     		ldr	r2, .L94+4
 3364              	.LVL160:
 3365              	.L91:
 882:Lib/AI_Runtime/Npu/ll_aton/ll_sw_float.c ****   case LL_SW_MAXPOOL:
 883:Lib/AI_Runtime/Npu/ll_aton/ll_sw_float.c ****     func = ((node_func)(forward_mp));
 884:Lib/AI_Runtime/Npu/ll_aton/ll_sw_float.c ****     break;
 885:Lib/AI_Runtime/Npu/ll_aton/ll_sw_float.c ****   default:
 886:Lib/AI_Runtime/Npu/ll_aton/ll_sw_float.c ****     break;
 887:Lib/AI_Runtime/Npu/ll_aton/ll_sw_float.c ****   }
 888:Lib/AI_Runtime/Npu/ll_aton/ll_sw_float.c **** 
 889:Lib/AI_Runtime/Npu/ll_aton/ll_sw_float.c ****   AI_LAYER_OBJ_DECLARE(pool_layer, 1, POOL_TYPE, 0x0, NULL, pool, func, &pool_chain, NULL, NULL, ,
 3366              		.loc 1 889 3 is_stmt 1 view .LVU864
 3367 00dc 0021     		movs	r1, #0
 3368 00de 164D     		ldr	r5, .L94+8
 3369 00e0 CDE93E11 		strd	r1, r1, [sp, #248]
 3370 00e4 CDE93C51 		strd	r5, r1, [sp, #240]
 3371 00e8 CDE94012 		strd	r1, r2, [sp, #256]
 3372 00ec D0F88410 		ldr	r1, [r0, #132]
 3373 00f0 4294     		str	r4, [sp, #264]
 3374 00f2 4391     		str	r1, [sp, #268]
 3375 00f4 D0F88010 		ldr	r1, [r0, #128]
 3376 00f8 8DF82431 		strb	r3, [sp, #292]
 890:Lib/AI_Runtime/Npu/ll_aton/ll_sw_float.c ****                        .pool_size = SHAPE_2D_INIT(sw_info->k_shape[0], sw_info->k_shape[1]),
 891:Lib/AI_Runtime/Npu/ll_aton/ll_sw_float.c ****                        .pool_stride = SHAPE_2D_INIT(sw_info->strides[0], sw_info->strides[1]),
 892:Lib/AI_Runtime/Npu/ll_aton/ll_sw_float.c ****                        .pool_pad = SHAPE_INIT(sw_info->pads[3], sw_info->pads[2], sw_info->pads[1],
 893:Lib/AI_Runtime/Npu/ll_aton/ll_sw_float.c ****                        .count_include_pad = count_include_pad, )
 894:Lib/AI_Runtime/Npu/ll_aton/ll_sw_float.c ****   pool_layer.forward(AI_LAYER_OBJ(&pool_layer));
 3377              		.loc 1 894 3 view .LVU865
 889:Lib/AI_Runtime/Npu/ll_aton/ll_sw_float.c ****                        .pool_size = SHAPE_2D_INIT(sw_info->k_shape[0], sw_info->k_shape[1]),
 3378              		.loc 1 889 3 is_stmt 0 view .LVU866
 3379 00fc 4491     		str	r1, [sp, #272]
 3380 00fe 416F     		ldr	r1, [r0, #116]
 3381 0100 4591     		str	r1, [sp, #276]
 3382 0102 016F     		ldr	r1, [r0, #112]
 3383 0104 4691     		str	r1, [sp, #280]
 3384 0106 40F20141 		movw	r1, #1025
 3385 010a 4791     		str	r1, [sp, #284]
 3386 010c 016E     		ldr	r1, [r0, #96]
 3387 010e 1E91     		str	r1, [sp, #120]
 3388 0110 416E     		ldr	r1, [r0, #100]
 3389 0112 1F91     		str	r1, [sp, #124]
 3390 0114 816E     		ldr	r1, [r0, #104]
 3391 0116 2091     		str	r1, [sp, #128]
 3392 0118 C16E     		ldr	r1, [r0, #108]
 3393              		.loc 1 894 3 view .LVU867
 3394 011a 3CA8     		add	r0, sp, #240
ARM GAS  C:\Users\DJESSOU\AppData\Local\Temp\ccdFeyMS.s 			page 86


 3395              	.LVL161:
 889:Lib/AI_Runtime/Npu/ll_aton/ll_sw_float.c ****                        .pool_size = SHAPE_2D_INIT(sw_info->k_shape[0], sw_info->k_shape[1]),
 3396              		.loc 1 889 3 view .LVU868
 3397 011c 2191     		str	r1, [sp, #132]
 3398 011e 1EA9     		add	r1, sp, #120
 3399 0120 4891     		str	r1, [sp, #288]
 3400              		.loc 1 894 3 view .LVU869
 3401 0122 9047     		blx	r2
 3402              	.LVL162:
 895:Lib/AI_Runtime/Npu/ll_aton/ll_sw_float.c **** }
 3403              		.loc 1 895 1 view .LVU870
 3404 0124 4BB0     		add	sp, sp, #300
 3405              		.cfi_remember_state
 3406              		.cfi_def_cfa_offset 20
 3407              		@ sp needed
 3408 0126 F0BD     		pop	{r4, r5, r6, r7, pc}
 3409              	.LVL163:
 3410              	.L92:
 3411              		.cfi_restore_state
 876:Lib/AI_Runtime/Npu/ll_aton/ll_sw_float.c ****   {
 3412              		.loc 1 876 3 view .LVU871
 3413 0128 044A     		ldr	r2, .L94+12
 3414 012a D7E7     		b	.L91
 3415              	.L93:
 874:Lib/AI_Runtime/Npu/ll_aton/ll_sw_float.c ****   bool count_include_pad = 0;
 3416              		.loc 1 874 13 view .LVU872
 3417 012c 1A46     		mov	r2, r3
 3418 012e D5E7     		b	.L91
 3419              	.L95:
 3420              		.align	2
 3421              	.L94:
 3422 0130 40108200 		.word	8523840
 3423 0134 00000000 		.word	forward_ap
 3424 0138 0B010100 		.word	65803
 3425 013c 00000000 		.word	forward_mp
 3426              		.cfi_endproc
 3427              	.LFE22:
 3429              		.section	.text.ll_sw_forward_global_pool,"ax",%progbits
 3430              		.align	1
 3431              		.global	ll_sw_forward_global_pool
 3432              		.syntax unified
 3433              		.thumb
 3434              		.thumb_func
 3436              	ll_sw_forward_global_pool:
 3437              	.LVL164:
 3438              	.LFB23:
 896:Lib/AI_Runtime/Npu/ll_aton/ll_sw_float.c **** 
 897:Lib/AI_Runtime/Npu/ll_aton/ll_sw_float.c **** //##########################################################################################
 898:Lib/AI_Runtime/Npu/ll_aton/ll_sw_float.c **** /** Globalpool forward function  */
 899:Lib/AI_Runtime/Npu/ll_aton/ll_sw_float.c **** void ll_sw_forward_global_pool(/* int processor, */ void *sw_info_struct)
 900:Lib/AI_Runtime/Npu/ll_aton/ll_sw_float.c **** {
 3439              		.loc 1 900 1 is_stmt 1 view -0
 3440              		.cfi_startproc
 3441              		@ args = 0, pretend = 0, frame = 296
 3442              		@ frame_needed = 0, uses_anonymous_args = 0
 901:Lib/AI_Runtime/Npu/ll_aton/ll_sw_float.c ****   Global_pool_sw_info *sw_info = (Global_pool_sw_info *)sw_info_struct;
 3443              		.loc 1 901 3 view .LVU874
ARM GAS  C:\Users\DJESSOU\AppData\Local\Temp\ccdFeyMS.s 			page 87


 902:Lib/AI_Runtime/Npu/ll_aton/ll_sw_float.c ****   AI_ARRAY_OBJ_DECLARE(input_output_array, FORMAT, sw_info->general.input.mem.start_offset,
 3444              		.loc 1 902 3 view .LVU875
 900:Lib/AI_Runtime/Npu/ll_aton/ll_sw_float.c ****   Global_pool_sw_info *sw_info = (Global_pool_sw_info *)sw_info_struct;
 3445              		.loc 1 900 1 is_stmt 0 view .LVU876
 3446 0000 F0B5     		push	{r4, r5, r6, r7, lr}
 3447              		.cfi_def_cfa_offset 20
 3448              		.cfi_offset 4, -20
 3449              		.cfi_offset 5, -16
 3450              		.cfi_offset 6, -12
 3451              		.cfi_offset 7, -8
 3452              		.cfi_offset 14, -4
 903:Lib/AI_Runtime/Npu/ll_aton/ll_sw_float.c ****                        sw_info->general.input.mem.start_offset, sw_info->general.input.dim.num_elem
 904:Lib/AI_Runtime/Npu/ll_aton/ll_sw_float.c ****   AI_ARRAY_OBJ_DECLARE(pool_output_array, FORMAT, sw_info->general.output.mem.start_offset,
 905:Lib/AI_Runtime/Npu/ll_aton/ll_sw_float.c ****                        sw_info->general.output.mem.start_offset, sw_info->general.output.dim.num_el
 906:Lib/AI_Runtime/Npu/ll_aton/ll_sw_float.c ****   // tensor init
 907:Lib/AI_Runtime/Npu/ll_aton/ll_sw_float.c ****   AI_TENSOR_OBJ_DECLARE(input_output, , 0x0, 4,
 3453              		.loc 1 907 3 view .LVU877
 3454 0002 0469     		ldr	r4, [r0, #16]
 900:Lib/AI_Runtime/Npu/ll_aton/ll_sw_float.c ****   Global_pool_sw_info *sw_info = (Global_pool_sw_info *)sw_info_struct;
 3455              		.loc 1 900 1 view .LVU878
 3456 0004 CBB0     		sub	sp, sp, #300
 3457              		.cfi_def_cfa_offset 320
 902:Lib/AI_Runtime/Npu/ll_aton/ll_sw_float.c ****                        sw_info->general.input.mem.start_offset, sw_info->general.input.dim.num_elem
 3458              		.loc 1 902 3 view .LVU879
 3459 0006 444B     		ldr	r3, .L100
 3460              		.loc 1 907 3 view .LVU880
 3461 0008 0E94     		str	r4, [sp, #56]
 3462 000a C468     		ldr	r4, [r0, #12]
 902:Lib/AI_Runtime/Npu/ll_aton/ll_sw_float.c ****                        sw_info->general.input.mem.start_offset, sw_info->general.input.dim.num_elem
 3463              		.loc 1 902 3 view .LVU881
 3464 000c 0693     		str	r3, [sp, #24]
 904:Lib/AI_Runtime/Npu/ll_aton/ll_sw_float.c ****                        sw_info->general.output.mem.start_offset, sw_info->general.output.dim.num_el
 3465              		.loc 1 904 3 view .LVU882
 3466 000e 0A93     		str	r3, [sp, #40]
 3467 0010 036C     		ldr	r3, [r0, #64]
 3468              		.loc 1 907 3 view .LVU883
 3469 0012 0F94     		str	r4, [sp, #60]
 3470 0014 4468     		ldr	r4, [r0, #4]
 904:Lib/AI_Runtime/Npu/ll_aton/ll_sw_float.c ****                        sw_info->general.output.mem.start_offset, sw_info->general.output.dim.num_el
 3471              		.loc 1 904 3 view .LVU884
 3472 0016 0B93     		str	r3, [sp, #44]
 3473 0018 436D     		ldr	r3, [r0, #84]
 3474              		.loc 1 907 3 view .LVU885
 3475 001a 1194     		str	r4, [sp, #68]
 3476 001c 0EAC     		add	r4, sp, #56
 3477 001e 40F20146 		movw	r6, #1025
 3478 0022 4FF0827C 		mov	ip, #17039360
 904:Lib/AI_Runtime/Npu/ll_aton/ll_sw_float.c ****                        sw_info->general.output.mem.start_offset, sw_info->general.output.dim.num_el
 3479              		.loc 1 904 3 view .LVU886
 3480 0026 CDE90C33 		strd	r3, r3, [sp, #48]
 3481              		.loc 1 907 3 view .LVU887
 3482 002a 2594     		str	r4, [sp, #148]
 3483 002c 0023     		movs	r3, #0
 3484 002e 40F20244 		movw	r4, #1026
 902:Lib/AI_Runtime/Npu/ll_aton/ll_sw_float.c ****                        sw_info->general.input.mem.start_offset, sw_info->general.input.dim.num_elem
 3485              		.loc 1 902 3 view .LVU888
 3486 0032 4269     		ldr	r2, [r0, #20]
ARM GAS  C:\Users\DJESSOU\AppData\Local\Temp\ccdFeyMS.s 			page 88


 3487              		.loc 1 907 3 view .LVU889
 3488 0034 476A     		ldr	r7, [r0, #36]
 3489 0036 8568     		ldr	r5, [r0, #8]
 902:Lib/AI_Runtime/Npu/ll_aton/ll_sw_float.c ****                        sw_info->general.input.mem.start_offset, sw_info->general.input.dim.num_elem
 3490              		.loc 1 902 3 view .LVU890
 3491 0038 0792     		str	r2, [sp, #28]
 3492              		.loc 1 907 3 view .LVU891
 3493 003a 1297     		str	r7, [sp, #72]
 902:Lib/AI_Runtime/Npu/ll_aton/ll_sw_float.c ****                        sw_info->general.input.mem.start_offset, sw_info->general.input.dim.num_elem
 3494              		.loc 1 902 3 view .LVU892
 3495 003c 826A     		ldr	r2, [r0, #40]
 3496              		.loc 1 907 3 view .LVU893
 3497 003e 076A     		ldr	r7, [r0, #32]
 3498 0040 2496     		str	r6, [sp, #144]
 902:Lib/AI_Runtime/Npu/ll_aton/ll_sw_float.c ****                        sw_info->general.input.mem.start_offset, sw_info->general.input.dim.num_elem
 3499              		.loc 1 902 3 view .LVU894
 3500 0042 CDE90822 		strd	r2, r2, [sp, #32]
 904:Lib/AI_Runtime/Npu/ll_aton/ll_sw_float.c ****                        sw_info->general.output.mem.start_offset, sw_info->general.output.dim.num_el
 3501              		.loc 1 904 3 is_stmt 1 view .LVU895
 3502              		.loc 1 907 3 view .LVU896
 3503 0046 CDE9223C 		strd	r3, ip, [sp, #136]
 3504 004a 1095     		str	r5, [sp, #64]
 3505 004c 2694     		str	r4, [sp, #152]
 3506 004e 1397     		str	r7, [sp, #76]
 3507 0050 C769     		ldr	r7, [r0, #28]
 902:Lib/AI_Runtime/Npu/ll_aton/ll_sw_float.c ****                        sw_info->general.input.mem.start_offset, sw_info->general.input.dim.num_elem
 3508              		.loc 1 902 3 is_stmt 0 view .LVU897
 3509 0052 06A9     		add	r1, sp, #24
 3510              		.loc 1 907 3 view .LVU898
 3511 0054 1497     		str	r7, [sp, #80]
 3512 0056 8769     		ldr	r7, [r0, #24]
 904:Lib/AI_Runtime/Npu/ll_aton/ll_sw_float.c ****                        sw_info->general.output.mem.start_offset, sw_info->general.output.dim.num_el
 3513              		.loc 1 904 3 view .LVU899
 3514 0058 0AAA     		add	r2, sp, #40
 3515              		.loc 1 907 3 view .LVU900
 3516 005a 1597     		str	r7, [sp, #84]
 3517 005c 12AF     		add	r7, sp, #72
 3518 005e CDE92771 		strd	r7, r1, [sp, #156]
 908:Lib/AI_Runtime/Npu/ll_aton/ll_sw_float.c ****                         SHAPE_INIT(sw_info->general.input.dim.tensor_h, sw_info->general.input.dim.
 909:Lib/AI_Runtime/Npu/ll_aton/ll_sw_float.c ****                                    sw_info->general.input.dim.tensor_c, sw_info->general.input.dim.
 910:Lib/AI_Runtime/Npu/ll_aton/ll_sw_float.c ****                         STRIDE_INIT(sw_info->general.input.stride.h, sw_info->general.input.stride.
 911:Lib/AI_Runtime/Npu/ll_aton/ll_sw_float.c ****                                     sw_info->general.input.stride.c, sw_info->general.input.stride.
 912:Lib/AI_Runtime/Npu/ll_aton/ll_sw_float.c ****                         1, &input_output_array, NULL)
 913:Lib/AI_Runtime/Npu/ll_aton/ll_sw_float.c ****   AI_TENSOR_OBJ_DECLARE(pool_output, , 0x0, 4,
 3519              		.loc 1 913 3 is_stmt 1 view .LVU901
 3520 0062 C16B     		ldr	r1, [r0, #60]
 3521 0064 2B96     		str	r6, [sp, #172]
 3522 0066 1691     		str	r1, [sp, #88]
 3523 0068 816B     		ldr	r1, [r0, #56]
 914:Lib/AI_Runtime/Npu/ll_aton/ll_sw_float.c ****                         SHAPE_INIT(sw_info->general.output.dim.tensor_h, sw_info->general.output.di
 915:Lib/AI_Runtime/Npu/ll_aton/ll_sw_float.c ****                                    sw_info->general.output.dim.tensor_c, sw_info->general.output.di
 916:Lib/AI_Runtime/Npu/ll_aton/ll_sw_float.c ****                         STRIDE_INIT(sw_info->general.output.stride.h, sw_info->general.output.strid
 917:Lib/AI_Runtime/Npu/ll_aton/ll_sw_float.c ****                                     sw_info->general.output.stride.c, sw_info->general.output.strid
 918:Lib/AI_Runtime/Npu/ll_aton/ll_sw_float.c ****                         1, &pool_output_array, NULL)
 919:Lib/AI_Runtime/Npu/ll_aton/ll_sw_float.c ****   // tensor chain initialization
 920:Lib/AI_Runtime/Npu/ll_aton/ll_sw_float.c ****   AI_TENSOR_CHAIN_OBJ_DECLARE(pool_chain, , 4, AI_TENSOR_LIST_OBJ_INIT(AI_FLAG_NONE, 1, TENSORS(&in
 3524              		.loc 1 920 3 is_stmt 0 view .LVU902
ARM GAS  C:\Users\DJESSOU\AppData\Local\Temp\ccdFeyMS.s 			page 89


 3525 006a 04AE     		add	r6, sp, #16
 913:Lib/AI_Runtime/Npu/ll_aton/ll_sw_float.c ****                         SHAPE_INIT(sw_info->general.output.dim.tensor_h, sw_info->general.output.di
 3526              		.loc 1 913 3 view .LVU903
 3527 006c 1791     		str	r1, [sp, #92]
 3528 006e 416B     		ldr	r1, [r0, #52]
 3529 0070 CDE9293C 		strd	r3, ip, [sp, #164]
 3530 0074 1891     		str	r1, [sp, #96]
 3531 0076 016B     		ldr	r1, [r0, #48]
 3532 0078 1991     		str	r1, [sp, #100]
 3533 007a 16A9     		add	r1, sp, #88
 3534 007c CDE92C14 		strd	r1, r4, [sp, #176]
 3535 0080 016D     		ldr	r1, [r0, #80]
 3536 0082 1A91     		str	r1, [sp, #104]
 3537 0084 C16C     		ldr	r1, [r0, #76]
 3538 0086 1B91     		str	r1, [sp, #108]
 3539 0088 816C     		ldr	r1, [r0, #72]
 3540 008a 1C91     		str	r1, [sp, #112]
 3541 008c 416C     		ldr	r1, [r0, #68]
 3542 008e 1D91     		str	r1, [sp, #116]
 3543 0090 1AA9     		add	r1, sp, #104
 3544 0092 CDE92E12 		strd	r1, r2, [sp, #184]
 3545              		.loc 1 920 3 is_stmt 1 view .LVU904
 3546 0096 0422     		movs	r2, #4
 3547 0098 3260     		str	r2, [r6]
 3548 009a 0122     		movs	r2, #1
 3549 009c 22A9     		add	r1, sp, #136
 3550 009e 3092     		str	r2, [sp, #192]
 3551 00a0 0091     		str	r1, [sp]
 3552 00a2 CDF8C4D0 		str	sp, [sp, #196]
 3553 00a6 CDE93232 		strd	r3, r2, [sp, #200]
 3554 00aa 01AA     		add	r2, sp, #4
 3555 00ac CDE93423 		strd	r2, r3, [sp, #208]
 3556 00b0 02AA     		add	r2, sp, #8
 3557 00b2 CDE93723 		strd	r2, r3, [sp, #220]
 3558 00b6 03AA     		add	r2, sp, #12
 3559 00b8 CDE93A23 		strd	r2, r3, [sp, #232]
 3560 00bc 3693     		str	r3, [sp, #216]
 3561 00be 0293     		str	r3, [sp, #8]
 3562 00c0 3993     		str	r3, [sp, #228]
 3563 00c2 0393     		str	r3, [sp, #12]
 3564 00c4 30AB     		add	r3, sp, #192
 3565 00c6 7360     		str	r3, [r6, #4]
 921:Lib/AI_Runtime/Npu/ll_aton/ll_sw_float.c ****                               AI_TENSOR_LIST_OBJ_INIT(AI_FLAG_NONE, 1, TENSORS(&pool_output)), AI_T
 922:Lib/AI_Runtime/Npu/ll_aton/ll_sw_float.c ****                               AI_TENSOR_LIST_OBJ_EMPTY)
 923:Lib/AI_Runtime/Npu/ll_aton/ll_sw_float.c **** 
 924:Lib/AI_Runtime/Npu/ll_aton/ll_sw_float.c ****   node_func func = NULL;
 3566              		.loc 1 924 3 view .LVU905
 3567              	.LVL165:
 925:Lib/AI_Runtime/Npu/ll_aton/ll_sw_float.c ****   switch (sw_info->general.type)
 3568              		.loc 1 925 3 view .LVU906
 3569              		.loc 1 925 27 is_stmt 0 view .LVU907
 3570 00c8 0378     		ldrb	r3, [r0]	@ zero_extendqisi2
 920:Lib/AI_Runtime/Npu/ll_aton/ll_sw_float.c ****                               AI_TENSOR_LIST_OBJ_INIT(AI_FLAG_NONE, 1, TENSORS(&pool_output)), AI_T
 3571              		.loc 1 920 3 view .LVU908
 3572 00ca 29A9     		add	r1, sp, #164
 3573              		.loc 1 925 3 view .LVU909
 3574 00cc 062B     		cmp	r3, #6
ARM GAS  C:\Users\DJESSOU\AppData\Local\Temp\ccdFeyMS.s 			page 90


 920:Lib/AI_Runtime/Npu/ll_aton/ll_sw_float.c ****                               AI_TENSOR_LIST_OBJ_INIT(AI_FLAG_NONE, 1, TENSORS(&pool_output)), AI_T
 3575              		.loc 1 920 3 view .LVU910
 3576 00ce 0191     		str	r1, [sp, #4]
 3577              		.loc 1 925 3 view .LVU911
 3578 00d0 1FD0     		beq	.L98
 924:Lib/AI_Runtime/Npu/ll_aton/ll_sw_float.c ****   switch (sw_info->general.type)
 3579              		.loc 1 924 13 view .LVU912
 3580 00d2 082B     		cmp	r3, #8
 3581 00d4 114C     		ldr	r4, .L100+4
 3582 00d6 18BF     		it	ne
 3583 00d8 0024     		movne	r4, #0
 3584              	.L97:
 3585              	.LVL166:
 926:Lib/AI_Runtime/Npu/ll_aton/ll_sw_float.c ****   {
 927:Lib/AI_Runtime/Npu/ll_aton/ll_sw_float.c ****   case LL_SW_AVGPOOL:
 928:Lib/AI_Runtime/Npu/ll_aton/ll_sw_float.c ****     func = ((node_func)(forward_ap));
 929:Lib/AI_Runtime/Npu/ll_aton/ll_sw_float.c ****     break;
 930:Lib/AI_Runtime/Npu/ll_aton/ll_sw_float.c ****   case LL_SW_MAXPOOL:
 931:Lib/AI_Runtime/Npu/ll_aton/ll_sw_float.c ****     func = ((node_func)(forward_mp));
 932:Lib/AI_Runtime/Npu/ll_aton/ll_sw_float.c ****     break;
 933:Lib/AI_Runtime/Npu/ll_aton/ll_sw_float.c ****   default:
 934:Lib/AI_Runtime/Npu/ll_aton/ll_sw_float.c ****     break;
 935:Lib/AI_Runtime/Npu/ll_aton/ll_sw_float.c ****   }
 936:Lib/AI_Runtime/Npu/ll_aton/ll_sw_float.c **** 
 937:Lib/AI_Runtime/Npu/ll_aton/ll_sw_float.c ****   AI_LAYER_OBJ_DECLARE(pool_layer, 1, POOL_TYPE, 0x0, NULL, pool, func, &pool_chain, NULL, NULL, ,
 3586              		.loc 1 937 3 is_stmt 1 view .LVU913
 3587 00da 114B     		ldr	r3, .L100+8
 3588 00dc 3422     		movs	r2, #52
 3589 00de 0021     		movs	r1, #0
 3590 00e0 3DA8     		add	r0, sp, #244
 3591              	.LVL167:
 3592              		.loc 1 937 3 is_stmt 0 view .LVU914
 3593 00e2 3C93     		str	r3, [sp, #240]
 3594 00e4 FFF7FEFF 		bl	memset
 3595              	.LVL168:
 3596 00e8 0123     		movs	r3, #1
 3597 00ea CDE94533 		strd	r3, r3, [sp, #276]
 3598 00ee 40F20143 		movw	r3, #1025
 3599 00f2 4793     		str	r3, [sp, #284]
 3600 00f4 1EAB     		add	r3, sp, #120
 3601 00f6 1022     		movs	r2, #16
 3602 00f8 0021     		movs	r1, #0
 3603 00fa 1846     		mov	r0, r3
 3604 00fc CDE94146 		strd	r4, r6, [sp, #260]
 3605 0100 CDE94355 		strd	r5, r5, [sp, #268]
 3606 0104 FFF7FEFF 		bl	memset
 3607              	.LVL169:
 3608 0108 4890     		str	r0, [sp, #288]
 938:Lib/AI_Runtime/Npu/ll_aton/ll_sw_float.c ****                        .pool_size =
 939:Lib/AI_Runtime/Npu/ll_aton/ll_sw_float.c ****                            SHAPE_2D_INIT(sw_info->general.input.dim.tensor_w, sw_info->general.inpu
 940:Lib/AI_Runtime/Npu/ll_aton/ll_sw_float.c ****                        .pool_stride = SHAPE_2D_INIT(1, 1), .pool_pad = SHAPE_INIT(0, 0, 0, 0), )
 941:Lib/AI_Runtime/Npu/ll_aton/ll_sw_float.c ****   pool_layer.forward(AI_LAYER_OBJ(&pool_layer));
 3609              		.loc 1 941 3 is_stmt 1 view .LVU915
 3610 010a 3CA8     		add	r0, sp, #240
 3611 010c A047     		blx	r4
 3612              	.LVL170:
 942:Lib/AI_Runtime/Npu/ll_aton/ll_sw_float.c **** }
ARM GAS  C:\Users\DJESSOU\AppData\Local\Temp\ccdFeyMS.s 			page 91


 3613              		.loc 1 942 1 is_stmt 0 view .LVU916
 3614 010e 4BB0     		add	sp, sp, #300
 3615              		.cfi_remember_state
 3616              		.cfi_def_cfa_offset 20
 3617              		@ sp needed
 3618 0110 F0BD     		pop	{r4, r5, r6, r7, pc}
 3619              	.LVL171:
 3620              	.L98:
 3621              		.cfi_restore_state
 931:Lib/AI_Runtime/Npu/ll_aton/ll_sw_float.c ****     break;
 3622              		.loc 1 931 10 view .LVU917
 3623 0112 044C     		ldr	r4, .L100+12
 3624 0114 E1E7     		b	.L97
 3625              	.L101:
 3626 0116 00BF     		.align	2
 3627              	.L100:
 3628 0118 40108200 		.word	8523840
 3629 011c 00000000 		.word	forward_ap
 3630 0120 0B010100 		.word	65803
 3631 0124 00000000 		.word	forward_mp
 3632              		.cfi_endproc
 3633              	.LFE23:
 3635              		.section	.text.ll_sw_forward_argmax,"ax",%progbits
 3636              		.align	1
 3637              		.global	ll_sw_forward_argmax
 3638              		.syntax unified
 3639              		.thumb
 3640              		.thumb_func
 3642              	ll_sw_forward_argmax:
 3643              	.LVL172:
 3644              	.LFB24:
 943:Lib/AI_Runtime/Npu/ll_aton/ll_sw_float.c **** 
 944:Lib/AI_Runtime/Npu/ll_aton/ll_sw_float.c **** //##########################################################################################
 945:Lib/AI_Runtime/Npu/ll_aton/ll_sw_float.c **** /** ArgMax forward function  */
 946:Lib/AI_Runtime/Npu/ll_aton/ll_sw_float.c **** void ll_sw_forward_argmax(/* int processor, */ void *sw_info_struct)
 947:Lib/AI_Runtime/Npu/ll_aton/ll_sw_float.c **** {
 3645              		.loc 1 947 1 is_stmt 1 view -0
 3646              		.cfi_startproc
 3647              		@ args = 0, pretend = 0, frame = 256
 3648              		@ frame_needed = 0, uses_anonymous_args = 0
 948:Lib/AI_Runtime/Npu/ll_aton/ll_sw_float.c ****   Argmax_sw_info *sw_info = (Argmax_sw_info *)sw_info_struct;
 3649              		.loc 1 948 3 view .LVU919
 949:Lib/AI_Runtime/Npu/ll_aton/ll_sw_float.c ****   AI_ARRAY_OBJ_DECLARE(input_output_array, FORMAT, sw_info->general.input.mem.start_offset,
 3650              		.loc 1 949 3 view .LVU920
 947:Lib/AI_Runtime/Npu/ll_aton/ll_sw_float.c ****   Argmax_sw_info *sw_info = (Argmax_sw_info *)sw_info_struct;
 3651              		.loc 1 947 1 is_stmt 0 view .LVU921
 3652 0000 30B5     		push	{r4, r5, lr}
 3653              		.cfi_def_cfa_offset 12
 3654              		.cfi_offset 4, -12
 3655              		.cfi_offset 5, -8
 3656              		.cfi_offset 14, -4
 3657              		.loc 1 949 3 view .LVU922
 3658 0002 404B     		ldr	r3, .L105
 947:Lib/AI_Runtime/Npu/ll_aton/ll_sw_float.c ****   Argmax_sw_info *sw_info = (Argmax_sw_info *)sw_info_struct;
 3659              		.loc 1 947 1 view .LVU923
 3660 0004 C1B0     		sub	sp, sp, #260
 3661              		.cfi_def_cfa_offset 272
ARM GAS  C:\Users\DJESSOU\AppData\Local\Temp\ccdFeyMS.s 			page 92


 3662              		.loc 1 949 3 view .LVU924
 3663 0006 0693     		str	r3, [sp, #24]
 3664 0008 4369     		ldr	r3, [r0, #20]
 950:Lib/AI_Runtime/Npu/ll_aton/ll_sw_float.c ****                        sw_info->general.input.mem.start_offset, sw_info->general.input.dim.num_elem
 951:Lib/AI_Runtime/Npu/ll_aton/ll_sw_float.c ****   AI_ARRAY_OBJ_DECLARE(argmax_output_array, AI_ARRAY_FORMAT_S32, sw_info->general.output.mem.start_
 952:Lib/AI_Runtime/Npu/ll_aton/ll_sw_float.c ****                        sw_info->general.output.mem.start_offset, sw_info->general.output.dim.num_el
 953:Lib/AI_Runtime/Npu/ll_aton/ll_sw_float.c ****   // tensor init
 954:Lib/AI_Runtime/Npu/ll_aton/ll_sw_float.c ****   AI_TENSOR_OBJ_DECLARE(input_output, , 0x0, 4,
 3665              		.loc 1 954 3 view .LVU925
 3666 000a 0269     		ldr	r2, [r0, #16]
 949:Lib/AI_Runtime/Npu/ll_aton/ll_sw_float.c ****                        sw_info->general.input.mem.start_offset, sw_info->general.input.dim.num_elem
 3667              		.loc 1 949 3 view .LVU926
 3668 000c 0793     		str	r3, [sp, #28]
 3669 000e 836A     		ldr	r3, [r0, #40]
 3670              		.loc 1 954 3 view .LVU927
 3671 0010 0E92     		str	r2, [sp, #56]
 3672 0012 C268     		ldr	r2, [r0, #12]
 949:Lib/AI_Runtime/Npu/ll_aton/ll_sw_float.c ****                        sw_info->general.input.mem.start_offset, sw_info->general.input.dim.num_elem
 3673              		.loc 1 949 3 view .LVU928
 3674 0014 CDE90833 		strd	r3, r3, [sp, #32]
 951:Lib/AI_Runtime/Npu/ll_aton/ll_sw_float.c ****                        sw_info->general.output.mem.start_offset, sw_info->general.output.dim.num_el
 3675              		.loc 1 951 3 is_stmt 1 view .LVU929
 3676 0018 3B4B     		ldr	r3, .L105+4
 3677              		.loc 1 954 3 is_stmt 0 view .LVU930
 3678 001a 0F92     		str	r2, [sp, #60]
 3679 001c 8268     		ldr	r2, [r0, #8]
 951:Lib/AI_Runtime/Npu/ll_aton/ll_sw_float.c ****                        sw_info->general.output.mem.start_offset, sw_info->general.output.dim.num_el
 3680              		.loc 1 951 3 view .LVU931
 3681 001e 0A93     		str	r3, [sp, #40]
 3682 0020 036C     		ldr	r3, [r0, #64]
 3683              		.loc 1 954 3 view .LVU932
 3684 0022 1092     		str	r2, [sp, #64]
 3685 0024 4268     		ldr	r2, [r0, #4]
 951:Lib/AI_Runtime/Npu/ll_aton/ll_sw_float.c ****                        sw_info->general.output.mem.start_offset, sw_info->general.output.dim.num_el
 3686              		.loc 1 951 3 view .LVU933
 3687 0026 0B93     		str	r3, [sp, #44]
 3688 0028 436D     		ldr	r3, [r0, #84]
 3689              		.loc 1 954 3 view .LVU934
 3690 002a 1192     		str	r2, [sp, #68]
 3691 002c 0EAA     		add	r2, sp, #56
 3692 002e 4FF08274 		mov	r4, #17039360
 3693 0032 40F20141 		movw	r1, #1025
 951:Lib/AI_Runtime/Npu/ll_aton/ll_sw_float.c ****                        sw_info->general.output.mem.start_offset, sw_info->general.output.dim.num_el
 3694              		.loc 1 951 3 view .LVU935
 3695 0036 CDE90C33 		strd	r3, r3, [sp, #48]
 3696              		.loc 1 954 3 is_stmt 1 view .LVU936
 3697 003a 2192     		str	r2, [sp, #132]
 3698 003c 0023     		movs	r3, #0
 3699 003e 40F20242 		movw	r2, #1026
 3700 0042 456A     		ldr	r5, [r0, #36]
 3701 0044 CDE91E34 		strd	r3, r4, [sp, #120]
 3702 0048 1295     		str	r5, [sp, #72]
 3703 004a 056A     		ldr	r5, [r0, #32]
 3704 004c 2091     		str	r1, [sp, #128]
 3705 004e 2292     		str	r2, [sp, #136]
 3706 0050 1395     		str	r5, [sp, #76]
 3707 0052 C569     		ldr	r5, [r0, #28]
ARM GAS  C:\Users\DJESSOU\AppData\Local\Temp\ccdFeyMS.s 			page 93


 955:Lib/AI_Runtime/Npu/ll_aton/ll_sw_float.c ****                         SHAPE_INIT(sw_info->general.input.dim.tensor_h, sw_info->general.input.dim.
 956:Lib/AI_Runtime/Npu/ll_aton/ll_sw_float.c ****                                    sw_info->general.input.dim.tensor_c, sw_info->general.input.dim.
 957:Lib/AI_Runtime/Npu/ll_aton/ll_sw_float.c ****                         STRIDE_INIT(sw_info->general.input.stride.h, sw_info->general.input.stride.
 958:Lib/AI_Runtime/Npu/ll_aton/ll_sw_float.c ****                                     sw_info->general.input.stride.c, sw_info->general.input.stride.
 959:Lib/AI_Runtime/Npu/ll_aton/ll_sw_float.c ****                         1, &input_output_array, NULL)
 960:Lib/AI_Runtime/Npu/ll_aton/ll_sw_float.c ****   AI_TENSOR_OBJ_DECLARE(argmax_output, , 0x0, 4,
 3708              		.loc 1 960 3 is_stmt 0 view .LVU937
 3709 0054 CDE92641 		strd	r4, r1, [sp, #152]
 3710 0058 C16B     		ldr	r1, [r0, #60]
 954:Lib/AI_Runtime/Npu/ll_aton/ll_sw_float.c ****                         SHAPE_INIT(sw_info->general.input.dim.tensor_h, sw_info->general.input.dim.
 3711              		.loc 1 954 3 view .LVU938
 3712 005a 1495     		str	r5, [sp, #80]
 3713              		.loc 1 960 3 view .LVU939
 3714 005c 1691     		str	r1, [sp, #88]
 3715 005e 816B     		ldr	r1, [r0, #56]
 954:Lib/AI_Runtime/Npu/ll_aton/ll_sw_float.c ****                         SHAPE_INIT(sw_info->general.input.dim.tensor_h, sw_info->general.input.dim.
 3716              		.loc 1 954 3 view .LVU940
 3717 0060 8569     		ldr	r5, [r0, #24]
 3718              		.loc 1 960 3 view .LVU941
 3719 0062 1791     		str	r1, [sp, #92]
 3720 0064 416B     		ldr	r1, [r0, #52]
 954:Lib/AI_Runtime/Npu/ll_aton/ll_sw_float.c ****                         SHAPE_INIT(sw_info->general.input.dim.tensor_h, sw_info->general.input.dim.
 3721              		.loc 1 954 3 view .LVU942
 3722 0066 1595     		str	r5, [sp, #84]
 3723              		.loc 1 960 3 view .LVU943
 3724 0068 1891     		str	r1, [sp, #96]
 3725 006a 016B     		ldr	r1, [r0, #48]
 954:Lib/AI_Runtime/Npu/ll_aton/ll_sw_float.c ****                         SHAPE_INIT(sw_info->general.input.dim.tensor_h, sw_info->general.input.dim.
 3726              		.loc 1 954 3 view .LVU944
 3727 006c 12AD     		add	r5, sp, #72
 3728              		.loc 1 960 3 view .LVU945
 3729 006e 1991     		str	r1, [sp, #100]
 3730 0070 16A9     		add	r1, sp, #88
 3731 0072 CDE92812 		strd	r1, r2, [sp, #160]
 3732 0076 026D     		ldr	r2, [r0, #80]
 954:Lib/AI_Runtime/Npu/ll_aton/ll_sw_float.c ****                         SHAPE_INIT(sw_info->general.input.dim.tensor_h, sw_info->general.input.dim.
 3733              		.loc 1 954 3 view .LVU946
 3734 0078 2395     		str	r5, [sp, #140]
 3735              		.loc 1 960 3 view .LVU947
 3736 007a 1A92     		str	r2, [sp, #104]
 3737 007c C26C     		ldr	r2, [r0, #76]
 961:Lib/AI_Runtime/Npu/ll_aton/ll_sw_float.c ****                         SHAPE_INIT(sw_info->general.output.dim.tensor_h, sw_info->general.output.di
 962:Lib/AI_Runtime/Npu/ll_aton/ll_sw_float.c ****                                    sw_info->general.output.dim.tensor_c, sw_info->general.output.di
 963:Lib/AI_Runtime/Npu/ll_aton/ll_sw_float.c ****                         STRIDE_INIT(sw_info->general.output.stride.h, sw_info->general.output.strid
 964:Lib/AI_Runtime/Npu/ll_aton/ll_sw_float.c ****                                     sw_info->general.output.stride.c, sw_info->general.output.strid
 965:Lib/AI_Runtime/Npu/ll_aton/ll_sw_float.c ****                         1, &argmax_output_array, NULL)
 966:Lib/AI_Runtime/Npu/ll_aton/ll_sw_float.c ****   // tensor chain initialization
 967:Lib/AI_Runtime/Npu/ll_aton/ll_sw_float.c ****   AI_TENSOR_CHAIN_OBJ_DECLARE(argmax_chain, , 4, AI_TENSOR_LIST_OBJ_INIT(AI_FLAG_NONE, 1, TENSORS(&
 3738              		.loc 1 967 3 view .LVU948
 3739 007e 1EA9     		add	r1, sp, #120
 960:Lib/AI_Runtime/Npu/ll_aton/ll_sw_float.c ****                         SHAPE_INIT(sw_info->general.output.dim.tensor_h, sw_info->general.output.di
 3740              		.loc 1 960 3 view .LVU949
 3741 0080 1B92     		str	r2, [sp, #108]
 3742 0082 826C     		ldr	r2, [r0, #72]
 954:Lib/AI_Runtime/Npu/ll_aton/ll_sw_float.c ****                         SHAPE_INIT(sw_info->general.input.dim.tensor_h, sw_info->general.input.dim.
 3743              		.loc 1 954 3 view .LVU950
 3744 0084 06AD     		add	r5, sp, #24
ARM GAS  C:\Users\DJESSOU\AppData\Local\Temp\ccdFeyMS.s 			page 94


 960:Lib/AI_Runtime/Npu/ll_aton/ll_sw_float.c ****                         SHAPE_INIT(sw_info->general.output.dim.tensor_h, sw_info->general.output.di
 3745              		.loc 1 960 3 view .LVU951
 3746 0086 1C92     		str	r2, [sp, #112]
 3747 0088 426C     		ldr	r2, [r0, #68]
 3748 008a CDE92453 		strd	r5, r3, [sp, #144]
 3749 008e 1D92     		str	r2, [sp, #116]
 3750 0090 1AAA     		add	r2, sp, #104
 3751 0092 2A92     		str	r2, [sp, #168]
 3752 0094 0AAA     		add	r2, sp, #40
 3753 0096 2B92     		str	r2, [sp, #172]
 3754              		.loc 1 967 3 is_stmt 1 view .LVU952
 3755 0098 0422     		movs	r2, #4
 3756 009a 0492     		str	r2, [sp, #16]
 3757 009c 0122     		movs	r2, #1
 3758 009e 0091     		str	r1, [sp]
 3759 00a0 3492     		str	r2, [sp, #208]
 3760 00a2 CDF8D4D0 		str	sp, [sp, #212]
 3761 00a6 CDE93632 		strd	r3, r2, [sp, #216]
 3762 00aa 25AA     		add	r2, sp, #148
 3763 00ac 0192     		str	r2, [sp, #4]
 3764 00ae 01AA     		add	r2, sp, #4
 3765 00b0 CDE93823 		strd	r2, r3, [sp, #224]
 3766 00b4 02AA     		add	r2, sp, #8
 3767 00b6 CDE93B23 		strd	r2, r3, [sp, #236]
 3768 00ba 03AA     		add	r2, sp, #12
 3769 00bc CDE93E23 		strd	r2, r3, [sp, #248]
 3770 00c0 34AA     		add	r2, sp, #208
 3771 00c2 0592     		str	r2, [sp, #20]
 968:Lib/AI_Runtime/Npu/ll_aton/ll_sw_float.c ****                               AI_TENSOR_LIST_OBJ_INIT(AI_FLAG_NONE, 1, TENSORS(&argmax_output)),
 969:Lib/AI_Runtime/Npu/ll_aton/ll_sw_float.c ****                               AI_TENSOR_LIST_OBJ_EMPTY, AI_TENSOR_LIST_OBJ_EMPTY)
 970:Lib/AI_Runtime/Npu/ll_aton/ll_sw_float.c **** 
 971:Lib/AI_Runtime/Npu/ll_aton/ll_sw_float.c ****   AI_LAYER_OBJ_DECLARE(argmax_layer, 1, ARGMINMAX_TYPE, 0x0, NULL, argminmax, forward_argmax, &argm
 3772              		.loc 1 971 3 view .LVU953
 3773 00c4 114A     		ldr	r2, .L105+8
 3774 00c6 CDE92E33 		strd	r3, r3, [sp, #184]
 3775 00ca CDE92C23 		strd	r2, r3, [sp, #176]
 967:Lib/AI_Runtime/Npu/ll_aton/ll_sw_float.c ****                               AI_TENSOR_LIST_OBJ_INIT(AI_FLAG_NONE, 1, TENSORS(&argmax_output)),
 3776              		.loc 1 967 3 is_stmt 0 view .LVU954
 3777 00ce 3A93     		str	r3, [sp, #232]
 3778 00d0 0293     		str	r3, [sp, #8]
 3779 00d2 3D93     		str	r3, [sp, #244]
 3780 00d4 0393     		str	r3, [sp, #12]
 3781              		.loc 1 971 3 view .LVU955
 3782 00d6 3093     		str	r3, [sp, #192]
 3783 00d8 0D4B     		ldr	r3, .L105+12
 3784 00da 3193     		str	r3, [sp, #196]
 3785 00dc 04AB     		add	r3, sp, #16
 3786 00de 3293     		str	r3, [sp, #200]
 3787              	.LVL173:
 3788              	.LBB57:
 3789              	.LBI57:
  46:Lib/AI_Runtime/Npu/ll_aton/ll_sw_float.c **** {
 3790              		.loc 1 46 12 is_stmt 1 view .LVU956
  48:Lib/AI_Runtime/Npu/ll_aton/ll_sw_float.c ****   {
 3791              		.loc 1 48 3 view .LVU957
 3792 00e0 C36D     		ldr	r3, [r0, #92]
 3793 00e2 032B     		cmp	r3, #3
ARM GAS  C:\Users\DJESSOU\AppData\Local\Temp\ccdFeyMS.s 			page 95


 3794              	.LBE57:
 3795              		.loc 1 971 3 is_stmt 0 view .LVU958
 3796 00e4 8EBF     		itee	hi
 3797 00e6 4FF0FF33 		movhi	r3, #-1
 3798              	.LVL174:
 3799              		.loc 1 971 3 view .LVU959
 3800 00ea 0A4A     		ldrls	r2, .L105+16
 3801 00ec D356     		ldrsbls	r3, [r2, r3]
 3802              		.loc 1 971 3 discriminator 1 view .LVU960
 3803 00ee ADF8CC30 		strh	r3, [sp, #204]	@ movhi
 3804 00f2 436E     		ldr	r3, [r0, #100]
 972:Lib/AI_Runtime/Npu/ll_aton/ll_sw_float.c ****                        , .axis = helper_emit_shape_index_axis(sw_info->axis),
 973:Lib/AI_Runtime/Npu/ll_aton/ll_sw_float.c ****                        .select_last_index = sw_info->select_last_index, )
 974:Lib/AI_Runtime/Npu/ll_aton/ll_sw_float.c ****   argmax_layer.forward(AI_LAYER_OBJ(&argmax_layer));
 3805              		.loc 1 974 3 view .LVU961
 3806 00f4 2CA8     		add	r0, sp, #176
 3807              	.LVL175:
 971:Lib/AI_Runtime/Npu/ll_aton/ll_sw_float.c ****                        , .axis = helper_emit_shape_index_axis(sw_info->axis),
 3808              		.loc 1 971 3 discriminator 1 view .LVU962
 3809 00f6 ADF8CE30 		strh	r3, [sp, #206]	@ movhi
 3810              		.loc 1 974 3 is_stmt 1 view .LVU963
 3811 00fa FFF7FEFF 		bl	forward_argmax
 3812              	.LVL176:
 975:Lib/AI_Runtime/Npu/ll_aton/ll_sw_float.c **** }
 3813              		.loc 1 975 1 is_stmt 0 view .LVU964
 3814 00fe 41B0     		add	sp, sp, #260
 3815              		.cfi_def_cfa_offset 12
 3816              		@ sp needed
 3817 0100 30BD     		pop	{r4, r5, pc}
 3818              	.L106:
 3819 0102 00BF     		.align	2
 3820              	.L105:
 3821 0104 40108200 		.word	8523840
 3822 0108 40108400 		.word	8654912
 3823 010c 1F010100 		.word	65823
 3824 0110 00000000 		.word	forward_argmax
 3825 0114 00000000 		.word	CSWTCH.4
 3826              		.cfi_endproc
 3827              	.LFE24:
 3829              		.section	.text.ll_sw_forward_gather,"ax",%progbits
 3830              		.align	1
 3831              		.global	ll_sw_forward_gather
 3832              		.syntax unified
 3833              		.thumb
 3834              		.thumb_func
 3836              	ll_sw_forward_gather:
 3837              	.LVL177:
 3838              	.LFB25:
 976:Lib/AI_Runtime/Npu/ll_aton/ll_sw_float.c **** 
 977:Lib/AI_Runtime/Npu/ll_aton/ll_sw_float.c **** //##########################################################################################
 978:Lib/AI_Runtime/Npu/ll_aton/ll_sw_float.c **** /** Gather forward function  */
 979:Lib/AI_Runtime/Npu/ll_aton/ll_sw_float.c **** void ll_sw_forward_gather(/* int processor, */ void *sw_info_struct)
 980:Lib/AI_Runtime/Npu/ll_aton/ll_sw_float.c **** {
 3839              		.loc 1 980 1 is_stmt 1 view -0
 3840              		.cfi_startproc
 3841              		@ args = 0, pretend = 0, frame = 344
 3842              		@ frame_needed = 0, uses_anonymous_args = 0
ARM GAS  C:\Users\DJESSOU\AppData\Local\Temp\ccdFeyMS.s 			page 96


 981:Lib/AI_Runtime/Npu/ll_aton/ll_sw_float.c ****   Gather_sw_info *sw_info = (Gather_sw_info *)sw_info_struct;
 3843              		.loc 1 981 3 view .LVU966
 980:Lib/AI_Runtime/Npu/ll_aton/ll_sw_float.c ****   Gather_sw_info *sw_info = (Gather_sw_info *)sw_info_struct;
 3844              		.loc 1 980 1 is_stmt 0 view .LVU967
 3845 0000 F0B5     		push	{r4, r5, r6, r7, lr}
 3846              		.cfi_def_cfa_offset 20
 3847              		.cfi_offset 4, -20
 3848              		.cfi_offset 5, -16
 3849              		.cfi_offset 6, -12
 3850              		.cfi_offset 7, -8
 3851              		.cfi_offset 14, -4
 3852 0002 0446     		mov	r4, r0
 3853              	.LVL178:
 982:Lib/AI_Runtime/Npu/ll_aton/ll_sw_float.c ****   AI_ARRAY_OBJ_DECLARE(input_output_array, FORMAT, sw_info->general.input.mem.start_offset,
 3854              		.loc 1 982 3 is_stmt 1 view .LVU968
 3855 0004 5049     		ldr	r1, .L110
 980:Lib/AI_Runtime/Npu/ll_aton/ll_sw_float.c ****   Gather_sw_info *sw_info = (Gather_sw_info *)sw_info_struct;
 3856              		.loc 1 980 1 is_stmt 0 view .LVU969
 3857 0006 D7B0     		sub	sp, sp, #348
 3858              		.cfi_def_cfa_offset 368
 3859              		.loc 1 982 3 view .LVU970
 3860 0008 0891     		str	r1, [sp, #32]
 983:Lib/AI_Runtime/Npu/ll_aton/ll_sw_float.c ****                        sw_info->general.input.mem.start_offset, sw_info->general.input.dim.num_elem
 984:Lib/AI_Runtime/Npu/ll_aton/ll_sw_float.c ****   AI_ARRAY_OBJ_DECLARE(indexes_array, AI_ARRAY_FORMAT_S32, sw_info->operand.mem.start_offset,
 985:Lib/AI_Runtime/Npu/ll_aton/ll_sw_float.c ****                        sw_info->operand.mem.start_offset, sw_info->operand.dim.num_elem, )
 986:Lib/AI_Runtime/Npu/ll_aton/ll_sw_float.c ****   AI_ARRAY_OBJ_DECLARE(gather_output_array, FORMAT, sw_info->general.output.mem.start_offset,
 3861              		.loc 1 986 3 view .LVU971
 3862 000a 1091     		str	r1, [sp, #64]
 3863 000c 216C     		ldr	r1, [r4, #64]
 987:Lib/AI_Runtime/Npu/ll_aton/ll_sw_float.c ****                        sw_info->general.output.mem.start_offset, sw_info->general.output.dim.num_el
 988:Lib/AI_Runtime/Npu/ll_aton/ll_sw_float.c ****   // tensor init
 989:Lib/AI_Runtime/Npu/ll_aton/ll_sw_float.c ****   AI_TENSOR_OBJ_DECLARE(input_output, , 0x0, 4,
 3864              		.loc 1 989 3 view .LVU972
 3865 000e 4FF0827C 		mov	ip, #17039360
 986:Lib/AI_Runtime/Npu/ll_aton/ll_sw_float.c ****                        sw_info->general.output.mem.start_offset, sw_info->general.output.dim.num_el
 3866              		.loc 1 986 3 view .LVU973
 3867 0012 1191     		str	r1, [sp, #68]
 3868 0014 616D     		ldr	r1, [r4, #84]
 3869              		.loc 1 989 3 view .LVU974
 3870 0016 40F20146 		movw	r6, #1025
 986:Lib/AI_Runtime/Npu/ll_aton/ll_sw_float.c ****                        sw_info->general.output.mem.start_offset, sw_info->general.output.dim.num_el
 3871              		.loc 1 986 3 view .LVU975
 3872 001a CDE91211 		strd	r1, r1, [sp, #72]
 3873              		.loc 1 989 3 view .LVU976
 3874 001e 0021     		movs	r1, #0
 3875 0020 2769     		ldr	r7, [r4, #16]
 982:Lib/AI_Runtime/Npu/ll_aton/ll_sw_float.c ****                        sw_info->general.input.mem.start_offset, sw_info->general.input.dim.num_elem
 3876              		.loc 1 982 3 view .LVU977
 3877 0022 6369     		ldr	r3, [r4, #20]
 3878              		.loc 1 989 3 view .LVU978
 3879 0024 1497     		str	r7, [sp, #80]
 3880 0026 E768     		ldr	r7, [r4, #12]
 982:Lib/AI_Runtime/Npu/ll_aton/ll_sw_float.c ****                        sw_info->general.input.mem.start_offset, sw_info->general.input.dim.num_elem
 3881              		.loc 1 982 3 view .LVU979
 3882 0028 0993     		str	r3, [sp, #36]
 3883              		.loc 1 989 3 view .LVU980
 3884 002a 1597     		str	r7, [sp, #84]
ARM GAS  C:\Users\DJESSOU\AppData\Local\Temp\ccdFeyMS.s 			page 97


 3885 002c A768     		ldr	r7, [r4, #8]
 982:Lib/AI_Runtime/Npu/ll_aton/ll_sw_float.c ****                        sw_info->general.input.mem.start_offset, sw_info->general.input.dim.num_elem
 3886              		.loc 1 982 3 view .LVU981
 3887 002e A36A     		ldr	r3, [r4, #40]
 3888              		.loc 1 989 3 view .LVU982
 3889 0030 1697     		str	r7, [sp, #88]
 3890 0032 6768     		ldr	r7, [r4, #4]
 982:Lib/AI_Runtime/Npu/ll_aton/ll_sw_float.c ****                        sw_info->general.input.mem.start_offset, sw_info->general.input.dim.num_elem
 3891              		.loc 1 982 3 view .LVU983
 3892 0034 CDE90A33 		strd	r3, r3, [sp, #40]
 984:Lib/AI_Runtime/Npu/ll_aton/ll_sw_float.c ****                        sw_info->operand.mem.start_offset, sw_info->operand.dim.num_elem, )
 3893              		.loc 1 984 3 is_stmt 1 view .LVU984
 3894              		.loc 1 989 3 is_stmt 0 view .LVU985
 3895 0038 1797     		str	r7, [sp, #92]
 3896 003a 40F20247 		movw	r7, #1026
 984:Lib/AI_Runtime/Npu/ll_aton/ll_sw_float.c ****                        sw_info->operand.mem.start_offset, sw_info->operand.dim.num_elem, )
 3897              		.loc 1 984 3 view .LVU986
 3898 003e 434B     		ldr	r3, .L110+4
 3899              		.loc 1 989 3 view .LVU987
 3900 0040 14AD     		add	r5, sp, #80
 984:Lib/AI_Runtime/Npu/ll_aton/ll_sw_float.c ****                        sw_info->operand.mem.start_offset, sw_info->operand.dim.num_elem, )
 3901              		.loc 1 984 3 view .LVU988
 3902 0042 0C93     		str	r3, [sp, #48]
 3903 0044 E36E     		ldr	r3, [r4, #108]
 3904              		.loc 1 989 3 view .LVU989
 3905 0046 CDE92C1C 		strd	r1, ip, [sp, #176]
 984:Lib/AI_Runtime/Npu/ll_aton/ll_sw_float.c ****                        sw_info->operand.mem.start_offset, sw_info->operand.dim.num_elem, )
 3906              		.loc 1 984 3 view .LVU990
 3907 004a 0D93     		str	r3, [sp, #52]
 3908 004c D4F88030 		ldr	r3, [r4, #128]
 3909              		.loc 1 989 3 view .LVU991
 3910 0050 2E96     		str	r6, [sp, #184]
 984:Lib/AI_Runtime/Npu/ll_aton/ll_sw_float.c ****                        sw_info->operand.mem.start_offset, sw_info->operand.dim.num_elem, )
 3911              		.loc 1 984 3 view .LVU992
 3912 0052 CDE90E33 		strd	r3, r3, [sp, #56]
 986:Lib/AI_Runtime/Npu/ll_aton/ll_sw_float.c ****                        sw_info->general.output.mem.start_offset, sw_info->general.output.dim.num_el
 3913              		.loc 1 986 3 is_stmt 1 view .LVU993
 3914              		.loc 1 989 3 view .LVU994
 3915 0056 2F95     		str	r5, [sp, #188]
 3916 0058 656A     		ldr	r5, [r4, #36]
 982:Lib/AI_Runtime/Npu/ll_aton/ll_sw_float.c ****                        sw_info->general.input.mem.start_offset, sw_info->general.input.dim.num_elem
 3917              		.loc 1 982 3 is_stmt 0 view .LVU995
 3918 005a 08A8     		add	r0, sp, #32
 3919              	.LVL179:
 3920              		.loc 1 989 3 view .LVU996
 3921 005c 1895     		str	r5, [sp, #96]
 3922 005e 256A     		ldr	r5, [r4, #32]
 984:Lib/AI_Runtime/Npu/ll_aton/ll_sw_float.c ****                        sw_info->operand.mem.start_offset, sw_info->operand.dim.num_elem, )
 3923              		.loc 1 984 3 view .LVU997
 3924 0060 0CAA     		add	r2, sp, #48
 3925              		.loc 1 989 3 view .LVU998
 3926 0062 1995     		str	r5, [sp, #100]
 3927 0064 E569     		ldr	r5, [r4, #28]
 990:Lib/AI_Runtime/Npu/ll_aton/ll_sw_float.c ****                         SHAPE_INIT(sw_info->general.input.dim.tensor_h, sw_info->general.input.dim.
 991:Lib/AI_Runtime/Npu/ll_aton/ll_sw_float.c ****                                    sw_info->general.input.dim.tensor_c, sw_info->general.input.dim.
 992:Lib/AI_Runtime/Npu/ll_aton/ll_sw_float.c ****                         STRIDE_INIT(sw_info->general.input.stride.h, sw_info->general.input.stride.
 993:Lib/AI_Runtime/Npu/ll_aton/ll_sw_float.c ****                                     sw_info->general.input.stride.c, sw_info->general.input.stride.
ARM GAS  C:\Users\DJESSOU\AppData\Local\Temp\ccdFeyMS.s 			page 98


 994:Lib/AI_Runtime/Npu/ll_aton/ll_sw_float.c ****                         1, &input_output_array, NULL)
 995:Lib/AI_Runtime/Npu/ll_aton/ll_sw_float.c ****   AI_TENSOR_OBJ_DECLARE(indexes, , 0x0, 4,
 3928              		.loc 1 995 3 view .LVU999
 3929 0066 CDE9331C 		strd	r1, ip, [sp, #204]
 989:Lib/AI_Runtime/Npu/ll_aton/ll_sw_float.c ****                         SHAPE_INIT(sw_info->general.input.dim.tensor_h, sw_info->general.input.dim.
 3930              		.loc 1 989 3 view .LVU1000
 3931 006a 1A95     		str	r5, [sp, #104]
 3932 006c A569     		ldr	r5, [r4, #24]
 3933 006e 3097     		str	r7, [sp, #192]
 3934 0070 1B95     		str	r5, [sp, #108]
 3935 0072 18AD     		add	r5, sp, #96
 3936 0074 CDE93150 		strd	r5, r0, [sp, #196]
 3937              		.loc 1 995 3 is_stmt 1 view .LVU1001
 3938 0078 A06E     		ldr	r0, [r4, #104]
 3939 007a 3596     		str	r6, [sp, #212]
 3940 007c 1C90     		str	r0, [sp, #112]
 3941 007e 606E     		ldr	r0, [r4, #100]
 986:Lib/AI_Runtime/Npu/ll_aton/ll_sw_float.c ****                        sw_info->general.output.mem.start_offset, sw_info->general.output.dim.num_el
 3942              		.loc 1 986 3 is_stmt 0 view .LVU1002
 3943 0080 10AB     		add	r3, sp, #64
 3944              		.loc 1 995 3 view .LVU1003
 3945 0082 1D90     		str	r0, [sp, #116]
 3946 0084 206E     		ldr	r0, [r4, #96]
 996:Lib/AI_Runtime/Npu/ll_aton/ll_sw_float.c ****                         SHAPE_INIT(sw_info->operand.dim.tensor_h, sw_info->operand.dim.tensor_w,
 997:Lib/AI_Runtime/Npu/ll_aton/ll_sw_float.c ****                                    sw_info->operand.dim.tensor_c, sw_info->operand.dim.tensor_b),
 998:Lib/AI_Runtime/Npu/ll_aton/ll_sw_float.c ****                         STRIDE_INIT(sw_info->operand.stride.h, sw_info->operand.stride.w, sw_info->
 999:Lib/AI_Runtime/Npu/ll_aton/ll_sw_float.c ****                                     sw_info->operand.stride.b),
1000:Lib/AI_Runtime/Npu/ll_aton/ll_sw_float.c ****                         1, &indexes_array, NULL)
1001:Lib/AI_Runtime/Npu/ll_aton/ll_sw_float.c ****   AI_TENSOR_OBJ_DECLARE(gather_output, , 0x0, 4,
1002:Lib/AI_Runtime/Npu/ll_aton/ll_sw_float.c ****                         SHAPE_INIT(sw_info->general.output.dim.tensor_h, sw_info->general.output.di
1003:Lib/AI_Runtime/Npu/ll_aton/ll_sw_float.c ****                                    sw_info->general.output.dim.tensor_c, sw_info->general.output.di
1004:Lib/AI_Runtime/Npu/ll_aton/ll_sw_float.c ****                         STRIDE_INIT(sw_info->general.output.stride.h, sw_info->general.output.strid
1005:Lib/AI_Runtime/Npu/ll_aton/ll_sw_float.c ****                                     sw_info->general.output.stride.c, sw_info->general.output.strid
1006:Lib/AI_Runtime/Npu/ll_aton/ll_sw_float.c ****                         1, &gather_output_array, NULL)
1007:Lib/AI_Runtime/Npu/ll_aton/ll_sw_float.c ****   // tensor chain initialization
1008:Lib/AI_Runtime/Npu/ll_aton/ll_sw_float.c ****   AI_TENSOR_CHAIN_OBJ_DECLARE(gather_chain, , 4,
 3947              		.loc 1 1008 3 view .LVU1004
 3948 0086 04AD     		add	r5, sp, #16
 995:Lib/AI_Runtime/Npu/ll_aton/ll_sw_float.c ****                         SHAPE_INIT(sw_info->operand.dim.tensor_h, sw_info->operand.dim.tensor_w,
 3949              		.loc 1 995 3 view .LVU1005
 3950 0088 1E90     		str	r0, [sp, #120]
 3951 008a E06D     		ldr	r0, [r4, #92]
 3952 008c 1F90     		str	r0, [sp, #124]
 3953 008e 1CA8     		add	r0, sp, #112
 3954 0090 CDE93607 		strd	r0, r7, [sp, #216]
 3955 0094 E06F     		ldr	r0, [r4, #124]
 3956 0096 2090     		str	r0, [sp, #128]
 3957 0098 A06F     		ldr	r0, [r4, #120]
 3958 009a 2190     		str	r0, [sp, #132]
 3959 009c 606F     		ldr	r0, [r4, #116]
 3960 009e 2290     		str	r0, [sp, #136]
 3961 00a0 206F     		ldr	r0, [r4, #112]
 3962 00a2 2390     		str	r0, [sp, #140]
 3963 00a4 20A8     		add	r0, sp, #128
 3964 00a6 CDE93802 		strd	r0, r2, [sp, #224]
1001:Lib/AI_Runtime/Npu/ll_aton/ll_sw_float.c ****                         SHAPE_INIT(sw_info->general.output.dim.tensor_h, sw_info->general.output.di
 3965              		.loc 1 1001 3 is_stmt 1 view .LVU1006
ARM GAS  C:\Users\DJESSOU\AppData\Local\Temp\ccdFeyMS.s 			page 99


 3966 00aa E26B     		ldr	r2, [r4, #60]
 3967 00ac CDE93A1C 		strd	r1, ip, [sp, #232]
 3968 00b0 2492     		str	r2, [sp, #144]
 3969 00b2 A26B     		ldr	r2, [r4, #56]
 3970 00b4 3C96     		str	r6, [sp, #240]
 3971 00b6 2592     		str	r2, [sp, #148]
 3972 00b8 626B     		ldr	r2, [r4, #52]
1009:Lib/AI_Runtime/Npu/ll_aton/ll_sw_float.c ****                               AI_TENSOR_LIST_OBJ_INIT(AI_FLAG_NONE, 2, TENSORS(&input_output), TENS
1010:Lib/AI_Runtime/Npu/ll_aton/ll_sw_float.c ****                               AI_TENSOR_LIST_OBJ_INIT(AI_FLAG_NONE, 1, TENSORS(&gather_output)),
1011:Lib/AI_Runtime/Npu/ll_aton/ll_sw_float.c ****                               AI_TENSOR_LIST_OBJ_EMPTY, AI_TENSOR_LIST_OBJ_EMPTY)
1012:Lib/AI_Runtime/Npu/ll_aton/ll_sw_float.c ****   // LL_ATON_PRINTF("axis %d \n", sw_info->axis);
1013:Lib/AI_Runtime/Npu/ll_aton/ll_sw_float.c ****   // LL_ATON_PRINTF("index %d \n", *(int32_t *)(sw_info->operand.mem.start_offset));
1014:Lib/AI_Runtime/Npu/ll_aton/ll_sw_float.c ****   // LL_ATON_FFLUSH(stdout);
1015:Lib/AI_Runtime/Npu/ll_aton/ll_sw_float.c ****   AI_LAYER_OBJ_DECLARE(gather_layer, 1, GATHER_TYPE, 0x0, NULL, gather, forward_gather, &gather_cha
 3973              		.loc 1 1015 3 is_stmt 0 view .LVU1007
 3974 00ba 42A8     		add	r0, sp, #264
1001:Lib/AI_Runtime/Npu/ll_aton/ll_sw_float.c ****                         SHAPE_INIT(sw_info->general.output.dim.tensor_h, sw_info->general.output.di
 3975              		.loc 1 1001 3 view .LVU1008
 3976 00bc 2692     		str	r2, [sp, #152]
 3977 00be 226B     		ldr	r2, [r4, #48]
 3978 00c0 2792     		str	r2, [sp, #156]
 3979 00c2 24AA     		add	r2, sp, #144
 3980 00c4 CDE93D27 		strd	r2, r7, [sp, #244]
 3981 00c8 226D     		ldr	r2, [r4, #80]
 3982 00ca 2892     		str	r2, [sp, #160]
 3983 00cc E26C     		ldr	r2, [r4, #76]
 3984 00ce 2992     		str	r2, [sp, #164]
 3985 00d0 A26C     		ldr	r2, [r4, #72]
 3986 00d2 2A92     		str	r2, [sp, #168]
 3987 00d4 626C     		ldr	r2, [r4, #68]
 3988 00d6 2B92     		str	r2, [sp, #172]
 3989 00d8 28AA     		add	r2, sp, #160
 3990 00da CDE93F23 		strd	r2, r3, [sp, #252]
1008:Lib/AI_Runtime/Npu/ll_aton/ll_sw_float.c ****                               AI_TENSOR_LIST_OBJ_INIT(AI_FLAG_NONE, 2, TENSORS(&input_output), TENS
 3991              		.loc 1 1008 3 is_stmt 1 view .LVU1009
 3992 00de 0423     		movs	r3, #4
 3993 00e0 0493     		str	r3, [sp, #16]
 3994 00e2 0223     		movs	r3, #2
 3995 00e4 4A93     		str	r3, [sp, #296]
 3996 00e6 06AB     		add	r3, sp, #24
 3997 00e8 CDE94B31 		strd	r3, r1, [sp, #300]
 3998 00ec 0123     		movs	r3, #1
 3999 00ee 2CAA     		add	r2, sp, #176
 4000 00f0 0692     		str	r2, [sp, #24]
 4001 00f2 33AA     		add	r2, sp, #204
 4002 00f4 0792     		str	r2, [sp, #28]
 4003 00f6 4D93     		str	r3, [sp, #308]
 4004 00f8 3AAA     		add	r2, sp, #232
 4005 00fa 01AB     		add	r3, sp, #4
 4006 00fc 0192     		str	r2, [sp, #4]
 4007 00fe CDE94E31 		strd	r3, r1, [sp, #312]
 4008 0102 02AB     		add	r3, sp, #8
 4009 0104 CDE95131 		strd	r3, r1, [sp, #324]
 4010 0108 03AB     		add	r3, sp, #12
 4011 010a CDE95431 		strd	r3, r1, [sp, #336]
 4012 010e 4AAB     		add	r3, sp, #296
 4013 0110 0593     		str	r3, [sp, #20]
ARM GAS  C:\Users\DJESSOU\AppData\Local\Temp\ccdFeyMS.s 			page 100


 4014              		.loc 1 1015 3 view .LVU1010
 4015 0112 0F4B     		ldr	r3, .L110+8
 4016 0114 2022     		movs	r2, #32
1008:Lib/AI_Runtime/Npu/ll_aton/ll_sw_float.c ****                               AI_TENSOR_LIST_OBJ_INIT(AI_FLAG_NONE, 2, TENSORS(&input_output), TENS
 4017              		.loc 1 1008 3 is_stmt 0 view .LVU1011
 4018 0116 5091     		str	r1, [sp, #320]
 4019 0118 0291     		str	r1, [sp, #8]
 4020 011a 5391     		str	r1, [sp, #332]
 4021 011c 0391     		str	r1, [sp, #12]
 4022              		.loc 1 1015 3 view .LVU1012
 4023 011e 4193     		str	r3, [sp, #260]
 4024 0120 FFF7FEFF 		bl	memset
 4025              	.LVL180:
 4026 0124 0B4B     		ldr	r3, .L110+12
1016:Lib/AI_Runtime/Npu/ll_aton/ll_sw_float.c ****                        .axis = helper_emit_shape_index_axis(sw_info->axis), )
1017:Lib/AI_Runtime/Npu/ll_aton/ll_sw_float.c ****   gather_layer.forward(AI_LAYER_OBJ(&gather_layer));
 4027              		.loc 1 1017 3 view .LVU1013
 4028 0126 41A8     		add	r0, sp, #260
1015:Lib/AI_Runtime/Npu/ll_aton/ll_sw_float.c ****                        .axis = helper_emit_shape_index_axis(sw_info->axis), )
 4029              		.loc 1 1015 3 view .LVU1014
 4030 0128 CDE94635 		strd	r3, r5, [sp, #280]
 4031              	.LVL181:
 4032              	.LBB60:
 4033              	.LBI60:
  46:Lib/AI_Runtime/Npu/ll_aton/ll_sw_float.c **** {
 4034              		.loc 1 46 12 is_stmt 1 view .LVU1015
  48:Lib/AI_Runtime/Npu/ll_aton/ll_sw_float.c ****   {
 4035              		.loc 1 48 3 view .LVU1016
 4036 012c D4F88830 		ldr	r3, [r4, #136]
 4037 0130 032B     		cmp	r3, #3
 4038              	.LBE60:
1015:Lib/AI_Runtime/Npu/ll_aton/ll_sw_float.c ****                        .axis = helper_emit_shape_index_axis(sw_info->axis), )
 4039              		.loc 1 1015 3 is_stmt 0 view .LVU1017
 4040 0132 8EBF     		itee	hi
 4041 0134 4FF0FF33 		movhi	r3, #-1
 4042              	.LVL182:
1015:Lib/AI_Runtime/Npu/ll_aton/ll_sw_float.c ****                        .axis = helper_emit_shape_index_axis(sw_info->axis), )
 4043              		.loc 1 1015 3 view .LVU1018
 4044 0138 074A     		ldrls	r2, .L110+16
 4045 013a D356     		ldrsbls	r3, [r2, r3]
1015:Lib/AI_Runtime/Npu/ll_aton/ll_sw_float.c ****                        .axis = helper_emit_shape_index_axis(sw_info->axis), )
 4046              		.loc 1 1015 3 discriminator 1 view .LVU1019
 4047 013c ADF82031 		strh	r3, [sp, #288]	@ movhi
 4048              		.loc 1 1017 3 is_stmt 1 view .LVU1020
 4049 0140 FFF7FEFF 		bl	forward_gather
 4050              	.LVL183:
1018:Lib/AI_Runtime/Npu/ll_aton/ll_sw_float.c **** }
 4051              		.loc 1 1018 1 is_stmt 0 view .LVU1021
 4052 0144 57B0     		add	sp, sp, #348
 4053              		.cfi_def_cfa_offset 20
 4054              		@ sp needed
 4055 0146 F0BD     		pop	{r4, r5, r6, r7, pc}
 4056              	.LVL184:
 4057              	.L111:
 4058              		.loc 1 1018 1 view .LVU1022
 4059              		.align	2
 4060              	.L110:
ARM GAS  C:\Users\DJESSOU\AppData\Local\Temp\ccdFeyMS.s 			page 101


 4061 0148 40108200 		.word	8523840
 4062 014c 40108400 		.word	8654912
 4063 0150 1C010100 		.word	65820
 4064 0154 00000000 		.word	forward_gather
 4065 0158 00000000 		.word	CSWTCH.4
 4066              		.cfi_endproc
 4067              	.LFE25:
 4069              		.section	.text.ll_sw_forward_argmin,"ax",%progbits
 4070              		.align	1
 4071              		.global	ll_sw_forward_argmin
 4072              		.syntax unified
 4073              		.thumb
 4074              		.thumb_func
 4076              	ll_sw_forward_argmin:
 4077              	.LVL185:
 4078              	.LFB26:
1019:Lib/AI_Runtime/Npu/ll_aton/ll_sw_float.c **** 
1020:Lib/AI_Runtime/Npu/ll_aton/ll_sw_float.c **** //##########################################################################################
1021:Lib/AI_Runtime/Npu/ll_aton/ll_sw_float.c **** /** ArgMin forward function  */
1022:Lib/AI_Runtime/Npu/ll_aton/ll_sw_float.c **** void ll_sw_forward_argmin(/* int processor, */ void *sw_info_struct)
1023:Lib/AI_Runtime/Npu/ll_aton/ll_sw_float.c **** {
 4079              		.loc 1 1023 1 is_stmt 1 view -0
 4080              		.cfi_startproc
 4081              		@ args = 0, pretend = 0, frame = 256
 4082              		@ frame_needed = 0, uses_anonymous_args = 0
1024:Lib/AI_Runtime/Npu/ll_aton/ll_sw_float.c ****   Argmin_sw_info *sw_info = (Argmin_sw_info *)sw_info_struct;
 4083              		.loc 1 1024 3 view .LVU1024
1025:Lib/AI_Runtime/Npu/ll_aton/ll_sw_float.c ****   AI_ARRAY_OBJ_DECLARE(input_output_array, FORMAT, sw_info->general.input.mem.start_offset,
 4084              		.loc 1 1025 3 view .LVU1025
1023:Lib/AI_Runtime/Npu/ll_aton/ll_sw_float.c ****   Argmin_sw_info *sw_info = (Argmin_sw_info *)sw_info_struct;
 4085              		.loc 1 1023 1 is_stmt 0 view .LVU1026
 4086 0000 30B5     		push	{r4, r5, lr}
 4087              		.cfi_def_cfa_offset 12
 4088              		.cfi_offset 4, -12
 4089              		.cfi_offset 5, -8
 4090              		.cfi_offset 14, -4
 4091              		.loc 1 1025 3 view .LVU1027
 4092 0002 404B     		ldr	r3, .L115
1023:Lib/AI_Runtime/Npu/ll_aton/ll_sw_float.c ****   Argmin_sw_info *sw_info = (Argmin_sw_info *)sw_info_struct;
 4093              		.loc 1 1023 1 view .LVU1028
 4094 0004 C1B0     		sub	sp, sp, #260
 4095              		.cfi_def_cfa_offset 272
 4096              		.loc 1 1025 3 view .LVU1029
 4097 0006 0693     		str	r3, [sp, #24]
 4098 0008 4369     		ldr	r3, [r0, #20]
1026:Lib/AI_Runtime/Npu/ll_aton/ll_sw_float.c ****                        sw_info->general.input.mem.start_offset, sw_info->general.input.dim.num_elem
1027:Lib/AI_Runtime/Npu/ll_aton/ll_sw_float.c ****   AI_ARRAY_OBJ_DECLARE(argmin_output_array, AI_ARRAY_FORMAT_S32, sw_info->general.output.mem.start_
1028:Lib/AI_Runtime/Npu/ll_aton/ll_sw_float.c ****                        sw_info->general.output.mem.start_offset, sw_info->general.output.dim.num_el
1029:Lib/AI_Runtime/Npu/ll_aton/ll_sw_float.c ****   // tensor init
1030:Lib/AI_Runtime/Npu/ll_aton/ll_sw_float.c ****   AI_TENSOR_OBJ_DECLARE(input_output, , 0x0, 4,
 4099              		.loc 1 1030 3 view .LVU1030
 4100 000a 0269     		ldr	r2, [r0, #16]
1025:Lib/AI_Runtime/Npu/ll_aton/ll_sw_float.c ****                        sw_info->general.input.mem.start_offset, sw_info->general.input.dim.num_elem
 4101              		.loc 1 1025 3 view .LVU1031
 4102 000c 0793     		str	r3, [sp, #28]
 4103 000e 836A     		ldr	r3, [r0, #40]
 4104              		.loc 1 1030 3 view .LVU1032
ARM GAS  C:\Users\DJESSOU\AppData\Local\Temp\ccdFeyMS.s 			page 102


 4105 0010 0E92     		str	r2, [sp, #56]
 4106 0012 C268     		ldr	r2, [r0, #12]
1025:Lib/AI_Runtime/Npu/ll_aton/ll_sw_float.c ****                        sw_info->general.input.mem.start_offset, sw_info->general.input.dim.num_elem
 4107              		.loc 1 1025 3 view .LVU1033
 4108 0014 CDE90833 		strd	r3, r3, [sp, #32]
1027:Lib/AI_Runtime/Npu/ll_aton/ll_sw_float.c ****                        sw_info->general.output.mem.start_offset, sw_info->general.output.dim.num_el
 4109              		.loc 1 1027 3 is_stmt 1 view .LVU1034
 4110 0018 3B4B     		ldr	r3, .L115+4
 4111              		.loc 1 1030 3 is_stmt 0 view .LVU1035
 4112 001a 0F92     		str	r2, [sp, #60]
 4113 001c 8268     		ldr	r2, [r0, #8]
1027:Lib/AI_Runtime/Npu/ll_aton/ll_sw_float.c ****                        sw_info->general.output.mem.start_offset, sw_info->general.output.dim.num_el
 4114              		.loc 1 1027 3 view .LVU1036
 4115 001e 0A93     		str	r3, [sp, #40]
 4116 0020 036C     		ldr	r3, [r0, #64]
 4117              		.loc 1 1030 3 view .LVU1037
 4118 0022 1092     		str	r2, [sp, #64]
 4119 0024 4268     		ldr	r2, [r0, #4]
1027:Lib/AI_Runtime/Npu/ll_aton/ll_sw_float.c ****                        sw_info->general.output.mem.start_offset, sw_info->general.output.dim.num_el
 4120              		.loc 1 1027 3 view .LVU1038
 4121 0026 0B93     		str	r3, [sp, #44]
 4122 0028 436D     		ldr	r3, [r0, #84]
 4123              		.loc 1 1030 3 view .LVU1039
 4124 002a 1192     		str	r2, [sp, #68]
 4125 002c 0EAA     		add	r2, sp, #56
 4126 002e 4FF08274 		mov	r4, #17039360
 4127 0032 40F20141 		movw	r1, #1025
1027:Lib/AI_Runtime/Npu/ll_aton/ll_sw_float.c ****                        sw_info->general.output.mem.start_offset, sw_info->general.output.dim.num_el
 4128              		.loc 1 1027 3 view .LVU1040
 4129 0036 CDE90C33 		strd	r3, r3, [sp, #48]
 4130              		.loc 1 1030 3 is_stmt 1 view .LVU1041
 4131 003a 2192     		str	r2, [sp, #132]
 4132 003c 0023     		movs	r3, #0
 4133 003e 40F20242 		movw	r2, #1026
 4134 0042 456A     		ldr	r5, [r0, #36]
 4135 0044 CDE91E34 		strd	r3, r4, [sp, #120]
 4136 0048 1295     		str	r5, [sp, #72]
 4137 004a 056A     		ldr	r5, [r0, #32]
 4138 004c 2091     		str	r1, [sp, #128]
 4139 004e 2292     		str	r2, [sp, #136]
 4140 0050 1395     		str	r5, [sp, #76]
 4141 0052 C569     		ldr	r5, [r0, #28]
1031:Lib/AI_Runtime/Npu/ll_aton/ll_sw_float.c ****                         SHAPE_INIT(sw_info->general.input.dim.tensor_h, sw_info->general.input.dim.
1032:Lib/AI_Runtime/Npu/ll_aton/ll_sw_float.c ****                                    sw_info->general.input.dim.tensor_c, sw_info->general.input.dim.
1033:Lib/AI_Runtime/Npu/ll_aton/ll_sw_float.c ****                         STRIDE_INIT(sw_info->general.input.stride.h, sw_info->general.input.stride.
1034:Lib/AI_Runtime/Npu/ll_aton/ll_sw_float.c ****                                     sw_info->general.input.stride.c, sw_info->general.input.stride.
1035:Lib/AI_Runtime/Npu/ll_aton/ll_sw_float.c ****                         1, &input_output_array, NULL)
1036:Lib/AI_Runtime/Npu/ll_aton/ll_sw_float.c ****   AI_TENSOR_OBJ_DECLARE(argmin_output, , 0x0, 4,
 4142              		.loc 1 1036 3 is_stmt 0 view .LVU1042
 4143 0054 CDE92641 		strd	r4, r1, [sp, #152]
 4144 0058 C16B     		ldr	r1, [r0, #60]
1030:Lib/AI_Runtime/Npu/ll_aton/ll_sw_float.c ****                         SHAPE_INIT(sw_info->general.input.dim.tensor_h, sw_info->general.input.dim.
 4145              		.loc 1 1030 3 view .LVU1043
 4146 005a 1495     		str	r5, [sp, #80]
 4147              		.loc 1 1036 3 view .LVU1044
 4148 005c 1691     		str	r1, [sp, #88]
 4149 005e 816B     		ldr	r1, [r0, #56]
ARM GAS  C:\Users\DJESSOU\AppData\Local\Temp\ccdFeyMS.s 			page 103


1030:Lib/AI_Runtime/Npu/ll_aton/ll_sw_float.c ****                         SHAPE_INIT(sw_info->general.input.dim.tensor_h, sw_info->general.input.dim.
 4150              		.loc 1 1030 3 view .LVU1045
 4151 0060 8569     		ldr	r5, [r0, #24]
 4152              		.loc 1 1036 3 view .LVU1046
 4153 0062 1791     		str	r1, [sp, #92]
 4154 0064 416B     		ldr	r1, [r0, #52]
1030:Lib/AI_Runtime/Npu/ll_aton/ll_sw_float.c ****                         SHAPE_INIT(sw_info->general.input.dim.tensor_h, sw_info->general.input.dim.
 4155              		.loc 1 1030 3 view .LVU1047
 4156 0066 1595     		str	r5, [sp, #84]
 4157              		.loc 1 1036 3 view .LVU1048
 4158 0068 1891     		str	r1, [sp, #96]
 4159 006a 016B     		ldr	r1, [r0, #48]
1030:Lib/AI_Runtime/Npu/ll_aton/ll_sw_float.c ****                         SHAPE_INIT(sw_info->general.input.dim.tensor_h, sw_info->general.input.dim.
 4160              		.loc 1 1030 3 view .LVU1049
 4161 006c 12AD     		add	r5, sp, #72
 4162              		.loc 1 1036 3 view .LVU1050
 4163 006e 1991     		str	r1, [sp, #100]
 4164 0070 16A9     		add	r1, sp, #88
 4165 0072 CDE92812 		strd	r1, r2, [sp, #160]
 4166 0076 026D     		ldr	r2, [r0, #80]
1030:Lib/AI_Runtime/Npu/ll_aton/ll_sw_float.c ****                         SHAPE_INIT(sw_info->general.input.dim.tensor_h, sw_info->general.input.dim.
 4167              		.loc 1 1030 3 view .LVU1051
 4168 0078 2395     		str	r5, [sp, #140]
 4169              		.loc 1 1036 3 view .LVU1052
 4170 007a 1A92     		str	r2, [sp, #104]
 4171 007c C26C     		ldr	r2, [r0, #76]
1037:Lib/AI_Runtime/Npu/ll_aton/ll_sw_float.c ****                         SHAPE_INIT(sw_info->general.output.dim.tensor_h, sw_info->general.output.di
1038:Lib/AI_Runtime/Npu/ll_aton/ll_sw_float.c ****                                    sw_info->general.output.dim.tensor_c, sw_info->general.output.di
1039:Lib/AI_Runtime/Npu/ll_aton/ll_sw_float.c ****                         STRIDE_INIT(sw_info->general.output.stride.h, sw_info->general.output.strid
1040:Lib/AI_Runtime/Npu/ll_aton/ll_sw_float.c ****                                     sw_info->general.output.stride.c, sw_info->general.output.strid
1041:Lib/AI_Runtime/Npu/ll_aton/ll_sw_float.c ****                         1, &argmin_output_array, NULL)
1042:Lib/AI_Runtime/Npu/ll_aton/ll_sw_float.c ****   // tensor chain initialization
1043:Lib/AI_Runtime/Npu/ll_aton/ll_sw_float.c ****   AI_TENSOR_CHAIN_OBJ_DECLARE(argmin_chain, , 4, AI_TENSOR_LIST_OBJ_INIT(AI_FLAG_NONE, 1, TENSORS(&
 4172              		.loc 1 1043 3 view .LVU1053
 4173 007e 1EA9     		add	r1, sp, #120
1036:Lib/AI_Runtime/Npu/ll_aton/ll_sw_float.c ****                         SHAPE_INIT(sw_info->general.output.dim.tensor_h, sw_info->general.output.di
 4174              		.loc 1 1036 3 view .LVU1054
 4175 0080 1B92     		str	r2, [sp, #108]
 4176 0082 826C     		ldr	r2, [r0, #72]
1030:Lib/AI_Runtime/Npu/ll_aton/ll_sw_float.c ****                         SHAPE_INIT(sw_info->general.input.dim.tensor_h, sw_info->general.input.dim.
 4177              		.loc 1 1030 3 view .LVU1055
 4178 0084 06AD     		add	r5, sp, #24
1036:Lib/AI_Runtime/Npu/ll_aton/ll_sw_float.c ****                         SHAPE_INIT(sw_info->general.output.dim.tensor_h, sw_info->general.output.di
 4179              		.loc 1 1036 3 view .LVU1056
 4180 0086 1C92     		str	r2, [sp, #112]
 4181 0088 426C     		ldr	r2, [r0, #68]
 4182 008a CDE92453 		strd	r5, r3, [sp, #144]
 4183 008e 1D92     		str	r2, [sp, #116]
 4184 0090 1AAA     		add	r2, sp, #104
 4185 0092 2A92     		str	r2, [sp, #168]
 4186 0094 0AAA     		add	r2, sp, #40
 4187 0096 2B92     		str	r2, [sp, #172]
 4188              		.loc 1 1043 3 is_stmt 1 view .LVU1057
 4189 0098 0422     		movs	r2, #4
 4190 009a 0492     		str	r2, [sp, #16]
 4191 009c 0122     		movs	r2, #1
 4192 009e 0091     		str	r1, [sp]
ARM GAS  C:\Users\DJESSOU\AppData\Local\Temp\ccdFeyMS.s 			page 104


 4193 00a0 3492     		str	r2, [sp, #208]
 4194 00a2 CDF8D4D0 		str	sp, [sp, #212]
 4195 00a6 CDE93632 		strd	r3, r2, [sp, #216]
 4196 00aa 25AA     		add	r2, sp, #148
 4197 00ac 0192     		str	r2, [sp, #4]
 4198 00ae 01AA     		add	r2, sp, #4
 4199 00b0 CDE93823 		strd	r2, r3, [sp, #224]
 4200 00b4 02AA     		add	r2, sp, #8
 4201 00b6 CDE93B23 		strd	r2, r3, [sp, #236]
 4202 00ba 03AA     		add	r2, sp, #12
 4203 00bc CDE93E23 		strd	r2, r3, [sp, #248]
 4204 00c0 34AA     		add	r2, sp, #208
 4205 00c2 0592     		str	r2, [sp, #20]
1044:Lib/AI_Runtime/Npu/ll_aton/ll_sw_float.c ****                               AI_TENSOR_LIST_OBJ_INIT(AI_FLAG_NONE, 1, TENSORS(&argmin_output)),
1045:Lib/AI_Runtime/Npu/ll_aton/ll_sw_float.c ****                               AI_TENSOR_LIST_OBJ_EMPTY, AI_TENSOR_LIST_OBJ_EMPTY)
1046:Lib/AI_Runtime/Npu/ll_aton/ll_sw_float.c **** 
1047:Lib/AI_Runtime/Npu/ll_aton/ll_sw_float.c ****   AI_LAYER_OBJ_DECLARE(argmin_layer, 1, ARGMINMAX_TYPE, 0x0, NULL, argminmax, forward_argmin, &argm
 4206              		.loc 1 1047 3 view .LVU1058
 4207 00c4 114A     		ldr	r2, .L115+8
 4208 00c6 CDE92E33 		strd	r3, r3, [sp, #184]
 4209 00ca CDE92C23 		strd	r2, r3, [sp, #176]
1043:Lib/AI_Runtime/Npu/ll_aton/ll_sw_float.c ****                               AI_TENSOR_LIST_OBJ_INIT(AI_FLAG_NONE, 1, TENSORS(&argmin_output)),
 4210              		.loc 1 1043 3 is_stmt 0 view .LVU1059
 4211 00ce 3A93     		str	r3, [sp, #232]
 4212 00d0 0293     		str	r3, [sp, #8]
 4213 00d2 3D93     		str	r3, [sp, #244]
 4214 00d4 0393     		str	r3, [sp, #12]
 4215              		.loc 1 1047 3 view .LVU1060
 4216 00d6 3093     		str	r3, [sp, #192]
 4217 00d8 0D4B     		ldr	r3, .L115+12
 4218 00da 3193     		str	r3, [sp, #196]
 4219 00dc 04AB     		add	r3, sp, #16
 4220 00de 3293     		str	r3, [sp, #200]
 4221              	.LVL186:
 4222              	.LBB63:
 4223              	.LBI63:
  46:Lib/AI_Runtime/Npu/ll_aton/ll_sw_float.c **** {
 4224              		.loc 1 46 12 is_stmt 1 view .LVU1061
  48:Lib/AI_Runtime/Npu/ll_aton/ll_sw_float.c ****   {
 4225              		.loc 1 48 3 view .LVU1062
 4226 00e0 C36D     		ldr	r3, [r0, #92]
 4227 00e2 032B     		cmp	r3, #3
 4228              	.LBE63:
 4229              		.loc 1 1047 3 is_stmt 0 view .LVU1063
 4230 00e4 8EBF     		itee	hi
 4231 00e6 4FF0FF33 		movhi	r3, #-1
 4232              	.LVL187:
 4233              		.loc 1 1047 3 view .LVU1064
 4234 00ea 0A4A     		ldrls	r2, .L115+16
 4235 00ec D356     		ldrsbls	r3, [r2, r3]
 4236              		.loc 1 1047 3 discriminator 1 view .LVU1065
 4237 00ee ADF8CC30 		strh	r3, [sp, #204]	@ movhi
 4238 00f2 436E     		ldr	r3, [r0, #100]
1048:Lib/AI_Runtime/Npu/ll_aton/ll_sw_float.c ****                        , .axis = helper_emit_shape_index_axis(sw_info->axis),
1049:Lib/AI_Runtime/Npu/ll_aton/ll_sw_float.c ****                        .select_last_index = sw_info->select_last_index, )
1050:Lib/AI_Runtime/Npu/ll_aton/ll_sw_float.c ****   argmin_layer.forward(AI_LAYER_OBJ(&argmin_layer));
 4239              		.loc 1 1050 3 view .LVU1066
ARM GAS  C:\Users\DJESSOU\AppData\Local\Temp\ccdFeyMS.s 			page 105


 4240 00f4 2CA8     		add	r0, sp, #176
 4241              	.LVL188:
1047:Lib/AI_Runtime/Npu/ll_aton/ll_sw_float.c ****                        , .axis = helper_emit_shape_index_axis(sw_info->axis),
 4242              		.loc 1 1047 3 discriminator 1 view .LVU1067
 4243 00f6 ADF8CE30 		strh	r3, [sp, #206]	@ movhi
 4244              		.loc 1 1050 3 is_stmt 1 view .LVU1068
 4245 00fa FFF7FEFF 		bl	forward_argmin
 4246              	.LVL189:
1051:Lib/AI_Runtime/Npu/ll_aton/ll_sw_float.c **** }
 4247              		.loc 1 1051 1 is_stmt 0 view .LVU1069
 4248 00fe 41B0     		add	sp, sp, #260
 4249              		.cfi_def_cfa_offset 12
 4250              		@ sp needed
 4251 0100 30BD     		pop	{r4, r5, pc}
 4252              	.L116:
 4253 0102 00BF     		.align	2
 4254              	.L115:
 4255 0104 40108200 		.word	8523840
 4256 0108 40108400 		.word	8654912
 4257 010c 1F010100 		.word	65823
 4258 0110 00000000 		.word	forward_argmin
 4259 0114 00000000 		.word	CSWTCH.4
 4260              		.cfi_endproc
 4261              	.LFE26:
 4263              		.section	.text.ll_sw_forward_reduce,"ax",%progbits
 4264              		.align	1
 4265              		.global	ll_sw_forward_reduce
 4266              		.syntax unified
 4267              		.thumb
 4268              		.thumb_func
 4270              	ll_sw_forward_reduce:
 4271              	.LVL190:
 4272              	.LFB27:
1052:Lib/AI_Runtime/Npu/ll_aton/ll_sw_float.c **** 
1053:Lib/AI_Runtime/Npu/ll_aton/ll_sw_float.c **** //##########################################################################################
1054:Lib/AI_Runtime/Npu/ll_aton/ll_sw_float.c **** /** Reduce forward function  */
1055:Lib/AI_Runtime/Npu/ll_aton/ll_sw_float.c **** void ll_sw_forward_reduce(/* int processor, */ void *sw_info_struct)
1056:Lib/AI_Runtime/Npu/ll_aton/ll_sw_float.c **** {
 4273              		.loc 1 1056 1 is_stmt 1 view -0
 4274              		.cfi_startproc
 4275              		@ args = 0, pretend = 0, frame = 280
 4276              		@ frame_needed = 0, uses_anonymous_args = 0
1057:Lib/AI_Runtime/Npu/ll_aton/ll_sw_float.c ****   Reduce_sw_info *sw_info = (Reduce_sw_info *)sw_info_struct;
 4277              		.loc 1 1057 3 view .LVU1071
1058:Lib/AI_Runtime/Npu/ll_aton/ll_sw_float.c ****   AI_ARRAY_OBJ_DECLARE(input_output_array, FORMAT, sw_info->general.input.mem.start_offset,
 4278              		.loc 1 1058 3 view .LVU1072
1056:Lib/AI_Runtime/Npu/ll_aton/ll_sw_float.c ****   Reduce_sw_info *sw_info = (Reduce_sw_info *)sw_info_struct;
 4279              		.loc 1 1056 1 is_stmt 0 view .LVU1073
 4280 0000 70B5     		push	{r4, r5, r6, lr}
 4281              		.cfi_def_cfa_offset 16
 4282              		.cfi_offset 4, -16
 4283              		.cfi_offset 5, -12
 4284              		.cfi_offset 6, -8
 4285              		.cfi_offset 14, -4
1059:Lib/AI_Runtime/Npu/ll_aton/ll_sw_float.c ****                        sw_info->general.input.mem.start_offset, sw_info->general.input.dim.num_elem
1060:Lib/AI_Runtime/Npu/ll_aton/ll_sw_float.c ****   AI_ARRAY_OBJ_DECLARE(reduce_output_array, FORMAT, sw_info->general.output.mem.start_offset,
1061:Lib/AI_Runtime/Npu/ll_aton/ll_sw_float.c ****                        sw_info->general.output.mem.start_offset, sw_info->general.output.dim.num_el
ARM GAS  C:\Users\DJESSOU\AppData\Local\Temp\ccdFeyMS.s 			page 106


1062:Lib/AI_Runtime/Npu/ll_aton/ll_sw_float.c ****   // tensor init
1063:Lib/AI_Runtime/Npu/ll_aton/ll_sw_float.c ****   AI_TENSOR_OBJ_DECLARE(input_output, , 0x0, 4,
 4286              		.loc 1 1063 3 view .LVU1074
 4287 0002 0269     		ldr	r2, [r0, #16]
1056:Lib/AI_Runtime/Npu/ll_aton/ll_sw_float.c ****   Reduce_sw_info *sw_info = (Reduce_sw_info *)sw_info_struct;
 4288              		.loc 1 1056 1 view .LVU1075
 4289 0004 C6B0     		sub	sp, sp, #280
 4290              		.cfi_def_cfa_offset 296
1058:Lib/AI_Runtime/Npu/ll_aton/ll_sw_float.c ****                        sw_info->general.input.mem.start_offset, sw_info->general.input.dim.num_elem
 4291              		.loc 1 1058 3 view .LVU1076
 4292 0006 4369     		ldr	r3, [r0, #20]
 4293              		.loc 1 1063 3 view .LVU1077
 4294 0008 0F92     		str	r2, [sp, #60]
 4295 000a C268     		ldr	r2, [r0, #12]
1058:Lib/AI_Runtime/Npu/ll_aton/ll_sw_float.c ****                        sw_info->general.input.mem.start_offset, sw_info->general.input.dim.num_elem
 4296              		.loc 1 1058 3 view .LVU1078
 4297 000c 0893     		str	r3, [sp, #32]
 4298 000e 836A     		ldr	r3, [r0, #40]
 4299              		.loc 1 1063 3 view .LVU1079
 4300 0010 1092     		str	r2, [sp, #64]
 4301 0012 8268     		ldr	r2, [r0, #8]
1058:Lib/AI_Runtime/Npu/ll_aton/ll_sw_float.c ****                        sw_info->general.input.mem.start_offset, sw_info->general.input.dim.num_elem
 4302              		.loc 1 1058 3 view .LVU1080
 4303 0014 CDE90933 		strd	r3, r3, [sp, #36]
1060:Lib/AI_Runtime/Npu/ll_aton/ll_sw_float.c ****                        sw_info->general.output.mem.start_offset, sw_info->general.output.dim.num_el
 4304              		.loc 1 1060 3 is_stmt 1 view .LVU1081
 4305 0018 036C     		ldr	r3, [r0, #64]
 4306              		.loc 1 1063 3 is_stmt 0 view .LVU1082
 4307 001a 1192     		str	r2, [sp, #68]
 4308 001c 4268     		ldr	r2, [r0, #4]
1060:Lib/AI_Runtime/Npu/ll_aton/ll_sw_float.c ****                        sw_info->general.output.mem.start_offset, sw_info->general.output.dim.num_el
 4309              		.loc 1 1060 3 view .LVU1083
 4310 001e 0C93     		str	r3, [sp, #48]
 4311 0020 436D     		ldr	r3, [r0, #84]
 4312              		.loc 1 1063 3 view .LVU1084
 4313 0022 1292     		str	r2, [sp, #72]
 4314 0024 0FAA     		add	r2, sp, #60
 4315 0026 4FF08275 		mov	r5, #17039360
 4316 002a 40F20141 		movw	r1, #1025
1060:Lib/AI_Runtime/Npu/ll_aton/ll_sw_float.c ****                        sw_info->general.output.mem.start_offset, sw_info->general.output.dim.num_el
 4317              		.loc 1 1060 3 view .LVU1085
 4318 002e CDE90D33 		strd	r3, r3, [sp, #52]
 4319              		.loc 1 1063 3 is_stmt 1 view .LVU1086
 4320 0032 2692     		str	r2, [sp, #152]
 4321 0034 0023     		movs	r3, #0
 4322 0036 40F20242 		movw	r2, #1026
 4323 003a 466A     		ldr	r6, [r0, #36]
1058:Lib/AI_Runtime/Npu/ll_aton/ll_sw_float.c ****                        sw_info->general.input.mem.start_offset, sw_info->general.input.dim.num_elem
 4324              		.loc 1 1058 3 is_stmt 0 view .LVU1087
 4325 003c 424C     		ldr	r4, .L124
 4326              		.loc 1 1063 3 view .LVU1088
 4327 003e 1396     		str	r6, [sp, #76]
 4328 0040 066A     		ldr	r6, [r0, #32]
 4329 0042 CDE92335 		strd	r3, r5, [sp, #140]
 4330 0046 2591     		str	r1, [sp, #148]
 4331 0048 2792     		str	r2, [sp, #156]
1058:Lib/AI_Runtime/Npu/ll_aton/ll_sw_float.c ****                        sw_info->general.input.mem.start_offset, sw_info->general.input.dim.num_elem
ARM GAS  C:\Users\DJESSOU\AppData\Local\Temp\ccdFeyMS.s 			page 107


 4332              		.loc 1 1058 3 view .LVU1089
 4333 004a 0794     		str	r4, [sp, #28]
1060:Lib/AI_Runtime/Npu/ll_aton/ll_sw_float.c ****                        sw_info->general.output.mem.start_offset, sw_info->general.output.dim.num_el
 4334              		.loc 1 1060 3 view .LVU1090
 4335 004c 0B94     		str	r4, [sp, #44]
 4336              		.loc 1 1063 3 view .LVU1091
 4337 004e 1496     		str	r6, [sp, #80]
 4338 0050 C669     		ldr	r6, [r0, #28]
1064:Lib/AI_Runtime/Npu/ll_aton/ll_sw_float.c ****                         SHAPE_INIT(sw_info->general.input.dim.tensor_h, sw_info->general.input.dim.
1065:Lib/AI_Runtime/Npu/ll_aton/ll_sw_float.c ****                                    sw_info->general.input.dim.tensor_c, sw_info->general.input.dim.
1066:Lib/AI_Runtime/Npu/ll_aton/ll_sw_float.c ****                         STRIDE_INIT(sw_info->general.input.stride.h, sw_info->general.input.stride.
1067:Lib/AI_Runtime/Npu/ll_aton/ll_sw_float.c ****                                     sw_info->general.input.stride.c, sw_info->general.input.stride.
1068:Lib/AI_Runtime/Npu/ll_aton/ll_sw_float.c ****                         1, &input_output_array, NULL)
1069:Lib/AI_Runtime/Npu/ll_aton/ll_sw_float.c ****   AI_TENSOR_OBJ_DECLARE(reduce_output, , 0x0, 4,
 4339              		.loc 1 1069 3 view .LVU1092
 4340 0052 CDE92B51 		strd	r5, r1, [sp, #172]
 4341 0056 C16B     		ldr	r1, [r0, #60]
1063:Lib/AI_Runtime/Npu/ll_aton/ll_sw_float.c ****                         SHAPE_INIT(sw_info->general.input.dim.tensor_h, sw_info->general.input.dim.
 4342              		.loc 1 1063 3 view .LVU1093
 4343 0058 1596     		str	r6, [sp, #84]
 4344              		.loc 1 1069 3 view .LVU1094
 4345 005a 1791     		str	r1, [sp, #92]
 4346 005c 816B     		ldr	r1, [r0, #56]
1063:Lib/AI_Runtime/Npu/ll_aton/ll_sw_float.c ****                         SHAPE_INIT(sw_info->general.input.dim.tensor_h, sw_info->general.input.dim.
 4347              		.loc 1 1063 3 view .LVU1095
 4348 005e 8669     		ldr	r6, [r0, #24]
 4349              		.loc 1 1069 3 view .LVU1096
 4350 0060 1891     		str	r1, [sp, #96]
 4351 0062 416B     		ldr	r1, [r0, #52]
1063:Lib/AI_Runtime/Npu/ll_aton/ll_sw_float.c ****                         SHAPE_INIT(sw_info->general.input.dim.tensor_h, sw_info->general.input.dim.
 4352              		.loc 1 1063 3 view .LVU1097
 4353 0064 1696     		str	r6, [sp, #88]
 4354              		.loc 1 1069 3 view .LVU1098
 4355 0066 1991     		str	r1, [sp, #100]
 4356 0068 016B     		ldr	r1, [r0, #48]
1063:Lib/AI_Runtime/Npu/ll_aton/ll_sw_float.c ****                         SHAPE_INIT(sw_info->general.input.dim.tensor_h, sw_info->general.input.dim.
 4357              		.loc 1 1063 3 view .LVU1099
 4358 006a 13AE     		add	r6, sp, #76
 4359              		.loc 1 1069 3 view .LVU1100
 4360 006c 1A91     		str	r1, [sp, #104]
 4361 006e 17A9     		add	r1, sp, #92
 4362 0070 CDE92D12 		strd	r1, r2, [sp, #180]
 4363 0074 026D     		ldr	r2, [r0, #80]
1070:Lib/AI_Runtime/Npu/ll_aton/ll_sw_float.c ****                         SHAPE_INIT(sw_info->general.output.dim.tensor_h, sw_info->general.output.di
1071:Lib/AI_Runtime/Npu/ll_aton/ll_sw_float.c ****                                    sw_info->general.output.dim.tensor_c, sw_info->general.output.di
1072:Lib/AI_Runtime/Npu/ll_aton/ll_sw_float.c ****                         STRIDE_INIT(sw_info->general.output.stride.h, sw_info->general.output.strid
1073:Lib/AI_Runtime/Npu/ll_aton/ll_sw_float.c ****                                     sw_info->general.output.stride.c, sw_info->general.output.strid
1074:Lib/AI_Runtime/Npu/ll_aton/ll_sw_float.c ****                         1, &reduce_output_array, NULL)
1075:Lib/AI_Runtime/Npu/ll_aton/ll_sw_float.c ****   // tensor chain initialization
1076:Lib/AI_Runtime/Npu/ll_aton/ll_sw_float.c ****   AI_TENSOR_CHAIN_OBJ_DECLARE(reduce_chain, , 4, AI_TENSOR_LIST_OBJ_INIT(AI_FLAG_NONE, 1, TENSORS(&
 4364              		.loc 1 1076 3 view .LVU1101
 4365 0076 05A9     		add	r1, sp, #20
1069:Lib/AI_Runtime/Npu/ll_aton/ll_sw_float.c ****                         SHAPE_INIT(sw_info->general.output.dim.tensor_h, sw_info->general.output.di
 4366              		.loc 1 1069 3 view .LVU1102
 4367 0078 1B92     		str	r2, [sp, #108]
 4368 007a C26C     		ldr	r2, [r0, #76]
1063:Lib/AI_Runtime/Npu/ll_aton/ll_sw_float.c ****                         SHAPE_INIT(sw_info->general.input.dim.tensor_h, sw_info->general.input.dim.
ARM GAS  C:\Users\DJESSOU\AppData\Local\Temp\ccdFeyMS.s 			page 108


 4369              		.loc 1 1063 3 view .LVU1103
 4370 007c 2896     		str	r6, [sp, #160]
1069:Lib/AI_Runtime/Npu/ll_aton/ll_sw_float.c ****                         SHAPE_INIT(sw_info->general.output.dim.tensor_h, sw_info->general.output.di
 4371              		.loc 1 1069 3 view .LVU1104
 4372 007e 1C92     		str	r2, [sp, #112]
 4373 0080 826C     		ldr	r2, [r0, #72]
 4374              		.loc 1 1076 3 view .LVU1105
 4375 0082 23AD     		add	r5, sp, #140
1069:Lib/AI_Runtime/Npu/ll_aton/ll_sw_float.c ****                         SHAPE_INIT(sw_info->general.output.dim.tensor_h, sw_info->general.output.di
 4376              		.loc 1 1069 3 view .LVU1106
 4377 0084 1D92     		str	r2, [sp, #116]
 4378 0086 426C     		ldr	r2, [r0, #68]
1063:Lib/AI_Runtime/Npu/ll_aton/ll_sw_float.c ****                         SHAPE_INIT(sw_info->general.input.dim.tensor_h, sw_info->general.input.dim.
 4379              		.loc 1 1063 3 view .LVU1107
 4380 0088 07AE     		add	r6, sp, #28
1069:Lib/AI_Runtime/Npu/ll_aton/ll_sw_float.c ****                         SHAPE_INIT(sw_info->general.output.dim.tensor_h, sw_info->general.output.di
 4381              		.loc 1 1069 3 view .LVU1108
 4382 008a 1E92     		str	r2, [sp, #120]
 4383 008c 1BAA     		add	r2, sp, #108
 4384 008e 2F92     		str	r2, [sp, #188]
 4385 0090 0BAA     		add	r2, sp, #44
 4386 0092 3092     		str	r2, [sp, #192]
 4387              		.loc 1 1076 3 is_stmt 1 view .LVU1109
 4388 0094 0422     		movs	r2, #4
 4389 0096 0A60     		str	r2, [r1]
 4390 0098 0122     		movs	r2, #1
 4391 009a 0095     		str	r5, [sp]
 4392 009c 3A92     		str	r2, [sp, #232]
1069:Lib/AI_Runtime/Npu/ll_aton/ll_sw_float.c ****                         SHAPE_INIT(sw_info->general.output.dim.tensor_h, sw_info->general.output.di
 4393              		.loc 1 1069 3 is_stmt 0 view .LVU1110
 4394 009e CDE92963 		strd	r6, r3, [sp, #164]
 4395              		.loc 1 1076 3 view .LVU1111
 4396 00a2 CDF8ECD0 		str	sp, [sp, #236]
 4397 00a6 CDE93C32 		strd	r3, r2, [sp, #240]
 4398 00aa 01AA     		add	r2, sp, #4
 4399 00ac CDE93E23 		strd	r2, r3, [sp, #248]
 4400 00b0 02AA     		add	r2, sp, #8
 4401 00b2 CDE94123 		strd	r2, r3, [sp, #260]
 4402 00b6 03AA     		add	r2, sp, #12
 4403 00b8 CDE94423 		strd	r2, r3, [sp, #272]
 4404 00bc 3AAA     		add	r2, sp, #232
 4405 00be 4A60     		str	r2, [r1, #4]
1077:Lib/AI_Runtime/Npu/ll_aton/ll_sw_float.c ****                               AI_TENSOR_LIST_OBJ_INIT(AI_FLAG_NONE, 1, TENSORS(&reduce_output)),
1078:Lib/AI_Runtime/Npu/ll_aton/ll_sw_float.c ****                               AI_TENSOR_LIST_OBJ_EMPTY, AI_TENSOR_LIST_OBJ_EMPTY)
1079:Lib/AI_Runtime/Npu/ll_aton/ll_sw_float.c **** 
1080:Lib/AI_Runtime/Npu/ll_aton/ll_sw_float.c ****   if (sw_info->general.type == LL_SW_REDUCELOGSUMEXP)
 4406              		.loc 1 1080 3 is_stmt 1 view .LVU1112
 4407              		.loc 1 1080 23 is_stmt 0 view .LVU1113
 4408 00c0 0278     		ldrb	r2, [r0]	@ zero_extendqisi2
1076:Lib/AI_Runtime/Npu/ll_aton/ll_sw_float.c ****                               AI_TENSOR_LIST_OBJ_INIT(AI_FLAG_NONE, 1, TENSORS(&reduce_output)),
 4409              		.loc 1 1076 3 view .LVU1114
 4410 00c2 2AAD     		add	r5, sp, #168
 4411              		.loc 1 1080 6 view .LVU1115
 4412 00c4 502A     		cmp	r2, #80
1076:Lib/AI_Runtime/Npu/ll_aton/ll_sw_float.c ****                               AI_TENSOR_LIST_OBJ_INIT(AI_FLAG_NONE, 1, TENSORS(&reduce_output)),
 4413              		.loc 1 1076 3 view .LVU1116
 4414 00c6 0195     		str	r5, [sp, #4]
ARM GAS  C:\Users\DJESSOU\AppData\Local\Temp\ccdFeyMS.s 			page 109


 4415 00c8 4093     		str	r3, [sp, #256]
 4416 00ca 0293     		str	r3, [sp, #8]
 4417 00cc 4393     		str	r3, [sp, #268]
 4418 00ce 0393     		str	r3, [sp, #12]
 4419              		.loc 1 1080 6 view .LVU1117
 4420 00d0 15D1     		bne	.L118
 4421              	.LBB68:
1081:Lib/AI_Runtime/Npu/ll_aton/ll_sw_float.c ****   {
1082:Lib/AI_Runtime/Npu/ll_aton/ll_sw_float.c ****     AI_LAYER_OBJ_DECLARE(reduce_layer, 1, REDUCE_TYPE, 0x0, NULL, reduce_log_sum_exp, forward_reduc
 4422              		.loc 1 1082 5 is_stmt 1 view .LVU1118
 4423 00d2 1E4A     		ldr	r2, .L124+4
 4424 00d4 CDE93333 		strd	r3, r3, [sp, #204]
 4425 00d8 CDE93123 		strd	r2, r3, [sp, #196]
 4426 00dc 3593     		str	r3, [sp, #212]
 4427 00de 1C4B     		ldr	r3, .L124+8
 4428 00e0 CDE93631 		strd	r3, r1, [sp, #216]
 4429              	.LVL191:
 4430              	.LBB69:
 4431              	.LBI69:
  46:Lib/AI_Runtime/Npu/ll_aton/ll_sw_float.c **** {
 4432              		.loc 1 46 12 view .LVU1119
  48:Lib/AI_Runtime/Npu/ll_aton/ll_sw_float.c ****   {
 4433              		.loc 1 48 3 view .LVU1120
 4434 00e4 C36D     		ldr	r3, [r0, #92]
 4435              	.LBE69:
1083:Lib/AI_Runtime/Npu/ll_aton/ll_sw_float.c ****                          &reduce_chain, NULL, NULL, , .axis = helper_emit_shape_index_axis(sw_info-
1084:Lib/AI_Runtime/Npu/ll_aton/ll_sw_float.c ****     reduce_layer.forward(AI_LAYER_OBJ(&reduce_layer));
 4436              		.loc 1 1084 5 is_stmt 0 view .LVU1121
 4437 00e6 31A8     		add	r0, sp, #196
 4438              	.LVL192:
 4439              		.loc 1 1084 5 view .LVU1122
 4440 00e8 032B     		cmp	r3, #3
1082:Lib/AI_Runtime/Npu/ll_aton/ll_sw_float.c ****                          &reduce_chain, NULL, NULL, , .axis = helper_emit_shape_index_axis(sw_info-
 4441              		.loc 1 1082 5 view .LVU1123
 4442 00ea 8EBF     		itee	hi
 4443 00ec 4FF0FF33 		movhi	r3, #-1
 4444              	.LVL193:
1082:Lib/AI_Runtime/Npu/ll_aton/ll_sw_float.c ****                          &reduce_chain, NULL, NULL, , .axis = helper_emit_shape_index_axis(sw_info-
 4445              		.loc 1 1082 5 view .LVU1124
 4446 00f0 184A     		ldrls	r2, .L124+12
 4447 00f2 D356     		ldrsbls	r3, [r2, r3]
1082:Lib/AI_Runtime/Npu/ll_aton/ll_sw_float.c ****                          &reduce_chain, NULL, NULL, , .axis = helper_emit_shape_index_axis(sw_info-
 4448              		.loc 1 1082 5 discriminator 1 view .LVU1125
 4449 00f4 3893     		str	r3, [sp, #224]
 4450              		.loc 1 1084 5 is_stmt 1 view .LVU1126
 4451 00f6 FFF7FEFF 		bl	forward_reduce_log_sum_exp
 4452              	.LVL194:
 4453              	.L117:
 4454              	.LBE68:
1085:Lib/AI_Runtime/Npu/ll_aton/ll_sw_float.c ****   }
1086:Lib/AI_Runtime/Npu/ll_aton/ll_sw_float.c ****   else
1087:Lib/AI_Runtime/Npu/ll_aton/ll_sw_float.c ****   {
1088:Lib/AI_Runtime/Npu/ll_aton/ll_sw_float.c ****     // element wise function to be applied to perform the reduction
1089:Lib/AI_Runtime/Npu/ll_aton/ll_sw_float.c ****     func_binary func = NULL;
1090:Lib/AI_Runtime/Npu/ll_aton/ll_sw_float.c ****     // Initialization value for operation
1091:Lib/AI_Runtime/Npu/ll_aton/ll_sw_float.c ****     float value = 0.0f;
1092:Lib/AI_Runtime/Npu/ll_aton/ll_sw_float.c **** 
ARM GAS  C:\Users\DJESSOU\AppData\Local\Temp\ccdFeyMS.s 			page 110


1093:Lib/AI_Runtime/Npu/ll_aton/ll_sw_float.c ****     switch (sw_info->general.type)
1094:Lib/AI_Runtime/Npu/ll_aton/ll_sw_float.c ****     {
1095:Lib/AI_Runtime/Npu/ll_aton/ll_sw_float.c ****     // case LL_SW_REDUCEMEAN:
1096:Lib/AI_Runtime/Npu/ll_aton/ll_sw_float.c ****     //     func = ai_mean
1097:Lib/AI_Runtime/Npu/ll_aton/ll_sw_float.c ****     //     break;
1098:Lib/AI_Runtime/Npu/ll_aton/ll_sw_float.c ****     case LL_SW_REDUCESUM:
1099:Lib/AI_Runtime/Npu/ll_aton/ll_sw_float.c ****       func = ai_sum;
1100:Lib/AI_Runtime/Npu/ll_aton/ll_sw_float.c ****       value = 0.0f;
1101:Lib/AI_Runtime/Npu/ll_aton/ll_sw_float.c ****       break;
1102:Lib/AI_Runtime/Npu/ll_aton/ll_sw_float.c ****     case LL_SW_REDUCEMIN:
1103:Lib/AI_Runtime/Npu/ll_aton/ll_sw_float.c ****       func = ai_min;
1104:Lib/AI_Runtime/Npu/ll_aton/ll_sw_float.c ****       value = AI_FLT_MAX;
1105:Lib/AI_Runtime/Npu/ll_aton/ll_sw_float.c ****       break;
1106:Lib/AI_Runtime/Npu/ll_aton/ll_sw_float.c ****     case LL_SW_REDUCEMAX:
1107:Lib/AI_Runtime/Npu/ll_aton/ll_sw_float.c ****       func = ai_max;
1108:Lib/AI_Runtime/Npu/ll_aton/ll_sw_float.c ****       value = 0.0f;
1109:Lib/AI_Runtime/Npu/ll_aton/ll_sw_float.c ****       break;
1110:Lib/AI_Runtime/Npu/ll_aton/ll_sw_float.c ****     case LL_SW_REDUCEPROD:
1111:Lib/AI_Runtime/Npu/ll_aton/ll_sw_float.c ****       func = ai_max;
1112:Lib/AI_Runtime/Npu/ll_aton/ll_sw_float.c ****       value = 0.0f;
1113:Lib/AI_Runtime/Npu/ll_aton/ll_sw_float.c ****       break;
1114:Lib/AI_Runtime/Npu/ll_aton/ll_sw_float.c ****     default:
1115:Lib/AI_Runtime/Npu/ll_aton/ll_sw_float.c **** #ifdef LL_SW_ENABLE_ASSERTS
1116:Lib/AI_Runtime/Npu/ll_aton/ll_sw_float.c ****       LL_ATON_ASSERT(0 && "REDUCTION OPERATIONS NOT SUPPORTED");
1117:Lib/AI_Runtime/Npu/ll_aton/ll_sw_float.c **** #endif
1118:Lib/AI_Runtime/Npu/ll_aton/ll_sw_float.c ****       break;
1119:Lib/AI_Runtime/Npu/ll_aton/ll_sw_float.c ****     }
1120:Lib/AI_Runtime/Npu/ll_aton/ll_sw_float.c ****     AI_ARRAY_OBJ_DECLARE_STATIC(value_f, ai_float, AI_ARRAY_FORMAT_FLOAT, AI_CONST, 1, value)
1121:Lib/AI_Runtime/Npu/ll_aton/ll_sw_float.c **** 
1122:Lib/AI_Runtime/Npu/ll_aton/ll_sw_float.c ****     AI_LAYER_OBJ_DECLARE(reduce_layer, 1, REDUCE_TYPE, 0x0, NULL, reduce, forward_reduce, &reduce_c
1123:Lib/AI_Runtime/Npu/ll_aton/ll_sw_float.c ****                          .neutral_value = (&value_f), .operation = func)
1124:Lib/AI_Runtime/Npu/ll_aton/ll_sw_float.c **** 
1125:Lib/AI_Runtime/Npu/ll_aton/ll_sw_float.c ****     reduce_layer.forward(AI_LAYER_OBJ(&reduce_layer));
1126:Lib/AI_Runtime/Npu/ll_aton/ll_sw_float.c ****   }
1127:Lib/AI_Runtime/Npu/ll_aton/ll_sw_float.c **** }
 4455              		.loc 1 1127 1 is_stmt 0 view .LVU1127
 4456 00fa 46B0     		add	sp, sp, #280
 4457              		.cfi_remember_state
 4458              		.cfi_def_cfa_offset 16
 4459              		@ sp needed
 4460 00fc 70BD     		pop	{r4, r5, r6, pc}
 4461              	.LVL195:
 4462              	.L118:
 4463              		.cfi_restore_state
 4464              	.LBB70:
1089:Lib/AI_Runtime/Npu/ll_aton/ll_sw_float.c ****     // Initialization value for operation
 4465              		.loc 1 1089 5 is_stmt 1 view .LVU1128
1091:Lib/AI_Runtime/Npu/ll_aton/ll_sw_float.c **** 
 4466              		.loc 1 1091 5 view .LVU1129
1093:Lib/AI_Runtime/Npu/ll_aton/ll_sw_float.c ****     {
 4467              		.loc 1 1093 5 view .LVU1130
 4468 00fe 3F3A     		subs	r2, r2, #63
 4469 0100 D2B2     		uxtb	r2, r2
 4470 0102 042A     		cmp	r2, #4
 4471 0104 9BBF     		ittet	ls
 4472 0106 1448     		ldrls	r0, .L124+16
 4473              	.LVL196:
ARM GAS  C:\Users\DJESSOU\AppData\Local\Temp\ccdFeyMS.s 			page 111


1093:Lib/AI_Runtime/Npu/ll_aton/ll_sw_float.c ****     {
 4474              		.loc 1 1093 5 is_stmt 0 view .LVU1131
 4475 0108 144B     		ldrls	r3, .L124+20
 4476              	.LBE70:
1080:Lib/AI_Runtime/Npu/ll_aton/ll_sw_float.c ****   {
 4477              		.loc 1 1080 6 view .LVU1132
 4478 010a 0020     		movhi	r0, #0
 4479 010c 53F82230 		ldrls	r3, [r3, r2, lsl #2]
 4480 0110 9CBF     		itt	ls
 4481 0112 00EB8202 		addls	r2, r0, r2, lsl #2
 4482 0116 1068     		ldrls	r0, [r2]	@ float
 4483              	.LVL197:
 4484              	.LBB71:
1120:Lib/AI_Runtime/Npu/ll_aton/ll_sw_float.c **** 
 4485              		.loc 1 1120 5 is_stmt 1 view .LVU1133
 4486 0118 0122     		movs	r2, #1
 4487 011a 2092     		str	r2, [sp, #128]
 4488 011c 04AA     		add	r2, sp, #16
 4489 011e 2192     		str	r2, [sp, #132]
 4490 0120 0022     		movs	r2, #0
 4491 0122 0490     		str	r0, [sp, #16]	@ float
1122:Lib/AI_Runtime/Npu/ll_aton/ll_sw_float.c ****                          .neutral_value = (&value_f), .operation = func)
 4492              		.loc 1 1122 5 is_stmt 0 view .LVU1134
 4493 0124 0948     		ldr	r0, .L124+4
 4494              	.LVL198:
1122:Lib/AI_Runtime/Npu/ll_aton/ll_sw_float.c ****                          .neutral_value = (&value_f), .operation = func)
 4495              		.loc 1 1122 5 view .LVU1135
 4496 0126 CDE93322 		strd	r2, r2, [sp, #204]
 4497 012a CDE93102 		strd	r0, r2, [sp, #196]
1120:Lib/AI_Runtime/Npu/ll_aton/ll_sw_float.c **** 
 4498              		.loc 1 1120 5 view .LVU1136
 4499 012e 2292     		str	r2, [sp, #136]
1122:Lib/AI_Runtime/Npu/ll_aton/ll_sw_float.c ****                          .neutral_value = (&value_f), .operation = func)
 4500              		.loc 1 1122 5 is_stmt 1 view .LVU1137
 4501 0130 3592     		str	r2, [sp, #212]
 4502 0132 0B4A     		ldr	r2, .L124+24
1125:Lib/AI_Runtime/Npu/ll_aton/ll_sw_float.c ****   }
 4503              		.loc 1 1125 5 is_stmt 0 view .LVU1138
 4504 0134 31A8     		add	r0, sp, #196
1122:Lib/AI_Runtime/Npu/ll_aton/ll_sw_float.c ****                          .neutral_value = (&value_f), .operation = func)
 4505              		.loc 1 1122 5 view .LVU1139
 4506 0136 CDE93621 		strd	r2, r1, [sp, #216]
 4507 013a 1FAA     		add	r2, sp, #124
 4508 013c CDE93823 		strd	r2, r3, [sp, #224]
1125:Lib/AI_Runtime/Npu/ll_aton/ll_sw_float.c ****   }
 4509              		.loc 1 1125 5 is_stmt 1 view .LVU1140
1120:Lib/AI_Runtime/Npu/ll_aton/ll_sw_float.c **** 
 4510              		.loc 1 1120 5 is_stmt 0 view .LVU1141
 4511 0140 1F94     		str	r4, [sp, #124]
1125:Lib/AI_Runtime/Npu/ll_aton/ll_sw_float.c ****   }
 4512              		.loc 1 1125 5 view .LVU1142
 4513 0142 FFF7FEFF 		bl	forward_reduce
 4514              	.LVL199:
1125:Lib/AI_Runtime/Npu/ll_aton/ll_sw_float.c ****   }
 4515              		.loc 1 1125 5 view .LVU1143
 4516              	.LBE71:
 4517              		.loc 1 1127 1 view .LVU1144
ARM GAS  C:\Users\DJESSOU\AppData\Local\Temp\ccdFeyMS.s 			page 112


 4518 0146 D8E7     		b	.L117
 4519              	.L125:
 4520              		.align	2
 4521              	.L124:
 4522 0148 40108200 		.word	8523840
 4523 014c 19010100 		.word	65817
 4524 0150 00000000 		.word	forward_reduce_log_sum_exp
 4525 0154 00000000 		.word	CSWTCH.4
 4526 0158 00000000 		.word	CSWTCH.22
 4527 015c 00000000 		.word	CSWTCH.21
 4528 0160 00000000 		.word	forward_reduce
 4529              		.cfi_endproc
 4530              	.LFE27:
 4532              		.section	.text.ll_sw_forward_bn,"ax",%progbits
 4533              		.align	1
 4534              		.global	ll_sw_forward_bn
 4535              		.syntax unified
 4536              		.thumb
 4537              		.thumb_func
 4539              	ll_sw_forward_bn:
 4540              	.LVL200:
 4541              	.LFB28:
1128:Lib/AI_Runtime/Npu/ll_aton/ll_sw_float.c **** 
1129:Lib/AI_Runtime/Npu/ll_aton/ll_sw_float.c **** //##########################################################################################
1130:Lib/AI_Runtime/Npu/ll_aton/ll_sw_float.c **** /** Batch Norm forward function  */
1131:Lib/AI_Runtime/Npu/ll_aton/ll_sw_float.c **** void ll_sw_forward_bn(/* int processor, */ void *sw_info_struct)
1132:Lib/AI_Runtime/Npu/ll_aton/ll_sw_float.c **** {
 4542              		.loc 1 1132 1 is_stmt 1 view -0
 4543              		.cfi_startproc
 4544              		@ args = 0, pretend = 0, frame = 32
 4545              		@ frame_needed = 0, uses_anonymous_args = 0
1133:Lib/AI_Runtime/Npu/ll_aton/ll_sw_float.c ****   Bn_sw_info *sw_info = (Bn_sw_info *)sw_info_struct;
 4546              		.loc 1 1133 3 view .LVU1146
1134:Lib/AI_Runtime/Npu/ll_aton/ll_sw_float.c **** 
1135:Lib/AI_Runtime/Npu/ll_aton/ll_sw_float.c ****   AI_ARRAY_OBJ_DECLARE(input_output_array, FORMAT, sw_info->general.input.mem.start_offset,
 4547              		.loc 1 1135 3 view .LVU1147
1132:Lib/AI_Runtime/Npu/ll_aton/ll_sw_float.c ****   Bn_sw_info *sw_info = (Bn_sw_info *)sw_info_struct;
 4548              		.loc 1 1132 1 is_stmt 0 view .LVU1148
 4549 0000 2DE9F04F 		push	{r4, r5, r6, r7, r8, r9, r10, fp, lr}
 4550              		.cfi_def_cfa_offset 36
 4551              		.cfi_offset 4, -36
 4552              		.cfi_offset 5, -32
 4553              		.cfi_offset 6, -28
 4554              		.cfi_offset 7, -24
 4555              		.cfi_offset 8, -20
 4556              		.cfi_offset 9, -16
 4557              		.cfi_offset 10, -12
 4558              		.cfi_offset 11, -8
 4559              		.cfi_offset 14, -4
 4560              	.LBB76:
 4561              	.LBB77:
 4562              		.file 2 "Lib/AI_Runtime/Inc/ai_datatypes_internal.h"
   1:Lib/AI_Runtime/Inc/ai_datatypes_internal.h **** /**
   2:Lib/AI_Runtime/Inc/ai_datatypes_internal.h ****   ******************************************************************************
   3:Lib/AI_Runtime/Inc/ai_datatypes_internal.h ****   * @file    ai_datatypes_internal.h
   4:Lib/AI_Runtime/Inc/ai_datatypes_internal.h ****   * @author  AST Embedded Analytics Research Platform
   5:Lib/AI_Runtime/Inc/ai_datatypes_internal.h ****   * @brief   Definitions of AI platform private APIs types
ARM GAS  C:\Users\DJESSOU\AppData\Local\Temp\ccdFeyMS.s 			page 113


   6:Lib/AI_Runtime/Inc/ai_datatypes_internal.h ****   ******************************************************************************
   7:Lib/AI_Runtime/Inc/ai_datatypes_internal.h ****   * @attention
   8:Lib/AI_Runtime/Inc/ai_datatypes_internal.h ****   *
   9:Lib/AI_Runtime/Inc/ai_datatypes_internal.h ****   * Copyright (c) 2017 STMicroelectronics.
  10:Lib/AI_Runtime/Inc/ai_datatypes_internal.h ****   * All rights reserved.
  11:Lib/AI_Runtime/Inc/ai_datatypes_internal.h ****   *
  12:Lib/AI_Runtime/Inc/ai_datatypes_internal.h ****   * This software is licensed under terms that can be found in the LICENSE file
  13:Lib/AI_Runtime/Inc/ai_datatypes_internal.h ****   * in the root directory of this software component.
  14:Lib/AI_Runtime/Inc/ai_datatypes_internal.h ****   * If no LICENSE file comes with this software, it is provided AS-IS.
  15:Lib/AI_Runtime/Inc/ai_datatypes_internal.h ****   *
  16:Lib/AI_Runtime/Inc/ai_datatypes_internal.h ****   ******************************************************************************
  17:Lib/AI_Runtime/Inc/ai_datatypes_internal.h ****   */
  18:Lib/AI_Runtime/Inc/ai_datatypes_internal.h **** #ifndef AI_DATATYPES_INTERNAL_H
  19:Lib/AI_Runtime/Inc/ai_datatypes_internal.h **** #define AI_DATATYPES_INTERNAL_H
  20:Lib/AI_Runtime/Inc/ai_datatypes_internal.h **** 
  21:Lib/AI_Runtime/Inc/ai_datatypes_internal.h **** #include "ai_datatypes.h"
  22:Lib/AI_Runtime/Inc/ai_datatypes_internal.h **** #include "ai_datatypes_defines.h"
  23:Lib/AI_Runtime/Inc/ai_datatypes_internal.h **** 
  24:Lib/AI_Runtime/Inc/ai_datatypes_internal.h **** /*!
  25:Lib/AI_Runtime/Inc/ai_datatypes_internal.h ****  * @defgroup datatypes_internal Internal Datatypes
  26:Lib/AI_Runtime/Inc/ai_datatypes_internal.h ****  * @brief Data structures used internally to implement neural networks
  27:Lib/AI_Runtime/Inc/ai_datatypes_internal.h ****  *
  28:Lib/AI_Runtime/Inc/ai_datatypes_internal.h ****  * The layers are defined as structs; a generic layer type defines the basic
  29:Lib/AI_Runtime/Inc/ai_datatypes_internal.h ****  * layer parameters and type-specific parameters are handled by specializations
  30:Lib/AI_Runtime/Inc/ai_datatypes_internal.h ****  * implemented as a C union. The layers keep also a pointer to the parent
  31:Lib/AI_Runtime/Inc/ai_datatypes_internal.h ****  * network and the next layer in the network.
  32:Lib/AI_Runtime/Inc/ai_datatypes_internal.h ****  * The input, output and parameters are tensor with an hard-coded maximum
  33:Lib/AI_Runtime/Inc/ai_datatypes_internal.h ****  * dimension of 4. Tensors are floating point arrays with a notion of size.
  34:Lib/AI_Runtime/Inc/ai_datatypes_internal.h ****  * The network is a linked list of layers, and thus it stores only the pointer
  35:Lib/AI_Runtime/Inc/ai_datatypes_internal.h ****  * to the first layer.
  36:Lib/AI_Runtime/Inc/ai_datatypes_internal.h ****  */
  37:Lib/AI_Runtime/Inc/ai_datatypes_internal.h **** 
  38:Lib/AI_Runtime/Inc/ai_datatypes_internal.h **** /*!
  39:Lib/AI_Runtime/Inc/ai_datatypes_internal.h ****  * @section Offsets
  40:Lib/AI_Runtime/Inc/ai_datatypes_internal.h ****  * @ingroup datatypes_internal
  41:Lib/AI_Runtime/Inc/ai_datatypes_internal.h ****  * Macros to handle (byte) stride addressing on tensors. The `AI_PTR` macro
  42:Lib/AI_Runtime/Inc/ai_datatypes_internal.h ****  * is used to always cast a pointer to byte array. The macros `AI_OFFSET_X` are
  43:Lib/AI_Runtime/Inc/ai_datatypes_internal.h ****  * used to compute (byte) offsets of respectively adjacents row elements, col
  44:Lib/AI_Runtime/Inc/ai_datatypes_internal.h ****  * elements, channel elements and `channel_in` elements.
  45:Lib/AI_Runtime/Inc/ai_datatypes_internal.h ****  * @{
  46:Lib/AI_Runtime/Inc/ai_datatypes_internal.h ****  */
  47:Lib/AI_Runtime/Inc/ai_datatypes_internal.h **** 
  48:Lib/AI_Runtime/Inc/ai_datatypes_internal.h **** /*!  AI_STORAGE_KLASS SECTION              ************************************/
  49:Lib/AI_Runtime/Inc/ai_datatypes_internal.h **** #define AI_STORAGE_KLASS_TYPE(s_) \
  50:Lib/AI_Runtime/Inc/ai_datatypes_internal.h ****   ( (s_)->type )
  51:Lib/AI_Runtime/Inc/ai_datatypes_internal.h **** 
  52:Lib/AI_Runtime/Inc/ai_datatypes_internal.h **** #define AI_STORAGE_KLASS_SIZE(s_) \
  53:Lib/AI_Runtime/Inc/ai_datatypes_internal.h ****   ( (s_)->size )
  54:Lib/AI_Runtime/Inc/ai_datatypes_internal.h **** 
  55:Lib/AI_Runtime/Inc/ai_datatypes_internal.h **** #define AI_STORAGE_KLASS_DATA(s_, type_) \
  56:Lib/AI_Runtime/Inc/ai_datatypes_internal.h ****   ( (type_*)((s_)->data) )
  57:Lib/AI_Runtime/Inc/ai_datatypes_internal.h **** 
  58:Lib/AI_Runtime/Inc/ai_datatypes_internal.h **** #define AI_STORAGE_KLASS_COPY(dst_, dst_type_, src_, src_type_) \
  59:Lib/AI_Runtime/Inc/ai_datatypes_internal.h **** { \
  60:Lib/AI_Runtime/Inc/ai_datatypes_internal.h ****   AI_ASSERT(AI_STORAGE_KLASS_SIZE(src_)>=AI_STORAGE_KLASS_SIZE(dst_)) \
  61:Lib/AI_Runtime/Inc/ai_datatypes_internal.h ****   AI_STORAGE_KLASS_SIZE(dst_) = AI_STORAGE_KLASS_SIZE(src_); \
  62:Lib/AI_Runtime/Inc/ai_datatypes_internal.h ****   for (ai_size i=0; i<AI_STORAGE_KLASS_SIZE(dst_); i++ ) { \
ARM GAS  C:\Users\DJESSOU\AppData\Local\Temp\ccdFeyMS.s 			page 114


  63:Lib/AI_Runtime/Inc/ai_datatypes_internal.h ****     AI_STORAGE_KLASS_DATA(dst_, dst_type_)[i] = \
  64:Lib/AI_Runtime/Inc/ai_datatypes_internal.h ****       AI_STORAGE_KLASS_DATA(src_, src_type_)[i]; \
  65:Lib/AI_Runtime/Inc/ai_datatypes_internal.h ****   } \
  66:Lib/AI_Runtime/Inc/ai_datatypes_internal.h **** }
  67:Lib/AI_Runtime/Inc/ai_datatypes_internal.h **** 
  68:Lib/AI_Runtime/Inc/ai_datatypes_internal.h **** #define AI_STORAGE_KLASS_DUMP(s_, pfx_, post_, fmt_, type_) \
  69:Lib/AI_Runtime/Inc/ai_datatypes_internal.h **** { \
  70:Lib/AI_Runtime/Inc/ai_datatypes_internal.h ****   AI_ASSERT(s_) \
  71:Lib/AI_Runtime/Inc/ai_datatypes_internal.h ****   AI_DEBUG_PRINT(pfx_, AI_STORAGE_KLASS_SIZE(s_)) \
  72:Lib/AI_Runtime/Inc/ai_datatypes_internal.h ****   for ( ai_u32 i=0; i<AI_STORAGE_KLASS_SIZE(s_); i++ ) { \
  73:Lib/AI_Runtime/Inc/ai_datatypes_internal.h ****     if ( (i % 8)==0 ) { AI_DEBUG_PRINT("\n      ") } \
  74:Lib/AI_Runtime/Inc/ai_datatypes_internal.h ****     AI_DEBUG_PRINT(fmt_, AI_STORAGE_KLASS_DATA(s_, type_)[i]) \
  75:Lib/AI_Runtime/Inc/ai_datatypes_internal.h ****   } \
  76:Lib/AI_Runtime/Inc/ai_datatypes_internal.h ****   AI_DEBUG_PRINT(post_) \
  77:Lib/AI_Runtime/Inc/ai_datatypes_internal.h **** }
  78:Lib/AI_Runtime/Inc/ai_datatypes_internal.h **** 
  79:Lib/AI_Runtime/Inc/ai_datatypes_internal.h **** /*!  AI_SHAPES SECTION                     ************************************/
  80:Lib/AI_Runtime/Inc/ai_datatypes_internal.h **** #define AI_SHAPE_2D_H(shape_) \
  81:Lib/AI_Runtime/Inc/ai_datatypes_internal.h ****   AI_SHAPE_ELEM(shape_, AI_SHAPE_2D_HEIGHT)
  82:Lib/AI_Runtime/Inc/ai_datatypes_internal.h **** 
  83:Lib/AI_Runtime/Inc/ai_datatypes_internal.h **** #define AI_SHAPE_2D_W(shape_) \
  84:Lib/AI_Runtime/Inc/ai_datatypes_internal.h ****   AI_SHAPE_ELEM(shape_, AI_SHAPE_2D_WIDTH)
  85:Lib/AI_Runtime/Inc/ai_datatypes_internal.h **** 
  86:Lib/AI_Runtime/Inc/ai_datatypes_internal.h **** #define AI_SHAPE_ELEM(shape_, pos_) \
  87:Lib/AI_Runtime/Inc/ai_datatypes_internal.h ****   AI_STORAGE_KLASS_DATA(shape_, ai_shape_dimension)[pos_]
  88:Lib/AI_Runtime/Inc/ai_datatypes_internal.h **** 
  89:Lib/AI_Runtime/Inc/ai_datatypes_internal.h **** #define AI_SHAPE_GET_ELEM(shape_, pos_) \
  90:Lib/AI_Runtime/Inc/ai_datatypes_internal.h ****   (((pos_) < AI_SHAPE_SIZE(shape_)) ? AI_SHAPE_ELEM(shape_, pos_) : 1)
  91:Lib/AI_Runtime/Inc/ai_datatypes_internal.h **** 
  92:Lib/AI_Runtime/Inc/ai_datatypes_internal.h **** #define AI_SHAPE_SET_ELEM(shape_, pos_, val_) \
  93:Lib/AI_Runtime/Inc/ai_datatypes_internal.h ****   if ((pos_) < AI_SHAPE_SIZE(shape_)) { AI_SHAPE_ELEM(shape_, pos_) = (val_); }
  94:Lib/AI_Runtime/Inc/ai_datatypes_internal.h **** 
  95:Lib/AI_Runtime/Inc/ai_datatypes_internal.h **** #define AI_SHAPE_TYPE(shape_) \
  96:Lib/AI_Runtime/Inc/ai_datatypes_internal.h ****   AI_STORAGE_KLASS_TYPE(shape_)
  97:Lib/AI_Runtime/Inc/ai_datatypes_internal.h **** 
  98:Lib/AI_Runtime/Inc/ai_datatypes_internal.h **** #define AI_SHAPE_SIZE(shape_) \
  99:Lib/AI_Runtime/Inc/ai_datatypes_internal.h ****   AI_STORAGE_KLASS_SIZE(shape_)
 100:Lib/AI_Runtime/Inc/ai_datatypes_internal.h **** 
 101:Lib/AI_Runtime/Inc/ai_datatypes_internal.h **** #define AI_SHAPE_CLONE(dst_, src_) \
 102:Lib/AI_Runtime/Inc/ai_datatypes_internal.h ****   AI_STORAGE_KLASS_COPY(dst_, ai_shape_dimension, src_, ai_shape_dimension)
 103:Lib/AI_Runtime/Inc/ai_datatypes_internal.h **** 
 104:Lib/AI_Runtime/Inc/ai_datatypes_internal.h **** #define AI_SHAPE_BCAST_CLONE(dst_, src_) \
 105:Lib/AI_Runtime/Inc/ai_datatypes_internal.h **** { \
 106:Lib/AI_Runtime/Inc/ai_datatypes_internal.h ****   for (ai_size i = 0; i < AI_SHAPE_SIZE(dst_); i++) { \
 107:Lib/AI_Runtime/Inc/ai_datatypes_internal.h ****     AI_SHAPE_SET_ELEM(dst_, i, AI_SHAPE_GET_ELEM(src_, i)); \
 108:Lib/AI_Runtime/Inc/ai_datatypes_internal.h ****   } \
 109:Lib/AI_Runtime/Inc/ai_datatypes_internal.h **** }
 110:Lib/AI_Runtime/Inc/ai_datatypes_internal.h **** 
 111:Lib/AI_Runtime/Inc/ai_datatypes_internal.h **** //#define AI_SHAPE_BATCH(shape_)      AI_SHAPE_ELEM((shape_), AI_SHAPE_BATCH_CHANNEL)
 112:Lib/AI_Runtime/Inc/ai_datatypes_internal.h **** #define AI_SHAPE_H(shape_)          AI_SHAPE_ELEM((shape_), AI_SHAPE_HEIGHT)
 113:Lib/AI_Runtime/Inc/ai_datatypes_internal.h **** #define AI_SHAPE_W(shape_)          AI_SHAPE_ELEM((shape_), AI_SHAPE_WIDTH)
 114:Lib/AI_Runtime/Inc/ai_datatypes_internal.h **** #define AI_SHAPE_CH(shape_)         AI_SHAPE_ELEM((shape_), AI_SHAPE_CHANNEL)
 115:Lib/AI_Runtime/Inc/ai_datatypes_internal.h **** #define AI_SHAPE_IN_CH(shape_)      AI_SHAPE_ELEM((shape_), AI_SHAPE_IN_CHANNEL)
 116:Lib/AI_Runtime/Inc/ai_datatypes_internal.h **** #define AI_SHAPE_D(shape_)          ((AI_SHAPE_SIZE((shape_)) > AI_SHAPE_DEPTH) \
 117:Lib/AI_Runtime/Inc/ai_datatypes_internal.h ****   ? AI_SHAPE_ELEM((shape_), AI_SHAPE_DEPTH) : 1)
 118:Lib/AI_Runtime/Inc/ai_datatypes_internal.h **** #define AI_SHAPE_E(shape_)          ((AI_SHAPE_SIZE((shape_)) > AI_SHAPE_EXTENSION) \
 119:Lib/AI_Runtime/Inc/ai_datatypes_internal.h ****   ? AI_SHAPE_ELEM((shape_), AI_SHAPE_EXTENSION) : 1)
ARM GAS  C:\Users\DJESSOU\AppData\Local\Temp\ccdFeyMS.s 			page 115


 120:Lib/AI_Runtime/Inc/ai_datatypes_internal.h **** #define AI_SHAPE_T(shape_)          AI_SHAPE_ELEM((shape_), AI_SHAPE_TIME)
 121:Lib/AI_Runtime/Inc/ai_datatypes_internal.h **** 
 122:Lib/AI_Runtime/Inc/ai_datatypes_internal.h **** #define AI_CONV_SHAPE_H             AI_SHAPE_W
 123:Lib/AI_Runtime/Inc/ai_datatypes_internal.h **** #define AI_CONV_SHAPE_W             AI_SHAPE_CH
 124:Lib/AI_Runtime/Inc/ai_datatypes_internal.h **** #define AI_CONV_SHAPE_CH            AI_SHAPE_H
 125:Lib/AI_Runtime/Inc/ai_datatypes_internal.h **** #define AI_CONV_SHAPE_IN_CH         AI_SHAPE_IN_CH
 126:Lib/AI_Runtime/Inc/ai_datatypes_internal.h **** 
 127:Lib/AI_Runtime/Inc/ai_datatypes_internal.h **** /*!  AI_STRIDES SECTION                     ***********************************/
 128:Lib/AI_Runtime/Inc/ai_datatypes_internal.h **** #define AI_STRIDE_2D_H(stride_) \
 129:Lib/AI_Runtime/Inc/ai_datatypes_internal.h ****   AI_STRIDE_ELEM((stride_), AI_SHAPE_2D_HEIGHT)
 130:Lib/AI_Runtime/Inc/ai_datatypes_internal.h **** 
 131:Lib/AI_Runtime/Inc/ai_datatypes_internal.h **** #define AI_STRIDE_2D_W(stride_) \
 132:Lib/AI_Runtime/Inc/ai_datatypes_internal.h ****   AI_STRIDE_ELEM((stride_), AI_SHAPE_2D_WIDTH)
 133:Lib/AI_Runtime/Inc/ai_datatypes_internal.h **** 
 134:Lib/AI_Runtime/Inc/ai_datatypes_internal.h **** #define AI_STRIDE_ELEM(stride_, pos_) \
 135:Lib/AI_Runtime/Inc/ai_datatypes_internal.h ****   AI_STORAGE_KLASS_DATA(stride_, ai_stride_dimension)[pos_]
 136:Lib/AI_Runtime/Inc/ai_datatypes_internal.h **** 
 137:Lib/AI_Runtime/Inc/ai_datatypes_internal.h **** #define AI_STRIDE_GET_ELEM(stride_, pos_) \
 138:Lib/AI_Runtime/Inc/ai_datatypes_internal.h ****   (((pos_) < AI_STRIDE_SIZE(stride_)) ? AI_STRIDE_ELEM(stride_, pos_) : 0)
 139:Lib/AI_Runtime/Inc/ai_datatypes_internal.h **** 
 140:Lib/AI_Runtime/Inc/ai_datatypes_internal.h **** #define AI_STRIDE_SET_ELEM(stride_, pos_, val_) \
 141:Lib/AI_Runtime/Inc/ai_datatypes_internal.h ****   if ((pos_) < AI_STRIDE_SIZE(stride_)) AI_STRIDE_ELEM(stride_, pos_) = (val_);
 142:Lib/AI_Runtime/Inc/ai_datatypes_internal.h **** 
 143:Lib/AI_Runtime/Inc/ai_datatypes_internal.h **** #define AI_STRIDE_TYPE(stride_) \
 144:Lib/AI_Runtime/Inc/ai_datatypes_internal.h ****   AI_STORAGE_KLASS_TYPE(stride_)
 145:Lib/AI_Runtime/Inc/ai_datatypes_internal.h **** 
 146:Lib/AI_Runtime/Inc/ai_datatypes_internal.h **** #define AI_STRIDE_SIZE(stride_) \
 147:Lib/AI_Runtime/Inc/ai_datatypes_internal.h ****   AI_STORAGE_KLASS_SIZE(stride_)
 148:Lib/AI_Runtime/Inc/ai_datatypes_internal.h **** 
 149:Lib/AI_Runtime/Inc/ai_datatypes_internal.h **** #define AI_STRIDE_CLONE(dst_, src_) \
 150:Lib/AI_Runtime/Inc/ai_datatypes_internal.h ****   AI_STORAGE_KLASS_COPY(dst_, ai_stride_dimension, src_, ai_stride_dimension)
 151:Lib/AI_Runtime/Inc/ai_datatypes_internal.h **** 
 152:Lib/AI_Runtime/Inc/ai_datatypes_internal.h **** #define AI_STRIDE_BCAST_CLONE(dst_, src_) \
 153:Lib/AI_Runtime/Inc/ai_datatypes_internal.h **** { \
 154:Lib/AI_Runtime/Inc/ai_datatypes_internal.h ****   for (ai_size i=0; i<AI_STRIDE_SIZE(dst_); i++) { \
 155:Lib/AI_Runtime/Inc/ai_datatypes_internal.h ****     AI_STRIDE_SET_ELEM(dst_, i, AI_STRIDE_GET_ELEM(src_, i)); \
 156:Lib/AI_Runtime/Inc/ai_datatypes_internal.h ****   } \
 157:Lib/AI_Runtime/Inc/ai_datatypes_internal.h **** }
 158:Lib/AI_Runtime/Inc/ai_datatypes_internal.h **** 
 159:Lib/AI_Runtime/Inc/ai_datatypes_internal.h **** //#define AI_STRIDE_BATCH(stride)     AI_STRIDE_ELEM((stride), AI_SHAPE_BATCH_CHANNEL)
 160:Lib/AI_Runtime/Inc/ai_datatypes_internal.h **** #define AI_STRIDE_H(stride)         AI_STRIDE_ELEM((stride), AI_SHAPE_HEIGHT)
 161:Lib/AI_Runtime/Inc/ai_datatypes_internal.h **** #define AI_STRIDE_W(stride)         AI_STRIDE_ELEM((stride), AI_SHAPE_WIDTH)
 162:Lib/AI_Runtime/Inc/ai_datatypes_internal.h **** #define AI_STRIDE_CH(stride)        AI_STRIDE_ELEM((stride), AI_SHAPE_CHANNEL)
 163:Lib/AI_Runtime/Inc/ai_datatypes_internal.h **** #define AI_STRIDE_IN_CH(stride)     AI_STRIDE_ELEM((stride), AI_SHAPE_IN_CHANNEL)
 164:Lib/AI_Runtime/Inc/ai_datatypes_internal.h **** #define AI_STRIDE_D(stride)         ((AI_STRIDE_SIZE((stride)) >= 5) ? AI_STRIDE_ELEM((stride), AI_
 165:Lib/AI_Runtime/Inc/ai_datatypes_internal.h **** #define AI_STRIDE_E(stride)         ((AI_STRIDE_SIZE((stride)) == 6) ? AI_STRIDE_ELEM((stride), AI_
 166:Lib/AI_Runtime/Inc/ai_datatypes_internal.h **** #define AI_STRIDE_T(stride)         AI_STRIDE_ELEM((stride), AI_SHAPE_TIME)
 167:Lib/AI_Runtime/Inc/ai_datatypes_internal.h **** 
 168:Lib/AI_Runtime/Inc/ai_datatypes_internal.h **** #define AI_STRIDE_SET_H(stride, val)         AI_STRIDE_SET_ELEM((stride), AI_SHAPE_HEIGHT, val)
 169:Lib/AI_Runtime/Inc/ai_datatypes_internal.h **** #define AI_STRIDE_SET_W(stride, val)         AI_STRIDE_SET_ELEM((stride), AI_SHAPE_WIDTH, val)
 170:Lib/AI_Runtime/Inc/ai_datatypes_internal.h **** #define AI_STRIDE_SET_CH(stride, val)        AI_STRIDE_SET_ELEM((stride), AI_SHAPE_CHANNEL, val)
 171:Lib/AI_Runtime/Inc/ai_datatypes_internal.h **** #define AI_STRIDE_SET_IN_CH(stride, val)     AI_STRIDE_SET_ELEM((stride), AI_SHAPE_IN_CHANNEL, val)
 172:Lib/AI_Runtime/Inc/ai_datatypes_internal.h **** #define AI_STRIDE_SET_D(stride, val)         if (AI_STRIDE_SIZE((stride)) >= 5) AI_STRIDE_SET_ELEM(
 173:Lib/AI_Runtime/Inc/ai_datatypes_internal.h **** #define AI_STRIDE_SET_E(stride, val)         if (AI_STRIDE_SIZE((stride)) == 6) AI_STRIDE_SET_ELEM(
 174:Lib/AI_Runtime/Inc/ai_datatypes_internal.h **** 
 175:Lib/AI_Runtime/Inc/ai_datatypes_internal.h **** /*!  AI_TENSORS SECTION                     ***********************************/
 176:Lib/AI_Runtime/Inc/ai_datatypes_internal.h **** #define AI_TENSOR_KLASS(tensor_) \
ARM GAS  C:\Users\DJESSOU\AppData\Local\Temp\ccdFeyMS.s 			page 116


 177:Lib/AI_Runtime/Inc/ai_datatypes_internal.h ****   ((tensor_) ? (tensor_)->klass : NULL)
 178:Lib/AI_Runtime/Inc/ai_datatypes_internal.h **** 
 179:Lib/AI_Runtime/Inc/ai_datatypes_internal.h **** #define AI_TENSOR_SHAPE(tensor_) \
 180:Lib/AI_Runtime/Inc/ai_datatypes_internal.h ****   (&((tensor_)->shape))
 181:Lib/AI_Runtime/Inc/ai_datatypes_internal.h **** 
 182:Lib/AI_Runtime/Inc/ai_datatypes_internal.h **** #define AI_TENSOR_STRIDE(tensor_) \
 183:Lib/AI_Runtime/Inc/ai_datatypes_internal.h ****   (&((tensor_)->stride))
 184:Lib/AI_Runtime/Inc/ai_datatypes_internal.h **** 
 185:Lib/AI_Runtime/Inc/ai_datatypes_internal.h **** #define AI_TENSOR_INFO(tensor_) \
 186:Lib/AI_Runtime/Inc/ai_datatypes_internal.h ****   (&((tensor_)->info))
 187:Lib/AI_Runtime/Inc/ai_datatypes_internal.h **** 
 188:Lib/AI_Runtime/Inc/ai_datatypes_internal.h **** #define AI_TENSOR_ARRAY(tensor_) \
 189:Lib/AI_Runtime/Inc/ai_datatypes_internal.h ****   ((tensor_) ? (tensor_)->data : NULL)
 190:Lib/AI_Runtime/Inc/ai_datatypes_internal.h **** 
 191:Lib/AI_Runtime/Inc/ai_datatypes_internal.h **** #define AI_TENSOR_ID(tensor_) \
 192:Lib/AI_Runtime/Inc/ai_datatypes_internal.h ****   ((tensor_) ? AI_TENSOR_INFO(tensor_)->id : 0)
 193:Lib/AI_Runtime/Inc/ai_datatypes_internal.h **** 
 194:Lib/AI_Runtime/Inc/ai_datatypes_internal.h **** #define AI_TENSOR_FLAGS(tensor_) \
 195:Lib/AI_Runtime/Inc/ai_datatypes_internal.h ****   ((tensor_) ? AI_TENSOR_INFO(tensor_)->flags : 0)
 196:Lib/AI_Runtime/Inc/ai_datatypes_internal.h **** 
 197:Lib/AI_Runtime/Inc/ai_datatypes_internal.h **** #define AI_TENSOR_DATA_SIZE(tensor_) \
 198:Lib/AI_Runtime/Inc/ai_datatypes_internal.h ****   ((tensor_) ? AI_TENSOR_INFO(tensor_)->data_size : 0)
 199:Lib/AI_Runtime/Inc/ai_datatypes_internal.h **** 
 200:Lib/AI_Runtime/Inc/ai_datatypes_internal.h **** /*!  AI_OFFSETS SECTION                     ***********************************/
 201:Lib/AI_Runtime/Inc/ai_datatypes_internal.h **** //#define AI_OFFSET_BATCH(b, stride)  ((ai_ptr_offset)(b)  * AI_STRIDE_BATCH(stride))
 202:Lib/AI_Runtime/Inc/ai_datatypes_internal.h **** #define AI_OFFSET_H(y, stride)      ((ai_ptr_offset)(y)  * AI_STRIDE_H(stride))
 203:Lib/AI_Runtime/Inc/ai_datatypes_internal.h **** #define AI_OFFSET_W(x, stride)      ((ai_ptr_offset)(x)  * AI_STRIDE_W(stride))
 204:Lib/AI_Runtime/Inc/ai_datatypes_internal.h **** #define AI_OFFSET_CH(ch, stride)    ((ai_ptr_offset)(ch) * AI_STRIDE_CH(stride))
 205:Lib/AI_Runtime/Inc/ai_datatypes_internal.h **** #define AI_OFFSET_IN_CH(in_ch, stride) ((ai_ptr_offset)(in_ch) * \
 206:Lib/AI_Runtime/Inc/ai_datatypes_internal.h ****                                       AI_STRIDE_IN_CH(stride))
 207:Lib/AI_Runtime/Inc/ai_datatypes_internal.h **** #define AI_OFFSET_D(d, stride)      ((ai_ptr_offset)(d) * AI_STRIDE_D(stride))
 208:Lib/AI_Runtime/Inc/ai_datatypes_internal.h **** #define AI_OFFSET_E(e, stride)      ((ai_ptr_offset)(e) * AI_STRIDE_E(stride))
 209:Lib/AI_Runtime/Inc/ai_datatypes_internal.h **** 
 210:Lib/AI_Runtime/Inc/ai_datatypes_internal.h **** #define AI_OFFSET_5D(y, x, d, e, ch, stride) ( \
 211:Lib/AI_Runtime/Inc/ai_datatypes_internal.h ****   AI_OFFSET_H((y), (stride)) + AI_OFFSET_W((x), (stride)) + \
 212:Lib/AI_Runtime/Inc/ai_datatypes_internal.h ****   AI_OFFSET_D((d), (stride)) + AI_OFFSET_E((e), (stride)) + \
 213:Lib/AI_Runtime/Inc/ai_datatypes_internal.h ****   AI_OFFSET_CH((ch), (stride)) )
 214:Lib/AI_Runtime/Inc/ai_datatypes_internal.h **** 
 215:Lib/AI_Runtime/Inc/ai_datatypes_internal.h **** #define AI_OFFSET(y, x, ch, z, stride) ( \
 216:Lib/AI_Runtime/Inc/ai_datatypes_internal.h ****   AI_OFFSET_H((y), (stride)) + AI_OFFSET_W((x), (stride)) + \
 217:Lib/AI_Runtime/Inc/ai_datatypes_internal.h ****   AI_OFFSET_CH((ch), (stride)) + \
 218:Lib/AI_Runtime/Inc/ai_datatypes_internal.h ****   ((AI_STRIDE_SIZE((stride)) == 4) ? AI_OFFSET_IN_CH((z), (stride)) : AI_OFFSET_D((z), (stride))) )
 219:Lib/AI_Runtime/Inc/ai_datatypes_internal.h **** 
 220:Lib/AI_Runtime/Inc/ai_datatypes_internal.h **** /*! @} */
 221:Lib/AI_Runtime/Inc/ai_datatypes_internal.h **** 
 222:Lib/AI_Runtime/Inc/ai_datatypes_internal.h **** #define AI_GET_CONV_OUT_SIZE(in_size, filt_size, pad_l, pad_r, filt_stride) \
 223:Lib/AI_Runtime/Inc/ai_datatypes_internal.h ****   ((((in_size) - (filt_size) + (pad_l) + (pad_r)) / (filt_stride)) + 1)
 224:Lib/AI_Runtime/Inc/ai_datatypes_internal.h **** 
 225:Lib/AI_Runtime/Inc/ai_datatypes_internal.h **** 
 226:Lib/AI_Runtime/Inc/ai_datatypes_internal.h **** /** Tensors datatypes defines handlers ****************************************/
 227:Lib/AI_Runtime/Inc/ai_datatypes_internal.h **** #define AI_TENSOR_SIZE(tensor_) \
 228:Lib/AI_Runtime/Inc/ai_datatypes_internal.h ****   get_tensor_size(tensor_, true)
 229:Lib/AI_Runtime/Inc/ai_datatypes_internal.h **** 
 230:Lib/AI_Runtime/Inc/ai_datatypes_internal.h **** #define AI_TENSOR_SIZE_UNPAD(tensor_) \
 231:Lib/AI_Runtime/Inc/ai_datatypes_internal.h ****   get_tensor_size(tensor_, false)
 232:Lib/AI_Runtime/Inc/ai_datatypes_internal.h **** 
 233:Lib/AI_Runtime/Inc/ai_datatypes_internal.h **** #define AI_TENSOR_BYTE_SIZE(tensor_) \
ARM GAS  C:\Users\DJESSOU\AppData\Local\Temp\ccdFeyMS.s 			page 117


 234:Lib/AI_Runtime/Inc/ai_datatypes_internal.h ****   get_tensor_byte_size(tensor_)
 235:Lib/AI_Runtime/Inc/ai_datatypes_internal.h **** 
 236:Lib/AI_Runtime/Inc/ai_datatypes_internal.h **** 
 237:Lib/AI_Runtime/Inc/ai_datatypes_internal.h **** /******************************************************************************/
 238:Lib/AI_Runtime/Inc/ai_datatypes_internal.h **** #define AI_PLATFORM_VERSION_INIT(major_, minor_, micro_) \
 239:Lib/AI_Runtime/Inc/ai_datatypes_internal.h ****   { .major = (major_), .minor = (minor_), .micro = (micro_), .reserved = 0x0 }
 240:Lib/AI_Runtime/Inc/ai_datatypes_internal.h **** 
 241:Lib/AI_Runtime/Inc/ai_datatypes_internal.h **** 
 242:Lib/AI_Runtime/Inc/ai_datatypes_internal.h **** /** Integer tensor info extraction ********************************************/
 243:Lib/AI_Runtime/Inc/ai_datatypes_internal.h **** #define AI_INTQ_INFO_LIST_SCALE_ARRAY(list_, type_) \
 244:Lib/AI_Runtime/Inc/ai_datatypes_internal.h ****   ( ((list_) && (list_)->info) \
 245:Lib/AI_Runtime/Inc/ai_datatypes_internal.h ****     ? ((type_*)((list_)->info->scale)) : NULL )
 246:Lib/AI_Runtime/Inc/ai_datatypes_internal.h **** 
 247:Lib/AI_Runtime/Inc/ai_datatypes_internal.h **** #define AI_INTQ_INFO_LIST_ZEROPOINT_ARRAY(list_, type_) \
 248:Lib/AI_Runtime/Inc/ai_datatypes_internal.h ****   ( ((list_) && (list_)->info) \
 249:Lib/AI_Runtime/Inc/ai_datatypes_internal.h ****     ? ((type_*)((list_)->info->zeropoint)) : NULL )
 250:Lib/AI_Runtime/Inc/ai_datatypes_internal.h **** 
 251:Lib/AI_Runtime/Inc/ai_datatypes_internal.h **** #define AI_KLASS_GET_INTQ_INFO_LIST(tensor_) \
 252:Lib/AI_Runtime/Inc/ai_datatypes_internal.h ****   ((ai_intq_info_list*)((tensor_)->klass))
 253:Lib/AI_Runtime/Inc/ai_datatypes_internal.h **** 
 254:Lib/AI_Runtime/Inc/ai_datatypes_internal.h **** 
 255:Lib/AI_Runtime/Inc/ai_datatypes_internal.h **** AI_API_DECLARE_BEGIN
 256:Lib/AI_Runtime/Inc/ai_datatypes_internal.h **** 
 257:Lib/AI_Runtime/Inc/ai_datatypes_internal.h **** /*!
 258:Lib/AI_Runtime/Inc/ai_datatypes_internal.h ****  * @brief Check whether 2 shapes have identical dimensions.
 259:Lib/AI_Runtime/Inc/ai_datatypes_internal.h ****  * @ingroup datatypes_internal
 260:Lib/AI_Runtime/Inc/ai_datatypes_internal.h ****  * @param shape0 the 1st tensor shape to compare
 261:Lib/AI_Runtime/Inc/ai_datatypes_internal.h ****  * @param shape1 the 2nd tensor shape to compare
 262:Lib/AI_Runtime/Inc/ai_datatypes_internal.h ****  * @return true if shape0 and shape1 have same dimensions. false otherwise
 263:Lib/AI_Runtime/Inc/ai_datatypes_internal.h ****  */
 264:Lib/AI_Runtime/Inc/ai_datatypes_internal.h **** AI_DECLARE_STATIC
 265:Lib/AI_Runtime/Inc/ai_datatypes_internal.h **** ai_bool ai_shape_is_same(
 266:Lib/AI_Runtime/Inc/ai_datatypes_internal.h ****   const ai_shape* shape0, const ai_shape* shape1)
 267:Lib/AI_Runtime/Inc/ai_datatypes_internal.h **** {
 268:Lib/AI_Runtime/Inc/ai_datatypes_internal.h ****   AI_ASSERT(shape0 && shape1)
 269:Lib/AI_Runtime/Inc/ai_datatypes_internal.h ****   if (AI_SHAPE_SIZE(shape0) != AI_SHAPE_SIZE(shape1))
 270:Lib/AI_Runtime/Inc/ai_datatypes_internal.h ****     return false;
 271:Lib/AI_Runtime/Inc/ai_datatypes_internal.h ****   ai_size dim = AI_SHAPE_SIZE(shape0);
 272:Lib/AI_Runtime/Inc/ai_datatypes_internal.h ****   while ( dim>0 ) {
 273:Lib/AI_Runtime/Inc/ai_datatypes_internal.h ****     dim--;
 274:Lib/AI_Runtime/Inc/ai_datatypes_internal.h ****     if ( AI_SHAPE_ELEM(shape0, dim)!=AI_SHAPE_ELEM(shape1, dim) )
 275:Lib/AI_Runtime/Inc/ai_datatypes_internal.h ****       return false;
 276:Lib/AI_Runtime/Inc/ai_datatypes_internal.h ****   }
 277:Lib/AI_Runtime/Inc/ai_datatypes_internal.h ****   return true;
 278:Lib/AI_Runtime/Inc/ai_datatypes_internal.h **** }
 279:Lib/AI_Runtime/Inc/ai_datatypes_internal.h **** 
 280:Lib/AI_Runtime/Inc/ai_datatypes_internal.h **** 
 281:Lib/AI_Runtime/Inc/ai_datatypes_internal.h **** /*!
 282:Lib/AI_Runtime/Inc/ai_datatypes_internal.h ****  * @brief Check whether the shapes is 1*1*1... for a scalar value content.
 283:Lib/AI_Runtime/Inc/ai_datatypes_internal.h ****  * @ingroup datatypes_internal
 284:Lib/AI_Runtime/Inc/ai_datatypes_internal.h ****  * @param shape the tensor shape to evaluate
 285:Lib/AI_Runtime/Inc/ai_datatypes_internal.h ****  * @return true if shape0 is scalar false otherwise
 286:Lib/AI_Runtime/Inc/ai_datatypes_internal.h ****  */
 287:Lib/AI_Runtime/Inc/ai_datatypes_internal.h **** AI_DECLARE_STATIC
 288:Lib/AI_Runtime/Inc/ai_datatypes_internal.h **** ai_bool ai_shape_is_scalar(
 289:Lib/AI_Runtime/Inc/ai_datatypes_internal.h ****   const ai_shape* shape0)
 290:Lib/AI_Runtime/Inc/ai_datatypes_internal.h **** {
ARM GAS  C:\Users\DJESSOU\AppData\Local\Temp\ccdFeyMS.s 			page 118


 291:Lib/AI_Runtime/Inc/ai_datatypes_internal.h ****   ai_size dim = AI_SHAPE_SIZE(shape0);
 292:Lib/AI_Runtime/Inc/ai_datatypes_internal.h ****   while (dim>0) {
 293:Lib/AI_Runtime/Inc/ai_datatypes_internal.h ****     dim--;
 294:Lib/AI_Runtime/Inc/ai_datatypes_internal.h ****     if (AI_SHAPE_ELEM(shape0, dim) != 1)
 295:Lib/AI_Runtime/Inc/ai_datatypes_internal.h ****       return false;
 296:Lib/AI_Runtime/Inc/ai_datatypes_internal.h ****   }
 297:Lib/AI_Runtime/Inc/ai_datatypes_internal.h ****   return true;
 298:Lib/AI_Runtime/Inc/ai_datatypes_internal.h **** }
 299:Lib/AI_Runtime/Inc/ai_datatypes_internal.h **** 
 300:Lib/AI_Runtime/Inc/ai_datatypes_internal.h **** 
 301:Lib/AI_Runtime/Inc/ai_datatypes_internal.h **** /*!
 302:Lib/AI_Runtime/Inc/ai_datatypes_internal.h ****  * @brief Check if shape0 is a subshape of shape1
 303:Lib/AI_Runtime/Inc/ai_datatypes_internal.h ****  * @ingroup datatypes_internal
 304:Lib/AI_Runtime/Inc/ai_datatypes_internal.h ****  * @param shape0 the 1st tensor shape to compare
 305:Lib/AI_Runtime/Inc/ai_datatypes_internal.h ****  * @param shape1 the 2nd tensor shape to compare
 306:Lib/AI_Runtime/Inc/ai_datatypes_internal.h ****  * @return true if shape0 is a subshape of shape1 (all shape0 dimensions are
 307:Lib/AI_Runtime/Inc/ai_datatypes_internal.h **** *  smallers or equal of the shape1 ones). false otherwise
 308:Lib/AI_Runtime/Inc/ai_datatypes_internal.h ****  */
 309:Lib/AI_Runtime/Inc/ai_datatypes_internal.h **** AI_DECLARE_STATIC
 310:Lib/AI_Runtime/Inc/ai_datatypes_internal.h **** ai_bool ai_shape_is_subshape(
 311:Lib/AI_Runtime/Inc/ai_datatypes_internal.h ****   const ai_shape* shape0, const ai_shape* shape1)
 312:Lib/AI_Runtime/Inc/ai_datatypes_internal.h **** {
 313:Lib/AI_Runtime/Inc/ai_datatypes_internal.h ****   AI_ASSERT(shape0 && shape1)
 314:Lib/AI_Runtime/Inc/ai_datatypes_internal.h ****   AI_ASSERT(AI_SHAPE_SIZE(shape0)==AI_SHAPE_SIZE(shape1))
 315:Lib/AI_Runtime/Inc/ai_datatypes_internal.h ****   ai_size dim = AI_SHAPE_SIZE(shape0);
 316:Lib/AI_Runtime/Inc/ai_datatypes_internal.h ****   while (dim) {
 317:Lib/AI_Runtime/Inc/ai_datatypes_internal.h ****     dim--;
 318:Lib/AI_Runtime/Inc/ai_datatypes_internal.h ****     if ( AI_SHAPE_ELEM(shape0, dim)>AI_SHAPE_ELEM(shape1, dim) )
 319:Lib/AI_Runtime/Inc/ai_datatypes_internal.h ****       return false;
 320:Lib/AI_Runtime/Inc/ai_datatypes_internal.h ****   }
 321:Lib/AI_Runtime/Inc/ai_datatypes_internal.h ****   return true;
 322:Lib/AI_Runtime/Inc/ai_datatypes_internal.h **** }
 323:Lib/AI_Runtime/Inc/ai_datatypes_internal.h **** 
 324:Lib/AI_Runtime/Inc/ai_datatypes_internal.h **** /*!
 325:Lib/AI_Runtime/Inc/ai_datatypes_internal.h ****  * @brief Computes the total size of a tensor given its dimensions.
 326:Lib/AI_Runtime/Inc/ai_datatypes_internal.h ****  * @ingroup datatypes_internal
 327:Lib/AI_Runtime/Inc/ai_datatypes_internal.h ****  * @param shape the tensor shape
 328:Lib/AI_Runtime/Inc/ai_datatypes_internal.h ****  */
 329:Lib/AI_Runtime/Inc/ai_datatypes_internal.h **** AI_DECLARE_STATIC
 330:Lib/AI_Runtime/Inc/ai_datatypes_internal.h **** ai_size ai_shape_get_size(const ai_shape* shape)
 331:Lib/AI_Runtime/Inc/ai_datatypes_internal.h **** {
 332:Lib/AI_Runtime/Inc/ai_datatypes_internal.h ****   AI_ASSERT(shape)
 333:Lib/AI_Runtime/Inc/ai_datatypes_internal.h ****   ai_size dim = AI_SHAPE_SIZE(shape);
 334:Lib/AI_Runtime/Inc/ai_datatypes_internal.h ****   AI_ASSERT(dim > 0)
 335:Lib/AI_Runtime/Inc/ai_datatypes_internal.h ****   ai_size size = 1;
 336:Lib/AI_Runtime/Inc/ai_datatypes_internal.h ****   while (dim>0) {
 337:Lib/AI_Runtime/Inc/ai_datatypes_internal.h ****     dim--;
 338:Lib/AI_Runtime/Inc/ai_datatypes_internal.h ****     size *= AI_SHAPE_ELEM(shape, dim);
 4563              		.loc 2 338 10 view .LVU1149
 4564 0004 D0E90257 		ldrd	r5, r7, [r0, #8]
 4565              	.LBE77:
 4566              	.LBE76:
1132:Lib/AI_Runtime/Npu/ll_aton/ll_sw_float.c ****   Bn_sw_info *sw_info = (Bn_sw_info *)sw_info_struct;
 4567              		.loc 1 1132 1 view .LVU1150
 4568 0008 2DED048B 		vpush.64	{d8, d9}
 4569              		.cfi_def_cfa_offset 52
 4570              		.cfi_offset 80, -52
ARM GAS  C:\Users\DJESSOU\AppData\Local\Temp\ccdFeyMS.s 			page 119


 4571              		.cfi_offset 81, -48
 4572              		.cfi_offset 82, -44
 4573              		.cfi_offset 83, -40
 4574              	.LBB79:
1136:Lib/AI_Runtime/Npu/ll_aton/ll_sw_float.c ****                        sw_info->general.input.mem.start_offset, sw_info->general.input.dim.num_elem
1137:Lib/AI_Runtime/Npu/ll_aton/ll_sw_float.c ****   AI_ARRAY_OBJ_DECLARE(bn_output_array, FORMAT, sw_info->general.output.mem.start_offset,
1138:Lib/AI_Runtime/Npu/ll_aton/ll_sw_float.c ****                        sw_info->general.output.mem.start_offset, sw_info->general.output.dim.num_el
1139:Lib/AI_Runtime/Npu/ll_aton/ll_sw_float.c ****   AI_ARRAY_OBJ_DECLARE(bn_bias_array, FORMAT, sw_info->bias.mem.start_offset, sw_info->bias.mem.sta
1140:Lib/AI_Runtime/Npu/ll_aton/ll_sw_float.c ****                        sw_info->bias.dim.num_elem, )
1141:Lib/AI_Runtime/Npu/ll_aton/ll_sw_float.c ****   AI_ARRAY_OBJ_DECLARE(bn_scale_array, FORMAT, sw_info->scale.mem.start_offset, sw_info->scale.mem.
1142:Lib/AI_Runtime/Npu/ll_aton/ll_sw_float.c ****                        sw_info->scale.dim.num_elem, )
1143:Lib/AI_Runtime/Npu/ll_aton/ll_sw_float.c ****   AI_ARRAY_OBJ_DECLARE(bn_mean_array, FORMAT, sw_info->mean.mem.start_offset, sw_info->mean.mem.sta
1144:Lib/AI_Runtime/Npu/ll_aton/ll_sw_float.c ****                        sw_info->mean.dim.num_elem, )
1145:Lib/AI_Runtime/Npu/ll_aton/ll_sw_float.c ****   AI_ARRAY_OBJ_DECLARE(bn_var_array, FORMAT, sw_info->var.mem.start_offset, sw_info->var.mem.start_
1146:Lib/AI_Runtime/Npu/ll_aton/ll_sw_float.c ****                        sw_info->var.dim.num_elem, )
1147:Lib/AI_Runtime/Npu/ll_aton/ll_sw_float.c **** 
1148:Lib/AI_Runtime/Npu/ll_aton/ll_sw_float.c ****   // tensors init
1149:Lib/AI_Runtime/Npu/ll_aton/ll_sw_float.c ****   AI_TENSOR_OBJ_DECLARE(input_output, , 0x0, 4,
1150:Lib/AI_Runtime/Npu/ll_aton/ll_sw_float.c ****                         SHAPE_INIT(sw_info->general.input.dim.tensor_h, sw_info->general.input.dim.
1151:Lib/AI_Runtime/Npu/ll_aton/ll_sw_float.c ****                                    sw_info->general.input.dim.tensor_c, sw_info->general.input.dim.
1152:Lib/AI_Runtime/Npu/ll_aton/ll_sw_float.c ****                         STRIDE_INIT(sw_info->general.input.stride.h, sw_info->general.input.stride.
1153:Lib/AI_Runtime/Npu/ll_aton/ll_sw_float.c ****                                     sw_info->general.input.stride.c, sw_info->general.input.stride.
1154:Lib/AI_Runtime/Npu/ll_aton/ll_sw_float.c ****                         1, &input_output_array, NULL)
1155:Lib/AI_Runtime/Npu/ll_aton/ll_sw_float.c ****   AI_TENSOR_OBJ_DECLARE(bn_output, , 0x0, 4,
1156:Lib/AI_Runtime/Npu/ll_aton/ll_sw_float.c ****                         SHAPE_INIT(sw_info->general.output.dim.tensor_h, sw_info->general.output.di
1157:Lib/AI_Runtime/Npu/ll_aton/ll_sw_float.c ****                                    sw_info->general.output.dim.tensor_c, sw_info->general.output.di
1158:Lib/AI_Runtime/Npu/ll_aton/ll_sw_float.c ****                         STRIDE_INIT(sw_info->general.output.stride.h, sw_info->general.output.strid
1159:Lib/AI_Runtime/Npu/ll_aton/ll_sw_float.c ****                                     sw_info->general.output.stride.c, sw_info->general.output.strid
1160:Lib/AI_Runtime/Npu/ll_aton/ll_sw_float.c ****                         1, &bn_output_array, NULL)
1161:Lib/AI_Runtime/Npu/ll_aton/ll_sw_float.c ****   AI_TENSOR_OBJ_DECLARE(
1162:Lib/AI_Runtime/Npu/ll_aton/ll_sw_float.c ****       bn_bias, , 0x0, 4,
1163:Lib/AI_Runtime/Npu/ll_aton/ll_sw_float.c ****       SHAPE_INIT(sw_info->bias.dim.tensor_h, sw_info->bias.dim.tensor_w, sw_info->bias.dim.tensor_c
1164:Lib/AI_Runtime/Npu/ll_aton/ll_sw_float.c ****                  sw_info->bias.dim.tensor_b),
1165:Lib/AI_Runtime/Npu/ll_aton/ll_sw_float.c ****       STRIDE_INIT(sw_info->bias.stride.h, sw_info->bias.stride.w, sw_info->bias.stride.c, sw_info->
1166:Lib/AI_Runtime/Npu/ll_aton/ll_sw_float.c ****       &bn_bias_array, NULL);
1167:Lib/AI_Runtime/Npu/ll_aton/ll_sw_float.c ****   AI_TENSOR_OBJ_DECLARE(
1168:Lib/AI_Runtime/Npu/ll_aton/ll_sw_float.c ****       bn_scale, , 0x0, 4,
1169:Lib/AI_Runtime/Npu/ll_aton/ll_sw_float.c ****       SHAPE_INIT(sw_info->scale.dim.tensor_h, sw_info->scale.dim.tensor_w, sw_info->scale.dim.tenso
1170:Lib/AI_Runtime/Npu/ll_aton/ll_sw_float.c ****                  sw_info->scale.dim.tensor_b),
1171:Lib/AI_Runtime/Npu/ll_aton/ll_sw_float.c ****       STRIDE_INIT(sw_info->scale.stride.h, sw_info->scale.stride.w, sw_info->scale.stride.c, sw_inf
1172:Lib/AI_Runtime/Npu/ll_aton/ll_sw_float.c ****       1, &bn_scale_array, NULL);
1173:Lib/AI_Runtime/Npu/ll_aton/ll_sw_float.c ****   AI_TENSOR_OBJ_DECLARE(
1174:Lib/AI_Runtime/Npu/ll_aton/ll_sw_float.c ****       bn_mean, , 0x0, 4,
1175:Lib/AI_Runtime/Npu/ll_aton/ll_sw_float.c ****       SHAPE_INIT(sw_info->mean.dim.tensor_h, sw_info->mean.dim.tensor_w, sw_info->mean.dim.tensor_c
1176:Lib/AI_Runtime/Npu/ll_aton/ll_sw_float.c ****                  sw_info->mean.dim.tensor_b),
1177:Lib/AI_Runtime/Npu/ll_aton/ll_sw_float.c ****       STRIDE_INIT(sw_info->mean.stride.h, sw_info->mean.stride.w, sw_info->mean.stride.c, sw_info->
1178:Lib/AI_Runtime/Npu/ll_aton/ll_sw_float.c ****       &bn_mean_array, NULL);
1179:Lib/AI_Runtime/Npu/ll_aton/ll_sw_float.c ****   AI_TENSOR_OBJ_DECLARE(
1180:Lib/AI_Runtime/Npu/ll_aton/ll_sw_float.c ****       bn_var, , 0x0, 4,
1181:Lib/AI_Runtime/Npu/ll_aton/ll_sw_float.c ****       SHAPE_INIT(sw_info->var.dim.tensor_h, sw_info->var.dim.tensor_w, sw_info->var.dim.tensor_c,
1182:Lib/AI_Runtime/Npu/ll_aton/ll_sw_float.c ****                  sw_info->var.dim.tensor_b),
1183:Lib/AI_Runtime/Npu/ll_aton/ll_sw_float.c ****       STRIDE_INIT(sw_info->var.stride.h, sw_info->var.stride.w, sw_info->var.stride.c, sw_info->var
1184:Lib/AI_Runtime/Npu/ll_aton/ll_sw_float.c ****       &bn_var_array, NULL);
1185:Lib/AI_Runtime/Npu/ll_aton/ll_sw_float.c **** 
1186:Lib/AI_Runtime/Npu/ll_aton/ll_sw_float.c ****   const ai_tensor *t_in = &input_output;
1187:Lib/AI_Runtime/Npu/ll_aton/ll_sw_float.c ****   const ai_tensor *t_out = &bn_output;
1188:Lib/AI_Runtime/Npu/ll_aton/ll_sw_float.c ****   const ai_tensor *t_bias = &bn_bias;
ARM GAS  C:\Users\DJESSOU\AppData\Local\Temp\ccdFeyMS.s 			page 120


1189:Lib/AI_Runtime/Npu/ll_aton/ll_sw_float.c ****   const ai_tensor *t_scale = &bn_scale;
1190:Lib/AI_Runtime/Npu/ll_aton/ll_sw_float.c ****   const ai_tensor *t_mean = &bn_mean;
1191:Lib/AI_Runtime/Npu/ll_aton/ll_sw_float.c ****   const ai_tensor *t_var = &bn_var;
1192:Lib/AI_Runtime/Npu/ll_aton/ll_sw_float.c **** 
1193:Lib/AI_Runtime/Npu/ll_aton/ll_sw_float.c ****   const ai_size n_elements = ai_shape_get_size(AI_TENSOR_SHAPE(t_in));
1194:Lib/AI_Runtime/Npu/ll_aton/ll_sw_float.c ****   const ai_size n_channel_in = AI_SHAPE_CH(AI_TENSOR_SHAPE(t_in));
1195:Lib/AI_Runtime/Npu/ll_aton/ll_sw_float.c ****   const ai_float *in_data = AI_ARRAY_OBJ_DATA(t_in->data, ai_float);
1196:Lib/AI_Runtime/Npu/ll_aton/ll_sw_float.c ****   ai_float *out_data = AI_ARRAY_OBJ_DATA(t_out->data, ai_float);
1197:Lib/AI_Runtime/Npu/ll_aton/ll_sw_float.c **** 
1198:Lib/AI_Runtime/Npu/ll_aton/ll_sw_float.c ****   AI_ASSERT(n_elements > 0 && n_channel_in > 0)
1199:Lib/AI_Runtime/Npu/ll_aton/ll_sw_float.c ****   AI_ASSERT(n_channel_in == AI_SHAPE_CH(AI_TENSOR_SHAPE(t_scale)))
1200:Lib/AI_Runtime/Npu/ll_aton/ll_sw_float.c ****   AI_ASSERT(!t_bias || n_channel_in == AI_SHAPE_CH(AI_TENSOR_SHAPE(t_bias)))
1201:Lib/AI_Runtime/Npu/ll_aton/ll_sw_float.c **** 
1202:Lib/AI_Runtime/Npu/ll_aton/ll_sw_float.c ****   const ai_float *scale = (const ai_float *)t_scale->data->data;
1203:Lib/AI_Runtime/Npu/ll_aton/ll_sw_float.c ****   const ai_float *bias = (const ai_float *)t_bias->data->data;
1204:Lib/AI_Runtime/Npu/ll_aton/ll_sw_float.c ****   const ai_float *mean = (const ai_float *)t_mean->data->data;
1205:Lib/AI_Runtime/Npu/ll_aton/ll_sw_float.c ****   const ai_float *var = (const ai_float *)t_var->data->data;
1206:Lib/AI_Runtime/Npu/ll_aton/ll_sw_float.c ****   const float epsilon = 0.00001f;
1207:Lib/AI_Runtime/Npu/ll_aton/ll_sw_float.c ****   for (ai_size i = 0; i < n_elements; i += n_channel_in)
 4575              		.loc 1 1207 16 view .LVU1151
 4576 000c 0024     		movs	r4, #0
 4577              	.LBB80:
1208:Lib/AI_Runtime/Npu/ll_aton/ll_sw_float.c ****   {
1209:Lib/AI_Runtime/Npu/ll_aton/ll_sw_float.c ****     for (ai_size ch = i; ch < i + n_channel_in; ++ch)
1210:Lib/AI_Runtime/Npu/ll_aton/ll_sw_float.c ****     {
1211:Lib/AI_Runtime/Npu/ll_aton/ll_sw_float.c ****       // LL_ATON_PRINTF("%f %f %f %f %f \n", in_data[ch], mean[ch-i], sqrtf(var[ch-i]), scale[ch-i]
1212:Lib/AI_Runtime/Npu/ll_aton/ll_sw_float.c ****       out_data[ch] = ((in_data[ch] - mean[ch - i]) / (sqrtf(var[ch - i] + epsilon))) * scale[ch - i
 4578              		.loc 1 1212 55 view .LVU1152
 4579 000e DFED258A 		vldr.32	s17, .L131
 4580              	.LBE80:
 4581              	.LBE79:
1135:Lib/AI_Runtime/Npu/ll_aton/ll_sw_float.c ****                        sw_info->general.input.mem.start_offset, sw_info->general.input.dim.num_elem
 4582              		.loc 1 1135 3 view .LVU1153
 4583 0012 836A     		ldr	r3, [r0, #40]
1132:Lib/AI_Runtime/Npu/ll_aton/ll_sw_float.c ****   Bn_sw_info *sw_info = (Bn_sw_info *)sw_info_struct;
 4584              		.loc 1 1132 1 view .LVU1154
 4585 0014 89B0     		sub	sp, sp, #36
 4586              		.cfi_def_cfa_offset 88
1135:Lib/AI_Runtime/Npu/ll_aton/ll_sw_float.c ****                        sw_info->general.input.mem.start_offset, sw_info->general.input.dim.num_elem
 4587              		.loc 1 1135 3 view .LVU1155
 4588 0016 0093     		str	r3, [sp]
1137:Lib/AI_Runtime/Npu/ll_aton/ll_sw_float.c ****                        sw_info->general.output.mem.start_offset, sw_info->general.output.dim.num_el
 4589              		.loc 1 1137 3 is_stmt 1 view .LVU1156
 4590 0018 436D     		ldr	r3, [r0, #84]
1143:Lib/AI_Runtime/Npu/ll_aton/ll_sw_float.c ****                        sw_info->mean.dim.num_elem, )
 4591              		.loc 1 1143 3 is_stmt 0 view .LVU1157
 4592 001a D0F8D810 		ldr	r1, [r0, #216]
1137:Lib/AI_Runtime/Npu/ll_aton/ll_sw_float.c ****                        sw_info->general.output.mem.start_offset, sw_info->general.output.dim.num_el
 4593              		.loc 1 1137 3 view .LVU1158
 4594 001e 0193     		str	r3, [sp, #4]
1139:Lib/AI_Runtime/Npu/ll_aton/ll_sw_float.c ****                        sw_info->bias.dim.num_elem, )
 4595              		.loc 1 1139 3 is_stmt 1 view .LVU1159
 4596 0020 D0F88030 		ldr	r3, [r0, #128]
 4597 0024 0293     		str	r3, [sp, #8]
1141:Lib/AI_Runtime/Npu/ll_aton/ll_sw_float.c ****                        sw_info->scale.dim.num_elem, )
 4598              		.loc 1 1141 3 view .LVU1160
 4599 0026 D0F8AC30 		ldr	r3, [r0, #172]
ARM GAS  C:\Users\DJESSOU\AppData\Local\Temp\ccdFeyMS.s 			page 121


 4600 002a 0393     		str	r3, [sp, #12]
1143:Lib/AI_Runtime/Npu/ll_aton/ll_sw_float.c ****                        sw_info->mean.dim.num_elem, )
 4601              		.loc 1 1143 3 view .LVU1161
1145:Lib/AI_Runtime/Npu/ll_aton/ll_sw_float.c ****                        sw_info->var.dim.num_elem, )
 4602              		.loc 1 1145 3 view .LVU1162
 4603 002c D0F80431 		ldr	r3, [r0, #260]
 4604 0030 0493     		str	r3, [sp, #16]
1149:Lib/AI_Runtime/Npu/ll_aton/ll_sw_float.c ****                         SHAPE_INIT(sw_info->general.input.dim.tensor_h, sw_info->general.input.dim.
 4605              		.loc 1 1149 3 view .LVU1163
 4606              	.LBB82:
 4607              	.LBB78:
 4608              		.loc 2 338 10 is_stmt 0 view .LVU1164
 4609 0032 4368     		ldr	r3, [r0, #4]
 4610 0034 5D43     		muls	r5, r3, r5
 4611              	.LVL201:
 336:Lib/AI_Runtime/Inc/ai_datatypes_internal.h ****     dim--;
 4612              		.loc 2 336 13 is_stmt 1 view .LVU1165
 337:Lib/AI_Runtime/Inc/ai_datatypes_internal.h ****     size *= AI_SHAPE_ELEM(shape, dim);
 4613              		.loc 2 337 5 view .LVU1166
 4614              		.loc 2 338 5 view .LVU1167
 4615              		.loc 2 338 10 is_stmt 0 view .LVU1168
 4616 0036 7D43     		muls	r5, r7, r5
 4617              	.LVL202:
 336:Lib/AI_Runtime/Inc/ai_datatypes_internal.h ****     dim--;
 4618              		.loc 2 336 13 is_stmt 1 view .LVU1169
 337:Lib/AI_Runtime/Inc/ai_datatypes_internal.h ****     size *= AI_SHAPE_ELEM(shape, dim);
 4619              		.loc 2 337 5 view .LVU1170
 4620              		.loc 2 338 5 view .LVU1171
 4621              		.loc 2 338 10 is_stmt 0 view .LVU1172
 4622 0038 0369     		ldr	r3, [r0, #16]
 4623 003a 5D43     		muls	r5, r3, r5
 4624              	.LVL203:
 336:Lib/AI_Runtime/Inc/ai_datatypes_internal.h ****     dim--;
 4625              		.loc 2 336 13 is_stmt 1 view .LVU1173
 4626              	.L127:
 336:Lib/AI_Runtime/Inc/ai_datatypes_internal.h ****     dim--;
 4627              		.loc 2 336 13 is_stmt 0 view .LVU1174
 4628              	.LBE78:
 4629              	.LBE82:
 4630              	.LBB83:
1207:Lib/AI_Runtime/Npu/ll_aton/ll_sw_float.c ****   {
 4631              		.loc 1 1207 25 is_stmt 1 discriminator 1 view .LVU1175
 4632 003c AC42     		cmp	r4, r5
 4633 003e 2CD2     		bcs	.L126
 4634 0040 DDE90109 		ldrd	r0, r9, [sp, #4]
 4635 0044 DDE903AB 		ldrd	r10, fp, [sp, #12]
 4636 0048 009B     		ldr	r3, [sp]
 4637 004a 00EB8408 		add	r8, r0, r4, lsl #2
 4638 004e 03EB8402 		add	r2, r3, r4, lsl #2
 4639 0052 3E19     		adds	r6, r7, r4
 4640 0054 0B46     		mov	r3, r1
 4641 0056 1CE0     		b	.L130
 4642              	.LVL204:
 4643              	.L128:
 4644              	.LBB81:
 4645              		.loc 1 1212 64 is_stmt 0 view .LVU1176
 4646 0058 BBEC010A 		vldmia.32	fp!, {s0}
ARM GAS  C:\Users\DJESSOU\AppData\Local\Temp\ccdFeyMS.s 			page 122


 4647              		.loc 1 1212 31 view .LVU1177
 4648 005c B2EC018A 		vldmia.32	r2!, {s16}
 4649              		.loc 1 1212 42 view .LVU1178
 4650 0060 B3EC019A 		vldmia.32	r3!, {s18}
 4651              		.loc 1 1212 55 view .LVU1179
 4652 0064 30EE280A 		vadd.f32	s0, s0, s17
 4653 0068 0791     		str	r1, [sp, #28]
 4654              		.loc 1 1212 7 is_stmt 1 view .LVU1180
 4655              		.loc 1 1212 31 is_stmt 0 view .LVU1181
 4656 006a 0692     		str	r2, [sp, #24]
 4657              		.loc 1 1212 42 view .LVU1182
 4658 006c 0593     		str	r3, [sp, #20]
 4659              		.loc 1 1212 55 view .LVU1183
 4660 006e FFF7FEFF 		bl	sqrtf
 4661              	.LVL205:
1209:Lib/AI_Runtime/Npu/ll_aton/ll_sw_float.c ****     {
 4662              		.loc 1 1209 49 discriminator 3 view .LVU1184
 4663 0072 DDE90621 		ldrd	r2, r1, [sp, #24]
 4664              		.loc 1 1212 36 view .LVU1185
 4665 0076 38EE498A 		vsub.f32	s16, s16, s18
 4666              		.loc 1 1212 93 discriminator 1 view .LVU1186
 4667 007a BAEC017A 		vldmia.32	r10!, {s14}
 4668              		.loc 1 1212 108 discriminator 1 view .LVU1187
 4669 007e F9EC017A 		vldmia.32	r9!, {s15}
 4670              		.loc 1 1212 52 discriminator 1 view .LVU1188
 4671 0082 C8EE006A 		vdiv.f32	s13, s16, s0
 4672              		.loc 1 1212 102 discriminator 1 view .LVU1189
 4673 0086 E6EE877A 		vfma.f32	s15, s13, s14
 4674              		.loc 1 1212 20 discriminator 1 view .LVU1190
 4675 008a E8EC017A 		vstmia.32	r8!, {s15}
1209:Lib/AI_Runtime/Npu/ll_aton/ll_sw_float.c ****     {
 4676              		.loc 1 1209 49 is_stmt 1 discriminator 3 view .LVU1191
 4677 008e 059B     		ldr	r3, [sp, #20]
 4678 0090 0134     		adds	r4, r4, #1
 4679              	.LVL206:
 4680              	.L130:
1209:Lib/AI_Runtime/Npu/ll_aton/ll_sw_float.c ****     {
 4681              		.loc 1 1209 29 discriminator 1 view .LVU1192
 4682 0092 B442     		cmp	r4, r6
 4683 0094 E0D3     		bcc	.L128
 4684 0096 3446     		mov	r4, r6
 4685              	.LVL207:
1209:Lib/AI_Runtime/Npu/ll_aton/ll_sw_float.c ****     {
 4686              		.loc 1 1209 29 is_stmt 0 discriminator 1 view .LVU1193
 4687 0098 D0E7     		b	.L127
 4688              	.LVL208:
 4689              	.L126:
1209:Lib/AI_Runtime/Npu/ll_aton/ll_sw_float.c ****     {
 4690              		.loc 1 1209 29 discriminator 1 view .LVU1194
 4691              	.LBE81:
 4692              	.LBE83:
1213:Lib/AI_Runtime/Npu/ll_aton/ll_sw_float.c ****     }
1214:Lib/AI_Runtime/Npu/ll_aton/ll_sw_float.c ****   }
1215:Lib/AI_Runtime/Npu/ll_aton/ll_sw_float.c **** }
 4693              		.loc 1 1215 1 view .LVU1195
 4694 009a 09B0     		add	sp, sp, #36
 4695              		.cfi_def_cfa_offset 52
ARM GAS  C:\Users\DJESSOU\AppData\Local\Temp\ccdFeyMS.s 			page 123


 4696              		@ sp needed
 4697 009c BDEC048B 		vldm	sp!, {d8-d9}
 4698              		.cfi_restore 82
 4699              		.cfi_restore 83
 4700              		.cfi_restore 80
 4701              		.cfi_restore 81
 4702              		.cfi_def_cfa_offset 36
 4703 00a0 BDE8F08F 		pop	{r4, r5, r6, r7, r8, r9, r10, fp, pc}
 4704              	.LVL209:
 4705              	.L132:
 4706              		.loc 1 1215 1 view .LVU1196
 4707              		.align	2
 4708              	.L131:
 4709 00a4 ACC52737 		.word	925353388
 4710              		.cfi_endproc
 4711              	.LFE28:
 4713              		.section	.text.ll_sw_forward_instance_normalization,"ax",%progbits
 4714              		.align	1
 4715              		.global	ll_sw_forward_instance_normalization
 4716              		.syntax unified
 4717              		.thumb
 4718              		.thumb_func
 4720              	ll_sw_forward_instance_normalization:
 4721              	.LVL210:
 4722              	.LFB29:
1216:Lib/AI_Runtime/Npu/ll_aton/ll_sw_float.c **** 
1217:Lib/AI_Runtime/Npu/ll_aton/ll_sw_float.c **** //##########################################################################################
1218:Lib/AI_Runtime/Npu/ll_aton/ll_sw_float.c **** /** Instance Norm forward function  */
1219:Lib/AI_Runtime/Npu/ll_aton/ll_sw_float.c **** void ll_sw_forward_instance_normalization(/* int processor, */ void *sw_info_struct)
1220:Lib/AI_Runtime/Npu/ll_aton/ll_sw_float.c **** {
 4723              		.loc 1 1220 1 is_stmt 1 view -0
 4724              		.cfi_startproc
 4725              		@ args = 0, pretend = 0, frame = 416
 4726              		@ frame_needed = 0, uses_anonymous_args = 0
1221:Lib/AI_Runtime/Npu/ll_aton/ll_sw_float.c ****   Instance_normalization_sw_info *sw_info = (Instance_normalization_sw_info *)sw_info_struct;
 4727              		.loc 1 1221 3 view .LVU1198
1222:Lib/AI_Runtime/Npu/ll_aton/ll_sw_float.c **** 
1223:Lib/AI_Runtime/Npu/ll_aton/ll_sw_float.c ****   AI_ARRAY_OBJ_DECLARE(input_output_array, FORMAT, sw_info->general.input.mem.start_offset,
 4728              		.loc 1 1223 3 view .LVU1199
1220:Lib/AI_Runtime/Npu/ll_aton/ll_sw_float.c ****   Instance_normalization_sw_info *sw_info = (Instance_normalization_sw_info *)sw_info_struct;
 4729              		.loc 1 1220 1 is_stmt 0 view .LVU1200
 4730 0000 2DE9F041 		push	{r4, r5, r6, r7, r8, lr}
 4731              		.cfi_def_cfa_offset 24
 4732              		.cfi_offset 4, -24
 4733              		.cfi_offset 5, -20
 4734              		.cfi_offset 6, -16
 4735              		.cfi_offset 7, -12
 4736              		.cfi_offset 8, -8
 4737              		.cfi_offset 14, -4
 4738              		.loc 1 1223 3 view .LVU1201
 4739 0004 654B     		ldr	r3, .L134
1220:Lib/AI_Runtime/Npu/ll_aton/ll_sw_float.c ****   Instance_normalization_sw_info *sw_info = (Instance_normalization_sw_info *)sw_info_struct;
 4740              		.loc 1 1220 1 view .LVU1202
 4741 0006 E8B0     		sub	sp, sp, #416
 4742              		.cfi_def_cfa_offset 440
 4743              		.loc 1 1223 3 view .LVU1203
 4744 0008 0893     		str	r3, [sp, #32]
ARM GAS  C:\Users\DJESSOU\AppData\Local\Temp\ccdFeyMS.s 			page 124


1224:Lib/AI_Runtime/Npu/ll_aton/ll_sw_float.c ****                        sw_info->general.input.mem.start_offset, sw_info->general.input.dim.num_elem
1225:Lib/AI_Runtime/Npu/ll_aton/ll_sw_float.c ****   AI_ARRAY_OBJ_DECLARE(instanceNorm_output_array, FORMAT, sw_info->general.output.mem.start_offset,
 4745              		.loc 1 1225 3 view .LVU1204
 4746 000a 0C93     		str	r3, [sp, #48]
1226:Lib/AI_Runtime/Npu/ll_aton/ll_sw_float.c ****                        sw_info->general.output.mem.start_offset, sw_info->general.output.dim.num_el
1227:Lib/AI_Runtime/Npu/ll_aton/ll_sw_float.c ****   AI_ARRAY_OBJ_DECLARE(instanceNorm_bias_array, FORMAT, sw_info->bias.mem.start_offset, sw_info->bi
 4747              		.loc 1 1227 3 view .LVU1205
 4748 000c 1093     		str	r3, [sp, #64]
1228:Lib/AI_Runtime/Npu/ll_aton/ll_sw_float.c ****                        sw_info->bias.dim.num_elem, )
1229:Lib/AI_Runtime/Npu/ll_aton/ll_sw_float.c ****   AI_ARRAY_OBJ_DECLARE(instanceNorm_scale_array, FORMAT, sw_info->scale.mem.start_offset,
 4749              		.loc 1 1229 3 view .LVU1206
 4750 000e 1493     		str	r3, [sp, #80]
 4751 0010 D0F89830 		ldr	r3, [r0, #152]
1230:Lib/AI_Runtime/Npu/ll_aton/ll_sw_float.c ****                        sw_info->scale.mem.start_offset, sw_info->scale.dim.num_elem, )
1231:Lib/AI_Runtime/Npu/ll_aton/ll_sw_float.c **** 
1232:Lib/AI_Runtime/Npu/ll_aton/ll_sw_float.c ****   // tensors init
1233:Lib/AI_Runtime/Npu/ll_aton/ll_sw_float.c ****   AI_TENSOR_OBJ_DECLARE(input_output, , 0x0, 4,
 4752              		.loc 1 1233 3 view .LVU1207
 4753 0014 4FF0827C 		mov	ip, #17039360
1229:Lib/AI_Runtime/Npu/ll_aton/ll_sw_float.c ****                        sw_info->scale.mem.start_offset, sw_info->scale.dim.num_elem, )
 4754              		.loc 1 1229 3 view .LVU1208
 4755 0018 1593     		str	r3, [sp, #84]
 4756 001a D0F8AC30 		ldr	r3, [r0, #172]
 4757              		.loc 1 1233 3 view .LVU1209
 4758 001e 40F20148 		movw	r8, #1025
1229:Lib/AI_Runtime/Npu/ll_aton/ll_sw_float.c ****                        sw_info->scale.mem.start_offset, sw_info->scale.dim.num_elem, )
 4759              		.loc 1 1229 3 view .LVU1210
 4760 0022 CDE91633 		strd	r3, r3, [sp, #88]
 4761              		.loc 1 1233 3 view .LVU1211
 4762 0026 0023     		movs	r3, #0
 4763 0028 40F2024E 		movw	lr, #1026
1223:Lib/AI_Runtime/Npu/ll_aton/ll_sw_float.c ****                        sw_info->general.input.mem.start_offset, sw_info->general.input.dim.num_elem
 4764              		.loc 1 1223 3 view .LVU1212
 4765 002c 4269     		ldr	r2, [r0, #20]
 4766              		.loc 1 1233 3 view .LVU1213
 4767 002e 0669     		ldr	r6, [r0, #16]
1223:Lib/AI_Runtime/Npu/ll_aton/ll_sw_float.c ****                        sw_info->general.input.mem.start_offset, sw_info->general.input.dim.num_elem
 4768              		.loc 1 1223 3 view .LVU1214
 4769 0030 0992     		str	r2, [sp, #36]
 4770 0032 826A     		ldr	r2, [r0, #40]
 4771              		.loc 1 1233 3 view .LVU1215
 4772 0034 CDE9383C 		strd	r3, ip, [sp, #224]
1223:Lib/AI_Runtime/Npu/ll_aton/ll_sw_float.c ****                        sw_info->general.input.mem.start_offset, sw_info->general.input.dim.num_elem
 4773              		.loc 1 1223 3 view .LVU1216
 4774 0038 CDE90A22 		strd	r2, r2, [sp, #40]
1225:Lib/AI_Runtime/Npu/ll_aton/ll_sw_float.c ****                        sw_info->general.output.mem.start_offset, sw_info->general.output.dim.num_el
 4775              		.loc 1 1225 3 is_stmt 1 view .LVU1217
 4776 003c 026C     		ldr	r2, [r0, #64]
 4777              		.loc 1 1233 3 is_stmt 0 view .LVU1218
 4778 003e CDF8E880 		str	r8, [sp, #232]
1225:Lib/AI_Runtime/Npu/ll_aton/ll_sw_float.c ****                        sw_info->general.output.mem.start_offset, sw_info->general.output.dim.num_el
 4779              		.loc 1 1225 3 view .LVU1219
 4780 0042 0D92     		str	r2, [sp, #52]
 4781 0044 426D     		ldr	r2, [r0, #84]
 4782              		.loc 1 1233 3 view .LVU1220
 4783 0046 1896     		str	r6, [sp, #96]
1225:Lib/AI_Runtime/Npu/ll_aton/ll_sw_float.c ****                        sw_info->general.output.mem.start_offset, sw_info->general.output.dim.num_el
ARM GAS  C:\Users\DJESSOU\AppData\Local\Temp\ccdFeyMS.s 			page 125


 4784              		.loc 1 1225 3 view .LVU1221
 4785 0048 CDE90E22 		strd	r2, r2, [sp, #56]
1227:Lib/AI_Runtime/Npu/ll_aton/ll_sw_float.c ****                        sw_info->bias.dim.num_elem, )
 4786              		.loc 1 1227 3 is_stmt 1 view .LVU1222
 4787 004c C26E     		ldr	r2, [r0, #108]
 4788              		.loc 1 1233 3 is_stmt 0 view .LVU1223
 4789 004e 18AF     		add	r7, sp, #96
1227:Lib/AI_Runtime/Npu/ll_aton/ll_sw_float.c ****                        sw_info->bias.dim.num_elem, )
 4790              		.loc 1 1227 3 view .LVU1224
 4791 0050 1192     		str	r2, [sp, #68]
 4792 0052 D0F88020 		ldr	r2, [r0, #128]
1223:Lib/AI_Runtime/Npu/ll_aton/ll_sw_float.c ****                        sw_info->general.input.mem.start_offset, sw_info->general.input.dim.num_elem
 4793              		.loc 1 1223 3 view .LVU1225
 4794 0056 08AD     		add	r5, sp, #32
1227:Lib/AI_Runtime/Npu/ll_aton/ll_sw_float.c ****                        sw_info->bias.dim.num_elem, )
 4795              		.loc 1 1227 3 view .LVU1226
 4796 0058 CDE91222 		strd	r2, r2, [sp, #72]
1229:Lib/AI_Runtime/Npu/ll_aton/ll_sw_float.c ****                        sw_info->scale.mem.start_offset, sw_info->scale.dim.num_elem, )
 4797              		.loc 1 1229 3 is_stmt 1 view .LVU1227
 4798              		.loc 1 1233 3 view .LVU1228
 4799 005c C668     		ldr	r6, [r0, #12]
 4800 005e 3B97     		str	r7, [sp, #236]
 4801 0060 1996     		str	r6, [sp, #100]
 4802 0062 8668     		ldr	r6, [r0, #8]
 4803 0064 1CAF     		add	r7, sp, #112
 4804 0066 CDE93D75 		strd	r7, r5, [sp, #244]
1234:Lib/AI_Runtime/Npu/ll_aton/ll_sw_float.c ****                         SHAPE_INIT(sw_info->general.input.dim.tensor_h, sw_info->general.input.dim.
1235:Lib/AI_Runtime/Npu/ll_aton/ll_sw_float.c ****                                    sw_info->general.input.dim.tensor_c, sw_info->general.input.dim.
1236:Lib/AI_Runtime/Npu/ll_aton/ll_sw_float.c ****                         STRIDE_INIT(sw_info->general.input.stride.h, sw_info->general.input.stride.
1237:Lib/AI_Runtime/Npu/ll_aton/ll_sw_float.c ****                                     sw_info->general.input.stride.c, sw_info->general.input.stride.
1238:Lib/AI_Runtime/Npu/ll_aton/ll_sw_float.c ****                         1, &input_output_array, NULL)
1239:Lib/AI_Runtime/Npu/ll_aton/ll_sw_float.c ****   AI_TENSOR_OBJ_DECLARE(instanceNorm_output, , 0x0, 4,
 4805              		.loc 1 1239 3 view .LVU1229
1233:Lib/AI_Runtime/Npu/ll_aton/ll_sw_float.c ****                         SHAPE_INIT(sw_info->general.input.dim.tensor_h, sw_info->general.input.dim.
 4806              		.loc 1 1233 3 is_stmt 0 view .LVU1230
 4807 006a 1A96     		str	r6, [sp, #104]
 4808              		.loc 1 1239 3 view .LVU1231
 4809 006c C56B     		ldr	r5, [r0, #60]
1233:Lib/AI_Runtime/Npu/ll_aton/ll_sw_float.c ****                         SHAPE_INIT(sw_info->general.input.dim.tensor_h, sw_info->general.input.dim.
 4810              		.loc 1 1233 3 view .LVU1232
 4811 006e 4668     		ldr	r6, [r0, #4]
 4812              		.loc 1 1239 3 view .LVU1233
 4813 0070 2095     		str	r5, [sp, #128]
1233:Lib/AI_Runtime/Npu/ll_aton/ll_sw_float.c ****                         SHAPE_INIT(sw_info->general.input.dim.tensor_h, sw_info->general.input.dim.
 4814              		.loc 1 1233 3 view .LVU1234
 4815 0072 1B96     		str	r6, [sp, #108]
 4816              		.loc 1 1239 3 view .LVU1235
 4817 0074 856B     		ldr	r5, [r0, #56]
1233:Lib/AI_Runtime/Npu/ll_aton/ll_sw_float.c ****                         SHAPE_INIT(sw_info->general.input.dim.tensor_h, sw_info->general.input.dim.
 4818              		.loc 1 1233 3 view .LVU1236
 4819 0076 466A     		ldr	r6, [r0, #36]
 4820              		.loc 1 1239 3 view .LVU1237
 4821 0078 2195     		str	r5, [sp, #132]
1233:Lib/AI_Runtime/Npu/ll_aton/ll_sw_float.c ****                         SHAPE_INIT(sw_info->general.input.dim.tensor_h, sw_info->general.input.dim.
 4822              		.loc 1 1233 3 view .LVU1238
 4823 007a 1C96     		str	r6, [sp, #112]
 4824              		.loc 1 1239 3 view .LVU1239
ARM GAS  C:\Users\DJESSOU\AppData\Local\Temp\ccdFeyMS.s 			page 126


 4825 007c 456B     		ldr	r5, [r0, #52]
1233:Lib/AI_Runtime/Npu/ll_aton/ll_sw_float.c ****                         SHAPE_INIT(sw_info->general.input.dim.tensor_h, sw_info->general.input.dim.
 4826              		.loc 1 1233 3 view .LVU1240
 4827 007e 066A     		ldr	r6, [r0, #32]
 4828              		.loc 1 1239 3 view .LVU1241
 4829 0080 2295     		str	r5, [sp, #136]
1233:Lib/AI_Runtime/Npu/ll_aton/ll_sw_float.c ****                         SHAPE_INIT(sw_info->general.input.dim.tensor_h, sw_info->general.input.dim.
 4830              		.loc 1 1233 3 view .LVU1242
 4831 0082 1D96     		str	r6, [sp, #116]
 4832              		.loc 1 1239 3 view .LVU1243
 4833 0084 056B     		ldr	r5, [r0, #48]
1233:Lib/AI_Runtime/Npu/ll_aton/ll_sw_float.c ****                         SHAPE_INIT(sw_info->general.input.dim.tensor_h, sw_info->general.input.dim.
 4834              		.loc 1 1233 3 view .LVU1244
 4835 0086 C669     		ldr	r6, [r0, #28]
 4836              		.loc 1 1239 3 view .LVU1245
 4837 0088 20AF     		add	r7, sp, #128
1233:Lib/AI_Runtime/Npu/ll_aton/ll_sw_float.c ****                         SHAPE_INIT(sw_info->general.input.dim.tensor_h, sw_info->general.input.dim.
 4838              		.loc 1 1233 3 view .LVU1246
 4839 008a 1E96     		str	r6, [sp, #120]
 4840              		.loc 1 1239 3 view .LVU1247
 4841 008c 2395     		str	r5, [sp, #140]
1233:Lib/AI_Runtime/Npu/ll_aton/ll_sw_float.c ****                         SHAPE_INIT(sw_info->general.input.dim.tensor_h, sw_info->general.input.dim.
 4842              		.loc 1 1233 3 view .LVU1248
 4843 008e 8669     		ldr	r6, [r0, #24]
 4844              		.loc 1 1239 3 view .LVU1249
 4845 0090 056D     		ldr	r5, [r0, #80]
 4846 0092 CDE9427E 		strd	r7, lr, [sp, #264]
1225:Lib/AI_Runtime/Npu/ll_aton/ll_sw_float.c ****                        sw_info->general.output.mem.start_offset, sw_info->general.output.dim.num_el
 4847              		.loc 1 1225 3 view .LVU1250
 4848 0096 0CAC     		add	r4, sp, #48
 4849              		.loc 1 1239 3 view .LVU1251
 4850 0098 24AF     		add	r7, sp, #144
 4851 009a CDE93F3C 		strd	r3, ip, [sp, #252]
1233:Lib/AI_Runtime/Npu/ll_aton/ll_sw_float.c ****                         SHAPE_INIT(sw_info->general.input.dim.tensor_h, sw_info->general.input.dim.
 4852              		.loc 1 1233 3 view .LVU1252
 4853 009e CDF8F0E0 		str	lr, [sp, #240]
 4854 00a2 1F96     		str	r6, [sp, #124]
 4855              		.loc 1 1239 3 view .LVU1253
 4856 00a4 CDF80481 		str	r8, [sp, #260]
 4857 00a8 2495     		str	r5, [sp, #144]
 4858 00aa CDE94474 		strd	r7, r4, [sp, #272]
1240:Lib/AI_Runtime/Npu/ll_aton/ll_sw_float.c ****                         SHAPE_INIT(sw_info->general.output.dim.tensor_h, sw_info->general.output.di
1241:Lib/AI_Runtime/Npu/ll_aton/ll_sw_float.c ****                                    sw_info->general.output.dim.tensor_c, sw_info->general.output.di
1242:Lib/AI_Runtime/Npu/ll_aton/ll_sw_float.c ****                         STRIDE_INIT(sw_info->general.output.stride.h, sw_info->general.output.strid
1243:Lib/AI_Runtime/Npu/ll_aton/ll_sw_float.c ****                                     sw_info->general.output.stride.c, sw_info->general.output.strid
1244:Lib/AI_Runtime/Npu/ll_aton/ll_sw_float.c ****                         1, &instanceNorm_output_array, NULL)
1245:Lib/AI_Runtime/Npu/ll_aton/ll_sw_float.c ****   AI_TENSOR_OBJ_DECLARE(
 4859              		.loc 1 1245 3 is_stmt 1 view .LVU1254
 4860 00ae 846E     		ldr	r4, [r0, #104]
1239:Lib/AI_Runtime/Npu/ll_aton/ll_sw_float.c ****                         SHAPE_INIT(sw_info->general.output.dim.tensor_h, sw_info->general.output.di
 4861              		.loc 1 1239 3 is_stmt 0 view .LVU1255
 4862 00b0 C56C     		ldr	r5, [r0, #76]
 4863              		.loc 1 1245 3 view .LVU1256
 4864 00b2 2894     		str	r4, [sp, #160]
 4865 00b4 446E     		ldr	r4, [r0, #100]
1239:Lib/AI_Runtime/Npu/ll_aton/ll_sw_float.c ****                         SHAPE_INIT(sw_info->general.output.dim.tensor_h, sw_info->general.output.di
 4866              		.loc 1 1239 3 view .LVU1257
ARM GAS  C:\Users\DJESSOU\AppData\Local\Temp\ccdFeyMS.s 			page 127


 4867 00b6 2595     		str	r5, [sp, #148]
 4868              		.loc 1 1245 3 view .LVU1258
 4869 00b8 2994     		str	r4, [sp, #164]
 4870 00ba 046E     		ldr	r4, [r0, #96]
1239:Lib/AI_Runtime/Npu/ll_aton/ll_sw_float.c ****                         SHAPE_INIT(sw_info->general.output.dim.tensor_h, sw_info->general.output.di
 4871              		.loc 1 1239 3 view .LVU1259
 4872 00bc 856C     		ldr	r5, [r0, #72]
 4873              		.loc 1 1245 3 view .LVU1260
 4874 00be 2A94     		str	r4, [sp, #168]
 4875 00c0 C46D     		ldr	r4, [r0, #92]
1239:Lib/AI_Runtime/Npu/ll_aton/ll_sw_float.c ****                         SHAPE_INIT(sw_info->general.output.dim.tensor_h, sw_info->general.output.di
 4876              		.loc 1 1239 3 view .LVU1261
 4877 00c2 2695     		str	r5, [sp, #152]
 4878              		.loc 1 1245 3 view .LVU1262
 4879 00c4 2B94     		str	r4, [sp, #172]
 4880 00c6 C46F     		ldr	r4, [r0, #124]
1239:Lib/AI_Runtime/Npu/ll_aton/ll_sw_float.c ****                         SHAPE_INIT(sw_info->general.output.dim.tensor_h, sw_info->general.output.di
 4881              		.loc 1 1239 3 view .LVU1263
 4882 00c8 456C     		ldr	r5, [r0, #68]
 4883              		.loc 1 1245 3 view .LVU1264
 4884 00ca 2C94     		str	r4, [sp, #176]
 4885 00cc 846F     		ldr	r4, [r0, #120]
1227:Lib/AI_Runtime/Npu/ll_aton/ll_sw_float.c ****                        sw_info->bias.dim.num_elem, )
 4886              		.loc 1 1227 3 view .LVU1265
 4887 00ce 10A9     		add	r1, sp, #64
 4888              		.loc 1 1245 3 view .LVU1266
 4889 00d0 2D94     		str	r4, [sp, #180]
 4890 00d2 446F     		ldr	r4, [r0, #116]
1239:Lib/AI_Runtime/Npu/ll_aton/ll_sw_float.c ****                         SHAPE_INIT(sw_info->general.output.dim.tensor_h, sw_info->general.output.di
 4891              		.loc 1 1239 3 view .LVU1267
 4892 00d4 2795     		str	r5, [sp, #156]
 4893              		.loc 1 1245 3 view .LVU1268
 4894 00d6 2E94     		str	r4, [sp, #184]
 4895 00d8 046F     		ldr	r4, [r0, #112]
 4896 00da 28AD     		add	r5, sp, #160
 4897 00dc 2F94     		str	r4, [sp, #188]
 4898 00de 2CAC     		add	r4, sp, #176
 4899 00e0 CDE9463C 		strd	r3, ip, [sp, #280]
 4900 00e4 CDE9495E 		strd	r5, lr, [sp, #292]
 4901 00e8 CDE94B41 		strd	r4, r1, [sp, #300]
1246:Lib/AI_Runtime/Npu/ll_aton/ll_sw_float.c ****       instanceNorm_bias, , 0x0, 4,
1247:Lib/AI_Runtime/Npu/ll_aton/ll_sw_float.c ****       SHAPE_INIT(sw_info->bias.dim.tensor_h, sw_info->bias.dim.tensor_w, sw_info->bias.dim.tensor_c
1248:Lib/AI_Runtime/Npu/ll_aton/ll_sw_float.c ****                  sw_info->bias.dim.tensor_b),
1249:Lib/AI_Runtime/Npu/ll_aton/ll_sw_float.c ****       STRIDE_INIT(sw_info->bias.stride.h, sw_info->bias.stride.w, sw_info->bias.stride.c, sw_info->
1250:Lib/AI_Runtime/Npu/ll_aton/ll_sw_float.c ****       &instanceNorm_bias_array, NULL);
 4902              		.loc 1 1250 38 is_stmt 1 view .LVU1269
1251:Lib/AI_Runtime/Npu/ll_aton/ll_sw_float.c ****   AI_TENSOR_OBJ_DECLARE(
 4903              		.loc 1 1251 3 view .LVU1270
1245:Lib/AI_Runtime/Npu/ll_aton/ll_sw_float.c ****       instanceNorm_bias, , 0x0, 4,
 4904              		.loc 1 1245 3 is_stmt 0 view .LVU1271
 4905 00ec CDF82081 		str	r8, [sp, #288]
 4906              		.loc 1 1251 3 view .LVU1272
 4907 00f0 CDE94D3C 		strd	r3, ip, [sp, #308]
 4908 00f4 D0F89410 		ldr	r1, [r0, #148]
1229:Lib/AI_Runtime/Npu/ll_aton/ll_sw_float.c ****                        sw_info->scale.mem.start_offset, sw_info->scale.dim.num_elem, )
 4909              		.loc 1 1229 3 view .LVU1273
 4910 00f8 14AA     		add	r2, sp, #80
ARM GAS  C:\Users\DJESSOU\AppData\Local\Temp\ccdFeyMS.s 			page 128


 4911              		.loc 1 1251 3 view .LVU1274
 4912 00fa 3091     		str	r1, [sp, #192]
 4913 00fc D0F89010 		ldr	r1, [r0, #144]
 4914 0100 CDF83C81 		str	r8, [sp, #316]
 4915 0104 3191     		str	r1, [sp, #196]
 4916 0106 D0F88C10 		ldr	r1, [r0, #140]
1252:Lib/AI_Runtime/Npu/ll_aton/ll_sw_float.c ****       instanceNorm_scale, , 0x0, 4,
1253:Lib/AI_Runtime/Npu/ll_aton/ll_sw_float.c ****       SHAPE_INIT(sw_info->scale.dim.tensor_h, sw_info->scale.dim.tensor_w, sw_info->scale.dim.tenso
1254:Lib/AI_Runtime/Npu/ll_aton/ll_sw_float.c ****                  sw_info->scale.dim.tensor_b),
1255:Lib/AI_Runtime/Npu/ll_aton/ll_sw_float.c ****       STRIDE_INIT(sw_info->scale.stride.h, sw_info->scale.stride.w, sw_info->scale.stride.c, sw_inf
1256:Lib/AI_Runtime/Npu/ll_aton/ll_sw_float.c ****       1, &instanceNorm_scale_array, NULL);
1257:Lib/AI_Runtime/Npu/ll_aton/ll_sw_float.c **** 
1258:Lib/AI_Runtime/Npu/ll_aton/ll_sw_float.c ****   // tensor chain initialization
1259:Lib/AI_Runtime/Npu/ll_aton/ll_sw_float.c ****   AI_TENSOR_CHAIN_OBJ_DECLARE(
 4917              		.loc 1 1259 3 view .LVU1275
 4918 010a CDF874D1 		str	sp, [sp, #372]
1251:Lib/AI_Runtime/Npu/ll_aton/ll_sw_float.c ****       instanceNorm_scale, , 0x0, 4,
 4919              		.loc 1 1251 3 view .LVU1276
 4920 010e 3291     		str	r1, [sp, #200]
 4921 0110 D0F88810 		ldr	r1, [r0, #136]
 4922 0114 3391     		str	r1, [sp, #204]
 4923 0116 30A9     		add	r1, sp, #192
 4924 0118 CDE9501E 		strd	r1, lr, [sp, #320]
 4925 011c D0F8A810 		ldr	r1, [r0, #168]
 4926 0120 3491     		str	r1, [sp, #208]
 4927 0122 D0F8A410 		ldr	r1, [r0, #164]
 4928 0126 3591     		str	r1, [sp, #212]
 4929 0128 D0F8A010 		ldr	r1, [r0, #160]
 4930 012c 3691     		str	r1, [sp, #216]
 4931 012e D0F89C10 		ldr	r1, [r0, #156]
 4932              		.loc 1 1259 3 view .LVU1277
 4933 0132 38A8     		add	r0, sp, #224
 4934              	.LVL211:
1251:Lib/AI_Runtime/Npu/ll_aton/ll_sw_float.c ****       instanceNorm_scale, , 0x0, 4,
 4935              		.loc 1 1251 3 view .LVU1278
 4936 0134 3791     		str	r1, [sp, #220]
 4937 0136 34A9     		add	r1, sp, #208
 4938 0138 CDE95212 		strd	r1, r2, [sp, #328]
1256:Lib/AI_Runtime/Npu/ll_aton/ll_sw_float.c **** 
 4939              		.loc 1 1256 42 is_stmt 1 view .LVU1279
 4940              		.loc 1 1259 3 view .LVU1280
 4941 013c 0422     		movs	r2, #4
 4942 013e 0392     		str	r2, [sp, #12]
 4943 0140 0122     		movs	r2, #1
 4944 0142 CDE95E32 		strd	r3, r2, [sp, #376]
 4945 0146 5C92     		str	r2, [sp, #368]
 4946 0148 01AA     		add	r2, sp, #4
 4947 014a CDE96023 		strd	r2, r3, [sp, #384]
 4948 014e 0322     		movs	r2, #3
 4949 0150 0090     		str	r0, [sp]
 4950 0152 3FA8     		add	r0, sp, #252
 4951 0154 0190     		str	r0, [sp, #4]
 4952 0156 4DA8     		add	r0, sp, #308
 4953 0158 6292     		str	r2, [sp, #392]
 4954 015a 0590     		str	r0, [sp, #20]
 4955 015c 05AA     		add	r2, sp, #20
 4956 015e 46A8     		add	r0, sp, #280
ARM GAS  C:\Users\DJESSOU\AppData\Local\Temp\ccdFeyMS.s 			page 129


 4957 0160 CDE90603 		strd	r0, r3, [sp, #24]
 4958 0164 CDE96323 		strd	r2, r3, [sp, #396]
 4959 0168 02AA     		add	r2, sp, #8
 4960 016a CDE96623 		strd	r2, r3, [sp, #408]
 4961 016e 5CAA     		add	r2, sp, #368
 4962 0170 0492     		str	r2, [sp, #16]
1260:Lib/AI_Runtime/Npu/ll_aton/ll_sw_float.c ****       instanceNorm_chain, , 4, AI_TENSOR_LIST_OBJ_INIT(AI_FLAG_NONE, 1, TENSORS(&input_output)),
1261:Lib/AI_Runtime/Npu/ll_aton/ll_sw_float.c ****       AI_TENSOR_LIST_OBJ_INIT(AI_FLAG_NONE, 1, TENSORS(&instanceNorm_output)),
1262:Lib/AI_Runtime/Npu/ll_aton/ll_sw_float.c ****       AI_TENSOR_LIST_OBJ_INIT(AI_FLAG_NONE, 3, TENSORS(&instanceNorm_scale, &instanceNorm_bias, NUL
1263:Lib/AI_Runtime/Npu/ll_aton/ll_sw_float.c ****       AI_TENSOR_LIST_OBJ_EMPTY, )
1264:Lib/AI_Runtime/Npu/ll_aton/ll_sw_float.c **** 
1265:Lib/AI_Runtime/Npu/ll_aton/ll_sw_float.c ****   // layer initialization
1266:Lib/AI_Runtime/Npu/ll_aton/ll_sw_float.c ****   AI_LAYER_OBJ_DECLARE(instanceNorm_layer, 1, INSTANCENORMALIZATION_TYPE, 0x0, NULL, instanceNormal
 4963              		.loc 1 1266 3 view .LVU1281
 4964 0172 0B4A     		ldr	r2, .L134+4
 4965 0174 CDE95633 		strd	r3, r3, [sp, #344]
 4966 0178 CDE95423 		strd	r2, r3, [sp, #336]
1259:Lib/AI_Runtime/Npu/ll_aton/ll_sw_float.c ****       instanceNorm_chain, , 4, AI_TENSOR_LIST_OBJ_INIT(AI_FLAG_NONE, 1, TENSORS(&input_output)),
 4967              		.loc 1 1259 3 is_stmt 0 view .LVU1282
 4968 017c 6593     		str	r3, [sp, #404]
 4969 017e 0293     		str	r3, [sp, #8]
 4970              		.loc 1 1266 3 view .LVU1283
 4971 0180 5893     		str	r3, [sp, #352]
 4972 0182 084B     		ldr	r3, .L134+8
1259:Lib/AI_Runtime/Npu/ll_aton/ll_sw_float.c ****       instanceNorm_chain, , 4, AI_TENSOR_LIST_OBJ_INIT(AI_FLAG_NONE, 1, TENSORS(&input_output)),
 4973              		.loc 1 1259 3 view .LVU1284
 4974 0184 03A9     		add	r1, sp, #12
 4975              		.loc 1 1266 3 view .LVU1285
 4976 0186 CDE95931 		strd	r3, r1, [sp, #356]
 4977 018a 074B     		ldr	r3, .L134+12
1267:Lib/AI_Runtime/Npu/ll_aton/ll_sw_float.c ****                        forward_instanceNormalization, &instanceNorm_chain, NULL, NULL, , .eps = 0.0
1268:Lib/AI_Runtime/Npu/ll_aton/ll_sw_float.c ****   instanceNorm_layer.forward(AI_LAYER_OBJ(&instanceNorm_layer));
 4978              		.loc 1 1268 3 view .LVU1286
 4979 018c 54A8     		add	r0, sp, #336
1266:Lib/AI_Runtime/Npu/ll_aton/ll_sw_float.c ****                        forward_instanceNormalization, &instanceNorm_chain, NULL, NULL, , .eps = 0.0
 4980              		.loc 1 1266 3 view .LVU1287
 4981 018e 5B93     		str	r3, [sp, #364]	@ float
 4982              		.loc 1 1268 3 is_stmt 1 view .LVU1288
 4983 0190 FFF7FEFF 		bl	forward_instanceNormalization
 4984              	.LVL212:
1269:Lib/AI_Runtime/Npu/ll_aton/ll_sw_float.c **** }
 4985              		.loc 1 1269 1 is_stmt 0 view .LVU1289
 4986 0194 68B0     		add	sp, sp, #416
 4987              		.cfi_def_cfa_offset 24
 4988              		@ sp needed
 4989 0196 BDE8F081 		pop	{r4, r5, r6, r7, r8, pc}
 4990              	.L135:
 4991 019a 00BF     		.align	2
 4992              	.L134:
 4993 019c 40108200 		.word	8523840
 4994 01a0 15010100 		.word	65813
 4995 01a4 00000000 		.word	forward_instanceNormalization
 4996 01a8 ACC52737 		.word	925353388
 4997              		.cfi_endproc
 4998              	.LFE29:
 5000              		.section	.text.ll_sw_forward_lpnormalization,"ax",%progbits
 5001              		.align	1
ARM GAS  C:\Users\DJESSOU\AppData\Local\Temp\ccdFeyMS.s 			page 130


 5002              		.global	ll_sw_forward_lpnormalization
 5003              		.syntax unified
 5004              		.thumb
 5005              		.thumb_func
 5007              	ll_sw_forward_lpnormalization:
 5008              	.LVL213:
 5009              	.LFB30:
1270:Lib/AI_Runtime/Npu/ll_aton/ll_sw_float.c **** 
1271:Lib/AI_Runtime/Npu/ll_aton/ll_sw_float.c **** //##########################################################################################
1272:Lib/AI_Runtime/Npu/ll_aton/ll_sw_float.c **** /** Lp Norm forward function  */
1273:Lib/AI_Runtime/Npu/ll_aton/ll_sw_float.c **** void ll_sw_forward_lpnormalization(/* int processor, */ void *sw_info_struct)
1274:Lib/AI_Runtime/Npu/ll_aton/ll_sw_float.c **** {
 5010              		.loc 1 1274 1 is_stmt 1 view -0
 5011              		.cfi_startproc
 5012              		@ args = 0, pretend = 0, frame = 264
 5013              		@ frame_needed = 0, uses_anonymous_args = 0
1275:Lib/AI_Runtime/Npu/ll_aton/ll_sw_float.c ****   Lpnormalization_sw_info *sw_info = (Lpnormalization_sw_info *)sw_info_struct;
 5014              		.loc 1 1275 3 view .LVU1291
1276:Lib/AI_Runtime/Npu/ll_aton/ll_sw_float.c **** 
1277:Lib/AI_Runtime/Npu/ll_aton/ll_sw_float.c ****   AI_ARRAY_OBJ_DECLARE(input_output_array, FORMAT, sw_info->general.input.mem.start_offset,
 5015              		.loc 1 1277 3 view .LVU1292
1274:Lib/AI_Runtime/Npu/ll_aton/ll_sw_float.c ****   Lpnormalization_sw_info *sw_info = (Lpnormalization_sw_info *)sw_info_struct;
 5016              		.loc 1 1274 1 is_stmt 0 view .LVU1293
 5017 0000 30B5     		push	{r4, r5, lr}
 5018              		.cfi_def_cfa_offset 12
 5019              		.cfi_offset 4, -12
 5020              		.cfi_offset 5, -8
 5021              		.cfi_offset 14, -4
 5022 0002 0446     		mov	r4, r0
 5023              		.loc 1 1277 3 view .LVU1294
 5024 0004 414B     		ldr	r3, .L139
1274:Lib/AI_Runtime/Npu/ll_aton/ll_sw_float.c ****   Lpnormalization_sw_info *sw_info = (Lpnormalization_sw_info *)sw_info_struct;
 5025              		.loc 1 1274 1 view .LVU1295
 5026 0006 C3B0     		sub	sp, sp, #268
 5027              		.cfi_def_cfa_offset 280
 5028              		.loc 1 1277 3 view .LVU1296
 5029 0008 0693     		str	r3, [sp, #24]
1278:Lib/AI_Runtime/Npu/ll_aton/ll_sw_float.c ****                        sw_info->general.input.mem.start_offset, sw_info->general.input.dim.num_elem
1279:Lib/AI_Runtime/Npu/ll_aton/ll_sw_float.c ****   AI_ARRAY_OBJ_DECLARE(lpNormm_output_array, FORMAT, sw_info->general.output.mem.start_offset,
 5030              		.loc 1 1279 3 view .LVU1297
 5031 000a 0A93     		str	r3, [sp, #40]
 5032 000c 036C     		ldr	r3, [r0, #64]
1277:Lib/AI_Runtime/Npu/ll_aton/ll_sw_float.c ****                        sw_info->general.input.mem.start_offset, sw_info->general.input.dim.num_elem
 5033              		.loc 1 1277 3 view .LVU1298
 5034 000e 4269     		ldr	r2, [r0, #20]
 5035              		.loc 1 1279 3 view .LVU1299
 5036 0010 0B93     		str	r3, [sp, #44]
 5037 0012 436D     		ldr	r3, [r0, #84]
1277:Lib/AI_Runtime/Npu/ll_aton/ll_sw_float.c ****                        sw_info->general.input.mem.start_offset, sw_info->general.input.dim.num_elem
 5038              		.loc 1 1277 3 view .LVU1300
 5039 0014 0792     		str	r2, [sp, #28]
 5040              		.loc 1 1279 3 view .LVU1301
 5041 0016 CDE90C33 		strd	r3, r3, [sp, #48]
1280:Lib/AI_Runtime/Npu/ll_aton/ll_sw_float.c ****                        sw_info->general.output.mem.start_offset, sw_info->general.output.dim.num_el
1281:Lib/AI_Runtime/Npu/ll_aton/ll_sw_float.c **** 
1282:Lib/AI_Runtime/Npu/ll_aton/ll_sw_float.c ****   // tensors init
1283:Lib/AI_Runtime/Npu/ll_aton/ll_sw_float.c ****   AI_TENSOR_OBJ_DECLARE(input_output, , 0x0, 4,
ARM GAS  C:\Users\DJESSOU\AppData\Local\Temp\ccdFeyMS.s 			page 131


 5042              		.loc 1 1283 3 view .LVU1302
 5043 001a 2369     		ldr	r3, [r4, #16]
1277:Lib/AI_Runtime/Npu/ll_aton/ll_sw_float.c ****                        sw_info->general.input.mem.start_offset, sw_info->general.input.dim.num_elem
 5044              		.loc 1 1277 3 view .LVU1303
 5045 001c 826A     		ldr	r2, [r0, #40]
 5046              		.loc 1 1283 3 view .LVU1304
 5047 001e 0E93     		str	r3, [sp, #56]
 5048 0020 E368     		ldr	r3, [r4, #12]
 5049 0022 0021     		movs	r1, #0
 5050 0024 0F93     		str	r3, [sp, #60]
 5051 0026 A368     		ldr	r3, [r4, #8]
 5052 0028 4FF08270 		mov	r0, #17039360
 5053              	.LVL214:
 5054              		.loc 1 1283 3 view .LVU1305
 5055 002c 1093     		str	r3, [sp, #64]
 5056 002e 6368     		ldr	r3, [r4, #4]
1277:Lib/AI_Runtime/Npu/ll_aton/ll_sw_float.c ****                        sw_info->general.input.mem.start_offset, sw_info->general.input.dim.num_elem
 5057              		.loc 1 1277 3 view .LVU1306
 5058 0030 CDE90822 		strd	r2, r2, [sp, #32]
1279:Lib/AI_Runtime/Npu/ll_aton/ll_sw_float.c ****                        sw_info->general.output.mem.start_offset, sw_info->general.output.dim.num_el
 5059              		.loc 1 1279 3 is_stmt 1 view .LVU1307
 5060              		.loc 1 1283 3 view .LVU1308
 5061 0034 1193     		str	r3, [sp, #68]
 5062 0036 0EAB     		add	r3, sp, #56
 5063 0038 40F20142 		movw	r2, #1025
 5064 003c 2193     		str	r3, [sp, #132]
 5065 003e 40F20243 		movw	r3, #1026
 5066 0042 656A     		ldr	r5, [r4, #36]
 5067 0044 CDE91E10 		strd	r1, r0, [sp, #120]
 5068 0048 1295     		str	r5, [sp, #72]
 5069 004a 256A     		ldr	r5, [r4, #32]
 5070 004c 2092     		str	r2, [sp, #128]
 5071 004e 2293     		str	r3, [sp, #136]
 5072 0050 1395     		str	r5, [sp, #76]
 5073 0052 E569     		ldr	r5, [r4, #28]
1284:Lib/AI_Runtime/Npu/ll_aton/ll_sw_float.c ****                         SHAPE_INIT(sw_info->general.input.dim.tensor_h, sw_info->general.input.dim.
1285:Lib/AI_Runtime/Npu/ll_aton/ll_sw_float.c ****                                    sw_info->general.input.dim.tensor_c, sw_info->general.input.dim.
1286:Lib/AI_Runtime/Npu/ll_aton/ll_sw_float.c ****                         STRIDE_INIT(sw_info->general.input.stride.h, sw_info->general.input.stride.
1287:Lib/AI_Runtime/Npu/ll_aton/ll_sw_float.c ****                                     sw_info->general.input.stride.c, sw_info->general.input.stride.
1288:Lib/AI_Runtime/Npu/ll_aton/ll_sw_float.c ****                         1, &input_output_array, NULL)
1289:Lib/AI_Runtime/Npu/ll_aton/ll_sw_float.c ****   AI_TENSOR_OBJ_DECLARE(lpNormm_output, , 0x0, 4,
 5074              		.loc 1 1289 3 is_stmt 0 view .LVU1309
 5075 0054 CDE92602 		strd	r0, r2, [sp, #152]
 5076 0058 E26B     		ldr	r2, [r4, #60]
1283:Lib/AI_Runtime/Npu/ll_aton/ll_sw_float.c ****                         SHAPE_INIT(sw_info->general.input.dim.tensor_h, sw_info->general.input.dim.
 5077              		.loc 1 1283 3 view .LVU1310
 5078 005a 1495     		str	r5, [sp, #80]
 5079              		.loc 1 1289 3 view .LVU1311
 5080 005c 1692     		str	r2, [sp, #88]
 5081 005e A26B     		ldr	r2, [r4, #56]
1283:Lib/AI_Runtime/Npu/ll_aton/ll_sw_float.c ****                         SHAPE_INIT(sw_info->general.input.dim.tensor_h, sw_info->general.input.dim.
 5082              		.loc 1 1283 3 view .LVU1312
 5083 0060 A569     		ldr	r5, [r4, #24]
 5084              		.loc 1 1289 3 view .LVU1313
 5085 0062 1792     		str	r2, [sp, #92]
 5086 0064 626B     		ldr	r2, [r4, #52]
1283:Lib/AI_Runtime/Npu/ll_aton/ll_sw_float.c ****                         SHAPE_INIT(sw_info->general.input.dim.tensor_h, sw_info->general.input.dim.
ARM GAS  C:\Users\DJESSOU\AppData\Local\Temp\ccdFeyMS.s 			page 132


 5087              		.loc 1 1283 3 view .LVU1314
 5088 0066 1595     		str	r5, [sp, #84]
 5089              		.loc 1 1289 3 view .LVU1315
 5090 0068 1892     		str	r2, [sp, #96]
 5091 006a 226B     		ldr	r2, [r4, #48]
1283:Lib/AI_Runtime/Npu/ll_aton/ll_sw_float.c ****                         SHAPE_INIT(sw_info->general.input.dim.tensor_h, sw_info->general.input.dim.
 5092              		.loc 1 1283 3 view .LVU1316
 5093 006c 12AD     		add	r5, sp, #72
 5094              		.loc 1 1289 3 view .LVU1317
 5095 006e 1992     		str	r2, [sp, #100]
 5096 0070 16AA     		add	r2, sp, #88
 5097 0072 CDE92823 		strd	r2, r3, [sp, #160]
 5098 0076 236D     		ldr	r3, [r4, #80]
1283:Lib/AI_Runtime/Npu/ll_aton/ll_sw_float.c ****                         SHAPE_INIT(sw_info->general.input.dim.tensor_h, sw_info->general.input.dim.
 5099              		.loc 1 1283 3 view .LVU1318
 5100 0078 2395     		str	r5, [sp, #140]
 5101              		.loc 1 1289 3 view .LVU1319
 5102 007a 1A93     		str	r3, [sp, #104]
 5103 007c E36C     		ldr	r3, [r4, #76]
1290:Lib/AI_Runtime/Npu/ll_aton/ll_sw_float.c ****                         SHAPE_INIT(sw_info->general.output.dim.tensor_h, sw_info->general.output.di
1291:Lib/AI_Runtime/Npu/ll_aton/ll_sw_float.c ****                                    sw_info->general.output.dim.tensor_c, sw_info->general.output.di
1292:Lib/AI_Runtime/Npu/ll_aton/ll_sw_float.c ****                         STRIDE_INIT(sw_info->general.output.stride.h, sw_info->general.output.strid
1293:Lib/AI_Runtime/Npu/ll_aton/ll_sw_float.c ****                                     sw_info->general.output.stride.c, sw_info->general.output.strid
1294:Lib/AI_Runtime/Npu/ll_aton/ll_sw_float.c ****                         1, &lpNormm_output_array, NULL)
1295:Lib/AI_Runtime/Npu/ll_aton/ll_sw_float.c **** 
1296:Lib/AI_Runtime/Npu/ll_aton/ll_sw_float.c ****   // tensor chain initialization
1297:Lib/AI_Runtime/Npu/ll_aton/ll_sw_float.c ****   AI_TENSOR_CHAIN_OBJ_DECLARE(lpNormm_chain, , 4, AI_TENSOR_LIST_OBJ_INIT(AI_FLAG_NONE, 1, TENSORS(
 5104              		.loc 1 1297 3 view .LVU1320
 5105 007e 1EAA     		add	r2, sp, #120
1289:Lib/AI_Runtime/Npu/ll_aton/ll_sw_float.c ****                         SHAPE_INIT(sw_info->general.output.dim.tensor_h, sw_info->general.output.di
 5106              		.loc 1 1289 3 view .LVU1321
 5107 0080 1B93     		str	r3, [sp, #108]
 5108 0082 A36C     		ldr	r3, [r4, #72]
1283:Lib/AI_Runtime/Npu/ll_aton/ll_sw_float.c ****                         SHAPE_INIT(sw_info->general.input.dim.tensor_h, sw_info->general.input.dim.
 5109              		.loc 1 1283 3 view .LVU1322
 5110 0084 06AD     		add	r5, sp, #24
1289:Lib/AI_Runtime/Npu/ll_aton/ll_sw_float.c ****                         SHAPE_INIT(sw_info->general.output.dim.tensor_h, sw_info->general.output.di
 5111              		.loc 1 1289 3 view .LVU1323
 5112 0086 1C93     		str	r3, [sp, #112]
 5113 0088 636C     		ldr	r3, [r4, #68]
 5114 008a CDE92451 		strd	r5, r1, [sp, #144]
 5115 008e 1D93     		str	r3, [sp, #116]
 5116 0090 1AAB     		add	r3, sp, #104
 5117 0092 2A93     		str	r3, [sp, #168]
 5118 0094 0AAB     		add	r3, sp, #40
 5119 0096 2B93     		str	r3, [sp, #172]
 5120              		.loc 1 1297 3 is_stmt 1 view .LVU1324
 5121 0098 0423     		movs	r3, #4
 5122 009a 0493     		str	r3, [sp, #16]
 5123 009c 0123     		movs	r3, #1
 5124 009e 0092     		str	r2, [sp]
 5125 00a0 3693     		str	r3, [sp, #216]
 5126 00a2 CDF8DCD0 		str	sp, [sp, #220]
 5127 00a6 CDE93813 		strd	r1, r3, [sp, #224]
 5128 00aa 01AB     		add	r3, sp, #4
 5129 00ac CDE93A31 		strd	r3, r1, [sp, #232]
 5130 00b0 02AB     		add	r3, sp, #8
ARM GAS  C:\Users\DJESSOU\AppData\Local\Temp\ccdFeyMS.s 			page 133


 5131 00b2 CDE93D31 		strd	r3, r1, [sp, #244]
 5132 00b6 03AB     		add	r3, sp, #12
 5133 00b8 CDE94031 		strd	r3, r1, [sp, #256]
 5134 00bc 36AB     		add	r3, sp, #216
 5135 00be 25AA     		add	r2, sp, #148
 5136 00c0 0593     		str	r3, [sp, #20]
1298:Lib/AI_Runtime/Npu/ll_aton/ll_sw_float.c ****                               AI_TENSOR_LIST_OBJ_INIT(AI_FLAG_NONE, 1, TENSORS(&lpNormm_output)),
1299:Lib/AI_Runtime/Npu/ll_aton/ll_sw_float.c ****                               AI_TENSOR_LIST_OBJ_EMPTY, AI_TENSOR_LIST_OBJ_EMPTY, )
1300:Lib/AI_Runtime/Npu/ll_aton/ll_sw_float.c **** 
1301:Lib/AI_Runtime/Npu/ll_aton/ll_sw_float.c ****   // layer initialization
1302:Lib/AI_Runtime/Npu/ll_aton/ll_sw_float.c ****   AI_LAYER_OBJ_DECLARE(lpNormm_layer, 1, NORM_TYPE, 0x0, NULL, norm, forward_norm, &lpNormm_chain, 
 5137              		.loc 1 1302 3 view .LVU1325
 5138 00c2 134B     		ldr	r3, .L139+4
1297:Lib/AI_Runtime/Npu/ll_aton/ll_sw_float.c ****                               AI_TENSOR_LIST_OBJ_INIT(AI_FLAG_NONE, 1, TENSORS(&lpNormm_output)),
 5139              		.loc 1 1297 3 is_stmt 0 view .LVU1326
 5140 00c4 0192     		str	r2, [sp, #4]
 5141              		.loc 1 1302 3 view .LVU1327
 5142 00c6 2DA8     		add	r0, sp, #180
 5143 00c8 2422     		movs	r2, #36
1297:Lib/AI_Runtime/Npu/ll_aton/ll_sw_float.c ****                               AI_TENSOR_LIST_OBJ_INIT(AI_FLAG_NONE, 1, TENSORS(&lpNormm_output)),
 5144              		.loc 1 1297 3 view .LVU1328
 5145 00ca 3C91     		str	r1, [sp, #240]
 5146 00cc 0291     		str	r1, [sp, #8]
 5147 00ce 3F91     		str	r1, [sp, #252]
 5148 00d0 0391     		str	r1, [sp, #12]
 5149              		.loc 1 1302 3 view .LVU1329
 5150 00d2 2C93     		str	r3, [sp, #176]
 5151 00d4 FFF7FEFF 		bl	memset
 5152              	.LVL215:
 5153              		.loc 1 1302 3 discriminator 1 view .LVU1330
 5154 00d8 D4ED187A 		vldr.32	s15, [r4, #96]	@ int
 5155              		.loc 1 1302 3 view .LVU1331
 5156 00dc 0D4B     		ldr	r3, .L139+8
 5157              		.loc 1 1302 3 discriminator 1 view .LVU1332
 5158 00de F8EEE77A 		vcvt.f32.s32	s15, s15
 5159              		.loc 1 1302 3 view .LVU1333
 5160 00e2 3193     		str	r3, [sp, #196]
 5161 00e4 04AB     		add	r3, sp, #16
 5162 00e6 3293     		str	r3, [sp, #200]
 5163              	.LVL216:
 5164              	.LBB86:
 5165              	.LBI86:
  46:Lib/AI_Runtime/Npu/ll_aton/ll_sw_float.c **** {
 5166              		.loc 1 46 12 is_stmt 1 view .LVU1334
  48:Lib/AI_Runtime/Npu/ll_aton/ll_sw_float.c ****   {
 5167              		.loc 1 48 3 view .LVU1335
 5168 00e8 E36D     		ldr	r3, [r4, #92]
 5169              	.LBE86:
1303:Lib/AI_Runtime/Npu/ll_aton/ll_sw_float.c ****                        .axis = helper_emit_shape_index_axis(sw_info->axis), .exponent = sw_info->p,
1304:Lib/AI_Runtime/Npu/ll_aton/ll_sw_float.c ****   lpNormm_layer.forward(AI_LAYER_OBJ(&lpNormm_layer));
 5170              		.loc 1 1304 3 is_stmt 0 view .LVU1336
 5171 00ea 2CA8     		add	r0, sp, #176
 5172 00ec 032B     		cmp	r3, #3
1302:Lib/AI_Runtime/Npu/ll_aton/ll_sw_float.c ****                        .axis = helper_emit_shape_index_axis(sw_info->axis), .exponent = sw_info->p,
 5173              		.loc 1 1302 3 view .LVU1337
 5174 00ee 8CBF     		ite	hi
 5175 00f0 4FF0FF33 		movhi	r3, #-1
ARM GAS  C:\Users\DJESSOU\AppData\Local\Temp\ccdFeyMS.s 			page 134


 5176              	.LVL217:
1302:Lib/AI_Runtime/Npu/ll_aton/ll_sw_float.c ****                        .axis = helper_emit_shape_index_axis(sw_info->axis), .exponent = sw_info->p,
 5177              		.loc 1 1302 3 view .LVU1338
 5178 00f4 084A     		ldrls	r2, .L139+12
1302:Lib/AI_Runtime/Npu/ll_aton/ll_sw_float.c ****                        .axis = helper_emit_shape_index_axis(sw_info->axis), .exponent = sw_info->p,
 5179              		.loc 1 1302 3 discriminator 1 view .LVU1339
 5180 00f6 CDED347A 		vstr.32	s15, [sp, #208]
 5181              		.loc 1 1304 3 is_stmt 1 view .LVU1340
 5182 00fa 98BF     		it	ls
 5183 00fc D356     		ldrsbls	r3, [r2, r3]
1302:Lib/AI_Runtime/Npu/ll_aton/ll_sw_float.c ****                        .axis = helper_emit_shape_index_axis(sw_info->axis), .exponent = sw_info->p,
 5184              		.loc 1 1302 3 is_stmt 0 discriminator 1 view .LVU1341
 5185 00fe 8DF8CC30 		strb	r3, [sp, #204]
 5186              		.loc 1 1304 3 view .LVU1342
 5187 0102 FFF7FEFF 		bl	forward_norm
 5188              	.LVL218:
1305:Lib/AI_Runtime/Npu/ll_aton/ll_sw_float.c **** }
 5189              		.loc 1 1305 1 view .LVU1343
 5190 0106 43B0     		add	sp, sp, #268
 5191              		.cfi_def_cfa_offset 12
 5192              		@ sp needed
 5193 0108 30BD     		pop	{r4, r5, pc}
 5194              	.LVL219:
 5195              	.L140:
 5196              		.loc 1 1305 1 view .LVU1344
 5197 010a 00BF     		.align	2
 5198              	.L139:
 5199 010c 40108200 		.word	8523840
 5200 0110 08010100 		.word	65800
 5201 0114 00000000 		.word	forward_norm
 5202 0118 00000000 		.word	CSWTCH.4
 5203              		.cfi_endproc
 5204              	.LFE30:
 5206              		.section	.text.ll_sw_forward_sign,"ax",%progbits
 5207              		.align	1
 5208              		.global	ll_sw_forward_sign
 5209              		.syntax unified
 5210              		.thumb
 5211              		.thumb_func
 5213              	ll_sw_forward_sign:
 5214              	.LVL220:
 5215              	.LFB31:
1306:Lib/AI_Runtime/Npu/ll_aton/ll_sw_float.c **** 
1307:Lib/AI_Runtime/Npu/ll_aton/ll_sw_float.c **** //##########################################################################################
1308:Lib/AI_Runtime/Npu/ll_aton/ll_sw_float.c **** /** Sign forward function  */
1309:Lib/AI_Runtime/Npu/ll_aton/ll_sw_float.c **** void ll_sw_forward_sign(/* int processor, */ void *sw_info_struct)
1310:Lib/AI_Runtime/Npu/ll_aton/ll_sw_float.c **** {
 5216              		.loc 1 1310 1 is_stmt 1 view -0
 5217              		.cfi_startproc
 5218              		@ args = 0, pretend = 0, frame = 256
 5219              		@ frame_needed = 0, uses_anonymous_args = 0
1311:Lib/AI_Runtime/Npu/ll_aton/ll_sw_float.c ****   Sign_sw_info *sw_info = (Sign_sw_info *)sw_info_struct;
 5220              		.loc 1 1311 3 view .LVU1346
1312:Lib/AI_Runtime/Npu/ll_aton/ll_sw_float.c **** 
1313:Lib/AI_Runtime/Npu/ll_aton/ll_sw_float.c ****   AI_ARRAY_OBJ_DECLARE(input_output_array, FORMAT, sw_info->general.input.mem.start_offset,
 5221              		.loc 1 1313 3 view .LVU1347
1310:Lib/AI_Runtime/Npu/ll_aton/ll_sw_float.c ****   Sign_sw_info *sw_info = (Sign_sw_info *)sw_info_struct;
ARM GAS  C:\Users\DJESSOU\AppData\Local\Temp\ccdFeyMS.s 			page 135


 5222              		.loc 1 1310 1 is_stmt 0 view .LVU1348
 5223 0000 30B5     		push	{r4, r5, lr}
 5224              		.cfi_def_cfa_offset 12
 5225              		.cfi_offset 4, -12
 5226              		.cfi_offset 5, -8
 5227              		.cfi_offset 14, -4
 5228              		.loc 1 1313 3 view .LVU1349
 5229 0002 394B     		ldr	r3, .L142
1310:Lib/AI_Runtime/Npu/ll_aton/ll_sw_float.c ****   Sign_sw_info *sw_info = (Sign_sw_info *)sw_info_struct;
 5230              		.loc 1 1310 1 view .LVU1350
 5231 0004 C1B0     		sub	sp, sp, #260
 5232              		.cfi_def_cfa_offset 272
 5233              		.loc 1 1313 3 view .LVU1351
 5234 0006 0693     		str	r3, [sp, #24]
1314:Lib/AI_Runtime/Npu/ll_aton/ll_sw_float.c ****                        sw_info->general.input.mem.start_offset, sw_info->general.input.dim.num_elem
1315:Lib/AI_Runtime/Npu/ll_aton/ll_sw_float.c ****   AI_ARRAY_OBJ_DECLARE(sign_output_array, FORMAT, sw_info->general.output.mem.start_offset,
 5235              		.loc 1 1315 3 view .LVU1352
 5236 0008 0A93     		str	r3, [sp, #40]
 5237 000a 036C     		ldr	r3, [r0, #64]
1313:Lib/AI_Runtime/Npu/ll_aton/ll_sw_float.c ****                        sw_info->general.input.mem.start_offset, sw_info->general.input.dim.num_elem
 5238              		.loc 1 1313 3 view .LVU1353
 5239 000c 4269     		ldr	r2, [r0, #20]
 5240              		.loc 1 1315 3 view .LVU1354
 5241 000e 0B93     		str	r3, [sp, #44]
 5242 0010 436D     		ldr	r3, [r0, #84]
1313:Lib/AI_Runtime/Npu/ll_aton/ll_sw_float.c ****                        sw_info->general.input.mem.start_offset, sw_info->general.input.dim.num_elem
 5243              		.loc 1 1313 3 view .LVU1355
 5244 0012 0792     		str	r2, [sp, #28]
 5245              		.loc 1 1315 3 view .LVU1356
 5246 0014 CDE90C33 		strd	r3, r3, [sp, #48]
1316:Lib/AI_Runtime/Npu/ll_aton/ll_sw_float.c ****                        sw_info->general.output.mem.start_offset, sw_info->general.output.dim.num_el
1317:Lib/AI_Runtime/Npu/ll_aton/ll_sw_float.c **** 
1318:Lib/AI_Runtime/Npu/ll_aton/ll_sw_float.c ****   // tensors init
1319:Lib/AI_Runtime/Npu/ll_aton/ll_sw_float.c ****   AI_TENSOR_OBJ_DECLARE(input_output, , 0x0, 4,
 5247              		.loc 1 1319 3 view .LVU1357
 5248 0018 0369     		ldr	r3, [r0, #16]
1313:Lib/AI_Runtime/Npu/ll_aton/ll_sw_float.c ****                        sw_info->general.input.mem.start_offset, sw_info->general.input.dim.num_elem
 5249              		.loc 1 1313 3 view .LVU1358
 5250 001a 826A     		ldr	r2, [r0, #40]
 5251              		.loc 1 1319 3 view .LVU1359
 5252 001c 0E93     		str	r3, [sp, #56]
 5253 001e C368     		ldr	r3, [r0, #12]
 5254 0020 0021     		movs	r1, #0
 5255 0022 0F93     		str	r3, [sp, #60]
 5256 0024 8368     		ldr	r3, [r0, #8]
 5257 0026 4FF08274 		mov	r4, #17039360
 5258 002a 1093     		str	r3, [sp, #64]
 5259 002c 4368     		ldr	r3, [r0, #4]
1313:Lib/AI_Runtime/Npu/ll_aton/ll_sw_float.c ****                        sw_info->general.input.mem.start_offset, sw_info->general.input.dim.num_elem
 5260              		.loc 1 1313 3 view .LVU1360
 5261 002e CDE90822 		strd	r2, r2, [sp, #32]
1315:Lib/AI_Runtime/Npu/ll_aton/ll_sw_float.c ****                        sw_info->general.output.mem.start_offset, sw_info->general.output.dim.num_el
 5262              		.loc 1 1315 3 is_stmt 1 view .LVU1361
 5263              		.loc 1 1319 3 view .LVU1362
 5264 0032 1193     		str	r3, [sp, #68]
 5265 0034 0EAB     		add	r3, sp, #56
 5266 0036 40F20142 		movw	r2, #1025
ARM GAS  C:\Users\DJESSOU\AppData\Local\Temp\ccdFeyMS.s 			page 136


 5267 003a 2193     		str	r3, [sp, #132]
 5268 003c 40F20243 		movw	r3, #1026
 5269 0040 456A     		ldr	r5, [r0, #36]
 5270 0042 CDE91E14 		strd	r1, r4, [sp, #120]
 5271 0046 1295     		str	r5, [sp, #72]
 5272 0048 056A     		ldr	r5, [r0, #32]
 5273 004a 2092     		str	r2, [sp, #128]
 5274 004c 2293     		str	r3, [sp, #136]
 5275 004e 1395     		str	r5, [sp, #76]
 5276 0050 C569     		ldr	r5, [r0, #28]
1320:Lib/AI_Runtime/Npu/ll_aton/ll_sw_float.c ****                         SHAPE_INIT(sw_info->general.input.dim.tensor_h, sw_info->general.input.dim.
1321:Lib/AI_Runtime/Npu/ll_aton/ll_sw_float.c ****                                    sw_info->general.input.dim.tensor_c, sw_info->general.input.dim.
1322:Lib/AI_Runtime/Npu/ll_aton/ll_sw_float.c ****                         STRIDE_INIT(sw_info->general.input.stride.h, sw_info->general.input.stride.
1323:Lib/AI_Runtime/Npu/ll_aton/ll_sw_float.c ****                                     sw_info->general.input.stride.c, sw_info->general.input.stride.
1324:Lib/AI_Runtime/Npu/ll_aton/ll_sw_float.c ****                         1, &input_output_array, NULL)
1325:Lib/AI_Runtime/Npu/ll_aton/ll_sw_float.c ****   AI_TENSOR_OBJ_DECLARE(sign_output, , 0x0, 4,
 5277              		.loc 1 1325 3 is_stmt 0 view .LVU1363
 5278 0052 CDE92642 		strd	r4, r2, [sp, #152]
 5279 0056 C26B     		ldr	r2, [r0, #60]
1319:Lib/AI_Runtime/Npu/ll_aton/ll_sw_float.c ****                         SHAPE_INIT(sw_info->general.input.dim.tensor_h, sw_info->general.input.dim.
 5280              		.loc 1 1319 3 view .LVU1364
 5281 0058 1495     		str	r5, [sp, #80]
 5282              		.loc 1 1325 3 view .LVU1365
 5283 005a 1692     		str	r2, [sp, #88]
 5284 005c 826B     		ldr	r2, [r0, #56]
1319:Lib/AI_Runtime/Npu/ll_aton/ll_sw_float.c ****                         SHAPE_INIT(sw_info->general.input.dim.tensor_h, sw_info->general.input.dim.
 5285              		.loc 1 1319 3 view .LVU1366
 5286 005e 8569     		ldr	r5, [r0, #24]
 5287              		.loc 1 1325 3 view .LVU1367
 5288 0060 1792     		str	r2, [sp, #92]
 5289 0062 426B     		ldr	r2, [r0, #52]
1319:Lib/AI_Runtime/Npu/ll_aton/ll_sw_float.c ****                         SHAPE_INIT(sw_info->general.input.dim.tensor_h, sw_info->general.input.dim.
 5290              		.loc 1 1319 3 view .LVU1368
 5291 0064 1595     		str	r5, [sp, #84]
 5292              		.loc 1 1325 3 view .LVU1369
 5293 0066 1892     		str	r2, [sp, #96]
 5294 0068 026B     		ldr	r2, [r0, #48]
1319:Lib/AI_Runtime/Npu/ll_aton/ll_sw_float.c ****                         SHAPE_INIT(sw_info->general.input.dim.tensor_h, sw_info->general.input.dim.
 5295              		.loc 1 1319 3 view .LVU1370
 5296 006a 12AD     		add	r5, sp, #72
 5297              		.loc 1 1325 3 view .LVU1371
 5298 006c 1992     		str	r2, [sp, #100]
 5299 006e 16AA     		add	r2, sp, #88
 5300 0070 CDE92823 		strd	r2, r3, [sp, #160]
 5301 0074 036D     		ldr	r3, [r0, #80]
1319:Lib/AI_Runtime/Npu/ll_aton/ll_sw_float.c ****                         SHAPE_INIT(sw_info->general.input.dim.tensor_h, sw_info->general.input.dim.
 5302              		.loc 1 1319 3 view .LVU1372
 5303 0076 2395     		str	r5, [sp, #140]
 5304              		.loc 1 1325 3 view .LVU1373
 5305 0078 1A93     		str	r3, [sp, #104]
 5306 007a C36C     		ldr	r3, [r0, #76]
1326:Lib/AI_Runtime/Npu/ll_aton/ll_sw_float.c ****                         SHAPE_INIT(sw_info->general.output.dim.tensor_h, sw_info->general.output.di
1327:Lib/AI_Runtime/Npu/ll_aton/ll_sw_float.c ****                                    sw_info->general.output.dim.tensor_c, sw_info->general.output.di
1328:Lib/AI_Runtime/Npu/ll_aton/ll_sw_float.c ****                         STRIDE_INIT(sw_info->general.output.stride.h, sw_info->general.output.strid
1329:Lib/AI_Runtime/Npu/ll_aton/ll_sw_float.c ****                                     sw_info->general.output.stride.c, sw_info->general.output.strid
1330:Lib/AI_Runtime/Npu/ll_aton/ll_sw_float.c ****                         1, &sign_output_array, NULL)
1331:Lib/AI_Runtime/Npu/ll_aton/ll_sw_float.c **** 
ARM GAS  C:\Users\DJESSOU\AppData\Local\Temp\ccdFeyMS.s 			page 137


1332:Lib/AI_Runtime/Npu/ll_aton/ll_sw_float.c ****   // tensor chain initialization
1333:Lib/AI_Runtime/Npu/ll_aton/ll_sw_float.c ****   AI_TENSOR_CHAIN_OBJ_DECLARE(sign_chain, , 4, AI_TENSOR_LIST_OBJ_INIT(AI_FLAG_NONE, 1, TENSORS(&in
 5307              		.loc 1 1333 3 view .LVU1374
 5308 007c 1EAA     		add	r2, sp, #120
1325:Lib/AI_Runtime/Npu/ll_aton/ll_sw_float.c ****                         SHAPE_INIT(sw_info->general.output.dim.tensor_h, sw_info->general.output.di
 5309              		.loc 1 1325 3 view .LVU1375
 5310 007e 1B93     		str	r3, [sp, #108]
 5311 0080 836C     		ldr	r3, [r0, #72]
1319:Lib/AI_Runtime/Npu/ll_aton/ll_sw_float.c ****                         SHAPE_INIT(sw_info->general.input.dim.tensor_h, sw_info->general.input.dim.
 5312              		.loc 1 1319 3 view .LVU1376
 5313 0082 06AD     		add	r5, sp, #24
1325:Lib/AI_Runtime/Npu/ll_aton/ll_sw_float.c ****                         SHAPE_INIT(sw_info->general.output.dim.tensor_h, sw_info->general.output.di
 5314              		.loc 1 1325 3 view .LVU1377
 5315 0084 1C93     		str	r3, [sp, #112]
 5316 0086 436C     		ldr	r3, [r0, #68]
 5317 0088 CDE92451 		strd	r5, r1, [sp, #144]
 5318 008c 1D93     		str	r3, [sp, #116]
 5319 008e 1AAB     		add	r3, sp, #104
 5320 0090 2A93     		str	r3, [sp, #168]
 5321 0092 0AAB     		add	r3, sp, #40
 5322 0094 2B93     		str	r3, [sp, #172]
 5323              		.loc 1 1333 3 is_stmt 1 view .LVU1378
 5324 0096 0423     		movs	r3, #4
 5325 0098 0493     		str	r3, [sp, #16]
 5326 009a 0123     		movs	r3, #1
 5327 009c 0092     		str	r2, [sp]
 5328 009e 3493     		str	r3, [sp, #208]
 5329 00a0 CDF8D4D0 		str	sp, [sp, #212]
 5330 00a4 CDE93613 		strd	r1, r3, [sp, #216]
 5331 00a8 25AB     		add	r3, sp, #148
 5332 00aa 0193     		str	r3, [sp, #4]
 5333 00ac 01AB     		add	r3, sp, #4
 5334 00ae CDE93831 		strd	r3, r1, [sp, #224]
 5335 00b2 02AB     		add	r3, sp, #8
 5336 00b4 CDE93B31 		strd	r3, r1, [sp, #236]
 5337 00b8 03AB     		add	r3, sp, #12
 5338 00ba CDE93E31 		strd	r3, r1, [sp, #248]
 5339 00be 34AB     		add	r3, sp, #208
 5340 00c0 0593     		str	r3, [sp, #20]
1334:Lib/AI_Runtime/Npu/ll_aton/ll_sw_float.c ****                               AI_TENSOR_LIST_OBJ_INIT(AI_FLAG_NONE, 1, TENSORS(&sign_output)), AI_T
1335:Lib/AI_Runtime/Npu/ll_aton/ll_sw_float.c ****                               AI_TENSOR_LIST_OBJ_EMPTY, )
1336:Lib/AI_Runtime/Npu/ll_aton/ll_sw_float.c **** 
1337:Lib/AI_Runtime/Npu/ll_aton/ll_sw_float.c ****   // layer initialization
1338:Lib/AI_Runtime/Npu/ll_aton/ll_sw_float.c ****   AI_LAYER_OBJ_DECLARE(sign_layer, 1, NL_TYPE, 0x0, NULL, nl, forward_sign, &sign_chain, NULL, NULL
 5341              		.loc 1 1338 3 view .LVU1379
 5342 00c2 0A4B     		ldr	r3, .L142+4
 5343 00c4 1C22     		movs	r2, #28
 5344 00c6 2DA8     		add	r0, sp, #180
 5345              	.LVL221:
1333:Lib/AI_Runtime/Npu/ll_aton/ll_sw_float.c ****                               AI_TENSOR_LIST_OBJ_INIT(AI_FLAG_NONE, 1, TENSORS(&sign_output)), AI_T
 5346              		.loc 1 1333 3 is_stmt 0 view .LVU1380
 5347 00c8 3A91     		str	r1, [sp, #232]
 5348 00ca 0291     		str	r1, [sp, #8]
 5349 00cc 3D91     		str	r1, [sp, #244]
 5350 00ce 0391     		str	r1, [sp, #12]
 5351              		.loc 1 1338 3 view .LVU1381
 5352 00d0 2C93     		str	r3, [sp, #176]
ARM GAS  C:\Users\DJESSOU\AppData\Local\Temp\ccdFeyMS.s 			page 138


 5353 00d2 FFF7FEFF 		bl	memset
 5354              	.LVL222:
 5355 00d6 064B     		ldr	r3, .L142+8
1339:Lib/AI_Runtime/Npu/ll_aton/ll_sw_float.c ****   sign_layer.forward(AI_LAYER_OBJ(&sign_layer));
 5356              		.loc 1 1339 3 view .LVU1382
 5357 00d8 2CA8     		add	r0, sp, #176
1338:Lib/AI_Runtime/Npu/ll_aton/ll_sw_float.c ****   sign_layer.forward(AI_LAYER_OBJ(&sign_layer));
 5358              		.loc 1 1338 3 view .LVU1383
 5359 00da 3193     		str	r3, [sp, #196]
 5360 00dc 04AB     		add	r3, sp, #16
 5361 00de 3293     		str	r3, [sp, #200]
 5362              		.loc 1 1339 3 is_stmt 1 view .LVU1384
 5363 00e0 FFF7FEFF 		bl	forward_sign
 5364              	.LVL223:
1340:Lib/AI_Runtime/Npu/ll_aton/ll_sw_float.c **** }
 5365              		.loc 1 1340 1 is_stmt 0 view .LVU1385
 5366 00e4 41B0     		add	sp, sp, #260
 5367              		.cfi_def_cfa_offset 12
 5368              		@ sp needed
 5369 00e6 30BD     		pop	{r4, r5, pc}
 5370              	.L143:
 5371              		.align	2
 5372              	.L142:
 5373 00e8 40108200 		.word	8523840
 5374 00ec 07010100 		.word	65799
 5375 00f0 00000000 		.word	forward_sign
 5376              		.cfi_endproc
 5377              	.LFE31:
 5379              		.section	.text.ll_sw_forward_lrn,"ax",%progbits
 5380              		.align	1
 5381              		.global	ll_sw_forward_lrn
 5382              		.syntax unified
 5383              		.thumb
 5384              		.thumb_func
 5386              	ll_sw_forward_lrn:
 5387              	.LVL224:
 5388              	.LFB32:
1341:Lib/AI_Runtime/Npu/ll_aton/ll_sw_float.c **** 
1342:Lib/AI_Runtime/Npu/ll_aton/ll_sw_float.c **** //##########################################################################################
1343:Lib/AI_Runtime/Npu/ll_aton/ll_sw_float.c **** /** LRN Local Response Normalization forward function  */
1344:Lib/AI_Runtime/Npu/ll_aton/ll_sw_float.c **** void ll_sw_forward_lrn(/* int processor, */ void *sw_info_struct)
1345:Lib/AI_Runtime/Npu/ll_aton/ll_sw_float.c **** {
 5389              		.loc 1 1345 1 is_stmt 1 view -0
 5390              		.cfi_startproc
 5391              		@ args = 0, pretend = 0, frame = 272
 5392              		@ frame_needed = 0, uses_anonymous_args = 0
1346:Lib/AI_Runtime/Npu/ll_aton/ll_sw_float.c ****   Lrn_sw_info *sw_info = (Lrn_sw_info *)sw_info_struct;
 5393              		.loc 1 1346 3 view .LVU1387
1347:Lib/AI_Runtime/Npu/ll_aton/ll_sw_float.c **** 
1348:Lib/AI_Runtime/Npu/ll_aton/ll_sw_float.c ****   AI_ARRAY_OBJ_DECLARE(input_output_array, FORMAT, sw_info->general.input.mem.start_offset,
 5394              		.loc 1 1348 3 view .LVU1388
1345:Lib/AI_Runtime/Npu/ll_aton/ll_sw_float.c ****   Lrn_sw_info *sw_info = (Lrn_sw_info *)sw_info_struct;
 5395              		.loc 1 1345 1 is_stmt 0 view .LVU1389
 5396 0000 30B5     		push	{r4, r5, lr}
 5397              		.cfi_def_cfa_offset 12
 5398              		.cfi_offset 4, -12
 5399              		.cfi_offset 5, -8
ARM GAS  C:\Users\DJESSOU\AppData\Local\Temp\ccdFeyMS.s 			page 139


 5400              		.cfi_offset 14, -4
 5401              		.loc 1 1348 3 view .LVU1390
 5402 0002 4269     		ldr	r2, [r0, #20]
1345:Lib/AI_Runtime/Npu/ll_aton/ll_sw_float.c ****   Lrn_sw_info *sw_info = (Lrn_sw_info *)sw_info_struct;
 5403              		.loc 1 1345 1 view .LVU1391
 5404 0004 C5B0     		sub	sp, sp, #276
 5405              		.cfi_def_cfa_offset 288
 5406              		.loc 1 1348 3 view .LVU1392
 5407 0006 0892     		str	r2, [sp, #32]
 5408 0008 826A     		ldr	r2, [r0, #40]
 5409 000a 3B4B     		ldr	r3, .L145
 5410 000c CDE90922 		strd	r2, r2, [sp, #36]
1349:Lib/AI_Runtime/Npu/ll_aton/ll_sw_float.c ****                        sw_info->general.input.mem.start_offset, sw_info->general.input.dim.num_elem
1350:Lib/AI_Runtime/Npu/ll_aton/ll_sw_float.c ****   AI_ARRAY_OBJ_DECLARE(LRN_output_array, FORMAT, sw_info->general.output.mem.start_offset,
 5411              		.loc 1 1350 3 is_stmt 1 view .LVU1393
1351:Lib/AI_Runtime/Npu/ll_aton/ll_sw_float.c ****                        sw_info->general.output.mem.start_offset, sw_info->general.output.dim.num_el
1352:Lib/AI_Runtime/Npu/ll_aton/ll_sw_float.c **** 
1353:Lib/AI_Runtime/Npu/ll_aton/ll_sw_float.c ****   // tensors init
1354:Lib/AI_Runtime/Npu/ll_aton/ll_sw_float.c ****   AI_TENSOR_OBJ_DECLARE(input_output, , 0x0, 4,
 5412              		.loc 1 1354 3 is_stmt 0 view .LVU1394
 5413 0010 0269     		ldr	r2, [r0, #16]
1348:Lib/AI_Runtime/Npu/ll_aton/ll_sw_float.c ****                        sw_info->general.input.mem.start_offset, sw_info->general.input.dim.num_elem
 5414              		.loc 1 1348 3 view .LVU1395
 5415 0012 0793     		str	r3, [sp, #28]
 5416              		.loc 1 1354 3 view .LVU1396
 5417 0014 0F92     		str	r2, [sp, #60]
 5418 0016 C268     		ldr	r2, [r0, #12]
1350:Lib/AI_Runtime/Npu/ll_aton/ll_sw_float.c ****                        sw_info->general.output.mem.start_offset, sw_info->general.output.dim.num_el
 5419              		.loc 1 1350 3 view .LVU1397
 5420 0018 0B93     		str	r3, [sp, #44]
 5421              		.loc 1 1354 3 view .LVU1398
 5422 001a 1092     		str	r2, [sp, #64]
 5423 001c 8268     		ldr	r2, [r0, #8]
1350:Lib/AI_Runtime/Npu/ll_aton/ll_sw_float.c ****                        sw_info->general.output.mem.start_offset, sw_info->general.output.dim.num_el
 5424              		.loc 1 1350 3 view .LVU1399
 5425 001e 036C     		ldr	r3, [r0, #64]
 5426              		.loc 1 1354 3 view .LVU1400
 5427 0020 1192     		str	r2, [sp, #68]
 5428 0022 4268     		ldr	r2, [r0, #4]
1350:Lib/AI_Runtime/Npu/ll_aton/ll_sw_float.c ****                        sw_info->general.output.mem.start_offset, sw_info->general.output.dim.num_el
 5429              		.loc 1 1350 3 view .LVU1401
 5430 0024 0C93     		str	r3, [sp, #48]
 5431 0026 436D     		ldr	r3, [r0, #84]
 5432              		.loc 1 1354 3 view .LVU1402
 5433 0028 1292     		str	r2, [sp, #72]
 5434 002a 0FAA     		add	r2, sp, #60
 5435 002c 4FF08274 		mov	r4, #17039360
 5436 0030 40F20141 		movw	r1, #1025
1350:Lib/AI_Runtime/Npu/ll_aton/ll_sw_float.c ****                        sw_info->general.output.mem.start_offset, sw_info->general.output.dim.num_el
 5437              		.loc 1 1350 3 view .LVU1403
 5438 0034 CDE90D33 		strd	r3, r3, [sp, #52]
 5439              		.loc 1 1354 3 is_stmt 1 view .LVU1404
 5440 0038 2292     		str	r2, [sp, #136]
 5441 003a 0023     		movs	r3, #0
 5442 003c 40F20242 		movw	r2, #1026
 5443 0040 456A     		ldr	r5, [r0, #36]
 5444 0042 CDE91F34 		strd	r3, r4, [sp, #124]
ARM GAS  C:\Users\DJESSOU\AppData\Local\Temp\ccdFeyMS.s 			page 140


 5445 0046 1395     		str	r5, [sp, #76]
 5446 0048 056A     		ldr	r5, [r0, #32]
 5447 004a 2191     		str	r1, [sp, #132]
 5448 004c 2392     		str	r2, [sp, #140]
 5449 004e 1495     		str	r5, [sp, #80]
 5450 0050 C569     		ldr	r5, [r0, #28]
1355:Lib/AI_Runtime/Npu/ll_aton/ll_sw_float.c ****                         SHAPE_INIT(sw_info->general.input.dim.tensor_h, sw_info->general.input.dim.
1356:Lib/AI_Runtime/Npu/ll_aton/ll_sw_float.c ****                                    sw_info->general.input.dim.tensor_c, sw_info->general.input.dim.
1357:Lib/AI_Runtime/Npu/ll_aton/ll_sw_float.c ****                         STRIDE_INIT(sw_info->general.input.stride.h, sw_info->general.input.stride.
1358:Lib/AI_Runtime/Npu/ll_aton/ll_sw_float.c ****                                     sw_info->general.input.stride.c, sw_info->general.input.stride.
1359:Lib/AI_Runtime/Npu/ll_aton/ll_sw_float.c ****                         1, &input_output_array, NULL)
1360:Lib/AI_Runtime/Npu/ll_aton/ll_sw_float.c ****   AI_TENSOR_OBJ_DECLARE(LRN_output, , 0x0, 4,
 5451              		.loc 1 1360 3 is_stmt 0 view .LVU1405
 5452 0052 CDE92741 		strd	r4, r1, [sp, #156]
 5453 0056 C16B     		ldr	r1, [r0, #60]
1354:Lib/AI_Runtime/Npu/ll_aton/ll_sw_float.c ****                         SHAPE_INIT(sw_info->general.input.dim.tensor_h, sw_info->general.input.dim.
 5454              		.loc 1 1354 3 view .LVU1406
 5455 0058 1595     		str	r5, [sp, #84]
 5456              		.loc 1 1360 3 view .LVU1407
 5457 005a 1791     		str	r1, [sp, #92]
 5458 005c 816B     		ldr	r1, [r0, #56]
1354:Lib/AI_Runtime/Npu/ll_aton/ll_sw_float.c ****                         SHAPE_INIT(sw_info->general.input.dim.tensor_h, sw_info->general.input.dim.
 5459              		.loc 1 1354 3 view .LVU1408
 5460 005e 8569     		ldr	r5, [r0, #24]
 5461              		.loc 1 1360 3 view .LVU1409
 5462 0060 1891     		str	r1, [sp, #96]
 5463 0062 416B     		ldr	r1, [r0, #52]
1354:Lib/AI_Runtime/Npu/ll_aton/ll_sw_float.c ****                         SHAPE_INIT(sw_info->general.input.dim.tensor_h, sw_info->general.input.dim.
 5464              		.loc 1 1354 3 view .LVU1410
 5465 0064 1695     		str	r5, [sp, #88]
 5466              		.loc 1 1360 3 view .LVU1411
 5467 0066 1991     		str	r1, [sp, #100]
 5468 0068 016B     		ldr	r1, [r0, #48]
1354:Lib/AI_Runtime/Npu/ll_aton/ll_sw_float.c ****                         SHAPE_INIT(sw_info->general.input.dim.tensor_h, sw_info->general.input.dim.
 5469              		.loc 1 1354 3 view .LVU1412
 5470 006a 13AD     		add	r5, sp, #76
 5471              		.loc 1 1360 3 view .LVU1413
 5472 006c 1A91     		str	r1, [sp, #104]
 5473 006e 17A9     		add	r1, sp, #92
 5474 0070 CDE92912 		strd	r1, r2, [sp, #164]
 5475 0074 026D     		ldr	r2, [r0, #80]
1354:Lib/AI_Runtime/Npu/ll_aton/ll_sw_float.c ****                         SHAPE_INIT(sw_info->general.input.dim.tensor_h, sw_info->general.input.dim.
 5476              		.loc 1 1354 3 view .LVU1414
 5477 0076 2495     		str	r5, [sp, #144]
 5478              		.loc 1 1360 3 view .LVU1415
 5479 0078 1B92     		str	r2, [sp, #108]
 5480 007a C26C     		ldr	r2, [r0, #76]
1361:Lib/AI_Runtime/Npu/ll_aton/ll_sw_float.c ****                         SHAPE_INIT(sw_info->general.output.dim.tensor_h, sw_info->general.output.di
1362:Lib/AI_Runtime/Npu/ll_aton/ll_sw_float.c ****                                    sw_info->general.output.dim.tensor_c, sw_info->general.output.di
1363:Lib/AI_Runtime/Npu/ll_aton/ll_sw_float.c ****                         STRIDE_INIT(sw_info->general.output.stride.h, sw_info->general.output.strid
1364:Lib/AI_Runtime/Npu/ll_aton/ll_sw_float.c ****                                     sw_info->general.output.stride.c, sw_info->general.output.strid
1365:Lib/AI_Runtime/Npu/ll_aton/ll_sw_float.c ****                         1, &LRN_output_array, NULL)
1366:Lib/AI_Runtime/Npu/ll_aton/ll_sw_float.c **** 
1367:Lib/AI_Runtime/Npu/ll_aton/ll_sw_float.c ****   // tensor chains init
1368:Lib/AI_Runtime/Npu/ll_aton/ll_sw_float.c ****   AI_TENSOR_CHAIN_OBJ_DECLARE(LRN_chain, , 4, AI_TENSOR_LIST_OBJ_INIT(AI_FLAG_NONE, 1, TENSORS(&inp
 5481              		.loc 1 1368 3 view .LVU1416
 5482 007c 01A9     		add	r1, sp, #4
ARM GAS  C:\Users\DJESSOU\AppData\Local\Temp\ccdFeyMS.s 			page 141


1360:Lib/AI_Runtime/Npu/ll_aton/ll_sw_float.c ****                         SHAPE_INIT(sw_info->general.output.dim.tensor_h, sw_info->general.output.di
 5483              		.loc 1 1360 3 view .LVU1417
 5484 007e 1C92     		str	r2, [sp, #112]
 5485 0080 826C     		ldr	r2, [r0, #72]
1354:Lib/AI_Runtime/Npu/ll_aton/ll_sw_float.c ****                         SHAPE_INIT(sw_info->general.input.dim.tensor_h, sw_info->general.input.dim.
 5486              		.loc 1 1354 3 view .LVU1418
 5487 0082 07AD     		add	r5, sp, #28
1360:Lib/AI_Runtime/Npu/ll_aton/ll_sw_float.c ****                         SHAPE_INIT(sw_info->general.output.dim.tensor_h, sw_info->general.output.di
 5488              		.loc 1 1360 3 view .LVU1419
 5489 0084 1D92     		str	r2, [sp, #116]
 5490 0086 426C     		ldr	r2, [r0, #68]
 5491              		.loc 1 1368 3 view .LVU1420
 5492 0088 1FAC     		add	r4, sp, #124
1360:Lib/AI_Runtime/Npu/ll_aton/ll_sw_float.c ****                         SHAPE_INIT(sw_info->general.output.dim.tensor_h, sw_info->general.output.di
 5493              		.loc 1 1360 3 view .LVU1421
 5494 008a 1E92     		str	r2, [sp, #120]
 5495 008c 1BAA     		add	r2, sp, #108
 5496 008e 2B92     		str	r2, [sp, #172]
 5497 0090 0BAA     		add	r2, sp, #44
 5498 0092 2C92     		str	r2, [sp, #176]
 5499              		.loc 1 1368 3 is_stmt 1 view .LVU1422
 5500 0094 0422     		movs	r2, #4
 5501 0096 0592     		str	r2, [sp, #20]
 5502 0098 0122     		movs	r2, #1
1360:Lib/AI_Runtime/Npu/ll_aton/ll_sw_float.c ****                         SHAPE_INIT(sw_info->general.output.dim.tensor_h, sw_info->general.output.di
 5503              		.loc 1 1360 3 is_stmt 0 view .LVU1423
 5504 009a CDE92553 		strd	r5, r3, [sp, #148]
 5505              		.loc 1 1368 3 view .LVU1424
 5506 009e 3892     		str	r2, [sp, #224]
 5507 00a0 0194     		str	r4, [sp, #4]
 5508 00a2 CDE93913 		strd	r1, r3, [sp, #228]
 5509 00a6 3B92     		str	r2, [sp, #236]
 5510 00a8 02AA     		add	r2, sp, #8
 5511 00aa CDE93C23 		strd	r2, r3, [sp, #240]
 5512 00ae 03AA     		add	r2, sp, #12
 5513 00b0 CDE93F23 		strd	r2, r3, [sp, #252]
 5514 00b4 04AA     		add	r2, sp, #16
 5515 00b6 CDE94223 		strd	r2, r3, [sp, #264]
 5516 00ba 38AA     		add	r2, sp, #224
 5517 00bc 0692     		str	r2, [sp, #24]
1369:Lib/AI_Runtime/Npu/ll_aton/ll_sw_float.c ****                               AI_TENSOR_LIST_OBJ_INIT(AI_FLAG_NONE, 1, TENSORS(&LRN_output)), AI_TE
1370:Lib/AI_Runtime/Npu/ll_aton/ll_sw_float.c ****                               AI_TENSOR_LIST_OBJ_EMPTY)
1371:Lib/AI_Runtime/Npu/ll_aton/ll_sw_float.c ****   // TODO//layer initialization
1372:Lib/AI_Runtime/Npu/ll_aton/ll_sw_float.c ****   AI_LAYER_OBJ_DECLARE(LRN_layer, 2, LRN_TYPE, 0x0, NULL, lrn, forward_lrn, &LRN_chain, NULL, NULL,
 5518              		.loc 1 1372 3 is_stmt 1 view .LVU1425
 5519 00be 0F4A     		ldr	r2, .L145+4
 5520 00c0 CDE92F33 		strd	r3, r3, [sp, #188]
 5521 00c4 CDE92D23 		strd	r2, r3, [sp, #180]
1368:Lib/AI_Runtime/Npu/ll_aton/ll_sw_float.c ****                               AI_TENSOR_LIST_OBJ_INIT(AI_FLAG_NONE, 1, TENSORS(&LRN_output)), AI_TE
 5522              		.loc 1 1368 3 is_stmt 0 view .LVU1426
 5523 00c8 3E93     		str	r3, [sp, #248]
 5524 00ca 0393     		str	r3, [sp, #12]
 5525 00cc 4193     		str	r3, [sp, #260]
 5526 00ce 0493     		str	r3, [sp, #16]
 5527              		.loc 1 1372 3 view .LVU1427
 5528 00d0 3193     		str	r3, [sp, #196]
 5529 00d2 0B4B     		ldr	r3, .L145+8
ARM GAS  C:\Users\DJESSOU\AppData\Local\Temp\ccdFeyMS.s 			page 142


1368:Lib/AI_Runtime/Npu/ll_aton/ll_sw_float.c ****                               AI_TENSOR_LIST_OBJ_INIT(AI_FLAG_NONE, 1, TENSORS(&LRN_output)), AI_TE
 5530              		.loc 1 1368 3 view .LVU1428
 5531 00d4 26A9     		add	r1, sp, #152
 5532              		.loc 1 1372 3 view .LVU1429
 5533 00d6 3293     		str	r3, [sp, #200]
 5534 00d8 05AB     		add	r3, sp, #20
 5535 00da 3393     		str	r3, [sp, #204]
 5536 00dc C36D     		ldr	r3, [r0, #92]
1368:Lib/AI_Runtime/Npu/ll_aton/ll_sw_float.c ****                               AI_TENSOR_LIST_OBJ_INIT(AI_FLAG_NONE, 1, TENSORS(&LRN_output)), AI_TE
 5537              		.loc 1 1368 3 view .LVU1430
 5538 00de 0291     		str	r1, [sp, #8]
 5539              		.loc 1 1372 3 view .LVU1431
 5540 00e0 3493     		str	r3, [sp, #208]
 5541 00e2 836E     		ldr	r3, [r0, #104]	@ float
 5542 00e4 3593     		str	r3, [sp, #212]	@ float
 5543 00e6 036E     		ldr	r3, [r0, #96]	@ float
 5544 00e8 3693     		str	r3, [sp, #216]	@ float
 5545 00ea 436E     		ldr	r3, [r0, #100]	@ float
1373:Lib/AI_Runtime/Npu/ll_aton/ll_sw_float.c ****                        .local_size = sw_info->size, .k = sw_info->bias, .alpha = sw_info->alpha, .b
1374:Lib/AI_Runtime/Npu/ll_aton/ll_sw_float.c **** 
1375:Lib/AI_Runtime/Npu/ll_aton/ll_sw_float.c ****   // LL_ATON_PRINTF("beta %f \n", sw_info->beta);
1376:Lib/AI_Runtime/Npu/ll_aton/ll_sw_float.c ****   // LL_ATON_PRINTF("bias %f \n", sw_info->bias);
1377:Lib/AI_Runtime/Npu/ll_aton/ll_sw_float.c ****   // LL_ATON_PRINTF("alpha %f \n", sw_info->alpha);
1378:Lib/AI_Runtime/Npu/ll_aton/ll_sw_float.c ****   // LL_ATON_PRINTF("local_size %d \n", sw_info->size);
1379:Lib/AI_Runtime/Npu/ll_aton/ll_sw_float.c **** 
1380:Lib/AI_Runtime/Npu/ll_aton/ll_sw_float.c ****   LRN_layer.forward(AI_LAYER_OBJ(&LRN_layer));
 5546              		.loc 1 1380 3 view .LVU1432
 5547 00ec 2DA8     		add	r0, sp, #180
 5548              	.LVL225:
1372:Lib/AI_Runtime/Npu/ll_aton/ll_sw_float.c ****                        .local_size = sw_info->size, .k = sw_info->bias, .alpha = sw_info->alpha, .b
 5549              		.loc 1 1372 3 view .LVU1433
 5550 00ee 3793     		str	r3, [sp, #220]	@ float
 5551              		.loc 1 1380 3 is_stmt 1 view .LVU1434
 5552 00f0 FFF7FEFF 		bl	forward_lrn
 5553              	.LVL226:
1381:Lib/AI_Runtime/Npu/ll_aton/ll_sw_float.c **** }
 5554              		.loc 1 1381 1 is_stmt 0 view .LVU1435
 5555 00f4 45B0     		add	sp, sp, #276
 5556              		.cfi_def_cfa_offset 12
 5557              		@ sp needed
 5558 00f6 30BD     		pop	{r4, r5, pc}
 5559              	.L146:
 5560              		.align	2
 5561              	.L145:
 5562 00f8 40108200 		.word	8523840
 5563 00fc 06010200 		.word	131334
 5564 0100 00000000 		.word	forward_lrn
 5565              		.cfi_endproc
 5566              	.LFE32:
 5568              		.section	.text.ll_sw_forward_tile,"ax",%progbits
 5569              		.align	1
 5570              		.global	ll_sw_forward_tile
 5571              		.syntax unified
 5572              		.thumb
 5573              		.thumb_func
 5575              	ll_sw_forward_tile:
 5576              	.LVL227:
ARM GAS  C:\Users\DJESSOU\AppData\Local\Temp\ccdFeyMS.s 			page 143


 5577              	.LFB33:
1382:Lib/AI_Runtime/Npu/ll_aton/ll_sw_float.c **** 
1383:Lib/AI_Runtime/Npu/ll_aton/ll_sw_float.c **** //##########################################################################################
1384:Lib/AI_Runtime/Npu/ll_aton/ll_sw_float.c **** /** Tile forward function  */
1385:Lib/AI_Runtime/Npu/ll_aton/ll_sw_float.c **** void ll_sw_forward_tile(/* int processor, */ void *sw_info_struct)
1386:Lib/AI_Runtime/Npu/ll_aton/ll_sw_float.c **** {
 5578              		.loc 1 1386 1 is_stmt 1 view -0
 5579              		.cfi_startproc
 5580              		@ args = 0, pretend = 0, frame = 288
 5581              		@ frame_needed = 0, uses_anonymous_args = 0
1387:Lib/AI_Runtime/Npu/ll_aton/ll_sw_float.c ****   Tile_sw_info *sw_info = (Tile_sw_info *)sw_info_struct;
 5582              		.loc 1 1387 3 view .LVU1437
1388:Lib/AI_Runtime/Npu/ll_aton/ll_sw_float.c **** 
1389:Lib/AI_Runtime/Npu/ll_aton/ll_sw_float.c ****   AI_ARRAY_OBJ_DECLARE(input_output_array, FORMAT, sw_info->general.input.mem.start_offset,
 5583              		.loc 1 1389 3 view .LVU1438
1386:Lib/AI_Runtime/Npu/ll_aton/ll_sw_float.c ****   Tile_sw_info *sw_info = (Tile_sw_info *)sw_info_struct;
 5584              		.loc 1 1386 1 is_stmt 0 view .LVU1439
 5585 0000 30B5     		push	{r4, r5, lr}
 5586              		.cfi_def_cfa_offset 12
 5587              		.cfi_offset 4, -12
 5588              		.cfi_offset 5, -8
 5589              		.cfi_offset 14, -4
 5590              		.loc 1 1389 3 view .LVU1440
 5591 0002 4269     		ldr	r2, [r0, #20]
1386:Lib/AI_Runtime/Npu/ll_aton/ll_sw_float.c ****   Tile_sw_info *sw_info = (Tile_sw_info *)sw_info_struct;
 5592              		.loc 1 1386 1 view .LVU1441
 5593 0004 C9B0     		sub	sp, sp, #292
 5594              		.cfi_def_cfa_offset 304
 5595              		.loc 1 1389 3 view .LVU1442
 5596 0006 0B92     		str	r2, [sp, #44]
 5597 0008 826A     		ldr	r2, [r0, #40]
 5598 000a 424B     		ldr	r3, .L148
 5599 000c CDE90C22 		strd	r2, r2, [sp, #48]
1390:Lib/AI_Runtime/Npu/ll_aton/ll_sw_float.c ****                        sw_info->general.input.mem.start_offset, sw_info->general.input.dim.num_elem
1391:Lib/AI_Runtime/Npu/ll_aton/ll_sw_float.c ****   AI_ARRAY_OBJ_DECLARE(tile_output_array, FORMAT, sw_info->general.output.mem.start_offset,
 5600              		.loc 1 1391 3 is_stmt 1 view .LVU1443
1392:Lib/AI_Runtime/Npu/ll_aton/ll_sw_float.c ****                        sw_info->general.output.mem.start_offset, sw_info->general.output.dim.num_el
1393:Lib/AI_Runtime/Npu/ll_aton/ll_sw_float.c **** 
1394:Lib/AI_Runtime/Npu/ll_aton/ll_sw_float.c ****   // tensors init
1395:Lib/AI_Runtime/Npu/ll_aton/ll_sw_float.c ****   AI_TENSOR_OBJ_DECLARE(input_output, , 0x0, 4,
 5601              		.loc 1 1395 3 is_stmt 0 view .LVU1444
 5602 0010 0269     		ldr	r2, [r0, #16]
1389:Lib/AI_Runtime/Npu/ll_aton/ll_sw_float.c ****                        sw_info->general.input.mem.start_offset, sw_info->general.input.dim.num_elem
 5603              		.loc 1 1389 3 view .LVU1445
 5604 0012 0A93     		str	r3, [sp, #40]
 5605              		.loc 1 1395 3 view .LVU1446
 5606 0014 1292     		str	r2, [sp, #72]
 5607 0016 C268     		ldr	r2, [r0, #12]
1391:Lib/AI_Runtime/Npu/ll_aton/ll_sw_float.c ****                        sw_info->general.output.mem.start_offset, sw_info->general.output.dim.num_el
 5608              		.loc 1 1391 3 view .LVU1447
 5609 0018 0E93     		str	r3, [sp, #56]
 5610              		.loc 1 1395 3 view .LVU1448
 5611 001a 1392     		str	r2, [sp, #76]
 5612 001c 8268     		ldr	r2, [r0, #8]
1391:Lib/AI_Runtime/Npu/ll_aton/ll_sw_float.c ****                        sw_info->general.output.mem.start_offset, sw_info->general.output.dim.num_el
 5613              		.loc 1 1391 3 view .LVU1449
 5614 001e 036C     		ldr	r3, [r0, #64]
ARM GAS  C:\Users\DJESSOU\AppData\Local\Temp\ccdFeyMS.s 			page 144


 5615              		.loc 1 1395 3 view .LVU1450
 5616 0020 1492     		str	r2, [sp, #80]
 5617 0022 4268     		ldr	r2, [r0, #4]
1391:Lib/AI_Runtime/Npu/ll_aton/ll_sw_float.c ****                        sw_info->general.output.mem.start_offset, sw_info->general.output.dim.num_el
 5618              		.loc 1 1391 3 view .LVU1451
 5619 0024 0F93     		str	r3, [sp, #60]
 5620 0026 436D     		ldr	r3, [r0, #84]
 5621              		.loc 1 1395 3 view .LVU1452
 5622 0028 1592     		str	r2, [sp, #84]
 5623 002a 12AA     		add	r2, sp, #72
 5624 002c 4FF08274 		mov	r4, #17039360
 5625 0030 40F20141 		movw	r1, #1025
1391:Lib/AI_Runtime/Npu/ll_aton/ll_sw_float.c ****                        sw_info->general.output.mem.start_offset, sw_info->general.output.dim.num_el
 5626              		.loc 1 1391 3 view .LVU1453
 5627 0034 CDE91033 		strd	r3, r3, [sp, #64]
 5628              		.loc 1 1395 3 is_stmt 1 view .LVU1454
 5629 0038 2992     		str	r2, [sp, #164]
 5630 003a 0023     		movs	r3, #0
 5631 003c 40F20242 		movw	r2, #1026
 5632 0040 456A     		ldr	r5, [r0, #36]
 5633 0042 CDE92634 		strd	r3, r4, [sp, #152]
 5634 0046 1695     		str	r5, [sp, #88]
 5635 0048 056A     		ldr	r5, [r0, #32]
 5636 004a 2891     		str	r1, [sp, #160]
 5637 004c 2A92     		str	r2, [sp, #168]
 5638 004e 1795     		str	r5, [sp, #92]
 5639 0050 C569     		ldr	r5, [r0, #28]
1396:Lib/AI_Runtime/Npu/ll_aton/ll_sw_float.c ****                         SHAPE_INIT(sw_info->general.input.dim.tensor_h, sw_info->general.input.dim.
1397:Lib/AI_Runtime/Npu/ll_aton/ll_sw_float.c ****                                    sw_info->general.input.dim.tensor_c, sw_info->general.input.dim.
1398:Lib/AI_Runtime/Npu/ll_aton/ll_sw_float.c ****                         STRIDE_INIT(sw_info->general.input.stride.h, sw_info->general.input.stride.
1399:Lib/AI_Runtime/Npu/ll_aton/ll_sw_float.c ****                                     sw_info->general.input.stride.c, sw_info->general.input.stride.
1400:Lib/AI_Runtime/Npu/ll_aton/ll_sw_float.c ****                         1, &input_output_array, NULL)
1401:Lib/AI_Runtime/Npu/ll_aton/ll_sw_float.c ****   AI_TENSOR_OBJ_DECLARE(tile_output, , 0x0, 4,
 5640              		.loc 1 1401 3 is_stmt 0 view .LVU1455
 5641 0052 CDE92E41 		strd	r4, r1, [sp, #184]
 5642 0056 C16B     		ldr	r1, [r0, #60]
1402:Lib/AI_Runtime/Npu/ll_aton/ll_sw_float.c ****                         SHAPE_INIT(sw_info->general.output.dim.tensor_h, sw_info->general.output.di
1403:Lib/AI_Runtime/Npu/ll_aton/ll_sw_float.c ****                                    sw_info->general.output.dim.tensor_c, sw_info->general.output.di
1404:Lib/AI_Runtime/Npu/ll_aton/ll_sw_float.c ****                         STRIDE_INIT(sw_info->general.output.stride.h, sw_info->general.output.strid
1405:Lib/AI_Runtime/Npu/ll_aton/ll_sw_float.c ****                                     sw_info->general.output.stride.c, sw_info->general.output.strid
1406:Lib/AI_Runtime/Npu/ll_aton/ll_sw_float.c ****                         1, &tile_output_array, NULL)
1407:Lib/AI_Runtime/Npu/ll_aton/ll_sw_float.c **** 
1408:Lib/AI_Runtime/Npu/ll_aton/ll_sw_float.c ****   // tensor chains init
1409:Lib/AI_Runtime/Npu/ll_aton/ll_sw_float.c ****   AI_TENSOR_CHAIN_OBJ_DECLARE(tile_chain, , 4, AI_TENSOR_LIST_OBJ_INIT(AI_FLAG_NONE, 1, TENSORS(&in
 5643              		.loc 1 1409 3 view .LVU1456
 5644 0058 0124     		movs	r4, #1
1401:Lib/AI_Runtime/Npu/ll_aton/ll_sw_float.c ****                         SHAPE_INIT(sw_info->general.output.dim.tensor_h, sw_info->general.output.di
 5645              		.loc 1 1401 3 view .LVU1457
 5646 005a 1A91     		str	r1, [sp, #104]
 5647 005c 816B     		ldr	r1, [r0, #56]
1395:Lib/AI_Runtime/Npu/ll_aton/ll_sw_float.c ****                         SHAPE_INIT(sw_info->general.input.dim.tensor_h, sw_info->general.input.dim.
 5648              		.loc 1 1395 3 view .LVU1458
 5649 005e 1895     		str	r5, [sp, #96]
1401:Lib/AI_Runtime/Npu/ll_aton/ll_sw_float.c ****                         SHAPE_INIT(sw_info->general.output.dim.tensor_h, sw_info->general.output.di
 5650              		.loc 1 1401 3 view .LVU1459
 5651 0060 1B91     		str	r1, [sp, #108]
 5652 0062 416B     		ldr	r1, [r0, #52]
ARM GAS  C:\Users\DJESSOU\AppData\Local\Temp\ccdFeyMS.s 			page 145


1395:Lib/AI_Runtime/Npu/ll_aton/ll_sw_float.c ****                         SHAPE_INIT(sw_info->general.input.dim.tensor_h, sw_info->general.input.dim.
 5653              		.loc 1 1395 3 view .LVU1460
 5654 0064 8569     		ldr	r5, [r0, #24]
1401:Lib/AI_Runtime/Npu/ll_aton/ll_sw_float.c ****                         SHAPE_INIT(sw_info->general.output.dim.tensor_h, sw_info->general.output.di
 5655              		.loc 1 1401 3 view .LVU1461
 5656 0066 1C91     		str	r1, [sp, #112]
 5657 0068 016B     		ldr	r1, [r0, #48]
1395:Lib/AI_Runtime/Npu/ll_aton/ll_sw_float.c ****                         SHAPE_INIT(sw_info->general.input.dim.tensor_h, sw_info->general.input.dim.
 5658              		.loc 1 1395 3 view .LVU1462
 5659 006a 1995     		str	r5, [sp, #100]
1401:Lib/AI_Runtime/Npu/ll_aton/ll_sw_float.c ****                         SHAPE_INIT(sw_info->general.output.dim.tensor_h, sw_info->general.output.di
 5660              		.loc 1 1401 3 view .LVU1463
 5661 006c 1D91     		str	r1, [sp, #116]
 5662 006e 1AA9     		add	r1, sp, #104
 5663 0070 CDE93012 		strd	r1, r2, [sp, #192]
 5664 0074 026D     		ldr	r2, [r0, #80]
1395:Lib/AI_Runtime/Npu/ll_aton/ll_sw_float.c ****                         SHAPE_INIT(sw_info->general.input.dim.tensor_h, sw_info->general.input.dim.
 5665              		.loc 1 1395 3 view .LVU1464
 5666 0076 16AD     		add	r5, sp, #88
1401:Lib/AI_Runtime/Npu/ll_aton/ll_sw_float.c ****                         SHAPE_INIT(sw_info->general.output.dim.tensor_h, sw_info->general.output.di
 5667              		.loc 1 1401 3 view .LVU1465
 5668 0078 1E92     		str	r2, [sp, #120]
 5669 007a C26C     		ldr	r2, [r0, #76]
1395:Lib/AI_Runtime/Npu/ll_aton/ll_sw_float.c ****                         SHAPE_INIT(sw_info->general.input.dim.tensor_h, sw_info->general.input.dim.
 5670              		.loc 1 1395 3 view .LVU1466
 5671 007c 2B95     		str	r5, [sp, #172]
1401:Lib/AI_Runtime/Npu/ll_aton/ll_sw_float.c ****                         SHAPE_INIT(sw_info->general.output.dim.tensor_h, sw_info->general.output.di
 5672              		.loc 1 1401 3 view .LVU1467
 5673 007e 1F92     		str	r2, [sp, #124]
 5674 0080 826C     		ldr	r2, [r0, #72]
1395:Lib/AI_Runtime/Npu/ll_aton/ll_sw_float.c ****                         SHAPE_INIT(sw_info->general.input.dim.tensor_h, sw_info->general.input.dim.
 5675              		.loc 1 1395 3 view .LVU1468
 5676 0082 0AAD     		add	r5, sp, #40
1401:Lib/AI_Runtime/Npu/ll_aton/ll_sw_float.c ****                         SHAPE_INIT(sw_info->general.output.dim.tensor_h, sw_info->general.output.di
 5677              		.loc 1 1401 3 view .LVU1469
 5678 0084 2092     		str	r2, [sp, #128]
 5679 0086 426C     		ldr	r2, [r0, #68]
 5680 0088 CDE92C53 		strd	r5, r3, [sp, #176]
 5681 008c 2192     		str	r2, [sp, #132]
 5682 008e 1EAA     		add	r2, sp, #120
 5683 0090 3292     		str	r2, [sp, #200]
 5684 0092 0EAA     		add	r2, sp, #56
 5685 0094 3392     		str	r2, [sp, #204]
 5686              		.loc 1 1409 3 is_stmt 1 view .LVU1470
 5687 0096 0422     		movs	r2, #4
 5688 0098 26AD     		add	r5, sp, #152
 5689 009a 0592     		str	r2, [sp, #20]
 5690 009c 6A44     		add	r2, sp, r2
 5691 009e 1560     		str	r5, [r2]
 5692 00a0 3C94     		str	r4, [sp, #240]
 5693 00a2 CDE93D23 		strd	r2, r3, [sp, #244]
 5694 00a6 02AA     		add	r2, sp, #8
 5695 00a8 CDE94023 		strd	r2, r3, [sp, #256]
 5696 00ac 03AA     		add	r2, sp, #12
 5697 00ae CDE94323 		strd	r2, r3, [sp, #268]
 5698 00b2 04AA     		add	r2, sp, #16
 5699 00b4 CDE94623 		strd	r2, r3, [sp, #280]
ARM GAS  C:\Users\DJESSOU\AppData\Local\Temp\ccdFeyMS.s 			page 146


 5700 00b8 3CAA     		add	r2, sp, #240
 5701 00ba 0692     		str	r2, [sp, #24]
1410:Lib/AI_Runtime/Npu/ll_aton/ll_sw_float.c ****                               AI_TENSOR_LIST_OBJ_INIT(AI_FLAG_NONE, 1, TENSORS(&tile_output)), AI_T
1411:Lib/AI_Runtime/Npu/ll_aton/ll_sw_float.c ****                               AI_TENSOR_LIST_OBJ_EMPTY)
1412:Lib/AI_Runtime/Npu/ll_aton/ll_sw_float.c **** 
1413:Lib/AI_Runtime/Npu/ll_aton/ll_sw_float.c ****   AI_ARRAY_OBJ_DECLARE_STATIC(repeats, ai_i16, AI_ARRAY_FORMAT_S16, AI_CONST, 5, sw_info->repeats[2
 5702              		.loc 1 1413 3 view .LVU1471
 5703 00bc 0522     		movs	r2, #5
1409:Lib/AI_Runtime/Npu/ll_aton/ll_sw_float.c ****                               AI_TENSOR_LIST_OBJ_INIT(AI_FLAG_NONE, 1, TENSORS(&tile_output)), AI_T
 5704              		.loc 1 1409 3 is_stmt 0 view .LVU1472
 5705 00be 2DAD     		add	r5, sp, #180
 5706 00c0 0295     		str	r5, [sp, #8]
 5707              		.loc 1 1413 3 view .LVU1473
 5708 00c2 154D     		ldr	r5, .L148+4
1414:Lib/AI_Runtime/Npu/ll_aton/ll_sw_float.c ****                               sw_info->repeats[3], sw_info->repeats[1], sw_info->repeats[0], 1)
1415:Lib/AI_Runtime/Npu/ll_aton/ll_sw_float.c **** 
1416:Lib/AI_Runtime/Npu/ll_aton/ll_sw_float.c ****   // TODO//layer initialization
1417:Lib/AI_Runtime/Npu/ll_aton/ll_sw_float.c ****   AI_LAYER_OBJ_DECLARE(Tile_layer, 2, TILE_TYPE, 0x0, NULL, tile, forward_tile, &tile_chain, NULL, 
 5709              		.loc 1 1417 3 view .LVU1474
 5710 00c4 CDE93633 		strd	r3, r3, [sp, #216]
1413:Lib/AI_Runtime/Npu/ll_aton/ll_sw_float.c ****                               sw_info->repeats[3], sw_info->repeats[1], sw_info->repeats[0], 1)
 5711              		.loc 1 1413 3 view .LVU1475
 5712 00c8 CDE92252 		strd	r5, r2, [sp, #136]
 5713 00cc 07AA     		add	r2, sp, #28
 5714 00ce CDE92423 		strd	r2, r3, [sp, #144]
 5715              		.loc 1 1417 3 is_stmt 1 view .LVU1476
1413:Lib/AI_Runtime/Npu/ll_aton/ll_sw_float.c ****                               sw_info->repeats[3], sw_info->repeats[1], sw_info->repeats[0], 1)
 5716              		.loc 1 1413 3 is_stmt 0 view .LVU1477
 5717 00d2 056E     		ldr	r5, [r0, #96]
 5718              		.loc 1 1417 3 view .LVU1478
 5719 00d4 114A     		ldr	r2, .L148+8
1409:Lib/AI_Runtime/Npu/ll_aton/ll_sw_float.c ****                               AI_TENSOR_LIST_OBJ_INIT(AI_FLAG_NONE, 1, TENSORS(&tile_output)), AI_T
 5720              		.loc 1 1409 3 view .LVU1479
 5721 00d6 4293     		str	r3, [sp, #264]
 5722              		.loc 1 1417 3 view .LVU1480
 5723 00d8 CDE93423 		strd	r2, r3, [sp, #208]
1409:Lib/AI_Runtime/Npu/ll_aton/ll_sw_float.c ****                               AI_TENSOR_LIST_OBJ_INIT(AI_FLAG_NONE, 1, TENSORS(&tile_output)), AI_T
 5724              		.loc 1 1409 3 view .LVU1481
 5725 00dc 0393     		str	r3, [sp, #12]
 5726 00de 4593     		str	r3, [sp, #276]
 5727 00e0 0493     		str	r3, [sp, #16]
1413:Lib/AI_Runtime/Npu/ll_aton/ll_sw_float.c ****                               sw_info->repeats[3], sw_info->repeats[1], sw_info->repeats[0], 1)
 5728              		.loc 1 1413 3 view .LVU1482
 5729 00e2 0795     		str	r5, [sp, #28]
 5730              		.loc 1 1417 3 view .LVU1483
 5731 00e4 3893     		str	r3, [sp, #224]
1413:Lib/AI_Runtime/Npu/ll_aton/ll_sw_float.c ****                               sw_info->repeats[3], sw_info->repeats[1], sw_info->repeats[0], 1)
 5732              		.loc 1 1413 3 view .LVU1484
 5733 00e6 B0F85E50 		ldrh	r5, [r0, #94]
 5734              		.loc 1 1417 3 view .LVU1485
 5735 00ea 0D4B     		ldr	r3, .L148+12
1413:Lib/AI_Runtime/Npu/ll_aton/ll_sw_float.c ****                               sw_info->repeats[3], sw_info->repeats[1], sw_info->repeats[0], 1)
 5736              		.loc 1 1413 3 view .LVU1486
 5737 00ec B0F85C00 		ldrh	r0, [r0, #92]
 5738              	.LVL228:
1409:Lib/AI_Runtime/Npu/ll_aton/ll_sw_float.c ****                               AI_TENSOR_LIST_OBJ_INIT(AI_FLAG_NONE, 1, TENSORS(&tile_output)), AI_T
 5739              		.loc 1 1409 3 view .LVU1487
ARM GAS  C:\Users\DJESSOU\AppData\Local\Temp\ccdFeyMS.s 			page 147


 5740 00f0 05A9     		add	r1, sp, #20
 5741              		.loc 1 1417 3 view .LVU1488
 5742 00f2 CDE93931 		strd	r3, r1, [sp, #228]
1413:Lib/AI_Runtime/Npu/ll_aton/ll_sw_float.c ****                               sw_info->repeats[3], sw_info->repeats[1], sw_info->repeats[0], 1)
 5743              		.loc 1 1413 3 view .LVU1489
 5744 00f6 ADF82200 		strh	r0, [sp, #34]	@ movhi
 5745              		.loc 1 1417 3 view .LVU1490
 5746 00fa 22AB     		add	r3, sp, #136
1418:Lib/AI_Runtime/Npu/ll_aton/ll_sw_float.c ****                        .repeats = AI_ARRAY_OBJ(&repeats))
1419:Lib/AI_Runtime/Npu/ll_aton/ll_sw_float.c **** 
1420:Lib/AI_Runtime/Npu/ll_aton/ll_sw_float.c ****   Tile_layer.forward(AI_LAYER_OBJ(&Tile_layer));
 5747              		.loc 1 1420 3 view .LVU1491
 5748 00fc 34A8     		add	r0, sp, #208
1409:Lib/AI_Runtime/Npu/ll_aton/ll_sw_float.c ****                               AI_TENSOR_LIST_OBJ_INIT(AI_FLAG_NONE, 1, TENSORS(&tile_output)), AI_T
 5749              		.loc 1 1409 3 view .LVU1492
 5750 00fe 3F94     		str	r4, [sp, #252]
1413:Lib/AI_Runtime/Npu/ll_aton/ll_sw_float.c ****                               sw_info->repeats[3], sw_info->repeats[1], sw_info->repeats[0], 1)
 5751              		.loc 1 1413 3 view .LVU1493
 5752 0100 ADF82050 		strh	r5, [sp, #32]	@ movhi
 5753 0104 ADF82440 		strh	r4, [sp, #36]	@ movhi
1417:Lib/AI_Runtime/Npu/ll_aton/ll_sw_float.c ****                        .repeats = AI_ARRAY_OBJ(&repeats))
 5754              		.loc 1 1417 3 view .LVU1494
 5755 0108 3B93     		str	r3, [sp, #236]
 5756              		.loc 1 1420 3 is_stmt 1 view .LVU1495
 5757 010a FFF7FEFF 		bl	forward_tile
 5758              	.LVL229:
1421:Lib/AI_Runtime/Npu/ll_aton/ll_sw_float.c **** }
 5759              		.loc 1 1421 1 is_stmt 0 view .LVU1496
 5760 010e 49B0     		add	sp, sp, #292
 5761              		.cfi_def_cfa_offset 12
 5762              		@ sp needed
 5763 0110 30BD     		pop	{r4, r5, pc}
 5764              	.L149:
 5765 0112 00BF     		.align	2
 5766              	.L148:
 5767 0114 40108200 		.word	8523840
 5768 0118 40088400 		.word	8652864
 5769 011c 18010200 		.word	131352
 5770 0120 00000000 		.word	forward_tile
 5771              		.cfi_endproc
 5772              	.LFE33:
 5774              		.section	.text.ll_sw_forward_concat,"ax",%progbits
 5775              		.align	1
 5776              		.global	ll_sw_forward_concat
 5777              		.syntax unified
 5778              		.thumb
 5779              		.thumb_func
 5781              	ll_sw_forward_concat:
 5782              	.LVL230:
 5783              	.LFB34:
1422:Lib/AI_Runtime/Npu/ll_aton/ll_sw_float.c **** 
1423:Lib/AI_Runtime/Npu/ll_aton/ll_sw_float.c **** //##########################################################################################
1424:Lib/AI_Runtime/Npu/ll_aton/ll_sw_float.c **** /** concat forward function  */
1425:Lib/AI_Runtime/Npu/ll_aton/ll_sw_float.c **** void ll_sw_forward_concat(/* int processor, */ void *sw_info_struct)
1426:Lib/AI_Runtime/Npu/ll_aton/ll_sw_float.c **** {
 5784              		.loc 1 1426 1 is_stmt 1 view -0
 5785              		.cfi_startproc
ARM GAS  C:\Users\DJESSOU\AppData\Local\Temp\ccdFeyMS.s 			page 148


 5786              		@ args = 0, pretend = 0, frame = 432
 5787              		@ frame_needed = 0, uses_anonymous_args = 0
1427:Lib/AI_Runtime/Npu/ll_aton/ll_sw_float.c ****   Concat_sw_info *sw_info = (Concat_sw_info *)sw_info_struct;
 5788              		.loc 1 1427 3 view .LVU1498
1428:Lib/AI_Runtime/Npu/ll_aton/ll_sw_float.c **** 
1429:Lib/AI_Runtime/Npu/ll_aton/ll_sw_float.c ****   AI_ARRAY_OBJ_DECLARE(input_output_array, FORMAT, sw_info->general.input.mem.start_offset,
 5789              		.loc 1 1429 3 view .LVU1499
1426:Lib/AI_Runtime/Npu/ll_aton/ll_sw_float.c ****   Concat_sw_info *sw_info = (Concat_sw_info *)sw_info_struct;
 5790              		.loc 1 1426 1 is_stmt 0 view .LVU1500
 5791 0000 0346     		mov	r3, r0
 5792 0002 2DE9F047 		push	{r4, r5, r6, r7, r8, r9, r10, lr}
 5793              		.cfi_def_cfa_offset 32
 5794              		.cfi_offset 4, -32
 5795              		.cfi_offset 5, -28
 5796              		.cfi_offset 6, -24
 5797              		.cfi_offset 7, -20
 5798              		.cfi_offset 8, -16
 5799              		.cfi_offset 9, -12
 5800              		.cfi_offset 10, -8
 5801              		.cfi_offset 14, -4
 5802              		.loc 1 1429 3 view .LVU1501
 5803 0006 4169     		ldr	r1, [r0, #20]
1426:Lib/AI_Runtime/Npu/ll_aton/ll_sw_float.c ****   Concat_sw_info *sw_info = (Concat_sw_info *)sw_info_struct;
 5804              		.loc 1 1426 1 view .LVU1502
 5805 0008 ECB0     		sub	sp, sp, #432
 5806              		.cfi_def_cfa_offset 464
 5807              		.loc 1 1429 3 view .LVU1503
 5808 000a 0691     		str	r1, [sp, #24]
 5809 000c 816A     		ldr	r1, [r0, #40]
 5810 000e 0DF1140E 		add	lr, sp, #20
 5811 0012 CEE90211 		strd	r1, r1, [lr, #8]
1430:Lib/AI_Runtime/Npu/ll_aton/ll_sw_float.c ****                        sw_info->general.input.mem.start_offset, sw_info->general.input.dim.num_elem
1431:Lib/AI_Runtime/Npu/ll_aton/ll_sw_float.c ****   AI_ARRAY_OBJ_DECLARE(concat_output_array, FORMAT, sw_info->general.output.mem.start_offset,
 5812              		.loc 1 1431 3 is_stmt 1 view .LVU1504
 5813 0016 016C     		ldr	r1, [r0, #64]
 5814 0018 09AF     		add	r7, sp, #36
 5815 001a 7960     		str	r1, [r7, #4]
 5816 001c 416D     		ldr	r1, [r0, #84]
1432:Lib/AI_Runtime/Npu/ll_aton/ll_sw_float.c ****                        sw_info->general.output.mem.start_offset, sw_info->general.output.dim.num_el
1433:Lib/AI_Runtime/Npu/ll_aton/ll_sw_float.c **** 
1434:Lib/AI_Runtime/Npu/ll_aton/ll_sw_float.c ****   AI_ARRAY_OBJ_DECLARE(concat_operand_array, FORMAT, sw_info->operand.mem.start_offset,
1435:Lib/AI_Runtime/Npu/ll_aton/ll_sw_float.c ****                        sw_info->operand.mem.start_offset, sw_info->operand.dim.num_elem, )
1436:Lib/AI_Runtime/Npu/ll_aton/ll_sw_float.c **** 
1437:Lib/AI_Runtime/Npu/ll_aton/ll_sw_float.c ****   ai_array concat_operand_array1;
1438:Lib/AI_Runtime/Npu/ll_aton/ll_sw_float.c ****   ai_array *concat_operand_array1_ptr = NULL;
1439:Lib/AI_Runtime/Npu/ll_aton/ll_sw_float.c ****   if (sw_info->num_of_inputs >= 3)
 5817              		.loc 1 1439 14 is_stmt 0 view .LVU1505
 5818 001e D3F86090 		ldr	r9, [r3, #96]
1431:Lib/AI_Runtime/Npu/ll_aton/ll_sw_float.c ****                        sw_info->general.output.mem.start_offset, sw_info->general.output.dim.num_el
 5819              		.loc 1 1431 3 view .LVU1506
 5820 0022 C7E90211 		strd	r1, r1, [r7, #8]
1434:Lib/AI_Runtime/Npu/ll_aton/ll_sw_float.c ****                        sw_info->operand.mem.start_offset, sw_info->operand.dim.num_elem, )
 5821              		.loc 1 1434 3 is_stmt 1 view .LVU1507
 5822 0026 596F     		ldr	r1, [r3, #116]
1429:Lib/AI_Runtime/Npu/ll_aton/ll_sw_float.c ****                        sw_info->general.input.mem.start_offset, sw_info->general.input.dim.num_elem
 5823              		.loc 1 1429 3 is_stmt 0 view .LVU1508
 5824 0028 694A     		ldr	r2, .L158
ARM GAS  C:\Users\DJESSOU\AppData\Local\Temp\ccdFeyMS.s 			page 149


1434:Lib/AI_Runtime/Npu/ll_aton/ll_sw_float.c ****                        sw_info->operand.mem.start_offset, sw_info->operand.dim.num_elem, )
 5825              		.loc 1 1434 3 view .LVU1509
 5826 002a 0E91     		str	r1, [sp, #56]
 5827 002c D3F88810 		ldr	r1, [r3, #136]
 5828 0030 0DA8     		add	r0, sp, #52
 5829              	.LVL231:
 5830              		.loc 1 1439 6 view .LVU1510
 5831 0032 B9F1020F 		cmp	r9, #2
1434:Lib/AI_Runtime/Npu/ll_aton/ll_sw_float.c ****                        sw_info->operand.mem.start_offset, sw_info->operand.dim.num_elem, )
 5832              		.loc 1 1434 3 view .LVU1511
 5833 0036 C0E90211 		strd	r1, r1, [r0, #8]
1437:Lib/AI_Runtime/Npu/ll_aton/ll_sw_float.c ****   ai_array *concat_operand_array1_ptr = NULL;
 5834              		.loc 1 1437 3 is_stmt 1 view .LVU1512
1438:Lib/AI_Runtime/Npu/ll_aton/ll_sw_float.c ****   if (sw_info->num_of_inputs >= 3)
 5835              		.loc 1 1438 3 view .LVU1513
 5836              	.LVL232:
 5837              		.loc 1 1439 3 view .LVU1514
1429:Lib/AI_Runtime/Npu/ll_aton/ll_sw_float.c ****                        sw_info->general.input.mem.start_offset, sw_info->general.input.dim.num_elem
 5838              		.loc 1 1429 3 is_stmt 0 view .LVU1515
 5839 003a CEF80020 		str	r2, [lr]
1431:Lib/AI_Runtime/Npu/ll_aton/ll_sw_float.c ****                        sw_info->general.output.mem.start_offset, sw_info->general.output.dim.num_el
 5840              		.loc 1 1431 3 view .LVU1516
 5841 003e 3A60     		str	r2, [r7]
1434:Lib/AI_Runtime/Npu/ll_aton/ll_sw_float.c ****                        sw_info->operand.mem.start_offset, sw_info->operand.dim.num_elem, )
 5842              		.loc 1 1434 3 view .LVU1517
 5843 0040 0260     		str	r2, [r0]
 5844              		.loc 1 1439 6 view .LVU1518
 5845 0042 40F2BA80 		bls	.L153
 5846              	.LBB87:
1440:Lib/AI_Runtime/Npu/ll_aton/ll_sw_float.c ****   {
1441:Lib/AI_Runtime/Npu/ll_aton/ll_sw_float.c ****     concat_operand_array1 = (ai_array)AI_ARRAY_OBJ_INIT(
 5847              		.loc 1 1441 5 is_stmt 1 view .LVU1519
 5848              		.loc 1 1441 39 is_stmt 0 view .LVU1520
 5849 0046 D3F8A040 		ldr	r4, [r3, #160]
 5850 004a D3F8B410 		ldr	r1, [r3, #180]
 5851              	.LBE87:
1442:Lib/AI_Runtime/Npu/ll_aton/ll_sw_float.c ****         FORMAT, sw_info->operand1.mem.start_offset, sw_info->operand1.mem.start_offset, sw_info->op
1443:Lib/AI_Runtime/Npu/ll_aton/ll_sw_float.c ****     concat_operand_array1_ptr = &concat_operand_array1;
1444:Lib/AI_Runtime/Npu/ll_aton/ll_sw_float.c ****   }
1445:Lib/AI_Runtime/Npu/ll_aton/ll_sw_float.c **** 
1446:Lib/AI_Runtime/Npu/ll_aton/ll_sw_float.c ****   ai_array concat_operand_array2;
1447:Lib/AI_Runtime/Npu/ll_aton/ll_sw_float.c ****   ai_array *concat_operand_array2_ptr = NULL;
1448:Lib/AI_Runtime/Npu/ll_aton/ll_sw_float.c ****   if (sw_info->num_of_inputs >= 4)
 5852              		.loc 1 1448 6 view .LVU1521
 5853 004e B9F1030F 		cmp	r9, #3
 5854              	.LBB88:
1441:Lib/AI_Runtime/Npu/ll_aton/ll_sw_float.c ****         FORMAT, sw_info->operand1.mem.start_offset, sw_info->operand1.mem.start_offset, sw_info->op
 5855              		.loc 1 1441 27 view .LVU1522
 5856 0052 CDE91124 		strd	r2, r4, [sp, #68]
 5857 0056 CDE91311 		strd	r1, r1, [sp, #76]
1443:Lib/AI_Runtime/Npu/ll_aton/ll_sw_float.c ****   }
 5858              		.loc 1 1443 5 is_stmt 1 view .LVU1523
 5859              	.LVL233:
1443:Lib/AI_Runtime/Npu/ll_aton/ll_sw_float.c ****   }
 5860              		.loc 1 1443 5 is_stmt 0 view .LVU1524
 5861              	.LBE88:
1446:Lib/AI_Runtime/Npu/ll_aton/ll_sw_float.c ****   ai_array *concat_operand_array2_ptr = NULL;
ARM GAS  C:\Users\DJESSOU\AppData\Local\Temp\ccdFeyMS.s 			page 150


 5862              		.loc 1 1446 3 is_stmt 1 view .LVU1525
1447:Lib/AI_Runtime/Npu/ll_aton/ll_sw_float.c ****   if (sw_info->num_of_inputs >= 4)
 5863              		.loc 1 1447 3 view .LVU1526
 5864              		.loc 1 1448 3 view .LVU1527
 5865              		.loc 1 1448 6 is_stmt 0 view .LVU1528
 5866 005a 00F0B280 		beq	.L154
 5867              	.LBB89:
1449:Lib/AI_Runtime/Npu/ll_aton/ll_sw_float.c ****   {
1450:Lib/AI_Runtime/Npu/ll_aton/ll_sw_float.c ****     concat_operand_array2 = (ai_array)AI_ARRAY_OBJ_INIT(
 5868              		.loc 1 1450 5 is_stmt 1 view .LVU1529
 5869              		.loc 1 1450 39 is_stmt 0 view .LVU1530
 5870 005e D3F8CC40 		ldr	r4, [r3, #204]
 5871 0062 D3F8E010 		ldr	r1, [r3, #224]
 5872              		.loc 1 1450 27 view .LVU1531
 5873 0066 CDE91524 		strd	r2, r4, [sp, #84]
1451:Lib/AI_Runtime/Npu/ll_aton/ll_sw_float.c ****         FORMAT, sw_info->operand2.mem.start_offset, sw_info->operand2.mem.start_offset, sw_info->op
1452:Lib/AI_Runtime/Npu/ll_aton/ll_sw_float.c ****     concat_operand_array2_ptr = &concat_operand_array2;
 5874              		.loc 1 1452 31 view .LVU1532
 5875 006a 15AC     		add	r4, sp, #84
 5876 006c A446     		mov	ip, r4
1450:Lib/AI_Runtime/Npu/ll_aton/ll_sw_float.c ****         FORMAT, sw_info->operand2.mem.start_offset, sw_info->operand2.mem.start_offset, sw_info->op
 5877              		.loc 1 1450 27 view .LVU1533
 5878 006e CDE91711 		strd	r1, r1, [sp, #92]
 5879              		.loc 1 1452 5 is_stmt 1 view .LVU1534
 5880              	.LVL234:
1450:Lib/AI_Runtime/Npu/ll_aton/ll_sw_float.c ****         FORMAT, sw_info->operand2.mem.start_offset, sw_info->operand2.mem.start_offset, sw_info->op
 5881              		.loc 1 1450 27 is_stmt 0 view .LVU1535
 5882 0072 11A9     		add	r1, sp, #68
 5883              	.LVL235:
 5884              	.L151:
1450:Lib/AI_Runtime/Npu/ll_aton/ll_sw_float.c ****         FORMAT, sw_info->operand2.mem.start_offset, sw_info->operand2.mem.start_offset, sw_info->op
 5885              		.loc 1 1450 27 view .LVU1536
 5886              	.LBE89:
1453:Lib/AI_Runtime/Npu/ll_aton/ll_sw_float.c ****   }
1454:Lib/AI_Runtime/Npu/ll_aton/ll_sw_float.c **** 
1455:Lib/AI_Runtime/Npu/ll_aton/ll_sw_float.c ****   // tensors init
1456:Lib/AI_Runtime/Npu/ll_aton/ll_sw_float.c ****   AI_TENSOR_OBJ_DECLARE(input_output, , 0x0, 4,
 5887              		.loc 1 1456 3 is_stmt 1 view .LVU1537
 5888 0074 0DF16408 		add	r8, sp, #100
 5889 0078 0022     		movs	r2, #0
 5890 007a 4FF08276 		mov	r6, #17039360
 5891 007e 40F20145 		movw	r5, #1025
 5892 0082 CDF8E080 		str	r8, [sp, #224]
 5893 0086 40F20248 		movw	r8, #1026
 5894 008a 1C69     		ldr	r4, [r3, #16]
 5895 008c 0DF1740A 		add	r10, sp, #116
 5896 0090 1994     		str	r4, [sp, #100]
 5897 0092 DC68     		ldr	r4, [r3, #12]
 5898 0094 CDE93AAE 		strd	r10, lr, [sp, #232]
1457:Lib/AI_Runtime/Npu/ll_aton/ll_sw_float.c ****                         SHAPE_INIT(sw_info->general.input.dim.tensor_h, sw_info->general.input.dim.
1458:Lib/AI_Runtime/Npu/ll_aton/ll_sw_float.c ****                                    sw_info->general.input.dim.tensor_c, sw_info->general.input.dim.
1459:Lib/AI_Runtime/Npu/ll_aton/ll_sw_float.c ****                         STRIDE_INIT(sw_info->general.input.stride.h, sw_info->general.input.stride.
1460:Lib/AI_Runtime/Npu/ll_aton/ll_sw_float.c ****                                     sw_info->general.input.stride.c, sw_info->general.input.stride.
1461:Lib/AI_Runtime/Npu/ll_aton/ll_sw_float.c ****                         1, &input_output_array, NULL)
1462:Lib/AI_Runtime/Npu/ll_aton/ll_sw_float.c ****   AI_TENSOR_OBJ_DECLARE(concat_output, , 0x0, 4,
 5899              		.loc 1 1462 3 view .LVU1538
1456:Lib/AI_Runtime/Npu/ll_aton/ll_sw_float.c ****                         SHAPE_INIT(sw_info->general.input.dim.tensor_h, sw_info->general.input.dim.
ARM GAS  C:\Users\DJESSOU\AppData\Local\Temp\ccdFeyMS.s 			page 151


 5900              		.loc 1 1456 3 is_stmt 0 view .LVU1539
 5901 0098 1A94     		str	r4, [sp, #104]
 5902 009a 9C68     		ldr	r4, [r3, #8]
 5903 009c CDE93526 		strd	r2, r6, [sp, #212]
 5904 00a0 1B94     		str	r4, [sp, #108]
 5905 00a2 5C68     		ldr	r4, [r3, #4]
 5906              		.loc 1 1462 3 view .LVU1540
 5907 00a4 CDE93C26 		strd	r2, r6, [sp, #240]
1456:Lib/AI_Runtime/Npu/ll_aton/ll_sw_float.c ****                         SHAPE_INIT(sw_info->general.input.dim.tensor_h, sw_info->general.input.dim.
 5908              		.loc 1 1456 3 view .LVU1541
 5909 00a8 1C94     		str	r4, [sp, #112]
 5910 00aa 5C6A     		ldr	r4, [r3, #36]
 5911 00ac 3795     		str	r5, [sp, #220]
 5912 00ae 1D94     		str	r4, [sp, #116]
 5913 00b0 1C6A     		ldr	r4, [r3, #32]
 5914 00b2 CDF8E480 		str	r8, [sp, #228]
 5915 00b6 1E94     		str	r4, [sp, #120]
 5916 00b8 DC69     		ldr	r4, [r3, #28]
 5917              		.loc 1 1462 3 view .LVU1542
 5918 00ba 3E95     		str	r5, [sp, #248]
1456:Lib/AI_Runtime/Npu/ll_aton/ll_sw_float.c ****                         SHAPE_INIT(sw_info->general.input.dim.tensor_h, sw_info->general.input.dim.
 5919              		.loc 1 1456 3 view .LVU1543
 5920 00bc 1F94     		str	r4, [sp, #124]
 5921 00be 9C69     		ldr	r4, [r3, #24]
 5922              		.loc 1 1462 3 view .LVU1544
 5923 00c0 0DF1840E 		add	lr, sp, #132
1456:Lib/AI_Runtime/Npu/ll_aton/ll_sw_float.c ****                         SHAPE_INIT(sw_info->general.input.dim.tensor_h, sw_info->general.input.dim.
 5924              		.loc 1 1456 3 view .LVU1545
 5925 00c4 2094     		str	r4, [sp, #128]
 5926              		.loc 1 1462 3 view .LVU1546
 5927 00c6 DC6B     		ldr	r4, [r3, #60]
1463:Lib/AI_Runtime/Npu/ll_aton/ll_sw_float.c ****                         SHAPE_INIT(sw_info->general.output.dim.tensor_h, sw_info->general.output.di
1464:Lib/AI_Runtime/Npu/ll_aton/ll_sw_float.c ****                                    sw_info->general.output.dim.tensor_c, sw_info->general.output.di
1465:Lib/AI_Runtime/Npu/ll_aton/ll_sw_float.c ****                         STRIDE_INIT(sw_info->general.output.stride.h, sw_info->general.output.strid
1466:Lib/AI_Runtime/Npu/ll_aton/ll_sw_float.c ****                                     sw_info->general.output.stride.c, sw_info->general.output.strid
1467:Lib/AI_Runtime/Npu/ll_aton/ll_sw_float.c ****                         1, &concat_output_array, NULL)
1468:Lib/AI_Runtime/Npu/ll_aton/ll_sw_float.c **** 
1469:Lib/AI_Runtime/Npu/ll_aton/ll_sw_float.c ****   AI_TENSOR_OBJ_DECLARE(concat_operand, , 0x0, 4,
1470:Lib/AI_Runtime/Npu/ll_aton/ll_sw_float.c ****                         SHAPE_INIT(sw_info->operand.dim.tensor_h, sw_info->operand.dim.tensor_w,
1471:Lib/AI_Runtime/Npu/ll_aton/ll_sw_float.c ****                                    sw_info->operand.dim.tensor_c, sw_info->operand.dim.tensor_b),
1472:Lib/AI_Runtime/Npu/ll_aton/ll_sw_float.c ****                         STRIDE_INIT(sw_info->operand.stride.h, sw_info->operand.stride.w, sw_info->
1473:Lib/AI_Runtime/Npu/ll_aton/ll_sw_float.c ****                                     sw_info->operand.stride.b),
1474:Lib/AI_Runtime/Npu/ll_aton/ll_sw_float.c ****                         1, &concat_operand_array, NULL)
1475:Lib/AI_Runtime/Npu/ll_aton/ll_sw_float.c **** 
1476:Lib/AI_Runtime/Npu/ll_aton/ll_sw_float.c ****   ai_tensor concat_operand1;
1477:Lib/AI_Runtime/Npu/ll_aton/ll_sw_float.c ****   ai_tensor *concat_operand1_ptr = NULL;
1478:Lib/AI_Runtime/Npu/ll_aton/ll_sw_float.c ****   if (sw_info->num_of_inputs >= 3)
 5928              		.loc 1 1478 6 view .LVU1547
 5929 00c8 B9F1020F 		cmp	r9, #2
1462:Lib/AI_Runtime/Npu/ll_aton/ll_sw_float.c ****                         SHAPE_INIT(sw_info->general.output.dim.tensor_h, sw_info->general.output.di
 5930              		.loc 1 1462 3 view .LVU1548
 5931 00cc 2194     		str	r4, [sp, #132]
 5932 00ce 9C6B     		ldr	r4, [r3, #56]
 5933 00d0 2294     		str	r4, [sp, #136]
 5934 00d2 5C6B     		ldr	r4, [r3, #52]
 5935 00d4 2394     		str	r4, [sp, #140]
 5936 00d6 1C6B     		ldr	r4, [r3, #48]
ARM GAS  C:\Users\DJESSOU\AppData\Local\Temp\ccdFeyMS.s 			page 152


 5937 00d8 CDE93FE8 		strd	lr, r8, [sp, #252]
 5938 00dc 2494     		str	r4, [sp, #144]
 5939 00de 1C6D     		ldr	r4, [r3, #80]
 5940 00e0 0DF1940E 		add	lr, sp, #148
 5941 00e4 2594     		str	r4, [sp, #148]
 5942 00e6 DC6C     		ldr	r4, [r3, #76]
 5943 00e8 CDE941E7 		strd	lr, r7, [sp, #260]
1469:Lib/AI_Runtime/Npu/ll_aton/ll_sw_float.c ****                         SHAPE_INIT(sw_info->operand.dim.tensor_h, sw_info->operand.dim.tensor_w,
 5944              		.loc 1 1469 3 is_stmt 1 view .LVU1549
1462:Lib/AI_Runtime/Npu/ll_aton/ll_sw_float.c ****                         SHAPE_INIT(sw_info->general.output.dim.tensor_h, sw_info->general.output.di
 5945              		.loc 1 1462 3 is_stmt 0 view .LVU1550
 5946 00ec 2694     		str	r4, [sp, #152]
 5947 00ee 9C6C     		ldr	r4, [r3, #72]
1469:Lib/AI_Runtime/Npu/ll_aton/ll_sw_float.c ****                         SHAPE_INIT(sw_info->operand.dim.tensor_h, sw_info->operand.dim.tensor_w,
 5948              		.loc 1 1469 3 view .LVU1551
 5949 00f0 29AF     		add	r7, sp, #164
1462:Lib/AI_Runtime/Npu/ll_aton/ll_sw_float.c ****                         SHAPE_INIT(sw_info->general.output.dim.tensor_h, sw_info->general.output.di
 5950              		.loc 1 1462 3 view .LVU1552
 5951 00f2 2794     		str	r4, [sp, #156]
 5952 00f4 5C6C     		ldr	r4, [r3, #68]
1469:Lib/AI_Runtime/Npu/ll_aton/ll_sw_float.c ****                         SHAPE_INIT(sw_info->operand.dim.tensor_h, sw_info->operand.dim.tensor_w,
 5953              		.loc 1 1469 3 view .LVU1553
 5954 00f6 CDE94678 		strd	r7, r8, [sp, #280]
1462:Lib/AI_Runtime/Npu/ll_aton/ll_sw_float.c ****                         SHAPE_INIT(sw_info->general.output.dim.tensor_h, sw_info->general.output.di
 5955              		.loc 1 1462 3 view .LVU1554
 5956 00fa 2894     		str	r4, [sp, #160]
1469:Lib/AI_Runtime/Npu/ll_aton/ll_sw_float.c ****                         SHAPE_INIT(sw_info->operand.dim.tensor_h, sw_info->operand.dim.tensor_w,
 5957              		.loc 1 1469 3 view .LVU1555
 5958 00fc 1C6F     		ldr	r4, [r3, #112]
 5959 00fe D3F88470 		ldr	r7, [r3, #132]
 5960 0102 2994     		str	r4, [sp, #164]
 5961 0104 DC6E     		ldr	r4, [r3, #108]
 5962 0106 2D97     		str	r7, [sp, #180]
 5963 0108 2A94     		str	r4, [sp, #168]
 5964 010a D3F88070 		ldr	r7, [r3, #128]
 5965 010e 9C6E     		ldr	r4, [r3, #104]
 5966 0110 2E97     		str	r7, [sp, #184]
 5967 0112 2B94     		str	r4, [sp, #172]
 5968 0114 DF6F     		ldr	r7, [r3, #124]
 5969 0116 5C6E     		ldr	r4, [r3, #100]
 5970 0118 CDE94326 		strd	r2, r6, [sp, #268]
 5971 011c 4595     		str	r5, [sp, #276]
 5972 011e 2C94     		str	r4, [sp, #176]
 5973 0120 2F97     		str	r7, [sp, #188]
 5974 0122 9F6F     		ldr	r7, [r3, #120]
 5975 0124 3097     		str	r7, [sp, #192]
 5976 0126 2DAF     		add	r7, sp, #180
 5977 0128 CDE94870 		strd	r7, r0, [sp, #288]
1476:Lib/AI_Runtime/Npu/ll_aton/ll_sw_float.c ****   ai_tensor *concat_operand1_ptr = NULL;
 5978              		.loc 1 1476 3 is_stmt 1 view .LVU1556
1477:Lib/AI_Runtime/Npu/ll_aton/ll_sw_float.c ****   if (sw_info->num_of_inputs >= 3)
 5979              		.loc 1 1477 3 view .LVU1557
 5980              	.LVL236:
 5981              		.loc 1 1478 3 view .LVU1558
 5982 012c 58A8     		add	r0, sp, #352
 5983 012e 60AF     		add	r7, sp, #384
 5984              		.loc 1 1478 6 is_stmt 0 view .LVU1559
ARM GAS  C:\Users\DJESSOU\AppData\Local\Temp\ccdFeyMS.s 			page 153


 5985 0130 49D9     		bls	.L155
 5986              	.LBB90:
1479:Lib/AI_Runtime/Npu/ll_aton/ll_sw_float.c ****   {
1480:Lib/AI_Runtime/Npu/ll_aton/ll_sw_float.c ****     concat_operand1 =
 5987              		.loc 1 1480 5 is_stmt 1 view .LVU1560
 5988              	.LBE90:
1481:Lib/AI_Runtime/Npu/ll_aton/ll_sw_float.c ****         (ai_tensor)AI_TENSOR_OBJ_INIT(0x0, 4,
1482:Lib/AI_Runtime/Npu/ll_aton/ll_sw_float.c ****                                       SHAPE_INIT(sw_info->operand1.dim.tensor_h, sw_info->operand1.
1483:Lib/AI_Runtime/Npu/ll_aton/ll_sw_float.c ****                                                  sw_info->operand1.dim.tensor_c, sw_info->operand1.
1484:Lib/AI_Runtime/Npu/ll_aton/ll_sw_float.c ****                                       STRIDE_INIT(sw_info->operand1.stride.h, sw_info->operand1.str
1485:Lib/AI_Runtime/Npu/ll_aton/ll_sw_float.c ****                                                   sw_info->operand1.stride.c, sw_info->operand1.str
1486:Lib/AI_Runtime/Npu/ll_aton/ll_sw_float.c ****                                       1, concat_operand_array1_ptr, NULL);
1487:Lib/AI_Runtime/Npu/ll_aton/ll_sw_float.c ****     concat_operand1_ptr = &concat_operand1;
1488:Lib/AI_Runtime/Npu/ll_aton/ll_sw_float.c ****   }
1489:Lib/AI_Runtime/Npu/ll_aton/ll_sw_float.c ****   ai_tensor concat_operand2;
1490:Lib/AI_Runtime/Npu/ll_aton/ll_sw_float.c ****   ai_tensor *concat_operand2_ptr = NULL;
1491:Lib/AI_Runtime/Npu/ll_aton/ll_sw_float.c ****   if (sw_info->num_of_inputs >= 4)
 5989              		.loc 1 1491 6 is_stmt 0 view .LVU1561
 5990 0132 B9F1030F 		cmp	r9, #3
 5991              	.LBB91:
1480:Lib/AI_Runtime/Npu/ll_aton/ll_sw_float.c ****         (ai_tensor)AI_TENSOR_OBJ_INIT(0x0, 4,
 5992              		.loc 1 1480 21 view .LVU1562
 5993 0136 CDE94A26 		strd	r2, r6, [sp, #296]
 5994 013a CDE94C50 		strd	r5, r0, [sp, #304]
 5995 013e CDE94E87 		strd	r8, r7, [sp, #312]
 5996 0142 5091     		str	r1, [sp, #320]
1487:Lib/AI_Runtime/Npu/ll_aton/ll_sw_float.c ****   }
 5997              		.loc 1 1487 5 is_stmt 1 view .LVU1563
 5998              	.LVL237:
1487:Lib/AI_Runtime/Npu/ll_aton/ll_sw_float.c ****   }
 5999              		.loc 1 1487 5 is_stmt 0 view .LVU1564
 6000              	.LBE91:
1489:Lib/AI_Runtime/Npu/ll_aton/ll_sw_float.c ****   ai_tensor *concat_operand2_ptr = NULL;
 6001              		.loc 1 1489 3 is_stmt 1 view .LVU1565
1490:Lib/AI_Runtime/Npu/ll_aton/ll_sw_float.c ****   if (sw_info->num_of_inputs >= 4)
 6002              		.loc 1 1490 3 view .LVU1566
 6003              		.loc 1 1491 3 view .LVU1567
 6004              		.loc 1 1491 6 is_stmt 0 view .LVU1568
 6005 0144 41D0     		beq	.L156
 6006              	.LBB92:
1492:Lib/AI_Runtime/Npu/ll_aton/ll_sw_float.c ****   {
1493:Lib/AI_Runtime/Npu/ll_aton/ll_sw_float.c ****     concat_operand2 =
 6007              		.loc 1 1493 5 is_stmt 1 view .LVU1569
 6008              		.loc 1 1493 21 is_stmt 0 view .LVU1570
 6009 0146 CDE95350 		strd	r5, r0, [sp, #332]
 6010 014a CDE95587 		strd	r8, r7, [sp, #340]
 6011 014e CDE95126 		strd	r2, r6, [sp, #324]
 6012 0152 CDF85CC1 		str	ip, [sp, #348]
1494:Lib/AI_Runtime/Npu/ll_aton/ll_sw_float.c ****         (ai_tensor)AI_TENSOR_OBJ_INIT(0x0, 4,
1495:Lib/AI_Runtime/Npu/ll_aton/ll_sw_float.c ****                                       SHAPE_INIT(sw_info->operand2.dim.tensor_h, sw_info->operand2.
1496:Lib/AI_Runtime/Npu/ll_aton/ll_sw_float.c ****                                                  sw_info->operand2.dim.tensor_c, sw_info->operand2.
1497:Lib/AI_Runtime/Npu/ll_aton/ll_sw_float.c ****                                       STRIDE_INIT(sw_info->operand2.stride.h, sw_info->operand2.str
1498:Lib/AI_Runtime/Npu/ll_aton/ll_sw_float.c ****                                                   sw_info->operand2.stride.c, sw_info->operand2.str
1499:Lib/AI_Runtime/Npu/ll_aton/ll_sw_float.c ****                                       1, concat_operand_array2_ptr, NULL);
1500:Lib/AI_Runtime/Npu/ll_aton/ll_sw_float.c ****     concat_operand2_ptr = &concat_operand2;
 6013              		.loc 1 1500 5 is_stmt 1 view .LVU1571
 6014              	.LVL238:
ARM GAS  C:\Users\DJESSOU\AppData\Local\Temp\ccdFeyMS.s 			page 154


 6015              		.loc 1 1500 5 is_stmt 0 view .LVU1572
 6016 0156 4AA9     		add	r1, sp, #296
 6017              	.LVL239:
 6018              		.loc 1 1500 25 view .LVU1573
 6019 0158 51AA     		add	r2, sp, #324
 6020              	.LVL240:
 6021              	.L152:
 6022              		.loc 1 1500 25 view .LVU1574
 6023              	.LBE92:
1501:Lib/AI_Runtime/Npu/ll_aton/ll_sw_float.c ****   }
1502:Lib/AI_Runtime/Npu/ll_aton/ll_sw_float.c **** 
1503:Lib/AI_Runtime/Npu/ll_aton/ll_sw_float.c ****   // tensor chains init
1504:Lib/AI_Runtime/Npu/ll_aton/ll_sw_float.c ****   AI_TENSOR_CHAIN_OBJ_DECLARE(
 6024              		.loc 1 1504 3 is_stmt 1 view .LVU1575
 6025 015a 0425     		movs	r5, #4
 6026 015c 0395     		str	r5, [sp, #12]
 6027 015e 6095     		str	r5, [sp, #384]
 6028 0160 35AD     		add	r5, sp, #212
 6029 0162 3195     		str	r5, [sp, #196]
 6030 0164 3492     		str	r2, [sp, #208]
 6031 0166 43AD     		add	r5, sp, #268
 6032 0168 31AA     		add	r2, sp, #196
 6033              	.LVL241:
 6034              		.loc 1 1504 3 is_stmt 0 view .LVU1576
 6035 016a CDE93251 		strd	r5, r1, [sp, #200]
 6036 016e 6192     		str	r2, [sp, #388]
 6037 0170 0121     		movs	r1, #1
 6038 0172 0022     		movs	r2, #0
 6039 0174 CDE96221 		strd	r2, r1, [sp, #392]
 6040 0178 3CA9     		add	r1, sp, #240
 6041 017a 0091     		str	r1, [sp]
 6042 017c 01A9     		add	r1, sp, #4
 6043 017e CDE96712 		strd	r1, r2, [sp, #412]
 6044 0182 02A9     		add	r1, sp, #8
 6045 0184 CDE96A12 		strd	r1, r2, [sp, #424]
1505:Lib/AI_Runtime/Npu/ll_aton/ll_sw_float.c ****       concat_chain, , 4,
1506:Lib/AI_Runtime/Npu/ll_aton/ll_sw_float.c ****       AI_TENSOR_LIST_OBJ_INIT(AI_FLAG_NONE, 4,
1507:Lib/AI_Runtime/Npu/ll_aton/ll_sw_float.c ****                               TENSORS(&input_output, &concat_operand, concat_operand1_ptr, concat_o
1508:Lib/AI_Runtime/Npu/ll_aton/ll_sw_float.c ****       AI_TENSOR_LIST_OBJ_INIT(AI_FLAG_NONE, 1, TENSORS(&concat_output)), AI_TENSOR_LIST_OBJ_EMPTY,
1509:Lib/AI_Runtime/Npu/ll_aton/ll_sw_float.c ****       AI_TENSOR_LIST_OBJ_EMPTY)
1510:Lib/AI_Runtime/Npu/ll_aton/ll_sw_float.c ****   AI_LAYER_OBJ_DECLARE(concat_layer, 1, CONCAT_TYPE, 0x0, NULL, concat, forward_concat, &concat_cha
 6046              		.loc 1 1510 3 view .LVU1577
 6047 0188 1249     		ldr	r1, .L158+4
1504:Lib/AI_Runtime/Npu/ll_aton/ll_sw_float.c ****       concat_chain, , 4,
 6048              		.loc 1 1504 3 view .LVU1578
 6049 018a CDE96522 		strd	r2, r2, [sp, #404]
 6050              		.loc 1 1510 3 view .LVU1579
 6051 018e CDE95812 		strd	r1, r2, [sp, #352]
 6052 0192 CDE95A22 		strd	r2, r2, [sp, #360]
 6053 0196 DB6D     		ldr	r3, [r3, #92]
 6054              	.LVL242:
1504:Lib/AI_Runtime/Npu/ll_aton/ll_sw_float.c ****       concat_chain, , 4,
 6055              		.loc 1 1504 3 view .LVU1580
 6056 0198 0192     		str	r2, [sp, #4]
 6057 019a 6992     		str	r2, [sp, #420]
 6058 019c 0292     		str	r2, [sp, #8]
 6059              		.loc 1 1510 3 view .LVU1581
ARM GAS  C:\Users\DJESSOU\AppData\Local\Temp\ccdFeyMS.s 			page 155


 6060 019e 5C92     		str	r2, [sp, #368]
 6061 01a0 0D4A     		ldr	r2, .L158+8
1504:Lib/AI_Runtime/Npu/ll_aton/ll_sw_float.c ****       concat_chain, , 4,
 6062              		.loc 1 1504 3 view .LVU1582
 6063 01a2 03AC     		add	r4, sp, #12
 6064              		.loc 1 1510 3 view .LVU1583
 6065 01a4 CDE95D24 		strd	r2, r4, [sp, #372]
1504:Lib/AI_Runtime/Npu/ll_aton/ll_sw_float.c ****       concat_chain, , 4,
 6066              		.loc 1 1504 3 view .LVU1584
 6067 01a8 CDF890D1 		str	sp, [sp, #400]
 6068 01ac 0497     		str	r7, [sp, #16]
 6069              		.loc 1 1510 3 is_stmt 1 view .LVU1585
 6070 01ae 5F93     		str	r3, [sp, #380]
1511:Lib/AI_Runtime/Npu/ll_aton/ll_sw_float.c ****                        .axis = sw_info->concat_axis)
1512:Lib/AI_Runtime/Npu/ll_aton/ll_sw_float.c ****   concat_layer.forward(AI_LAYER_OBJ(&concat_layer));
 6071              		.loc 1 1512 3 view .LVU1586
 6072 01b0 FFF7FEFF 		bl	forward_concat
 6073              	.LVL243:
1513:Lib/AI_Runtime/Npu/ll_aton/ll_sw_float.c **** }
 6074              		.loc 1 1513 1 is_stmt 0 view .LVU1587
 6075 01b4 6CB0     		add	sp, sp, #432
 6076              		.cfi_remember_state
 6077              		.cfi_def_cfa_offset 32
 6078              		@ sp needed
 6079 01b6 BDE8F087 		pop	{r4, r5, r6, r7, r8, r9, r10, pc}
 6080              	.LVL244:
 6081              	.L153:
 6082              		.cfi_restore_state
1438:Lib/AI_Runtime/Npu/ll_aton/ll_sw_float.c ****   if (sw_info->num_of_inputs >= 3)
 6083              		.loc 1 1438 13 view .LVU1588
 6084 01ba 0021     		movs	r1, #0
 6085              	.LVL245:
 6086              	.L157:
1447:Lib/AI_Runtime/Npu/ll_aton/ll_sw_float.c ****   if (sw_info->num_of_inputs >= 4)
 6087              		.loc 1 1447 13 view .LVU1589
 6088 01bc 4FF0000C 		mov	ip, #0
 6089 01c0 58E7     		b	.L151
 6090              	.LVL246:
 6091              	.L154:
1447:Lib/AI_Runtime/Npu/ll_aton/ll_sw_float.c ****   if (sw_info->num_of_inputs >= 4)
 6092              		.loc 1 1447 13 view .LVU1590
 6093 01c2 11A9     		add	r1, sp, #68
 6094              	.LVL247:
1447:Lib/AI_Runtime/Npu/ll_aton/ll_sw_float.c ****   if (sw_info->num_of_inputs >= 4)
 6095              		.loc 1 1447 13 view .LVU1591
 6096 01c4 FAE7     		b	.L157
 6097              	.LVL248:
 6098              	.L155:
1477:Lib/AI_Runtime/Npu/ll_aton/ll_sw_float.c ****   if (sw_info->num_of_inputs >= 3)
 6099              		.loc 1 1477 14 view .LVU1592
 6100 01c6 1146     		mov	r1, r2
 6101 01c8 C7E7     		b	.L152
 6102              	.LVL249:
 6103              	.L156:
1477:Lib/AI_Runtime/Npu/ll_aton/ll_sw_float.c ****   if (sw_info->num_of_inputs >= 3)
 6104              		.loc 1 1477 14 view .LVU1593
 6105 01ca 4AA9     		add	r1, sp, #296
ARM GAS  C:\Users\DJESSOU\AppData\Local\Temp\ccdFeyMS.s 			page 156


 6106              	.LVL250:
1477:Lib/AI_Runtime/Npu/ll_aton/ll_sw_float.c ****   if (sw_info->num_of_inputs >= 3)
 6107              		.loc 1 1477 14 view .LVU1594
 6108 01cc C5E7     		b	.L152
 6109              	.L159:
 6110 01ce 00BF     		.align	2
 6111              	.L158:
 6112 01d0 40108200 		.word	8523840
 6113 01d4 10010100 		.word	65808
 6114 01d8 00000000 		.word	forward_concat
 6115              		.cfi_endproc
 6116              	.LFE34:
 6118              		.section	.rodata.CSWTCH.22,"a"
 6119              		.align	2
 6122              	CSWTCH.22:
 6123 0000 00000000 		.word	0
 6124 0004 FFFF7F7F 		.word	2139095039
 6125 0008 00000000 		.word	0
 6126 000c 00000000 		.word	0
 6127 0010 00000000 		.word	0
 6128              		.section	.rodata.CSWTCH.21,"a"
 6129              		.align	2
 6132              	CSWTCH.21:
 6133 0000 00000000 		.word	ai_sum
 6134 0004 00000000 		.word	ai_min
 6135 0008 00000000 		.word	0
 6136 000c 00000000 		.word	ai_max
 6137 0010 00000000 		.word	ai_max
 6138              		.section	.rodata.CSWTCH.14,"a"
 6139              		.align	2
 6142              	CSWTCH.14:
 6143 0000 00000000 		.word	ai_sub_buffer
 6144 0004 00000000 		.word	ai_mul_buffer
 6145 0008 00000000 		.word	ai_div_buffer
 6146 000c 00000000 		.word	ai_sum_buffer
 6147 0010 00000000 		.word	ai_sum_buffer
 6148 0014 00000000 		.word	ai_sum_buffer
 6149 0018 00000000 		.word	ai_sum_buffer
 6150 001c 00000000 		.word	ai_sum_buffer
 6151 0020 00000000 		.word	ai_sum_buffer
 6152 0024 00000000 		.word	ai_sum_buffer
 6153 0028 00000000 		.word	ai_sum_buffer
 6154 002c 00000000 		.word	ai_sum_buffer
 6155 0030 00000000 		.word	ai_sum_buffer
 6156 0034 00000000 		.word	ai_sum_buffer
 6157 0038 00000000 		.word	ai_sum_buffer
 6158 003c 00000000 		.word	ai_sum_buffer
 6159 0040 00000000 		.word	ai_sum_buffer
 6160 0044 00000000 		.word	ai_sum_buffer
 6161 0048 00000000 		.word	ai_sum_buffer
 6162 004c 00000000 		.word	ai_sum_buffer
 6163 0050 00000000 		.word	ai_sum_buffer
 6164 0054 00000000 		.word	ai_sum_buffer
 6165 0058 00000000 		.word	ai_sum_buffer
 6166 005c 00000000 		.word	ai_sum_buffer
 6167 0060 00000000 		.word	ai_sum_buffer
 6168 0064 00000000 		.word	ai_sum_buffer
ARM GAS  C:\Users\DJESSOU\AppData\Local\Temp\ccdFeyMS.s 			page 157


 6169 0068 00000000 		.word	ai_sum_buffer
 6170 006c 00000000 		.word	ai_sum_buffer
 6171 0070 00000000 		.word	ai_sum_buffer
 6172 0074 00000000 		.word	ai_sum_buffer
 6173 0078 00000000 		.word	ai_sum_buffer
 6174 007c 00000000 		.word	ai_sum_buffer
 6175 0080 00000000 		.word	ai_sum_buffer
 6176 0084 00000000 		.word	ai_pow_buffer
 6177 0088 00000000 		.word	ai_sum_buffer
 6178 008c 00000000 		.word	ai_sum_buffer
 6179 0090 00000000 		.word	ai_sum_buffer
 6180 0094 00000000 		.word	ai_equal_buffer
 6181 0098 00000000 		.word	ai_greater_buffer
 6182 009c 00000000 		.word	ai_less_buffer
 6183 00a0 00000000 		.word	ai_greater_or_equal_buffer
 6184 00a4 00000000 		.word	ai_less_or_equal_buffer
 6185 00a8 00000000 		.word	ai_sum_buffer
 6186 00ac 00000000 		.word	ai_sum_buffer
 6187 00b0 00000000 		.word	ai_sum_buffer
 6188 00b4 00000000 		.word	ai_sum_buffer
 6189 00b8 00000000 		.word	ai_sum_buffer
 6190 00bc 00000000 		.word	ai_sum_buffer
 6191 00c0 00000000 		.word	ai_sum_buffer
 6192 00c4 00000000 		.word	ai_sum_buffer
 6193 00c8 00000000 		.word	ai_sum_buffer
 6194 00cc 00000000 		.word	ai_sum_buffer
 6195 00d0 00000000 		.word	ai_sum_buffer
 6196 00d4 00000000 		.word	ai_sum_buffer
 6197 00d8 00000000 		.word	ai_sum_buffer
 6198 00dc 00000000 		.word	ai_sum_buffer
 6199 00e0 00000000 		.word	ai_sum_buffer
 6200 00e4 00000000 		.word	ai_sum_buffer
 6201 00e8 00000000 		.word	ai_sum_buffer
 6202 00ec 00000000 		.word	ai_sum_buffer
 6203 00f0 00000000 		.word	ai_min_buffer
 6204 00f4 00000000 		.word	ai_max_buffer
 6205 00f8 00000000 		.word	ai_sum_buffer
 6206 00fc 00000000 		.word	ai_sum_buffer
 6207 0100 00000000 		.word	ai_floor_mod_buffer
 6208              		.section	.rodata.CSWTCH.13,"a"
 6209              		.align	2
 6212              	CSWTCH.13:
 6213 0000 00000000 		.word	ai_sub
 6214 0004 00000000 		.word	ai_mul
 6215 0008 00000000 		.word	ai_div
 6216 000c 00000000 		.word	ai_sum
 6217 0010 00000000 		.word	ai_sum
 6218 0014 00000000 		.word	ai_sum
 6219 0018 00000000 		.word	ai_sum
 6220 001c 00000000 		.word	ai_sum
 6221 0020 00000000 		.word	ai_sum
 6222 0024 00000000 		.word	ai_sum
 6223 0028 00000000 		.word	ai_sum
 6224 002c 00000000 		.word	ai_sum
 6225 0030 00000000 		.word	ai_sum
 6226 0034 00000000 		.word	ai_sum
 6227 0038 00000000 		.word	ai_sum
ARM GAS  C:\Users\DJESSOU\AppData\Local\Temp\ccdFeyMS.s 			page 158


 6228 003c 00000000 		.word	ai_sum
 6229 0040 00000000 		.word	ai_sum
 6230 0044 00000000 		.word	ai_sum
 6231 0048 00000000 		.word	ai_sum
 6232 004c 00000000 		.word	ai_sum
 6233 0050 00000000 		.word	ai_sum
 6234 0054 00000000 		.word	ai_sum
 6235 0058 00000000 		.word	ai_sum
 6236 005c 00000000 		.word	ai_sum
 6237 0060 00000000 		.word	ai_sum
 6238 0064 00000000 		.word	ai_sum
 6239 0068 00000000 		.word	ai_sum
 6240 006c 00000000 		.word	ai_sum
 6241 0070 00000000 		.word	ai_sum
 6242 0074 00000000 		.word	ai_sum
 6243 0078 00000000 		.word	ai_sum
 6244 007c 00000000 		.word	ai_sum
 6245 0080 00000000 		.word	ai_sum
 6246 0084 00000000 		.word	ai_pow
 6247 0088 00000000 		.word	ai_sum
 6248 008c 00000000 		.word	ai_sum
 6249 0090 00000000 		.word	ai_sum
 6250 0094 00000000 		.word	ai_equal
 6251 0098 00000000 		.word	ai_greater
 6252 009c 00000000 		.word	ai_less
 6253 00a0 00000000 		.word	ai_greater_or_equal
 6254 00a4 00000000 		.word	ai_less_or_equal
 6255 00a8 00000000 		.word	ai_sum
 6256 00ac 00000000 		.word	ai_sum
 6257 00b0 00000000 		.word	ai_sum
 6258 00b4 00000000 		.word	ai_sum
 6259 00b8 00000000 		.word	ai_sum
 6260 00bc 00000000 		.word	ai_sum
 6261 00c0 00000000 		.word	ai_sum
 6262 00c4 00000000 		.word	ai_sum
 6263 00c8 00000000 		.word	ai_sum
 6264 00cc 00000000 		.word	ai_sum
 6265 00d0 00000000 		.word	ai_sum
 6266 00d4 00000000 		.word	ai_sum
 6267 00d8 00000000 		.word	ai_sum
 6268 00dc 00000000 		.word	ai_sum
 6269 00e0 00000000 		.word	ai_sum
 6270 00e4 00000000 		.word	ai_sum
 6271 00e8 00000000 		.word	ai_sum
 6272 00ec 00000000 		.word	ai_sum
 6273 00f0 00000000 		.word	ai_min
 6274 00f4 00000000 		.word	ai_max
 6275 00f8 00000000 		.word	ai_sum
 6276 00fc 00000000 		.word	ai_sum
 6277 0100 00000000 		.word	ai_floor_mod
 6278              		.section	.rodata.CSWTCH.4,"a"
 6281              	CSWTCH.4:
 6282 0000 00       		.byte	0
 6283 0001 01       		.byte	1
 6284 0002 03       		.byte	3
 6285 0003 02       		.byte	2
 6286              		.text
ARM GAS  C:\Users\DJESSOU\AppData\Local\Temp\ccdFeyMS.s 			page 159


 6287              	.Letext0:
 6288              		.file 3 "C:\\ST\\STM32CubeIDE_1.18.1\\STM32CubeIDE\\plugins\\com.st.stm32cube.ide.mcu.externaltool
 6289              		.file 4 "C:\\ST\\STM32CubeIDE_1.18.1\\STM32CubeIDE\\plugins\\com.st.stm32cube.ide.mcu.externaltool
 6290              		.file 5 "Lib/AI_Runtime/Npu/ll_aton/ll_sw.h"
 6291              		.file 6 "Lib/AI_Runtime/Inc/ai_platform.h"
 6292              		.file 7 "Lib/AI_Runtime/Inc/datatypes_network.h"
 6293              		.file 8 "Lib/AI_Runtime/Inc/ai_datatypes_format.h"
 6294              		.file 9 "Lib/AI_Runtime/Inc/ai_platform_interface.h"
 6295              		.file 10 "Lib/AI_Runtime/Inc/core_common.h"
 6296              		.file 11 "Lib/AI_Runtime/Inc/core_datatypes.h"
 6297              		.file 12 "Lib/AI_Runtime/Inc/layers_common.h"
 6298              		.file 13 "Lib/AI_Runtime/Inc/layers_nl.h"
 6299              		.file 14 "Lib/AI_Runtime/Inc/layers_pool.h"
 6300              		.file 15 "Lib/AI_Runtime/Inc/layers_conv2d.h"
 6301              		.file 16 "Lib/AI_Runtime/Inc/layers_generic.h"
 6302              		.file 17 "Lib/AI_Runtime/Inc/layers_norm.h"
 6303              		.file 18 "Lib/AI_Runtime/Inc/ai_math_helpers.h"
 6304              		.file 19 "Lib/AI_Runtime/Inc/layers_upsample_generic.h"
 6305              		.file 20 "C:\\ST\\STM32CubeIDE_1.18.1\\STM32CubeIDE\\plugins\\com.st.stm32cube.ide.mcu.externaltoo
 6306              		.file 21 "<built-in>"
ARM GAS  C:\Users\DJESSOU\AppData\Local\Temp\ccdFeyMS.s 			page 160


DEFINED SYMBOLS
                            *ABS*:00000000 ll_sw_float.c
C:\Users\DJESSOU\AppData\Local\Temp\ccdFeyMS.s:26     .text.ll_sw_forward_conv:00000000 $t
C:\Users\DJESSOU\AppData\Local\Temp\ccdFeyMS.s:32     .text.ll_sw_forward_conv:00000000 ll_sw_forward_conv
C:\Users\DJESSOU\AppData\Local\Temp\ccdFeyMS.s:411    .text.ll_sw_forward_conv:00000270 $d
C:\Users\DJESSOU\AppData\Local\Temp\ccdFeyMS.s:419    .text.ll_sw_forward_gemm:00000000 $t
C:\Users\DJESSOU\AppData\Local\Temp\ccdFeyMS.s:425    .text.ll_sw_forward_gemm:00000000 ll_sw_forward_gemm
C:\Users\DJESSOU\AppData\Local\Temp\ccdFeyMS.s:713    .text.ll_sw_forward_gemm:000001ac $d
C:\Users\DJESSOU\AppData\Local\Temp\ccdFeyMS.s:720    .text.ll_sw_forward_matmul:00000000 $t
C:\Users\DJESSOU\AppData\Local\Temp\ccdFeyMS.s:726    .text.ll_sw_forward_matmul:00000000 ll_sw_forward_matmul
C:\Users\DJESSOU\AppData\Local\Temp\ccdFeyMS.s:931    .text.ll_sw_forward_matmul:00000130 $d
C:\Users\DJESSOU\AppData\Local\Temp\ccdFeyMS.s:938    .text.ll_sw_forward_resize:00000000 $t
C:\Users\DJESSOU\AppData\Local\Temp\ccdFeyMS.s:944    .text.ll_sw_forward_resize:00000000 ll_sw_forward_resize
C:\Users\DJESSOU\AppData\Local\Temp\ccdFeyMS.s:1210   .text.ll_sw_forward_resize:00000178 $d
C:\Users\DJESSOU\AppData\Local\Temp\ccdFeyMS.s:1219   .text.ll_sw_forward_softmax:00000000 $t
C:\Users\DJESSOU\AppData\Local\Temp\ccdFeyMS.s:1225   .text.ll_sw_forward_softmax:00000000 ll_sw_forward_softmax
C:\Users\DJESSOU\AppData\Local\Temp\ccdFeyMS.s:1484   .text.ll_sw_forward_softmax:00000160 $d
C:\Users\DJESSOU\AppData\Local\Temp\ccdFeyMS.s:6281   .rodata.CSWTCH.4:00000000 CSWTCH.4
C:\Users\DJESSOU\AppData\Local\Temp\ccdFeyMS.s:1494   .text.ll_sw_forward_activ:00000000 $t
C:\Users\DJESSOU\AppData\Local\Temp\ccdFeyMS.s:1500   .text.ll_sw_forward_activ:00000000 ll_sw_forward_activ
C:\Users\DJESSOU\AppData\Local\Temp\ccdFeyMS.s:1652   .text.ll_sw_forward_activ:000000dc $d
C:\Users\DJESSOU\AppData\Local\Temp\ccdFeyMS.s:1735   .text.ll_sw_forward_activ:00000182 $t
C:\Users\DJESSOU\AppData\Local\Temp\ccdFeyMS.s:1899   .text.ll_sw_forward_activ:0000027c $d
C:\Users\DJESSOU\AppData\Local\Temp\ccdFeyMS.s:1908   .text.ll_sw_forward_activ:00000290 $t
C:\Users\DJESSOU\AppData\Local\Temp\ccdFeyMS.s:2429   .text.ll_sw_forward_activ:00000558 $d
C:\Users\DJESSOU\AppData\Local\Temp\ccdFeyMS.s:2457   .text.ll_sw_forward_activ:000005b8 $t
C:\Users\DJESSOU\AppData\Local\Temp\ccdFeyMS.s:2694   .text.ll_sw_forward_activ:00000700 $d
C:\Users\DJESSOU\AppData\Local\Temp\ccdFeyMS.s:2710   .text.ll_sw_forward_arith:00000000 $t
C:\Users\DJESSOU\AppData\Local\Temp\ccdFeyMS.s:2716   .text.ll_sw_forward_arith:00000000 ll_sw_forward_arith
C:\Users\DJESSOU\AppData\Local\Temp\ccdFeyMS.s:3101   .text.ll_sw_forward_arith:00000290 $d
C:\Users\DJESSOU\AppData\Local\Temp\ccdFeyMS.s:6212   .rodata.CSWTCH.13:00000000 CSWTCH.13
C:\Users\DJESSOU\AppData\Local\Temp\ccdFeyMS.s:6142   .rodata.CSWTCH.14:00000000 CSWTCH.14
C:\Users\DJESSOU\AppData\Local\Temp\ccdFeyMS.s:3112   .text.ll_sw_forward_arith:000002ac $t
C:\Users\DJESSOU\AppData\Local\Temp\ccdFeyMS.s:3196   .text.ll_sw_forward_arith:0000034c $d
C:\Users\DJESSOU\AppData\Local\Temp\ccdFeyMS.s:3202   .text.ll_sw_forward_pool:00000000 $t
C:\Users\DJESSOU\AppData\Local\Temp\ccdFeyMS.s:3208   .text.ll_sw_forward_pool:00000000 ll_sw_forward_pool
C:\Users\DJESSOU\AppData\Local\Temp\ccdFeyMS.s:3422   .text.ll_sw_forward_pool:00000130 $d
C:\Users\DJESSOU\AppData\Local\Temp\ccdFeyMS.s:3430   .text.ll_sw_forward_global_pool:00000000 $t
C:\Users\DJESSOU\AppData\Local\Temp\ccdFeyMS.s:3436   .text.ll_sw_forward_global_pool:00000000 ll_sw_forward_global_pool
C:\Users\DJESSOU\AppData\Local\Temp\ccdFeyMS.s:3628   .text.ll_sw_forward_global_pool:00000118 $d
C:\Users\DJESSOU\AppData\Local\Temp\ccdFeyMS.s:3636   .text.ll_sw_forward_argmax:00000000 $t
C:\Users\DJESSOU\AppData\Local\Temp\ccdFeyMS.s:3642   .text.ll_sw_forward_argmax:00000000 ll_sw_forward_argmax
C:\Users\DJESSOU\AppData\Local\Temp\ccdFeyMS.s:3821   .text.ll_sw_forward_argmax:00000104 $d
C:\Users\DJESSOU\AppData\Local\Temp\ccdFeyMS.s:3830   .text.ll_sw_forward_gather:00000000 $t
C:\Users\DJESSOU\AppData\Local\Temp\ccdFeyMS.s:3836   .text.ll_sw_forward_gather:00000000 ll_sw_forward_gather
C:\Users\DJESSOU\AppData\Local\Temp\ccdFeyMS.s:4061   .text.ll_sw_forward_gather:00000148 $d
C:\Users\DJESSOU\AppData\Local\Temp\ccdFeyMS.s:4070   .text.ll_sw_forward_argmin:00000000 $t
C:\Users\DJESSOU\AppData\Local\Temp\ccdFeyMS.s:4076   .text.ll_sw_forward_argmin:00000000 ll_sw_forward_argmin
C:\Users\DJESSOU\AppData\Local\Temp\ccdFeyMS.s:4255   .text.ll_sw_forward_argmin:00000104 $d
C:\Users\DJESSOU\AppData\Local\Temp\ccdFeyMS.s:4264   .text.ll_sw_forward_reduce:00000000 $t
C:\Users\DJESSOU\AppData\Local\Temp\ccdFeyMS.s:4270   .text.ll_sw_forward_reduce:00000000 ll_sw_forward_reduce
C:\Users\DJESSOU\AppData\Local\Temp\ccdFeyMS.s:4522   .text.ll_sw_forward_reduce:00000148 $d
C:\Users\DJESSOU\AppData\Local\Temp\ccdFeyMS.s:6122   .rodata.CSWTCH.22:00000000 CSWTCH.22
C:\Users\DJESSOU\AppData\Local\Temp\ccdFeyMS.s:6132   .rodata.CSWTCH.21:00000000 CSWTCH.21
C:\Users\DJESSOU\AppData\Local\Temp\ccdFeyMS.s:4533   .text.ll_sw_forward_bn:00000000 $t
C:\Users\DJESSOU\AppData\Local\Temp\ccdFeyMS.s:4539   .text.ll_sw_forward_bn:00000000 ll_sw_forward_bn
C:\Users\DJESSOU\AppData\Local\Temp\ccdFeyMS.s:4709   .text.ll_sw_forward_bn:000000a4 $d
ARM GAS  C:\Users\DJESSOU\AppData\Local\Temp\ccdFeyMS.s 			page 161


C:\Users\DJESSOU\AppData\Local\Temp\ccdFeyMS.s:4714   .text.ll_sw_forward_instance_normalization:00000000 $t
C:\Users\DJESSOU\AppData\Local\Temp\ccdFeyMS.s:4720   .text.ll_sw_forward_instance_normalization:00000000 ll_sw_forward_instance_normalization
C:\Users\DJESSOU\AppData\Local\Temp\ccdFeyMS.s:4993   .text.ll_sw_forward_instance_normalization:0000019c $d
C:\Users\DJESSOU\AppData\Local\Temp\ccdFeyMS.s:5001   .text.ll_sw_forward_lpnormalization:00000000 $t
C:\Users\DJESSOU\AppData\Local\Temp\ccdFeyMS.s:5007   .text.ll_sw_forward_lpnormalization:00000000 ll_sw_forward_lpnormalization
C:\Users\DJESSOU\AppData\Local\Temp\ccdFeyMS.s:5199   .text.ll_sw_forward_lpnormalization:0000010c $d
C:\Users\DJESSOU\AppData\Local\Temp\ccdFeyMS.s:5207   .text.ll_sw_forward_sign:00000000 $t
C:\Users\DJESSOU\AppData\Local\Temp\ccdFeyMS.s:5213   .text.ll_sw_forward_sign:00000000 ll_sw_forward_sign
C:\Users\DJESSOU\AppData\Local\Temp\ccdFeyMS.s:5373   .text.ll_sw_forward_sign:000000e8 $d
C:\Users\DJESSOU\AppData\Local\Temp\ccdFeyMS.s:5380   .text.ll_sw_forward_lrn:00000000 $t
C:\Users\DJESSOU\AppData\Local\Temp\ccdFeyMS.s:5386   .text.ll_sw_forward_lrn:00000000 ll_sw_forward_lrn
C:\Users\DJESSOU\AppData\Local\Temp\ccdFeyMS.s:5562   .text.ll_sw_forward_lrn:000000f8 $d
C:\Users\DJESSOU\AppData\Local\Temp\ccdFeyMS.s:5569   .text.ll_sw_forward_tile:00000000 $t
C:\Users\DJESSOU\AppData\Local\Temp\ccdFeyMS.s:5575   .text.ll_sw_forward_tile:00000000 ll_sw_forward_tile
C:\Users\DJESSOU\AppData\Local\Temp\ccdFeyMS.s:5767   .text.ll_sw_forward_tile:00000114 $d
C:\Users\DJESSOU\AppData\Local\Temp\ccdFeyMS.s:5775   .text.ll_sw_forward_concat:00000000 $t
C:\Users\DJESSOU\AppData\Local\Temp\ccdFeyMS.s:5781   .text.ll_sw_forward_concat:00000000 ll_sw_forward_concat
C:\Users\DJESSOU\AppData\Local\Temp\ccdFeyMS.s:6112   .text.ll_sw_forward_concat:000001d0 $d
C:\Users\DJESSOU\AppData\Local\Temp\ccdFeyMS.s:6119   .rodata.CSWTCH.22:00000000 $d
C:\Users\DJESSOU\AppData\Local\Temp\ccdFeyMS.s:6129   .rodata.CSWTCH.21:00000000 $d
C:\Users\DJESSOU\AppData\Local\Temp\ccdFeyMS.s:6139   .rodata.CSWTCH.14:00000000 $d
C:\Users\DJESSOU\AppData\Local\Temp\ccdFeyMS.s:6209   .rodata.CSWTCH.13:00000000 $d
                           .group:00000000 wm4.0.c530a555507323ed657a04d5a22acbf4
                           .group:00000000 wm4.ll_aton_config.h.20.27cfa9f6f5afc4105991355367358a39
                           .group:00000000 wm4._newlib_version.h.4.411db44ea2338a62eca2f0777f81481b
                           .group:00000000 wm4.features.h.33.e0c9f337c65cb9f22ed5f23d082bc78b
                           .group:00000000 wm4._default_types.h.15.247e5cd201eca3442cbf5404108c4935
                           .group:00000000 wm4._intsup.h.10.48bafbb683905c4daa4565a85aeeb264
                           .group:00000000 wm4._stdint.h.10.c24fa3af3bc1706662bb5593a907e841
                           .group:00000000 wm4.stdint.h.23.d53047a68f4a85177f80b422d52785ed
                           .group:00000000 wm4.newlib.h.7.a37ffbe9e5aff74303f4e60b1cc1c01b
                           .group:00000000 wm4.ieeefp.h.77.bd5feb87d9990dd328793ced294f6a87
                           .group:00000000 wm4.config.h.224.10ee1ad185d877c6e334e6581faab44d
                           .group:00000000 wm4._ansi.h.31.de524f58584151836e90d8620a16f8e8
                           .group:00000000 wm4.stdio.h.31.7c0e28c411445f3f9c5b11accf882760
                           .group:00000000 wm4.stddef.h.185.cbb642e1ccd385e8aa504b15cb7fb086
                           .group:00000000 wm4.cdefs.h.49.70fc7af612f78ddcace70fdd90b5623b
                           .group:00000000 wm4.stddef.h.39.6817658cc6bc4c7c8354d2009e4a5777
                           .group:00000000 wm4.stdarg.h.34.3a23a216c0c293b3d2ea2e89281481e6
                           .group:00000000 wm4._types.h.20.dd0d04dca3800a0d2a6129b87f3adbb2
                           .group:00000000 wm4.stddef.h.158.6f8e08a347b1cff664332fa350bfceb3
                           .group:00000000 wm4._types.h.127.3bdfe3ff8ea2d0985b03d9cbe93480e3
                           .group:00000000 wm4.reent.h.18.25503cdc8b7e55dd0d6ea7b3e5af7a03
                           .group:00000000 wm4.lock.h.2.1461d1fff82dffe8bfddc23307f6484f
                           .group:00000000 wm4.reent.h.78.6b87466b04591b1f1cb88c14fdf2ba9e
                           .group:00000000 wm4.stdio.h.67.0cf8a9c281ab0b348aef5c02e7e48825
                           .group:00000000 wm4.stdio.h.2.4aa87247282eca6c8f36f9de33d8df1a
                           .group:00000000 wm4.stdio.h.87.a1e20d2651f9bfb66e51bfbe849db00a
                           .group:00000000 wm4.stdbool.h.29.c08aa3eec75cf5b9b5003883f43253f0
                           .group:00000000 wm4.string.h.8.c4b8571ce60dff2817f43fec8b86aecd
                           .group:00000000 wm4.stddef.h.158.eec8bf00b5213f43d095cb984c5f22e3
                           .group:00000000 wm4.string.h.177.59a005921fa78485abc80a0267de5752
                           .group:00000000 wm4.inttypes.h.14.b28deb26920e51e0da310220ef0f9003
                           .group:00000000 wm4.inttypes.h.28.684aa7736e7ecc9a6ffc44acc61c7a90
                           .group:00000000 wm4.ai_platform.h.28.0db67c933474cb4b7d059494bff73a0f
                           .group:00000000 wm4.datatypes_network.h.19.0916132781a5a985d4857655dae04a72
                           .group:00000000 wm4.core_assert.h.19.bbca5bb3090ffa7dddc8f8ab2ac82724
ARM GAS  C:\Users\DJESSOU\AppData\Local\Temp\ccdFeyMS.s 			page 162


                           .group:00000000 wm4.ai_datatypes_defines.h.32.7c74a350659aaf8415fab7bed7e2285d
                           .group:00000000 wm4.ai_datatypes_format.h.19.1a802854dffbcb65ea52443a8fe88175
                           .group:00000000 wm4.ai_datatypes_format.h.392.61aa27312938e25431eaac70519dcc7b
                           .group:00000000 wm4.stai.h.24.a274645e79490de4e05332b397550d1f
                           .group:00000000 wm4.ai_platform_interface.h.30.2ea047b53ca1b81608da569a3716f521
                           .group:00000000 wm4.ai_datatypes.h.32.d5dda011299ea885036e6533ca9dee42
                           .group:00000000 wm4.ai_datatypes_internal.h.49.5ab3a9b7b297be1460f6458ee1870b58
                           .group:00000000 wm4.math.h.13.47cfc34cae8a1153323939c4d32cf7c2
                           .group:00000000 wm4.syslimits.h.34.de5cbd310098bc5895998b6bde577ed2
                           .group:00000000 wm4.limits.h.9.70fb0ada6f71b16202a66baaa6d8ea70
                           .group:00000000 wm4.limits.h.60.56a1ae353e2028a24298ec6463b8b593
                           .group:00000000 wm4.ai_lite_math_helpers.h.28.5a4e48e259ebe557bbbffc7ac6527059
                           .group:00000000 wm4.ai_math_helpers.h.23.a19c785e74bb0bde4af288ca79a63b1f
                           .group:00000000 wm4.core_log.h.19.dbcf060b9a897e8bc8903452f7768b3b
                           .group:00000000 wm4.core_private.h.38.c86eca07862e08e6af28e4a25308dec9
                           .group:00000000 wm4.ai_common_config.h.19.fb67468a4f6fea8360e0f37e5f15139c
                           .group:00000000 wm4.core_datatypes.h.20.d2f02200c9af1fa7f418654ff077de79
                           .group:00000000 wm4.core_common.h.65.4551a4f0a625b0033601444691182d61
                           .group:00000000 wm4.layers_common.h.30.b37bee6f76b8177da41061225fdf3d98
                           .group:00000000 wm4.layers_list.h.38.0bb23c1a9bda4042ad16b6d892e17e61
                           .group:00000000 wm4.layers_common.h.162.48d6ce1fc28d2c9f3e577717d3440b72
                           .group:00000000 wm4.ai_lite.h.19.9f8b519f46333304e1e5858b36e90592
                           .group:00000000 wm4.ai_lite_interface.h.39.74c820fd88c5a59637552e47cb0a5e08
                           .group:00000000 wm4.lite_nl_list.h.71.82af4649e7198012c12f18657d35b60a
                           .group:00000000 wm4.lite_pool_f32.h.19.ea8272c420c3cb80b24c7967417cd16e
                           .group:00000000 wm4.layers_generic.h.20.21710cd19917cbd09eab3a433005f012
                           .group:00000000 wm4.layers_ml_treeensembleclassifier.h.20.1b484c65846fc8b1b6d60458adee6a2f
                           .group:00000000 wm4.layers_conv2d_dqnn.h.19.58bd281048af34dc1f0e1185dd771f04
                           .group:00000000 wm4.assert.h.11.db24e541f16414db224bf986d21017e2
                           .group:00000000 wm4.errno.h.2.ba016d646105af6cad23be83630b6a3f
                           .group:00000000 wm4.errno.h.9.ae5ea2b0ff9ea6e39e585807e35200d3
                           .group:00000000 wm4.ll_aton_util.h.34.9098eaa90d3d72b819973556e3e5fe44

UNDEFINED SYMBOLS
memset
forward_conv2d_if32of32wf32_group
forward_gemm
forward_matmul
forward_upsample_zeros
forward_resize
forward_sm
forward_relu
forward_clip
forward_prelu
forward_elu
forward_relu_thresholded
forward_selu
forward_ceil
forward_floor
forward_exp
forward_log
forward_acos
forward_acosh
forward_asin
forward_asinh
forward_atan
forward_atanh
ARM GAS  C:\Users\DJESSOU\AppData\Local\Temp\ccdFeyMS.s 			page 163


forward_cos
forward_cosh
forward_sin
forward_sinh
forward_tanh
forward_tan
forward_sigmoid
forward_sqrt
forward_erf
forward_soft_plus
forward_soft_sign
forward_hard_sigmoid
forward_swish
forward_hard_swish
forward_hardmax
forward_abs
forward_neg
forward_reciprocal
forward_round
forward_gelu
forward_eltwise
ai_sum
ai_sum_buffer
forward_ap
forward_mp
forward_argmax
forward_gather
forward_argmin
forward_reduce_log_sum_exp
forward_reduce
sqrtf
forward_instanceNormalization
forward_norm
forward_sign
forward_lrn
forward_tile
forward_concat
ai_min
ai_max
ai_sub_buffer
ai_mul_buffer
ai_div_buffer
ai_pow_buffer
ai_equal_buffer
ai_greater_buffer
ai_less_buffer
ai_greater_or_equal_buffer
ai_less_or_equal_buffer
ai_min_buffer
ai_max_buffer
ai_floor_mod_buffer
ai_sub
ai_mul
ai_div
ai_pow
ai_equal
ai_greater
ARM GAS  C:\Users\DJESSOU\AppData\Local\Temp\ccdFeyMS.s 			page 164


ai_less
ai_greater_or_equal
ai_less_or_equal
ai_floor_mod
