ARM GAS  C:\Users\DJESSOU\AppData\Local\Temp\ccAx4BcF.s 			page 1


   1              		.arch armv8.1-m.main
   2              		.fpu fpv5-d16
   3              		.arch_extension dsp
   4              		.arch_extension fp
   5              		.arch_extension fp.dp
   6              		.arch_extension mve
   7              		.arch_extension mve.fp
   8              		.eabi_attribute 5, "cortex-m55"
   9              		.eabi_attribute 28, 1
  10              		.eabi_attribute 20, 1
  11              		.eabi_attribute 21, 1
  12              		.eabi_attribute 23, 3
  13              		.eabi_attribute 24, 1
  14              		.eabi_attribute 25, 1
  15              		.eabi_attribute 26, 1
  16              		.eabi_attribute 30, 4
  17              		.eabi_attribute 34, 1
  18              		.eabi_attribute 38, 1
  19              		.eabi_attribute 18, 4
  20              		.file	"mx66uw1g45g.c"
  21              		.text
  22              	.Ltext0:
  23              		.cfi_sections	.debug_frame
  24              		.file 1 "STM32Cube_FW_N6/Drivers/BSP/Components/mx66uw1g45g/mx66uw1g45g.c"
  25              		.section	.text.MX66UW1G45G_GetFlashInfo,"ax",%progbits
  26              		.align	1
  27              		.global	MX66UW1G45G_GetFlashInfo
  28              		.syntax unified
  29              		.thumb
  30              		.thumb_func
  32              	MX66UW1G45G_GetFlashInfo:
  33              	.LVL0:
  34              	.LFB862:
   1:STM32Cube_FW_N6/Drivers/BSP/Components/mx66uw1g45g/mx66uw1g45g.c **** /**
   2:STM32Cube_FW_N6/Drivers/BSP/Components/mx66uw1g45g/mx66uw1g45g.c ****   ******************************************************************************
   3:STM32Cube_FW_N6/Drivers/BSP/Components/mx66uw1g45g/mx66uw1g45g.c ****   * @file    mx66uw1g45g.c
   4:STM32Cube_FW_N6/Drivers/BSP/Components/mx66uw1g45g/mx66uw1g45g.c ****   * @modify  MCD Application Team
   5:STM32Cube_FW_N6/Drivers/BSP/Components/mx66uw1g45g/mx66uw1g45g.c ****   * @brief   This file provides the MX66UW1G45G XSPI drivers.
   6:STM32Cube_FW_N6/Drivers/BSP/Components/mx66uw1g45g/mx66uw1g45g.c ****   ******************************************************************************
   7:STM32Cube_FW_N6/Drivers/BSP/Components/mx66uw1g45g/mx66uw1g45g.c ****   * @attention
   8:STM32Cube_FW_N6/Drivers/BSP/Components/mx66uw1g45g/mx66uw1g45g.c ****   *
   9:STM32Cube_FW_N6/Drivers/BSP/Components/mx66uw1g45g/mx66uw1g45g.c ****   * Copyright (c) 2023 STMicroelectronics.
  10:STM32Cube_FW_N6/Drivers/BSP/Components/mx66uw1g45g/mx66uw1g45g.c ****   * All rights reserved.
  11:STM32Cube_FW_N6/Drivers/BSP/Components/mx66uw1g45g/mx66uw1g45g.c ****   *
  12:STM32Cube_FW_N6/Drivers/BSP/Components/mx66uw1g45g/mx66uw1g45g.c ****   * This software is licensed under terms that can be found in the LICENSE file
  13:STM32Cube_FW_N6/Drivers/BSP/Components/mx66uw1g45g/mx66uw1g45g.c ****   * in the root directory of this software component.
  14:STM32Cube_FW_N6/Drivers/BSP/Components/mx66uw1g45g/mx66uw1g45g.c ****   * If no LICENSE file comes with this software, it is provided AS-IS.
  15:STM32Cube_FW_N6/Drivers/BSP/Components/mx66uw1g45g/mx66uw1g45g.c ****   *
  16:STM32Cube_FW_N6/Drivers/BSP/Components/mx66uw1g45g/mx66uw1g45g.c ****   ******************************************************************************
  17:STM32Cube_FW_N6/Drivers/BSP/Components/mx66uw1g45g/mx66uw1g45g.c ****     * MX66UW1G45G action :
  18:STM32Cube_FW_N6/Drivers/BSP/Components/mx66uw1g45g/mx66uw1g45g.c ****   *   STR Octal IO protocol (SOPI) and DTR Octal IO protocol (DOPI) bits of
  19:STM32Cube_FW_N6/Drivers/BSP/Components/mx66uw1g45g/mx66uw1g45g.c ****   *   Configuration Register 2 :
  20:STM32Cube_FW_N6/Drivers/BSP/Components/mx66uw1g45g/mx66uw1g45g.c ****   *     DOPI = 1 and SOPI = 0: Operates in DTR Octal IO protocol (accepts 8-8-8 commands)
  21:STM32Cube_FW_N6/Drivers/BSP/Components/mx66uw1g45g/mx66uw1g45g.c ****   *     DOPI = 0 and SOPI = 1: Operates in STR Octal IO protocol (accepts 8-8-8 commands)
  22:STM32Cube_FW_N6/Drivers/BSP/Components/mx66uw1g45g/mx66uw1g45g.c ****   *     DOPI = 0 and SOPI = 0: Operates in Single IO protocol (accepts 1-1-1 commands)
  23:STM32Cube_FW_N6/Drivers/BSP/Components/mx66uw1g45g/mx66uw1g45g.c ****   *   Enter SOPI mode by configuring DOPI = 0 and SOPI = 1 in CR2-Addr0
  24:STM32Cube_FW_N6/Drivers/BSP/Components/mx66uw1g45g/mx66uw1g45g.c ****   *   Exit SOPI mode by configuring DOPI = 0 and SOPI = 0 in CR2-Addr0
ARM GAS  C:\Users\DJESSOU\AppData\Local\Temp\ccAx4BcF.s 			page 2


  25:STM32Cube_FW_N6/Drivers/BSP/Components/mx66uw1g45g/mx66uw1g45g.c ****   *   Enter DOPI mode by configuring DOPI = 1 and SOPI = 0 in CR2-Addr0
  26:STM32Cube_FW_N6/Drivers/BSP/Components/mx66uw1g45g/mx66uw1g45g.c ****   *   Exit DOPI mode by configuring DOPI = 0 and SOPI = 0 in CR2-Addr0
  27:STM32Cube_FW_N6/Drivers/BSP/Components/mx66uw1g45g/mx66uw1g45g.c ****   *
  28:STM32Cube_FW_N6/Drivers/BSP/Components/mx66uw1g45g/mx66uw1g45g.c ****   *   Memory commands support STR(Single Transfer Rate) &
  29:STM32Cube_FW_N6/Drivers/BSP/Components/mx66uw1g45g/mx66uw1g45g.c ****   *   DTR(Double Transfer Rate) modes in OPI
  30:STM32Cube_FW_N6/Drivers/BSP/Components/mx66uw1g45g/mx66uw1g45g.c ****   *
  31:STM32Cube_FW_N6/Drivers/BSP/Components/mx66uw1g45g/mx66uw1g45g.c ****   *   Memory commands support STR(Single Transfer Rate) &
  32:STM32Cube_FW_N6/Drivers/BSP/Components/mx66uw1g45g/mx66uw1g45g.c ****   *   DTR(Double Transfer Rate) modes in SPI
  33:STM32Cube_FW_N6/Drivers/BSP/Components/mx66uw1g45g/mx66uw1g45g.c ****   *
  34:STM32Cube_FW_N6/Drivers/BSP/Components/mx66uw1g45g/mx66uw1g45g.c ****   ******************************************************************************
  35:STM32Cube_FW_N6/Drivers/BSP/Components/mx66uw1g45g/mx66uw1g45g.c ****   */
  36:STM32Cube_FW_N6/Drivers/BSP/Components/mx66uw1g45g/mx66uw1g45g.c **** 
  37:STM32Cube_FW_N6/Drivers/BSP/Components/mx66uw1g45g/mx66uw1g45g.c **** /* Includes ------------------------------------------------------------------*/
  38:STM32Cube_FW_N6/Drivers/BSP/Components/mx66uw1g45g/mx66uw1g45g.c **** #include "mx66uw1g45g.h"
  39:STM32Cube_FW_N6/Drivers/BSP/Components/mx66uw1g45g/mx66uw1g45g.c **** 
  40:STM32Cube_FW_N6/Drivers/BSP/Components/mx66uw1g45g/mx66uw1g45g.c **** /** @addtogroup BSP
  41:STM32Cube_FW_N6/Drivers/BSP/Components/mx66uw1g45g/mx66uw1g45g.c ****   * @{
  42:STM32Cube_FW_N6/Drivers/BSP/Components/mx66uw1g45g/mx66uw1g45g.c ****   */
  43:STM32Cube_FW_N6/Drivers/BSP/Components/mx66uw1g45g/mx66uw1g45g.c **** 
  44:STM32Cube_FW_N6/Drivers/BSP/Components/mx66uw1g45g/mx66uw1g45g.c **** /** @addtogroup Components
  45:STM32Cube_FW_N6/Drivers/BSP/Components/mx66uw1g45g/mx66uw1g45g.c ****   * @{
  46:STM32Cube_FW_N6/Drivers/BSP/Components/mx66uw1g45g/mx66uw1g45g.c ****   */
  47:STM32Cube_FW_N6/Drivers/BSP/Components/mx66uw1g45g/mx66uw1g45g.c **** 
  48:STM32Cube_FW_N6/Drivers/BSP/Components/mx66uw1g45g/mx66uw1g45g.c **** /** @defgroup MX66UW1G45G MX66UW1G45G
  49:STM32Cube_FW_N6/Drivers/BSP/Components/mx66uw1g45g/mx66uw1g45g.c ****   * @{
  50:STM32Cube_FW_N6/Drivers/BSP/Components/mx66uw1g45g/mx66uw1g45g.c ****   */
  51:STM32Cube_FW_N6/Drivers/BSP/Components/mx66uw1g45g/mx66uw1g45g.c **** 
  52:STM32Cube_FW_N6/Drivers/BSP/Components/mx66uw1g45g/mx66uw1g45g.c **** /** @defgroup MX66UW1G45G_Exported_Functions MX66UW1G45G Exported Functions
  53:STM32Cube_FW_N6/Drivers/BSP/Components/mx66uw1g45g/mx66uw1g45g.c ****   * @{
  54:STM32Cube_FW_N6/Drivers/BSP/Components/mx66uw1g45g/mx66uw1g45g.c ****   */
  55:STM32Cube_FW_N6/Drivers/BSP/Components/mx66uw1g45g/mx66uw1g45g.c **** 
  56:STM32Cube_FW_N6/Drivers/BSP/Components/mx66uw1g45g/mx66uw1g45g.c **** /**
  57:STM32Cube_FW_N6/Drivers/BSP/Components/mx66uw1g45g/mx66uw1g45g.c ****   * @brief  Get Flash information
  58:STM32Cube_FW_N6/Drivers/BSP/Components/mx66uw1g45g/mx66uw1g45g.c ****   * @param  pInfo pointer to information structure
  59:STM32Cube_FW_N6/Drivers/BSP/Components/mx66uw1g45g/mx66uw1g45g.c ****   * @retval error status
  60:STM32Cube_FW_N6/Drivers/BSP/Components/mx66uw1g45g/mx66uw1g45g.c ****   */
  61:STM32Cube_FW_N6/Drivers/BSP/Components/mx66uw1g45g/mx66uw1g45g.c **** int32_t MX66UW1G45G_GetFlashInfo(MX66UW1G45G_Info_t *pInfo)
  62:STM32Cube_FW_N6/Drivers/BSP/Components/mx66uw1g45g/mx66uw1g45g.c **** {
  35              		.loc 1 62 1 view -0
  36              		.cfi_startproc
  37              		@ args = 0, pretend = 0, frame = 0
  38              		@ frame_needed = 0, uses_anonymous_args = 0
  39              		@ link register save eliminated.
  63:STM32Cube_FW_N6/Drivers/BSP/Components/mx66uw1g45g/mx66uw1g45g.c ****   /* Configure the structure with the memory configuration */
  64:STM32Cube_FW_N6/Drivers/BSP/Components/mx66uw1g45g/mx66uw1g45g.c ****   pInfo->FlashSize = MX66UW1G45G_FLASH_SIZE;
  40              		.loc 1 64 3 view .LVU1
  65:STM32Cube_FW_N6/Drivers/BSP/Components/mx66uw1g45g/mx66uw1g45g.c ****   pInfo->EraseSectorSize = MX66UW1G45G_BLOCK_64K;
  41              		.loc 1 65 26 is_stmt 0 view .LVU2
  42 0000 4FF00062 		mov	r2, #134217728
  43 0004 4FF48033 		mov	r3, #65536
  44 0008 C0E90023 		strd	r2, r3, [r0]
  66:STM32Cube_FW_N6/Drivers/BSP/Components/mx66uw1g45g/mx66uw1g45g.c ****   pInfo->EraseSectorsNumber = (MX66UW1G45G_FLASH_SIZE / MX66UW1G45G_BLOCK_64K);
  45              		.loc 1 66 3 is_stmt 1 view .LVU3
  67:STM32Cube_FW_N6/Drivers/BSP/Components/mx66uw1g45g/mx66uw1g45g.c ****   pInfo->EraseSubSectorSize = MX66UW1G45G_BLOCK_4K;
  46              		.loc 1 67 29 is_stmt 0 view .LVU4
  47 000c 4FF48052 		mov	r2, #4096
  48 0010 4FF40063 		mov	r3, #2048
ARM GAS  C:\Users\DJESSOU\AppData\Local\Temp\ccAx4BcF.s 			page 3


  49 0014 C0E90232 		strd	r3, r2, [r0, #8]
  68:STM32Cube_FW_N6/Drivers/BSP/Components/mx66uw1g45g/mx66uw1g45g.c ****   pInfo->EraseSubSectorNumber = (MX66UW1G45G_FLASH_SIZE / MX66UW1G45G_BLOCK_4K);
  50              		.loc 1 68 3 is_stmt 1 view .LVU5
  51              		.loc 1 68 31 is_stmt 0 view .LVU6
  52 0018 4FF40043 		mov	r3, #32768
  69:STM32Cube_FW_N6/Drivers/BSP/Components/mx66uw1g45g/mx66uw1g45g.c ****   pInfo->EraseSubSector1Size = MX66UW1G45G_BLOCK_4K;
  70:STM32Cube_FW_N6/Drivers/BSP/Components/mx66uw1g45g/mx66uw1g45g.c ****   pInfo->EraseSubSector1Number = (MX66UW1G45G_FLASH_SIZE / MX66UW1G45G_BLOCK_4K);
  71:STM32Cube_FW_N6/Drivers/BSP/Components/mx66uw1g45g/mx66uw1g45g.c ****   pInfo->ProgPageSize = MX66UW1G45G_PAGE_SIZE;
  72:STM32Cube_FW_N6/Drivers/BSP/Components/mx66uw1g45g/mx66uw1g45g.c ****   pInfo->ProgPagesNumber = (MX66UW1G45G_FLASH_SIZE / MX66UW1G45G_PAGE_SIZE);
  53              		.loc 1 72 26 view .LVU7
  54 001c 4FF48071 		mov	r1, #256
  69:STM32Cube_FW_N6/Drivers/BSP/Components/mx66uw1g45g/mx66uw1g45g.c ****   pInfo->EraseSubSector1Size = MX66UW1G45G_BLOCK_4K;
  55              		.loc 1 69 30 view .LVU8
  56 0020 C0E90432 		strd	r3, r2, [r0, #16]
  70:STM32Cube_FW_N6/Drivers/BSP/Components/mx66uw1g45g/mx66uw1g45g.c ****   pInfo->ProgPageSize = MX66UW1G45G_PAGE_SIZE;
  57              		.loc 1 70 3 is_stmt 1 view .LVU9
  70:STM32Cube_FW_N6/Drivers/BSP/Components/mx66uw1g45g/mx66uw1g45g.c ****   pInfo->ProgPageSize = MX66UW1G45G_PAGE_SIZE;
  58              		.loc 1 70 32 is_stmt 0 view .LVU10
  59 0024 8361     		str	r3, [r0, #24]
  71:STM32Cube_FW_N6/Drivers/BSP/Components/mx66uw1g45g/mx66uw1g45g.c ****   pInfo->ProgPagesNumber = (MX66UW1G45G_FLASH_SIZE / MX66UW1G45G_PAGE_SIZE);
  60              		.loc 1 71 3 is_stmt 1 view .LVU11
  61              		.loc 1 72 26 is_stmt 0 view .LVU12
  62 0026 4FF40023 		mov	r3, #524288
  63 002a C0E90713 		strd	r1, r3, [r0, #28]
  73:STM32Cube_FW_N6/Drivers/BSP/Components/mx66uw1g45g/mx66uw1g45g.c **** 
  74:STM32Cube_FW_N6/Drivers/BSP/Components/mx66uw1g45g/mx66uw1g45g.c ****   return MX66UW1G45G_OK;
  64              		.loc 1 74 3 is_stmt 1 view .LVU13
  75:STM32Cube_FW_N6/Drivers/BSP/Components/mx66uw1g45g/mx66uw1g45g.c **** };
  65              		.loc 1 75 1 is_stmt 0 view .LVU14
  66 002e 0020     		movs	r0, #0
  67              	.LVL1:
  68              		.loc 1 75 1 view .LVU15
  69 0030 7047     		bx	lr
  70              		.cfi_endproc
  71              	.LFE862:
  73              		.section	.text.MX66UW1G45G_AutoPollingMemReady,"ax",%progbits
  74              		.align	1
  75              		.global	MX66UW1G45G_AutoPollingMemReady
  76              		.syntax unified
  77              		.thumb
  78              		.thumb_func
  80              	MX66UW1G45G_AutoPollingMemReady:
  81              	.LVL2:
  82              	.LFB863:
  76:STM32Cube_FW_N6/Drivers/BSP/Components/mx66uw1g45g/mx66uw1g45g.c **** 
  77:STM32Cube_FW_N6/Drivers/BSP/Components/mx66uw1g45g/mx66uw1g45g.c **** /**
  78:STM32Cube_FW_N6/Drivers/BSP/Components/mx66uw1g45g/mx66uw1g45g.c ****   * @brief  Polling WIP(Write In Progress) bit become to 0
  79:STM32Cube_FW_N6/Drivers/BSP/Components/mx66uw1g45g/mx66uw1g45g.c ****   *         SPI/OPI;
  80:STM32Cube_FW_N6/Drivers/BSP/Components/mx66uw1g45g/mx66uw1g45g.c ****   * @param  Ctx Component object pointer
  81:STM32Cube_FW_N6/Drivers/BSP/Components/mx66uw1g45g/mx66uw1g45g.c ****   * @param  Mode Interface mode
  82:STM32Cube_FW_N6/Drivers/BSP/Components/mx66uw1g45g/mx66uw1g45g.c ****   * @param  Rate Transfer rate
  83:STM32Cube_FW_N6/Drivers/BSP/Components/mx66uw1g45g/mx66uw1g45g.c ****   * @retval error status
  84:STM32Cube_FW_N6/Drivers/BSP/Components/mx66uw1g45g/mx66uw1g45g.c ****   */
  85:STM32Cube_FW_N6/Drivers/BSP/Components/mx66uw1g45g/mx66uw1g45g.c **** int32_t MX66UW1G45G_AutoPollingMemReady(XSPI_HandleTypeDef *Ctx, MX66UW1G45G_Interface_t Mode,
  86:STM32Cube_FW_N6/Drivers/BSP/Components/mx66uw1g45g/mx66uw1g45g.c ****                                         MX66UW1G45G_Transfer_t Rate)
  87:STM32Cube_FW_N6/Drivers/BSP/Components/mx66uw1g45g/mx66uw1g45g.c **** {
  83              		.loc 1 87 1 is_stmt 1 view -0
ARM GAS  C:\Users\DJESSOU\AppData\Local\Temp\ccAx4BcF.s 			page 4


  84              		.cfi_startproc
  85              		@ args = 0, pretend = 0, frame = 96
  86              		@ frame_needed = 0, uses_anonymous_args = 0
  88:STM32Cube_FW_N6/Drivers/BSP/Components/mx66uw1g45g/mx66uw1g45g.c ****   XSPI_RegularCmdTypeDef s_command = {0};
  87              		.loc 1 88 3 view .LVU17
  87:STM32Cube_FW_N6/Drivers/BSP/Components/mx66uw1g45g/mx66uw1g45g.c ****   XSPI_RegularCmdTypeDef s_command = {0};
  88              		.loc 1 87 1 is_stmt 0 view .LVU18
  89 0000 70B5     		push	{r4, r5, r6, lr}
  90              		.cfi_def_cfa_offset 16
  91              		.cfi_offset 4, -16
  92              		.cfi_offset 5, -12
  93              		.cfi_offset 6, -8
  94              		.cfi_offset 14, -4
  95 0002 0D46     		mov	r5, r1
  96 0004 98B0     		sub	sp, sp, #96
  97              		.cfi_def_cfa_offset 112
  98              		.loc 1 88 26 view .LVU19
  99 0006 0021     		movs	r1, #0
 100              	.LVL3:
  87:STM32Cube_FW_N6/Drivers/BSP/Components/mx66uw1g45g/mx66uw1g45g.c ****   XSPI_RegularCmdTypeDef s_command = {0};
 101              		.loc 1 87 1 view .LVU20
 102 0008 0646     		mov	r6, r0
 103 000a 1446     		mov	r4, r2
 104              		.loc 1 88 26 view .LVU21
 105 000c 05A8     		add	r0, sp, #20
 106              	.LVL4:
 107              		.loc 1 88 26 view .LVU22
 108 000e 4C22     		movs	r2, #76
 109              	.LVL5:
 110              		.loc 1 88 26 view .LVU23
 111 0010 FFF7FEFF 		bl	memset
 112              	.LVL6:
  89:STM32Cube_FW_N6/Drivers/BSP/Components/mx66uw1g45g/mx66uw1g45g.c ****   XSPI_AutoPollingTypeDef s_config = {0};
 113              		.loc 1 89 3 is_stmt 1 view .LVU24
 114              		.loc 1 89 27 is_stmt 0 view .LVU25
 115 0014 1422     		movs	r2, #20
 116 0016 0021     		movs	r1, #0
 117 0018 6846     		mov	r0, sp
 118 001a FFF7FEFF 		bl	memset
 119              	.LVL7:
  90:STM32Cube_FW_N6/Drivers/BSP/Components/mx66uw1g45g/mx66uw1g45g.c **** 
  91:STM32Cube_FW_N6/Drivers/BSP/Components/mx66uw1g45g/mx66uw1g45g.c ****   /* SPI mode and DTR transfer not supported by memory */
  92:STM32Cube_FW_N6/Drivers/BSP/Components/mx66uw1g45g/mx66uw1g45g.c ****   if ((Mode == MX66UW1G45G_SPI_MODE) && (Rate == MX66UW1G45G_DTR_TRANSFER))
 120              		.loc 1 92 3 is_stmt 1 view .LVU26
 121              		.loc 1 92 6 is_stmt 0 view .LVU27
 122 001e 2DB9     		cbnz	r5, .L3
 123              		.loc 1 92 38 discriminator 1 view .LVU28
 124 0020 012C     		cmp	r4, #1
 125 0022 4DD1     		bne	.L14
 126              	.L13:
  93:STM32Cube_FW_N6/Drivers/BSP/Components/mx66uw1g45g/mx66uw1g45g.c ****   {
  94:STM32Cube_FW_N6/Drivers/BSP/Components/mx66uw1g45g/mx66uw1g45g.c ****     return MX66UW1G45G_ERROR;
 127              		.loc 1 94 12 view .LVU29
 128 0024 4FF0FF30 		mov	r0, #-1
 129              	.L2:
  95:STM32Cube_FW_N6/Drivers/BSP/Components/mx66uw1g45g/mx66uw1g45g.c ****   }
  96:STM32Cube_FW_N6/Drivers/BSP/Components/mx66uw1g45g/mx66uw1g45g.c **** 
ARM GAS  C:\Users\DJESSOU\AppData\Local\Temp\ccAx4BcF.s 			page 5


  97:STM32Cube_FW_N6/Drivers/BSP/Components/mx66uw1g45g/mx66uw1g45g.c ****   /* Configure automatic polling mode to wait for memory ready */
  98:STM32Cube_FW_N6/Drivers/BSP/Components/mx66uw1g45g/mx66uw1g45g.c ****   s_command.OperationType = HAL_XSPI_OPTYPE_COMMON_CFG;
  99:STM32Cube_FW_N6/Drivers/BSP/Components/mx66uw1g45g/mx66uw1g45g.c ****   s_command.InstructionMode = (Mode == MX66UW1G45G_SPI_MODE)
 100:STM32Cube_FW_N6/Drivers/BSP/Components/mx66uw1g45g/mx66uw1g45g.c ****                                   ? HAL_XSPI_INSTRUCTION_1_LINE
 101:STM32Cube_FW_N6/Drivers/BSP/Components/mx66uw1g45g/mx66uw1g45g.c ****                                   : HAL_XSPI_INSTRUCTION_8_LINES;
 102:STM32Cube_FW_N6/Drivers/BSP/Components/mx66uw1g45g/mx66uw1g45g.c ****   s_command.InstructionDTRMode = (Rate == MX66UW1G45G_DTR_TRANSFER)
 103:STM32Cube_FW_N6/Drivers/BSP/Components/mx66uw1g45g/mx66uw1g45g.c ****                                      ? HAL_XSPI_INSTRUCTION_DTR_ENABLE
 104:STM32Cube_FW_N6/Drivers/BSP/Components/mx66uw1g45g/mx66uw1g45g.c ****                                      : HAL_XSPI_INSTRUCTION_DTR_DISABLE;
 105:STM32Cube_FW_N6/Drivers/BSP/Components/mx66uw1g45g/mx66uw1g45g.c ****   s_command.InstructionWidth = (Mode == MX66UW1G45G_SPI_MODE)
 106:STM32Cube_FW_N6/Drivers/BSP/Components/mx66uw1g45g/mx66uw1g45g.c ****                                    ? HAL_XSPI_INSTRUCTION_8_BITS
 107:STM32Cube_FW_N6/Drivers/BSP/Components/mx66uw1g45g/mx66uw1g45g.c ****                                    : HAL_XSPI_INSTRUCTION_16_BITS;
 108:STM32Cube_FW_N6/Drivers/BSP/Components/mx66uw1g45g/mx66uw1g45g.c ****   s_command.Instruction = (Mode == MX66UW1G45G_SPI_MODE)
 109:STM32Cube_FW_N6/Drivers/BSP/Components/mx66uw1g45g/mx66uw1g45g.c ****                               ? MX66UW1G45G_READ_STATUS_REG_CMD
 110:STM32Cube_FW_N6/Drivers/BSP/Components/mx66uw1g45g/mx66uw1g45g.c ****                               : MX66UW1G45G_OCTA_READ_STATUS_REG_CMD;
 111:STM32Cube_FW_N6/Drivers/BSP/Components/mx66uw1g45g/mx66uw1g45g.c ****   s_command.AddressMode = (Mode == MX66UW1G45G_SPI_MODE) ? HAL_XSPI_ADDRESS_NONE : HAL_XSPI_ADDRESS
 112:STM32Cube_FW_N6/Drivers/BSP/Components/mx66uw1g45g/mx66uw1g45g.c ****   s_command.AddressDTRMode = (Rate == MX66UW1G45G_DTR_TRANSFER)
 113:STM32Cube_FW_N6/Drivers/BSP/Components/mx66uw1g45g/mx66uw1g45g.c ****                                  ? HAL_XSPI_ADDRESS_DTR_ENABLE
 114:STM32Cube_FW_N6/Drivers/BSP/Components/mx66uw1g45g/mx66uw1g45g.c ****                                  : HAL_XSPI_ADDRESS_DTR_DISABLE;
 115:STM32Cube_FW_N6/Drivers/BSP/Components/mx66uw1g45g/mx66uw1g45g.c ****   s_command.AddressWidth = HAL_XSPI_ADDRESS_32_BITS;
 116:STM32Cube_FW_N6/Drivers/BSP/Components/mx66uw1g45g/mx66uw1g45g.c ****   s_command.Address = 0U;
 117:STM32Cube_FW_N6/Drivers/BSP/Components/mx66uw1g45g/mx66uw1g45g.c ****   s_command.AlternateBytesMode = HAL_XSPI_ALT_BYTES_NONE;
 118:STM32Cube_FW_N6/Drivers/BSP/Components/mx66uw1g45g/mx66uw1g45g.c ****   s_command.DataMode = (Mode == MX66UW1G45G_SPI_MODE) ? HAL_XSPI_DATA_1_LINE : HAL_XSPI_DATA_8_LINE
 119:STM32Cube_FW_N6/Drivers/BSP/Components/mx66uw1g45g/mx66uw1g45g.c ****   s_command.DataDTRMode = (Rate == MX66UW1G45G_DTR_TRANSFER)
 120:STM32Cube_FW_N6/Drivers/BSP/Components/mx66uw1g45g/mx66uw1g45g.c ****                               ? HAL_XSPI_DATA_DTR_ENABLE
 121:STM32Cube_FW_N6/Drivers/BSP/Components/mx66uw1g45g/mx66uw1g45g.c ****                               : HAL_XSPI_DATA_DTR_DISABLE;
 122:STM32Cube_FW_N6/Drivers/BSP/Components/mx66uw1g45g/mx66uw1g45g.c ****   s_command.DummyCycles = (Mode == MX66UW1G45G_SPI_MODE)
 123:STM32Cube_FW_N6/Drivers/BSP/Components/mx66uw1g45g/mx66uw1g45g.c ****                               ? 0U
 124:STM32Cube_FW_N6/Drivers/BSP/Components/mx66uw1g45g/mx66uw1g45g.c ****                               : ((Rate == MX66UW1G45G_DTR_TRANSFER)
 125:STM32Cube_FW_N6/Drivers/BSP/Components/mx66uw1g45g/mx66uw1g45g.c ****                                      ? DUMMY_CYCLES_REG_OCTAL_DTR
 126:STM32Cube_FW_N6/Drivers/BSP/Components/mx66uw1g45g/mx66uw1g45g.c ****                                      : DUMMY_CYCLES_REG_OCTAL);
 127:STM32Cube_FW_N6/Drivers/BSP/Components/mx66uw1g45g/mx66uw1g45g.c ****   s_command.DataLength = (Rate == MX66UW1G45G_DTR_TRANSFER) ? 2U : 1U;
 128:STM32Cube_FW_N6/Drivers/BSP/Components/mx66uw1g45g/mx66uw1g45g.c ****   s_command.DQSMode = (Rate == MX66UW1G45G_DTR_TRANSFER) ? HAL_XSPI_DQS_ENABLE : HAL_XSPI_DQS_DISAB
 129:STM32Cube_FW_N6/Drivers/BSP/Components/mx66uw1g45g/mx66uw1g45g.c ****  #if defined (XSPI_CCR_SIOO)
 130:STM32Cube_FW_N6/Drivers/BSP/Components/mx66uw1g45g/mx66uw1g45g.c ****   s_command.SIOOMode            = HAL_XSPI_SIOO_INST_EVERY_CMD;
 131:STM32Cube_FW_N6/Drivers/BSP/Components/mx66uw1g45g/mx66uw1g45g.c ****  #endif
 132:STM32Cube_FW_N6/Drivers/BSP/Components/mx66uw1g45g/mx66uw1g45g.c **** 
 133:STM32Cube_FW_N6/Drivers/BSP/Components/mx66uw1g45g/mx66uw1g45g.c ****   s_config.MatchValue = 0U;
 134:STM32Cube_FW_N6/Drivers/BSP/Components/mx66uw1g45g/mx66uw1g45g.c ****   s_config.MatchMask = MX66UW1G45G_SR_WIP;
 135:STM32Cube_FW_N6/Drivers/BSP/Components/mx66uw1g45g/mx66uw1g45g.c ****   s_config.MatchMode = HAL_XSPI_MATCH_MODE_AND;
 136:STM32Cube_FW_N6/Drivers/BSP/Components/mx66uw1g45g/mx66uw1g45g.c ****   s_config.IntervalTime = MX66UW1G45G_AUTOPOLLING_INTERVAL_TIME;
 137:STM32Cube_FW_N6/Drivers/BSP/Components/mx66uw1g45g/mx66uw1g45g.c ****   s_config.AutomaticStop = HAL_XSPI_AUTOMATIC_STOP_ENABLE;
 138:STM32Cube_FW_N6/Drivers/BSP/Components/mx66uw1g45g/mx66uw1g45g.c **** 
 139:STM32Cube_FW_N6/Drivers/BSP/Components/mx66uw1g45g/mx66uw1g45g.c ****   if (HAL_XSPI_Command(Ctx, &s_command, HAL_XSPI_TIMEOUT_DEFAULT_VALUE) != HAL_OK)
 140:STM32Cube_FW_N6/Drivers/BSP/Components/mx66uw1g45g/mx66uw1g45g.c ****   {
 141:STM32Cube_FW_N6/Drivers/BSP/Components/mx66uw1g45g/mx66uw1g45g.c ****     return MX66UW1G45G_ERROR;
 142:STM32Cube_FW_N6/Drivers/BSP/Components/mx66uw1g45g/mx66uw1g45g.c ****   }
 143:STM32Cube_FW_N6/Drivers/BSP/Components/mx66uw1g45g/mx66uw1g45g.c **** 
 144:STM32Cube_FW_N6/Drivers/BSP/Components/mx66uw1g45g/mx66uw1g45g.c ****   if (HAL_XSPI_AutoPolling(Ctx, &s_config, HAL_XSPI_TIMEOUT_DEFAULT_VALUE) != HAL_OK)
 145:STM32Cube_FW_N6/Drivers/BSP/Components/mx66uw1g45g/mx66uw1g45g.c ****   {
 146:STM32Cube_FW_N6/Drivers/BSP/Components/mx66uw1g45g/mx66uw1g45g.c ****     return MX66UW1G45G_ERROR;
 147:STM32Cube_FW_N6/Drivers/BSP/Components/mx66uw1g45g/mx66uw1g45g.c ****   }
 148:STM32Cube_FW_N6/Drivers/BSP/Components/mx66uw1g45g/mx66uw1g45g.c **** 
 149:STM32Cube_FW_N6/Drivers/BSP/Components/mx66uw1g45g/mx66uw1g45g.c ****   return MX66UW1G45G_OK;
 150:STM32Cube_FW_N6/Drivers/BSP/Components/mx66uw1g45g/mx66uw1g45g.c **** }
 130              		.loc 1 150 1 view .LVU30
 131 0028 18B0     		add	sp, sp, #96
 132              		.cfi_remember_state
ARM GAS  C:\Users\DJESSOU\AppData\Local\Temp\ccAx4BcF.s 			page 6


 133              		.cfi_def_cfa_offset 16
 134              		@ sp needed
 135 002a 70BD     		pop	{r4, r5, r6, pc}
 136              	.LVL8:
 137              	.L3:
 138              		.cfi_restore_state
 102:STM32Cube_FW_N6/Drivers/BSP/Components/mx66uw1g45g/mx66uw1g45g.c ****                                      ? HAL_XSPI_INSTRUCTION_DTR_ENABLE
 139              		.loc 1 102 3 is_stmt 1 view .LVU31
 140 002c 0422     		movs	r2, #4
 104:STM32Cube_FW_N6/Drivers/BSP/Components/mx66uw1g45g/mx66uw1g45g.c ****   s_command.InstructionWidth = (Mode == MX66UW1G45G_SPI_MODE)
 141              		.loc 1 104 38 is_stmt 0 view .LVU32
 142 002e 04F1FF3C 		add	ip, r4, #-1
 143 0032 DCF10003 		rsbs	r3, ip, #0
 144 0036 43EB0C03 		adc	r3, r3, ip
 145 003a DB00     		lsls	r3, r3, #3
 146              	.L4:
  99:STM32Cube_FW_N6/Drivers/BSP/Components/mx66uw1g45g/mx66uw1g45g.c ****                                   ? HAL_XSPI_INSTRUCTION_1_LINE
 147              		.loc 1 99 29 view .LVU33
 148 003c 0892     		str	r2, [sp, #32]
 102:STM32Cube_FW_N6/Drivers/BSP/Components/mx66uw1g45g/mx66uw1g45g.c ****                                      ? HAL_XSPI_INSTRUCTION_DTR_ENABLE
 149              		.loc 1 102 32 view .LVU34
 150 003e 0A93     		str	r3, [sp, #40]
 105:STM32Cube_FW_N6/Drivers/BSP/Components/mx66uw1g45g/mx66uw1g45g.c ****                                    ? HAL_XSPI_INSTRUCTION_8_BITS
 151              		.loc 1 105 3 is_stmt 1 view .LVU35
 107:STM32Cube_FW_N6/Drivers/BSP/Components/mx66uw1g45g/mx66uw1g45g.c ****   s_command.Instruction = (Mode == MX66UW1G45G_SPI_MODE)
 152              		.loc 1 107 36 is_stmt 0 view .LVU36
 153 0040 002D     		cmp	r5, #0
 154 0042 40D0     		beq	.L15
 105:STM32Cube_FW_N6/Drivers/BSP/Components/mx66uw1g45g/mx66uw1g45g.c ****                                    ? HAL_XSPI_INSTRUCTION_8_BITS
 155              		.loc 1 105 30 view .LVU37
 156 0044 1023     		movs	r3, #16
 157 0046 40F2FA52 		movw	r2, #1530
 158 004a 0993     		str	r3, [sp, #36]
 108:STM32Cube_FW_N6/Drivers/BSP/Components/mx66uw1g45g/mx66uw1g45g.c ****                               ? MX66UW1G45G_READ_STATUS_REG_CMD
 159              		.loc 1 108 3 is_stmt 1 view .LVU38
 111:STM32Cube_FW_N6/Drivers/BSP/Components/mx66uw1g45g/mx66uw1g45g.c ****   s_command.AddressDTRMode = (Rate == MX66UW1G45G_DTR_TRANSFER)
 160              		.loc 1 111 3 view .LVU39
 111:STM32Cube_FW_N6/Drivers/BSP/Components/mx66uw1g45g/mx66uw1g45g.c ****   s_command.AddressDTRMode = (Rate == MX66UW1G45G_DTR_TRANSFER)
 161              		.loc 1 111 82 is_stmt 0 discriminator 2 view .LVU40
 162 004c 4FF48063 		mov	r3, #1024
 163              	.L6:
 114:STM32Cube_FW_N6/Drivers/BSP/Components/mx66uw1g45g/mx66uw1g45g.c ****   s_command.AddressWidth = HAL_XSPI_ADDRESS_32_BITS;
 164              		.loc 1 114 34 view .LVU41
 165 0050 601E     		subs	r0, r4, #1
 111:STM32Cube_FW_N6/Drivers/BSP/Components/mx66uw1g45g/mx66uw1g45g.c ****   s_command.AddressDTRMode = (Rate == MX66UW1G45G_DTR_TRANSFER)
 166              		.loc 1 111 25 discriminator 4 view .LVU42
 167 0052 0C93     		str	r3, [sp, #48]
 112:STM32Cube_FW_N6/Drivers/BSP/Components/mx66uw1g45g/mx66uw1g45g.c ****                                  ? HAL_XSPI_ADDRESS_DTR_ENABLE
 168              		.loc 1 112 3 is_stmt 1 view .LVU43
 114:STM32Cube_FW_N6/Drivers/BSP/Components/mx66uw1g45g/mx66uw1g45g.c ****   s_command.AddressWidth = HAL_XSPI_ADDRESS_32_BITS;
 169              		.loc 1 114 34 is_stmt 0 view .LVU44
 170 0054 4342     		rsbs	r3, r0, #0
 171 0056 4341     		adcs	r3, r3, r0
 108:STM32Cube_FW_N6/Drivers/BSP/Components/mx66uw1g45g/mx66uw1g45g.c ****                               ? MX66UW1G45G_READ_STATUS_REG_CMD
 172              		.loc 1 108 25 view .LVU45
 173 0058 0792     		str	r2, [sp, #28]
 114:STM32Cube_FW_N6/Drivers/BSP/Components/mx66uw1g45g/mx66uw1g45g.c ****   s_command.AddressWidth = HAL_XSPI_ADDRESS_32_BITS;
ARM GAS  C:\Users\DJESSOU\AppData\Local\Temp\ccAx4BcF.s 			page 7


 174              		.loc 1 114 34 view .LVU46
 175 005a DA02     		lsls	r2, r3, #11
 112:STM32Cube_FW_N6/Drivers/BSP/Components/mx66uw1g45g/mx66uw1g45g.c ****                                  ? HAL_XSPI_ADDRESS_DTR_ENABLE
 176              		.loc 1 112 28 view .LVU47
 177 005c 0E92     		str	r2, [sp, #56]
 115:STM32Cube_FW_N6/Drivers/BSP/Components/mx66uw1g45g/mx66uw1g45g.c ****   s_command.Address = 0U;
 178              		.loc 1 115 3 is_stmt 1 view .LVU48
 115:STM32Cube_FW_N6/Drivers/BSP/Components/mx66uw1g45g/mx66uw1g45g.c ****   s_command.Address = 0U;
 179              		.loc 1 115 26 is_stmt 0 view .LVU49
 180 005e 4FF44052 		mov	r2, #12288
 118:STM32Cube_FW_N6/Drivers/BSP/Components/mx66uw1g45g/mx66uw1g45g.c ****   s_command.DataDTRMode = (Rate == MX66UW1G45G_DTR_TRANSFER)
 181              		.loc 1 118 78 discriminator 1 view .LVU50
 182 0062 002D     		cmp	r5, #0
 115:STM32Cube_FW_N6/Drivers/BSP/Components/mx66uw1g45g/mx66uw1g45g.c ****   s_command.Address = 0U;
 183              		.loc 1 115 26 view .LVU51
 184 0064 0D92     		str	r2, [sp, #52]
 116:STM32Cube_FW_N6/Drivers/BSP/Components/mx66uw1g45g/mx66uw1g45g.c ****   s_command.AlternateBytesMode = HAL_XSPI_ALT_BYTES_NONE;
 185              		.loc 1 116 3 is_stmt 1 view .LVU52
 117:STM32Cube_FW_N6/Drivers/BSP/Components/mx66uw1g45g/mx66uw1g45g.c ****   s_command.DataMode = (Mode == MX66UW1G45G_SPI_MODE) ? HAL_XSPI_DATA_1_LINE : HAL_XSPI_DATA_8_LINE
 186              		.loc 1 117 3 view .LVU53
 118:STM32Cube_FW_N6/Drivers/BSP/Components/mx66uw1g45g/mx66uw1g45g.c ****   s_command.DataDTRMode = (Rate == MX66UW1G45G_DTR_TRANSFER)
 187              		.loc 1 118 3 view .LVU54
 118:STM32Cube_FW_N6/Drivers/BSP/Components/mx66uw1g45g/mx66uw1g45g.c ****   s_command.DataDTRMode = (Rate == MX66UW1G45G_DTR_TRANSFER)
 188              		.loc 1 118 78 is_stmt 0 discriminator 1 view .LVU55
 189 0066 14BF     		ite	ne
 190 0068 4FF08062 		movne	r2, #67108864
 191 006c 4FF08072 		moveq	r2, #16777216
 121:STM32Cube_FW_N6/Drivers/BSP/Components/mx66uw1g45g/mx66uw1g45g.c ****   s_command.DummyCycles = (Mode == MX66UW1G45G_SPI_MODE)
 192              		.loc 1 121 31 view .LVU56
 193 0070 4FEAC363 		lsl	r3, r3, #27
 118:STM32Cube_FW_N6/Drivers/BSP/Components/mx66uw1g45g/mx66uw1g45g.c ****   s_command.DataDTRMode = (Rate == MX66UW1G45G_DTR_TRANSFER)
 194              		.loc 1 118 22 discriminator 4 view .LVU57
 195 0074 1392     		str	r2, [sp, #76]
 119:STM32Cube_FW_N6/Drivers/BSP/Components/mx66uw1g45g/mx66uw1g45g.c ****                               ? HAL_XSPI_DATA_DTR_ENABLE
 196              		.loc 1 119 3 is_stmt 1 view .LVU58
 119:STM32Cube_FW_N6/Drivers/BSP/Components/mx66uw1g45g/mx66uw1g45g.c ****                               ? HAL_XSPI_DATA_DTR_ENABLE
 197              		.loc 1 119 25 is_stmt 0 view .LVU59
 198 0076 1593     		str	r3, [sp, #84]
 122:STM32Cube_FW_N6/Drivers/BSP/Components/mx66uw1g45g/mx66uw1g45g.c ****                               ? 0U
 199              		.loc 1 122 3 is_stmt 1 view .LVU60
 124:STM32Cube_FW_N6/Drivers/BSP/Components/mx66uw1g45g/mx66uw1g45g.c ****                                      ? DUMMY_CYCLES_REG_OCTAL_DTR
 200              		.loc 1 124 31 is_stmt 0 view .LVU61
 201 0078 2DD0     		beq	.L8
 124:STM32Cube_FW_N6/Drivers/BSP/Components/mx66uw1g45g/mx66uw1g45g.c ****                                      ? DUMMY_CYCLES_REG_OCTAL_DTR
 202              		.loc 1 124 31 discriminator 1 view .LVU62
 203 007a 012C     		cmp	r4, #1
 204 007c 26D1     		bne	.L9
 122:STM32Cube_FW_N6/Drivers/BSP/Components/mx66uw1g45g/mx66uw1g45g.c ****                               ? 0U
 205              		.loc 1 122 25 view .LVU63
 206 007e 0523     		movs	r3, #5
 207 0080 1693     		str	r3, [sp, #88]
 127:STM32Cube_FW_N6/Drivers/BSP/Components/mx66uw1g45g/mx66uw1g45g.c ****   s_command.DQSMode = (Rate == MX66UW1G45G_DTR_TRANSFER) ? HAL_XSPI_DQS_ENABLE : HAL_XSPI_DQS_DISAB
 208              		.loc 1 127 3 is_stmt 1 view .LVU64
 209              	.L11:
 127:STM32Cube_FW_N6/Drivers/BSP/Components/mx66uw1g45g/mx66uw1g45g.c ****   s_command.DQSMode = (Rate == MX66UW1G45G_DTR_TRANSFER) ? HAL_XSPI_DQS_ENABLE : HAL_XSPI_DQS_DISAB
 210              		.loc 1 127 24 is_stmt 0 discriminator 4 view .LVU65
 211 0082 0222     		movs	r2, #2
ARM GAS  C:\Users\DJESSOU\AppData\Local\Temp\ccAx4BcF.s 			page 8


 128:STM32Cube_FW_N6/Drivers/BSP/Components/mx66uw1g45g/mx66uw1g45g.c ****  #if defined (XSPI_CCR_SIOO)
 212              		.loc 1 128 80 discriminator 1 view .LVU66
 213 0084 4FF00053 		mov	r3, #536870912
 214              	.L10:
 128:STM32Cube_FW_N6/Drivers/BSP/Components/mx66uw1g45g/mx66uw1g45g.c ****  #if defined (XSPI_CCR_SIOO)
 215              		.loc 1 128 21 discriminator 4 view .LVU67
 216 0088 1793     		str	r3, [sp, #92]
 133:STM32Cube_FW_N6/Drivers/BSP/Components/mx66uw1g45g/mx66uw1g45g.c ****   s_config.MatchMask = MX66UW1G45G_SR_WIP;
 217              		.loc 1 133 3 is_stmt 1 view .LVU68
 134:STM32Cube_FW_N6/Drivers/BSP/Components/mx66uw1g45g/mx66uw1g45g.c ****   s_config.MatchMode = HAL_XSPI_MATCH_MODE_AND;
 218              		.loc 1 134 3 view .LVU69
 134:STM32Cube_FW_N6/Drivers/BSP/Components/mx66uw1g45g/mx66uw1g45g.c ****   s_config.MatchMode = HAL_XSPI_MATCH_MODE_AND;
 219              		.loc 1 134 22 is_stmt 0 view .LVU70
 220 008a 0123     		movs	r3, #1
 137:STM32Cube_FW_N6/Drivers/BSP/Components/mx66uw1g45g/mx66uw1g45g.c **** 
 221              		.loc 1 137 26 view .LVU71
 222 008c 1021     		movs	r1, #16
 134:STM32Cube_FW_N6/Drivers/BSP/Components/mx66uw1g45g/mx66uw1g45g.c ****   s_config.MatchMode = HAL_XSPI_MATCH_MODE_AND;
 223              		.loc 1 134 22 view .LVU72
 224 008e 0193     		str	r3, [sp, #4]
 135:STM32Cube_FW_N6/Drivers/BSP/Components/mx66uw1g45g/mx66uw1g45g.c ****   s_config.IntervalTime = MX66UW1G45G_AUTOPOLLING_INTERVAL_TIME;
 225              		.loc 1 135 3 is_stmt 1 view .LVU73
 136:STM32Cube_FW_N6/Drivers/BSP/Components/mx66uw1g45g/mx66uw1g45g.c ****   s_config.AutomaticStop = HAL_XSPI_AUTOMATIC_STOP_ENABLE;
 226              		.loc 1 136 3 view .LVU74
 137:STM32Cube_FW_N6/Drivers/BSP/Components/mx66uw1g45g/mx66uw1g45g.c **** 
 227              		.loc 1 137 26 is_stmt 0 view .LVU75
 228 0090 4FF48003 		mov	r3, #4194304
 229 0094 1492     		str	r2, [sp, #80]
 230 0096 CDE90331 		strd	r3, r1, [sp, #12]
 139:STM32Cube_FW_N6/Drivers/BSP/Components/mx66uw1g45g/mx66uw1g45g.c ****   {
 231              		.loc 1 139 3 is_stmt 1 view .LVU76
 139:STM32Cube_FW_N6/Drivers/BSP/Components/mx66uw1g45g/mx66uw1g45g.c ****   {
 232              		.loc 1 139 7 is_stmt 0 view .LVU77
 233 009a 41F28832 		movw	r2, #5000
 234 009e 3046     		mov	r0, r6
 235 00a0 05A9     		add	r1, sp, #20
 236 00a2 FFF7FEFF 		bl	HAL_XSPI_Command
 237              	.LVL9:
 139:STM32Cube_FW_N6/Drivers/BSP/Components/mx66uw1g45g/mx66uw1g45g.c ****   {
 238              		.loc 1 139 6 discriminator 1 view .LVU78
 239 00a6 0028     		cmp	r0, #0
 240 00a8 BCD1     		bne	.L13
 144:STM32Cube_FW_N6/Drivers/BSP/Components/mx66uw1g45g/mx66uw1g45g.c ****   {
 241              		.loc 1 144 3 is_stmt 1 view .LVU79
 144:STM32Cube_FW_N6/Drivers/BSP/Components/mx66uw1g45g/mx66uw1g45g.c ****   {
 242              		.loc 1 144 7 is_stmt 0 view .LVU80
 243 00aa 41F28832 		movw	r2, #5000
 244 00ae 6946     		mov	r1, sp
 245 00b0 3046     		mov	r0, r6
 246 00b2 FFF7FEFF 		bl	HAL_XSPI_AutoPolling
 247              	.LVL10:
 144:STM32Cube_FW_N6/Drivers/BSP/Components/mx66uw1g45g/mx66uw1g45g.c ****   {
 248              		.loc 1 144 6 discriminator 1 view .LVU81
 249 00b6 0038     		subs	r0, r0, #0
 250 00b8 18BF     		it	ne
 251 00ba 0120     		movne	r0, #1
 252 00bc 4042     		rsbs	r0, r0, #0
ARM GAS  C:\Users\DJESSOU\AppData\Local\Temp\ccAx4BcF.s 			page 9


 253 00be B3E7     		b	.L2
 254              	.L14:
 144:STM32Cube_FW_N6/Drivers/BSP/Components/mx66uw1g45g/mx66uw1g45g.c ****   {
 255              		.loc 1 144 6 discriminator 1 view .LVU82
 256 00c0 0122     		movs	r2, #1
 104:STM32Cube_FW_N6/Drivers/BSP/Components/mx66uw1g45g/mx66uw1g45g.c ****   s_command.InstructionWidth = (Mode == MX66UW1G45G_SPI_MODE)
 257              		.loc 1 104 38 discriminator 2 view .LVU83
 258 00c2 2B46     		mov	r3, r5
 259 00c4 BAE7     		b	.L4
 260              	.L15:
 261 00c6 0522     		movs	r2, #5
 111:STM32Cube_FW_N6/Drivers/BSP/Components/mx66uw1g45g/mx66uw1g45g.c ****   s_command.AddressDTRMode = (Rate == MX66UW1G45G_DTR_TRANSFER)
 262              		.loc 1 111 82 discriminator 1 view .LVU84
 263 00c8 2B46     		mov	r3, r5
 264 00ca C1E7     		b	.L6
 265              	.L9:
 122:STM32Cube_FW_N6/Drivers/BSP/Components/mx66uw1g45g/mx66uw1g45g.c ****                               ? 0U
 266              		.loc 1 122 25 view .LVU85
 267 00cc 0423     		movs	r3, #4
 268 00ce 1693     		str	r3, [sp, #88]
 127:STM32Cube_FW_N6/Drivers/BSP/Components/mx66uw1g45g/mx66uw1g45g.c ****   s_command.DQSMode = (Rate == MX66UW1G45G_DTR_TRANSFER) ? HAL_XSPI_DQS_ENABLE : HAL_XSPI_DQS_DISAB
 269              		.loc 1 127 3 is_stmt 1 view .LVU86
 270              	.L12:
 127:STM32Cube_FW_N6/Drivers/BSP/Components/mx66uw1g45g/mx66uw1g45g.c ****   s_command.DQSMode = (Rate == MX66UW1G45G_DTR_TRANSFER) ? HAL_XSPI_DQS_ENABLE : HAL_XSPI_DQS_DISAB
 271              		.loc 1 127 24 is_stmt 0 discriminator 4 view .LVU87
 272 00d0 0122     		movs	r2, #1
 128:STM32Cube_FW_N6/Drivers/BSP/Components/mx66uw1g45g/mx66uw1g45g.c ****  #if defined (XSPI_CCR_SIOO)
 273              		.loc 1 128 80 discriminator 2 view .LVU88
 274 00d2 0023     		movs	r3, #0
 275 00d4 D8E7     		b	.L10
 276              	.L8:
 127:STM32Cube_FW_N6/Drivers/BSP/Components/mx66uw1g45g/mx66uw1g45g.c ****   s_command.DQSMode = (Rate == MX66UW1G45G_DTR_TRANSFER) ? HAL_XSPI_DQS_ENABLE : HAL_XSPI_DQS_DISAB
 277              		.loc 1 127 3 is_stmt 1 view .LVU89
 127:STM32Cube_FW_N6/Drivers/BSP/Components/mx66uw1g45g/mx66uw1g45g.c ****   s_command.DQSMode = (Rate == MX66UW1G45G_DTR_TRANSFER) ? HAL_XSPI_DQS_ENABLE : HAL_XSPI_DQS_DISAB
 278              		.loc 1 127 66 is_stmt 0 view .LVU90
 279 00d6 012C     		cmp	r4, #1
 280 00d8 FAD1     		bne	.L12
 281 00da D2E7     		b	.L11
 282              		.cfi_endproc
 283              	.LFE863:
 285              		.section	.text.MX66UW1G45G_ReadSTR,"ax",%progbits
 286              		.align	1
 287              		.global	MX66UW1G45G_ReadSTR
 288              		.syntax unified
 289              		.thumb
 290              		.thumb_func
 292              	MX66UW1G45G_ReadSTR:
 293              	.LVL11:
 294              	.LFB864:
 151:STM32Cube_FW_N6/Drivers/BSP/Components/mx66uw1g45g/mx66uw1g45g.c **** 
 152:STM32Cube_FW_N6/Drivers/BSP/Components/mx66uw1g45g/mx66uw1g45g.c **** /* Read/Write Array Commands (3/4 Byte Address Command Set) *********************/
 153:STM32Cube_FW_N6/Drivers/BSP/Components/mx66uw1g45g/mx66uw1g45g.c **** /**
 154:STM32Cube_FW_N6/Drivers/BSP/Components/mx66uw1g45g/mx66uw1g45g.c ****   * @brief  Reads an amount of data from the XSPI memory on STR mode.
 155:STM32Cube_FW_N6/Drivers/BSP/Components/mx66uw1g45g/mx66uw1g45g.c ****   *         SPI/OPI; 1-1-1/8-8-8
 156:STM32Cube_FW_N6/Drivers/BSP/Components/mx66uw1g45g/mx66uw1g45g.c ****   * @param  Ctx Component object pointer
 157:STM32Cube_FW_N6/Drivers/BSP/Components/mx66uw1g45g/mx66uw1g45g.c ****   * @param  Mode Interface mode
 158:STM32Cube_FW_N6/Drivers/BSP/Components/mx66uw1g45g/mx66uw1g45g.c ****   * @param  AddressWidth Address size
ARM GAS  C:\Users\DJESSOU\AppData\Local\Temp\ccAx4BcF.s 			page 10


 159:STM32Cube_FW_N6/Drivers/BSP/Components/mx66uw1g45g/mx66uw1g45g.c ****   * @param  pData Pointer to data to be read
 160:STM32Cube_FW_N6/Drivers/BSP/Components/mx66uw1g45g/mx66uw1g45g.c ****   * @param  ReadAddr Read start address
 161:STM32Cube_FW_N6/Drivers/BSP/Components/mx66uw1g45g/mx66uw1g45g.c ****   * @param  Size Size of data to read
 162:STM32Cube_FW_N6/Drivers/BSP/Components/mx66uw1g45g/mx66uw1g45g.c ****   * @retval XSPI memory status
 163:STM32Cube_FW_N6/Drivers/BSP/Components/mx66uw1g45g/mx66uw1g45g.c ****   */
 164:STM32Cube_FW_N6/Drivers/BSP/Components/mx66uw1g45g/mx66uw1g45g.c **** int32_t MX66UW1G45G_ReadSTR(XSPI_HandleTypeDef *Ctx, MX66UW1G45G_Interface_t Mode,
 165:STM32Cube_FW_N6/Drivers/BSP/Components/mx66uw1g45g/mx66uw1g45g.c ****                             MX66UW1G45G_AddressWidth_t AddressWidth, uint8_t *pData, uint32_t ReadA
 166:STM32Cube_FW_N6/Drivers/BSP/Components/mx66uw1g45g/mx66uw1g45g.c **** {
 295              		.loc 1 166 1 is_stmt 1 view -0
 296              		.cfi_startproc
 297              		@ args = 8, pretend = 0, frame = 80
 298              		@ frame_needed = 0, uses_anonymous_args = 0
 167:STM32Cube_FW_N6/Drivers/BSP/Components/mx66uw1g45g/mx66uw1g45g.c ****   XSPI_RegularCmdTypeDef s_command = {0};
 299              		.loc 1 167 3 view .LVU92
 166:STM32Cube_FW_N6/Drivers/BSP/Components/mx66uw1g45g/mx66uw1g45g.c ****   XSPI_RegularCmdTypeDef s_command = {0};
 300              		.loc 1 166 1 is_stmt 0 view .LVU93
 301 0000 F0B5     		push	{r4, r5, r6, r7, lr}
 302              		.cfi_def_cfa_offset 20
 303              		.cfi_offset 4, -20
 304              		.cfi_offset 5, -16
 305              		.cfi_offset 6, -12
 306              		.cfi_offset 7, -8
 307              		.cfi_offset 14, -4
 308 0002 0C46     		mov	r4, r1
 309 0004 95B0     		sub	sp, sp, #84
 310              		.cfi_def_cfa_offset 104
 166:STM32Cube_FW_N6/Drivers/BSP/Components/mx66uw1g45g/mx66uw1g45g.c ****   XSPI_RegularCmdTypeDef s_command = {0};
 311              		.loc 1 166 1 view .LVU94
 312 0006 0646     		mov	r6, r0
 313 0008 1546     		mov	r5, r2
 314              		.loc 1 167 26 view .LVU95
 315 000a 0021     		movs	r1, #0
 316              	.LVL12:
 317              		.loc 1 167 26 view .LVU96
 318 000c 4C22     		movs	r2, #76
 319              	.LVL13:
 320              		.loc 1 167 26 view .LVU97
 321 000e 01A8     		add	r0, sp, #4
 322              	.LVL14:
 166:STM32Cube_FW_N6/Drivers/BSP/Components/mx66uw1g45g/mx66uw1g45g.c ****   XSPI_RegularCmdTypeDef s_command = {0};
 323              		.loc 1 166 1 view .LVU98
 324 0010 1F46     		mov	r7, r3
 325              		.loc 1 167 26 view .LVU99
 326 0012 FFF7FEFF 		bl	memset
 327              	.LVL15:
 168:STM32Cube_FW_N6/Drivers/BSP/Components/mx66uw1g45g/mx66uw1g45g.c **** 
 169:STM32Cube_FW_N6/Drivers/BSP/Components/mx66uw1g45g/mx66uw1g45g.c ****   /* OPI mode and 3-bytes address size not supported by memory */
 170:STM32Cube_FW_N6/Drivers/BSP/Components/mx66uw1g45g/mx66uw1g45g.c ****   if ((Mode == MX66UW1G45G_OPI_MODE) && (AddressWidth == MX66UW1G45G_3BYTES_SIZE))
 328              		.loc 1 170 3 is_stmt 1 view .LVU100
 329              		.loc 1 170 6 is_stmt 0 view .LVU101
 330 0016 012C     		cmp	r4, #1
 331 0018 04D1     		bne	.L21
 332              		.loc 1 170 38 discriminator 1 view .LVU102
 333 001a 2DB9     		cbnz	r5, .L22
 334              	.L29:
 171:STM32Cube_FW_N6/Drivers/BSP/Components/mx66uw1g45g/mx66uw1g45g.c ****   {
 172:STM32Cube_FW_N6/Drivers/BSP/Components/mx66uw1g45g/mx66uw1g45g.c ****     return MX66UW1G45G_ERROR;
ARM GAS  C:\Users\DJESSOU\AppData\Local\Temp\ccAx4BcF.s 			page 11


 335              		.loc 1 172 12 view .LVU103
 336 001c 4FF0FF30 		mov	r0, #-1
 337              	.L20:
 173:STM32Cube_FW_N6/Drivers/BSP/Components/mx66uw1g45g/mx66uw1g45g.c ****   }
 174:STM32Cube_FW_N6/Drivers/BSP/Components/mx66uw1g45g/mx66uw1g45g.c **** 
 175:STM32Cube_FW_N6/Drivers/BSP/Components/mx66uw1g45g/mx66uw1g45g.c ****   /* Initialize the read command */
 176:STM32Cube_FW_N6/Drivers/BSP/Components/mx66uw1g45g/mx66uw1g45g.c ****   s_command.OperationType = HAL_XSPI_OPTYPE_COMMON_CFG;
 177:STM32Cube_FW_N6/Drivers/BSP/Components/mx66uw1g45g/mx66uw1g45g.c ****   s_command.InstructionMode = (Mode == MX66UW1G45G_SPI_MODE)
 178:STM32Cube_FW_N6/Drivers/BSP/Components/mx66uw1g45g/mx66uw1g45g.c ****                                   ? HAL_XSPI_INSTRUCTION_1_LINE
 179:STM32Cube_FW_N6/Drivers/BSP/Components/mx66uw1g45g/mx66uw1g45g.c ****                                   : HAL_XSPI_INSTRUCTION_8_LINES;
 180:STM32Cube_FW_N6/Drivers/BSP/Components/mx66uw1g45g/mx66uw1g45g.c ****   s_command.InstructionDTRMode = HAL_XSPI_INSTRUCTION_DTR_DISABLE;
 181:STM32Cube_FW_N6/Drivers/BSP/Components/mx66uw1g45g/mx66uw1g45g.c ****   s_command.InstructionWidth = (Mode == MX66UW1G45G_SPI_MODE)
 182:STM32Cube_FW_N6/Drivers/BSP/Components/mx66uw1g45g/mx66uw1g45g.c ****                                    ? HAL_XSPI_INSTRUCTION_8_BITS
 183:STM32Cube_FW_N6/Drivers/BSP/Components/mx66uw1g45g/mx66uw1g45g.c ****                                    : HAL_XSPI_INSTRUCTION_16_BITS;
 184:STM32Cube_FW_N6/Drivers/BSP/Components/mx66uw1g45g/mx66uw1g45g.c ****   s_command.Instruction = (Mode == MX66UW1G45G_SPI_MODE)
 185:STM32Cube_FW_N6/Drivers/BSP/Components/mx66uw1g45g/mx66uw1g45g.c ****                               ? ((AddressWidth == MX66UW1G45G_3BYTES_SIZE)
 186:STM32Cube_FW_N6/Drivers/BSP/Components/mx66uw1g45g/mx66uw1g45g.c ****                                      ? MX66UW1G45G_FAST_READ_CMD
 187:STM32Cube_FW_N6/Drivers/BSP/Components/mx66uw1g45g/mx66uw1g45g.c ****                                      : MX66UW1G45G_4_BYTE_ADDR_FAST_READ_CMD)
 188:STM32Cube_FW_N6/Drivers/BSP/Components/mx66uw1g45g/mx66uw1g45g.c ****                               : MX66UW1G45G_OCTA_READ_CMD;
 189:STM32Cube_FW_N6/Drivers/BSP/Components/mx66uw1g45g/mx66uw1g45g.c ****   s_command.AddressMode = (Mode == MX66UW1G45G_SPI_MODE)
 190:STM32Cube_FW_N6/Drivers/BSP/Components/mx66uw1g45g/mx66uw1g45g.c ****                               ? HAL_XSPI_ADDRESS_1_LINE
 191:STM32Cube_FW_N6/Drivers/BSP/Components/mx66uw1g45g/mx66uw1g45g.c ****                               : HAL_XSPI_ADDRESS_8_LINES;
 192:STM32Cube_FW_N6/Drivers/BSP/Components/mx66uw1g45g/mx66uw1g45g.c ****   s_command.AddressDTRMode = HAL_XSPI_ADDRESS_DTR_DISABLE;
 193:STM32Cube_FW_N6/Drivers/BSP/Components/mx66uw1g45g/mx66uw1g45g.c ****   s_command.AddressWidth = (AddressWidth == MX66UW1G45G_3BYTES_SIZE)
 194:STM32Cube_FW_N6/Drivers/BSP/Components/mx66uw1g45g/mx66uw1g45g.c ****                                ? HAL_XSPI_ADDRESS_24_BITS
 195:STM32Cube_FW_N6/Drivers/BSP/Components/mx66uw1g45g/mx66uw1g45g.c ****                                : HAL_XSPI_ADDRESS_32_BITS;
 196:STM32Cube_FW_N6/Drivers/BSP/Components/mx66uw1g45g/mx66uw1g45g.c ****   s_command.Address = ReadAddr;
 197:STM32Cube_FW_N6/Drivers/BSP/Components/mx66uw1g45g/mx66uw1g45g.c ****   s_command.AlternateBytesMode = HAL_XSPI_ALT_BYTES_NONE;
 198:STM32Cube_FW_N6/Drivers/BSP/Components/mx66uw1g45g/mx66uw1g45g.c ****   s_command.DataMode = (Mode == MX66UW1G45G_SPI_MODE) ? HAL_XSPI_DATA_1_LINE : HAL_XSPI_DATA_8_LINE
 199:STM32Cube_FW_N6/Drivers/BSP/Components/mx66uw1g45g/mx66uw1g45g.c ****   s_command.DataDTRMode = HAL_XSPI_DATA_DTR_DISABLE;
 200:STM32Cube_FW_N6/Drivers/BSP/Components/mx66uw1g45g/mx66uw1g45g.c ****   s_command.DummyCycles = (Mode == MX66UW1G45G_SPI_MODE) ? DUMMY_CYCLES_READ : DUMMY_CYCLES_READ_OC
 201:STM32Cube_FW_N6/Drivers/BSP/Components/mx66uw1g45g/mx66uw1g45g.c ****   s_command.DataLength = Size;
 202:STM32Cube_FW_N6/Drivers/BSP/Components/mx66uw1g45g/mx66uw1g45g.c ****   s_command.DQSMode = HAL_XSPI_DQS_DISABLE;
 203:STM32Cube_FW_N6/Drivers/BSP/Components/mx66uw1g45g/mx66uw1g45g.c ****  #if defined (XSPI_CCR_SIOO)
 204:STM32Cube_FW_N6/Drivers/BSP/Components/mx66uw1g45g/mx66uw1g45g.c ****   s_command.SIOOMode            = HAL_XSPI_SIOO_INST_EVERY_CMD;
 205:STM32Cube_FW_N6/Drivers/BSP/Components/mx66uw1g45g/mx66uw1g45g.c ****  #endif
 206:STM32Cube_FW_N6/Drivers/BSP/Components/mx66uw1g45g/mx66uw1g45g.c **** 
 207:STM32Cube_FW_N6/Drivers/BSP/Components/mx66uw1g45g/mx66uw1g45g.c ****   /* Send the command */
 208:STM32Cube_FW_N6/Drivers/BSP/Components/mx66uw1g45g/mx66uw1g45g.c ****   if (HAL_XSPI_Command(Ctx, &s_command, HAL_XSPI_TIMEOUT_DEFAULT_VALUE) != HAL_OK)
 209:STM32Cube_FW_N6/Drivers/BSP/Components/mx66uw1g45g/mx66uw1g45g.c ****   {
 210:STM32Cube_FW_N6/Drivers/BSP/Components/mx66uw1g45g/mx66uw1g45g.c ****     return MX66UW1G45G_ERROR;
 211:STM32Cube_FW_N6/Drivers/BSP/Components/mx66uw1g45g/mx66uw1g45g.c ****   }
 212:STM32Cube_FW_N6/Drivers/BSP/Components/mx66uw1g45g/mx66uw1g45g.c **** 
 213:STM32Cube_FW_N6/Drivers/BSP/Components/mx66uw1g45g/mx66uw1g45g.c ****   /* Reception of the data */
 214:STM32Cube_FW_N6/Drivers/BSP/Components/mx66uw1g45g/mx66uw1g45g.c ****   if (HAL_XSPI_Receive(Ctx, pData, HAL_XSPI_TIMEOUT_DEFAULT_VALUE) != HAL_OK)
 215:STM32Cube_FW_N6/Drivers/BSP/Components/mx66uw1g45g/mx66uw1g45g.c ****   {
 216:STM32Cube_FW_N6/Drivers/BSP/Components/mx66uw1g45g/mx66uw1g45g.c ****     return MX66UW1G45G_ERROR;
 217:STM32Cube_FW_N6/Drivers/BSP/Components/mx66uw1g45g/mx66uw1g45g.c ****   }
 218:STM32Cube_FW_N6/Drivers/BSP/Components/mx66uw1g45g/mx66uw1g45g.c **** 
 219:STM32Cube_FW_N6/Drivers/BSP/Components/mx66uw1g45g/mx66uw1g45g.c ****   return MX66UW1G45G_OK;
 220:STM32Cube_FW_N6/Drivers/BSP/Components/mx66uw1g45g/mx66uw1g45g.c **** }
 338              		.loc 1 220 1 view .LVU104
 339 0020 15B0     		add	sp, sp, #84
 340              		.cfi_remember_state
 341              		.cfi_def_cfa_offset 20
 342              		@ sp needed
 343 0022 F0BD     		pop	{r4, r5, r6, r7, pc}
ARM GAS  C:\Users\DJESSOU\AppData\Local\Temp\ccAx4BcF.s 			page 12


 344              	.LVL16:
 345              	.L21:
 346              		.cfi_restore_state
 176:STM32Cube_FW_N6/Drivers/BSP/Components/mx66uw1g45g/mx66uw1g45g.c ****   s_command.InstructionMode = (Mode == MX66UW1G45G_SPI_MODE)
 347              		.loc 1 176 3 is_stmt 1 view .LVU105
 177:STM32Cube_FW_N6/Drivers/BSP/Components/mx66uw1g45g/mx66uw1g45g.c ****                                   ? HAL_XSPI_INSTRUCTION_1_LINE
 348              		.loc 1 177 3 view .LVU106
 179:STM32Cube_FW_N6/Drivers/BSP/Components/mx66uw1g45g/mx66uw1g45g.c ****   s_command.InstructionDTRMode = HAL_XSPI_INSTRUCTION_DTR_DISABLE;
 349              		.loc 1 179 35 is_stmt 0 view .LVU107
 350 0024 002C     		cmp	r4, #0
 351 0026 32D0     		beq	.L24
 352              	.L22:
 181:STM32Cube_FW_N6/Drivers/BSP/Components/mx66uw1g45g/mx66uw1g45g.c ****                                    ? HAL_XSPI_INSTRUCTION_8_BITS
 353              		.loc 1 181 30 view .LVU108
 354 0028 0422     		movs	r2, #4
 355 002a 1023     		movs	r3, #16
 356 002c CDE90423 		strd	r2, r3, [sp, #16]
 184:STM32Cube_FW_N6/Drivers/BSP/Components/mx66uw1g45g/mx66uw1g45g.c ****                               ? ((AddressWidth == MX66UW1G45G_3BYTES_SIZE)
 357              		.loc 1 184 3 is_stmt 1 view .LVU109
 189:STM32Cube_FW_N6/Drivers/BSP/Components/mx66uw1g45g/mx66uw1g45g.c ****                               ? HAL_XSPI_ADDRESS_1_LINE
 358              		.loc 1 189 3 view .LVU110
 181:STM32Cube_FW_N6/Drivers/BSP/Components/mx66uw1g45g/mx66uw1g45g.c ****                                    ? HAL_XSPI_INSTRUCTION_8_BITS
 359              		.loc 1 181 30 is_stmt 0 view .LVU111
 360 0030 4EF61342 		movw	r2, #60435
 191:STM32Cube_FW_N6/Drivers/BSP/Components/mx66uw1g45g/mx66uw1g45g.c ****   s_command.AddressDTRMode = HAL_XSPI_ADDRESS_DTR_DISABLE;
 361              		.loc 1 191 31 discriminator 2 view .LVU112
 362 0034 4FF48063 		mov	r3, #1024
 363              	.L25:
 195:STM32Cube_FW_N6/Drivers/BSP/Components/mx66uw1g45g/mx66uw1g45g.c ****   s_command.Address = ReadAddr;
 364              		.loc 1 195 32 discriminator 1 view .LVU113
 365 0038 002D     		cmp	r5, #0
 189:STM32Cube_FW_N6/Drivers/BSP/Components/mx66uw1g45g/mx66uw1g45g.c ****                               ? HAL_XSPI_ADDRESS_1_LINE
 366              		.loc 1 189 25 view .LVU114
 367 003a 0893     		str	r3, [sp, #32]
 192:STM32Cube_FW_N6/Drivers/BSP/Components/mx66uw1g45g/mx66uw1g45g.c ****   s_command.AddressWidth = (AddressWidth == MX66UW1G45G_3BYTES_SIZE)
 368              		.loc 1 192 3 is_stmt 1 view .LVU115
 193:STM32Cube_FW_N6/Drivers/BSP/Components/mx66uw1g45g/mx66uw1g45g.c ****                                ? HAL_XSPI_ADDRESS_24_BITS
 369              		.loc 1 193 3 view .LVU116
 195:STM32Cube_FW_N6/Drivers/BSP/Components/mx66uw1g45g/mx66uw1g45g.c ****   s_command.Address = ReadAddr;
 370              		.loc 1 195 32 is_stmt 0 discriminator 1 view .LVU117
 371 003c 14BF     		ite	ne
 372 003e 4FF44053 		movne	r3, #12288
 373 0042 4FF40053 		moveq	r3, #8192
 193:STM32Cube_FW_N6/Drivers/BSP/Components/mx66uw1g45g/mx66uw1g45g.c ****                                ? HAL_XSPI_ADDRESS_24_BITS
 374              		.loc 1 193 26 view .LVU118
 375 0046 0993     		str	r3, [sp, #36]
 196:STM32Cube_FW_N6/Drivers/BSP/Components/mx66uw1g45g/mx66uw1g45g.c ****   s_command.AlternateBytesMode = HAL_XSPI_ALT_BYTES_NONE;
 376              		.loc 1 196 3 is_stmt 1 view .LVU119
 196:STM32Cube_FW_N6/Drivers/BSP/Components/mx66uw1g45g/mx66uw1g45g.c ****   s_command.AlternateBytesMode = HAL_XSPI_ALT_BYTES_NONE;
 377              		.loc 1 196 21 is_stmt 0 view .LVU120
 378 0048 1A9B     		ldr	r3, [sp, #104]
 198:STM32Cube_FW_N6/Drivers/BSP/Components/mx66uw1g45g/mx66uw1g45g.c ****   s_command.DataDTRMode = HAL_XSPI_DATA_DTR_DISABLE;
 379              		.loc 1 198 22 discriminator 4 view .LVU121
 380 004a 002C     		cmp	r4, #0
 196:STM32Cube_FW_N6/Drivers/BSP/Components/mx66uw1g45g/mx66uw1g45g.c ****   s_command.AlternateBytesMode = HAL_XSPI_ALT_BYTES_NONE;
 381              		.loc 1 196 21 view .LVU122
 382 004c 0793     		str	r3, [sp, #28]
ARM GAS  C:\Users\DJESSOU\AppData\Local\Temp\ccAx4BcF.s 			page 13


 197:STM32Cube_FW_N6/Drivers/BSP/Components/mx66uw1g45g/mx66uw1g45g.c ****   s_command.DataMode = (Mode == MX66UW1G45G_SPI_MODE) ? HAL_XSPI_DATA_1_LINE : HAL_XSPI_DATA_8_LINE
 383              		.loc 1 197 3 is_stmt 1 view .LVU123
 198:STM32Cube_FW_N6/Drivers/BSP/Components/mx66uw1g45g/mx66uw1g45g.c ****   s_command.DataDTRMode = HAL_XSPI_DATA_DTR_DISABLE;
 384              		.loc 1 198 3 view .LVU124
 198:STM32Cube_FW_N6/Drivers/BSP/Components/mx66uw1g45g/mx66uw1g45g.c ****   s_command.DataDTRMode = HAL_XSPI_DATA_DTR_DISABLE;
 385              		.loc 1 198 22 is_stmt 0 discriminator 4 view .LVU125
 386 004e 0CBF     		ite	eq
 387 0050 0823     		moveq	r3, #8
 388 0052 0A23     		movne	r3, #10
 184:STM32Cube_FW_N6/Drivers/BSP/Components/mx66uw1g45g/mx66uw1g45g.c ****                               ? ((AddressWidth == MX66UW1G45G_3BYTES_SIZE)
 389              		.loc 1 184 25 view .LVU126
 390 0054 0392     		str	r2, [sp, #12]
 198:STM32Cube_FW_N6/Drivers/BSP/Components/mx66uw1g45g/mx66uw1g45g.c ****   s_command.DataDTRMode = HAL_XSPI_DATA_DTR_DISABLE;
 391              		.loc 1 198 22 discriminator 4 view .LVU127
 392 0056 0CBF     		ite	eq
 393 0058 4FF08072 		moveq	r2, #16777216
 394 005c 4FF08062 		movne	r2, #67108864
 200:STM32Cube_FW_N6/Drivers/BSP/Components/mx66uw1g45g/mx66uw1g45g.c ****   s_command.DataLength = Size;
 395              		.loc 1 200 25 discriminator 4 view .LVU128
 396 0060 1293     		str	r3, [sp, #72]
 201:STM32Cube_FW_N6/Drivers/BSP/Components/mx66uw1g45g/mx66uw1g45g.c ****   s_command.DQSMode = HAL_XSPI_DQS_DISABLE;
 397              		.loc 1 201 3 is_stmt 1 view .LVU129
 201:STM32Cube_FW_N6/Drivers/BSP/Components/mx66uw1g45g/mx66uw1g45g.c ****   s_command.DQSMode = HAL_XSPI_DQS_DISABLE;
 398              		.loc 1 201 24 is_stmt 0 view .LVU130
 399 0062 1B9B     		ldr	r3, [sp, #108]
 400 0064 0F92     		str	r2, [sp, #60]
 208:STM32Cube_FW_N6/Drivers/BSP/Components/mx66uw1g45g/mx66uw1g45g.c ****   {
 401              		.loc 1 208 7 view .LVU131
 402 0066 3046     		mov	r0, r6
 403 0068 41F28832 		movw	r2, #5000
 404 006c 01A9     		add	r1, sp, #4
 201:STM32Cube_FW_N6/Drivers/BSP/Components/mx66uw1g45g/mx66uw1g45g.c ****   s_command.DQSMode = HAL_XSPI_DQS_DISABLE;
 405              		.loc 1 201 24 view .LVU132
 406 006e 1093     		str	r3, [sp, #64]
 202:STM32Cube_FW_N6/Drivers/BSP/Components/mx66uw1g45g/mx66uw1g45g.c ****  #if defined (XSPI_CCR_SIOO)
 407              		.loc 1 202 3 is_stmt 1 view .LVU133
 208:STM32Cube_FW_N6/Drivers/BSP/Components/mx66uw1g45g/mx66uw1g45g.c ****   {
 408              		.loc 1 208 3 view .LVU134
 208:STM32Cube_FW_N6/Drivers/BSP/Components/mx66uw1g45g/mx66uw1g45g.c ****   {
 409              		.loc 1 208 7 is_stmt 0 view .LVU135
 410 0070 FFF7FEFF 		bl	HAL_XSPI_Command
 411              	.LVL17:
 208:STM32Cube_FW_N6/Drivers/BSP/Components/mx66uw1g45g/mx66uw1g45g.c ****   {
 412              		.loc 1 208 6 discriminator 1 view .LVU136
 413 0074 0028     		cmp	r0, #0
 414 0076 D1D1     		bne	.L29
 214:STM32Cube_FW_N6/Drivers/BSP/Components/mx66uw1g45g/mx66uw1g45g.c ****   {
 415              		.loc 1 214 3 is_stmt 1 view .LVU137
 214:STM32Cube_FW_N6/Drivers/BSP/Components/mx66uw1g45g/mx66uw1g45g.c ****   {
 416              		.loc 1 214 7 is_stmt 0 view .LVU138
 417 0078 41F28832 		movw	r2, #5000
 418 007c 3946     		mov	r1, r7
 419 007e 3046     		mov	r0, r6
 420 0080 FFF7FEFF 		bl	HAL_XSPI_Receive
 421              	.LVL18:
 214:STM32Cube_FW_N6/Drivers/BSP/Components/mx66uw1g45g/mx66uw1g45g.c ****   {
 422              		.loc 1 214 6 discriminator 1 view .LVU139
ARM GAS  C:\Users\DJESSOU\AppData\Local\Temp\ccAx4BcF.s 			page 14


 423 0084 0038     		subs	r0, r0, #0
 424 0086 18BF     		it	ne
 425 0088 0120     		movne	r0, #1
 426 008a 4042     		rsbs	r0, r0, #0
 427 008c C8E7     		b	.L20
 428              	.L24:
 177:STM32Cube_FW_N6/Drivers/BSP/Components/mx66uw1g45g/mx66uw1g45g.c ****                                   ? HAL_XSPI_INSTRUCTION_1_LINE
 429              		.loc 1 177 29 view .LVU140
 430 008e 0123     		movs	r3, #1
 188:STM32Cube_FW_N6/Drivers/BSP/Components/mx66uw1g45g/mx66uw1g45g.c ****   s_command.AddressMode = (Mode == MX66UW1G45G_SPI_MODE)
 431              		.loc 1 188 31 discriminator 3 view .LVU141
 432 0090 002D     		cmp	r5, #0
 177:STM32Cube_FW_N6/Drivers/BSP/Components/mx66uw1g45g/mx66uw1g45g.c ****                                   ? HAL_XSPI_INSTRUCTION_1_LINE
 433              		.loc 1 177 29 view .LVU142
 434 0092 0493     		str	r3, [sp, #16]
 180:STM32Cube_FW_N6/Drivers/BSP/Components/mx66uw1g45g/mx66uw1g45g.c ****   s_command.InstructionWidth = (Mode == MX66UW1G45G_SPI_MODE)
 435              		.loc 1 180 3 is_stmt 1 view .LVU143
 181:STM32Cube_FW_N6/Drivers/BSP/Components/mx66uw1g45g/mx66uw1g45g.c ****                                    ? HAL_XSPI_INSTRUCTION_8_BITS
 436              		.loc 1 181 3 view .LVU144
 184:STM32Cube_FW_N6/Drivers/BSP/Components/mx66uw1g45g/mx66uw1g45g.c ****                               ? ((AddressWidth == MX66UW1G45G_3BYTES_SIZE)
 437              		.loc 1 184 3 view .LVU145
 188:STM32Cube_FW_N6/Drivers/BSP/Components/mx66uw1g45g/mx66uw1g45g.c ****   s_command.AddressMode = (Mode == MX66UW1G45G_SPI_MODE)
 438              		.loc 1 188 31 is_stmt 0 discriminator 3 view .LVU146
 439 0094 14BF     		ite	ne
 440 0096 0C22     		movne	r2, #12
 441 0098 0B22     		moveq	r2, #11
 189:STM32Cube_FW_N6/Drivers/BSP/Components/mx66uw1g45g/mx66uw1g45g.c ****                               ? HAL_XSPI_ADDRESS_1_LINE
 442              		.loc 1 189 3 is_stmt 1 view .LVU147
 191:STM32Cube_FW_N6/Drivers/BSP/Components/mx66uw1g45g/mx66uw1g45g.c ****   s_command.AddressDTRMode = HAL_XSPI_ADDRESS_DTR_DISABLE;
 443              		.loc 1 191 31 is_stmt 0 discriminator 1 view .LVU148
 444 009a 4FF48073 		mov	r3, #256
 445 009e CBE7     		b	.L25
 446              		.cfi_endproc
 447              	.LFE864:
 449              		.section	.text.MX66UW1G45G_ReadDTR,"ax",%progbits
 450              		.align	1
 451              		.global	MX66UW1G45G_ReadDTR
 452              		.syntax unified
 453              		.thumb
 454              		.thumb_func
 456              	MX66UW1G45G_ReadDTR:
 457              	.LVL19:
 458              	.LFB865:
 221:STM32Cube_FW_N6/Drivers/BSP/Components/mx66uw1g45g/mx66uw1g45g.c **** 
 222:STM32Cube_FW_N6/Drivers/BSP/Components/mx66uw1g45g/mx66uw1g45g.c **** /**
 223:STM32Cube_FW_N6/Drivers/BSP/Components/mx66uw1g45g/mx66uw1g45g.c ****   * @brief  Reads an amount of data from the XSPI memory on DTR mode.
 224:STM32Cube_FW_N6/Drivers/BSP/Components/mx66uw1g45g/mx66uw1g45g.c ****   *         OPI
 225:STM32Cube_FW_N6/Drivers/BSP/Components/mx66uw1g45g/mx66uw1g45g.c ****   * @param  Ctx Component object pointer
 226:STM32Cube_FW_N6/Drivers/BSP/Components/mx66uw1g45g/mx66uw1g45g.c ****   * @param  AddressWidth Address size
 227:STM32Cube_FW_N6/Drivers/BSP/Components/mx66uw1g45g/mx66uw1g45g.c ****   * @param  pData Pointer to data to be read
 228:STM32Cube_FW_N6/Drivers/BSP/Components/mx66uw1g45g/mx66uw1g45g.c ****   * @param  ReadAddr Read start address
 229:STM32Cube_FW_N6/Drivers/BSP/Components/mx66uw1g45g/mx66uw1g45g.c ****   * @param  Size Size of data to read
 230:STM32Cube_FW_N6/Drivers/BSP/Components/mx66uw1g45g/mx66uw1g45g.c ****   * @note   Only OPI mode support DTR transfer rate
 231:STM32Cube_FW_N6/Drivers/BSP/Components/mx66uw1g45g/mx66uw1g45g.c ****   * @retval XSPI memory status
 232:STM32Cube_FW_N6/Drivers/BSP/Components/mx66uw1g45g/mx66uw1g45g.c ****   */
 233:STM32Cube_FW_N6/Drivers/BSP/Components/mx66uw1g45g/mx66uw1g45g.c **** int32_t MX66UW1G45G_ReadDTR(XSPI_HandleTypeDef *Ctx, uint8_t *pData, uint32_t ReadAddr, uint32_t Si
 234:STM32Cube_FW_N6/Drivers/BSP/Components/mx66uw1g45g/mx66uw1g45g.c **** {
ARM GAS  C:\Users\DJESSOU\AppData\Local\Temp\ccAx4BcF.s 			page 15


 459              		.loc 1 234 1 is_stmt 1 view -0
 460              		.cfi_startproc
 461              		@ args = 0, pretend = 0, frame = 80
 462              		@ frame_needed = 0, uses_anonymous_args = 0
 235:STM32Cube_FW_N6/Drivers/BSP/Components/mx66uw1g45g/mx66uw1g45g.c ****   XSPI_RegularCmdTypeDef s_command = {0};
 463              		.loc 1 235 3 view .LVU150
 234:STM32Cube_FW_N6/Drivers/BSP/Components/mx66uw1g45g/mx66uw1g45g.c ****   XSPI_RegularCmdTypeDef s_command = {0};
 464              		.loc 1 234 1 is_stmt 0 view .LVU151
 465 0000 F0B5     		push	{r4, r5, r6, r7, lr}
 466              		.cfi_def_cfa_offset 20
 467              		.cfi_offset 4, -20
 468              		.cfi_offset 5, -16
 469              		.cfi_offset 6, -12
 470              		.cfi_offset 7, -8
 471              		.cfi_offset 14, -4
 472 0002 95B0     		sub	sp, sp, #84
 473              		.cfi_def_cfa_offset 104
 234:STM32Cube_FW_N6/Drivers/BSP/Components/mx66uw1g45g/mx66uw1g45g.c ****   XSPI_RegularCmdTypeDef s_command = {0};
 474              		.loc 1 234 1 view .LVU152
 475 0004 0446     		mov	r4, r0
 476 0006 1746     		mov	r7, r2
 477 0008 0D46     		mov	r5, r1
 478              		.loc 1 235 26 view .LVU153
 479 000a 3822     		movs	r2, #56
 480              	.LVL20:
 481              		.loc 1 235 26 view .LVU154
 482 000c 0021     		movs	r1, #0
 483              	.LVL21:
 484              		.loc 1 235 26 view .LVU155
 485 000e 01A8     		add	r0, sp, #4
 486              	.LVL22:
 234:STM32Cube_FW_N6/Drivers/BSP/Components/mx66uw1g45g/mx66uw1g45g.c ****   XSPI_RegularCmdTypeDef s_command = {0};
 487              		.loc 1 234 1 view .LVU156
 488 0010 1E46     		mov	r6, r3
 489              		.loc 1 235 26 view .LVU157
 490 0012 FFF7FEFF 		bl	memset
 491              	.LVL23:
 236:STM32Cube_FW_N6/Drivers/BSP/Components/mx66uw1g45g/mx66uw1g45g.c **** 
 237:STM32Cube_FW_N6/Drivers/BSP/Components/mx66uw1g45g/mx66uw1g45g.c ****   /* Initialize the read command */
 238:STM32Cube_FW_N6/Drivers/BSP/Components/mx66uw1g45g/mx66uw1g45g.c ****   s_command.OperationType = HAL_XSPI_OPTYPE_COMMON_CFG;
 492              		.loc 1 238 3 is_stmt 1 view .LVU158
 239:STM32Cube_FW_N6/Drivers/BSP/Components/mx66uw1g45g/mx66uw1g45g.c ****   s_command.InstructionMode = HAL_XSPI_INSTRUCTION_8_LINES;
 493              		.loc 1 239 3 view .LVU159
 494              		.loc 1 239 29 is_stmt 0 view .LVU160
 495 0016 0423     		movs	r3, #4
 240:STM32Cube_FW_N6/Drivers/BSP/Components/mx66uw1g45g/mx66uw1g45g.c ****   s_command.InstructionDTRMode = HAL_XSPI_INSTRUCTION_DTR_ENABLE;
 241:STM32Cube_FW_N6/Drivers/BSP/Components/mx66uw1g45g/mx66uw1g45g.c ****   s_command.InstructionWidth = HAL_XSPI_INSTRUCTION_16_BITS;
 496              		.loc 1 241 30 view .LVU161
 497 0018 0821     		movs	r1, #8
 239:STM32Cube_FW_N6/Drivers/BSP/Components/mx66uw1g45g/mx66uw1g45g.c ****   s_command.InstructionMode = HAL_XSPI_INSTRUCTION_8_LINES;
 498              		.loc 1 239 29 view .LVU162
 499 001a 0493     		str	r3, [sp, #16]
 240:STM32Cube_FW_N6/Drivers/BSP/Components/mx66uw1g45g/mx66uw1g45g.c ****   s_command.InstructionDTRMode = HAL_XSPI_INSTRUCTION_DTR_ENABLE;
 500              		.loc 1 240 3 is_stmt 1 view .LVU163
 501              		.loc 1 241 30 is_stmt 0 view .LVU164
 502 001c 1023     		movs	r3, #16
 503 001e CDE90531 		strd	r3, r1, [sp, #20]
ARM GAS  C:\Users\DJESSOU\AppData\Local\Temp\ccAx4BcF.s 			page 16


 242:STM32Cube_FW_N6/Drivers/BSP/Components/mx66uw1g45g/mx66uw1g45g.c ****   s_command.Instruction = MX66UW1G45G_OCTA_READ_DTR_CMD;
 504              		.loc 1 242 3 is_stmt 1 view .LVU165
 505              		.loc 1 242 25 is_stmt 0 view .LVU166
 506 0022 4EF61163 		movw	r3, #60945
 507 0026 0393     		str	r3, [sp, #12]
 243:STM32Cube_FW_N6/Drivers/BSP/Components/mx66uw1g45g/mx66uw1g45g.c ****   s_command.AddressMode = HAL_XSPI_ADDRESS_8_LINES;
 508              		.loc 1 243 3 is_stmt 1 view .LVU167
 509              		.loc 1 243 25 is_stmt 0 view .LVU168
 510 0028 4FF48063 		mov	r3, #1024
 244:STM32Cube_FW_N6/Drivers/BSP/Components/mx66uw1g45g/mx66uw1g45g.c ****   s_command.AddressDTRMode = HAL_XSPI_ADDRESS_DTR_ENABLE;
 245:STM32Cube_FW_N6/Drivers/BSP/Components/mx66uw1g45g/mx66uw1g45g.c ****   s_command.AddressWidth = HAL_XSPI_ADDRESS_32_BITS;
 511              		.loc 1 245 26 view .LVU169
 512 002c 4FF4006E 		mov	lr, #2048
 243:STM32Cube_FW_N6/Drivers/BSP/Components/mx66uw1g45g/mx66uw1g45g.c ****   s_command.AddressMode = HAL_XSPI_ADDRESS_8_LINES;
 513              		.loc 1 243 25 view .LVU170
 514 0030 0893     		str	r3, [sp, #32]
 244:STM32Cube_FW_N6/Drivers/BSP/Components/mx66uw1g45g/mx66uw1g45g.c ****   s_command.AddressDTRMode = HAL_XSPI_ADDRESS_DTR_ENABLE;
 515              		.loc 1 244 3 is_stmt 1 view .LVU171
 516              		.loc 1 245 26 is_stmt 0 view .LVU172
 517 0032 4FF44053 		mov	r3, #12288
 518 0036 CDE9093E 		strd	r3, lr, [sp, #36]
 246:STM32Cube_FW_N6/Drivers/BSP/Components/mx66uw1g45g/mx66uw1g45g.c ****   s_command.Address = ReadAddr;
 519              		.loc 1 246 3 is_stmt 1 view .LVU173
 247:STM32Cube_FW_N6/Drivers/BSP/Components/mx66uw1g45g/mx66uw1g45g.c ****   s_command.AlternateBytesMode = HAL_XSPI_ALT_BYTES_NONE;
 248:STM32Cube_FW_N6/Drivers/BSP/Components/mx66uw1g45g/mx66uw1g45g.c ****   s_command.DataMode = HAL_XSPI_DATA_8_LINES;
 520              		.loc 1 248 22 is_stmt 0 view .LVU174
 521 003a 4FF08063 		mov	r3, #67108864
 249:STM32Cube_FW_N6/Drivers/BSP/Components/mx66uw1g45g/mx66uw1g45g.c ****   s_command.DataDTRMode = HAL_XSPI_DATA_DTR_ENABLE;
 250:STM32Cube_FW_N6/Drivers/BSP/Components/mx66uw1g45g/mx66uw1g45g.c ****   s_command.DummyCycles = DUMMY_CYCLES_READ_OCTAL_DTR;
 522              		.loc 1 250 25 view .LVU175
 523 003e 4FF00061 		mov	r1, #134217728
 248:STM32Cube_FW_N6/Drivers/BSP/Components/mx66uw1g45g/mx66uw1g45g.c ****   s_command.DataDTRMode = HAL_XSPI_DATA_DTR_ENABLE;
 524              		.loc 1 248 22 view .LVU176
 525 0042 0F93     		str	r3, [sp, #60]
 526              		.loc 1 250 25 view .LVU177
 527 0044 0A23     		movs	r3, #10
 528 0046 CDE91113 		strd	r1, r3, [sp, #68]
 251:STM32Cube_FW_N6/Drivers/BSP/Components/mx66uw1g45g/mx66uw1g45g.c ****   s_command.DataLength = Size;
 252:STM32Cube_FW_N6/Drivers/BSP/Components/mx66uw1g45g/mx66uw1g45g.c ****   s_command.DQSMode = HAL_XSPI_DQS_ENABLE;
 529              		.loc 1 252 21 view .LVU178
 530 004a 4FF00053 		mov	r3, #536870912
 253:STM32Cube_FW_N6/Drivers/BSP/Components/mx66uw1g45g/mx66uw1g45g.c ****  #if defined (XSPI_CCR_SIOO)
 254:STM32Cube_FW_N6/Drivers/BSP/Components/mx66uw1g45g/mx66uw1g45g.c ****   s_command.SIOOMode            = HAL_XSPI_SIOO_INST_EVERY_CMD;
 255:STM32Cube_FW_N6/Drivers/BSP/Components/mx66uw1g45g/mx66uw1g45g.c ****  #endif
 256:STM32Cube_FW_N6/Drivers/BSP/Components/mx66uw1g45g/mx66uw1g45g.c **** 
 257:STM32Cube_FW_N6/Drivers/BSP/Components/mx66uw1g45g/mx66uw1g45g.c ****   /* Send the command */
 258:STM32Cube_FW_N6/Drivers/BSP/Components/mx66uw1g45g/mx66uw1g45g.c ****   if (HAL_XSPI_Command(Ctx, &s_command, HAL_XSPI_TIMEOUT_DEFAULT_VALUE) != HAL_OK)
 531              		.loc 1 258 7 view .LVU179
 532 004e 41F28832 		movw	r2, #5000
 533 0052 2046     		mov	r0, r4
 534 0054 01A9     		add	r1, sp, #4
 246:STM32Cube_FW_N6/Drivers/BSP/Components/mx66uw1g45g/mx66uw1g45g.c ****   s_command.AlternateBytesMode = HAL_XSPI_ALT_BYTES_NONE;
 535              		.loc 1 246 21 view .LVU180
 536 0056 0797     		str	r7, [sp, #28]
 247:STM32Cube_FW_N6/Drivers/BSP/Components/mx66uw1g45g/mx66uw1g45g.c ****   s_command.DataMode = HAL_XSPI_DATA_8_LINES;
 537              		.loc 1 247 3 is_stmt 1 view .LVU181
 248:STM32Cube_FW_N6/Drivers/BSP/Components/mx66uw1g45g/mx66uw1g45g.c ****   s_command.DataDTRMode = HAL_XSPI_DATA_DTR_ENABLE;
ARM GAS  C:\Users\DJESSOU\AppData\Local\Temp\ccAx4BcF.s 			page 17


 538              		.loc 1 248 3 view .LVU182
 249:STM32Cube_FW_N6/Drivers/BSP/Components/mx66uw1g45g/mx66uw1g45g.c ****   s_command.DummyCycles = DUMMY_CYCLES_READ_OCTAL_DTR;
 539              		.loc 1 249 3 view .LVU183
 251:STM32Cube_FW_N6/Drivers/BSP/Components/mx66uw1g45g/mx66uw1g45g.c ****   s_command.DQSMode = HAL_XSPI_DQS_ENABLE;
 540              		.loc 1 251 3 view .LVU184
 251:STM32Cube_FW_N6/Drivers/BSP/Components/mx66uw1g45g/mx66uw1g45g.c ****   s_command.DQSMode = HAL_XSPI_DQS_ENABLE;
 541              		.loc 1 251 24 is_stmt 0 view .LVU185
 542 0058 1096     		str	r6, [sp, #64]
 252:STM32Cube_FW_N6/Drivers/BSP/Components/mx66uw1g45g/mx66uw1g45g.c ****  #if defined (XSPI_CCR_SIOO)
 543              		.loc 1 252 3 is_stmt 1 view .LVU186
 252:STM32Cube_FW_N6/Drivers/BSP/Components/mx66uw1g45g/mx66uw1g45g.c ****  #if defined (XSPI_CCR_SIOO)
 544              		.loc 1 252 21 is_stmt 0 view .LVU187
 545 005a 1393     		str	r3, [sp, #76]
 546              		.loc 1 258 3 is_stmt 1 view .LVU188
 547              		.loc 1 258 7 is_stmt 0 view .LVU189
 548 005c FFF7FEFF 		bl	HAL_XSPI_Command
 549              	.LVL24:
 550              		.loc 1 258 6 discriminator 1 view .LVU190
 551 0060 58B9     		cbnz	r0, .L35
 259:STM32Cube_FW_N6/Drivers/BSP/Components/mx66uw1g45g/mx66uw1g45g.c ****   {
 260:STM32Cube_FW_N6/Drivers/BSP/Components/mx66uw1g45g/mx66uw1g45g.c ****     return MX66UW1G45G_ERROR;
 261:STM32Cube_FW_N6/Drivers/BSP/Components/mx66uw1g45g/mx66uw1g45g.c ****   }
 262:STM32Cube_FW_N6/Drivers/BSP/Components/mx66uw1g45g/mx66uw1g45g.c **** 
 263:STM32Cube_FW_N6/Drivers/BSP/Components/mx66uw1g45g/mx66uw1g45g.c ****   /* Reception of the data */
 264:STM32Cube_FW_N6/Drivers/BSP/Components/mx66uw1g45g/mx66uw1g45g.c ****   if (HAL_XSPI_Receive(Ctx, pData, HAL_XSPI_TIMEOUT_DEFAULT_VALUE) != HAL_OK)
 552              		.loc 1 264 3 is_stmt 1 view .LVU191
 553              		.loc 1 264 7 is_stmt 0 view .LVU192
 554 0062 41F28832 		movw	r2, #5000
 555 0066 2946     		mov	r1, r5
 556 0068 2046     		mov	r0, r4
 557 006a FFF7FEFF 		bl	HAL_XSPI_Receive
 558              	.LVL25:
 559              		.loc 1 264 6 discriminator 1 view .LVU193
 560 006e 0038     		subs	r0, r0, #0
 561 0070 18BF     		it	ne
 562 0072 0120     		movne	r0, #1
 563 0074 4042     		rsbs	r0, r0, #0
 564              	.L33:
 265:STM32Cube_FW_N6/Drivers/BSP/Components/mx66uw1g45g/mx66uw1g45g.c ****   {
 266:STM32Cube_FW_N6/Drivers/BSP/Components/mx66uw1g45g/mx66uw1g45g.c ****     return MX66UW1G45G_ERROR;
 267:STM32Cube_FW_N6/Drivers/BSP/Components/mx66uw1g45g/mx66uw1g45g.c ****   }
 268:STM32Cube_FW_N6/Drivers/BSP/Components/mx66uw1g45g/mx66uw1g45g.c **** 
 269:STM32Cube_FW_N6/Drivers/BSP/Components/mx66uw1g45g/mx66uw1g45g.c ****   return MX66UW1G45G_OK;
 270:STM32Cube_FW_N6/Drivers/BSP/Components/mx66uw1g45g/mx66uw1g45g.c **** }
 565              		.loc 1 270 1 view .LVU194
 566 0076 15B0     		add	sp, sp, #84
 567              		.cfi_remember_state
 568              		.cfi_def_cfa_offset 20
 569              		@ sp needed
 570 0078 F0BD     		pop	{r4, r5, r6, r7, pc}
 571              	.LVL26:
 572              	.L35:
 573              		.cfi_restore_state
 260:STM32Cube_FW_N6/Drivers/BSP/Components/mx66uw1g45g/mx66uw1g45g.c ****   }
 574              		.loc 1 260 12 view .LVU195
 575 007a 4FF0FF30 		mov	r0, #-1
 576 007e FAE7     		b	.L33
ARM GAS  C:\Users\DJESSOU\AppData\Local\Temp\ccAx4BcF.s 			page 18


 577              		.cfi_endproc
 578              	.LFE865:
 580              		.section	.text.MX66UW1G45G_PageProgram,"ax",%progbits
 581              		.align	1
 582              		.global	MX66UW1G45G_PageProgram
 583              		.syntax unified
 584              		.thumb
 585              		.thumb_func
 587              	MX66UW1G45G_PageProgram:
 588              	.LVL27:
 589              	.LFB866:
 271:STM32Cube_FW_N6/Drivers/BSP/Components/mx66uw1g45g/mx66uw1g45g.c **** 
 272:STM32Cube_FW_N6/Drivers/BSP/Components/mx66uw1g45g/mx66uw1g45g.c **** /**
 273:STM32Cube_FW_N6/Drivers/BSP/Components/mx66uw1g45g/mx66uw1g45g.c ****   * @brief  Writes an amount of data to the XSPI memory.
 274:STM32Cube_FW_N6/Drivers/BSP/Components/mx66uw1g45g/mx66uw1g45g.c ****   *         SPI/OPI
 275:STM32Cube_FW_N6/Drivers/BSP/Components/mx66uw1g45g/mx66uw1g45g.c ****   * @param  Ctx Component object pointer
 276:STM32Cube_FW_N6/Drivers/BSP/Components/mx66uw1g45g/mx66uw1g45g.c ****   * @param  Mode Interface mode
 277:STM32Cube_FW_N6/Drivers/BSP/Components/mx66uw1g45g/mx66uw1g45g.c ****   * @param  AddressWidth Address size
 278:STM32Cube_FW_N6/Drivers/BSP/Components/mx66uw1g45g/mx66uw1g45g.c ****   * @param  pData Pointer to data to be written
 279:STM32Cube_FW_N6/Drivers/BSP/Components/mx66uw1g45g/mx66uw1g45g.c ****   * @param  WriteAddr Write start address
 280:STM32Cube_FW_N6/Drivers/BSP/Components/mx66uw1g45g/mx66uw1g45g.c ****   * @param  Size Size of data to write. Range 1 ~ MX66UW1G45G_PAGE_SIZE
 281:STM32Cube_FW_N6/Drivers/BSP/Components/mx66uw1g45g/mx66uw1g45g.c ****   * @note   Address size is forced to 3 Bytes when the 4 Bytes address size
 282:STM32Cube_FW_N6/Drivers/BSP/Components/mx66uw1g45g/mx66uw1g45g.c ****   *         command is not available for the specified interface mode
 283:STM32Cube_FW_N6/Drivers/BSP/Components/mx66uw1g45g/mx66uw1g45g.c ****   * @retval XSPI memory status
 284:STM32Cube_FW_N6/Drivers/BSP/Components/mx66uw1g45g/mx66uw1g45g.c ****   */
 285:STM32Cube_FW_N6/Drivers/BSP/Components/mx66uw1g45g/mx66uw1g45g.c **** int32_t MX66UW1G45G_PageProgram(XSPI_HandleTypeDef *Ctx, MX66UW1G45G_Interface_t Mode,
 286:STM32Cube_FW_N6/Drivers/BSP/Components/mx66uw1g45g/mx66uw1g45g.c ****                                 MX66UW1G45G_AddressWidth_t AddressWidth, uint8_t *pData, uint32_t W
 287:STM32Cube_FW_N6/Drivers/BSP/Components/mx66uw1g45g/mx66uw1g45g.c ****                                 uint32_t Size)
 288:STM32Cube_FW_N6/Drivers/BSP/Components/mx66uw1g45g/mx66uw1g45g.c **** {
 590              		.loc 1 288 1 is_stmt 1 view -0
 591              		.cfi_startproc
 592              		@ args = 8, pretend = 0, frame = 80
 593              		@ frame_needed = 0, uses_anonymous_args = 0
 289:STM32Cube_FW_N6/Drivers/BSP/Components/mx66uw1g45g/mx66uw1g45g.c ****   XSPI_RegularCmdTypeDef s_command = {0};
 594              		.loc 1 289 3 view .LVU197
 288:STM32Cube_FW_N6/Drivers/BSP/Components/mx66uw1g45g/mx66uw1g45g.c ****   XSPI_RegularCmdTypeDef s_command = {0};
 595              		.loc 1 288 1 is_stmt 0 view .LVU198
 596 0000 F0B5     		push	{r4, r5, r6, r7, lr}
 597              		.cfi_def_cfa_offset 20
 598              		.cfi_offset 4, -20
 599              		.cfi_offset 5, -16
 600              		.cfi_offset 6, -12
 601              		.cfi_offset 7, -8
 602              		.cfi_offset 14, -4
 603 0002 0C46     		mov	r4, r1
 604 0004 95B0     		sub	sp, sp, #84
 605              		.cfi_def_cfa_offset 104
 288:STM32Cube_FW_N6/Drivers/BSP/Components/mx66uw1g45g/mx66uw1g45g.c ****   XSPI_RegularCmdTypeDef s_command = {0};
 606              		.loc 1 288 1 view .LVU199
 607 0006 0646     		mov	r6, r0
 608 0008 1546     		mov	r5, r2
 609              		.loc 1 289 26 view .LVU200
 610 000a 0021     		movs	r1, #0
 611              	.LVL28:
 612              		.loc 1 289 26 view .LVU201
 613 000c 4C22     		movs	r2, #76
 614              	.LVL29:
ARM GAS  C:\Users\DJESSOU\AppData\Local\Temp\ccAx4BcF.s 			page 19


 615              		.loc 1 289 26 view .LVU202
 616 000e 01A8     		add	r0, sp, #4
 617              	.LVL30:
 288:STM32Cube_FW_N6/Drivers/BSP/Components/mx66uw1g45g/mx66uw1g45g.c ****   XSPI_RegularCmdTypeDef s_command = {0};
 618              		.loc 1 288 1 view .LVU203
 619 0010 1F46     		mov	r7, r3
 620              		.loc 1 289 26 view .LVU204
 621 0012 FFF7FEFF 		bl	memset
 622              	.LVL31:
 290:STM32Cube_FW_N6/Drivers/BSP/Components/mx66uw1g45g/mx66uw1g45g.c **** 
 291:STM32Cube_FW_N6/Drivers/BSP/Components/mx66uw1g45g/mx66uw1g45g.c ****   /* OPI mode and 3-bytes address size not supported by memory */
 292:STM32Cube_FW_N6/Drivers/BSP/Components/mx66uw1g45g/mx66uw1g45g.c ****   if ((Mode == MX66UW1G45G_OPI_MODE) && (AddressWidth == MX66UW1G45G_3BYTES_SIZE))
 623              		.loc 1 292 3 is_stmt 1 view .LVU205
 624              		.loc 1 292 6 is_stmt 0 view .LVU206
 625 0016 012C     		cmp	r4, #1
 626 0018 04D1     		bne	.L37
 627              		.loc 1 292 38 discriminator 1 view .LVU207
 628 001a 25B9     		cbnz	r5, .L38
 629              	.L45:
 293:STM32Cube_FW_N6/Drivers/BSP/Components/mx66uw1g45g/mx66uw1g45g.c ****   {
 294:STM32Cube_FW_N6/Drivers/BSP/Components/mx66uw1g45g/mx66uw1g45g.c ****     return MX66UW1G45G_ERROR;
 630              		.loc 1 294 12 view .LVU208
 631 001c 4FF0FF30 		mov	r0, #-1
 632              	.L36:
 295:STM32Cube_FW_N6/Drivers/BSP/Components/mx66uw1g45g/mx66uw1g45g.c ****   }
 296:STM32Cube_FW_N6/Drivers/BSP/Components/mx66uw1g45g/mx66uw1g45g.c **** 
 297:STM32Cube_FW_N6/Drivers/BSP/Components/mx66uw1g45g/mx66uw1g45g.c ****   /* Initialize the program command */
 298:STM32Cube_FW_N6/Drivers/BSP/Components/mx66uw1g45g/mx66uw1g45g.c ****   s_command.OperationType = HAL_XSPI_OPTYPE_COMMON_CFG;
 299:STM32Cube_FW_N6/Drivers/BSP/Components/mx66uw1g45g/mx66uw1g45g.c ****   s_command.InstructionMode = (Mode == MX66UW1G45G_SPI_MODE)
 300:STM32Cube_FW_N6/Drivers/BSP/Components/mx66uw1g45g/mx66uw1g45g.c ****                                   ? HAL_XSPI_INSTRUCTION_1_LINE
 301:STM32Cube_FW_N6/Drivers/BSP/Components/mx66uw1g45g/mx66uw1g45g.c ****                                   : HAL_XSPI_INSTRUCTION_8_LINES;
 302:STM32Cube_FW_N6/Drivers/BSP/Components/mx66uw1g45g/mx66uw1g45g.c ****   s_command.InstructionDTRMode = HAL_XSPI_INSTRUCTION_DTR_DISABLE;
 303:STM32Cube_FW_N6/Drivers/BSP/Components/mx66uw1g45g/mx66uw1g45g.c ****   s_command.InstructionWidth = (Mode == MX66UW1G45G_SPI_MODE)
 304:STM32Cube_FW_N6/Drivers/BSP/Components/mx66uw1g45g/mx66uw1g45g.c ****                                    ? HAL_XSPI_INSTRUCTION_8_BITS
 305:STM32Cube_FW_N6/Drivers/BSP/Components/mx66uw1g45g/mx66uw1g45g.c ****                                    : HAL_XSPI_INSTRUCTION_16_BITS;
 306:STM32Cube_FW_N6/Drivers/BSP/Components/mx66uw1g45g/mx66uw1g45g.c ****   s_command.Instruction = (Mode == MX66UW1G45G_SPI_MODE)
 307:STM32Cube_FW_N6/Drivers/BSP/Components/mx66uw1g45g/mx66uw1g45g.c ****                               ? ((AddressWidth == MX66UW1G45G_3BYTES_SIZE)
 308:STM32Cube_FW_N6/Drivers/BSP/Components/mx66uw1g45g/mx66uw1g45g.c ****                                      ? MX66UW1G45G_PAGE_PROG_CMD
 309:STM32Cube_FW_N6/Drivers/BSP/Components/mx66uw1g45g/mx66uw1g45g.c ****                                      : MX66UW1G45G_4_BYTE_PAGE_PROG_CMD)
 310:STM32Cube_FW_N6/Drivers/BSP/Components/mx66uw1g45g/mx66uw1g45g.c ****                               : MX66UW1G45G_OCTA_PAGE_PROG_CMD;
 311:STM32Cube_FW_N6/Drivers/BSP/Components/mx66uw1g45g/mx66uw1g45g.c ****   s_command.AddressMode = (Mode == MX66UW1G45G_SPI_MODE)
 312:STM32Cube_FW_N6/Drivers/BSP/Components/mx66uw1g45g/mx66uw1g45g.c ****                               ? HAL_XSPI_ADDRESS_1_LINE
 313:STM32Cube_FW_N6/Drivers/BSP/Components/mx66uw1g45g/mx66uw1g45g.c ****                               : HAL_XSPI_ADDRESS_8_LINES;
 314:STM32Cube_FW_N6/Drivers/BSP/Components/mx66uw1g45g/mx66uw1g45g.c ****   s_command.AddressDTRMode = HAL_XSPI_ADDRESS_DTR_DISABLE;
 315:STM32Cube_FW_N6/Drivers/BSP/Components/mx66uw1g45g/mx66uw1g45g.c ****   s_command.AddressWidth = (AddressWidth == MX66UW1G45G_3BYTES_SIZE)
 316:STM32Cube_FW_N6/Drivers/BSP/Components/mx66uw1g45g/mx66uw1g45g.c ****                                ? HAL_XSPI_ADDRESS_24_BITS
 317:STM32Cube_FW_N6/Drivers/BSP/Components/mx66uw1g45g/mx66uw1g45g.c ****                                : HAL_XSPI_ADDRESS_32_BITS;
 318:STM32Cube_FW_N6/Drivers/BSP/Components/mx66uw1g45g/mx66uw1g45g.c ****   s_command.Address = WriteAddr;
 319:STM32Cube_FW_N6/Drivers/BSP/Components/mx66uw1g45g/mx66uw1g45g.c ****   s_command.AlternateBytesMode = HAL_XSPI_ALT_BYTES_NONE;
 320:STM32Cube_FW_N6/Drivers/BSP/Components/mx66uw1g45g/mx66uw1g45g.c ****   s_command.DataMode = (Mode == MX66UW1G45G_SPI_MODE) ? HAL_XSPI_DATA_1_LINE : HAL_XSPI_DATA_8_LINE
 321:STM32Cube_FW_N6/Drivers/BSP/Components/mx66uw1g45g/mx66uw1g45g.c ****   s_command.DataDTRMode = HAL_XSPI_DATA_DTR_DISABLE;
 322:STM32Cube_FW_N6/Drivers/BSP/Components/mx66uw1g45g/mx66uw1g45g.c ****   s_command.DummyCycles = 0U;
 323:STM32Cube_FW_N6/Drivers/BSP/Components/mx66uw1g45g/mx66uw1g45g.c ****   s_command.DataLength = Size;
 324:STM32Cube_FW_N6/Drivers/BSP/Components/mx66uw1g45g/mx66uw1g45g.c ****   s_command.DQSMode = HAL_XSPI_DQS_DISABLE;
 325:STM32Cube_FW_N6/Drivers/BSP/Components/mx66uw1g45g/mx66uw1g45g.c ****  #if defined (XSPI_CCR_SIOO)
 326:STM32Cube_FW_N6/Drivers/BSP/Components/mx66uw1g45g/mx66uw1g45g.c ****   s_command.SIOOMode            = HAL_XSPI_SIOO_INST_EVERY_CMD;
 327:STM32Cube_FW_N6/Drivers/BSP/Components/mx66uw1g45g/mx66uw1g45g.c ****  #endif
ARM GAS  C:\Users\DJESSOU\AppData\Local\Temp\ccAx4BcF.s 			page 20


 328:STM32Cube_FW_N6/Drivers/BSP/Components/mx66uw1g45g/mx66uw1g45g.c **** 
 329:STM32Cube_FW_N6/Drivers/BSP/Components/mx66uw1g45g/mx66uw1g45g.c ****   /* Configure the command */
 330:STM32Cube_FW_N6/Drivers/BSP/Components/mx66uw1g45g/mx66uw1g45g.c ****   if (HAL_XSPI_Command(Ctx, &s_command, HAL_XSPI_TIMEOUT_DEFAULT_VALUE) != HAL_OK)
 331:STM32Cube_FW_N6/Drivers/BSP/Components/mx66uw1g45g/mx66uw1g45g.c ****   {
 332:STM32Cube_FW_N6/Drivers/BSP/Components/mx66uw1g45g/mx66uw1g45g.c ****     return MX66UW1G45G_ERROR;
 333:STM32Cube_FW_N6/Drivers/BSP/Components/mx66uw1g45g/mx66uw1g45g.c ****   }
 334:STM32Cube_FW_N6/Drivers/BSP/Components/mx66uw1g45g/mx66uw1g45g.c **** 
 335:STM32Cube_FW_N6/Drivers/BSP/Components/mx66uw1g45g/mx66uw1g45g.c ****   /* Transmission of the data */
 336:STM32Cube_FW_N6/Drivers/BSP/Components/mx66uw1g45g/mx66uw1g45g.c ****   if (HAL_XSPI_Transmit(Ctx, pData, HAL_XSPI_TIMEOUT_DEFAULT_VALUE) != HAL_OK)
 337:STM32Cube_FW_N6/Drivers/BSP/Components/mx66uw1g45g/mx66uw1g45g.c ****   {
 338:STM32Cube_FW_N6/Drivers/BSP/Components/mx66uw1g45g/mx66uw1g45g.c ****     return MX66UW1G45G_ERROR;
 339:STM32Cube_FW_N6/Drivers/BSP/Components/mx66uw1g45g/mx66uw1g45g.c ****   }
 340:STM32Cube_FW_N6/Drivers/BSP/Components/mx66uw1g45g/mx66uw1g45g.c **** 
 341:STM32Cube_FW_N6/Drivers/BSP/Components/mx66uw1g45g/mx66uw1g45g.c ****   return MX66UW1G45G_OK;
 342:STM32Cube_FW_N6/Drivers/BSP/Components/mx66uw1g45g/mx66uw1g45g.c **** }
 633              		.loc 1 342 1 view .LVU209
 634 0020 15B0     		add	sp, sp, #84
 635              		.cfi_remember_state
 636              		.cfi_def_cfa_offset 20
 637              		@ sp needed
 638 0022 F0BD     		pop	{r4, r5, r6, r7, pc}
 639              	.LVL32:
 640              	.L37:
 641              		.cfi_restore_state
 298:STM32Cube_FW_N6/Drivers/BSP/Components/mx66uw1g45g/mx66uw1g45g.c ****   s_command.InstructionMode = (Mode == MX66UW1G45G_SPI_MODE)
 642              		.loc 1 298 3 is_stmt 1 view .LVU210
 299:STM32Cube_FW_N6/Drivers/BSP/Components/mx66uw1g45g/mx66uw1g45g.c ****                                   ? HAL_XSPI_INSTRUCTION_1_LINE
 643              		.loc 1 299 3 view .LVU211
 301:STM32Cube_FW_N6/Drivers/BSP/Components/mx66uw1g45g/mx66uw1g45g.c ****   s_command.InstructionDTRMode = HAL_XSPI_INSTRUCTION_DTR_DISABLE;
 644              		.loc 1 301 35 is_stmt 0 view .LVU212
 645 0024 74B3     		cbz	r4, .L40
 646              	.L38:
 303:STM32Cube_FW_N6/Drivers/BSP/Components/mx66uw1g45g/mx66uw1g45g.c ****                                    ? HAL_XSPI_INSTRUCTION_8_BITS
 647              		.loc 1 303 30 view .LVU213
 648 0026 0422     		movs	r2, #4
 649 0028 1023     		movs	r3, #16
 650 002a CDE90423 		strd	r2, r3, [sp, #16]
 306:STM32Cube_FW_N6/Drivers/BSP/Components/mx66uw1g45g/mx66uw1g45g.c ****                               ? ((AddressWidth == MX66UW1G45G_3BYTES_SIZE)
 651              		.loc 1 306 3 is_stmt 1 view .LVU214
 311:STM32Cube_FW_N6/Drivers/BSP/Components/mx66uw1g45g/mx66uw1g45g.c ****                               ? HAL_XSPI_ADDRESS_1_LINE
 652              		.loc 1 311 3 view .LVU215
 303:STM32Cube_FW_N6/Drivers/BSP/Components/mx66uw1g45g/mx66uw1g45g.c ****                                    ? HAL_XSPI_INSTRUCTION_8_BITS
 653              		.loc 1 303 30 is_stmt 0 view .LVU216
 654 002e 41F2ED22 		movw	r2, #4845
 313:STM32Cube_FW_N6/Drivers/BSP/Components/mx66uw1g45g/mx66uw1g45g.c ****   s_command.AddressDTRMode = HAL_XSPI_ADDRESS_DTR_DISABLE;
 655              		.loc 1 313 31 discriminator 2 view .LVU217
 656 0032 4FF48063 		mov	r3, #1024
 657              	.L41:
 317:STM32Cube_FW_N6/Drivers/BSP/Components/mx66uw1g45g/mx66uw1g45g.c ****   s_command.Address = WriteAddr;
 658              		.loc 1 317 32 discriminator 1 view .LVU218
 659 0036 002D     		cmp	r5, #0
 311:STM32Cube_FW_N6/Drivers/BSP/Components/mx66uw1g45g/mx66uw1g45g.c ****                               ? HAL_XSPI_ADDRESS_1_LINE
 660              		.loc 1 311 25 view .LVU219
 661 0038 0893     		str	r3, [sp, #32]
 314:STM32Cube_FW_N6/Drivers/BSP/Components/mx66uw1g45g/mx66uw1g45g.c ****   s_command.AddressWidth = (AddressWidth == MX66UW1G45G_3BYTES_SIZE)
 662              		.loc 1 314 3 is_stmt 1 view .LVU220
 315:STM32Cube_FW_N6/Drivers/BSP/Components/mx66uw1g45g/mx66uw1g45g.c ****                                ? HAL_XSPI_ADDRESS_24_BITS
ARM GAS  C:\Users\DJESSOU\AppData\Local\Temp\ccAx4BcF.s 			page 21


 663              		.loc 1 315 3 view .LVU221
 317:STM32Cube_FW_N6/Drivers/BSP/Components/mx66uw1g45g/mx66uw1g45g.c ****   s_command.Address = WriteAddr;
 664              		.loc 1 317 32 is_stmt 0 discriminator 1 view .LVU222
 665 003a 14BF     		ite	ne
 666 003c 4FF44053 		movne	r3, #12288
 667 0040 4FF40053 		moveq	r3, #8192
 315:STM32Cube_FW_N6/Drivers/BSP/Components/mx66uw1g45g/mx66uw1g45g.c ****                                ? HAL_XSPI_ADDRESS_24_BITS
 668              		.loc 1 315 26 view .LVU223
 669 0044 0993     		str	r3, [sp, #36]
 318:STM32Cube_FW_N6/Drivers/BSP/Components/mx66uw1g45g/mx66uw1g45g.c ****   s_command.AlternateBytesMode = HAL_XSPI_ALT_BYTES_NONE;
 670              		.loc 1 318 3 is_stmt 1 view .LVU224
 318:STM32Cube_FW_N6/Drivers/BSP/Components/mx66uw1g45g/mx66uw1g45g.c ****   s_command.AlternateBytesMode = HAL_XSPI_ALT_BYTES_NONE;
 671              		.loc 1 318 21 is_stmt 0 view .LVU225
 672 0046 1A9B     		ldr	r3, [sp, #104]
 320:STM32Cube_FW_N6/Drivers/BSP/Components/mx66uw1g45g/mx66uw1g45g.c ****   s_command.DataDTRMode = HAL_XSPI_DATA_DTR_DISABLE;
 673              		.loc 1 320 78 discriminator 1 view .LVU226
 674 0048 002C     		cmp	r4, #0
 318:STM32Cube_FW_N6/Drivers/BSP/Components/mx66uw1g45g/mx66uw1g45g.c ****   s_command.AlternateBytesMode = HAL_XSPI_ALT_BYTES_NONE;
 675              		.loc 1 318 21 view .LVU227
 676 004a 0793     		str	r3, [sp, #28]
 319:STM32Cube_FW_N6/Drivers/BSP/Components/mx66uw1g45g/mx66uw1g45g.c ****   s_command.DataMode = (Mode == MX66UW1G45G_SPI_MODE) ? HAL_XSPI_DATA_1_LINE : HAL_XSPI_DATA_8_LINE
 677              		.loc 1 319 3 is_stmt 1 view .LVU228
 320:STM32Cube_FW_N6/Drivers/BSP/Components/mx66uw1g45g/mx66uw1g45g.c ****   s_command.DataDTRMode = HAL_XSPI_DATA_DTR_DISABLE;
 678              		.loc 1 320 3 view .LVU229
 320:STM32Cube_FW_N6/Drivers/BSP/Components/mx66uw1g45g/mx66uw1g45g.c ****   s_command.DataDTRMode = HAL_XSPI_DATA_DTR_DISABLE;
 679              		.loc 1 320 78 is_stmt 0 discriminator 1 view .LVU230
 680 004c 14BF     		ite	ne
 681 004e 4FF08063 		movne	r3, #67108864
 682 0052 4FF08073 		moveq	r3, #16777216
 320:STM32Cube_FW_N6/Drivers/BSP/Components/mx66uw1g45g/mx66uw1g45g.c ****   s_command.DataDTRMode = HAL_XSPI_DATA_DTR_DISABLE;
 683              		.loc 1 320 22 discriminator 4 view .LVU231
 684 0056 0F93     		str	r3, [sp, #60]
 321:STM32Cube_FW_N6/Drivers/BSP/Components/mx66uw1g45g/mx66uw1g45g.c ****   s_command.DummyCycles = 0U;
 685              		.loc 1 321 3 is_stmt 1 view .LVU232
 322:STM32Cube_FW_N6/Drivers/BSP/Components/mx66uw1g45g/mx66uw1g45g.c ****   s_command.DataLength = Size;
 686              		.loc 1 322 3 view .LVU233
 323:STM32Cube_FW_N6/Drivers/BSP/Components/mx66uw1g45g/mx66uw1g45g.c ****   s_command.DQSMode = HAL_XSPI_DQS_DISABLE;
 687              		.loc 1 323 3 view .LVU234
 323:STM32Cube_FW_N6/Drivers/BSP/Components/mx66uw1g45g/mx66uw1g45g.c ****   s_command.DQSMode = HAL_XSPI_DQS_DISABLE;
 688              		.loc 1 323 24 is_stmt 0 view .LVU235
 689 0058 1B9B     		ldr	r3, [sp, #108]
 306:STM32Cube_FW_N6/Drivers/BSP/Components/mx66uw1g45g/mx66uw1g45g.c ****                               ? ((AddressWidth == MX66UW1G45G_3BYTES_SIZE)
 690              		.loc 1 306 25 view .LVU236
 691 005a 0392     		str	r2, [sp, #12]
 330:STM32Cube_FW_N6/Drivers/BSP/Components/mx66uw1g45g/mx66uw1g45g.c ****   {
 692              		.loc 1 330 7 view .LVU237
 693 005c 3046     		mov	r0, r6
 694 005e 41F28832 		movw	r2, #5000
 695 0062 01A9     		add	r1, sp, #4
 323:STM32Cube_FW_N6/Drivers/BSP/Components/mx66uw1g45g/mx66uw1g45g.c ****   s_command.DQSMode = HAL_XSPI_DQS_DISABLE;
 696              		.loc 1 323 24 view .LVU238
 697 0064 1093     		str	r3, [sp, #64]
 324:STM32Cube_FW_N6/Drivers/BSP/Components/mx66uw1g45g/mx66uw1g45g.c ****  #if defined (XSPI_CCR_SIOO)
 698              		.loc 1 324 3 is_stmt 1 view .LVU239
 330:STM32Cube_FW_N6/Drivers/BSP/Components/mx66uw1g45g/mx66uw1g45g.c ****   {
 699              		.loc 1 330 3 view .LVU240
 330:STM32Cube_FW_N6/Drivers/BSP/Components/mx66uw1g45g/mx66uw1g45g.c ****   {
ARM GAS  C:\Users\DJESSOU\AppData\Local\Temp\ccAx4BcF.s 			page 22


 700              		.loc 1 330 7 is_stmt 0 view .LVU241
 701 0066 FFF7FEFF 		bl	HAL_XSPI_Command
 702              	.LVL33:
 330:STM32Cube_FW_N6/Drivers/BSP/Components/mx66uw1g45g/mx66uw1g45g.c ****   {
 703              		.loc 1 330 6 discriminator 1 view .LVU242
 704 006a 0028     		cmp	r0, #0
 705 006c D6D1     		bne	.L45
 336:STM32Cube_FW_N6/Drivers/BSP/Components/mx66uw1g45g/mx66uw1g45g.c ****   {
 706              		.loc 1 336 3 is_stmt 1 view .LVU243
 336:STM32Cube_FW_N6/Drivers/BSP/Components/mx66uw1g45g/mx66uw1g45g.c ****   {
 707              		.loc 1 336 7 is_stmt 0 view .LVU244
 708 006e 41F28832 		movw	r2, #5000
 709 0072 3946     		mov	r1, r7
 710 0074 3046     		mov	r0, r6
 711 0076 FFF7FEFF 		bl	HAL_XSPI_Transmit
 712              	.LVL34:
 336:STM32Cube_FW_N6/Drivers/BSP/Components/mx66uw1g45g/mx66uw1g45g.c ****   {
 713              		.loc 1 336 6 discriminator 1 view .LVU245
 714 007a 0038     		subs	r0, r0, #0
 715 007c 18BF     		it	ne
 716 007e 0120     		movne	r0, #1
 717 0080 4042     		rsbs	r0, r0, #0
 718 0082 CDE7     		b	.L36
 719              	.L40:
 299:STM32Cube_FW_N6/Drivers/BSP/Components/mx66uw1g45g/mx66uw1g45g.c ****                                   ? HAL_XSPI_INSTRUCTION_1_LINE
 720              		.loc 1 299 29 view .LVU246
 721 0084 0123     		movs	r3, #1
 310:STM32Cube_FW_N6/Drivers/BSP/Components/mx66uw1g45g/mx66uw1g45g.c ****   s_command.AddressMode = (Mode == MX66UW1G45G_SPI_MODE)
 722              		.loc 1 310 31 discriminator 3 view .LVU247
 723 0086 002D     		cmp	r5, #0
 299:STM32Cube_FW_N6/Drivers/BSP/Components/mx66uw1g45g/mx66uw1g45g.c ****                                   ? HAL_XSPI_INSTRUCTION_1_LINE
 724              		.loc 1 299 29 view .LVU248
 725 0088 0493     		str	r3, [sp, #16]
 302:STM32Cube_FW_N6/Drivers/BSP/Components/mx66uw1g45g/mx66uw1g45g.c ****   s_command.InstructionWidth = (Mode == MX66UW1G45G_SPI_MODE)
 726              		.loc 1 302 3 is_stmt 1 view .LVU249
 303:STM32Cube_FW_N6/Drivers/BSP/Components/mx66uw1g45g/mx66uw1g45g.c ****                                    ? HAL_XSPI_INSTRUCTION_8_BITS
 727              		.loc 1 303 3 view .LVU250
 306:STM32Cube_FW_N6/Drivers/BSP/Components/mx66uw1g45g/mx66uw1g45g.c ****                               ? ((AddressWidth == MX66UW1G45G_3BYTES_SIZE)
 728              		.loc 1 306 3 view .LVU251
 310:STM32Cube_FW_N6/Drivers/BSP/Components/mx66uw1g45g/mx66uw1g45g.c ****   s_command.AddressMode = (Mode == MX66UW1G45G_SPI_MODE)
 729              		.loc 1 310 31 is_stmt 0 discriminator 3 view .LVU252
 730 008a 14BF     		ite	ne
 731 008c 1222     		movne	r2, #18
 732 008e 0222     		moveq	r2, #2
 311:STM32Cube_FW_N6/Drivers/BSP/Components/mx66uw1g45g/mx66uw1g45g.c ****                               ? HAL_XSPI_ADDRESS_1_LINE
 733              		.loc 1 311 3 is_stmt 1 view .LVU253
 313:STM32Cube_FW_N6/Drivers/BSP/Components/mx66uw1g45g/mx66uw1g45g.c ****   s_command.AddressDTRMode = HAL_XSPI_ADDRESS_DTR_DISABLE;
 734              		.loc 1 313 31 is_stmt 0 discriminator 1 view .LVU254
 735 0090 4FF48073 		mov	r3, #256
 736 0094 CFE7     		b	.L41
 737              		.cfi_endproc
 738              	.LFE866:
 740              		.section	.text.MX66UW1G45G_PageProgramDTR,"ax",%progbits
 741              		.align	1
 742              		.global	MX66UW1G45G_PageProgramDTR
 743              		.syntax unified
 744              		.thumb
ARM GAS  C:\Users\DJESSOU\AppData\Local\Temp\ccAx4BcF.s 			page 23


 745              		.thumb_func
 747              	MX66UW1G45G_PageProgramDTR:
 748              	.LVL35:
 749              	.LFB867:
 343:STM32Cube_FW_N6/Drivers/BSP/Components/mx66uw1g45g/mx66uw1g45g.c **** 
 344:STM32Cube_FW_N6/Drivers/BSP/Components/mx66uw1g45g/mx66uw1g45g.c **** /**
 345:STM32Cube_FW_N6/Drivers/BSP/Components/mx66uw1g45g/mx66uw1g45g.c ****   * @brief  Writes an amount of data to the XSPI memory on DTR mode.
 346:STM32Cube_FW_N6/Drivers/BSP/Components/mx66uw1g45g/mx66uw1g45g.c ****   *         SPI/OPI
 347:STM32Cube_FW_N6/Drivers/BSP/Components/mx66uw1g45g/mx66uw1g45g.c ****   * @param  Ctx Component object pointer
 348:STM32Cube_FW_N6/Drivers/BSP/Components/mx66uw1g45g/mx66uw1g45g.c ****   * @param  pData Pointer to data to be written
 349:STM32Cube_FW_N6/Drivers/BSP/Components/mx66uw1g45g/mx66uw1g45g.c ****   * @param  WriteAddr Write start address
 350:STM32Cube_FW_N6/Drivers/BSP/Components/mx66uw1g45g/mx66uw1g45g.c ****   * @param  Size Size of data to write. Range 1 ~ MX66UW1G45G_PAGE_SIZE
 351:STM32Cube_FW_N6/Drivers/BSP/Components/mx66uw1g45g/mx66uw1g45g.c ****   * @note   Only OPI mode support DTR transfer rate
 352:STM32Cube_FW_N6/Drivers/BSP/Components/mx66uw1g45g/mx66uw1g45g.c ****   * @retval XSPI memory status
 353:STM32Cube_FW_N6/Drivers/BSP/Components/mx66uw1g45g/mx66uw1g45g.c ****   */
 354:STM32Cube_FW_N6/Drivers/BSP/Components/mx66uw1g45g/mx66uw1g45g.c **** int32_t MX66UW1G45G_PageProgramDTR(XSPI_HandleTypeDef *Ctx, uint8_t *pData, uint32_t WriteAddr, uin
 355:STM32Cube_FW_N6/Drivers/BSP/Components/mx66uw1g45g/mx66uw1g45g.c **** {
 750              		.loc 1 355 1 is_stmt 1 view -0
 751              		.cfi_startproc
 752              		@ args = 0, pretend = 0, frame = 80
 753              		@ frame_needed = 0, uses_anonymous_args = 0
 356:STM32Cube_FW_N6/Drivers/BSP/Components/mx66uw1g45g/mx66uw1g45g.c ****   XSPI_RegularCmdTypeDef s_command = {0};
 754              		.loc 1 356 3 view .LVU256
 355:STM32Cube_FW_N6/Drivers/BSP/Components/mx66uw1g45g/mx66uw1g45g.c ****   XSPI_RegularCmdTypeDef s_command = {0};
 755              		.loc 1 355 1 is_stmt 0 view .LVU257
 756 0000 F0B5     		push	{r4, r5, r6, r7, lr}
 757              		.cfi_def_cfa_offset 20
 758              		.cfi_offset 4, -20
 759              		.cfi_offset 5, -16
 760              		.cfi_offset 6, -12
 761              		.cfi_offset 7, -8
 762              		.cfi_offset 14, -4
 763 0002 95B0     		sub	sp, sp, #84
 764              		.cfi_def_cfa_offset 104
 355:STM32Cube_FW_N6/Drivers/BSP/Components/mx66uw1g45g/mx66uw1g45g.c ****   XSPI_RegularCmdTypeDef s_command = {0};
 765              		.loc 1 355 1 view .LVU258
 766 0004 0446     		mov	r4, r0
 767 0006 1746     		mov	r7, r2
 768 0008 0D46     		mov	r5, r1
 769              		.loc 1 356 26 view .LVU259
 770 000a 4C22     		movs	r2, #76
 771              	.LVL36:
 772              		.loc 1 356 26 view .LVU260
 773 000c 0021     		movs	r1, #0
 774              	.LVL37:
 775              		.loc 1 356 26 view .LVU261
 776 000e 01A8     		add	r0, sp, #4
 777              	.LVL38:
 355:STM32Cube_FW_N6/Drivers/BSP/Components/mx66uw1g45g/mx66uw1g45g.c ****   XSPI_RegularCmdTypeDef s_command = {0};
 778              		.loc 1 355 1 view .LVU262
 779 0010 1E46     		mov	r6, r3
 780              		.loc 1 356 26 view .LVU263
 781 0012 FFF7FEFF 		bl	memset
 782              	.LVL39:
 357:STM32Cube_FW_N6/Drivers/BSP/Components/mx66uw1g45g/mx66uw1g45g.c **** 
 358:STM32Cube_FW_N6/Drivers/BSP/Components/mx66uw1g45g/mx66uw1g45g.c ****   /* Initialize the program command */
 359:STM32Cube_FW_N6/Drivers/BSP/Components/mx66uw1g45g/mx66uw1g45g.c ****   s_command.OperationType = HAL_XSPI_OPTYPE_COMMON_CFG;
ARM GAS  C:\Users\DJESSOU\AppData\Local\Temp\ccAx4BcF.s 			page 24


 783              		.loc 1 359 3 is_stmt 1 view .LVU264
 360:STM32Cube_FW_N6/Drivers/BSP/Components/mx66uw1g45g/mx66uw1g45g.c ****   s_command.InstructionMode = HAL_XSPI_INSTRUCTION_8_LINES;
 784              		.loc 1 360 3 view .LVU265
 785              		.loc 1 360 29 is_stmt 0 view .LVU266
 786 0016 0423     		movs	r3, #4
 361:STM32Cube_FW_N6/Drivers/BSP/Components/mx66uw1g45g/mx66uw1g45g.c ****   s_command.InstructionDTRMode = HAL_XSPI_INSTRUCTION_DTR_ENABLE;
 362:STM32Cube_FW_N6/Drivers/BSP/Components/mx66uw1g45g/mx66uw1g45g.c ****   s_command.InstructionWidth = HAL_XSPI_INSTRUCTION_16_BITS;
 787              		.loc 1 362 30 view .LVU267
 788 0018 0821     		movs	r1, #8
 360:STM32Cube_FW_N6/Drivers/BSP/Components/mx66uw1g45g/mx66uw1g45g.c ****   s_command.InstructionMode = HAL_XSPI_INSTRUCTION_8_LINES;
 789              		.loc 1 360 29 view .LVU268
 790 001a 0493     		str	r3, [sp, #16]
 361:STM32Cube_FW_N6/Drivers/BSP/Components/mx66uw1g45g/mx66uw1g45g.c ****   s_command.InstructionDTRMode = HAL_XSPI_INSTRUCTION_DTR_ENABLE;
 791              		.loc 1 361 3 is_stmt 1 view .LVU269
 792              		.loc 1 362 30 is_stmt 0 view .LVU270
 793 001c 1023     		movs	r3, #16
 794 001e CDE90531 		strd	r3, r1, [sp, #20]
 363:STM32Cube_FW_N6/Drivers/BSP/Components/mx66uw1g45g/mx66uw1g45g.c ****   s_command.Instruction = MX66UW1G45G_OCTA_PAGE_PROG_CMD;
 795              		.loc 1 363 3 is_stmt 1 view .LVU271
 796              		.loc 1 363 25 is_stmt 0 view .LVU272
 797 0022 41F2ED23 		movw	r3, #4845
 798 0026 0393     		str	r3, [sp, #12]
 364:STM32Cube_FW_N6/Drivers/BSP/Components/mx66uw1g45g/mx66uw1g45g.c ****   s_command.AddressMode = HAL_XSPI_ADDRESS_8_LINES;
 799              		.loc 1 364 3 is_stmt 1 view .LVU273
 800              		.loc 1 364 25 is_stmt 0 view .LVU274
 801 0028 4FF48063 		mov	r3, #1024
 365:STM32Cube_FW_N6/Drivers/BSP/Components/mx66uw1g45g/mx66uw1g45g.c ****   s_command.AddressDTRMode = HAL_XSPI_ADDRESS_DTR_ENABLE;
 366:STM32Cube_FW_N6/Drivers/BSP/Components/mx66uw1g45g/mx66uw1g45g.c ****   s_command.AddressWidth = HAL_XSPI_ADDRESS_32_BITS;
 802              		.loc 1 366 26 view .LVU275
 803 002c 4FF4006E 		mov	lr, #2048
 364:STM32Cube_FW_N6/Drivers/BSP/Components/mx66uw1g45g/mx66uw1g45g.c ****   s_command.AddressMode = HAL_XSPI_ADDRESS_8_LINES;
 804              		.loc 1 364 25 view .LVU276
 805 0030 0893     		str	r3, [sp, #32]
 365:STM32Cube_FW_N6/Drivers/BSP/Components/mx66uw1g45g/mx66uw1g45g.c ****   s_command.AddressDTRMode = HAL_XSPI_ADDRESS_DTR_ENABLE;
 806              		.loc 1 365 3 is_stmt 1 view .LVU277
 807              		.loc 1 366 26 is_stmt 0 view .LVU278
 808 0032 4FF44053 		mov	r3, #12288
 809 0036 CDE9093E 		strd	r3, lr, [sp, #36]
 367:STM32Cube_FW_N6/Drivers/BSP/Components/mx66uw1g45g/mx66uw1g45g.c ****   s_command.Address = WriteAddr;
 810              		.loc 1 367 3 is_stmt 1 view .LVU279
 368:STM32Cube_FW_N6/Drivers/BSP/Components/mx66uw1g45g/mx66uw1g45g.c ****   s_command.AlternateBytesMode = HAL_XSPI_ALT_BYTES_NONE;
 369:STM32Cube_FW_N6/Drivers/BSP/Components/mx66uw1g45g/mx66uw1g45g.c ****   s_command.DataMode = HAL_XSPI_DATA_8_LINES;
 811              		.loc 1 369 22 is_stmt 0 view .LVU280
 812 003a 4FF08063 		mov	r3, #67108864
 813 003e 0F93     		str	r3, [sp, #60]
 370:STM32Cube_FW_N6/Drivers/BSP/Components/mx66uw1g45g/mx66uw1g45g.c ****   s_command.DataDTRMode = HAL_XSPI_DATA_DTR_ENABLE;
 814              		.loc 1 370 25 view .LVU281
 815 0040 4FF00063 		mov	r3, #134217728
 371:STM32Cube_FW_N6/Drivers/BSP/Components/mx66uw1g45g/mx66uw1g45g.c ****   s_command.DummyCycles = 0U;
 372:STM32Cube_FW_N6/Drivers/BSP/Components/mx66uw1g45g/mx66uw1g45g.c ****   s_command.DataLength = Size;
 373:STM32Cube_FW_N6/Drivers/BSP/Components/mx66uw1g45g/mx66uw1g45g.c ****   s_command.DQSMode = HAL_XSPI_DQS_DISABLE;
 374:STM32Cube_FW_N6/Drivers/BSP/Components/mx66uw1g45g/mx66uw1g45g.c ****  #if defined (XSPI_CCR_SIOO)
 375:STM32Cube_FW_N6/Drivers/BSP/Components/mx66uw1g45g/mx66uw1g45g.c ****   s_command.SIOOMode            = HAL_XSPI_SIOO_INST_EVERY_CMD;
 376:STM32Cube_FW_N6/Drivers/BSP/Components/mx66uw1g45g/mx66uw1g45g.c ****  #endif
 377:STM32Cube_FW_N6/Drivers/BSP/Components/mx66uw1g45g/mx66uw1g45g.c **** 
 378:STM32Cube_FW_N6/Drivers/BSP/Components/mx66uw1g45g/mx66uw1g45g.c ****   /* Configure the command */
 379:STM32Cube_FW_N6/Drivers/BSP/Components/mx66uw1g45g/mx66uw1g45g.c ****   if (HAL_XSPI_Command(Ctx, &s_command, HAL_XSPI_TIMEOUT_DEFAULT_VALUE) != HAL_OK)
ARM GAS  C:\Users\DJESSOU\AppData\Local\Temp\ccAx4BcF.s 			page 25


 816              		.loc 1 379 7 view .LVU282
 817 0044 41F28832 		movw	r2, #5000
 818 0048 2046     		mov	r0, r4
 819 004a 01A9     		add	r1, sp, #4
 372:STM32Cube_FW_N6/Drivers/BSP/Components/mx66uw1g45g/mx66uw1g45g.c ****   s_command.DQSMode = HAL_XSPI_DQS_DISABLE;
 820              		.loc 1 372 24 view .LVU283
 821 004c CDE91063 		strd	r6, r3, [sp, #64]
 367:STM32Cube_FW_N6/Drivers/BSP/Components/mx66uw1g45g/mx66uw1g45g.c ****   s_command.AlternateBytesMode = HAL_XSPI_ALT_BYTES_NONE;
 822              		.loc 1 367 21 view .LVU284
 823 0050 0797     		str	r7, [sp, #28]
 368:STM32Cube_FW_N6/Drivers/BSP/Components/mx66uw1g45g/mx66uw1g45g.c ****   s_command.DataMode = HAL_XSPI_DATA_8_LINES;
 824              		.loc 1 368 3 is_stmt 1 view .LVU285
 369:STM32Cube_FW_N6/Drivers/BSP/Components/mx66uw1g45g/mx66uw1g45g.c ****   s_command.DataDTRMode = HAL_XSPI_DATA_DTR_ENABLE;
 825              		.loc 1 369 3 view .LVU286
 370:STM32Cube_FW_N6/Drivers/BSP/Components/mx66uw1g45g/mx66uw1g45g.c ****   s_command.DummyCycles = 0U;
 826              		.loc 1 370 3 view .LVU287
 373:STM32Cube_FW_N6/Drivers/BSP/Components/mx66uw1g45g/mx66uw1g45g.c ****  #if defined (XSPI_CCR_SIOO)
 827              		.loc 1 373 3 view .LVU288
 828              		.loc 1 379 3 view .LVU289
 829              		.loc 1 379 7 is_stmt 0 view .LVU290
 830 0052 FFF7FEFF 		bl	HAL_XSPI_Command
 831              	.LVL40:
 832              		.loc 1 379 6 discriminator 1 view .LVU291
 833 0056 58B9     		cbnz	r0, .L51
 380:STM32Cube_FW_N6/Drivers/BSP/Components/mx66uw1g45g/mx66uw1g45g.c ****   {
 381:STM32Cube_FW_N6/Drivers/BSP/Components/mx66uw1g45g/mx66uw1g45g.c ****     return MX66UW1G45G_ERROR;
 382:STM32Cube_FW_N6/Drivers/BSP/Components/mx66uw1g45g/mx66uw1g45g.c ****   }
 383:STM32Cube_FW_N6/Drivers/BSP/Components/mx66uw1g45g/mx66uw1g45g.c **** 
 384:STM32Cube_FW_N6/Drivers/BSP/Components/mx66uw1g45g/mx66uw1g45g.c ****   /* Transmission of the data */
 385:STM32Cube_FW_N6/Drivers/BSP/Components/mx66uw1g45g/mx66uw1g45g.c ****   if (HAL_XSPI_Transmit(Ctx, pData, HAL_XSPI_TIMEOUT_DEFAULT_VALUE) != HAL_OK)
 834              		.loc 1 385 3 is_stmt 1 view .LVU292
 835              		.loc 1 385 7 is_stmt 0 view .LVU293
 836 0058 41F28832 		movw	r2, #5000
 837 005c 2946     		mov	r1, r5
 838 005e 2046     		mov	r0, r4
 839 0060 FFF7FEFF 		bl	HAL_XSPI_Transmit
 840              	.LVL41:
 841              		.loc 1 385 6 discriminator 1 view .LVU294
 842 0064 0038     		subs	r0, r0, #0
 843 0066 18BF     		it	ne
 844 0068 0120     		movne	r0, #1
 845 006a 4042     		rsbs	r0, r0, #0
 846              	.L49:
 386:STM32Cube_FW_N6/Drivers/BSP/Components/mx66uw1g45g/mx66uw1g45g.c ****   {
 387:STM32Cube_FW_N6/Drivers/BSP/Components/mx66uw1g45g/mx66uw1g45g.c ****     return MX66UW1G45G_ERROR;
 388:STM32Cube_FW_N6/Drivers/BSP/Components/mx66uw1g45g/mx66uw1g45g.c ****   }
 389:STM32Cube_FW_N6/Drivers/BSP/Components/mx66uw1g45g/mx66uw1g45g.c **** 
 390:STM32Cube_FW_N6/Drivers/BSP/Components/mx66uw1g45g/mx66uw1g45g.c ****   return MX66UW1G45G_OK;
 391:STM32Cube_FW_N6/Drivers/BSP/Components/mx66uw1g45g/mx66uw1g45g.c **** }
 847              		.loc 1 391 1 view .LVU295
 848 006c 15B0     		add	sp, sp, #84
 849              		.cfi_remember_state
 850              		.cfi_def_cfa_offset 20
 851              		@ sp needed
 852 006e F0BD     		pop	{r4, r5, r6, r7, pc}
 853              	.LVL42:
 854              	.L51:
ARM GAS  C:\Users\DJESSOU\AppData\Local\Temp\ccAx4BcF.s 			page 26


 855              		.cfi_restore_state
 381:STM32Cube_FW_N6/Drivers/BSP/Components/mx66uw1g45g/mx66uw1g45g.c ****   }
 856              		.loc 1 381 12 view .LVU296
 857 0070 4FF0FF30 		mov	r0, #-1
 858 0074 FAE7     		b	.L49
 859              		.cfi_endproc
 860              	.LFE867:
 862              		.section	.text.MX66UW1G45G_BlockErase,"ax",%progbits
 863              		.align	1
 864              		.global	MX66UW1G45G_BlockErase
 865              		.syntax unified
 866              		.thumb
 867              		.thumb_func
 869              	MX66UW1G45G_BlockErase:
 870              	.LVL43:
 871              	.LFB868:
 392:STM32Cube_FW_N6/Drivers/BSP/Components/mx66uw1g45g/mx66uw1g45g.c **** 
 393:STM32Cube_FW_N6/Drivers/BSP/Components/mx66uw1g45g/mx66uw1g45g.c **** /**
 394:STM32Cube_FW_N6/Drivers/BSP/Components/mx66uw1g45g/mx66uw1g45g.c ****   * @brief  Erases the specified block of the XSPI memory.
 395:STM32Cube_FW_N6/Drivers/BSP/Components/mx66uw1g45g/mx66uw1g45g.c ****   *         MX66UW1G45G support 4K, 64K size block erase commands.
 396:STM32Cube_FW_N6/Drivers/BSP/Components/mx66uw1g45g/mx66uw1g45g.c ****   *         SPI/OPI; 1-1-1/8-8-8
 397:STM32Cube_FW_N6/Drivers/BSP/Components/mx66uw1g45g/mx66uw1g45g.c ****   * @param  Ctx Component object pointer
 398:STM32Cube_FW_N6/Drivers/BSP/Components/mx66uw1g45g/mx66uw1g45g.c ****   * @param  Mode Interface mode
 399:STM32Cube_FW_N6/Drivers/BSP/Components/mx66uw1g45g/mx66uw1g45g.c ****   * @param  AddressWidth Address size
 400:STM32Cube_FW_N6/Drivers/BSP/Components/mx66uw1g45g/mx66uw1g45g.c ****   * @param  BlockAddress Block address to erase
 401:STM32Cube_FW_N6/Drivers/BSP/Components/mx66uw1g45g/mx66uw1g45g.c ****   * @param  BlockSize Block size to erase
 402:STM32Cube_FW_N6/Drivers/BSP/Components/mx66uw1g45g/mx66uw1g45g.c ****   * @retval XSPI memory status
 403:STM32Cube_FW_N6/Drivers/BSP/Components/mx66uw1g45g/mx66uw1g45g.c ****   */
 404:STM32Cube_FW_N6/Drivers/BSP/Components/mx66uw1g45g/mx66uw1g45g.c **** 
 405:STM32Cube_FW_N6/Drivers/BSP/Components/mx66uw1g45g/mx66uw1g45g.c **** int32_t MX66UW1G45G_BlockErase(XSPI_HandleTypeDef *Ctx, MX66UW1G45G_Interface_t Mode, MX66UW1G45G_T
 406:STM32Cube_FW_N6/Drivers/BSP/Components/mx66uw1g45g/mx66uw1g45g.c ****                                MX66UW1G45G_AddressWidth_t AddressWidth, uint32_t BlockAddress,
 407:STM32Cube_FW_N6/Drivers/BSP/Components/mx66uw1g45g/mx66uw1g45g.c ****                                MX66UW1G45G_Erase_t BlockSize)
 408:STM32Cube_FW_N6/Drivers/BSP/Components/mx66uw1g45g/mx66uw1g45g.c **** {
 872              		.loc 1 408 1 is_stmt 1 view -0
 873              		.cfi_startproc
 874              		@ args = 8, pretend = 0, frame = 80
 875              		@ frame_needed = 0, uses_anonymous_args = 0
 409:STM32Cube_FW_N6/Drivers/BSP/Components/mx66uw1g45g/mx66uw1g45g.c **** 
 410:STM32Cube_FW_N6/Drivers/BSP/Components/mx66uw1g45g/mx66uw1g45g.c ****   XSPI_RegularCmdTypeDef s_command = {0};
 876              		.loc 1 410 3 view .LVU298
 408:STM32Cube_FW_N6/Drivers/BSP/Components/mx66uw1g45g/mx66uw1g45g.c **** 
 877              		.loc 1 408 1 is_stmt 0 view .LVU299
 878 0000 2DE9F041 		push	{r4, r5, r6, r7, r8, lr}
 879              		.cfi_def_cfa_offset 24
 880              		.cfi_offset 4, -24
 881              		.cfi_offset 5, -20
 882              		.cfi_offset 6, -16
 883              		.cfi_offset 7, -12
 884              		.cfi_offset 8, -8
 885              		.cfi_offset 14, -4
 886 0004 0F46     		mov	r7, r1
 887 0006 94B0     		sub	sp, sp, #80
 888              		.cfi_def_cfa_offset 104
 408:STM32Cube_FW_N6/Drivers/BSP/Components/mx66uw1g45g/mx66uw1g45g.c **** 
 889              		.loc 1 408 1 view .LVU300
 890 0008 0646     		mov	r6, r0
 891 000a 1446     		mov	r4, r2
ARM GAS  C:\Users\DJESSOU\AppData\Local\Temp\ccAx4BcF.s 			page 27


 892              		.loc 1 410 26 view .LVU301
 893 000c 0021     		movs	r1, #0
 894              	.LVL44:
 895              		.loc 1 410 26 view .LVU302
 896 000e 4C22     		movs	r2, #76
 897              	.LVL45:
 898              		.loc 1 410 26 view .LVU303
 899 0010 01A8     		add	r0, sp, #4
 900              	.LVL46:
 408:STM32Cube_FW_N6/Drivers/BSP/Components/mx66uw1g45g/mx66uw1g45g.c **** 
 901              		.loc 1 408 1 view .LVU304
 902 0012 1D46     		mov	r5, r3
 903 0014 9DF86C80 		ldrb	r8, [sp, #108]	@ zero_extendqisi2
 904              		.loc 1 410 26 view .LVU305
 905 0018 FFF7FEFF 		bl	memset
 906              	.LVL47:
 411:STM32Cube_FW_N6/Drivers/BSP/Components/mx66uw1g45g/mx66uw1g45g.c **** 
 412:STM32Cube_FW_N6/Drivers/BSP/Components/mx66uw1g45g/mx66uw1g45g.c ****   /* SPI mode and DTR transfer not supported by memory */
 413:STM32Cube_FW_N6/Drivers/BSP/Components/mx66uw1g45g/mx66uw1g45g.c ****   if ((Mode == MX66UW1G45G_SPI_MODE) && (Rate == MX66UW1G45G_DTR_TRANSFER))
 907              		.loc 1 413 3 is_stmt 1 view .LVU306
 908              		.loc 1 413 6 is_stmt 0 view .LVU307
 909 001c 002F     		cmp	r7, #0
 910 001e 32D1     		bne	.L62
 911              		.loc 1 413 38 discriminator 1 view .LVU308
 912 0020 012C     		cmp	r4, #1
 913 0022 42D0     		beq	.L63
 414:STM32Cube_FW_N6/Drivers/BSP/Components/mx66uw1g45g/mx66uw1g45g.c ****   {
 415:STM32Cube_FW_N6/Drivers/BSP/Components/mx66uw1g45g/mx66uw1g45g.c ****     return MX66UW1G45G_ERROR;
 416:STM32Cube_FW_N6/Drivers/BSP/Components/mx66uw1g45g/mx66uw1g45g.c ****   }
 417:STM32Cube_FW_N6/Drivers/BSP/Components/mx66uw1g45g/mx66uw1g45g.c **** 
 418:STM32Cube_FW_N6/Drivers/BSP/Components/mx66uw1g45g/mx66uw1g45g.c ****   /* Initialize the erase command */
 419:STM32Cube_FW_N6/Drivers/BSP/Components/mx66uw1g45g/mx66uw1g45g.c ****   s_command.OperationType      = HAL_XSPI_OPTYPE_COMMON_CFG;
 420:STM32Cube_FW_N6/Drivers/BSP/Components/mx66uw1g45g/mx66uw1g45g.c ****   s_command.IOSelect           = HAL_XSPI_SELECT_IO_7_0;
 421:STM32Cube_FW_N6/Drivers/BSP/Components/mx66uw1g45g/mx66uw1g45g.c ****   s_command.InstructionMode    = (Mode == MX66UW1G45G_SPI_MODE)
 422:STM32Cube_FW_N6/Drivers/BSP/Components/mx66uw1g45g/mx66uw1g45g.c ****                                  ? HAL_XSPI_INSTRUCTION_1_LINE
 423:STM32Cube_FW_N6/Drivers/BSP/Components/mx66uw1g45g/mx66uw1g45g.c ****                                  : HAL_XSPI_INSTRUCTION_8_LINES;
 914              		.loc 1 423 34 discriminator 1 view .LVU309
 915 0024 0123     		movs	r3, #1
 916              	.L53:
 421:STM32Cube_FW_N6/Drivers/BSP/Components/mx66uw1g45g/mx66uw1g45g.c ****                                  ? HAL_XSPI_INSTRUCTION_1_LINE
 917              		.loc 1 421 32 view .LVU310
 918 0026 0493     		str	r3, [sp, #16]
 424:STM32Cube_FW_N6/Drivers/BSP/Components/mx66uw1g45g/mx66uw1g45g.c ****   s_command.InstructionDTRMode = (Rate == MX66UW1G45G_DTR_TRANSFER)
 919              		.loc 1 424 3 is_stmt 1 view .LVU311
 425:STM32Cube_FW_N6/Drivers/BSP/Components/mx66uw1g45g/mx66uw1g45g.c ****                                  ? HAL_XSPI_INSTRUCTION_DTR_ENABLE
 426:STM32Cube_FW_N6/Drivers/BSP/Components/mx66uw1g45g/mx66uw1g45g.c ****                                  : HAL_XSPI_INSTRUCTION_DTR_DISABLE;
 920              		.loc 1 426 34 is_stmt 0 view .LVU312
 921 0028 631E     		subs	r3, r4, #1
 922 002a 5C42     		rsbs	r4, r3, #0
 923              	.LVL48:
 924              		.loc 1 426 34 view .LVU313
 925 002c 5C41     		adcs	r4, r4, r3
 926 002e E300     		lsls	r3, r4, #3
 927              	.LVL49:
 424:STM32Cube_FW_N6/Drivers/BSP/Components/mx66uw1g45g/mx66uw1g45g.c ****   s_command.InstructionDTRMode = (Rate == MX66UW1G45G_DTR_TRANSFER)
 928              		.loc 1 424 32 view .LVU314
 929 0030 0693     		str	r3, [sp, #24]
ARM GAS  C:\Users\DJESSOU\AppData\Local\Temp\ccAx4BcF.s 			page 28


 427:STM32Cube_FW_N6/Drivers/BSP/Components/mx66uw1g45g/mx66uw1g45g.c ****   s_command.InstructionWidth   = (Mode == MX66UW1G45G_SPI_MODE)
 930              		.loc 1 427 3 is_stmt 1 view .LVU315
 428:STM32Cube_FW_N6/Drivers/BSP/Components/mx66uw1g45g/mx66uw1g45g.c ****                                  ? HAL_XSPI_INSTRUCTION_8_BITS
 429:STM32Cube_FW_N6/Drivers/BSP/Components/mx66uw1g45g/mx66uw1g45g.c ****                                  : HAL_XSPI_INSTRUCTION_16_BITS;
 931              		.loc 1 429 34 is_stmt 0 view .LVU316
 932 0032 57B3     		cbz	r7, .L64
 427:STM32Cube_FW_N6/Drivers/BSP/Components/mx66uw1g45g/mx66uw1g45g.c ****   s_command.InstructionWidth   = (Mode == MX66UW1G45G_SPI_MODE)
 933              		.loc 1 427 32 view .LVU317
 934 0034 1023     		movs	r3, #16
 430:STM32Cube_FW_N6/Drivers/BSP/Components/mx66uw1g45g/mx66uw1g45g.c ****   s_command.AddressMode        = (Mode == MX66UW1G45G_SPI_MODE) ? HAL_XSPI_ADDRESS_1_LINE : HAL_XSP
 935              		.loc 1 430 91 discriminator 2 view .LVU318
 936 0036 4FF48062 		mov	r2, #1024
 427:STM32Cube_FW_N6/Drivers/BSP/Components/mx66uw1g45g/mx66uw1g45g.c ****   s_command.InstructionWidth   = (Mode == MX66UW1G45G_SPI_MODE)
 937              		.loc 1 427 32 view .LVU319
 938 003a 0593     		str	r3, [sp, #20]
 939              		.loc 1 430 3 is_stmt 1 view .LVU320
 940              	.L55:
 431:STM32Cube_FW_N6/Drivers/BSP/Components/mx66uw1g45g/mx66uw1g45g.c ****   s_command.AddressDTRMode     = (Rate == MX66UW1G45G_DTR_TRANSFER)
 941              		.loc 1 431 3 view .LVU321
 432:STM32Cube_FW_N6/Drivers/BSP/Components/mx66uw1g45g/mx66uw1g45g.c ****                                  ? HAL_XSPI_ADDRESS_DTR_ENABLE
 433:STM32Cube_FW_N6/Drivers/BSP/Components/mx66uw1g45g/mx66uw1g45g.c ****                                  : HAL_XSPI_ADDRESS_DTR_DISABLE;
 434:STM32Cube_FW_N6/Drivers/BSP/Components/mx66uw1g45g/mx66uw1g45g.c ****   s_command.AddressWidth       = (AddressWidth == MX66UW1G45G_3BYTES_SIZE)
 435:STM32Cube_FW_N6/Drivers/BSP/Components/mx66uw1g45g/mx66uw1g45g.c ****                                  ? HAL_XSPI_ADDRESS_24_BITS
 436:STM32Cube_FW_N6/Drivers/BSP/Components/mx66uw1g45g/mx66uw1g45g.c ****                                  : HAL_XSPI_ADDRESS_32_BITS;
 942              		.loc 1 436 34 is_stmt 0 discriminator 1 view .LVU322
 943 003c 002D     		cmp	r5, #0
 944 003e 14BF     		ite	ne
 945 0040 4FF44051 		movne	r1, #12288
 946 0044 4FF40051 		moveq	r1, #8192
 437:STM32Cube_FW_N6/Drivers/BSP/Components/mx66uw1g45g/mx66uw1g45g.c ****   s_command.Address            = BlockAddress;
 438:STM32Cube_FW_N6/Drivers/BSP/Components/mx66uw1g45g/mx66uw1g45g.c ****   s_command.AlternateBytesMode = HAL_XSPI_ALT_BYTES_NONE;
 439:STM32Cube_FW_N6/Drivers/BSP/Components/mx66uw1g45g/mx66uw1g45g.c ****   s_command.DataMode           = HAL_XSPI_DATA_NONE;
 440:STM32Cube_FW_N6/Drivers/BSP/Components/mx66uw1g45g/mx66uw1g45g.c ****   s_command.DummyCycles        = 0U;
 441:STM32Cube_FW_N6/Drivers/BSP/Components/mx66uw1g45g/mx66uw1g45g.c ****   s_command.DQSMode            = HAL_XSPI_DQS_DISABLE;
 442:STM32Cube_FW_N6/Drivers/BSP/Components/mx66uw1g45g/mx66uw1g45g.c ****  #if defined (XSPI_CCR_SIOO)
 443:STM32Cube_FW_N6/Drivers/BSP/Components/mx66uw1g45g/mx66uw1g45g.c ****   s_command.SIOOMode            = HAL_XSPI_SIOO_INST_EVERY_CMD;
 444:STM32Cube_FW_N6/Drivers/BSP/Components/mx66uw1g45g/mx66uw1g45g.c ****  #endif
 445:STM32Cube_FW_N6/Drivers/BSP/Components/mx66uw1g45g/mx66uw1g45g.c **** 
 446:STM32Cube_FW_N6/Drivers/BSP/Components/mx66uw1g45g/mx66uw1g45g.c ****   switch (Mode)
 947              		.loc 1 446 3 view .LVU323
 948 0048 012F     		cmp	r7, #1
 433:STM32Cube_FW_N6/Drivers/BSP/Components/mx66uw1g45g/mx66uw1g45g.c ****   s_command.AddressWidth       = (AddressWidth == MX66UW1G45G_3BYTES_SIZE)
 949              		.loc 1 433 34 view .LVU324
 950 004a 4FEAC424 		lsl	r4, r4, #11
 434:STM32Cube_FW_N6/Drivers/BSP/Components/mx66uw1g45g/mx66uw1g45g.c ****                                  ? HAL_XSPI_ADDRESS_24_BITS
 951              		.loc 1 434 3 is_stmt 1 view .LVU325
 437:STM32Cube_FW_N6/Drivers/BSP/Components/mx66uw1g45g/mx66uw1g45g.c ****   s_command.Address            = BlockAddress;
 952              		.loc 1 437 3 view .LVU326
 438:STM32Cube_FW_N6/Drivers/BSP/Components/mx66uw1g45g/mx66uw1g45g.c ****   s_command.DataMode           = HAL_XSPI_DATA_NONE;
 953              		.loc 1 438 3 view .LVU327
 439:STM32Cube_FW_N6/Drivers/BSP/Components/mx66uw1g45g/mx66uw1g45g.c ****   s_command.DummyCycles        = 0U;
 954              		.loc 1 439 3 view .LVU328
 440:STM32Cube_FW_N6/Drivers/BSP/Components/mx66uw1g45g/mx66uw1g45g.c ****   s_command.DQSMode            = HAL_XSPI_DQS_DISABLE;
 955              		.loc 1 440 3 view .LVU329
 441:STM32Cube_FW_N6/Drivers/BSP/Components/mx66uw1g45g/mx66uw1g45g.c ****  #if defined (XSPI_CCR_SIOO)
 956              		.loc 1 441 3 view .LVU330
 957              		.loc 1 446 3 view .LVU331
ARM GAS  C:\Users\DJESSOU\AppData\Local\Temp\ccAx4BcF.s 			page 29


 958 004e 1FD1     		bne	.L57
 447:STM32Cube_FW_N6/Drivers/BSP/Components/mx66uw1g45g/mx66uw1g45g.c ****   {
 448:STM32Cube_FW_N6/Drivers/BSP/Components/mx66uw1g45g/mx66uw1g45g.c ****     case MX66UW1G45G_OPI_MODE :
 449:STM32Cube_FW_N6/Drivers/BSP/Components/mx66uw1g45g/mx66uw1g45g.c ****       if (BlockSize == MX66UW1G45G_ERASE_64K)
 959              		.loc 1 449 7 view .LVU332
 960              		.loc 1 449 10 is_stmt 0 view .LVU333
 961 0050 42F2DE10 		movw	r0, #8670
 962 0054 B8F1010F 		cmp	r8, #1
 963 0058 4DF62343 		movw	r3, #56355
 964 005c 18BF     		it	ne
 965 005e 0346     		movne	r3, r0
 966              	.L58:
 430:STM32Cube_FW_N6/Drivers/BSP/Components/mx66uw1g45g/mx66uw1g45g.c ****   s_command.AddressDTRMode     = (Rate == MX66UW1G45G_DTR_TRANSFER)
 967              		.loc 1 430 32 discriminator 4 view .LVU334
 968 0060 0892     		str	r2, [sp, #32]
 437:STM32Cube_FW_N6/Drivers/BSP/Components/mx66uw1g45g/mx66uw1g45g.c ****   s_command.AlternateBytesMode = HAL_XSPI_ALT_BYTES_NONE;
 969              		.loc 1 437 32 view .LVU335
 970 0062 1A9A     		ldr	r2, [sp, #104]
 434:STM32Cube_FW_N6/Drivers/BSP/Components/mx66uw1g45g/mx66uw1g45g.c ****                                  ? HAL_XSPI_ADDRESS_24_BITS
 971              		.loc 1 434 32 view .LVU336
 972 0064 CDE90914 		strd	r1, r4, [sp, #36]
 437:STM32Cube_FW_N6/Drivers/BSP/Components/mx66uw1g45g/mx66uw1g45g.c ****   s_command.AlternateBytesMode = HAL_XSPI_ALT_BYTES_NONE;
 973              		.loc 1 437 32 view .LVU337
 974 0068 0792     		str	r2, [sp, #28]
 450:STM32Cube_FW_N6/Drivers/BSP/Components/mx66uw1g45g/mx66uw1g45g.c ****       {
 451:STM32Cube_FW_N6/Drivers/BSP/Components/mx66uw1g45g/mx66uw1g45g.c ****         s_command.Instruction = MX66UW1G45G_OCTA_BLOCK_ERASE_64K_CMD;
 452:STM32Cube_FW_N6/Drivers/BSP/Components/mx66uw1g45g/mx66uw1g45g.c ****       }
 453:STM32Cube_FW_N6/Drivers/BSP/Components/mx66uw1g45g/mx66uw1g45g.c ****       else
 454:STM32Cube_FW_N6/Drivers/BSP/Components/mx66uw1g45g/mx66uw1g45g.c ****       {
 455:STM32Cube_FW_N6/Drivers/BSP/Components/mx66uw1g45g/mx66uw1g45g.c ****         s_command.Instruction = MX66UW1G45G_OCTA_SECTOR_ERASE_4K_CMD;
 456:STM32Cube_FW_N6/Drivers/BSP/Components/mx66uw1g45g/mx66uw1g45g.c ****       }
 457:STM32Cube_FW_N6/Drivers/BSP/Components/mx66uw1g45g/mx66uw1g45g.c ****       break;
 458:STM32Cube_FW_N6/Drivers/BSP/Components/mx66uw1g45g/mx66uw1g45g.c **** 
 459:STM32Cube_FW_N6/Drivers/BSP/Components/mx66uw1g45g/mx66uw1g45g.c ****     case MX66UW1G45G_SPI_MODE :
 460:STM32Cube_FW_N6/Drivers/BSP/Components/mx66uw1g45g/mx66uw1g45g.c ****     default:
 461:STM32Cube_FW_N6/Drivers/BSP/Components/mx66uw1g45g/mx66uw1g45g.c ****       if (BlockSize == MX66UW1G45G_ERASE_64K)
 462:STM32Cube_FW_N6/Drivers/BSP/Components/mx66uw1g45g/mx66uw1g45g.c ****       {
 463:STM32Cube_FW_N6/Drivers/BSP/Components/mx66uw1g45g/mx66uw1g45g.c ****         s_command.Instruction = (AddressWidth == MX66UW1G45G_3BYTES_SIZE)
 464:STM32Cube_FW_N6/Drivers/BSP/Components/mx66uw1g45g/mx66uw1g45g.c ****                                 ? MX66UW1G45G_BLOCK_ERASE_64K_CMD
 465:STM32Cube_FW_N6/Drivers/BSP/Components/mx66uw1g45g/mx66uw1g45g.c ****                                 : MX66UW1G45G_4_BYTE_BLOCK_ERASE_64K_CMD;
 466:STM32Cube_FW_N6/Drivers/BSP/Components/mx66uw1g45g/mx66uw1g45g.c ****       }
 467:STM32Cube_FW_N6/Drivers/BSP/Components/mx66uw1g45g/mx66uw1g45g.c ****       else
 468:STM32Cube_FW_N6/Drivers/BSP/Components/mx66uw1g45g/mx66uw1g45g.c ****       {
 469:STM32Cube_FW_N6/Drivers/BSP/Components/mx66uw1g45g/mx66uw1g45g.c ****         s_command.Instruction = (AddressWidth == MX66UW1G45G_3BYTES_SIZE)
 470:STM32Cube_FW_N6/Drivers/BSP/Components/mx66uw1g45g/mx66uw1g45g.c ****                                 ? MX66UW1G45G_SECTOR_ERASE_4K_CMD
 471:STM32Cube_FW_N6/Drivers/BSP/Components/mx66uw1g45g/mx66uw1g45g.c ****                                 : MX66UW1G45G_4_BYTE_SECTOR_ERASE_4K_CMD;
 472:STM32Cube_FW_N6/Drivers/BSP/Components/mx66uw1g45g/mx66uw1g45g.c ****       }
 473:STM32Cube_FW_N6/Drivers/BSP/Components/mx66uw1g45g/mx66uw1g45g.c ****       break;
 474:STM32Cube_FW_N6/Drivers/BSP/Components/mx66uw1g45g/mx66uw1g45g.c ****   }
 475:STM32Cube_FW_N6/Drivers/BSP/Components/mx66uw1g45g/mx66uw1g45g.c **** 
 476:STM32Cube_FW_N6/Drivers/BSP/Components/mx66uw1g45g/mx66uw1g45g.c ****   if (HAL_XSPI_Command(Ctx, &s_command, HAL_XSPI_TIMEOUT_DEFAULT_VALUE) != HAL_OK)
 975              		.loc 1 476 7 view .LVU338
 976 006a 3046     		mov	r0, r6
 977 006c 41F28832 		movw	r2, #5000
 978 0070 01A9     		add	r1, sp, #4
 455:STM32Cube_FW_N6/Drivers/BSP/Components/mx66uw1g45g/mx66uw1g45g.c ****       }
 979              		.loc 1 455 31 view .LVU339
ARM GAS  C:\Users\DJESSOU\AppData\Local\Temp\ccAx4BcF.s 			page 30


 980 0072 0393     		str	r3, [sp, #12]
 981              		.loc 1 476 3 is_stmt 1 view .LVU340
 982              		.loc 1 476 7 is_stmt 0 view .LVU341
 983 0074 FFF7FEFF 		bl	HAL_XSPI_Command
 984              	.LVL50:
 985              		.loc 1 476 6 discriminator 1 view .LVU342
 986 0078 0038     		subs	r0, r0, #0
 987 007a 18BF     		it	ne
 988 007c 0120     		movne	r0, #1
 989 007e 4042     		rsbs	r0, r0, #0
 990              	.L52:
 477:STM32Cube_FW_N6/Drivers/BSP/Components/mx66uw1g45g/mx66uw1g45g.c ****   {
 478:STM32Cube_FW_N6/Drivers/BSP/Components/mx66uw1g45g/mx66uw1g45g.c ****     return MX66UW1G45G_ERROR;
 479:STM32Cube_FW_N6/Drivers/BSP/Components/mx66uw1g45g/mx66uw1g45g.c ****   }
 480:STM32Cube_FW_N6/Drivers/BSP/Components/mx66uw1g45g/mx66uw1g45g.c **** 
 481:STM32Cube_FW_N6/Drivers/BSP/Components/mx66uw1g45g/mx66uw1g45g.c **** 
 482:STM32Cube_FW_N6/Drivers/BSP/Components/mx66uw1g45g/mx66uw1g45g.c ****   return MX66UW1G45G_OK;
 483:STM32Cube_FW_N6/Drivers/BSP/Components/mx66uw1g45g/mx66uw1g45g.c **** }
 991              		.loc 1 483 1 view .LVU343
 992 0080 14B0     		add	sp, sp, #80
 993              		.cfi_remember_state
 994              		.cfi_def_cfa_offset 24
 995              		@ sp needed
 996 0082 BDE8F081 		pop	{r4, r5, r6, r7, r8, pc}
 997              	.LVL51:
 998              	.L62:
 999              		.cfi_restore_state
 423:STM32Cube_FW_N6/Drivers/BSP/Components/mx66uw1g45g/mx66uw1g45g.c ****   s_command.InstructionDTRMode = (Rate == MX66UW1G45G_DTR_TRANSFER)
 1000              		.loc 1 423 34 discriminator 2 view .LVU344
 1001 0086 0423     		movs	r3, #4
 1002 0088 CDE7     		b	.L53
 1003              	.L64:
 430:STM32Cube_FW_N6/Drivers/BSP/Components/mx66uw1g45g/mx66uw1g45g.c ****   s_command.AddressDTRMode     = (Rate == MX66UW1G45G_DTR_TRANSFER)
 1004              		.loc 1 430 91 discriminator 1 view .LVU345
 1005 008a 4FF48072 		mov	r2, #256
 1006 008e D5E7     		b	.L55
 1007              	.L57:
 461:STM32Cube_FW_N6/Drivers/BSP/Components/mx66uw1g45g/mx66uw1g45g.c ****       {
 1008              		.loc 1 461 7 is_stmt 1 view .LVU346
 461:STM32Cube_FW_N6/Drivers/BSP/Components/mx66uw1g45g/mx66uw1g45g.c ****       {
 1009              		.loc 1 461 10 is_stmt 0 view .LVU347
 1010 0090 B8F1010F 		cmp	r8, #1
 1011 0094 04D1     		bne	.L59
 463:STM32Cube_FW_N6/Drivers/BSP/Components/mx66uw1g45g/mx66uw1g45g.c ****                                 ? MX66UW1G45G_BLOCK_ERASE_64K_CMD
 1012              		.loc 1 463 9 is_stmt 1 view .LVU348
 465:STM32Cube_FW_N6/Drivers/BSP/Components/mx66uw1g45g/mx66uw1g45g.c ****       }
 1013              		.loc 1 465 33 is_stmt 0 discriminator 1 view .LVU349
 1014 0096 002D     		cmp	r5, #0
 1015 0098 14BF     		ite	ne
 1016 009a DC23     		movne	r3, #220
 1017 009c D823     		moveq	r3, #216
 1018 009e DFE7     		b	.L58
 1019              	.L59:
 469:STM32Cube_FW_N6/Drivers/BSP/Components/mx66uw1g45g/mx66uw1g45g.c ****                                 ? MX66UW1G45G_SECTOR_ERASE_4K_CMD
 1020              		.loc 1 469 9 is_stmt 1 view .LVU350
 471:STM32Cube_FW_N6/Drivers/BSP/Components/mx66uw1g45g/mx66uw1g45g.c ****       }
 1021              		.loc 1 471 33 is_stmt 0 discriminator 1 view .LVU351
ARM GAS  C:\Users\DJESSOU\AppData\Local\Temp\ccAx4BcF.s 			page 31


 1022 00a0 002D     		cmp	r5, #0
 1023 00a2 14BF     		ite	ne
 1024 00a4 2123     		movne	r3, #33
 1025 00a6 2023     		moveq	r3, #32
 1026 00a8 DAE7     		b	.L58
 1027              	.L63:
 415:STM32Cube_FW_N6/Drivers/BSP/Components/mx66uw1g45g/mx66uw1g45g.c ****   }
 1028              		.loc 1 415 12 view .LVU352
 1029 00aa 4FF0FF30 		mov	r0, #-1
 1030 00ae E7E7     		b	.L52
 1031              		.cfi_endproc
 1032              	.LFE868:
 1034              		.section	.text.MX66UW1G45G_ChipErase,"ax",%progbits
 1035              		.align	1
 1036              		.global	MX66UW1G45G_ChipErase
 1037              		.syntax unified
 1038              		.thumb
 1039              		.thumb_func
 1041              	MX66UW1G45G_ChipErase:
 1042              	.LVL52:
 1043              	.LFB869:
 484:STM32Cube_FW_N6/Drivers/BSP/Components/mx66uw1g45g/mx66uw1g45g.c **** 
 485:STM32Cube_FW_N6/Drivers/BSP/Components/mx66uw1g45g/mx66uw1g45g.c **** /**
 486:STM32Cube_FW_N6/Drivers/BSP/Components/mx66uw1g45g/mx66uw1g45g.c ****   * @brief  Whole chip erase.
 487:STM32Cube_FW_N6/Drivers/BSP/Components/mx66uw1g45g/mx66uw1g45g.c ****   *         SPI/OPI; 1-0-0/8-0-0
 488:STM32Cube_FW_N6/Drivers/BSP/Components/mx66uw1g45g/mx66uw1g45g.c ****   * @param  Ctx Component object pointer
 489:STM32Cube_FW_N6/Drivers/BSP/Components/mx66uw1g45g/mx66uw1g45g.c ****   * @param  Mode Interface mode
 490:STM32Cube_FW_N6/Drivers/BSP/Components/mx66uw1g45g/mx66uw1g45g.c ****   * @retval error status
 491:STM32Cube_FW_N6/Drivers/BSP/Components/mx66uw1g45g/mx66uw1g45g.c ****   */
 492:STM32Cube_FW_N6/Drivers/BSP/Components/mx66uw1g45g/mx66uw1g45g.c **** int32_t MX66UW1G45G_ChipErase(XSPI_HandleTypeDef *Ctx, MX66UW1G45G_Interface_t Mode, MX66UW1G45G_Tr
 493:STM32Cube_FW_N6/Drivers/BSP/Components/mx66uw1g45g/mx66uw1g45g.c **** {
 1044              		.loc 1 493 1 is_stmt 1 view -0
 1045              		.cfi_startproc
 1046              		@ args = 0, pretend = 0, frame = 80
 1047              		@ frame_needed = 0, uses_anonymous_args = 0
 494:STM32Cube_FW_N6/Drivers/BSP/Components/mx66uw1g45g/mx66uw1g45g.c ****   XSPI_RegularCmdTypeDef s_command = {0};
 1048              		.loc 1 494 3 view .LVU354
 493:STM32Cube_FW_N6/Drivers/BSP/Components/mx66uw1g45g/mx66uw1g45g.c ****   XSPI_RegularCmdTypeDef s_command = {0};
 1049              		.loc 1 493 1 is_stmt 0 view .LVU355
 1050 0000 70B5     		push	{r4, r5, r6, lr}
 1051              		.cfi_def_cfa_offset 16
 1052              		.cfi_offset 4, -16
 1053              		.cfi_offset 5, -12
 1054              		.cfi_offset 6, -8
 1055              		.cfi_offset 14, -4
 1056 0002 0D46     		mov	r5, r1
 1057 0004 94B0     		sub	sp, sp, #80
 1058              		.cfi_def_cfa_offset 96
 493:STM32Cube_FW_N6/Drivers/BSP/Components/mx66uw1g45g/mx66uw1g45g.c ****   XSPI_RegularCmdTypeDef s_command = {0};
 1059              		.loc 1 493 1 view .LVU356
 1060 0006 0646     		mov	r6, r0
 1061 0008 1446     		mov	r4, r2
 1062              		.loc 1 494 26 view .LVU357
 1063 000a 0021     		movs	r1, #0
 1064              	.LVL53:
 1065              		.loc 1 494 26 view .LVU358
 1066 000c 4C22     		movs	r2, #76
ARM GAS  C:\Users\DJESSOU\AppData\Local\Temp\ccAx4BcF.s 			page 32


 1067              	.LVL54:
 1068              		.loc 1 494 26 view .LVU359
 1069 000e 01A8     		add	r0, sp, #4
 1070              	.LVL55:
 1071              		.loc 1 494 26 view .LVU360
 1072 0010 FFF7FEFF 		bl	memset
 1073              	.LVL56:
 495:STM32Cube_FW_N6/Drivers/BSP/Components/mx66uw1g45g/mx66uw1g45g.c **** 
 496:STM32Cube_FW_N6/Drivers/BSP/Components/mx66uw1g45g/mx66uw1g45g.c ****   /* SPI mode and DTR transfer not supported by memory */
 497:STM32Cube_FW_N6/Drivers/BSP/Components/mx66uw1g45g/mx66uw1g45g.c ****   if ((Mode == MX66UW1G45G_SPI_MODE) && (Rate == MX66UW1G45G_DTR_TRANSFER))
 1074              		.loc 1 497 3 is_stmt 1 view .LVU361
 1075              		.loc 1 497 6 is_stmt 0 view .LVU362
 1076 0014 BDB9     		cbnz	r5, .L70
 1077              		.loc 1 497 38 discriminator 1 view .LVU363
 1078 0016 012C     		cmp	r4, #1
 1079 0018 1DD0     		beq	.L74
 1080 001a 0123     		movs	r3, #1
 498:STM32Cube_FW_N6/Drivers/BSP/Components/mx66uw1g45g/mx66uw1g45g.c ****   {
 499:STM32Cube_FW_N6/Drivers/BSP/Components/mx66uw1g45g/mx66uw1g45g.c ****     return MX66UW1G45G_ERROR;
 500:STM32Cube_FW_N6/Drivers/BSP/Components/mx66uw1g45g/mx66uw1g45g.c ****   }
 501:STM32Cube_FW_N6/Drivers/BSP/Components/mx66uw1g45g/mx66uw1g45g.c **** 
 502:STM32Cube_FW_N6/Drivers/BSP/Components/mx66uw1g45g/mx66uw1g45g.c ****   /* Initialize the erase command */
 503:STM32Cube_FW_N6/Drivers/BSP/Components/mx66uw1g45g/mx66uw1g45g.c ****   s_command.OperationType = HAL_XSPI_OPTYPE_COMMON_CFG;
 504:STM32Cube_FW_N6/Drivers/BSP/Components/mx66uw1g45g/mx66uw1g45g.c ****   s_command.InstructionMode = (Mode == MX66UW1G45G_SPI_MODE)
 505:STM32Cube_FW_N6/Drivers/BSP/Components/mx66uw1g45g/mx66uw1g45g.c ****                                   ? HAL_XSPI_INSTRUCTION_1_LINE
 506:STM32Cube_FW_N6/Drivers/BSP/Components/mx66uw1g45g/mx66uw1g45g.c ****                                   : HAL_XSPI_INSTRUCTION_8_LINES;
 507:STM32Cube_FW_N6/Drivers/BSP/Components/mx66uw1g45g/mx66uw1g45g.c ****   s_command.InstructionDTRMode = (Rate == MX66UW1G45G_DTR_TRANSFER)
 508:STM32Cube_FW_N6/Drivers/BSP/Components/mx66uw1g45g/mx66uw1g45g.c ****                                      ? HAL_XSPI_INSTRUCTION_DTR_ENABLE
 509:STM32Cube_FW_N6/Drivers/BSP/Components/mx66uw1g45g/mx66uw1g45g.c ****                                      : HAL_XSPI_INSTRUCTION_DTR_DISABLE;
 1081              		.loc 1 509 38 discriminator 2 view .LVU364
 1082 001c 2C46     		mov	r4, r5
 1083              	.LVL57:
 1084              	.L72:
 504:STM32Cube_FW_N6/Drivers/BSP/Components/mx66uw1g45g/mx66uw1g45g.c ****                                   ? HAL_XSPI_INSTRUCTION_1_LINE
 1085              		.loc 1 504 29 view .LVU365
 1086 001e 0493     		str	r3, [sp, #16]
 507:STM32Cube_FW_N6/Drivers/BSP/Components/mx66uw1g45g/mx66uw1g45g.c ****                                      ? HAL_XSPI_INSTRUCTION_DTR_ENABLE
 1087              		.loc 1 507 32 view .LVU366
 1088 0020 0694     		str	r4, [sp, #24]
 510:STM32Cube_FW_N6/Drivers/BSP/Components/mx66uw1g45g/mx66uw1g45g.c ****   s_command.InstructionWidth = (Mode == MX66UW1G45G_SPI_MODE)
 1089              		.loc 1 510 3 is_stmt 1 view .LVU367
 511:STM32Cube_FW_N6/Drivers/BSP/Components/mx66uw1g45g/mx66uw1g45g.c ****                                    ? HAL_XSPI_INSTRUCTION_8_BITS
 512:STM32Cube_FW_N6/Drivers/BSP/Components/mx66uw1g45g/mx66uw1g45g.c ****                                    : HAL_XSPI_INSTRUCTION_16_BITS;
 1090              		.loc 1 512 36 is_stmt 0 view .LVU368
 1091 0022 B5B1     		cbz	r5, .L75
 510:STM32Cube_FW_N6/Drivers/BSP/Components/mx66uw1g45g/mx66uw1g45g.c ****   s_command.InstructionWidth = (Mode == MX66UW1G45G_SPI_MODE)
 1092              		.loc 1 510 30 view .LVU369
 1093 0024 1023     		movs	r3, #16
 1094 0026 0593     		str	r3, [sp, #20]
 513:STM32Cube_FW_N6/Drivers/BSP/Components/mx66uw1g45g/mx66uw1g45g.c ****   s_command.Instruction = (Mode == MX66UW1G45G_SPI_MODE)
 1095              		.loc 1 513 3 is_stmt 1 view .LVU370
 514:STM32Cube_FW_N6/Drivers/BSP/Components/mx66uw1g45g/mx66uw1g45g.c ****                               ? MX66UW1G45G_BULK_ERASE_CMD
 515:STM32Cube_FW_N6/Drivers/BSP/Components/mx66uw1g45g/mx66uw1g45g.c ****                               : MX66UW1G45G_OCTA_BULK_ERASE_CMD;
 1096              		.loc 1 515 31 is_stmt 0 discriminator 2 view .LVU371
 1097 0028 46F29F03 		movw	r3, #24735
 1098              	.L73:
 516:STM32Cube_FW_N6/Drivers/BSP/Components/mx66uw1g45g/mx66uw1g45g.c ****   s_command.AddressMode = HAL_XSPI_ADDRESS_NONE;
ARM GAS  C:\Users\DJESSOU\AppData\Local\Temp\ccAx4BcF.s 			page 33


 517:STM32Cube_FW_N6/Drivers/BSP/Components/mx66uw1g45g/mx66uw1g45g.c ****   s_command.AlternateBytesMode = HAL_XSPI_ALT_BYTES_NONE;
 518:STM32Cube_FW_N6/Drivers/BSP/Components/mx66uw1g45g/mx66uw1g45g.c ****   s_command.DataMode = HAL_XSPI_DATA_NONE;
 519:STM32Cube_FW_N6/Drivers/BSP/Components/mx66uw1g45g/mx66uw1g45g.c ****   s_command.DummyCycles = 0U;
 520:STM32Cube_FW_N6/Drivers/BSP/Components/mx66uw1g45g/mx66uw1g45g.c ****   s_command.DQSMode = HAL_XSPI_DQS_DISABLE;
 521:STM32Cube_FW_N6/Drivers/BSP/Components/mx66uw1g45g/mx66uw1g45g.c ****  #if defined (XSPI_CCR_SIOO)
 522:STM32Cube_FW_N6/Drivers/BSP/Components/mx66uw1g45g/mx66uw1g45g.c ****   s_command.SIOOMode            = HAL_XSPI_SIOO_INST_EVERY_CMD;
 523:STM32Cube_FW_N6/Drivers/BSP/Components/mx66uw1g45g/mx66uw1g45g.c ****  #endif
 524:STM32Cube_FW_N6/Drivers/BSP/Components/mx66uw1g45g/mx66uw1g45g.c **** 
 525:STM32Cube_FW_N6/Drivers/BSP/Components/mx66uw1g45g/mx66uw1g45g.c ****   /* Send the command */
 526:STM32Cube_FW_N6/Drivers/BSP/Components/mx66uw1g45g/mx66uw1g45g.c ****   if (HAL_XSPI_Command(Ctx, &s_command, HAL_XSPI_TIMEOUT_DEFAULT_VALUE) != HAL_OK)
 1099              		.loc 1 526 7 view .LVU372
 1100 002c 41F28832 		movw	r2, #5000
 1101 0030 3046     		mov	r0, r6
 1102 0032 01A9     		add	r1, sp, #4
 513:STM32Cube_FW_N6/Drivers/BSP/Components/mx66uw1g45g/mx66uw1g45g.c ****                               ? MX66UW1G45G_BULK_ERASE_CMD
 1103              		.loc 1 513 25 view .LVU373
 1104 0034 0393     		str	r3, [sp, #12]
 516:STM32Cube_FW_N6/Drivers/BSP/Components/mx66uw1g45g/mx66uw1g45g.c ****   s_command.AddressMode = HAL_XSPI_ADDRESS_NONE;
 1105              		.loc 1 516 3 is_stmt 1 view .LVU374
 517:STM32Cube_FW_N6/Drivers/BSP/Components/mx66uw1g45g/mx66uw1g45g.c ****   s_command.DataMode = HAL_XSPI_DATA_NONE;
 1106              		.loc 1 517 3 view .LVU375
 518:STM32Cube_FW_N6/Drivers/BSP/Components/mx66uw1g45g/mx66uw1g45g.c ****   s_command.DummyCycles = 0U;
 1107              		.loc 1 518 3 view .LVU376
 519:STM32Cube_FW_N6/Drivers/BSP/Components/mx66uw1g45g/mx66uw1g45g.c ****   s_command.DQSMode = HAL_XSPI_DQS_DISABLE;
 1108              		.loc 1 519 3 view .LVU377
 520:STM32Cube_FW_N6/Drivers/BSP/Components/mx66uw1g45g/mx66uw1g45g.c ****  #if defined (XSPI_CCR_SIOO)
 1109              		.loc 1 520 3 view .LVU378
 1110              		.loc 1 526 3 view .LVU379
 1111              		.loc 1 526 7 is_stmt 0 view .LVU380
 1112 0036 FFF7FEFF 		bl	HAL_XSPI_Command
 1113              	.LVL58:
 1114              		.loc 1 526 6 discriminator 1 view .LVU381
 1115 003a 0038     		subs	r0, r0, #0
 1116 003c 18BF     		it	ne
 1117 003e 0120     		movne	r0, #1
 1118 0040 4042     		rsbs	r0, r0, #0
 1119              	.L69:
 527:STM32Cube_FW_N6/Drivers/BSP/Components/mx66uw1g45g/mx66uw1g45g.c ****   {
 528:STM32Cube_FW_N6/Drivers/BSP/Components/mx66uw1g45g/mx66uw1g45g.c ****     return MX66UW1G45G_ERROR;
 529:STM32Cube_FW_N6/Drivers/BSP/Components/mx66uw1g45g/mx66uw1g45g.c ****   }
 530:STM32Cube_FW_N6/Drivers/BSP/Components/mx66uw1g45g/mx66uw1g45g.c **** 
 531:STM32Cube_FW_N6/Drivers/BSP/Components/mx66uw1g45g/mx66uw1g45g.c ****   return MX66UW1G45G_OK;
 532:STM32Cube_FW_N6/Drivers/BSP/Components/mx66uw1g45g/mx66uw1g45g.c **** }
 1120              		.loc 1 532 1 view .LVU382
 1121 0042 14B0     		add	sp, sp, #80
 1122              		.cfi_remember_state
 1123              		.cfi_def_cfa_offset 16
 1124              		@ sp needed
 1125 0044 70BD     		pop	{r4, r5, r6, pc}
 1126              	.LVL59:
 1127              	.L70:
 1128              		.cfi_restore_state
 507:STM32Cube_FW_N6/Drivers/BSP/Components/mx66uw1g45g/mx66uw1g45g.c ****                                      ? HAL_XSPI_INSTRUCTION_DTR_ENABLE
 1129              		.loc 1 507 3 is_stmt 1 view .LVU383
 509:STM32Cube_FW_N6/Drivers/BSP/Components/mx66uw1g45g/mx66uw1g45g.c ****   s_command.InstructionWidth = (Mode == MX66UW1G45G_SPI_MODE)
 1130              		.loc 1 509 38 is_stmt 0 view .LVU384
 1131 0046 631E     		subs	r3, r4, #1
ARM GAS  C:\Users\DJESSOU\AppData\Local\Temp\ccAx4BcF.s 			page 34


 1132 0048 5C42     		rsbs	r4, r3, #0
 1133 004a 5C41     		adcs	r4, r4, r3
 1134 004c E400     		lsls	r4, r4, #3
 1135 004e 0423     		movs	r3, #4
 1136 0050 E5E7     		b	.L72
 1137              	.L75:
 515:STM32Cube_FW_N6/Drivers/BSP/Components/mx66uw1g45g/mx66uw1g45g.c ****   s_command.AddressMode = HAL_XSPI_ADDRESS_NONE;
 1138              		.loc 1 515 31 discriminator 1 view .LVU385
 1139 0052 6023     		movs	r3, #96
 1140 0054 EAE7     		b	.L73
 1141              	.L74:
 499:STM32Cube_FW_N6/Drivers/BSP/Components/mx66uw1g45g/mx66uw1g45g.c ****   }
 1142              		.loc 1 499 12 view .LVU386
 1143 0056 4FF0FF30 		mov	r0, #-1
 1144 005a F2E7     		b	.L69
 1145              		.cfi_endproc
 1146              	.LFE869:
 1148              		.section	.text.MX66UW1G45G_EnableSTRMemoryMappedMode,"ax",%progbits
 1149              		.align	1
 1150              		.global	MX66UW1G45G_EnableSTRMemoryMappedMode
 1151              		.syntax unified
 1152              		.thumb
 1153              		.thumb_func
 1155              	MX66UW1G45G_EnableSTRMemoryMappedMode:
 1156              	.LVL60:
 1157              	.LFB870:
 533:STM32Cube_FW_N6/Drivers/BSP/Components/mx66uw1g45g/mx66uw1g45g.c **** 
 534:STM32Cube_FW_N6/Drivers/BSP/Components/mx66uw1g45g/mx66uw1g45g.c **** /**
 535:STM32Cube_FW_N6/Drivers/BSP/Components/mx66uw1g45g/mx66uw1g45g.c ****   * @brief  Enable memory mapped mode for the XSPI memory on STR mode.
 536:STM32Cube_FW_N6/Drivers/BSP/Components/mx66uw1g45g/mx66uw1g45g.c ****   *         SPI/OPI; 1-1-1/8-8-8
 537:STM32Cube_FW_N6/Drivers/BSP/Components/mx66uw1g45g/mx66uw1g45g.c ****   * @param  Ctx Component object pointer
 538:STM32Cube_FW_N6/Drivers/BSP/Components/mx66uw1g45g/mx66uw1g45g.c ****   * @param  Mode Interface mode
 539:STM32Cube_FW_N6/Drivers/BSP/Components/mx66uw1g45g/mx66uw1g45g.c ****   * @param  AddressWidth Address size
 540:STM32Cube_FW_N6/Drivers/BSP/Components/mx66uw1g45g/mx66uw1g45g.c ****   * @retval XSPI memory status
 541:STM32Cube_FW_N6/Drivers/BSP/Components/mx66uw1g45g/mx66uw1g45g.c ****   */
 542:STM32Cube_FW_N6/Drivers/BSP/Components/mx66uw1g45g/mx66uw1g45g.c **** int32_t MX66UW1G45G_EnableSTRMemoryMappedMode(XSPI_HandleTypeDef *Ctx, MX66UW1G45G_Interface_t Mode
 543:STM32Cube_FW_N6/Drivers/BSP/Components/mx66uw1g45g/mx66uw1g45g.c ****                                               MX66UW1G45G_AddressWidth_t AddressWidth)
 544:STM32Cube_FW_N6/Drivers/BSP/Components/mx66uw1g45g/mx66uw1g45g.c **** {
 1158              		.loc 1 544 1 is_stmt 1 view -0
 1159              		.cfi_startproc
 1160              		@ args = 0, pretend = 0, frame = 96
 1161              		@ frame_needed = 0, uses_anonymous_args = 0
 545:STM32Cube_FW_N6/Drivers/BSP/Components/mx66uw1g45g/mx66uw1g45g.c ****   XSPI_RegularCmdTypeDef s_command = {0};
 1162              		.loc 1 545 3 view .LVU388
 544:STM32Cube_FW_N6/Drivers/BSP/Components/mx66uw1g45g/mx66uw1g45g.c ****   XSPI_RegularCmdTypeDef s_command = {0};
 1163              		.loc 1 544 1 is_stmt 0 view .LVU389
 1164 0000 70B5     		push	{r4, r5, r6, lr}
 1165              		.cfi_def_cfa_offset 16
 1166              		.cfi_offset 4, -16
 1167              		.cfi_offset 5, -12
 1168              		.cfi_offset 6, -8
 1169              		.cfi_offset 14, -4
 1170 0002 0C46     		mov	r4, r1
 1171 0004 98B0     		sub	sp, sp, #96
 1172              		.cfi_def_cfa_offset 112
 1173              		.loc 1 545 26 view .LVU390
 1174 0006 0021     		movs	r1, #0
ARM GAS  C:\Users\DJESSOU\AppData\Local\Temp\ccAx4BcF.s 			page 35


 1175              	.LVL61:
 544:STM32Cube_FW_N6/Drivers/BSP/Components/mx66uw1g45g/mx66uw1g45g.c ****   XSPI_RegularCmdTypeDef s_command = {0};
 1176              		.loc 1 544 1 view .LVU391
 1177 0008 0646     		mov	r6, r0
 1178 000a 1546     		mov	r5, r2
 1179              		.loc 1 545 26 view .LVU392
 1180 000c 05A8     		add	r0, sp, #20
 1181              	.LVL62:
 1182              		.loc 1 545 26 view .LVU393
 1183 000e 4C22     		movs	r2, #76
 1184              	.LVL63:
 1185              		.loc 1 545 26 view .LVU394
 1186 0010 FFF7FEFF 		bl	memset
 1187              	.LVL64:
 546:STM32Cube_FW_N6/Drivers/BSP/Components/mx66uw1g45g/mx66uw1g45g.c ****   XSPI_MemoryMappedTypeDef s_mem_mapped_cfg = {0};
 1188              		.loc 1 546 3 is_stmt 1 view .LVU395
 1189              		.loc 1 546 28 is_stmt 0 view .LVU396
 1190 0014 1022     		movs	r2, #16
 1191 0016 0021     		movs	r1, #0
 1192 0018 01A8     		add	r0, sp, #4
 1193 001a FFF7FEFF 		bl	memset
 1194              	.LVL65:
 547:STM32Cube_FW_N6/Drivers/BSP/Components/mx66uw1g45g/mx66uw1g45g.c **** 
 548:STM32Cube_FW_N6/Drivers/BSP/Components/mx66uw1g45g/mx66uw1g45g.c ****   /* OPI mode and 3-bytes address size not supported by memory */
 549:STM32Cube_FW_N6/Drivers/BSP/Components/mx66uw1g45g/mx66uw1g45g.c ****   if ((Mode == MX66UW1G45G_OPI_MODE) && (AddressWidth == MX66UW1G45G_3BYTES_SIZE))
 1195              		.loc 1 549 3 is_stmt 1 view .LVU397
 1196              		.loc 1 549 6 is_stmt 0 view .LVU398
 1197 001e 012C     		cmp	r4, #1
 1198 0020 44D1     		bne	.L77
 1199              		.loc 1 549 38 discriminator 1 view .LVU399
 1200 0022 1DB9     		cbnz	r5, .L78
 1201              	.L86:
 550:STM32Cube_FW_N6/Drivers/BSP/Components/mx66uw1g45g/mx66uw1g45g.c ****   {
 551:STM32Cube_FW_N6/Drivers/BSP/Components/mx66uw1g45g/mx66uw1g45g.c ****     return MX66UW1G45G_ERROR;
 1202              		.loc 1 551 12 view .LVU400
 1203 0024 4FF0FF30 		mov	r0, #-1
 1204              	.L76:
 552:STM32Cube_FW_N6/Drivers/BSP/Components/mx66uw1g45g/mx66uw1g45g.c ****   }
 553:STM32Cube_FW_N6/Drivers/BSP/Components/mx66uw1g45g/mx66uw1g45g.c **** 
 554:STM32Cube_FW_N6/Drivers/BSP/Components/mx66uw1g45g/mx66uw1g45g.c ****   /* Initialize the read command */
 555:STM32Cube_FW_N6/Drivers/BSP/Components/mx66uw1g45g/mx66uw1g45g.c ****   s_command.OperationType = HAL_XSPI_OPTYPE_READ_CFG;
 556:STM32Cube_FW_N6/Drivers/BSP/Components/mx66uw1g45g/mx66uw1g45g.c ****   s_command.InstructionMode = (Mode == MX66UW1G45G_SPI_MODE)
 557:STM32Cube_FW_N6/Drivers/BSP/Components/mx66uw1g45g/mx66uw1g45g.c ****                                   ? HAL_XSPI_INSTRUCTION_1_LINE
 558:STM32Cube_FW_N6/Drivers/BSP/Components/mx66uw1g45g/mx66uw1g45g.c ****                                   : HAL_XSPI_INSTRUCTION_8_LINES;
 559:STM32Cube_FW_N6/Drivers/BSP/Components/mx66uw1g45g/mx66uw1g45g.c ****   s_command.InstructionDTRMode = HAL_XSPI_INSTRUCTION_DTR_DISABLE;
 560:STM32Cube_FW_N6/Drivers/BSP/Components/mx66uw1g45g/mx66uw1g45g.c ****   s_command.InstructionWidth = (Mode == MX66UW1G45G_SPI_MODE)
 561:STM32Cube_FW_N6/Drivers/BSP/Components/mx66uw1g45g/mx66uw1g45g.c ****                                    ? HAL_XSPI_INSTRUCTION_8_BITS
 562:STM32Cube_FW_N6/Drivers/BSP/Components/mx66uw1g45g/mx66uw1g45g.c ****                                    : HAL_XSPI_INSTRUCTION_16_BITS;
 563:STM32Cube_FW_N6/Drivers/BSP/Components/mx66uw1g45g/mx66uw1g45g.c ****   s_command.Instruction = (Mode == MX66UW1G45G_SPI_MODE)
 564:STM32Cube_FW_N6/Drivers/BSP/Components/mx66uw1g45g/mx66uw1g45g.c ****                               ? ((AddressWidth == MX66UW1G45G_3BYTES_SIZE)
 565:STM32Cube_FW_N6/Drivers/BSP/Components/mx66uw1g45g/mx66uw1g45g.c ****                                      ? MX66UW1G45G_FAST_READ_CMD
 566:STM32Cube_FW_N6/Drivers/BSP/Components/mx66uw1g45g/mx66uw1g45g.c ****                                      : MX66UW1G45G_4_BYTE_ADDR_FAST_READ_CMD)
 567:STM32Cube_FW_N6/Drivers/BSP/Components/mx66uw1g45g/mx66uw1g45g.c ****                               : MX66UW1G45G_OCTA_READ_CMD;
 568:STM32Cube_FW_N6/Drivers/BSP/Components/mx66uw1g45g/mx66uw1g45g.c ****   s_command.AddressMode = (Mode == MX66UW1G45G_SPI_MODE) ? HAL_XSPI_ADDRESS_1_LINE : HAL_XSPI_ADDRE
 569:STM32Cube_FW_N6/Drivers/BSP/Components/mx66uw1g45g/mx66uw1g45g.c ****   s_command.AddressDTRMode = HAL_XSPI_ADDRESS_DTR_DISABLE;
 570:STM32Cube_FW_N6/Drivers/BSP/Components/mx66uw1g45g/mx66uw1g45g.c ****   s_command.AddressWidth = (AddressWidth == MX66UW1G45G_3BYTES_SIZE)
 571:STM32Cube_FW_N6/Drivers/BSP/Components/mx66uw1g45g/mx66uw1g45g.c ****                                ? HAL_XSPI_ADDRESS_24_BITS
ARM GAS  C:\Users\DJESSOU\AppData\Local\Temp\ccAx4BcF.s 			page 36


 572:STM32Cube_FW_N6/Drivers/BSP/Components/mx66uw1g45g/mx66uw1g45g.c ****                                : HAL_XSPI_ADDRESS_32_BITS;
 573:STM32Cube_FW_N6/Drivers/BSP/Components/mx66uw1g45g/mx66uw1g45g.c ****   s_command.AlternateBytesMode = HAL_XSPI_ALT_BYTES_NONE;
 574:STM32Cube_FW_N6/Drivers/BSP/Components/mx66uw1g45g/mx66uw1g45g.c ****   s_command.DataMode = (Mode == MX66UW1G45G_SPI_MODE) ? HAL_XSPI_DATA_1_LINE : HAL_XSPI_DATA_8_LINE
 575:STM32Cube_FW_N6/Drivers/BSP/Components/mx66uw1g45g/mx66uw1g45g.c ****   s_command.DataDTRMode = HAL_XSPI_DATA_DTR_DISABLE;
 576:STM32Cube_FW_N6/Drivers/BSP/Components/mx66uw1g45g/mx66uw1g45g.c ****   s_command.DummyCycles = (Mode == MX66UW1G45G_SPI_MODE) ? DUMMY_CYCLES_READ : DUMMY_CYCLES_READ_OC
 577:STM32Cube_FW_N6/Drivers/BSP/Components/mx66uw1g45g/mx66uw1g45g.c ****   s_command.DQSMode = HAL_XSPI_DQS_DISABLE;
 578:STM32Cube_FW_N6/Drivers/BSP/Components/mx66uw1g45g/mx66uw1g45g.c ****  #if defined (XSPI_CCR_SIOO)
 579:STM32Cube_FW_N6/Drivers/BSP/Components/mx66uw1g45g/mx66uw1g45g.c ****   s_command.SIOOMode            = HAL_XSPI_SIOO_INST_EVERY_CMD;
 580:STM32Cube_FW_N6/Drivers/BSP/Components/mx66uw1g45g/mx66uw1g45g.c ****  #endif
 581:STM32Cube_FW_N6/Drivers/BSP/Components/mx66uw1g45g/mx66uw1g45g.c **** 
 582:STM32Cube_FW_N6/Drivers/BSP/Components/mx66uw1g45g/mx66uw1g45g.c ****   /* Send the read command */
 583:STM32Cube_FW_N6/Drivers/BSP/Components/mx66uw1g45g/mx66uw1g45g.c ****   if (HAL_XSPI_Command(Ctx, &s_command, HAL_XSPI_TIMEOUT_DEFAULT_VALUE) != HAL_OK)
 584:STM32Cube_FW_N6/Drivers/BSP/Components/mx66uw1g45g/mx66uw1g45g.c ****   {
 585:STM32Cube_FW_N6/Drivers/BSP/Components/mx66uw1g45g/mx66uw1g45g.c ****     return MX66UW1G45G_ERROR;
 586:STM32Cube_FW_N6/Drivers/BSP/Components/mx66uw1g45g/mx66uw1g45g.c ****   }
 587:STM32Cube_FW_N6/Drivers/BSP/Components/mx66uw1g45g/mx66uw1g45g.c **** 
 588:STM32Cube_FW_N6/Drivers/BSP/Components/mx66uw1g45g/mx66uw1g45g.c ****   /* Initialize the program command */
 589:STM32Cube_FW_N6/Drivers/BSP/Components/mx66uw1g45g/mx66uw1g45g.c ****   s_command.OperationType = HAL_XSPI_OPTYPE_WRITE_CFG;
 590:STM32Cube_FW_N6/Drivers/BSP/Components/mx66uw1g45g/mx66uw1g45g.c ****   s_command.Instruction = (Mode == MX66UW1G45G_SPI_MODE)
 591:STM32Cube_FW_N6/Drivers/BSP/Components/mx66uw1g45g/mx66uw1g45g.c ****                               ? ((AddressWidth == MX66UW1G45G_3BYTES_SIZE)
 592:STM32Cube_FW_N6/Drivers/BSP/Components/mx66uw1g45g/mx66uw1g45g.c ****                                      ? MX66UW1G45G_PAGE_PROG_CMD
 593:STM32Cube_FW_N6/Drivers/BSP/Components/mx66uw1g45g/mx66uw1g45g.c ****                                      : MX66UW1G45G_4_BYTE_PAGE_PROG_CMD)
 594:STM32Cube_FW_N6/Drivers/BSP/Components/mx66uw1g45g/mx66uw1g45g.c ****                               : MX66UW1G45G_OCTA_PAGE_PROG_CMD;
 595:STM32Cube_FW_N6/Drivers/BSP/Components/mx66uw1g45g/mx66uw1g45g.c ****   s_command.DummyCycles = 0U;
 596:STM32Cube_FW_N6/Drivers/BSP/Components/mx66uw1g45g/mx66uw1g45g.c **** 
 597:STM32Cube_FW_N6/Drivers/BSP/Components/mx66uw1g45g/mx66uw1g45g.c ****   /* Send the write command */
 598:STM32Cube_FW_N6/Drivers/BSP/Components/mx66uw1g45g/mx66uw1g45g.c ****   if (HAL_XSPI_Command(Ctx, &s_command, HAL_XSPI_TIMEOUT_DEFAULT_VALUE) != HAL_OK)
 599:STM32Cube_FW_N6/Drivers/BSP/Components/mx66uw1g45g/mx66uw1g45g.c ****   {
 600:STM32Cube_FW_N6/Drivers/BSP/Components/mx66uw1g45g/mx66uw1g45g.c ****     return MX66UW1G45G_ERROR;
 601:STM32Cube_FW_N6/Drivers/BSP/Components/mx66uw1g45g/mx66uw1g45g.c ****   }
 602:STM32Cube_FW_N6/Drivers/BSP/Components/mx66uw1g45g/mx66uw1g45g.c **** 
 603:STM32Cube_FW_N6/Drivers/BSP/Components/mx66uw1g45g/mx66uw1g45g.c ****   /* Configure the memory mapped mode */
 604:STM32Cube_FW_N6/Drivers/BSP/Components/mx66uw1g45g/mx66uw1g45g.c ****   s_mem_mapped_cfg.TimeOutActivation = HAL_XSPI_TIMEOUT_COUNTER_DISABLE;
 605:STM32Cube_FW_N6/Drivers/BSP/Components/mx66uw1g45g/mx66uw1g45g.c **** 
 606:STM32Cube_FW_N6/Drivers/BSP/Components/mx66uw1g45g/mx66uw1g45g.c ****   if (HAL_XSPI_MemoryMapped(Ctx, &s_mem_mapped_cfg) != HAL_OK)
 607:STM32Cube_FW_N6/Drivers/BSP/Components/mx66uw1g45g/mx66uw1g45g.c ****   {
 608:STM32Cube_FW_N6/Drivers/BSP/Components/mx66uw1g45g/mx66uw1g45g.c ****     return MX66UW1G45G_ERROR;
 609:STM32Cube_FW_N6/Drivers/BSP/Components/mx66uw1g45g/mx66uw1g45g.c ****   }
 610:STM32Cube_FW_N6/Drivers/BSP/Components/mx66uw1g45g/mx66uw1g45g.c **** 
 611:STM32Cube_FW_N6/Drivers/BSP/Components/mx66uw1g45g/mx66uw1g45g.c ****   return MX66UW1G45G_OK;
 612:STM32Cube_FW_N6/Drivers/BSP/Components/mx66uw1g45g/mx66uw1g45g.c **** }
 1205              		.loc 1 612 1 view .LVU401
 1206 0028 18B0     		add	sp, sp, #96
 1207              		.cfi_remember_state
 1208              		.cfi_def_cfa_offset 16
 1209              		@ sp needed
 1210 002a 70BD     		pop	{r4, r5, r6, pc}
 1211              	.LVL66:
 1212              	.L78:
 1213              		.cfi_restore_state
 555:STM32Cube_FW_N6/Drivers/BSP/Components/mx66uw1g45g/mx66uw1g45g.c ****   s_command.InstructionMode = (Mode == MX66UW1G45G_SPI_MODE)
 1214              		.loc 1 555 3 is_stmt 1 view .LVU402
 555:STM32Cube_FW_N6/Drivers/BSP/Components/mx66uw1g45g/mx66uw1g45g.c ****   s_command.InstructionMode = (Mode == MX66UW1G45G_SPI_MODE)
 1215              		.loc 1 555 27 is_stmt 0 view .LVU403
 1216 002c 0594     		str	r4, [sp, #20]
 556:STM32Cube_FW_N6/Drivers/BSP/Components/mx66uw1g45g/mx66uw1g45g.c ****                                   ? HAL_XSPI_INSTRUCTION_1_LINE
 1217              		.loc 1 556 3 is_stmt 1 view .LVU404
ARM GAS  C:\Users\DJESSOU\AppData\Local\Temp\ccAx4BcF.s 			page 37


 1218              	.L80:
 560:STM32Cube_FW_N6/Drivers/BSP/Components/mx66uw1g45g/mx66uw1g45g.c ****                                    ? HAL_XSPI_INSTRUCTION_8_BITS
 1219              		.loc 1 560 30 is_stmt 0 view .LVU405
 1220 002e 0422     		movs	r2, #4
 1221 0030 1023     		movs	r3, #16
 1222 0032 CDE90823 		strd	r2, r3, [sp, #32]
 563:STM32Cube_FW_N6/Drivers/BSP/Components/mx66uw1g45g/mx66uw1g45g.c ****                               ? ((AddressWidth == MX66UW1G45G_3BYTES_SIZE)
 1223              		.loc 1 563 3 is_stmt 1 view .LVU406
 568:STM32Cube_FW_N6/Drivers/BSP/Components/mx66uw1g45g/mx66uw1g45g.c ****   s_command.AddressDTRMode = HAL_XSPI_ADDRESS_DTR_DISABLE;
 1224              		.loc 1 568 3 view .LVU407
 560:STM32Cube_FW_N6/Drivers/BSP/Components/mx66uw1g45g/mx66uw1g45g.c ****                                    ? HAL_XSPI_INSTRUCTION_8_BITS
 1225              		.loc 1 560 30 is_stmt 0 view .LVU408
 1226 0036 4EF61342 		movw	r2, #60435
 568:STM32Cube_FW_N6/Drivers/BSP/Components/mx66uw1g45g/mx66uw1g45g.c ****   s_command.AddressDTRMode = HAL_XSPI_ADDRESS_DTR_DISABLE;
 1227              		.loc 1 568 84 discriminator 2 view .LVU409
 1228 003a 4FF48063 		mov	r3, #1024
 1229              	.L82:
 572:STM32Cube_FW_N6/Drivers/BSP/Components/mx66uw1g45g/mx66uw1g45g.c ****   s_command.AlternateBytesMode = HAL_XSPI_ALT_BYTES_NONE;
 1230              		.loc 1 572 32 discriminator 1 view .LVU410
 1231 003e 002D     		cmp	r5, #0
 568:STM32Cube_FW_N6/Drivers/BSP/Components/mx66uw1g45g/mx66uw1g45g.c ****   s_command.AddressDTRMode = HAL_XSPI_ADDRESS_DTR_DISABLE;
 1232              		.loc 1 568 25 discriminator 4 view .LVU411
 1233 0040 0C93     		str	r3, [sp, #48]
 569:STM32Cube_FW_N6/Drivers/BSP/Components/mx66uw1g45g/mx66uw1g45g.c ****   s_command.AddressWidth = (AddressWidth == MX66UW1G45G_3BYTES_SIZE)
 1234              		.loc 1 569 3 is_stmt 1 view .LVU412
 570:STM32Cube_FW_N6/Drivers/BSP/Components/mx66uw1g45g/mx66uw1g45g.c ****                                ? HAL_XSPI_ADDRESS_24_BITS
 1235              		.loc 1 570 3 view .LVU413
 572:STM32Cube_FW_N6/Drivers/BSP/Components/mx66uw1g45g/mx66uw1g45g.c ****   s_command.AlternateBytesMode = HAL_XSPI_ALT_BYTES_NONE;
 1236              		.loc 1 572 32 is_stmt 0 discriminator 1 view .LVU414
 1237 0042 14BF     		ite	ne
 1238 0044 4FF44053 		movne	r3, #12288
 1239 0048 4FF40053 		moveq	r3, #8192
 574:STM32Cube_FW_N6/Drivers/BSP/Components/mx66uw1g45g/mx66uw1g45g.c ****   s_command.DataDTRMode = HAL_XSPI_DATA_DTR_DISABLE;
 1240              		.loc 1 574 22 discriminator 4 view .LVU415
 1241 004c 002C     		cmp	r4, #0
 563:STM32Cube_FW_N6/Drivers/BSP/Components/mx66uw1g45g/mx66uw1g45g.c ****                               ? ((AddressWidth == MX66UW1G45G_3BYTES_SIZE)
 1242              		.loc 1 563 25 view .LVU416
 1243 004e 0792     		str	r2, [sp, #28]
 574:STM32Cube_FW_N6/Drivers/BSP/Components/mx66uw1g45g/mx66uw1g45g.c ****   s_command.DataDTRMode = HAL_XSPI_DATA_DTR_DISABLE;
 1244              		.loc 1 574 22 discriminator 4 view .LVU417
 1245 0050 0CBF     		ite	eq
 1246 0052 4FF08072 		moveq	r2, #16777216
 1247 0056 4FF08062 		movne	r2, #67108864
 570:STM32Cube_FW_N6/Drivers/BSP/Components/mx66uw1g45g/mx66uw1g45g.c ****                                ? HAL_XSPI_ADDRESS_24_BITS
 1248              		.loc 1 570 26 view .LVU418
 1249 005a 0D93     		str	r3, [sp, #52]
 573:STM32Cube_FW_N6/Drivers/BSP/Components/mx66uw1g45g/mx66uw1g45g.c ****   s_command.DataMode = (Mode == MX66UW1G45G_SPI_MODE) ? HAL_XSPI_DATA_1_LINE : HAL_XSPI_DATA_8_LINE
 1250              		.loc 1 573 3 is_stmt 1 view .LVU419
 574:STM32Cube_FW_N6/Drivers/BSP/Components/mx66uw1g45g/mx66uw1g45g.c ****   s_command.DataDTRMode = HAL_XSPI_DATA_DTR_DISABLE;
 1251              		.loc 1 574 3 view .LVU420
 574:STM32Cube_FW_N6/Drivers/BSP/Components/mx66uw1g45g/mx66uw1g45g.c ****   s_command.DataDTRMode = HAL_XSPI_DATA_DTR_DISABLE;
 1252              		.loc 1 574 22 is_stmt 0 discriminator 4 view .LVU421
 1253 005c 0CBF     		ite	eq
 1254 005e 0823     		moveq	r3, #8
 1255 0060 0A23     		movne	r3, #10
 1256 0062 1392     		str	r2, [sp, #76]
 583:STM32Cube_FW_N6/Drivers/BSP/Components/mx66uw1g45g/mx66uw1g45g.c ****   {
ARM GAS  C:\Users\DJESSOU\AppData\Local\Temp\ccAx4BcF.s 			page 38


 1257              		.loc 1 583 7 view .LVU422
 1258 0064 3046     		mov	r0, r6
 1259 0066 41F28832 		movw	r2, #5000
 1260 006a 05A9     		add	r1, sp, #20
 576:STM32Cube_FW_N6/Drivers/BSP/Components/mx66uw1g45g/mx66uw1g45g.c ****   s_command.DQSMode = HAL_XSPI_DQS_DISABLE;
 1261              		.loc 1 576 25 discriminator 4 view .LVU423
 1262 006c 1693     		str	r3, [sp, #88]
 577:STM32Cube_FW_N6/Drivers/BSP/Components/mx66uw1g45g/mx66uw1g45g.c ****  #if defined (XSPI_CCR_SIOO)
 1263              		.loc 1 577 3 is_stmt 1 view .LVU424
 583:STM32Cube_FW_N6/Drivers/BSP/Components/mx66uw1g45g/mx66uw1g45g.c ****   {
 1264              		.loc 1 583 3 view .LVU425
 583:STM32Cube_FW_N6/Drivers/BSP/Components/mx66uw1g45g/mx66uw1g45g.c ****   {
 1265              		.loc 1 583 7 is_stmt 0 view .LVU426
 1266 006e FFF7FEFF 		bl	HAL_XSPI_Command
 1267              	.LVL67:
 583:STM32Cube_FW_N6/Drivers/BSP/Components/mx66uw1g45g/mx66uw1g45g.c ****   {
 1268              		.loc 1 583 6 discriminator 1 view .LVU427
 1269 0072 0028     		cmp	r0, #0
 1270 0074 D6D1     		bne	.L86
 589:STM32Cube_FW_N6/Drivers/BSP/Components/mx66uw1g45g/mx66uw1g45g.c ****   s_command.Instruction = (Mode == MX66UW1G45G_SPI_MODE)
 1271              		.loc 1 589 3 is_stmt 1 view .LVU428
 589:STM32Cube_FW_N6/Drivers/BSP/Components/mx66uw1g45g/mx66uw1g45g.c ****   s_command.Instruction = (Mode == MX66UW1G45G_SPI_MODE)
 1272              		.loc 1 589 27 is_stmt 0 view .LVU429
 1273 0076 0223     		movs	r3, #2
 1274 0078 0593     		str	r3, [sp, #20]
 590:STM32Cube_FW_N6/Drivers/BSP/Components/mx66uw1g45g/mx66uw1g45g.c ****                               ? ((AddressWidth == MX66UW1G45G_3BYTES_SIZE)
 1275              		.loc 1 590 3 is_stmt 1 view .LVU430
 594:STM32Cube_FW_N6/Drivers/BSP/Components/mx66uw1g45g/mx66uw1g45g.c ****   s_command.DummyCycles = 0U;
 1276              		.loc 1 594 31 is_stmt 0 view .LVU431
 1277 007a 1CBB     		cbnz	r4, .L91
 594:STM32Cube_FW_N6/Drivers/BSP/Components/mx66uw1g45g/mx66uw1g45g.c ****   s_command.DummyCycles = 0U;
 1278              		.loc 1 594 31 discriminator 3 view .LVU432
 1279 007c 002D     		cmp	r5, #0
 1280 007e 18BF     		it	ne
 1281 0080 1223     		movne	r3, #18
 1282              	.L87:
 590:STM32Cube_FW_N6/Drivers/BSP/Components/mx66uw1g45g/mx66uw1g45g.c ****                               ? ((AddressWidth == MX66UW1G45G_3BYTES_SIZE)
 1283              		.loc 1 590 25 view .LVU433
 1284 0082 0793     		str	r3, [sp, #28]
 595:STM32Cube_FW_N6/Drivers/BSP/Components/mx66uw1g45g/mx66uw1g45g.c **** 
 1285              		.loc 1 595 3 is_stmt 1 view .LVU434
 595:STM32Cube_FW_N6/Drivers/BSP/Components/mx66uw1g45g/mx66uw1g45g.c **** 
 1286              		.loc 1 595 25 is_stmt 0 view .LVU435
 1287 0084 0023     		movs	r3, #0
 598:STM32Cube_FW_N6/Drivers/BSP/Components/mx66uw1g45g/mx66uw1g45g.c ****   {
 1288              		.loc 1 598 7 view .LVU436
 1289 0086 41F28832 		movw	r2, #5000
 1290 008a 3046     		mov	r0, r6
 1291 008c 05A9     		add	r1, sp, #20
 595:STM32Cube_FW_N6/Drivers/BSP/Components/mx66uw1g45g/mx66uw1g45g.c **** 
 1292              		.loc 1 595 25 view .LVU437
 1293 008e 1693     		str	r3, [sp, #88]
 598:STM32Cube_FW_N6/Drivers/BSP/Components/mx66uw1g45g/mx66uw1g45g.c ****   {
 1294              		.loc 1 598 3 is_stmt 1 view .LVU438
 598:STM32Cube_FW_N6/Drivers/BSP/Components/mx66uw1g45g/mx66uw1g45g.c ****   {
 1295              		.loc 1 598 7 is_stmt 0 view .LVU439
 1296 0090 FFF7FEFF 		bl	HAL_XSPI_Command
ARM GAS  C:\Users\DJESSOU\AppData\Local\Temp\ccAx4BcF.s 			page 39


 1297              	.LVL68:
 598:STM32Cube_FW_N6/Drivers/BSP/Components/mx66uw1g45g/mx66uw1g45g.c ****   {
 1298              		.loc 1 598 6 discriminator 1 view .LVU440
 1299 0094 0028     		cmp	r0, #0
 1300 0096 C5D1     		bne	.L86
 604:STM32Cube_FW_N6/Drivers/BSP/Components/mx66uw1g45g/mx66uw1g45g.c **** 
 1301              		.loc 1 604 3 is_stmt 1 view .LVU441
 604:STM32Cube_FW_N6/Drivers/BSP/Components/mx66uw1g45g/mx66uw1g45g.c **** 
 1302              		.loc 1 604 38 is_stmt 0 view .LVU442
 1303 0098 0190     		str	r0, [sp, #4]
 606:STM32Cube_FW_N6/Drivers/BSP/Components/mx66uw1g45g/mx66uw1g45g.c ****   {
 1304              		.loc 1 606 3 is_stmt 1 view .LVU443
 606:STM32Cube_FW_N6/Drivers/BSP/Components/mx66uw1g45g/mx66uw1g45g.c ****   {
 1305              		.loc 1 606 7 is_stmt 0 view .LVU444
 1306 009a 01A9     		add	r1, sp, #4
 1307 009c 3046     		mov	r0, r6
 1308 009e FFF7FEFF 		bl	HAL_XSPI_MemoryMapped
 1309              	.LVL69:
 606:STM32Cube_FW_N6/Drivers/BSP/Components/mx66uw1g45g/mx66uw1g45g.c ****   {
 1310              		.loc 1 606 6 discriminator 1 view .LVU445
 1311 00a2 0038     		subs	r0, r0, #0
 1312 00a4 18BF     		it	ne
 1313 00a6 0120     		movne	r0, #1
 1314 00a8 4042     		rsbs	r0, r0, #0
 1315 00aa BDE7     		b	.L76
 1316              	.L77:
 555:STM32Cube_FW_N6/Drivers/BSP/Components/mx66uw1g45g/mx66uw1g45g.c ****   s_command.InstructionMode = (Mode == MX66UW1G45G_SPI_MODE)
 1317              		.loc 1 555 3 is_stmt 1 view .LVU446
 555:STM32Cube_FW_N6/Drivers/BSP/Components/mx66uw1g45g/mx66uw1g45g.c ****   s_command.InstructionMode = (Mode == MX66UW1G45G_SPI_MODE)
 1318              		.loc 1 555 27 is_stmt 0 view .LVU447
 1319 00ac 0123     		movs	r3, #1
 1320 00ae 0593     		str	r3, [sp, #20]
 556:STM32Cube_FW_N6/Drivers/BSP/Components/mx66uw1g45g/mx66uw1g45g.c ****                                   ? HAL_XSPI_INSTRUCTION_1_LINE
 1321              		.loc 1 556 3 is_stmt 1 view .LVU448
 558:STM32Cube_FW_N6/Drivers/BSP/Components/mx66uw1g45g/mx66uw1g45g.c ****   s_command.InstructionDTRMode = HAL_XSPI_INSTRUCTION_DTR_DISABLE;
 1322              		.loc 1 558 35 is_stmt 0 view .LVU449
 1323 00b0 002C     		cmp	r4, #0
 1324 00b2 BCD1     		bne	.L80
 567:STM32Cube_FW_N6/Drivers/BSP/Components/mx66uw1g45g/mx66uw1g45g.c ****   s_command.AddressMode = (Mode == MX66UW1G45G_SPI_MODE) ? HAL_XSPI_ADDRESS_1_LINE : HAL_XSPI_ADDRE
 1325              		.loc 1 567 31 discriminator 3 view .LVU450
 1326 00b4 002D     		cmp	r5, #0
 556:STM32Cube_FW_N6/Drivers/BSP/Components/mx66uw1g45g/mx66uw1g45g.c ****                                   ? HAL_XSPI_INSTRUCTION_1_LINE
 1327              		.loc 1 556 29 view .LVU451
 1328 00b6 0893     		str	r3, [sp, #32]
 559:STM32Cube_FW_N6/Drivers/BSP/Components/mx66uw1g45g/mx66uw1g45g.c ****   s_command.InstructionWidth = (Mode == MX66UW1G45G_SPI_MODE)
 1329              		.loc 1 559 3 is_stmt 1 view .LVU452
 560:STM32Cube_FW_N6/Drivers/BSP/Components/mx66uw1g45g/mx66uw1g45g.c ****                                    ? HAL_XSPI_INSTRUCTION_8_BITS
 1330              		.loc 1 560 3 view .LVU453
 563:STM32Cube_FW_N6/Drivers/BSP/Components/mx66uw1g45g/mx66uw1g45g.c ****                               ? ((AddressWidth == MX66UW1G45G_3BYTES_SIZE)
 1331              		.loc 1 563 3 view .LVU454
 567:STM32Cube_FW_N6/Drivers/BSP/Components/mx66uw1g45g/mx66uw1g45g.c ****   s_command.AddressMode = (Mode == MX66UW1G45G_SPI_MODE) ? HAL_XSPI_ADDRESS_1_LINE : HAL_XSPI_ADDRE
 1332              		.loc 1 567 31 is_stmt 0 discriminator 3 view .LVU455
 1333 00b8 14BF     		ite	ne
 1334 00ba 0C22     		movne	r2, #12
 1335 00bc 0B22     		moveq	r2, #11
 568:STM32Cube_FW_N6/Drivers/BSP/Components/mx66uw1g45g/mx66uw1g45g.c ****   s_command.AddressDTRMode = HAL_XSPI_ADDRESS_DTR_DISABLE;
 1336              		.loc 1 568 3 is_stmt 1 view .LVU456
ARM GAS  C:\Users\DJESSOU\AppData\Local\Temp\ccAx4BcF.s 			page 40


 568:STM32Cube_FW_N6/Drivers/BSP/Components/mx66uw1g45g/mx66uw1g45g.c ****   s_command.AddressDTRMode = HAL_XSPI_ADDRESS_DTR_DISABLE;
 1337              		.loc 1 568 84 is_stmt 0 discriminator 1 view .LVU457
 1338 00be 4FF48073 		mov	r3, #256
 1339 00c2 BCE7     		b	.L82
 1340              	.L91:
 594:STM32Cube_FW_N6/Drivers/BSP/Components/mx66uw1g45g/mx66uw1g45g.c ****   s_command.DummyCycles = 0U;
 1341              		.loc 1 594 31 discriminator 2 view .LVU458
 1342 00c4 41F2ED23 		movw	r3, #4845
 1343 00c8 DBE7     		b	.L87
 1344              		.cfi_endproc
 1345              	.LFE870:
 1347              		.section	.text.MX66UW1G45G_EnableDTRMemoryMappedMode,"ax",%progbits
 1348              		.align	1
 1349              		.global	MX66UW1G45G_EnableDTRMemoryMappedMode
 1350              		.syntax unified
 1351              		.thumb
 1352              		.thumb_func
 1354              	MX66UW1G45G_EnableDTRMemoryMappedMode:
 1355              	.LVL70:
 1356              	.LFB871:
 613:STM32Cube_FW_N6/Drivers/BSP/Components/mx66uw1g45g/mx66uw1g45g.c **** 
 614:STM32Cube_FW_N6/Drivers/BSP/Components/mx66uw1g45g/mx66uw1g45g.c **** /**
 615:STM32Cube_FW_N6/Drivers/BSP/Components/mx66uw1g45g/mx66uw1g45g.c ****   * @brief  Enable memory mapped mode for the XSPI memory on DTR mode.
 616:STM32Cube_FW_N6/Drivers/BSP/Components/mx66uw1g45g/mx66uw1g45g.c ****   * @param  Ctx Component object pointer
 617:STM32Cube_FW_N6/Drivers/BSP/Components/mx66uw1g45g/mx66uw1g45g.c ****   * @param  Mode Interface mode
 618:STM32Cube_FW_N6/Drivers/BSP/Components/mx66uw1g45g/mx66uw1g45g.c ****   * @param  AddressWidth Address size
 619:STM32Cube_FW_N6/Drivers/BSP/Components/mx66uw1g45g/mx66uw1g45g.c ****   * @note   Only OPI mode support DTR transfer rate
 620:STM32Cube_FW_N6/Drivers/BSP/Components/mx66uw1g45g/mx66uw1g45g.c ****   * @retval XSPI memory status
 621:STM32Cube_FW_N6/Drivers/BSP/Components/mx66uw1g45g/mx66uw1g45g.c ****   */
 622:STM32Cube_FW_N6/Drivers/BSP/Components/mx66uw1g45g/mx66uw1g45g.c **** int32_t MX66UW1G45G_EnableDTRMemoryMappedMode(XSPI_HandleTypeDef *Ctx, MX66UW1G45G_Interface_t Mode
 623:STM32Cube_FW_N6/Drivers/BSP/Components/mx66uw1g45g/mx66uw1g45g.c **** {
 1357              		.loc 1 623 1 is_stmt 1 view -0
 1358              		.cfi_startproc
 1359              		@ args = 0, pretend = 0, frame = 96
 1360              		@ frame_needed = 0, uses_anonymous_args = 0
 624:STM32Cube_FW_N6/Drivers/BSP/Components/mx66uw1g45g/mx66uw1g45g.c ****   /* Prevent unused argument(s) compilation warning */
 625:STM32Cube_FW_N6/Drivers/BSP/Components/mx66uw1g45g/mx66uw1g45g.c ****   UNUSED(Mode);
 1361              		.loc 1 625 3 view .LVU460
 626:STM32Cube_FW_N6/Drivers/BSP/Components/mx66uw1g45g/mx66uw1g45g.c **** 
 627:STM32Cube_FW_N6/Drivers/BSP/Components/mx66uw1g45g/mx66uw1g45g.c ****   XSPI_RegularCmdTypeDef s_command = {0};
 1362              		.loc 1 627 3 view .LVU461
 623:STM32Cube_FW_N6/Drivers/BSP/Components/mx66uw1g45g/mx66uw1g45g.c ****   /* Prevent unused argument(s) compilation warning */
 1363              		.loc 1 623 1 is_stmt 0 view .LVU462
 1364 0000 30B5     		push	{r4, r5, lr}
 1365              		.cfi_def_cfa_offset 12
 1366              		.cfi_offset 4, -12
 1367              		.cfi_offset 5, -8
 1368              		.cfi_offset 14, -4
 628:STM32Cube_FW_N6/Drivers/BSP/Components/mx66uw1g45g/mx66uw1g45g.c ****   XSPI_MemoryMappedTypeDef s_mem_mapped_cfg = {0};
 1369              		.loc 1 628 28 view .LVU463
 1370 0002 1025     		movs	r5, #16
 623:STM32Cube_FW_N6/Drivers/BSP/Components/mx66uw1g45g/mx66uw1g45g.c ****   /* Prevent unused argument(s) compilation warning */
 1371              		.loc 1 623 1 view .LVU464
 1372 0004 99B0     		sub	sp, sp, #100
 1373              		.cfi_def_cfa_offset 112
 623:STM32Cube_FW_N6/Drivers/BSP/Components/mx66uw1g45g/mx66uw1g45g.c ****   /* Prevent unused argument(s) compilation warning */
 1374              		.loc 1 623 1 view .LVU465
ARM GAS  C:\Users\DJESSOU\AppData\Local\Temp\ccAx4BcF.s 			page 41


 1375 0006 0446     		mov	r4, r0
 627:STM32Cube_FW_N6/Drivers/BSP/Components/mx66uw1g45g/mx66uw1g45g.c ****   XSPI_MemoryMappedTypeDef s_mem_mapped_cfg = {0};
 1376              		.loc 1 627 26 view .LVU466
 1377 0008 3C22     		movs	r2, #60
 1378 000a 0021     		movs	r1, #0
 1379              	.LVL71:
 627:STM32Cube_FW_N6/Drivers/BSP/Components/mx66uw1g45g/mx66uw1g45g.c ****   XSPI_MemoryMappedTypeDef s_mem_mapped_cfg = {0};
 1380              		.loc 1 627 26 view .LVU467
 1381 000c 06A8     		add	r0, sp, #24
 1382              	.LVL72:
 627:STM32Cube_FW_N6/Drivers/BSP/Components/mx66uw1g45g/mx66uw1g45g.c ****   XSPI_MemoryMappedTypeDef s_mem_mapped_cfg = {0};
 1383              		.loc 1 627 26 view .LVU468
 1384 000e FFF7FEFF 		bl	memset
 1385              	.LVL73:
 1386              		.loc 1 628 3 is_stmt 1 view .LVU469
 1387              		.loc 1 628 28 is_stmt 0 view .LVU470
 1388 0012 2A46     		mov	r2, r5
 1389 0014 0021     		movs	r1, #0
 1390 0016 01A8     		add	r0, sp, #4
 1391 0018 FFF7FEFF 		bl	memset
 1392              	.LVL74:
 629:STM32Cube_FW_N6/Drivers/BSP/Components/mx66uw1g45g/mx66uw1g45g.c **** 
 630:STM32Cube_FW_N6/Drivers/BSP/Components/mx66uw1g45g/mx66uw1g45g.c ****   /* Initialize the read command */
 631:STM32Cube_FW_N6/Drivers/BSP/Components/mx66uw1g45g/mx66uw1g45g.c ****   s_command.OperationType = HAL_XSPI_OPTYPE_READ_CFG;
 1393              		.loc 1 631 3 is_stmt 1 view .LVU471
 1394              		.loc 1 631 27 is_stmt 0 view .LVU472
 1395 001c 0123     		movs	r3, #1
 1396 001e 0593     		str	r3, [sp, #20]
 632:STM32Cube_FW_N6/Drivers/BSP/Components/mx66uw1g45g/mx66uw1g45g.c ****   s_command.InstructionMode = HAL_XSPI_INSTRUCTION_8_LINES;
 1397              		.loc 1 632 3 is_stmt 1 view .LVU473
 1398              		.loc 1 632 29 is_stmt 0 view .LVU474
 1399 0020 0423     		movs	r3, #4
 1400 0022 0893     		str	r3, [sp, #32]
 633:STM32Cube_FW_N6/Drivers/BSP/Components/mx66uw1g45g/mx66uw1g45g.c ****   s_command.InstructionDTRMode = HAL_XSPI_INSTRUCTION_DTR_ENABLE;
 1401              		.loc 1 633 3 is_stmt 1 view .LVU475
 1402              		.loc 1 633 32 is_stmt 0 view .LVU476
 1403 0024 0823     		movs	r3, #8
 634:STM32Cube_FW_N6/Drivers/BSP/Components/mx66uw1g45g/mx66uw1g45g.c ****   s_command.InstructionWidth = HAL_XSPI_INSTRUCTION_16_BITS;
 1404              		.loc 1 634 30 view .LVU477
 1405 0026 CDE90953 		strd	r5, r3, [sp, #36]
 635:STM32Cube_FW_N6/Drivers/BSP/Components/mx66uw1g45g/mx66uw1g45g.c ****   s_command.Instruction = MX66UW1G45G_OCTA_READ_DTR_CMD;
 1406              		.loc 1 635 3 is_stmt 1 view .LVU478
 1407              		.loc 1 635 25 is_stmt 0 view .LVU479
 1408 002a 4EF61163 		movw	r3, #60945
 1409 002e 0793     		str	r3, [sp, #28]
 636:STM32Cube_FW_N6/Drivers/BSP/Components/mx66uw1g45g/mx66uw1g45g.c ****   s_command.AddressMode = HAL_XSPI_ADDRESS_8_LINES;
 1410              		.loc 1 636 3 is_stmt 1 view .LVU480
 1411              		.loc 1 636 25 is_stmt 0 view .LVU481
 1412 0030 4FF48063 		mov	r3, #1024
 637:STM32Cube_FW_N6/Drivers/BSP/Components/mx66uw1g45g/mx66uw1g45g.c ****   s_command.AddressDTRMode = HAL_XSPI_ADDRESS_DTR_ENABLE;
 638:STM32Cube_FW_N6/Drivers/BSP/Components/mx66uw1g45g/mx66uw1g45g.c ****   s_command.AddressWidth = HAL_XSPI_ADDRESS_32_BITS;
 1413              		.loc 1 638 26 view .LVU482
 1414 0034 4FF4006E 		mov	lr, #2048
 636:STM32Cube_FW_N6/Drivers/BSP/Components/mx66uw1g45g/mx66uw1g45g.c ****   s_command.AddressMode = HAL_XSPI_ADDRESS_8_LINES;
 1415              		.loc 1 636 25 view .LVU483
 1416 0038 0C93     		str	r3, [sp, #48]
 637:STM32Cube_FW_N6/Drivers/BSP/Components/mx66uw1g45g/mx66uw1g45g.c ****   s_command.AddressDTRMode = HAL_XSPI_ADDRESS_DTR_ENABLE;
ARM GAS  C:\Users\DJESSOU\AppData\Local\Temp\ccAx4BcF.s 			page 42


 1417              		.loc 1 637 3 is_stmt 1 view .LVU484
 1418              		.loc 1 638 26 is_stmt 0 view .LVU485
 1419 003a 4FF44053 		mov	r3, #12288
 1420 003e CDE90D3E 		strd	r3, lr, [sp, #52]
 639:STM32Cube_FW_N6/Drivers/BSP/Components/mx66uw1g45g/mx66uw1g45g.c ****   s_command.AlternateBytesMode = HAL_XSPI_ALT_BYTES_NONE;
 1421              		.loc 1 639 3 is_stmt 1 view .LVU486
 640:STM32Cube_FW_N6/Drivers/BSP/Components/mx66uw1g45g/mx66uw1g45g.c ****   s_command.DataMode = HAL_XSPI_DATA_8_LINES;
 1422              		.loc 1 640 3 view .LVU487
 1423              		.loc 1 640 22 is_stmt 0 view .LVU488
 1424 0042 4FF08063 		mov	r3, #67108864
 641:STM32Cube_FW_N6/Drivers/BSP/Components/mx66uw1g45g/mx66uw1g45g.c ****   s_command.DataDTRMode = HAL_XSPI_DATA_DTR_ENABLE;
 642:STM32Cube_FW_N6/Drivers/BSP/Components/mx66uw1g45g/mx66uw1g45g.c ****   s_command.DummyCycles = DUMMY_CYCLES_READ_OCTAL_DTR;
 1425              		.loc 1 642 25 view .LVU489
 1426 0046 4FF00061 		mov	r1, #134217728
 640:STM32Cube_FW_N6/Drivers/BSP/Components/mx66uw1g45g/mx66uw1g45g.c ****   s_command.DataMode = HAL_XSPI_DATA_8_LINES;
 1427              		.loc 1 640 22 view .LVU490
 1428 004a 1393     		str	r3, [sp, #76]
 641:STM32Cube_FW_N6/Drivers/BSP/Components/mx66uw1g45g/mx66uw1g45g.c ****   s_command.DataDTRMode = HAL_XSPI_DATA_DTR_ENABLE;
 1429              		.loc 1 641 3 is_stmt 1 view .LVU491
 1430              		.loc 1 642 25 is_stmt 0 view .LVU492
 1431 004c 0A23     		movs	r3, #10
 1432 004e CDE91513 		strd	r1, r3, [sp, #84]
 643:STM32Cube_FW_N6/Drivers/BSP/Components/mx66uw1g45g/mx66uw1g45g.c ****   s_command.DQSMode = HAL_XSPI_DQS_ENABLE;
 1433              		.loc 1 643 3 is_stmt 1 view .LVU493
 1434              		.loc 1 643 21 is_stmt 0 view .LVU494
 1435 0052 4FF00053 		mov	r3, #536870912
 644:STM32Cube_FW_N6/Drivers/BSP/Components/mx66uw1g45g/mx66uw1g45g.c ****  #if defined (XSPI_CCR_SIOO)
 645:STM32Cube_FW_N6/Drivers/BSP/Components/mx66uw1g45g/mx66uw1g45g.c ****   s_command.SIOOMode            = HAL_XSPI_SIOO_INST_EVERY_CMD;
 646:STM32Cube_FW_N6/Drivers/BSP/Components/mx66uw1g45g/mx66uw1g45g.c ****  #endif
 647:STM32Cube_FW_N6/Drivers/BSP/Components/mx66uw1g45g/mx66uw1g45g.c **** 
 648:STM32Cube_FW_N6/Drivers/BSP/Components/mx66uw1g45g/mx66uw1g45g.c ****   /* Send the command */
 649:STM32Cube_FW_N6/Drivers/BSP/Components/mx66uw1g45g/mx66uw1g45g.c ****   if (HAL_XSPI_Command(Ctx, &s_command, HAL_XSPI_TIMEOUT_DEFAULT_VALUE) != HAL_OK)
 1436              		.loc 1 649 7 view .LVU495
 1437 0056 41F28832 		movw	r2, #5000
 1438 005a 2046     		mov	r0, r4
 1439 005c 05A9     		add	r1, sp, #20
 643:STM32Cube_FW_N6/Drivers/BSP/Components/mx66uw1g45g/mx66uw1g45g.c ****   s_command.DQSMode = HAL_XSPI_DQS_ENABLE;
 1440              		.loc 1 643 21 view .LVU496
 1441 005e 1793     		str	r3, [sp, #92]
 1442              		.loc 1 649 3 is_stmt 1 view .LVU497
 1443              		.loc 1 649 7 is_stmt 0 view .LVU498
 1444 0060 FFF7FEFF 		bl	HAL_XSPI_Command
 1445              	.LVL75:
 1446              		.loc 1 649 6 discriminator 1 view .LVU499
 1447 0064 18B1     		cbz	r0, .L94
 1448              	.L96:
 650:STM32Cube_FW_N6/Drivers/BSP/Components/mx66uw1g45g/mx66uw1g45g.c ****   {
 651:STM32Cube_FW_N6/Drivers/BSP/Components/mx66uw1g45g/mx66uw1g45g.c ****     return MX66UW1G45G_ERROR;
 1449              		.loc 1 651 12 view .LVU500
 1450 0066 4FF0FF30 		mov	r0, #-1
 1451              	.L93:
 652:STM32Cube_FW_N6/Drivers/BSP/Components/mx66uw1g45g/mx66uw1g45g.c ****   }
 653:STM32Cube_FW_N6/Drivers/BSP/Components/mx66uw1g45g/mx66uw1g45g.c **** 
 654:STM32Cube_FW_N6/Drivers/BSP/Components/mx66uw1g45g/mx66uw1g45g.c ****   /* Initialize the program command */
 655:STM32Cube_FW_N6/Drivers/BSP/Components/mx66uw1g45g/mx66uw1g45g.c ****   s_command.OperationType = HAL_XSPI_OPTYPE_WRITE_CFG;
 656:STM32Cube_FW_N6/Drivers/BSP/Components/mx66uw1g45g/mx66uw1g45g.c ****   s_command.Instruction = MX66UW1G45G_OCTA_PAGE_PROG_CMD;
 657:STM32Cube_FW_N6/Drivers/BSP/Components/mx66uw1g45g/mx66uw1g45g.c ****   s_command.DummyCycles = 0U;
ARM GAS  C:\Users\DJESSOU\AppData\Local\Temp\ccAx4BcF.s 			page 43


 658:STM32Cube_FW_N6/Drivers/BSP/Components/mx66uw1g45g/mx66uw1g45g.c ****   s_command.DQSMode = HAL_XSPI_DQS_DISABLE;
 659:STM32Cube_FW_N6/Drivers/BSP/Components/mx66uw1g45g/mx66uw1g45g.c **** 
 660:STM32Cube_FW_N6/Drivers/BSP/Components/mx66uw1g45g/mx66uw1g45g.c ****   /* Send the command */
 661:STM32Cube_FW_N6/Drivers/BSP/Components/mx66uw1g45g/mx66uw1g45g.c ****   if (HAL_XSPI_Command(Ctx, &s_command, HAL_XSPI_TIMEOUT_DEFAULT_VALUE) != HAL_OK)
 662:STM32Cube_FW_N6/Drivers/BSP/Components/mx66uw1g45g/mx66uw1g45g.c ****   {
 663:STM32Cube_FW_N6/Drivers/BSP/Components/mx66uw1g45g/mx66uw1g45g.c ****     return MX66UW1G45G_ERROR;
 664:STM32Cube_FW_N6/Drivers/BSP/Components/mx66uw1g45g/mx66uw1g45g.c ****   }
 665:STM32Cube_FW_N6/Drivers/BSP/Components/mx66uw1g45g/mx66uw1g45g.c ****   /* Configure the memory mapped mode */
 666:STM32Cube_FW_N6/Drivers/BSP/Components/mx66uw1g45g/mx66uw1g45g.c ****   s_mem_mapped_cfg.TimeOutActivation = HAL_XSPI_TIMEOUT_COUNTER_DISABLE;
 667:STM32Cube_FW_N6/Drivers/BSP/Components/mx66uw1g45g/mx66uw1g45g.c **** 
 668:STM32Cube_FW_N6/Drivers/BSP/Components/mx66uw1g45g/mx66uw1g45g.c ****   if (HAL_XSPI_MemoryMapped(Ctx, &s_mem_mapped_cfg) != HAL_OK)
 669:STM32Cube_FW_N6/Drivers/BSP/Components/mx66uw1g45g/mx66uw1g45g.c ****   {
 670:STM32Cube_FW_N6/Drivers/BSP/Components/mx66uw1g45g/mx66uw1g45g.c ****     return MX66UW1G45G_ERROR;
 671:STM32Cube_FW_N6/Drivers/BSP/Components/mx66uw1g45g/mx66uw1g45g.c ****   }
 672:STM32Cube_FW_N6/Drivers/BSP/Components/mx66uw1g45g/mx66uw1g45g.c **** 
 673:STM32Cube_FW_N6/Drivers/BSP/Components/mx66uw1g45g/mx66uw1g45g.c ****   return MX66UW1G45G_OK;
 674:STM32Cube_FW_N6/Drivers/BSP/Components/mx66uw1g45g/mx66uw1g45g.c **** }
 1452              		.loc 1 674 1 view .LVU501
 1453 006a 19B0     		add	sp, sp, #100
 1454              		.cfi_remember_state
 1455              		.cfi_def_cfa_offset 12
 1456              		@ sp needed
 1457 006c 30BD     		pop	{r4, r5, pc}
 1458              	.LVL76:
 1459              	.L94:
 1460              		.cfi_restore_state
 655:STM32Cube_FW_N6/Drivers/BSP/Components/mx66uw1g45g/mx66uw1g45g.c ****   s_command.Instruction = MX66UW1G45G_OCTA_PAGE_PROG_CMD;
 1461              		.loc 1 655 3 is_stmt 1 view .LVU502
 655:STM32Cube_FW_N6/Drivers/BSP/Components/mx66uw1g45g/mx66uw1g45g.c ****   s_command.Instruction = MX66UW1G45G_OCTA_PAGE_PROG_CMD;
 1462              		.loc 1 655 27 is_stmt 0 view .LVU503
 1463 006e 0223     		movs	r3, #2
 1464 0070 0593     		str	r3, [sp, #20]
 656:STM32Cube_FW_N6/Drivers/BSP/Components/mx66uw1g45g/mx66uw1g45g.c ****   s_command.DummyCycles = 0U;
 1465              		.loc 1 656 3 is_stmt 1 view .LVU504
 656:STM32Cube_FW_N6/Drivers/BSP/Components/mx66uw1g45g/mx66uw1g45g.c ****   s_command.DummyCycles = 0U;
 1466              		.loc 1 656 25 is_stmt 0 view .LVU505
 1467 0072 41F2ED23 		movw	r3, #4845
 658:STM32Cube_FW_N6/Drivers/BSP/Components/mx66uw1g45g/mx66uw1g45g.c **** 
 1468              		.loc 1 658 21 view .LVU506
 1469 0076 CDE91600 		strd	r0, r0, [sp, #88]
 661:STM32Cube_FW_N6/Drivers/BSP/Components/mx66uw1g45g/mx66uw1g45g.c ****   {
 1470              		.loc 1 661 7 view .LVU507
 1471 007a 41F28832 		movw	r2, #5000
 1472 007e 2046     		mov	r0, r4
 1473 0080 05A9     		add	r1, sp, #20
 656:STM32Cube_FW_N6/Drivers/BSP/Components/mx66uw1g45g/mx66uw1g45g.c ****   s_command.DummyCycles = 0U;
 1474              		.loc 1 656 25 view .LVU508
 1475 0082 0793     		str	r3, [sp, #28]
 657:STM32Cube_FW_N6/Drivers/BSP/Components/mx66uw1g45g/mx66uw1g45g.c ****   s_command.DQSMode = HAL_XSPI_DQS_DISABLE;
 1476              		.loc 1 657 3 is_stmt 1 view .LVU509
 661:STM32Cube_FW_N6/Drivers/BSP/Components/mx66uw1g45g/mx66uw1g45g.c ****   {
 1477              		.loc 1 661 3 view .LVU510
 661:STM32Cube_FW_N6/Drivers/BSP/Components/mx66uw1g45g/mx66uw1g45g.c ****   {
 1478              		.loc 1 661 7 is_stmt 0 view .LVU511
 1479 0084 FFF7FEFF 		bl	HAL_XSPI_Command
 1480              	.LVL77:
 661:STM32Cube_FW_N6/Drivers/BSP/Components/mx66uw1g45g/mx66uw1g45g.c ****   {
ARM GAS  C:\Users\DJESSOU\AppData\Local\Temp\ccAx4BcF.s 			page 44


 1481              		.loc 1 661 6 discriminator 1 view .LVU512
 1482 0088 0028     		cmp	r0, #0
 1483 008a ECD1     		bne	.L96
 666:STM32Cube_FW_N6/Drivers/BSP/Components/mx66uw1g45g/mx66uw1g45g.c **** 
 1484              		.loc 1 666 3 is_stmt 1 view .LVU513
 666:STM32Cube_FW_N6/Drivers/BSP/Components/mx66uw1g45g/mx66uw1g45g.c **** 
 1485              		.loc 1 666 38 is_stmt 0 view .LVU514
 1486 008c 0190     		str	r0, [sp, #4]
 668:STM32Cube_FW_N6/Drivers/BSP/Components/mx66uw1g45g/mx66uw1g45g.c ****   {
 1487              		.loc 1 668 3 is_stmt 1 view .LVU515
 668:STM32Cube_FW_N6/Drivers/BSP/Components/mx66uw1g45g/mx66uw1g45g.c ****   {
 1488              		.loc 1 668 7 is_stmt 0 view .LVU516
 1489 008e 01A9     		add	r1, sp, #4
 1490 0090 2046     		mov	r0, r4
 1491 0092 FFF7FEFF 		bl	HAL_XSPI_MemoryMapped
 1492              	.LVL78:
 668:STM32Cube_FW_N6/Drivers/BSP/Components/mx66uw1g45g/mx66uw1g45g.c ****   {
 1493              		.loc 1 668 6 discriminator 1 view .LVU517
 1494 0096 0038     		subs	r0, r0, #0
 1495 0098 18BF     		it	ne
 1496 009a 0120     		movne	r0, #1
 1497 009c 4042     		rsbs	r0, r0, #0
 1498 009e E4E7     		b	.L93
 1499              		.cfi_endproc
 1500              	.LFE871:
 1502              		.section	.text.MX66UW1G45G_Suspend,"ax",%progbits
 1503              		.align	1
 1504              		.global	MX66UW1G45G_Suspend
 1505              		.syntax unified
 1506              		.thumb
 1507              		.thumb_func
 1509              	MX66UW1G45G_Suspend:
 1510              	.LVL79:
 1511              	.LFB872:
 675:STM32Cube_FW_N6/Drivers/BSP/Components/mx66uw1g45g/mx66uw1g45g.c **** 
 676:STM32Cube_FW_N6/Drivers/BSP/Components/mx66uw1g45g/mx66uw1g45g.c **** /**
 677:STM32Cube_FW_N6/Drivers/BSP/Components/mx66uw1g45g/mx66uw1g45g.c ****   * @brief  Flash suspend program or erase command
 678:STM32Cube_FW_N6/Drivers/BSP/Components/mx66uw1g45g/mx66uw1g45g.c ****   *         SPI/OPI
 679:STM32Cube_FW_N6/Drivers/BSP/Components/mx66uw1g45g/mx66uw1g45g.c ****   * @param  Ctx Component object pointer
 680:STM32Cube_FW_N6/Drivers/BSP/Components/mx66uw1g45g/mx66uw1g45g.c ****   * @param  Mode Interface select
 681:STM32Cube_FW_N6/Drivers/BSP/Components/mx66uw1g45g/mx66uw1g45g.c ****   * @param  Rate Transfer rate STR or DTR
 682:STM32Cube_FW_N6/Drivers/BSP/Components/mx66uw1g45g/mx66uw1g45g.c ****   * @retval error status
 683:STM32Cube_FW_N6/Drivers/BSP/Components/mx66uw1g45g/mx66uw1g45g.c ****   */
 684:STM32Cube_FW_N6/Drivers/BSP/Components/mx66uw1g45g/mx66uw1g45g.c **** int32_t MX66UW1G45G_Suspend(XSPI_HandleTypeDef *Ctx, MX66UW1G45G_Interface_t Mode, MX66UW1G45G_Tran
 685:STM32Cube_FW_N6/Drivers/BSP/Components/mx66uw1g45g/mx66uw1g45g.c **** {
 1512              		.loc 1 685 1 is_stmt 1 view -0
 1513              		.cfi_startproc
 1514              		@ args = 0, pretend = 0, frame = 80
 1515              		@ frame_needed = 0, uses_anonymous_args = 0
 686:STM32Cube_FW_N6/Drivers/BSP/Components/mx66uw1g45g/mx66uw1g45g.c ****   XSPI_RegularCmdTypeDef s_command = {0};
 1516              		.loc 1 686 3 view .LVU519
 685:STM32Cube_FW_N6/Drivers/BSP/Components/mx66uw1g45g/mx66uw1g45g.c ****   XSPI_RegularCmdTypeDef s_command = {0};
 1517              		.loc 1 685 1 is_stmt 0 view .LVU520
 1518 0000 70B5     		push	{r4, r5, r6, lr}
 1519              		.cfi_def_cfa_offset 16
 1520              		.cfi_offset 4, -16
 1521              		.cfi_offset 5, -12
ARM GAS  C:\Users\DJESSOU\AppData\Local\Temp\ccAx4BcF.s 			page 45


 1522              		.cfi_offset 6, -8
 1523              		.cfi_offset 14, -4
 1524 0002 0D46     		mov	r5, r1
 1525 0004 94B0     		sub	sp, sp, #80
 1526              		.cfi_def_cfa_offset 96
 685:STM32Cube_FW_N6/Drivers/BSP/Components/mx66uw1g45g/mx66uw1g45g.c ****   XSPI_RegularCmdTypeDef s_command = {0};
 1527              		.loc 1 685 1 view .LVU521
 1528 0006 0646     		mov	r6, r0
 1529 0008 1446     		mov	r4, r2
 1530              		.loc 1 686 26 view .LVU522
 1531 000a 0021     		movs	r1, #0
 1532              	.LVL80:
 1533              		.loc 1 686 26 view .LVU523
 1534 000c 4C22     		movs	r2, #76
 1535              	.LVL81:
 1536              		.loc 1 686 26 view .LVU524
 1537 000e 01A8     		add	r0, sp, #4
 1538              	.LVL82:
 1539              		.loc 1 686 26 view .LVU525
 1540 0010 FFF7FEFF 		bl	memset
 1541              	.LVL83:
 687:STM32Cube_FW_N6/Drivers/BSP/Components/mx66uw1g45g/mx66uw1g45g.c **** 
 688:STM32Cube_FW_N6/Drivers/BSP/Components/mx66uw1g45g/mx66uw1g45g.c ****   /* SPI mode and DTR transfer not supported by memory */
 689:STM32Cube_FW_N6/Drivers/BSP/Components/mx66uw1g45g/mx66uw1g45g.c ****   if ((Mode == MX66UW1G45G_SPI_MODE) && (Rate == MX66UW1G45G_DTR_TRANSFER))
 1542              		.loc 1 689 3 is_stmt 1 view .LVU526
 1543              		.loc 1 689 6 is_stmt 0 view .LVU527
 1544 0014 BDB9     		cbnz	r5, .L98
 1545              		.loc 1 689 38 discriminator 1 view .LVU528
 1546 0016 012C     		cmp	r4, #1
 1547 0018 1DD0     		beq	.L102
 1548 001a 0123     		movs	r3, #1
 690:STM32Cube_FW_N6/Drivers/BSP/Components/mx66uw1g45g/mx66uw1g45g.c ****   {
 691:STM32Cube_FW_N6/Drivers/BSP/Components/mx66uw1g45g/mx66uw1g45g.c ****     return MX66UW1G45G_ERROR;
 692:STM32Cube_FW_N6/Drivers/BSP/Components/mx66uw1g45g/mx66uw1g45g.c ****   }
 693:STM32Cube_FW_N6/Drivers/BSP/Components/mx66uw1g45g/mx66uw1g45g.c **** 
 694:STM32Cube_FW_N6/Drivers/BSP/Components/mx66uw1g45g/mx66uw1g45g.c ****   /* Initialize the suspend command */
 695:STM32Cube_FW_N6/Drivers/BSP/Components/mx66uw1g45g/mx66uw1g45g.c ****   s_command.OperationType = HAL_XSPI_OPTYPE_COMMON_CFG;
 696:STM32Cube_FW_N6/Drivers/BSP/Components/mx66uw1g45g/mx66uw1g45g.c ****   s_command.InstructionMode = (Mode == MX66UW1G45G_SPI_MODE)
 697:STM32Cube_FW_N6/Drivers/BSP/Components/mx66uw1g45g/mx66uw1g45g.c ****                                   ? HAL_XSPI_INSTRUCTION_1_LINE
 698:STM32Cube_FW_N6/Drivers/BSP/Components/mx66uw1g45g/mx66uw1g45g.c ****                                   : HAL_XSPI_INSTRUCTION_8_LINES;
 699:STM32Cube_FW_N6/Drivers/BSP/Components/mx66uw1g45g/mx66uw1g45g.c ****   s_command.InstructionDTRMode = (Rate == MX66UW1G45G_DTR_TRANSFER)
 700:STM32Cube_FW_N6/Drivers/BSP/Components/mx66uw1g45g/mx66uw1g45g.c ****                                      ? HAL_XSPI_INSTRUCTION_DTR_ENABLE
 701:STM32Cube_FW_N6/Drivers/BSP/Components/mx66uw1g45g/mx66uw1g45g.c ****                                      : HAL_XSPI_INSTRUCTION_DTR_DISABLE;
 1549              		.loc 1 701 38 discriminator 2 view .LVU529
 1550 001c 2C46     		mov	r4, r5
 1551              	.LVL84:
 1552              	.L100:
 696:STM32Cube_FW_N6/Drivers/BSP/Components/mx66uw1g45g/mx66uw1g45g.c ****                                   ? HAL_XSPI_INSTRUCTION_1_LINE
 1553              		.loc 1 696 29 view .LVU530
 1554 001e 0493     		str	r3, [sp, #16]
 699:STM32Cube_FW_N6/Drivers/BSP/Components/mx66uw1g45g/mx66uw1g45g.c ****                                      ? HAL_XSPI_INSTRUCTION_DTR_ENABLE
 1555              		.loc 1 699 32 view .LVU531
 1556 0020 0694     		str	r4, [sp, #24]
 702:STM32Cube_FW_N6/Drivers/BSP/Components/mx66uw1g45g/mx66uw1g45g.c ****   s_command.InstructionWidth = (Mode == MX66UW1G45G_SPI_MODE)
 1557              		.loc 1 702 3 is_stmt 1 view .LVU532
 703:STM32Cube_FW_N6/Drivers/BSP/Components/mx66uw1g45g/mx66uw1g45g.c ****                                    ? HAL_XSPI_INSTRUCTION_8_BITS
 704:STM32Cube_FW_N6/Drivers/BSP/Components/mx66uw1g45g/mx66uw1g45g.c ****                                    : HAL_XSPI_INSTRUCTION_16_BITS;
ARM GAS  C:\Users\DJESSOU\AppData\Local\Temp\ccAx4BcF.s 			page 46


 1558              		.loc 1 704 36 is_stmt 0 view .LVU533
 1559 0022 B5B1     		cbz	r5, .L103
 702:STM32Cube_FW_N6/Drivers/BSP/Components/mx66uw1g45g/mx66uw1g45g.c ****   s_command.InstructionWidth = (Mode == MX66UW1G45G_SPI_MODE)
 1560              		.loc 1 702 30 view .LVU534
 1561 0024 1023     		movs	r3, #16
 1562 0026 0593     		str	r3, [sp, #20]
 705:STM32Cube_FW_N6/Drivers/BSP/Components/mx66uw1g45g/mx66uw1g45g.c ****   s_command.Instruction = (Mode == MX66UW1G45G_SPI_MODE)
 1563              		.loc 1 705 3 is_stmt 1 view .LVU535
 706:STM32Cube_FW_N6/Drivers/BSP/Components/mx66uw1g45g/mx66uw1g45g.c ****                               ? MX66UW1G45G_PROG_ERASE_SUSPEND_CMD
 707:STM32Cube_FW_N6/Drivers/BSP/Components/mx66uw1g45g/mx66uw1g45g.c ****                               : MX66UW1G45G_OCTA_PROG_ERASE_SUSPEND_CMD;
 1564              		.loc 1 707 31 is_stmt 0 discriminator 2 view .LVU536
 1565 0028 4BF24F03 		movw	r3, #45135
 1566              	.L101:
 708:STM32Cube_FW_N6/Drivers/BSP/Components/mx66uw1g45g/mx66uw1g45g.c ****   s_command.AddressMode = HAL_XSPI_ADDRESS_NONE;
 709:STM32Cube_FW_N6/Drivers/BSP/Components/mx66uw1g45g/mx66uw1g45g.c ****   s_command.AlternateBytesMode = HAL_XSPI_ALT_BYTES_NONE;
 710:STM32Cube_FW_N6/Drivers/BSP/Components/mx66uw1g45g/mx66uw1g45g.c ****   s_command.DataMode = HAL_XSPI_DATA_NONE;
 711:STM32Cube_FW_N6/Drivers/BSP/Components/mx66uw1g45g/mx66uw1g45g.c ****   s_command.DummyCycles = 0U;
 712:STM32Cube_FW_N6/Drivers/BSP/Components/mx66uw1g45g/mx66uw1g45g.c ****   s_command.DQSMode = HAL_XSPI_DQS_DISABLE;
 713:STM32Cube_FW_N6/Drivers/BSP/Components/mx66uw1g45g/mx66uw1g45g.c ****  #if defined (XSPI_CCR_SIOO)
 714:STM32Cube_FW_N6/Drivers/BSP/Components/mx66uw1g45g/mx66uw1g45g.c ****   s_command.SIOOMode            = HAL_XSPI_SIOO_INST_EVERY_CMD;
 715:STM32Cube_FW_N6/Drivers/BSP/Components/mx66uw1g45g/mx66uw1g45g.c ****  #endif
 716:STM32Cube_FW_N6/Drivers/BSP/Components/mx66uw1g45g/mx66uw1g45g.c **** 
 717:STM32Cube_FW_N6/Drivers/BSP/Components/mx66uw1g45g/mx66uw1g45g.c ****   /* Send the command */
 718:STM32Cube_FW_N6/Drivers/BSP/Components/mx66uw1g45g/mx66uw1g45g.c ****   if (HAL_XSPI_Command(Ctx, &s_command, HAL_XSPI_TIMEOUT_DEFAULT_VALUE) != HAL_OK)
 1567              		.loc 1 718 7 view .LVU537
 1568 002c 41F28832 		movw	r2, #5000
 1569 0030 3046     		mov	r0, r6
 1570 0032 01A9     		add	r1, sp, #4
 705:STM32Cube_FW_N6/Drivers/BSP/Components/mx66uw1g45g/mx66uw1g45g.c ****                               ? MX66UW1G45G_PROG_ERASE_SUSPEND_CMD
 1571              		.loc 1 705 25 view .LVU538
 1572 0034 0393     		str	r3, [sp, #12]
 708:STM32Cube_FW_N6/Drivers/BSP/Components/mx66uw1g45g/mx66uw1g45g.c ****   s_command.AddressMode = HAL_XSPI_ADDRESS_NONE;
 1573              		.loc 1 708 3 is_stmt 1 view .LVU539
 709:STM32Cube_FW_N6/Drivers/BSP/Components/mx66uw1g45g/mx66uw1g45g.c ****   s_command.DataMode = HAL_XSPI_DATA_NONE;
 1574              		.loc 1 709 3 view .LVU540
 710:STM32Cube_FW_N6/Drivers/BSP/Components/mx66uw1g45g/mx66uw1g45g.c ****   s_command.DummyCycles = 0U;
 1575              		.loc 1 710 3 view .LVU541
 711:STM32Cube_FW_N6/Drivers/BSP/Components/mx66uw1g45g/mx66uw1g45g.c ****   s_command.DQSMode = HAL_XSPI_DQS_DISABLE;
 1576              		.loc 1 711 3 view .LVU542
 712:STM32Cube_FW_N6/Drivers/BSP/Components/mx66uw1g45g/mx66uw1g45g.c ****  #if defined (XSPI_CCR_SIOO)
 1577              		.loc 1 712 3 view .LVU543
 1578              		.loc 1 718 3 view .LVU544
 1579              		.loc 1 718 7 is_stmt 0 view .LVU545
 1580 0036 FFF7FEFF 		bl	HAL_XSPI_Command
 1581              	.LVL85:
 1582              		.loc 1 718 6 discriminator 1 view .LVU546
 1583 003a 0038     		subs	r0, r0, #0
 1584 003c 18BF     		it	ne
 1585 003e 0120     		movne	r0, #1
 1586 0040 4042     		rsbs	r0, r0, #0
 1587              	.L97:
 719:STM32Cube_FW_N6/Drivers/BSP/Components/mx66uw1g45g/mx66uw1g45g.c ****   {
 720:STM32Cube_FW_N6/Drivers/BSP/Components/mx66uw1g45g/mx66uw1g45g.c ****     return MX66UW1G45G_ERROR;
 721:STM32Cube_FW_N6/Drivers/BSP/Components/mx66uw1g45g/mx66uw1g45g.c ****   }
 722:STM32Cube_FW_N6/Drivers/BSP/Components/mx66uw1g45g/mx66uw1g45g.c **** 
 723:STM32Cube_FW_N6/Drivers/BSP/Components/mx66uw1g45g/mx66uw1g45g.c ****   return MX66UW1G45G_OK;
 724:STM32Cube_FW_N6/Drivers/BSP/Components/mx66uw1g45g/mx66uw1g45g.c **** }
ARM GAS  C:\Users\DJESSOU\AppData\Local\Temp\ccAx4BcF.s 			page 47


 1588              		.loc 1 724 1 view .LVU547
 1589 0042 14B0     		add	sp, sp, #80
 1590              		.cfi_remember_state
 1591              		.cfi_def_cfa_offset 16
 1592              		@ sp needed
 1593 0044 70BD     		pop	{r4, r5, r6, pc}
 1594              	.LVL86:
 1595              	.L98:
 1596              		.cfi_restore_state
 699:STM32Cube_FW_N6/Drivers/BSP/Components/mx66uw1g45g/mx66uw1g45g.c ****                                      ? HAL_XSPI_INSTRUCTION_DTR_ENABLE
 1597              		.loc 1 699 3 is_stmt 1 view .LVU548
 701:STM32Cube_FW_N6/Drivers/BSP/Components/mx66uw1g45g/mx66uw1g45g.c ****   s_command.InstructionWidth = (Mode == MX66UW1G45G_SPI_MODE)
 1598              		.loc 1 701 38 is_stmt 0 view .LVU549
 1599 0046 631E     		subs	r3, r4, #1
 1600 0048 5C42     		rsbs	r4, r3, #0
 1601 004a 5C41     		adcs	r4, r4, r3
 1602 004c E400     		lsls	r4, r4, #3
 1603 004e 0423     		movs	r3, #4
 1604 0050 E5E7     		b	.L100
 1605              	.L103:
 707:STM32Cube_FW_N6/Drivers/BSP/Components/mx66uw1g45g/mx66uw1g45g.c ****   s_command.AddressMode = HAL_XSPI_ADDRESS_NONE;
 1606              		.loc 1 707 31 discriminator 1 view .LVU550
 1607 0052 B023     		movs	r3, #176
 1608 0054 EAE7     		b	.L101
 1609              	.L102:
 691:STM32Cube_FW_N6/Drivers/BSP/Components/mx66uw1g45g/mx66uw1g45g.c ****   }
 1610              		.loc 1 691 12 view .LVU551
 1611 0056 4FF0FF30 		mov	r0, #-1
 1612 005a F2E7     		b	.L97
 1613              		.cfi_endproc
 1614              	.LFE872:
 1616              		.section	.text.MX66UW1G45G_Resume,"ax",%progbits
 1617              		.align	1
 1618              		.global	MX66UW1G45G_Resume
 1619              		.syntax unified
 1620              		.thumb
 1621              		.thumb_func
 1623              	MX66UW1G45G_Resume:
 1624              	.LVL87:
 1625              	.LFB873:
 725:STM32Cube_FW_N6/Drivers/BSP/Components/mx66uw1g45g/mx66uw1g45g.c **** 
 726:STM32Cube_FW_N6/Drivers/BSP/Components/mx66uw1g45g/mx66uw1g45g.c **** /**
 727:STM32Cube_FW_N6/Drivers/BSP/Components/mx66uw1g45g/mx66uw1g45g.c ****   * @brief  Flash resume program or erase command
 728:STM32Cube_FW_N6/Drivers/BSP/Components/mx66uw1g45g/mx66uw1g45g.c ****   *         SPI/OPI
 729:STM32Cube_FW_N6/Drivers/BSP/Components/mx66uw1g45g/mx66uw1g45g.c ****   * @param  Ctx Component object pointer
 730:STM32Cube_FW_N6/Drivers/BSP/Components/mx66uw1g45g/mx66uw1g45g.c ****   * @param  Mode Interface select
 731:STM32Cube_FW_N6/Drivers/BSP/Components/mx66uw1g45g/mx66uw1g45g.c ****   * @param  Rate Transfer rate STR or DTR
 732:STM32Cube_FW_N6/Drivers/BSP/Components/mx66uw1g45g/mx66uw1g45g.c ****   * @retval error status
 733:STM32Cube_FW_N6/Drivers/BSP/Components/mx66uw1g45g/mx66uw1g45g.c ****   */
 734:STM32Cube_FW_N6/Drivers/BSP/Components/mx66uw1g45g/mx66uw1g45g.c **** int32_t MX66UW1G45G_Resume(XSPI_HandleTypeDef *Ctx, MX66UW1G45G_Interface_t Mode, MX66UW1G45G_Trans
 735:STM32Cube_FW_N6/Drivers/BSP/Components/mx66uw1g45g/mx66uw1g45g.c **** {
 1626              		.loc 1 735 1 is_stmt 1 view -0
 1627              		.cfi_startproc
 1628              		@ args = 0, pretend = 0, frame = 80
 1629              		@ frame_needed = 0, uses_anonymous_args = 0
 736:STM32Cube_FW_N6/Drivers/BSP/Components/mx66uw1g45g/mx66uw1g45g.c ****   XSPI_RegularCmdTypeDef s_command = {0};
 1630              		.loc 1 736 3 view .LVU553
ARM GAS  C:\Users\DJESSOU\AppData\Local\Temp\ccAx4BcF.s 			page 48


 735:STM32Cube_FW_N6/Drivers/BSP/Components/mx66uw1g45g/mx66uw1g45g.c ****   XSPI_RegularCmdTypeDef s_command = {0};
 1631              		.loc 1 735 1 is_stmt 0 view .LVU554
 1632 0000 70B5     		push	{r4, r5, r6, lr}
 1633              		.cfi_def_cfa_offset 16
 1634              		.cfi_offset 4, -16
 1635              		.cfi_offset 5, -12
 1636              		.cfi_offset 6, -8
 1637              		.cfi_offset 14, -4
 1638 0002 0D46     		mov	r5, r1
 1639 0004 94B0     		sub	sp, sp, #80
 1640              		.cfi_def_cfa_offset 96
 735:STM32Cube_FW_N6/Drivers/BSP/Components/mx66uw1g45g/mx66uw1g45g.c ****   XSPI_RegularCmdTypeDef s_command = {0};
 1641              		.loc 1 735 1 view .LVU555
 1642 0006 0646     		mov	r6, r0
 1643 0008 1446     		mov	r4, r2
 1644              		.loc 1 736 26 view .LVU556
 1645 000a 0021     		movs	r1, #0
 1646              	.LVL88:
 1647              		.loc 1 736 26 view .LVU557
 1648 000c 4C22     		movs	r2, #76
 1649              	.LVL89:
 1650              		.loc 1 736 26 view .LVU558
 1651 000e 01A8     		add	r0, sp, #4
 1652              	.LVL90:
 1653              		.loc 1 736 26 view .LVU559
 1654 0010 FFF7FEFF 		bl	memset
 1655              	.LVL91:
 737:STM32Cube_FW_N6/Drivers/BSP/Components/mx66uw1g45g/mx66uw1g45g.c **** 
 738:STM32Cube_FW_N6/Drivers/BSP/Components/mx66uw1g45g/mx66uw1g45g.c ****   /* SPI mode and DTR transfer not supported by memory */
 739:STM32Cube_FW_N6/Drivers/BSP/Components/mx66uw1g45g/mx66uw1g45g.c ****   if ((Mode == MX66UW1G45G_SPI_MODE) && (Rate == MX66UW1G45G_DTR_TRANSFER))
 1656              		.loc 1 739 3 is_stmt 1 view .LVU560
 1657              		.loc 1 739 6 is_stmt 0 view .LVU561
 1658 0014 BDB9     		cbnz	r5, .L105
 1659              		.loc 1 739 38 discriminator 1 view .LVU562
 1660 0016 012C     		cmp	r4, #1
 1661 0018 1DD0     		beq	.L109
 1662 001a 0123     		movs	r3, #1
 740:STM32Cube_FW_N6/Drivers/BSP/Components/mx66uw1g45g/mx66uw1g45g.c ****   {
 741:STM32Cube_FW_N6/Drivers/BSP/Components/mx66uw1g45g/mx66uw1g45g.c ****     return MX66UW1G45G_ERROR;
 742:STM32Cube_FW_N6/Drivers/BSP/Components/mx66uw1g45g/mx66uw1g45g.c ****   }
 743:STM32Cube_FW_N6/Drivers/BSP/Components/mx66uw1g45g/mx66uw1g45g.c **** 
 744:STM32Cube_FW_N6/Drivers/BSP/Components/mx66uw1g45g/mx66uw1g45g.c ****   /* Initialize the resume command */
 745:STM32Cube_FW_N6/Drivers/BSP/Components/mx66uw1g45g/mx66uw1g45g.c ****   s_command.OperationType = HAL_XSPI_OPTYPE_COMMON_CFG;
 746:STM32Cube_FW_N6/Drivers/BSP/Components/mx66uw1g45g/mx66uw1g45g.c ****   s_command.InstructionMode = (Mode == MX66UW1G45G_SPI_MODE)
 747:STM32Cube_FW_N6/Drivers/BSP/Components/mx66uw1g45g/mx66uw1g45g.c ****                                   ? HAL_XSPI_INSTRUCTION_1_LINE
 748:STM32Cube_FW_N6/Drivers/BSP/Components/mx66uw1g45g/mx66uw1g45g.c ****                                   : HAL_XSPI_INSTRUCTION_8_LINES;
 749:STM32Cube_FW_N6/Drivers/BSP/Components/mx66uw1g45g/mx66uw1g45g.c ****   s_command.InstructionDTRMode = (Rate == MX66UW1G45G_DTR_TRANSFER)
 750:STM32Cube_FW_N6/Drivers/BSP/Components/mx66uw1g45g/mx66uw1g45g.c ****                                      ? HAL_XSPI_INSTRUCTION_DTR_ENABLE
 751:STM32Cube_FW_N6/Drivers/BSP/Components/mx66uw1g45g/mx66uw1g45g.c ****                                      : HAL_XSPI_INSTRUCTION_DTR_DISABLE;
 1663              		.loc 1 751 38 discriminator 2 view .LVU563
 1664 001c 2C46     		mov	r4, r5
 1665              	.LVL92:
 1666              	.L107:
 746:STM32Cube_FW_N6/Drivers/BSP/Components/mx66uw1g45g/mx66uw1g45g.c ****                                   ? HAL_XSPI_INSTRUCTION_1_LINE
 1667              		.loc 1 746 29 view .LVU564
 1668 001e 0493     		str	r3, [sp, #16]
 749:STM32Cube_FW_N6/Drivers/BSP/Components/mx66uw1g45g/mx66uw1g45g.c ****                                      ? HAL_XSPI_INSTRUCTION_DTR_ENABLE
ARM GAS  C:\Users\DJESSOU\AppData\Local\Temp\ccAx4BcF.s 			page 49


 1669              		.loc 1 749 32 view .LVU565
 1670 0020 0694     		str	r4, [sp, #24]
 752:STM32Cube_FW_N6/Drivers/BSP/Components/mx66uw1g45g/mx66uw1g45g.c ****   s_command.InstructionWidth = (Mode == MX66UW1G45G_SPI_MODE)
 1671              		.loc 1 752 3 is_stmt 1 view .LVU566
 753:STM32Cube_FW_N6/Drivers/BSP/Components/mx66uw1g45g/mx66uw1g45g.c ****                                    ? HAL_XSPI_INSTRUCTION_8_BITS
 754:STM32Cube_FW_N6/Drivers/BSP/Components/mx66uw1g45g/mx66uw1g45g.c ****                                    : HAL_XSPI_INSTRUCTION_16_BITS;
 1672              		.loc 1 754 36 is_stmt 0 view .LVU567
 1673 0022 B5B1     		cbz	r5, .L110
 752:STM32Cube_FW_N6/Drivers/BSP/Components/mx66uw1g45g/mx66uw1g45g.c ****   s_command.InstructionWidth = (Mode == MX66UW1G45G_SPI_MODE)
 1674              		.loc 1 752 30 view .LVU568
 1675 0024 1023     		movs	r3, #16
 1676 0026 0593     		str	r3, [sp, #20]
 755:STM32Cube_FW_N6/Drivers/BSP/Components/mx66uw1g45g/mx66uw1g45g.c ****   s_command.Instruction = (Mode == MX66UW1G45G_SPI_MODE)
 1677              		.loc 1 755 3 is_stmt 1 view .LVU569
 756:STM32Cube_FW_N6/Drivers/BSP/Components/mx66uw1g45g/mx66uw1g45g.c ****                               ? MX66UW1G45G_PROG_ERASE_RESUME_CMD
 757:STM32Cube_FW_N6/Drivers/BSP/Components/mx66uw1g45g/mx66uw1g45g.c ****                               : MX66UW1G45G_OCTA_PROG_ERASE_RESUME_CMD;
 1678              		.loc 1 757 31 is_stmt 0 discriminator 2 view .LVU570
 1679 0028 43F2CF03 		movw	r3, #12495
 1680              	.L108:
 758:STM32Cube_FW_N6/Drivers/BSP/Components/mx66uw1g45g/mx66uw1g45g.c ****   s_command.AddressMode = HAL_XSPI_ADDRESS_NONE;
 759:STM32Cube_FW_N6/Drivers/BSP/Components/mx66uw1g45g/mx66uw1g45g.c ****   s_command.AlternateBytesMode = HAL_XSPI_ALT_BYTES_NONE;
 760:STM32Cube_FW_N6/Drivers/BSP/Components/mx66uw1g45g/mx66uw1g45g.c ****   s_command.DataMode = HAL_XSPI_DATA_NONE;
 761:STM32Cube_FW_N6/Drivers/BSP/Components/mx66uw1g45g/mx66uw1g45g.c ****   s_command.DummyCycles = 0U;
 762:STM32Cube_FW_N6/Drivers/BSP/Components/mx66uw1g45g/mx66uw1g45g.c ****   s_command.DQSMode = HAL_XSPI_DQS_DISABLE;
 763:STM32Cube_FW_N6/Drivers/BSP/Components/mx66uw1g45g/mx66uw1g45g.c ****  #if defined (XSPI_CCR_SIOO)
 764:STM32Cube_FW_N6/Drivers/BSP/Components/mx66uw1g45g/mx66uw1g45g.c ****   s_command.SIOOMode            = HAL_XSPI_SIOO_INST_EVERY_CMD;
 765:STM32Cube_FW_N6/Drivers/BSP/Components/mx66uw1g45g/mx66uw1g45g.c ****  #endif
 766:STM32Cube_FW_N6/Drivers/BSP/Components/mx66uw1g45g/mx66uw1g45g.c **** 
 767:STM32Cube_FW_N6/Drivers/BSP/Components/mx66uw1g45g/mx66uw1g45g.c ****   /* Send the command */
 768:STM32Cube_FW_N6/Drivers/BSP/Components/mx66uw1g45g/mx66uw1g45g.c ****   if (HAL_XSPI_Command(Ctx, &s_command, HAL_XSPI_TIMEOUT_DEFAULT_VALUE) != HAL_OK)
 1681              		.loc 1 768 7 view .LVU571
 1682 002c 41F28832 		movw	r2, #5000
 1683 0030 3046     		mov	r0, r6
 1684 0032 01A9     		add	r1, sp, #4
 755:STM32Cube_FW_N6/Drivers/BSP/Components/mx66uw1g45g/mx66uw1g45g.c ****                               ? MX66UW1G45G_PROG_ERASE_RESUME_CMD
 1685              		.loc 1 755 25 view .LVU572
 1686 0034 0393     		str	r3, [sp, #12]
 758:STM32Cube_FW_N6/Drivers/BSP/Components/mx66uw1g45g/mx66uw1g45g.c ****   s_command.AddressMode = HAL_XSPI_ADDRESS_NONE;
 1687              		.loc 1 758 3 is_stmt 1 view .LVU573
 759:STM32Cube_FW_N6/Drivers/BSP/Components/mx66uw1g45g/mx66uw1g45g.c ****   s_command.DataMode = HAL_XSPI_DATA_NONE;
 1688              		.loc 1 759 3 view .LVU574
 760:STM32Cube_FW_N6/Drivers/BSP/Components/mx66uw1g45g/mx66uw1g45g.c ****   s_command.DummyCycles = 0U;
 1689              		.loc 1 760 3 view .LVU575
 761:STM32Cube_FW_N6/Drivers/BSP/Components/mx66uw1g45g/mx66uw1g45g.c ****   s_command.DQSMode = HAL_XSPI_DQS_DISABLE;
 1690              		.loc 1 761 3 view .LVU576
 762:STM32Cube_FW_N6/Drivers/BSP/Components/mx66uw1g45g/mx66uw1g45g.c ****  #if defined (XSPI_CCR_SIOO)
 1691              		.loc 1 762 3 view .LVU577
 1692              		.loc 1 768 3 view .LVU578
 1693              		.loc 1 768 7 is_stmt 0 view .LVU579
 1694 0036 FFF7FEFF 		bl	HAL_XSPI_Command
 1695              	.LVL93:
 1696              		.loc 1 768 6 discriminator 1 view .LVU580
 1697 003a 0038     		subs	r0, r0, #0
 1698 003c 18BF     		it	ne
 1699 003e 0120     		movne	r0, #1
 1700 0040 4042     		rsbs	r0, r0, #0
 1701              	.L104:
ARM GAS  C:\Users\DJESSOU\AppData\Local\Temp\ccAx4BcF.s 			page 50


 769:STM32Cube_FW_N6/Drivers/BSP/Components/mx66uw1g45g/mx66uw1g45g.c ****   {
 770:STM32Cube_FW_N6/Drivers/BSP/Components/mx66uw1g45g/mx66uw1g45g.c ****     return MX66UW1G45G_ERROR;
 771:STM32Cube_FW_N6/Drivers/BSP/Components/mx66uw1g45g/mx66uw1g45g.c ****   }
 772:STM32Cube_FW_N6/Drivers/BSP/Components/mx66uw1g45g/mx66uw1g45g.c **** 
 773:STM32Cube_FW_N6/Drivers/BSP/Components/mx66uw1g45g/mx66uw1g45g.c ****   return MX66UW1G45G_OK;
 774:STM32Cube_FW_N6/Drivers/BSP/Components/mx66uw1g45g/mx66uw1g45g.c **** }
 1702              		.loc 1 774 1 view .LVU581
 1703 0042 14B0     		add	sp, sp, #80
 1704              		.cfi_remember_state
 1705              		.cfi_def_cfa_offset 16
 1706              		@ sp needed
 1707 0044 70BD     		pop	{r4, r5, r6, pc}
 1708              	.LVL94:
 1709              	.L105:
 1710              		.cfi_restore_state
 749:STM32Cube_FW_N6/Drivers/BSP/Components/mx66uw1g45g/mx66uw1g45g.c ****                                      ? HAL_XSPI_INSTRUCTION_DTR_ENABLE
 1711              		.loc 1 749 3 is_stmt 1 view .LVU582
 751:STM32Cube_FW_N6/Drivers/BSP/Components/mx66uw1g45g/mx66uw1g45g.c ****   s_command.InstructionWidth = (Mode == MX66UW1G45G_SPI_MODE)
 1712              		.loc 1 751 38 is_stmt 0 view .LVU583
 1713 0046 631E     		subs	r3, r4, #1
 1714 0048 5C42     		rsbs	r4, r3, #0
 1715 004a 5C41     		adcs	r4, r4, r3
 1716 004c E400     		lsls	r4, r4, #3
 1717 004e 0423     		movs	r3, #4
 1718 0050 E5E7     		b	.L107
 1719              	.L110:
 757:STM32Cube_FW_N6/Drivers/BSP/Components/mx66uw1g45g/mx66uw1g45g.c ****   s_command.AddressMode = HAL_XSPI_ADDRESS_NONE;
 1720              		.loc 1 757 31 discriminator 1 view .LVU584
 1721 0052 3023     		movs	r3, #48
 1722 0054 EAE7     		b	.L108
 1723              	.L109:
 741:STM32Cube_FW_N6/Drivers/BSP/Components/mx66uw1g45g/mx66uw1g45g.c ****   }
 1724              		.loc 1 741 12 view .LVU585
 1725 0056 4FF0FF30 		mov	r0, #-1
 1726 005a F2E7     		b	.L104
 1727              		.cfi_endproc
 1728              	.LFE873:
 1730              		.section	.text.MX66UW1G45G_WriteEnable,"ax",%progbits
 1731              		.align	1
 1732              		.global	MX66UW1G45G_WriteEnable
 1733              		.syntax unified
 1734              		.thumb
 1735              		.thumb_func
 1737              	MX66UW1G45G_WriteEnable:
 1738              	.LVL95:
 1739              	.LFB874:
 775:STM32Cube_FW_N6/Drivers/BSP/Components/mx66uw1g45g/mx66uw1g45g.c **** 
 776:STM32Cube_FW_N6/Drivers/BSP/Components/mx66uw1g45g/mx66uw1g45g.c **** /* Register/Setting Commands **************************************************/
 777:STM32Cube_FW_N6/Drivers/BSP/Components/mx66uw1g45g/mx66uw1g45g.c **** /**
 778:STM32Cube_FW_N6/Drivers/BSP/Components/mx66uw1g45g/mx66uw1g45g.c ****   * @brief  This function send a Write Enable and wait it is effective.
 779:STM32Cube_FW_N6/Drivers/BSP/Components/mx66uw1g45g/mx66uw1g45g.c ****   *         SPI/OPI
 780:STM32Cube_FW_N6/Drivers/BSP/Components/mx66uw1g45g/mx66uw1g45g.c ****   * @param  Ctx Component object pointer
 781:STM32Cube_FW_N6/Drivers/BSP/Components/mx66uw1g45g/mx66uw1g45g.c ****   * @param  Mode Interface mode
 782:STM32Cube_FW_N6/Drivers/BSP/Components/mx66uw1g45g/mx66uw1g45g.c ****   * @param  Rate Transfer rate STR or DTR
 783:STM32Cube_FW_N6/Drivers/BSP/Components/mx66uw1g45g/mx66uw1g45g.c ****   * @retval error status
 784:STM32Cube_FW_N6/Drivers/BSP/Components/mx66uw1g45g/mx66uw1g45g.c ****   */
 785:STM32Cube_FW_N6/Drivers/BSP/Components/mx66uw1g45g/mx66uw1g45g.c **** int32_t MX66UW1G45G_WriteEnable(XSPI_HandleTypeDef *Ctx, MX66UW1G45G_Interface_t Mode, MX66UW1G45G_
ARM GAS  C:\Users\DJESSOU\AppData\Local\Temp\ccAx4BcF.s 			page 51


 786:STM32Cube_FW_N6/Drivers/BSP/Components/mx66uw1g45g/mx66uw1g45g.c **** {
 1740              		.loc 1 786 1 is_stmt 1 view -0
 1741              		.cfi_startproc
 1742              		@ args = 0, pretend = 0, frame = 96
 1743              		@ frame_needed = 0, uses_anonymous_args = 0
 787:STM32Cube_FW_N6/Drivers/BSP/Components/mx66uw1g45g/mx66uw1g45g.c ****   XSPI_RegularCmdTypeDef s_command = {0};
 1744              		.loc 1 787 3 view .LVU587
 786:STM32Cube_FW_N6/Drivers/BSP/Components/mx66uw1g45g/mx66uw1g45g.c ****   XSPI_RegularCmdTypeDef s_command = {0};
 1745              		.loc 1 786 1 is_stmt 0 view .LVU588
 1746 0000 F0B5     		push	{r4, r5, r6, r7, lr}
 1747              		.cfi_def_cfa_offset 20
 1748              		.cfi_offset 4, -20
 1749              		.cfi_offset 5, -16
 1750              		.cfi_offset 6, -12
 1751              		.cfi_offset 7, -8
 1752              		.cfi_offset 14, -4
 1753 0002 0C46     		mov	r4, r1
 1754 0004 99B0     		sub	sp, sp, #100
 1755              		.cfi_def_cfa_offset 120
 1756              		.loc 1 787 26 view .LVU589
 1757 0006 0021     		movs	r1, #0
 1758              	.LVL96:
 786:STM32Cube_FW_N6/Drivers/BSP/Components/mx66uw1g45g/mx66uw1g45g.c ****   XSPI_RegularCmdTypeDef s_command = {0};
 1759              		.loc 1 786 1 view .LVU590
 1760 0008 0646     		mov	r6, r0
 1761 000a 1546     		mov	r5, r2
 1762              		.loc 1 787 26 view .LVU591
 1763 000c 05A8     		add	r0, sp, #20
 1764              	.LVL97:
 1765              		.loc 1 787 26 view .LVU592
 1766 000e 4C22     		movs	r2, #76
 1767              	.LVL98:
 1768              		.loc 1 787 26 view .LVU593
 1769 0010 FFF7FEFF 		bl	memset
 1770              	.LVL99:
 788:STM32Cube_FW_N6/Drivers/BSP/Components/mx66uw1g45g/mx66uw1g45g.c ****   XSPI_AutoPollingTypeDef s_config = {0};
 1771              		.loc 1 788 3 is_stmt 1 view .LVU594
 1772              		.loc 1 788 27 is_stmt 0 view .LVU595
 1773 0014 1422     		movs	r2, #20
 1774 0016 0021     		movs	r1, #0
 1775 0018 6846     		mov	r0, sp
 1776 001a FFF7FEFF 		bl	memset
 1777              	.LVL100:
 789:STM32Cube_FW_N6/Drivers/BSP/Components/mx66uw1g45g/mx66uw1g45g.c **** 
 790:STM32Cube_FW_N6/Drivers/BSP/Components/mx66uw1g45g/mx66uw1g45g.c ****   /* SPI mode and DTR transfer not supported by memory */
 791:STM32Cube_FW_N6/Drivers/BSP/Components/mx66uw1g45g/mx66uw1g45g.c ****   if ((Mode == MX66UW1G45G_SPI_MODE) && (Rate == MX66UW1G45G_DTR_TRANSFER))
 1778              		.loc 1 791 3 is_stmt 1 view .LVU596
 1779              		.loc 1 791 6 is_stmt 0 view .LVU597
 1780 001e 2CB9     		cbnz	r4, .L112
 1781              		.loc 1 791 38 discriminator 1 view .LVU598
 1782 0020 012D     		cmp	r5, #1
 1783 0022 5DD1     		bne	.L120
 1784              	.LVL101:
 1785              	.L116:
 792:STM32Cube_FW_N6/Drivers/BSP/Components/mx66uw1g45g/mx66uw1g45g.c ****   {
 793:STM32Cube_FW_N6/Drivers/BSP/Components/mx66uw1g45g/mx66uw1g45g.c ****     return MX66UW1G45G_ERROR;
 1786              		.loc 1 793 12 view .LVU599
ARM GAS  C:\Users\DJESSOU\AppData\Local\Temp\ccAx4BcF.s 			page 52


 1787 0024 4FF0FF30 		mov	r0, #-1
 1788              	.L111:
 794:STM32Cube_FW_N6/Drivers/BSP/Components/mx66uw1g45g/mx66uw1g45g.c ****   }
 795:STM32Cube_FW_N6/Drivers/BSP/Components/mx66uw1g45g/mx66uw1g45g.c **** 
 796:STM32Cube_FW_N6/Drivers/BSP/Components/mx66uw1g45g/mx66uw1g45g.c ****   /* Initialize the write enable command */
 797:STM32Cube_FW_N6/Drivers/BSP/Components/mx66uw1g45g/mx66uw1g45g.c ****   s_command.OperationType = HAL_XSPI_OPTYPE_COMMON_CFG;
 798:STM32Cube_FW_N6/Drivers/BSP/Components/mx66uw1g45g/mx66uw1g45g.c ****   s_command.InstructionMode = (Mode == MX66UW1G45G_SPI_MODE)
 799:STM32Cube_FW_N6/Drivers/BSP/Components/mx66uw1g45g/mx66uw1g45g.c ****                                   ? HAL_XSPI_INSTRUCTION_1_LINE
 800:STM32Cube_FW_N6/Drivers/BSP/Components/mx66uw1g45g/mx66uw1g45g.c ****                                   : HAL_XSPI_INSTRUCTION_8_LINES;
 801:STM32Cube_FW_N6/Drivers/BSP/Components/mx66uw1g45g/mx66uw1g45g.c ****   s_command.InstructionDTRMode = (Rate == MX66UW1G45G_DTR_TRANSFER)
 802:STM32Cube_FW_N6/Drivers/BSP/Components/mx66uw1g45g/mx66uw1g45g.c ****                                      ? HAL_XSPI_INSTRUCTION_DTR_ENABLE
 803:STM32Cube_FW_N6/Drivers/BSP/Components/mx66uw1g45g/mx66uw1g45g.c ****                                      : HAL_XSPI_INSTRUCTION_DTR_DISABLE;
 804:STM32Cube_FW_N6/Drivers/BSP/Components/mx66uw1g45g/mx66uw1g45g.c ****   s_command.InstructionWidth = (Mode == MX66UW1G45G_SPI_MODE)
 805:STM32Cube_FW_N6/Drivers/BSP/Components/mx66uw1g45g/mx66uw1g45g.c ****                                    ? HAL_XSPI_INSTRUCTION_8_BITS
 806:STM32Cube_FW_N6/Drivers/BSP/Components/mx66uw1g45g/mx66uw1g45g.c ****                                    : HAL_XSPI_INSTRUCTION_16_BITS;
 807:STM32Cube_FW_N6/Drivers/BSP/Components/mx66uw1g45g/mx66uw1g45g.c ****   s_command.Instruction = (Mode == MX66UW1G45G_SPI_MODE)
 808:STM32Cube_FW_N6/Drivers/BSP/Components/mx66uw1g45g/mx66uw1g45g.c ****                               ? MX66UW1G45G_WRITE_ENABLE_CMD
 809:STM32Cube_FW_N6/Drivers/BSP/Components/mx66uw1g45g/mx66uw1g45g.c ****                               : MX66UW1G45G_OCTA_WRITE_ENABLE_CMD;
 810:STM32Cube_FW_N6/Drivers/BSP/Components/mx66uw1g45g/mx66uw1g45g.c ****   s_command.AddressMode = HAL_XSPI_ADDRESS_NONE;
 811:STM32Cube_FW_N6/Drivers/BSP/Components/mx66uw1g45g/mx66uw1g45g.c ****   s_command.AlternateBytesMode = HAL_XSPI_ALT_BYTES_NONE;
 812:STM32Cube_FW_N6/Drivers/BSP/Components/mx66uw1g45g/mx66uw1g45g.c ****   s_command.DataMode = HAL_XSPI_DATA_NONE;
 813:STM32Cube_FW_N6/Drivers/BSP/Components/mx66uw1g45g/mx66uw1g45g.c ****   s_command.DummyCycles = 0U;
 814:STM32Cube_FW_N6/Drivers/BSP/Components/mx66uw1g45g/mx66uw1g45g.c ****   s_command.DQSMode = HAL_XSPI_DQS_DISABLE;
 815:STM32Cube_FW_N6/Drivers/BSP/Components/mx66uw1g45g/mx66uw1g45g.c ****  #if defined (XSPI_CCR_SIOO)
 816:STM32Cube_FW_N6/Drivers/BSP/Components/mx66uw1g45g/mx66uw1g45g.c ****   s_command.SIOOMode            = HAL_XSPI_SIOO_INST_EVERY_CMD;
 817:STM32Cube_FW_N6/Drivers/BSP/Components/mx66uw1g45g/mx66uw1g45g.c ****  #endif
 818:STM32Cube_FW_N6/Drivers/BSP/Components/mx66uw1g45g/mx66uw1g45g.c **** 
 819:STM32Cube_FW_N6/Drivers/BSP/Components/mx66uw1g45g/mx66uw1g45g.c ****   /* Send the command */
 820:STM32Cube_FW_N6/Drivers/BSP/Components/mx66uw1g45g/mx66uw1g45g.c ****   if (HAL_XSPI_Command(Ctx, &s_command, HAL_XSPI_TIMEOUT_DEFAULT_VALUE) != HAL_OK)
 821:STM32Cube_FW_N6/Drivers/BSP/Components/mx66uw1g45g/mx66uw1g45g.c ****   {
 822:STM32Cube_FW_N6/Drivers/BSP/Components/mx66uw1g45g/mx66uw1g45g.c ****     return MX66UW1G45G_ERROR;
 823:STM32Cube_FW_N6/Drivers/BSP/Components/mx66uw1g45g/mx66uw1g45g.c ****   }
 824:STM32Cube_FW_N6/Drivers/BSP/Components/mx66uw1g45g/mx66uw1g45g.c **** 
 825:STM32Cube_FW_N6/Drivers/BSP/Components/mx66uw1g45g/mx66uw1g45g.c ****   /* Configure automatic polling mode to wait for write enabling */
 826:STM32Cube_FW_N6/Drivers/BSP/Components/mx66uw1g45g/mx66uw1g45g.c ****   s_command.Instruction = (Mode == MX66UW1G45G_SPI_MODE)
 827:STM32Cube_FW_N6/Drivers/BSP/Components/mx66uw1g45g/mx66uw1g45g.c ****                               ? MX66UW1G45G_READ_STATUS_REG_CMD
 828:STM32Cube_FW_N6/Drivers/BSP/Components/mx66uw1g45g/mx66uw1g45g.c ****                               : MX66UW1G45G_OCTA_READ_STATUS_REG_CMD;
 829:STM32Cube_FW_N6/Drivers/BSP/Components/mx66uw1g45g/mx66uw1g45g.c ****   s_command.AddressMode = (Mode == MX66UW1G45G_SPI_MODE) ? HAL_XSPI_ADDRESS_NONE : HAL_XSPI_ADDRESS
 830:STM32Cube_FW_N6/Drivers/BSP/Components/mx66uw1g45g/mx66uw1g45g.c ****   s_command.AddressDTRMode = (Rate == MX66UW1G45G_DTR_TRANSFER)
 831:STM32Cube_FW_N6/Drivers/BSP/Components/mx66uw1g45g/mx66uw1g45g.c ****                                  ? HAL_XSPI_ADDRESS_DTR_ENABLE
 832:STM32Cube_FW_N6/Drivers/BSP/Components/mx66uw1g45g/mx66uw1g45g.c ****                                  : HAL_XSPI_ADDRESS_DTR_DISABLE;
 833:STM32Cube_FW_N6/Drivers/BSP/Components/mx66uw1g45g/mx66uw1g45g.c ****   s_command.AddressWidth = HAL_XSPI_ADDRESS_32_BITS;
 834:STM32Cube_FW_N6/Drivers/BSP/Components/mx66uw1g45g/mx66uw1g45g.c ****   s_command.Address = 0U;
 835:STM32Cube_FW_N6/Drivers/BSP/Components/mx66uw1g45g/mx66uw1g45g.c ****   s_command.DataMode = (Mode == MX66UW1G45G_SPI_MODE) ? HAL_XSPI_DATA_1_LINE : HAL_XSPI_DATA_8_LINE
 836:STM32Cube_FW_N6/Drivers/BSP/Components/mx66uw1g45g/mx66uw1g45g.c ****   s_command.DataDTRMode = (Rate == MX66UW1G45G_DTR_TRANSFER) ? HAL_XSPI_DATA_DTR_ENABLE : HAL_XSPI_
 837:STM32Cube_FW_N6/Drivers/BSP/Components/mx66uw1g45g/mx66uw1g45g.c ****   s_command.DummyCycles = (Mode == MX66UW1G45G_SPI_MODE)
 838:STM32Cube_FW_N6/Drivers/BSP/Components/mx66uw1g45g/mx66uw1g45g.c ****                               ? 0U
 839:STM32Cube_FW_N6/Drivers/BSP/Components/mx66uw1g45g/mx66uw1g45g.c ****                               : ((Rate == MX66UW1G45G_DTR_TRANSFER)
 840:STM32Cube_FW_N6/Drivers/BSP/Components/mx66uw1g45g/mx66uw1g45g.c ****                                      ? DUMMY_CYCLES_REG_OCTAL_DTR
 841:STM32Cube_FW_N6/Drivers/BSP/Components/mx66uw1g45g/mx66uw1g45g.c ****                                      : DUMMY_CYCLES_REG_OCTAL);
 842:STM32Cube_FW_N6/Drivers/BSP/Components/mx66uw1g45g/mx66uw1g45g.c ****   s_command.DataLength = (Rate == MX66UW1G45G_DTR_TRANSFER) ? 2U : 1U;
 843:STM32Cube_FW_N6/Drivers/BSP/Components/mx66uw1g45g/mx66uw1g45g.c ****   s_command.DQSMode = (Rate == MX66UW1G45G_DTR_TRANSFER) ? HAL_XSPI_DQS_ENABLE : HAL_XSPI_DQS_DISAB
 844:STM32Cube_FW_N6/Drivers/BSP/Components/mx66uw1g45g/mx66uw1g45g.c **** 
 845:STM32Cube_FW_N6/Drivers/BSP/Components/mx66uw1g45g/mx66uw1g45g.c ****   /* Send the command */
 846:STM32Cube_FW_N6/Drivers/BSP/Components/mx66uw1g45g/mx66uw1g45g.c ****   if (HAL_XSPI_Command(Ctx, &s_command, HAL_XSPI_TIMEOUT_DEFAULT_VALUE) != HAL_OK)
 847:STM32Cube_FW_N6/Drivers/BSP/Components/mx66uw1g45g/mx66uw1g45g.c ****   {
 848:STM32Cube_FW_N6/Drivers/BSP/Components/mx66uw1g45g/mx66uw1g45g.c ****     return MX66UW1G45G_ERROR;
ARM GAS  C:\Users\DJESSOU\AppData\Local\Temp\ccAx4BcF.s 			page 53


 849:STM32Cube_FW_N6/Drivers/BSP/Components/mx66uw1g45g/mx66uw1g45g.c ****   }
 850:STM32Cube_FW_N6/Drivers/BSP/Components/mx66uw1g45g/mx66uw1g45g.c **** 
 851:STM32Cube_FW_N6/Drivers/BSP/Components/mx66uw1g45g/mx66uw1g45g.c ****   s_config.MatchValue = 2U;
 852:STM32Cube_FW_N6/Drivers/BSP/Components/mx66uw1g45g/mx66uw1g45g.c ****   s_config.MatchMask = 2U;
 853:STM32Cube_FW_N6/Drivers/BSP/Components/mx66uw1g45g/mx66uw1g45g.c ****   s_config.MatchMode = HAL_XSPI_MATCH_MODE_AND;
 854:STM32Cube_FW_N6/Drivers/BSP/Components/mx66uw1g45g/mx66uw1g45g.c ****   s_config.IntervalTime = MX66UW1G45G_AUTOPOLLING_INTERVAL_TIME;
 855:STM32Cube_FW_N6/Drivers/BSP/Components/mx66uw1g45g/mx66uw1g45g.c ****   s_config.AutomaticStop = HAL_XSPI_AUTOMATIC_STOP_ENABLE;
 856:STM32Cube_FW_N6/Drivers/BSP/Components/mx66uw1g45g/mx66uw1g45g.c **** 
 857:STM32Cube_FW_N6/Drivers/BSP/Components/mx66uw1g45g/mx66uw1g45g.c ****   if (HAL_XSPI_AutoPolling(Ctx, &s_config, HAL_XSPI_TIMEOUT_DEFAULT_VALUE) != HAL_OK)
 858:STM32Cube_FW_N6/Drivers/BSP/Components/mx66uw1g45g/mx66uw1g45g.c ****   {
 859:STM32Cube_FW_N6/Drivers/BSP/Components/mx66uw1g45g/mx66uw1g45g.c ****     return MX66UW1G45G_ERROR;
 860:STM32Cube_FW_N6/Drivers/BSP/Components/mx66uw1g45g/mx66uw1g45g.c ****   }
 861:STM32Cube_FW_N6/Drivers/BSP/Components/mx66uw1g45g/mx66uw1g45g.c **** 
 862:STM32Cube_FW_N6/Drivers/BSP/Components/mx66uw1g45g/mx66uw1g45g.c ****   return MX66UW1G45G_OK;
 863:STM32Cube_FW_N6/Drivers/BSP/Components/mx66uw1g45g/mx66uw1g45g.c **** }
 1789              		.loc 1 863 1 view .LVU600
 1790 0028 19B0     		add	sp, sp, #100
 1791              		.cfi_remember_state
 1792              		.cfi_def_cfa_offset 20
 1793              		@ sp needed
 1794 002a F0BD     		pop	{r4, r5, r6, r7, pc}
 1795              	.LVL102:
 1796              	.L112:
 1797              		.cfi_restore_state
 801:STM32Cube_FW_N6/Drivers/BSP/Components/mx66uw1g45g/mx66uw1g45g.c ****                                      ? HAL_XSPI_INSTRUCTION_DTR_ENABLE
 1798              		.loc 1 801 3 is_stmt 1 view .LVU601
 1799 002c 0422     		movs	r2, #4
 803:STM32Cube_FW_N6/Drivers/BSP/Components/mx66uw1g45g/mx66uw1g45g.c ****   s_command.InstructionWidth = (Mode == MX66UW1G45G_SPI_MODE)
 1800              		.loc 1 803 38 is_stmt 0 view .LVU602
 1801 002e 691E     		subs	r1, r5, #1
 1802 0030 4B42     		rsbs	r3, r1, #0
 1803 0032 4B41     		adcs	r3, r3, r1
 1804 0034 DB00     		lsls	r3, r3, #3
 1805              	.L113:
 798:STM32Cube_FW_N6/Drivers/BSP/Components/mx66uw1g45g/mx66uw1g45g.c ****                                   ? HAL_XSPI_INSTRUCTION_1_LINE
 1806              		.loc 1 798 29 view .LVU603
 1807 0036 0892     		str	r2, [sp, #32]
 801:STM32Cube_FW_N6/Drivers/BSP/Components/mx66uw1g45g/mx66uw1g45g.c ****                                      ? HAL_XSPI_INSTRUCTION_DTR_ENABLE
 1808              		.loc 1 801 32 view .LVU604
 1809 0038 0A93     		str	r3, [sp, #40]
 804:STM32Cube_FW_N6/Drivers/BSP/Components/mx66uw1g45g/mx66uw1g45g.c ****                                    ? HAL_XSPI_INSTRUCTION_8_BITS
 1810              		.loc 1 804 3 is_stmt 1 view .LVU605
 806:STM32Cube_FW_N6/Drivers/BSP/Components/mx66uw1g45g/mx66uw1g45g.c ****   s_command.Instruction = (Mode == MX66UW1G45G_SPI_MODE)
 1811              		.loc 1 806 36 is_stmt 0 view .LVU606
 1812 003a 002C     		cmp	r4, #0
 1813 003c 53D0     		beq	.L121
 804:STM32Cube_FW_N6/Drivers/BSP/Components/mx66uw1g45g/mx66uw1g45g.c ****                                    ? HAL_XSPI_INSTRUCTION_8_BITS
 1814              		.loc 1 804 30 view .LVU607
 1815 003e 1023     		movs	r3, #16
 1816 0040 0993     		str	r3, [sp, #36]
 807:STM32Cube_FW_N6/Drivers/BSP/Components/mx66uw1g45g/mx66uw1g45g.c ****                               ? MX66UW1G45G_WRITE_ENABLE_CMD
 1817              		.loc 1 807 3 is_stmt 1 view .LVU608
 809:STM32Cube_FW_N6/Drivers/BSP/Components/mx66uw1g45g/mx66uw1g45g.c ****   s_command.AddressMode = HAL_XSPI_ADDRESS_NONE;
 1818              		.loc 1 809 31 is_stmt 0 discriminator 2 view .LVU609
 1819 0042 40F2F963 		movw	r3, #1785
 1820              	.L115:
 820:STM32Cube_FW_N6/Drivers/BSP/Components/mx66uw1g45g/mx66uw1g45g.c ****   {
ARM GAS  C:\Users\DJESSOU\AppData\Local\Temp\ccAx4BcF.s 			page 54


 1821              		.loc 1 820 7 view .LVU610
 1822 0046 41F28832 		movw	r2, #5000
 1823 004a 3046     		mov	r0, r6
 1824 004c 05A9     		add	r1, sp, #20
 807:STM32Cube_FW_N6/Drivers/BSP/Components/mx66uw1g45g/mx66uw1g45g.c ****                               ? MX66UW1G45G_WRITE_ENABLE_CMD
 1825              		.loc 1 807 25 view .LVU611
 1826 004e 0793     		str	r3, [sp, #28]
 810:STM32Cube_FW_N6/Drivers/BSP/Components/mx66uw1g45g/mx66uw1g45g.c ****   s_command.AlternateBytesMode = HAL_XSPI_ALT_BYTES_NONE;
 1827              		.loc 1 810 3 is_stmt 1 view .LVU612
 811:STM32Cube_FW_N6/Drivers/BSP/Components/mx66uw1g45g/mx66uw1g45g.c ****   s_command.DataMode = HAL_XSPI_DATA_NONE;
 1828              		.loc 1 811 3 view .LVU613
 812:STM32Cube_FW_N6/Drivers/BSP/Components/mx66uw1g45g/mx66uw1g45g.c ****   s_command.DummyCycles = 0U;
 1829              		.loc 1 812 3 view .LVU614
 813:STM32Cube_FW_N6/Drivers/BSP/Components/mx66uw1g45g/mx66uw1g45g.c ****   s_command.DQSMode = HAL_XSPI_DQS_DISABLE;
 1830              		.loc 1 813 3 view .LVU615
 814:STM32Cube_FW_N6/Drivers/BSP/Components/mx66uw1g45g/mx66uw1g45g.c ****  #if defined (XSPI_CCR_SIOO)
 1831              		.loc 1 814 3 view .LVU616
 820:STM32Cube_FW_N6/Drivers/BSP/Components/mx66uw1g45g/mx66uw1g45g.c ****   {
 1832              		.loc 1 820 3 view .LVU617
 820:STM32Cube_FW_N6/Drivers/BSP/Components/mx66uw1g45g/mx66uw1g45g.c ****   {
 1833              		.loc 1 820 7 is_stmt 0 view .LVU618
 1834 0050 FFF7FEFF 		bl	HAL_XSPI_Command
 1835              	.LVL103:
 820:STM32Cube_FW_N6/Drivers/BSP/Components/mx66uw1g45g/mx66uw1g45g.c ****   {
 1836              		.loc 1 820 6 discriminator 1 view .LVU619
 1837 0054 0346     		mov	r3, r0
 1838 0056 0028     		cmp	r0, #0
 1839 0058 E4D1     		bne	.L116
 826:STM32Cube_FW_N6/Drivers/BSP/Components/mx66uw1g45g/mx66uw1g45g.c ****                               ? MX66UW1G45G_READ_STATUS_REG_CMD
 1840              		.loc 1 826 3 is_stmt 1 view .LVU620
 826:STM32Cube_FW_N6/Drivers/BSP/Components/mx66uw1g45g/mx66uw1g45g.c ****                               ? MX66UW1G45G_READ_STATUS_REG_CMD
 1841              		.loc 1 826 25 is_stmt 0 view .LVU621
 1842 005a 002C     		cmp	r4, #0
 832:STM32Cube_FW_N6/Drivers/BSP/Components/mx66uw1g45g/mx66uw1g45g.c ****   s_command.AddressWidth = HAL_XSPI_ADDRESS_32_BITS;
 1843              		.loc 1 832 34 view .LVU622
 1844 005c 05F1FF32 		add	r2, r5, #-1
 826:STM32Cube_FW_N6/Drivers/BSP/Components/mx66uw1g45g/mx66uw1g45g.c ****                               ? MX66UW1G45G_READ_STATUS_REG_CMD
 1845              		.loc 1 826 25 view .LVU623
 1846 0060 40F2FA5C 		movw	ip, #1530
 1847 0064 12BF     		itee	ne
 1848 0066 4FF4806E 		movne	lr, #1024
 1849 006a 4FF0050C 		moveq	ip, #5
 1850 006e 4FF0000E 		moveq	lr, #0
 830:STM32Cube_FW_N6/Drivers/BSP/Components/mx66uw1g45g/mx66uw1g45g.c ****                                  ? HAL_XSPI_ADDRESS_DTR_ENABLE
 1851              		.loc 1 830 3 is_stmt 1 view .LVU624
 832:STM32Cube_FW_N6/Drivers/BSP/Components/mx66uw1g45g/mx66uw1g45g.c ****   s_command.AddressWidth = HAL_XSPI_ADDRESS_32_BITS;
 1852              		.loc 1 832 34 is_stmt 0 view .LVU625
 1853 0072 5742     		rsbs	r7, r2, #0
 1854 0074 5741     		adcs	r7, r7, r2
 1855 0076 FF02     		lsls	r7, r7, #11
 833:STM32Cube_FW_N6/Drivers/BSP/Components/mx66uw1g45g/mx66uw1g45g.c ****   s_command.Address = 0U;
 1856              		.loc 1 833 3 is_stmt 1 view .LVU626
 834:STM32Cube_FW_N6/Drivers/BSP/Components/mx66uw1g45g/mx66uw1g45g.c ****   s_command.DataMode = (Mode == MX66UW1G45G_SPI_MODE) ? HAL_XSPI_DATA_1_LINE : HAL_XSPI_DATA_8_LINE
 1857              		.loc 1 834 3 view .LVU627
 835:STM32Cube_FW_N6/Drivers/BSP/Components/mx66uw1g45g/mx66uw1g45g.c ****   s_command.DataDTRMode = (Rate == MX66UW1G45G_DTR_TRANSFER) ? HAL_XSPI_DATA_DTR_ENABLE : HAL_XSPI_
 1858              		.loc 1 835 3 view .LVU628
 835:STM32Cube_FW_N6/Drivers/BSP/Components/mx66uw1g45g/mx66uw1g45g.c ****   s_command.DataDTRMode = (Rate == MX66UW1G45G_DTR_TRANSFER) ? HAL_XSPI_DATA_DTR_ENABLE : HAL_XSPI_
ARM GAS  C:\Users\DJESSOU\AppData\Local\Temp\ccAx4BcF.s 			page 55


 1859              		.loc 1 835 78 is_stmt 0 view .LVU629
 1860 0078 002C     		cmp	r4, #0
 1861 007a 36D0     		beq	.L118
 836:STM32Cube_FW_N6/Drivers/BSP/Components/mx66uw1g45g/mx66uw1g45g.c ****   s_command.DummyCycles = (Mode == MX66UW1G45G_SPI_MODE)
 1862              		.loc 1 836 3 is_stmt 1 view .LVU630
 837:STM32Cube_FW_N6/Drivers/BSP/Components/mx66uw1g45g/mx66uw1g45g.c ****                               ? 0U
 1863              		.loc 1 837 3 view .LVU631
 839:STM32Cube_FW_N6/Drivers/BSP/Components/mx66uw1g45g/mx66uw1g45g.c ****                                      ? DUMMY_CYCLES_REG_OCTAL_DTR
 1864              		.loc 1 839 31 is_stmt 0 discriminator 1 view .LVU632
 1865 007c 012D     		cmp	r5, #1
 1866 007e 3AD0     		beq	.L123
 835:STM32Cube_FW_N6/Drivers/BSP/Components/mx66uw1g45g/mx66uw1g45g.c ****   s_command.DataDTRMode = (Rate == MX66UW1G45G_DTR_TRANSFER) ? HAL_XSPI_DATA_DTR_ENABLE : HAL_XSPI_
 1867              		.loc 1 835 78 discriminator 2 view .LVU633
 1868 0080 4FF08060 		mov	r0, #67108864
 839:STM32Cube_FW_N6/Drivers/BSP/Components/mx66uw1g45g/mx66uw1g45g.c ****                                      ? DUMMY_CYCLES_REG_OCTAL_DTR
 1869              		.loc 1 839 31 discriminator 1 view .LVU634
 1870 0084 0424     		movs	r4, #4
 1871              	.L125:
 842:STM32Cube_FW_N6/Drivers/BSP/Components/mx66uw1g45g/mx66uw1g45g.c ****   s_command.DQSMode = (Rate == MX66UW1G45G_DTR_TRANSFER) ? HAL_XSPI_DQS_ENABLE : HAL_XSPI_DQS_DISAB
 1872              		.loc 1 842 24 discriminator 4 view .LVU635
 1873 0086 0121     		movs	r1, #1
 843:STM32Cube_FW_N6/Drivers/BSP/Components/mx66uw1g45g/mx66uw1g45g.c **** 
 1874              		.loc 1 843 80 discriminator 2 view .LVU636
 1875 0088 1A46     		mov	r2, r3
 1876              	.L119:
 833:STM32Cube_FW_N6/Drivers/BSP/Components/mx66uw1g45g/mx66uw1g45g.c ****   s_command.Address = 0U;
 1877              		.loc 1 833 26 view .LVU637
 1878 008a 4FF44055 		mov	r5, #12288
 1879 008e 0D95     		str	r5, [sp, #52]
 834:STM32Cube_FW_N6/Drivers/BSP/Components/mx66uw1g45g/mx66uw1g45g.c ****   s_command.DataMode = (Mode == MX66UW1G45G_SPI_MODE) ? HAL_XSPI_DATA_1_LINE : HAL_XSPI_DATA_8_LINE
 1880              		.loc 1 834 21 view .LVU638
 1881 0090 0025     		movs	r5, #0
 835:STM32Cube_FW_N6/Drivers/BSP/Components/mx66uw1g45g/mx66uw1g45g.c ****   s_command.DataDTRMode = (Rate == MX66UW1G45G_DTR_TRANSFER) ? HAL_XSPI_DATA_DTR_ENABLE : HAL_XSPI_
 1882              		.loc 1 835 22 discriminator 4 view .LVU639
 1883 0092 1390     		str	r0, [sp, #76]
 1884 0094 1491     		str	r1, [sp, #80]
 843:STM32Cube_FW_N6/Drivers/BSP/Components/mx66uw1g45g/mx66uw1g45g.c **** 
 1885              		.loc 1 843 21 discriminator 4 view .LVU640
 1886 0096 1792     		str	r2, [sp, #92]
 846:STM32Cube_FW_N6/Drivers/BSP/Components/mx66uw1g45g/mx66uw1g45g.c ****   {
 1887              		.loc 1 846 3 is_stmt 1 view .LVU641
 846:STM32Cube_FW_N6/Drivers/BSP/Components/mx66uw1g45g/mx66uw1g45g.c ****   {
 1888              		.loc 1 846 7 is_stmt 0 view .LVU642
 1889 0098 3046     		mov	r0, r6
 1890 009a 41F28832 		movw	r2, #5000
 1891 009e 05A9     		add	r1, sp, #20
 837:STM32Cube_FW_N6/Drivers/BSP/Components/mx66uw1g45g/mx66uw1g45g.c ****                               ? 0U
 1892              		.loc 1 837 25 view .LVU643
 1893 00a0 CDE91534 		strd	r3, r4, [sp, #84]
 1894 00a4 CDF81CC0 		str	ip, [sp, #28]
 829:STM32Cube_FW_N6/Drivers/BSP/Components/mx66uw1g45g/mx66uw1g45g.c ****   s_command.AddressDTRMode = (Rate == MX66UW1G45G_DTR_TRANSFER)
 1895              		.loc 1 829 25 discriminator 4 view .LVU644
 1896 00a8 CDF830E0 		str	lr, [sp, #48]
 830:STM32Cube_FW_N6/Drivers/BSP/Components/mx66uw1g45g/mx66uw1g45g.c ****                                  ? HAL_XSPI_ADDRESS_DTR_ENABLE
 1897              		.loc 1 830 28 view .LVU645
 1898 00ac 0E97     		str	r7, [sp, #56]
 834:STM32Cube_FW_N6/Drivers/BSP/Components/mx66uw1g45g/mx66uw1g45g.c ****   s_command.DataMode = (Mode == MX66UW1G45G_SPI_MODE) ? HAL_XSPI_DATA_1_LINE : HAL_XSPI_DATA_8_LINE
ARM GAS  C:\Users\DJESSOU\AppData\Local\Temp\ccAx4BcF.s 			page 56


 1899              		.loc 1 834 21 view .LVU646
 1900 00ae 0B95     		str	r5, [sp, #44]
 846:STM32Cube_FW_N6/Drivers/BSP/Components/mx66uw1g45g/mx66uw1g45g.c ****   {
 1901              		.loc 1 846 7 view .LVU647
 1902 00b0 FFF7FEFF 		bl	HAL_XSPI_Command
 1903              	.LVL104:
 846:STM32Cube_FW_N6/Drivers/BSP/Components/mx66uw1g45g/mx66uw1g45g.c ****   {
 1904              		.loc 1 846 6 discriminator 1 view .LVU648
 1905 00b4 0028     		cmp	r0, #0
 1906 00b6 B5D1     		bne	.L116
 851:STM32Cube_FW_N6/Drivers/BSP/Components/mx66uw1g45g/mx66uw1g45g.c ****   s_config.MatchMask = 2U;
 1907              		.loc 1 851 3 is_stmt 1 view .LVU649
 851:STM32Cube_FW_N6/Drivers/BSP/Components/mx66uw1g45g/mx66uw1g45g.c ****   s_config.MatchMask = 2U;
 1908              		.loc 1 851 23 is_stmt 0 view .LVU650
 1909 00b8 0223     		movs	r3, #2
 855:STM32Cube_FW_N6/Drivers/BSP/Components/mx66uw1g45g/mx66uw1g45g.c **** 
 1910              		.loc 1 855 26 view .LVU651
 1911 00ba 1022     		movs	r2, #16
 852:STM32Cube_FW_N6/Drivers/BSP/Components/mx66uw1g45g/mx66uw1g45g.c ****   s_config.MatchMode = HAL_XSPI_MATCH_MODE_AND;
 1912              		.loc 1 852 22 view .LVU652
 1913 00bc CDE90033 		strd	r3, r3, [sp]
 853:STM32Cube_FW_N6/Drivers/BSP/Components/mx66uw1g45g/mx66uw1g45g.c ****   s_config.IntervalTime = MX66UW1G45G_AUTOPOLLING_INTERVAL_TIME;
 1914              		.loc 1 853 3 is_stmt 1 view .LVU653
 855:STM32Cube_FW_N6/Drivers/BSP/Components/mx66uw1g45g/mx66uw1g45g.c **** 
 1915              		.loc 1 855 26 is_stmt 0 view .LVU654
 1916 00c0 4FF48003 		mov	r3, #4194304
 853:STM32Cube_FW_N6/Drivers/BSP/Components/mx66uw1g45g/mx66uw1g45g.c ****   s_config.IntervalTime = MX66UW1G45G_AUTOPOLLING_INTERVAL_TIME;
 1917              		.loc 1 853 22 view .LVU655
 1918 00c4 0290     		str	r0, [sp, #8]
 854:STM32Cube_FW_N6/Drivers/BSP/Components/mx66uw1g45g/mx66uw1g45g.c ****   s_config.AutomaticStop = HAL_XSPI_AUTOMATIC_STOP_ENABLE;
 1919              		.loc 1 854 3 is_stmt 1 view .LVU656
 855:STM32Cube_FW_N6/Drivers/BSP/Components/mx66uw1g45g/mx66uw1g45g.c **** 
 1920              		.loc 1 855 26 is_stmt 0 view .LVU657
 1921 00c6 CDE90332 		strd	r3, r2, [sp, #12]
 857:STM32Cube_FW_N6/Drivers/BSP/Components/mx66uw1g45g/mx66uw1g45g.c ****   {
 1922              		.loc 1 857 3 is_stmt 1 view .LVU658
 857:STM32Cube_FW_N6/Drivers/BSP/Components/mx66uw1g45g/mx66uw1g45g.c ****   {
 1923              		.loc 1 857 7 is_stmt 0 view .LVU659
 1924 00ca 6946     		mov	r1, sp
 1925 00cc 41F28832 		movw	r2, #5000
 1926 00d0 3046     		mov	r0, r6
 1927 00d2 FFF7FEFF 		bl	HAL_XSPI_AutoPolling
 1928              	.LVL105:
 857:STM32Cube_FW_N6/Drivers/BSP/Components/mx66uw1g45g/mx66uw1g45g.c ****   {
 1929              		.loc 1 857 6 discriminator 1 view .LVU660
 1930 00d6 401B     		subs	r0, r0, r5
 1931 00d8 18BF     		it	ne
 1932 00da 0120     		movne	r0, #1
 1933 00dc 4042     		rsbs	r0, r0, #0
 1934 00de A3E7     		b	.L111
 1935              	.L120:
 857:STM32Cube_FW_N6/Drivers/BSP/Components/mx66uw1g45g/mx66uw1g45g.c ****   {
 1936              		.loc 1 857 6 discriminator 1 view .LVU661
 1937 00e0 0122     		movs	r2, #1
 803:STM32Cube_FW_N6/Drivers/BSP/Components/mx66uw1g45g/mx66uw1g45g.c ****   s_command.InstructionWidth = (Mode == MX66UW1G45G_SPI_MODE)
 1938              		.loc 1 803 38 discriminator 2 view .LVU662
 1939 00e2 2346     		mov	r3, r4
ARM GAS  C:\Users\DJESSOU\AppData\Local\Temp\ccAx4BcF.s 			page 57


 1940 00e4 A7E7     		b	.L113
 1941              	.L121:
 809:STM32Cube_FW_N6/Drivers/BSP/Components/mx66uw1g45g/mx66uw1g45g.c ****   s_command.AddressMode = HAL_XSPI_ADDRESS_NONE;
 1942              		.loc 1 809 31 discriminator 1 view .LVU663
 1943 00e6 0623     		movs	r3, #6
 1944 00e8 ADE7     		b	.L115
 1945              	.L118:
 836:STM32Cube_FW_N6/Drivers/BSP/Components/mx66uw1g45g/mx66uw1g45g.c ****   s_command.DummyCycles = (Mode == MX66UW1G45G_SPI_MODE)
 1946              		.loc 1 836 3 is_stmt 1 view .LVU664
 837:STM32Cube_FW_N6/Drivers/BSP/Components/mx66uw1g45g/mx66uw1g45g.c ****                               ? 0U
 1947              		.loc 1 837 3 view .LVU665
 842:STM32Cube_FW_N6/Drivers/BSP/Components/mx66uw1g45g/mx66uw1g45g.c ****   s_command.DQSMode = (Rate == MX66UW1G45G_DTR_TRANSFER) ? HAL_XSPI_DQS_ENABLE : HAL_XSPI_DQS_DISAB
 1948              		.loc 1 842 3 view .LVU666
 842:STM32Cube_FW_N6/Drivers/BSP/Components/mx66uw1g45g/mx66uw1g45g.c ****   s_command.DQSMode = (Rate == MX66UW1G45G_DTR_TRANSFER) ? HAL_XSPI_DQS_ENABLE : HAL_XSPI_DQS_DISAB
 1949              		.loc 1 842 66 is_stmt 0 view .LVU667
 1950 00ea 012D     		cmp	r5, #1
 1951 00ec 0CD0     		beq	.L124
 836:STM32Cube_FW_N6/Drivers/BSP/Components/mx66uw1g45g/mx66uw1g45g.c ****   s_command.DummyCycles = (Mode == MX66UW1G45G_SPI_MODE)
 1952              		.loc 1 836 89 view .LVU668
 1953 00ee 2346     		mov	r3, r4
 835:STM32Cube_FW_N6/Drivers/BSP/Components/mx66uw1g45g/mx66uw1g45g.c ****   s_command.DataDTRMode = (Rate == MX66UW1G45G_DTR_TRANSFER) ? HAL_XSPI_DATA_DTR_ENABLE : HAL_XSPI_
 1954              		.loc 1 835 78 discriminator 1 view .LVU669
 1955 00f0 4FF08070 		mov	r0, #16777216
 1956 00f4 C7E7     		b	.L125
 1957              	.L123:
 836:STM32Cube_FW_N6/Drivers/BSP/Components/mx66uw1g45g/mx66uw1g45g.c ****   s_command.DummyCycles = (Mode == MX66UW1G45G_SPI_MODE)
 1958              		.loc 1 836 89 view .LVU670
 1959 00f6 4FF00063 		mov	r3, #134217728
 835:STM32Cube_FW_N6/Drivers/BSP/Components/mx66uw1g45g/mx66uw1g45g.c ****   s_command.DataDTRMode = (Rate == MX66UW1G45G_DTR_TRANSFER) ? HAL_XSPI_DATA_DTR_ENABLE : HAL_XSPI_
 1960              		.loc 1 835 78 discriminator 2 view .LVU671
 1961 00fa 4FF08060 		mov	r0, #67108864
 1962 00fe 0524     		movs	r4, #5
 1963              	.L126:
 842:STM32Cube_FW_N6/Drivers/BSP/Components/mx66uw1g45g/mx66uw1g45g.c ****   s_command.DQSMode = (Rate == MX66UW1G45G_DTR_TRANSFER) ? HAL_XSPI_DQS_ENABLE : HAL_XSPI_DQS_DISAB
 1964              		.loc 1 842 24 discriminator 4 view .LVU672
 1965 0100 0221     		movs	r1, #2
 843:STM32Cube_FW_N6/Drivers/BSP/Components/mx66uw1g45g/mx66uw1g45g.c **** 
 1966              		.loc 1 843 80 discriminator 1 view .LVU673
 1967 0102 4FF00052 		mov	r2, #536870912
 1968 0106 C0E7     		b	.L119
 1969              	.L124:
 836:STM32Cube_FW_N6/Drivers/BSP/Components/mx66uw1g45g/mx66uw1g45g.c ****   s_command.DummyCycles = (Mode == MX66UW1G45G_SPI_MODE)
 1970              		.loc 1 836 89 view .LVU674
 1971 0108 4FF00063 		mov	r3, #134217728
 835:STM32Cube_FW_N6/Drivers/BSP/Components/mx66uw1g45g/mx66uw1g45g.c ****   s_command.DataDTRMode = (Rate == MX66UW1G45G_DTR_TRANSFER) ? HAL_XSPI_DATA_DTR_ENABLE : HAL_XSPI_
 1972              		.loc 1 835 78 discriminator 1 view .LVU675
 1973 010c 4FF08070 		mov	r0, #16777216
 1974 0110 F6E7     		b	.L126
 1975              		.cfi_endproc
 1976              	.LFE874:
 1978              		.section	.text.MX66UW1G45G_WriteDisable,"ax",%progbits
 1979              		.align	1
 1980              		.global	MX66UW1G45G_WriteDisable
 1981              		.syntax unified
 1982              		.thumb
 1983              		.thumb_func
 1985              	MX66UW1G45G_WriteDisable:
ARM GAS  C:\Users\DJESSOU\AppData\Local\Temp\ccAx4BcF.s 			page 58


 1986              	.LVL106:
 1987              	.LFB875:
 864:STM32Cube_FW_N6/Drivers/BSP/Components/mx66uw1g45g/mx66uw1g45g.c **** 
 865:STM32Cube_FW_N6/Drivers/BSP/Components/mx66uw1g45g/mx66uw1g45g.c **** /**
 866:STM32Cube_FW_N6/Drivers/BSP/Components/mx66uw1g45g/mx66uw1g45g.c ****   * @brief  This function reset the (WEN) Write Enable Latch bit.
 867:STM32Cube_FW_N6/Drivers/BSP/Components/mx66uw1g45g/mx66uw1g45g.c ****   *         SPI/OPI
 868:STM32Cube_FW_N6/Drivers/BSP/Components/mx66uw1g45g/mx66uw1g45g.c ****   * @param  Ctx Component object pointer
 869:STM32Cube_FW_N6/Drivers/BSP/Components/mx66uw1g45g/mx66uw1g45g.c ****   * @param  Mode Interface mode
 870:STM32Cube_FW_N6/Drivers/BSP/Components/mx66uw1g45g/mx66uw1g45g.c ****   * @param  Rate Transfer rate STR or DTR
 871:STM32Cube_FW_N6/Drivers/BSP/Components/mx66uw1g45g/mx66uw1g45g.c ****   * @retval error status
 872:STM32Cube_FW_N6/Drivers/BSP/Components/mx66uw1g45g/mx66uw1g45g.c ****   */
 873:STM32Cube_FW_N6/Drivers/BSP/Components/mx66uw1g45g/mx66uw1g45g.c **** int32_t MX66UW1G45G_WriteDisable(XSPI_HandleTypeDef *Ctx, MX66UW1G45G_Interface_t Mode, MX66UW1G45G
 874:STM32Cube_FW_N6/Drivers/BSP/Components/mx66uw1g45g/mx66uw1g45g.c **** {
 1988              		.loc 1 874 1 is_stmt 1 view -0
 1989              		.cfi_startproc
 1990              		@ args = 0, pretend = 0, frame = 80
 1991              		@ frame_needed = 0, uses_anonymous_args = 0
 875:STM32Cube_FW_N6/Drivers/BSP/Components/mx66uw1g45g/mx66uw1g45g.c ****   XSPI_RegularCmdTypeDef s_command = {0};
 1992              		.loc 1 875 3 view .LVU677
 874:STM32Cube_FW_N6/Drivers/BSP/Components/mx66uw1g45g/mx66uw1g45g.c ****   XSPI_RegularCmdTypeDef s_command = {0};
 1993              		.loc 1 874 1 is_stmt 0 view .LVU678
 1994 0000 70B5     		push	{r4, r5, r6, lr}
 1995              		.cfi_def_cfa_offset 16
 1996              		.cfi_offset 4, -16
 1997              		.cfi_offset 5, -12
 1998              		.cfi_offset 6, -8
 1999              		.cfi_offset 14, -4
 2000 0002 0D46     		mov	r5, r1
 2001 0004 94B0     		sub	sp, sp, #80
 2002              		.cfi_def_cfa_offset 96
 874:STM32Cube_FW_N6/Drivers/BSP/Components/mx66uw1g45g/mx66uw1g45g.c ****   XSPI_RegularCmdTypeDef s_command = {0};
 2003              		.loc 1 874 1 view .LVU679
 2004 0006 0646     		mov	r6, r0
 2005 0008 1446     		mov	r4, r2
 2006              		.loc 1 875 26 view .LVU680
 2007 000a 0021     		movs	r1, #0
 2008              	.LVL107:
 2009              		.loc 1 875 26 view .LVU681
 2010 000c 4C22     		movs	r2, #76
 2011              	.LVL108:
 2012              		.loc 1 875 26 view .LVU682
 2013 000e 01A8     		add	r0, sp, #4
 2014              	.LVL109:
 2015              		.loc 1 875 26 view .LVU683
 2016 0010 FFF7FEFF 		bl	memset
 2017              	.LVL110:
 876:STM32Cube_FW_N6/Drivers/BSP/Components/mx66uw1g45g/mx66uw1g45g.c **** 
 877:STM32Cube_FW_N6/Drivers/BSP/Components/mx66uw1g45g/mx66uw1g45g.c ****   /* SPI mode and DTR transfer not supported by memory */
 878:STM32Cube_FW_N6/Drivers/BSP/Components/mx66uw1g45g/mx66uw1g45g.c ****   if ((Mode == MX66UW1G45G_SPI_MODE) && (Rate == MX66UW1G45G_DTR_TRANSFER))
 2018              		.loc 1 878 3 is_stmt 1 view .LVU684
 2019              		.loc 1 878 6 is_stmt 0 view .LVU685
 2020 0014 BDB9     		cbnz	r5, .L128
 2021              		.loc 1 878 38 discriminator 1 view .LVU686
 2022 0016 012C     		cmp	r4, #1
 2023 0018 1DD0     		beq	.L132
 2024 001a 0123     		movs	r3, #1
 879:STM32Cube_FW_N6/Drivers/BSP/Components/mx66uw1g45g/mx66uw1g45g.c ****   {
ARM GAS  C:\Users\DJESSOU\AppData\Local\Temp\ccAx4BcF.s 			page 59


 880:STM32Cube_FW_N6/Drivers/BSP/Components/mx66uw1g45g/mx66uw1g45g.c ****     return MX66UW1G45G_ERROR;
 881:STM32Cube_FW_N6/Drivers/BSP/Components/mx66uw1g45g/mx66uw1g45g.c ****   }
 882:STM32Cube_FW_N6/Drivers/BSP/Components/mx66uw1g45g/mx66uw1g45g.c **** 
 883:STM32Cube_FW_N6/Drivers/BSP/Components/mx66uw1g45g/mx66uw1g45g.c ****   /* Initialize the write disable command */
 884:STM32Cube_FW_N6/Drivers/BSP/Components/mx66uw1g45g/mx66uw1g45g.c ****   s_command.OperationType = HAL_XSPI_OPTYPE_COMMON_CFG;
 885:STM32Cube_FW_N6/Drivers/BSP/Components/mx66uw1g45g/mx66uw1g45g.c ****   s_command.InstructionMode = (Mode == MX66UW1G45G_SPI_MODE)
 886:STM32Cube_FW_N6/Drivers/BSP/Components/mx66uw1g45g/mx66uw1g45g.c ****                                   ? HAL_XSPI_INSTRUCTION_1_LINE
 887:STM32Cube_FW_N6/Drivers/BSP/Components/mx66uw1g45g/mx66uw1g45g.c ****                                   : HAL_XSPI_INSTRUCTION_8_LINES;
 888:STM32Cube_FW_N6/Drivers/BSP/Components/mx66uw1g45g/mx66uw1g45g.c ****   s_command.InstructionDTRMode = (Rate == MX66UW1G45G_DTR_TRANSFER)
 889:STM32Cube_FW_N6/Drivers/BSP/Components/mx66uw1g45g/mx66uw1g45g.c ****                                      ? HAL_XSPI_INSTRUCTION_DTR_ENABLE
 890:STM32Cube_FW_N6/Drivers/BSP/Components/mx66uw1g45g/mx66uw1g45g.c ****                                      : HAL_XSPI_INSTRUCTION_DTR_DISABLE;
 2025              		.loc 1 890 38 discriminator 2 view .LVU687
 2026 001c 2C46     		mov	r4, r5
 2027              	.LVL111:
 2028              	.L130:
 885:STM32Cube_FW_N6/Drivers/BSP/Components/mx66uw1g45g/mx66uw1g45g.c ****                                   ? HAL_XSPI_INSTRUCTION_1_LINE
 2029              		.loc 1 885 29 view .LVU688
 2030 001e 0493     		str	r3, [sp, #16]
 888:STM32Cube_FW_N6/Drivers/BSP/Components/mx66uw1g45g/mx66uw1g45g.c ****                                      ? HAL_XSPI_INSTRUCTION_DTR_ENABLE
 2031              		.loc 1 888 32 view .LVU689
 2032 0020 0694     		str	r4, [sp, #24]
 891:STM32Cube_FW_N6/Drivers/BSP/Components/mx66uw1g45g/mx66uw1g45g.c ****   s_command.InstructionWidth = (Mode == MX66UW1G45G_SPI_MODE)
 2033              		.loc 1 891 3 is_stmt 1 view .LVU690
 892:STM32Cube_FW_N6/Drivers/BSP/Components/mx66uw1g45g/mx66uw1g45g.c ****                                    ? HAL_XSPI_INSTRUCTION_8_BITS
 893:STM32Cube_FW_N6/Drivers/BSP/Components/mx66uw1g45g/mx66uw1g45g.c ****                                    : HAL_XSPI_INSTRUCTION_16_BITS;
 2034              		.loc 1 893 36 is_stmt 0 view .LVU691
 2035 0022 B5B1     		cbz	r5, .L133
 891:STM32Cube_FW_N6/Drivers/BSP/Components/mx66uw1g45g/mx66uw1g45g.c ****   s_command.InstructionWidth = (Mode == MX66UW1G45G_SPI_MODE)
 2036              		.loc 1 891 30 view .LVU692
 2037 0024 1023     		movs	r3, #16
 2038 0026 0593     		str	r3, [sp, #20]
 894:STM32Cube_FW_N6/Drivers/BSP/Components/mx66uw1g45g/mx66uw1g45g.c ****   s_command.Instruction = (Mode == MX66UW1G45G_SPI_MODE)
 2039              		.loc 1 894 3 is_stmt 1 view .LVU693
 895:STM32Cube_FW_N6/Drivers/BSP/Components/mx66uw1g45g/mx66uw1g45g.c ****                               ? MX66UW1G45G_WRITE_DISABLE_CMD
 896:STM32Cube_FW_N6/Drivers/BSP/Components/mx66uw1g45g/mx66uw1g45g.c ****                               : MX66UW1G45G_OCTA_WRITE_DISABLE_CMD;
 2040              		.loc 1 896 31 is_stmt 0 discriminator 2 view .LVU694
 2041 0028 40F2FB43 		movw	r3, #1275
 2042              	.L131:
 897:STM32Cube_FW_N6/Drivers/BSP/Components/mx66uw1g45g/mx66uw1g45g.c ****   s_command.AddressMode = HAL_XSPI_ADDRESS_NONE;
 898:STM32Cube_FW_N6/Drivers/BSP/Components/mx66uw1g45g/mx66uw1g45g.c ****   s_command.AlternateBytesMode = HAL_XSPI_ALT_BYTES_NONE;
 899:STM32Cube_FW_N6/Drivers/BSP/Components/mx66uw1g45g/mx66uw1g45g.c ****   s_command.DataMode = HAL_XSPI_DATA_NONE;
 900:STM32Cube_FW_N6/Drivers/BSP/Components/mx66uw1g45g/mx66uw1g45g.c ****   s_command.DummyCycles = 0U;
 901:STM32Cube_FW_N6/Drivers/BSP/Components/mx66uw1g45g/mx66uw1g45g.c ****   s_command.DQSMode = HAL_XSPI_DQS_DISABLE;
 902:STM32Cube_FW_N6/Drivers/BSP/Components/mx66uw1g45g/mx66uw1g45g.c ****  #if defined (XSPI_CCR_SIOO)
 903:STM32Cube_FW_N6/Drivers/BSP/Components/mx66uw1g45g/mx66uw1g45g.c ****   s_command.SIOOMode            = HAL_XSPI_SIOO_INST_EVERY_CMD;
 904:STM32Cube_FW_N6/Drivers/BSP/Components/mx66uw1g45g/mx66uw1g45g.c ****  #endif
 905:STM32Cube_FW_N6/Drivers/BSP/Components/mx66uw1g45g/mx66uw1g45g.c **** 
 906:STM32Cube_FW_N6/Drivers/BSP/Components/mx66uw1g45g/mx66uw1g45g.c ****   /* Send the command */
 907:STM32Cube_FW_N6/Drivers/BSP/Components/mx66uw1g45g/mx66uw1g45g.c ****   if (HAL_XSPI_Command(Ctx, &s_command, HAL_XSPI_TIMEOUT_DEFAULT_VALUE) != HAL_OK)
 2043              		.loc 1 907 7 view .LVU695
 2044 002c 41F28832 		movw	r2, #5000
 2045 0030 3046     		mov	r0, r6
 2046 0032 01A9     		add	r1, sp, #4
 894:STM32Cube_FW_N6/Drivers/BSP/Components/mx66uw1g45g/mx66uw1g45g.c ****                               ? MX66UW1G45G_WRITE_DISABLE_CMD
 2047              		.loc 1 894 25 view .LVU696
 2048 0034 0393     		str	r3, [sp, #12]
 897:STM32Cube_FW_N6/Drivers/BSP/Components/mx66uw1g45g/mx66uw1g45g.c ****   s_command.AddressMode = HAL_XSPI_ADDRESS_NONE;
ARM GAS  C:\Users\DJESSOU\AppData\Local\Temp\ccAx4BcF.s 			page 60


 2049              		.loc 1 897 3 is_stmt 1 view .LVU697
 898:STM32Cube_FW_N6/Drivers/BSP/Components/mx66uw1g45g/mx66uw1g45g.c ****   s_command.DataMode = HAL_XSPI_DATA_NONE;
 2050              		.loc 1 898 3 view .LVU698
 899:STM32Cube_FW_N6/Drivers/BSP/Components/mx66uw1g45g/mx66uw1g45g.c ****   s_command.DummyCycles = 0U;
 2051              		.loc 1 899 3 view .LVU699
 900:STM32Cube_FW_N6/Drivers/BSP/Components/mx66uw1g45g/mx66uw1g45g.c ****   s_command.DQSMode = HAL_XSPI_DQS_DISABLE;
 2052              		.loc 1 900 3 view .LVU700
 901:STM32Cube_FW_N6/Drivers/BSP/Components/mx66uw1g45g/mx66uw1g45g.c ****  #if defined (XSPI_CCR_SIOO)
 2053              		.loc 1 901 3 view .LVU701
 2054              		.loc 1 907 3 view .LVU702
 2055              		.loc 1 907 7 is_stmt 0 view .LVU703
 2056 0036 FFF7FEFF 		bl	HAL_XSPI_Command
 2057              	.LVL112:
 2058              		.loc 1 907 6 discriminator 1 view .LVU704
 2059 003a 0038     		subs	r0, r0, #0
 2060 003c 18BF     		it	ne
 2061 003e 0120     		movne	r0, #1
 2062 0040 4042     		rsbs	r0, r0, #0
 2063              	.L127:
 908:STM32Cube_FW_N6/Drivers/BSP/Components/mx66uw1g45g/mx66uw1g45g.c ****   {
 909:STM32Cube_FW_N6/Drivers/BSP/Components/mx66uw1g45g/mx66uw1g45g.c ****     return MX66UW1G45G_ERROR;
 910:STM32Cube_FW_N6/Drivers/BSP/Components/mx66uw1g45g/mx66uw1g45g.c ****   }
 911:STM32Cube_FW_N6/Drivers/BSP/Components/mx66uw1g45g/mx66uw1g45g.c **** 
 912:STM32Cube_FW_N6/Drivers/BSP/Components/mx66uw1g45g/mx66uw1g45g.c ****   return MX66UW1G45G_OK;
 913:STM32Cube_FW_N6/Drivers/BSP/Components/mx66uw1g45g/mx66uw1g45g.c **** }
 2064              		.loc 1 913 1 view .LVU705
 2065 0042 14B0     		add	sp, sp, #80
 2066              		.cfi_remember_state
 2067              		.cfi_def_cfa_offset 16
 2068              		@ sp needed
 2069 0044 70BD     		pop	{r4, r5, r6, pc}
 2070              	.LVL113:
 2071              	.L128:
 2072              		.cfi_restore_state
 888:STM32Cube_FW_N6/Drivers/BSP/Components/mx66uw1g45g/mx66uw1g45g.c ****                                      ? HAL_XSPI_INSTRUCTION_DTR_ENABLE
 2073              		.loc 1 888 3 is_stmt 1 view .LVU706
 890:STM32Cube_FW_N6/Drivers/BSP/Components/mx66uw1g45g/mx66uw1g45g.c ****   s_command.InstructionWidth = (Mode == MX66UW1G45G_SPI_MODE)
 2074              		.loc 1 890 38 is_stmt 0 view .LVU707
 2075 0046 631E     		subs	r3, r4, #1
 2076 0048 5C42     		rsbs	r4, r3, #0
 2077 004a 5C41     		adcs	r4, r4, r3
 2078 004c E400     		lsls	r4, r4, #3
 2079 004e 0423     		movs	r3, #4
 2080 0050 E5E7     		b	.L130
 2081              	.L133:
 896:STM32Cube_FW_N6/Drivers/BSP/Components/mx66uw1g45g/mx66uw1g45g.c ****   s_command.AddressMode = HAL_XSPI_ADDRESS_NONE;
 2082              		.loc 1 896 31 discriminator 1 view .LVU708
 2083 0052 0423     		movs	r3, #4
 2084 0054 EAE7     		b	.L131
 2085              	.L132:
 880:STM32Cube_FW_N6/Drivers/BSP/Components/mx66uw1g45g/mx66uw1g45g.c ****   }
 2086              		.loc 1 880 12 view .LVU709
 2087 0056 4FF0FF30 		mov	r0, #-1
 2088 005a F2E7     		b	.L127
 2089              		.cfi_endproc
 2090              	.LFE875:
 2092              		.section	.text.MX66UW1G45G_ReadStatusRegister,"ax",%progbits
ARM GAS  C:\Users\DJESSOU\AppData\Local\Temp\ccAx4BcF.s 			page 61


 2093              		.align	1
 2094              		.global	MX66UW1G45G_ReadStatusRegister
 2095              		.syntax unified
 2096              		.thumb
 2097              		.thumb_func
 2099              	MX66UW1G45G_ReadStatusRegister:
 2100              	.LVL114:
 2101              	.LFB876:
 914:STM32Cube_FW_N6/Drivers/BSP/Components/mx66uw1g45g/mx66uw1g45g.c **** 
 915:STM32Cube_FW_N6/Drivers/BSP/Components/mx66uw1g45g/mx66uw1g45g.c **** /**
 916:STM32Cube_FW_N6/Drivers/BSP/Components/mx66uw1g45g/mx66uw1g45g.c ****   * @brief  Read Flash Status register value
 917:STM32Cube_FW_N6/Drivers/BSP/Components/mx66uw1g45g/mx66uw1g45g.c ****   *         SPI/OPI
 918:STM32Cube_FW_N6/Drivers/BSP/Components/mx66uw1g45g/mx66uw1g45g.c ****   * @param  Ctx Component object pointer
 919:STM32Cube_FW_N6/Drivers/BSP/Components/mx66uw1g45g/mx66uw1g45g.c ****   * @param  Mode Interface mode
 920:STM32Cube_FW_N6/Drivers/BSP/Components/mx66uw1g45g/mx66uw1g45g.c ****   * @param  Rate Transfer rate STR or DTR
 921:STM32Cube_FW_N6/Drivers/BSP/Components/mx66uw1g45g/mx66uw1g45g.c ****   * @param  Value Status register value pointer
 922:STM32Cube_FW_N6/Drivers/BSP/Components/mx66uw1g45g/mx66uw1g45g.c ****   * @retval error status
 923:STM32Cube_FW_N6/Drivers/BSP/Components/mx66uw1g45g/mx66uw1g45g.c ****   */
 924:STM32Cube_FW_N6/Drivers/BSP/Components/mx66uw1g45g/mx66uw1g45g.c **** int32_t MX66UW1G45G_ReadStatusRegister(XSPI_HandleTypeDef *Ctx, MX66UW1G45G_Interface_t Mode,
 925:STM32Cube_FW_N6/Drivers/BSP/Components/mx66uw1g45g/mx66uw1g45g.c ****                                        MX66UW1G45G_Transfer_t Rate, uint8_t *Value)
 926:STM32Cube_FW_N6/Drivers/BSP/Components/mx66uw1g45g/mx66uw1g45g.c **** {
 2102              		.loc 1 926 1 is_stmt 1 view -0
 2103              		.cfi_startproc
 2104              		@ args = 0, pretend = 0, frame = 80
 2105              		@ frame_needed = 0, uses_anonymous_args = 0
 927:STM32Cube_FW_N6/Drivers/BSP/Components/mx66uw1g45g/mx66uw1g45g.c ****   XSPI_RegularCmdTypeDef s_command = {0};
 2106              		.loc 1 927 3 view .LVU711
 926:STM32Cube_FW_N6/Drivers/BSP/Components/mx66uw1g45g/mx66uw1g45g.c ****   XSPI_RegularCmdTypeDef s_command = {0};
 2107              		.loc 1 926 1 is_stmt 0 view .LVU712
 2108 0000 F0B5     		push	{r4, r5, r6, r7, lr}
 2109              		.cfi_def_cfa_offset 20
 2110              		.cfi_offset 4, -20
 2111              		.cfi_offset 5, -16
 2112              		.cfi_offset 6, -12
 2113              		.cfi_offset 7, -8
 2114              		.cfi_offset 14, -4
 2115 0002 0D46     		mov	r5, r1
 2116 0004 95B0     		sub	sp, sp, #84
 2117              		.cfi_def_cfa_offset 104
 926:STM32Cube_FW_N6/Drivers/BSP/Components/mx66uw1g45g/mx66uw1g45g.c ****   XSPI_RegularCmdTypeDef s_command = {0};
 2118              		.loc 1 926 1 view .LVU713
 2119 0006 0646     		mov	r6, r0
 2120 0008 1446     		mov	r4, r2
 2121              		.loc 1 927 26 view .LVU714
 2122 000a 0021     		movs	r1, #0
 2123              	.LVL115:
 2124              		.loc 1 927 26 view .LVU715
 2125 000c 4C22     		movs	r2, #76
 2126              	.LVL116:
 2127              		.loc 1 927 26 view .LVU716
 2128 000e 01A8     		add	r0, sp, #4
 2129              	.LVL117:
 926:STM32Cube_FW_N6/Drivers/BSP/Components/mx66uw1g45g/mx66uw1g45g.c ****   XSPI_RegularCmdTypeDef s_command = {0};
 2130              		.loc 1 926 1 view .LVU717
 2131 0010 1F46     		mov	r7, r3
 2132              		.loc 1 927 26 view .LVU718
 2133 0012 FFF7FEFF 		bl	memset
ARM GAS  C:\Users\DJESSOU\AppData\Local\Temp\ccAx4BcF.s 			page 62


 2134              	.LVL118:
 928:STM32Cube_FW_N6/Drivers/BSP/Components/mx66uw1g45g/mx66uw1g45g.c **** 
 929:STM32Cube_FW_N6/Drivers/BSP/Components/mx66uw1g45g/mx66uw1g45g.c ****   /* SPI mode and DTR transfer not supported by memory */
 930:STM32Cube_FW_N6/Drivers/BSP/Components/mx66uw1g45g/mx66uw1g45g.c ****   if ((Mode == MX66UW1G45G_SPI_MODE) && (Rate == MX66UW1G45G_DTR_TRANSFER))
 2135              		.loc 1 930 3 is_stmt 1 view .LVU719
 2136              		.loc 1 930 6 is_stmt 0 view .LVU720
 2137 0016 2DB9     		cbnz	r5, .L135
 2138              		.loc 1 930 38 discriminator 1 view .LVU721
 2139 0018 012C     		cmp	r4, #1
 2140 001a 43D1     		bne	.L146
 2141              	.L145:
 931:STM32Cube_FW_N6/Drivers/BSP/Components/mx66uw1g45g/mx66uw1g45g.c ****   {
 932:STM32Cube_FW_N6/Drivers/BSP/Components/mx66uw1g45g/mx66uw1g45g.c ****     return MX66UW1G45G_ERROR;
 2142              		.loc 1 932 12 view .LVU722
 2143 001c 4FF0FF30 		mov	r0, #-1
 2144              	.L134:
 933:STM32Cube_FW_N6/Drivers/BSP/Components/mx66uw1g45g/mx66uw1g45g.c ****   }
 934:STM32Cube_FW_N6/Drivers/BSP/Components/mx66uw1g45g/mx66uw1g45g.c **** 
 935:STM32Cube_FW_N6/Drivers/BSP/Components/mx66uw1g45g/mx66uw1g45g.c ****   /* Initialize the reading of status register */
 936:STM32Cube_FW_N6/Drivers/BSP/Components/mx66uw1g45g/mx66uw1g45g.c ****   s_command.OperationType = HAL_XSPI_OPTYPE_COMMON_CFG;
 937:STM32Cube_FW_N6/Drivers/BSP/Components/mx66uw1g45g/mx66uw1g45g.c ****   s_command.InstructionMode = (Mode == MX66UW1G45G_SPI_MODE)
 938:STM32Cube_FW_N6/Drivers/BSP/Components/mx66uw1g45g/mx66uw1g45g.c ****                                   ? HAL_XSPI_INSTRUCTION_1_LINE
 939:STM32Cube_FW_N6/Drivers/BSP/Components/mx66uw1g45g/mx66uw1g45g.c ****                                   : HAL_XSPI_INSTRUCTION_8_LINES;
 940:STM32Cube_FW_N6/Drivers/BSP/Components/mx66uw1g45g/mx66uw1g45g.c ****   s_command.InstructionDTRMode = (Rate == MX66UW1G45G_DTR_TRANSFER)
 941:STM32Cube_FW_N6/Drivers/BSP/Components/mx66uw1g45g/mx66uw1g45g.c ****                                      ? HAL_XSPI_INSTRUCTION_DTR_ENABLE
 942:STM32Cube_FW_N6/Drivers/BSP/Components/mx66uw1g45g/mx66uw1g45g.c ****                                      : HAL_XSPI_INSTRUCTION_DTR_DISABLE;
 943:STM32Cube_FW_N6/Drivers/BSP/Components/mx66uw1g45g/mx66uw1g45g.c ****   s_command.InstructionWidth = (Mode == MX66UW1G45G_SPI_MODE)
 944:STM32Cube_FW_N6/Drivers/BSP/Components/mx66uw1g45g/mx66uw1g45g.c ****                                    ? HAL_XSPI_INSTRUCTION_8_BITS
 945:STM32Cube_FW_N6/Drivers/BSP/Components/mx66uw1g45g/mx66uw1g45g.c ****                                    : HAL_XSPI_INSTRUCTION_16_BITS;
 946:STM32Cube_FW_N6/Drivers/BSP/Components/mx66uw1g45g/mx66uw1g45g.c ****   s_command.Instruction = (Mode == MX66UW1G45G_SPI_MODE)
 947:STM32Cube_FW_N6/Drivers/BSP/Components/mx66uw1g45g/mx66uw1g45g.c ****                               ? MX66UW1G45G_READ_STATUS_REG_CMD
 948:STM32Cube_FW_N6/Drivers/BSP/Components/mx66uw1g45g/mx66uw1g45g.c ****                               : MX66UW1G45G_OCTA_READ_STATUS_REG_CMD;
 949:STM32Cube_FW_N6/Drivers/BSP/Components/mx66uw1g45g/mx66uw1g45g.c ****   s_command.AddressMode = (Mode == MX66UW1G45G_SPI_MODE) ? HAL_XSPI_ADDRESS_NONE : HAL_XSPI_ADDRESS
 950:STM32Cube_FW_N6/Drivers/BSP/Components/mx66uw1g45g/mx66uw1g45g.c ****   s_command.AddressDTRMode = (Rate == MX66UW1G45G_DTR_TRANSFER)
 951:STM32Cube_FW_N6/Drivers/BSP/Components/mx66uw1g45g/mx66uw1g45g.c ****                                  ? HAL_XSPI_ADDRESS_DTR_ENABLE
 952:STM32Cube_FW_N6/Drivers/BSP/Components/mx66uw1g45g/mx66uw1g45g.c ****                                  : HAL_XSPI_ADDRESS_DTR_DISABLE;
 953:STM32Cube_FW_N6/Drivers/BSP/Components/mx66uw1g45g/mx66uw1g45g.c ****   s_command.AddressWidth = HAL_XSPI_ADDRESS_32_BITS;
 954:STM32Cube_FW_N6/Drivers/BSP/Components/mx66uw1g45g/mx66uw1g45g.c ****   s_command.Address = 0U;
 955:STM32Cube_FW_N6/Drivers/BSP/Components/mx66uw1g45g/mx66uw1g45g.c ****   s_command.AlternateBytesMode = HAL_XSPI_ALT_BYTES_NONE;
 956:STM32Cube_FW_N6/Drivers/BSP/Components/mx66uw1g45g/mx66uw1g45g.c ****   s_command.DataMode = (Mode == MX66UW1G45G_SPI_MODE) ? HAL_XSPI_DATA_1_LINE : HAL_XSPI_DATA_8_LINE
 957:STM32Cube_FW_N6/Drivers/BSP/Components/mx66uw1g45g/mx66uw1g45g.c ****   s_command.DataDTRMode = (Rate == MX66UW1G45G_DTR_TRANSFER)
 958:STM32Cube_FW_N6/Drivers/BSP/Components/mx66uw1g45g/mx66uw1g45g.c ****                               ? HAL_XSPI_DATA_DTR_ENABLE
 959:STM32Cube_FW_N6/Drivers/BSP/Components/mx66uw1g45g/mx66uw1g45g.c ****                               : HAL_XSPI_DATA_DTR_DISABLE;
 960:STM32Cube_FW_N6/Drivers/BSP/Components/mx66uw1g45g/mx66uw1g45g.c ****   s_command.DummyCycles = (Mode == MX66UW1G45G_SPI_MODE)
 961:STM32Cube_FW_N6/Drivers/BSP/Components/mx66uw1g45g/mx66uw1g45g.c ****                               ? 0U
 962:STM32Cube_FW_N6/Drivers/BSP/Components/mx66uw1g45g/mx66uw1g45g.c ****                               : ((Rate == MX66UW1G45G_DTR_TRANSFER)
 963:STM32Cube_FW_N6/Drivers/BSP/Components/mx66uw1g45g/mx66uw1g45g.c ****                                      ? DUMMY_CYCLES_REG_OCTAL_DTR
 964:STM32Cube_FW_N6/Drivers/BSP/Components/mx66uw1g45g/mx66uw1g45g.c ****                                      : DUMMY_CYCLES_REG_OCTAL);
 965:STM32Cube_FW_N6/Drivers/BSP/Components/mx66uw1g45g/mx66uw1g45g.c ****   s_command.DataLength = (Rate == MX66UW1G45G_DTR_TRANSFER) ? 2U : 1U;
 966:STM32Cube_FW_N6/Drivers/BSP/Components/mx66uw1g45g/mx66uw1g45g.c ****   s_command.DQSMode = (Rate == MX66UW1G45G_DTR_TRANSFER) ? HAL_XSPI_DQS_ENABLE : HAL_XSPI_DQS_DISAB
 967:STM32Cube_FW_N6/Drivers/BSP/Components/mx66uw1g45g/mx66uw1g45g.c ****  #if defined (XSPI_CCR_SIOO)
 968:STM32Cube_FW_N6/Drivers/BSP/Components/mx66uw1g45g/mx66uw1g45g.c ****   s_command.SIOOMode            = HAL_XSPI_SIOO_INST_EVERY_CMD;
 969:STM32Cube_FW_N6/Drivers/BSP/Components/mx66uw1g45g/mx66uw1g45g.c ****  #endif
 970:STM32Cube_FW_N6/Drivers/BSP/Components/mx66uw1g45g/mx66uw1g45g.c **** 
 971:STM32Cube_FW_N6/Drivers/BSP/Components/mx66uw1g45g/mx66uw1g45g.c ****   /* Send the command */
 972:STM32Cube_FW_N6/Drivers/BSP/Components/mx66uw1g45g/mx66uw1g45g.c ****   if (HAL_XSPI_Command(Ctx, &s_command, HAL_XSPI_TIMEOUT_DEFAULT_VALUE) != HAL_OK)
 973:STM32Cube_FW_N6/Drivers/BSP/Components/mx66uw1g45g/mx66uw1g45g.c ****   {
ARM GAS  C:\Users\DJESSOU\AppData\Local\Temp\ccAx4BcF.s 			page 63


 974:STM32Cube_FW_N6/Drivers/BSP/Components/mx66uw1g45g/mx66uw1g45g.c ****     return MX66UW1G45G_ERROR;
 975:STM32Cube_FW_N6/Drivers/BSP/Components/mx66uw1g45g/mx66uw1g45g.c ****   }
 976:STM32Cube_FW_N6/Drivers/BSP/Components/mx66uw1g45g/mx66uw1g45g.c **** 
 977:STM32Cube_FW_N6/Drivers/BSP/Components/mx66uw1g45g/mx66uw1g45g.c ****   /* Reception of the data */
 978:STM32Cube_FW_N6/Drivers/BSP/Components/mx66uw1g45g/mx66uw1g45g.c ****   if (HAL_XSPI_Receive(Ctx, Value, HAL_XSPI_TIMEOUT_DEFAULT_VALUE) != HAL_OK)
 979:STM32Cube_FW_N6/Drivers/BSP/Components/mx66uw1g45g/mx66uw1g45g.c ****   {
 980:STM32Cube_FW_N6/Drivers/BSP/Components/mx66uw1g45g/mx66uw1g45g.c ****     return MX66UW1G45G_ERROR;
 981:STM32Cube_FW_N6/Drivers/BSP/Components/mx66uw1g45g/mx66uw1g45g.c ****   }
 982:STM32Cube_FW_N6/Drivers/BSP/Components/mx66uw1g45g/mx66uw1g45g.c **** 
 983:STM32Cube_FW_N6/Drivers/BSP/Components/mx66uw1g45g/mx66uw1g45g.c ****   return MX66UW1G45G_OK;
 984:STM32Cube_FW_N6/Drivers/BSP/Components/mx66uw1g45g/mx66uw1g45g.c **** }
 2145              		.loc 1 984 1 view .LVU723
 2146 0020 15B0     		add	sp, sp, #84
 2147              		.cfi_remember_state
 2148              		.cfi_def_cfa_offset 20
 2149              		@ sp needed
 2150 0022 F0BD     		pop	{r4, r5, r6, r7, pc}
 2151              	.LVL119:
 2152              	.L135:
 2153              		.cfi_restore_state
 940:STM32Cube_FW_N6/Drivers/BSP/Components/mx66uw1g45g/mx66uw1g45g.c ****                                      ? HAL_XSPI_INSTRUCTION_DTR_ENABLE
 2154              		.loc 1 940 3 is_stmt 1 view .LVU724
 2155 0024 0423     		movs	r3, #4
 942:STM32Cube_FW_N6/Drivers/BSP/Components/mx66uw1g45g/mx66uw1g45g.c ****   s_command.InstructionWidth = (Mode == MX66UW1G45G_SPI_MODE)
 2156              		.loc 1 942 38 is_stmt 0 view .LVU725
 2157 0026 611E     		subs	r1, r4, #1
 2158 0028 4A42     		rsbs	r2, r1, #0
 2159 002a 4A41     		adcs	r2, r2, r1
 2160 002c D200     		lsls	r2, r2, #3
 2161              	.L136:
 937:STM32Cube_FW_N6/Drivers/BSP/Components/mx66uw1g45g/mx66uw1g45g.c ****                                   ? HAL_XSPI_INSTRUCTION_1_LINE
 2162              		.loc 1 937 29 view .LVU726
 2163 002e 0493     		str	r3, [sp, #16]
 940:STM32Cube_FW_N6/Drivers/BSP/Components/mx66uw1g45g/mx66uw1g45g.c ****                                      ? HAL_XSPI_INSTRUCTION_DTR_ENABLE
 2164              		.loc 1 940 32 view .LVU727
 2165 0030 0692     		str	r2, [sp, #24]
 943:STM32Cube_FW_N6/Drivers/BSP/Components/mx66uw1g45g/mx66uw1g45g.c ****                                    ? HAL_XSPI_INSTRUCTION_8_BITS
 2166              		.loc 1 943 3 is_stmt 1 view .LVU728
 945:STM32Cube_FW_N6/Drivers/BSP/Components/mx66uw1g45g/mx66uw1g45g.c ****   s_command.Instruction = (Mode == MX66UW1G45G_SPI_MODE)
 2167              		.loc 1 945 36 is_stmt 0 view .LVU729
 2168 0032 002D     		cmp	r5, #0
 2169 0034 39D0     		beq	.L147
 943:STM32Cube_FW_N6/Drivers/BSP/Components/mx66uw1g45g/mx66uw1g45g.c ****                                    ? HAL_XSPI_INSTRUCTION_8_BITS
 2170              		.loc 1 943 30 view .LVU730
 2171 0036 1023     		movs	r3, #16
 2172 0038 40F2FA52 		movw	r2, #1530
 2173 003c 0593     		str	r3, [sp, #20]
 946:STM32Cube_FW_N6/Drivers/BSP/Components/mx66uw1g45g/mx66uw1g45g.c ****                               ? MX66UW1G45G_READ_STATUS_REG_CMD
 2174              		.loc 1 946 3 is_stmt 1 view .LVU731
 949:STM32Cube_FW_N6/Drivers/BSP/Components/mx66uw1g45g/mx66uw1g45g.c ****   s_command.AddressDTRMode = (Rate == MX66UW1G45G_DTR_TRANSFER)
 2175              		.loc 1 949 3 view .LVU732
 949:STM32Cube_FW_N6/Drivers/BSP/Components/mx66uw1g45g/mx66uw1g45g.c ****   s_command.AddressDTRMode = (Rate == MX66UW1G45G_DTR_TRANSFER)
 2176              		.loc 1 949 82 is_stmt 0 discriminator 2 view .LVU733
 2177 003e 4FF48063 		mov	r3, #1024
 2178              	.L138:
 949:STM32Cube_FW_N6/Drivers/BSP/Components/mx66uw1g45g/mx66uw1g45g.c ****   s_command.AddressDTRMode = (Rate == MX66UW1G45G_DTR_TRANSFER)
 2179              		.loc 1 949 25 discriminator 4 view .LVU734
ARM GAS  C:\Users\DJESSOU\AppData\Local\Temp\ccAx4BcF.s 			page 64


 2180 0042 0893     		str	r3, [sp, #32]
 950:STM32Cube_FW_N6/Drivers/BSP/Components/mx66uw1g45g/mx66uw1g45g.c ****                                  ? HAL_XSPI_ADDRESS_DTR_ENABLE
 2181              		.loc 1 950 3 is_stmt 1 view .LVU735
 952:STM32Cube_FW_N6/Drivers/BSP/Components/mx66uw1g45g/mx66uw1g45g.c ****   s_command.AddressWidth = HAL_XSPI_ADDRESS_32_BITS;
 2182              		.loc 1 952 34 is_stmt 0 view .LVU736
 2183 0044 631E     		subs	r3, r4, #1
 946:STM32Cube_FW_N6/Drivers/BSP/Components/mx66uw1g45g/mx66uw1g45g.c ****                               ? MX66UW1G45G_READ_STATUS_REG_CMD
 2184              		.loc 1 946 25 view .LVU737
 2185 0046 0392     		str	r2, [sp, #12]
 952:STM32Cube_FW_N6/Drivers/BSP/Components/mx66uw1g45g/mx66uw1g45g.c ****   s_command.AddressWidth = HAL_XSPI_ADDRESS_32_BITS;
 2186              		.loc 1 952 34 view .LVU738
 2187 0048 5A42     		rsbs	r2, r3, #0
 2188 004a 5A41     		adcs	r2, r2, r3
 2189 004c D302     		lsls	r3, r2, #11
 950:STM32Cube_FW_N6/Drivers/BSP/Components/mx66uw1g45g/mx66uw1g45g.c ****                                  ? HAL_XSPI_ADDRESS_DTR_ENABLE
 2190              		.loc 1 950 28 view .LVU739
 2191 004e 0A93     		str	r3, [sp, #40]
 953:STM32Cube_FW_N6/Drivers/BSP/Components/mx66uw1g45g/mx66uw1g45g.c ****   s_command.Address = 0U;
 2192              		.loc 1 953 3 is_stmt 1 view .LVU740
 953:STM32Cube_FW_N6/Drivers/BSP/Components/mx66uw1g45g/mx66uw1g45g.c ****   s_command.Address = 0U;
 2193              		.loc 1 953 26 is_stmt 0 view .LVU741
 2194 0050 4FF44053 		mov	r3, #12288
 956:STM32Cube_FW_N6/Drivers/BSP/Components/mx66uw1g45g/mx66uw1g45g.c ****   s_command.DataDTRMode = (Rate == MX66UW1G45G_DTR_TRANSFER)
 2195              		.loc 1 956 78 discriminator 1 view .LVU742
 2196 0054 002D     		cmp	r5, #0
 953:STM32Cube_FW_N6/Drivers/BSP/Components/mx66uw1g45g/mx66uw1g45g.c ****   s_command.Address = 0U;
 2197              		.loc 1 953 26 view .LVU743
 2198 0056 0993     		str	r3, [sp, #36]
 954:STM32Cube_FW_N6/Drivers/BSP/Components/mx66uw1g45g/mx66uw1g45g.c ****   s_command.AlternateBytesMode = HAL_XSPI_ALT_BYTES_NONE;
 2199              		.loc 1 954 3 is_stmt 1 view .LVU744
 955:STM32Cube_FW_N6/Drivers/BSP/Components/mx66uw1g45g/mx66uw1g45g.c ****   s_command.DataMode = (Mode == MX66UW1G45G_SPI_MODE) ? HAL_XSPI_DATA_1_LINE : HAL_XSPI_DATA_8_LINE
 2200              		.loc 1 955 3 view .LVU745
 956:STM32Cube_FW_N6/Drivers/BSP/Components/mx66uw1g45g/mx66uw1g45g.c ****   s_command.DataDTRMode = (Rate == MX66UW1G45G_DTR_TRANSFER)
 2201              		.loc 1 956 3 view .LVU746
 956:STM32Cube_FW_N6/Drivers/BSP/Components/mx66uw1g45g/mx66uw1g45g.c ****   s_command.DataDTRMode = (Rate == MX66UW1G45G_DTR_TRANSFER)
 2202              		.loc 1 956 78 is_stmt 0 discriminator 1 view .LVU747
 2203 0058 14BF     		ite	ne
 2204 005a 4FF08063 		movne	r3, #67108864
 2205 005e 4FF08073 		moveq	r3, #16777216
 959:STM32Cube_FW_N6/Drivers/BSP/Components/mx66uw1g45g/mx66uw1g45g.c ****   s_command.DummyCycles = (Mode == MX66UW1G45G_SPI_MODE)
 2206              		.loc 1 959 31 view .LVU748
 2207 0062 4FEAC262 		lsl	r2, r2, #27
 956:STM32Cube_FW_N6/Drivers/BSP/Components/mx66uw1g45g/mx66uw1g45g.c ****   s_command.DataDTRMode = (Rate == MX66UW1G45G_DTR_TRANSFER)
 2208              		.loc 1 956 22 discriminator 4 view .LVU749
 2209 0066 0F93     		str	r3, [sp, #60]
 957:STM32Cube_FW_N6/Drivers/BSP/Components/mx66uw1g45g/mx66uw1g45g.c ****                               ? HAL_XSPI_DATA_DTR_ENABLE
 2210              		.loc 1 957 3 is_stmt 1 view .LVU750
 957:STM32Cube_FW_N6/Drivers/BSP/Components/mx66uw1g45g/mx66uw1g45g.c ****                               ? HAL_XSPI_DATA_DTR_ENABLE
 2211              		.loc 1 957 25 is_stmt 0 view .LVU751
 2212 0068 1192     		str	r2, [sp, #68]
 960:STM32Cube_FW_N6/Drivers/BSP/Components/mx66uw1g45g/mx66uw1g45g.c ****                               ? 0U
 2213              		.loc 1 960 3 is_stmt 1 view .LVU752
 962:STM32Cube_FW_N6/Drivers/BSP/Components/mx66uw1g45g/mx66uw1g45g.c ****                                      ? DUMMY_CYCLES_REG_OCTAL_DTR
 2214              		.loc 1 962 31 is_stmt 0 view .LVU753
 2215 006a 26D0     		beq	.L140
 962:STM32Cube_FW_N6/Drivers/BSP/Components/mx66uw1g45g/mx66uw1g45g.c ****                                      ? DUMMY_CYCLES_REG_OCTAL_DTR
 2216              		.loc 1 962 31 discriminator 1 view .LVU754
ARM GAS  C:\Users\DJESSOU\AppData\Local\Temp\ccAx4BcF.s 			page 65


 2217 006c 012C     		cmp	r4, #1
 2218 006e 1FD1     		bne	.L141
 960:STM32Cube_FW_N6/Drivers/BSP/Components/mx66uw1g45g/mx66uw1g45g.c ****                               ? 0U
 2219              		.loc 1 960 25 view .LVU755
 2220 0070 0523     		movs	r3, #5
 2221 0072 1293     		str	r3, [sp, #72]
 965:STM32Cube_FW_N6/Drivers/BSP/Components/mx66uw1g45g/mx66uw1g45g.c ****   s_command.DQSMode = (Rate == MX66UW1G45G_DTR_TRANSFER) ? HAL_XSPI_DQS_ENABLE : HAL_XSPI_DQS_DISAB
 2222              		.loc 1 965 3 is_stmt 1 view .LVU756
 2223              	.L143:
 965:STM32Cube_FW_N6/Drivers/BSP/Components/mx66uw1g45g/mx66uw1g45g.c ****   s_command.DQSMode = (Rate == MX66UW1G45G_DTR_TRANSFER) ? HAL_XSPI_DQS_ENABLE : HAL_XSPI_DQS_DISAB
 2224              		.loc 1 965 24 is_stmt 0 discriminator 4 view .LVU757
 2225 0074 0222     		movs	r2, #2
 966:STM32Cube_FW_N6/Drivers/BSP/Components/mx66uw1g45g/mx66uw1g45g.c ****  #if defined (XSPI_CCR_SIOO)
 2226              		.loc 1 966 80 discriminator 1 view .LVU758
 2227 0076 4FF00053 		mov	r3, #536870912
 2228              	.L142:
 2229 007a 1092     		str	r2, [sp, #64]
 972:STM32Cube_FW_N6/Drivers/BSP/Components/mx66uw1g45g/mx66uw1g45g.c ****   {
 2230              		.loc 1 972 7 view .LVU759
 2231 007c 3046     		mov	r0, r6
 2232 007e 41F28832 		movw	r2, #5000
 2233 0082 01A9     		add	r1, sp, #4
 966:STM32Cube_FW_N6/Drivers/BSP/Components/mx66uw1g45g/mx66uw1g45g.c ****  #if defined (XSPI_CCR_SIOO)
 2234              		.loc 1 966 21 discriminator 4 view .LVU760
 2235 0084 1393     		str	r3, [sp, #76]
 972:STM32Cube_FW_N6/Drivers/BSP/Components/mx66uw1g45g/mx66uw1g45g.c ****   {
 2236              		.loc 1 972 3 is_stmt 1 view .LVU761
 972:STM32Cube_FW_N6/Drivers/BSP/Components/mx66uw1g45g/mx66uw1g45g.c ****   {
 2237              		.loc 1 972 7 is_stmt 0 view .LVU762
 2238 0086 FFF7FEFF 		bl	HAL_XSPI_Command
 2239              	.LVL120:
 972:STM32Cube_FW_N6/Drivers/BSP/Components/mx66uw1g45g/mx66uw1g45g.c ****   {
 2240              		.loc 1 972 6 discriminator 1 view .LVU763
 2241 008a 0028     		cmp	r0, #0
 2242 008c C6D1     		bne	.L145
 978:STM32Cube_FW_N6/Drivers/BSP/Components/mx66uw1g45g/mx66uw1g45g.c ****   {
 2243              		.loc 1 978 3 is_stmt 1 view .LVU764
 978:STM32Cube_FW_N6/Drivers/BSP/Components/mx66uw1g45g/mx66uw1g45g.c ****   {
 2244              		.loc 1 978 7 is_stmt 0 view .LVU765
 2245 008e 41F28832 		movw	r2, #5000
 2246 0092 3946     		mov	r1, r7
 2247 0094 3046     		mov	r0, r6
 2248 0096 FFF7FEFF 		bl	HAL_XSPI_Receive
 2249              	.LVL121:
 978:STM32Cube_FW_N6/Drivers/BSP/Components/mx66uw1g45g/mx66uw1g45g.c ****   {
 2250              		.loc 1 978 6 discriminator 1 view .LVU766
 2251 009a 0038     		subs	r0, r0, #0
 2252 009c 18BF     		it	ne
 2253 009e 0120     		movne	r0, #1
 2254 00a0 4042     		rsbs	r0, r0, #0
 2255 00a2 BDE7     		b	.L134
 2256              	.L146:
 978:STM32Cube_FW_N6/Drivers/BSP/Components/mx66uw1g45g/mx66uw1g45g.c ****   {
 2257              		.loc 1 978 6 discriminator 1 view .LVU767
 2258 00a4 0123     		movs	r3, #1
 942:STM32Cube_FW_N6/Drivers/BSP/Components/mx66uw1g45g/mx66uw1g45g.c ****   s_command.InstructionWidth = (Mode == MX66UW1G45G_SPI_MODE)
 2259              		.loc 1 942 38 discriminator 2 view .LVU768
ARM GAS  C:\Users\DJESSOU\AppData\Local\Temp\ccAx4BcF.s 			page 66


 2260 00a6 2A46     		mov	r2, r5
 2261 00a8 C1E7     		b	.L136
 2262              	.L147:
 2263 00aa 0522     		movs	r2, #5
 949:STM32Cube_FW_N6/Drivers/BSP/Components/mx66uw1g45g/mx66uw1g45g.c ****   s_command.AddressDTRMode = (Rate == MX66UW1G45G_DTR_TRANSFER)
 2264              		.loc 1 949 82 discriminator 1 view .LVU769
 2265 00ac 2B46     		mov	r3, r5
 2266 00ae C8E7     		b	.L138
 2267              	.L141:
 960:STM32Cube_FW_N6/Drivers/BSP/Components/mx66uw1g45g/mx66uw1g45g.c ****                               ? 0U
 2268              		.loc 1 960 25 view .LVU770
 2269 00b0 0423     		movs	r3, #4
 2270 00b2 1293     		str	r3, [sp, #72]
 965:STM32Cube_FW_N6/Drivers/BSP/Components/mx66uw1g45g/mx66uw1g45g.c ****   s_command.DQSMode = (Rate == MX66UW1G45G_DTR_TRANSFER) ? HAL_XSPI_DQS_ENABLE : HAL_XSPI_DQS_DISAB
 2271              		.loc 1 965 3 is_stmt 1 view .LVU771
 2272              	.L144:
 965:STM32Cube_FW_N6/Drivers/BSP/Components/mx66uw1g45g/mx66uw1g45g.c ****   s_command.DQSMode = (Rate == MX66UW1G45G_DTR_TRANSFER) ? HAL_XSPI_DQS_ENABLE : HAL_XSPI_DQS_DISAB
 2273              		.loc 1 965 24 is_stmt 0 discriminator 4 view .LVU772
 2274 00b4 0122     		movs	r2, #1
 966:STM32Cube_FW_N6/Drivers/BSP/Components/mx66uw1g45g/mx66uw1g45g.c ****  #if defined (XSPI_CCR_SIOO)
 2275              		.loc 1 966 80 discriminator 2 view .LVU773
 2276 00b6 0023     		movs	r3, #0
 2277 00b8 DFE7     		b	.L142
 2278              	.L140:
 965:STM32Cube_FW_N6/Drivers/BSP/Components/mx66uw1g45g/mx66uw1g45g.c ****   s_command.DQSMode = (Rate == MX66UW1G45G_DTR_TRANSFER) ? HAL_XSPI_DQS_ENABLE : HAL_XSPI_DQS_DISAB
 2279              		.loc 1 965 3 is_stmt 1 view .LVU774
 965:STM32Cube_FW_N6/Drivers/BSP/Components/mx66uw1g45g/mx66uw1g45g.c ****   s_command.DQSMode = (Rate == MX66UW1G45G_DTR_TRANSFER) ? HAL_XSPI_DQS_ENABLE : HAL_XSPI_DQS_DISAB
 2280              		.loc 1 965 66 is_stmt 0 view .LVU775
 2281 00ba 012C     		cmp	r4, #1
 2282 00bc FAD1     		bne	.L144
 2283 00be D9E7     		b	.L143
 2284              		.cfi_endproc
 2285              	.LFE876:
 2287              		.section	.text.MX66UW1G45G_WriteCfgRegister,"ax",%progbits
 2288              		.align	1
 2289              		.global	MX66UW1G45G_WriteCfgRegister
 2290              		.syntax unified
 2291              		.thumb
 2292              		.thumb_func
 2294              	MX66UW1G45G_WriteCfgRegister:
 2295              	.LVL122:
 2296              	.LFB878:
 985:STM32Cube_FW_N6/Drivers/BSP/Components/mx66uw1g45g/mx66uw1g45g.c **** 
 986:STM32Cube_FW_N6/Drivers/BSP/Components/mx66uw1g45g/mx66uw1g45g.c **** /**
 987:STM32Cube_FW_N6/Drivers/BSP/Components/mx66uw1g45g/mx66uw1g45g.c ****   * @brief  Write Flash Status register
 988:STM32Cube_FW_N6/Drivers/BSP/Components/mx66uw1g45g/mx66uw1g45g.c ****   *         SPI/OPI
 989:STM32Cube_FW_N6/Drivers/BSP/Components/mx66uw1g45g/mx66uw1g45g.c ****   * @param  Ctx Component object pointer
 990:STM32Cube_FW_N6/Drivers/BSP/Components/mx66uw1g45g/mx66uw1g45g.c ****   * @param  Mode Interface mode
 991:STM32Cube_FW_N6/Drivers/BSP/Components/mx66uw1g45g/mx66uw1g45g.c ****   * @param  Rate Transfer rate STR or DTR
 992:STM32Cube_FW_N6/Drivers/BSP/Components/mx66uw1g45g/mx66uw1g45g.c ****   * @param  Value Value to write to Status register
 993:STM32Cube_FW_N6/Drivers/BSP/Components/mx66uw1g45g/mx66uw1g45g.c ****   * @retval error status
 994:STM32Cube_FW_N6/Drivers/BSP/Components/mx66uw1g45g/mx66uw1g45g.c ****   */
 995:STM32Cube_FW_N6/Drivers/BSP/Components/mx66uw1g45g/mx66uw1g45g.c **** int32_t MX66UW1G45G_WriteStatusRegister(XSPI_HandleTypeDef *Ctx, MX66UW1G45G_Interface_t Mode,
 996:STM32Cube_FW_N6/Drivers/BSP/Components/mx66uw1g45g/mx66uw1g45g.c ****                                         MX66UW1G45G_Transfer_t Rate, uint8_t Value)
 997:STM32Cube_FW_N6/Drivers/BSP/Components/mx66uw1g45g/mx66uw1g45g.c **** {
 998:STM32Cube_FW_N6/Drivers/BSP/Components/mx66uw1g45g/mx66uw1g45g.c ****   XSPI_RegularCmdTypeDef s_command = {0};
 999:STM32Cube_FW_N6/Drivers/BSP/Components/mx66uw1g45g/mx66uw1g45g.c ****   uint8_t reg[2];
ARM GAS  C:\Users\DJESSOU\AppData\Local\Temp\ccAx4BcF.s 			page 67


1000:STM32Cube_FW_N6/Drivers/BSP/Components/mx66uw1g45g/mx66uw1g45g.c **** 
1001:STM32Cube_FW_N6/Drivers/BSP/Components/mx66uw1g45g/mx66uw1g45g.c ****   /* SPI mode and DTR transfer not supported by memory */
1002:STM32Cube_FW_N6/Drivers/BSP/Components/mx66uw1g45g/mx66uw1g45g.c ****   if ((Mode == MX66UW1G45G_SPI_MODE) && (Rate == MX66UW1G45G_DTR_TRANSFER))
1003:STM32Cube_FW_N6/Drivers/BSP/Components/mx66uw1g45g/mx66uw1g45g.c ****   {
1004:STM32Cube_FW_N6/Drivers/BSP/Components/mx66uw1g45g/mx66uw1g45g.c ****     return MX66UW1G45G_ERROR;
1005:STM32Cube_FW_N6/Drivers/BSP/Components/mx66uw1g45g/mx66uw1g45g.c ****   }
1006:STM32Cube_FW_N6/Drivers/BSP/Components/mx66uw1g45g/mx66uw1g45g.c **** 
1007:STM32Cube_FW_N6/Drivers/BSP/Components/mx66uw1g45g/mx66uw1g45g.c ****   /* In SPI mode, the status register is configured with configuration register */
1008:STM32Cube_FW_N6/Drivers/BSP/Components/mx66uw1g45g/mx66uw1g45g.c ****   if (Mode == MX66UW1G45G_SPI_MODE)
1009:STM32Cube_FW_N6/Drivers/BSP/Components/mx66uw1g45g/mx66uw1g45g.c ****   {
1010:STM32Cube_FW_N6/Drivers/BSP/Components/mx66uw1g45g/mx66uw1g45g.c ****     if (MX66UW1G45G_ReadCfgRegister(Ctx, Mode, Rate, &reg[1]) != MX66UW1G45G_OK)
1011:STM32Cube_FW_N6/Drivers/BSP/Components/mx66uw1g45g/mx66uw1g45g.c ****     {
1012:STM32Cube_FW_N6/Drivers/BSP/Components/mx66uw1g45g/mx66uw1g45g.c ****       return MX66UW1G45G_ERROR;
1013:STM32Cube_FW_N6/Drivers/BSP/Components/mx66uw1g45g/mx66uw1g45g.c ****     }
1014:STM32Cube_FW_N6/Drivers/BSP/Components/mx66uw1g45g/mx66uw1g45g.c ****   }
1015:STM32Cube_FW_N6/Drivers/BSP/Components/mx66uw1g45g/mx66uw1g45g.c ****   reg[0] = Value;
1016:STM32Cube_FW_N6/Drivers/BSP/Components/mx66uw1g45g/mx66uw1g45g.c **** 
1017:STM32Cube_FW_N6/Drivers/BSP/Components/mx66uw1g45g/mx66uw1g45g.c ****   /* Initialize the writing of status register */
1018:STM32Cube_FW_N6/Drivers/BSP/Components/mx66uw1g45g/mx66uw1g45g.c ****   s_command.OperationType = HAL_XSPI_OPTYPE_COMMON_CFG;
1019:STM32Cube_FW_N6/Drivers/BSP/Components/mx66uw1g45g/mx66uw1g45g.c ****   s_command.InstructionMode = (Mode == MX66UW1G45G_SPI_MODE)
1020:STM32Cube_FW_N6/Drivers/BSP/Components/mx66uw1g45g/mx66uw1g45g.c ****                                   ? HAL_XSPI_INSTRUCTION_1_LINE
1021:STM32Cube_FW_N6/Drivers/BSP/Components/mx66uw1g45g/mx66uw1g45g.c ****                                   : HAL_XSPI_INSTRUCTION_8_LINES;
1022:STM32Cube_FW_N6/Drivers/BSP/Components/mx66uw1g45g/mx66uw1g45g.c ****   s_command.InstructionDTRMode = (Rate == MX66UW1G45G_DTR_TRANSFER)
1023:STM32Cube_FW_N6/Drivers/BSP/Components/mx66uw1g45g/mx66uw1g45g.c ****                                      ? HAL_XSPI_INSTRUCTION_DTR_ENABLE
1024:STM32Cube_FW_N6/Drivers/BSP/Components/mx66uw1g45g/mx66uw1g45g.c ****                                      : HAL_XSPI_INSTRUCTION_DTR_DISABLE;
1025:STM32Cube_FW_N6/Drivers/BSP/Components/mx66uw1g45g/mx66uw1g45g.c ****   s_command.InstructionWidth = (Mode == MX66UW1G45G_SPI_MODE)
1026:STM32Cube_FW_N6/Drivers/BSP/Components/mx66uw1g45g/mx66uw1g45g.c ****                                    ? HAL_XSPI_INSTRUCTION_8_BITS
1027:STM32Cube_FW_N6/Drivers/BSP/Components/mx66uw1g45g/mx66uw1g45g.c ****                                    : HAL_XSPI_INSTRUCTION_16_BITS;
1028:STM32Cube_FW_N6/Drivers/BSP/Components/mx66uw1g45g/mx66uw1g45g.c ****   s_command.Instruction = (Mode == MX66UW1G45G_SPI_MODE)
1029:STM32Cube_FW_N6/Drivers/BSP/Components/mx66uw1g45g/mx66uw1g45g.c ****                               ? MX66UW1G45G_WRITE_STATUS_REG_CMD
1030:STM32Cube_FW_N6/Drivers/BSP/Components/mx66uw1g45g/mx66uw1g45g.c ****                               : MX66UW1G45G_OCTA_WRITE_STATUS_REG_CMD;
1031:STM32Cube_FW_N6/Drivers/BSP/Components/mx66uw1g45g/mx66uw1g45g.c ****   s_command.AddressMode = (Mode == MX66UW1G45G_SPI_MODE) ? HAL_XSPI_ADDRESS_NONE : HAL_XSPI_ADDRESS
1032:STM32Cube_FW_N6/Drivers/BSP/Components/mx66uw1g45g/mx66uw1g45g.c ****   s_command.AddressDTRMode = (Rate == MX66UW1G45G_DTR_TRANSFER)
1033:STM32Cube_FW_N6/Drivers/BSP/Components/mx66uw1g45g/mx66uw1g45g.c ****                                  ? HAL_XSPI_ADDRESS_DTR_ENABLE
1034:STM32Cube_FW_N6/Drivers/BSP/Components/mx66uw1g45g/mx66uw1g45g.c ****                                  : HAL_XSPI_ADDRESS_DTR_DISABLE;
1035:STM32Cube_FW_N6/Drivers/BSP/Components/mx66uw1g45g/mx66uw1g45g.c ****   s_command.AddressWidth = HAL_XSPI_ADDRESS_32_BITS;
1036:STM32Cube_FW_N6/Drivers/BSP/Components/mx66uw1g45g/mx66uw1g45g.c ****   s_command.Address = 0U;
1037:STM32Cube_FW_N6/Drivers/BSP/Components/mx66uw1g45g/mx66uw1g45g.c ****   s_command.AlternateBytesMode = HAL_XSPI_ALT_BYTES_NONE;
1038:STM32Cube_FW_N6/Drivers/BSP/Components/mx66uw1g45g/mx66uw1g45g.c ****   s_command.DataMode = (Mode == MX66UW1G45G_SPI_MODE) ? HAL_XSPI_DATA_1_LINE : HAL_XSPI_DATA_8_LINE
1039:STM32Cube_FW_N6/Drivers/BSP/Components/mx66uw1g45g/mx66uw1g45g.c ****   s_command.DataDTRMode = (Rate == MX66UW1G45G_DTR_TRANSFER)
1040:STM32Cube_FW_N6/Drivers/BSP/Components/mx66uw1g45g/mx66uw1g45g.c ****                               ? HAL_XSPI_DATA_DTR_ENABLE
1041:STM32Cube_FW_N6/Drivers/BSP/Components/mx66uw1g45g/mx66uw1g45g.c ****                               : HAL_XSPI_DATA_DTR_DISABLE;
1042:STM32Cube_FW_N6/Drivers/BSP/Components/mx66uw1g45g/mx66uw1g45g.c ****   s_command.DummyCycles = 0U;
1043:STM32Cube_FW_N6/Drivers/BSP/Components/mx66uw1g45g/mx66uw1g45g.c ****   s_command.DataLength = (Mode == MX66UW1G45G_SPI_MODE) ? 2U : ((Rate == MX66UW1G45G_DTR_TRANSFER) 
1044:STM32Cube_FW_N6/Drivers/BSP/Components/mx66uw1g45g/mx66uw1g45g.c ****   s_command.DQSMode = HAL_XSPI_DQS_DISABLE;
1045:STM32Cube_FW_N6/Drivers/BSP/Components/mx66uw1g45g/mx66uw1g45g.c ****  #if defined (XSPI_CCR_SIOO)
1046:STM32Cube_FW_N6/Drivers/BSP/Components/mx66uw1g45g/mx66uw1g45g.c ****   s_command.SIOOMode            = HAL_XSPI_SIOO_INST_EVERY_CMD;
1047:STM32Cube_FW_N6/Drivers/BSP/Components/mx66uw1g45g/mx66uw1g45g.c ****  #endif
1048:STM32Cube_FW_N6/Drivers/BSP/Components/mx66uw1g45g/mx66uw1g45g.c **** 
1049:STM32Cube_FW_N6/Drivers/BSP/Components/mx66uw1g45g/mx66uw1g45g.c ****   /* Send the command */
1050:STM32Cube_FW_N6/Drivers/BSP/Components/mx66uw1g45g/mx66uw1g45g.c ****   if (HAL_XSPI_Command(Ctx, &s_command, HAL_XSPI_TIMEOUT_DEFAULT_VALUE) != HAL_OK)
1051:STM32Cube_FW_N6/Drivers/BSP/Components/mx66uw1g45g/mx66uw1g45g.c ****   {
1052:STM32Cube_FW_N6/Drivers/BSP/Components/mx66uw1g45g/mx66uw1g45g.c ****     return MX66UW1G45G_ERROR;
1053:STM32Cube_FW_N6/Drivers/BSP/Components/mx66uw1g45g/mx66uw1g45g.c ****   }
1054:STM32Cube_FW_N6/Drivers/BSP/Components/mx66uw1g45g/mx66uw1g45g.c **** 
1055:STM32Cube_FW_N6/Drivers/BSP/Components/mx66uw1g45g/mx66uw1g45g.c ****   if (HAL_XSPI_Transmit(Ctx, reg, HAL_XSPI_TIMEOUT_DEFAULT_VALUE) != HAL_OK)
1056:STM32Cube_FW_N6/Drivers/BSP/Components/mx66uw1g45g/mx66uw1g45g.c ****   {
ARM GAS  C:\Users\DJESSOU\AppData\Local\Temp\ccAx4BcF.s 			page 68


1057:STM32Cube_FW_N6/Drivers/BSP/Components/mx66uw1g45g/mx66uw1g45g.c ****     return MX66UW1G45G_ERROR;
1058:STM32Cube_FW_N6/Drivers/BSP/Components/mx66uw1g45g/mx66uw1g45g.c ****   }
1059:STM32Cube_FW_N6/Drivers/BSP/Components/mx66uw1g45g/mx66uw1g45g.c **** 
1060:STM32Cube_FW_N6/Drivers/BSP/Components/mx66uw1g45g/mx66uw1g45g.c ****   return MX66UW1G45G_OK;
1061:STM32Cube_FW_N6/Drivers/BSP/Components/mx66uw1g45g/mx66uw1g45g.c **** }
1062:STM32Cube_FW_N6/Drivers/BSP/Components/mx66uw1g45g/mx66uw1g45g.c **** 
1063:STM32Cube_FW_N6/Drivers/BSP/Components/mx66uw1g45g/mx66uw1g45g.c **** /**
1064:STM32Cube_FW_N6/Drivers/BSP/Components/mx66uw1g45g/mx66uw1g45g.c ****   * @brief  Write Flash configuration register
1065:STM32Cube_FW_N6/Drivers/BSP/Components/mx66uw1g45g/mx66uw1g45g.c ****   *         SPI/OPI
1066:STM32Cube_FW_N6/Drivers/BSP/Components/mx66uw1g45g/mx66uw1g45g.c ****   * @param  Ctx Component object pointer
1067:STM32Cube_FW_N6/Drivers/BSP/Components/mx66uw1g45g/mx66uw1g45g.c ****   * @param  Mode Interface mode
1068:STM32Cube_FW_N6/Drivers/BSP/Components/mx66uw1g45g/mx66uw1g45g.c ****   * @param  Rate Transfer rate STR or DTR
1069:STM32Cube_FW_N6/Drivers/BSP/Components/mx66uw1g45g/mx66uw1g45g.c ****   * @param  Value Value to write to configuration register
1070:STM32Cube_FW_N6/Drivers/BSP/Components/mx66uw1g45g/mx66uw1g45g.c ****   * @retval error status
1071:STM32Cube_FW_N6/Drivers/BSP/Components/mx66uw1g45g/mx66uw1g45g.c ****   */
1072:STM32Cube_FW_N6/Drivers/BSP/Components/mx66uw1g45g/mx66uw1g45g.c **** int32_t MX66UW1G45G_WriteCfgRegister(XSPI_HandleTypeDef *Ctx, MX66UW1G45G_Interface_t Mode,
1073:STM32Cube_FW_N6/Drivers/BSP/Components/mx66uw1g45g/mx66uw1g45g.c ****                                      MX66UW1G45G_Transfer_t Rate, uint8_t Value)
1074:STM32Cube_FW_N6/Drivers/BSP/Components/mx66uw1g45g/mx66uw1g45g.c **** {
 2297              		.loc 1 1074 1 is_stmt 1 view -0
 2298              		.cfi_startproc
 2299              		@ args = 0, pretend = 0, frame = 80
 2300              		@ frame_needed = 0, uses_anonymous_args = 0
1075:STM32Cube_FW_N6/Drivers/BSP/Components/mx66uw1g45g/mx66uw1g45g.c ****   XSPI_RegularCmdTypeDef s_command = {0};
 2301              		.loc 1 1075 3 view .LVU777
1074:STM32Cube_FW_N6/Drivers/BSP/Components/mx66uw1g45g/mx66uw1g45g.c ****   XSPI_RegularCmdTypeDef s_command = {0};
 2302              		.loc 1 1074 1 is_stmt 0 view .LVU778
 2303 0000 F0B5     		push	{r4, r5, r6, r7, lr}
 2304              		.cfi_def_cfa_offset 20
 2305              		.cfi_offset 4, -20
 2306              		.cfi_offset 5, -16
 2307              		.cfi_offset 6, -12
 2308              		.cfi_offset 7, -8
 2309              		.cfi_offset 14, -4
 2310 0002 0C46     		mov	r4, r1
 2311 0004 95B0     		sub	sp, sp, #84
 2312              		.cfi_def_cfa_offset 104
1074:STM32Cube_FW_N6/Drivers/BSP/Components/mx66uw1g45g/mx66uw1g45g.c ****   XSPI_RegularCmdTypeDef s_command = {0};
 2313              		.loc 1 1074 1 view .LVU779
 2314 0006 0646     		mov	r6, r0
 2315 0008 1546     		mov	r5, r2
 2316              		.loc 1 1075 26 view .LVU780
 2317 000a 0021     		movs	r1, #0
 2318              	.LVL123:
 2319              		.loc 1 1075 26 view .LVU781
 2320 000c 4C22     		movs	r2, #76
 2321              	.LVL124:
 2322              		.loc 1 1075 26 view .LVU782
 2323 000e 01A8     		add	r0, sp, #4
 2324              	.LVL125:
1074:STM32Cube_FW_N6/Drivers/BSP/Components/mx66uw1g45g/mx66uw1g45g.c ****   XSPI_RegularCmdTypeDef s_command = {0};
 2325              		.loc 1 1074 1 view .LVU783
 2326 0010 1F46     		mov	r7, r3
 2327              		.loc 1 1075 26 view .LVU784
 2328 0012 FFF7FEFF 		bl	memset
 2329              	.LVL126:
1076:STM32Cube_FW_N6/Drivers/BSP/Components/mx66uw1g45g/mx66uw1g45g.c ****   uint8_t reg[2];
 2330              		.loc 1 1076 3 is_stmt 1 view .LVU785
ARM GAS  C:\Users\DJESSOU\AppData\Local\Temp\ccAx4BcF.s 			page 69


1077:STM32Cube_FW_N6/Drivers/BSP/Components/mx66uw1g45g/mx66uw1g45g.c **** 
1078:STM32Cube_FW_N6/Drivers/BSP/Components/mx66uw1g45g/mx66uw1g45g.c ****   /* SPI mode and DTR transfer not supported by memory */
1079:STM32Cube_FW_N6/Drivers/BSP/Components/mx66uw1g45g/mx66uw1g45g.c ****   if ((Mode == MX66UW1G45G_SPI_MODE) && (Rate == MX66UW1G45G_DTR_TRANSFER))
 2331              		.loc 1 1079 3 view .LVU786
 2332              		.loc 1 1079 6 is_stmt 0 view .LVU787
 2333 0016 002C     		cmp	r4, #0
 2334 0018 59D1     		bne	.L153
 2335              		.loc 1 1079 38 discriminator 1 view .LVU788
 2336 001a 012D     		cmp	r5, #1
 2337 001c 03D1     		bne	.L154
 2338              	.LVL127:
 2339              	.L156:
1080:STM32Cube_FW_N6/Drivers/BSP/Components/mx66uw1g45g/mx66uw1g45g.c ****   {
1081:STM32Cube_FW_N6/Drivers/BSP/Components/mx66uw1g45g/mx66uw1g45g.c ****     return MX66UW1G45G_ERROR;
 2340              		.loc 1 1081 12 view .LVU789
 2341 001e 4FF0FF30 		mov	r0, #-1
 2342              	.L152:
1082:STM32Cube_FW_N6/Drivers/BSP/Components/mx66uw1g45g/mx66uw1g45g.c ****   }
1083:STM32Cube_FW_N6/Drivers/BSP/Components/mx66uw1g45g/mx66uw1g45g.c **** 
1084:STM32Cube_FW_N6/Drivers/BSP/Components/mx66uw1g45g/mx66uw1g45g.c ****   /* In SPI mode, the configuration register is configured with status register */
1085:STM32Cube_FW_N6/Drivers/BSP/Components/mx66uw1g45g/mx66uw1g45g.c ****   if (Mode == MX66UW1G45G_SPI_MODE)
1086:STM32Cube_FW_N6/Drivers/BSP/Components/mx66uw1g45g/mx66uw1g45g.c ****   {
1087:STM32Cube_FW_N6/Drivers/BSP/Components/mx66uw1g45g/mx66uw1g45g.c ****     if (MX66UW1G45G_ReadStatusRegister(Ctx, Mode, Rate, &reg[0]) != MX66UW1G45G_OK)
1088:STM32Cube_FW_N6/Drivers/BSP/Components/mx66uw1g45g/mx66uw1g45g.c ****     {
1089:STM32Cube_FW_N6/Drivers/BSP/Components/mx66uw1g45g/mx66uw1g45g.c ****       return MX66UW1G45G_ERROR;
1090:STM32Cube_FW_N6/Drivers/BSP/Components/mx66uw1g45g/mx66uw1g45g.c ****     }
1091:STM32Cube_FW_N6/Drivers/BSP/Components/mx66uw1g45g/mx66uw1g45g.c ****     reg[1] = Value;
1092:STM32Cube_FW_N6/Drivers/BSP/Components/mx66uw1g45g/mx66uw1g45g.c ****   }
1093:STM32Cube_FW_N6/Drivers/BSP/Components/mx66uw1g45g/mx66uw1g45g.c ****   else
1094:STM32Cube_FW_N6/Drivers/BSP/Components/mx66uw1g45g/mx66uw1g45g.c ****   {
1095:STM32Cube_FW_N6/Drivers/BSP/Components/mx66uw1g45g/mx66uw1g45g.c ****     reg[0] = Value;
1096:STM32Cube_FW_N6/Drivers/BSP/Components/mx66uw1g45g/mx66uw1g45g.c ****   }
1097:STM32Cube_FW_N6/Drivers/BSP/Components/mx66uw1g45g/mx66uw1g45g.c **** 
1098:STM32Cube_FW_N6/Drivers/BSP/Components/mx66uw1g45g/mx66uw1g45g.c ****   /* Initialize the writing of configuration register */
1099:STM32Cube_FW_N6/Drivers/BSP/Components/mx66uw1g45g/mx66uw1g45g.c ****   s_command.OperationType = HAL_XSPI_OPTYPE_COMMON_CFG;
1100:STM32Cube_FW_N6/Drivers/BSP/Components/mx66uw1g45g/mx66uw1g45g.c ****   s_command.InstructionMode = (Mode == MX66UW1G45G_SPI_MODE)
1101:STM32Cube_FW_N6/Drivers/BSP/Components/mx66uw1g45g/mx66uw1g45g.c ****                                   ? HAL_XSPI_INSTRUCTION_1_LINE
1102:STM32Cube_FW_N6/Drivers/BSP/Components/mx66uw1g45g/mx66uw1g45g.c ****                                   : HAL_XSPI_INSTRUCTION_8_LINES;
1103:STM32Cube_FW_N6/Drivers/BSP/Components/mx66uw1g45g/mx66uw1g45g.c ****   s_command.InstructionDTRMode = (Rate == MX66UW1G45G_DTR_TRANSFER)
1104:STM32Cube_FW_N6/Drivers/BSP/Components/mx66uw1g45g/mx66uw1g45g.c ****                                      ? HAL_XSPI_INSTRUCTION_DTR_ENABLE
1105:STM32Cube_FW_N6/Drivers/BSP/Components/mx66uw1g45g/mx66uw1g45g.c ****                                      : HAL_XSPI_INSTRUCTION_DTR_DISABLE;
1106:STM32Cube_FW_N6/Drivers/BSP/Components/mx66uw1g45g/mx66uw1g45g.c ****   s_command.InstructionWidth = (Mode == MX66UW1G45G_SPI_MODE)
1107:STM32Cube_FW_N6/Drivers/BSP/Components/mx66uw1g45g/mx66uw1g45g.c ****                                    ? HAL_XSPI_INSTRUCTION_8_BITS
1108:STM32Cube_FW_N6/Drivers/BSP/Components/mx66uw1g45g/mx66uw1g45g.c ****                                    : HAL_XSPI_INSTRUCTION_16_BITS;
1109:STM32Cube_FW_N6/Drivers/BSP/Components/mx66uw1g45g/mx66uw1g45g.c ****   s_command.Instruction = (Mode == MX66UW1G45G_SPI_MODE)
1110:STM32Cube_FW_N6/Drivers/BSP/Components/mx66uw1g45g/mx66uw1g45g.c ****                               ? MX66UW1G45G_WRITE_STATUS_REG_CMD
1111:STM32Cube_FW_N6/Drivers/BSP/Components/mx66uw1g45g/mx66uw1g45g.c ****                               : MX66UW1G45G_OCTA_WRITE_STATUS_REG_CMD;
1112:STM32Cube_FW_N6/Drivers/BSP/Components/mx66uw1g45g/mx66uw1g45g.c ****   s_command.AddressMode = (Mode == MX66UW1G45G_SPI_MODE) ? HAL_XSPI_ADDRESS_NONE : HAL_XSPI_ADDRESS
1113:STM32Cube_FW_N6/Drivers/BSP/Components/mx66uw1g45g/mx66uw1g45g.c ****   s_command.AddressDTRMode = (Rate == MX66UW1G45G_DTR_TRANSFER)
1114:STM32Cube_FW_N6/Drivers/BSP/Components/mx66uw1g45g/mx66uw1g45g.c ****                                  ? HAL_XSPI_ADDRESS_DTR_ENABLE
1115:STM32Cube_FW_N6/Drivers/BSP/Components/mx66uw1g45g/mx66uw1g45g.c ****                                  : HAL_XSPI_ADDRESS_DTR_DISABLE;
1116:STM32Cube_FW_N6/Drivers/BSP/Components/mx66uw1g45g/mx66uw1g45g.c ****   s_command.AddressWidth = HAL_XSPI_ADDRESS_32_BITS;
1117:STM32Cube_FW_N6/Drivers/BSP/Components/mx66uw1g45g/mx66uw1g45g.c ****   s_command.Address = 1U;
1118:STM32Cube_FW_N6/Drivers/BSP/Components/mx66uw1g45g/mx66uw1g45g.c ****   s_command.AlternateBytesMode = HAL_XSPI_ALT_BYTES_NONE;
1119:STM32Cube_FW_N6/Drivers/BSP/Components/mx66uw1g45g/mx66uw1g45g.c ****   s_command.DataMode = (Mode == MX66UW1G45G_SPI_MODE) ? HAL_XSPI_DATA_1_LINE : HAL_XSPI_DATA_8_LINE
1120:STM32Cube_FW_N6/Drivers/BSP/Components/mx66uw1g45g/mx66uw1g45g.c ****   s_command.DataDTRMode = (Rate == MX66UW1G45G_DTR_TRANSFER)
1121:STM32Cube_FW_N6/Drivers/BSP/Components/mx66uw1g45g/mx66uw1g45g.c ****                               ? HAL_XSPI_DATA_DTR_ENABLE
ARM GAS  C:\Users\DJESSOU\AppData\Local\Temp\ccAx4BcF.s 			page 70


1122:STM32Cube_FW_N6/Drivers/BSP/Components/mx66uw1g45g/mx66uw1g45g.c ****                               : HAL_XSPI_DATA_DTR_DISABLE;
1123:STM32Cube_FW_N6/Drivers/BSP/Components/mx66uw1g45g/mx66uw1g45g.c ****   s_command.DummyCycles = 0U;
1124:STM32Cube_FW_N6/Drivers/BSP/Components/mx66uw1g45g/mx66uw1g45g.c ****   s_command.DataLength = (Mode == MX66UW1G45G_SPI_MODE) ? 2U : ((Rate == MX66UW1G45G_DTR_TRANSFER) 
1125:STM32Cube_FW_N6/Drivers/BSP/Components/mx66uw1g45g/mx66uw1g45g.c ****   s_command.DQSMode = HAL_XSPI_DQS_DISABLE;
1126:STM32Cube_FW_N6/Drivers/BSP/Components/mx66uw1g45g/mx66uw1g45g.c ****  #if defined (XSPI_CCR_SIOO)
1127:STM32Cube_FW_N6/Drivers/BSP/Components/mx66uw1g45g/mx66uw1g45g.c ****   s_command.SIOOMode            = HAL_XSPI_SIOO_INST_EVERY_CMD;
1128:STM32Cube_FW_N6/Drivers/BSP/Components/mx66uw1g45g/mx66uw1g45g.c ****  #endif
1129:STM32Cube_FW_N6/Drivers/BSP/Components/mx66uw1g45g/mx66uw1g45g.c **** 
1130:STM32Cube_FW_N6/Drivers/BSP/Components/mx66uw1g45g/mx66uw1g45g.c ****   /* Send the command */
1131:STM32Cube_FW_N6/Drivers/BSP/Components/mx66uw1g45g/mx66uw1g45g.c ****   if (HAL_XSPI_Command(Ctx, &s_command, HAL_XSPI_TIMEOUT_DEFAULT_VALUE) != HAL_OK)
1132:STM32Cube_FW_N6/Drivers/BSP/Components/mx66uw1g45g/mx66uw1g45g.c ****   {
1133:STM32Cube_FW_N6/Drivers/BSP/Components/mx66uw1g45g/mx66uw1g45g.c ****     return MX66UW1G45G_ERROR;
1134:STM32Cube_FW_N6/Drivers/BSP/Components/mx66uw1g45g/mx66uw1g45g.c ****   }
1135:STM32Cube_FW_N6/Drivers/BSP/Components/mx66uw1g45g/mx66uw1g45g.c **** 
1136:STM32Cube_FW_N6/Drivers/BSP/Components/mx66uw1g45g/mx66uw1g45g.c ****   if (HAL_XSPI_Transmit(Ctx, reg, HAL_XSPI_TIMEOUT_DEFAULT_VALUE) != HAL_OK)
1137:STM32Cube_FW_N6/Drivers/BSP/Components/mx66uw1g45g/mx66uw1g45g.c ****   {
1138:STM32Cube_FW_N6/Drivers/BSP/Components/mx66uw1g45g/mx66uw1g45g.c ****     return MX66UW1G45G_ERROR;
1139:STM32Cube_FW_N6/Drivers/BSP/Components/mx66uw1g45g/mx66uw1g45g.c ****   }
1140:STM32Cube_FW_N6/Drivers/BSP/Components/mx66uw1g45g/mx66uw1g45g.c **** 
1141:STM32Cube_FW_N6/Drivers/BSP/Components/mx66uw1g45g/mx66uw1g45g.c ****   return MX66UW1G45G_OK;
1142:STM32Cube_FW_N6/Drivers/BSP/Components/mx66uw1g45g/mx66uw1g45g.c **** }
 2343              		.loc 1 1142 1 view .LVU790
 2344 0022 15B0     		add	sp, sp, #84
 2345              		.cfi_remember_state
 2346              		.cfi_def_cfa_offset 20
 2347              		@ sp needed
 2348 0024 F0BD     		pop	{r4, r5, r6, r7, pc}
 2349              	.LVL128:
 2350              	.L154:
 2351              		.cfi_restore_state
1085:STM32Cube_FW_N6/Drivers/BSP/Components/mx66uw1g45g/mx66uw1g45g.c ****   {
 2352              		.loc 1 1085 3 is_stmt 1 view .LVU791
1087:STM32Cube_FW_N6/Drivers/BSP/Components/mx66uw1g45g/mx66uw1g45g.c ****     {
 2353              		.loc 1 1087 5 view .LVU792
1087:STM32Cube_FW_N6/Drivers/BSP/Components/mx66uw1g45g/mx66uw1g45g.c ****     {
 2354              		.loc 1 1087 9 is_stmt 0 view .LVU793
 2355 0026 6B46     		mov	r3, sp
 2356 0028 2A46     		mov	r2, r5
 2357 002a 2146     		mov	r1, r4
 2358 002c 3046     		mov	r0, r6
 2359 002e FFF7FEFF 		bl	MX66UW1G45G_ReadStatusRegister
 2360              	.LVL129:
1087:STM32Cube_FW_N6/Drivers/BSP/Components/mx66uw1g45g/mx66uw1g45g.c ****     {
 2361              		.loc 1 1087 8 discriminator 1 view .LVU794
 2362 0032 0028     		cmp	r0, #0
 2363 0034 F3D1     		bne	.L156
1091:STM32Cube_FW_N6/Drivers/BSP/Components/mx66uw1g45g/mx66uw1g45g.c ****   }
 2364              		.loc 1 1091 5 is_stmt 1 view .LVU795
1102:STM32Cube_FW_N6/Drivers/BSP/Components/mx66uw1g45g/mx66uw1g45g.c ****   s_command.InstructionDTRMode = (Rate == MX66UW1G45G_DTR_TRANSFER)
 2365              		.loc 1 1102 35 is_stmt 0 discriminator 1 view .LVU796
 2366 0036 0122     		movs	r2, #1
1091:STM32Cube_FW_N6/Drivers/BSP/Components/mx66uw1g45g/mx66uw1g45g.c ****   }
 2367              		.loc 1 1091 12 view .LVU797
 2368 0038 8DF80170 		strb	r7, [sp, #1]
1099:STM32Cube_FW_N6/Drivers/BSP/Components/mx66uw1g45g/mx66uw1g45g.c ****   s_command.InstructionMode = (Mode == MX66UW1G45G_SPI_MODE)
 2369              		.loc 1 1099 3 is_stmt 1 view .LVU798
1099:STM32Cube_FW_N6/Drivers/BSP/Components/mx66uw1g45g/mx66uw1g45g.c ****   s_command.InstructionMode = (Mode == MX66UW1G45G_SPI_MODE)
ARM GAS  C:\Users\DJESSOU\AppData\Local\Temp\ccAx4BcF.s 			page 71


 2370              		.loc 1 1099 27 is_stmt 0 view .LVU799
 2371 003c 0194     		str	r4, [sp, #4]
1100:STM32Cube_FW_N6/Drivers/BSP/Components/mx66uw1g45g/mx66uw1g45g.c ****                                   ? HAL_XSPI_INSTRUCTION_1_LINE
 2372              		.loc 1 1100 3 is_stmt 1 view .LVU800
 2373              	.L157:
1103:STM32Cube_FW_N6/Drivers/BSP/Components/mx66uw1g45g/mx66uw1g45g.c ****                                      ? HAL_XSPI_INSTRUCTION_DTR_ENABLE
 2374              		.loc 1 1103 3 view .LVU801
1105:STM32Cube_FW_N6/Drivers/BSP/Components/mx66uw1g45g/mx66uw1g45g.c ****   s_command.InstructionWidth = (Mode == MX66UW1G45G_SPI_MODE)
 2375              		.loc 1 1105 38 is_stmt 0 view .LVU802
 2376 003e 05F1FF3C 		add	ip, r5, #-1
 2377 0042 DCF10003 		rsbs	r3, ip, #0
 2378 0046 43EB0C03 		adc	r3, r3, ip
1100:STM32Cube_FW_N6/Drivers/BSP/Components/mx66uw1g45g/mx66uw1g45g.c ****                                   ? HAL_XSPI_INSTRUCTION_1_LINE
 2379              		.loc 1 1100 29 view .LVU803
 2380 004a 0492     		str	r2, [sp, #16]
1115:STM32Cube_FW_N6/Drivers/BSP/Components/mx66uw1g45g/mx66uw1g45g.c ****   s_command.AddressWidth = HAL_XSPI_ADDRESS_32_BITS;
 2381              		.loc 1 1115 34 view .LVU804
 2382 004c DA02     		lsls	r2, r3, #11
1113:STM32Cube_FW_N6/Drivers/BSP/Components/mx66uw1g45g/mx66uw1g45g.c ****                                  ? HAL_XSPI_ADDRESS_DTR_ENABLE
 2383              		.loc 1 1113 28 view .LVU805
 2384 004e 0A92     		str	r2, [sp, #40]
1116:STM32Cube_FW_N6/Drivers/BSP/Components/mx66uw1g45g/mx66uw1g45g.c ****   s_command.Address = 1U;
 2385              		.loc 1 1116 26 view .LVU806
 2386 0050 4FF44052 		mov	r2, #12288
1108:STM32Cube_FW_N6/Drivers/BSP/Components/mx66uw1g45g/mx66uw1g45g.c ****   s_command.Instruction = (Mode == MX66UW1G45G_SPI_MODE)
 2387              		.loc 1 1108 36 view .LVU807
 2388 0054 002C     		cmp	r4, #0
 2389 0056 0CBF     		ite	eq
 2390 0058 2146     		moveq	r1, r4
 2391 005a 4FF48061 		movne	r1, #1024
1116:STM32Cube_FW_N6/Drivers/BSP/Components/mx66uw1g45g/mx66uw1g45g.c ****   s_command.Address = 1U;
 2392              		.loc 1 1116 26 view .LVU808
 2393 005e 0992     		str	r2, [sp, #36]
1117:STM32Cube_FW_N6/Drivers/BSP/Components/mx66uw1g45g/mx66uw1g45g.c ****   s_command.AlternateBytesMode = HAL_XSPI_ALT_BYTES_NONE;
 2394              		.loc 1 1117 21 view .LVU809
 2395 0060 4FF00102 		mov	r2, #1
1112:STM32Cube_FW_N6/Drivers/BSP/Components/mx66uw1g45g/mx66uw1g45g.c ****   s_command.AddressDTRMode = (Rate == MX66UW1G45G_DTR_TRANSFER)
 2396              		.loc 1 1112 25 discriminator 4 view .LVU810
 2397 0064 0891     		str	r1, [sp, #32]
1108:STM32Cube_FW_N6/Drivers/BSP/Components/mx66uw1g45g/mx66uw1g45g.c ****   s_command.Instruction = (Mode == MX66UW1G45G_SPI_MODE)
 2398              		.loc 1 1108 36 view .LVU811
 2399 0066 0BBF     		itete	eq
 2400 0068 2746     		moveq	r7, r4
 2401 006a 1027     		movne	r7, #16
 2402 006c 0120     		moveq	r0, #1
 2403 006e 4FF4FF70 		movne	r0, #510
1119:STM32Cube_FW_N6/Drivers/BSP/Components/mx66uw1g45g/mx66uw1g45g.c ****   s_command.DataDTRMode = (Rate == MX66UW1G45G_DTR_TRANSFER)
 2404              		.loc 1 1119 78 discriminator 1 view .LVU812
 2405 0072 14BF     		ite	ne
 2406 0074 4FF08061 		movne	r1, #67108864
 2407 0078 4FF08071 		moveq	r1, #16777216
1117:STM32Cube_FW_N6/Drivers/BSP/Components/mx66uw1g45g/mx66uw1g45g.c ****   s_command.AlternateBytesMode = HAL_XSPI_ALT_BYTES_NONE;
 2408              		.loc 1 1117 21 view .LVU813
 2409 007c 0792     		str	r2, [sp, #28]
1118:STM32Cube_FW_N6/Drivers/BSP/Components/mx66uw1g45g/mx66uw1g45g.c ****   s_command.DataMode = (Mode == MX66UW1G45G_SPI_MODE) ? HAL_XSPI_DATA_1_LINE : HAL_XSPI_DATA_8_LINE
 2410              		.loc 1 1118 32 view .LVU814
 2411 007e 4FF00002 		mov	r2, #0
ARM GAS  C:\Users\DJESSOU\AppData\Local\Temp\ccAx4BcF.s 			page 72


1105:STM32Cube_FW_N6/Drivers/BSP/Components/mx66uw1g45g/mx66uw1g45g.c ****   s_command.InstructionWidth = (Mode == MX66UW1G45G_SPI_MODE)
 2412              		.loc 1 1105 38 view .LVU815
 2413 0082 4FEAC30C 		lsl	ip, r3, #3
1106:STM32Cube_FW_N6/Drivers/BSP/Components/mx66uw1g45g/mx66uw1g45g.c ****                                    ? HAL_XSPI_INSTRUCTION_8_BITS
 2414              		.loc 1 1106 3 is_stmt 1 view .LVU816
1113:STM32Cube_FW_N6/Drivers/BSP/Components/mx66uw1g45g/mx66uw1g45g.c ****                                  ? HAL_XSPI_ADDRESS_DTR_ENABLE
 2415              		.loc 1 1113 3 view .LVU817
1116:STM32Cube_FW_N6/Drivers/BSP/Components/mx66uw1g45g/mx66uw1g45g.c ****   s_command.Address = 1U;
 2416              		.loc 1 1116 3 view .LVU818
1117:STM32Cube_FW_N6/Drivers/BSP/Components/mx66uw1g45g/mx66uw1g45g.c ****   s_command.AlternateBytesMode = HAL_XSPI_ALT_BYTES_NONE;
 2417              		.loc 1 1117 3 view .LVU819
1118:STM32Cube_FW_N6/Drivers/BSP/Components/mx66uw1g45g/mx66uw1g45g.c ****   s_command.DataMode = (Mode == MX66UW1G45G_SPI_MODE) ? HAL_XSPI_DATA_1_LINE : HAL_XSPI_DATA_8_LINE
 2418              		.loc 1 1118 3 view .LVU820
1122:STM32Cube_FW_N6/Drivers/BSP/Components/mx66uw1g45g/mx66uw1g45g.c ****   s_command.DummyCycles = 0U;
 2419              		.loc 1 1122 31 is_stmt 0 view .LVU821
 2420 0086 4FEAC363 		lsl	r3, r3, #27
1106:STM32Cube_FW_N6/Drivers/BSP/Components/mx66uw1g45g/mx66uw1g45g.c ****                                    ? HAL_XSPI_INSTRUCTION_8_BITS
 2421              		.loc 1 1106 30 view .LVU822
 2422 008a CDE9057C 		strd	r7, ip, [sp, #20]
1123:STM32Cube_FW_N6/Drivers/BSP/Components/mx66uw1g45g/mx66uw1g45g.c ****   s_command.DataLength = (Mode == MX66UW1G45G_SPI_MODE) ? 2U : ((Rate == MX66UW1G45G_DTR_TRANSFER) 
 2423              		.loc 1 1123 25 view .LVU823
 2424 008e CDE91132 		strd	r3, r2, [sp, #68]
1109:STM32Cube_FW_N6/Drivers/BSP/Components/mx66uw1g45g/mx66uw1g45g.c ****                               ? MX66UW1G45G_WRITE_STATUS_REG_CMD
 2425              		.loc 1 1109 25 view .LVU824
 2426 0092 0390     		str	r0, [sp, #12]
1118:STM32Cube_FW_N6/Drivers/BSP/Components/mx66uw1g45g/mx66uw1g45g.c ****   s_command.DataMode = (Mode == MX66UW1G45G_SPI_MODE) ? HAL_XSPI_DATA_1_LINE : HAL_XSPI_DATA_8_LINE
 2427              		.loc 1 1118 32 view .LVU825
 2428 0094 0C92     		str	r2, [sp, #48]
1119:STM32Cube_FW_N6/Drivers/BSP/Components/mx66uw1g45g/mx66uw1g45g.c ****   s_command.DataDTRMode = (Rate == MX66UW1G45G_DTR_TRANSFER)
 2429              		.loc 1 1119 3 is_stmt 1 view .LVU826
1119:STM32Cube_FW_N6/Drivers/BSP/Components/mx66uw1g45g/mx66uw1g45g.c ****   s_command.DataDTRMode = (Rate == MX66UW1G45G_DTR_TRANSFER)
 2430              		.loc 1 1119 22 is_stmt 0 discriminator 4 view .LVU827
 2431 0096 0F91     		str	r1, [sp, #60]
1120:STM32Cube_FW_N6/Drivers/BSP/Components/mx66uw1g45g/mx66uw1g45g.c ****                               ? HAL_XSPI_DATA_DTR_ENABLE
 2432              		.loc 1 1120 3 is_stmt 1 view .LVU828
1124:STM32Cube_FW_N6/Drivers/BSP/Components/mx66uw1g45g/mx66uw1g45g.c ****   s_command.DQSMode = HAL_XSPI_DQS_DISABLE;
 2433              		.loc 1 1124 3 view .LVU829
1124:STM32Cube_FW_N6/Drivers/BSP/Components/mx66uw1g45g/mx66uw1g45g.c ****   s_command.DQSMode = HAL_XSPI_DQS_DISABLE;
 2434              		.loc 1 1124 62 is_stmt 0 view .LVU830
 2435 0098 1DD0     		beq	.L163
1124:STM32Cube_FW_N6/Drivers/BSP/Components/mx66uw1g45g/mx66uw1g45g.c ****   s_command.DQSMode = HAL_XSPI_DQS_DISABLE;
 2436              		.loc 1 1124 62 discriminator 4 view .LVU831
 2437 009a 012D     		cmp	r5, #1
 2438 009c 0CBF     		ite	eq
 2439 009e 0223     		moveq	r3, #2
 2440 00a0 0123     		movne	r3, #1
 2441              	.L160:
1124:STM32Cube_FW_N6/Drivers/BSP/Components/mx66uw1g45g/mx66uw1g45g.c ****   s_command.DQSMode = HAL_XSPI_DQS_DISABLE;
 2442              		.loc 1 1124 24 discriminator 8 view .LVU832
 2443 00a2 1093     		str	r3, [sp, #64]
1125:STM32Cube_FW_N6/Drivers/BSP/Components/mx66uw1g45g/mx66uw1g45g.c ****  #if defined (XSPI_CCR_SIOO)
 2444              		.loc 1 1125 3 is_stmt 1 view .LVU833
1125:STM32Cube_FW_N6/Drivers/BSP/Components/mx66uw1g45g/mx66uw1g45g.c ****  #if defined (XSPI_CCR_SIOO)
 2445              		.loc 1 1125 21 is_stmt 0 view .LVU834
 2446 00a4 0023     		movs	r3, #0
1131:STM32Cube_FW_N6/Drivers/BSP/Components/mx66uw1g45g/mx66uw1g45g.c ****   {
 2447              		.loc 1 1131 7 view .LVU835
ARM GAS  C:\Users\DJESSOU\AppData\Local\Temp\ccAx4BcF.s 			page 73


 2448 00a6 41F28832 		movw	r2, #5000
 2449 00aa 3046     		mov	r0, r6
 2450 00ac 01A9     		add	r1, sp, #4
1125:STM32Cube_FW_N6/Drivers/BSP/Components/mx66uw1g45g/mx66uw1g45g.c ****  #if defined (XSPI_CCR_SIOO)
 2451              		.loc 1 1125 21 view .LVU836
 2452 00ae 1393     		str	r3, [sp, #76]
1131:STM32Cube_FW_N6/Drivers/BSP/Components/mx66uw1g45g/mx66uw1g45g.c ****   {
 2453              		.loc 1 1131 3 is_stmt 1 view .LVU837
1131:STM32Cube_FW_N6/Drivers/BSP/Components/mx66uw1g45g/mx66uw1g45g.c ****   {
 2454              		.loc 1 1131 7 is_stmt 0 view .LVU838
 2455 00b0 FFF7FEFF 		bl	HAL_XSPI_Command
 2456              	.LVL130:
1131:STM32Cube_FW_N6/Drivers/BSP/Components/mx66uw1g45g/mx66uw1g45g.c ****   {
 2457              		.loc 1 1131 6 discriminator 1 view .LVU839
 2458 00b4 0028     		cmp	r0, #0
 2459 00b6 B2D1     		bne	.L156
1136:STM32Cube_FW_N6/Drivers/BSP/Components/mx66uw1g45g/mx66uw1g45g.c ****   {
 2460              		.loc 1 1136 3 is_stmt 1 view .LVU840
1136:STM32Cube_FW_N6/Drivers/BSP/Components/mx66uw1g45g/mx66uw1g45g.c ****   {
 2461              		.loc 1 1136 7 is_stmt 0 view .LVU841
 2462 00b8 41F28832 		movw	r2, #5000
 2463 00bc 6946     		mov	r1, sp
 2464 00be 3046     		mov	r0, r6
 2465 00c0 FFF7FEFF 		bl	HAL_XSPI_Transmit
 2466              	.LVL131:
1136:STM32Cube_FW_N6/Drivers/BSP/Components/mx66uw1g45g/mx66uw1g45g.c ****   {
 2467              		.loc 1 1136 6 discriminator 1 view .LVU842
 2468 00c4 0038     		subs	r0, r0, #0
 2469 00c6 18BF     		it	ne
 2470 00c8 0120     		movne	r0, #1
 2471 00ca 4042     		rsbs	r0, r0, #0
 2472 00cc A9E7     		b	.L152
 2473              	.L153:
1095:STM32Cube_FW_N6/Drivers/BSP/Components/mx66uw1g45g/mx66uw1g45g.c ****   }
 2474              		.loc 1 1095 5 is_stmt 1 view .LVU843
1102:STM32Cube_FW_N6/Drivers/BSP/Components/mx66uw1g45g/mx66uw1g45g.c ****   s_command.InstructionDTRMode = (Rate == MX66UW1G45G_DTR_TRANSFER)
 2475              		.loc 1 1102 35 is_stmt 0 discriminator 2 view .LVU844
 2476 00ce 0422     		movs	r2, #4
1095:STM32Cube_FW_N6/Drivers/BSP/Components/mx66uw1g45g/mx66uw1g45g.c ****   }
 2477              		.loc 1 1095 12 view .LVU845
 2478 00d0 8DF80070 		strb	r7, [sp]
1099:STM32Cube_FW_N6/Drivers/BSP/Components/mx66uw1g45g/mx66uw1g45g.c ****   s_command.InstructionMode = (Mode == MX66UW1G45G_SPI_MODE)
 2479              		.loc 1 1099 3 is_stmt 1 view .LVU846
1100:STM32Cube_FW_N6/Drivers/BSP/Components/mx66uw1g45g/mx66uw1g45g.c ****                                   ? HAL_XSPI_INSTRUCTION_1_LINE
 2480              		.loc 1 1100 3 view .LVU847
 2481 00d4 B3E7     		b	.L157
 2482              	.L163:
1124:STM32Cube_FW_N6/Drivers/BSP/Components/mx66uw1g45g/mx66uw1g45g.c ****   s_command.DQSMode = HAL_XSPI_DQS_DISABLE;
 2483              		.loc 1 1124 62 is_stmt 0 discriminator 2 view .LVU848
 2484 00d6 0223     		movs	r3, #2
 2485 00d8 E3E7     		b	.L160
 2486              		.cfi_endproc
 2487              	.LFE878:
 2489              		.section	.text.MX66UW1G45G_ReadCfgRegister,"ax",%progbits
 2490              		.align	1
 2491              		.global	MX66UW1G45G_ReadCfgRegister
 2492              		.syntax unified
ARM GAS  C:\Users\DJESSOU\AppData\Local\Temp\ccAx4BcF.s 			page 74


 2493              		.thumb
 2494              		.thumb_func
 2496              	MX66UW1G45G_ReadCfgRegister:
 2497              	.LVL132:
 2498              	.LFB879:
1143:STM32Cube_FW_N6/Drivers/BSP/Components/mx66uw1g45g/mx66uw1g45g.c **** 
1144:STM32Cube_FW_N6/Drivers/BSP/Components/mx66uw1g45g/mx66uw1g45g.c **** /**
1145:STM32Cube_FW_N6/Drivers/BSP/Components/mx66uw1g45g/mx66uw1g45g.c ****   * @brief  Read Flash configuration register value
1146:STM32Cube_FW_N6/Drivers/BSP/Components/mx66uw1g45g/mx66uw1g45g.c ****   *         SPI/OPI
1147:STM32Cube_FW_N6/Drivers/BSP/Components/mx66uw1g45g/mx66uw1g45g.c ****   * @param  Ctx Component object pointer
1148:STM32Cube_FW_N6/Drivers/BSP/Components/mx66uw1g45g/mx66uw1g45g.c ****   * @param  Mode Interface mode
1149:STM32Cube_FW_N6/Drivers/BSP/Components/mx66uw1g45g/mx66uw1g45g.c ****   * @param  Rate Transfer rate STR or DTR
1150:STM32Cube_FW_N6/Drivers/BSP/Components/mx66uw1g45g/mx66uw1g45g.c ****   * @param  Value configuration register value pointer
1151:STM32Cube_FW_N6/Drivers/BSP/Components/mx66uw1g45g/mx66uw1g45g.c ****   * @retval error status
1152:STM32Cube_FW_N6/Drivers/BSP/Components/mx66uw1g45g/mx66uw1g45g.c ****   */
1153:STM32Cube_FW_N6/Drivers/BSP/Components/mx66uw1g45g/mx66uw1g45g.c **** int32_t MX66UW1G45G_ReadCfgRegister(XSPI_HandleTypeDef *Ctx, MX66UW1G45G_Interface_t Mode,
1154:STM32Cube_FW_N6/Drivers/BSP/Components/mx66uw1g45g/mx66uw1g45g.c ****                                     MX66UW1G45G_Transfer_t Rate, uint8_t *Value)
1155:STM32Cube_FW_N6/Drivers/BSP/Components/mx66uw1g45g/mx66uw1g45g.c **** {
 2499              		.loc 1 1155 1 is_stmt 1 view -0
 2500              		.cfi_startproc
 2501              		@ args = 0, pretend = 0, frame = 80
 2502              		@ frame_needed = 0, uses_anonymous_args = 0
1156:STM32Cube_FW_N6/Drivers/BSP/Components/mx66uw1g45g/mx66uw1g45g.c ****   XSPI_RegularCmdTypeDef s_command = {0};
 2503              		.loc 1 1156 3 view .LVU850
1155:STM32Cube_FW_N6/Drivers/BSP/Components/mx66uw1g45g/mx66uw1g45g.c ****   XSPI_RegularCmdTypeDef s_command = {0};
 2504              		.loc 1 1155 1 is_stmt 0 view .LVU851
 2505 0000 F0B5     		push	{r4, r5, r6, r7, lr}
 2506              		.cfi_def_cfa_offset 20
 2507              		.cfi_offset 4, -20
 2508              		.cfi_offset 5, -16
 2509              		.cfi_offset 6, -12
 2510              		.cfi_offset 7, -8
 2511              		.cfi_offset 14, -4
 2512 0002 0D46     		mov	r5, r1
 2513 0004 95B0     		sub	sp, sp, #84
 2514              		.cfi_def_cfa_offset 104
1155:STM32Cube_FW_N6/Drivers/BSP/Components/mx66uw1g45g/mx66uw1g45g.c ****   XSPI_RegularCmdTypeDef s_command = {0};
 2515              		.loc 1 1155 1 view .LVU852
 2516 0006 0646     		mov	r6, r0
 2517 0008 1446     		mov	r4, r2
 2518              		.loc 1 1156 26 view .LVU853
 2519 000a 0021     		movs	r1, #0
 2520              	.LVL133:
 2521              		.loc 1 1156 26 view .LVU854
 2522 000c 4C22     		movs	r2, #76
 2523              	.LVL134:
 2524              		.loc 1 1156 26 view .LVU855
 2525 000e 01A8     		add	r0, sp, #4
 2526              	.LVL135:
1155:STM32Cube_FW_N6/Drivers/BSP/Components/mx66uw1g45g/mx66uw1g45g.c ****   XSPI_RegularCmdTypeDef s_command = {0};
 2527              		.loc 1 1155 1 view .LVU856
 2528 0010 1F46     		mov	r7, r3
 2529              		.loc 1 1156 26 view .LVU857
 2530 0012 FFF7FEFF 		bl	memset
 2531              	.LVL136:
1157:STM32Cube_FW_N6/Drivers/BSP/Components/mx66uw1g45g/mx66uw1g45g.c **** 
1158:STM32Cube_FW_N6/Drivers/BSP/Components/mx66uw1g45g/mx66uw1g45g.c ****   /* SPI mode and DTR transfer not supported by memory */
ARM GAS  C:\Users\DJESSOU\AppData\Local\Temp\ccAx4BcF.s 			page 75


1159:STM32Cube_FW_N6/Drivers/BSP/Components/mx66uw1g45g/mx66uw1g45g.c ****   if ((Mode == MX66UW1G45G_SPI_MODE) && (Rate == MX66UW1G45G_DTR_TRANSFER))
 2532              		.loc 1 1159 3 is_stmt 1 view .LVU858
 2533              		.loc 1 1159 6 is_stmt 0 view .LVU859
 2534 0016 2DB9     		cbnz	r5, .L166
 2535              		.loc 1 1159 38 discriminator 1 view .LVU860
 2536 0018 012C     		cmp	r4, #1
 2537 001a 45D1     		bne	.L177
 2538              	.L176:
1160:STM32Cube_FW_N6/Drivers/BSP/Components/mx66uw1g45g/mx66uw1g45g.c ****   {
1161:STM32Cube_FW_N6/Drivers/BSP/Components/mx66uw1g45g/mx66uw1g45g.c ****     return MX66UW1G45G_ERROR;
 2539              		.loc 1 1161 12 view .LVU861
 2540 001c 4FF0FF30 		mov	r0, #-1
 2541              	.L165:
1162:STM32Cube_FW_N6/Drivers/BSP/Components/mx66uw1g45g/mx66uw1g45g.c ****   }
1163:STM32Cube_FW_N6/Drivers/BSP/Components/mx66uw1g45g/mx66uw1g45g.c **** 
1164:STM32Cube_FW_N6/Drivers/BSP/Components/mx66uw1g45g/mx66uw1g45g.c ****   /* Initialize the reading of configuration register */
1165:STM32Cube_FW_N6/Drivers/BSP/Components/mx66uw1g45g/mx66uw1g45g.c ****   s_command.OperationType = HAL_XSPI_OPTYPE_COMMON_CFG;
1166:STM32Cube_FW_N6/Drivers/BSP/Components/mx66uw1g45g/mx66uw1g45g.c ****   s_command.InstructionMode = (Mode == MX66UW1G45G_SPI_MODE)
1167:STM32Cube_FW_N6/Drivers/BSP/Components/mx66uw1g45g/mx66uw1g45g.c ****                                   ? HAL_XSPI_INSTRUCTION_1_LINE
1168:STM32Cube_FW_N6/Drivers/BSP/Components/mx66uw1g45g/mx66uw1g45g.c ****                                   : HAL_XSPI_INSTRUCTION_8_LINES;
1169:STM32Cube_FW_N6/Drivers/BSP/Components/mx66uw1g45g/mx66uw1g45g.c ****   s_command.InstructionDTRMode = (Rate == MX66UW1G45G_DTR_TRANSFER)
1170:STM32Cube_FW_N6/Drivers/BSP/Components/mx66uw1g45g/mx66uw1g45g.c ****                                      ? HAL_XSPI_INSTRUCTION_DTR_ENABLE
1171:STM32Cube_FW_N6/Drivers/BSP/Components/mx66uw1g45g/mx66uw1g45g.c ****                                      : HAL_XSPI_INSTRUCTION_DTR_DISABLE;
1172:STM32Cube_FW_N6/Drivers/BSP/Components/mx66uw1g45g/mx66uw1g45g.c ****   s_command.InstructionWidth = (Mode == MX66UW1G45G_SPI_MODE)
1173:STM32Cube_FW_N6/Drivers/BSP/Components/mx66uw1g45g/mx66uw1g45g.c ****                                    ? HAL_XSPI_INSTRUCTION_8_BITS
1174:STM32Cube_FW_N6/Drivers/BSP/Components/mx66uw1g45g/mx66uw1g45g.c ****                                    : HAL_XSPI_INSTRUCTION_16_BITS;
1175:STM32Cube_FW_N6/Drivers/BSP/Components/mx66uw1g45g/mx66uw1g45g.c ****   s_command.Instruction = (Mode == MX66UW1G45G_SPI_MODE)
1176:STM32Cube_FW_N6/Drivers/BSP/Components/mx66uw1g45g/mx66uw1g45g.c ****                               ? MX66UW1G45G_READ_CFG_REG_CMD
1177:STM32Cube_FW_N6/Drivers/BSP/Components/mx66uw1g45g/mx66uw1g45g.c ****                               : MX66UW1G45G_OCTA_READ_CFG_REG_CMD;
1178:STM32Cube_FW_N6/Drivers/BSP/Components/mx66uw1g45g/mx66uw1g45g.c ****   s_command.AddressMode = (Mode == MX66UW1G45G_SPI_MODE) ? HAL_XSPI_ADDRESS_NONE : HAL_XSPI_ADDRESS
1179:STM32Cube_FW_N6/Drivers/BSP/Components/mx66uw1g45g/mx66uw1g45g.c ****   s_command.AddressDTRMode = (Rate == MX66UW1G45G_DTR_TRANSFER)
1180:STM32Cube_FW_N6/Drivers/BSP/Components/mx66uw1g45g/mx66uw1g45g.c ****                                  ? HAL_XSPI_ADDRESS_DTR_ENABLE
1181:STM32Cube_FW_N6/Drivers/BSP/Components/mx66uw1g45g/mx66uw1g45g.c ****                                  : HAL_XSPI_ADDRESS_DTR_DISABLE;
1182:STM32Cube_FW_N6/Drivers/BSP/Components/mx66uw1g45g/mx66uw1g45g.c ****   s_command.AddressWidth = HAL_XSPI_ADDRESS_32_BITS;
1183:STM32Cube_FW_N6/Drivers/BSP/Components/mx66uw1g45g/mx66uw1g45g.c ****   s_command.Address = 1U;
1184:STM32Cube_FW_N6/Drivers/BSP/Components/mx66uw1g45g/mx66uw1g45g.c ****   s_command.AlternateBytesMode = HAL_XSPI_ALT_BYTES_NONE;
1185:STM32Cube_FW_N6/Drivers/BSP/Components/mx66uw1g45g/mx66uw1g45g.c ****   s_command.DataMode = (Mode == MX66UW1G45G_SPI_MODE) ? HAL_XSPI_DATA_1_LINE : HAL_XSPI_DATA_8_LINE
1186:STM32Cube_FW_N6/Drivers/BSP/Components/mx66uw1g45g/mx66uw1g45g.c ****   s_command.DataDTRMode = (Rate == MX66UW1G45G_DTR_TRANSFER)
1187:STM32Cube_FW_N6/Drivers/BSP/Components/mx66uw1g45g/mx66uw1g45g.c ****                               ? HAL_XSPI_DATA_DTR_ENABLE
1188:STM32Cube_FW_N6/Drivers/BSP/Components/mx66uw1g45g/mx66uw1g45g.c ****                               : HAL_XSPI_DATA_DTR_DISABLE;
1189:STM32Cube_FW_N6/Drivers/BSP/Components/mx66uw1g45g/mx66uw1g45g.c ****   s_command.DummyCycles = (Mode == MX66UW1G45G_SPI_MODE)
1190:STM32Cube_FW_N6/Drivers/BSP/Components/mx66uw1g45g/mx66uw1g45g.c ****                               ? 0U
1191:STM32Cube_FW_N6/Drivers/BSP/Components/mx66uw1g45g/mx66uw1g45g.c ****                               : ((Rate == MX66UW1G45G_DTR_TRANSFER)
1192:STM32Cube_FW_N6/Drivers/BSP/Components/mx66uw1g45g/mx66uw1g45g.c ****                                      ? DUMMY_CYCLES_REG_OCTAL_DTR
1193:STM32Cube_FW_N6/Drivers/BSP/Components/mx66uw1g45g/mx66uw1g45g.c ****                                      : DUMMY_CYCLES_REG_OCTAL);
1194:STM32Cube_FW_N6/Drivers/BSP/Components/mx66uw1g45g/mx66uw1g45g.c ****   s_command.DataLength = (Rate == MX66UW1G45G_DTR_TRANSFER) ? 2U : 1U;
1195:STM32Cube_FW_N6/Drivers/BSP/Components/mx66uw1g45g/mx66uw1g45g.c ****   s_command.DQSMode = (Rate == MX66UW1G45G_DTR_TRANSFER) ? HAL_XSPI_DQS_ENABLE : HAL_XSPI_DQS_DISAB
1196:STM32Cube_FW_N6/Drivers/BSP/Components/mx66uw1g45g/mx66uw1g45g.c ****  #if defined (XSPI_CCR_SIOO)
1197:STM32Cube_FW_N6/Drivers/BSP/Components/mx66uw1g45g/mx66uw1g45g.c ****   s_command.SIOOMode            = HAL_XSPI_SIOO_INST_EVERY_CMD;
1198:STM32Cube_FW_N6/Drivers/BSP/Components/mx66uw1g45g/mx66uw1g45g.c ****  #endif
1199:STM32Cube_FW_N6/Drivers/BSP/Components/mx66uw1g45g/mx66uw1g45g.c **** 
1200:STM32Cube_FW_N6/Drivers/BSP/Components/mx66uw1g45g/mx66uw1g45g.c ****   /* Send the command */
1201:STM32Cube_FW_N6/Drivers/BSP/Components/mx66uw1g45g/mx66uw1g45g.c ****   if (HAL_XSPI_Command(Ctx, &s_command, HAL_XSPI_TIMEOUT_DEFAULT_VALUE) != HAL_OK)
1202:STM32Cube_FW_N6/Drivers/BSP/Components/mx66uw1g45g/mx66uw1g45g.c ****   {
1203:STM32Cube_FW_N6/Drivers/BSP/Components/mx66uw1g45g/mx66uw1g45g.c ****     return MX66UW1G45G_ERROR;
1204:STM32Cube_FW_N6/Drivers/BSP/Components/mx66uw1g45g/mx66uw1g45g.c ****   }
1205:STM32Cube_FW_N6/Drivers/BSP/Components/mx66uw1g45g/mx66uw1g45g.c **** 
ARM GAS  C:\Users\DJESSOU\AppData\Local\Temp\ccAx4BcF.s 			page 76


1206:STM32Cube_FW_N6/Drivers/BSP/Components/mx66uw1g45g/mx66uw1g45g.c ****   /* Reception of the data */
1207:STM32Cube_FW_N6/Drivers/BSP/Components/mx66uw1g45g/mx66uw1g45g.c ****   if (HAL_XSPI_Receive(Ctx, Value, HAL_XSPI_TIMEOUT_DEFAULT_VALUE) != HAL_OK)
1208:STM32Cube_FW_N6/Drivers/BSP/Components/mx66uw1g45g/mx66uw1g45g.c ****   {
1209:STM32Cube_FW_N6/Drivers/BSP/Components/mx66uw1g45g/mx66uw1g45g.c ****     return MX66UW1G45G_ERROR;
1210:STM32Cube_FW_N6/Drivers/BSP/Components/mx66uw1g45g/mx66uw1g45g.c ****   }
1211:STM32Cube_FW_N6/Drivers/BSP/Components/mx66uw1g45g/mx66uw1g45g.c **** 
1212:STM32Cube_FW_N6/Drivers/BSP/Components/mx66uw1g45g/mx66uw1g45g.c ****   return MX66UW1G45G_OK;
1213:STM32Cube_FW_N6/Drivers/BSP/Components/mx66uw1g45g/mx66uw1g45g.c **** }
 2542              		.loc 1 1213 1 view .LVU862
 2543 0020 15B0     		add	sp, sp, #84
 2544              		.cfi_remember_state
 2545              		.cfi_def_cfa_offset 20
 2546              		@ sp needed
 2547 0022 F0BD     		pop	{r4, r5, r6, r7, pc}
 2548              	.LVL137:
 2549              	.L166:
 2550              		.cfi_restore_state
1169:STM32Cube_FW_N6/Drivers/BSP/Components/mx66uw1g45g/mx66uw1g45g.c ****                                      ? HAL_XSPI_INSTRUCTION_DTR_ENABLE
 2551              		.loc 1 1169 3 is_stmt 1 view .LVU863
 2552 0024 0423     		movs	r3, #4
1171:STM32Cube_FW_N6/Drivers/BSP/Components/mx66uw1g45g/mx66uw1g45g.c ****   s_command.InstructionWidth = (Mode == MX66UW1G45G_SPI_MODE)
 2553              		.loc 1 1171 38 is_stmt 0 view .LVU864
 2554 0026 601E     		subs	r0, r4, #1
 2555 0028 4242     		rsbs	r2, r0, #0
 2556 002a 4241     		adcs	r2, r2, r0
 2557 002c D200     		lsls	r2, r2, #3
 2558              	.L167:
1166:STM32Cube_FW_N6/Drivers/BSP/Components/mx66uw1g45g/mx66uw1g45g.c ****                                   ? HAL_XSPI_INSTRUCTION_1_LINE
 2559              		.loc 1 1166 29 view .LVU865
 2560 002e 0493     		str	r3, [sp, #16]
1169:STM32Cube_FW_N6/Drivers/BSP/Components/mx66uw1g45g/mx66uw1g45g.c ****                                      ? HAL_XSPI_INSTRUCTION_DTR_ENABLE
 2561              		.loc 1 1169 32 view .LVU866
 2562 0030 0692     		str	r2, [sp, #24]
1172:STM32Cube_FW_N6/Drivers/BSP/Components/mx66uw1g45g/mx66uw1g45g.c ****                                    ? HAL_XSPI_INSTRUCTION_8_BITS
 2563              		.loc 1 1172 3 is_stmt 1 view .LVU867
1174:STM32Cube_FW_N6/Drivers/BSP/Components/mx66uw1g45g/mx66uw1g45g.c ****   s_command.Instruction = (Mode == MX66UW1G45G_SPI_MODE)
 2564              		.loc 1 1174 36 is_stmt 0 view .LVU868
 2565 0032 002D     		cmp	r5, #0
 2566 0034 3BD0     		beq	.L178
1172:STM32Cube_FW_N6/Drivers/BSP/Components/mx66uw1g45g/mx66uw1g45g.c ****                                    ? HAL_XSPI_INSTRUCTION_8_BITS
 2567              		.loc 1 1172 30 view .LVU869
 2568 0036 1023     		movs	r3, #16
 2569 0038 41F2EA52 		movw	r2, #5610
 2570 003c 0593     		str	r3, [sp, #20]
1175:STM32Cube_FW_N6/Drivers/BSP/Components/mx66uw1g45g/mx66uw1g45g.c ****                               ? MX66UW1G45G_READ_CFG_REG_CMD
 2571              		.loc 1 1175 3 is_stmt 1 view .LVU870
1178:STM32Cube_FW_N6/Drivers/BSP/Components/mx66uw1g45g/mx66uw1g45g.c ****   s_command.AddressDTRMode = (Rate == MX66UW1G45G_DTR_TRANSFER)
 2572              		.loc 1 1178 3 view .LVU871
1178:STM32Cube_FW_N6/Drivers/BSP/Components/mx66uw1g45g/mx66uw1g45g.c ****   s_command.AddressDTRMode = (Rate == MX66UW1G45G_DTR_TRANSFER)
 2573              		.loc 1 1178 82 is_stmt 0 discriminator 2 view .LVU872
 2574 003e 4FF48063 		mov	r3, #1024
 2575              	.L169:
1178:STM32Cube_FW_N6/Drivers/BSP/Components/mx66uw1g45g/mx66uw1g45g.c ****   s_command.AddressDTRMode = (Rate == MX66UW1G45G_DTR_TRANSFER)
 2576              		.loc 1 1178 25 discriminator 4 view .LVU873
 2577 0042 0893     		str	r3, [sp, #32]
1179:STM32Cube_FW_N6/Drivers/BSP/Components/mx66uw1g45g/mx66uw1g45g.c ****                                  ? HAL_XSPI_ADDRESS_DTR_ENABLE
 2578              		.loc 1 1179 3 is_stmt 1 view .LVU874
ARM GAS  C:\Users\DJESSOU\AppData\Local\Temp\ccAx4BcF.s 			page 77


1181:STM32Cube_FW_N6/Drivers/BSP/Components/mx66uw1g45g/mx66uw1g45g.c ****   s_command.AddressWidth = HAL_XSPI_ADDRESS_32_BITS;
 2579              		.loc 1 1181 34 is_stmt 0 view .LVU875
 2580 0044 631E     		subs	r3, r4, #1
1175:STM32Cube_FW_N6/Drivers/BSP/Components/mx66uw1g45g/mx66uw1g45g.c ****                               ? MX66UW1G45G_READ_CFG_REG_CMD
 2581              		.loc 1 1175 25 view .LVU876
 2582 0046 0392     		str	r2, [sp, #12]
1181:STM32Cube_FW_N6/Drivers/BSP/Components/mx66uw1g45g/mx66uw1g45g.c ****   s_command.AddressWidth = HAL_XSPI_ADDRESS_32_BITS;
 2583              		.loc 1 1181 34 view .LVU877
 2584 0048 5A42     		rsbs	r2, r3, #0
 2585 004a 5A41     		adcs	r2, r2, r3
 2586 004c D302     		lsls	r3, r2, #11
1179:STM32Cube_FW_N6/Drivers/BSP/Components/mx66uw1g45g/mx66uw1g45g.c ****                                  ? HAL_XSPI_ADDRESS_DTR_ENABLE
 2587              		.loc 1 1179 28 view .LVU878
 2588 004e 0A93     		str	r3, [sp, #40]
1182:STM32Cube_FW_N6/Drivers/BSP/Components/mx66uw1g45g/mx66uw1g45g.c ****   s_command.Address = 1U;
 2589              		.loc 1 1182 3 is_stmt 1 view .LVU879
1182:STM32Cube_FW_N6/Drivers/BSP/Components/mx66uw1g45g/mx66uw1g45g.c ****   s_command.Address = 1U;
 2590              		.loc 1 1182 26 is_stmt 0 view .LVU880
 2591 0050 4FF44053 		mov	r3, #12288
 2592 0054 0993     		str	r3, [sp, #36]
1183:STM32Cube_FW_N6/Drivers/BSP/Components/mx66uw1g45g/mx66uw1g45g.c ****   s_command.AlternateBytesMode = HAL_XSPI_ALT_BYTES_NONE;
 2593              		.loc 1 1183 3 is_stmt 1 view .LVU881
1183:STM32Cube_FW_N6/Drivers/BSP/Components/mx66uw1g45g/mx66uw1g45g.c ****   s_command.AlternateBytesMode = HAL_XSPI_ALT_BYTES_NONE;
 2594              		.loc 1 1183 21 is_stmt 0 view .LVU882
 2595 0056 0123     		movs	r3, #1
1185:STM32Cube_FW_N6/Drivers/BSP/Components/mx66uw1g45g/mx66uw1g45g.c ****   s_command.DataDTRMode = (Rate == MX66UW1G45G_DTR_TRANSFER)
 2596              		.loc 1 1185 78 discriminator 1 view .LVU883
 2597 0058 002D     		cmp	r5, #0
1183:STM32Cube_FW_N6/Drivers/BSP/Components/mx66uw1g45g/mx66uw1g45g.c ****   s_command.AlternateBytesMode = HAL_XSPI_ALT_BYTES_NONE;
 2598              		.loc 1 1183 21 view .LVU884
 2599 005a 0793     		str	r3, [sp, #28]
1184:STM32Cube_FW_N6/Drivers/BSP/Components/mx66uw1g45g/mx66uw1g45g.c ****   s_command.DataMode = (Mode == MX66UW1G45G_SPI_MODE) ? HAL_XSPI_DATA_1_LINE : HAL_XSPI_DATA_8_LINE
 2600              		.loc 1 1184 3 is_stmt 1 view .LVU885
1185:STM32Cube_FW_N6/Drivers/BSP/Components/mx66uw1g45g/mx66uw1g45g.c ****   s_command.DataDTRMode = (Rate == MX66UW1G45G_DTR_TRANSFER)
 2601              		.loc 1 1185 3 view .LVU886
1185:STM32Cube_FW_N6/Drivers/BSP/Components/mx66uw1g45g/mx66uw1g45g.c ****   s_command.DataDTRMode = (Rate == MX66UW1G45G_DTR_TRANSFER)
 2602              		.loc 1 1185 78 is_stmt 0 discriminator 1 view .LVU887
 2603 005c 14BF     		ite	ne
 2604 005e 4FF08063 		movne	r3, #67108864
 2605 0062 4FF08073 		moveq	r3, #16777216
1188:STM32Cube_FW_N6/Drivers/BSP/Components/mx66uw1g45g/mx66uw1g45g.c ****   s_command.DummyCycles = (Mode == MX66UW1G45G_SPI_MODE)
 2606              		.loc 1 1188 31 view .LVU888
 2607 0066 4FEAC262 		lsl	r2, r2, #27
1185:STM32Cube_FW_N6/Drivers/BSP/Components/mx66uw1g45g/mx66uw1g45g.c ****   s_command.DataDTRMode = (Rate == MX66UW1G45G_DTR_TRANSFER)
 2608              		.loc 1 1185 22 discriminator 4 view .LVU889
 2609 006a 0F93     		str	r3, [sp, #60]
1186:STM32Cube_FW_N6/Drivers/BSP/Components/mx66uw1g45g/mx66uw1g45g.c ****                               ? HAL_XSPI_DATA_DTR_ENABLE
 2610              		.loc 1 1186 3 is_stmt 1 view .LVU890
1186:STM32Cube_FW_N6/Drivers/BSP/Components/mx66uw1g45g/mx66uw1g45g.c ****                               ? HAL_XSPI_DATA_DTR_ENABLE
 2611              		.loc 1 1186 25 is_stmt 0 view .LVU891
 2612 006c 1192     		str	r2, [sp, #68]
1189:STM32Cube_FW_N6/Drivers/BSP/Components/mx66uw1g45g/mx66uw1g45g.c ****                               ? 0U
 2613              		.loc 1 1189 3 is_stmt 1 view .LVU892
1191:STM32Cube_FW_N6/Drivers/BSP/Components/mx66uw1g45g/mx66uw1g45g.c ****                                      ? DUMMY_CYCLES_REG_OCTAL_DTR
 2614              		.loc 1 1191 31 is_stmt 0 view .LVU893
 2615 006e 26D0     		beq	.L171
1191:STM32Cube_FW_N6/Drivers/BSP/Components/mx66uw1g45g/mx66uw1g45g.c ****                                      ? DUMMY_CYCLES_REG_OCTAL_DTR
ARM GAS  C:\Users\DJESSOU\AppData\Local\Temp\ccAx4BcF.s 			page 78


 2616              		.loc 1 1191 31 discriminator 1 view .LVU894
 2617 0070 012C     		cmp	r4, #1
 2618 0072 1FD1     		bne	.L172
1189:STM32Cube_FW_N6/Drivers/BSP/Components/mx66uw1g45g/mx66uw1g45g.c ****                               ? 0U
 2619              		.loc 1 1189 25 view .LVU895
 2620 0074 0523     		movs	r3, #5
 2621 0076 1293     		str	r3, [sp, #72]
1194:STM32Cube_FW_N6/Drivers/BSP/Components/mx66uw1g45g/mx66uw1g45g.c ****   s_command.DQSMode = (Rate == MX66UW1G45G_DTR_TRANSFER) ? HAL_XSPI_DQS_ENABLE : HAL_XSPI_DQS_DISAB
 2622              		.loc 1 1194 3 is_stmt 1 view .LVU896
 2623              	.L174:
1194:STM32Cube_FW_N6/Drivers/BSP/Components/mx66uw1g45g/mx66uw1g45g.c ****   s_command.DQSMode = (Rate == MX66UW1G45G_DTR_TRANSFER) ? HAL_XSPI_DQS_ENABLE : HAL_XSPI_DQS_DISAB
 2624              		.loc 1 1194 24 is_stmt 0 discriminator 4 view .LVU897
 2625 0078 0222     		movs	r2, #2
1195:STM32Cube_FW_N6/Drivers/BSP/Components/mx66uw1g45g/mx66uw1g45g.c ****  #if defined (XSPI_CCR_SIOO)
 2626              		.loc 1 1195 80 discriminator 1 view .LVU898
 2627 007a 4FF00053 		mov	r3, #536870912
 2628              	.L173:
 2629 007e 1092     		str	r2, [sp, #64]
1201:STM32Cube_FW_N6/Drivers/BSP/Components/mx66uw1g45g/mx66uw1g45g.c ****   {
 2630              		.loc 1 1201 7 view .LVU899
 2631 0080 3046     		mov	r0, r6
 2632 0082 41F28832 		movw	r2, #5000
 2633 0086 01A9     		add	r1, sp, #4
1195:STM32Cube_FW_N6/Drivers/BSP/Components/mx66uw1g45g/mx66uw1g45g.c ****  #if defined (XSPI_CCR_SIOO)
 2634              		.loc 1 1195 21 discriminator 4 view .LVU900
 2635 0088 1393     		str	r3, [sp, #76]
1201:STM32Cube_FW_N6/Drivers/BSP/Components/mx66uw1g45g/mx66uw1g45g.c ****   {
 2636              		.loc 1 1201 3 is_stmt 1 view .LVU901
1201:STM32Cube_FW_N6/Drivers/BSP/Components/mx66uw1g45g/mx66uw1g45g.c ****   {
 2637              		.loc 1 1201 7 is_stmt 0 view .LVU902
 2638 008a FFF7FEFF 		bl	HAL_XSPI_Command
 2639              	.LVL138:
1201:STM32Cube_FW_N6/Drivers/BSP/Components/mx66uw1g45g/mx66uw1g45g.c ****   {
 2640              		.loc 1 1201 6 discriminator 1 view .LVU903
 2641 008e 0028     		cmp	r0, #0
 2642 0090 C4D1     		bne	.L176
1207:STM32Cube_FW_N6/Drivers/BSP/Components/mx66uw1g45g/mx66uw1g45g.c ****   {
 2643              		.loc 1 1207 3 is_stmt 1 view .LVU904
1207:STM32Cube_FW_N6/Drivers/BSP/Components/mx66uw1g45g/mx66uw1g45g.c ****   {
 2644              		.loc 1 1207 7 is_stmt 0 view .LVU905
 2645 0092 41F28832 		movw	r2, #5000
 2646 0096 3946     		mov	r1, r7
 2647 0098 3046     		mov	r0, r6
 2648 009a FFF7FEFF 		bl	HAL_XSPI_Receive
 2649              	.LVL139:
1207:STM32Cube_FW_N6/Drivers/BSP/Components/mx66uw1g45g/mx66uw1g45g.c ****   {
 2650              		.loc 1 1207 6 discriminator 1 view .LVU906
 2651 009e 0038     		subs	r0, r0, #0
 2652 00a0 18BF     		it	ne
 2653 00a2 0120     		movne	r0, #1
 2654 00a4 4042     		rsbs	r0, r0, #0
 2655 00a6 BBE7     		b	.L165
 2656              	.L177:
1207:STM32Cube_FW_N6/Drivers/BSP/Components/mx66uw1g45g/mx66uw1g45g.c ****   {
 2657              		.loc 1 1207 6 discriminator 1 view .LVU907
 2658 00a8 0123     		movs	r3, #1
1171:STM32Cube_FW_N6/Drivers/BSP/Components/mx66uw1g45g/mx66uw1g45g.c ****   s_command.InstructionWidth = (Mode == MX66UW1G45G_SPI_MODE)
ARM GAS  C:\Users\DJESSOU\AppData\Local\Temp\ccAx4BcF.s 			page 79


 2659              		.loc 1 1171 38 discriminator 2 view .LVU908
 2660 00aa 2A46     		mov	r2, r5
 2661 00ac BFE7     		b	.L167
 2662              	.L178:
 2663 00ae 1522     		movs	r2, #21
1178:STM32Cube_FW_N6/Drivers/BSP/Components/mx66uw1g45g/mx66uw1g45g.c ****   s_command.AddressDTRMode = (Rate == MX66UW1G45G_DTR_TRANSFER)
 2664              		.loc 1 1178 82 discriminator 1 view .LVU909
 2665 00b0 2B46     		mov	r3, r5
 2666 00b2 C6E7     		b	.L169
 2667              	.L172:
1189:STM32Cube_FW_N6/Drivers/BSP/Components/mx66uw1g45g/mx66uw1g45g.c ****                               ? 0U
 2668              		.loc 1 1189 25 view .LVU910
 2669 00b4 0423     		movs	r3, #4
 2670 00b6 1293     		str	r3, [sp, #72]
1194:STM32Cube_FW_N6/Drivers/BSP/Components/mx66uw1g45g/mx66uw1g45g.c ****   s_command.DQSMode = (Rate == MX66UW1G45G_DTR_TRANSFER) ? HAL_XSPI_DQS_ENABLE : HAL_XSPI_DQS_DISAB
 2671              		.loc 1 1194 3 is_stmt 1 view .LVU911
 2672              	.L175:
1194:STM32Cube_FW_N6/Drivers/BSP/Components/mx66uw1g45g/mx66uw1g45g.c ****   s_command.DQSMode = (Rate == MX66UW1G45G_DTR_TRANSFER) ? HAL_XSPI_DQS_ENABLE : HAL_XSPI_DQS_DISAB
 2673              		.loc 1 1194 24 is_stmt 0 discriminator 4 view .LVU912
 2674 00b8 0122     		movs	r2, #1
1195:STM32Cube_FW_N6/Drivers/BSP/Components/mx66uw1g45g/mx66uw1g45g.c ****  #if defined (XSPI_CCR_SIOO)
 2675              		.loc 1 1195 80 discriminator 2 view .LVU913
 2676 00ba 0023     		movs	r3, #0
 2677 00bc DFE7     		b	.L173
 2678              	.L171:
1194:STM32Cube_FW_N6/Drivers/BSP/Components/mx66uw1g45g/mx66uw1g45g.c ****   s_command.DQSMode = (Rate == MX66UW1G45G_DTR_TRANSFER) ? HAL_XSPI_DQS_ENABLE : HAL_XSPI_DQS_DISAB
 2679              		.loc 1 1194 3 is_stmt 1 view .LVU914
1194:STM32Cube_FW_N6/Drivers/BSP/Components/mx66uw1g45g/mx66uw1g45g.c ****   s_command.DQSMode = (Rate == MX66UW1G45G_DTR_TRANSFER) ? HAL_XSPI_DQS_ENABLE : HAL_XSPI_DQS_DISAB
 2680              		.loc 1 1194 66 is_stmt 0 view .LVU915
 2681 00be 012C     		cmp	r4, #1
 2682 00c0 FAD1     		bne	.L175
 2683 00c2 D9E7     		b	.L174
 2684              		.cfi_endproc
 2685              	.LFE879:
 2687              		.section	.text.MX66UW1G45G_WriteStatusRegister,"ax",%progbits
 2688              		.align	1
 2689              		.global	MX66UW1G45G_WriteStatusRegister
 2690              		.syntax unified
 2691              		.thumb
 2692              		.thumb_func
 2694              	MX66UW1G45G_WriteStatusRegister:
 2695              	.LVL140:
 2696              	.LFB877:
 997:STM32Cube_FW_N6/Drivers/BSP/Components/mx66uw1g45g/mx66uw1g45g.c ****   XSPI_RegularCmdTypeDef s_command = {0};
 2697              		.loc 1 997 1 is_stmt 1 view -0
 2698              		.cfi_startproc
 2699              		@ args = 0, pretend = 0, frame = 80
 2700              		@ frame_needed = 0, uses_anonymous_args = 0
 998:STM32Cube_FW_N6/Drivers/BSP/Components/mx66uw1g45g/mx66uw1g45g.c ****   uint8_t reg[2];
 2701              		.loc 1 998 3 view .LVU917
 997:STM32Cube_FW_N6/Drivers/BSP/Components/mx66uw1g45g/mx66uw1g45g.c ****   XSPI_RegularCmdTypeDef s_command = {0};
 2702              		.loc 1 997 1 is_stmt 0 view .LVU918
 2703 0000 2DE9F041 		push	{r4, r5, r6, r7, r8, lr}
 2704              		.cfi_def_cfa_offset 24
 2705              		.cfi_offset 4, -24
 2706              		.cfi_offset 5, -20
 2707              		.cfi_offset 6, -16
ARM GAS  C:\Users\DJESSOU\AppData\Local\Temp\ccAx4BcF.s 			page 80


 2708              		.cfi_offset 7, -12
 2709              		.cfi_offset 8, -8
 2710              		.cfi_offset 14, -4
 2711 0004 0C46     		mov	r4, r1
 2712 0006 94B0     		sub	sp, sp, #80
 2713              		.cfi_def_cfa_offset 104
 997:STM32Cube_FW_N6/Drivers/BSP/Components/mx66uw1g45g/mx66uw1g45g.c ****   XSPI_RegularCmdTypeDef s_command = {0};
 2714              		.loc 1 997 1 view .LVU919
 2715 0008 0646     		mov	r6, r0
 2716 000a 1546     		mov	r5, r2
 998:STM32Cube_FW_N6/Drivers/BSP/Components/mx66uw1g45g/mx66uw1g45g.c ****   uint8_t reg[2];
 2717              		.loc 1 998 26 view .LVU920
 2718 000c 0021     		movs	r1, #0
 2719              	.LVL141:
 998:STM32Cube_FW_N6/Drivers/BSP/Components/mx66uw1g45g/mx66uw1g45g.c ****   uint8_t reg[2];
 2720              		.loc 1 998 26 view .LVU921
 2721 000e 4C22     		movs	r2, #76
 2722              	.LVL142:
 998:STM32Cube_FW_N6/Drivers/BSP/Components/mx66uw1g45g/mx66uw1g45g.c ****   uint8_t reg[2];
 2723              		.loc 1 998 26 view .LVU922
 2724 0010 01A8     		add	r0, sp, #4
 2725              	.LVL143:
 997:STM32Cube_FW_N6/Drivers/BSP/Components/mx66uw1g45g/mx66uw1g45g.c ****   XSPI_RegularCmdTypeDef s_command = {0};
 2726              		.loc 1 997 1 view .LVU923
 2727 0012 1F46     		mov	r7, r3
 998:STM32Cube_FW_N6/Drivers/BSP/Components/mx66uw1g45g/mx66uw1g45g.c ****   uint8_t reg[2];
 2728              		.loc 1 998 26 view .LVU924
 2729 0014 FFF7FEFF 		bl	memset
 2730              	.LVL144:
 999:STM32Cube_FW_N6/Drivers/BSP/Components/mx66uw1g45g/mx66uw1g45g.c **** 
 2731              		.loc 1 999 3 is_stmt 1 view .LVU925
1002:STM32Cube_FW_N6/Drivers/BSP/Components/mx66uw1g45g/mx66uw1g45g.c ****   {
 2732              		.loc 1 1002 3 view .LVU926
1002:STM32Cube_FW_N6/Drivers/BSP/Components/mx66uw1g45g/mx66uw1g45g.c ****   {
 2733              		.loc 1 1002 6 is_stmt 0 view .LVU927
 2734 0018 002C     		cmp	r4, #0
 2735 001a 58D1     		bne	.L191
1002:STM32Cube_FW_N6/Drivers/BSP/Components/mx66uw1g45g/mx66uw1g45g.c ****   {
 2736              		.loc 1 1002 38 discriminator 1 view .LVU928
 2737 001c 012D     		cmp	r5, #1
 2738 001e 04D1     		bne	.L185
 2739              	.L187:
1004:STM32Cube_FW_N6/Drivers/BSP/Components/mx66uw1g45g/mx66uw1g45g.c ****   }
 2740              		.loc 1 1004 12 view .LVU929
 2741 0020 4FF0FF30 		mov	r0, #-1
 2742              	.L183:
1061:STM32Cube_FW_N6/Drivers/BSP/Components/mx66uw1g45g/mx66uw1g45g.c **** 
 2743              		.loc 1 1061 1 view .LVU930
 2744 0024 14B0     		add	sp, sp, #80
 2745              		.cfi_remember_state
 2746              		.cfi_def_cfa_offset 24
 2747              		@ sp needed
 2748 0026 BDE8F081 		pop	{r4, r5, r6, r7, r8, pc}
 2749              	.LVL145:
 2750              	.L185:
 2751              		.cfi_restore_state
1008:STM32Cube_FW_N6/Drivers/BSP/Components/mx66uw1g45g/mx66uw1g45g.c ****   {
ARM GAS  C:\Users\DJESSOU\AppData\Local\Temp\ccAx4BcF.s 			page 81


 2752              		.loc 1 1008 3 is_stmt 1 view .LVU931
1010:STM32Cube_FW_N6/Drivers/BSP/Components/mx66uw1g45g/mx66uw1g45g.c ****     {
 2753              		.loc 1 1010 5 view .LVU932
1010:STM32Cube_FW_N6/Drivers/BSP/Components/mx66uw1g45g/mx66uw1g45g.c ****     {
 2754              		.loc 1 1010 9 is_stmt 0 view .LVU933
 2755 002a 2A46     		mov	r2, r5
 2756 002c 2146     		mov	r1, r4
 2757 002e 3046     		mov	r0, r6
 2758 0030 0DF10103 		add	r3, sp, #1
 2759 0034 FFF7FEFF 		bl	MX66UW1G45G_ReadCfgRegister
 2760              	.LVL146:
1010:STM32Cube_FW_N6/Drivers/BSP/Components/mx66uw1g45g/mx66uw1g45g.c ****     {
 2761              		.loc 1 1010 8 discriminator 1 view .LVU934
 2762 0038 0028     		cmp	r0, #0
 2763 003a F1D1     		bne	.L187
1021:STM32Cube_FW_N6/Drivers/BSP/Components/mx66uw1g45g/mx66uw1g45g.c ****   s_command.InstructionDTRMode = (Rate == MX66UW1G45G_DTR_TRANSFER)
 2764              		.loc 1 1021 35 discriminator 1 view .LVU935
 2765 003c 0121     		movs	r1, #1
 2766              	.L184:
1022:STM32Cube_FW_N6/Drivers/BSP/Components/mx66uw1g45g/mx66uw1g45g.c ****                                      ? HAL_XSPI_INSTRUCTION_DTR_ENABLE
 2767              		.loc 1 1022 3 is_stmt 1 view .LVU936
1024:STM32Cube_FW_N6/Drivers/BSP/Components/mx66uw1g45g/mx66uw1g45g.c ****   s_command.InstructionWidth = (Mode == MX66UW1G45G_SPI_MODE)
 2768              		.loc 1 1024 38 is_stmt 0 view .LVU937
 2769 003e 6B1E     		subs	r3, r5, #1
 2770 0040 5A42     		rsbs	r2, r3, #0
 2771 0042 5A41     		adcs	r2, r2, r3
1019:STM32Cube_FW_N6/Drivers/BSP/Components/mx66uw1g45g/mx66uw1g45g.c ****                                   ? HAL_XSPI_INSTRUCTION_1_LINE
 2772              		.loc 1 1019 29 view .LVU938
 2773 0044 0491     		str	r1, [sp, #16]
1034:STM32Cube_FW_N6/Drivers/BSP/Components/mx66uw1g45g/mx66uw1g45g.c ****   s_command.AddressWidth = HAL_XSPI_ADDRESS_32_BITS;
 2774              		.loc 1 1034 34 view .LVU939
 2775 0046 D102     		lsls	r1, r2, #11
1032:STM32Cube_FW_N6/Drivers/BSP/Components/mx66uw1g45g/mx66uw1g45g.c ****                                  ? HAL_XSPI_ADDRESS_DTR_ENABLE
 2776              		.loc 1 1032 28 view .LVU940
 2777 0048 0A91     		str	r1, [sp, #40]
1035:STM32Cube_FW_N6/Drivers/BSP/Components/mx66uw1g45g/mx66uw1g45g.c ****   s_command.Address = 0U;
 2778              		.loc 1 1035 26 view .LVU941
 2779 004a 4FF44051 		mov	r1, #12288
1027:STM32Cube_FW_N6/Drivers/BSP/Components/mx66uw1g45g/mx66uw1g45g.c ****   s_command.Instruction = (Mode == MX66UW1G45G_SPI_MODE)
 2780              		.loc 1 1027 36 view .LVU942
 2781 004e 002C     		cmp	r4, #0
1018:STM32Cube_FW_N6/Drivers/BSP/Components/mx66uw1g45g/mx66uw1g45g.c ****   s_command.InstructionMode = (Mode == MX66UW1G45G_SPI_MODE)
 2782              		.loc 1 1018 27 view .LVU943
 2783 0050 4FF00003 		mov	r3, #0
1035:STM32Cube_FW_N6/Drivers/BSP/Components/mx66uw1g45g/mx66uw1g45g.c ****   s_command.Address = 0U;
 2784              		.loc 1 1035 26 view .LVU944
 2785 0054 0991     		str	r1, [sp, #36]
1027:STM32Cube_FW_N6/Drivers/BSP/Components/mx66uw1g45g/mx66uw1g45g.c ****   s_command.Instruction = (Mode == MX66UW1G45G_SPI_MODE)
 2786              		.loc 1 1027 36 view .LVU945
 2787 0056 0BBF     		itete	eq
 2788 0058 A646     		moveq	lr, r4
 2789 005a 4FF0100E 		movne	lr, #16
 2790 005e 4FF0010C 		moveq	ip, #1
 2791 0062 4FF4FF7C 		movne	ip, #510
 2792 0066 0DBF     		iteet	eq
 2793 0068 2046     		moveq	r0, r4
 2794 006a 4FF48060 		movne	r0, #1024
ARM GAS  C:\Users\DJESSOU\AppData\Local\Temp\ccAx4BcF.s 			page 82


1038:STM32Cube_FW_N6/Drivers/BSP/Components/mx66uw1g45g/mx66uw1g45g.c ****   s_command.DataDTRMode = (Rate == MX66UW1G45G_DTR_TRANSFER)
 2795              		.loc 1 1038 78 discriminator 1 view .LVU946
 2796 006e 4FF08061 		movne	r1, #67108864
 2797 0072 4FF08071 		moveq	r1, #16777216
1024:STM32Cube_FW_N6/Drivers/BSP/Components/mx66uw1g45g/mx66uw1g45g.c ****   s_command.InstructionWidth = (Mode == MX66UW1G45G_SPI_MODE)
 2798              		.loc 1 1024 38 view .LVU947
 2799 0076 4FEAC208 		lsl	r8, r2, #3
1025:STM32Cube_FW_N6/Drivers/BSP/Components/mx66uw1g45g/mx66uw1g45g.c ****                                    ? HAL_XSPI_INSTRUCTION_8_BITS
 2800              		.loc 1 1025 3 is_stmt 1 view .LVU948
1041:STM32Cube_FW_N6/Drivers/BSP/Components/mx66uw1g45g/mx66uw1g45g.c ****   s_command.DummyCycles = 0U;
 2801              		.loc 1 1041 31 is_stmt 0 view .LVU949
 2802 007a 4FEAC262 		lsl	r2, r2, #27
1025:STM32Cube_FW_N6/Drivers/BSP/Components/mx66uw1g45g/mx66uw1g45g.c ****                                    ? HAL_XSPI_INSTRUCTION_8_BITS
 2803              		.loc 1 1025 30 view .LVU950
 2804 007e CDE905E8 		strd	lr, r8, [sp, #20]
1042:STM32Cube_FW_N6/Drivers/BSP/Components/mx66uw1g45g/mx66uw1g45g.c ****   s_command.DataLength = (Mode == MX66UW1G45G_SPI_MODE) ? 2U : ((Rate == MX66UW1G45G_DTR_TRANSFER) 
 2805              		.loc 1 1042 25 view .LVU951
 2806 0082 CDE91123 		strd	r2, r3, [sp, #68]
1015:STM32Cube_FW_N6/Drivers/BSP/Components/mx66uw1g45g/mx66uw1g45g.c **** 
 2807              		.loc 1 1015 10 view .LVU952
 2808 0086 8DF80070 		strb	r7, [sp]
1018:STM32Cube_FW_N6/Drivers/BSP/Components/mx66uw1g45g/mx66uw1g45g.c ****   s_command.InstructionMode = (Mode == MX66UW1G45G_SPI_MODE)
 2809              		.loc 1 1018 27 view .LVU953
 2810 008a 0193     		str	r3, [sp, #4]
1028:STM32Cube_FW_N6/Drivers/BSP/Components/mx66uw1g45g/mx66uw1g45g.c ****                               ? MX66UW1G45G_WRITE_STATUS_REG_CMD
 2811              		.loc 1 1028 25 view .LVU954
 2812 008c CDF80CC0 		str	ip, [sp, #12]
1031:STM32Cube_FW_N6/Drivers/BSP/Components/mx66uw1g45g/mx66uw1g45g.c ****   s_command.AddressDTRMode = (Rate == MX66UW1G45G_DTR_TRANSFER)
 2813              		.loc 1 1031 25 discriminator 4 view .LVU955
 2814 0090 0890     		str	r0, [sp, #32]
1032:STM32Cube_FW_N6/Drivers/BSP/Components/mx66uw1g45g/mx66uw1g45g.c ****                                  ? HAL_XSPI_ADDRESS_DTR_ENABLE
 2815              		.loc 1 1032 3 is_stmt 1 view .LVU956
1035:STM32Cube_FW_N6/Drivers/BSP/Components/mx66uw1g45g/mx66uw1g45g.c ****   s_command.Address = 0U;
 2816              		.loc 1 1035 3 view .LVU957
1036:STM32Cube_FW_N6/Drivers/BSP/Components/mx66uw1g45g/mx66uw1g45g.c ****   s_command.AlternateBytesMode = HAL_XSPI_ALT_BYTES_NONE;
 2817              		.loc 1 1036 3 view .LVU958
1036:STM32Cube_FW_N6/Drivers/BSP/Components/mx66uw1g45g/mx66uw1g45g.c ****   s_command.AlternateBytesMode = HAL_XSPI_ALT_BYTES_NONE;
 2818              		.loc 1 1036 21 is_stmt 0 view .LVU959
 2819 0092 0793     		str	r3, [sp, #28]
1037:STM32Cube_FW_N6/Drivers/BSP/Components/mx66uw1g45g/mx66uw1g45g.c ****   s_command.DataMode = (Mode == MX66UW1G45G_SPI_MODE) ? HAL_XSPI_DATA_1_LINE : HAL_XSPI_DATA_8_LINE
 2820              		.loc 1 1037 3 is_stmt 1 view .LVU960
1037:STM32Cube_FW_N6/Drivers/BSP/Components/mx66uw1g45g/mx66uw1g45g.c ****   s_command.DataMode = (Mode == MX66UW1G45G_SPI_MODE) ? HAL_XSPI_DATA_1_LINE : HAL_XSPI_DATA_8_LINE
 2821              		.loc 1 1037 32 is_stmt 0 view .LVU961
 2822 0094 0C93     		str	r3, [sp, #48]
1038:STM32Cube_FW_N6/Drivers/BSP/Components/mx66uw1g45g/mx66uw1g45g.c ****   s_command.DataDTRMode = (Rate == MX66UW1G45G_DTR_TRANSFER)
 2823              		.loc 1 1038 3 is_stmt 1 view .LVU962
1038:STM32Cube_FW_N6/Drivers/BSP/Components/mx66uw1g45g/mx66uw1g45g.c ****   s_command.DataDTRMode = (Rate == MX66UW1G45G_DTR_TRANSFER)
 2824              		.loc 1 1038 22 is_stmt 0 discriminator 4 view .LVU963
 2825 0096 0F91     		str	r1, [sp, #60]
1039:STM32Cube_FW_N6/Drivers/BSP/Components/mx66uw1g45g/mx66uw1g45g.c ****                               ? HAL_XSPI_DATA_DTR_ENABLE
 2826              		.loc 1 1039 3 is_stmt 1 view .LVU964
1043:STM32Cube_FW_N6/Drivers/BSP/Components/mx66uw1g45g/mx66uw1g45g.c ****   s_command.DQSMode = HAL_XSPI_DQS_DISABLE;
 2827              		.loc 1 1043 3 view .LVU965
1043:STM32Cube_FW_N6/Drivers/BSP/Components/mx66uw1g45g/mx66uw1g45g.c ****   s_command.DQSMode = HAL_XSPI_DQS_DISABLE;
 2828              		.loc 1 1043 62 is_stmt 0 view .LVU966
 2829 0098 1BD0     		beq	.L194
1043:STM32Cube_FW_N6/Drivers/BSP/Components/mx66uw1g45g/mx66uw1g45g.c ****   s_command.DQSMode = HAL_XSPI_DQS_DISABLE;
ARM GAS  C:\Users\DJESSOU\AppData\Local\Temp\ccAx4BcF.s 			page 83


 2830              		.loc 1 1043 62 discriminator 4 view .LVU967
 2831 009a 012D     		cmp	r5, #1
 2832 009c 0CBF     		ite	eq
 2833 009e 0223     		moveq	r3, #2
 2834 00a0 0123     		movne	r3, #1
 2835              	.L190:
1043:STM32Cube_FW_N6/Drivers/BSP/Components/mx66uw1g45g/mx66uw1g45g.c ****   s_command.DQSMode = HAL_XSPI_DQS_DISABLE;
 2836              		.loc 1 1043 24 discriminator 8 view .LVU968
 2837 00a2 1093     		str	r3, [sp, #64]
1044:STM32Cube_FW_N6/Drivers/BSP/Components/mx66uw1g45g/mx66uw1g45g.c ****  #if defined (XSPI_CCR_SIOO)
 2838              		.loc 1 1044 3 is_stmt 1 view .LVU969
1044:STM32Cube_FW_N6/Drivers/BSP/Components/mx66uw1g45g/mx66uw1g45g.c ****  #if defined (XSPI_CCR_SIOO)
 2839              		.loc 1 1044 21 is_stmt 0 view .LVU970
 2840 00a4 0023     		movs	r3, #0
1050:STM32Cube_FW_N6/Drivers/BSP/Components/mx66uw1g45g/mx66uw1g45g.c ****   {
 2841              		.loc 1 1050 7 view .LVU971
 2842 00a6 41F28832 		movw	r2, #5000
 2843 00aa 3046     		mov	r0, r6
 2844 00ac 01A9     		add	r1, sp, #4
1044:STM32Cube_FW_N6/Drivers/BSP/Components/mx66uw1g45g/mx66uw1g45g.c ****  #if defined (XSPI_CCR_SIOO)
 2845              		.loc 1 1044 21 view .LVU972
 2846 00ae 1393     		str	r3, [sp, #76]
1050:STM32Cube_FW_N6/Drivers/BSP/Components/mx66uw1g45g/mx66uw1g45g.c ****   {
 2847              		.loc 1 1050 3 is_stmt 1 view .LVU973
1050:STM32Cube_FW_N6/Drivers/BSP/Components/mx66uw1g45g/mx66uw1g45g.c ****   {
 2848              		.loc 1 1050 7 is_stmt 0 view .LVU974
 2849 00b0 FFF7FEFF 		bl	HAL_XSPI_Command
 2850              	.LVL147:
1050:STM32Cube_FW_N6/Drivers/BSP/Components/mx66uw1g45g/mx66uw1g45g.c ****   {
 2851              		.loc 1 1050 6 discriminator 1 view .LVU975
 2852 00b4 0028     		cmp	r0, #0
 2853 00b6 B3D1     		bne	.L187
1055:STM32Cube_FW_N6/Drivers/BSP/Components/mx66uw1g45g/mx66uw1g45g.c ****   {
 2854              		.loc 1 1055 3 is_stmt 1 view .LVU976
1055:STM32Cube_FW_N6/Drivers/BSP/Components/mx66uw1g45g/mx66uw1g45g.c ****   {
 2855              		.loc 1 1055 7 is_stmt 0 view .LVU977
 2856 00b8 41F28832 		movw	r2, #5000
 2857 00bc 6946     		mov	r1, sp
 2858 00be 3046     		mov	r0, r6
 2859 00c0 FFF7FEFF 		bl	HAL_XSPI_Transmit
 2860              	.LVL148:
1055:STM32Cube_FW_N6/Drivers/BSP/Components/mx66uw1g45g/mx66uw1g45g.c ****   {
 2861              		.loc 1 1055 6 discriminator 1 view .LVU978
 2862 00c4 0038     		subs	r0, r0, #0
 2863 00c6 18BF     		it	ne
 2864 00c8 0120     		movne	r0, #1
 2865 00ca 4042     		rsbs	r0, r0, #0
 2866 00cc AAE7     		b	.L183
 2867              	.L191:
1021:STM32Cube_FW_N6/Drivers/BSP/Components/mx66uw1g45g/mx66uw1g45g.c ****   s_command.InstructionDTRMode = (Rate == MX66UW1G45G_DTR_TRANSFER)
 2868              		.loc 1 1021 35 discriminator 2 view .LVU979
 2869 00ce 0421     		movs	r1, #4
 2870 00d0 B5E7     		b	.L184
 2871              	.L194:
1043:STM32Cube_FW_N6/Drivers/BSP/Components/mx66uw1g45g/mx66uw1g45g.c ****   s_command.DQSMode = HAL_XSPI_DQS_DISABLE;
 2872              		.loc 1 1043 62 discriminator 2 view .LVU980
 2873 00d2 0223     		movs	r3, #2
ARM GAS  C:\Users\DJESSOU\AppData\Local\Temp\ccAx4BcF.s 			page 84


 2874 00d4 E5E7     		b	.L190
 2875              		.cfi_endproc
 2876              	.LFE877:
 2878              		.section	.text.MX66UW1G45G_WriteCfg2Register,"ax",%progbits
 2879              		.align	1
 2880              		.global	MX66UW1G45G_WriteCfg2Register
 2881              		.syntax unified
 2882              		.thumb
 2883              		.thumb_func
 2885              	MX66UW1G45G_WriteCfg2Register:
 2886              	.LVL149:
 2887              	.LFB880:
1214:STM32Cube_FW_N6/Drivers/BSP/Components/mx66uw1g45g/mx66uw1g45g.c **** 
1215:STM32Cube_FW_N6/Drivers/BSP/Components/mx66uw1g45g/mx66uw1g45g.c **** /**
1216:STM32Cube_FW_N6/Drivers/BSP/Components/mx66uw1g45g/mx66uw1g45g.c ****   * @brief  Write Flash configuration register 2
1217:STM32Cube_FW_N6/Drivers/BSP/Components/mx66uw1g45g/mx66uw1g45g.c ****   *         SPI/OPI
1218:STM32Cube_FW_N6/Drivers/BSP/Components/mx66uw1g45g/mx66uw1g45g.c ****   * @param  Ctx Component object pointer
1219:STM32Cube_FW_N6/Drivers/BSP/Components/mx66uw1g45g/mx66uw1g45g.c ****   * @param  Mode Interface mode
1220:STM32Cube_FW_N6/Drivers/BSP/Components/mx66uw1g45g/mx66uw1g45g.c ****   * @param  Rate Transfer rate STR or DTR
1221:STM32Cube_FW_N6/Drivers/BSP/Components/mx66uw1g45g/mx66uw1g45g.c ****   * @param  Value Value to write to configuration register
1222:STM32Cube_FW_N6/Drivers/BSP/Components/mx66uw1g45g/mx66uw1g45g.c ****   * @retval error status
1223:STM32Cube_FW_N6/Drivers/BSP/Components/mx66uw1g45g/mx66uw1g45g.c ****   */
1224:STM32Cube_FW_N6/Drivers/BSP/Components/mx66uw1g45g/mx66uw1g45g.c **** int32_t MX66UW1G45G_WriteCfg2Register(XSPI_HandleTypeDef *Ctx, MX66UW1G45G_Interface_t Mode,
1225:STM32Cube_FW_N6/Drivers/BSP/Components/mx66uw1g45g/mx66uw1g45g.c ****                                       MX66UW1G45G_Transfer_t Rate, uint32_t WriteAddr, uint8_t Valu
1226:STM32Cube_FW_N6/Drivers/BSP/Components/mx66uw1g45g/mx66uw1g45g.c **** {
 2888              		.loc 1 1226 1 is_stmt 1 view -0
 2889              		.cfi_startproc
 2890              		@ args = 4, pretend = 0, frame = 80
 2891              		@ frame_needed = 0, uses_anonymous_args = 0
1227:STM32Cube_FW_N6/Drivers/BSP/Components/mx66uw1g45g/mx66uw1g45g.c ****   XSPI_RegularCmdTypeDef s_command = {0};
 2892              		.loc 1 1227 3 view .LVU982
1226:STM32Cube_FW_N6/Drivers/BSP/Components/mx66uw1g45g/mx66uw1g45g.c ****   XSPI_RegularCmdTypeDef s_command = {0};
 2893              		.loc 1 1226 1 is_stmt 0 view .LVU983
 2894 0000 F0B5     		push	{r4, r5, r6, r7, lr}
 2895              		.cfi_def_cfa_offset 20
 2896              		.cfi_offset 4, -20
 2897              		.cfi_offset 5, -16
 2898              		.cfi_offset 6, -12
 2899              		.cfi_offset 7, -8
 2900              		.cfi_offset 14, -4
 2901 0002 0D46     		mov	r5, r1
 2902 0004 95B0     		sub	sp, sp, #84
 2903              		.cfi_def_cfa_offset 104
1226:STM32Cube_FW_N6/Drivers/BSP/Components/mx66uw1g45g/mx66uw1g45g.c ****   XSPI_RegularCmdTypeDef s_command = {0};
 2904              		.loc 1 1226 1 view .LVU984
 2905 0006 0646     		mov	r6, r0
 2906 0008 1446     		mov	r4, r2
 2907              		.loc 1 1227 26 view .LVU985
 2908 000a 0021     		movs	r1, #0
 2909              	.LVL150:
 2910              		.loc 1 1227 26 view .LVU986
 2911 000c 4C22     		movs	r2, #76
 2912              	.LVL151:
 2913              		.loc 1 1227 26 view .LVU987
 2914 000e 01A8     		add	r0, sp, #4
 2915              	.LVL152:
1226:STM32Cube_FW_N6/Drivers/BSP/Components/mx66uw1g45g/mx66uw1g45g.c ****   XSPI_RegularCmdTypeDef s_command = {0};
ARM GAS  C:\Users\DJESSOU\AppData\Local\Temp\ccAx4BcF.s 			page 85


 2916              		.loc 1 1226 1 view .LVU988
 2917 0010 1F46     		mov	r7, r3
 2918              		.loc 1 1227 26 view .LVU989
 2919 0012 FFF7FEFF 		bl	memset
 2920              	.LVL153:
1228:STM32Cube_FW_N6/Drivers/BSP/Components/mx66uw1g45g/mx66uw1g45g.c **** 
1229:STM32Cube_FW_N6/Drivers/BSP/Components/mx66uw1g45g/mx66uw1g45g.c ****   /* SPI mode and DTR transfer not supported by memory */
1230:STM32Cube_FW_N6/Drivers/BSP/Components/mx66uw1g45g/mx66uw1g45g.c ****   if ((Mode == MX66UW1G45G_SPI_MODE) && (Rate == MX66UW1G45G_DTR_TRANSFER))
 2921              		.loc 1 1230 3 is_stmt 1 view .LVU990
 2922              		.loc 1 1230 6 is_stmt 0 view .LVU991
 2923 0016 2DB9     		cbnz	r5, .L197
 2924              		.loc 1 1230 38 discriminator 1 view .LVU992
 2925 0018 012C     		cmp	r4, #1
 2926 001a 40D1     		bne	.L204
 2927              	.L203:
1231:STM32Cube_FW_N6/Drivers/BSP/Components/mx66uw1g45g/mx66uw1g45g.c ****   {
1232:STM32Cube_FW_N6/Drivers/BSP/Components/mx66uw1g45g/mx66uw1g45g.c ****     return MX66UW1G45G_ERROR;
 2928              		.loc 1 1232 12 view .LVU993
 2929 001c 4FF0FF30 		mov	r0, #-1
 2930              	.L196:
1233:STM32Cube_FW_N6/Drivers/BSP/Components/mx66uw1g45g/mx66uw1g45g.c ****   }
1234:STM32Cube_FW_N6/Drivers/BSP/Components/mx66uw1g45g/mx66uw1g45g.c **** 
1235:STM32Cube_FW_N6/Drivers/BSP/Components/mx66uw1g45g/mx66uw1g45g.c ****   /* Initialize the writing of configuration register 2 */
1236:STM32Cube_FW_N6/Drivers/BSP/Components/mx66uw1g45g/mx66uw1g45g.c ****   s_command.OperationType = HAL_XSPI_OPTYPE_COMMON_CFG;
1237:STM32Cube_FW_N6/Drivers/BSP/Components/mx66uw1g45g/mx66uw1g45g.c ****   s_command.InstructionMode = (Mode == MX66UW1G45G_SPI_MODE)
1238:STM32Cube_FW_N6/Drivers/BSP/Components/mx66uw1g45g/mx66uw1g45g.c ****                                   ? HAL_XSPI_INSTRUCTION_1_LINE
1239:STM32Cube_FW_N6/Drivers/BSP/Components/mx66uw1g45g/mx66uw1g45g.c ****                                   : HAL_XSPI_INSTRUCTION_8_LINES;
1240:STM32Cube_FW_N6/Drivers/BSP/Components/mx66uw1g45g/mx66uw1g45g.c ****   s_command.InstructionDTRMode = (Rate == MX66UW1G45G_DTR_TRANSFER)
1241:STM32Cube_FW_N6/Drivers/BSP/Components/mx66uw1g45g/mx66uw1g45g.c ****                                      ? HAL_XSPI_INSTRUCTION_DTR_ENABLE
1242:STM32Cube_FW_N6/Drivers/BSP/Components/mx66uw1g45g/mx66uw1g45g.c ****                                      : HAL_XSPI_INSTRUCTION_DTR_DISABLE;
1243:STM32Cube_FW_N6/Drivers/BSP/Components/mx66uw1g45g/mx66uw1g45g.c ****   s_command.InstructionWidth = (Mode == MX66UW1G45G_SPI_MODE)
1244:STM32Cube_FW_N6/Drivers/BSP/Components/mx66uw1g45g/mx66uw1g45g.c ****                                    ? HAL_XSPI_INSTRUCTION_8_BITS
1245:STM32Cube_FW_N6/Drivers/BSP/Components/mx66uw1g45g/mx66uw1g45g.c ****                                    : HAL_XSPI_INSTRUCTION_16_BITS;
1246:STM32Cube_FW_N6/Drivers/BSP/Components/mx66uw1g45g/mx66uw1g45g.c ****   s_command.Instruction = (Mode == MX66UW1G45G_SPI_MODE)
1247:STM32Cube_FW_N6/Drivers/BSP/Components/mx66uw1g45g/mx66uw1g45g.c ****                               ? MX66UW1G45G_WRITE_CFG_REG2_CMD
1248:STM32Cube_FW_N6/Drivers/BSP/Components/mx66uw1g45g/mx66uw1g45g.c ****                               : MX66UW1G45G_OCTA_WRITE_CFG_REG2_CMD;
1249:STM32Cube_FW_N6/Drivers/BSP/Components/mx66uw1g45g/mx66uw1g45g.c ****   s_command.AddressMode = (Mode == MX66UW1G45G_SPI_MODE) ? HAL_XSPI_ADDRESS_1_LINE : HAL_XSPI_ADDRE
1250:STM32Cube_FW_N6/Drivers/BSP/Components/mx66uw1g45g/mx66uw1g45g.c ****   s_command.AddressDTRMode = (Rate == MX66UW1G45G_DTR_TRANSFER)
1251:STM32Cube_FW_N6/Drivers/BSP/Components/mx66uw1g45g/mx66uw1g45g.c ****                                  ? HAL_XSPI_ADDRESS_DTR_ENABLE
1252:STM32Cube_FW_N6/Drivers/BSP/Components/mx66uw1g45g/mx66uw1g45g.c ****                                  : HAL_XSPI_ADDRESS_DTR_DISABLE;
1253:STM32Cube_FW_N6/Drivers/BSP/Components/mx66uw1g45g/mx66uw1g45g.c ****   s_command.AddressWidth = HAL_XSPI_ADDRESS_32_BITS;
1254:STM32Cube_FW_N6/Drivers/BSP/Components/mx66uw1g45g/mx66uw1g45g.c ****   s_command.Address = WriteAddr;
1255:STM32Cube_FW_N6/Drivers/BSP/Components/mx66uw1g45g/mx66uw1g45g.c ****   s_command.AlternateBytesMode = HAL_XSPI_ALT_BYTES_NONE;
1256:STM32Cube_FW_N6/Drivers/BSP/Components/mx66uw1g45g/mx66uw1g45g.c ****   s_command.DataMode = (Mode == MX66UW1G45G_SPI_MODE) ? HAL_XSPI_DATA_1_LINE : HAL_XSPI_DATA_8_LINE
1257:STM32Cube_FW_N6/Drivers/BSP/Components/mx66uw1g45g/mx66uw1g45g.c ****   s_command.DataDTRMode = (Rate == MX66UW1G45G_DTR_TRANSFER)
1258:STM32Cube_FW_N6/Drivers/BSP/Components/mx66uw1g45g/mx66uw1g45g.c ****                               ? HAL_XSPI_DATA_DTR_ENABLE
1259:STM32Cube_FW_N6/Drivers/BSP/Components/mx66uw1g45g/mx66uw1g45g.c ****                               : HAL_XSPI_DATA_DTR_DISABLE;
1260:STM32Cube_FW_N6/Drivers/BSP/Components/mx66uw1g45g/mx66uw1g45g.c ****   s_command.DummyCycles = 0U;
1261:STM32Cube_FW_N6/Drivers/BSP/Components/mx66uw1g45g/mx66uw1g45g.c ****   s_command.DataLength = (Mode == MX66UW1G45G_SPI_MODE) ? 1U : ((Rate == MX66UW1G45G_DTR_TRANSFER) 
1262:STM32Cube_FW_N6/Drivers/BSP/Components/mx66uw1g45g/mx66uw1g45g.c ****   s_command.DQSMode = HAL_XSPI_DQS_DISABLE;
1263:STM32Cube_FW_N6/Drivers/BSP/Components/mx66uw1g45g/mx66uw1g45g.c ****  #if defined (XSPI_CCR_SIOO)
1264:STM32Cube_FW_N6/Drivers/BSP/Components/mx66uw1g45g/mx66uw1g45g.c ****   s_command.SIOOMode            = HAL_XSPI_SIOO_INST_EVERY_CMD;
1265:STM32Cube_FW_N6/Drivers/BSP/Components/mx66uw1g45g/mx66uw1g45g.c ****  #endif
1266:STM32Cube_FW_N6/Drivers/BSP/Components/mx66uw1g45g/mx66uw1g45g.c **** 
1267:STM32Cube_FW_N6/Drivers/BSP/Components/mx66uw1g45g/mx66uw1g45g.c ****   /* Send the command */
1268:STM32Cube_FW_N6/Drivers/BSP/Components/mx66uw1g45g/mx66uw1g45g.c ****   if (HAL_XSPI_Command(Ctx, &s_command, HAL_XSPI_TIMEOUT_DEFAULT_VALUE) != HAL_OK)
1269:STM32Cube_FW_N6/Drivers/BSP/Components/mx66uw1g45g/mx66uw1g45g.c ****   {
ARM GAS  C:\Users\DJESSOU\AppData\Local\Temp\ccAx4BcF.s 			page 86


1270:STM32Cube_FW_N6/Drivers/BSP/Components/mx66uw1g45g/mx66uw1g45g.c ****     return MX66UW1G45G_ERROR;
1271:STM32Cube_FW_N6/Drivers/BSP/Components/mx66uw1g45g/mx66uw1g45g.c ****   }
1272:STM32Cube_FW_N6/Drivers/BSP/Components/mx66uw1g45g/mx66uw1g45g.c **** 
1273:STM32Cube_FW_N6/Drivers/BSP/Components/mx66uw1g45g/mx66uw1g45g.c ****   if (HAL_XSPI_Transmit(Ctx, &Value, HAL_XSPI_TIMEOUT_DEFAULT_VALUE) != HAL_OK)
1274:STM32Cube_FW_N6/Drivers/BSP/Components/mx66uw1g45g/mx66uw1g45g.c ****   {
1275:STM32Cube_FW_N6/Drivers/BSP/Components/mx66uw1g45g/mx66uw1g45g.c ****     return MX66UW1G45G_ERROR;
1276:STM32Cube_FW_N6/Drivers/BSP/Components/mx66uw1g45g/mx66uw1g45g.c ****   }
1277:STM32Cube_FW_N6/Drivers/BSP/Components/mx66uw1g45g/mx66uw1g45g.c **** 
1278:STM32Cube_FW_N6/Drivers/BSP/Components/mx66uw1g45g/mx66uw1g45g.c ****   return MX66UW1G45G_OK;
1279:STM32Cube_FW_N6/Drivers/BSP/Components/mx66uw1g45g/mx66uw1g45g.c **** }
 2931              		.loc 1 1279 1 view .LVU994
 2932 0020 15B0     		add	sp, sp, #84
 2933              		.cfi_remember_state
 2934              		.cfi_def_cfa_offset 20
 2935              		@ sp needed
 2936 0022 F0BD     		pop	{r4, r5, r6, r7, pc}
 2937              	.LVL154:
 2938              	.L197:
 2939              		.cfi_restore_state
1240:STM32Cube_FW_N6/Drivers/BSP/Components/mx66uw1g45g/mx66uw1g45g.c ****                                      ? HAL_XSPI_INSTRUCTION_DTR_ENABLE
 2940              		.loc 1 1240 3 is_stmt 1 view .LVU995
 2941 0024 0423     		movs	r3, #4
1242:STM32Cube_FW_N6/Drivers/BSP/Components/mx66uw1g45g/mx66uw1g45g.c ****   s_command.InstructionWidth = (Mode == MX66UW1G45G_SPI_MODE)
 2942              		.loc 1 1242 38 is_stmt 0 view .LVU996
 2943 0026 611E     		subs	r1, r4, #1
 2944 0028 4A42     		rsbs	r2, r1, #0
 2945 002a 4A41     		adcs	r2, r2, r1
 2946 002c D200     		lsls	r2, r2, #3
 2947              	.L198:
1237:STM32Cube_FW_N6/Drivers/BSP/Components/mx66uw1g45g/mx66uw1g45g.c ****                                   ? HAL_XSPI_INSTRUCTION_1_LINE
 2948              		.loc 1 1237 29 view .LVU997
 2949 002e 0493     		str	r3, [sp, #16]
1240:STM32Cube_FW_N6/Drivers/BSP/Components/mx66uw1g45g/mx66uw1g45g.c ****                                      ? HAL_XSPI_INSTRUCTION_DTR_ENABLE
 2950              		.loc 1 1240 32 view .LVU998
 2951 0030 0692     		str	r2, [sp, #24]
1243:STM32Cube_FW_N6/Drivers/BSP/Components/mx66uw1g45g/mx66uw1g45g.c ****                                    ? HAL_XSPI_INSTRUCTION_8_BITS
 2952              		.loc 1 1243 3 is_stmt 1 view .LVU999
1245:STM32Cube_FW_N6/Drivers/BSP/Components/mx66uw1g45g/mx66uw1g45g.c ****   s_command.Instruction = (Mode == MX66UW1G45G_SPI_MODE)
 2953              		.loc 1 1245 36 is_stmt 0 view .LVU1000
 2954 0032 002D     		cmp	r5, #0
 2955 0034 36D0     		beq	.L205
1243:STM32Cube_FW_N6/Drivers/BSP/Components/mx66uw1g45g/mx66uw1g45g.c ****                                    ? HAL_XSPI_INSTRUCTION_8_BITS
 2956              		.loc 1 1243 30 view .LVU1001
 2957 0036 1023     		movs	r3, #16
 2958 0038 47F28D22 		movw	r2, #29325
 2959 003c 0593     		str	r3, [sp, #20]
1246:STM32Cube_FW_N6/Drivers/BSP/Components/mx66uw1g45g/mx66uw1g45g.c ****                               ? MX66UW1G45G_WRITE_CFG_REG2_CMD
 2960              		.loc 1 1246 3 is_stmt 1 view .LVU1002
1249:STM32Cube_FW_N6/Drivers/BSP/Components/mx66uw1g45g/mx66uw1g45g.c ****   s_command.AddressDTRMode = (Rate == MX66UW1G45G_DTR_TRANSFER)
 2961              		.loc 1 1249 3 view .LVU1003
1249:STM32Cube_FW_N6/Drivers/BSP/Components/mx66uw1g45g/mx66uw1g45g.c ****   s_command.AddressDTRMode = (Rate == MX66UW1G45G_DTR_TRANSFER)
 2962              		.loc 1 1249 84 is_stmt 0 discriminator 2 view .LVU1004
 2963 003e 4FF48063 		mov	r3, #1024
 2964              	.L200:
1249:STM32Cube_FW_N6/Drivers/BSP/Components/mx66uw1g45g/mx66uw1g45g.c ****   s_command.AddressDTRMode = (Rate == MX66UW1G45G_DTR_TRANSFER)
 2965              		.loc 1 1249 25 discriminator 4 view .LVU1005
 2966 0042 0893     		str	r3, [sp, #32]
ARM GAS  C:\Users\DJESSOU\AppData\Local\Temp\ccAx4BcF.s 			page 87


1250:STM32Cube_FW_N6/Drivers/BSP/Components/mx66uw1g45g/mx66uw1g45g.c ****                                  ? HAL_XSPI_ADDRESS_DTR_ENABLE
 2967              		.loc 1 1250 3 is_stmt 1 view .LVU1006
1252:STM32Cube_FW_N6/Drivers/BSP/Components/mx66uw1g45g/mx66uw1g45g.c ****   s_command.AddressWidth = HAL_XSPI_ADDRESS_32_BITS;
 2968              		.loc 1 1252 34 is_stmt 0 view .LVU1007
 2969 0044 631E     		subs	r3, r4, #1
1246:STM32Cube_FW_N6/Drivers/BSP/Components/mx66uw1g45g/mx66uw1g45g.c ****                               ? MX66UW1G45G_WRITE_CFG_REG2_CMD
 2970              		.loc 1 1246 25 view .LVU1008
 2971 0046 0392     		str	r2, [sp, #12]
1252:STM32Cube_FW_N6/Drivers/BSP/Components/mx66uw1g45g/mx66uw1g45g.c ****   s_command.AddressWidth = HAL_XSPI_ADDRESS_32_BITS;
 2972              		.loc 1 1252 34 view .LVU1009
 2973 0048 5A42     		rsbs	r2, r3, #0
 2974 004a 5A41     		adcs	r2, r2, r3
 2975 004c D302     		lsls	r3, r2, #11
1250:STM32Cube_FW_N6/Drivers/BSP/Components/mx66uw1g45g/mx66uw1g45g.c ****                                  ? HAL_XSPI_ADDRESS_DTR_ENABLE
 2976              		.loc 1 1250 28 view .LVU1010
 2977 004e 0A93     		str	r3, [sp, #40]
1253:STM32Cube_FW_N6/Drivers/BSP/Components/mx66uw1g45g/mx66uw1g45g.c ****   s_command.Address = WriteAddr;
 2978              		.loc 1 1253 3 is_stmt 1 view .LVU1011
1253:STM32Cube_FW_N6/Drivers/BSP/Components/mx66uw1g45g/mx66uw1g45g.c ****   s_command.Address = WriteAddr;
 2979              		.loc 1 1253 26 is_stmt 0 view .LVU1012
 2980 0050 4FF44053 		mov	r3, #12288
1256:STM32Cube_FW_N6/Drivers/BSP/Components/mx66uw1g45g/mx66uw1g45g.c ****   s_command.DataDTRMode = (Rate == MX66UW1G45G_DTR_TRANSFER)
 2981              		.loc 1 1256 78 discriminator 1 view .LVU1013
 2982 0054 002D     		cmp	r5, #0
1253:STM32Cube_FW_N6/Drivers/BSP/Components/mx66uw1g45g/mx66uw1g45g.c ****   s_command.Address = WriteAddr;
 2983              		.loc 1 1253 26 view .LVU1014
 2984 0056 0993     		str	r3, [sp, #36]
1254:STM32Cube_FW_N6/Drivers/BSP/Components/mx66uw1g45g/mx66uw1g45g.c ****   s_command.AlternateBytesMode = HAL_XSPI_ALT_BYTES_NONE;
 2985              		.loc 1 1254 3 is_stmt 1 view .LVU1015
1256:STM32Cube_FW_N6/Drivers/BSP/Components/mx66uw1g45g/mx66uw1g45g.c ****   s_command.DataDTRMode = (Rate == MX66UW1G45G_DTR_TRANSFER)
 2986              		.loc 1 1256 78 is_stmt 0 discriminator 1 view .LVU1016
 2987 0058 14BF     		ite	ne
 2988 005a 4FF08063 		movne	r3, #67108864
 2989 005e 4FF08073 		moveq	r3, #16777216
1259:STM32Cube_FW_N6/Drivers/BSP/Components/mx66uw1g45g/mx66uw1g45g.c ****   s_command.DummyCycles = 0U;
 2990              		.loc 1 1259 31 view .LVU1017
 2991 0062 4FEAC262 		lsl	r2, r2, #27
1254:STM32Cube_FW_N6/Drivers/BSP/Components/mx66uw1g45g/mx66uw1g45g.c ****   s_command.AlternateBytesMode = HAL_XSPI_ALT_BYTES_NONE;
 2992              		.loc 1 1254 21 view .LVU1018
 2993 0066 0797     		str	r7, [sp, #28]
1255:STM32Cube_FW_N6/Drivers/BSP/Components/mx66uw1g45g/mx66uw1g45g.c ****   s_command.DataMode = (Mode == MX66UW1G45G_SPI_MODE) ? HAL_XSPI_DATA_1_LINE : HAL_XSPI_DATA_8_LINE
 2994              		.loc 1 1255 3 is_stmt 1 view .LVU1019
1256:STM32Cube_FW_N6/Drivers/BSP/Components/mx66uw1g45g/mx66uw1g45g.c ****   s_command.DataDTRMode = (Rate == MX66UW1G45G_DTR_TRANSFER)
 2995              		.loc 1 1256 3 view .LVU1020
1256:STM32Cube_FW_N6/Drivers/BSP/Components/mx66uw1g45g/mx66uw1g45g.c ****   s_command.DataDTRMode = (Rate == MX66UW1G45G_DTR_TRANSFER)
 2996              		.loc 1 1256 22 is_stmt 0 discriminator 4 view .LVU1021
 2997 0068 0F93     		str	r3, [sp, #60]
1257:STM32Cube_FW_N6/Drivers/BSP/Components/mx66uw1g45g/mx66uw1g45g.c ****                               ? HAL_XSPI_DATA_DTR_ENABLE
 2998              		.loc 1 1257 3 is_stmt 1 view .LVU1022
1257:STM32Cube_FW_N6/Drivers/BSP/Components/mx66uw1g45g/mx66uw1g45g.c ****                               ? HAL_XSPI_DATA_DTR_ENABLE
 2999              		.loc 1 1257 25 is_stmt 0 view .LVU1023
 3000 006a 1192     		str	r2, [sp, #68]
1260:STM32Cube_FW_N6/Drivers/BSP/Components/mx66uw1g45g/mx66uw1g45g.c ****   s_command.DataLength = (Mode == MX66UW1G45G_SPI_MODE) ? 1U : ((Rate == MX66UW1G45G_DTR_TRANSFER) 
 3001              		.loc 1 1260 3 is_stmt 1 view .LVU1024
1261:STM32Cube_FW_N6/Drivers/BSP/Components/mx66uw1g45g/mx66uw1g45g.c ****   s_command.DQSMode = HAL_XSPI_DQS_DISABLE;
 3002              		.loc 1 1261 3 view .LVU1025
1261:STM32Cube_FW_N6/Drivers/BSP/Components/mx66uw1g45g/mx66uw1g45g.c ****   s_command.DQSMode = HAL_XSPI_DQS_DISABLE;
ARM GAS  C:\Users\DJESSOU\AppData\Local\Temp\ccAx4BcF.s 			page 88


 3003              		.loc 1 1261 62 is_stmt 0 view .LVU1026
 3004 006c 1ED0     		beq	.L207
1261:STM32Cube_FW_N6/Drivers/BSP/Components/mx66uw1g45g/mx66uw1g45g.c ****   s_command.DQSMode = HAL_XSPI_DQS_DISABLE;
 3005              		.loc 1 1261 62 discriminator 4 view .LVU1027
 3006 006e 012C     		cmp	r4, #1
 3007 0070 0CBF     		ite	eq
 3008 0072 0223     		moveq	r3, #2
 3009 0074 0123     		movne	r3, #1
 3010              	.L202:
1268:STM32Cube_FW_N6/Drivers/BSP/Components/mx66uw1g45g/mx66uw1g45g.c ****   {
 3011              		.loc 1 1268 7 view .LVU1028
 3012 0076 41F28832 		movw	r2, #5000
 3013 007a 3046     		mov	r0, r6
 3014 007c 01A9     		add	r1, sp, #4
1261:STM32Cube_FW_N6/Drivers/BSP/Components/mx66uw1g45g/mx66uw1g45g.c ****   s_command.DQSMode = HAL_XSPI_DQS_DISABLE;
 3015              		.loc 1 1261 24 discriminator 8 view .LVU1029
 3016 007e 1093     		str	r3, [sp, #64]
1262:STM32Cube_FW_N6/Drivers/BSP/Components/mx66uw1g45g/mx66uw1g45g.c ****  #if defined (XSPI_CCR_SIOO)
 3017              		.loc 1 1262 3 is_stmt 1 view .LVU1030
1268:STM32Cube_FW_N6/Drivers/BSP/Components/mx66uw1g45g/mx66uw1g45g.c ****   {
 3018              		.loc 1 1268 3 view .LVU1031
1268:STM32Cube_FW_N6/Drivers/BSP/Components/mx66uw1g45g/mx66uw1g45g.c ****   {
 3019              		.loc 1 1268 7 is_stmt 0 view .LVU1032
 3020 0080 FFF7FEFF 		bl	HAL_XSPI_Command
 3021              	.LVL155:
1268:STM32Cube_FW_N6/Drivers/BSP/Components/mx66uw1g45g/mx66uw1g45g.c ****   {
 3022              		.loc 1 1268 6 discriminator 1 view .LVU1033
 3023 0084 0028     		cmp	r0, #0
 3024 0086 C9D1     		bne	.L203
1273:STM32Cube_FW_N6/Drivers/BSP/Components/mx66uw1g45g/mx66uw1g45g.c ****   {
 3025              		.loc 1 1273 3 is_stmt 1 view .LVU1034
1273:STM32Cube_FW_N6/Drivers/BSP/Components/mx66uw1g45g/mx66uw1g45g.c ****   {
 3026              		.loc 1 1273 7 is_stmt 0 view .LVU1035
 3027 0088 41F28832 		movw	r2, #5000
 3028 008c 3046     		mov	r0, r6
 3029 008e 1AA9     		add	r1, sp, #104
 3030 0090 FFF7FEFF 		bl	HAL_XSPI_Transmit
 3031              	.LVL156:
1273:STM32Cube_FW_N6/Drivers/BSP/Components/mx66uw1g45g/mx66uw1g45g.c ****   {
 3032              		.loc 1 1273 6 discriminator 1 view .LVU1036
 3033 0094 0038     		subs	r0, r0, #0
 3034 0096 18BF     		it	ne
 3035 0098 0120     		movne	r0, #1
 3036 009a 4042     		rsbs	r0, r0, #0
 3037 009c C0E7     		b	.L196
 3038              	.L204:
1273:STM32Cube_FW_N6/Drivers/BSP/Components/mx66uw1g45g/mx66uw1g45g.c ****   {
 3039              		.loc 1 1273 6 discriminator 1 view .LVU1037
 3040 009e 0123     		movs	r3, #1
1242:STM32Cube_FW_N6/Drivers/BSP/Components/mx66uw1g45g/mx66uw1g45g.c ****   s_command.InstructionWidth = (Mode == MX66UW1G45G_SPI_MODE)
 3041              		.loc 1 1242 38 discriminator 2 view .LVU1038
 3042 00a0 2A46     		mov	r2, r5
 3043 00a2 C4E7     		b	.L198
 3044              	.L205:
 3045 00a4 7222     		movs	r2, #114
1249:STM32Cube_FW_N6/Drivers/BSP/Components/mx66uw1g45g/mx66uw1g45g.c ****   s_command.AddressDTRMode = (Rate == MX66UW1G45G_DTR_TRANSFER)
 3046              		.loc 1 1249 84 discriminator 1 view .LVU1039
ARM GAS  C:\Users\DJESSOU\AppData\Local\Temp\ccAx4BcF.s 			page 89


 3047 00a6 4FF48073 		mov	r3, #256
 3048 00aa CAE7     		b	.L200
 3049              	.L207:
1261:STM32Cube_FW_N6/Drivers/BSP/Components/mx66uw1g45g/mx66uw1g45g.c ****   s_command.DQSMode = HAL_XSPI_DQS_DISABLE;
 3050              		.loc 1 1261 62 discriminator 4 view .LVU1040
 3051 00ac 0123     		movs	r3, #1
 3052 00ae E2E7     		b	.L202
 3053              		.cfi_endproc
 3054              	.LFE880:
 3056              		.section	.text.MX66UW1G45G_ReadCfg2Register,"ax",%progbits
 3057              		.align	1
 3058              		.global	MX66UW1G45G_ReadCfg2Register
 3059              		.syntax unified
 3060              		.thumb
 3061              		.thumb_func
 3063              	MX66UW1G45G_ReadCfg2Register:
 3064              	.LVL157:
 3065              	.LFB881:
1280:STM32Cube_FW_N6/Drivers/BSP/Components/mx66uw1g45g/mx66uw1g45g.c **** 
1281:STM32Cube_FW_N6/Drivers/BSP/Components/mx66uw1g45g/mx66uw1g45g.c **** /**
1282:STM32Cube_FW_N6/Drivers/BSP/Components/mx66uw1g45g/mx66uw1g45g.c ****   * @brief  Read Flash configuration register 2 value
1283:STM32Cube_FW_N6/Drivers/BSP/Components/mx66uw1g45g/mx66uw1g45g.c ****   *         SPI/OPI
1284:STM32Cube_FW_N6/Drivers/BSP/Components/mx66uw1g45g/mx66uw1g45g.c ****   * @param  Ctx Component object pointer
1285:STM32Cube_FW_N6/Drivers/BSP/Components/mx66uw1g45g/mx66uw1g45g.c ****   * @param  Mode Interface mode
1286:STM32Cube_FW_N6/Drivers/BSP/Components/mx66uw1g45g/mx66uw1g45g.c ****   * @param  Rate Transfer rate STR or DTR
1287:STM32Cube_FW_N6/Drivers/BSP/Components/mx66uw1g45g/mx66uw1g45g.c ****   * @param  Value configuration register 2 value pointer
1288:STM32Cube_FW_N6/Drivers/BSP/Components/mx66uw1g45g/mx66uw1g45g.c ****   * @retval error status
1289:STM32Cube_FW_N6/Drivers/BSP/Components/mx66uw1g45g/mx66uw1g45g.c ****   */
1290:STM32Cube_FW_N6/Drivers/BSP/Components/mx66uw1g45g/mx66uw1g45g.c **** int32_t MX66UW1G45G_ReadCfg2Register(XSPI_HandleTypeDef *Ctx, MX66UW1G45G_Interface_t Mode,
1291:STM32Cube_FW_N6/Drivers/BSP/Components/mx66uw1g45g/mx66uw1g45g.c ****                                      MX66UW1G45G_Transfer_t Rate, uint32_t ReadAddr, uint8_t *Value
1292:STM32Cube_FW_N6/Drivers/BSP/Components/mx66uw1g45g/mx66uw1g45g.c **** {
 3066              		.loc 1 1292 1 is_stmt 1 view -0
 3067              		.cfi_startproc
 3068              		@ args = 4, pretend = 0, frame = 80
 3069              		@ frame_needed = 0, uses_anonymous_args = 0
1293:STM32Cube_FW_N6/Drivers/BSP/Components/mx66uw1g45g/mx66uw1g45g.c ****   XSPI_RegularCmdTypeDef s_command = {0};
 3070              		.loc 1 1293 3 view .LVU1042
1292:STM32Cube_FW_N6/Drivers/BSP/Components/mx66uw1g45g/mx66uw1g45g.c ****   XSPI_RegularCmdTypeDef s_command = {0};
 3071              		.loc 1 1292 1 is_stmt 0 view .LVU1043
 3072 0000 F0B5     		push	{r4, r5, r6, r7, lr}
 3073              		.cfi_def_cfa_offset 20
 3074              		.cfi_offset 4, -20
 3075              		.cfi_offset 5, -16
 3076              		.cfi_offset 6, -12
 3077              		.cfi_offset 7, -8
 3078              		.cfi_offset 14, -4
 3079 0002 0D46     		mov	r5, r1
 3080 0004 95B0     		sub	sp, sp, #84
 3081              		.cfi_def_cfa_offset 104
1292:STM32Cube_FW_N6/Drivers/BSP/Components/mx66uw1g45g/mx66uw1g45g.c ****   XSPI_RegularCmdTypeDef s_command = {0};
 3082              		.loc 1 1292 1 view .LVU1044
 3083 0006 0646     		mov	r6, r0
 3084 0008 1446     		mov	r4, r2
 3085              		.loc 1 1293 26 view .LVU1045
 3086 000a 0021     		movs	r1, #0
 3087              	.LVL158:
 3088              		.loc 1 1293 26 view .LVU1046
ARM GAS  C:\Users\DJESSOU\AppData\Local\Temp\ccAx4BcF.s 			page 90


 3089 000c 4C22     		movs	r2, #76
 3090              	.LVL159:
 3091              		.loc 1 1293 26 view .LVU1047
 3092 000e 01A8     		add	r0, sp, #4
 3093              	.LVL160:
1292:STM32Cube_FW_N6/Drivers/BSP/Components/mx66uw1g45g/mx66uw1g45g.c ****   XSPI_RegularCmdTypeDef s_command = {0};
 3094              		.loc 1 1292 1 view .LVU1048
 3095 0010 1F46     		mov	r7, r3
 3096              		.loc 1 1293 26 view .LVU1049
 3097 0012 FFF7FEFF 		bl	memset
 3098              	.LVL161:
1294:STM32Cube_FW_N6/Drivers/BSP/Components/mx66uw1g45g/mx66uw1g45g.c **** 
1295:STM32Cube_FW_N6/Drivers/BSP/Components/mx66uw1g45g/mx66uw1g45g.c ****   /* SPI mode and DTR transfer not supported by memory */
1296:STM32Cube_FW_N6/Drivers/BSP/Components/mx66uw1g45g/mx66uw1g45g.c ****   if ((Mode == MX66UW1G45G_SPI_MODE) && (Rate == MX66UW1G45G_DTR_TRANSFER))
 3099              		.loc 1 1296 3 is_stmt 1 view .LVU1050
 3100              		.loc 1 1296 6 is_stmt 0 view .LVU1051
 3101 0016 2DB9     		cbnz	r5, .L210
 3102              		.loc 1 1296 38 discriminator 1 view .LVU1052
 3103 0018 012C     		cmp	r4, #1
 3104 001a 44D1     		bne	.L221
 3105              	.L220:
1297:STM32Cube_FW_N6/Drivers/BSP/Components/mx66uw1g45g/mx66uw1g45g.c ****   {
1298:STM32Cube_FW_N6/Drivers/BSP/Components/mx66uw1g45g/mx66uw1g45g.c ****     return MX66UW1G45G_ERROR;
 3106              		.loc 1 1298 12 view .LVU1053
 3107 001c 4FF0FF30 		mov	r0, #-1
 3108              	.L209:
1299:STM32Cube_FW_N6/Drivers/BSP/Components/mx66uw1g45g/mx66uw1g45g.c ****   }
1300:STM32Cube_FW_N6/Drivers/BSP/Components/mx66uw1g45g/mx66uw1g45g.c **** 
1301:STM32Cube_FW_N6/Drivers/BSP/Components/mx66uw1g45g/mx66uw1g45g.c ****   /* Initialize the reading of status register */
1302:STM32Cube_FW_N6/Drivers/BSP/Components/mx66uw1g45g/mx66uw1g45g.c ****   s_command.OperationType = HAL_XSPI_OPTYPE_COMMON_CFG;
1303:STM32Cube_FW_N6/Drivers/BSP/Components/mx66uw1g45g/mx66uw1g45g.c ****   s_command.InstructionMode = (Mode == MX66UW1G45G_SPI_MODE)
1304:STM32Cube_FW_N6/Drivers/BSP/Components/mx66uw1g45g/mx66uw1g45g.c ****                                   ? HAL_XSPI_INSTRUCTION_1_LINE
1305:STM32Cube_FW_N6/Drivers/BSP/Components/mx66uw1g45g/mx66uw1g45g.c ****                                   : HAL_XSPI_INSTRUCTION_8_LINES;
1306:STM32Cube_FW_N6/Drivers/BSP/Components/mx66uw1g45g/mx66uw1g45g.c ****   s_command.InstructionDTRMode = (Rate == MX66UW1G45G_DTR_TRANSFER)
1307:STM32Cube_FW_N6/Drivers/BSP/Components/mx66uw1g45g/mx66uw1g45g.c ****                                      ? HAL_XSPI_INSTRUCTION_DTR_ENABLE
1308:STM32Cube_FW_N6/Drivers/BSP/Components/mx66uw1g45g/mx66uw1g45g.c ****                                      : HAL_XSPI_INSTRUCTION_DTR_DISABLE;
1309:STM32Cube_FW_N6/Drivers/BSP/Components/mx66uw1g45g/mx66uw1g45g.c ****   s_command.InstructionWidth = (Mode == MX66UW1G45G_SPI_MODE)
1310:STM32Cube_FW_N6/Drivers/BSP/Components/mx66uw1g45g/mx66uw1g45g.c ****                                    ? HAL_XSPI_INSTRUCTION_8_BITS
1311:STM32Cube_FW_N6/Drivers/BSP/Components/mx66uw1g45g/mx66uw1g45g.c ****                                    : HAL_XSPI_INSTRUCTION_16_BITS;
1312:STM32Cube_FW_N6/Drivers/BSP/Components/mx66uw1g45g/mx66uw1g45g.c ****   s_command.Instruction = (Mode == MX66UW1G45G_SPI_MODE)
1313:STM32Cube_FW_N6/Drivers/BSP/Components/mx66uw1g45g/mx66uw1g45g.c ****                               ? MX66UW1G45G_READ_CFG_REG2_CMD
1314:STM32Cube_FW_N6/Drivers/BSP/Components/mx66uw1g45g/mx66uw1g45g.c ****                               : MX66UW1G45G_OCTA_READ_CFG_REG2_CMD;
1315:STM32Cube_FW_N6/Drivers/BSP/Components/mx66uw1g45g/mx66uw1g45g.c ****   s_command.AddressMode = (Mode == MX66UW1G45G_SPI_MODE) ? HAL_XSPI_ADDRESS_1_LINE : HAL_XSPI_ADDRE
1316:STM32Cube_FW_N6/Drivers/BSP/Components/mx66uw1g45g/mx66uw1g45g.c ****   s_command.AddressDTRMode = (Rate == MX66UW1G45G_DTR_TRANSFER)
1317:STM32Cube_FW_N6/Drivers/BSP/Components/mx66uw1g45g/mx66uw1g45g.c ****                                  ? HAL_XSPI_ADDRESS_DTR_ENABLE
1318:STM32Cube_FW_N6/Drivers/BSP/Components/mx66uw1g45g/mx66uw1g45g.c ****                                  : HAL_XSPI_ADDRESS_DTR_DISABLE;
1319:STM32Cube_FW_N6/Drivers/BSP/Components/mx66uw1g45g/mx66uw1g45g.c ****   s_command.AddressWidth = HAL_XSPI_ADDRESS_32_BITS;
1320:STM32Cube_FW_N6/Drivers/BSP/Components/mx66uw1g45g/mx66uw1g45g.c ****   s_command.Address = ReadAddr;
1321:STM32Cube_FW_N6/Drivers/BSP/Components/mx66uw1g45g/mx66uw1g45g.c ****   s_command.AlternateBytesMode = HAL_XSPI_ALT_BYTES_NONE;
1322:STM32Cube_FW_N6/Drivers/BSP/Components/mx66uw1g45g/mx66uw1g45g.c ****   s_command.DataMode = (Mode == MX66UW1G45G_SPI_MODE) ? HAL_XSPI_DATA_1_LINE : HAL_XSPI_DATA_8_LINE
1323:STM32Cube_FW_N6/Drivers/BSP/Components/mx66uw1g45g/mx66uw1g45g.c ****   s_command.DataDTRMode = (Rate == MX66UW1G45G_DTR_TRANSFER)
1324:STM32Cube_FW_N6/Drivers/BSP/Components/mx66uw1g45g/mx66uw1g45g.c ****                               ? HAL_XSPI_DATA_DTR_ENABLE
1325:STM32Cube_FW_N6/Drivers/BSP/Components/mx66uw1g45g/mx66uw1g45g.c ****                               : HAL_XSPI_DATA_DTR_DISABLE;
1326:STM32Cube_FW_N6/Drivers/BSP/Components/mx66uw1g45g/mx66uw1g45g.c ****   s_command.DummyCycles = (Mode == MX66UW1G45G_SPI_MODE)
1327:STM32Cube_FW_N6/Drivers/BSP/Components/mx66uw1g45g/mx66uw1g45g.c ****                               ? 0U
1328:STM32Cube_FW_N6/Drivers/BSP/Components/mx66uw1g45g/mx66uw1g45g.c ****                               : ((Rate == MX66UW1G45G_DTR_TRANSFER)
1329:STM32Cube_FW_N6/Drivers/BSP/Components/mx66uw1g45g/mx66uw1g45g.c ****                                      ? DUMMY_CYCLES_REG_OCTAL_DTR
ARM GAS  C:\Users\DJESSOU\AppData\Local\Temp\ccAx4BcF.s 			page 91


1330:STM32Cube_FW_N6/Drivers/BSP/Components/mx66uw1g45g/mx66uw1g45g.c ****                                      : DUMMY_CYCLES_REG_OCTAL);
1331:STM32Cube_FW_N6/Drivers/BSP/Components/mx66uw1g45g/mx66uw1g45g.c ****   s_command.DataLength = (Rate == MX66UW1G45G_DTR_TRANSFER) ? 2U : 1U;
1332:STM32Cube_FW_N6/Drivers/BSP/Components/mx66uw1g45g/mx66uw1g45g.c ****   s_command.DQSMode = (Rate == MX66UW1G45G_DTR_TRANSFER) ? HAL_XSPI_DQS_ENABLE : HAL_XSPI_DQS_DISAB
1333:STM32Cube_FW_N6/Drivers/BSP/Components/mx66uw1g45g/mx66uw1g45g.c ****  #if defined (XSPI_CCR_SIOO)
1334:STM32Cube_FW_N6/Drivers/BSP/Components/mx66uw1g45g/mx66uw1g45g.c ****   s_command.SIOOMode            = HAL_XSPI_SIOO_INST_EVERY_CMD;
1335:STM32Cube_FW_N6/Drivers/BSP/Components/mx66uw1g45g/mx66uw1g45g.c ****  #endif
1336:STM32Cube_FW_N6/Drivers/BSP/Components/mx66uw1g45g/mx66uw1g45g.c **** 
1337:STM32Cube_FW_N6/Drivers/BSP/Components/mx66uw1g45g/mx66uw1g45g.c ****   /* Send the command */
1338:STM32Cube_FW_N6/Drivers/BSP/Components/mx66uw1g45g/mx66uw1g45g.c ****   if (HAL_XSPI_Command(Ctx, &s_command, HAL_XSPI_TIMEOUT_DEFAULT_VALUE) != HAL_OK)
1339:STM32Cube_FW_N6/Drivers/BSP/Components/mx66uw1g45g/mx66uw1g45g.c ****   {
1340:STM32Cube_FW_N6/Drivers/BSP/Components/mx66uw1g45g/mx66uw1g45g.c ****     return MX66UW1G45G_ERROR;
1341:STM32Cube_FW_N6/Drivers/BSP/Components/mx66uw1g45g/mx66uw1g45g.c ****   }
1342:STM32Cube_FW_N6/Drivers/BSP/Components/mx66uw1g45g/mx66uw1g45g.c **** 
1343:STM32Cube_FW_N6/Drivers/BSP/Components/mx66uw1g45g/mx66uw1g45g.c ****   /* Reception of the data */
1344:STM32Cube_FW_N6/Drivers/BSP/Components/mx66uw1g45g/mx66uw1g45g.c ****   if (HAL_XSPI_Receive(Ctx, Value, HAL_XSPI_TIMEOUT_DEFAULT_VALUE) != HAL_OK)
1345:STM32Cube_FW_N6/Drivers/BSP/Components/mx66uw1g45g/mx66uw1g45g.c ****   {
1346:STM32Cube_FW_N6/Drivers/BSP/Components/mx66uw1g45g/mx66uw1g45g.c ****     return MX66UW1G45G_ERROR;
1347:STM32Cube_FW_N6/Drivers/BSP/Components/mx66uw1g45g/mx66uw1g45g.c ****   }
1348:STM32Cube_FW_N6/Drivers/BSP/Components/mx66uw1g45g/mx66uw1g45g.c **** 
1349:STM32Cube_FW_N6/Drivers/BSP/Components/mx66uw1g45g/mx66uw1g45g.c ****   return MX66UW1G45G_OK;
1350:STM32Cube_FW_N6/Drivers/BSP/Components/mx66uw1g45g/mx66uw1g45g.c **** }
 3109              		.loc 1 1350 1 view .LVU1054
 3110 0020 15B0     		add	sp, sp, #84
 3111              		.cfi_remember_state
 3112              		.cfi_def_cfa_offset 20
 3113              		@ sp needed
 3114 0022 F0BD     		pop	{r4, r5, r6, r7, pc}
 3115              	.LVL162:
 3116              	.L210:
 3117              		.cfi_restore_state
1306:STM32Cube_FW_N6/Drivers/BSP/Components/mx66uw1g45g/mx66uw1g45g.c ****                                      ? HAL_XSPI_INSTRUCTION_DTR_ENABLE
 3118              		.loc 1 1306 3 is_stmt 1 view .LVU1055
 3119 0024 0423     		movs	r3, #4
1308:STM32Cube_FW_N6/Drivers/BSP/Components/mx66uw1g45g/mx66uw1g45g.c ****   s_command.InstructionWidth = (Mode == MX66UW1G45G_SPI_MODE)
 3120              		.loc 1 1308 38 is_stmt 0 view .LVU1056
 3121 0026 611E     		subs	r1, r4, #1
 3122 0028 4A42     		rsbs	r2, r1, #0
 3123 002a 4A41     		adcs	r2, r2, r1
 3124 002c D200     		lsls	r2, r2, #3
 3125              	.L211:
1303:STM32Cube_FW_N6/Drivers/BSP/Components/mx66uw1g45g/mx66uw1g45g.c ****                                   ? HAL_XSPI_INSTRUCTION_1_LINE
 3126              		.loc 1 1303 29 view .LVU1057
 3127 002e 0493     		str	r3, [sp, #16]
1306:STM32Cube_FW_N6/Drivers/BSP/Components/mx66uw1g45g/mx66uw1g45g.c ****                                      ? HAL_XSPI_INSTRUCTION_DTR_ENABLE
 3128              		.loc 1 1306 32 view .LVU1058
 3129 0030 0692     		str	r2, [sp, #24]
1309:STM32Cube_FW_N6/Drivers/BSP/Components/mx66uw1g45g/mx66uw1g45g.c ****                                    ? HAL_XSPI_INSTRUCTION_8_BITS
 3130              		.loc 1 1309 3 is_stmt 1 view .LVU1059
1311:STM32Cube_FW_N6/Drivers/BSP/Components/mx66uw1g45g/mx66uw1g45g.c ****   s_command.Instruction = (Mode == MX66UW1G45G_SPI_MODE)
 3131              		.loc 1 1311 36 is_stmt 0 view .LVU1060
 3132 0032 002D     		cmp	r5, #0
 3133 0034 3AD0     		beq	.L222
1309:STM32Cube_FW_N6/Drivers/BSP/Components/mx66uw1g45g/mx66uw1g45g.c ****                                    ? HAL_XSPI_INSTRUCTION_8_BITS
 3134              		.loc 1 1309 30 view .LVU1061
 3135 0036 1023     		movs	r3, #16
 3136 0038 47F28E12 		movw	r2, #29070
 3137 003c 0593     		str	r3, [sp, #20]
ARM GAS  C:\Users\DJESSOU\AppData\Local\Temp\ccAx4BcF.s 			page 92


1312:STM32Cube_FW_N6/Drivers/BSP/Components/mx66uw1g45g/mx66uw1g45g.c ****                               ? MX66UW1G45G_READ_CFG_REG2_CMD
 3138              		.loc 1 1312 3 is_stmt 1 view .LVU1062
1315:STM32Cube_FW_N6/Drivers/BSP/Components/mx66uw1g45g/mx66uw1g45g.c ****   s_command.AddressDTRMode = (Rate == MX66UW1G45G_DTR_TRANSFER)
 3139              		.loc 1 1315 3 view .LVU1063
1315:STM32Cube_FW_N6/Drivers/BSP/Components/mx66uw1g45g/mx66uw1g45g.c ****   s_command.AddressDTRMode = (Rate == MX66UW1G45G_DTR_TRANSFER)
 3140              		.loc 1 1315 84 is_stmt 0 discriminator 2 view .LVU1064
 3141 003e 4FF48063 		mov	r3, #1024
 3142              	.L213:
1315:STM32Cube_FW_N6/Drivers/BSP/Components/mx66uw1g45g/mx66uw1g45g.c ****   s_command.AddressDTRMode = (Rate == MX66UW1G45G_DTR_TRANSFER)
 3143              		.loc 1 1315 25 discriminator 4 view .LVU1065
 3144 0042 0893     		str	r3, [sp, #32]
1316:STM32Cube_FW_N6/Drivers/BSP/Components/mx66uw1g45g/mx66uw1g45g.c ****                                  ? HAL_XSPI_ADDRESS_DTR_ENABLE
 3145              		.loc 1 1316 3 is_stmt 1 view .LVU1066
1318:STM32Cube_FW_N6/Drivers/BSP/Components/mx66uw1g45g/mx66uw1g45g.c ****   s_command.AddressWidth = HAL_XSPI_ADDRESS_32_BITS;
 3146              		.loc 1 1318 34 is_stmt 0 view .LVU1067
 3147 0044 631E     		subs	r3, r4, #1
1312:STM32Cube_FW_N6/Drivers/BSP/Components/mx66uw1g45g/mx66uw1g45g.c ****                               ? MX66UW1G45G_READ_CFG_REG2_CMD
 3148              		.loc 1 1312 25 view .LVU1068
 3149 0046 0392     		str	r2, [sp, #12]
1318:STM32Cube_FW_N6/Drivers/BSP/Components/mx66uw1g45g/mx66uw1g45g.c ****   s_command.AddressWidth = HAL_XSPI_ADDRESS_32_BITS;
 3150              		.loc 1 1318 34 view .LVU1069
 3151 0048 5A42     		rsbs	r2, r3, #0
 3152 004a 5A41     		adcs	r2, r2, r3
 3153 004c D302     		lsls	r3, r2, #11
1316:STM32Cube_FW_N6/Drivers/BSP/Components/mx66uw1g45g/mx66uw1g45g.c ****                                  ? HAL_XSPI_ADDRESS_DTR_ENABLE
 3154              		.loc 1 1316 28 view .LVU1070
 3155 004e 0A93     		str	r3, [sp, #40]
1319:STM32Cube_FW_N6/Drivers/BSP/Components/mx66uw1g45g/mx66uw1g45g.c ****   s_command.Address = ReadAddr;
 3156              		.loc 1 1319 3 is_stmt 1 view .LVU1071
1319:STM32Cube_FW_N6/Drivers/BSP/Components/mx66uw1g45g/mx66uw1g45g.c ****   s_command.Address = ReadAddr;
 3157              		.loc 1 1319 26 is_stmt 0 view .LVU1072
 3158 0050 4FF44053 		mov	r3, #12288
1322:STM32Cube_FW_N6/Drivers/BSP/Components/mx66uw1g45g/mx66uw1g45g.c ****   s_command.DataDTRMode = (Rate == MX66UW1G45G_DTR_TRANSFER)
 3159              		.loc 1 1322 78 discriminator 1 view .LVU1073
 3160 0054 002D     		cmp	r5, #0
1319:STM32Cube_FW_N6/Drivers/BSP/Components/mx66uw1g45g/mx66uw1g45g.c ****   s_command.Address = ReadAddr;
 3161              		.loc 1 1319 26 view .LVU1074
 3162 0056 0993     		str	r3, [sp, #36]
1320:STM32Cube_FW_N6/Drivers/BSP/Components/mx66uw1g45g/mx66uw1g45g.c ****   s_command.AlternateBytesMode = HAL_XSPI_ALT_BYTES_NONE;
 3163              		.loc 1 1320 3 is_stmt 1 view .LVU1075
1322:STM32Cube_FW_N6/Drivers/BSP/Components/mx66uw1g45g/mx66uw1g45g.c ****   s_command.DataDTRMode = (Rate == MX66UW1G45G_DTR_TRANSFER)
 3164              		.loc 1 1322 78 is_stmt 0 discriminator 1 view .LVU1076
 3165 0058 14BF     		ite	ne
 3166 005a 4FF08063 		movne	r3, #67108864
 3167 005e 4FF08073 		moveq	r3, #16777216
1325:STM32Cube_FW_N6/Drivers/BSP/Components/mx66uw1g45g/mx66uw1g45g.c ****   s_command.DummyCycles = (Mode == MX66UW1G45G_SPI_MODE)
 3168              		.loc 1 1325 31 view .LVU1077
 3169 0062 4FEAC262 		lsl	r2, r2, #27
1320:STM32Cube_FW_N6/Drivers/BSP/Components/mx66uw1g45g/mx66uw1g45g.c ****   s_command.AlternateBytesMode = HAL_XSPI_ALT_BYTES_NONE;
 3170              		.loc 1 1320 21 view .LVU1078
 3171 0066 0797     		str	r7, [sp, #28]
1321:STM32Cube_FW_N6/Drivers/BSP/Components/mx66uw1g45g/mx66uw1g45g.c ****   s_command.DataMode = (Mode == MX66UW1G45G_SPI_MODE) ? HAL_XSPI_DATA_1_LINE : HAL_XSPI_DATA_8_LINE
 3172              		.loc 1 1321 3 is_stmt 1 view .LVU1079
1322:STM32Cube_FW_N6/Drivers/BSP/Components/mx66uw1g45g/mx66uw1g45g.c ****   s_command.DataDTRMode = (Rate == MX66UW1G45G_DTR_TRANSFER)
 3173              		.loc 1 1322 3 view .LVU1080
1322:STM32Cube_FW_N6/Drivers/BSP/Components/mx66uw1g45g/mx66uw1g45g.c ****   s_command.DataDTRMode = (Rate == MX66UW1G45G_DTR_TRANSFER)
 3174              		.loc 1 1322 22 is_stmt 0 discriminator 4 view .LVU1081
ARM GAS  C:\Users\DJESSOU\AppData\Local\Temp\ccAx4BcF.s 			page 93


 3175 0068 0F93     		str	r3, [sp, #60]
1323:STM32Cube_FW_N6/Drivers/BSP/Components/mx66uw1g45g/mx66uw1g45g.c ****                               ? HAL_XSPI_DATA_DTR_ENABLE
 3176              		.loc 1 1323 3 is_stmt 1 view .LVU1082
1323:STM32Cube_FW_N6/Drivers/BSP/Components/mx66uw1g45g/mx66uw1g45g.c ****                               ? HAL_XSPI_DATA_DTR_ENABLE
 3177              		.loc 1 1323 25 is_stmt 0 view .LVU1083
 3178 006a 1192     		str	r2, [sp, #68]
1326:STM32Cube_FW_N6/Drivers/BSP/Components/mx66uw1g45g/mx66uw1g45g.c ****                               ? 0U
 3179              		.loc 1 1326 3 is_stmt 1 view .LVU1084
1328:STM32Cube_FW_N6/Drivers/BSP/Components/mx66uw1g45g/mx66uw1g45g.c ****                                      ? DUMMY_CYCLES_REG_OCTAL_DTR
 3180              		.loc 1 1328 31 is_stmt 0 view .LVU1085
 3181 006c 27D0     		beq	.L215
1328:STM32Cube_FW_N6/Drivers/BSP/Components/mx66uw1g45g/mx66uw1g45g.c ****                                      ? DUMMY_CYCLES_REG_OCTAL_DTR
 3182              		.loc 1 1328 31 discriminator 1 view .LVU1086
 3183 006e 012C     		cmp	r4, #1
 3184 0070 20D1     		bne	.L216
1326:STM32Cube_FW_N6/Drivers/BSP/Components/mx66uw1g45g/mx66uw1g45g.c ****                               ? 0U
 3185              		.loc 1 1326 25 view .LVU1087
 3186 0072 0523     		movs	r3, #5
 3187 0074 1293     		str	r3, [sp, #72]
1331:STM32Cube_FW_N6/Drivers/BSP/Components/mx66uw1g45g/mx66uw1g45g.c ****   s_command.DQSMode = (Rate == MX66UW1G45G_DTR_TRANSFER) ? HAL_XSPI_DQS_ENABLE : HAL_XSPI_DQS_DISAB
 3188              		.loc 1 1331 3 is_stmt 1 view .LVU1088
 3189              	.L218:
1331:STM32Cube_FW_N6/Drivers/BSP/Components/mx66uw1g45g/mx66uw1g45g.c ****   s_command.DQSMode = (Rate == MX66UW1G45G_DTR_TRANSFER) ? HAL_XSPI_DQS_ENABLE : HAL_XSPI_DQS_DISAB
 3190              		.loc 1 1331 24 is_stmt 0 discriminator 4 view .LVU1089
 3191 0076 0222     		movs	r2, #2
1332:STM32Cube_FW_N6/Drivers/BSP/Components/mx66uw1g45g/mx66uw1g45g.c ****  #if defined (XSPI_CCR_SIOO)
 3192              		.loc 1 1332 80 discriminator 1 view .LVU1090
 3193 0078 4FF00053 		mov	r3, #536870912
 3194              	.L217:
 3195 007c 1092     		str	r2, [sp, #64]
1338:STM32Cube_FW_N6/Drivers/BSP/Components/mx66uw1g45g/mx66uw1g45g.c ****   {
 3196              		.loc 1 1338 7 view .LVU1091
 3197 007e 3046     		mov	r0, r6
 3198 0080 41F28832 		movw	r2, #5000
 3199 0084 01A9     		add	r1, sp, #4
1332:STM32Cube_FW_N6/Drivers/BSP/Components/mx66uw1g45g/mx66uw1g45g.c ****  #if defined (XSPI_CCR_SIOO)
 3200              		.loc 1 1332 21 discriminator 4 view .LVU1092
 3201 0086 1393     		str	r3, [sp, #76]
1338:STM32Cube_FW_N6/Drivers/BSP/Components/mx66uw1g45g/mx66uw1g45g.c ****   {
 3202              		.loc 1 1338 3 is_stmt 1 view .LVU1093
1338:STM32Cube_FW_N6/Drivers/BSP/Components/mx66uw1g45g/mx66uw1g45g.c ****   {
 3203              		.loc 1 1338 7 is_stmt 0 view .LVU1094
 3204 0088 FFF7FEFF 		bl	HAL_XSPI_Command
 3205              	.LVL163:
1338:STM32Cube_FW_N6/Drivers/BSP/Components/mx66uw1g45g/mx66uw1g45g.c ****   {
 3206              		.loc 1 1338 6 discriminator 1 view .LVU1095
 3207 008c 0028     		cmp	r0, #0
 3208 008e C5D1     		bne	.L220
1344:STM32Cube_FW_N6/Drivers/BSP/Components/mx66uw1g45g/mx66uw1g45g.c ****   {
 3209              		.loc 1 1344 3 is_stmt 1 view .LVU1096
1344:STM32Cube_FW_N6/Drivers/BSP/Components/mx66uw1g45g/mx66uw1g45g.c ****   {
 3210              		.loc 1 1344 7 is_stmt 0 view .LVU1097
 3211 0090 41F28832 		movw	r2, #5000
 3212 0094 3046     		mov	r0, r6
 3213 0096 1A99     		ldr	r1, [sp, #104]
 3214 0098 FFF7FEFF 		bl	HAL_XSPI_Receive
 3215              	.LVL164:
ARM GAS  C:\Users\DJESSOU\AppData\Local\Temp\ccAx4BcF.s 			page 94


1344:STM32Cube_FW_N6/Drivers/BSP/Components/mx66uw1g45g/mx66uw1g45g.c ****   {
 3216              		.loc 1 1344 6 discriminator 1 view .LVU1098
 3217 009c 0038     		subs	r0, r0, #0
 3218 009e 18BF     		it	ne
 3219 00a0 0120     		movne	r0, #1
 3220 00a2 4042     		rsbs	r0, r0, #0
 3221 00a4 BCE7     		b	.L209
 3222              	.L221:
1344:STM32Cube_FW_N6/Drivers/BSP/Components/mx66uw1g45g/mx66uw1g45g.c ****   {
 3223              		.loc 1 1344 6 discriminator 1 view .LVU1099
 3224 00a6 0123     		movs	r3, #1
1308:STM32Cube_FW_N6/Drivers/BSP/Components/mx66uw1g45g/mx66uw1g45g.c ****   s_command.InstructionWidth = (Mode == MX66UW1G45G_SPI_MODE)
 3225              		.loc 1 1308 38 discriminator 2 view .LVU1100
 3226 00a8 2A46     		mov	r2, r5
 3227 00aa C0E7     		b	.L211
 3228              	.L222:
 3229 00ac 7122     		movs	r2, #113
1315:STM32Cube_FW_N6/Drivers/BSP/Components/mx66uw1g45g/mx66uw1g45g.c ****   s_command.AddressDTRMode = (Rate == MX66UW1G45G_DTR_TRANSFER)
 3230              		.loc 1 1315 84 discriminator 1 view .LVU1101
 3231 00ae 4FF48073 		mov	r3, #256
 3232 00b2 C6E7     		b	.L213
 3233              	.L216:
1326:STM32Cube_FW_N6/Drivers/BSP/Components/mx66uw1g45g/mx66uw1g45g.c ****                               ? 0U
 3234              		.loc 1 1326 25 view .LVU1102
 3235 00b4 0423     		movs	r3, #4
 3236 00b6 1293     		str	r3, [sp, #72]
1331:STM32Cube_FW_N6/Drivers/BSP/Components/mx66uw1g45g/mx66uw1g45g.c ****   s_command.DQSMode = (Rate == MX66UW1G45G_DTR_TRANSFER) ? HAL_XSPI_DQS_ENABLE : HAL_XSPI_DQS_DISAB
 3237              		.loc 1 1331 3 is_stmt 1 view .LVU1103
 3238              	.L219:
1331:STM32Cube_FW_N6/Drivers/BSP/Components/mx66uw1g45g/mx66uw1g45g.c ****   s_command.DQSMode = (Rate == MX66UW1G45G_DTR_TRANSFER) ? HAL_XSPI_DQS_ENABLE : HAL_XSPI_DQS_DISAB
 3239              		.loc 1 1331 24 is_stmt 0 discriminator 4 view .LVU1104
 3240 00b8 0122     		movs	r2, #1
1332:STM32Cube_FW_N6/Drivers/BSP/Components/mx66uw1g45g/mx66uw1g45g.c ****  #if defined (XSPI_CCR_SIOO)
 3241              		.loc 1 1332 80 discriminator 2 view .LVU1105
 3242 00ba 0023     		movs	r3, #0
 3243 00bc DEE7     		b	.L217
 3244              	.L215:
1331:STM32Cube_FW_N6/Drivers/BSP/Components/mx66uw1g45g/mx66uw1g45g.c ****   s_command.DQSMode = (Rate == MX66UW1G45G_DTR_TRANSFER) ? HAL_XSPI_DQS_ENABLE : HAL_XSPI_DQS_DISAB
 3245              		.loc 1 1331 3 is_stmt 1 view .LVU1106
1331:STM32Cube_FW_N6/Drivers/BSP/Components/mx66uw1g45g/mx66uw1g45g.c ****   s_command.DQSMode = (Rate == MX66UW1G45G_DTR_TRANSFER) ? HAL_XSPI_DQS_ENABLE : HAL_XSPI_DQS_DISAB
 3246              		.loc 1 1331 66 is_stmt 0 view .LVU1107
 3247 00be 012C     		cmp	r4, #1
 3248 00c0 FAD1     		bne	.L219
 3249 00c2 D8E7     		b	.L218
 3250              		.cfi_endproc
 3251              	.LFE881:
 3253              		.section	.text.MX66UW1G45G_WriteSecurityRegister,"ax",%progbits
 3254              		.align	1
 3255              		.global	MX66UW1G45G_WriteSecurityRegister
 3256              		.syntax unified
 3257              		.thumb
 3258              		.thumb_func
 3260              	MX66UW1G45G_WriteSecurityRegister:
 3261              	.LVL165:
 3262              	.LFB882:
1351:STM32Cube_FW_N6/Drivers/BSP/Components/mx66uw1g45g/mx66uw1g45g.c **** 
1352:STM32Cube_FW_N6/Drivers/BSP/Components/mx66uw1g45g/mx66uw1g45g.c **** /**
ARM GAS  C:\Users\DJESSOU\AppData\Local\Temp\ccAx4BcF.s 			page 95


1353:STM32Cube_FW_N6/Drivers/BSP/Components/mx66uw1g45g/mx66uw1g45g.c ****   * @brief  Write Flash Security register
1354:STM32Cube_FW_N6/Drivers/BSP/Components/mx66uw1g45g/mx66uw1g45g.c ****   *         SPI/OPI
1355:STM32Cube_FW_N6/Drivers/BSP/Components/mx66uw1g45g/mx66uw1g45g.c ****   * @param  Ctx Component object pointer
1356:STM32Cube_FW_N6/Drivers/BSP/Components/mx66uw1g45g/mx66uw1g45g.c ****   * @param  Mode Interface mode
1357:STM32Cube_FW_N6/Drivers/BSP/Components/mx66uw1g45g/mx66uw1g45g.c ****   * @param  Rate Transfer rate STR or DTR
1358:STM32Cube_FW_N6/Drivers/BSP/Components/mx66uw1g45g/mx66uw1g45g.c ****   * @param  Value Value to write to Security register
1359:STM32Cube_FW_N6/Drivers/BSP/Components/mx66uw1g45g/mx66uw1g45g.c ****   * @retval error status
1360:STM32Cube_FW_N6/Drivers/BSP/Components/mx66uw1g45g/mx66uw1g45g.c ****   */
1361:STM32Cube_FW_N6/Drivers/BSP/Components/mx66uw1g45g/mx66uw1g45g.c **** int32_t MX66UW1G45G_WriteSecurityRegister(XSPI_HandleTypeDef *Ctx, MX66UW1G45G_Interface_t Mode,
1362:STM32Cube_FW_N6/Drivers/BSP/Components/mx66uw1g45g/mx66uw1g45g.c ****                                           MX66UW1G45G_Transfer_t Rate, uint8_t Value)
1363:STM32Cube_FW_N6/Drivers/BSP/Components/mx66uw1g45g/mx66uw1g45g.c **** {
 3263              		.loc 1 1363 1 is_stmt 1 view -0
 3264              		.cfi_startproc
 3265              		@ args = 0, pretend = 0, frame = 80
 3266              		@ frame_needed = 0, uses_anonymous_args = 0
1364:STM32Cube_FW_N6/Drivers/BSP/Components/mx66uw1g45g/mx66uw1g45g.c ****   /* Prevent unused argument(s) compilation warning */
1365:STM32Cube_FW_N6/Drivers/BSP/Components/mx66uw1g45g/mx66uw1g45g.c ****   UNUSED(Value);
 3267              		.loc 1 1365 3 view .LVU1109
1366:STM32Cube_FW_N6/Drivers/BSP/Components/mx66uw1g45g/mx66uw1g45g.c **** 
1367:STM32Cube_FW_N6/Drivers/BSP/Components/mx66uw1g45g/mx66uw1g45g.c ****   XSPI_RegularCmdTypeDef s_command = {0};
 3268              		.loc 1 1367 3 view .LVU1110
1363:STM32Cube_FW_N6/Drivers/BSP/Components/mx66uw1g45g/mx66uw1g45g.c ****   /* Prevent unused argument(s) compilation warning */
 3269              		.loc 1 1363 1 is_stmt 0 view .LVU1111
 3270 0000 70B5     		push	{r4, r5, r6, lr}
 3271              		.cfi_def_cfa_offset 16
 3272              		.cfi_offset 4, -16
 3273              		.cfi_offset 5, -12
 3274              		.cfi_offset 6, -8
 3275              		.cfi_offset 14, -4
 3276 0002 0D46     		mov	r5, r1
 3277 0004 94B0     		sub	sp, sp, #80
 3278              		.cfi_def_cfa_offset 96
1363:STM32Cube_FW_N6/Drivers/BSP/Components/mx66uw1g45g/mx66uw1g45g.c ****   /* Prevent unused argument(s) compilation warning */
 3279              		.loc 1 1363 1 view .LVU1112
 3280 0006 0646     		mov	r6, r0
 3281 0008 1446     		mov	r4, r2
 3282              		.loc 1 1367 26 view .LVU1113
 3283 000a 0021     		movs	r1, #0
 3284              	.LVL166:
 3285              		.loc 1 1367 26 view .LVU1114
 3286 000c 4C22     		movs	r2, #76
 3287              	.LVL167:
 3288              		.loc 1 1367 26 view .LVU1115
 3289 000e 01A8     		add	r0, sp, #4
 3290              	.LVL168:
 3291              		.loc 1 1367 26 view .LVU1116
 3292 0010 FFF7FEFF 		bl	memset
 3293              	.LVL169:
1368:STM32Cube_FW_N6/Drivers/BSP/Components/mx66uw1g45g/mx66uw1g45g.c **** 
1369:STM32Cube_FW_N6/Drivers/BSP/Components/mx66uw1g45g/mx66uw1g45g.c ****   /* SPI mode and DTR transfer not supported by memory */
1370:STM32Cube_FW_N6/Drivers/BSP/Components/mx66uw1g45g/mx66uw1g45g.c ****   if ((Mode == MX66UW1G45G_SPI_MODE) && (Rate == MX66UW1G45G_DTR_TRANSFER))
 3294              		.loc 1 1370 3 is_stmt 1 view .LVU1117
 3295              		.loc 1 1370 6 is_stmt 0 view .LVU1118
 3296 0014 BDB9     		cbnz	r5, .L228
 3297              		.loc 1 1370 38 discriminator 1 view .LVU1119
 3298 0016 012C     		cmp	r4, #1
 3299 0018 1DD0     		beq	.L232
ARM GAS  C:\Users\DJESSOU\AppData\Local\Temp\ccAx4BcF.s 			page 96


 3300 001a 0123     		movs	r3, #1
1371:STM32Cube_FW_N6/Drivers/BSP/Components/mx66uw1g45g/mx66uw1g45g.c ****   {
1372:STM32Cube_FW_N6/Drivers/BSP/Components/mx66uw1g45g/mx66uw1g45g.c ****     return MX66UW1G45G_ERROR;
1373:STM32Cube_FW_N6/Drivers/BSP/Components/mx66uw1g45g/mx66uw1g45g.c ****   }
1374:STM32Cube_FW_N6/Drivers/BSP/Components/mx66uw1g45g/mx66uw1g45g.c **** 
1375:STM32Cube_FW_N6/Drivers/BSP/Components/mx66uw1g45g/mx66uw1g45g.c ****   /* Initialize the write of security register */
1376:STM32Cube_FW_N6/Drivers/BSP/Components/mx66uw1g45g/mx66uw1g45g.c ****   s_command.OperationType = HAL_XSPI_OPTYPE_COMMON_CFG;
1377:STM32Cube_FW_N6/Drivers/BSP/Components/mx66uw1g45g/mx66uw1g45g.c ****   s_command.InstructionMode = (Mode == MX66UW1G45G_SPI_MODE)
1378:STM32Cube_FW_N6/Drivers/BSP/Components/mx66uw1g45g/mx66uw1g45g.c ****                                   ? HAL_XSPI_INSTRUCTION_1_LINE
1379:STM32Cube_FW_N6/Drivers/BSP/Components/mx66uw1g45g/mx66uw1g45g.c ****                                   : HAL_XSPI_INSTRUCTION_8_LINES;
1380:STM32Cube_FW_N6/Drivers/BSP/Components/mx66uw1g45g/mx66uw1g45g.c ****   s_command.InstructionDTRMode = (Rate == MX66UW1G45G_DTR_TRANSFER)
1381:STM32Cube_FW_N6/Drivers/BSP/Components/mx66uw1g45g/mx66uw1g45g.c ****                                      ? HAL_XSPI_INSTRUCTION_DTR_ENABLE
1382:STM32Cube_FW_N6/Drivers/BSP/Components/mx66uw1g45g/mx66uw1g45g.c ****                                      : HAL_XSPI_INSTRUCTION_DTR_DISABLE;
 3301              		.loc 1 1382 38 discriminator 2 view .LVU1120
 3302 001c 2C46     		mov	r4, r5
 3303              	.LVL170:
 3304              	.L230:
1377:STM32Cube_FW_N6/Drivers/BSP/Components/mx66uw1g45g/mx66uw1g45g.c ****                                   ? HAL_XSPI_INSTRUCTION_1_LINE
 3305              		.loc 1 1377 29 view .LVU1121
 3306 001e 0493     		str	r3, [sp, #16]
1380:STM32Cube_FW_N6/Drivers/BSP/Components/mx66uw1g45g/mx66uw1g45g.c ****                                      ? HAL_XSPI_INSTRUCTION_DTR_ENABLE
 3307              		.loc 1 1380 32 view .LVU1122
 3308 0020 0694     		str	r4, [sp, #24]
1383:STM32Cube_FW_N6/Drivers/BSP/Components/mx66uw1g45g/mx66uw1g45g.c ****   s_command.InstructionWidth = (Mode == MX66UW1G45G_SPI_MODE)
 3309              		.loc 1 1383 3 is_stmt 1 view .LVU1123
1384:STM32Cube_FW_N6/Drivers/BSP/Components/mx66uw1g45g/mx66uw1g45g.c ****                                    ? HAL_XSPI_INSTRUCTION_8_BITS
1385:STM32Cube_FW_N6/Drivers/BSP/Components/mx66uw1g45g/mx66uw1g45g.c ****                                    : HAL_XSPI_INSTRUCTION_16_BITS;
 3310              		.loc 1 1385 36 is_stmt 0 view .LVU1124
 3311 0022 B5B1     		cbz	r5, .L233
1383:STM32Cube_FW_N6/Drivers/BSP/Components/mx66uw1g45g/mx66uw1g45g.c ****   s_command.InstructionWidth = (Mode == MX66UW1G45G_SPI_MODE)
 3312              		.loc 1 1383 30 view .LVU1125
 3313 0024 1023     		movs	r3, #16
 3314 0026 0593     		str	r3, [sp, #20]
1386:STM32Cube_FW_N6/Drivers/BSP/Components/mx66uw1g45g/mx66uw1g45g.c ****   s_command.Instruction = (Mode == MX66UW1G45G_SPI_MODE)
 3315              		.loc 1 1386 3 is_stmt 1 view .LVU1126
1387:STM32Cube_FW_N6/Drivers/BSP/Components/mx66uw1g45g/mx66uw1g45g.c ****                               ? MX66UW1G45G_WRITE_SECURITY_REG_CMD
1388:STM32Cube_FW_N6/Drivers/BSP/Components/mx66uw1g45g/mx66uw1g45g.c ****                               : MX66UW1G45G_OCTA_WRITE_SECURITY_REG_CMD;
 3316              		.loc 1 1388 31 is_stmt 0 discriminator 2 view .LVU1127
 3317 0028 42F6D073 		movw	r3, #12240
 3318              	.L231:
1389:STM32Cube_FW_N6/Drivers/BSP/Components/mx66uw1g45g/mx66uw1g45g.c ****   s_command.AddressMode = HAL_XSPI_ADDRESS_NONE;
1390:STM32Cube_FW_N6/Drivers/BSP/Components/mx66uw1g45g/mx66uw1g45g.c ****   s_command.AlternateBytesMode = HAL_XSPI_ALT_BYTES_NONE;
1391:STM32Cube_FW_N6/Drivers/BSP/Components/mx66uw1g45g/mx66uw1g45g.c ****   s_command.DataMode = HAL_XSPI_DATA_NONE;
1392:STM32Cube_FW_N6/Drivers/BSP/Components/mx66uw1g45g/mx66uw1g45g.c ****   s_command.DummyCycles = 0U;
1393:STM32Cube_FW_N6/Drivers/BSP/Components/mx66uw1g45g/mx66uw1g45g.c ****   s_command.DQSMode = HAL_XSPI_DQS_DISABLE;
1394:STM32Cube_FW_N6/Drivers/BSP/Components/mx66uw1g45g/mx66uw1g45g.c ****  #if defined (XSPI_CCR_SIOO)
1395:STM32Cube_FW_N6/Drivers/BSP/Components/mx66uw1g45g/mx66uw1g45g.c ****   s_command.SIOOMode            = HAL_XSPI_SIOO_INST_EVERY_CMD;
1396:STM32Cube_FW_N6/Drivers/BSP/Components/mx66uw1g45g/mx66uw1g45g.c ****  #endif
1397:STM32Cube_FW_N6/Drivers/BSP/Components/mx66uw1g45g/mx66uw1g45g.c **** 
1398:STM32Cube_FW_N6/Drivers/BSP/Components/mx66uw1g45g/mx66uw1g45g.c ****   /* Send the command */
1399:STM32Cube_FW_N6/Drivers/BSP/Components/mx66uw1g45g/mx66uw1g45g.c ****   if (HAL_XSPI_Command(Ctx, &s_command, HAL_XSPI_TIMEOUT_DEFAULT_VALUE) != HAL_OK)
 3319              		.loc 1 1399 7 view .LVU1128
 3320 002c 41F28832 		movw	r2, #5000
 3321 0030 3046     		mov	r0, r6
 3322 0032 01A9     		add	r1, sp, #4
1386:STM32Cube_FW_N6/Drivers/BSP/Components/mx66uw1g45g/mx66uw1g45g.c ****                               ? MX66UW1G45G_WRITE_SECURITY_REG_CMD
 3323              		.loc 1 1386 25 view .LVU1129
ARM GAS  C:\Users\DJESSOU\AppData\Local\Temp\ccAx4BcF.s 			page 97


 3324 0034 0393     		str	r3, [sp, #12]
1389:STM32Cube_FW_N6/Drivers/BSP/Components/mx66uw1g45g/mx66uw1g45g.c ****   s_command.AddressMode = HAL_XSPI_ADDRESS_NONE;
 3325              		.loc 1 1389 3 is_stmt 1 view .LVU1130
1390:STM32Cube_FW_N6/Drivers/BSP/Components/mx66uw1g45g/mx66uw1g45g.c ****   s_command.DataMode = HAL_XSPI_DATA_NONE;
 3326              		.loc 1 1390 3 view .LVU1131
1391:STM32Cube_FW_N6/Drivers/BSP/Components/mx66uw1g45g/mx66uw1g45g.c ****   s_command.DummyCycles = 0U;
 3327              		.loc 1 1391 3 view .LVU1132
1392:STM32Cube_FW_N6/Drivers/BSP/Components/mx66uw1g45g/mx66uw1g45g.c ****   s_command.DQSMode = HAL_XSPI_DQS_DISABLE;
 3328              		.loc 1 1392 3 view .LVU1133
1393:STM32Cube_FW_N6/Drivers/BSP/Components/mx66uw1g45g/mx66uw1g45g.c ****  #if defined (XSPI_CCR_SIOO)
 3329              		.loc 1 1393 3 view .LVU1134
 3330              		.loc 1 1399 3 view .LVU1135
 3331              		.loc 1 1399 7 is_stmt 0 view .LVU1136
 3332 0036 FFF7FEFF 		bl	HAL_XSPI_Command
 3333              	.LVL171:
 3334              		.loc 1 1399 6 discriminator 1 view .LVU1137
 3335 003a 0038     		subs	r0, r0, #0
 3336 003c 18BF     		it	ne
 3337 003e 0120     		movne	r0, #1
 3338 0040 4042     		rsbs	r0, r0, #0
 3339              	.L227:
1400:STM32Cube_FW_N6/Drivers/BSP/Components/mx66uw1g45g/mx66uw1g45g.c ****   {
1401:STM32Cube_FW_N6/Drivers/BSP/Components/mx66uw1g45g/mx66uw1g45g.c ****     return MX66UW1G45G_ERROR;
1402:STM32Cube_FW_N6/Drivers/BSP/Components/mx66uw1g45g/mx66uw1g45g.c ****   }
1403:STM32Cube_FW_N6/Drivers/BSP/Components/mx66uw1g45g/mx66uw1g45g.c **** 
1404:STM32Cube_FW_N6/Drivers/BSP/Components/mx66uw1g45g/mx66uw1g45g.c ****   return MX66UW1G45G_OK;
1405:STM32Cube_FW_N6/Drivers/BSP/Components/mx66uw1g45g/mx66uw1g45g.c **** }
 3340              		.loc 1 1405 1 view .LVU1138
 3341 0042 14B0     		add	sp, sp, #80
 3342              		.cfi_remember_state
 3343              		.cfi_def_cfa_offset 16
 3344              		@ sp needed
 3345 0044 70BD     		pop	{r4, r5, r6, pc}
 3346              	.LVL172:
 3347              	.L228:
 3348              		.cfi_restore_state
1380:STM32Cube_FW_N6/Drivers/BSP/Components/mx66uw1g45g/mx66uw1g45g.c ****                                      ? HAL_XSPI_INSTRUCTION_DTR_ENABLE
 3349              		.loc 1 1380 3 is_stmt 1 view .LVU1139
1382:STM32Cube_FW_N6/Drivers/BSP/Components/mx66uw1g45g/mx66uw1g45g.c ****   s_command.InstructionWidth = (Mode == MX66UW1G45G_SPI_MODE)
 3350              		.loc 1 1382 38 is_stmt 0 view .LVU1140
 3351 0046 631E     		subs	r3, r4, #1
 3352 0048 5C42     		rsbs	r4, r3, #0
 3353 004a 5C41     		adcs	r4, r4, r3
 3354 004c E400     		lsls	r4, r4, #3
 3355 004e 0423     		movs	r3, #4
 3356 0050 E5E7     		b	.L230
 3357              	.L233:
1388:STM32Cube_FW_N6/Drivers/BSP/Components/mx66uw1g45g/mx66uw1g45g.c ****   s_command.AddressMode = HAL_XSPI_ADDRESS_NONE;
 3358              		.loc 1 1388 31 discriminator 1 view .LVU1141
 3359 0052 2F23     		movs	r3, #47
 3360 0054 EAE7     		b	.L231
 3361              	.L232:
1372:STM32Cube_FW_N6/Drivers/BSP/Components/mx66uw1g45g/mx66uw1g45g.c ****   }
 3362              		.loc 1 1372 12 view .LVU1142
 3363 0056 4FF0FF30 		mov	r0, #-1
 3364 005a F2E7     		b	.L227
 3365              		.cfi_endproc
ARM GAS  C:\Users\DJESSOU\AppData\Local\Temp\ccAx4BcF.s 			page 98


 3366              	.LFE882:
 3368              		.section	.text.MX66UW1G45G_ReadSecurityRegister,"ax",%progbits
 3369              		.align	1
 3370              		.global	MX66UW1G45G_ReadSecurityRegister
 3371              		.syntax unified
 3372              		.thumb
 3373              		.thumb_func
 3375              	MX66UW1G45G_ReadSecurityRegister:
 3376              	.LVL173:
 3377              	.LFB883:
1406:STM32Cube_FW_N6/Drivers/BSP/Components/mx66uw1g45g/mx66uw1g45g.c **** 
1407:STM32Cube_FW_N6/Drivers/BSP/Components/mx66uw1g45g/mx66uw1g45g.c **** /**
1408:STM32Cube_FW_N6/Drivers/BSP/Components/mx66uw1g45g/mx66uw1g45g.c ****   * @brief  Read Flash Security register value
1409:STM32Cube_FW_N6/Drivers/BSP/Components/mx66uw1g45g/mx66uw1g45g.c ****   *         SPI/OPI
1410:STM32Cube_FW_N6/Drivers/BSP/Components/mx66uw1g45g/mx66uw1g45g.c ****   * @param  Ctx Component object pointer
1411:STM32Cube_FW_N6/Drivers/BSP/Components/mx66uw1g45g/mx66uw1g45g.c ****   * @param  Mode Interface mode
1412:STM32Cube_FW_N6/Drivers/BSP/Components/mx66uw1g45g/mx66uw1g45g.c ****   * @param  Rate Transfer rate STR or DTR
1413:STM32Cube_FW_N6/Drivers/BSP/Components/mx66uw1g45g/mx66uw1g45g.c ****   * @param  Value Security register value pointer
1414:STM32Cube_FW_N6/Drivers/BSP/Components/mx66uw1g45g/mx66uw1g45g.c ****   * @retval error status
1415:STM32Cube_FW_N6/Drivers/BSP/Components/mx66uw1g45g/mx66uw1g45g.c ****   */
1416:STM32Cube_FW_N6/Drivers/BSP/Components/mx66uw1g45g/mx66uw1g45g.c **** int32_t MX66UW1G45G_ReadSecurityRegister(XSPI_HandleTypeDef *Ctx, MX66UW1G45G_Interface_t Mode,
1417:STM32Cube_FW_N6/Drivers/BSP/Components/mx66uw1g45g/mx66uw1g45g.c ****                                          MX66UW1G45G_Transfer_t Rate, uint8_t *Value)
1418:STM32Cube_FW_N6/Drivers/BSP/Components/mx66uw1g45g/mx66uw1g45g.c **** {
 3378              		.loc 1 1418 1 is_stmt 1 view -0
 3379              		.cfi_startproc
 3380              		@ args = 0, pretend = 0, frame = 80
 3381              		@ frame_needed = 0, uses_anonymous_args = 0
1419:STM32Cube_FW_N6/Drivers/BSP/Components/mx66uw1g45g/mx66uw1g45g.c ****   XSPI_RegularCmdTypeDef s_command = {0};
 3382              		.loc 1 1419 3 view .LVU1144
1418:STM32Cube_FW_N6/Drivers/BSP/Components/mx66uw1g45g/mx66uw1g45g.c ****   XSPI_RegularCmdTypeDef s_command = {0};
 3383              		.loc 1 1418 1 is_stmt 0 view .LVU1145
 3384 0000 F0B5     		push	{r4, r5, r6, r7, lr}
 3385              		.cfi_def_cfa_offset 20
 3386              		.cfi_offset 4, -20
 3387              		.cfi_offset 5, -16
 3388              		.cfi_offset 6, -12
 3389              		.cfi_offset 7, -8
 3390              		.cfi_offset 14, -4
 3391 0002 0D46     		mov	r5, r1
 3392 0004 95B0     		sub	sp, sp, #84
 3393              		.cfi_def_cfa_offset 104
1418:STM32Cube_FW_N6/Drivers/BSP/Components/mx66uw1g45g/mx66uw1g45g.c ****   XSPI_RegularCmdTypeDef s_command = {0};
 3394              		.loc 1 1418 1 view .LVU1146
 3395 0006 0646     		mov	r6, r0
 3396 0008 1446     		mov	r4, r2
 3397              		.loc 1 1419 26 view .LVU1147
 3398 000a 0021     		movs	r1, #0
 3399              	.LVL174:
 3400              		.loc 1 1419 26 view .LVU1148
 3401 000c 4C22     		movs	r2, #76
 3402              	.LVL175:
 3403              		.loc 1 1419 26 view .LVU1149
 3404 000e 01A8     		add	r0, sp, #4
 3405              	.LVL176:
1418:STM32Cube_FW_N6/Drivers/BSP/Components/mx66uw1g45g/mx66uw1g45g.c ****   XSPI_RegularCmdTypeDef s_command = {0};
 3406              		.loc 1 1418 1 view .LVU1150
 3407 0010 1F46     		mov	r7, r3
ARM GAS  C:\Users\DJESSOU\AppData\Local\Temp\ccAx4BcF.s 			page 99


 3408              		.loc 1 1419 26 view .LVU1151
 3409 0012 FFF7FEFF 		bl	memset
 3410              	.LVL177:
1420:STM32Cube_FW_N6/Drivers/BSP/Components/mx66uw1g45g/mx66uw1g45g.c **** 
1421:STM32Cube_FW_N6/Drivers/BSP/Components/mx66uw1g45g/mx66uw1g45g.c ****   /* SPI mode and DTR transfer not supported by memory */
1422:STM32Cube_FW_N6/Drivers/BSP/Components/mx66uw1g45g/mx66uw1g45g.c ****   if ((Mode == MX66UW1G45G_SPI_MODE) && (Rate == MX66UW1G45G_DTR_TRANSFER))
 3411              		.loc 1 1422 3 is_stmt 1 view .LVU1152
 3412              		.loc 1 1422 6 is_stmt 0 view .LVU1153
 3413 0016 2DB9     		cbnz	r5, .L235
 3414              		.loc 1 1422 38 discriminator 1 view .LVU1154
 3415 0018 012C     		cmp	r4, #1
 3416 001a 43D1     		bne	.L246
 3417              	.L245:
1423:STM32Cube_FW_N6/Drivers/BSP/Components/mx66uw1g45g/mx66uw1g45g.c ****   {
1424:STM32Cube_FW_N6/Drivers/BSP/Components/mx66uw1g45g/mx66uw1g45g.c ****     return MX66UW1G45G_ERROR;
 3418              		.loc 1 1424 12 view .LVU1155
 3419 001c 4FF0FF30 		mov	r0, #-1
 3420              	.L234:
1425:STM32Cube_FW_N6/Drivers/BSP/Components/mx66uw1g45g/mx66uw1g45g.c ****   }
1426:STM32Cube_FW_N6/Drivers/BSP/Components/mx66uw1g45g/mx66uw1g45g.c **** 
1427:STM32Cube_FW_N6/Drivers/BSP/Components/mx66uw1g45g/mx66uw1g45g.c ****   /* Initialize the reading of security register */
1428:STM32Cube_FW_N6/Drivers/BSP/Components/mx66uw1g45g/mx66uw1g45g.c ****   s_command.OperationType = HAL_XSPI_OPTYPE_COMMON_CFG;
1429:STM32Cube_FW_N6/Drivers/BSP/Components/mx66uw1g45g/mx66uw1g45g.c ****   s_command.InstructionMode = (Mode == MX66UW1G45G_SPI_MODE)
1430:STM32Cube_FW_N6/Drivers/BSP/Components/mx66uw1g45g/mx66uw1g45g.c ****                                   ? HAL_XSPI_INSTRUCTION_1_LINE
1431:STM32Cube_FW_N6/Drivers/BSP/Components/mx66uw1g45g/mx66uw1g45g.c ****                                   : HAL_XSPI_INSTRUCTION_8_LINES;
1432:STM32Cube_FW_N6/Drivers/BSP/Components/mx66uw1g45g/mx66uw1g45g.c ****   s_command.InstructionDTRMode = (Rate == MX66UW1G45G_DTR_TRANSFER)
1433:STM32Cube_FW_N6/Drivers/BSP/Components/mx66uw1g45g/mx66uw1g45g.c ****                                      ? HAL_XSPI_INSTRUCTION_DTR_ENABLE
1434:STM32Cube_FW_N6/Drivers/BSP/Components/mx66uw1g45g/mx66uw1g45g.c ****                                      : HAL_XSPI_INSTRUCTION_DTR_DISABLE;
1435:STM32Cube_FW_N6/Drivers/BSP/Components/mx66uw1g45g/mx66uw1g45g.c ****   s_command.InstructionWidth = (Mode == MX66UW1G45G_SPI_MODE)
1436:STM32Cube_FW_N6/Drivers/BSP/Components/mx66uw1g45g/mx66uw1g45g.c ****                                    ? HAL_XSPI_INSTRUCTION_8_BITS
1437:STM32Cube_FW_N6/Drivers/BSP/Components/mx66uw1g45g/mx66uw1g45g.c ****                                    : HAL_XSPI_INSTRUCTION_16_BITS;
1438:STM32Cube_FW_N6/Drivers/BSP/Components/mx66uw1g45g/mx66uw1g45g.c ****   s_command.Instruction = (Mode == MX66UW1G45G_SPI_MODE)
1439:STM32Cube_FW_N6/Drivers/BSP/Components/mx66uw1g45g/mx66uw1g45g.c ****                               ? MX66UW1G45G_READ_SECURITY_REG_CMD
1440:STM32Cube_FW_N6/Drivers/BSP/Components/mx66uw1g45g/mx66uw1g45g.c ****                               : MX66UW1G45G_OCTA_READ_SECURITY_REG_CMD;
1441:STM32Cube_FW_N6/Drivers/BSP/Components/mx66uw1g45g/mx66uw1g45g.c ****   s_command.AddressMode = (Mode == MX66UW1G45G_SPI_MODE) ? HAL_XSPI_ADDRESS_NONE : HAL_XSPI_ADDRESS
1442:STM32Cube_FW_N6/Drivers/BSP/Components/mx66uw1g45g/mx66uw1g45g.c ****   s_command.AddressDTRMode = (Rate == MX66UW1G45G_DTR_TRANSFER)
1443:STM32Cube_FW_N6/Drivers/BSP/Components/mx66uw1g45g/mx66uw1g45g.c ****                                  ? HAL_XSPI_ADDRESS_DTR_ENABLE
1444:STM32Cube_FW_N6/Drivers/BSP/Components/mx66uw1g45g/mx66uw1g45g.c ****                                  : HAL_XSPI_ADDRESS_DTR_DISABLE;
1445:STM32Cube_FW_N6/Drivers/BSP/Components/mx66uw1g45g/mx66uw1g45g.c ****   s_command.AddressWidth = HAL_XSPI_ADDRESS_32_BITS;
1446:STM32Cube_FW_N6/Drivers/BSP/Components/mx66uw1g45g/mx66uw1g45g.c ****   s_command.Address = 0U;
1447:STM32Cube_FW_N6/Drivers/BSP/Components/mx66uw1g45g/mx66uw1g45g.c ****   s_command.AlternateBytesMode = HAL_XSPI_ALT_BYTES_NONE;
1448:STM32Cube_FW_N6/Drivers/BSP/Components/mx66uw1g45g/mx66uw1g45g.c ****   s_command.DataMode = (Mode == MX66UW1G45G_SPI_MODE) ? HAL_XSPI_DATA_1_LINE : HAL_XSPI_DATA_8_LINE
1449:STM32Cube_FW_N6/Drivers/BSP/Components/mx66uw1g45g/mx66uw1g45g.c ****   s_command.DataDTRMode = (Rate == MX66UW1G45G_DTR_TRANSFER)
1450:STM32Cube_FW_N6/Drivers/BSP/Components/mx66uw1g45g/mx66uw1g45g.c ****                               ? HAL_XSPI_DATA_DTR_ENABLE
1451:STM32Cube_FW_N6/Drivers/BSP/Components/mx66uw1g45g/mx66uw1g45g.c ****                               : HAL_XSPI_DATA_DTR_DISABLE;
1452:STM32Cube_FW_N6/Drivers/BSP/Components/mx66uw1g45g/mx66uw1g45g.c ****   s_command.DummyCycles = (Mode == MX66UW1G45G_SPI_MODE)
1453:STM32Cube_FW_N6/Drivers/BSP/Components/mx66uw1g45g/mx66uw1g45g.c ****                               ? 0U
1454:STM32Cube_FW_N6/Drivers/BSP/Components/mx66uw1g45g/mx66uw1g45g.c ****                               : ((Rate == MX66UW1G45G_DTR_TRANSFER)
1455:STM32Cube_FW_N6/Drivers/BSP/Components/mx66uw1g45g/mx66uw1g45g.c ****                                      ? DUMMY_CYCLES_REG_OCTAL_DTR
1456:STM32Cube_FW_N6/Drivers/BSP/Components/mx66uw1g45g/mx66uw1g45g.c ****                                      : DUMMY_CYCLES_REG_OCTAL);
1457:STM32Cube_FW_N6/Drivers/BSP/Components/mx66uw1g45g/mx66uw1g45g.c ****   s_command.DataLength = (Rate == MX66UW1G45G_DTR_TRANSFER) ? 2U : 1U;
1458:STM32Cube_FW_N6/Drivers/BSP/Components/mx66uw1g45g/mx66uw1g45g.c ****   s_command.DQSMode = (Rate == MX66UW1G45G_DTR_TRANSFER) ? HAL_XSPI_DQS_ENABLE : HAL_XSPI_DQS_DISAB
1459:STM32Cube_FW_N6/Drivers/BSP/Components/mx66uw1g45g/mx66uw1g45g.c ****  #if defined (XSPI_CCR_SIOO)
1460:STM32Cube_FW_N6/Drivers/BSP/Components/mx66uw1g45g/mx66uw1g45g.c ****   s_command.SIOOMode            = HAL_XSPI_SIOO_INST_EVERY_CMD;
1461:STM32Cube_FW_N6/Drivers/BSP/Components/mx66uw1g45g/mx66uw1g45g.c ****  #endif
1462:STM32Cube_FW_N6/Drivers/BSP/Components/mx66uw1g45g/mx66uw1g45g.c **** 
1463:STM32Cube_FW_N6/Drivers/BSP/Components/mx66uw1g45g/mx66uw1g45g.c ****   /* Send the command */
ARM GAS  C:\Users\DJESSOU\AppData\Local\Temp\ccAx4BcF.s 			page 100


1464:STM32Cube_FW_N6/Drivers/BSP/Components/mx66uw1g45g/mx66uw1g45g.c ****   if (HAL_XSPI_Command(Ctx, &s_command, HAL_XSPI_TIMEOUT_DEFAULT_VALUE) != HAL_OK)
1465:STM32Cube_FW_N6/Drivers/BSP/Components/mx66uw1g45g/mx66uw1g45g.c ****   {
1466:STM32Cube_FW_N6/Drivers/BSP/Components/mx66uw1g45g/mx66uw1g45g.c ****     return MX66UW1G45G_ERROR;
1467:STM32Cube_FW_N6/Drivers/BSP/Components/mx66uw1g45g/mx66uw1g45g.c ****   }
1468:STM32Cube_FW_N6/Drivers/BSP/Components/mx66uw1g45g/mx66uw1g45g.c **** 
1469:STM32Cube_FW_N6/Drivers/BSP/Components/mx66uw1g45g/mx66uw1g45g.c ****   /* Reception of the data */
1470:STM32Cube_FW_N6/Drivers/BSP/Components/mx66uw1g45g/mx66uw1g45g.c ****   if (HAL_XSPI_Receive(Ctx, Value, HAL_XSPI_TIMEOUT_DEFAULT_VALUE) != HAL_OK)
1471:STM32Cube_FW_N6/Drivers/BSP/Components/mx66uw1g45g/mx66uw1g45g.c ****   {
1472:STM32Cube_FW_N6/Drivers/BSP/Components/mx66uw1g45g/mx66uw1g45g.c ****     return MX66UW1G45G_ERROR;
1473:STM32Cube_FW_N6/Drivers/BSP/Components/mx66uw1g45g/mx66uw1g45g.c ****   }
1474:STM32Cube_FW_N6/Drivers/BSP/Components/mx66uw1g45g/mx66uw1g45g.c **** 
1475:STM32Cube_FW_N6/Drivers/BSP/Components/mx66uw1g45g/mx66uw1g45g.c ****   return MX66UW1G45G_OK;
1476:STM32Cube_FW_N6/Drivers/BSP/Components/mx66uw1g45g/mx66uw1g45g.c **** }
 3421              		.loc 1 1476 1 view .LVU1156
 3422 0020 15B0     		add	sp, sp, #84
 3423              		.cfi_remember_state
 3424              		.cfi_def_cfa_offset 20
 3425              		@ sp needed
 3426 0022 F0BD     		pop	{r4, r5, r6, r7, pc}
 3427              	.LVL178:
 3428              	.L235:
 3429              		.cfi_restore_state
1432:STM32Cube_FW_N6/Drivers/BSP/Components/mx66uw1g45g/mx66uw1g45g.c ****                                      ? HAL_XSPI_INSTRUCTION_DTR_ENABLE
 3430              		.loc 1 1432 3 is_stmt 1 view .LVU1157
 3431 0024 0423     		movs	r3, #4
1434:STM32Cube_FW_N6/Drivers/BSP/Components/mx66uw1g45g/mx66uw1g45g.c ****   s_command.InstructionWidth = (Mode == MX66UW1G45G_SPI_MODE)
 3432              		.loc 1 1434 38 is_stmt 0 view .LVU1158
 3433 0026 611E     		subs	r1, r4, #1
 3434 0028 4A42     		rsbs	r2, r1, #0
 3435 002a 4A41     		adcs	r2, r2, r1
 3436 002c D200     		lsls	r2, r2, #3
 3437              	.L236:
1429:STM32Cube_FW_N6/Drivers/BSP/Components/mx66uw1g45g/mx66uw1g45g.c ****                                   ? HAL_XSPI_INSTRUCTION_1_LINE
 3438              		.loc 1 1429 29 view .LVU1159
 3439 002e 0493     		str	r3, [sp, #16]
1432:STM32Cube_FW_N6/Drivers/BSP/Components/mx66uw1g45g/mx66uw1g45g.c ****                                      ? HAL_XSPI_INSTRUCTION_DTR_ENABLE
 3440              		.loc 1 1432 32 view .LVU1160
 3441 0030 0692     		str	r2, [sp, #24]
1435:STM32Cube_FW_N6/Drivers/BSP/Components/mx66uw1g45g/mx66uw1g45g.c ****                                    ? HAL_XSPI_INSTRUCTION_8_BITS
 3442              		.loc 1 1435 3 is_stmt 1 view .LVU1161
1437:STM32Cube_FW_N6/Drivers/BSP/Components/mx66uw1g45g/mx66uw1g45g.c ****   s_command.Instruction = (Mode == MX66UW1G45G_SPI_MODE)
 3443              		.loc 1 1437 36 is_stmt 0 view .LVU1162
 3444 0032 002D     		cmp	r5, #0
 3445 0034 39D0     		beq	.L247
1435:STM32Cube_FW_N6/Drivers/BSP/Components/mx66uw1g45g/mx66uw1g45g.c ****                                    ? HAL_XSPI_INSTRUCTION_8_BITS
 3446              		.loc 1 1435 30 view .LVU1163
 3447 0036 1023     		movs	r3, #16
 3448 0038 42F6D432 		movw	r2, #11220
 3449 003c 0593     		str	r3, [sp, #20]
1438:STM32Cube_FW_N6/Drivers/BSP/Components/mx66uw1g45g/mx66uw1g45g.c ****                               ? MX66UW1G45G_READ_SECURITY_REG_CMD
 3450              		.loc 1 1438 3 is_stmt 1 view .LVU1164
1441:STM32Cube_FW_N6/Drivers/BSP/Components/mx66uw1g45g/mx66uw1g45g.c ****   s_command.AddressDTRMode = (Rate == MX66UW1G45G_DTR_TRANSFER)
 3451              		.loc 1 1441 3 view .LVU1165
1441:STM32Cube_FW_N6/Drivers/BSP/Components/mx66uw1g45g/mx66uw1g45g.c ****   s_command.AddressDTRMode = (Rate == MX66UW1G45G_DTR_TRANSFER)
 3452              		.loc 1 1441 82 is_stmt 0 discriminator 2 view .LVU1166
 3453 003e 4FF48063 		mov	r3, #1024
 3454              	.L238:
ARM GAS  C:\Users\DJESSOU\AppData\Local\Temp\ccAx4BcF.s 			page 101


1441:STM32Cube_FW_N6/Drivers/BSP/Components/mx66uw1g45g/mx66uw1g45g.c ****   s_command.AddressDTRMode = (Rate == MX66UW1G45G_DTR_TRANSFER)
 3455              		.loc 1 1441 25 discriminator 4 view .LVU1167
 3456 0042 0893     		str	r3, [sp, #32]
1442:STM32Cube_FW_N6/Drivers/BSP/Components/mx66uw1g45g/mx66uw1g45g.c ****                                  ? HAL_XSPI_ADDRESS_DTR_ENABLE
 3457              		.loc 1 1442 3 is_stmt 1 view .LVU1168
1444:STM32Cube_FW_N6/Drivers/BSP/Components/mx66uw1g45g/mx66uw1g45g.c ****   s_command.AddressWidth = HAL_XSPI_ADDRESS_32_BITS;
 3458              		.loc 1 1444 34 is_stmt 0 view .LVU1169
 3459 0044 631E     		subs	r3, r4, #1
1438:STM32Cube_FW_N6/Drivers/BSP/Components/mx66uw1g45g/mx66uw1g45g.c ****                               ? MX66UW1G45G_READ_SECURITY_REG_CMD
 3460              		.loc 1 1438 25 view .LVU1170
 3461 0046 0392     		str	r2, [sp, #12]
1444:STM32Cube_FW_N6/Drivers/BSP/Components/mx66uw1g45g/mx66uw1g45g.c ****   s_command.AddressWidth = HAL_XSPI_ADDRESS_32_BITS;
 3462              		.loc 1 1444 34 view .LVU1171
 3463 0048 5A42     		rsbs	r2, r3, #0
 3464 004a 5A41     		adcs	r2, r2, r3
 3465 004c D302     		lsls	r3, r2, #11
1442:STM32Cube_FW_N6/Drivers/BSP/Components/mx66uw1g45g/mx66uw1g45g.c ****                                  ? HAL_XSPI_ADDRESS_DTR_ENABLE
 3466              		.loc 1 1442 28 view .LVU1172
 3467 004e 0A93     		str	r3, [sp, #40]
1445:STM32Cube_FW_N6/Drivers/BSP/Components/mx66uw1g45g/mx66uw1g45g.c ****   s_command.Address = 0U;
 3468              		.loc 1 1445 3 is_stmt 1 view .LVU1173
1445:STM32Cube_FW_N6/Drivers/BSP/Components/mx66uw1g45g/mx66uw1g45g.c ****   s_command.Address = 0U;
 3469              		.loc 1 1445 26 is_stmt 0 view .LVU1174
 3470 0050 4FF44053 		mov	r3, #12288
1448:STM32Cube_FW_N6/Drivers/BSP/Components/mx66uw1g45g/mx66uw1g45g.c ****   s_command.DataDTRMode = (Rate == MX66UW1G45G_DTR_TRANSFER)
 3471              		.loc 1 1448 78 discriminator 1 view .LVU1175
 3472 0054 002D     		cmp	r5, #0
1445:STM32Cube_FW_N6/Drivers/BSP/Components/mx66uw1g45g/mx66uw1g45g.c ****   s_command.Address = 0U;
 3473              		.loc 1 1445 26 view .LVU1176
 3474 0056 0993     		str	r3, [sp, #36]
1446:STM32Cube_FW_N6/Drivers/BSP/Components/mx66uw1g45g/mx66uw1g45g.c ****   s_command.AlternateBytesMode = HAL_XSPI_ALT_BYTES_NONE;
 3475              		.loc 1 1446 3 is_stmt 1 view .LVU1177
1447:STM32Cube_FW_N6/Drivers/BSP/Components/mx66uw1g45g/mx66uw1g45g.c ****   s_command.DataMode = (Mode == MX66UW1G45G_SPI_MODE) ? HAL_XSPI_DATA_1_LINE : HAL_XSPI_DATA_8_LINE
 3476              		.loc 1 1447 3 view .LVU1178
1448:STM32Cube_FW_N6/Drivers/BSP/Components/mx66uw1g45g/mx66uw1g45g.c ****   s_command.DataDTRMode = (Rate == MX66UW1G45G_DTR_TRANSFER)
 3477              		.loc 1 1448 3 view .LVU1179
1448:STM32Cube_FW_N6/Drivers/BSP/Components/mx66uw1g45g/mx66uw1g45g.c ****   s_command.DataDTRMode = (Rate == MX66UW1G45G_DTR_TRANSFER)
 3478              		.loc 1 1448 78 is_stmt 0 discriminator 1 view .LVU1180
 3479 0058 14BF     		ite	ne
 3480 005a 4FF08063 		movne	r3, #67108864
 3481 005e 4FF08073 		moveq	r3, #16777216
1451:STM32Cube_FW_N6/Drivers/BSP/Components/mx66uw1g45g/mx66uw1g45g.c ****   s_command.DummyCycles = (Mode == MX66UW1G45G_SPI_MODE)
 3482              		.loc 1 1451 31 view .LVU1181
 3483 0062 4FEAC262 		lsl	r2, r2, #27
1448:STM32Cube_FW_N6/Drivers/BSP/Components/mx66uw1g45g/mx66uw1g45g.c ****   s_command.DataDTRMode = (Rate == MX66UW1G45G_DTR_TRANSFER)
 3484              		.loc 1 1448 22 discriminator 4 view .LVU1182
 3485 0066 0F93     		str	r3, [sp, #60]
1449:STM32Cube_FW_N6/Drivers/BSP/Components/mx66uw1g45g/mx66uw1g45g.c ****                               ? HAL_XSPI_DATA_DTR_ENABLE
 3486              		.loc 1 1449 3 is_stmt 1 view .LVU1183
1449:STM32Cube_FW_N6/Drivers/BSP/Components/mx66uw1g45g/mx66uw1g45g.c ****                               ? HAL_XSPI_DATA_DTR_ENABLE
 3487              		.loc 1 1449 25 is_stmt 0 view .LVU1184
 3488 0068 1192     		str	r2, [sp, #68]
1452:STM32Cube_FW_N6/Drivers/BSP/Components/mx66uw1g45g/mx66uw1g45g.c ****                               ? 0U
 3489              		.loc 1 1452 3 is_stmt 1 view .LVU1185
1454:STM32Cube_FW_N6/Drivers/BSP/Components/mx66uw1g45g/mx66uw1g45g.c ****                                      ? DUMMY_CYCLES_REG_OCTAL_DTR
 3490              		.loc 1 1454 31 is_stmt 0 view .LVU1186
 3491 006a 26D0     		beq	.L240
ARM GAS  C:\Users\DJESSOU\AppData\Local\Temp\ccAx4BcF.s 			page 102


1454:STM32Cube_FW_N6/Drivers/BSP/Components/mx66uw1g45g/mx66uw1g45g.c ****                                      ? DUMMY_CYCLES_REG_OCTAL_DTR
 3492              		.loc 1 1454 31 discriminator 1 view .LVU1187
 3493 006c 012C     		cmp	r4, #1
 3494 006e 1FD1     		bne	.L241
1452:STM32Cube_FW_N6/Drivers/BSP/Components/mx66uw1g45g/mx66uw1g45g.c ****                               ? 0U
 3495              		.loc 1 1452 25 view .LVU1188
 3496 0070 0523     		movs	r3, #5
 3497 0072 1293     		str	r3, [sp, #72]
1457:STM32Cube_FW_N6/Drivers/BSP/Components/mx66uw1g45g/mx66uw1g45g.c ****   s_command.DQSMode = (Rate == MX66UW1G45G_DTR_TRANSFER) ? HAL_XSPI_DQS_ENABLE : HAL_XSPI_DQS_DISAB
 3498              		.loc 1 1457 3 is_stmt 1 view .LVU1189
 3499              	.L243:
1457:STM32Cube_FW_N6/Drivers/BSP/Components/mx66uw1g45g/mx66uw1g45g.c ****   s_command.DQSMode = (Rate == MX66UW1G45G_DTR_TRANSFER) ? HAL_XSPI_DQS_ENABLE : HAL_XSPI_DQS_DISAB
 3500              		.loc 1 1457 24 is_stmt 0 discriminator 4 view .LVU1190
 3501 0074 0222     		movs	r2, #2
1458:STM32Cube_FW_N6/Drivers/BSP/Components/mx66uw1g45g/mx66uw1g45g.c ****  #if defined (XSPI_CCR_SIOO)
 3502              		.loc 1 1458 80 discriminator 1 view .LVU1191
 3503 0076 4FF00053 		mov	r3, #536870912
 3504              	.L242:
 3505 007a 1092     		str	r2, [sp, #64]
1464:STM32Cube_FW_N6/Drivers/BSP/Components/mx66uw1g45g/mx66uw1g45g.c ****   {
 3506              		.loc 1 1464 7 view .LVU1192
 3507 007c 3046     		mov	r0, r6
 3508 007e 41F28832 		movw	r2, #5000
 3509 0082 01A9     		add	r1, sp, #4
1458:STM32Cube_FW_N6/Drivers/BSP/Components/mx66uw1g45g/mx66uw1g45g.c ****  #if defined (XSPI_CCR_SIOO)
 3510              		.loc 1 1458 21 discriminator 4 view .LVU1193
 3511 0084 1393     		str	r3, [sp, #76]
1464:STM32Cube_FW_N6/Drivers/BSP/Components/mx66uw1g45g/mx66uw1g45g.c ****   {
 3512              		.loc 1 1464 3 is_stmt 1 view .LVU1194
1464:STM32Cube_FW_N6/Drivers/BSP/Components/mx66uw1g45g/mx66uw1g45g.c ****   {
 3513              		.loc 1 1464 7 is_stmt 0 view .LVU1195
 3514 0086 FFF7FEFF 		bl	HAL_XSPI_Command
 3515              	.LVL179:
1464:STM32Cube_FW_N6/Drivers/BSP/Components/mx66uw1g45g/mx66uw1g45g.c ****   {
 3516              		.loc 1 1464 6 discriminator 1 view .LVU1196
 3517 008a 0028     		cmp	r0, #0
 3518 008c C6D1     		bne	.L245
1470:STM32Cube_FW_N6/Drivers/BSP/Components/mx66uw1g45g/mx66uw1g45g.c ****   {
 3519              		.loc 1 1470 3 is_stmt 1 view .LVU1197
1470:STM32Cube_FW_N6/Drivers/BSP/Components/mx66uw1g45g/mx66uw1g45g.c ****   {
 3520              		.loc 1 1470 7 is_stmt 0 view .LVU1198
 3521 008e 41F28832 		movw	r2, #5000
 3522 0092 3946     		mov	r1, r7
 3523 0094 3046     		mov	r0, r6
 3524 0096 FFF7FEFF 		bl	HAL_XSPI_Receive
 3525              	.LVL180:
1470:STM32Cube_FW_N6/Drivers/BSP/Components/mx66uw1g45g/mx66uw1g45g.c ****   {
 3526              		.loc 1 1470 6 discriminator 1 view .LVU1199
 3527 009a 0038     		subs	r0, r0, #0
 3528 009c 18BF     		it	ne
 3529 009e 0120     		movne	r0, #1
 3530 00a0 4042     		rsbs	r0, r0, #0
 3531 00a2 BDE7     		b	.L234
 3532              	.L246:
1470:STM32Cube_FW_N6/Drivers/BSP/Components/mx66uw1g45g/mx66uw1g45g.c ****   {
 3533              		.loc 1 1470 6 discriminator 1 view .LVU1200
 3534 00a4 0123     		movs	r3, #1
ARM GAS  C:\Users\DJESSOU\AppData\Local\Temp\ccAx4BcF.s 			page 103


1434:STM32Cube_FW_N6/Drivers/BSP/Components/mx66uw1g45g/mx66uw1g45g.c ****   s_command.InstructionWidth = (Mode == MX66UW1G45G_SPI_MODE)
 3535              		.loc 1 1434 38 discriminator 2 view .LVU1201
 3536 00a6 2A46     		mov	r2, r5
 3537 00a8 C1E7     		b	.L236
 3538              	.L247:
 3539 00aa 2B22     		movs	r2, #43
1441:STM32Cube_FW_N6/Drivers/BSP/Components/mx66uw1g45g/mx66uw1g45g.c ****   s_command.AddressDTRMode = (Rate == MX66UW1G45G_DTR_TRANSFER)
 3540              		.loc 1 1441 82 discriminator 1 view .LVU1202
 3541 00ac 2B46     		mov	r3, r5
 3542 00ae C8E7     		b	.L238
 3543              	.L241:
1452:STM32Cube_FW_N6/Drivers/BSP/Components/mx66uw1g45g/mx66uw1g45g.c ****                               ? 0U
 3544              		.loc 1 1452 25 view .LVU1203
 3545 00b0 0423     		movs	r3, #4
 3546 00b2 1293     		str	r3, [sp, #72]
1457:STM32Cube_FW_N6/Drivers/BSP/Components/mx66uw1g45g/mx66uw1g45g.c ****   s_command.DQSMode = (Rate == MX66UW1G45G_DTR_TRANSFER) ? HAL_XSPI_DQS_ENABLE : HAL_XSPI_DQS_DISAB
 3547              		.loc 1 1457 3 is_stmt 1 view .LVU1204
 3548              	.L244:
1457:STM32Cube_FW_N6/Drivers/BSP/Components/mx66uw1g45g/mx66uw1g45g.c ****   s_command.DQSMode = (Rate == MX66UW1G45G_DTR_TRANSFER) ? HAL_XSPI_DQS_ENABLE : HAL_XSPI_DQS_DISAB
 3549              		.loc 1 1457 24 is_stmt 0 discriminator 4 view .LVU1205
 3550 00b4 0122     		movs	r2, #1
1458:STM32Cube_FW_N6/Drivers/BSP/Components/mx66uw1g45g/mx66uw1g45g.c ****  #if defined (XSPI_CCR_SIOO)
 3551              		.loc 1 1458 80 discriminator 2 view .LVU1206
 3552 00b6 0023     		movs	r3, #0
 3553 00b8 DFE7     		b	.L242
 3554              	.L240:
1457:STM32Cube_FW_N6/Drivers/BSP/Components/mx66uw1g45g/mx66uw1g45g.c ****   s_command.DQSMode = (Rate == MX66UW1G45G_DTR_TRANSFER) ? HAL_XSPI_DQS_ENABLE : HAL_XSPI_DQS_DISAB
 3555              		.loc 1 1457 3 is_stmt 1 view .LVU1207
1457:STM32Cube_FW_N6/Drivers/BSP/Components/mx66uw1g45g/mx66uw1g45g.c ****   s_command.DQSMode = (Rate == MX66UW1G45G_DTR_TRANSFER) ? HAL_XSPI_DQS_ENABLE : HAL_XSPI_DQS_DISAB
 3556              		.loc 1 1457 66 is_stmt 0 view .LVU1208
 3557 00ba 012C     		cmp	r4, #1
 3558 00bc FAD1     		bne	.L244
 3559 00be D9E7     		b	.L243
 3560              		.cfi_endproc
 3561              	.LFE883:
 3563              		.section	.text.MX66UW1G45G_ReadID,"ax",%progbits
 3564              		.align	1
 3565              		.global	MX66UW1G45G_ReadID
 3566              		.syntax unified
 3567              		.thumb
 3568              		.thumb_func
 3570              	MX66UW1G45G_ReadID:
 3571              	.LVL181:
 3572              	.LFB884:
1477:STM32Cube_FW_N6/Drivers/BSP/Components/mx66uw1g45g/mx66uw1g45g.c **** 
1478:STM32Cube_FW_N6/Drivers/BSP/Components/mx66uw1g45g/mx66uw1g45g.c **** /* ID Commands ****************************************************************/
1479:STM32Cube_FW_N6/Drivers/BSP/Components/mx66uw1g45g/mx66uw1g45g.c **** /**
1480:STM32Cube_FW_N6/Drivers/BSP/Components/mx66uw1g45g/mx66uw1g45g.c ****   * @brief  Read Flash 3 Byte IDs.
1481:STM32Cube_FW_N6/Drivers/BSP/Components/mx66uw1g45g/mx66uw1g45g.c ****   *         Manufacturer ID, Memory type, Memory density
1482:STM32Cube_FW_N6/Drivers/BSP/Components/mx66uw1g45g/mx66uw1g45g.c ****   *         SPI/OPI; 1-0-1/1-0-8
1483:STM32Cube_FW_N6/Drivers/BSP/Components/mx66uw1g45g/mx66uw1g45g.c ****   * @param  Ctx Component object pointer
1484:STM32Cube_FW_N6/Drivers/BSP/Components/mx66uw1g45g/mx66uw1g45g.c ****   * @param  Mode Interface mode
1485:STM32Cube_FW_N6/Drivers/BSP/Components/mx66uw1g45g/mx66uw1g45g.c ****   * @param  ID 3 bytes IDs pointer
1486:STM32Cube_FW_N6/Drivers/BSP/Components/mx66uw1g45g/mx66uw1g45g.c ****   * @param  DualFlash Dual flash mode state
1487:STM32Cube_FW_N6/Drivers/BSP/Components/mx66uw1g45g/mx66uw1g45g.c ****   * @retval error status
1488:STM32Cube_FW_N6/Drivers/BSP/Components/mx66uw1g45g/mx66uw1g45g.c ****   */
1489:STM32Cube_FW_N6/Drivers/BSP/Components/mx66uw1g45g/mx66uw1g45g.c **** int32_t MX66UW1G45G_ReadID(XSPI_HandleTypeDef *Ctx, MX66UW1G45G_Interface_t Mode, MX66UW1G45G_Trans
ARM GAS  C:\Users\DJESSOU\AppData\Local\Temp\ccAx4BcF.s 			page 104


1490:STM32Cube_FW_N6/Drivers/BSP/Components/mx66uw1g45g/mx66uw1g45g.c ****                            uint8_t *ID)
1491:STM32Cube_FW_N6/Drivers/BSP/Components/mx66uw1g45g/mx66uw1g45g.c **** {
 3573              		.loc 1 1491 1 is_stmt 1 view -0
 3574              		.cfi_startproc
 3575              		@ args = 0, pretend = 0, frame = 80
 3576              		@ frame_needed = 0, uses_anonymous_args = 0
1492:STM32Cube_FW_N6/Drivers/BSP/Components/mx66uw1g45g/mx66uw1g45g.c ****   XSPI_RegularCmdTypeDef s_command = {0};
 3577              		.loc 1 1492 3 view .LVU1210
1491:STM32Cube_FW_N6/Drivers/BSP/Components/mx66uw1g45g/mx66uw1g45g.c ****   XSPI_RegularCmdTypeDef s_command = {0};
 3578              		.loc 1 1491 1 is_stmt 0 view .LVU1211
 3579 0000 F0B5     		push	{r4, r5, r6, r7, lr}
 3580              		.cfi_def_cfa_offset 20
 3581              		.cfi_offset 4, -20
 3582              		.cfi_offset 5, -16
 3583              		.cfi_offset 6, -12
 3584              		.cfi_offset 7, -8
 3585              		.cfi_offset 14, -4
 3586 0002 0D46     		mov	r5, r1
 3587 0004 95B0     		sub	sp, sp, #84
 3588              		.cfi_def_cfa_offset 104
1491:STM32Cube_FW_N6/Drivers/BSP/Components/mx66uw1g45g/mx66uw1g45g.c ****   XSPI_RegularCmdTypeDef s_command = {0};
 3589              		.loc 1 1491 1 view .LVU1212
 3590 0006 0646     		mov	r6, r0
 3591 0008 1446     		mov	r4, r2
 3592              		.loc 1 1492 26 view .LVU1213
 3593 000a 0021     		movs	r1, #0
 3594              	.LVL182:
 3595              		.loc 1 1492 26 view .LVU1214
 3596 000c 4C22     		movs	r2, #76
 3597              	.LVL183:
 3598              		.loc 1 1492 26 view .LVU1215
 3599 000e 01A8     		add	r0, sp, #4
 3600              	.LVL184:
1491:STM32Cube_FW_N6/Drivers/BSP/Components/mx66uw1g45g/mx66uw1g45g.c ****   XSPI_RegularCmdTypeDef s_command = {0};
 3601              		.loc 1 1491 1 view .LVU1216
 3602 0010 1F46     		mov	r7, r3
 3603              		.loc 1 1492 26 view .LVU1217
 3604 0012 FFF7FEFF 		bl	memset
 3605              	.LVL185:
1493:STM32Cube_FW_N6/Drivers/BSP/Components/mx66uw1g45g/mx66uw1g45g.c **** 
1494:STM32Cube_FW_N6/Drivers/BSP/Components/mx66uw1g45g/mx66uw1g45g.c ****   /* SPI mode and DTR transfer not supported by memory */
1495:STM32Cube_FW_N6/Drivers/BSP/Components/mx66uw1g45g/mx66uw1g45g.c ****   if ((Mode == MX66UW1G45G_SPI_MODE) && (Rate == MX66UW1G45G_DTR_TRANSFER))
 3606              		.loc 1 1495 3 is_stmt 1 view .LVU1218
 3607              		.loc 1 1495 6 is_stmt 0 view .LVU1219
 3608 0016 2DB9     		cbnz	r5, .L253
 3609              		.loc 1 1495 38 discriminator 1 view .LVU1220
 3610 0018 012C     		cmp	r4, #1
 3611 001a 3ED1     		bne	.L259
 3612              	.LVL186:
 3613              	.L258:
1496:STM32Cube_FW_N6/Drivers/BSP/Components/mx66uw1g45g/mx66uw1g45g.c ****   {
1497:STM32Cube_FW_N6/Drivers/BSP/Components/mx66uw1g45g/mx66uw1g45g.c ****     return MX66UW1G45G_ERROR;
 3614              		.loc 1 1497 12 view .LVU1221
 3615 001c 4FF0FF30 		mov	r0, #-1
 3616              	.L252:
1498:STM32Cube_FW_N6/Drivers/BSP/Components/mx66uw1g45g/mx66uw1g45g.c ****   }
1499:STM32Cube_FW_N6/Drivers/BSP/Components/mx66uw1g45g/mx66uw1g45g.c **** 
ARM GAS  C:\Users\DJESSOU\AppData\Local\Temp\ccAx4BcF.s 			page 105


1500:STM32Cube_FW_N6/Drivers/BSP/Components/mx66uw1g45g/mx66uw1g45g.c ****   /* Initialize the read ID command */
1501:STM32Cube_FW_N6/Drivers/BSP/Components/mx66uw1g45g/mx66uw1g45g.c ****   s_command.OperationType = HAL_XSPI_OPTYPE_COMMON_CFG;
1502:STM32Cube_FW_N6/Drivers/BSP/Components/mx66uw1g45g/mx66uw1g45g.c ****   s_command.InstructionMode = (Mode == MX66UW1G45G_SPI_MODE)
1503:STM32Cube_FW_N6/Drivers/BSP/Components/mx66uw1g45g/mx66uw1g45g.c ****                                   ? HAL_XSPI_INSTRUCTION_1_LINE
1504:STM32Cube_FW_N6/Drivers/BSP/Components/mx66uw1g45g/mx66uw1g45g.c ****                                   : HAL_XSPI_INSTRUCTION_8_LINES;
1505:STM32Cube_FW_N6/Drivers/BSP/Components/mx66uw1g45g/mx66uw1g45g.c ****   s_command.InstructionDTRMode = (Rate == MX66UW1G45G_DTR_TRANSFER)
1506:STM32Cube_FW_N6/Drivers/BSP/Components/mx66uw1g45g/mx66uw1g45g.c ****                                      ? HAL_XSPI_INSTRUCTION_DTR_ENABLE
1507:STM32Cube_FW_N6/Drivers/BSP/Components/mx66uw1g45g/mx66uw1g45g.c ****                                      : HAL_XSPI_INSTRUCTION_DTR_DISABLE;
1508:STM32Cube_FW_N6/Drivers/BSP/Components/mx66uw1g45g/mx66uw1g45g.c ****   s_command.InstructionWidth = (Mode == MX66UW1G45G_SPI_MODE)
1509:STM32Cube_FW_N6/Drivers/BSP/Components/mx66uw1g45g/mx66uw1g45g.c ****                                    ? HAL_XSPI_INSTRUCTION_8_BITS
1510:STM32Cube_FW_N6/Drivers/BSP/Components/mx66uw1g45g/mx66uw1g45g.c ****                                    : HAL_XSPI_INSTRUCTION_16_BITS;
1511:STM32Cube_FW_N6/Drivers/BSP/Components/mx66uw1g45g/mx66uw1g45g.c ****   s_command.Instruction = (Mode == MX66UW1G45G_SPI_MODE)
1512:STM32Cube_FW_N6/Drivers/BSP/Components/mx66uw1g45g/mx66uw1g45g.c ****                               ? MX66UW1G45G_READ_ID_CMD
1513:STM32Cube_FW_N6/Drivers/BSP/Components/mx66uw1g45g/mx66uw1g45g.c ****                               : MX66UW1G45G_OCTA_READ_ID_CMD;
1514:STM32Cube_FW_N6/Drivers/BSP/Components/mx66uw1g45g/mx66uw1g45g.c ****   s_command.AddressMode = (Mode == MX66UW1G45G_SPI_MODE)
1515:STM32Cube_FW_N6/Drivers/BSP/Components/mx66uw1g45g/mx66uw1g45g.c ****                               ? HAL_XSPI_ADDRESS_NONE
1516:STM32Cube_FW_N6/Drivers/BSP/Components/mx66uw1g45g/mx66uw1g45g.c ****                               : HAL_XSPI_ADDRESS_8_LINES;
1517:STM32Cube_FW_N6/Drivers/BSP/Components/mx66uw1g45g/mx66uw1g45g.c ****   s_command.AddressDTRMode = (Rate == MX66UW1G45G_DTR_TRANSFER)
1518:STM32Cube_FW_N6/Drivers/BSP/Components/mx66uw1g45g/mx66uw1g45g.c ****                                  ? HAL_XSPI_ADDRESS_DTR_ENABLE
1519:STM32Cube_FW_N6/Drivers/BSP/Components/mx66uw1g45g/mx66uw1g45g.c ****                                  : HAL_XSPI_ADDRESS_DTR_DISABLE;
1520:STM32Cube_FW_N6/Drivers/BSP/Components/mx66uw1g45g/mx66uw1g45g.c ****   s_command.AddressWidth = HAL_XSPI_ADDRESS_32_BITS;
1521:STM32Cube_FW_N6/Drivers/BSP/Components/mx66uw1g45g/mx66uw1g45g.c ****   s_command.Address = 0U;
1522:STM32Cube_FW_N6/Drivers/BSP/Components/mx66uw1g45g/mx66uw1g45g.c ****   s_command.AlternateBytesMode = HAL_XSPI_ALT_BYTES_NONE;
1523:STM32Cube_FW_N6/Drivers/BSP/Components/mx66uw1g45g/mx66uw1g45g.c ****   s_command.DataMode = (Mode == MX66UW1G45G_SPI_MODE) ? HAL_XSPI_DATA_1_LINE : HAL_XSPI_DATA_8_LINE
1524:STM32Cube_FW_N6/Drivers/BSP/Components/mx66uw1g45g/mx66uw1g45g.c ****   s_command.DataDTRMode = HAL_XSPI_DATA_DTR_DISABLE;
1525:STM32Cube_FW_N6/Drivers/BSP/Components/mx66uw1g45g/mx66uw1g45g.c ****   s_command.DummyCycles = (Mode == MX66UW1G45G_SPI_MODE)
1526:STM32Cube_FW_N6/Drivers/BSP/Components/mx66uw1g45g/mx66uw1g45g.c ****                               ? 0U
1527:STM32Cube_FW_N6/Drivers/BSP/Components/mx66uw1g45g/mx66uw1g45g.c ****                               : DUMMY_CYCLES_REG_OCTAL;
1528:STM32Cube_FW_N6/Drivers/BSP/Components/mx66uw1g45g/mx66uw1g45g.c ****   s_command.DataLength = 3U;
1529:STM32Cube_FW_N6/Drivers/BSP/Components/mx66uw1g45g/mx66uw1g45g.c ****   s_command.DQSMode = (Rate == MX66UW1G45G_DTR_TRANSFER) ? HAL_XSPI_DQS_ENABLE : HAL_XSPI_DQS_DISAB
1530:STM32Cube_FW_N6/Drivers/BSP/Components/mx66uw1g45g/mx66uw1g45g.c ****  #if defined (XSPI_CCR_SIOO)
1531:STM32Cube_FW_N6/Drivers/BSP/Components/mx66uw1g45g/mx66uw1g45g.c ****   s_command.SIOOMode            = HAL_XSPI_SIOO_INST_EVERY_CMD;
1532:STM32Cube_FW_N6/Drivers/BSP/Components/mx66uw1g45g/mx66uw1g45g.c ****  #endif
1533:STM32Cube_FW_N6/Drivers/BSP/Components/mx66uw1g45g/mx66uw1g45g.c **** 
1534:STM32Cube_FW_N6/Drivers/BSP/Components/mx66uw1g45g/mx66uw1g45g.c ****   /* Configure the command */
1535:STM32Cube_FW_N6/Drivers/BSP/Components/mx66uw1g45g/mx66uw1g45g.c ****   if (HAL_XSPI_Command(Ctx, &s_command, HAL_XSPI_TIMEOUT_DEFAULT_VALUE) != HAL_OK)
1536:STM32Cube_FW_N6/Drivers/BSP/Components/mx66uw1g45g/mx66uw1g45g.c ****   {
1537:STM32Cube_FW_N6/Drivers/BSP/Components/mx66uw1g45g/mx66uw1g45g.c ****     return MX66UW1G45G_ERROR;
1538:STM32Cube_FW_N6/Drivers/BSP/Components/mx66uw1g45g/mx66uw1g45g.c ****   }
1539:STM32Cube_FW_N6/Drivers/BSP/Components/mx66uw1g45g/mx66uw1g45g.c **** 
1540:STM32Cube_FW_N6/Drivers/BSP/Components/mx66uw1g45g/mx66uw1g45g.c ****   /* Reception of the data */
1541:STM32Cube_FW_N6/Drivers/BSP/Components/mx66uw1g45g/mx66uw1g45g.c ****   if (HAL_XSPI_Receive(Ctx, ID, HAL_XSPI_TIMEOUT_DEFAULT_VALUE) != HAL_OK)
1542:STM32Cube_FW_N6/Drivers/BSP/Components/mx66uw1g45g/mx66uw1g45g.c ****   {
1543:STM32Cube_FW_N6/Drivers/BSP/Components/mx66uw1g45g/mx66uw1g45g.c ****     return MX66UW1G45G_ERROR;
1544:STM32Cube_FW_N6/Drivers/BSP/Components/mx66uw1g45g/mx66uw1g45g.c ****   }
1545:STM32Cube_FW_N6/Drivers/BSP/Components/mx66uw1g45g/mx66uw1g45g.c **** 
1546:STM32Cube_FW_N6/Drivers/BSP/Components/mx66uw1g45g/mx66uw1g45g.c ****   return MX66UW1G45G_OK;
1547:STM32Cube_FW_N6/Drivers/BSP/Components/mx66uw1g45g/mx66uw1g45g.c **** }
 3617              		.loc 1 1547 1 view .LVU1222
 3618 0020 15B0     		add	sp, sp, #84
 3619              		.cfi_remember_state
 3620              		.cfi_def_cfa_offset 20
 3621              		@ sp needed
 3622 0022 F0BD     		pop	{r4, r5, r6, r7, pc}
 3623              	.LVL187:
 3624              	.L253:
 3625              		.cfi_restore_state
ARM GAS  C:\Users\DJESSOU\AppData\Local\Temp\ccAx4BcF.s 			page 106


1505:STM32Cube_FW_N6/Drivers/BSP/Components/mx66uw1g45g/mx66uw1g45g.c ****                                      ? HAL_XSPI_INSTRUCTION_DTR_ENABLE
 3626              		.loc 1 1505 3 is_stmt 1 view .LVU1223
 3627 0024 0423     		movs	r3, #4
1507:STM32Cube_FW_N6/Drivers/BSP/Components/mx66uw1g45g/mx66uw1g45g.c ****   s_command.InstructionWidth = (Mode == MX66UW1G45G_SPI_MODE)
 3628              		.loc 1 1507 38 is_stmt 0 view .LVU1224
 3629 0026 611E     		subs	r1, r4, #1
 3630 0028 4A42     		rsbs	r2, r1, #0
 3631 002a 4A41     		adcs	r2, r2, r1
 3632 002c D200     		lsls	r2, r2, #3
 3633              	.L254:
1502:STM32Cube_FW_N6/Drivers/BSP/Components/mx66uw1g45g/mx66uw1g45g.c ****                                   ? HAL_XSPI_INSTRUCTION_1_LINE
 3634              		.loc 1 1502 29 view .LVU1225
 3635 002e 0493     		str	r3, [sp, #16]
1505:STM32Cube_FW_N6/Drivers/BSP/Components/mx66uw1g45g/mx66uw1g45g.c ****                                      ? HAL_XSPI_INSTRUCTION_DTR_ENABLE
 3636              		.loc 1 1505 32 view .LVU1226
 3637 0030 0692     		str	r2, [sp, #24]
1508:STM32Cube_FW_N6/Drivers/BSP/Components/mx66uw1g45g/mx66uw1g45g.c ****                                    ? HAL_XSPI_INSTRUCTION_8_BITS
 3638              		.loc 1 1508 3 is_stmt 1 view .LVU1227
1510:STM32Cube_FW_N6/Drivers/BSP/Components/mx66uw1g45g/mx66uw1g45g.c ****   s_command.Instruction = (Mode == MX66UW1G45G_SPI_MODE)
 3639              		.loc 1 1510 36 is_stmt 0 view .LVU1228
 3640 0032 002D     		cmp	r5, #0
 3641 0034 34D0     		beq	.L260
1508:STM32Cube_FW_N6/Drivers/BSP/Components/mx66uw1g45g/mx66uw1g45g.c ****                                    ? HAL_XSPI_INSTRUCTION_8_BITS
 3642              		.loc 1 1508 30 view .LVU1229
 3643 0036 1023     		movs	r3, #16
 3644 0038 49F66072 		movw	r2, #40800
 3645 003c 0593     		str	r3, [sp, #20]
1511:STM32Cube_FW_N6/Drivers/BSP/Components/mx66uw1g45g/mx66uw1g45g.c ****                               ? MX66UW1G45G_READ_ID_CMD
 3646              		.loc 1 1511 3 is_stmt 1 view .LVU1230
1514:STM32Cube_FW_N6/Drivers/BSP/Components/mx66uw1g45g/mx66uw1g45g.c ****                               ? HAL_XSPI_ADDRESS_NONE
 3647              		.loc 1 1514 3 view .LVU1231
1516:STM32Cube_FW_N6/Drivers/BSP/Components/mx66uw1g45g/mx66uw1g45g.c ****   s_command.AddressDTRMode = (Rate == MX66UW1G45G_DTR_TRANSFER)
 3648              		.loc 1 1516 31 is_stmt 0 discriminator 2 view .LVU1232
 3649 003e 4FF48063 		mov	r3, #1024
 3650              	.L256:
1514:STM32Cube_FW_N6/Drivers/BSP/Components/mx66uw1g45g/mx66uw1g45g.c ****                               ? HAL_XSPI_ADDRESS_NONE
 3651              		.loc 1 1514 25 view .LVU1233
 3652 0042 0893     		str	r3, [sp, #32]
1517:STM32Cube_FW_N6/Drivers/BSP/Components/mx66uw1g45g/mx66uw1g45g.c ****                                  ? HAL_XSPI_ADDRESS_DTR_ENABLE
 3653              		.loc 1 1517 3 is_stmt 1 view .LVU1234
1519:STM32Cube_FW_N6/Drivers/BSP/Components/mx66uw1g45g/mx66uw1g45g.c ****   s_command.AddressWidth = HAL_XSPI_ADDRESS_32_BITS;
 3654              		.loc 1 1519 34 is_stmt 0 view .LVU1235
 3655 0044 631E     		subs	r3, r4, #1
 3656 0046 5C42     		rsbs	r4, r3, #0
 3657 0048 5C41     		adcs	r4, r4, r3
 3658 004a E302     		lsls	r3, r4, #11
1517:STM32Cube_FW_N6/Drivers/BSP/Components/mx66uw1g45g/mx66uw1g45g.c ****                                  ? HAL_XSPI_ADDRESS_DTR_ENABLE
 3659              		.loc 1 1517 28 view .LVU1236
 3660 004c 0A93     		str	r3, [sp, #40]
1520:STM32Cube_FW_N6/Drivers/BSP/Components/mx66uw1g45g/mx66uw1g45g.c ****   s_command.Address = 0U;
 3661              		.loc 1 1520 3 is_stmt 1 view .LVU1237
1520:STM32Cube_FW_N6/Drivers/BSP/Components/mx66uw1g45g/mx66uw1g45g.c ****   s_command.Address = 0U;
 3662              		.loc 1 1520 26 is_stmt 0 view .LVU1238
 3663 004e 4FF44053 		mov	r3, #12288
1523:STM32Cube_FW_N6/Drivers/BSP/Components/mx66uw1g45g/mx66uw1g45g.c ****   s_command.DataDTRMode = HAL_XSPI_DATA_DTR_DISABLE;
 3664              		.loc 1 1523 22 discriminator 4 view .LVU1239
 3665 0052 002D     		cmp	r5, #0
ARM GAS  C:\Users\DJESSOU\AppData\Local\Temp\ccAx4BcF.s 			page 107


1520:STM32Cube_FW_N6/Drivers/BSP/Components/mx66uw1g45g/mx66uw1g45g.c ****   s_command.Address = 0U;
 3666              		.loc 1 1520 26 view .LVU1240
 3667 0054 0993     		str	r3, [sp, #36]
1521:STM32Cube_FW_N6/Drivers/BSP/Components/mx66uw1g45g/mx66uw1g45g.c ****   s_command.AlternateBytesMode = HAL_XSPI_ALT_BYTES_NONE;
 3668              		.loc 1 1521 3 is_stmt 1 view .LVU1241
1522:STM32Cube_FW_N6/Drivers/BSP/Components/mx66uw1g45g/mx66uw1g45g.c ****   s_command.DataMode = (Mode == MX66UW1G45G_SPI_MODE) ? HAL_XSPI_DATA_1_LINE : HAL_XSPI_DATA_8_LINE
 3669              		.loc 1 1522 3 view .LVU1242
1523:STM32Cube_FW_N6/Drivers/BSP/Components/mx66uw1g45g/mx66uw1g45g.c ****   s_command.DataDTRMode = HAL_XSPI_DATA_DTR_DISABLE;
 3670              		.loc 1 1523 3 view .LVU1243
1523:STM32Cube_FW_N6/Drivers/BSP/Components/mx66uw1g45g/mx66uw1g45g.c ****   s_command.DataDTRMode = HAL_XSPI_DATA_DTR_DISABLE;
 3671              		.loc 1 1523 22 is_stmt 0 discriminator 4 view .LVU1244
 3672 0056 0CBF     		ite	eq
 3673 0058 0023     		moveq	r3, #0
 3674 005a 0423     		movne	r3, #4
1511:STM32Cube_FW_N6/Drivers/BSP/Components/mx66uw1g45g/mx66uw1g45g.c ****                               ? MX66UW1G45G_READ_ID_CMD
 3675              		.loc 1 1511 25 view .LVU1245
 3676 005c 0392     		str	r2, [sp, #12]
1523:STM32Cube_FW_N6/Drivers/BSP/Components/mx66uw1g45g/mx66uw1g45g.c ****   s_command.DataDTRMode = HAL_XSPI_DATA_DTR_DISABLE;
 3677              		.loc 1 1523 22 discriminator 4 view .LVU1246
 3678 005e 0CBF     		ite	eq
 3679 0060 4FF08072 		moveq	r2, #16777216
 3680 0064 4FF08062 		movne	r2, #67108864
1525:STM32Cube_FW_N6/Drivers/BSP/Components/mx66uw1g45g/mx66uw1g45g.c ****                               ? 0U
 3681              		.loc 1 1525 25 view .LVU1247
 3682 0068 1293     		str	r3, [sp, #72]
1528:STM32Cube_FW_N6/Drivers/BSP/Components/mx66uw1g45g/mx66uw1g45g.c ****   s_command.DQSMode = (Rate == MX66UW1G45G_DTR_TRANSFER) ? HAL_XSPI_DQS_ENABLE : HAL_XSPI_DQS_DISAB
 3683              		.loc 1 1528 3 is_stmt 1 view .LVU1248
1528:STM32Cube_FW_N6/Drivers/BSP/Components/mx66uw1g45g/mx66uw1g45g.c ****   s_command.DQSMode = (Rate == MX66UW1G45G_DTR_TRANSFER) ? HAL_XSPI_DQS_ENABLE : HAL_XSPI_DQS_DISAB
 3684              		.loc 1 1528 24 is_stmt 0 view .LVU1249
 3685 006a 0323     		movs	r3, #3
 3686 006c 0F92     		str	r2, [sp, #60]
1529:STM32Cube_FW_N6/Drivers/BSP/Components/mx66uw1g45g/mx66uw1g45g.c ****  #if defined (XSPI_CCR_SIOO)
 3687              		.loc 1 1529 80 view .LVU1250
 3688 006e 6407     		lsls	r4, r4, #29
1535:STM32Cube_FW_N6/Drivers/BSP/Components/mx66uw1g45g/mx66uw1g45g.c ****   {
 3689              		.loc 1 1535 7 view .LVU1251
 3690 0070 41F28832 		movw	r2, #5000
 3691 0074 3046     		mov	r0, r6
 3692 0076 01A9     		add	r1, sp, #4
1528:STM32Cube_FW_N6/Drivers/BSP/Components/mx66uw1g45g/mx66uw1g45g.c ****   s_command.DQSMode = (Rate == MX66UW1G45G_DTR_TRANSFER) ? HAL_XSPI_DQS_ENABLE : HAL_XSPI_DQS_DISAB
 3693              		.loc 1 1528 24 view .LVU1252
 3694 0078 1093     		str	r3, [sp, #64]
1529:STM32Cube_FW_N6/Drivers/BSP/Components/mx66uw1g45g/mx66uw1g45g.c ****  #if defined (XSPI_CCR_SIOO)
 3695              		.loc 1 1529 3 is_stmt 1 view .LVU1253
1529:STM32Cube_FW_N6/Drivers/BSP/Components/mx66uw1g45g/mx66uw1g45g.c ****  #if defined (XSPI_CCR_SIOO)
 3696              		.loc 1 1529 21 is_stmt 0 discriminator 4 view .LVU1254
 3697 007a 1394     		str	r4, [sp, #76]
1535:STM32Cube_FW_N6/Drivers/BSP/Components/mx66uw1g45g/mx66uw1g45g.c ****   {
 3698              		.loc 1 1535 3 is_stmt 1 view .LVU1255
1535:STM32Cube_FW_N6/Drivers/BSP/Components/mx66uw1g45g/mx66uw1g45g.c ****   {
 3699              		.loc 1 1535 7 is_stmt 0 view .LVU1256
 3700 007c FFF7FEFF 		bl	HAL_XSPI_Command
 3701              	.LVL188:
1535:STM32Cube_FW_N6/Drivers/BSP/Components/mx66uw1g45g/mx66uw1g45g.c ****   {
 3702              		.loc 1 1535 6 discriminator 1 view .LVU1257
 3703 0080 0028     		cmp	r0, #0
 3704 0082 CBD1     		bne	.L258
ARM GAS  C:\Users\DJESSOU\AppData\Local\Temp\ccAx4BcF.s 			page 108


1541:STM32Cube_FW_N6/Drivers/BSP/Components/mx66uw1g45g/mx66uw1g45g.c ****   {
 3705              		.loc 1 1541 3 is_stmt 1 view .LVU1258
1541:STM32Cube_FW_N6/Drivers/BSP/Components/mx66uw1g45g/mx66uw1g45g.c ****   {
 3706              		.loc 1 1541 7 is_stmt 0 view .LVU1259
 3707 0084 41F28832 		movw	r2, #5000
 3708 0088 3946     		mov	r1, r7
 3709 008a 3046     		mov	r0, r6
 3710 008c FFF7FEFF 		bl	HAL_XSPI_Receive
 3711              	.LVL189:
1541:STM32Cube_FW_N6/Drivers/BSP/Components/mx66uw1g45g/mx66uw1g45g.c ****   {
 3712              		.loc 1 1541 6 discriminator 1 view .LVU1260
 3713 0090 0038     		subs	r0, r0, #0
 3714 0092 18BF     		it	ne
 3715 0094 0120     		movne	r0, #1
 3716 0096 4042     		rsbs	r0, r0, #0
 3717 0098 C2E7     		b	.L252
 3718              	.L259:
1541:STM32Cube_FW_N6/Drivers/BSP/Components/mx66uw1g45g/mx66uw1g45g.c ****   {
 3719              		.loc 1 1541 6 discriminator 1 view .LVU1261
 3720 009a 0123     		movs	r3, #1
1507:STM32Cube_FW_N6/Drivers/BSP/Components/mx66uw1g45g/mx66uw1g45g.c ****   s_command.InstructionWidth = (Mode == MX66UW1G45G_SPI_MODE)
 3721              		.loc 1 1507 38 discriminator 2 view .LVU1262
 3722 009c 2A46     		mov	r2, r5
 3723 009e C6E7     		b	.L254
 3724              	.L260:
 3725 00a0 9F22     		movs	r2, #159
1516:STM32Cube_FW_N6/Drivers/BSP/Components/mx66uw1g45g/mx66uw1g45g.c ****   s_command.AddressDTRMode = (Rate == MX66UW1G45G_DTR_TRANSFER)
 3726              		.loc 1 1516 31 discriminator 1 view .LVU1263
 3727 00a2 2B46     		mov	r3, r5
 3728 00a4 CDE7     		b	.L256
 3729              		.cfi_endproc
 3730              	.LFE884:
 3732              		.section	.text.MX66UW1G45G_ResetEnable,"ax",%progbits
 3733              		.align	1
 3734              		.global	MX66UW1G45G_ResetEnable
 3735              		.syntax unified
 3736              		.thumb
 3737              		.thumb_func
 3739              	MX66UW1G45G_ResetEnable:
 3740              	.LVL190:
 3741              	.LFB885:
1548:STM32Cube_FW_N6/Drivers/BSP/Components/mx66uw1g45g/mx66uw1g45g.c **** 
1549:STM32Cube_FW_N6/Drivers/BSP/Components/mx66uw1g45g/mx66uw1g45g.c **** /* Reset Commands *************************************************************/
1550:STM32Cube_FW_N6/Drivers/BSP/Components/mx66uw1g45g/mx66uw1g45g.c **** /**
1551:STM32Cube_FW_N6/Drivers/BSP/Components/mx66uw1g45g/mx66uw1g45g.c ****   * @brief  Flash reset enable command
1552:STM32Cube_FW_N6/Drivers/BSP/Components/mx66uw1g45g/mx66uw1g45g.c ****   *         SPI/OPI
1553:STM32Cube_FW_N6/Drivers/BSP/Components/mx66uw1g45g/mx66uw1g45g.c ****   * @param  Ctx Component object pointer
1554:STM32Cube_FW_N6/Drivers/BSP/Components/mx66uw1g45g/mx66uw1g45g.c ****   * @param  Mode Interface select
1555:STM32Cube_FW_N6/Drivers/BSP/Components/mx66uw1g45g/mx66uw1g45g.c ****   * @param  Rate Transfer rate STR or DTR
1556:STM32Cube_FW_N6/Drivers/BSP/Components/mx66uw1g45g/mx66uw1g45g.c ****   * @retval error status
1557:STM32Cube_FW_N6/Drivers/BSP/Components/mx66uw1g45g/mx66uw1g45g.c ****   */
1558:STM32Cube_FW_N6/Drivers/BSP/Components/mx66uw1g45g/mx66uw1g45g.c **** int32_t MX66UW1G45G_ResetEnable(XSPI_HandleTypeDef *Ctx, MX66UW1G45G_Interface_t Mode, MX66UW1G45G_
1559:STM32Cube_FW_N6/Drivers/BSP/Components/mx66uw1g45g/mx66uw1g45g.c **** {
 3742              		.loc 1 1559 1 is_stmt 1 view -0
 3743              		.cfi_startproc
 3744              		@ args = 0, pretend = 0, frame = 80
 3745              		@ frame_needed = 0, uses_anonymous_args = 0
ARM GAS  C:\Users\DJESSOU\AppData\Local\Temp\ccAx4BcF.s 			page 109


1560:STM32Cube_FW_N6/Drivers/BSP/Components/mx66uw1g45g/mx66uw1g45g.c ****   XSPI_RegularCmdTypeDef s_command = {0};
 3746              		.loc 1 1560 3 view .LVU1265
1559:STM32Cube_FW_N6/Drivers/BSP/Components/mx66uw1g45g/mx66uw1g45g.c ****   XSPI_RegularCmdTypeDef s_command = {0};
 3747              		.loc 1 1559 1 is_stmt 0 view .LVU1266
 3748 0000 70B5     		push	{r4, r5, r6, lr}
 3749              		.cfi_def_cfa_offset 16
 3750              		.cfi_offset 4, -16
 3751              		.cfi_offset 5, -12
 3752              		.cfi_offset 6, -8
 3753              		.cfi_offset 14, -4
 3754 0002 0D46     		mov	r5, r1
 3755 0004 94B0     		sub	sp, sp, #80
 3756              		.cfi_def_cfa_offset 96
1559:STM32Cube_FW_N6/Drivers/BSP/Components/mx66uw1g45g/mx66uw1g45g.c ****   XSPI_RegularCmdTypeDef s_command = {0};
 3757              		.loc 1 1559 1 view .LVU1267
 3758 0006 0646     		mov	r6, r0
 3759 0008 1446     		mov	r4, r2
 3760              		.loc 1 1560 26 view .LVU1268
 3761 000a 0021     		movs	r1, #0
 3762              	.LVL191:
 3763              		.loc 1 1560 26 view .LVU1269
 3764 000c 4C22     		movs	r2, #76
 3765              	.LVL192:
 3766              		.loc 1 1560 26 view .LVU1270
 3767 000e 01A8     		add	r0, sp, #4
 3768              	.LVL193:
 3769              		.loc 1 1560 26 view .LVU1271
 3770 0010 FFF7FEFF 		bl	memset
 3771              	.LVL194:
1561:STM32Cube_FW_N6/Drivers/BSP/Components/mx66uw1g45g/mx66uw1g45g.c **** 
1562:STM32Cube_FW_N6/Drivers/BSP/Components/mx66uw1g45g/mx66uw1g45g.c ****   /* SPI mode and DTR transfer not supported by memory */
1563:STM32Cube_FW_N6/Drivers/BSP/Components/mx66uw1g45g/mx66uw1g45g.c ****   if ((Mode == MX66UW1G45G_SPI_MODE) && (Rate == MX66UW1G45G_DTR_TRANSFER))
 3772              		.loc 1 1563 3 is_stmt 1 view .LVU1272
 3773              		.loc 1 1563 6 is_stmt 0 view .LVU1273
 3774 0014 D5B9     		cbnz	r5, .L266
 3775              		.loc 1 1563 38 discriminator 1 view .LVU1274
 3776 0016 012C     		cmp	r4, #1
 3777 0018 1CD0     		beq	.L267
1564:STM32Cube_FW_N6/Drivers/BSP/Components/mx66uw1g45g/mx66uw1g45g.c ****   {
1565:STM32Cube_FW_N6/Drivers/BSP/Components/mx66uw1g45g/mx66uw1g45g.c ****     return MX66UW1G45G_ERROR;
1566:STM32Cube_FW_N6/Drivers/BSP/Components/mx66uw1g45g/mx66uw1g45g.c ****   }
1567:STM32Cube_FW_N6/Drivers/BSP/Components/mx66uw1g45g/mx66uw1g45g.c **** 
1568:STM32Cube_FW_N6/Drivers/BSP/Components/mx66uw1g45g/mx66uw1g45g.c ****   /* Initialize the reset enable command */
1569:STM32Cube_FW_N6/Drivers/BSP/Components/mx66uw1g45g/mx66uw1g45g.c ****   s_command.OperationType = HAL_XSPI_OPTYPE_COMMON_CFG;
1570:STM32Cube_FW_N6/Drivers/BSP/Components/mx66uw1g45g/mx66uw1g45g.c ****   s_command.IOSelect =  HAL_XSPI_SELECT_IO_3_0;
1571:STM32Cube_FW_N6/Drivers/BSP/Components/mx66uw1g45g/mx66uw1g45g.c ****   s_command.InstructionMode = (Mode == MX66UW1G45G_SPI_MODE)
1572:STM32Cube_FW_N6/Drivers/BSP/Components/mx66uw1g45g/mx66uw1g45g.c ****                                   ? HAL_XSPI_INSTRUCTION_1_LINE
1573:STM32Cube_FW_N6/Drivers/BSP/Components/mx66uw1g45g/mx66uw1g45g.c ****                                   : HAL_XSPI_INSTRUCTION_8_LINES;
 3778              		.loc 1 1573 35 discriminator 1 view .LVU1275
 3779 001a 0123     		movs	r3, #1
 3780              	.L263:
1571:STM32Cube_FW_N6/Drivers/BSP/Components/mx66uw1g45g/mx66uw1g45g.c ****                                   ? HAL_XSPI_INSTRUCTION_1_LINE
 3781              		.loc 1 1571 29 view .LVU1276
 3782 001c 0493     		str	r3, [sp, #16]
1574:STM32Cube_FW_N6/Drivers/BSP/Components/mx66uw1g45g/mx66uw1g45g.c ****   s_command.InstructionDTRMode = (Rate == MX66UW1G45G_DTR_TRANSFER)
 3783              		.loc 1 1574 3 is_stmt 1 view .LVU1277
1575:STM32Cube_FW_N6/Drivers/BSP/Components/mx66uw1g45g/mx66uw1g45g.c ****                                      ? HAL_XSPI_INSTRUCTION_DTR_ENABLE
ARM GAS  C:\Users\DJESSOU\AppData\Local\Temp\ccAx4BcF.s 			page 110


1576:STM32Cube_FW_N6/Drivers/BSP/Components/mx66uw1g45g/mx66uw1g45g.c ****                                      : HAL_XSPI_INSTRUCTION_DTR_DISABLE;
 3784              		.loc 1 1576 38 is_stmt 0 view .LVU1278
 3785 001e 631E     		subs	r3, r4, #1
 3786 0020 5C42     		rsbs	r4, r3, #0
 3787              	.LVL195:
 3788              		.loc 1 1576 38 view .LVU1279
 3789 0022 5C41     		adcs	r4, r4, r3
 3790 0024 E400     		lsls	r4, r4, #3
1574:STM32Cube_FW_N6/Drivers/BSP/Components/mx66uw1g45g/mx66uw1g45g.c ****   s_command.InstructionDTRMode = (Rate == MX66UW1G45G_DTR_TRANSFER)
 3791              		.loc 1 1574 32 view .LVU1280
 3792 0026 0694     		str	r4, [sp, #24]
1577:STM32Cube_FW_N6/Drivers/BSP/Components/mx66uw1g45g/mx66uw1g45g.c ****   s_command.InstructionWidth = (Mode == MX66UW1G45G_SPI_MODE)
 3793              		.loc 1 1577 3 is_stmt 1 view .LVU1281
1578:STM32Cube_FW_N6/Drivers/BSP/Components/mx66uw1g45g/mx66uw1g45g.c ****                                    ? HAL_XSPI_INSTRUCTION_8_BITS
1579:STM32Cube_FW_N6/Drivers/BSP/Components/mx66uw1g45g/mx66uw1g45g.c ****                                    : HAL_XSPI_INSTRUCTION_16_BITS;
 3794              		.loc 1 1579 36 is_stmt 0 view .LVU1282
 3795 0028 95B1     		cbz	r5, .L268
1577:STM32Cube_FW_N6/Drivers/BSP/Components/mx66uw1g45g/mx66uw1g45g.c ****   s_command.InstructionWidth = (Mode == MX66UW1G45G_SPI_MODE)
 3796              		.loc 1 1577 30 view .LVU1283
 3797 002a 1023     		movs	r3, #16
 3798              	.LVL196:
1577:STM32Cube_FW_N6/Drivers/BSP/Components/mx66uw1g45g/mx66uw1g45g.c ****   s_command.InstructionWidth = (Mode == MX66UW1G45G_SPI_MODE)
 3799              		.loc 1 1577 30 view .LVU1284
 3800 002c 0593     		str	r3, [sp, #20]
1580:STM32Cube_FW_N6/Drivers/BSP/Components/mx66uw1g45g/mx66uw1g45g.c ****   s_command.Instruction = (Mode == MX66UW1G45G_SPI_MODE)
 3801              		.loc 1 1580 3 is_stmt 1 view .LVU1285
1581:STM32Cube_FW_N6/Drivers/BSP/Components/mx66uw1g45g/mx66uw1g45g.c ****                               ? MX66UW1G45G_RESET_ENABLE_CMD
1582:STM32Cube_FW_N6/Drivers/BSP/Components/mx66uw1g45g/mx66uw1g45g.c ****                               : MX66UW1G45G_OCTA_RESET_ENABLE_CMD;
 3802              		.loc 1 1582 31 is_stmt 0 discriminator 2 view .LVU1286
 3803 002e 46F29963 		movw	r3, #26265
 3804              	.L265:
1583:STM32Cube_FW_N6/Drivers/BSP/Components/mx66uw1g45g/mx66uw1g45g.c ****   s_command.AddressMode = HAL_XSPI_ADDRESS_NONE;
1584:STM32Cube_FW_N6/Drivers/BSP/Components/mx66uw1g45g/mx66uw1g45g.c ****   s_command.AlternateBytesMode = HAL_XSPI_ALT_BYTES_NONE;
1585:STM32Cube_FW_N6/Drivers/BSP/Components/mx66uw1g45g/mx66uw1g45g.c ****   s_command.DataMode = HAL_XSPI_DATA_NONE;
1586:STM32Cube_FW_N6/Drivers/BSP/Components/mx66uw1g45g/mx66uw1g45g.c ****   s_command.DummyCycles = 0U;
1587:STM32Cube_FW_N6/Drivers/BSP/Components/mx66uw1g45g/mx66uw1g45g.c ****   s_command.DQSMode = HAL_XSPI_DQS_DISABLE;
1588:STM32Cube_FW_N6/Drivers/BSP/Components/mx66uw1g45g/mx66uw1g45g.c **** 
1589:STM32Cube_FW_N6/Drivers/BSP/Components/mx66uw1g45g/mx66uw1g45g.c **** 
1590:STM32Cube_FW_N6/Drivers/BSP/Components/mx66uw1g45g/mx66uw1g45g.c ****   /* Send the command */
1591:STM32Cube_FW_N6/Drivers/BSP/Components/mx66uw1g45g/mx66uw1g45g.c ****   if (HAL_XSPI_Command(Ctx, &s_command, HAL_XSPI_TIMEOUT_DEFAULT_VALUE) != HAL_OK)
 3805              		.loc 1 1591 7 view .LVU1287
 3806 0032 41F28832 		movw	r2, #5000
 3807 0036 3046     		mov	r0, r6
 3808 0038 01A9     		add	r1, sp, #4
1580:STM32Cube_FW_N6/Drivers/BSP/Components/mx66uw1g45g/mx66uw1g45g.c ****                               ? MX66UW1G45G_RESET_ENABLE_CMD
 3809              		.loc 1 1580 25 view .LVU1288
 3810 003a 0393     		str	r3, [sp, #12]
1583:STM32Cube_FW_N6/Drivers/BSP/Components/mx66uw1g45g/mx66uw1g45g.c ****   s_command.AddressMode = HAL_XSPI_ADDRESS_NONE;
 3811              		.loc 1 1583 3 is_stmt 1 view .LVU1289
1584:STM32Cube_FW_N6/Drivers/BSP/Components/mx66uw1g45g/mx66uw1g45g.c ****   s_command.DataMode = HAL_XSPI_DATA_NONE;
 3812              		.loc 1 1584 3 view .LVU1290
1585:STM32Cube_FW_N6/Drivers/BSP/Components/mx66uw1g45g/mx66uw1g45g.c ****   s_command.DummyCycles = 0U;
 3813              		.loc 1 1585 3 view .LVU1291
1586:STM32Cube_FW_N6/Drivers/BSP/Components/mx66uw1g45g/mx66uw1g45g.c ****   s_command.DQSMode = HAL_XSPI_DQS_DISABLE;
 3814              		.loc 1 1586 3 view .LVU1292
1587:STM32Cube_FW_N6/Drivers/BSP/Components/mx66uw1g45g/mx66uw1g45g.c **** 
 3815              		.loc 1 1587 3 view .LVU1293
ARM GAS  C:\Users\DJESSOU\AppData\Local\Temp\ccAx4BcF.s 			page 111


 3816              		.loc 1 1591 3 view .LVU1294
 3817              		.loc 1 1591 7 is_stmt 0 view .LVU1295
 3818 003c FFF7FEFF 		bl	HAL_XSPI_Command
 3819              	.LVL197:
 3820              		.loc 1 1591 6 discriminator 1 view .LVU1296
 3821 0040 0038     		subs	r0, r0, #0
 3822 0042 18BF     		it	ne
 3823 0044 0120     		movne	r0, #1
 3824 0046 4042     		rsbs	r0, r0, #0
 3825              	.L262:
1592:STM32Cube_FW_N6/Drivers/BSP/Components/mx66uw1g45g/mx66uw1g45g.c ****   {
1593:STM32Cube_FW_N6/Drivers/BSP/Components/mx66uw1g45g/mx66uw1g45g.c ****     return MX66UW1G45G_ERROR;
1594:STM32Cube_FW_N6/Drivers/BSP/Components/mx66uw1g45g/mx66uw1g45g.c ****   }
1595:STM32Cube_FW_N6/Drivers/BSP/Components/mx66uw1g45g/mx66uw1g45g.c **** 
1596:STM32Cube_FW_N6/Drivers/BSP/Components/mx66uw1g45g/mx66uw1g45g.c ****   return MX66UW1G45G_OK;
1597:STM32Cube_FW_N6/Drivers/BSP/Components/mx66uw1g45g/mx66uw1g45g.c **** }
 3826              		.loc 1 1597 1 view .LVU1297
 3827 0048 14B0     		add	sp, sp, #80
 3828              		.cfi_remember_state
 3829              		.cfi_def_cfa_offset 16
 3830              		@ sp needed
 3831 004a 70BD     		pop	{r4, r5, r6, pc}
 3832              	.LVL198:
 3833              	.L266:
 3834              		.cfi_restore_state
1573:STM32Cube_FW_N6/Drivers/BSP/Components/mx66uw1g45g/mx66uw1g45g.c ****   s_command.InstructionDTRMode = (Rate == MX66UW1G45G_DTR_TRANSFER)
 3835              		.loc 1 1573 35 discriminator 2 view .LVU1298
 3836 004c 0423     		movs	r3, #4
 3837 004e E5E7     		b	.L263
 3838              	.L268:
1582:STM32Cube_FW_N6/Drivers/BSP/Components/mx66uw1g45g/mx66uw1g45g.c ****   s_command.AddressMode = HAL_XSPI_ADDRESS_NONE;
 3839              		.loc 1 1582 31 discriminator 1 view .LVU1299
 3840 0050 6623     		movs	r3, #102
 3841 0052 EEE7     		b	.L265
 3842              	.L267:
1565:STM32Cube_FW_N6/Drivers/BSP/Components/mx66uw1g45g/mx66uw1g45g.c ****   }
 3843              		.loc 1 1565 12 view .LVU1300
 3844 0054 4FF0FF30 		mov	r0, #-1
 3845 0058 F6E7     		b	.L262
 3846              		.cfi_endproc
 3847              	.LFE885:
 3849              		.section	.text.MX66UW1G45G_ResetMemory,"ax",%progbits
 3850              		.align	1
 3851              		.global	MX66UW1G45G_ResetMemory
 3852              		.syntax unified
 3853              		.thumb
 3854              		.thumb_func
 3856              	MX66UW1G45G_ResetMemory:
 3857              	.LVL199:
 3858              	.LFB886:
1598:STM32Cube_FW_N6/Drivers/BSP/Components/mx66uw1g45g/mx66uw1g45g.c **** 
1599:STM32Cube_FW_N6/Drivers/BSP/Components/mx66uw1g45g/mx66uw1g45g.c **** /**
1600:STM32Cube_FW_N6/Drivers/BSP/Components/mx66uw1g45g/mx66uw1g45g.c ****   * @brief  Flash reset memory command
1601:STM32Cube_FW_N6/Drivers/BSP/Components/mx66uw1g45g/mx66uw1g45g.c ****   *         SPI/OPI
1602:STM32Cube_FW_N6/Drivers/BSP/Components/mx66uw1g45g/mx66uw1g45g.c ****   * @param  Ctx Component object pointer
1603:STM32Cube_FW_N6/Drivers/BSP/Components/mx66uw1g45g/mx66uw1g45g.c ****   * @param  Mode Interface select
1604:STM32Cube_FW_N6/Drivers/BSP/Components/mx66uw1g45g/mx66uw1g45g.c ****   * @param  Rate Transfer rate STR or DTR
ARM GAS  C:\Users\DJESSOU\AppData\Local\Temp\ccAx4BcF.s 			page 112


1605:STM32Cube_FW_N6/Drivers/BSP/Components/mx66uw1g45g/mx66uw1g45g.c ****   * @retval error status
1606:STM32Cube_FW_N6/Drivers/BSP/Components/mx66uw1g45g/mx66uw1g45g.c ****   */
1607:STM32Cube_FW_N6/Drivers/BSP/Components/mx66uw1g45g/mx66uw1g45g.c **** int32_t MX66UW1G45G_ResetMemory(XSPI_HandleTypeDef *Ctx, MX66UW1G45G_Interface_t Mode, MX66UW1G45G_
1608:STM32Cube_FW_N6/Drivers/BSP/Components/mx66uw1g45g/mx66uw1g45g.c **** {
 3859              		.loc 1 1608 1 is_stmt 1 view -0
 3860              		.cfi_startproc
 3861              		@ args = 0, pretend = 0, frame = 80
 3862              		@ frame_needed = 0, uses_anonymous_args = 0
1609:STM32Cube_FW_N6/Drivers/BSP/Components/mx66uw1g45g/mx66uw1g45g.c ****   XSPI_RegularCmdTypeDef s_command = {0};
 3863              		.loc 1 1609 3 view .LVU1302
1608:STM32Cube_FW_N6/Drivers/BSP/Components/mx66uw1g45g/mx66uw1g45g.c ****   XSPI_RegularCmdTypeDef s_command = {0};
 3864              		.loc 1 1608 1 is_stmt 0 view .LVU1303
 3865 0000 70B5     		push	{r4, r5, r6, lr}
 3866              		.cfi_def_cfa_offset 16
 3867              		.cfi_offset 4, -16
 3868              		.cfi_offset 5, -12
 3869              		.cfi_offset 6, -8
 3870              		.cfi_offset 14, -4
 3871 0002 0D46     		mov	r5, r1
 3872 0004 94B0     		sub	sp, sp, #80
 3873              		.cfi_def_cfa_offset 96
1608:STM32Cube_FW_N6/Drivers/BSP/Components/mx66uw1g45g/mx66uw1g45g.c ****   XSPI_RegularCmdTypeDef s_command = {0};
 3874              		.loc 1 1608 1 view .LVU1304
 3875 0006 0646     		mov	r6, r0
 3876 0008 1446     		mov	r4, r2
 3877              		.loc 1 1609 26 view .LVU1305
 3878 000a 0021     		movs	r1, #0
 3879              	.LVL200:
 3880              		.loc 1 1609 26 view .LVU1306
 3881 000c 4C22     		movs	r2, #76
 3882              	.LVL201:
 3883              		.loc 1 1609 26 view .LVU1307
 3884 000e 01A8     		add	r0, sp, #4
 3885              	.LVL202:
 3886              		.loc 1 1609 26 view .LVU1308
 3887 0010 FFF7FEFF 		bl	memset
 3888              	.LVL203:
1610:STM32Cube_FW_N6/Drivers/BSP/Components/mx66uw1g45g/mx66uw1g45g.c **** 
1611:STM32Cube_FW_N6/Drivers/BSP/Components/mx66uw1g45g/mx66uw1g45g.c ****   /* SPI mode and DTR transfer not supported by memory */
1612:STM32Cube_FW_N6/Drivers/BSP/Components/mx66uw1g45g/mx66uw1g45g.c ****   if ((Mode == MX66UW1G45G_SPI_MODE) && (Rate == MX66UW1G45G_DTR_TRANSFER))
 3889              		.loc 1 1612 3 is_stmt 1 view .LVU1309
 3890              		.loc 1 1612 6 is_stmt 0 view .LVU1310
 3891 0014 BDB9     		cbnz	r5, .L270
 3892              		.loc 1 1612 38 discriminator 1 view .LVU1311
 3893 0016 012C     		cmp	r4, #1
 3894 0018 1DD0     		beq	.L274
 3895 001a 0123     		movs	r3, #1
1613:STM32Cube_FW_N6/Drivers/BSP/Components/mx66uw1g45g/mx66uw1g45g.c ****   {
1614:STM32Cube_FW_N6/Drivers/BSP/Components/mx66uw1g45g/mx66uw1g45g.c ****     return MX66UW1G45G_ERROR;
1615:STM32Cube_FW_N6/Drivers/BSP/Components/mx66uw1g45g/mx66uw1g45g.c ****   }
1616:STM32Cube_FW_N6/Drivers/BSP/Components/mx66uw1g45g/mx66uw1g45g.c **** 
1617:STM32Cube_FW_N6/Drivers/BSP/Components/mx66uw1g45g/mx66uw1g45g.c ****   /* Initialize the reset enable command */
1618:STM32Cube_FW_N6/Drivers/BSP/Components/mx66uw1g45g/mx66uw1g45g.c ****   s_command.OperationType = HAL_XSPI_OPTYPE_COMMON_CFG;
1619:STM32Cube_FW_N6/Drivers/BSP/Components/mx66uw1g45g/mx66uw1g45g.c ****   s_command.InstructionMode = (Mode == MX66UW1G45G_SPI_MODE)
1620:STM32Cube_FW_N6/Drivers/BSP/Components/mx66uw1g45g/mx66uw1g45g.c ****                                   ? HAL_XSPI_INSTRUCTION_1_LINE
1621:STM32Cube_FW_N6/Drivers/BSP/Components/mx66uw1g45g/mx66uw1g45g.c ****                                   : HAL_XSPI_INSTRUCTION_8_LINES;
1622:STM32Cube_FW_N6/Drivers/BSP/Components/mx66uw1g45g/mx66uw1g45g.c ****   s_command.InstructionDTRMode = (Rate == MX66UW1G45G_DTR_TRANSFER)
ARM GAS  C:\Users\DJESSOU\AppData\Local\Temp\ccAx4BcF.s 			page 113


1623:STM32Cube_FW_N6/Drivers/BSP/Components/mx66uw1g45g/mx66uw1g45g.c ****                                      ? HAL_XSPI_INSTRUCTION_DTR_ENABLE
1624:STM32Cube_FW_N6/Drivers/BSP/Components/mx66uw1g45g/mx66uw1g45g.c ****                                      : HAL_XSPI_INSTRUCTION_DTR_DISABLE;
 3896              		.loc 1 1624 38 discriminator 2 view .LVU1312
 3897 001c 2C46     		mov	r4, r5
 3898              	.LVL204:
 3899              	.L272:
1619:STM32Cube_FW_N6/Drivers/BSP/Components/mx66uw1g45g/mx66uw1g45g.c ****                                   ? HAL_XSPI_INSTRUCTION_1_LINE
 3900              		.loc 1 1619 29 view .LVU1313
 3901 001e 0493     		str	r3, [sp, #16]
1622:STM32Cube_FW_N6/Drivers/BSP/Components/mx66uw1g45g/mx66uw1g45g.c ****                                      ? HAL_XSPI_INSTRUCTION_DTR_ENABLE
 3902              		.loc 1 1622 32 view .LVU1314
 3903 0020 0694     		str	r4, [sp, #24]
1625:STM32Cube_FW_N6/Drivers/BSP/Components/mx66uw1g45g/mx66uw1g45g.c ****   s_command.InstructionWidth = (Mode == MX66UW1G45G_SPI_MODE)
 3904              		.loc 1 1625 3 is_stmt 1 view .LVU1315
1626:STM32Cube_FW_N6/Drivers/BSP/Components/mx66uw1g45g/mx66uw1g45g.c ****                                    ? HAL_XSPI_INSTRUCTION_8_BITS
1627:STM32Cube_FW_N6/Drivers/BSP/Components/mx66uw1g45g/mx66uw1g45g.c ****                                    : HAL_XSPI_INSTRUCTION_16_BITS;
 3905              		.loc 1 1627 36 is_stmt 0 view .LVU1316
 3906 0022 B5B1     		cbz	r5, .L275
1625:STM32Cube_FW_N6/Drivers/BSP/Components/mx66uw1g45g/mx66uw1g45g.c ****   s_command.InstructionWidth = (Mode == MX66UW1G45G_SPI_MODE)
 3907              		.loc 1 1625 30 view .LVU1317
 3908 0024 1023     		movs	r3, #16
 3909 0026 0593     		str	r3, [sp, #20]
1628:STM32Cube_FW_N6/Drivers/BSP/Components/mx66uw1g45g/mx66uw1g45g.c ****   s_command.Instruction = (Mode == MX66UW1G45G_SPI_MODE)
 3910              		.loc 1 1628 3 is_stmt 1 view .LVU1318
1629:STM32Cube_FW_N6/Drivers/BSP/Components/mx66uw1g45g/mx66uw1g45g.c ****                               ? MX66UW1G45G_RESET_MEMORY_CMD
1630:STM32Cube_FW_N6/Drivers/BSP/Components/mx66uw1g45g/mx66uw1g45g.c ****                               : MX66UW1G45G_OCTA_RESET_MEMORY_CMD;
 3911              		.loc 1 1630 31 is_stmt 0 discriminator 2 view .LVU1319
 3912 0028 49F66613 		movw	r3, #39270
 3913              	.L273:
1631:STM32Cube_FW_N6/Drivers/BSP/Components/mx66uw1g45g/mx66uw1g45g.c ****   s_command.AddressMode = HAL_XSPI_ADDRESS_NONE;
1632:STM32Cube_FW_N6/Drivers/BSP/Components/mx66uw1g45g/mx66uw1g45g.c ****   s_command.AlternateBytesMode = HAL_XSPI_ALT_BYTES_NONE;
1633:STM32Cube_FW_N6/Drivers/BSP/Components/mx66uw1g45g/mx66uw1g45g.c ****   s_command.DataMode = HAL_XSPI_DATA_NONE;
1634:STM32Cube_FW_N6/Drivers/BSP/Components/mx66uw1g45g/mx66uw1g45g.c ****   s_command.DummyCycles = 0U;
1635:STM32Cube_FW_N6/Drivers/BSP/Components/mx66uw1g45g/mx66uw1g45g.c ****   s_command.DQSMode = HAL_XSPI_DQS_DISABLE;
1636:STM32Cube_FW_N6/Drivers/BSP/Components/mx66uw1g45g/mx66uw1g45g.c ****  #if defined (XSPI_CCR_SIOO)
1637:STM32Cube_FW_N6/Drivers/BSP/Components/mx66uw1g45g/mx66uw1g45g.c ****   s_command.SIOOMode            = HAL_XSPI_SIOO_INST_EVERY_CMD;
1638:STM32Cube_FW_N6/Drivers/BSP/Components/mx66uw1g45g/mx66uw1g45g.c ****  #endif
1639:STM32Cube_FW_N6/Drivers/BSP/Components/mx66uw1g45g/mx66uw1g45g.c **** 
1640:STM32Cube_FW_N6/Drivers/BSP/Components/mx66uw1g45g/mx66uw1g45g.c ****   /* Send the command */
1641:STM32Cube_FW_N6/Drivers/BSP/Components/mx66uw1g45g/mx66uw1g45g.c ****   if (HAL_XSPI_Command(Ctx, &s_command, HAL_XSPI_TIMEOUT_DEFAULT_VALUE) != HAL_OK)
 3914              		.loc 1 1641 7 view .LVU1320
 3915 002c 41F28832 		movw	r2, #5000
 3916 0030 3046     		mov	r0, r6
 3917 0032 01A9     		add	r1, sp, #4
1628:STM32Cube_FW_N6/Drivers/BSP/Components/mx66uw1g45g/mx66uw1g45g.c ****                               ? MX66UW1G45G_RESET_MEMORY_CMD
 3918              		.loc 1 1628 25 view .LVU1321
 3919 0034 0393     		str	r3, [sp, #12]
1631:STM32Cube_FW_N6/Drivers/BSP/Components/mx66uw1g45g/mx66uw1g45g.c ****   s_command.AddressMode = HAL_XSPI_ADDRESS_NONE;
 3920              		.loc 1 1631 3 is_stmt 1 view .LVU1322
1632:STM32Cube_FW_N6/Drivers/BSP/Components/mx66uw1g45g/mx66uw1g45g.c ****   s_command.DataMode = HAL_XSPI_DATA_NONE;
 3921              		.loc 1 1632 3 view .LVU1323
1633:STM32Cube_FW_N6/Drivers/BSP/Components/mx66uw1g45g/mx66uw1g45g.c ****   s_command.DummyCycles = 0U;
 3922              		.loc 1 1633 3 view .LVU1324
1634:STM32Cube_FW_N6/Drivers/BSP/Components/mx66uw1g45g/mx66uw1g45g.c ****   s_command.DQSMode = HAL_XSPI_DQS_DISABLE;
 3923              		.loc 1 1634 3 view .LVU1325
1635:STM32Cube_FW_N6/Drivers/BSP/Components/mx66uw1g45g/mx66uw1g45g.c ****  #if defined (XSPI_CCR_SIOO)
 3924              		.loc 1 1635 3 view .LVU1326
ARM GAS  C:\Users\DJESSOU\AppData\Local\Temp\ccAx4BcF.s 			page 114


 3925              		.loc 1 1641 3 view .LVU1327
 3926              		.loc 1 1641 7 is_stmt 0 view .LVU1328
 3927 0036 FFF7FEFF 		bl	HAL_XSPI_Command
 3928              	.LVL205:
 3929              		.loc 1 1641 6 discriminator 1 view .LVU1329
 3930 003a 0038     		subs	r0, r0, #0
 3931 003c 18BF     		it	ne
 3932 003e 0120     		movne	r0, #1
 3933 0040 4042     		rsbs	r0, r0, #0
 3934              	.L269:
1642:STM32Cube_FW_N6/Drivers/BSP/Components/mx66uw1g45g/mx66uw1g45g.c ****   {
1643:STM32Cube_FW_N6/Drivers/BSP/Components/mx66uw1g45g/mx66uw1g45g.c ****     return MX66UW1G45G_ERROR;
1644:STM32Cube_FW_N6/Drivers/BSP/Components/mx66uw1g45g/mx66uw1g45g.c ****   }
1645:STM32Cube_FW_N6/Drivers/BSP/Components/mx66uw1g45g/mx66uw1g45g.c **** 
1646:STM32Cube_FW_N6/Drivers/BSP/Components/mx66uw1g45g/mx66uw1g45g.c ****   return MX66UW1G45G_OK;
1647:STM32Cube_FW_N6/Drivers/BSP/Components/mx66uw1g45g/mx66uw1g45g.c **** }
 3935              		.loc 1 1647 1 view .LVU1330
 3936 0042 14B0     		add	sp, sp, #80
 3937              		.cfi_remember_state
 3938              		.cfi_def_cfa_offset 16
 3939              		@ sp needed
 3940 0044 70BD     		pop	{r4, r5, r6, pc}
 3941              	.LVL206:
 3942              	.L270:
 3943              		.cfi_restore_state
1622:STM32Cube_FW_N6/Drivers/BSP/Components/mx66uw1g45g/mx66uw1g45g.c ****                                      ? HAL_XSPI_INSTRUCTION_DTR_ENABLE
 3944              		.loc 1 1622 3 is_stmt 1 view .LVU1331
1624:STM32Cube_FW_N6/Drivers/BSP/Components/mx66uw1g45g/mx66uw1g45g.c ****   s_command.InstructionWidth = (Mode == MX66UW1G45G_SPI_MODE)
 3945              		.loc 1 1624 38 is_stmt 0 view .LVU1332
 3946 0046 631E     		subs	r3, r4, #1
 3947 0048 5C42     		rsbs	r4, r3, #0
 3948 004a 5C41     		adcs	r4, r4, r3
 3949 004c E400     		lsls	r4, r4, #3
 3950 004e 0423     		movs	r3, #4
 3951 0050 E5E7     		b	.L272
 3952              	.L275:
1630:STM32Cube_FW_N6/Drivers/BSP/Components/mx66uw1g45g/mx66uw1g45g.c ****   s_command.AddressMode = HAL_XSPI_ADDRESS_NONE;
 3953              		.loc 1 1630 31 discriminator 1 view .LVU1333
 3954 0052 9923     		movs	r3, #153
 3955 0054 EAE7     		b	.L273
 3956              	.L274:
1614:STM32Cube_FW_N6/Drivers/BSP/Components/mx66uw1g45g/mx66uw1g45g.c ****   }
 3957              		.loc 1 1614 12 view .LVU1334
 3958 0056 4FF0FF30 		mov	r0, #-1
 3959 005a F2E7     		b	.L269
 3960              		.cfi_endproc
 3961              	.LFE886:
 3963              		.section	.text.MX66UW1G45G_NoOperation,"ax",%progbits
 3964              		.align	1
 3965              		.global	MX66UW1G45G_NoOperation
 3966              		.syntax unified
 3967              		.thumb
 3968              		.thumb_func
 3970              	MX66UW1G45G_NoOperation:
 3971              	.LVL207:
 3972              	.LFB887:
1648:STM32Cube_FW_N6/Drivers/BSP/Components/mx66uw1g45g/mx66uw1g45g.c **** 
ARM GAS  C:\Users\DJESSOU\AppData\Local\Temp\ccAx4BcF.s 			page 115


1649:STM32Cube_FW_N6/Drivers/BSP/Components/mx66uw1g45g/mx66uw1g45g.c **** /**
1650:STM32Cube_FW_N6/Drivers/BSP/Components/mx66uw1g45g/mx66uw1g45g.c ****   * @brief  Flash no operation command
1651:STM32Cube_FW_N6/Drivers/BSP/Components/mx66uw1g45g/mx66uw1g45g.c ****   *         SPI/OPI
1652:STM32Cube_FW_N6/Drivers/BSP/Components/mx66uw1g45g/mx66uw1g45g.c ****   * @param  Ctx Component object pointer
1653:STM32Cube_FW_N6/Drivers/BSP/Components/mx66uw1g45g/mx66uw1g45g.c ****   * @param  Mode Interface select
1654:STM32Cube_FW_N6/Drivers/BSP/Components/mx66uw1g45g/mx66uw1g45g.c ****   * @param  Rate Transfer rate STR or DTR
1655:STM32Cube_FW_N6/Drivers/BSP/Components/mx66uw1g45g/mx66uw1g45g.c ****   * @retval error status
1656:STM32Cube_FW_N6/Drivers/BSP/Components/mx66uw1g45g/mx66uw1g45g.c ****   */
1657:STM32Cube_FW_N6/Drivers/BSP/Components/mx66uw1g45g/mx66uw1g45g.c **** int32_t MX66UW1G45G_NoOperation(XSPI_HandleTypeDef *Ctx, MX66UW1G45G_Interface_t Mode, MX66UW1G45G_
1658:STM32Cube_FW_N6/Drivers/BSP/Components/mx66uw1g45g/mx66uw1g45g.c **** {
 3973              		.loc 1 1658 1 is_stmt 1 view -0
 3974              		.cfi_startproc
 3975              		@ args = 0, pretend = 0, frame = 80
 3976              		@ frame_needed = 0, uses_anonymous_args = 0
1659:STM32Cube_FW_N6/Drivers/BSP/Components/mx66uw1g45g/mx66uw1g45g.c ****   XSPI_RegularCmdTypeDef s_command = {0};
 3977              		.loc 1 1659 3 view .LVU1336
1658:STM32Cube_FW_N6/Drivers/BSP/Components/mx66uw1g45g/mx66uw1g45g.c ****   XSPI_RegularCmdTypeDef s_command = {0};
 3978              		.loc 1 1658 1 is_stmt 0 view .LVU1337
 3979 0000 70B5     		push	{r4, r5, r6, lr}
 3980              		.cfi_def_cfa_offset 16
 3981              		.cfi_offset 4, -16
 3982              		.cfi_offset 5, -12
 3983              		.cfi_offset 6, -8
 3984              		.cfi_offset 14, -4
 3985 0002 0D46     		mov	r5, r1
 3986 0004 94B0     		sub	sp, sp, #80
 3987              		.cfi_def_cfa_offset 96
1658:STM32Cube_FW_N6/Drivers/BSP/Components/mx66uw1g45g/mx66uw1g45g.c ****   XSPI_RegularCmdTypeDef s_command = {0};
 3988              		.loc 1 1658 1 view .LVU1338
 3989 0006 0646     		mov	r6, r0
 3990 0008 1446     		mov	r4, r2
 3991              		.loc 1 1659 26 view .LVU1339
 3992 000a 0021     		movs	r1, #0
 3993              	.LVL208:
 3994              		.loc 1 1659 26 view .LVU1340
 3995 000c 4C22     		movs	r2, #76
 3996              	.LVL209:
 3997              		.loc 1 1659 26 view .LVU1341
 3998 000e 01A8     		add	r0, sp, #4
 3999              	.LVL210:
 4000              		.loc 1 1659 26 view .LVU1342
 4001 0010 FFF7FEFF 		bl	memset
 4002              	.LVL211:
1660:STM32Cube_FW_N6/Drivers/BSP/Components/mx66uw1g45g/mx66uw1g45g.c **** 
1661:STM32Cube_FW_N6/Drivers/BSP/Components/mx66uw1g45g/mx66uw1g45g.c ****   /* SPI mode and DTR transfer not supported by memory */
1662:STM32Cube_FW_N6/Drivers/BSP/Components/mx66uw1g45g/mx66uw1g45g.c ****   if ((Mode == MX66UW1G45G_SPI_MODE) && (Rate == MX66UW1G45G_DTR_TRANSFER))
 4003              		.loc 1 1662 3 is_stmt 1 view .LVU1343
 4004              		.loc 1 1662 6 is_stmt 0 view .LVU1344
 4005 0014 BDB9     		cbnz	r5, .L277
 4006              		.loc 1 1662 38 discriminator 1 view .LVU1345
 4007 0016 012C     		cmp	r4, #1
 4008 0018 1BD0     		beq	.L281
 4009 001a 0123     		movs	r3, #1
1663:STM32Cube_FW_N6/Drivers/BSP/Components/mx66uw1g45g/mx66uw1g45g.c ****   {
1664:STM32Cube_FW_N6/Drivers/BSP/Components/mx66uw1g45g/mx66uw1g45g.c ****     return MX66UW1G45G_ERROR;
1665:STM32Cube_FW_N6/Drivers/BSP/Components/mx66uw1g45g/mx66uw1g45g.c ****   }
1666:STM32Cube_FW_N6/Drivers/BSP/Components/mx66uw1g45g/mx66uw1g45g.c **** 
ARM GAS  C:\Users\DJESSOU\AppData\Local\Temp\ccAx4BcF.s 			page 116


1667:STM32Cube_FW_N6/Drivers/BSP/Components/mx66uw1g45g/mx66uw1g45g.c ****   /* Initialize the no operation command */
1668:STM32Cube_FW_N6/Drivers/BSP/Components/mx66uw1g45g/mx66uw1g45g.c ****   s_command.OperationType = HAL_XSPI_OPTYPE_COMMON_CFG;
1669:STM32Cube_FW_N6/Drivers/BSP/Components/mx66uw1g45g/mx66uw1g45g.c ****   s_command.InstructionMode = (Mode == MX66UW1G45G_SPI_MODE)
1670:STM32Cube_FW_N6/Drivers/BSP/Components/mx66uw1g45g/mx66uw1g45g.c ****                                   ? HAL_XSPI_INSTRUCTION_1_LINE
1671:STM32Cube_FW_N6/Drivers/BSP/Components/mx66uw1g45g/mx66uw1g45g.c ****                                   : HAL_XSPI_INSTRUCTION_8_LINES;
1672:STM32Cube_FW_N6/Drivers/BSP/Components/mx66uw1g45g/mx66uw1g45g.c ****   s_command.InstructionDTRMode = (Rate == MX66UW1G45G_DTR_TRANSFER)
1673:STM32Cube_FW_N6/Drivers/BSP/Components/mx66uw1g45g/mx66uw1g45g.c ****                                      ? HAL_XSPI_INSTRUCTION_DTR_ENABLE
1674:STM32Cube_FW_N6/Drivers/BSP/Components/mx66uw1g45g/mx66uw1g45g.c ****                                      : HAL_XSPI_INSTRUCTION_DTR_DISABLE;
 4010              		.loc 1 1674 38 discriminator 2 view .LVU1346
 4011 001c 2C46     		mov	r4, r5
 4012              	.LVL212:
 4013              	.L279:
1669:STM32Cube_FW_N6/Drivers/BSP/Components/mx66uw1g45g/mx66uw1g45g.c ****                                   ? HAL_XSPI_INSTRUCTION_1_LINE
 4014              		.loc 1 1669 29 view .LVU1347
 4015 001e 0493     		str	r3, [sp, #16]
1672:STM32Cube_FW_N6/Drivers/BSP/Components/mx66uw1g45g/mx66uw1g45g.c ****                                      ? HAL_XSPI_INSTRUCTION_DTR_ENABLE
 4016              		.loc 1 1672 32 view .LVU1348
 4017 0020 0694     		str	r4, [sp, #24]
1675:STM32Cube_FW_N6/Drivers/BSP/Components/mx66uw1g45g/mx66uw1g45g.c ****   s_command.InstructionWidth = (Mode == MX66UW1G45G_SPI_MODE)
 4018              		.loc 1 1675 3 is_stmt 1 view .LVU1349
1676:STM32Cube_FW_N6/Drivers/BSP/Components/mx66uw1g45g/mx66uw1g45g.c ****                                    ? HAL_XSPI_INSTRUCTION_8_BITS
1677:STM32Cube_FW_N6/Drivers/BSP/Components/mx66uw1g45g/mx66uw1g45g.c ****                                    : HAL_XSPI_INSTRUCTION_16_BITS;
1678:STM32Cube_FW_N6/Drivers/BSP/Components/mx66uw1g45g/mx66uw1g45g.c ****   s_command.Instruction = (Mode == MX66UW1G45G_SPI_MODE) ? MX66UW1G45G_NOP_CMD : MX66UW1G45G_OCTA_N
 4019              		.loc 1 1678 80 is_stmt 0 discriminator 1 view .LVU1350
 4020 0022 2B46     		mov	r3, r5
1677:STM32Cube_FW_N6/Drivers/BSP/Components/mx66uw1g45g/mx66uw1g45g.c ****   s_command.Instruction = (Mode == MX66UW1G45G_SPI_MODE) ? MX66UW1G45G_NOP_CMD : MX66UW1G45G_OCTA_N
 4021              		.loc 1 1677 36 view .LVU1351
 4022 0024 15B1     		cbz	r5, .L280
 4023              	.LVL213:
1675:STM32Cube_FW_N6/Drivers/BSP/Components/mx66uw1g45g/mx66uw1g45g.c ****   s_command.InstructionWidth = (Mode == MX66UW1G45G_SPI_MODE)
 4024              		.loc 1 1675 30 view .LVU1352
 4025 0026 1023     		movs	r3, #16
 4026              	.LVL214:
1675:STM32Cube_FW_N6/Drivers/BSP/Components/mx66uw1g45g/mx66uw1g45g.c ****   s_command.InstructionWidth = (Mode == MX66UW1G45G_SPI_MODE)
 4027              		.loc 1 1675 30 view .LVU1353
 4028 0028 0593     		str	r3, [sp, #20]
 4029              		.loc 1 1678 3 is_stmt 1 view .LVU1354
 4030              		.loc 1 1678 80 is_stmt 0 discriminator 2 view .LVU1355
 4031 002a FF23     		movs	r3, #255
 4032              	.L280:
1679:STM32Cube_FW_N6/Drivers/BSP/Components/mx66uw1g45g/mx66uw1g45g.c ****   s_command.AddressMode = HAL_XSPI_ADDRESS_NONE;
1680:STM32Cube_FW_N6/Drivers/BSP/Components/mx66uw1g45g/mx66uw1g45g.c ****   s_command.AlternateBytesMode = HAL_XSPI_ALT_BYTES_NONE;
1681:STM32Cube_FW_N6/Drivers/BSP/Components/mx66uw1g45g/mx66uw1g45g.c ****   s_command.DataMode = HAL_XSPI_DATA_NONE;
1682:STM32Cube_FW_N6/Drivers/BSP/Components/mx66uw1g45g/mx66uw1g45g.c ****   s_command.DummyCycles = 0U;
1683:STM32Cube_FW_N6/Drivers/BSP/Components/mx66uw1g45g/mx66uw1g45g.c ****   s_command.DQSMode = HAL_XSPI_DQS_DISABLE;
1684:STM32Cube_FW_N6/Drivers/BSP/Components/mx66uw1g45g/mx66uw1g45g.c ****  #if defined (XSPI_CCR_SIOO)
1685:STM32Cube_FW_N6/Drivers/BSP/Components/mx66uw1g45g/mx66uw1g45g.c ****   s_command.SIOOMode            = HAL_XSPI_SIOO_INST_EVERY_CMD;
1686:STM32Cube_FW_N6/Drivers/BSP/Components/mx66uw1g45g/mx66uw1g45g.c ****  #endif
1687:STM32Cube_FW_N6/Drivers/BSP/Components/mx66uw1g45g/mx66uw1g45g.c **** 
1688:STM32Cube_FW_N6/Drivers/BSP/Components/mx66uw1g45g/mx66uw1g45g.c ****   /* Send the command */
1689:STM32Cube_FW_N6/Drivers/BSP/Components/mx66uw1g45g/mx66uw1g45g.c ****   if (HAL_XSPI_Command(Ctx, &s_command, HAL_XSPI_TIMEOUT_DEFAULT_VALUE) != HAL_OK)
 4033              		.loc 1 1689 7 view .LVU1356
 4034 002c 41F28832 		movw	r2, #5000
 4035 0030 3046     		mov	r0, r6
 4036 0032 01A9     		add	r1, sp, #4
1678:STM32Cube_FW_N6/Drivers/BSP/Components/mx66uw1g45g/mx66uw1g45g.c ****   s_command.AddressMode = HAL_XSPI_ADDRESS_NONE;
 4037              		.loc 1 1678 25 discriminator 4 view .LVU1357
ARM GAS  C:\Users\DJESSOU\AppData\Local\Temp\ccAx4BcF.s 			page 117


 4038 0034 0393     		str	r3, [sp, #12]
1679:STM32Cube_FW_N6/Drivers/BSP/Components/mx66uw1g45g/mx66uw1g45g.c ****   s_command.AddressMode = HAL_XSPI_ADDRESS_NONE;
 4039              		.loc 1 1679 3 is_stmt 1 view .LVU1358
1680:STM32Cube_FW_N6/Drivers/BSP/Components/mx66uw1g45g/mx66uw1g45g.c ****   s_command.DataMode = HAL_XSPI_DATA_NONE;
 4040              		.loc 1 1680 3 view .LVU1359
1681:STM32Cube_FW_N6/Drivers/BSP/Components/mx66uw1g45g/mx66uw1g45g.c ****   s_command.DummyCycles = 0U;
 4041              		.loc 1 1681 3 view .LVU1360
1682:STM32Cube_FW_N6/Drivers/BSP/Components/mx66uw1g45g/mx66uw1g45g.c ****   s_command.DQSMode = HAL_XSPI_DQS_DISABLE;
 4042              		.loc 1 1682 3 view .LVU1361
1683:STM32Cube_FW_N6/Drivers/BSP/Components/mx66uw1g45g/mx66uw1g45g.c ****  #if defined (XSPI_CCR_SIOO)
 4043              		.loc 1 1683 3 view .LVU1362
 4044              		.loc 1 1689 3 view .LVU1363
 4045              		.loc 1 1689 7 is_stmt 0 view .LVU1364
 4046 0036 FFF7FEFF 		bl	HAL_XSPI_Command
 4047              	.LVL215:
 4048              		.loc 1 1689 6 discriminator 1 view .LVU1365
 4049 003a 0038     		subs	r0, r0, #0
 4050 003c 18BF     		it	ne
 4051 003e 0120     		movne	r0, #1
 4052 0040 4042     		rsbs	r0, r0, #0
 4053              	.L276:
1690:STM32Cube_FW_N6/Drivers/BSP/Components/mx66uw1g45g/mx66uw1g45g.c ****   {
1691:STM32Cube_FW_N6/Drivers/BSP/Components/mx66uw1g45g/mx66uw1g45g.c ****     return MX66UW1G45G_ERROR;
1692:STM32Cube_FW_N6/Drivers/BSP/Components/mx66uw1g45g/mx66uw1g45g.c ****   }
1693:STM32Cube_FW_N6/Drivers/BSP/Components/mx66uw1g45g/mx66uw1g45g.c **** 
1694:STM32Cube_FW_N6/Drivers/BSP/Components/mx66uw1g45g/mx66uw1g45g.c ****   return MX66UW1G45G_OK;
1695:STM32Cube_FW_N6/Drivers/BSP/Components/mx66uw1g45g/mx66uw1g45g.c **** }
 4054              		.loc 1 1695 1 view .LVU1366
 4055 0042 14B0     		add	sp, sp, #80
 4056              		.cfi_remember_state
 4057              		.cfi_def_cfa_offset 16
 4058              		@ sp needed
 4059 0044 70BD     		pop	{r4, r5, r6, pc}
 4060              	.LVL216:
 4061              	.L277:
 4062              		.cfi_restore_state
1672:STM32Cube_FW_N6/Drivers/BSP/Components/mx66uw1g45g/mx66uw1g45g.c ****                                      ? HAL_XSPI_INSTRUCTION_DTR_ENABLE
 4063              		.loc 1 1672 3 is_stmt 1 view .LVU1367
1674:STM32Cube_FW_N6/Drivers/BSP/Components/mx66uw1g45g/mx66uw1g45g.c ****   s_command.InstructionWidth = (Mode == MX66UW1G45G_SPI_MODE)
 4064              		.loc 1 1674 38 is_stmt 0 view .LVU1368
 4065 0046 631E     		subs	r3, r4, #1
 4066 0048 5C42     		rsbs	r4, r3, #0
 4067 004a 5C41     		adcs	r4, r4, r3
 4068 004c E400     		lsls	r4, r4, #3
 4069 004e 0423     		movs	r3, #4
 4070 0050 E5E7     		b	.L279
 4071              	.L281:
1664:STM32Cube_FW_N6/Drivers/BSP/Components/mx66uw1g45g/mx66uw1g45g.c ****   }
 4072              		.loc 1 1664 12 view .LVU1369
 4073 0052 4FF0FF30 		mov	r0, #-1
 4074 0056 F4E7     		b	.L276
 4075              		.cfi_endproc
 4076              	.LFE887:
 4078              		.section	.text.MX66UW1G45G_EnterPowerDown,"ax",%progbits
 4079              		.align	1
 4080              		.global	MX66UW1G45G_EnterPowerDown
 4081              		.syntax unified
ARM GAS  C:\Users\DJESSOU\AppData\Local\Temp\ccAx4BcF.s 			page 118


 4082              		.thumb
 4083              		.thumb_func
 4085              	MX66UW1G45G_EnterPowerDown:
 4086              	.LVL217:
 4087              	.LFB888:
1696:STM32Cube_FW_N6/Drivers/BSP/Components/mx66uw1g45g/mx66uw1g45g.c **** 
1697:STM32Cube_FW_N6/Drivers/BSP/Components/mx66uw1g45g/mx66uw1g45g.c **** /**
1698:STM32Cube_FW_N6/Drivers/BSP/Components/mx66uw1g45g/mx66uw1g45g.c ****   * @brief  Flash enter deep power-down command
1699:STM32Cube_FW_N6/Drivers/BSP/Components/mx66uw1g45g/mx66uw1g45g.c ****   *         SPI/OPI
1700:STM32Cube_FW_N6/Drivers/BSP/Components/mx66uw1g45g/mx66uw1g45g.c ****   * @param  Ctx Component object pointer
1701:STM32Cube_FW_N6/Drivers/BSP/Components/mx66uw1g45g/mx66uw1g45g.c ****   * @param  Mode Interface select
1702:STM32Cube_FW_N6/Drivers/BSP/Components/mx66uw1g45g/mx66uw1g45g.c ****   * @param  Rate Transfer rate STR or DTR
1703:STM32Cube_FW_N6/Drivers/BSP/Components/mx66uw1g45g/mx66uw1g45g.c ****   * @retval error status
1704:STM32Cube_FW_N6/Drivers/BSP/Components/mx66uw1g45g/mx66uw1g45g.c ****   */
1705:STM32Cube_FW_N6/Drivers/BSP/Components/mx66uw1g45g/mx66uw1g45g.c **** int32_t MX66UW1G45G_EnterPowerDown(XSPI_HandleTypeDef *Ctx, MX66UW1G45G_Interface_t Mode,
1706:STM32Cube_FW_N6/Drivers/BSP/Components/mx66uw1g45g/mx66uw1g45g.c ****                                    MX66UW1G45G_Transfer_t Rate)
1707:STM32Cube_FW_N6/Drivers/BSP/Components/mx66uw1g45g/mx66uw1g45g.c **** {
 4088              		.loc 1 1707 1 is_stmt 1 view -0
 4089              		.cfi_startproc
 4090              		@ args = 0, pretend = 0, frame = 80
 4091              		@ frame_needed = 0, uses_anonymous_args = 0
1708:STM32Cube_FW_N6/Drivers/BSP/Components/mx66uw1g45g/mx66uw1g45g.c ****   XSPI_RegularCmdTypeDef s_command = {0};
 4092              		.loc 1 1708 3 view .LVU1371
1707:STM32Cube_FW_N6/Drivers/BSP/Components/mx66uw1g45g/mx66uw1g45g.c ****   XSPI_RegularCmdTypeDef s_command = {0};
 4093              		.loc 1 1707 1 is_stmt 0 view .LVU1372
 4094 0000 70B5     		push	{r4, r5, r6, lr}
 4095              		.cfi_def_cfa_offset 16
 4096              		.cfi_offset 4, -16
 4097              		.cfi_offset 5, -12
 4098              		.cfi_offset 6, -8
 4099              		.cfi_offset 14, -4
 4100 0002 0D46     		mov	r5, r1
 4101 0004 94B0     		sub	sp, sp, #80
 4102              		.cfi_def_cfa_offset 96
1707:STM32Cube_FW_N6/Drivers/BSP/Components/mx66uw1g45g/mx66uw1g45g.c ****   XSPI_RegularCmdTypeDef s_command = {0};
 4103              		.loc 1 1707 1 view .LVU1373
 4104 0006 0646     		mov	r6, r0
 4105 0008 1446     		mov	r4, r2
 4106              		.loc 1 1708 26 view .LVU1374
 4107 000a 0021     		movs	r1, #0
 4108              	.LVL218:
 4109              		.loc 1 1708 26 view .LVU1375
 4110 000c 4C22     		movs	r2, #76
 4111              	.LVL219:
 4112              		.loc 1 1708 26 view .LVU1376
 4113 000e 01A8     		add	r0, sp, #4
 4114              	.LVL220:
 4115              		.loc 1 1708 26 view .LVU1377
 4116 0010 FFF7FEFF 		bl	memset
 4117              	.LVL221:
1709:STM32Cube_FW_N6/Drivers/BSP/Components/mx66uw1g45g/mx66uw1g45g.c **** 
1710:STM32Cube_FW_N6/Drivers/BSP/Components/mx66uw1g45g/mx66uw1g45g.c ****   /* SPI mode and DTR transfer not supported by memory */
1711:STM32Cube_FW_N6/Drivers/BSP/Components/mx66uw1g45g/mx66uw1g45g.c ****   if ((Mode == MX66UW1G45G_SPI_MODE) && (Rate == MX66UW1G45G_DTR_TRANSFER))
 4118              		.loc 1 1711 3 is_stmt 1 view .LVU1378
 4119              		.loc 1 1711 6 is_stmt 0 view .LVU1379
 4120 0014 BDB9     		cbnz	r5, .L284
 4121              		.loc 1 1711 38 discriminator 1 view .LVU1380
ARM GAS  C:\Users\DJESSOU\AppData\Local\Temp\ccAx4BcF.s 			page 119


 4122 0016 012C     		cmp	r4, #1
 4123 0018 1DD0     		beq	.L288
 4124 001a 0123     		movs	r3, #1
1712:STM32Cube_FW_N6/Drivers/BSP/Components/mx66uw1g45g/mx66uw1g45g.c ****   {
1713:STM32Cube_FW_N6/Drivers/BSP/Components/mx66uw1g45g/mx66uw1g45g.c ****     return MX66UW1G45G_ERROR;
1714:STM32Cube_FW_N6/Drivers/BSP/Components/mx66uw1g45g/mx66uw1g45g.c ****   }
1715:STM32Cube_FW_N6/Drivers/BSP/Components/mx66uw1g45g/mx66uw1g45g.c **** 
1716:STM32Cube_FW_N6/Drivers/BSP/Components/mx66uw1g45g/mx66uw1g45g.c ****   /* Initialize the enter power down command */
1717:STM32Cube_FW_N6/Drivers/BSP/Components/mx66uw1g45g/mx66uw1g45g.c ****   s_command.OperationType = HAL_XSPI_OPTYPE_COMMON_CFG;
1718:STM32Cube_FW_N6/Drivers/BSP/Components/mx66uw1g45g/mx66uw1g45g.c **** 
1719:STM32Cube_FW_N6/Drivers/BSP/Components/mx66uw1g45g/mx66uw1g45g.c ****   s_command.InstructionMode = (Mode == MX66UW1G45G_SPI_MODE)
1720:STM32Cube_FW_N6/Drivers/BSP/Components/mx66uw1g45g/mx66uw1g45g.c ****                                   ? HAL_XSPI_INSTRUCTION_1_LINE
1721:STM32Cube_FW_N6/Drivers/BSP/Components/mx66uw1g45g/mx66uw1g45g.c ****                                   : HAL_XSPI_INSTRUCTION_8_LINES;
1722:STM32Cube_FW_N6/Drivers/BSP/Components/mx66uw1g45g/mx66uw1g45g.c ****   s_command.InstructionDTRMode = (Rate == MX66UW1G45G_DTR_TRANSFER)
1723:STM32Cube_FW_N6/Drivers/BSP/Components/mx66uw1g45g/mx66uw1g45g.c ****                                      ? HAL_XSPI_INSTRUCTION_DTR_ENABLE
1724:STM32Cube_FW_N6/Drivers/BSP/Components/mx66uw1g45g/mx66uw1g45g.c ****                                      : HAL_XSPI_INSTRUCTION_DTR_DISABLE;
 4125              		.loc 1 1724 38 discriminator 2 view .LVU1381
 4126 001c 2C46     		mov	r4, r5
 4127              	.LVL222:
 4128              	.L286:
1719:STM32Cube_FW_N6/Drivers/BSP/Components/mx66uw1g45g/mx66uw1g45g.c ****                                   ? HAL_XSPI_INSTRUCTION_1_LINE
 4129              		.loc 1 1719 29 view .LVU1382
 4130 001e 0493     		str	r3, [sp, #16]
1722:STM32Cube_FW_N6/Drivers/BSP/Components/mx66uw1g45g/mx66uw1g45g.c ****                                      ? HAL_XSPI_INSTRUCTION_DTR_ENABLE
 4131              		.loc 1 1722 32 view .LVU1383
 4132 0020 0694     		str	r4, [sp, #24]
1725:STM32Cube_FW_N6/Drivers/BSP/Components/mx66uw1g45g/mx66uw1g45g.c ****   s_command.InstructionWidth = (Mode == MX66UW1G45G_SPI_MODE)
 4133              		.loc 1 1725 3 is_stmt 1 view .LVU1384
1726:STM32Cube_FW_N6/Drivers/BSP/Components/mx66uw1g45g/mx66uw1g45g.c ****                                    ? HAL_XSPI_INSTRUCTION_8_BITS
1727:STM32Cube_FW_N6/Drivers/BSP/Components/mx66uw1g45g/mx66uw1g45g.c ****                                    : HAL_XSPI_INSTRUCTION_16_BITS;
 4134              		.loc 1 1727 36 is_stmt 0 view .LVU1385
 4135 0022 B5B1     		cbz	r5, .L289
1725:STM32Cube_FW_N6/Drivers/BSP/Components/mx66uw1g45g/mx66uw1g45g.c ****   s_command.InstructionWidth = (Mode == MX66UW1G45G_SPI_MODE)
 4136              		.loc 1 1725 30 view .LVU1386
 4137 0024 1023     		movs	r3, #16
 4138 0026 0593     		str	r3, [sp, #20]
1728:STM32Cube_FW_N6/Drivers/BSP/Components/mx66uw1g45g/mx66uw1g45g.c ****   s_command.Instruction = (Mode == MX66UW1G45G_SPI_MODE)
 4139              		.loc 1 1728 3 is_stmt 1 view .LVU1387
1729:STM32Cube_FW_N6/Drivers/BSP/Components/mx66uw1g45g/mx66uw1g45g.c ****                               ? MX66UW1G45G_ENTER_DEEP_POWER_DOWN_CMD
1730:STM32Cube_FW_N6/Drivers/BSP/Components/mx66uw1g45g/mx66uw1g45g.c ****                               : MX66UW1G45G_OCTA_ENTER_DEEP_POWER_DOWN_CMD;
 4140              		.loc 1 1730 31 is_stmt 0 discriminator 2 view .LVU1388
 4141 0028 4BF64613 		movw	r3, #47430
 4142              	.L287:
1731:STM32Cube_FW_N6/Drivers/BSP/Components/mx66uw1g45g/mx66uw1g45g.c ****   s_command.AddressMode = HAL_XSPI_ADDRESS_NONE;
1732:STM32Cube_FW_N6/Drivers/BSP/Components/mx66uw1g45g/mx66uw1g45g.c ****   s_command.AlternateBytesMode = HAL_XSPI_ALT_BYTES_NONE;
1733:STM32Cube_FW_N6/Drivers/BSP/Components/mx66uw1g45g/mx66uw1g45g.c ****   s_command.DataMode = HAL_XSPI_DATA_NONE;
1734:STM32Cube_FW_N6/Drivers/BSP/Components/mx66uw1g45g/mx66uw1g45g.c ****   s_command.DummyCycles = 0U;
1735:STM32Cube_FW_N6/Drivers/BSP/Components/mx66uw1g45g/mx66uw1g45g.c ****   s_command.DQSMode = HAL_XSPI_DQS_DISABLE;
1736:STM32Cube_FW_N6/Drivers/BSP/Components/mx66uw1g45g/mx66uw1g45g.c ****  #if defined (XSPI_CCR_SIOO)
1737:STM32Cube_FW_N6/Drivers/BSP/Components/mx66uw1g45g/mx66uw1g45g.c ****   s_command.SIOOMode            = HAL_XSPI_SIOO_INST_EVERY_CMD;
1738:STM32Cube_FW_N6/Drivers/BSP/Components/mx66uw1g45g/mx66uw1g45g.c ****  #endif
1739:STM32Cube_FW_N6/Drivers/BSP/Components/mx66uw1g45g/mx66uw1g45g.c **** 
1740:STM32Cube_FW_N6/Drivers/BSP/Components/mx66uw1g45g/mx66uw1g45g.c ****   /* Send the command */
1741:STM32Cube_FW_N6/Drivers/BSP/Components/mx66uw1g45g/mx66uw1g45g.c ****   if (HAL_XSPI_Command(Ctx, &s_command, HAL_XSPI_TIMEOUT_DEFAULT_VALUE) != HAL_OK)
 4143              		.loc 1 1741 7 view .LVU1389
 4144 002c 41F28832 		movw	r2, #5000
 4145 0030 3046     		mov	r0, r6
ARM GAS  C:\Users\DJESSOU\AppData\Local\Temp\ccAx4BcF.s 			page 120


 4146 0032 01A9     		add	r1, sp, #4
1728:STM32Cube_FW_N6/Drivers/BSP/Components/mx66uw1g45g/mx66uw1g45g.c ****                               ? MX66UW1G45G_ENTER_DEEP_POWER_DOWN_CMD
 4147              		.loc 1 1728 25 view .LVU1390
 4148 0034 0393     		str	r3, [sp, #12]
1731:STM32Cube_FW_N6/Drivers/BSP/Components/mx66uw1g45g/mx66uw1g45g.c ****   s_command.AddressMode = HAL_XSPI_ADDRESS_NONE;
 4149              		.loc 1 1731 3 is_stmt 1 view .LVU1391
1732:STM32Cube_FW_N6/Drivers/BSP/Components/mx66uw1g45g/mx66uw1g45g.c ****   s_command.DataMode = HAL_XSPI_DATA_NONE;
 4150              		.loc 1 1732 3 view .LVU1392
1733:STM32Cube_FW_N6/Drivers/BSP/Components/mx66uw1g45g/mx66uw1g45g.c ****   s_command.DummyCycles = 0U;
 4151              		.loc 1 1733 3 view .LVU1393
1734:STM32Cube_FW_N6/Drivers/BSP/Components/mx66uw1g45g/mx66uw1g45g.c ****   s_command.DQSMode = HAL_XSPI_DQS_DISABLE;
 4152              		.loc 1 1734 3 view .LVU1394
1735:STM32Cube_FW_N6/Drivers/BSP/Components/mx66uw1g45g/mx66uw1g45g.c ****  #if defined (XSPI_CCR_SIOO)
 4153              		.loc 1 1735 3 view .LVU1395
 4154              		.loc 1 1741 3 view .LVU1396
 4155              		.loc 1 1741 7 is_stmt 0 view .LVU1397
 4156 0036 FFF7FEFF 		bl	HAL_XSPI_Command
 4157              	.LVL223:
 4158              		.loc 1 1741 6 discriminator 1 view .LVU1398
 4159 003a 0038     		subs	r0, r0, #0
 4160 003c 18BF     		it	ne
 4161 003e 0120     		movne	r0, #1
 4162 0040 4042     		rsbs	r0, r0, #0
 4163              	.L283:
1742:STM32Cube_FW_N6/Drivers/BSP/Components/mx66uw1g45g/mx66uw1g45g.c ****   {
1743:STM32Cube_FW_N6/Drivers/BSP/Components/mx66uw1g45g/mx66uw1g45g.c ****     return MX66UW1G45G_ERROR;
1744:STM32Cube_FW_N6/Drivers/BSP/Components/mx66uw1g45g/mx66uw1g45g.c ****   }
1745:STM32Cube_FW_N6/Drivers/BSP/Components/mx66uw1g45g/mx66uw1g45g.c **** 
1746:STM32Cube_FW_N6/Drivers/BSP/Components/mx66uw1g45g/mx66uw1g45g.c ****   return MX66UW1G45G_OK;
1747:STM32Cube_FW_N6/Drivers/BSP/Components/mx66uw1g45g/mx66uw1g45g.c **** }
 4164              		.loc 1 1747 1 view .LVU1399
 4165 0042 14B0     		add	sp, sp, #80
 4166              		.cfi_remember_state
 4167              		.cfi_def_cfa_offset 16
 4168              		@ sp needed
 4169 0044 70BD     		pop	{r4, r5, r6, pc}
 4170              	.LVL224:
 4171              	.L284:
 4172              		.cfi_restore_state
1722:STM32Cube_FW_N6/Drivers/BSP/Components/mx66uw1g45g/mx66uw1g45g.c ****                                      ? HAL_XSPI_INSTRUCTION_DTR_ENABLE
 4173              		.loc 1 1722 3 is_stmt 1 view .LVU1400
1724:STM32Cube_FW_N6/Drivers/BSP/Components/mx66uw1g45g/mx66uw1g45g.c ****   s_command.InstructionWidth = (Mode == MX66UW1G45G_SPI_MODE)
 4174              		.loc 1 1724 38 is_stmt 0 view .LVU1401
 4175 0046 631E     		subs	r3, r4, #1
 4176 0048 5C42     		rsbs	r4, r3, #0
 4177 004a 5C41     		adcs	r4, r4, r3
 4178 004c E400     		lsls	r4, r4, #3
 4179 004e 0423     		movs	r3, #4
 4180 0050 E5E7     		b	.L286
 4181              	.L289:
1730:STM32Cube_FW_N6/Drivers/BSP/Components/mx66uw1g45g/mx66uw1g45g.c ****   s_command.AddressMode = HAL_XSPI_ADDRESS_NONE;
 4182              		.loc 1 1730 31 discriminator 1 view .LVU1402
 4183 0052 B923     		movs	r3, #185
 4184 0054 EAE7     		b	.L287
 4185              	.L288:
1713:STM32Cube_FW_N6/Drivers/BSP/Components/mx66uw1g45g/mx66uw1g45g.c ****   }
 4186              		.loc 1 1713 12 view .LVU1403
ARM GAS  C:\Users\DJESSOU\AppData\Local\Temp\ccAx4BcF.s 			page 121


 4187 0056 4FF0FF30 		mov	r0, #-1
 4188 005a F2E7     		b	.L283
 4189              		.cfi_endproc
 4190              	.LFE888:
 4192              		.section	.text.MX66UW1G45G_ReleasePowerDown,"ax",%progbits
 4193              		.align	1
 4194              		.global	MX66UW1G45G_ReleasePowerDown
 4195              		.syntax unified
 4196              		.thumb
 4197              		.thumb_func
 4199              	MX66UW1G45G_ReleasePowerDown:
 4200              	.LVL225:
 4201              	.LFB889:
1748:STM32Cube_FW_N6/Drivers/BSP/Components/mx66uw1g45g/mx66uw1g45g.c **** 
1749:STM32Cube_FW_N6/Drivers/BSP/Components/mx66uw1g45g/mx66uw1g45g.c **** /**
1750:STM32Cube_FW_N6/Drivers/BSP/Components/mx66uw1g45g/mx66uw1g45g.c ****   * @brief  Flash release deep power-down command
1751:STM32Cube_FW_N6/Drivers/BSP/Components/mx66uw1g45g/mx66uw1g45g.c ****   *         SPI/OPI
1752:STM32Cube_FW_N6/Drivers/BSP/Components/mx66uw1g45g/mx66uw1g45g.c ****   * @param  Ctx Component object pointer
1753:STM32Cube_FW_N6/Drivers/BSP/Components/mx66uw1g45g/mx66uw1g45g.c ****   * @param  Mode Interface select
1754:STM32Cube_FW_N6/Drivers/BSP/Components/mx66uw1g45g/mx66uw1g45g.c ****   * @param  Rate Transfer rate STR or DTR
1755:STM32Cube_FW_N6/Drivers/BSP/Components/mx66uw1g45g/mx66uw1g45g.c ****   * @retval error status
1756:STM32Cube_FW_N6/Drivers/BSP/Components/mx66uw1g45g/mx66uw1g45g.c ****   */
1757:STM32Cube_FW_N6/Drivers/BSP/Components/mx66uw1g45g/mx66uw1g45g.c **** int32_t MX66UW1G45G_ReleasePowerDown(XSPI_HandleTypeDef *Ctx, MX66UW1G45G_Interface_t Mode,
1758:STM32Cube_FW_N6/Drivers/BSP/Components/mx66uw1g45g/mx66uw1g45g.c ****                                      MX66UW1G45G_Transfer_t Rate)
1759:STM32Cube_FW_N6/Drivers/BSP/Components/mx66uw1g45g/mx66uw1g45g.c **** {
 4202              		.loc 1 1759 1 is_stmt 1 view -0
 4203              		.cfi_startproc
 4204              		@ args = 0, pretend = 0, frame = 80
 4205              		@ frame_needed = 0, uses_anonymous_args = 0
1760:STM32Cube_FW_N6/Drivers/BSP/Components/mx66uw1g45g/mx66uw1g45g.c ****   XSPI_RegularCmdTypeDef s_command = {0};
 4206              		.loc 1 1760 3 view .LVU1405
1759:STM32Cube_FW_N6/Drivers/BSP/Components/mx66uw1g45g/mx66uw1g45g.c ****   XSPI_RegularCmdTypeDef s_command = {0};
 4207              		.loc 1 1759 1 is_stmt 0 view .LVU1406
 4208 0000 70B5     		push	{r4, r5, r6, lr}
 4209              		.cfi_def_cfa_offset 16
 4210              		.cfi_offset 4, -16
 4211              		.cfi_offset 5, -12
 4212              		.cfi_offset 6, -8
 4213              		.cfi_offset 14, -4
 4214 0002 0D46     		mov	r5, r1
 4215 0004 94B0     		sub	sp, sp, #80
 4216              		.cfi_def_cfa_offset 96
1759:STM32Cube_FW_N6/Drivers/BSP/Components/mx66uw1g45g/mx66uw1g45g.c ****   XSPI_RegularCmdTypeDef s_command = {0};
 4217              		.loc 1 1759 1 view .LVU1407
 4218 0006 0646     		mov	r6, r0
 4219 0008 1446     		mov	r4, r2
 4220              		.loc 1 1760 26 view .LVU1408
 4221 000a 0021     		movs	r1, #0
 4222              	.LVL226:
 4223              		.loc 1 1760 26 view .LVU1409
 4224 000c 4C22     		movs	r2, #76
 4225              	.LVL227:
 4226              		.loc 1 1760 26 view .LVU1410
 4227 000e 01A8     		add	r0, sp, #4
 4228              	.LVL228:
 4229              		.loc 1 1760 26 view .LVU1411
 4230 0010 FFF7FEFF 		bl	memset
ARM GAS  C:\Users\DJESSOU\AppData\Local\Temp\ccAx4BcF.s 			page 122


 4231              	.LVL229:
1761:STM32Cube_FW_N6/Drivers/BSP/Components/mx66uw1g45g/mx66uw1g45g.c **** 
1762:STM32Cube_FW_N6/Drivers/BSP/Components/mx66uw1g45g/mx66uw1g45g.c ****   /* SPI mode and DTR transfer not supported by memory */
1763:STM32Cube_FW_N6/Drivers/BSP/Components/mx66uw1g45g/mx66uw1g45g.c ****   if ((Mode == MX66UW1G45G_SPI_MODE) && (Rate == MX66UW1G45G_DTR_TRANSFER))
 4232              		.loc 1 1763 3 is_stmt 1 view .LVU1412
 4233              		.loc 1 1763 6 is_stmt 0 view .LVU1413
 4234 0014 BDB9     		cbnz	r5, .L291
 4235              		.loc 1 1763 38 discriminator 1 view .LVU1414
 4236 0016 012C     		cmp	r4, #1
 4237 0018 1DD0     		beq	.L295
 4238 001a 0123     		movs	r3, #1
1764:STM32Cube_FW_N6/Drivers/BSP/Components/mx66uw1g45g/mx66uw1g45g.c ****   {
1765:STM32Cube_FW_N6/Drivers/BSP/Components/mx66uw1g45g/mx66uw1g45g.c ****     return MX66UW1G45G_ERROR;
1766:STM32Cube_FW_N6/Drivers/BSP/Components/mx66uw1g45g/mx66uw1g45g.c ****   }
1767:STM32Cube_FW_N6/Drivers/BSP/Components/mx66uw1g45g/mx66uw1g45g.c **** 
1768:STM32Cube_FW_N6/Drivers/BSP/Components/mx66uw1g45g/mx66uw1g45g.c ****   /* Initialize the enter power down command */
1769:STM32Cube_FW_N6/Drivers/BSP/Components/mx66uw1g45g/mx66uw1g45g.c ****   s_command.OperationType = HAL_XSPI_OPTYPE_COMMON_CFG;
1770:STM32Cube_FW_N6/Drivers/BSP/Components/mx66uw1g45g/mx66uw1g45g.c **** 
1771:STM32Cube_FW_N6/Drivers/BSP/Components/mx66uw1g45g/mx66uw1g45g.c ****   s_command.InstructionMode = (Mode == MX66UW1G45G_SPI_MODE)
1772:STM32Cube_FW_N6/Drivers/BSP/Components/mx66uw1g45g/mx66uw1g45g.c ****                                   ? HAL_XSPI_INSTRUCTION_1_LINE
1773:STM32Cube_FW_N6/Drivers/BSP/Components/mx66uw1g45g/mx66uw1g45g.c ****                                   : HAL_XSPI_INSTRUCTION_8_LINES;
1774:STM32Cube_FW_N6/Drivers/BSP/Components/mx66uw1g45g/mx66uw1g45g.c ****   s_command.InstructionDTRMode = (Rate == MX66UW1G45G_DTR_TRANSFER)
1775:STM32Cube_FW_N6/Drivers/BSP/Components/mx66uw1g45g/mx66uw1g45g.c ****                                      ? HAL_XSPI_INSTRUCTION_DTR_ENABLE
1776:STM32Cube_FW_N6/Drivers/BSP/Components/mx66uw1g45g/mx66uw1g45g.c ****                                      : HAL_XSPI_INSTRUCTION_DTR_DISABLE;
 4239              		.loc 1 1776 38 discriminator 2 view .LVU1415
 4240 001c 2C46     		mov	r4, r5
 4241              	.LVL230:
 4242              	.L293:
1771:STM32Cube_FW_N6/Drivers/BSP/Components/mx66uw1g45g/mx66uw1g45g.c ****                                   ? HAL_XSPI_INSTRUCTION_1_LINE
 4243              		.loc 1 1771 29 view .LVU1416
 4244 001e 0493     		str	r3, [sp, #16]
1774:STM32Cube_FW_N6/Drivers/BSP/Components/mx66uw1g45g/mx66uw1g45g.c ****                                      ? HAL_XSPI_INSTRUCTION_DTR_ENABLE
 4245              		.loc 1 1774 32 view .LVU1417
 4246 0020 0694     		str	r4, [sp, #24]
1777:STM32Cube_FW_N6/Drivers/BSP/Components/mx66uw1g45g/mx66uw1g45g.c ****   s_command.InstructionWidth = (Mode == MX66UW1G45G_SPI_MODE)
 4247              		.loc 1 1777 3 is_stmt 1 view .LVU1418
1778:STM32Cube_FW_N6/Drivers/BSP/Components/mx66uw1g45g/mx66uw1g45g.c ****                                    ? HAL_XSPI_INSTRUCTION_8_BITS
1779:STM32Cube_FW_N6/Drivers/BSP/Components/mx66uw1g45g/mx66uw1g45g.c ****                                    : HAL_XSPI_INSTRUCTION_16_BITS;
 4248              		.loc 1 1779 36 is_stmt 0 view .LVU1419
 4249 0022 B5B1     		cbz	r5, .L296
1777:STM32Cube_FW_N6/Drivers/BSP/Components/mx66uw1g45g/mx66uw1g45g.c ****   s_command.InstructionWidth = (Mode == MX66UW1G45G_SPI_MODE)
 4250              		.loc 1 1777 30 view .LVU1420
 4251 0024 1023     		movs	r3, #16
 4252 0026 0593     		str	r3, [sp, #20]
1780:STM32Cube_FW_N6/Drivers/BSP/Components/mx66uw1g45g/mx66uw1g45g.c ****   s_command.Instruction = (Mode == MX66UW1G45G_SPI_MODE)
 4253              		.loc 1 1780 3 is_stmt 1 view .LVU1421
1781:STM32Cube_FW_N6/Drivers/BSP/Components/mx66uw1g45g/mx66uw1g45g.c ****                               ? MX66UW1G45G_RELEASE_DEEP_POWER_DOWN_CMD
1782:STM32Cube_FW_N6/Drivers/BSP/Components/mx66uw1g45g/mx66uw1g45g.c ****                               : MX66UW1G45G_OCTA_RELEASE_DEEP_POWER_DOWN_CMD;
 4254              		.loc 1 1782 31 is_stmt 0 discriminator 2 view .LVU1422
 4255 0028 4AF65433 		movw	r3, #43860
 4256              	.L294:
1783:STM32Cube_FW_N6/Drivers/BSP/Components/mx66uw1g45g/mx66uw1g45g.c ****   s_command.AddressMode = HAL_XSPI_ADDRESS_NONE;
1784:STM32Cube_FW_N6/Drivers/BSP/Components/mx66uw1g45g/mx66uw1g45g.c ****   s_command.AlternateBytesMode = HAL_XSPI_ALT_BYTES_NONE;
1785:STM32Cube_FW_N6/Drivers/BSP/Components/mx66uw1g45g/mx66uw1g45g.c ****   s_command.DataMode = HAL_XSPI_DATA_NONE;
1786:STM32Cube_FW_N6/Drivers/BSP/Components/mx66uw1g45g/mx66uw1g45g.c ****   s_command.DummyCycles = 0U;
1787:STM32Cube_FW_N6/Drivers/BSP/Components/mx66uw1g45g/mx66uw1g45g.c ****   s_command.DQSMode = HAL_XSPI_DQS_DISABLE;
1788:STM32Cube_FW_N6/Drivers/BSP/Components/mx66uw1g45g/mx66uw1g45g.c ****  #if defined (XSPI_CCR_SIOO)
ARM GAS  C:\Users\DJESSOU\AppData\Local\Temp\ccAx4BcF.s 			page 123


1789:STM32Cube_FW_N6/Drivers/BSP/Components/mx66uw1g45g/mx66uw1g45g.c ****   s_command.SIOOMode            = HAL_XSPI_SIOO_INST_EVERY_CMD;
1790:STM32Cube_FW_N6/Drivers/BSP/Components/mx66uw1g45g/mx66uw1g45g.c ****  #endif
1791:STM32Cube_FW_N6/Drivers/BSP/Components/mx66uw1g45g/mx66uw1g45g.c **** 
1792:STM32Cube_FW_N6/Drivers/BSP/Components/mx66uw1g45g/mx66uw1g45g.c ****   /* Send the command */
1793:STM32Cube_FW_N6/Drivers/BSP/Components/mx66uw1g45g/mx66uw1g45g.c ****   if (HAL_XSPI_Command(Ctx, &s_command, HAL_XSPI_TIMEOUT_DEFAULT_VALUE) != HAL_OK)
 4257              		.loc 1 1793 7 view .LVU1423
 4258 002c 41F28832 		movw	r2, #5000
 4259 0030 3046     		mov	r0, r6
 4260 0032 01A9     		add	r1, sp, #4
1780:STM32Cube_FW_N6/Drivers/BSP/Components/mx66uw1g45g/mx66uw1g45g.c ****                               ? MX66UW1G45G_RELEASE_DEEP_POWER_DOWN_CMD
 4261              		.loc 1 1780 25 view .LVU1424
 4262 0034 0393     		str	r3, [sp, #12]
1783:STM32Cube_FW_N6/Drivers/BSP/Components/mx66uw1g45g/mx66uw1g45g.c ****   s_command.AddressMode = HAL_XSPI_ADDRESS_NONE;
 4263              		.loc 1 1783 3 is_stmt 1 view .LVU1425
1784:STM32Cube_FW_N6/Drivers/BSP/Components/mx66uw1g45g/mx66uw1g45g.c ****   s_command.DataMode = HAL_XSPI_DATA_NONE;
 4264              		.loc 1 1784 3 view .LVU1426
1785:STM32Cube_FW_N6/Drivers/BSP/Components/mx66uw1g45g/mx66uw1g45g.c ****   s_command.DummyCycles = 0U;
 4265              		.loc 1 1785 3 view .LVU1427
1786:STM32Cube_FW_N6/Drivers/BSP/Components/mx66uw1g45g/mx66uw1g45g.c ****   s_command.DQSMode = HAL_XSPI_DQS_DISABLE;
 4266              		.loc 1 1786 3 view .LVU1428
1787:STM32Cube_FW_N6/Drivers/BSP/Components/mx66uw1g45g/mx66uw1g45g.c ****  #if defined (XSPI_CCR_SIOO)
 4267              		.loc 1 1787 3 view .LVU1429
 4268              		.loc 1 1793 3 view .LVU1430
 4269              		.loc 1 1793 7 is_stmt 0 view .LVU1431
 4270 0036 FFF7FEFF 		bl	HAL_XSPI_Command
 4271              	.LVL231:
 4272              		.loc 1 1793 6 discriminator 1 view .LVU1432
 4273 003a 0038     		subs	r0, r0, #0
 4274 003c 18BF     		it	ne
 4275 003e 0120     		movne	r0, #1
 4276 0040 4042     		rsbs	r0, r0, #0
 4277              	.L290:
1794:STM32Cube_FW_N6/Drivers/BSP/Components/mx66uw1g45g/mx66uw1g45g.c ****   {
1795:STM32Cube_FW_N6/Drivers/BSP/Components/mx66uw1g45g/mx66uw1g45g.c ****     return MX66UW1G45G_ERROR;
1796:STM32Cube_FW_N6/Drivers/BSP/Components/mx66uw1g45g/mx66uw1g45g.c ****   }
1797:STM32Cube_FW_N6/Drivers/BSP/Components/mx66uw1g45g/mx66uw1g45g.c **** 
1798:STM32Cube_FW_N6/Drivers/BSP/Components/mx66uw1g45g/mx66uw1g45g.c ****   return MX66UW1G45G_OK;
1799:STM32Cube_FW_N6/Drivers/BSP/Components/mx66uw1g45g/mx66uw1g45g.c **** }
 4278              		.loc 1 1799 1 view .LVU1433
 4279 0042 14B0     		add	sp, sp, #80
 4280              		.cfi_remember_state
 4281              		.cfi_def_cfa_offset 16
 4282              		@ sp needed
 4283 0044 70BD     		pop	{r4, r5, r6, pc}
 4284              	.LVL232:
 4285              	.L291:
 4286              		.cfi_restore_state
1774:STM32Cube_FW_N6/Drivers/BSP/Components/mx66uw1g45g/mx66uw1g45g.c ****                                      ? HAL_XSPI_INSTRUCTION_DTR_ENABLE
 4287              		.loc 1 1774 3 is_stmt 1 view .LVU1434
1776:STM32Cube_FW_N6/Drivers/BSP/Components/mx66uw1g45g/mx66uw1g45g.c ****   s_command.InstructionWidth = (Mode == MX66UW1G45G_SPI_MODE)
 4288              		.loc 1 1776 38 is_stmt 0 view .LVU1435
 4289 0046 631E     		subs	r3, r4, #1
 4290 0048 5C42     		rsbs	r4, r3, #0
 4291 004a 5C41     		adcs	r4, r4, r3
 4292 004c E400     		lsls	r4, r4, #3
 4293 004e 0423     		movs	r3, #4
 4294 0050 E5E7     		b	.L293
ARM GAS  C:\Users\DJESSOU\AppData\Local\Temp\ccAx4BcF.s 			page 124


 4295              	.L296:
1782:STM32Cube_FW_N6/Drivers/BSP/Components/mx66uw1g45g/mx66uw1g45g.c ****   s_command.AddressMode = HAL_XSPI_ADDRESS_NONE;
 4296              		.loc 1 1782 31 discriminator 1 view .LVU1436
 4297 0052 AB23     		movs	r3, #171
 4298 0054 EAE7     		b	.L294
 4299              	.L295:
1765:STM32Cube_FW_N6/Drivers/BSP/Components/mx66uw1g45g/mx66uw1g45g.c ****   }
 4300              		.loc 1 1765 12 view .LVU1437
 4301 0056 4FF0FF30 		mov	r0, #-1
 4302 005a F2E7     		b	.L290
 4303              		.cfi_endproc
 4304              	.LFE889:
 4306              		.text
 4307              	.Letext0:
 4308              		.file 2 "C:\\ST\\STM32CubeIDE_1.18.1\\STM32CubeIDE\\plugins\\com.st.stm32cube.ide.mcu.externaltool
 4309              		.file 3 "C:\\ST\\STM32CubeIDE_1.18.1\\STM32CubeIDE\\plugins\\com.st.stm32cube.ide.mcu.externaltool
 4310              		.file 4 "STM32Cube_FW_N6/Drivers/CMSIS/Device/ST/STM32N6xx/Include/stm32n657xx.h"
 4311              		.file 5 "STM32Cube_FW_N6/Drivers/STM32N6xx_HAL_Driver/Inc/stm32n6xx_hal_def.h"
 4312              		.file 6 "STM32Cube_FW_N6/Drivers/STM32N6xx_HAL_Driver/Inc/stm32n6xx_hal_dma.h"
 4313              		.file 7 "STM32Cube_FW_N6/Drivers/STM32N6xx_HAL_Driver/Inc/stm32n6xx_hal_dma_ex.h"
 4314              		.file 8 "STM32Cube_FW_N6/Drivers/STM32N6xx_HAL_Driver/Inc/stm32n6xx_hal_xspi.h"
 4315              		.file 9 "STM32Cube_FW_N6/Drivers/BSP/Components/mx66uw1g45g/mx66uw1g45g.h"
 4316              		.file 10 "<built-in>"
ARM GAS  C:\Users\DJESSOU\AppData\Local\Temp\ccAx4BcF.s 			page 125


DEFINED SYMBOLS
                            *ABS*:00000000 mx66uw1g45g.c
C:\Users\DJESSOU\AppData\Local\Temp\ccAx4BcF.s:26     .text.MX66UW1G45G_GetFlashInfo:00000000 $t
C:\Users\DJESSOU\AppData\Local\Temp\ccAx4BcF.s:32     .text.MX66UW1G45G_GetFlashInfo:00000000 MX66UW1G45G_GetFlashInfo
C:\Users\DJESSOU\AppData\Local\Temp\ccAx4BcF.s:74     .text.MX66UW1G45G_AutoPollingMemReady:00000000 $t
C:\Users\DJESSOU\AppData\Local\Temp\ccAx4BcF.s:80     .text.MX66UW1G45G_AutoPollingMemReady:00000000 MX66UW1G45G_AutoPollingMemReady
C:\Users\DJESSOU\AppData\Local\Temp\ccAx4BcF.s:286    .text.MX66UW1G45G_ReadSTR:00000000 $t
C:\Users\DJESSOU\AppData\Local\Temp\ccAx4BcF.s:292    .text.MX66UW1G45G_ReadSTR:00000000 MX66UW1G45G_ReadSTR
C:\Users\DJESSOU\AppData\Local\Temp\ccAx4BcF.s:450    .text.MX66UW1G45G_ReadDTR:00000000 $t
C:\Users\DJESSOU\AppData\Local\Temp\ccAx4BcF.s:456    .text.MX66UW1G45G_ReadDTR:00000000 MX66UW1G45G_ReadDTR
C:\Users\DJESSOU\AppData\Local\Temp\ccAx4BcF.s:581    .text.MX66UW1G45G_PageProgram:00000000 $t
C:\Users\DJESSOU\AppData\Local\Temp\ccAx4BcF.s:587    .text.MX66UW1G45G_PageProgram:00000000 MX66UW1G45G_PageProgram
C:\Users\DJESSOU\AppData\Local\Temp\ccAx4BcF.s:741    .text.MX66UW1G45G_PageProgramDTR:00000000 $t
C:\Users\DJESSOU\AppData\Local\Temp\ccAx4BcF.s:747    .text.MX66UW1G45G_PageProgramDTR:00000000 MX66UW1G45G_PageProgramDTR
C:\Users\DJESSOU\AppData\Local\Temp\ccAx4BcF.s:863    .text.MX66UW1G45G_BlockErase:00000000 $t
C:\Users\DJESSOU\AppData\Local\Temp\ccAx4BcF.s:869    .text.MX66UW1G45G_BlockErase:00000000 MX66UW1G45G_BlockErase
C:\Users\DJESSOU\AppData\Local\Temp\ccAx4BcF.s:1035   .text.MX66UW1G45G_ChipErase:00000000 $t
C:\Users\DJESSOU\AppData\Local\Temp\ccAx4BcF.s:1041   .text.MX66UW1G45G_ChipErase:00000000 MX66UW1G45G_ChipErase
C:\Users\DJESSOU\AppData\Local\Temp\ccAx4BcF.s:1149   .text.MX66UW1G45G_EnableSTRMemoryMappedMode:00000000 $t
C:\Users\DJESSOU\AppData\Local\Temp\ccAx4BcF.s:1155   .text.MX66UW1G45G_EnableSTRMemoryMappedMode:00000000 MX66UW1G45G_EnableSTRMemoryMappedMode
C:\Users\DJESSOU\AppData\Local\Temp\ccAx4BcF.s:1348   .text.MX66UW1G45G_EnableDTRMemoryMappedMode:00000000 $t
C:\Users\DJESSOU\AppData\Local\Temp\ccAx4BcF.s:1354   .text.MX66UW1G45G_EnableDTRMemoryMappedMode:00000000 MX66UW1G45G_EnableDTRMemoryMappedMode
C:\Users\DJESSOU\AppData\Local\Temp\ccAx4BcF.s:1503   .text.MX66UW1G45G_Suspend:00000000 $t
C:\Users\DJESSOU\AppData\Local\Temp\ccAx4BcF.s:1509   .text.MX66UW1G45G_Suspend:00000000 MX66UW1G45G_Suspend
C:\Users\DJESSOU\AppData\Local\Temp\ccAx4BcF.s:1617   .text.MX66UW1G45G_Resume:00000000 $t
C:\Users\DJESSOU\AppData\Local\Temp\ccAx4BcF.s:1623   .text.MX66UW1G45G_Resume:00000000 MX66UW1G45G_Resume
C:\Users\DJESSOU\AppData\Local\Temp\ccAx4BcF.s:1731   .text.MX66UW1G45G_WriteEnable:00000000 $t
C:\Users\DJESSOU\AppData\Local\Temp\ccAx4BcF.s:1737   .text.MX66UW1G45G_WriteEnable:00000000 MX66UW1G45G_WriteEnable
C:\Users\DJESSOU\AppData\Local\Temp\ccAx4BcF.s:1979   .text.MX66UW1G45G_WriteDisable:00000000 $t
C:\Users\DJESSOU\AppData\Local\Temp\ccAx4BcF.s:1985   .text.MX66UW1G45G_WriteDisable:00000000 MX66UW1G45G_WriteDisable
C:\Users\DJESSOU\AppData\Local\Temp\ccAx4BcF.s:2093   .text.MX66UW1G45G_ReadStatusRegister:00000000 $t
C:\Users\DJESSOU\AppData\Local\Temp\ccAx4BcF.s:2099   .text.MX66UW1G45G_ReadStatusRegister:00000000 MX66UW1G45G_ReadStatusRegister
C:\Users\DJESSOU\AppData\Local\Temp\ccAx4BcF.s:2288   .text.MX66UW1G45G_WriteCfgRegister:00000000 $t
C:\Users\DJESSOU\AppData\Local\Temp\ccAx4BcF.s:2294   .text.MX66UW1G45G_WriteCfgRegister:00000000 MX66UW1G45G_WriteCfgRegister
C:\Users\DJESSOU\AppData\Local\Temp\ccAx4BcF.s:2490   .text.MX66UW1G45G_ReadCfgRegister:00000000 $t
C:\Users\DJESSOU\AppData\Local\Temp\ccAx4BcF.s:2496   .text.MX66UW1G45G_ReadCfgRegister:00000000 MX66UW1G45G_ReadCfgRegister
C:\Users\DJESSOU\AppData\Local\Temp\ccAx4BcF.s:2688   .text.MX66UW1G45G_WriteStatusRegister:00000000 $t
C:\Users\DJESSOU\AppData\Local\Temp\ccAx4BcF.s:2694   .text.MX66UW1G45G_WriteStatusRegister:00000000 MX66UW1G45G_WriteStatusRegister
C:\Users\DJESSOU\AppData\Local\Temp\ccAx4BcF.s:2879   .text.MX66UW1G45G_WriteCfg2Register:00000000 $t
C:\Users\DJESSOU\AppData\Local\Temp\ccAx4BcF.s:2885   .text.MX66UW1G45G_WriteCfg2Register:00000000 MX66UW1G45G_WriteCfg2Register
C:\Users\DJESSOU\AppData\Local\Temp\ccAx4BcF.s:3057   .text.MX66UW1G45G_ReadCfg2Register:00000000 $t
C:\Users\DJESSOU\AppData\Local\Temp\ccAx4BcF.s:3063   .text.MX66UW1G45G_ReadCfg2Register:00000000 MX66UW1G45G_ReadCfg2Register
C:\Users\DJESSOU\AppData\Local\Temp\ccAx4BcF.s:3254   .text.MX66UW1G45G_WriteSecurityRegister:00000000 $t
C:\Users\DJESSOU\AppData\Local\Temp\ccAx4BcF.s:3260   .text.MX66UW1G45G_WriteSecurityRegister:00000000 MX66UW1G45G_WriteSecurityRegister
C:\Users\DJESSOU\AppData\Local\Temp\ccAx4BcF.s:3369   .text.MX66UW1G45G_ReadSecurityRegister:00000000 $t
C:\Users\DJESSOU\AppData\Local\Temp\ccAx4BcF.s:3375   .text.MX66UW1G45G_ReadSecurityRegister:00000000 MX66UW1G45G_ReadSecurityRegister
C:\Users\DJESSOU\AppData\Local\Temp\ccAx4BcF.s:3564   .text.MX66UW1G45G_ReadID:00000000 $t
C:\Users\DJESSOU\AppData\Local\Temp\ccAx4BcF.s:3570   .text.MX66UW1G45G_ReadID:00000000 MX66UW1G45G_ReadID
C:\Users\DJESSOU\AppData\Local\Temp\ccAx4BcF.s:3733   .text.MX66UW1G45G_ResetEnable:00000000 $t
C:\Users\DJESSOU\AppData\Local\Temp\ccAx4BcF.s:3739   .text.MX66UW1G45G_ResetEnable:00000000 MX66UW1G45G_ResetEnable
C:\Users\DJESSOU\AppData\Local\Temp\ccAx4BcF.s:3850   .text.MX66UW1G45G_ResetMemory:00000000 $t
C:\Users\DJESSOU\AppData\Local\Temp\ccAx4BcF.s:3856   .text.MX66UW1G45G_ResetMemory:00000000 MX66UW1G45G_ResetMemory
C:\Users\DJESSOU\AppData\Local\Temp\ccAx4BcF.s:3964   .text.MX66UW1G45G_NoOperation:00000000 $t
C:\Users\DJESSOU\AppData\Local\Temp\ccAx4BcF.s:3970   .text.MX66UW1G45G_NoOperation:00000000 MX66UW1G45G_NoOperation
C:\Users\DJESSOU\AppData\Local\Temp\ccAx4BcF.s:4079   .text.MX66UW1G45G_EnterPowerDown:00000000 $t
C:\Users\DJESSOU\AppData\Local\Temp\ccAx4BcF.s:4085   .text.MX66UW1G45G_EnterPowerDown:00000000 MX66UW1G45G_EnterPowerDown
C:\Users\DJESSOU\AppData\Local\Temp\ccAx4BcF.s:4193   .text.MX66UW1G45G_ReleasePowerDown:00000000 $t
ARM GAS  C:\Users\DJESSOU\AppData\Local\Temp\ccAx4BcF.s 			page 126


C:\Users\DJESSOU\AppData\Local\Temp\ccAx4BcF.s:4199   .text.MX66UW1G45G_ReleasePowerDown:00000000 MX66UW1G45G_ReleasePowerDown
                           .group:00000000 wm4.0.c530a555507323ed657a04d5a22acbf4
                           .group:00000000 wm4.stm32n6xx_hal_conf.h.21.004a06df6e15ac197e03f723792da58a
                           .group:00000000 wm4.stddef.h.39.0dc9006b34572d4d9cae4c8b422c4971
                           .group:00000000 wm4.arm_cmse.h.103.a0d15a79c4c9a67da8d5831704d7248e
                           .group:00000000 wm4.stm32n6xx.h.34.c523a1ffdf274a69e8802892c6776332
                           .group:00000000 wm4.stm32n657xx.h.26.acd272cb67318cc1a4791ce2f0720ca6
                           .group:00000000 wm4._newlib_version.h.4.411db44ea2338a62eca2f0777f81481b
                           .group:00000000 wm4.features.h.33.e0c9f337c65cb9f22ed5f23d082bc78b
                           .group:00000000 wm4._default_types.h.15.247e5cd201eca3442cbf5404108c4935
                           .group:00000000 wm4._intsup.h.10.48bafbb683905c4daa4565a85aeeb264
                           .group:00000000 wm4._stdint.h.10.c24fa3af3bc1706662bb5593a907e841
                           .group:00000000 wm4.stdint.h.23.d53047a68f4a85177f80b422d52785ed
                           .group:00000000 wm4.cmsis_version.h.30.d128735bf87720f7436b74fefeb5043c
                           .group:00000000 wm4.core_cm55.h.67.25006a3ce7048d64bcddd2996d5fac93
                           .group:00000000 wm4.arm_acle.h.28.ce8f475a5cc50333e54ae4adeb8c0298
                           .group:00000000 wm4.cmsis_gcc.h.39.eba7438bc45fd1a6e6376b63ffe44436
                           .group:00000000 wm4.cmsis_gcc_m.h.24.e590ec51aeda3a1242400351d73f5dce
                           .group:00000000 wm4.core_cm55.h.213.0528f46a674315ef8d35c4477e230358
                           .group:00000000 wm4.armv8m_mpu.h.24.bf28cc25bee30a7ff9d2f7a44a5e2230
                           .group:00000000 wm4.armv8m_pmu.h.24.6ded195d2625055391fd378c0e1d2519
                           .group:00000000 wm4.core_cm55.h.4477.396e822ef855bcfb932819ad48de1c4c
                           .group:00000000 wm4.armv7m_cachel1.h.24.936dd92d6e204a8d0b17d5e4ea4a356e
                           .group:00000000 wm4.stm32n657xx.h.575.78d331c417ec710388ced647138f735f
                           .group:00000000 wm4.stm32n6xx.h.116.b4247d9785590e7c5ec9234ffb2153bf
                           .group:00000000 wm4.stm32_hal_legacy.h.22.e62aae2fd3ae33360b6781c8a72e5b18
                           .group:00000000 wm4.newlib.h.7.a37ffbe9e5aff74303f4e60b1cc1c01b
                           .group:00000000 wm4.ieeefp.h.77.bd5feb87d9990dd328793ced294f6a87
                           .group:00000000 wm4.config.h.224.10ee1ad185d877c6e334e6581faab44d
                           .group:00000000 wm4._ansi.h.31.de524f58584151836e90d8620a16f8e8
                           .group:00000000 wm4.cdefs.h.49.70fc7af612f78ddcace70fdd90b5623b
                           .group:00000000 wm4._types.h.20.dd0d04dca3800a0d2a6129b87f3adbb2
                           .group:00000000 wm4.stddef.h.158.6f8e08a347b1cff664332fa350bfceb3
                           .group:00000000 wm4._types.h.127.3bdfe3ff8ea2d0985b03d9cbe93480e3
                           .group:00000000 wm4.reent.h.18.25503cdc8b7e55dd0d6ea7b3e5af7a03
                           .group:00000000 wm4.lock.h.2.1461d1fff82dffe8bfddc23307f6484f
                           .group:00000000 wm4.reent.h.78.6b87466b04591b1f1cb88c14fdf2ba9e
                           .group:00000000 wm4.math.h.13.47cfc34cae8a1153323939c4d32cf7c2
                           .group:00000000 wm4.stm32n6xx_hal_def.h.63.3a8f01490e8852464e9fcb69092e9c75
                           .group:00000000 wm4.stm32n6xx_ll_bus.h.38.2366a295ee4cdb04833997d3787fcd2d
                           .group:00000000 wm4.stm32n6xx_ll_rcc.h.21.656bd5637db608589ad16ea57d39430c
                           .group:00000000 wm4.stm32n6xx_hal_rcc.h.194.69b522b1afdf59a82d05a1f71efe03c7
                           .group:00000000 wm4.stm32n6xx_hal_rcc_ex.h.21.cc6be0a7d168882a1a6f470236ba784c
                           .group:00000000 wm4.stm32n6xx_hal_rcc.h.4361.4b490a4a19722e68c21f88cb8a774a30
                           .group:00000000 wm4.stm32n6xx_hal_gpio.h.21.89d54af663b98eb8fc098192053f7eeb
                           .group:00000000 wm4.stm32n6xx_hal_gpio_ex.h.22.f7e795fb05a69a19b87d946b47c8db8b
                           .group:00000000 wm4.stm32n6xx_hal_rif.h.21.33f2c553a8a3fc14dca8c470b213ab19
                           .group:00000000 wm4.stm32n6xx_hal_dma.h.21.61e48c5c2e8d25d22177834b232fe45c
                           .group:00000000 wm4.stm32n6xx_hal_dma_ex.h.21.82f854ecdb6a463b06d0b4e5c217c368
                           .group:00000000 wm4.stm32n6xx_hal_dma.h.1020.87e2180c009560b617c1f8208140c950
                           .group:00000000 wm4.stm32n6xx_hal_cortex.h.21.f493623cc58f9454ab4eae41e395c5cc
                           .group:00000000 wm4.stm32n6xx_hal_bsec.h.21.1ee89319140541f82434908b4267aa30
                           .group:00000000 wm4.stm32n6xx_hal_dcmipp.h.21.e2b87dce83d7d722d696a597f6ac56bf
                           .group:00000000 wm4.stm32n6xx_hal_dma2d.h.21.75c8d46cdbb72970123b3f34ae2043d7
                           .group:00000000 wm4.stm32n6xx_hal_exti.h.21.e0efb23591051684dc14f1f2431c6aab
                           .group:00000000 wm4.stm32n6xx_hal_gfxmmu.h.21.9784a9103143d48bd3c37389d0e0b8e6
                           .group:00000000 wm4.stm32n6xx_hal_i2c.h.21.3f483626ff64c5bf027265bb2e1d1331
ARM GAS  C:\Users\DJESSOU\AppData\Local\Temp\ccAx4BcF.s 			page 127


                           .group:00000000 wm4.stm32n6xx_hal_i2c_ex.h.21.79e9196c22282cdaf6b4047893638c45
                           .group:00000000 wm4.stm32n6xx_hal_i2c.h.741.1084702632703acc669e4282b3043372
                           .group:00000000 wm4.stm32n6xx_hal_icache.h.21.194b4ec6e76f32b14f65c85616854850
                           .group:00000000 wm4.stm32n6xx_hal_ltdc.h.21.ae1eb09930e7e550e48e418ac5849e4d
                           .group:00000000 wm4.stm32n6xx_hal_ltdc.h.1002.b13ede7fc94ed5ad1c6768a157d2149a
                           .group:00000000 wm4.stm32n6xx_ll_usb.h.21.daaf86158046f2cf02166c495d637480
                           .group:00000000 wm4.stm32n6xx_hal_pcd.h.155.27040aac6844effe2af8c180caf1dd2e
                           .group:00000000 wm4.stm32n6xx_hal_pwr.h.21.cdb73e4869c3fed3fc84f901ec0e5f0a
                           .group:00000000 wm4.stm32n6xx_hal_pwr_ex.h.21.1a673224a58b0c1e5fad8eeda6514208
                           .group:00000000 wm4.stm32n6xx_hal_ramcfg.h.21.a62dfbb4d2c14e9a8c634a215e37bd3d
                           .group:00000000 wm4.stm32n6xx_hal_spi.h.21.9f810303326e2d91749800e9911f8e4d
                           .group:00000000 wm4.stm32n6xx_hal_spi.h.906.8ad9375f39dce09dc0a4db0025ee7a76
                           .group:00000000 wm4.stm32n6xx_hal_tim.h.21.839dd2b2a70382fb2c44f8f293a84d5f
                           .group:00000000 wm4.stm32n6xx_hal_tim_ex.h.21.e372d5ac63c13441211ea4ecbd353150
                           .group:00000000 wm4.stm32n6xx_hal_uart.h.21.230f549bfa0d5ebfd77bfb311b2aca15
                           .group:00000000 wm4.stm32n6xx_hal_uart_ex.h.21.a0d5511e1d0703b7b5278c8f5472b96d
                           .group:00000000 wm4.stm32n6xx_hal_xspi.h.21.7fd922d3bdb871475cf18436a68935bb
                           .group:00000000 wm4.stm32n6xx_hal_cacheaxi.h.21.7c3375b7903ec42376e4883320997f74
                           .group:00000000 wm4.stm32n6xx_hal_gpu2d.h.21.48d0249122abad294a630c39cc4ebaed
                           .group:00000000 wm4.stm32n6xx_hal.h.81.e79d59262ba173c33cf1d69281830d15
                           .group:00000000 wm4.mx66uw1g45g_conf.h.33.e80ea5a2be9966c1fc0cd6f56afa46f0
                           .group:00000000 wm4.mx66uw1g45g.h.49.3b3b0df182007ec4336e6255e9f3b5f2

UNDEFINED SYMBOLS
memset
HAL_XSPI_Command
HAL_XSPI_AutoPolling
HAL_XSPI_Receive
HAL_XSPI_Transmit
HAL_XSPI_MemoryMapped
