ARM GAS  C:\Users\DJESSOU\AppData\Local\Temp\ccAx4BcF.s 			page 1


   1              		.arch armv8.1-m.main
   2              		.fpu fpv5-d16
   3              		.arch_extension dsp
   4              		.arch_extension fp
   5              		.arch_extension fp.dp
   6              		.arch_extension mve
   7              		.arch_extension mve.fp
   8              		.eabi_attribute 5, "cortex-m55"
   9              		.eabi_attribute 28, 1
  10              		.eabi_attribute 20, 1
  11              		.eabi_attribute 21, 1
  12              		.eabi_attribute 23, 3
  13              		.eabi_attribute 24, 1
  14              		.eabi_attribute 25, 1
  15              		.eabi_attribute 26, 1
  16              		.eabi_attribute 30, 4
  17              		.eabi_attribute 34, 1
  18              		.eabi_attribute 38, 1
  19              		.eabi_attribute 18, 4
  20              		.file	"mx66uw1g45g.c"
  21              		.text
  22              	.Ltext0:
  23              		.cfi_sections	.debug_frame
  24              		.file 1 "STM32Cube_FW_N6/Drivers/BSP/Components/mx66uw1g45g/mx66uw1g45g.c"
  25              		.section	.text.MX66UW1G45G_GetFlashInfo,"ax",%progbits
  26              		.align	1
  27              		.global	MX66UW1G45G_GetFlashInfo
  28              		.syntax unified
  29              		.thumb
  30              		.thumb_func
  32              	MX66UW1G45G_GetFlashInfo:
  33              	.LVL0:
  34              	.LFB862:
   1:STM32Cube_FW_N6/Drivers/BSP/Components/mx66uw1g45g/mx66uw1g45g.c **** /**
   2:STM32Cube_FW_N6/Drivers/BSP/Components/mx66uw1g45g/mx66uw1g45g.c ****   ******************************************************************************
   3:STM32Cube_FW_N6/Drivers/BSP/Components/mx66uw1g45g/mx66uw1g45g.c ****   * @file    mx66uw1g45g.c
   4:STM32Cube_FW_N6/Drivers/BSP/Components/mx66uw1g45g/mx66uw1g45g.c ****   * @modify  MCD Application Team
   5:STM32Cube_FW_N6/Drivers/BSP/Components/mx66uw1g45g/mx66uw1g45g.c ****   * @brief   This file provides the MX66UW1G45G XSPI drivers.
   6:STM32Cube_FW_N6/Drivers/BSP/Components/mx66uw1g45g/mx66uw1g45g.c ****   ******************************************************************************
   7:STM32Cube_FW_N6/Drivers/BSP/Components/mx66uw1g45g/mx66uw1g45g.c ****   * @attention
   8:STM32Cube_FW_N6/Drivers/BSP/Components/mx66uw1g45g/mx66uw1g45g.c ****   *
   9:STM32Cube_FW_N6/Drivers/BSP/Components/mx66uw1g45g/mx66uw1g45g.c ****   * Copyright (c) 2023 STMicroelectronics.
  10:STM32Cube_FW_N6/Drivers/BSP/Components/mx66uw1g45g/mx66uw1g45g.c ****   * All rights reserved.
  11:STM32Cube_FW_N6/Drivers/BSP/Components/mx66uw1g45g/mx66uw1g45g.c ****   *
  12:STM32Cube_FW_N6/Drivers/BSP/Components/mx66uw1g45g/mx66uw1g45g.c ****   * This software is licensed under terms that can be found in the LICENSE file
  13:STM32Cube_FW_N6/Drivers/BSP/Components/mx66uw1g45g/mx66uw1g45g.c ****   * in the root directory of this software component.
  14:STM32Cube_FW_N6/Drivers/BSP/Components/mx66uw1g45g/mx66uw1g45g.c ****   * If no LICENSE file comes with this software, it is provided AS-IS.
  15:STM32Cube_FW_N6/Drivers/BSP/Components/mx66uw1g45g/mx66uw1g45g.c ****   *
  16:STM32Cube_FW_N6/Drivers/BSP/Components/mx66uw1g45g/mx66uw1g45g.c ****   ******************************************************************************
  17:STM32Cube_FW_N6/Drivers/BSP/Components/mx66uw1g45g/mx66uw1g45g.c ****     * MX66UW1G45G action :
  18:STM32Cube_FW_N6/Drivers/BSP/Components/mx66uw1g45g/mx66uw1g45g.c ****   *   STR Octal IO protocol (SOPI) and DTR Octal IO protocol (DOPI) bits of
  19:STM32Cube_FW_N6/Drivers/BSP/Components/mx66uw1g45g/mx66uw1g45g.c ****   *   Configuration Register 2 :
  20:STM32Cube_FW_N6/Drivers/BSP/Components/mx66uw1g45g/mx66uw1g45g.c ****   *     DOPI = 1 and SOPI = 0: Operates in DTR Octal IO protocol (accepts 8-8-8 commands)
  21:STM32Cube_FW_N6/Drivers/BSP/Components/mx66uw1g45g/mx66uw1g45g.c ****   *     DOPI = 0 and SOPI = 1: Operates in STR Octal IO protocol (accepts 8-8-8 commands)
  22:STM32Cube_FW_N6/Drivers/BSP/Components/mx66uw1g45g/mx66uw1g45g.c ****   *     DOPI = 0 and SOPI = 0: Operates in Single IO protocol (accepts 1-1-1 commands)
  23:STM32Cube_FW_N6/Drivers/BSP/Components/mx66uw1g45g/mx66uw1g45g.c ****   *   Enter SOPI mode by configuring DOPI = 0 and SOPI = 1 in CR2-Addr0
  24:STM32Cube_FW_N6/Drivers/BSP/Components/mx66uw1g45g/mx66uw1g45g.c ****   *   Exit SOPI mode by configuring DOPI = 0 and SOPI = 0 in CR2-Addr0
ARM GAS  C:\Users\DJESSOU\AppData\Local\Temp\ccAx4BcF.s 			page 2


  25:STM32Cube_FW_N6/Drivers/BSP/Components/mx66uw1g45g/mx66uw1g45g.c ****   *   Enter DOPI mode by configuring DOPI = 1 and SOPI = 0 in CR2-Addr0
  26:STM32Cube_FW_N6/Drivers/BSP/Components/mx66uw1g45g/mx66uw1g45g.c ****   *   Exit DOPI mode by configuring DOPI = 0 and SOPI = 0 in CR2-Addr0
  27:STM32Cube_FW_N6/Drivers/BSP/Components/mx66uw1g45g/mx66uw1g45g.c ****   *
  28:STM32Cube_FW_N6/Drivers/BSP/Components/mx66uw1g45g/mx66uw1g45g.c ****   *   Memory commands support STR(Single Transfer Rate) &
  29:STM32Cube_FW_N6/Drivers/BSP/Components/mx66uw1g45g/mx66uw1g45g.c ****   *   DTR(Double Transfer Rate) modes in OPI
  30:STM32Cube_FW_N6/Drivers/BSP/Components/mx66uw1g45g/mx66uw1g45g.c ****   *
  31:STM32Cube_FW_N6/Drivers/BSP/Components/mx66uw1g45g/mx66uw1g45g.c ****   *   Memory commands support STR(Single Transfer Rate) &
  32:STM32Cube_FW_N6/Drivers/BSP/Components/mx66uw1g45g/mx66uw1g45g.c ****   *   DTR(Double Transfer Rate) modes in SPI
  33:STM32Cube_FW_N6/Drivers/BSP/Components/mx66uw1g45g/mx66uw1g45g.c ****   *
  34:STM32Cube_FW_N6/Drivers/BSP/Components/mx66uw1g45g/mx66uw1g45g.c ****   ******************************************************************************
  35:STM32Cube_FW_N6/Drivers/BSP/Components/mx66uw1g45g/mx66uw1g45g.c ****   */
  36:STM32Cube_FW_N6/Drivers/BSP/Components/mx66uw1g45g/mx66uw1g45g.c **** 
  37:STM32Cube_FW_N6/Drivers/BSP/Components/mx66uw1g45g/mx66uw1g45g.c **** /* Includes ------------------------------------------------------------------*/
  38:STM32Cube_FW_N6/Drivers/BSP/Components/mx66uw1g45g/mx66uw1g45g.c **** #include "mx66uw1g45g.h"
  39:STM32Cube_FW_N6/Drivers/BSP/Components/mx66uw1g45g/mx66uw1g45g.c **** 
  40:STM32Cube_FW_N6/Drivers/BSP/Components/mx66uw1g45g/mx66uw1g45g.c **** /** @addtogroup BSP
  41:STM32Cube_FW_N6/Drivers/BSP/Components/mx66uw1g45g/mx66uw1g45g.c ****   * @{
  42:STM32Cube_FW_N6/Drivers/BSP/Components/mx66uw1g45g/mx66uw1g45g.c ****   */
  43:STM32Cube_FW_N6/Drivers/BSP/Components/mx66uw1g45g/mx66uw1g45g.c **** 
  44:STM32Cube_FW_N6/Drivers/BSP/Components/mx66uw1g45g/mx66uw1g45g.c **** /** @addtogroup Components
  45:STM32Cube_FW_N6/Drivers/BSP/Components/mx66uw1g45g/mx66uw1g45g.c ****   * @{
  46:STM32Cube_FW_N6/Drivers/BSP/Components/mx66uw1g45g/mx66uw1g45g.c ****   */
  47:STM32Cube_FW_N6/Drivers/BSP/Components/mx66uw1g45g/mx66uw1g45g.c **** 
  48:STM32Cube_FW_N6/Drivers/BSP/Components/mx66uw1g45g/mx66uw1g45g.c **** /** @defgroup MX66UW1G45G MX66UW1G45G
  49:STM32Cube_FW_N6/Drivers/BSP/Components/mx66uw1g45g/mx66uw1g45g.c ****   * @{
  50:STM32Cube_FW_N6/Drivers/BSP/Components/mx66uw1g45g/mx66uw1g45g.c ****   */
  51:STM32Cube_FW_N6/Drivers/BSP/Components/mx66uw1g45g/mx66uw1g45g.c **** 
  52:STM32Cube_FW_N6/Drivers/BSP/Components/mx66uw1g45g/mx66uw1g45g.c **** /** @defgroup MX66UW1G45G_Exported_Functions MX66UW1G45G Exported Functions
  53:STM32Cube_FW_N6/Drivers/BSP/Components/mx66uw1g45g/mx66uw1g45g.c ****   * @{
  54:STM32Cube_FW_N6/Drivers/BSP/Components/mx66uw1g45g/mx66uw1g45g.c ****   */
  55:STM32Cube_FW_N6/Drivers/BSP/Components/mx66uw1g45g/mx66uw1g45g.c **** 
  56:STM32Cube_FW_N6/Drivers/BSP/Components/mx66uw1g45g/mx66uw1g45g.c **** /**
  57:STM32Cube_FW_N6/Drivers/BSP/Components/mx66uw1g45g/mx66uw1g45g.c ****   * @brief  Get Flash information
  58:STM32Cube_FW_N6/Drivers/BSP/Components/mx66uw1g45g/mx66uw1g45g.c ****   * @param  pInfo pointer to information structure
  59:STM32Cube_FW_N6/Drivers/BSP/Components/mx66uw1g45g/mx66uw1g45g.c ****   * @retval error status
  60:STM32Cube_FW_N6/Drivers/BSP/Components/mx66uw1g45g/mx66uw1g45g.c ****   */
  61:STM32Cube_FW_N6/Drivers/BSP/Components/mx66uw1g45g/mx66uw1g45g.c **** int32_t MX66UW1G45G_GetFlashInfo(MX66UW1G45G_Info_t *pInfo)
  62:STM32Cube_FW_N6/Drivers/BSP/Components/mx66uw1g45g/mx66uw1g45g.c **** {
  35              		.loc 1 62 1 view -0
  36              		.cfi_startproc
  37              		@ args = 0, pretend = 0, frame = 0
  38              		@ frame_needed = 0, uses_anonymous_args = 0
  39              		@ link register save eliminated.
  63:STM32Cube_FW_N6/Drivers/BSP/Components/mx66uw1g45g/mx66uw1g45g.c ****   /* Configure the structure with the memory configuration */
  64:STM32Cube_FW_N6/Drivers/BSP/Components/mx66uw1g45g/mx66uw1g45g.c ****   pInfo->FlashSize = MX66UW1G45G_FLASH_SIZE;
  40              		.loc 1 64 3 view .LVU1
  65:STM32Cube_FW_N6/Drivers/BSP/Components/mx66uw1g45g/mx66uw1g45g.c ****   pInfo->EraseSectorSize = MX66UW1G45G_BLOCK_64K;
  41              		.loc 1 65 26 is_stmt 0 view .LVU2
  42 0000 4FF00062 		mov	r2, #134217728
  43 0004 4FF48033 		mov	r3, #65536
  44 0008 C0E90023 		strd	r2, r3, [r0]
  66:STM32Cube_FW_N6/Drivers/BSP/Components/mx66uw1g45g/mx66uw1g45g.c ****   pInfo->EraseSectorsNumber = (MX66UW1G45G_FLASH_SIZE / MX66UW1G45G_BLOCK_64K);
  45              		.loc 1 66 3 is_stmt 1 view .LVU3
  67:STM32Cube_FW_N6/Drivers/BSP/Components/mx66uw1g45g/mx66uw1g45g.c ****   pInfo->EraseSubSectorSize = MX66UW1G45G_BLOCK_4K;
  46              		.loc 1 67 29 is_stmt 0 view .LVU4
  47 000c 4FF48052 		mov	r2, #4096
  48 0010 4FF40063 		mov	r3, #2048
ARM GAS  C:\Users\DJESSOU\AppData\Local\Temp\ccAx4BcF.s 			page 3


  49 0014 C0E90232 		strd	r3, r2, [r0, #8]
  68:STM32Cube_FW_N6/Drivers/BSP/Components/mx66uw1g45g/mx66uw1g45g.c ****   pInfo->EraseSubSectorNumber = (MX66UW1G45G_FLASH_SIZE / MX66UW1G45G_BLOCK_4K);
  50              		.loc 1 68 3 is_stmt 1 view .LVU5
  51              		.loc 1 68 31 is_stmt 0 view .LVU6
  52 0018 4FF40043 		mov	r3, #32768
  69:STM32Cube_FW_N6/Drivers/BSP/Components/mx66uw1g45g/mx66uw1g45g.c ****   pInfo->EraseSubSector1Size = MX66UW1G45G_BLOCK_4K;
  70:STM32Cube_FW_N6/Drivers/BSP/Components/mx66uw1g45g/mx66uw1g45g.c ****   pInfo->EraseSubSector1Number = (MX66UW1G45G_FLASH_SIZE / MX66UW1G45G_BLOCK_4K);
  71:STM32Cube_FW_N6/Drivers/BSP/Components/mx66uw1g45g/mx66uw1g45g.c ****   pInfo->ProgPageSize = MX66UW1G45G_PAGE_SIZE;
  72:STM32Cube_FW_N6/Drivers/BSP/Components/mx66uw1g45g/mx66uw1g45g.c ****   pInfo->ProgPagesNumber = (MX66UW1G45G_FLASH_SIZE / MX66UW1G45G_PAGE_SIZE);
  53              		.loc 1 72 26 view .LVU7
  54 001c 4FF48071 		mov	r1, #256
  69:STM32Cube_FW_N6/Drivers/BSP/Components/mx66uw1g45g/mx66uw1g45g.c ****   pInfo->EraseSubSector1Size = MX66UW1G45G_BLOCK_4K;
  55              		.loc 1 69 30 view .LVU8
  56 0020 C0E90432 		strd	r3, r2, [r0, #16]
  70:STM32Cube_FW_N6/Drivers/BSP/Components/mx66uw1g45g/mx66uw1g45g.c ****   pInfo->ProgPageSize = MX66UW1G45G_PAGE_SIZE;
  57              		.loc 1 70 3 is_stmt 1 view .LVU9
  70:STM32Cube_FW_N6/Drivers/BSP/Components/mx66uw1g45g/mx66uw1g45g.c ****   pInfo->ProgPageSize = MX66UW1G45G_PAGE_SIZE;
  58              		.loc 1 70 32 is_stmt 0 view .LVU10
  59 0024 8361     		str	r3, [r0, #24]
  71:STM32Cube_FW_N6/Drivers/BSP/Components/mx66uw1g45g/mx66uw1g45g.c ****   pInfo->ProgPagesNumber = (MX66UW1G45G_FLASH_SIZE / MX66UW1G45G_PAGE_SIZE);
  60              		.loc 1 71 3 is_stmt 1 view .LVU11
  61              		.loc 1 72 26 is_stmt 0 view .LVU12
  62 0026 4FF40023 		mov	r3, #524288
  63 002a C0E90713 		strd	r1, r3, [r0, #28]
  73:STM32Cube_FW_N6/Drivers/BSP/Components/mx66uw1g45g/mx66uw1g45g.c **** 
  74:STM32Cube_FW_N6/Drivers/BSP/Components/mx66uw1g45g/mx66uw1g45g.c ****   return MX66UW1G45G_OK;
  64              		.loc 1 74 3 is_stmt 1 view .LVU13
  75:STM32Cube_FW_N6/Drivers/BSP/Components/mx66uw1g45g/mx66uw1g45g.c **** };
  65              		.loc 1 75 1 is_stmt 0 view .LVU14
  66 002e 0020     		movs	r0, #0
  67              	.LVL1:
  68              		.loc 1 75 1 view .LVU15
  69 0030 7047     		bx	lr
  70              		.cfi_endproc
  71              	.LFE862:
  73              		.section	.text.MX66UW1G45G_AutoPollingMemReady,"ax",%progbits
  74              		.align	1
  75              		.global	MX66UW1G45G_AutoPollingMemReady
  76              		.syntax unified
  77              		.thumb
  78              		.thumb_func
  80              	MX66UW1G45G_AutoPollingMemReady:
  81              	.LVL2:
  82              	.LFB863:
  76:STM32Cube_FW_N6/Drivers/BSP/Components/mx66uw1g45g/mx66uw1g45g.c **** 
  77:STM32Cube_FW_N6/Drivers/BSP/Components/mx66uw1g45g/mx66uw1g45g.c **** /**
  78:STM32Cube_FW_N6/Drivers/BSP/Components/mx66uw1g45g/mx66uw1g45g.c ****   * @brief  Polling WIP(Write In Progress) bit become to 0
  79:STM32Cube_FW_N6/Drivers/BSP/Components/mx66uw1g45g/mx66uw1g45g.c ****   *         SPI/OPI;
  80:STM32Cube_FW_N6/Drivers/BSP/Components/mx66uw1g45g/mx66uw1g45g.c ****   * @param  Ctx Component object pointer
  81:STM32Cube_FW_N6/Drivers/BSP/Components/mx66uw1g45g/mx66uw1g45g.c ****   * @param  Mode Interface mode
  82:STM32Cube_FW_N6/Drivers/BSP/Components/mx66uw1g45g/mx66uw1g45g.c ****   * @param  Rate Transfer rate
  83:STM32Cube_FW_N6/Drivers/BSP/Components/mx66uw1g45g/mx66uw1g45g.c ****   * @retval error status
  84:STM32Cube_FW_N6/Drivers/BSP/Components/mx66uw1g45g/mx66uw1g45g.c ****   */
  85:STM32Cube_FW_N6/Drivers/BSP/Components/mx66uw1g45g/mx66uw1g45g.c **** int32_t MX66UW1G45G_AutoPollingMemReady(XSPI_HandleTypeDef *Ctx, MX66UW1G45G_Interface_t Mode,
  86:STM32Cube_FW_N6/Drivers/BSP/Components/mx66uw1g45g/mx66uw1g45g.c ****                                         MX66UW1G45G_Transfer_t Rate)
  87:STM32Cube_FW_N6/Drivers/BSP/Components/mx66uw1g45g/mx66uw1g45g.c **** {
  83              		.loc 1 87 1 is_stmt 1 view -0
ARM GAS  C:\Users\DJESSOU\AppData\Local\Temp\ccAx4BcF.s 			page 4


  84              		.cfi_startproc
  85              		@ args = 0, pretend = 0, frame = 96
  86              		@ frame_needed = 0, uses_anonymous_args = 0
  88:STM32Cube_FW_N6/Drivers/BSP/Components/mx66uw1g45g/mx66uw1g45g.c ****   XSPI_RegularCmdTypeDef s_command = {0};
  87              		.loc 1 88 3 view .LVU17
  87:STM32Cube_FW_N6/Drivers/BSP/Components/mx66uw1g45g/mx66uw1g45g.c ****   XSPI_RegularCmdTypeDef s_command = {0};
  88              		.loc 1 87 1 is_stmt 0 view .LVU18
  89 0000 70B5     		push	{r4, r5, r6, lr}
  90              		.cfi_def_cfa_offset 16
  91              		.cfi_offset 4, -16
  92              		.cfi_offset 5, -12
  93              		.cfi_offset 6, -8
  94              		.cfi_offset 14, -4
  95 0002 0D46     		mov	r5, r1
  96 0004 98B0     		sub	sp, sp, #96
  97              		.cfi_def_cfa_offset 112
  98              		.loc 1 88 26 view .LVU19
  99 0006 0021     		movs	r1, #0
 100              	.LVL3:
  87:STM32Cube_FW_N6/Drivers/BSP/Components/mx66uw1g45g/mx66uw1g45g.c ****   XSPI_RegularCmdTypeDef s_command = {0};
 101              		.loc 1 87 1 view .LVU20
 102 0008 0646     		mov	r6, r0
 103 000a 1446     		mov	r4, r2
 104              		.loc 1 88 26 view .LVU21
 105 000c 05A8     		add	r0, sp, #20
 106              	.LVL4:
 107              		.loc 1 88 26 view .LVU22
 108 000e 4C22     		movs	r2, #76
 109              	.LVL5:
 110              		.loc 1 88 26 view .LVU23
 111 0010 FFF7FEFF 		bl	memset
 112              	.LVL6:
  89:STM32Cube_FW_N6/Drivers/BSP/Components/mx66uw1g45g/mx66uw1g45g.c ****   XSPI_AutoPollingTypeDef s_config = {0};
 113              		.loc 1 89 3 is_stmt 1 view .LVU24
 114              		.loc 1 89 27 is_stmt 0 view .LVU25
 115 0014 1422     		movs	r2, #20
 116 0016 0021     		movs	r1, #0
 117 0018 6846     		mov	r0, sp
 118 001a FFF7FEFF 		bl	memset
 119              	.LVL7:
  90:STM32Cube_FW_N6/Drivers/BSP/Components/mx66uw1g45g/mx66uw1g45g.c **** 
  91:STM32Cube_FW_N6/Drivers/BSP/Components/mx66uw1g45g/mx66uw1g45g.c ****   /* SPI mode and DTR transfer not supported by memory */
  92:STM32Cube_FW_N6/Drivers/BSP/Components/mx66uw1g45g/mx66uw1g45g.c ****   if ((Mode == MX66UW1G45G_SPI_MODE) && (Rate == MX66UW1G45G_DTR_TRANSFER))
 120              		.loc 1 92 3 is_stmt 1 view .LVU26
 121              		.loc 1 92 6 is_stmt 0 view .LVU27
 122 001e 2DB9     		cbnz	r5, .L3
 123              		.loc 1 92 38 discriminator 1 view .LVU28
 124 0020 012C     		cmp	r4, #1
 125 0022 4DD1     		bne	.L14
 126              	.L13:
  93:STM32Cube_FW_N6/Drivers/BSP/Components/mx66uw1g45g/mx66uw1g45g.c ****   {
  94:STM32Cube_FW_N6/Drivers/BSP/Components/mx66uw1g45g/mx66uw1g45g.c ****     return MX66UW1G45G_ERROR;
 127              		.loc 1 94 12 view .LVU29
 128 0024 4FF0FF30 		mov	r0, #-1
 129              	.L2:
  95:STM32Cube_FW_N6/Drivers/BSP/Components/mx66uw1g45g/mx66uw1g45g.c ****   }
  96:STM32Cube_FW_N6/Drivers/BSP/Components/mx66uw1g45g/mx66uw1g45g.c **** 
ARM GAS  C:\Users\DJESSOU\AppData\Local\Temp\ccAx4BcF.s 			page 5


  97:STM32Cube_FW_N6/Drivers/BSP/Components/mx66uw1g45g/mx66uw1g45g.c ****   /* Configure automatic polling mode to wait for memory ready */
  98:STM32Cube_FW_N6/Drivers/BSP/Components/mx66uw1g45g/mx66uw1g45g.c ****   s_command.OperationType = HAL_XSPI_OPTYPE_COMMON_CFG;
  99:STM32Cube_FW_N6/Drivers/BSP/Components/mx66uw1g45g/mx66uw1g45g.c ****   s_command.InstructionMode = (Mode == MX66UW1G45G_SPI_MODE)
 100:STM32Cube_FW_N6/Drivers/BSP/Components/mx66uw1g45g/mx66uw1g45g.c ****                                   ? HAL_XSPI_INSTRUCTION_1_LINE
 101:STM32Cube_FW_N6/Drivers/BSP/Components/mx66uw1g45g/mx66uw1g45g.c ****                                   : HAL_XSPI_INSTRUCTION_8_LINES;
 102:STM32Cube_FW_N6/Drivers/BSP/Components/mx66uw1g45g/mx66uw1g45g.c ****   s_command.InstructionDTRMode = (Rate == MX66UW1G45G_DTR_TRANSFER)
 103:STM32Cube_FW_N6/Drivers/BSP/Components/mx66uw1g45g/mx66uw1g45g.c ****                                      ? HAL_XSPI_INSTRUCTION_DTR_ENABLE
 104:STM32Cube_FW_N6/Drivers/BSP/Components/mx66uw1g45g/mx66uw1g45g.c ****                                      : HAL_XSPI_INSTRUCTION_DTR_DISABLE;
 105:STM32Cube_FW_N6/Drivers/BSP/Components/mx66uw1g45g/mx66uw1g45g.c ****   s_command.InstructionWidth = (Mode == MX66UW1G45G_SPI_MODE)
 106:STM32Cube_FW_N6/Drivers/BSP/Components/mx66uw1g45g/mx66uw1g45g.c ****                                    ? HAL_XSPI_INSTRUCTION_8_BITS
 107:STM32Cube_FW_N6/Drivers/BSP/Components/mx66uw1g45g/mx66uw1g45g.c ****                                    : HAL_XSPI_INSTRUCTION_16_BITS;
 108:STM32Cube_FW_N6/Drivers/BSP/Components/mx66uw1g45g/mx66uw1g45g.c ****   s_command.Instruction = (Mode == MX66UW1G45G_SPI_MODE)
 109:STM32Cube_FW_N6/Drivers/BSP/Components/mx66uw1g45g/mx66uw1g45g.c ****                               ? MX66UW1G45G_READ_STATUS_REG_CMD
 110:STM32Cube_FW_N6/Drivers/BSP/Components/mx66uw1g45g/mx66uw1g45g.c ****                               : MX66UW1G45G_OCTA_READ_STATUS_REG_CMD;
 111:STM32Cube_FW_N6/Drivers/BSP/Components/mx66uw1g45g/mx66uw1g45g.c ****   s_command.AddressMode = (Mode == MX66UW1G45G_SPI_MODE) ? HAL_XSPI_ADDRESS_NONE : HAL_XSPI_ADDRESS
 112:STM32Cube_FW_N6/Drivers/BSP/Components/mx66uw1g45g/mx66uw1g45g.c ****   s_command.AddressDTRMode = (Rate == MX66UW1G45G_DTR_TRANSFER)
 113:STM32Cube_FW_N6/Drivers/BSP/Components/mx66uw1g45g/mx66uw1g45g.c ****                                  ? HAL_XSPI_ADDRESS_DTR_ENABLE
 114:STM32Cube_FW_N6/Drivers/BSP/Components/mx66uw1g45g/mx66uw1g45g.c ****                                  : HAL_XSPI_ADDRESS_DTR_DISABLE;
 115:STM32Cube_FW_N6/Drivers/BSP/Components/mx66uw1g45g/mx66uw1g45g.c ****   s_command.AddressWidth = HAL_XSPI_ADDRESS_32_BITS;
 116:STM32Cube_FW_N6/Drivers/BSP/Components/mx66uw1g45g/mx66uw1g45g.c ****   s_command.Address = 0U;
 117:STM32Cube_FW_N6/Drivers/BSP/Components/mx66uw1g45g/mx66uw1g45g.c ****   s_command.AlternateBytesMode = HAL_XSPI_ALT_BYTES_NONE;
 118:STM32Cube_FW_N6/Drivers/BSP/Components/mx66uw1g45g/mx66uw1g45g.c ****   s_command.DataMode = (Mode == MX66UW1G45G_SPI_MODE) ? HAL_XSPI_DATA_1_LINE : HAL_XSPI_DATA_8_LINE
 119:STM32Cube_FW_N6/Drivers/BSP/Components/mx66uw1g45g/mx66uw1g45g.c ****   s_command.DataDTRMode = (Rate == MX66UW1G45G_DTR_TRANSFER)
 120:STM32Cube_FW_N6/Drivers/BSP/Components/mx66uw1g45g/mx66uw1g45g.c ****                               ? HAL_XSPI_DATA_DTR_ENABLE
 121:STM32Cube_FW_N6/Drivers/BSP/Components/mx66uw1g45g/mx66uw1g45g.c ****                               : HAL_XSPI_DATA_DTR_DISABLE;
 122:STM32Cube_FW_N6/Drivers/BSP/Components/mx66uw1g45g/mx66uw1g45g.c ****   s_command.DummyCycles = (Mode == MX66UW1G45G_SPI_MODE)
 123:STM32Cube_FW_N6/Drivers/BSP/Components/mx66uw1g45g/mx66uw1g45g.c ****                               ? 0U
 124:STM32Cube_FW_N6/Drivers/BSP/Components/mx66uw1g45g/mx66uw1g45g.c ****                               : ((Rate == MX66UW1G45G_DTR_TRANSFER)
 125:STM32Cube_FW_N6/Drivers/BSP/Components/mx66uw1g45g/mx66uw1g45g.c ****                                      ? DUMMY_CYCLES_REG_OCTAL_DTR
 126:STM32Cube_FW_N6/Drivers/BSP/Components/mx66uw1g45g/mx66uw1g45g.c ****                                      : DUMMY_CYCLES_REG_OCTAL);
 127:STM32Cube_FW_N6/Drivers/BSP/Components/mx66uw1g45g/mx66uw1g45g.c ****   s_command.DataLength = (Rate == MX66UW1G45G_DTR_TRANSFER) ? 2U : 1U;
 128:STM32Cube_FW_N6/Drivers/BSP/Components/mx66uw1g45g/mx66uw1g45g.c ****   s_command.DQSMode = (Rate == MX66UW1G45G_DTR_TRANSFER) ? HAL_XSPI_DQS_ENABLE : HAL_XSPI_DQS_DISAB
 129:STM32Cube_FW_N6/Drivers/BSP/Components/mx66uw1g45g/mx66uw1g45g.c ****  #if defined (XSPI_CCR_SIOO)
 130:STM32Cube_FW_N6/Drivers/BSP/Components/mx66uw1g45g/mx66uw1g45g.c ****   s_command.SIOOMode            = HAL_XSPI_SIOO_INST_EVERY_CMD;
 131:STM32Cube_FW_N6/Drivers/BSP/Components/mx66uw1g45g/mx66uw1g45g.c ****  #endif
 132:STM32Cube_FW_N6/Drivers/BSP/Components/mx66uw1g45g/mx66uw1g45g.c **** 
 133:STM32Cube_FW_N6/Drivers/BSP/Components/mx66uw1g45g/mx66uw1g45g.c ****   s_config.MatchValue = 0U;
 134:STM32Cube_FW_N6/Drivers/BSP/Components/mx66uw1g45g/mx66uw1g45g.c ****   s_config.MatchMask = MX66UW1G45G_SR_WIP;
 135:STM32Cube_FW_N6/Drivers/BSP/Components/mx66uw1g45g/mx66uw1g45g.c ****   s_config.MatchMode = HAL_XSPI_MATCH_MODE_AND;
 136:STM32Cube_FW_N6/Drivers/BSP/Components/mx66uw1g45g/mx66uw1g45g.c ****   s_config.IntervalTime = MX66UW1G45G_AUTOPOLLING_INTERVAL_TIME;
 137:STM32Cube_FW_N6/Drivers/BSP/Components/mx66uw1g45g/mx66uw1g45g.c ****   s_config.AutomaticStop = HAL_XSPI_AUTOMATIC_STOP_ENABLE;
 138:STM32Cube_FW_N6/Drivers/BSP/Components/mx66uw1g45g/mx66uw1g45g.c **** 
 139:STM32Cube_FW_N6/Drivers/BSP/Components/mx66uw1g45g/mx66uw1g45g.c ****   if (HAL_XSPI_Command(Ctx, &s_command, HAL_XSPI_TIMEOUT_DEFAULT_VALUE) != HAL_OK)
 140:STM32Cube_FW_N6/Drivers/BSP/Components/mx66uw1g45g/mx66uw1g45g.c ****   {
 141:STM32Cube_FW_N6/Drivers/BSP/Components/mx66uw1g45g/mx66uw1g45g.c ****     return MX66UW1G45G_ERROR;
 142:STM32Cube_FW_N6/Drivers/BSP/Components/mx66uw1g45g/mx66uw1g45g.c ****   }
 143:STM32Cube_FW_N6/Drivers/BSP/Components/mx66uw1g45g/mx66uw1g45g.c **** 
 144:STM32Cube_FW_N6/Drivers/BSP/Components/mx66uw1g45g/mx66uw1g45g.c ****   if (HAL_XSPI_AutoPolling(Ctx, &s_config, HAL_XSPI_TIMEOUT_DEFAULT_VALUE) != HAL_OK)
 145:STM32Cube_FW_N6/Drivers/BSP/Components/mx66uw1g45g/mx66uw1g45g.c ****   {
 146:STM32Cube_FW_N6/Drivers/BSP/Components/mx66uw1g45g/mx66uw1g45g.c ****     return MX66UW1G45G_ERROR;
 147:STM32Cube_FW_N6/Drivers/BSP/Components/mx66uw1g45g/mx66uw1g45g.c ****   }
 148:STM32Cube_FW_N6/Drivers/BSP/Components/mx66uw1g45g/mx66uw1g45g.c **** 
 149:STM32Cube_FW_N6/Drivers/BSP/Components/mx66uw1g45g/mx66uw1g45g.c ****   return MX66UW1G45G_OK;
 150:STM32Cube_FW_N6/Drivers/BSP/Components/mx66uw1g45g/mx66uw1g45g.c **** }
 130              		.loc 1 150 1 view .LVU30
 131 0028 18B0     		add	sp, sp, #96
 132              		.cfi_remember_state
ARM GAS  C:\Users\DJESSOU\AppData\Local\Temp\ccAx4BcF.s 			page 6


 133              		.cfi_def_cfa_offset 16
 134              		@ sp needed
 135 002a 70BD     		pop	{r4, r5, r6, pc}
 136              	.LVL8:
 137              	.L3:
 138              		.cfi_restore_state
 102:STM32Cube_FW_N6/Drivers/BSP/Components/mx66uw1g45g/mx66uw1g45g.c ****                                      ? HAL_XSPI_INSTRUCTION_DTR_ENABLE
 139              		.loc 1 102 3 is_stmt 1 view .LVU31
 140 002c 0422     		movs	r2, #4
 104:STM32Cube_FW_N6/Drivers/BSP/Components/mx66uw1g45g/mx66uw1g45g.c ****   s_command.InstructionWidth = (Mode == MX66UW1G45G_SPI_MODE)
 141              		.loc 1 104 38 is_stmt 0 view .LVU32
 142 002e 04F1FF3C 		add	ip, r4, #-1
 143 0032 DCF10003 		rsbs	r3, ip, #0
 144 0036 43EB0C03 		adc	r3, r3, ip
 145 003a DB00     		lsls	r3, r3, #3
 146              	.L4:
  99:STM32Cube_FW_N6/Drivers/BSP/Components/mx66uw1g45g/mx66uw1g45g.c ****                                   ? HAL_XSPI_INSTRUCTION_1_LINE
 147              		.loc 1 99 29 view .LVU33
 148 003c 0892     		str	r2, [sp, #32]
 102:STM32Cube_FW_N6/Drivers/BSP/Components/mx66uw1g45g/mx66uw1g45g.c ****                                      ? HAL_XSPI_INSTRUCTION_DTR_ENABLE
 149              		.loc 1 102 32 view .LVU34
 150 003e 0A93     		str	r3, [sp, #40]
 105:STM32Cube_FW_N6/Drivers/BSP/Components/mx66uw1g45g/mx66uw1g45g.c ****                                    ? HAL_XSPI_INSTRUCTION_8_BITS
 151              		.loc 1 105 3 is_stmt 1 view .LVU35
 107:STM32Cube_FW_N6/Drivers/BSP/Components/mx66uw1g45g/mx66uw1g45g.c ****   s_command.Instruction = (Mode == MX66UW1G45G_SPI_MODE)
 152              		.loc 1 107 36 is_stmt 0 view .LVU36
 153 0040 002D     		cmp	r5, #0
 154 0042 40D0     		beq	.L15
 105:STM32Cube_FW_N6/Drivers/BSP/Components/mx66uw1g45g/mx66uw1g45g.c ****                                    ? HAL_XSPI_INSTRUCTION_8_BITS
 155              		.loc 1 105 30 view .LVU37
 156 0044 1023     		movs	r3, #16
 157 0046 40F2FA52 		movw	r2, #1530
 158 004a 0993     		str	r3, [sp, #36]
 108:STM32Cube_FW_N6/Drivers/BSP/Components/mx66uw1g45g/mx66uw1g45g.c ****                               ? MX66UW1G45G_READ_STATUS_REG_CMD
 159              		.loc 1 108 3 is_stmt 1 view .LVU38
 111:STM32Cube_FW_N6/Drivers/BSP/Components/mx66uw1g45g/mx66uw1g45g.c ****   s_command.AddressDTRMode = (Rate == MX66UW1G45G_DTR_TRANSFER)
 160              		.loc 1 111 3 view .LVU39
 111:STM32Cube_FW_N6/Drivers/BSP/Components/mx66uw1g45g/mx66uw1g45g.c ****   s_command.AddressDTRMode = (Rate == MX66UW1G45G_DTR_TRANSFER)
 161              		.loc 1 111 82 is_stmt 0 discriminator 2 view .LVU40
 162 004c 4FF48063 		mov	r3, #1024
 163              	.L6:
 114:STM32Cube_FW_N6/Drivers/BSP/Components/mx66uw1g45g/mx66uw1g45g.c ****   s_command.AddressWidth = HAL_XSPI_ADDRESS_32_BITS;
 164              		.loc 1 114 34 view .LVU41
 165 0050 601E     		subs	r0, r4, #1
 111:STM32Cube_FW_N6/Drivers/BSP/Components/mx66uw1g45g/mx66uw1g45g.c ****   s_command.AddressDTRMode = (Rate == MX66UW1G45G_DTR_TRANSFER)
 166              		.loc 1 111 25 discriminator 4 view .LVU42
 167 0052 0C93     		str	r3, [sp, #48]
 112:STM32Cube_FW_N6/Drivers/BSP/Components/mx66uw1g45g/mx66uw1g45g.c ****                                  ? HAL_XSPI_ADDRESS_DTR_ENABLE
 168              		.loc 1 112 3 is_stmt 1 view .LVU43
 114:STM32Cube_FW_N6/Drivers/BSP/Components/mx66uw1g45g/mx66uw1g45g.c ****   s_command.AddressWidth = HAL_XSPI_ADDRESS_32_BITS;
 169              		.loc 1 114 34 is_stmt 0 view .LVU44
 170 0054 4342     		rsbs	r3, r0, #0
 171 0056 4341     		adcs	r3, r3, r0
 108:STM32Cube_FW_N6/Drivers/BSP/Components/mx66uw1g45g/mx66uw1g45g.c ****                               ? MX66UW1G45G_READ_STATUS_REG_CMD
 172              		.loc 1 108 25 view .LVU45
 173 0058 0792     		str	r2, [sp, #28]
 114:STM32Cube_FW_N6/Drivers/BSP/Components/mx66uw1g45g/mx66uw1g45g.c ****   s_command.AddressWidth = HAL_XSPI_ADDRESS_32_BITS;
ARM GAS  C:\Users\DJESSOU\AppData\Local\Temp\ccAx4BcF.s 			page 7


 174              		.loc 1 114 34 view .LVU46
 175 005a DA02     		lsls	r2, r3, #11
 112:STM32Cube_FW_N6/Drivers/BSP/Components/mx66uw1g45g/mx66uw1g45g.c ****                                  ? HAL_XSPI_ADDRESS_DTR_ENABLE
 176              		.loc 1 112 28 view .LVU47
 177 005c 0E92     		str	r2, [sp, #56]
 115:STM32Cube_FW_N6/Drivers/BSP/Components/mx66uw1g45g/mx66uw1g45g.c ****   s_command.Address = 0U;
 178              		.loc 1 115 3 is_stmt 1 view .LVU48
 115:STM32Cube_FW_N6/Drivers/BSP/Components/mx66uw1g45g/mx66uw1g45g.c ****   s_command.Address = 0U;
 179              		.loc 1 115 26 is_stmt 0 view .LVU49
 180 005e 4FF44052 		mov	r2, #12288
 118:STM32Cube_FW_N6/Drivers/BSP/Components/mx66uw1g45g/mx66uw1g45g.c ****   s_command.DataDTRMode = (Rate == MX66UW1G45G_DTR_TRANSFER)
 181              		.loc 1 118 78 discriminator 1 view .LVU50
 182 0062 002D     		cmp	r5, #0
 115:STM32Cube_FW_N6/Drivers/BSP/Components/mx66uw1g45g/mx66uw1g45g.c ****   s_command.Address = 0U;
 183              		.loc 1 115 26 view .LVU51
 184 0064 0D92     		str	r2, [sp, #52]
 116:STM32Cube_FW_N6/Drivers/BSP/Components/mx66uw1g45g/mx66uw1g45g.c ****   s_command.AlternateBytesMode = HAL_XSPI_ALT_BYTES_NONE;
 185              		.loc 1 116 3 is_stmt 1 view .LVU52
 117:STM32Cube_FW_N6/Drivers/BSP/Components/mx66uw1g45g/mx66uw1g45g.c ****   s_command.DataMode = (Mode == MX66UW1G45G_SPI_MODE) ? HAL_XSPI_DATA_1_LINE : HAL_XSPI_DATA_8_LINE
 186              		.loc 1 117 3 view .LVU53
 118:STM32Cube_FW_N6/Drivers/BSP/Components/mx66uw1g45g/mx66uw1g45g.c ****   s_command.DataDTRMode = (Rate == MX66UW1G45G_DTR_TRANSFER)
 187              		.loc 1 118 3 view .LVU54
 118:STM32Cube_FW_N6/Drivers/BSP/Components/mx66uw1g45g/mx66uw1g45g.c ****   s_command.DataDTRMode = (Rate == MX66UW1G45G_DTR_TRANSFER)
 188              		.loc 1 118 78 is_stmt 0 discriminator 1 view .LVU55
 189 0066 14BF     		ite	ne
 190 0068 4FF08062 		movne	r2, #67108864
 191 006c 4FF08072 		moveq	r2, #16777216
 121:STM32Cube_FW_N6/Drivers/BSP/Components/mx66uw1g45g/mx66uw1g45g.c ****   s_command.DummyCycles = (Mode == MX66UW1G45G_SPI_MODE)
 192              		.loc 1 121 31 view .LVU56
 193 0070 4FEAC363 		lsl	r3, r3, #27
 118:STM32Cube_FW_N6/Drivers/BSP/Components/mx66uw1g45g/mx66uw1g45g.c ****   s_command.DataDTRMode = (Rate == MX66UW1G45G_DTR_TRANSFER)
 194              		.loc 1 118 22 discriminator 4 view .LVU57
 195 0074 1392     		str	r2, [sp, #76]
 119:STM32Cube_FW_N6/Drivers/BSP/Components/mx66uw1g45g/mx66uw1g45g.c ****                               ? HAL_XSPI_DATA_DTR_ENABLE
 196              		.loc 1 119 3 is_stmt 1 view .LVU58
 119:STM32Cube_FW_N6/Drivers/BSP/Components/mx66uw1g45g/mx66uw1g45g.c ****                               ? HAL_XSPI_DATA_DTR_ENABLE
 197              		.loc 1 119 25 is_stmt 0 view .LVU59
 198 0076 1593     		str	r3, [sp, #84]
 122:STM32Cube_FW_N6/Drivers/BSP/Components/mx66uw1g45g/mx66uw1g45g.c ****                               ? 0U
 199              		.loc 1 122 3 is_stmt 1 view .LVU60
 124:STM32Cube_FW_N6/Drivers/BSP/Components/mx66uw1g45g/mx66uw1g45g.c ****                                      ? DUMMY_CYCLES_REG_OCTAL_DTR
 200              		.loc 1 124 31 is_stmt 0 view .LVU61
 201 0078 2DD0     		beq	.L8
 124:STM32Cube_FW_N6/Drivers/BSP/Components/mx66uw1g45g/mx66uw1g45g.c ****                                      ? DUMMY_CYCLES_REG_OCTAL_DTR
 202              		.loc 1 124 31 discriminator 1 view .LVU62
 203 007a 012C     		cmp	r4, #1
 204 007c 26D1     		bne	.L9
 122:STM32Cube_FW_N6/Drivers/BSP/Components/mx66uw1g45g/mx66uw1g45g.c ****                               ? 0U
 205              		.loc 1 122 25 view .LVU63
 206 007e 0523     		movs	r3, #5
 207 0080 1693     		str	r3, [sp, #88]
 127:STM32Cube_FW_N6/Drivers/BSP/Components/mx66uw1g45g/mx66uw1g45g.c ****   s_command.DQSMode = (Rate == MX66UW1G45G_DTR_TRANSFER) ? HAL_XSPI_DQS_ENABLE : HAL_XSPI_DQS_DISAB
 208              		.loc 1 127 3 is_stmt 1 view .LVU64
 209              	.L11:
 127:STM32Cube_FW_N6/Drivers/BSP/Components/mx66uw1g45g/mx66uw1g45g.c ****   s_command.DQSMode = (Rate == MX66UW1G45G_DTR_TRANSFER) ? HAL_XSPI_DQS_ENABLE : HAL_XSPI_DQS_DISAB
 210              		.loc 1 127 24 is_stmt 0 discriminator 4 view .LVU65
 211 0082 0222     		movs	r2, #2
ARM GAS  C:\Users\DJESSOU\AppData\Local\Temp\ccAx4BcF.s 			page 8


 128:STM32Cube_FW_N6/Drivers/BSP/Components/mx66uw1g45g/mx66uw1g45g.c ****  #if defined (XSPI_CCR_SIOO)
 212              		.loc 1 128 80 discriminator 1 view .LVU66
 213 0084 4FF00053 		mov	r3, #536870912
 214              	.L10:
 128:STM32Cube_FW_N6/Drivers/BSP/Components/mx66uw1g45g/mx66uw1g45g.c ****  #if defined (XSPI_CCR_SIOO)
 215              		.loc 1 128 21 discriminator 4 view .LVU67
 216 0088 1793     		str	r3, [sp, #92]
 133:STM32Cube_FW_N6/Drivers/BSP/Components/mx66uw1g45g/mx66uw1g45g.c ****   s_config.MatchMask = MX66UW1G45G_SR_WIP;
 217              		.loc 1 133 3 is_stmt 1 view .LVU68
 134:STM32Cube_FW_N6/Drivers/BSP/Components/mx66uw1g45g/mx66uw1g45g.c ****   s_config.MatchMode = HAL_XSPI_MATCH_MODE_AND;
 218              		.loc 1 134 3 view .LVU69
 134:STM32Cube_FW_N6/Drivers/BSP/Components/mx66uw1g45g/mx66uw1g45g.c ****   s_config.MatchMode = HAL_XSPI_MATCH_MODE_AND;
 219              		.loc 1 134 22 is_stmt 0 view .LVU70
 220 008a 0123     		movs	r3, #1
 137:STM32Cube_FW_N6/Drivers/BSP/Components/mx66uw1g45g/mx66uw1g45g.c **** 
 221              		.loc 1 137 26 view .LVU71
 222 008c 1021     		movs	r1, #16
 134:STM32Cube_FW_N6/Drivers/BSP/Components/mx66uw1g45g/mx66uw1g45g.c ****   s_config.MatchMode = HAL_XSPI_MATCH_MODE_AND;
 223              		.loc 1 134 22 view .LVU72
 224 008e 0193     		str	r3, [sp, #4]
 135:STM32Cube_FW_N6/Drivers/BSP/Components/mx66uw1g45g/mx66uw1g45g.c ****   s_config.IntervalTime = MX66UW1G45G_AUTOPOLLING_INTERVAL_TIME;
 225              		.loc 1 135 3 is_stmt 1 view .LVU73
 136:STM32Cube_FW_N6/Drivers/BSP/Components/mx66uw1g45g/mx66uw1g45g.c ****   s_config.AutomaticStop = HAL_XSPI_AUTOMATIC_STOP_ENABLE;
 226              		.loc 1 136 3 view .LVU74
 137:STM32Cube_FW_N6/Drivers/BSP/Components/mx66uw1g45g/mx66uw1g45g.c **** 
 227              		.loc 1 137 26 is_stmt 0 view .LVU75
 228 0090 4FF48003 		mov	r3, #4194304
 229 0094 1492     		str	r2, [sp, #80]
 230 0096 CDE90331 		strd	r3, r1, [sp, #12]
 139:STM32Cube_FW_N6/Drivers/BSP/Components/mx66uw1g45g/mx66uw1g45g.c ****   {
 231              		.loc 1 139 3 is_stmt 1 view .LVU76
 139:STM32Cube_FW_N6/Drivers/BSP/Components/mx66uw1g45g/mx66uw1g45g.c ****   {
 232              		.loc 1 139 7 is_stmt 0 view .LVU77
 233 009a 41F28832 		movw	r2, #5000
 234 009e 3046     		mov	r0, r6
 235 00a0 05A9     		add	r1, sp, #20
 236 00a2 FFF7FEFF 		bl	HAL_XSPI_Command
 237              	.LVL9:
 139:STM32Cube_FW_N6/Drivers/BSP/Components/mx66uw1g45g/mx66uw1g45g.c ****   {
 238              		.loc 1 139 6 discriminator 1 view .LVU78
 239 00a6 0028     		cmp	r0, #0
 240 00a8 BCD1     		bne	.L13
 144:STM32Cube_FW_N6/Drivers/BSP/Components/mx66uw1g45g/mx66uw1g45g.c ****   {
 241              		.loc 1 144 3 is_stmt 1 view .LVU79
 144:STM32Cube_FW_N6/Drivers/BSP/Components/mx66uw1g45g/mx66uw1g45g.c ****   {
 242              		.loc 1 144 7 is_stmt 0 view .LVU80
 243 00aa 41F28832 		movw	r2, #5000
 244 00ae 6946     		mov	r1, sp
 245 00b0 3046     		mov	r0, r6
 246 00b2 FFF7FEFF 		bl	HAL_XSPI_AutoPolling
 247              	.LVL10:
 144:STM32Cube_FW_N6/Drivers/BSP/Components/mx66uw1g45g/mx66uw1g45g.c ****   {
 248              		.loc 1 144 6 discriminator 1 view .LVU81
 249 00b6 0038     		subs	r0, r0, #0
 250 00b8 18BF     		it	ne
 251 00ba 0120     		movne	r0, #1
 252 00bc 4042     		rsbs	r0, r0, #0
ARM GAS  C:\Users\DJESSOU\AppData\Local\Temp\ccAx4BcF.s 			page 9


 253 00be B3E7     		b	.L2
 254              	.L14:
 144:STM32Cube_FW_N6/Drivers/BSP/Components/mx66uw1g45g/mx66uw1g45g.c ****   {
 255              		.loc 1 144 6 discriminator 1 view .LVU82
 256 00c0 0122     		movs	r2, #1
 104:STM32Cube_FW_N6/Drivers/BSP/Components/mx66uw1g45g/mx66uw1g45g.c ****   s_command.InstructionWidth = (Mode == MX66UW1G45G_SPI_MODE)
 257              		.loc 1 104 38 discriminator 2 view .LVU83
 258 00c2 2B46     		mov	r3, r5
 259 00c4 BAE7     		b	.L4
 260              	.L15:
 261 00c6 0522     		movs	r2, #5
 111:STM32Cube_FW_N6/Drivers/BSP/Components/mx66uw1g45g/mx66uw1g45g.c ****   s_command.AddressDTRMode = (Rate == MX66UW1G45G_DTR_TRANSFER)
 262              		.loc 1 111 82 discriminator 1 view .LVU84
 263 00c8 2B46     		mov	r3, r5
 264 00ca C1E7     		b	.L6
 265              	.L9:
 122:STM32Cube_FW_N6/Drivers/BSP/Components/mx66uw1g45g/mx66uw1g45g.c ****                               ? 0U
 266              		.loc 1 122 25 view .LVU85
 267 00cc 0423     		movs	r3, #4
 268 00ce 1693     		str	r3, [sp, #88]
 127:STM32Cube_FW_N6/Drivers/BSP/Components/mx66uw1g45g/mx66uw1g45g.c ****   s_command.DQSMode = (Rate == MX66UW1G45G_DTR_TRANSFER) ? HAL_XSPI_DQS_ENABLE : HAL_XSPI_DQS_DISAB
 269              		.loc 1 127 3 is_stmt 1 view .LVU86
 270              	.L12:
 127:STM32Cube_FW_N6/Drivers/BSP/Components/mx66uw1g45g/mx66uw1g45g.c ****   s_command.DQSMode = (Rate == MX66UW1G45G_DTR_TRANSFER) ? HAL_XSPI_DQS_ENABLE : HAL_XSPI_DQS_DISAB
 271              		.loc 1 127 24 is_stmt 0 discriminator 4 view .LVU87
 272 00d0 0122     		movs	r2, #1
 128:STM32Cube_FW_N6/Drivers/BSP/Components/mx66uw1g45g/mx66uw1g45g.c ****  #if defined (XSPI_CCR_SIOO)
 273              		.loc 1 128 80 discriminator 2 view .LVU88
 274 00d2 0023     		movs	r3, #0
 275 00d4 D8E7     		b	.L10
 276              	.L8:
 127:STM32Cube_FW_N6/Drivers/BSP/Components/mx66uw1g45g/mx66uw1g45g.c ****   s_command.DQSMode = (Rate == MX66UW1G45G_DTR_TRANSFER) ? HAL_XSPI_DQS_ENABLE : HAL_XSPI_DQS_DISAB
 277              		.loc 1 127 3 is_stmt 1 view .LVU89
 127:STM32Cube_FW_N6/Drivers/BSP/Components/mx66uw1g45g/mx66uw1g45g.c ****   s_command.DQSMode = (Rate == MX66UW1G45G_DTR_TRANSFER) ? HAL_XSPI_DQS_ENABLE : HAL_XSPI_DQS_DISAB
 278              		.loc 1 127 66 is_stmt 0 view .LVU90
 279 00d6 012C     		cmp	r4, #1
 280 00d8 FAD1     		bne	.L12
 281 00da D2E7     		b	.L11
 282              		.cfi_endproc
 283              	.LFE863:
 285              		.section	.text.MX66UW1G45G_ReadSTR,"ax",%progbits
 286              		.align	1
 287              		.global	MX66UW1G45G_ReadSTR
 288              		.syntax unified
 289              		.thumb
 290              		.thumb_func
 292              	MX66UW1G45G_ReadSTR:
 293              	.LVL11:
 294              	.LFB864:
 151:STM32Cube_FW_N6/Drivers/BSP/Components/mx66uw1g45g/mx66uw1g45g.c **** 
 152:STM32Cube_FW_N6/Drivers/BSP/Components/mx66uw1g45g/mx66uw1g45g.c **** /* Read/Write Array Commands (3/4 Byte Address Command Set) *********************/
 153:STM32Cube_FW_N6/Drivers/BSP/Components/mx66uw1g45g/mx66uw1g45g.c **** /**
 154:STM32Cube_FW_N6/Drivers/BSP/Components/mx66uw1g45g/mx66uw1g45g.c ****   * @brief  Reads an amount of data from the XSPI memory on STR mode.
 155:STM32Cube_FW_N6/Drivers/BSP/Components/mx66uw1g45g/mx66uw1g45g.c ****   *         SPI/OPI; 1-1-1/8-8-8
 156:STM32Cube_FW_N6/Drivers/BSP/Components/mx66uw1g45g/mx66uw1g45g.c ****   * @param  Ctx Component object pointer
 157:STM32Cube_FW_N6/Drivers/BSP/Components/mx66uw1g45g/mx66uw1g45g.c ****   * @param  Mode Interface mode
 158:STM32Cube_FW_N6/Drivers/BSP/Components/mx66uw1g45g/mx66uw1g45g.c ****   * @param  AddressWidth Address size
ARM GAS  C:\Users\DJESSOU\AppData\Local\Temp\ccAx4BcF.s 			page 10


 159:STM32Cube_FW_N6/Drivers/BSP/Components/mx66uw1g45g/mx66uw1g45g.c ****   * @param  pData Pointer to data to be read
 160:STM32Cube_FW_N6/Drivers/BSP/Components/mx66uw1g45g/mx66uw1g45g.c ****   * @param  ReadAddr Read start address
 161:STM32Cube_FW_N6/Drivers/BSP/Components/mx66uw1g45g/mx66uw1g45g.c ****   * @param  Size Size of data to read
 162:STM32Cube_FW_N6/Drivers/BSP/Components/mx66uw1g45g/mx66uw1g45g.c ****   * @retval XSPI memory status
 163:STM32Cube_FW_N6/Drivers/BSP/Components/mx66uw1g45g/mx66uw1g45g.c ****   */
 164:STM32Cube_FW_N6/Drivers/BSP/Components/mx66uw1g45g/mx66uw1g45g.c **** int32_t MX66UW1G45G_ReadSTR(XSPI_HandleTypeDef *Ctx, MX66UW1G45G_Interface_t Mode,
 165:STM32Cube_FW_N6/Drivers/BSP/Components/mx66uw1g45g/mx66uw1g45g.c ****                             MX66UW1G45G_AddressWidth_t AddressWidth, uint8_t *pData, uint32_t ReadA
 166:STM32Cube_FW_N6/Drivers/BSP/Components/mx66uw1g45g/mx66uw1g45g.c **** {
 295              		.loc 1 166 1 is_stmt 1 view -0
 296              		.cfi_startproc
 297              		@ args = 8, pretend = 0, frame = 80
 298              		@ frame_needed = 0, uses_anonymous_args = 0
 167:STM32Cube_FW_N6/Drivers/BSP/Components/mx66uw1g45g/mx66uw1g45g.c ****   XSPI_RegularCmdTypeDef s_command = {0};
 299              		.loc 1 167 3 view .LVU92
 166:STM32Cube_FW_N6/Drivers/BSP/Components/mx66uw1g45g/mx66uw1g45g.c ****   XSPI_RegularCmdTypeDef s_command = {0};
 300              		.loc 1 166 1 is_stmt 0 view .LVU93
 301 0000 F0B5     		push	{r4, r5, r6, r7, lr}
 302              		.cfi_def_cfa_offset 20
 303              		.cfi_offset 4, -20
 304              		.cfi_offset 5, -16
 305              		.cfi_offset 6, -12
 306              		.cfi_offset 7, -8
 307              		.cfi_offset 14, -4
 308 0002 0C46     		mov	r4, r1
 309 0004 95B0     		sub	sp, sp, #84
 310              		.cfi_def_cfa_offset 104
 166:STM32Cube_FW_N6/Drivers/BSP/Components/mx66uw1g45g/mx66uw1g45g.c ****   XSPI_RegularCmdTypeDef s_command = {0};
 311              		.loc 1 166 1 view .LVU94
 312 0006 0646     		mov	r6, r0
 313 0008 1546     		mov	r5, r2
 314              		.loc 1 167 26 view .LVU95
 315 000a 0021     		movs	r1, #0
 316              	.LVL12:
 317              		.loc 1 167 26 view .LVU96
 318 000c 4C22     		movs	r2, #76
 319              	.LVL13:
 320              		.loc 1 167 26 view .LVU97
 321 000e 01A8     		add	r0, sp, #4
 322              	.LVL14:
 166:STM32Cube_FW_N6/Drivers/BSP/Components/mx66uw1g45g/mx66uw1g45g.c ****   XSPI_RegularCmdTypeDef s_command = {0};
 323              		.loc 1 166 1 view .LVU98
 324 0010 1F46     		mov	r7, r3
 325              		.loc 1 167 26 view .LVU99
 326 0012 FFF7FEFF 		bl	memset
 327              	.LVL15:
 168:STM32Cube_FW_N6/Drivers/BSP/Components/mx66uw1g45g/mx66uw1g45g.c **** 
 169:STM32Cube_FW_N6/Drivers/BSP/Components/mx66uw1g45g/mx66uw1g45g.c ****   /* OPI mode and 3-bytes address size not supported by memory */
 170:STM32Cube_FW_N6/Drivers/BSP/Components/mx66uw1g45g/mx66uw1g45g.c ****   if ((Mode == MX66UW1G45G_OPI_MODE) && (AddressWidth == MX66UW1G45G_3BYTES_SIZE))
 328              		.loc 1 170 3 is_stmt 1 view .LVU100
 329              		.loc 1 170 6 is_stmt 0 view .LVU101
 330 0016 012C     		cmp	r4, #1
 331 0018 04D1     		bne	.L21
 332              		.loc 1 170 38 discriminator 1 view .LVU102
 333 001a 2DB9     		cbnz	r5, .L22
 334              	.L29:
 171:STM32Cube_FW_N6/Drivers/BSP/Components/mx66uw1g45g/mx66uw1g45g.c ****   {
 172:STM32Cube_FW_N6/Drivers/BSP/Components/mx66uw1g45g/mx66uw1g45g.c ****     return MX66UW1G45G_ERROR;
ARM GAS  C:\Users\DJESSOU\AppData\Local\Temp\ccAx4BcF.s 			page 11


 335              		.loc 1 172 12 view .LVU103
 336 001c 4FF0FF30 		mov	r0, #-1
 337              	.L20:
 173:STM32Cube_FW_N6/Drivers/BSP/Components/mx66uw1g45g/mx66uw1g45g.c ****   }
 174:STM32Cube_FW_N6/Drivers/BSP/Components/mx66uw1g45g/mx66uw1g45g.c **** 
 175:STM32Cube_FW_N6/Drivers/BSP/Components/mx66uw1g45g/mx66uw1g45g.c ****   /* Initialize the read command */
 176:STM32Cube_FW_N6/Drivers/BSP/Components/mx66uw1g45g/mx66uw1g45g.c ****   s_command.OperationType = HAL_XSPI_OPTYPE_COMMON_CFG;
 177:STM32Cube_FW_N6/Drivers/BSP/Components/mx66uw1g45g/mx66uw1g45g.c ****   s_command.InstructionMode = (Mode == MX66UW1G45G_SPI_MODE)
 178:STM32Cube_FW_N6/Drivers/BSP/Components/mx66uw1g45g/mx66uw1g45g.c ****                                   ? HAL_XSPI_INSTRUCTION_1_LINE
 179:STM32Cube_FW_N6/Drivers/BSP/Components/mx66uw1g45g/mx66uw1g45g.c ****                                   : HAL_XSPI_INSTRUCTION_8_LINES;
 180:STM32Cube_FW_N6/Drivers/BSP/Components/mx66uw1g45g/mx66uw1g45g.c ****   s_command.InstructionDTRMode = HAL_XSPI_INSTRUCTION_DTR_DISABLE;
 181:STM32Cube_FW_N6/Drivers/BSP/Components/mx66uw1g45g/mx66uw1g45g.c ****   s_command.InstructionWidth = (Mode == MX66UW1G45G_SPI_MODE)
 182:STM32Cube_FW_N6/Drivers/BSP/Components/mx66uw1g45g/mx66uw1g45g.c ****                                    ? HAL_XSPI_INSTRUCTION_8_BITS
 183:STM32Cube_FW_N6/Drivers/BSP/Components/mx66uw1g45g/mx66uw1g45g.c ****                                    : HAL_XSPI_INSTRUCTION_16_BITS;
 184:STM32Cube_FW_N6/Drivers/BSP/Components/mx66uw1g45g/mx66uw1g45g.c ****   s_command.Instruction = (Mode == MX66UW1G45G_SPI_MODE)
 185:STM32Cube_FW_N6/Drivers/BSP/Components/mx66uw1g45g/mx66uw1g45g.c ****                               ? ((AddressWidth == MX66UW1G45G_3BYTES_SIZE)
 186:STM32Cube_FW_N6/Drivers/BSP/Components/mx66uw1g45g/mx66uw1g45g.c ****                                      ? MX66UW1G45G_FAST_READ_CMD
 187:STM32Cube_FW_N6/Drivers/BSP/Components/mx66uw1g45g/mx66uw1g45g.c ****                                      : MX66UW1G45G_4_BYTE_ADDR_FAST_READ_CMD)
 188:STM32Cube_FW_N6/Drivers/BSP/Components/mx66uw1g45g/mx66uw1g45g.c ****                               : MX66UW1G45G_OCTA_READ_CMD;
 189:STM32Cube_FW_N6/Drivers/BSP/Components/mx66uw1g45g/mx66uw1g45g.c ****   s_command.AddressMode = (Mode == MX66UW1G45G_SPI_MODE)
 190:STM32Cube_FW_N6/Drivers/BSP/Components/mx66uw1g45g/mx66uw1g45g.c ****                               ? HAL_XSPI_ADDRESS_1_LINE
 191:STM32Cube_FW_N6/Drivers/BSP/Components/mx66uw1g45g/mx66uw1g45g.c ****                               : HAL_XSPI_ADDRESS_8_LINES;
 192:STM32Cube_FW_N6/Drivers/BSP/Components/mx66uw1g45g/mx66uw1g45g.c ****   s_command.AddressDTRMode = HAL_XSPI_ADDRESS_DTR_DISABLE;
 193:STM32Cube_FW_N6/Drivers/BSP/Components/mx66uw1g45g/mx66uw1g45g.c ****   s_command.AddressWidth = (AddressWidth == MX66UW1G45G_3BYTES_SIZE)
 194:STM32Cube_FW_N6/Drivers/BSP/Components/mx66uw1g45g/mx66uw1g45g.c ****                                ? HAL_XSPI_ADDRESS_24_BITS
 195:STM32Cube_FW_N6/Drivers/BSP/Components/mx66uw1g45g/mx66uw1g45g.c ****                                : HAL_XSPI_ADDRESS_32_BITS;
 196:STM32Cube_FW_N6/Drivers/BSP/Components/mx66uw1g45g/mx66uw1g45g.c ****   s_command.Address = ReadAddr;
 197:STM32Cube_FW_N6/Drivers/BSP/Components/mx66uw1g45g/mx66uw1g45g.c ****   s_command.AlternateBytesMode = HAL_XSPI_ALT_BYTES_NONE;
 198:STM32Cube_FW_N6/Drivers/BSP/Components/mx66uw1g45g/mx66uw1g45g.c ****   s_command.DataMode = (Mode == MX66UW1G45G_SPI_MODE) ? HAL_XSPI_DATA_1_LINE : HAL_XSPI_DATA_8_LINE
 199:STM32Cube_FW_N6/Drivers/BSP/Components/mx66uw1g45g/mx66uw1g45g.c ****   s_command.DataDTRMode = HAL_XSPI_DATA_DTR_DISABLE;
 200:STM32Cube_FW_N6/Drivers/BSP/Components/mx66uw1g45g/mx66uw1g45g.c ****   s_command.DummyCycles = (Mode == MX66UW1G45G_SPI_MODE) ? DUMMY_CYCLES_READ : DUMMY_CYCLES_READ_OC
 201:STM32Cube_FW_N6/Drivers/BSP/Components/mx66uw1g45g/mx66uw1g45g.c ****   s_command.DataLength = Size;
 202:STM32Cube_FW_N6/Drivers/BSP/Components/mx66uw1g45g/mx66uw1g45g.c ****   s_command.DQSMode = HAL_XSPI_DQS_DISABLE;
 203:STM32Cube_FW_N6/Drivers/BSP/Components/mx66uw1g45g/mx66uw1g45g.c ****  #if defined (XSPI_CCR_SIOO)
 204:STM32Cube_FW_N6/Drivers/BSP/Components/mx66uw1g45g/mx66uw1g45g.c ****   s_command.SIOOMode            = HAL_XSPI_SIOO_INST_EVERY_CMD;
 205:STM32Cube_FW_N6/Drivers/BSP/Components/mx66uw1g45g/mx66uw1g45g.c ****  #endif
 206:STM32Cube_FW_N6/Drivers/BSP/Components/mx66uw1g45g/mx66uw1g45g.c **** 
 207:STM32Cube_FW_N6/Drivers/BSP/Components/mx66uw1g45g/mx66uw1g45g.c ****   /* Send the command */
 208:STM32Cube_FW_N6/Drivers/BSP/Components/mx66uw1g45g/mx66uw1g45g.c ****   if (HAL_XSPI_Command(Ctx, &s_command, HAL_XSPI_TIMEOUT_DEFAULT_VALUE) != HAL_OK)
 209:STM32Cube_FW_N6/Drivers/BSP/Components/mx66uw1g45g/mx66uw1g45g.c ****   {
 210:STM32Cube_FW_N6/Drivers/BSP/Components/mx66uw1g45g/mx66uw1g45g.c ****     return MX66UW1G45G_ERROR;
 211:STM32Cube_FW_N6/Drivers/BSP/Components/mx66uw1g45g/mx66uw1g45g.c ****   }
 212:STM32Cube_FW_N6/Drivers/BSP/Components/mx66uw1g45g/mx66uw1g45g.c **** 
 213:STM32Cube_FW_N6/Drivers/BSP/Components/mx66uw1g45g/mx66uw1g45g.c ****   /* Reception of the data */
 214:STM32Cube_FW_N6/Drivers/BSP/Components/mx66uw1g45g/mx66uw1g45g.c ****   if (HAL_XSPI_Receive(Ctx, pData, HAL_XSPI_TIMEOUT_DEFAULT_VALUE) != HAL_OK)
 215:STM32Cube_FW_N6/Drivers/BSP/Components/mx66uw1g45g/mx66uw1g45g.c ****   {
 216:STM32Cube_FW_N6/Drivers/BSP/Components/mx66uw1g45g/mx66uw1g45g.c ****     return MX66UW1G45G_ERROR;
 217:STM32Cube_FW_N6/Drivers/BSP/Components/mx66uw1g45g/mx66uw1g45g.c ****   }
 218:STM32Cube_FW_N6/Drivers/BSP/Components/mx66uw1g45g/mx66uw1g45g.c **** 
 219:STM32Cube_FW_N6/Drivers/BSP/Components/mx66uw1g45g/mx66uw1g45g.c ****   return MX66UW1G45G_OK;
 220:STM32Cube_FW_N6/Drivers/BSP/Components/mx66uw1g45g/mx66uw1g45g.c **** }
 338              		.loc 1 220 1 view .LVU104
 339 0020 15B0     		add	sp, sp, #84
 340              		.cfi_remember_state
 341              		.cfi_def_cfa_offset 20
 342              		@ sp needed
 343 0022 F0BD     		pop	{r4, r5, r6, r7, pc}
ARM GAS  C:\Users\DJESSOU\AppData\Local\Temp\ccAx4BcF.s 			page 12


 344              	.LVL16:
 345              	.L21:
 346              		.cfi_restore_state
 176:STM32Cube_FW_N6/Drivers/BSP/Components/mx66uw1g45g/mx66uw1g45g.c ****   s_command.InstructionMode = (Mode == MX66UW1G45G_SPI_MODE)
 347              		.loc 1 176 3 is_stmt 1 view .LVU105
 177:STM32Cube_FW_N6/Drivers/BSP/Components/mx66uw1g45g/mx66uw1g45g.c ****                                   ? HAL_XSPI_INSTRUCTION_1_LINE
 348              		.loc 1 177 3 view .LVU106
 179:STM32Cube_FW_N6/Drivers/BSP/Components/mx66uw1g45g/mx66uw1g45g.c ****   s_command.InstructionDTRMode = HAL_XSPI_INSTRUCTION_DTR_DISABLE;
 349              		.loc 1 179 35 is_stmt 0 view .LVU107
 350 0024 002C     		cmp	r4, #0
 351 0026 32D0     		beq	.L24
 352              	.L22:
 181:STM32Cube_FW_N6/Drivers/BSP/Components/mx66uw1g45g/mx66uw1g45g.c ****                                    ? HAL_XSPI_INSTRUCTION_8_BITS
 353              		.loc 1 181 30 view .LVU108
 354 0028 0422     		movs	r2, #4
 355 002a 1023     		movs	r3, #16
 356 002c CDE90423 		strd	r2, r3, [sp, #16]
 184:STM32Cube_FW_N6/Drivers/BSP/Components/mx66uw1g45g/mx66uw1g45g.c ****                               ? ((AddressWidth == MX66UW1G45G_3BYTES_SIZE)
 357              		.loc 1 184 3 is_stmt 1 view .LVU109
 189:STM32Cube_FW_N6/Drivers/BSP/Components/mx66uw1g45g/mx66uw1g45g.c ****                               ? HAL_XSPI_ADDRESS_1_LINE
 358              		.loc 1 189 3 view .LVU110
 181:STM32Cube_FW_N6/Drivers/BSP/Components/mx66uw1g45g/mx66uw1g45g.c ****                                    ? HAL_XSPI_INSTRUCTION_8_BITS
 359              		.loc 1 181 30 is_stmt 0 view .LVU111
 360 0030 4EF61342 		movw	r2, #60435
 191:STM32Cube_FW_N6/Drivers/BSP/Components/mx66uw1g45g/mx66uw1g45g.c ****   s_command.AddressDTRMode = HAL_XSPI_ADDRESS_DTR_DISABLE;
 361              		.loc 1 191 31 discriminator 2 view .LVU112
 362 0034 4FF48063 		mov	r3, #1024
 363              	.L25:
 195:STM32Cube_FW_N6/Drivers/BSP/Components/mx66uw1g45g/mx66uw1g45g.c ****   s_command.Address = ReadAddr;
 364              		.loc 1 195 32 discriminator 1 view .LVU113
 365 0038 002D     		cmp	r5, #0
 189:STM32Cube_FW_N6/Drivers/BSP/Components/mx66uw1g45g/mx66uw1g45g.c ****                               ? HAL_XSPI_ADDRESS_1_LINE
 366              		.loc 1 189 25 view .LVU114
 367 003a 0893     		str	r3, [sp, #32]
 192:STM32Cube_FW_N6/Drivers/BSP/Components/mx66uw1g45g/mx66uw1g45g.c ****   s_command.AddressWidth = (AddressWidth == MX66UW1G45G_3BYTES_SIZE)
 368              		.loc 1 192 3 is_stmt 1 view .LVU115
 193:STM32Cube_FW_N6/Drivers/BSP/Components/mx66uw1g45g/mx66uw1g45g.c ****                                ? HAL_XSPI_ADDRESS_24_BITS
 369              		.loc 1 193 3 view .LVU116
 195:STM32Cube_FW_N6/Drivers/BSP/Components/mx66uw1g45g/mx66uw1g45g.c ****   s_command.Address = ReadAddr;
 370              		.loc 1 195 32 is_stmt 0 discriminator 1 view .LVU117
 371 003c 14BF     		ite	ne
 372 003e 4FF44053 		movne	r3, #12288
 373 0042 4FF40053 		moveq	r3, #8192
 193:STM32Cube_FW_N6/Drivers/BSP/Components/mx66uw1g45g/mx66uw1g45g.c ****                                ? HAL_XSPI_ADDRESS_24_BITS
 374              		.loc 1 193 26 view .LVU118
 375 0046 0993     		str	r3, [sp, #36]
 196:STM32Cube_FW_N6/Drivers/BSP/Components/mx66uw1g45g/mx66uw1g45g.c ****   s_command.AlternateBytesMode = HAL_XSPI_ALT_BYTES_NONE;
 376              		.loc 1 196 3 is_stmt 1 view .LVU119
 196:STM32Cube_FW_N6/Drivers/BSP/Components/mx66uw1g45g/mx66uw1g45g.c ****   s_command.AlternateBytesMode = HAL_XSPI_ALT_BYTES_NONE;
 377              		.loc 1 196 21 is_stmt 0 view .LVU120
 378 0048 1A9B     		ldr	r3, [sp, #104]
 198:STM32Cube_FW_N6/Drivers/BSP/Components/mx66uw1g45g/mx66uw1g45g.c ****   s_command.DataDTRMode = HAL_XSPI_DATA_DTR_DISABLE;
 379              		.loc 1 198 22 discriminator 4 view .LVU121
 380 004a 002C     		cmp	r4, #0
 196:STM32Cube_FW_N6/Drivers/BSP/Components/mx66uw1g45g/mx66uw1g45g.c ****   s_command.AlternateBytesMode = HAL_XSPI_ALT_BYTES_NONE;
 381              		.loc 1 196 21 view .LVU122
 382 004c 0793     		str	r3, [sp, #28]
ARM GAS  C:\Users\DJESSOU\AppData\Local\Temp\ccAx4BcF.s 			page 13


 197:STM32Cube_FW_N6/Drivers/BSP/Components/mx66uw1g45g/mx66uw1g45g.c ****   s_command.DataMode = (Mode == MX66UW1G45G_SPI_MODE) ? HAL_XSPI_DATA_1_LINE : HAL_XSPI_DATA_8_LINE
 383              		.loc 1 197 3 is_stmt 1 view .LVU123
 198:STM32Cube_FW_N6/Drivers/BSP/Components/mx66uw1g45g/mx66uw1g45g.c ****   s_command.DataDTRMode = HAL_XSPI_DATA_DTR_DISABLE;
 384              		.loc 1 198 3 view .LVU124
 198:STM32Cube_FW_N6/Drivers/BSP/Components/mx66uw1g45g/mx66uw1g45g.c ****   s_command.DataDTRMode = HAL_XSPI_DATA_DTR_DISABLE;
 385              		.loc 1 198 22 is_stmt 0 discriminator 4 view .LVU125
 386 004e 0CBF     		ite	eq
 387 0050 0823     		moveq	r3, #8
 388 0052 0A23     		movne	r3, #10
 184:STM32Cube_FW_N6/Drivers/BSP/Components/mx66uw1g45g/mx66uw1g45g.c ****                               ? ((AddressWidth == MX66UW1G45G_3BYTES_SIZE)
 389              		.loc 1 184 25 view .LVU126
 390 0054 0392     		str	r2, [sp, #12]
 198:STM32Cube_FW_N6/Drivers/BSP/Components/mx66uw1g45g/mx66uw1g45g.c ****   s_command.DataDTRMode = HAL_XSPI_DATA_DTR_DISABLE;
 391              		.loc 1 198 22 discriminator 4 view .LVU127
 392 0056 0CBF     		ite	eq
 393 0058 4FF08072 		moveq	r2, #16777216
 394 005c 4FF08062 		movne	r2, #67108864
 200:STM32Cube_FW_N6/Drivers/BSP/Components/mx66uw1g45g/mx66uw1g45g.c ****   s_command.DataLength = Size;
 395              		.loc 1 200 25 discriminator 4 view .LVU128
 396 0060 1293     		str	r3, [sp, #72]
 201:STM32Cube_FW_N6/Drivers/BSP/Components/mx66uw1g45g/mx66uw1g45g.c ****   s_command.DQSMode = HAL_XSPI_DQS_DISABLE;
 397              		.loc 1 201 3 is_stmt 1 view .LVU129
 201:STM32Cube_FW_N6/Drivers/BSP/Components/mx66uw1g45g/mx66uw1g45g.c ****   s_command.DQSMode = HAL_XSPI_DQS_DISABLE;
 398              		.loc 1 201 24 is_stmt 0 view .LVU130
 399 0062 1B9B     		ldr	r3, [sp, #108]
 400 0064 0F92     		str	r2, [sp, #60]
 208:STM32Cube_FW_N6/Drivers/BSP/Components/mx66uw1g45g/mx66uw1g45g.c ****   {
 401              		.loc 1 208 7 view .LVU131
 402 0066 3046     		mov	r0, r6
 403 0068 41F28832 		movw	r2, #5000
 404 006c 01A9     		add	r1, sp, #4
 201:STM32Cube_FW_N6/Drivers/BSP/Components/mx66uw1g45g/mx66uw1g45g.c ****   s_command.DQSMode = HAL_XSPI_DQS_DISABLE;
 405              		.loc 1 201 24 view .LVU132
 406 006e 1093     		str	r3, [sp, #64]
 202:STM32Cube_FW_N6/Drivers/BSP/Components/mx66uw1g45g/mx66uw1g45g.c ****  #if defined (XSPI_CCR_SIOO)
 407              		.loc 1 202 3 is_stmt 1 view .LVU133
 208:STM32Cube_FW_N6/Drivers/BSP/Components/mx66uw1g45g/mx66uw1g45g.c ****   {
 408              		.loc 1 208 3 view .LVU134
 208:STM32Cube_FW_N6/Drivers/BSP/Components/mx66uw1g45g/mx66uw1g45g.c ****   {
 409              		.loc 1 208 7 is_stmt 0 view .LVU135
 410 0070 FFF7FEFF 		bl	HAL_XSPI_Command
 411              	.LVL17:
 208:STM32Cube_FW_N6/Drivers/BSP/Components/mx66uw1g45g/mx66uw1g45g.c ****   {
 412              		.loc 1 208 6 discriminator 1 view .LVU136
 413 0074 0028     		cmp	r0, #0
 414 0076 D1D1     		bne	.L29
 214:STM32Cube_FW_N6/Drivers/BSP/Components/mx66uw1g45g/mx66uw1g45g.c ****   {
 415              		.loc 1 214 3 is_stmt 1 view .LVU137
 214:STM32Cube_FW_N6/Drivers/BSP/Components/mx66uw1g45g/mx66uw1g45g.c ****   {
 416              		.loc 1 214 7 is_stmt 0 view .LVU138
 417 0078 41F28832 		movw	r2, #5000
 418 007c 3946     		mov	r1, r7
 419 007e 3046     		mov	r0, r6
 420 0080 FFF7FEFF 		bl	HAL_XSPI_Receive
 421              	.LVL18:
 214:STM32Cube_FW_N6/Drivers/BSP/Components/mx66uw1g45g/mx66uw1g45g.c ****   {
 422              		.loc 1 214 6 discriminator 1 view .LVU139
ARM GAS  C:\Users\DJESSOU\AppData\Local\Temp\ccAx4BcF.s 			page 14


 423 0084 0038     		subs	r0, r0, #0
 424 0086 18BF     		it	ne
 425 0088 0120     		movne	r0, #1
 426 008a 4042     		rsbs	r0, r0, #0
 427 008c C8E7     		b	.L20
 428              	.L24:
 177:STM32Cube_FW_N6/Drivers/BSP/Components/mx66uw1g45g/mx66uw1g45g.c ****                                   ? HAL_XSPI_INSTRUCTION_1_LINE
 429              		.loc 1 177 29 view .LVU140
 430 008e 0123     		movs	r3, #1
 188:STM32Cube_FW_N6/Drivers/BSP/Components/mx66uw1g45g/mx66uw1g45g.c ****   s_command.AddressMode = (Mode == MX66UW1G45G_SPI_MODE)
 431              		.loc 1 188 31 discriminator 3 view .LVU141
 432 0090 002D     		cmp	r5, #0
 177:STM32Cube_FW_N6/Drivers/BSP/Components/mx66uw1g45g/mx66uw1g45g.c ****                                   ? HAL_XSPI_INSTRUCTION_1_LINE
 433              		.loc 1 177 29 view .LVU142
 434 0092 0493     		str	r3, [sp, #16]
 180:STM32Cube_FW_N6/Drivers/BSP/Components/mx66uw1g45g/mx66uw1g45g.c ****   s_command.InstructionWidth = (Mode == MX66UW1G45G_SPI_MODE)
 435              		.loc 1 180 3 is_stmt 1 view .LVU143
 181:STM32Cube_FW_N6/Drivers/BSP/Components/mx66uw1g45g/mx66uw1g45g.c ****                                    ? HAL_XSPI_INSTRUCTION_8_BITS
 436              		.loc 1 181 3 view .LVU144
 184:STM32Cube_FW_N6/Drivers/BSP/Components/mx66uw1g45g/mx66uw1g45g.c ****                               ? ((AddressWidth == MX66UW1G45G_3BYTES_SIZE)
 437              		.loc 1 184 3 view .LVU145
 188:STM32Cube_FW_N6/Drivers/BSP/Components/mx66uw1g45g/mx66uw1g45g.c ****   s_command.AddressMode = (Mode == MX66UW1G45G_SPI_MODE)
 438              		.loc 1 188 31 is_stmt 0 discriminator 3 view .LVU146
 439 0094 14BF     		ite	ne
 440 0096 0C22     		movne	r2, #12
 441 0098 0B22     		moveq	r2, #11
 189:STM32Cube_FW_N6/Drivers/BSP/Components/mx66uw1g45g/mx66uw1g45g.c ****                               ? HAL_XSPI_ADDRESS_1_LINE
 442              		.loc 1 189 3 is_stmt 1 view .LVU147
 191:STM32Cube_FW_N6/Drivers/BSP/Components/mx66uw1g45g/mx66uw1g45g.c ****   s_command.AddressDTRMode = HAL_XSPI_ADDRESS_DTR_DISABLE;
 443              		.loc 1 191 31 is_stmt 0 discriminator 1 view .LVU148
 444 009a 4FF48073 		mov	r3, #256
 445 009e CBE7     		b	.L25
 446              		.cfi_endproc
 447              	.LFE864:
 449              		.section	.text.MX66UW1G45G_ReadDTR,"ax",%progbits
 450              		.align	1
 451              		.global	MX66UW1G45G_ReadDTR
 452              		.syntax unified
 453              		.thumb
 454              		.thumb_func
 456              	MX66UW1G45G_ReadDTR:
 457              	.LVL19:
 458              	.LFB865:
 221:STM32Cube_FW_N6/Drivers/BSP/Components/mx66uw1g45g/mx66uw1g45g.c **** 
 222:STM32Cube_FW_N6/Drivers/BSP/Components/mx66uw1g45g/mx66uw1g45g.c **** /**
 223:STM32Cube_FW_N6/Drivers/BSP/Components/mx66uw1g45g/mx66uw1g45g.c ****   * @brief  Reads an amount of data from the XSPI memory on DTR mode.
 224:STM32Cube_FW_N6/Drivers/BSP/Components/mx66uw1g45g/mx66uw1g45g.c ****   *         OPI
 225:STM32Cube_FW_N6/Drivers/BSP/Components/mx66uw1g45g/mx66uw1g45g.c ****   * @param  Ctx Component object pointer
 226:STM32Cube_FW_N6/Drivers/BSP/Components/mx66uw1g45g/mx66uw1g45g.c ****   * @param  AddressWidth Address size
 227:STM32Cube_FW_N6/Drivers/BSP/Components/mx66uw1g45g/mx66uw1g45g.c ****   * @param  pData Pointer to data to be read
 228:STM32Cube_FW_N6/Drivers/BSP/Components/mx66uw1g45g/mx66uw1g45g.c ****   * @param  ReadAddr Read start address
 229:STM32Cube_FW_N6/Drivers/BSP/Components/mx66uw1g45g/mx66uw1g45g.c ****   * @param  Size Size of data to read
 230:STM32Cube_FW_N6/Drivers/BSP/Components/mx66uw1g45g/mx66uw1g45g.c ****   * @note   Only OPI mode support DTR transfer rate
 231:STM32Cube_FW_N6/Drivers/BSP/Components/mx66uw1g45g/mx66uw1g45g.c ****   * @retval XSPI memory status
 232:STM32Cube_FW_N6/Drivers/BSP/Components/mx66uw1g45g/mx66uw1g45g.c ****   */
 233:STM32Cube_FW_N6/Drivers/BSP/Components/mx66uw1g45g/mx66uw1g45g.c **** int32_t MX66UW1G45G_ReadDTR(XSPI_HandleTypeDef *Ctx, uint8_t *pData, uint32_t ReadAddr, uint32_t Si
 234:STM32Cube_FW_N6/Drivers/BSP/Components/mx66uw1g45g/mx66uw1g45g.c **** {
ARM GAS  C:\Users\DJESSOU\AppData\Local\Temp\ccAx4BcF.s 			page 15


 459              		.loc 1 234 1 is_stmt 1 view -0
 460              		.cfi_startproc
 461              		@ args = 0, pretend = 0, frame = 80
 462              		@ frame_needed = 0, uses_anonymous_args = 0
 235:STM32Cube_FW_N6/Drivers/BSP/Components/mx66uw1g45g/mx66uw1g45g.c ****   XSPI_RegularCmdTypeDef s_command = {0};
 463              		.loc 1 235 3 view .LVU150
 234:STM32Cube_FW_N6/Drivers/BSP/Components/mx66uw1g45g/mx66uw1g45g.c ****   XSPI_RegularCmdTypeDef s_command = {0};
 464              		.loc 1 234 1 is_stmt 0 view .LVU151
 465 0000 F0B5     		push	{r4, r5, r6, r7, lr}
 466              		.cfi_def_cfa_offset 20
 467              		.cfi_offset 4, -20
 468              		.cfi_offset 5, -16
 469              		.cfi_offset 6, -12
 470              		.cfi_offset 7, -8
 471              		.cfi_offset 14, -4
 472 0002 95B0     		sub	sp, sp, #84
 473              		.cfi_def_cfa_offset 104
 234:STM32Cube_FW_N6/Drivers/BSP/Components/mx66uw1g45g/mx66uw1g45g.c ****   XSPI_RegularCmdTypeDef s_command = {0};
 474              		.loc 1 234 1 view .LVU152
 475 0004 0446     		mov	r4, r0
 476 0006 1746     		mov	r7, r2
 477 0008 0D46     		mov	r5, r1
 478              		.loc 1 235 26 view .LVU153
 479 000a 3822     		movs	r2, #56
 480              	.LVL20:
 481              		.loc 1 235 26 view .LVU154
 482 000c 0021     		movs	r1, #0
 483              	.LVL21:
 484              		.loc 1 235 26 view .LVU155
 485 000e 01A8     		add	r0, sp, #4
 486              	.LVL22:
 234:STM32Cube_FW_N6/Drivers/BSP/Components/mx66uw1g45g/mx66uw1g45g.c ****   XSPI_RegularCmdTypeDef s_command = {0};
 487              		.loc 1 234 1 view .LVU156
 488 0010 1E46     		mov	r6, r3
 489              		.loc 1 235 26 view .LVU157
 490 0012 FFF7FEFF 		bl	memset
 491              	.LVL23:
 236:STM32Cube_FW_N6/Drivers/BSP/Components/mx66uw1g45g/mx66uw1g45g.c **** 
 237:STM32Cube_FW_N6/Drivers/BSP/Components/mx66uw1g45g/mx66uw1g45g.c ****   /* Initialize the read command */
 238:STM32Cube_FW_N6/Drivers/BSP/Components/mx66uw1g45g/mx66uw1g45g.c ****   s_command.OperationType = HAL_XSPI_OPTYPE_COMMON_CFG;
 492              		.loc 1 238 3 is_stmt 1 view .LVU158
 239:STM32Cube_FW_N6/Drivers/BSP/Components/mx66uw1g45g/mx66uw1g45g.c ****   s_command.InstructionMode = HAL_XSPI_INSTRUCTION_8_LINES;
 493              		.loc 1 239 3 view .LVU159
 494              		.loc 1 239 29 is_stmt 0 view .LVU160
 495 0016 0423     		movs	r3, #4
 240:STM32Cube_FW_N6/Drivers/BSP/Components/mx66uw1g45g/mx66uw1g45g.c ****   s_command.InstructionDTRMode = HAL_XSPI_INSTRUCTION_DTR_ENABLE;
 241:STM32Cube_FW_N6/Drivers/BSP/Components/mx66uw1g45g/mx66uw1g45g.c ****   s_command.InstructionWidth = HAL_XSPI_INSTRUCTION_16_BITS;
 496              		.loc 1 241 30 view .LVU161
 497 0018 0821     		movs	r1, #8
 239:STM32Cube_FW_N6/Drivers/BSP/Components/mx66uw1g45g/mx66uw1g45g.c ****   s_command.InstructionMode = HAL_XSPI_INSTRUCTION_8_LINES;
 498              		.loc 1 239 29 view .LVU162
 499 001a 0493     		str	r3, [sp, #16]
 240:STM32Cube_FW_N6/Drivers/BSP/Components/mx66uw1g45g/mx66uw1g45g.c ****   s_command.InstructionDTRMode = HAL_XSPI_INSTRUCTION_DTR_ENABLE;
 500              		.loc 1 240 3 is_stmt 1 view .LVU163
 501              		.loc 1 241 30 is_stmt 0 view .LVU164
 502 001c 1023     		movs	r3, #16
 503 001e CDE90531 		strd	r3, r1, [sp, #20]
ARM GAS  C:\Users\DJESSOU\AppData\Local\Temp\ccAx4BcF.s 			page 16


 242:STM32Cube_FW_N6/Drivers/BSP/Components/mx66uw1g45g/mx66uw1g45g.c ****   s_command.Instruction = MX66UW1G45G_OCTA_READ_DTR_CMD;
 504              		.loc 1 242 3 is_stmt 1 view .LVU165
 505              		.loc 1 242 25 is_stmt 0 view .LVU166
 506 0022 4EF61163 		movw	r3, #60945
 507 0026 0393     		str	r3, [sp, #12]
 243:STM32Cube_FW_N6/Drivers/BSP/Components/mx66uw1g45g/mx66uw1g45g.c ****   s_command.AddressMode = HAL_XSPI_ADDRESS_8_LINES;
 508              		.loc 1 243 3 is_stmt 1 view .LVU167
 509              		.loc 1 243 25 is_stmt 0 view .LVU168
 510 0028 4FF48063 		mov	r3, #1024
 244:STM32Cube_FW_N6/Drivers/BSP/Components/mx66uw1g45g/mx66uw1g45g.c ****   s_command.AddressDTRMode = HAL_XSPI_ADDRESS_DTR_ENABLE;
 245:STM32Cube_FW_N6/Drivers/BSP/Components/mx66uw1g45g/mx66uw1g45g.c ****   s_command.AddressWidth = HAL_XSPI_ADDRESS_32_BITS;
 511              		.loc 1 245 26 view .LVU169
 512 002c 4FF4006E 		mov	lr, #2048
 243:STM32Cube_FW_N6/Drivers/BSP/Components/mx66uw1g45g/mx66uw1g45g.c ****   s_command.AddressMode = HAL_XSPI_ADDRESS_8_LINES;
 513              		.loc 1 243 25 view .LVU170
 514 0030 0893     		str	r3, [sp, #32]
 244:STM32Cube_FW_N6/Drivers/BSP/Components/mx66uw1g45g/mx66uw1g45g.c ****   s_command.AddressDTRMode = HAL_XSPI_ADDRESS_DTR_ENABLE;
 515              		.loc 1 244 3 is_stmt 1 view .LVU171
 516              		.loc 1 245 26 is_stmt 0 view .LVU172
 517 0032 4FF44053 		mov	r3, #12288
 518 0036 CDE9093E 		strd	r3, lr, [sp, #36]
 246:STM32Cube_FW_N6/Drivers/BSP/Components/mx66uw1g45g/mx66uw1g45g.c ****   s_command.Address = ReadAddr;
 519              		.loc 1 246 3 is_stmt 1 view .LVU173
 247:STM32Cube_FW_N6/Drivers/BSP/Components/mx66uw1g45g/mx66uw1g45g.c ****   s_command.AlternateBytesMode = HAL_XSPI_ALT_BYTES_NONE;
 248:STM32Cube_FW_N6/Drivers/BSP/Components/mx66uw1g45g/mx66uw1g45g.c ****   s_command.DataMode = HAL_XSPI_DATA_8_LINES;
 520              		.loc 1 248 22 is_stmt 0 view .LVU174
 521 003a 4FF08063 		mov	r3, #67108864
 249:STM32Cube_FW_N6/Drivers/BSP/Components/mx66uw1g45g/mx66uw1g45g.c ****   s_command.DataDTRMode = HAL_XSPI_DATA_DTR_ENABLE;
 250:STM32Cube_FW_N6/Drivers/BSP/Components/mx66uw1g45g/mx66uw1g45g.c ****   s_command.DummyCycles = DUMMY_CYCLES_READ_OCTAL_DTR;
 522              		.loc 1 250 25 view .LVU175
 523 003e 4FF00061 		mov	r1, #134217728
 248:STM32Cube_FW_N6/Drivers/BSP/Components/mx66uw1g45g/mx66uw1g45g.c ****   s_command.DataDTRMode = HAL_XSPI_DATA_DTR_ENABLE;
 524              		.loc 1 248 22 view .LVU176
 525 0042 0F93     		str	r3, [sp, #60]
 526              		.loc 1 250 25 view .LVU177
 527 0044 0A23     		movs	r3, #10
 528 0046 CDE91113 		strd	r1, r3, [sp, #68]
 251:STM32Cube_FW_N6/Drivers/BSP/Components/mx66uw1g45g/mx66uw1g45g.c ****   s_command.DataLength = Size;
 252:STM32Cube_FW_N6/Drivers/BSP/Components/mx66uw1g45g/mx66uw1g45g.c ****   s_command.DQSMode = HAL_XSPI_DQS_ENABLE;
 529              		.loc 1 252 21 view .LVU178
 530 004a 4FF00053 		mov	r3, #536870912
 253:STM32Cube_FW_N6/Drivers/BSP/Components/mx66uw1g45g/mx66uw1g45g.c ****  #if defined (XSPI_CCR_SIOO)
 254:STM32Cube_FW_N6/Drivers/BSP/Components/mx66uw1g45g/mx66uw1g45g.c ****   s_command.SIOOMode            = HAL_XSPI_SIOO_INST_EVERY_CMD;
 255:STM32Cube_FW_N6/Drivers/BSP/Components/mx66uw1g45g/mx66uw1g45g.c ****  #endif
 256:STM32Cube_FW_N6/Drivers/BSP/Components/mx66uw1g45g/mx66uw1g45g.c **** 
 257:STM32Cube_FW_N6/Drivers/BSP/Components/mx66uw1g45g/mx66uw1g45g.c ****   /* Send the command */
 258:STM32Cube_FW_N6/Drivers/BSP/Components/mx66uw1g45g/mx66uw1g45g.c ****   if (HAL_XSPI_Command(Ctx, &s_command, HAL_XSPI_TIMEOUT_DEFAULT_VALUE) != HAL_OK)
 531              		.loc 1 258 7 view .LVU179
 532 004e 41F28832 		movw	r2, #5000
 533 0052 2046     		mov	r0, r4
 534 0054 01A9     		add	r1, sp, #4
 246:STM32Cube_FW_N6/Drivers/BSP/Components/mx66uw1g45g/mx66uw1g45g.c ****   s_command.AlternateBytesMode = HAL_XSPI_ALT_BYTES_NONE;
 535              		.loc 1 246 21 view .LVU180
 536 0056 0797     		str	r7, [sp, #28]
 247:STM32Cube_FW_N6/Drivers/BSP/Components/mx66uw1g45g/mx66uw1g45g.c ****   s_command.DataMode = HAL_XSPI_DATA_8_LINES;
 537              		.loc 1 247 3 is_stmt 1 view .LVU181
 248:STM32Cube_FW_N6/Drivers/BSP/Components/mx66uw1g45g/mx66uw1g45g.c ****   s_command.DataDTRMode = HAL_XSPI_DATA_DTR_ENABLE;
ARM GAS  C:\Users\DJESSOU\AppData\Local\Temp\ccAx4BcF.s 			page 17


 538              		.loc 1 248 3 view .LVU182
 249:STM32Cube_FW_N6/Drivers/BSP/Components/mx66uw1g45g/mx66uw1g45g.c ****   s_command.DummyCycles = DUMMY_CYCLES_READ_OCTAL_DTR;
 539              		.loc 1 249 3 view .LVU183
 251:STM32Cube_FW_N6/Drivers/BSP/Components/mx66uw1g45g/mx66uw1g45g.c ****   s_command.DQSMode = HAL_XSPI_DQS_ENABLE;
 540              		.loc 1 251 3 view .LVU184
 251:STM32Cube_FW_N6/Drivers/BSP/Components/mx66uw1g45g/mx66uw1g45g.c ****   s_command.DQSMode = HAL_XSPI_DQS_ENABLE;
 541              		.loc 1 251 24 is_stmt 0 view .LVU185
 542 0058 1096     		str	r6, [sp, #64]
 252:STM32Cube_FW_N6/Drivers/BSP/Components/mx66uw1g45g/mx66uw1g45g.c ****  #if defined (XSPI_CCR_SIOO)
 543              		.loc 1 252 3 is_stmt 1 view .LVU186
 252:STM32Cube_FW_N6/Drivers/BSP/Components/mx66uw1g45g/mx66uw1g45g.c ****  #if defined (XSPI_CCR_SIOO)
 544              		.loc 1 252 21 is_stmt 0 view .LVU187
 545 005a 1393     		str	r3, [sp, #76]
 546              		.loc 1 258 3 is_stmt 1 view .LVU188
 547              		.loc 1 258 7 is_stmt 0 view .LVU189
 548 005c FFF7FEFF 		bl	HAL_XSPI_Command
 549              	.LVL24:
 550              		.loc 1 258 6 discriminator 1 view .LVU190
 551 0060 58B9     		cbnz	r0, .L35
 259:STM32Cube_FW_N6/Drivers/BSP/Components/mx66uw1g45g/mx66uw1g45g.c ****   {
 260:STM32Cube_FW_N6/Drivers/BSP/Components/mx66uw1g45g/mx66uw1g45g.c ****     return MX66UW1G45G_ERROR;
 261:STM32Cube_FW_N6/Drivers/BSP/Components/mx66uw1g45g/mx66uw1g45g.c ****   }
 262:STM32Cube_FW_N6/Drivers/BSP/Components/mx66uw1g45g/mx66uw1g45g.c **** 
 263:STM32Cube_FW_N6/Drivers/BSP/Components/mx66uw1g45g/mx66uw1g45g.c ****   /* Reception of the data */
 264:STM32Cube_FW_N6/Drivers/BSP/Components/mx66uw1g45g/mx66uw1g45g.c ****   if (HAL_XSPI_Receive(Ctx, pData, HAL_XSPI_TIMEOUT_DEFAULT_VALUE) != HAL_OK)
 552              		.loc 1 264 3 is_stmt 1 view .LVU191
 553              		.loc 1 264 7 is_stmt 0 view .LVU192
 554 0062 41F28832 		movw	r2, #5000
 555 0066 2946     		mov	r1, r5
 556 0068 2046     		mov	r0, r4
 557 006a FFF7FEFF 		bl	HAL_XSPI_Receive
 558              	.LVL25:
 559              		.loc 1 264 6 discriminator 1 view .LVU193
 560 006e 0038     		subs	r0, r0, #0
 561 0070 18BF     		it	ne
 562 0072 0120     		movne	r0, #1
 563 0074 4042     		rsbs	r0, r0, #0
 564              	.L33:
 265:STM32Cube_FW_N6/Drivers/BSP/Components/mx66uw1g45g/mx66uw1g45g.c ****   {
 266:STM32Cube_FW_N6/Drivers/BSP/Components/mx66uw1g45g/mx66uw1g45g.c ****     return MX66UW1G45G_ERROR;
 267:STM32Cube_FW_N6/Drivers/BSP/Components/mx66uw1g45g/mx66uw1g45g.c ****   }
 268:STM32Cube_FW_N6/Drivers/BSP/Components/mx66uw1g45g/mx66uw1g45g.c **** 
 269:STM32Cube_FW_N6/Drivers/BSP/Components/mx66uw1g45g/mx66uw1g45g.c ****   return MX66UW1G45G_OK;
 270:STM32Cube_FW_N6/Drivers/BSP/Components/mx66uw1g45g/mx66uw1g45g.c **** }
 565              		.loc 1 270 1 view .LVU194
 566 0076 15B0     		add	sp, sp, #84
 567              		.cfi_remember_state
 568              		.cfi_def_cfa_offset 20
 569              		@ sp needed
 570 0078 F0BD     		pop	{r4, r5, r6, r7, pc}
 571              	.LVL26:
 572              	.L35:
 573              		.cfi_restore_state
 260:STM32Cube_FW_N6/Drivers/BSP/Components/mx66uw1g45g/mx66uw1g45g.c ****   }
 574              		.loc 1 260 12 view .LVU195
 575 007a 4FF0FF30 		mov	r0, #-1
 576 007e FAE7     		b	.L33
ARM GAS  C:\Users\DJESSOU\AppData\Local\Temp\ccAx4BcF.s 			page 18


 577              		.cfi_endproc
 578              	.LFE865:
 580              		.section	.text.MX66UW1G45G_PageProgram,"ax",%progbits
 581              		.align	1
 582              		.global	MX66UW1G45G_PageProgram
 583              		.syntax unified
 584              		.thumb
 585              		.thumb_func
 587              	MX66UW1G45G_PageProgram:
 588              	.LVL27:
 589              	.LFB866:
 271:STM32Cube_FW_N6/Drivers/BSP/Components/mx66uw1g45g/mx66uw1g45g.c **** 
 272:STM32Cube_FW_N6/Drivers/BSP/Components/mx66uw1g45g/mx66uw1g45g.c **** /**
 273:STM32Cube_FW_N6/Drivers/BSP/Components/mx66uw1g45g/mx66uw1g45g.c ****   * @brief  Writes an amount of data to the XSPI memory.
 274:STM32Cube_FW_N6/Drivers/BSP/Components/mx66uw1g45g/mx66uw1g45g.c ****   *         SPI/OPI
 275:STM32Cube_FW_N6/Drivers/BSP/Components/mx66uw1g45g/mx66uw1g45g.c ****   * @param  Ctx Component object pointer
 276:STM32Cube_FW_N6/Drivers/BSP/Components/mx66uw1g45g/mx66uw1g45g.c ****   * @param  Mode Interface mode
 277:STM32Cube_FW_N6/Drivers/BSP/Components/mx66uw1g45g/mx66uw1g45g.c ****   * @param  AddressWidth Address size
 278:STM32Cube_FW_N6/Drivers/BSP/Components/mx66uw1g45g/mx66uw1g45g.c ****   * @param  pData Pointer to data to be written
 279:STM32Cube_FW_N6/Drivers/BSP/Components/mx66uw1g45g/mx66uw1g45g.c ****   * @param  WriteAddr Write start address
 280:STM32Cube_FW_N6/Drivers/BSP/Components/mx66uw1g45g/mx66uw1g45g.c ****   * @param  Size Size of data to write. Range 1 ~ MX66UW1G45G_PAGE_SIZE
 281:STM32Cube_FW_N6/Drivers/BSP/Components/mx66uw1g45g/mx66uw1g45g.c ****   * @note   Address size is forced to 3 Bytes when the 4 Bytes address size
 282:STM32Cube_FW_N6/Drivers/BSP/Components/mx66uw1g45g/mx66uw1g45g.c ****   *         command is not available for the specified interface mode
 283:STM32Cube_FW_N6/Drivers/BSP/Components/mx66uw1g45g/mx66uw1g45g.c ****   * @retval XSPI memory status
 284:STM32Cube_FW_N6/Drivers/BSP/Components/mx66uw1g45g/mx66uw1g45g.c ****   */
 285:STM32Cube_FW_N6/Drivers/BSP/Components/mx66uw1g45g/mx66uw1g45g.c **** int32_t MX66UW1G45G_PageProgram(XSPI_HandleTypeDef *Ctx, MX66UW1G45G_Interface_t Mode,
 286:STM32Cube_FW_N6/Drivers/BSP/Components/mx66uw1g45g/mx66uw1g45g.c ****                                 MX66UW1G45G_AddressWidth_t AddressWidth, uint8_t *pData, uint32_t W
 287:STM32Cube_FW_N6/Drivers/BSP/Components/mx66uw1g45g/mx66uw1g45g.c ****                                 uint32_t Size)
 288:STM32Cube_FW_N6/Drivers/BSP/Components/mx66uw1g45g/mx66uw1g45g.c **** {
 590              		.loc 1 288 1 is_stmt 1 view -0
 591              		.cfi_startproc
 592              		@ args = 8, pretend = 0, frame = 80
 593              		@ frame_needed = 0, uses_anonymous_args = 0
 289:STM32Cube_FW_N6/Drivers/BSP/Components/mx66uw1g45g/mx66uw1g45g.c ****   XSPI_RegularCmdTypeDef s_command = {0};
 594              		.loc 1 289 3 view .LVU197
 288:STM32Cube_FW_N6/Drivers/BSP/Components/mx66uw1g45g/mx66uw1g45g.c ****   XSPI_RegularCmdTypeDef s_command = {0};
 595              		.loc 1 288 1 is_stmt 0 view .LVU198
 596 0000 F0B5     		push	{r4, r5, r6, r7, lr}
 597              		.cfi_def_cfa_offset 20
 598              		.cfi_offset 4, -20
 599              		.cfi_offset 5, -16
 600              		.cfi_offset 6, -12
 601              		.cfi_offset 7, -8
 602              		.cfi_offset 14, -4
 603 0002 0C46     		mov	r4, r1
 604 0004 95B0     		sub	sp, sp, #84
 605              		.cfi_def_cfa_offset 104
 288:STM32Cube_FW_N6/Drivers/BSP/Components/mx66uw1g45g/mx66uw1g45g.c ****   XSPI_RegularCmdTypeDef s_command = {0};
 606              		.loc 1 288 1 view .LVU199
 607 0006 0646     		mov	r6, r0
 608 0008 1546     		mov	r5, r2
 609              		.loc 1 289 26 view .LVU200
 610 000a 0021     		movs	r1, #0
 611              	.LVL28:
 612              		.loc 1 289 26 view .LVU201
 613 000c 4C22     		movs	r2, #76
 614              	.LVL29:
ARM GAS  C:\Users\DJESSOU\AppData\Local\Temp\ccAx4BcF.s 			page 19


 615              		.loc 1 289 26 view .LVU202
 616 000e 01A8     		add	r0, sp, #4
 617              	.LVL30:
 288:STM32Cube_FW_N6/Drivers/BSP/Components/mx66uw1g45g/mx66uw1g45g.c ****   XSPI_RegularCmdTypeDef s_command = {0};
 618              		.loc 1 288 1 view .LVU203
 619 0010 1F46     		mov	r7, r3
 620              		.loc 1 289 26 view .LVU204
 621 0012 FFF7FEFF 		bl	memset
 622              	.LVL31:
 290:STM32Cube_FW_N6/Drivers/BSP/Components/mx66uw1g45g/mx66uw1g45g.c **** 
 291:STM32Cube_FW_N6/Drivers/BSP/Components/mx66uw1g45g/mx66uw1g45g.c ****   /* OPI mode and 3-bytes address size not supported by memory */
 292:STM32Cube_FW_N6/Drivers/BSP/Components/mx66uw1g45g/mx66uw1g45g.c ****   if ((Mode == MX66UW1G45G_OPI_MODE) && (AddressWidth == MX66UW1G45G_3BYTES_SIZE))
 623              		.loc 1 292 3 is_stmt 1 view .LVU205
 624              		.loc 1 292 6 is_stmt 0 view .LVU206
 625 0016 012C     		cmp	r4, #1
 626 0018 04D1     		bne	.L37
 627              		.loc 1 292 38 discriminator 1 view .LVU207
 628 001a 25B9     		cbnz	r5, .L38
 629              	.L45:
 293:STM32Cube_FW_N6/Drivers/BSP/Components/mx66uw1g45g/mx66uw1g45g.c ****   {
 294:STM32Cube_FW_N6/Drivers/BSP/Components/mx66uw1g45g/mx66uw1g45g.c ****     return MX66UW1G45G_ERROR;
 630              		.loc 1 294 12 view .LVU208
 631 001c 4FF0FF30 		mov	r0, #-1
 632              	.L36:
 295:STM32Cube_FW_N6/Drivers/BSP/Components/mx66uw1g45g/mx66uw1g45g.c ****   }
 296:STM32Cube_FW_N6/Drivers/BSP/Components/mx66uw1g45g/mx66uw1g45g.c **** 
 297:STM32Cube_FW_N6/Drivers/BSP/Components/mx66uw1g45g/mx66uw1g45g.c ****   /* Initialize the program command */
 298:STM32Cube_FW_N6/Drivers/BSP/Components/mx66uw1g45g/mx66uw1g45g.c ****   s_command.OperationType = HAL_XSPI_OPTYPE_COMMON_CFG;
 299:STM32Cube_FW_N6/Drivers/BSP/Components/mx66uw1g45g/mx66uw1g45g.c ****   s_command.InstructionMode = (Mode == MX66UW1G45G_SPI_MODE)
 300:STM32Cube_FW_N6/Drivers/BSP/Components/mx66uw1g45g/mx66uw1g45g.c ****                                   ? HAL_XSPI_INSTRUCTION_1_LINE
 301:STM32Cube_FW_N6/Drivers/BSP/Components/mx66uw1g45g/mx66uw1g45g.c ****                                   : HAL_XSPI_INSTRUCTION_8_LINES;
 302:STM32Cube_FW_N6/Drivers/BSP/Components/mx66uw1g45g/mx66uw1g45g.c ****   s_command.InstructionDTRMode = HAL_XSPI_INSTRUCTION_DTR_DISABLE;
 303:STM32Cube_FW_N6/Drivers/BSP/Components/mx66uw1g45g/mx66uw1g45g.c ****   s_command.InstructionWidth = (Mode == MX66UW1G45G_SPI_MODE)
 304:STM32Cube_FW_N6/Drivers/BSP/Components/mx66uw1g45g/mx66uw1g45g.c ****                                    ? HAL_XSPI_INSTRUCTION_8_BITS
 305:STM32Cube_FW_N6/Drivers/BSP/Components/mx66uw1g45g/mx66uw1g45g.c ****                                    : HAL_XSPI_INSTRUCTION_16_BITS;
 306:STM32Cube_FW_N6/Drivers/BSP/Components/mx66uw1g45g/mx66uw1g45g.c ****   s_command.Instruction = (Mode == MX66UW1G45G_SPI_MODE)
 307:STM32Cube_FW_N6/Drivers/BSP/Components/mx66uw1g45g/mx66uw1g45g.c ****                               ? ((AddressWidth == MX66UW1G45G_3BYTES_SIZE)
 308:STM32Cube_FW_N6/Drivers/BSP/Components/mx66uw1g45g/mx66uw1g45g.c ****                                      ? MX66UW1G45G_PAGE_PROG_CMD
 309:STM32Cube_FW_N6/Drivers/BSP/Components/mx66uw1g45g/mx66uw1g45g.c ****                                      : MX66UW1G45G_4_BYTE_PAGE_PROG_CMD)
 310:STM32Cube_FW_N6/Drivers/BSP/Components/mx66uw1g45g/mx66uw1g45g.c ****                               : MX66UW1G45G_OCTA_PAGE_PROG_CMD;
 311:STM32Cube_FW_N6/Drivers/BSP/Components/mx66uw1g45g/mx66uw1g45g.c ****   s_command.AddressMode = (Mode == MX66UW1G45G_SPI_MODE)
 312:STM32Cube_FW_N6/Drivers/BSP/Components/mx66uw1g45g/mx66uw1g45g.c ****                               ? HAL_XSPI_ADDRESS_1_LINE
 313:STM32Cube_FW_N6/Drivers/BSP/Components/mx66uw1g45g/mx66uw1g45g.c ****                               : HAL_XSPI_ADDRESS_8_LINES;
 314:STM32Cube_FW_N6/Drivers/BSP/Components/mx66uw1g45g/mx66uw1g45g.c ****   s_command.AddressDTRMode = HAL_XSPI_ADDRESS_DTR_DISABLE;
 315:STM32Cube_FW_N6/Drivers/BSP/Components/mx66uw1g45g/mx66uw1g45g.c ****   s_command.AddressWidth = (AddressWidth == MX66UW1G45G_3BYTES_SIZE)
 316:STM32Cube_FW_N6/Drivers/BSP/Components/mx66uw1g45g/mx66uw1g45g.c ****                                ? HAL_XSPI_ADDRESS_24_BITS
 317:STM32Cube_FW_N6/Drivers/BSP/Components/mx66uw1g45g/mx66uw1g45g.c ****                                : HAL_XSPI_ADDRESS_32_BITS;
 318:STM32Cube_FW_N6/Drivers/BSP/Components/mx66uw1g45g/mx66uw1g45g.c ****   s_command.Address = WriteAddr;
 319:STM32Cube_FW_N6/Drivers/BSP/Components/mx66uw1g45g/mx66uw1g45g.c ****   s_command.AlternateBytesMode = HAL_XSPI_ALT_BYTES_NONE;
 320:STM32Cube_FW_N6/Drivers/BSP/Components/mx66uw1g45g/mx66uw1g45g.c ****   s_command.DataMode = (Mode == MX66UW1G45G_SPI_MODE) ? HAL_XSPI_DATA_1_LINE : HAL_XSPI_DATA_8_LINE
 321:STM32Cube_FW_N6/Drivers/BSP/Components/mx66uw1g45g/mx66uw1g45g.c ****   s_command.DataDTRMode = HAL_XSPI_DATA_DTR_DISABLE;
 322:STM32Cube_FW_N6/Drivers/BSP/Components/mx66uw1g45g/mx66uw1g45g.c ****   s_command.DummyCycles = 0U;
 323:STM32Cube_FW_N6/Drivers/BSP/Components/mx66uw1g45g/mx66uw1g45g.c ****   s_command.DataLength = Size;
 324:STM32Cube_FW_N6/Drivers/BSP/Components/mx66uw1g45g/mx66uw1g45g.c ****   s_command.DQSMode = HAL_XSPI_DQS_DISABLE;
 325:STM32Cube_FW_N6/Drivers/BSP/Components/mx66uw1g45g/mx66uw1g45g.c ****  #if defined (XSPI_CCR_SIOO)
 326:STM32Cube_FW_N6/Drivers/BSP/Components/mx66uw1g45g/mx66uw1g45g.c ****   s_command.SIOOMode            = HAL_XSPI_SIOO_INST_EVERY_CMD;
 327:STM32Cube_FW_N6/Drivers/BSP/Components/mx66uw1g45g/mx66uw1g45g.c ****  #endif
ARM GAS  C:\Users\DJESSOU\AppData\Local\Temp\ccAx4BcF.s 			page 20


 328:STM32Cube_FW_N6/Drivers/BSP/Components/mx66uw1g45g/mx66uw1g45g.c **** 
 329:STM32Cube_FW_N6/Drivers/BSP/Components/mx66uw1g45g/mx66uw1g45g.c ****   /* Configure the command */
 330:STM32Cube_FW_N6/Drivers/BSP/Components/mx66uw1g45g/mx66uw1g45g.c ****   if (HAL_XSPI_Command(Ctx, &s_command, HAL_XSPI_TIMEOUT_DEFAULT_VALUE) != HAL_OK)
 331:STM32Cube_FW_N6/Drivers/BSP/Components/mx66uw1g45g/mx66uw1g45g.c ****   {
 332:STM32Cube_FW_N6/Drivers/BSP/Components/mx66uw1g45g/mx66uw1g45g.c ****     return MX66UW1G45G_ERROR;
 333:STM32Cube_FW_N6/Drivers/BSP/Components/mx66uw1g45g/mx66uw1g45g.c ****   }
 334:STM32Cube_FW_N6/Drivers/BSP/Components/mx66uw1g45g/mx66uw1g45g.c **** 
 335:STM32Cube_FW_N6/Drivers/BSP/Components/mx66uw1g45g/mx66uw1g45g.c ****   /* Transmission of the data */
 336:STM32Cube_FW_N6/Drivers/BSP/Components/mx66uw1g45g/mx66uw1g45g.c ****   if (HAL_XSPI_Transmit(Ctx, pData, HAL_XSPI_TIMEOUT_DEFAULT_VALUE) != HAL_OK)
 337:STM32Cube_FW_N6/Drivers/BSP/Components/mx66uw1g45g/mx66uw1g45g.c ****   {
 338:STM32Cube_FW_N6/Drivers/BSP/Components/mx66uw1g45g/mx66uw1g45g.c ****     return MX66UW1G45G_ERROR;
 339:STM32Cube_FW_N6/Drivers/BSP/Components/mx66uw1g45g/mx66uw1g45g.c ****   }
 340:STM32Cube_FW_N6/Drivers/BSP/Components/mx66uw1g45g/mx66uw1g45g.c **** 
 341:STM32Cube_FW_N6/Drivers/BSP/Components/mx66uw1g45g/mx66uw1g45g.c ****   return MX66UW1G45G_OK;
 342:STM32Cube_FW_N6/Drivers/BSP/Components/mx66uw1g45g/mx66uw1g45g.c **** }
 633              		.loc 1 342 1 view .LVU209
 634 0020 15B0     		add	sp, sp, #84
 635              		.cfi_remember_state
 636              		.cfi_def_cfa_offset 20
 637              		@ sp needed
 638 0022 F0BD     		pop	{r4, r5, r6, r7, pc}
 639              	.LVL32:
 640              	.L37:
 641              		.cfi_restore_state
 298:STM32Cube_FW_N6/Drivers/BSP/Components/mx66uw1g45g/mx66uw1g45g.c ****   s_command.InstructionMode = (Mode == MX66UW1G45G_SPI_MODE)
 642              		.loc 1 298 3 is_stmt 1 view .LVU210
 299:STM32Cube_FW_N6/Drivers/BSP/Components/mx66uw1g45g/mx66uw1g45g.c ****                                   ? HAL_XSPI_INSTRUCTION_1_LINE
 643              		.loc 1 299 3 view .LVU211
 301:STM32Cube_FW_N6/Drivers/BSP/Components/mx66uw1g45g/mx66uw1g45g.c ****   s_command.InstructionDTRMode = HAL_XSPI_INSTRUCTION_DTR_DISABLE;
 644              		.loc 1 301 35 is_stmt 0 view .LVU212
 645 0024 74B3     		cbz	r4, .L40
 646              	.L38:
 303:STM32Cube_FW_N6/Drivers/BSP/Components/mx66uw1g45g/mx66uw1g45g.c ****                                    ? HAL_XSPI_INSTRUCTION_8_BITS
 647              		.loc 1 303 30 view .LVU213
 648 0026 0422     		movs	r2, #4
 649 0028 1023     		movs	r3, #16
 650 002a CDE90423 		strd	r2, r3, [sp, #16]
 306:STM32Cube_FW_N6/Drivers/BSP/Components/mx66uw1g45g/mx66uw1g45g.c ****                               ? ((AddressWidth == MX66UW1G45G_3BYTES_SIZE)
 651              		.loc 1 306 3 is_stmt 1 view .LVU214
 311:STM32Cube_FW_N6/Drivers/BSP/Components/mx66uw1g45g/mx66uw1g45g.c ****                               ? HAL_XSPI_ADDRESS_1_LINE
 652              		.loc 1 311 3 view .LVU215
 303:STM32Cube_FW_N6/Drivers/BSP/Components/mx66uw1g45g/mx66uw1g45g.c ****                                    ? HAL_XSPI_INSTRUCTION_8_BITS
 653              		.loc 1 303 30 is_stmt 0 view .LVU216
 654 002e 41F2ED22 		movw	r2, #4845
 313:STM32Cube_FW_N6/Drivers/BSP/Components/mx66uw1g45g/mx66uw1g45g.c ****   s_command.AddressDTRMode = HAL_XSPI_ADDRESS_DTR_DISABLE;
 655              		.loc 1 313 31 discriminator 2 view .LVU217
 656 0032 4FF48063 		mov	r3, #1024
 657              	.L41:
 317:STM32Cube_FW_N6/Drivers/BSP/Components/mx66uw1g45g/mx66uw1g45g.c ****   s_command.Address = WriteAddr;
 658              		.loc 1 317 32 discriminator 1 view .LVU218
 659 0036 002D     		cmp	r5, #0
 311:STM32Cube_FW_N6/Drivers/BSP/Components/mx66uw1g45g/mx66uw1g45g.c ****                               ? HAL_XSPI_ADDRESS_1_LINE
 660              		.loc 1 311 25 view .LVU219
 661 0038 0893     		str	r3, [sp, #32]
 314:STM32Cube_FW_N6/Drivers/BSP/Components/mx66uw1g45g/mx66uw1g45g.c ****   s_command.AddressWidth = (AddressWidth == MX66UW1G45G_3BYTES_SIZE)
 662              		.loc 1 314 3 is_stmt 1 view .LVU220
 315:STM32Cube_FW_N6/Drivers/BSP/Components/mx66uw1g45g/mx66uw1g45g.c ****                                ? HAL_XSPI_ADDRESS_24_BITS
ARM GAS  C:\Users\DJESSOU\AppData\Local\Temp\ccAx4BcF.s 			page 21


 663              		.loc 1 315 3 view .LVU221
 317:STM32Cube_FW_N6/Drivers/BSP/Components/mx66uw1g45g/mx66uw1g45g.c ****   s_command.Address = WriteAddr;
 664              		.loc 1 317 32 is_stmt 0 discriminator 1 view .LVU222
 665 003a 14BF     		ite	ne
 666 003c 4FF44053 		movne	r3, #12288
 667 0040 4FF40053 		moveq	r3, #8192
 315:STM32Cube_FW_N6/Drivers/BSP/Components/mx66uw1g45g/mx66uw1g45g.c ****                                ? HAL_XSPI_ADDRESS_24_BITS
 668              		.loc 1 315 26 view .LVU223
 669 0044 0993     		str	r3, [sp, #36]
 318:STM32Cube_FW_N6/Drivers/BSP/Components/mx66uw1g45g/mx66uw1g45g.c ****   s_command.AlternateBytesMode = HAL_XSPI_ALT_BYTES_NONE;
 670              		.loc 1 318 3 is_stmt 1 view .LVU224
 318:STM32Cube_FW_N6/Drivers/BSP/Components/mx66uw1g45g/mx66uw1g45g.c ****   s_command.AlternateBytesMode = HAL_XSPI_ALT_BYTES_NONE;
 671              		.loc 1 318 21 is_stmt 0 view .LVU225
 672 0046 1A9B     		ldr	r3, [sp, #104]
 320:STM32Cube_FW_N6/Drivers/BSP/Components/mx66uw1g45g/mx66uw1g45g.c ****   s_command.DataDTRMode = HAL_XSPI_DATA_DTR_DISABLE;
 673              		.loc 1 320 78 discriminator 1 view .LVU226
 674 0048 002C     		cmp	r4, #0
 318:STM32Cube_FW_N6/Drivers/BSP/Components/mx66uw1g45g/mx66uw1g45g.c ****   s_command.AlternateBytesMode = HAL_XSPI_ALT_BYTES_NONE;
 675              		.loc 1 318 21 view .LVU227
 676 004a 0793     		str	r3, [sp, #28]
 319:STM32Cube_FW_N6/Drivers/BSP/Components/mx66uw1g45g/mx66uw1g45g.c ****   s_command.DataMode = (Mode == MX66UW1G45G_SPI_MODE) ? HAL_XSPI_DATA_1_LINE : HAL_XSPI_DATA_8_LINE
 677              		.loc 1 319 3 is_stmt 1 view .LVU228
 320:STM32Cube_FW_N6/Drivers/BSP/Components/mx66uw1g45g/mx66uw1g45g.c ****   s_command.DataDTRMode = HAL_XSPI_DATA_DTR_DISABLE;
 678              		.loc 1 320 3 view .LVU229
 320:STM32Cube_FW_N6/Drivers/BSP/Components/mx66uw1g45g/mx66uw1g45g.c ****   s_command.DataDTRMode = HAL_XSPI_DATA_DTR_DISABLE;
 679              		.loc 1 320 78 is_stmt 0 discriminator 1 view .LVU230
 680 004c 14BF     		ite	ne
 681 004e 4FF08063 		movne	r3, #67108864
 682 0052 4FF08073 		moveq	r3, #16777216
 320:STM32Cube_FW_N6/Drivers/BSP/Components/mx66uw1g45g/mx66uw1g45g.c ****   s_command.DataDTRMode = HAL_XSPI_DATA_DTR_DISABLE;
 683              		.loc 1 320 22 discriminator 4 view .LVU231
 684 0056 0F93     		str	r3, [sp, #60]
 321:STM32Cube_FW_N6/Drivers/BSP/Components/mx66uw1g45g/mx66uw1g45g.c ****   s_command.DummyCycles = 0U;
 685              		.loc 1 321 3 is_stmt 1 view .LVU232
 322:STM32Cube_FW_N6/Drivers/BSP/Components/mx66uw1g45g/mx66uw1g45g.c ****   s_command.DataLength = Size;
 686              		.loc 1 322 3 view .LVU233
 323:STM32Cube_FW_N6/Drivers/BSP/Components/mx66uw1g45g/mx66uw1g45g.c ****   s_command.DQSMode = HAL_XSPI_DQS_DISABLE;
 687              		.loc 1 323 3 view .LVU234
 323:STM32Cube_FW_N6/Drivers/BSP/Components/mx66uw1g45g/mx66uw1g45g.c ****   s_command.DQSMode = HAL_XSPI_DQS_DISABLE;
 688              		.loc 1 323 24 is_stmt 0 view .LVU235
 689 0058 1B9B     		ldr	r3, [sp, #108]
 306:STM32Cube_FW_N6/Drivers/BSP/Components/mx66uw1g45g/mx66uw1g45g.c ****                               ? ((AddressWidth == MX66UW1G45G_3BYTES_SIZE)
 690              		.loc 1 306 25 view .LVU236
 691 005a 0392     		str	r2, [sp, #12]
 330:STM32Cube_FW_N6/Drivers/BSP/Components/mx66uw1g45g/mx66uw1g45g.c ****   {
 692              		.loc 1 330 7 view .LVU237
 693 005c 3046     		mov	r0, r6
 694 005e 41F28832 		movw	r2, #5000
 695 0062 01A9     		add	r1, sp, #4
 323:STM32Cube_FW_N6/Drivers/BSP/Components/mx66uw1g45g/mx66uw1g45g.c ****   s_command.DQSMode = HAL_XSPI_DQS_DISABLE;
 696              		.loc 1 323 24 view .LVU238
 697 0064 1093     		str	r3, [sp, #64]
 324:STM32Cube_FW_N6/Drivers/BSP/Components/mx66uw1g45g/mx66uw1g45g.c ****  #if defined (XSPI_CCR_SIOO)
 698              		.loc 1 324 3 is_stmt 1 view .LVU239
 330:STM32Cube_FW_N6/Drivers/BSP/Components/mx66uw1g45g/mx66uw1g45g.c ****   {
 699              		.loc 1 330 3 view .LVU240
 330:STM32Cube_FW_N6/Drivers/BSP/Components/mx66uw1g45g/mx66uw1g45g.c ****   {
ARM GAS  C:\Users\DJESSOU\AppData\Local\Temp\ccAx4BcF.s 			page 22


 700              		.loc 1 330 7 is_stmt 0 view .LVU241
 701 0066 FFF7FEFF 		bl	HAL_XSPI_Command
 702              	.LVL33:
 330:STM32Cube_FW_N6/Drivers/BSP/Components/mx66uw1g45g/mx66uw1g45g.c ****   {
 703              		.loc 1 330 6 discriminator 1 view .LVU242
 704 006a 0028     		cmp	r0, #0
 705 006c D6D1     		bne	.L45
 336:STM32Cube_FW_N6/Drivers/BSP/Components/mx66uw1g45g/mx66uw1g45g.c ****   {
 706              		.loc 1 336 3 is_stmt 1 view .LVU243
 336:STM32Cube_FW_N6/Drivers/BSP/Components/mx66uw1g45g/mx66uw1g45g.c ****   {
 707              		.loc 1 336 7 is_stmt 0 view .LVU244
 708 006e 41F28832 		movw	r2, #5000
 709 0072 3946     		mov	r1, r7
 710 0074 3046     		mov	r0, r6
 711 0076 FFF7FEFF 		bl	HAL_XSPI_Transmit
 712              	.LVL34:
 336:STM32Cube_FW_N6/Drivers/BSP/Components/mx66uw1g45g/mx66uw1g45g.c ****   {
 713              		.loc 1 336 6 discriminator 1 view .LVU245
 714 007a 0038     		subs	r0, r0, #0
 715 007c 18BF     		it	ne
 716 007e 0120     		movne	r0, #1
 717 0080 4042     		rsbs	r0, r0, #0
 718 0082 CDE7     		b	.L36
 719              	.L40:
 299:STM32Cube_FW_N6/Drivers/BSP/Components/mx66uw1g45g/mx66uw1g45g.c ****                                   ? HAL_XSPI_INSTRUCTION_1_LINE
 720              		.loc 1 299 29 view .LVU246
 721 0084 0123     		movs	r3, #1
 310:STM32Cube_FW_N6/Drivers/BSP/Components/mx66uw1g45g/mx66uw1g45g.c ****   s_command.AddressMode = (Mode == MX66UW1G45G_SPI_MODE)
 722              		.loc 1 310 31 discriminator 3 view .LVU247
 723 0086 002D     		cmp	r5, #0
 299:STM32Cube_FW_N6/Drivers/BSP/Components/mx66uw1g45g/mx66uw1g45g.c ****                                   ? HAL_XSPI_INSTRUCTION_1_LINE
 724              		.loc 1 299 29 view .LVU248
 725 0088 0493     		str	r3, [sp, #16]
 302:STM32Cube_FW_N6/Drivers/BSP/Components/mx66uw1g45g/mx66uw1g45g.c ****   s_command.InstructionWidth = (Mode == MX66UW1G45G_SPI_MODE)
 726              		.loc 1 302 3 is_stmt 1 view .LVU249
 303:STM32Cube_FW_N6/Drivers/BSP/Components/mx66uw1g45g/mx66uw1g45g.c ****                                    ? HAL_XSPI_INSTRUCTION_8_BITS
 727              		.loc 1 303 3 view .LVU250
 306:STM32Cube_FW_N6/Drivers/BSP/Components/mx66uw1g45g/mx66uw1g45g.c ****                               ? ((AddressWidth == MX66UW1G45G_3BYTES_SIZE)
 728              		.loc 1 306 3 view .LVU251
 310:STM32Cube_FW_N6/Drivers/BSP/Components/mx66uw1g45g/mx66uw1g45g.c ****   s_command.AddressMode = (Mode == MX66UW1G45G_SPI_MODE)
 729              		.loc 1 310 31 is_stmt 0 discriminator 3 view .LVU252
 730 008a 14BF     		ite	ne
 731 008c 1222     		movne	r2, #18
 732 008e 0222     		moveq	r2, #2
 311:STM32Cube_FW_N6/Drivers/BSP/Components/mx66uw1g45g/mx66uw1g45g.c ****                               ? HAL_XSPI_ADDRESS_1_LINE
 733              		.loc 1 311 3 is_stmt 1 view .LVU253
 313:STM32Cube_FW_N6/Drivers/BSP/Components/mx66uw1g45g/mx66uw1g45g.c ****   s_command.AddressDTRMode = HAL_XSPI_ADDRESS_DTR_DISABLE;
 734              		.loc 1 313 31 is_stmt 0 discriminator 1 view .LVU254
 735 0090 4FF48073 		mov	r3, #256
 736 0094 CFE7     		b	.L41
 737              		.cfi_endproc
 738              	.LFE866:
 740              		.section	.text.MX66UW1G45G_PageProgramDTR,"ax",%progbits
 741              		.align	1
 742              		.global	MX66UW1G45G_PageProgramDTR
 743              		.syntax unified
 744              		.thumb
ARM GAS  C:\Users\DJESSOU\AppData\Local\Temp\ccAx4BcF.s 			page 23


 745              		.thumb_func
 747              	MX66UW1G45G_PageProgramDTR:
 748              	.LVL35:
 749              	.LFB867:
 343:STM32Cube_FW_N6/Drivers/BSP/Components/mx66uw1g45g/mx66uw1g45g.c **** 
 344:STM32Cube_FW_N6/Drivers/BSP/Components/mx66uw1g45g/mx66uw1g45g.c **** /**
 345:STM32Cube_FW_N6/Drivers/BSP/Components/mx66uw1g45g/mx66uw1g45g.c ****   * @brief  Writes an amount of data to the XSPI memory on DTR mode.
 346:STM32Cube_FW_N6/Drivers/BSP/Components/mx66uw1g45g/mx66uw1g45g.c ****   *         SPI/OPI
 347:STM32Cube_FW_N6/Drivers/BSP/Components/mx66uw1g45g/mx66uw1g45g.c ****   * @param  Ctx Component object pointer
 348:STM32Cube_FW_N6/Drivers/BSP/Components/mx66uw1g45g/mx66uw1g45g.c ****   * @param  pData Pointer to data to be written
 349:STM32Cube_FW_N6/Drivers/BSP/Components/mx66uw1g45g/mx66uw1g45g.c ****   * @param  WriteAddr Write start address
 350:STM32Cube_FW_N6/Drivers/BSP/Components/mx66uw1g45g/mx66uw1g45g.c ****   * @param  Size Size of data to write. Range 1 ~ MX66UW1G45G_PAGE_SIZE
 351:STM32Cube_FW_N6/Drivers/BSP/Components/mx66uw1g45g/mx66uw1g45g.c ****   * @note   Only OPI mode support DTR transfer rate
 352:STM32Cube_FW_N6/Drivers/BSP/Components/mx66uw1g45g/mx66uw1g45g.c ****   * @retval XSPI memory status
 353:STM32Cube_FW_N6/Drivers/BSP/Components/mx66uw1g45g/mx66uw1g45g.c ****   */
 354:STM32Cube_FW_N6/Drivers/BSP/Components/mx66uw1g45g/mx66uw1g45g.c **** int32_t MX66UW1G45G_PageProgramDTR(XSPI_HandleTypeDef *Ctx, uint8_t *pData, uint32_t WriteAddr, uin
 355:STM32Cube_FW_N6/Drivers/BSP/Components/mx66uw1g45g/mx66uw1g45g.c **** {
 750              		.loc 1 355 1 is_stmt 1 view -0
 751              		.cfi_startproc
 752              		@ args = 0, pretend = 0, frame = 80
 753              		@ frame_needed = 0, uses_anonymous_args = 0
 356:STM32Cube_FW_N6/Drivers/BSP/Components/mx66uw1g45g/mx66uw1g45g.c ****   XSPI_RegularCmdTypeDef s_command = {0};
 754              		.loc 1 356 3 view .LVU256
 355:STM32Cube_FW_N6/Drivers/BSP/Components/mx66uw1g45g/mx66uw1g45g.c ****   XSPI_RegularCmdTypeDef s_command = {0};
 755              		.loc 1 355 1 is_stmt 0 view .LVU257
 756 0000 F0B5     		push	{r4, r5, r6, r7, lr}
 757              		.cfi_def_cfa_offset 20
 758              		.cfi_offset 4, -20
 759              		.cfi_offset 5, -16
 760              		.cfi_offset 6, -12
 761              		.cfi_offset 7, -8
 762              		.cfi_offset 14, -4
 763 0002 95B0     		sub	sp, sp, #84
 764              		.cfi_def_cfa_offset 104
 355:STM32Cube_FW_N6/Drivers/BSP/Components/mx66uw1g45g/mx66uw1g45g.c ****   XSPI_RegularCmdTypeDef s_command = {0};
 765              		.loc 1 355 1 view .LVU258
 766 0004 0446     		mov	r4, r0
 767 0006 1746     		mov	r7, r2
 768 0008 0D46     		mov	r5, r1
 769              		.loc 1 356 26 view .LVU259
 770 000a 4C22     		movs	r2, #76
 771              	.LVL36:
 772              		.loc 1 356 26 view .LVU260
 773 000c 0021     		movs	r1, #0
 774              	.LVL37:
 775              		.loc 1 356 26 view .LVU261
 776 000e 01A8     		add	r0, sp, #4
 777              	.LVL38:
 355:STM32Cube_FW_N6/Drivers/BSP/Components/mx66uw1g45g/mx66uw1g45g.c ****   XSPI_RegularCmdTypeDef s_command = {0};
 778              		.loc 1 355 1 view .LVU262
 779 0010 1E46     		mov	r6, r3
 780              		.loc 1 356 26 view .LVU263
 781 0012 FFF7FEFF 		bl	memset
 782              	.LVL39:
 357:STM32Cube_FW_N6/Drivers/BSP/Components/mx66uw1g45g/mx66uw1g45g.c **** 
 358:STM32Cube_FW_N6/Drivers/BSP/Components/mx66uw1g45g/mx66uw1g45g.c ****   /* Initialize the program command */
 359:STM32Cube_FW_N6/Drivers/BSP/Components/mx66uw1g45g/mx66uw1g45g.c ****   s_command.OperationType = HAL_XSPI_OPTYPE_COMMON_CFG;
ARM GAS  C:\Users\DJESSOU\AppData\Local\Temp\ccAx4BcF.s 			page 24


 783              		.loc 1 359 3 is_stmt 1 view .LVU264
 360:STM32Cube_FW_N6/Drivers/BSP/Components/mx66uw1g45g/mx66uw1g45g.c ****   s_command.InstructionMode = HAL_XSPI_INSTRUCTION_8_LINES;
 784              		.loc 1 360 3 view .LVU265
 785              		.loc 1 360 29 is_stmt 0 view .LVU266
 786 0016 0423     		movs	r3, #4
 361:STM32Cube_FW_N6/Drivers/BSP/Components/mx66uw1g45g/mx66uw1g45g.c ****   s_command.InstructionDTRMode = HAL_XSPI_INSTRUCTION_DTR_ENABLE;
 362:STM32Cube_FW_N6/Drivers/BSP/Components/mx66uw1g45g/mx66uw1g45g.c ****   s_command.InstructionWidth = HAL_XSPI_INSTRUCTION_16_BITS;
 787              		.loc 1 362 30 view .LVU267
 788 0018 0821     		movs	r1, #8
 360:STM32Cube_FW_N6/Drivers/BSP/Components/mx66uw1g45g/mx66uw1g45g.c ****   s_command.InstructionMode = HAL_XSPI_INSTRUCTION_8_LINES;
 789              		.loc 1 360 29 view .LVU268
 790 001a 0493     		str	r3, [sp, #16]
 361:STM32Cube_FW_N6/Drivers/BSP/Components/mx66uw1g45g/mx66uw1g45g.c ****   s_command.InstructionDTRMode = HAL_XSPI_INSTRUCTION_DTR_ENABLE;
 791              		.loc 1 361 3 is_stmt 1 view .LVU269
 792              		.loc 1 362 30 is_stmt 0 view .LVU270
 793 001c 1023     		movs	r3, #16
 794 001e CDE90531 		strd	r3, r1, [sp, #20]
 363:STM32Cube_FW_N6/Drivers/BSP/Components/mx66uw1g45g/mx66uw1g45g.c ****   s_command.Instruction = MX66UW1G45G_OCTA_PAGE_PROG_CMD;
 795              		.loc 1 363 3 is_stmt 1 view .LVU271
 796              		.loc 1 363 25 is_stmt 0 view .LVU272
 797 0022 41F2ED23 		movw	r3, #4845
 798 0026 0393     		str	r3, [sp, #12]
 364:STM32Cube_FW_N6/Drivers/BSP/Components/mx66uw1g45g/mx66uw1g45g.c ****   s_command.AddressMode = HAL_XSPI_ADDRESS_8_LINES;
 799              		.loc 1 364 3 is_stmt 1 view .LVU273
 800              		.loc 1 364 25 is_stmt 0 view .LVU274
 801 0028 4FF48063 		mov	r3, #1024
 365:STM32Cube_FW_N6/Drivers/BSP/Components/mx66uw1g45g/mx66uw1g45g.c ****   s_command.AddressDTRMode = HAL_XSPI_ADDRESS_DTR_ENABLE;
 366:STM32Cube_FW_N6/Drivers/BSP/Components/mx66uw1g45g/mx66uw1g45g.c ****   s_command.AddressWidth = HAL_XSPI_ADDRESS_32_BITS;
 802              		.loc 1 366 26 view .LVU275
 803 002c 4FF4006E 		mov	lr, #2048
 364:STM32Cube_FW_N6/Drivers/BSP/Components/mx66uw1g45g/mx66uw1g45g.c ****   s_command.AddressMode = HAL_XSPI_ADDRESS_8_LINES;
 804              		.loc 1 364 25 view .LVU276
 805 0030 0893     		str	r3, [sp, #32]
 365:STM32Cube_FW_N6/Drivers/BSP/Components/mx66uw1g45g/mx66uw1g45g.c ****   s_command.AddressDTRMode = HAL_XSPI_ADDRESS_DTR_ENABLE;
 806              		.loc 1 365 3 is_stmt 1 view .LVU277
 807              		.loc 1 366 26 is_stmt 0 view .LVU278
 808 0032 4FF44053 		mov	r3, #12288
 809 0036 CDE9093E 		strd	r3, lr, [sp, #36]
 367:STM32Cube_FW_N6/Drivers/BSP/Components/mx66uw1g45g/mx66uw1g45g.c ****   s_command.Address = WriteAddr;
 810              		.loc 1 367 3 is_stmt 1 view .LVU279
 368:STM32Cube_FW_N6/Drivers/BSP/Components/mx66uw1g45g/mx66uw1g45g.c ****   s_command.AlternateBytesMode = HAL_XSPI_ALT_BYTES_NONE;
 369:STM32Cube_FW_N6/Drivers/BSP/Components/mx66uw1g45g/mx66uw1g45g.c ****   s_command.DataMode = HAL_XSPI_DATA_8_LINES;
 811              		.loc 1 369 22 is_stmt 0 view .LVU280
 812 003a 4FF08063 		mov	r3, #67108864
 813 003e 0F93     		str	r3, [sp, #60]
 370:STM32Cube_FW_N6/Drivers/BSP/Components/mx66uw1g45g/mx66uw1g45g.c ****   s_command.DataDTRMode = HAL_XSPI_DATA_DTR_ENABLE;
 814              		.loc 1 370 25 view .LVU281
 815 0040 4FF00063 		mov	r3, #134217728
 371:STM32Cube_FW_N6/Drivers/BSP/Components/mx66uw1g45g/mx66uw1g45g.c ****   s_command.DummyCycles = 0U;
 372:STM32Cube_FW_N6/Drivers/BSP/Components/mx66uw1g45g/mx66uw1g45g.c ****   s_command.DataLength = Size;
 373:STM32Cube_FW_N6/Drivers/BSP/Components/mx66uw1g45g/mx66uw1g45g.c ****   s_command.DQSMode = HAL_XSPI_DQS_DISABLE;
 374:STM32Cube_FW_N6/Drivers/BSP/Components/mx66uw1g45g/mx66uw1g45g.c ****  #if defined (XSPI_CCR_SIOO)
 375:STM32Cube_FW_N6/Drivers/BSP/Components/mx66uw1g45g/mx66uw1g45g.c ****   s_command.SIOOMode            = HAL_XSPI_SIOO_INST_EVERY_CMD;
 376:STM32Cube_FW_N6/Drivers/BSP/Components/mx66uw1g45g/mx66uw1g45g.c ****  #endif
 377:STM32Cube_FW_N6/Drivers/BSP/Components/mx66uw1g45g/mx66uw1g45g.c **** 
 378:STM32Cube_FW_N6/Drivers/BSP/Components/mx66uw1g45g/mx66uw1g45g.c ****   /* Configure the command */
 379:STM32Cube_FW_N6/Drivers/BSP/Components/mx66uw1g45g/mx66uw1g45g.c ****   if (HAL_XSPI_Command(Ctx, &s_command, HAL_XSPI_TIMEOUT_DEFAULT_VALUE) != HAL_OK)
ARM GAS  C:\Users\DJESSOU\AppData\Local\Temp\ccAx4BcF.s 			page 25


 816              		.loc 1 379 7 view .LVU282
 817 0044 41F28832 		movw	r2, #5000
 818 0048 2046     		mov	r0, r4
 819 004a 01A9     		add	r1, sp, #4
 372:STM32Cube_FW_N6/Drivers/BSP/Components/mx66uw1g45g/mx66uw1g45g.c ****   s_command.DQSMode = HAL_XSPI_DQS_DISABLE;
 820              		.loc 1 372 24 view .LVU283
 821 004c CDE91063 		strd	r6, r3, [sp, #64]
 367:STM32Cube_FW_N6/Drivers/BSP/Components/mx66uw1g45g/mx66uw1g45g.c ****   s_command.AlternateBytesMode = HAL_XSPI_ALT_BYTES_NONE;
 822              		.loc 1 367 21 view .LVU284
 823 0050 0797     		str	r7, [sp, #28]
 368:STM32Cube_FW_N6/Drivers/BSP/Components/mx66uw1g45g/mx66uw1g45g.c ****   s_command.DataMode = HAL_XSPI_DATA_8_LINES;
 824              		.loc 1 368 3 is_stmt 1 view .LVU285
 369:STM32Cube_FW_N6/Drivers/BSP/Components/mx66uw1g45g/mx66uw1g45g.c ****   s_command.DataDTRMode = HAL_XSPI_DATA_DTR_ENABLE;
 825              		.loc 1 369 3 view .LVU286
 370:STM32Cube_FW_N6/Drivers/BSP/Components/mx66uw1g45g/mx66uw1g45g.c ****   s_command.DummyCycles = 0U;
 826              		.loc 1 370 3 view .LVU287
 373:STM32Cube_FW_N6/Drivers/BSP/Components/mx66uw1g45g/mx66uw1g45g.c ****  #if defined (XSPI_CCR_SIOO)
 827              		.loc 1 373 3 view .LVU288
 828              		.loc 1 379 3 view .LVU289
 829              		.loc 1 379 7 is_stmt 0 view .LVU290
 830 0052 FFF7FEFF 		bl	HAL_XSPI_Command
 831              	.LVL40:
 832              		.loc 1 379 6 discriminator 1 view .LVU291
 833 0056 58B9     		cbnz	r0, .L51
 380:STM32Cube_FW_N6/Drivers/BSP/Components/mx66uw1g45g/mx66uw1g45g.c ****   {
 381:STM32Cube_FW_N6/Drivers/BSP/Components/mx66uw1g45g/mx66uw1g45g.c ****     return MX66UW1G45G_ERROR;
 382:STM32Cube_FW_N6/Drivers/BSP/Components/mx66uw1g45g/mx66uw1g45g.c ****   }
 383:STM32Cube_FW_N6/Drivers/BSP/Components/mx66uw1g45g/mx66uw1g45g.c **** 
 384:STM32Cube_FW_N6/Drivers/BSP/Components/mx66uw1g45g/mx66uw1g45g.c ****   /* Transmission of the data */
 385:STM32Cube_FW_N6/Drivers/BSP/Components/mx66uw1g45g/mx66uw1g45g.c ****   if (HAL_XSPI_Transmit(Ctx, pData, HAL_XSPI_TIMEOUT_DEFAULT_VALUE) != HAL_OK)
 834              		.loc 1 385 3 is_stmt 1 view .LVU292
 835              		.loc 1 385 7 is_stmt 0 view .LVU293
 836 0058 41F28832 		movw	r2, #5000
 837 005c 2946     		mov	r1, r5
 838 005e 2046     		mov	r0, r4
 839 0060 FFF7FEFF 		bl	HAL_XSPI_Transmit
 840              	.LVL41:
 841              		.loc 1 385 6 discriminator 1 view .LVU294
 842 0064 0038     		subs	r0, r0, #0
 843 0066 18BF     		it	ne
 844 0068 0120     		movne	r0, #1
 845 006a 4042     		rsbs	r0, r0, #0
 846              	.L49:
 386:STM32Cube_FW_N6/Drivers/BSP/Components/mx66uw1g45g/mx66uw1g45g.c ****   {
 387:STM32Cube_FW_N6/Drivers/BSP/Components/mx66uw1g45g/mx66uw1g45g.c ****     return MX66UW1G45G_ERROR;
 388:STM32Cube_FW_N6/Drivers/BSP/Components/mx66uw1g45g/mx66uw1g45g.c ****   }
 389:STM32Cube_FW_N6/Drivers/BSP/Components/mx66uw1g45g/mx66uw1g45g.c **** 
 390:STM32Cube_FW_N6/Drivers/BSP/Components/mx66uw1g45g/mx66uw1g45g.c ****   return MX66UW1G45G_OK;
 391:STM32Cube_FW_N6/Drivers/BSP/Components/mx66uw1g45g/mx66uw1g45g.c **** }
 847              		.loc 1 391 1 view .LVU295
 848 006c 15B0     		add	sp, sp, #84
 849              		.cfi_remember_state
 850              		.cfi_def_cfa_offset 20
 851              		@ sp needed
 852 006e F0BD     		pop	{r4, r5, r6, r7, pc}
 853              	.LVL42:
 854              	.L51:
ARM GAS  C:\Users\DJESSOU\AppData\Local\Temp\ccAx4BcF.s 			page 26


 855              		.cfi_restore_state
 381:STM32Cube_FW_N6/Drivers/BSP/Components/mx66uw1g45g/mx66uw1g45g.c ****   }
 856              		.loc 1 381 12 view .LVU296
 857 0070 4FF0FF30 		mov	r0, #-1
 858 0074 FAE7     		b	.L49
 859              		.cfi_endproc
 860              	.LFE867:
 862              		.section	.text.MX66UW1G45G_BlockErase,"ax",%progbits
 863              		.align	1
 864              		.global	MX66UW1G45G_BlockErase
 865              		.syntax unified
 866              		.thumb
 867              		.thumb_func
 869              	MX66UW1G45G_BlockErase:
 870              	.LVL43:
 871              	.LFB868:
 392:STM32Cube_FW_N6/Drivers/BSP/Components/mx66uw1g45g/mx66uw1g45g.c **** 
 393:STM32Cube_FW_N6/Drivers/BSP/Components/mx66uw1g45g/mx66uw1g45g.c **** /**
 394:STM32Cube_FW_N6/Drivers/BSP/Components/mx66uw1g45g/mx66uw1g45g.c ****   * @brief  Erases the specified block of the XSPI memory.
 395:STM32Cube_FW_N6/Drivers/BSP/Components/mx66uw1g45g/mx66uw1g45g.c ****   *         MX66UW1G45G support 4K, 64K size block erase commands.
 396:STM32Cube_FW_N6/Drivers/BSP/Components/mx66uw1g45g/mx66uw1g45g.c ****   *         SPI/OPI; 1-1-1/8-8-8
 397:STM32Cube_FW_N6/Drivers/BSP/Components/mx66uw1g45g/mx66uw1g45g.c ****   * @param  Ctx Component object pointer
 398:STM32Cube_FW_N6/Drivers/BSP/Components/mx66uw1g45g/mx66uw1g45g.c ****   * @param  Mode Interface mode
 399:STM32Cube_FW_N6/Drivers/BSP/Components/mx66uw1g45g/mx66uw1g45g.c ****   * @param  AddressWidth Address size
 400:STM32Cube_FW_N6/Drivers/BSP/Components/mx66uw1g45g/mx66uw1g45g.c ****   * @param  BlockAddress Block address to erase
 401:STM32Cube_FW_N6/Drivers/BSP/Components/mx66uw1g45g/mx66uw1g45g.c ****   * @param  BlockSize Block size to erase
 402:STM32Cube_FW_N6/Drivers/BSP/Components/mx66uw1g45g/mx66uw1g45g.c ****   * @retval XSPI memory status
 403:STM32Cube_FW_N6/Drivers/BSP/Components/mx66uw1g45g/mx66uw1g45g.c ****   */
 404:STM32Cube_FW_N6/Drivers/BSP/Components/mx66uw1g45g/mx66uw1g45g.c **** 
 405:STM32Cube_FW_N6/Drivers/BSP/Components/mx66uw1g45g/mx66uw1g45g.c **** int32_t MX66UW1G45G_BlockErase(XSPI_HandleTypeDef *Ctx, MX66UW1G45G_Interface_t Mode, MX66UW1G45G_T
 406:STM32Cube_FW_N6/Drivers/BSP/Components/mx66uw1g45g/mx66uw1g45g.c ****                                MX66UW1G45G_AddressWidth_t AddressWidth, uint32_t BlockAddress,
 407:STM32Cube_FW_N6/Drivers/BSP/Components/mx66uw1g45g/mx66uw1g45g.c ****                                MX66UW1G45G_Erase_t BlockSize)
 408:STM32Cube_FW_N6/Drivers/BSP/Components/mx66uw1g45g/mx66uw1g45g.c **** {
 872              		.loc 1 408 1 is_stmt 1 view -0
 873              		.cfi_startproc
 874              		@ args = 8, pretend = 0, frame = 80
 875              		@ frame_needed = 0, uses_anonymous_args = 0
 409:STM32Cube_FW_N6/Drivers/BSP/Components/mx66uw1g45g/mx66uw1g45g.c **** 
 410:STM32Cube_FW_N6/Drivers/BSP/Components/mx66uw1g45g/mx66uw1g45g.c ****   XSPI_RegularCmdTypeDef s_command = {0};
 876              		.loc 1 410 3 view .LVU298
 408:STM32Cube_FW_N6/Drivers/BSP/Components/mx66uw1g45g/mx66uw1g45g.c **** 
 877              		.loc 1 408 1 is_stmt 0 view .LVU299
 878 0000 2DE9F041 		push	{r4, r5, r6, r7, r8, lr}
 879              		.cfi_def_cfa_offset 24
 880              		.cfi_offset 4, -24
 881              		.cfi_offset 5, -20
 882              		.cfi_offset 6, -16
 883              		.cfi_offset 7, -12
 884              		.cfi_offset 8, -8
 885              		.cfi_offset 14, -4
 886 0004 0F46     		mov	r7, r1
 887 0006 94B0     		sub	sp, sp, #80
 888              		.cfi_def_cfa_offset 104
 408:STM32Cube_FW_N6/Drivers/BSP/Components/mx66uw1g45g/mx66uw1g45g.c **** 
 889              		.loc 1 408 1 view .LVU300
 890 0008 0646     		mov	r6, r0
 891 000a 1446     		mov	r4, r2
ARM GAS  C:\Users\DJESSOU\AppData\Local\Temp\ccAx4BcF.s 			page 27


 892              		.loc 1 410 26 view .LVU301
 893 000c 0021     		movs	r1, #0
 894              	.LVL44:
 895              		.loc 1 410 26 view .LVU302
 896 000e 4C22     		movs	r2, #76
 897              	.LVL45:
 898              		.loc 1 410 26 view .LVU303
 899 0010 01A8     		add	r0, sp, #4
 900              	.LVL46:
 408:STM32Cube_FW_N6/Drivers/BSP/Components/mx66uw1g45g/mx66uw1g45g.c **** 
 901              		.loc 1 408 1 view .LVU304
 902 0012 1D46     		mov	r5, r3
 903 0014 9DF86C80 		ldrb	r8, [sp, #108]	@ zero_extendqisi2
 904              		.loc 1 410 26 view .LVU305
 905 0018 FFF7FEFF 		bl	memset
 906              	.LVL47:
 411:STM32Cube_FW_N6/Drivers/BSP/Components/mx66uw1g45g/mx66uw1g45g.c **** 
 412:STM32Cube_FW_N6/Drivers/BSP/Components/mx66uw1g45g/mx66uw1g45g.c ****   /* SPI mode and DTR transfer not supported by memory */
 413:STM32Cube_FW_N6/Drivers/BSP/Components/mx66uw1g45g/mx66uw1g45g.c ****   if ((Mode == MX66UW1G45G_SPI_MODE) && (Rate == MX66UW1G45G_DTR_TRANSFER))
 907              		.loc 1 413 3 is_stmt 1 view .LVU306
 908              		.loc 1 413 6 is_stmt 0 view .LVU307
 909 001c 002F     		cmp	r7, #0
 910 001e 32D1     		bne	.L62
 911              		.loc 1 413 38 discriminator 1 view .LVU308
 912 0020 012C     		cmp	r4, #1
 913 0022 42D0     		beq	.L63
 414:STM32Cube_FW_N6/Drivers/BSP/Components/mx66uw1g45g/mx66uw1g45g.c ****   {
 415:STM32Cube_FW_N6/Drivers/BSP/Components/mx66uw1g45g/mx66uw1g45g.c ****     return MX66UW1G45G_ERROR;
 416:STM32Cube_FW_N6/Drivers/BSP/Components/mx66uw1g45g/mx66uw1g45g.c ****   }
 417:STM32Cube_FW_N6/Drivers/BSP/Components/mx66uw1g45g/mx66uw1g45g.c **** 
 418:STM32Cube_FW_N6/Drivers/BSP/Components/mx66uw1g45g/mx66uw1g45g.c ****   /* Initialize the erase command */
 419:STM32Cube_FW_N6/Drivers/BSP/Components/mx66uw1g45g/mx66uw1g45g.c ****   s_command.OperationType      = HAL_XSPI_OPTYPE_COMMON_CFG;
 420:STM32Cube_FW_N6/Drivers/BSP/Components/mx66uw1g45g/mx66uw1g45g.c ****   s_command.IOSelect           = HAL_XSPI_SELECT_IO_7_0;
 421:STM32Cube_FW_N6/Drivers/BSP/Components/mx66uw1g45g/mx66uw1g45g.c ****   s_command.InstructionMode    = (Mode == MX66UW1G45G_SPI_MODE)
 422:STM32Cube_FW_N6/Drivers/BSP/Components/mx66uw1g45g/mx66uw1g45g.c ****                                  ? HAL_XSPI_INSTRUCTION_1_LINE
 423:STM32Cube_FW_N6/Drivers/BSP/Components/mx66uw1g45g/mx66uw1g45g.c ****                                  : HAL_XSPI_INSTRUCTION_8_LINES;
 914              		.loc 1 423 34 discriminator 1 view .LVU309
 915 0024 0123     		movs	r3, #1
 916              	.L53:
 421:STM32Cube_FW_N6/Drivers/BSP/Components/mx66uw1g45g/mx66uw1g45g.c ****                                  ? HAL_XSPI_INSTRUCTION_1_LINE
 917              		.loc 1 421 32 view .LVU310
 918 0026 0493     		str	r3, [sp, #16]
 424:STM32Cube_FW_N6/Drivers/BSP/Components/mx66uw1g45g/mx66uw1g45g.c ****   s_command.InstructionDTRMode = (Rate == MX66UW1G45G_DTR_TRANSFER)
 919              		.loc 1 424 3 is_stmt 1 view .LVU311
 425:STM32Cube_FW_N6/Drivers/BSP/Components/mx66uw1g45g/mx66uw1g45g.c ****                                  ? HAL_XSPI_INSTRUCTION_DTR_ENABLE
 426:STM32Cube_FW_N6/Drivers/BSP/Components/mx66uw1g45g/mx66uw1g45g.c ****                                  : HAL_XSPI_INSTRUCTION_DTR_DISABLE;
 920              		.loc 1 426 34 is_stmt 0 view .LVU312
 921 0028 631E     		subs	r3, r4, #1
 922 002a 5C42     		rsbs	r4, r3, #0
 923              	.LVL48:
 924              		.loc 1 426 34 view .LVU313
 925 002c 5C41     		adcs	r4, r4, r3
 926 002e E300     		lsls	r3, r4, #3
 927              	.LVL49:
 424:STM32Cube_FW_N6/Drivers/BSP/Components/mx66uw1g45g/mx66uw1g45g.c ****   s_command.InstructionDTRMode = (Rate == MX66UW1G45G_DTR_TRANSFER)
 928              		.loc 1 424 32 view .LVU314
 929 0030 0693     		str	r3, [sp, #24]
ARM GAS  C:\Users\DJESSOU\AppData\Local\Temp\ccAx4BcF.s 			page 28


 427:STM32Cube_FW_N6/Drivers/BSP/Components/mx66uw1g45g/mx66uw1g45g.c ****   s_command.InstructionWidth   = (Mode == MX66UW1G45G_SPI_MODE)
 930              		.loc 1 427 3 is_stmt 1 view .LVU315
 428:STM32Cube_FW_N6/Drivers/BSP/Components/mx66uw1g45g/mx66uw1g45g.c ****                                  ? HAL_XSPI_INSTRUCTION_8_BITS
 429:STM32Cube_FW_N6/Drivers/BSP/Components/mx66uw1g45g/mx66uw1g45g.c ****                                  : HAL_XSPI_INSTRUCTION_16_BITS;
 931              		.loc 1 429 34 is_stmt 0 view .LVU316
 932 0032 57B3     		cbz	r7, .L64
 427:STM32Cube_FW_N6/Drivers/BSP/Components/mx66uw1g45g/mx66uw1g45g.c ****   s_command.InstructionWidth   = (Mode == MX66UW1G45G_SPI_MODE)
 933              		.loc 1 427 32 view .LVU317
 934 0034 1023     		movs	r3, #16
 430:STM32Cube_FW_N6/Drivers/BSP/Components/mx66uw1g45g/mx66uw1g45g.c ****   s_command.AddressMode        = (Mode == MX66UW1G45G_SPI_MODE) ? HAL_XSPI_ADDRESS_1_LINE : HAL_XSP
 935              		.loc 1 430 91 discriminator 2 view .LVU318
 936 0036 4FF48062 		mov	r2, #1024
 427:STM32Cube_FW_N6/Drivers/BSP/Components/mx66uw1g45g/mx66uw1g45g.c ****   s_command.InstructionWidth   = (Mode == MX66UW1G45G_SPI_MODE)
 937              		.loc 1 427 32 view .LVU319
 938 003a 0593     		str	r3, [sp, #20]
 939              		.loc 1 430 3 is_stmt 1 view .LVU320
 940              	.L55:
 431:STM32Cube_FW_N6/Drivers/BSP/Components/mx66uw1g45g/mx66uw1g45g.c ****   s_command.AddressDTRMode     = (Rate == MX66UW1G45G_DTR_TRANSFER)
 941              		.loc 1 431 3 view .LVU321
 432:STM32Cube_FW_N6/Drivers/BSP/Components/mx66uw1g45g/mx66uw1g45g.c ****                                  ? HAL_XSPI_ADDRESS_DTR_ENABLE
 433:STM32Cube_FW_N6/Drivers/BSP/Components/mx66uw1g45g/mx66uw1g45g.c ****                                  : HAL_XSPI_ADDRESS_DTR_DISABLE;
 434:STM32Cube_FW_N6/Drivers/BSP/Components/mx66uw1g45g/mx66uw1g45g.c ****   s_command.AddressWidth       = (AddressWidth == MX66UW1G45G_3BYTES_SIZE)
 435:STM32Cube_FW_N6/Drivers/BSP/Components/mx66uw1g45g/mx66uw1g45g.c ****                                  ? HAL_XSPI_ADDRESS_24_BITS
 436:STM32Cube_FW_N6/Drivers/BSP/Components/mx66uw1g45g/mx66uw1g45g.c ****                                  : HAL_XSPI_ADDRESS_32_BITS;
 942              		.loc 1 436 34 is_stmt 0 discriminator 1 view .LVU322
 943 003c 002D     		cmp	r5, #0
 944 003e 14BF     		ite	ne
 945 0040 4FF44051 		movne	r1, #12288
 946 0044 4FF40051 		moveq	r1, #8192
 437:STM32Cube_FW_N6/Drivers/BSP/Components/mx66uw1g45g/mx66uw1g45g.c ****   s_command.Address            = BlockAddress;
 438:STM32Cube_FW_N6/Drivers/BSP/Components/mx66uw1g45g/mx66uw1g45g.c ****   s_command.AlternateBytesMode = HAL_XSPI_ALT_BYTES_NONE;
 439:STM32Cube_FW_N6/Drivers/BSP/Components/mx66uw1g45g/mx66uw1g45g.c ****   s_command.DataMode           = HAL_XSPI_DATA_NONE;
 440:STM32Cube_FW_N6/Drivers/BSP/Components/mx66uw1g45g/mx66uw1g45g.c ****   s_command.DummyCycles        = 0U;
 441:STM32Cube_FW_N6/Drivers/BSP/Components/mx66uw1g45g/mx66uw1g45g.c ****   s_command.DQSMode            = HAL_XSPI_DQS_DISABLE;
 442:STM32Cube_FW_N6/Drivers/BSP/Components/mx66uw1g45g/mx66uw1g45g.c ****  #if defined (XSPI_CCR_SIOO)
 443:STM32Cube_FW_N6/Drivers/BSP/Components/mx66uw1g45g/mx66uw1g45g.c ****   s_command.SIOOMode            = HAL_XSPI_SIOO_INST_EVERY_CMD;
 444:STM32Cube_FW_N6/Drivers/BSP/Components/mx66uw1g45g/mx66uw1g45g.c ****  #endif
 445:STM32Cube_FW_N6/Drivers/BSP/Components/mx66uw1g45g/mx66uw1g45g.c **** 
 446:STM32Cube_FW_N6/Drivers/BSP/Components/mx66uw1g45g/mx66uw1g45g.c ****   switch (Mode)
 947              		.loc 1 446 3 view .LVU323
 948 0048 012F     		cmp	r7, #1
 433:STM32Cube_FW_N6/Drivers/BSP/Components/mx66uw1g45g/mx66uw1g45g.c ****   s_command.AddressWidth       = (AddressWidth == MX66UW1G45G_3BYTES_SIZE)
 949              		.loc 1 433 34 view .LVU324
 950 004a 4FEAC424 		lsl	r4, r4, #11
 434:STM32Cube_FW_N6/Drivers/BSP/Components/mx66uw1g45g/mx66uw1g45g.c ****                                  ? HAL_XSPI_ADDRESS_24_BITS
 951              		.loc 1 434 3 is_stmt 1 view .LVU325
 437:STM32Cube_FW_N6/Drivers/BSP/Components/mx66uw1g45g/mx66uw1g45g.c ****   s_command.Address            = BlockAddress;
 952              		.loc 1 437 3 view .LVU326
 438:STM32Cube_FW_N6/Drivers/BSP/Components/mx66uw1g45g/mx66uw1g45g.c ****   s_command.DataMode           = HAL_XSPI_DATA_NONE;
 953              		.loc 1 438 3 view .LVU327
 439:STM32Cube_FW_N6/Drivers/BSP/Components/mx66uw1g45g/mx66uw1g45g.c ****   s_command.DummyCycles        = 0U;
 954              		.loc 1 439 3 view .LVU328
 440:STM32Cube_FW_N6/Drivers/BSP/Components/mx66uw1g45g/mx66uw1g45g.c ****   s_command.DQSMode            = HAL_XSPI_DQS_DISABLE;
 955              		.loc 1 440 3 view .LVU329
 441:STM32Cube_FW_N6/Drivers/BSP/Components/mx66uw1g45g/mx66uw1g45g.c ****  #if defined (XSPI_CCR_SIOO)
 956              		.loc 1 441 3 view .LVU330
 957              		.loc 1 446 3 view .LVU331
ARM GAS  C:\Users\DJESSOU\AppData\Local\Temp\ccAx4BcF.s 			page 29


 958 004e 1FD1     		bne	.L57
 447:STM32Cube_FW_N6/Drivers/BSP/Components/mx66uw1g45g/mx66uw1g45g.c ****   {
 448:STM32Cube_FW_N6/Drivers/BSP/Components/mx66uw1g45g/mx66uw1g45g.c ****     case MX66UW1G45G_OPI_MODE :
 449:STM32Cube_FW_N6/Drivers/BSP/Components/mx66uw1g45g/mx66uw1g45g.c ****       if (BlockSize == MX66UW1G45G_ERASE_64K)
 959              		.loc 1 449 7 view .LVU332
 960              		.loc 1 449 10 is_stmt 0 view .LVU333
 961 0050 42F2DE10 		movw	r0, #8670
 962 0054 B8F1010F 		cmp	r8, #1
 963 0058 4DF62343 		movw	r3, #56355
 964 005c 18BF     		it	ne
 965 005e 0346     		movne	r3, r0
 966              	.L58:
 430:STM32Cube_FW_N6/Drivers/BSP/Components/mx66uw1g45g/mx66uw1g45g.c ****   s_command.AddressDTRMode     = (Rate == MX66UW1G45G_DTR_TRANSFER)
 967              		.loc 1 430 32 discriminator 4 view .LVU334
 968 0060 0892     		str	r2, [sp, #32]
 437:STM32Cube_FW_N6/Drivers/BSP/Components/mx66uw1g45g/mx66uw1g45g.c ****   s_command.AlternateBytesMode = HAL_XSPI_ALT_BYTES_NONE;
 969              		.loc 1 437 32 view .LVU335
 970 0062 1A9A     		ldr	r2, [sp, #104]
 434:STM32Cube_FW_N6/Drivers/BSP/Components/mx66uw1g45g/mx66uw1g45g.c ****                                  ? HAL_XSPI_ADDRESS_24_BITS
 971              		.loc 1 434 32 view .LVU336
 972 0064 CDE90914 		strd	r1, r4, [sp, #36]
 437:STM32Cube_FW_N6/Drivers/BSP/Components/mx66uw1g45g/mx66uw1g45g.c ****   s_command.AlternateBytesMode = HAL_XSPI_ALT_BYTES_NONE;
 973              		.loc 1 437 32 view .LVU337
 974 0068 0792     		str	r2, [sp, #28]
 450:STM32Cube_FW_N6/Drivers/BSP/Components/mx66uw1g45g/mx66uw1g45g.c ****       {
 451:STM32Cube_FW_N6/Drivers/BSP/Components/mx66uw1g45g/mx66uw1g45g.c ****         s_command.Instruction = MX66UW1G45G_OCTA_BLOCK_ERASE_64K_CMD;
 452:STM32Cube_FW_N6/Drivers/BSP/Components/mx66uw1g45g/mx66uw1g45g.c ****       }
 453:STM32Cube_FW_N6/Drivers/BSP/Components/mx66uw1g45g/mx66uw1g45g.c ****       else
 454:STM32Cube_FW_N6/Drivers/BSP/Components/mx66uw1g45g/mx66uw1g45g.c ****       {
 455:STM32Cube_FW_N6/Drivers/BSP/Components/mx66uw1g45g/mx66uw1g45g.c ****         s_command.Instruction = MX66UW1G45G_OCTA_SECTOR_ERASE_4K_CMD;
 456:STM32Cube_FW_N6/Drivers/BSP/Components/mx66uw1g45g/mx66uw1g45g.c ****       }
 457:STM32Cube_FW_N6/Drivers/BSP/Components/mx66uw1g45g/mx66uw1g45g.c ****       break;
 458:STM32Cube_FW_N6/Drivers/BSP/Components/mx66uw1g45g/mx66uw1g45g.c **** 
 459:STM32Cube_FW_N6/Drivers/BSP/Components/mx66uw1g45g/mx66uw1g45g.c ****     case MX66UW1G45G_SPI_MODE :
 460:STM32Cube_FW_N6/Drivers/BSP/Components/mx66uw1g45g/mx66uw1g45g.c ****     default:
 461:STM32Cube_FW_N6/Drivers/BSP/Components/mx66uw1g45g/mx66uw1g45g.c ****       if (BlockSize == MX66UW1G45G_ERASE_64K)
 462:STM32Cube_FW_N6/Drivers/BSP/Components/mx66uw1g45g/mx66uw1g45g.c ****       {
 463:STM32Cube_FW_N6/Drivers/BSP/Components/mx66uw1g45g/mx66uw1g45g.c ****         s_command.Instruction = (AddressWidth == MX66UW1G45G_3BYTES_SIZE)
 464:STM32Cube_FW_N6/Drivers/BSP/Components/mx66uw1g45g/mx66uw1g45g.c ****                                 ? MX66UW1G45G_BLOCK_ERASE_64K_CMD
 465:STM32Cube_FW_N6/Drivers/BSP/Components/mx66uw1g45g/mx66uw1g45g.c ****                                 : MX66UW1G45G_4_BYTE_BLOCK_ERASE_64K_CMD;
 466:STM32Cube_FW_N6/Drivers/BSP/Components/mx66uw1g45g/mx66uw1g45g.c ****       }
 467:STM32Cube_FW_N6/Drivers/BSP/Components/mx66uw1g45g/mx66uw1g45g.c ****       else
 468:STM32Cube_FW_N6/Drivers/BSP/Components/mx66uw1g45g/mx66uw1g45g.c ****       {
 469:STM32Cube_FW_N6/Drivers/BSP/Components/mx66uw1g45g/mx66uw1g45g.c ****         s_command.Instruction = (AddressWidth == MX66UW1G45G_3BYTES_SIZE)
 470:STM32Cube_FW_N6/Drivers/BSP/Components/mx66uw1g45g/mx66uw1g45g.c ****                                 ? MX66UW1G45G_SECTOR_ERASE_4K_CMD
 471:STM32Cube_FW_N6/Drivers/BSP/Components/mx66uw1g45g/mx66uw1g45g.c ****                                 : MX66UW1G45G_4_BYTE_SECTOR_ERASE_4K_CMD;
 472:STM32Cube_FW_N6/Drivers/BSP/Components/mx66uw1g45g/mx66uw1g45g.c ****       }
 473:STM32Cube_FW_N6/Drivers/BSP/Components/mx66uw1g45g/mx66uw1g45g.c ****       break;
 474:STM32Cube_FW_N6/Drivers/BSP/Components/mx66uw1g45g/mx66uw1g45g.c ****   }
 475:STM32Cube_FW_N6/Drivers/BSP/Components/mx66uw1g45g/mx66uw1g45g.c **** 
 476:STM32Cube_FW_N6/Drivers/BSP/Components/mx66uw1g45g/mx66uw1g45g.c ****   if (HAL_XSPI_Command(Ctx, &s_command, HAL_XSPI_TIMEOUT_DEFAULT_VALUE) != HAL_OK)
 975              		.loc 1 476 7 view .LVU338
 976 006a 3046     		mov	r0, r6
 977 006c 41F28832 		movw	r2, #5000
 978 0070 01A9     		add	r1, sp, #4
 455:STM32Cube_FW_N6/Drivers/BSP/Components/mx66uw1g45g/mx66uw1g45g.c ****       }
 979              		.loc 1 455 31 view .LVU339
ARM GAS  C:\Users\DJESSOU\AppData\Local\Temp\ccAx4BcF.s 			page 30


 980 0072 0393     		str	r3, [sp, #12]
 981              		.loc 1 476 3 is_stmt 1 view .LVU340
 982              		.loc 1 476 7 is_stmt 0 view .LVU341
 983 0074 FFF7FEFF 		bl	HAL_XSPI_Command
 984              	.LVL50:
 985              		.loc 1 476 6 discriminator 1 view .LVU342
 986 0078 0038     		subs	r0, r0, #0
 987 007a 18BF     		it	ne
 988 007c 0120     		movne	r0, #1
 989 007e 4042     		rsbs	r0, r0, #0
 990              	.L52:
 477:STM32Cube_FW_N6/Drivers/BSP/Components/mx66uw1g45g/mx66uw1g45g.c ****   {
 478:STM32Cube_FW_N6/Drivers/BSP/Components/mx66uw1g45g/mx66uw1g45g.c ****     return MX66UW1G45G_ERROR;
 479:STM32Cube_FW_N6/Drivers/BSP/Components/mx66uw1g45g/mx66uw1g45g.c ****   }
 480:STM32Cube_FW_N6/Drivers/BSP/Components/mx66uw1g45g/mx66uw1g45g.c **** 
 481:STM32Cube_FW_N6/Drivers/BSP/Components/mx66uw1g45g/mx66uw1g45g.c **** 
 482:STM32Cube_FW_N6/Drivers/BSP/Components/mx66uw1g45g/mx66uw1g45g.c ****   return MX66UW1G45G_OK;
 483:STM32Cube_FW_N6/Drivers/BSP/Components/mx66uw1g45g/mx66uw1g45g.c **** }
 991              		.loc 1 483 1 view .LVU343
 992 0080 14B0     		add	sp, sp, #80
 993              		.cfi_remember_state
 994              		.cfi_def_cfa_offset 24
 995              		@ sp needed
 996 0082 BDE8F081 		pop	{r4, r5, r6, r7, r8, pc}
 997              	.LVL51:
 998              	.L62:
 999              		.cfi_restore_state
 423:STM32Cube_FW_N6/Drivers/BSP/Components/mx66uw1g45g/mx66uw1g45g.c ****   s_command.InstructionDTRMode = (Rate == MX66UW1G45G_DTR_TRANSFER)
 1000              		.loc 1 423 34 discriminator 2 view .LVU344
 1001 0086 0423     		movs	r3, #4
 1002 0088 CDE7     		b	.L53
 1003              	.L64:
 430:STM32Cube_FW_N6/Drivers/BSP/Components/mx66uw1g45g/mx66uw1g45g.c ****   s_command.AddressDTRMode     = (Rate == MX66UW1G45G_DTR_TRANSFER)
 1004              		.loc 1 430 91 discriminator 1 view .LVU345
 1005 008a 4FF48072 		mov	r2, #256
 1006 008e D5E7     		b	.L55
 1007              	.L57:
 461:STM32Cube_FW_N6/Drivers/BSP/Components/mx66uw1g45g/mx66uw1g45g.c ****       {
 1008              		.loc 1 461 7 is_stmt 1 view .LVU346
 461:STM32Cube_FW_N6/Drivers/BSP/Components/mx66uw1g45g/mx66uw1g45g.c ****       {
 1009              		.loc 1 461 10 is_stmt 0 view .LVU347
 1010 0090 B8F1010F 		cmp	r8, #1
 1011 0094 04D1     		bne	.L59
 463:STM32Cube_FW_N6/Drivers/BSP/Components/mx66uw1g45g/mx66uw1g45g.c ****                                 ? MX66UW1G45G_BLOCK_ERASE_64K_CMD
 1012              		.loc 1 463 9 is_stmt 1 view .LVU348
 465:STM32Cube_FW_N6/Drivers/BSP/Components/mx66uw1g45g/mx66uw1g45g.c ****       }
 1013              		.loc 1 465 33 is_stmt 0 discriminator 1 view .LVU349
 1014 0096 002D     		cmp	r5, #0
 1015 0098 14BF     		ite	ne
 1016 009a DC23     		movne	r3, #220
 1017 009c D823     		moveq	r3, #216
 1018 009e DFE7     		b	.L58
 1019              	.L59:
 469:STM32Cube_FW_N6/Drivers/BSP/Components/mx66uw1g45g/mx66uw1g45g.c ****                                 ? MX66UW1G45G_SECTOR_ERASE_4K_CMD
 1020              		.loc 1 469 9 is_stmt 1 view .LVU350
 471:STM32Cube_FW_N6/Drivers/BSP/Components/mx66uw1g45g/mx66uw1g45g.c ****       }
 1021              		.loc 1 471 33 is_stmt 0 discriminator 1 view .LVU351
ARM GAS  C:\Users\DJESSOU\AppData\Local\Temp\ccAx4BcF.s 			page 31


 1022 00a0 002D     		cmp	r5, #0
 1023 00a2 14BF     		ite	ne
 1024 00a4 2123     		movne	r3, #33
 1025 00a6 2023     		moveq	r3, #32
 1026 00a8 DAE7     		b	.L58
 1027              	.L63:
 415:STM32Cube_FW_N6/Drivers/BSP/Components/mx66uw1g45g/mx66uw1g45g.c ****   }
 1028              		.loc 1 415 12 view .LVU352
 1029 00aa 4FF0FF30 		mov	r0, #-1
 1030 00ae E7E7     		b	.L52
 1031              		.cfi_endproc
 1032              	.LFE868:
 1034              		.section	.text.MX66UW1G45G_ChipErase,"ax",%progbits
 1035              		.align	1
 1036              		.global	MX66UW1G45G_ChipErase
 1037              		.syntax unified
 1038              		.thumb
 1039              		.thumb_func
 1041              	MX66UW1G45G_ChipErase:
 1042              	.LVL52:
 1043              	.LFB869:
 484:STM32Cube_FW_N6/Drivers/BSP/Components/mx66uw1g45g/mx66uw1g45g.c **** 
 485:STM32Cube_FW_N6/Drivers/BSP/Components/mx66uw1g45g/mx66uw1g45g.c **** /**
 486:STM32Cube_FW_N6/Drivers/BSP/Components/mx66uw1g45g/mx66uw1g45g.c ****   * @brief  Whole chip erase.
 487:STM32Cube_FW_N6/Drivers/BSP/Components/mx66uw1g45g/mx66uw1g45g.c ****   *         SPI/OPI; 1-0-0/8-0-0
 488:STM32Cube_FW_N6/Drivers/BSP/Components/mx66uw1g45g/mx66uw1g45g.c ****   * @param  Ctx Component object pointer
 489:STM32Cube_FW_N6/Drivers/BSP/Components/mx66uw1g45g/mx66uw1g45g.c ****   * @param  Mode Interface mode
 490:STM32Cube_FW_N6/Drivers/BSP/Components/mx66uw1g45g/mx66uw1g45g.c ****   * @retval error status
 491:STM32Cube_FW_N6/Drivers/BSP/Components/mx66uw1g45g/mx66uw1g45g.c ****   */
 492:STM32Cube_FW_N6/Drivers/BSP/Components/mx66uw1g45g/mx66uw1g45g.c **** int32_t MX66UW1G45G_ChipErase(XSPI_HandleTypeDef *Ctx, MX66UW1G45G_Interface_t Mode, MX66UW1G45G_Tr
 493:STM32Cube_FW_N6/Drivers/BSP/Components/mx66uw1g45g/mx66uw1g45g.c **** {
 1044              		.loc 1 493 1 is_stmt 1 view -0
 1045              		.cfi_startproc
 1046              		@ args = 0, pretend = 0, frame = 80
 1047              		@ frame_needed = 0, uses_anonymous_args = 0
 494:STM32Cube_FW_N6/Drivers/BSP/Components/mx66uw1g45g/mx66uw1g45g.c ****   XSPI_RegularCmdTypeDef s_command = {0};
 1048              		.loc 1 494 3 view .LVU354
 493:STM32Cube_FW_N6/Drivers/BSP/Components/mx66uw1g45g/mx66uw1g45g.c ****   XSPI_RegularCmdTypeDef s_command = {0};
 1049              		.loc 1 493 1 is_stmt 0 view .LVU355
 1050 0000 70B5     		push	{r4, r5, r6, lr}
 1051              		.cfi_def_cfa_offset 16
 1052              		.cfi_offset 4, -16
 1053              		.cfi_offset 5, -12
 1054              		.cfi_offset 6, -8
 1055              		.cfi_offset 14, -4
 1056 0002 0D46     		mov	r5, r1
 1057 0004 94B0     		sub	sp, sp, #80
 1058              		.cfi_def_cfa_offset 96
 493:STM32Cube_FW_N6/Drivers/BSP/Components/mx66uw1g45g/mx66uw1g45g.c ****   XSPI_RegularCmdTypeDef s_command = {0};
 1059              		.loc 1 493 1 view .LVU356
 1060 0006 0646     		mov	r6, r0
 1061 0008 1446     		mov	r4, r2
 1062              		.loc 1 494 26 view .LVU357
 1063 000a 0021     		movs	r1, #0
 1064              	.LVL53:
 1065              		.loc 1 494 26 view .LVU358
 1066 000c 4C22     		movs	r2, #76
ARM GAS  C:\Users\DJESSOU\AppData\Local\Temp\ccAx4BcF.s 			page 32


 1067              	.LVL54:
 1068              		.loc 1 494 26 view .LVU359
 1069 000e 01A8     		add	r0, sp, #4
 1070              	.LVL55:
 1071              		.loc 1 494 26 view .LVU360
 1072 0010 FFF7FEFF 		bl	memset
 1073              	.LVL56:
 495:STM32Cube_FW_N6/Drivers/BSP/Components/mx66uw1g45g/mx66uw1g45g.c **** 
 496:STM32Cube_FW_N6/Drivers/BSP/Components/mx66uw1g45g/mx66uw1g45g.c ****   /* SPI mode and DTR transfer not supported by memory */
 497:STM32Cube_FW_N6/Drivers/BSP/Components/mx66uw1g45g/mx66uw1g45g.c ****   if ((Mode == MX66UW1G45G_SPI_MODE) && (Rate == MX66UW1G45G_DTR_TRANSFER))
 1074              		.loc 1 497 3 is_stmt 1 view .LVU361
 1075              		.loc 1 497 6 is_stmt 0 view .LVU362
 1076 0014 BDB9     		cbnz	r5, .L70
 1077              		.loc 1 497 38 discriminator 1 view .LVU363
 1078 0016 012C     		cmp	r4, #1
 1079 0018 1DD0     		beq	.L74
 1080 001a 0123     		movs	r3, #1
 498:STM32Cube_FW_N6/Drivers/BSP/Components/mx66uw1g45g/mx66uw1g45g.c ****   {
 499:STM32Cube_FW_N6/Drivers/BSP/Components/mx66uw1g45g/mx66uw1g45g.c ****     return MX66UW1G45G_ERROR;
 500:STM32Cube_FW_N6/Drivers/BSP/Components/mx66uw1g45g/mx66uw1g45g.c ****   }
 501:STM32Cube_FW_N6/Drivers/BSP/Components/mx66uw1g45g/mx66uw1g45g.c **** 
 502:STM32Cube_FW_N6/Drivers/BSP/Components/mx66uw1g45g/mx66uw1g45g.c ****   /* Initialize the erase command */
 503:STM32Cube_FW_N6/Drivers/BSP/Components/mx66uw1g45g/mx66uw1g45g.c ****   s_command.OperationType = HAL_XSPI_OPTYPE_COMMON_CFG;
 504:STM32Cube_FW_N6/Drivers/BSP/Components/mx66uw1g45g/mx66uw1g45g.c ****   s_command.InstructionMode = (Mode == MX66UW1G45G_SPI_MODE)
 505:STM32Cube_FW_N6/Drivers/BSP/Components/mx66uw1g45g/mx66uw1g45g.c ****                                   ? HAL_XSPI_INSTRUCTION_1_LINE
 506:STM32Cube_FW_N6/Drivers/BSP/Components/mx66uw1g45g/mx66uw1g45g.c ****                                   : HAL_XSPI_INSTRUCTION_8_LINES;
 507:STM32Cube_FW_N6/Drivers/BSP/Components/mx66uw1g45g/mx66uw1g45g.c ****   s_command.InstructionDTRMode = (Rate == MX66UW1G45G_DTR_TRANSFER)
 508:STM32Cube_FW_N6/Drivers/BSP/Components/mx66uw1g45g/mx66uw1g45g.c ****                                      ? HAL_XSPI_INSTRUCTION_DTR_ENABLE
 509:STM32Cube_FW_N6/Drivers/BSP/Components/mx66uw1g45g/mx66uw1g45g.c ****                                      : HAL_XSPI_INSTRUCTION_DTR_DISABLE;
 1081              		.loc 1 509 38 discriminator 2 view .LVU364
 1082 001c 2C46     		mov	r4, r5
 1083              	.LVL57:
 1084              	.L72:
 504:STM32Cube_FW_N6/Drivers/BSP/Components/mx66uw1g45g/mx66uw1g45g.c ****                                   ? HAL_XSPI_INSTRUCTION_1_LINE
 1085              		.loc 1 504 29 view .LVU365
 1086 001e 0493     		str	r3, [sp, #16]
 507:STM32Cube_FW_N6/Drivers/BSP/Components/mx66uw1g45g/mx66uw1g45g.c ****                                      ? HAL_XSPI_INSTRUCTION_DTR_ENABLE
 1087              		.loc 1 507 32 view .LVU366
 1088 0020 0694     		str	r4, [sp, #24]
 510:STM32Cube_FW_N6/Drivers/BSP/Components/mx66uw1g45g/mx66uw1g45g.c ****   s_command.InstructionWidth = (Mode == MX66UW1G45G_SPI_MODE)
 1089              		.loc 1 510 3 is_stmt 1 view .LVU367
 511:STM32Cube_FW_N6/Drivers/BSP/Components/mx66uw1g45g/mx66uw1g45g.c ****                                    ? HAL_XSPI_INSTRUCTION_8_BITS
 512:STM32Cube_FW_N6/Drivers/BSP/Components/mx66uw1g45g/mx66uw1g45g.c ****                                    : HAL_XSPI_INSTRUCTION_16_BITS;
 1090              		.loc 1 512 36 is_stmt 0 view .LVU368
 1091 0022 B5B1     		cbz	r5, .L75
 510:STM32Cube_FW_N6/Drivers/BSP/Components/mx66uw1g45g/mx66uw1g45g.c ****   s_command.InstructionWidth = (Mode == MX66UW1G45G_SPI_MODE)
 1092              		.loc 1 510 30 view .LVU369
 1093 0024 1023     		movs	r3, #16
 1094 0026 0593     		str	r3, [sp, #20]
 513:STM32Cube_FW_N6/Drivers/BSP/Components/mx66uw1g45g/mx66uw1g45g.c ****   s_command.Instruction = (Mode == MX66UW1G45G_SPI_MODE)
 1095              		.loc 1 513 3 is_stmt 1 view .LVU370
 514:STM32Cube_FW_N6/Drivers/BSP/Components/mx66uw1g45g/mx66uw1g45g.c ****                               ? MX66UW1G45G_BULK_ERASE_CMD
 515:STM32Cube_FW_N6/Drivers/BSP/Components/mx66uw1g45g/mx66uw1g45g.c ****                               : MX66UW1G45G_OCTA_BULK_ERASE_CMD;
 1096              		.loc 1 515 31 is_stmt 0 discriminator 2 view .LVU371
 1097 0028 46F29F03 		movw	r3, #24735
 1098              	.L73:
 516:STM32Cube_FW_N6/Drivers/BSP/Components/mx66uw1g45g/mx66uw1g45g.c ****   s_command.AddressMode = HAL_XSPI_ADDRESS_NONE;
ARM GAS  C:\Users\DJESSOU\AppData\Local\Temp\ccAx4BcF.s 			page 33


 517:STM32Cube_FW_N6/Drivers/BSP/Components/mx66uw1g45g/mx66uw1g45g.c ****   s_command.AlternateBytesMode = HAL_XSPI_ALT_BYTES_NONE;
 518:STM32Cube_FW_N6/Drivers/BSP/Components/mx66uw1g45g/mx66uw1g45g.c ****   s_command.DataMode = HAL_XSPI_DATA_NONE;
 519:STM32Cube_FW_N6/Drivers/BSP/Components/mx66uw1g45g/mx66uw1g45g.c ****   s_command.DummyCycles = 0U;
 520:STM32Cube_FW_N6/Drivers/BSP/Components/mx66uw1g45g/mx66uw1g45g.c ****   s_command.DQSMode = HAL_XSPI_DQS_DISABLE;
 521:STM32Cube_FW_N6/Drivers/BSP/Components/mx66uw1g45g/mx66uw1g45g.c ****  #if defined (XSPI_CCR_SIOO)
 522:STM32Cube_FW_N6/Drivers/BSP/Components/mx66uw1g45g/mx66uw1g45g.c ****   s_command.SIOOMode            = HAL_XSPI_SIOO_INST_EVERY_CMD;
 523:STM32Cube_FW_N6/Drivers/BSP/Components/mx66uw1g45g/mx66uw1g45g.c ****  #endif
 524:STM32Cube_FW_N6/Drivers/BSP/Components/mx66uw1g45g/mx66uw1g45g.c **** 
 525:STM32Cube_FW_N6/Drivers/BSP/Components/mx66uw1g45g/mx66uw1g45g.c ****   /* Send the command */
 526:STM32Cube_FW_N6/Drivers/BSP/Components/mx66uw1g45g/mx66uw1g45g.c ****   if (HAL_XSPI_Command(Ctx, &s_command, HAL_XSPI_TIMEOUT_DEFAULT_VALUE) != HAL_OK)
 1099              		.loc 1 526 7 view .LVU372
 1100 002c 41F28832 		movw	r2, #5000
 1101 0030 3046     		mov	r0, r6
 1102 0032 01A9     		add	r1, sp, #4
 513:STM32Cube_FW_N6/Drivers/BSP/Components/mx66uw1g45g/mx66uw1g45g.c ****                               ? MX66UW1G45G_BULK_ERASE_CMD
 1103              		.loc 1 513 25 view .LVU373
 1104 0034 0393     		str	r3, [sp, #12]
 516:STM32Cube_FW_N6/Drivers/BSP/Components/mx66uw1g45g/mx66uw1g45g.c ****   s_command.AddressMode = HAL_XSPI_ADDRESS_NONE;
 1105              		.loc 1 516 3 is_stmt 1 view .LVU374
 517:STM32Cube_FW_N6/Drivers/BSP/Components/mx66uw1g45g/mx66uw1g45g.c ****   s_command.DataMode = HAL_XSPI_DATA_NONE;
 1106              		.loc 1 517 3 view .LVU375
 518:STM32Cube_FW_N6/Drivers/BSP/Components/mx66uw1g45g/mx66uw1g45g.c ****   s_command.DummyCycles = 0U;
 1107              		.loc 1 518 3 view .LVU376
 519:STM32Cube_FW_N6/Drivers/BSP/Components/mx66uw1g45g/mx66uw1g45g.c ****   s_command.DQSMode = HAL_XSPI_DQS_DISABLE;
 1108              		.loc 1 519 3 view .LVU377
 520:STM32Cube_FW_N6/Drivers/BSP/Components/mx66uw1g45g/mx66uw1g45g.c ****  #if defined (XSPI_CCR_SIOO)
 1109              		.loc 1 520 3 view .LVU378
 1110              		.loc 1 526 3 view .LVU379
 1111              		.loc 1 526 7 is_stmt 0 view .LVU380
 1112 0036 FFF7FEFF 		bl	HAL_XSPI_Command
 1113              	.LVL58:
 1114              		.loc 1 526 6 discriminator 1 view .LVU381
 1115 003a 0038     		subs	r0, r0, #0
 1116 003c 18BF     		it	ne
 1117 003e 0120     		movne	r0, #1
 1118 0040 4042     		rsbs	r0, r0, #0
 1119              	.L69:
 527:STM32Cube_FW_N6/Drivers/BSP/Components/mx66uw1g45g/mx66uw1g45g.c ****   {
 528:STM32Cube_FW_N6/Drivers/BSP/Components/mx66uw1g45g/mx66uw1g45g.c ****     return MX66UW1G45G_ERROR;
 529:STM32Cube_FW_N6/Drivers/BSP/Components/mx66uw1g45g/mx66uw1g45g.c ****   }
 530:STM32Cube_FW_N6/Drivers/BSP/Components/mx66uw1g45g/mx66uw1g45g.c **** 
 531:STM32Cube_FW_N6/Drivers/BSP/Components/mx66uw1g45g/mx66uw1g45g.c ****   return MX66UW1G45G_OK;
 532:STM32Cube_FW_N6/Drivers/BSP/Components/mx66uw1g45g/mx66uw1g45g.c **** }
 1120              		.loc 1 532 1 view .LVU382
 1121 0042 14B0     		add	sp, sp, #80
 1122              		.cfi_remember_state
 1123              		.cfi_def_cfa_offset 16
 1124              		@ sp needed
 1125 0044 70BD     		pop	{r4, r5, r6, pc}
 1126              	.LVL59:
 1127              	.L70:
 1128              		.cfi_restore_state
 507:STM32Cube_FW_N6/Drivers/BSP/Components/mx66uw1g45g/mx66uw1g45g.c ****                                      ? HAL_XSPI_INSTRUCTION_DTR_ENABLE
 1129              		.loc 1 507 3 is_stmt 1 view .LVU383
 509:STM32Cube_FW_N6/Drivers/BSP/Components/mx66uw1g45g/mx66uw1g45g.c ****   s_command.InstructionWidth = (Mode == MX66UW1G45G_SPI_MODE)
 1130              		.loc 1 509 38 is_stmt 0 view .LVU384
 1131 0046 631E     		subs	r3, r4, #1
ARM GAS  C:\Users\DJESSOU\AppData\Local\Temp\ccAx4BcF.s 			page 34


 1132 0048 5C42     		rsbs	r4, r3, #0
 1133 004a 5C41     		adcs	r4, r4, r3
 1134 004c E400     		lsls	r4, r4, #3
 1135 004e 0423     		movs	r3, #4
 1136 0050 E5E7     		b	.L72
 1137              	.L75:
 515:STM32Cube_FW_N6/Drivers/BSP/Components/mx66uw1g45g/mx66uw1g45g.c ****   s_command.AddressMode = HAL_XSPI_ADDRESS_NONE;
 1138              		.loc 1 515 31 discriminator 1 view .LVU385
 1139 0052 6023     		movs	r3, #96
 1140 0054 EAE7     		b	.L73
 1141              	.L74:
 499:STM32Cube_FW_N6/Drivers/BSP/Components/mx66uw1g45g/mx66uw1g45g.c ****   }
 1142              		.loc 1 499 12 view .LVU386
 1143 0056 4FF0FF30 		mov	r0, #-1
 1144 005a F2E7     		b	.L69
 1145              		.cfi_endproc
 1146              	.LFE869:
 1148              		.section	.text.MX66UW1G45G_EnableSTRMemoryMappedMode,"ax",%progbits
 1149              		.align	1
 1150              		.global	MX66UW1G45G_EnableSTRMemoryMappedMode
 1151              		.syntax unified
 1152              		.thumb
 1153              		.thumb_func
 1155              	MX66UW1G45G_EnableSTRMemoryMappedMode:
 1156              	.LVL60:
 1157              	.LFB870:
 533:STM32Cube_FW_N6/Drivers/BSP/Components/mx66uw1g45g/mx66uw1g45g.c **** 
 534:STM32Cube_FW_N6/Drivers/BSP/Components/mx66uw1g45g/mx66uw1g45g.c **** /**
 535:STM32Cube_FW_N6/Drivers/BSP/Components/mx66uw1g45g/mx66uw1g45g.c ****   * @brief  Enable memory mapped mode for the XSPI memory on STR mode.
 536:STM32Cube_FW_N6/Drivers/BSP/Components/mx66uw1g45g/mx66uw1g45g.c ****   *         SPI/OPI; 1-1-1/8-8-8
 537:STM32Cube_FW_N6/Drivers/BSP/Components/mx66uw1g45g/mx66uw1g45g.c ****   * @param  Ctx Component object pointer
 538:STM32Cube_FW_N6/Drivers/BSP/Components/mx66uw1g45g/mx66uw1g45g.c ****   * @param  Mode Interface mode
 539:STM32Cube_FW_N6/Drivers/BSP/Components/mx66uw1g45g/mx66uw1g45g.c ****   * @param  AddressWidth Address size
 540:STM32Cube_FW_N6/Drivers/BSP/Components/mx66uw1g45g/mx66uw1g45g.c ****   * @retval XSPI memory status
 541:STM32Cube_FW_N6/Drivers/BSP/Components/mx66uw1g45g/mx66uw1g45g.c ****   */
 542:STM32Cube_FW_N6/Drivers/BSP/Components/mx66uw1g45g/mx66uw1g45g.c **** int32_t MX66UW1G45G_EnableSTRMemoryMappedMode(XSPI_HandleTypeDef *Ctx, MX66UW1G45G_Interface_t Mode
 543:STM32Cube_FW_N6/Drivers/BSP/Components/mx66uw1g45g/mx66uw1g45g.c ****                                               MX66UW1G45G_AddressWidth_t AddressWidth)
 544:STM32Cube_FW_N6/Drivers/BSP/Components/mx66uw1g45g/mx66uw1g45g.c **** {
 1158              		.loc 1 544 1 is_stmt 1 view -0
 1159              		.cfi_startproc
 1160              		@ args = 0, pretend = 0, frame = 96
 1161              		@ frame_needed = 0, uses_anonymous_args = 0
 545:STM32Cube_FW_N6/Drivers/BSP/Components/mx66uw1g45g/mx66uw1g45g.c ****   XSPI_RegularCmdTypeDef s_command = {0};
 1162              		.loc 1 545 3 view .LVU388
 544:STM32Cube_FW_N6/Drivers/BSP/Components/mx66uw1g45g/mx66uw1g45g.c ****   XSPI_RegularCmdTypeDef s_command = {0};
 1163              		.loc 1 544 1 is_stmt 0 view .LVU389
 1164 0000 70B5     		push	{r4, r5, r6, lr}
 1165              		.cfi_def_cfa_offset 16
 1166              		.cfi_offset 4, -16
 1167              		.cfi_offset 5, -12
 1168              		.cfi_offset 6, -8
 1169              		.cfi_offset 14, -4
 1170 0002 0C46     		mov	r4, r1
 1171 0004 98B0     		sub	sp, sp, #96
 1172              		.cfi_def_cfa_offset 112
 1173              		.loc 1 545 26 view .LVU390
 1174 0006 0021     		movs	r1, #0
ARM GAS  C:\Users\DJESSOU\AppData\Local\Temp\ccAx4BcF.s 			page 35


 1175              	.LVL61:
 544:STM32Cube_FW_N6/Drivers/BSP/Components/mx66uw1g45g/mx66uw1g45g.c ****   XSPI_RegularCmdTypeDef s_command = {0};
 1176              		.loc 1 544 1 view .LVU391
 1177 0008 0646     		mov	r6, r0
 1178 000a 1546     		mov	r5, r2
 1179              		.loc 1 545 26 view .LVU392
 1180 000c 05A8     		add	r0, sp, #20
 1181              	.LVL62:
 1182              		.loc 1 545 26 view .LVU393
 1183 000e 4C22     		movs	r2, #76
 1184              	.LVL63:
 1185              		.loc 1 545 26 view .LVU394
 1186 0010 FFF7FEFF 		bl	memset
 1187              	.LVL64:
 546:STM32Cube_FW_N6/Drivers/BSP/Components/mx66uw1g45g/mx66uw1g45g.c ****   XSPI_MemoryMappedTypeDef s_mem_mapped_cfg = {0};
 1188              		.loc 1 546 3 is_stmt 1 view .LVU395
 1189              		.loc 1 546 28 is_stmt 0 view .LVU396
 1190 0014 1022     		movs	r2, #16
 1191 0016 0021     		movs	r1, #0
 1192 0018 01A8     		add	r0, sp, #4
 1193 001a FFF7FEFF 		bl	memset
 1194              	.LVL65:
 547:STM32Cube_FW_N6/Drivers/BSP/Components/mx66uw1g45g/mx66uw1g45g.c **** 
 548:STM32Cube_FW_N6/Drivers/BSP/Components/mx66uw1g45g/mx66uw1g45g.c ****   /* OPI mode and 3-bytes address size not supported by memory */
 549:STM32Cube_FW_N6/Drivers/BSP/Components/mx66uw1g45g/mx66uw1g45g.c ****   if ((Mode == MX66UW1G45G_OPI_MODE) && (AddressWidth == MX66UW1G45G_3BYTES_SIZE))
 1195              		.loc 1 549 3 is_stmt 1 view .LVU397
 1196              		.loc 1 549 6 is_stmt 0 view .LVU398
 1197 001e 012C     		cmp	r4, #1
 1198 0020 44D1     		bne	.L77
 1199              		.loc 1 549 38 discriminator 1 view .LVU399
 1200 0022 1DB9     		cbnz	r5, .L78
 1201              	.L86:
 550:STM32Cube_FW_N6/Drivers/BSP/Components/mx66uw1g45g/mx66uw1g45g.c ****   {
 551:STM32Cube_FW_N6/Drivers/BSP/Components/mx66uw1g45g/mx66uw1g45g.c ****     return MX66UW1G45G_ERROR;
 1202              		.loc 1 551 12 view .LVU400
 1203 0024 4FF0FF30 		mov	r0, #-1
 1204              	.L76:
 552:STM32Cube_FW_N6/Drivers/BSP/Components/mx66uw1g45g/mx66uw1g45g.c ****   }
 553:STM32Cube_FW_N6/Drivers/BSP/Components/mx66uw1g45g/mx66uw1g45g.c **** 
 554:STM32Cube_FW_N6/Drivers/BSP/Components/mx66uw1g45g/mx66uw1g45g.c ****   /* Initialize the read command */
 555:STM32Cube_FW_N6/Drivers/BSP/Components/mx66uw1g45g/mx66uw1g45g.c ****   s_command.OperationType = HAL_XSPI_OPTYPE_READ_CFG;
 556:STM32Cube_FW_N6/Drivers/BSP/Components/mx66uw1g45g/mx66uw1g45g.c ****   s_command.InstructionMode = (Mode == MX66UW1G45G_SPI_MODE)
 557:STM32Cube_FW_N6/Drivers/BSP/Components/mx66uw1g45g/mx66uw1g45g.c ****                                   ? HAL_XSPI_INSTRUCTION_1_LINE
 558:STM32Cube_FW_N6/Drivers/BSP/Components/mx66uw1g45g/mx66uw1g45g.c ****                                   : HAL_XSPI_INSTRUCTION_8_LINES;
 559:STM32Cube_FW_N6/Drivers/BSP/Components/mx66uw1g45g/mx66uw1g45g.c ****   s_command.InstructionDTRMode = HAL_XSPI_INSTRUCTION_DTR_DISABLE;
 560:STM32Cube_FW_N6/Drivers/BSP/Components/mx66uw1g45g/mx66uw1g45g.c ****   s_command.InstructionWidth = (Mode == MX66UW1G45G_SPI_MODE)
 561:STM32Cube_FW_N6/Drivers/BSP/Components/mx66uw1g45g/mx66uw1g45g.c ****                                    ? HAL_XSPI_INSTRUCTION_8_BITS
 562:STM32Cube_FW_N6/Drivers/BSP/Components/mx66uw1g45g/mx66uw1g45g.c ****                                    : HAL_XSPI_INSTRUCTION_16_BITS;
 563:STM32Cube_FW_N6/Drivers/BSP/Components/mx66uw1g45g/mx66uw1g45g.c ****   s_command.Instruction = (Mode == MX66UW1G45G_SPI_MODE)
 564:STM32Cube_FW_N6/Drivers/BSP/Components/mx66uw1g45g/mx66uw1g45g.c ****                               ? ((AddressWidth == MX66UW1G45G_3BYTES_SIZE)
 565:STM32Cube_FW_N6/Drivers/BSP/Components/mx66uw1g45g/mx66uw1g45g.c ****                                      ? MX66UW1G45G_FAST_READ_CMD
 566:STM32Cube_FW_N6/Drivers/BSP/Components/mx66uw1g45g/mx66uw1g45g.c ****                                      : MX66UW1G45G_4_BYTE_ADDR_FAST_READ_CMD)
 567:STM32Cube_FW_N6/Drivers/BSP/Components/mx66uw1g45g/mx66uw1g45g.c ****                               : MX66UW1G45G_OCTA_READ_CMD;
 568:STM32Cube_FW_N6/Drivers/BSP/Components/mx66uw1g45g/mx66uw1g45g.c ****   s_command.AddressMode = (Mode == MX66UW1G45G_SPI_MODE) ? HAL_XSPI_ADDRESS_1_LINE : HAL_XSPI_ADDRE
 569:STM32Cube_FW_N6/Drivers/BSP/Components/mx66uw1g45g/mx66uw1g45g.c ****   s_command.AddressDTRMode = HAL_XSPI_ADDRESS_DTR_DISABLE;
 570:STM32Cube_FW_N6/Drivers/BSP/Components/mx66uw1g45g/mx66uw1g45g.c ****   s_command.AddressWidth = (AddressWidth == MX66UW1G45G_3BYTES_SIZE)
 571:STM32Cube_FW_N6/Drivers/BSP/Components/mx66uw1g45g/mx66uw1g45g.c ****                                ? HAL_XSPI_ADDRESS_24_BITS
ARM GAS  C:\Users\DJESSOU\AppData\Local\Temp\ccAx4BcF.s 			page 36


 572:STM32Cube_FW_N6/Drivers/BSP/Components/mx66uw1g45g/mx66uw1g45g.c ****                                : HAL_XSPI_ADDRESS_32_BITS;
 573:STM32Cube_FW_N6/Drivers/BSP/Components/mx66uw1g45g/mx66uw1g45g.c ****   s_command.AlternateBytesMode = HAL_XSPI_ALT_BYTES_NONE;
 574:STM32Cube_FW_N6/Drivers/BSP/Components/mx66uw1g45g/mx66uw1g45g.c ****   s_command.DataMode = (Mode == MX66UW1G45G_SPI_MODE) ? HAL_XSPI_DATA_1_LINE : HAL_XSPI_DATA_8_LINE
 575:STM32Cube_FW_N6/Drivers/BSP/Components/mx66uw1g45g/mx66uw1g45g.c ****   s_command.DataDTRMode = HAL_XSPI_DATA_DTR_DISABLE;
 576:STM32Cube_FW_N6/Drivers/BSP/Components/mx66uw1g45g/mx66uw1g45g.c ****   s_command.DummyCycles = (Mode == MX66UW1G45G_SPI_MODE) ? DUMMY_CYCLES_READ : DUMMY_CYCLES_READ_OC
 577:STM32Cube_FW_N6/Drivers/BSP/Components/mx66uw1g45g/mx66uw1g45g.c ****   s_command.DQSMode = HAL_XSPI_DQS_DISABLE;
 578:STM32Cube_FW_N6/Drivers/BSP/Components/mx66uw1g45g/mx66uw1g45g.c ****  #if defined (XSPI_CCR_SIOO)
 579:STM32Cube_FW_N6/Drivers/BSP/Components/mx66uw1g45g/mx66uw1g45g.c ****   s_command.SIOOMode            = HAL_XSPI_SIOO_INST_EVERY_CMD;
 580:STM32Cube_FW_N6/Drivers/BSP/Components/mx66uw1g45g/mx66uw1g45g.c ****  #endif
 581:STM32Cube_FW_N6/Drivers/BSP/Components/mx66uw1g45g/mx66uw1g45g.c **** 
 582:STM32Cube_FW_N6/Drivers/BSP/Components/mx66uw1g45g/mx66uw1g45g.c ****   /* Send the read command */
 583:STM32Cube_FW_N6/Drivers/BSP/Components/mx66uw1g45g/mx66uw1g45g.c ****   if (HAL_XSPI_Command(Ctx, &s_command, HAL_XSPI_TIMEOUT_DEFAULT_VALUE) != HAL_OK)
 584:STM32Cube_FW_N6/Drivers/BSP/Components/mx66uw1g45g/mx66uw1g45g.c ****   {
 585:STM32Cube_FW_N6/Drivers/BSP/Components/mx66uw1g45g/mx66uw1g45g.c ****     return MX66UW1G45G_ERROR;
 586:STM32Cube_FW_N6/Drivers/BSP/Components/mx66uw1g45g/mx66uw1g45g.c ****   }
 587:STM32Cube_FW_N6/Drivers/BSP/Components/mx66uw1g45g/mx66uw1g45g.c **** 
 588:STM32Cube_FW_N6/Drivers/BSP/Components/mx66uw1g45g/mx66uw1g45g.c ****   /* Initialize the program command */
 589:STM32Cube_FW_N6/Drivers/BSP/Components/mx66uw1g45g/mx66uw1g45g.c ****   s_command.OperationType = HAL_XSPI_OPTYPE_WRITE_CFG;
 590:STM32Cube_FW_N6/Drivers/BSP/Components/mx66uw1g45g/mx66uw1g45g.c ****   s_command.Instruction = (Mode == MX66UW1G45G_SPI_MODE)
 591:STM32Cube_FW_N6/Drivers/BSP/Components/mx66uw1g45g/mx66uw1g45g.c ****                               ? ((AddressWidth == MX66UW1G45G_3BYTES_SIZE)
 592:STM32Cube_FW_N6/Drivers/BSP/Components/mx66uw1g45g/mx66uw1g45g.c ****                                      ? MX66UW1G45G_PAGE_PROG_CMD
 593:STM32Cube_FW_N6/Drivers/BSP/Components/mx66uw1g45g/mx66uw1g45g.c ****                                      : MX66UW1G45G_4_BYTE_PAGE_PROG_CMD)
 594:STM32Cube_FW_N6/Drivers/BSP/Components/mx66uw1g45g/mx66uw1g45g.c ****                               : MX66UW1G45G_OCTA_PAGE_PROG_CMD;
 595:STM32Cube_FW_N6/Drivers/BSP/Components/mx66uw1g45g/mx66uw1g45g.c ****   s_command.DummyCycles = 0U;
 596:STM32Cube_FW_N6/Drivers/BSP/Components/mx66uw1g45g/mx66uw1g45g.c **** 
 597:STM32Cube_FW_N6/Drivers/BSP/Components/mx66uw1g45g/mx66uw1g45g.c ****   /* Send the write command */
 598:STM32Cube_FW_N6/Drivers/BSP/Components/mx66uw1g45g/mx66uw1g45g.c ****   if (HAL_XSPI_Command(Ctx, &s_command, HAL_XSPI_TIMEOUT_DEFAULT_VALUE) != HAL_OK)
 599:STM32Cube_FW_N6/Drivers/BSP/Components/mx66uw1g45g/mx66uw1g45g.c ****   {
 600:STM32Cube_FW_N6/Drivers/BSP/Components/mx66uw1g45g/mx66uw1g45g.c ****     return MX66UW1G45G_ERROR;
 601:STM32Cube_FW_N6/Drivers/BSP/Components/mx66uw1g45g/mx66uw1g45g.c ****   }
 602:STM32Cube_FW_N6/Drivers/BSP/Components/mx66uw1g45g/mx66uw1g45g.c **** 
 603:STM32Cube_FW_N6/Drivers/BSP/Components/mx66uw1g45g/mx66uw1g45g.c ****   /* Configure the memory mapped mode */
 604:STM32Cube_FW_N6/Drivers/BSP/Components/mx66uw1g45g/mx66uw1g45g.c ****   s_mem_mapped_cfg.TimeOutActivation = HAL_XSPI_TIMEOUT_COUNTER_DISABLE;
 605:STM32Cube_FW_N6/Drivers/BSP/Components/mx66uw1g45g/mx66uw1g45g.c **** 
 606:STM32Cube_FW_N6/Drivers/BSP/Components/mx66uw1g45g/mx66uw1g45g.c ****   if (HAL_XSPI_MemoryMapped(Ctx, &s_mem_mapped_cfg) != HAL_OK)
 607:STM32Cube_FW_N6/Drivers/BSP/Components/mx66uw1g45g/mx66uw1g45g.c ****   {
 608:STM32Cube_FW_N6/Drivers/BSP/Components/mx66uw1g45g/mx66uw1g45g.c ****     return MX66UW1G45G_ERROR;
 609:STM32Cube_FW_N6/Drivers/BSP/Components/mx66uw1g45g/mx66uw1g45g.c ****   }
 610:STM32Cube_FW_N6/Drivers/BSP/Components/mx66uw1g45g/mx66uw1g45g.c **** 
 611:STM32Cube_FW_N6/Drivers/BSP/Components/mx66uw1g45g/mx66uw1g45g.c ****   return MX66UW1G45G_OK;
 612:STM32Cube_FW_N6/Drivers/BSP/Components/mx66uw1g45g/mx66uw1g45g.c **** }
 1205              		.loc 1 612 1 view .LVU401
 1206 0028 18B0     		add	sp, sp, #96
 1207              		.cfi_remember_state
 1208              		.cfi_def_cfa_offset 16
 1209              		@ sp needed
 1210 002a 70BD     		pop	{r4, r5, r6, pc}
 1211              	.LVL66:
 1212              	.L78:
 1213              		.cfi_restore_state
 555:STM32Cube_FW_N6/Drivers/BSP/Components/mx66uw1g45g/mx66uw1g45g.c ****   s_command.InstructionMode = (Mode == MX66UW1G45G_SPI_MODE)
 1214              		.loc 1 555 3 is_stmt 1 view .LVU402
 555:STM32Cube_FW_N6/Drivers/BSP/Components/mx66uw1g45g/mx66uw1g45g.c ****   s_command.InstructionMode = (Mode == MX66UW1G45G_SPI_MODE)
 1215              		.loc 1 555 27 is_stmt 0 view .LVU403
 1216 002c 0594     		str	r4, [sp, #20]
 556:STM32Cube_FW_N6/Drivers/BSP/Components/mx66uw1g45g/mx66uw1g45g.c ****                                   ? HAL_XSPI_INSTRUCTION_1_LINE
 1217              		.loc 1 556 3 is_stmt 1 view .LVU404
ARM GAS  C:\Users\DJESSOU\AppData\Local\Temp\ccAx4BcF.s 			page 37


 1218              	.L80:
 560:STM32Cube_FW_N6/Drivers/BSP/Components/mx66uw1g45g/mx66uw1g45g.c ****                                    ? HAL_XSPI_INSTRUCTION_8_BITS
 1219              		.loc 1 560 30 is_stmt 0 view .LVU405
 1220 002e 0422     		movs	r2, #4
 1221 0030 1023     		movs	r3, #16
 1222 0032 CDE90823 		strd	r2, r3, [sp, #32]
 563:STM32Cube_FW_N6/Drivers/BSP/Components/mx66uw1g45g/mx66uw1g45g.c ****                               ? ((AddressWidth == MX66UW1G45G_3BYTES_SIZE)
 1223              		.loc 1 563 3 is_stmt 1 view .LVU406
 568:STM32Cube_FW_N6/Drivers/BSP/Components/mx66uw1g45g/mx66uw1g45g.c ****   s_command.AddressDTRMode = HAL_XSPI_ADDRESS_DTR_DISABLE;
 1224              		.loc 1 568 3 view .LVU407
 560:STM32Cube_FW_N6/Drivers/BSP/Components/mx66uw1g45g/mx66uw1g45g.c ****                                    ? HAL_XSPI_INSTRUCTION_8_BITS
 1225              		.loc 1 560 30 is_stmt 0 view .LVU408
 1226 0036 4EF61342 		movw	r2, #60435
 568:STM32Cube_FW_N6/Drivers/BSP/Components/mx66uw1g45g/mx66uw1g45g.c ****   s_command.AddressDTRMode = HAL_XSPI_ADDRESS_DTR_DISABLE;
 1227              		.loc 1 568 84 discriminator 2 view .LVU409
 1228 003a 4FF48063 		mov	r3, #1024
 1229              	.L82:
 572:STM32Cube_FW_N6/Drivers/BSP/Components/mx66uw1g45g/mx66uw1g45g.c ****   s_command.AlternateBytesMode = HAL_XSPI_ALT_BYTES_NONE;
 1230              		.loc 1 572 32 discriminator 1 view .LVU410
 1231 003e 002D     		cmp	r5, #0
 568:STM32Cube_FW_N6/Drivers/BSP/Components/mx66uw1g45g/mx66uw1g45g.c ****   s_command.AddressDTRMode = HAL_XSPI_ADDRESS_DTR_DISABLE;
 1232              		.loc 1 568 25 discriminator 4 view .LVU411
 1233 0040 0C93     		str	r3, [sp, #48]
 569:STM32Cube_FW_N6/Drivers/BSP/Components/mx66uw1g45g/mx66uw1g45g.c ****   s_command.AddressWidth = (AddressWidth == MX66UW1G45G_3BYTES_SIZE)
 1234              		.loc 1 569 3 is_stmt 1 view .LVU412
 570:STM32Cube_FW_N6/Drivers/BSP/Components/mx66uw1g45g/mx66uw1g45g.c ****                                ? HAL_XSPI_ADDRESS_24_BITS
 1235              		.loc 1 570 3 view .LVU413
 572:STM32Cube_FW_N6/Drivers/BSP/Components/mx66uw1g45g/mx66uw1g45g.c ****   s_command.AlternateBytesMode = HAL_XSPI_ALT_BYTES_NONE;
 1236              		.loc 1 572 32 is_stmt 0 discriminator 1 view .LVU414
 1237 0042 14BF     		ite	ne
 1238 0044 4FF44053 		movne	r3, #12288
 1239 0048 4FF40053 		moveq	r3, #8192
 574:STM32Cube_FW_N6/Drivers/BSP/Components/mx66uw1g45g/mx66uw1g45g.c ****   s_command.DataDTRMode = HAL_XSPI_DATA_DTR_DISABLE;
 1240              		.loc 1 574 22 discriminator 4 view .LVU415
 1241 004c 002C     		cmp	r4, #0
 563:STM32Cube_FW_N6/Drivers/BSP/Components/mx66uw1g45g/mx66uw1g45g.c ****                               ? ((AddressWidth == MX66UW1G45G_3BYTES_SIZE)
 1242              		.loc 1 563 25 view .LVU416
 1243 004e 0792     		str	r2, [sp, #28]
 574:STM32Cube_FW_N6/Drivers/BSP/Components/mx66uw1g45g/mx66uw1g45g.c ****   s_command.DataDTRMode = HAL_XSPI_DATA_DTR_DISABLE;
 1244              		.loc 1 574 22 discriminator 4 view .LVU417
 1245 0050 0CBF     		ite	eq
 1246 0052 4FF08072 		moveq	r2, #16777216
 1247 0056 4FF08062 		movne	r2, #67108864
 570:STM32Cube_FW_N6/Drivers/BSP/Components/mx66uw1g45g/mx66uw1g45g.c ****                                ? HAL_XSPI_ADDRESS_24_BITS
 1248              		.loc 1 570 26 view .LVU418
 1249 005a 0D93     		str	r3, [sp, #52]
 573:STM32Cube_FW_N6/Drivers/BSP/Components/mx66uw1g45g/mx66uw1g45g.c ****   s_command.DataMode = (Mode == MX66UW1G45G_SPI_MODE) ? HAL_XSPI_DATA_1_LINE : HAL_XSPI_DATA_8_LINE
 1250              		.loc 1 573 3 is_stmt 1 view .LVU419
 574:STM32Cube_FW_N6/Drivers/BSP/Components/mx66uw1g45g/mx66uw1g45g.c ****   s_command.DataDTRMode = HAL_XSPI_DATA_DTR_DISABLE;
 1251              		.loc 1 574 3 view .LVU420
 574:STM32Cube_FW_N6/Drivers/BSP/Components/mx66uw1g45g/mx66uw1g45g.c ****   s_command.DataDTRMode = HAL_XSPI_DATA_DTR_DISABLE;
 1252              		.loc 1 574 22 is_stmt 0 discriminator 4 view .LVU421
 1253 005c 0CBF     		ite	eq
 1254 005e 0823     		moveq	r3, #8
 1255 0060 0A23     		movne	r3, #10
 1256 0062 1392     		str	r2, [sp, #76]
 583:STM32Cube_FW_N6/Drivers/BSP/Components/mx66uw1g45g/mx66uw1g45g.c ****   {
ARM GAS  C:\Users\DJESSOU\AppData\Local\Temp\ccAx4BcF.s 			page 38


 1257              		.loc 1 583 7 view .LVU422
 1258 0064 3046     		mov	r0, r6
 1259 0066 41F28832 		movw	r2, #5000
 1260 006a 05A9     		add	r1, sp, #20
 576:STM32Cube_FW_N6/Drivers/BSP/Components/mx66uw1g45g/mx66uw1g45g.c ****   s_command.DQSMode = HAL_XSPI_DQS_DISABLE;
 1261              		.loc 1 576 25 discriminator 4 view .LVU423
 1262 006c 1693     		str	r3, [sp, #88]
 577:STM32Cube_FW_N6/Drivers/BSP/Components/mx66uw1g45g/mx66uw1g45g.c ****  #if defined (XSPI_CCR_SIOO)
 1263              		.loc 1 577 3 is_stmt 1 view .LVU424
 583:STM32Cube_FW_N6/Drivers/BSP/Components/mx66uw1g45g/mx66uw1g45g.c ****   {
 1264              		.loc 1 583 3 view .LVU425
 583:STM32Cube_FW_N6/Drivers/BSP/Components/mx66uw1g45g/mx66uw1g45g.c ****   {
 1265              		.loc 1 583 7 is_stmt 0 view .LVU426
 1266 006e FFF7FEFF 		bl	HAL_XSPI_Command
 1267              	.LVL67:
 583:STM32Cube_FW_N6/Drivers/BSP/Components/mx66uw1g45g/mx66uw1g45g.c ****   {
 1268              		.loc 1 583 6 discriminator 1 view .LVU427
 1269 0072 0028     		cmp	r0, #0
 1270 0074 D6D1     		bne	.L86
 589:STM32Cube_FW_N6/Drivers/BSP/Components/mx66uw1g45g/mx66uw1g45g.c ****   s_command.Instruction = (Mode == MX66UW1G45G_SPI_MODE)
 1271              		.loc 1 589 3 is_stmt 1 view .LVU428
 589:STM32Cube_FW_N6/Drivers/BSP/Components/mx66uw1g45g/mx66uw1g45g.c ****   s_command.Instruction = (Mode == MX66UW1G45G_SPI_MODE)
 1272              		.loc 1 589 27 is_stmt 0 view .LVU429
 1273 0076 0223     		movs	r3, #2
 1274 0078 0593     		str	r3, [sp, #20]
 590:STM32Cube_FW_N6/Drivers/BSP/Components/mx66uw1g45g/mx66uw1g45g.c ****                               ? ((AddressWidth == MX66UW1G45G_3BYTES_SIZE)
 1275              		.loc 1 590 3 is_stmt 1 view .LVU430
 594:STM32Cube_FW_N6/Drivers/BSP/Components/mx66uw1g45g/mx66uw1g45g.c ****   s_command.DummyCycles = 0U;
 1276              		.loc 1 594 31 is_stmt 0 view .LVU431
 1277 007a 1CBB     		cbnz	r4, .L91
 594:STM32Cube_FW_N6/Drivers/BSP/Components/mx66uw1g45g/mx66uw1g45g.c ****   s_command.DummyCycles = 0U;
 1278              		.loc 1 594 31 discriminator 3 view .LVU432
 1279 007c 002D     		cmp	r5, #0
 1280 007e 18BF     		it	ne
 1281 0080 1223     		movne	r3, #18
 1282              	.L87:
 590:STM32Cube_FW_N6/Drivers/BSP/Components/mx66uw1g45g/mx66uw1g45g.c ****                               ? ((AddressWidth == MX66UW1G45G_3BYTES_SIZE)
 1283              		.loc 1 590 25 view .LVU433
 1284 0082 0793     		str	r3, [sp, #28]
 595:STM32Cube_FW_N6/Drivers/BSP/Components/mx66uw1g45g/mx66uw1g45g.c **** 
 1285              		.loc 1 595 3 is_stmt 1 view .LVU434
 595:STM32Cube_FW_N6/Drivers/BSP/Components/mx66uw1g45g/mx66uw1g45g.c **** 
 1286              		.loc 1 595 25 is_stmt 0 view .LVU435
 1287 0084 0023     		movs	r3, #0
 598:STM32Cube_FW_N6/Drivers/BSP/Components/mx66uw1g45g/mx66uw1g45g.c ****   {
 1288              		.loc 1 598 7 view .LVU436
 1289 0086 41F28832 		movw	r2, #5000
 1290 008a 3046     		mov	r0, r6
 1291 008c 05A9     		add	r1, sp, #20
 595:STM32Cube_FW_N6/Drivers/BSP/Components/mx66uw1g45g/mx66uw1g45g.c **** 
 1292              		.loc 1 595 25 view .LVU437
 1293 008e 1693     		str	r3, [sp, #88]
 598:STM32Cube_FW_N6/Drivers/BSP/Components/mx66uw1g45g/mx66uw1g45g.c ****   {
 1294              		.loc 1 598 3 is_stmt 1 view .LVU438
 598:STM32Cube_FW_N6/Drivers/BSP/Components/mx66uw1g45g/mx66uw1g45g.c ****   {
 1295              		.loc 1 598 7 is_stmt 0 view .LVU439
 1296 0090 FFF7FEFF 		bl	HAL_XSPI_Command
ARM GAS  C:\Users\DJESSOU\AppData\Local\Temp\ccAx4BcF.s 			page 39


 1297              	.LVL68:
 598:STM32Cube_FW_N6/Drivers/BSP/Components/mx66uw1g45g/mx66uw1g45g.c ****   {
 1298              		.loc 1 598 6 discriminator 1 view .LVU440
 1299 0094 0028     		cmp	r0, #0
 1300 0096 C5D1     		bne	.L86
 604:STM32Cube_FW_N6/Drivers/BSP/Components/mx66uw1g45g/mx66uw1g45g.c **** 
 1301              		.loc 1 604 3 is_stmt 1 view .LVU441
 604:STM32Cube_FW_N6/Drivers/BSP/Components/mx66uw1g45g/mx66uw1g45g.c **** 
 1302              		.loc 1 604 38 is_stmt 0 view .LVU442
 1303 0098 0190     		str	r0, [sp, #4]
 606:STM32Cube_FW_N6/Drivers/BSP/Components/mx66uw1g45g/mx66uw1g45g.c ****   {
 1304              		.loc 1 606 3 is_stmt 1 view .LVU443
 606:STM32Cube_FW_N6/Drivers/BSP/Components/mx66uw1g45g/mx66uw1g45g.c ****   {
 1305              		.loc 1 606 7 is_stmt 0 view .LVU444
 1306 009a 01A9     		add	r1, sp, #4
 1307 009c 3046     		mov	r0, r6
 1308 009e FFF7FEFF 		bl	HAL_XSPI_MemoryMapped
 1309              	.LVL69:
 606:STM32Cube_FW_N6/Drivers/BSP/Components/mx66uw1g45g/mx66uw1g45g.c ****   {
 1310              		.loc 1 606 6 discriminator 1 view .LVU445
 1311 00a2 0038     		subs	r0, r0, #0
 1312 00a4 18BF     		it	ne
 1313 00a6 0120     		movne	r0, #1
 1314 00a8 4042     		rsbs	r0, r0, #0
 1315 00aa BDE7     		b	.L76
 1316              	.L77:
 555:STM32Cube_FW_N6/Drivers/BSP/Components/mx66uw1g45g/mx66uw1g45g.c ****   s_command.InstructionMode = (Mode == MX66UW1G45G_SPI_MODE)
 1317              		.loc 1 555 3 is_stmt 1 view .LVU446
 555:STM32Cube_FW_N6/Drivers/BSP/Components/mx66uw1g45g/mx66uw1g45g.c ****   s_command.InstructionMode = (Mode == MX66UW1G45G_SPI_MODE)
 1318              		.loc 1 555 27 is_stmt 0 view .LVU447
 1319 00ac 0123     		movs	r3, #1
 1320 00ae 0593     		str	r3, [sp, #20]
 556:STM32Cube_FW_N6/Drivers/BSP/Components/mx66uw1g45g/mx66uw1g45g.c ****                                   ? HAL_XSPI_INSTRUCTION_1_LINE
 1321              		.loc 1 556 3 is_stmt 1 view .LVU448
 558:STM32Cube_FW_N6/Drivers/BSP/Components/mx66uw1g45g/mx66uw1g45g.c ****   s_command.InstructionDTRMode = HAL_XSPI_INSTRUCTION_DTR_DISABLE;
 1322              		.loc 1 558 35 is_stmt 0 view .LVU449
 1323 00b0 002C     		cmp	r4, #0
 1324 00b2 BCD1     		bne	.L80
 567:STM32Cube_FW_N6/Drivers/BSP/Components/mx66uw1g45g/mx66uw1g45g.c ****   s_command.AddressMode = (Mode == MX66UW1G45G_SPI_MODE) ? HAL_XSPI_ADDRESS_1_LINE : HAL_XSPI_ADDRE
 1325              		.loc 1 567 31 discriminator 3 view .LVU450
 1326 00b4 002D     		cmp	r5, #0
 556:STM32Cube_FW_N6/Drivers/BSP/Components/mx66uw1g45g/mx66uw1g45g.c ****                                   ? HAL_XSPI_INSTRUCTION_1_LINE
 1327              		.loc 1 556 29 view .LVU451
 1328 00b6 0893     		str	r3, [sp, #32]
 559:STM32Cube_FW_N6/Drivers/BSP/Components/mx66uw1g45g/mx66uw1g45g.c ****   s_command.InstructionWidth = (Mode == MX66UW1G45G_SPI_MODE)
 1329              		.loc 1 559 3 is_stmt 1 view .LVU452
 560:STM32Cube_FW_N6/Drivers/BSP/Components/mx66uw1g45g/mx66uw1g45g.c ****                                    ? HAL_XSPI_INSTRUCTION_8_BITS
 1330              		.loc 1 560 3 view .LVU453
 563:STM32Cube_FW_N6/Drivers/BSP/Components/mx66uw1g45g/mx66uw1g45g.c ****                               ? ((AddressWidth == MX66UW1G45G_3BYTES_SIZE)
 1331              		.loc 1 563 3 view .LVU454
 567:STM32Cube_FW_N6/Drivers/BSP/Components/mx66uw1g45g/mx66uw1g45g.c ****   s_command.AddressMode = (Mode == MX66UW1G45G_SPI_MODE) ? HAL_XSPI_ADDRESS_1_LINE : HAL_XSPI_ADDRE
 1332              		.loc 1 567 31 is_stmt 0 discriminator 3 view .LVU455
 1333 00b8 14BF     		ite	ne
 1334 00ba 0C22     		movne	r2, #12
 1335 00bc 0B22     		moveq	r2, #11
 568:STM32Cube_FW_N6/Drivers/BSP/Components/mx66uw1g45g/mx66uw1g45g.c ****   s_command.AddressDTRMode = HAL_XSPI_ADDRESS_DTR_DISABLE;
 1336              		.loc 1 568 3 is_stmt 1 view .LVU456
ARM GAS  C:\Users\DJESSOU\AppData\Local\Temp\ccAx4BcF.s 			page 40


 568:STM32Cube_FW_N6/Drivers/BSP/Components/mx66uw1g45g/mx66uw1g45g.c ****   s_command.AddressDTRMode = HAL_XSPI_ADDRESS_DTR_DISABLE;
 1337              		.loc 1 568 84 is_stmt 0 discriminator 1 view .LVU457
 1338 00be 4FF48073 		mov	r3, #256
 1339 00c2 BCE7     		b	.L82
 1340              	.L91:
 594:STM32Cube_FW_N6/Drivers/BSP/Components/mx66uw1g45g/mx66uw1g45g.c ****   s_command.DummyCycles = 0U;
 1341              		.loc 1 594 31 discriminator 2 view .LVU458
 1342 00c4 41F2ED23 		movw	r3, #4845
 1343 00c8 DBE7     		b	.L87
 1344              		.cfi_endproc
 1345              	.LFE870:
 1347              		.section	.text.MX66UW1G45G_EnableDTRMemoryMappedMode,"ax",%progbits
 1348              		.align	1
 1349              		.global	MX66UW1G45G_EnableDTRMemoryMappedMode
 1350              		.syntax unified
 1351              		.thumb
 1352              		.thumb_func
 1354              	MX66UW1G45G_EnableDTRMemoryMappedMode:
 1355              	.LVL70:
 1356              	.LFB871:
 613:STM32Cube_FW_N6/Drivers/BSP/Components/mx66uw1g45g/mx66uw1g45g.c **** 
 614:STM32Cube_FW_N6/Drivers/BSP/Components/mx66uw1g45g/mx66uw1g45g.c **** /**
 615:STM32Cube_FW_N6/Drivers/BSP/Components/mx66uw1g45g/mx66uw1g45g.c ****   * @brief  Enable memory mapped mode for the XSPI memory on DTR mode.
 616:STM32Cube_FW_N6/Drivers/BSP/Components/mx66uw1g45g/mx66uw1g45g.c ****   * @param  Ctx Component object pointer
 617:STM32Cube_FW_N6/Drivers/BSP/Components/mx66uw1g45g/mx66uw1g45g.c ****   * @param  Mode Interface mode
 618:STM32Cube_FW_N6/Drivers/BSP/Components/mx66uw1g45g/mx66uw1g45g.c ****   * @param  AddressWidth Address size
 619:STM32Cube_FW_N6/Drivers/BSP/Components/mx66uw1g45g/mx66uw1g45g.c ****   * @note   Only OPI mode support DTR transfer rate
 620:STM32Cube_FW_N6/Drivers/BSP/Components/mx66uw1g45g/mx66uw1g45g.c ****   * @retval XSPI memory status
 621:STM32Cube_FW_N6/Drivers/BSP/Components/mx66uw1g45g/mx66uw1g45g.c ****   */
 622:STM32Cube_FW_N6/Drivers/BSP/Components/mx66uw1g45g/mx66uw1g45g.c **** int32_t MX66UW1G45G_EnableDTRMemoryMappedMode(XSPI_HandleTypeDef *Ctx, MX66UW1G45G_Interface_t Mode
 623:STM32Cube_FW_N6/Drivers/BSP/Components/mx66uw1g45g/mx66uw1g45g.c **** {
 1357              		.loc 1 623 1 is_stmt 1 view -0
 1358              		.cfi_startproc
 1359              		@ args = 0, pretend = 0, frame = 96
 1360              		@ frame_needed = 0, uses_anonymous_args = 0
 624:STM32Cube_FW_N6/Drivers/BSP/Components/mx66uw1g45g/mx66uw1g45g.c ****   /* Prevent unused argument(s) compilation warning */
 625:STM32Cube_FW_N6/Drivers/BSP/Components/mx66uw1g45g/mx66uw1g45g.c ****   UNUSED(Mode);
 1361              		.loc 1 625 3 view .LVU460
 626:STM32Cube_FW_N6/Drivers/BSP/Components/mx66uw1g45g/mx66uw1g45g.c **** 
 627:STM32Cube_FW_N6/Drivers/BSP/Components/mx66uw1g45g/mx66uw1g45g.c ****   XSPI_RegularCmdTypeDef s_command = {0};
 1362              		.loc 1 627 3 view .LVU461
 623:STM32Cube_FW_N6/Drivers/BSP/Components/mx66uw1g45g/mx66uw1g45g.c ****   /* Prevent unused argument(s) compilation warning */
 1363              		.loc 1 623 1 is_stmt 0 view .LVU462
 1364 0000 30B5     		push	{r4, r5, lr}
 1365              		.cfi_def_cfa_offset 12
 1366              		.cfi_offset 4, -12
 1367              		.cfi_offset 5, -8
 1368              		.cfi_offset 14, -4
 628:STM32Cube_FW_N6/Drivers/BSP/Components/mx66uw1g45g/mx66uw1g45g.c ****   XSPI_MemoryMappedTypeDef s_mem_mapped_cfg = {0};
 1369              		.loc 1 628 28 view .LVU463
 1370 0002 1025     		movs	r5, #16
 623:STM32Cube_FW_N6/Drivers/BSP/Components/mx66uw1g45g/mx66uw1g45g.c ****   /* Prevent unused argument(s) compilation warning */
 1371              		.loc 1 623 1 view .LVU464
 1372 0004 99B0     		sub	sp, sp, #100
 1373              		.cfi_def_cfa_offset 112
 623:STM32Cube_FW_N6/Drivers/BSP/Components/mx66uw1g45g/mx66uw1g45g.c ****   /* Prevent unused argument(s) compilation warning */
 1374              		.loc 1 623 1 view .LVU465
ARM GAS  C:\Users\DJESSOU\AppData\Local\Temp\ccAx4BcF.s 			page 41


 1375 0006 0446     		mov	r4, r0
 627:STM32Cube_FW_N6/Drivers/BSP/Components/mx66uw1g45g/mx66uw1g45g.c ****   XSPI_MemoryMappedTypeDef s_mem_mapped_cfg = {0};
 1376              		.loc 1 627 26 view .LVU466
 1377 0008 3C22     		movs	r2, #60
 1378 000a 0021     		movs	r1, #0
 1379              	.LVL71:
 627:STM32Cube_FW_N6/Drivers/BSP/Components/mx66uw1g45g/mx66uw1g45g.c ****   XSPI_MemoryMappedTypeDef s_mem_mapped_cfg = {0};
 1380              		.loc 1 627 26 view .LVU467
 1381 000c 06A8     		add	r0, sp, #24
 1382              	.LVL72:
 627:STM32Cube_FW_N6/Drivers/BSP/Components/mx66uw1g45g/mx66uw1g45g.c ****   XSPI_MemoryMappedTypeDef s_mem_mapped_cfg = {0};
 1383              		.loc 1 627 26 view .LVU468
 1384 000e FFF7FEFF 		bl	memset
 1385              	.LVL73:
 1386              		.loc 1 628 3 is_stmt 1 view .LVU469
 1387              		.loc 1 628 28 is_stmt 0 view .LVU470
 1388 0012 2A46     		mov	r2, r5
 1389 0014 0021     		movs	r1, #0
 1390 0016 01A8     		add	r0, sp, #4
 1391 0018 FFF7FEFF 		bl	memset
 1392              	.LVL74:
 629:STM32Cube_FW_N6/Drivers/BSP/Components/mx66uw1g45g/mx66uw1g45g.c **** 
 630:STM32Cube_FW_N6/Drivers/BSP/Components/mx66uw1g45g/mx66uw1g45g.c ****   /* Initialize the read command */
 631:STM32Cube_FW_N6/Drivers/BSP/Components/mx66uw1g45g/mx66uw1g45g.c ****   s_command.OperationType = HAL_XSPI_OPTYPE_READ_CFG;
 1393              		.loc 1 631 3 is_stmt 1 view .LVU471
 1394              		.loc 1 631 27 is_stmt 0 view .LVU472
 1395 001c 0123     		movs	r3, #1
 1396 001e 0593     		str	r3, [sp, #20]
 632:STM32Cube_FW_N6/Drivers/BSP/Components/mx66uw1g45g/mx66uw1g45g.c ****   s_command.InstructionMode = HAL_XSPI_INSTRUCTION_8_LINES;
 1397              		.loc 1 632 3 is_stmt 1 view .LVU473
 1398              		.loc 1 632 29 is_stmt 0 view .LVU474
 1399 0020 0423     		movs	r3, #4
 1400 0022 0893     		str	r3, [sp, #32]
 633:STM32Cube_FW_N6/Drivers/BSP/Components/mx66uw1g45g/mx66uw1g45g.c ****   s_command.InstructionDTRMode = HAL_XSPI_INSTRUCTION_DTR_ENABLE;
 1401              		.loc 1 633 3 is_stmt 1 view .LVU475
 1402              		.loc 1 633 32 is_stmt 0 view .LVU476
 1403 0024 0823     		movs	r3, #8
 634:STM32Cube_FW_N6/Drivers/BSP/Components/mx66uw1g45g/mx66uw1g45g.c ****   s_command.InstructionWidth = HAL_XSPI_INSTRUCTION_16_BITS;
 1404              		.loc 1 634 30 view .LVU477
 1405 0026 CDE90953 		strd	r5, r3, [sp, #36]
 635:STM32Cube_FW_N6/Drivers/BSP/Components/mx66uw1g45g/mx66uw1g45g.c ****   s_command.Instruction = MX66UW1G45G_OCTA_READ_DTR_CMD;
 1406              		.loc 1 635 3 is_stmt 1 view .LVU478
 1407              		.loc 1 635 25 is_stmt 0 view .LVU479
 1408 002a 4EF61163 		movw	r3, #60945
 1409 002e 0793     		str	r3, [sp, #28]
 636:STM32Cube_FW_N6/Drivers/BSP/Components/mx66uw1g45g/mx66uw1g45g.c ****   s_command.AddressMode = HAL_XSPI_ADDRESS_8_LINES;
 1410              		.loc 1 636 3 is_stmt 1 view .LVU480
 1411              		.loc 1 636 25 is_stmt 0 view .LVU481
 1412 0030 4FF48063 		mov	r3, #1024
 637:STM32Cube_FW_N6/Drivers/BSP/Components/mx66uw1g45g/mx66uw1g45g.c ****   s_command.AddressDTRMode = HAL_XSPI_ADDRESS_DTR_ENABLE;
 638:STM32Cube_FW_N6/Drivers/BSP/Components/mx66uw1g45g/mx66uw1g45g.c ****   s_command.AddressWidth = HAL_XSPI_ADDRESS_32_BITS;
 1413              		.loc 1 638 26 view .LVU482
 1414 0034 4FF4006E 		mov	lr, #2048
 636:STM32Cube_FW_N6/Drivers/BSP/Components/mx66uw1g45g/mx66uw1g45g.c ****   s_command.AddressMode = HAL_XSPI_ADDRESS_8_LINES;
 1415              		.loc 1 636 25 view .LVU483
 1416 0038 0C93     		str	r3, [sp, #48]
 637:STM32Cube_FW_N6/Drivers/BSP/Components/mx66uw1g45g/mx66uw1g45g.c ****   s_command.AddressDTRMode = HAL_XSPI_ADDRESS_DTR_ENABLE;
ARM GAS  C:\Users\DJESSOU\AppData\Local\Temp\ccAx4BcF.s 			page 42


 1417              		.loc 1 637 3 is_stmt 1 view .LVU484
 1418              		.loc 1 638 26 is_stmt 0 view .LVU485
 1419 003a 4FF44053 		mov	r3, #12288
 1420 003e CDE90D3E 		strd	r3, lr, [sp, #52]
 639:STM32Cube_FW_N6/Drivers/BSP/Components/mx66uw1g45g/mx66uw1g45g.c ****   s_command.AlternateBytesMode = HAL_XSPI_ALT_BYTES_NONE;
 1421              		.loc 1 639 3 is_stmt 1 view .LVU486
 640:STM32Cube_FW_N6/Drivers/BSP/Components/mx66uw1g45g/mx66uw1g45g.c ****   s_command.DataMode = HAL_XSPI_DATA_8_LINES;
 1422              		.loc 1 640 3 view .LVU487
 1423              		.loc 1 640 22 is_stmt 0 view .LVU488
 1424 0042 4FF08063 		mov	r3, #67108864
 641:STM32Cube_FW_N6/Drivers/BSP/Components/mx66uw1g45g/mx66uw1g45g.c ****   s_command.DataDTRMode = HAL_XSPI_DATA_DTR_ENABLE;
 642:STM32Cube_FW_N6/Drivers/BSP/Components/mx66uw1g45g/mx66uw1g45g.c ****   s_command.DummyCycles = DUMMY_CYCLES_READ_OCTAL_DTR;
 1425              		.loc 1 642 25 view .LVU489
 1426 0046 4FF00061 		mov	r1, #134217728
 640:STM32Cube_FW_N6/Drivers/BSP/Components/mx66uw1g45g/mx66uw1g45g.c ****   s_command.DataMode = HAL_XSPI_DATA_8_LINES;
 1427              		.loc 1 640 22 view .LVU490
 1428 004a 1393     		str	r3, [sp, #76]
 641:STM32Cube_FW_N6/Drivers/BSP/Components/mx66uw1g45g/mx66uw1g45g.c ****   s_command.DataDTRMode = HAL_XSPI_DATA_DTR_ENABLE;
 1429              		.loc 1 641 3 is_stmt 1 view .LVU491
 1430              		.loc 1 642 25 is_stmt 0 view .LVU492
 1431 004c 0A23     		movs	r3, #10
 1432 004e CDE91513 		strd	r1, r3, [sp, #84]
 643:STM32Cube_FW_N6/Drivers/BSP/Components/mx66uw1g45g/mx66uw1g45g.c ****   s_command.DQSMode = HAL_XSPI_DQS_ENABLE;
 1433              		.loc 1 643 3 is_stmt 1 view .LVU493
 1434              		.loc 1 643 21 is_stmt 0 view .LVU494
 1435 0052 4FF00053 		mov	r3, #536870912
 644:STM32Cube_FW_N6/Drivers/BSP/Components/mx66uw1g45g/mx66uw1g45g.c ****  #if defined (XSPI_CCR_SIOO)
 645:STM32Cube_FW_N6/Drivers/BSP/Components/mx66uw1g45g/mx66uw1g45g.c ****   s_command.SIOOMode            = HAL_XSPI_SIOO_INST_EVERY_CMD;
 646:STM32Cube_FW_N6/Drivers/BSP/Components/mx66uw1g45g/mx66uw1g45g.c ****  #endif
 647:STM32Cube_FW_N6/Drivers/BSP/Components/mx66uw1g45g/mx66uw1g45g.c **** 
 648:STM32Cube_FW_N6/Drivers/BSP/Components/mx66uw1g45g/mx66uw1g45g.c ****   /* Send the command */
 649:STM32Cube_FW_N6/Drivers/BSP/Components/mx66uw1g45g/mx66uw1g45g.c ****   if (HAL_XSPI_Command(Ctx, &s_command, HAL_XSPI_TIMEOUT_DEFAULT_VALUE) != HAL_OK)
 1436              		.loc 1 649 7 view .LVU495
 1437 0056 41F28832 		movw	r2, #5000
 1438 005a 2046     		mov	r0, r4
 1439 005c 05A9     		add	r1, sp, #20
 643:STM32Cube_FW_N6/Drivers/BSP/Components/mx66uw1g45g/mx66uw1g45g.c ****   s_command.DQSMode = HAL_XSPI_DQS_ENABLE;
 1440              		.loc 1 643 21 view .LVU496
 1441 005e 1793     		str	r3, [sp, #92]
 1442              		.loc 1 649 3 is_stmt 1 view .LVU497
 1443              		.loc 1 649 7 is_stmt 0 view .LVU498
 1444 0060 FFF7FEFF 		bl	HAL_XSPI_Command
 1445              	.LVL75:
 1446              		.loc 1 649 6 discriminator 1 view .LVU499
 1447 0064 18B1     		cbz	r0, .L94
 1448              	.L96:
 650:STM32Cube_FW_N6/Drivers/BSP/Components/mx66uw1g45g/mx66uw1g45g.c ****   {
 651:STM32Cube_FW_N6/Drivers/BSP/Components/mx66uw1g45g/mx66uw1g45g.c ****     return MX66UW1G45G_ERROR;
 1449              		.loc 1 651 12 view .LVU500
 1450 0066 4FF0FF30 		mov	r0, #-1
 1451              	.L93:
 652:STM32Cube_FW_N6/Drivers/BSP/Components/mx66uw1g45g/mx66uw1g45g.c ****   }
 653:STM32Cube_FW_N6/Drivers/BSP/Components/mx66uw1g45g/mx66uw1g45g.c **** 
 654:STM32Cube_FW_N6/Drivers/BSP/Components/mx66uw1g45g/mx66uw1g45g.c ****   /* Initialize the program command */
 655:STM32Cube_FW_N6/Drivers/BSP/Components/mx66uw1g45g/mx66uw1g45g.c ****   s_command.OperationType = HAL_XSPI_OPTYPE_WRITE_CFG;
 656:STM32Cube_FW_N6/Drivers/BSP/Components/mx66uw1g45g/mx66uw1g45g.c ****   s_command.Instruction = MX66UW1G45G_OCTA_PAGE_PROG_CMD;
 657:STM32Cube_FW_N6/Drivers/BSP/Components/mx66uw1g45g/mx66uw1g45g.c ****   s_command.DummyCycles = 0U;
ARM GAS  C:\Users\DJESSOU\AppData\Local\Temp\ccAx4BcF.s 			page 43


 658:STM32Cube_FW_N6/Drivers/BSP/Components/mx66uw1g45g/mx66uw1g45g.c ****   s_command.DQSMode = HAL_XSPI_DQS_DISABLE;
 659:STM32Cube_FW_N6/Drivers/BSP/Components/mx66uw1g45g/mx66uw1g45g.c **** 
 660:STM32Cube_FW_N6/Drivers/BSP/Components/mx66uw1g45g/mx66uw1g45g.c ****   /* Send the command */
 661:STM32Cube_FW_N6/Drivers/BSP/Components/mx66uw1g45g/mx66uw1g45g.c ****   if (HAL_XSPI_Command(Ctx, &s_command, HAL_XSPI_TIMEOUT_DEFAULT_VALUE) != HAL_OK)
 662:STM32Cube_FW_N6/Drivers/BSP/Components/mx66uw1g45g/mx66uw1g45g.c ****   {
 663:STM32Cube_FW_N6/Drivers/BSP/Components/mx66uw1g45g/mx66uw1g45g.c ****     return MX66UW1G45G_ERROR;
 664:STM32Cube_FW_N6/Drivers/BSP/Components/mx66uw1g45g/mx66uw1g45g.c ****   }
 665:STM32Cube_FW_N6/Drivers/BSP/Components/mx66uw1g45g/mx66uw1g45g.c ****   /* Configure the memory mapped mode */
 666:STM32Cube_FW_N6/Drivers/BSP/Components/mx66uw1g45g/mx66uw1g45g.c ****   s_mem_mapped_cfg.TimeOutActivation = HAL_XSPI_TIMEOUT_COUNTER_DISABLE;
 667:STM32Cube_FW_N6/Drivers/BSP/Components/mx66uw1g45g/mx66uw1g45g.c **** 
 668:STM32Cube_FW_N6/Drivers/BSP/Components/mx66uw1g45g/mx66uw1g45g.c ****   if (HAL_XSPI_MemoryMapped(Ctx, &s_mem_mapped_cfg) != HAL_OK)
 669:STM32Cube_FW_N6/Drivers/BSP/Components/mx66uw1g45g/mx66uw1g45g.c ****   {
 670:STM32Cube_FW_N6/Drivers/BSP/Components/mx66uw1g45g/mx66uw1g45g.c ****     return MX66UW1G45G_ERROR;
 671:STM32Cube_FW_N6/Drivers/BSP/Components/mx66uw1g45g/mx66uw1g45g.c ****   }
 672:STM32Cube_FW_N6/Drivers/BSP/Components/mx66uw1g45g/mx66uw1g45g.c **** 
 673:STM32Cube_FW_N6/Drivers/BSP/Components/mx66uw1g45g/mx66uw1g45g.c ****   return MX66UW1G45G_OK;
 674:STM32Cube_FW_N6/Drivers/BSP/Components/mx66uw1g45g/mx66uw1g45g.c **** }
 1452              		.loc 1 674 1 view .LVU501
 1453 006a 19B0     		add	sp, sp, #100
 1454              		.cfi_remember_state
 1455              		.cfi_def_cfa_offset 12
 1456              		@ sp needed
 1457 006c 30BD     		pop	{r4, r5, pc}
 1458              	.LVL76:
 1459              	.L94:
 1460              		.cfi_restore_state
 655:STM32Cube_FW_N6/Drivers/BSP/Components/mx66uw1g45g/mx66uw1g45g.c ****   s_command.Instruction = MX66UW1G45G_OCTA_PAGE_PROG_CMD;
 1461              		.loc 1 655 3 is_stmt 1 view .LVU502
 655:STM32Cube_FW_N6/Drivers/BSP/Components/mx66uw1g45g/mx66uw1g45g.c ****   s_command.Instruction = MX66UW1G45G_OCTA_PAGE_PROG_CMD;
 1462              		.loc 1 655 27 is_stmt 0 view .LVU503
 1463 006e 0223     		movs	r3, #2
 1464 0070 0593     		str	r3, [sp, #20]
 656:STM32Cube_FW_N6/Drivers/BSP/Components/mx66uw1g45g/mx66uw1g45g.c ****   s_command.DummyCycles = 0U;
 1465              		.loc 1 656 3 is_stmt 1 view .LVU504
 656:STM32Cube_FW_N6/Drivers/BSP/Components/mx66uw1g45g/mx66uw1g45g.c ****   s_command.DummyCycles = 0U;
 1466              		.loc 1 656 25 is_stmt 0 view .LVU505
 1467 0072 41F2ED23 		movw	r3, #4845
 658:STM32Cube_FW_N6/Drivers/BSP/Components/mx66uw1g45g/mx66uw1g45g.c **** 
 1468              		.loc 1 658 21 view .LVU506
 1469 0076 CDE91600 		strd	r0, r0, [sp, #88]
 661:STM32Cube_FW_N6/Drivers/BSP/Components/mx66uw1g45g/mx66uw1g45g.c ****   {
 1470              		.loc 1 661 7 view .LVU507
 1471 007a 41F28832 		movw	r2, #5000
 1472 007e 2046     		mov	r0, r4
 1473 0080 05A9     		add	r1, sp, #20
 656:STM32Cube_FW_N6/Drivers/BSP/Components/mx66uw1g45g/mx66uw1g45g.c ****   s_command.DummyCycles = 0U;
 1474              		.loc 1 656 25 view .LVU508
 1475 0082 0793     		str	r3, [sp, #28]
 657:STM32Cube_FW_N6/Drivers/BSP/Components/mx66uw1g45g/mx66uw1g45g.c ****   s_command.DQSMode = HAL_XSPI_DQS_DISABLE;
 1476              		.loc 1 657 3 is_stmt 1 view .LVU509
 661:STM32Cube_FW_N6/Drivers/BSP/Components/mx66uw1g45g/mx66uw1g45g.c ****   {
 1477              		.loc 1 661 3 view .LVU510
 661:STM32Cube_FW_N6/Drivers/BSP/Components/mx66uw1g45g/mx66uw1g45g.c ****   {
 1478              		.loc 1 661 7 is_stmt 0 view .LVU511
 1479 0084 FFF7FEFF 		bl	HAL_XSPI_Command
 1480              	.LVL77:
 661:STM32Cube_FW_N6/Drivers/BSP/Components/mx66uw1g45g/mx66uw1g45g.c ****   {
ARM GAS  C:\Users\DJESSOU\AppData\Local\Temp\ccAx4BcF.s 			page 44


 1481              		.loc 1 661 6 discriminator 1 view .LVU512
 1482 0088 0028     		cmp	r0, #0
 1483 008a ECD1     		bne	.L96
 666:STM32Cube_FW_N6/Drivers/BSP/Components/mx66uw1g45g/mx66uw1g45g.c **** 
 1484              		.loc 1 666 3 is_stmt 1 view .LVU513
 666:STM32Cube_FW_N6/Drivers/BSP/Components/mx66uw1g45g/mx66uw1g45g.c **** 
 1485              		.loc 1 666 38 is_stmt 0 view .LVU514
 1486 008c 0190     		str	r0, [sp, #4]
 668:STM32Cube_FW_N6/Drivers/BSP/Components/mx66uw1g45g/mx66uw1g45g.c ****   {
 1487              		.loc 1 668 3 is_stmt 1 view .LVU515
 668:STM32Cube_FW_N6/Drivers/BSP/Components/mx66uw1g45g/mx66uw1g45g.c ****   {
 1488              		.loc 1 668 7 is_stmt 0 view .LVU516
 1489 008e 01A9     		add	r1, sp, #4
 1490 0090 2046     		mov	r0, r4
 1491 0092 FFF7FEFF 		bl	HAL_XSPI_MemoryMapped
 1492              	.LVL78:
 668:STM32Cube_FW_N6/Drivers/BSP/Components/mx66uw1g45g/mx66uw1g45g.c ****   {
 1493              		.loc 1 668 6 discriminator 1 view .LVU517
 1494 0096 0038     		subs	r0, r0, #0
 1495 0098 18BF     		it	ne
 1496 009a 0120     		movne	r0, #1
 1497 009c 4042     		rsbs	r0, r0, #0
 1498 009e E4E7     		b	.L93
 1499              		.cfi_endproc
 1500              	.LFE871:
 1502              		.section	.text.MX66UW1G45G_Suspend,"ax",%progbits
 1503              		.align	1
 1504              		.global	MX66UW1G45G_Suspend
 1505              		.syntax unified
 1506              		.thumb
 1507              		.thumb_func
 1509              	MX66UW1G45G_Suspend:
 1510              	.LVL79:
 1511              	.LFB872:
 675:STM32Cube_FW_N6/Drivers/BSP/Components/mx66uw1g45g/mx66uw1g45g.c **** 
 676:STM32Cube_FW_N6/Drivers/BSP/Components/mx66uw1g45g/mx66uw1g45g.c **** /**
 677:STM32Cube_FW_N6/Drivers/BSP/Components/mx66uw1g45g/mx66uw1g45g.c ****   * @brief  Flash suspend program or erase command
 678:STM32Cube_FW_N6/Drivers/BSP/Components/mx66uw1g45g/mx66uw1g45g.c ****   *         SPI/OPI
 679:STM32Cube_FW_N6/Drivers/BSP/Components/mx66uw1g45g/mx66uw1g45g.c ****   * @param  Ctx Component object pointer
 680:STM32Cube_FW_N6/Drivers/BSP/Components/mx66uw1g45g/mx66uw1g45g.c ****   * @param  Mode Interface select
 681:STM32Cube_FW_N6/Drivers/BSP/Components/mx66uw1g45g/mx66uw1g45g.c ****   * @param  Rate Transfer rate STR or DTR
 682:STM32Cube_FW_N6/Drivers/BSP/Components/mx66uw1g45g/mx66uw1g45g.c ****   * @retval error status
 683:STM32Cube_FW_N6/Drivers/BSP/Components/mx66uw1g45g/mx66uw1g45g.c ****   */
 684:STM32Cube_FW_N6/Drivers/BSP/Components/mx66uw1g45g/mx66uw1g45g.c **** int32_t MX66UW1G45G_Suspend(XSPI_HandleTypeDef *Ctx, MX66UW1G45G_Interface_t Mode, MX66UW1G45G_Tran
 685:STM32Cube_FW_N6/Drivers/BSP/Components/mx66uw1g45g/mx66uw1g45g.c **** {
 1512              		.loc 1 685 1 is_stmt 1 view -0
 1513              		.cfi_startproc
 1514              		@ args = 0, pretend = 0, frame = 80
 1515              		@ frame_needed = 0, uses_anonymous_args = 0
 686:STM32Cube_FW_N6/Drivers/BSP/Components/mx66uw1g45g/mx66uw1g45g.c ****   XSPI_RegularCmdTypeDef s_command = {0};
 1516              		.loc 1 686 3 view .LVU519
 685:STM32Cube_FW_N6/Drivers/BSP/Components/mx66uw1g45g/mx66uw1g45g.c ****   XSPI_RegularCmdTypeDef s_command = {0};
 1517              		.loc 1 685 1 is_stmt 0 view .LVU520
 1518 0000 70B5     		push	{r4, r5, r6, lr}
 1519              		.cfi_def_cfa_offset 16
 1520              		.cfi_offset 4, -16
 1521              		.cfi_offset 5, -12
ARM GAS  C:\Users\DJESSOU\AppData\Local\Temp\ccAx4BcF.s 			page 45


 1522              		.cfi_offset 6, -8
 1523              		.cfi_offset 14, -4
 1524 0002 0D46     		mov	r5, r1
 1525 0004 94B0     		sub	sp, sp, #80
 1526              		.cfi_def_cfa_offset 96
 685:STM32Cube_FW_N6/Drivers/BSP/Components/mx66uw1g45g/mx66uw1g45g.c ****   XSPI_RegularCmdTypeDef s_command = {0};
 1527              		.loc 1 685 1 view .LVU521
 1528 0006 0646     		mov	r6, r0
 1529 0008 1446     		mov	r4, r2
 1530              		.loc 1 686 26 view .LVU522
 1531 000a 0021     		movs	r1, #0
 1532              	.LVL80:
 1533              		.loc 1 686 26 view .LVU523
 1534 000c 4C22     		movs	r2, #76
 1535              	.LVL81:
 1536              		.loc 1 686 26 view .LVU524
 1537 000e 01A8     		add	r0, sp, #4
 1538              	.LVL82:
 1539              		.loc 1 686 26 view .LVU525
 1540 0010 FFF7FEFF 		bl	memset
 1541              	.LVL83:
 687:STM32Cube_FW_N6/Drivers/BSP/Components/mx66uw1g45g/mx66uw1g45g.c **** 
 688:STM32Cube_FW_N6/Drivers/BSP/Components/mx66uw1g45g/mx66uw1g45g.c ****   /* SPI mode and DTR transfer not supported by memory */
 689:STM32Cube_FW_N6/Drivers/BSP/Components/mx66uw1g45g/mx66uw1g45g.c ****   if ((Mode == MX66UW1G45G_SPI_MODE) && (Rate == MX66UW1G45G_DTR_TRANSFER))
 1542              		.loc 1 689 3 is_stmt 1 view .LVU526
 1543              		.loc 1 689 6 is_stmt 0 view .LVU527
 1544 0014 BDB9     		cbnz	r5, .L98
 1545              		.loc 1 689 38 discriminator 1 view .LVU528
 1546 0016 012C     		cmp	r4, #1
 1547 0018 1DD0     		beq	.L102
 1548 001a 0123     		movs	r3, #1
 690:STM32Cube_FW_N6/Drivers/BSP/Components/mx66uw1g45g/mx66uw1g45g.c ****   {
 691:STM32Cube_FW_N6/Drivers/BSP/Components/mx66uw1g45g/mx66uw1g45g.c ****     return MX66UW1G45G_ERROR;
 692:STM32Cube_FW_N6/Drivers/BSP/Components/mx66uw1g45g/mx66uw1g45g.c ****   }
 693:STM32Cube_FW_N6/Drivers/BSP/Components/mx66uw1g45g/mx66uw1g45g.c **** 
 694:STM32Cube_FW_N6/Drivers/BSP/Components/mx66uw1g45g/mx66uw1g45g.c ****   /* Initialize the suspend command */
 695:STM32Cube_FW_N6/Drivers/BSP/Components/mx66uw1g45g/mx66uw1g45g.c ****   s_command.OperationType = HAL_XSPI_OPTYPE_COMMON_CFG;
 696:STM32Cube_FW_N6/Drivers/BSP/Components/mx66uw1g45g/mx66uw1g45g.c ****   s_command.InstructionMode = (Mode == MX66UW1G45G_SPI_MODE)
 697:STM32Cube_FW_N6/Drivers/BSP/Components/mx66uw1g45g/mx66uw1g45g.c ****                                   ? HAL_XSPI_INSTRUCTION_1_LINE
 698:STM32Cube_FW_N6/Drivers/BSP/Components/mx66uw1g45g/mx66uw1g45g.c ****                                   : HAL_XSPI_INSTRUCTION_8_LINES;
 699:STM32Cube_FW_N6/Drivers/BSP/Components/mx66uw1g45g/mx66uw1g45g.c ****   s_command.InstructionDTRMode = (Rate == MX66UW1G45G_DTR_TRANSFER)
 700:STM32Cube_FW_N6/Drivers/BSP/Components/mx66uw1g45g/mx66uw1g45g.c ****                                      ? HAL_XSPI_INSTRUCTION_DTR_ENABLE
 701:STM32Cube_FW_N6/Drivers/BSP/Components/mx66uw1g45g/mx66uw1g45g.c ****                                      : HAL_XSPI_INSTRUCTION_DTR_DISABLE;
 1549              		.loc 1 701 38 discriminator 2 view .LVU529
 1550 001c 2C46     		mov	r4, r5
 1551              	.LVL84:
 1552              	.L100:
 696:STM32Cube_FW_N6/Drivers/BSP/Components/mx66uw1g45g/mx66uw1g45g.c ****                                   ? HAL_XSPI_INSTRUCTION_1_LINE
 1553              		.loc 1 696 29 view .LVU530
 1554 001e 0493     		str	r3, [sp, #16]
 699:STM32Cube_FW_N6/Drivers/BSP/Components/mx66uw1g45g/mx66uw1g45g.c ****                                      ? HAL_XSPI_INSTRUCTION_DTR_ENABLE
 1555              		.loc 1 699 32 view .LVU531
 1556 0020 0694     		str	r4, [sp, #24]
 702:STM32Cube_FW_N6/Drivers/BSP/Components/mx66uw1g45g/mx66uw1g45g.c ****   s_command.InstructionWidth = (Mode == MX66UW1G45G_SPI_MODE)
 1557              		.loc 1 702 3 is_stmt 1 view .LVU532
 703:STM32Cube_FW_N6/Drivers/BSP/Components/mx66uw1g45g/mx66uw1g45g.c ****                                    ? HAL_XSPI_INSTRUCTION_8_BITS
 704:STM32Cube_FW_N6/Drivers/BSP/Components/mx66uw1g45g/mx66uw1g45g.c ****                                    : HAL_XSPI_INSTRUCTION_16_BITS;
ARM GAS  C:\Users\DJESSOU\AppData\Local\Temp\ccAx4BcF.s 			page 46


 1558              		.loc 1 704 36 is_stmt 0 view .LVU533
 1559 0022 B5B1     		cbz	r5, .L103
 702:STM32Cube_FW_N6/Drivers/BSP/Components/mx66uw1g45g/mx66uw1g45g.c ****   s_command.InstructionWidth = (Mode == MX66UW1G45G_SPI_MODE)
 1560              		.loc 1 702 30 view .LVU534
 1561 0024 1023     		movs	r3, #16
 1562 0026 0593     		str	r3, [sp, #20]
 705:STM32Cube_FW_N6/Drivers/BSP/Components/mx66uw1g45g/mx66uw1g45g.c ****   s_command.Instruction = (Mode == MX66UW1G45G_SPI_MODE)
 1563              		.loc 1 705 3 is_stmt 1 view .LVU535
 706:STM32Cube_FW_N6/Drivers/BSP/Components/mx66uw1g45g/mx66uw1g45g.c ****                               ? MX66UW1G45G_PROG_ERASE_SUSPEND_CMD
 707:STM32Cube_FW_N6/Drivers/BSP/Components/mx66uw1g45g/mx66uw1g45g.c ****                               : MX66UW1G45G_OCTA_PROG_ERASE_SUSPEND_CMD;
 1564              		.loc 1 707 31 is_stmt 0 discriminator 2 view .LVU536
 1565 0028 4BF24F03 		movw	r3, #45135
 1566              	.L101:
 708:STM32Cube_FW_N6/Drivers/BSP/Components/mx66uw1g45g/mx66uw1g45g.c ****   s_command.AddressMode = HAL_XSPI_ADDRESS_NONE;
 709:STM32Cube_FW_N6/Drivers/BSP/Components/mx66uw1g45g/mx66uw1g45g.c ****   s_command.AlternateBytesMode = HAL_XSPI_ALT_BYTES_NONE;
 710:STM32Cube_FW_N6/Drivers/BSP/Components/mx66uw1g45g/mx66uw1g45g.c ****   s_command.DataMode = HAL_XSPI_DATA_NONE;
 711:STM32Cube_FW_N6/Drivers/BSP/Components/mx66uw1g45g/mx66uw1g45g.c ****   s_command.DummyCycles = 0U;
 712:STM32Cube_FW_N6/Drivers/BSP/Components/mx66uw1g45g/mx66uw1g45g.c ****   s_command.DQSMode = HAL_XSPI_DQS_DISABLE;
 713:STM32Cube_FW_N6/Drivers/BSP/Components/mx66uw1g45g/mx66uw1g45g.c ****  #if defined (XSPI_CCR_SIOO)
 714:STM32Cube_FW_N6/Drivers/BSP/Components/mx66uw1g45g/mx66uw1g45g.c ****   s_command.SIOOMode            = HAL_XSPI_SIOO_INST_EVERY_CMD;
 715:STM32Cube_FW_N6/Drivers/BSP/Components/mx66uw1g45g/mx66uw1g45g.c ****  #endif
 716:STM32Cube_FW_N6/Drivers/BSP/Components/mx66uw1g45g/mx66uw1g45g.c **** 
 717:STM32Cube_FW_N6/Drivers/BSP/Components/mx66uw1g45g/mx66uw1g45g.c ****   /* Send the command */
 718:STM32Cube_FW_N6/Drivers/BSP/Components/mx66uw1g45g/mx66uw1g45g.c ****   if (HAL_XSPI_Command(Ctx, &s_command, HAL_XSPI_TIMEOUT_DEFAULT_VALUE) != HAL_OK)
 1567              		.loc 1 718 7 view .LVU537
 1568 002c 41F28832 		movw	r2, #5000
 1569 0030 3046     		mov	r0, r6
 1570 0032 01A9     		add	r1, sp, #4
 705:STM32Cube_FW_N6/Drivers/BSP/Components/mx66uw1g45g/mx66uw1g45g.c ****                               ? MX66UW1G45G_PROG_ERASE_SUSPEND_CMD
 1571              		.loc 1 705 25 view .LVU538
 1572 0034 0393     		str	r3, [sp, #12]
 708:STM32Cube_FW_N6/Drivers/BSP/Components/mx66uw1g45g/mx66uw1g45g.c ****   s_command.AddressMode = HAL_XSPI_ADDRESS_NONE;
 1573              		.loc 1 708 3 is_stmt 1 view .LVU539
 709:STM32Cube_FW_N6/Drivers/BSP/Components/mx66uw1g45g/mx66uw1g45g.c ****   s_command.DataMode = HAL_XSPI_DATA_NONE;
 1574              		.loc 1 709 3 view .LVU540
 710:STM32Cube_FW_N6/Drivers/BSP/Components/mx66uw1g45g/mx66uw1g45g.c ****   s_command.DummyCycles = 0U;
 1575              		.loc 1 710 3 view .LVU541
 711:STM32Cube_FW_N6/Drivers/BSP/Components/mx66uw1g45g/mx66uw1g45g.c ****   s_command.DQSMode = HAL_XSPI_DQS_DISABLE;
 1576              		.loc 1 711 3 view .LVU542
 712:STM32Cube_FW_N6/Drivers/BSP/Components/mx66uw1g45g/mx66uw1g45g.c ****  #if defined (XSPI_CCR_SIOO)
 1577              		.loc 1 712 3 view .LVU543
 1578              		.loc 1 718 3 view .LVU544
 1579              		.loc 1 718 7 is_stmt 0 view .LVU545
 1580 0036 FFF7FEFF 		bl	HAL_XSPI_Command
 1581              	.LVL85:
 1582              		.loc 1 718 6 discriminator 1 view .LVU546
 1583 003a 0038     		subs	r0, r0, #0
 1584 003c 18BF     		it	ne
 1585 003e 0120     		movne	r0, #1
 1586 0040 4042     		rsbs	r0, r0, #0
 1587              	.L97:
 719:STM32Cube_FW_N6/Drivers/BSP/Components/mx66uw1g45g/mx66uw1g45g.c ****   {
 720:STM32Cube_FW_N6/Drivers/BSP/Components/mx66uw1g45g/mx66uw1g45g.c ****     return MX66UW1G45G_ERROR;
 721:STM32Cube_FW_N6/Drivers/BSP/Components/mx66uw1g45g/mx66uw1g45g.c ****   }
 722:STM32Cube_FW_N6/Drivers/BSP/Components/mx66uw1g45g/mx66uw1g45g.c **** 
 723:STM32Cube_FW_N6/Drivers/BSP/Components/mx66uw1g45g/mx66uw1g45g.c ****   return MX66UW1G45G_OK;
 724:STM32Cube_FW_N6/Drivers/BSP/Components/mx66uw1g45g/mx66uw1g45g.c **** }
ARM GAS  C:\Users\DJESSOU\AppData\Local\Temp\ccAx4BcF.s 			page 47


 1588              		.loc 1 724 1 view .LVU547
 1589 0042 14B0     		add	sp, sp, #80
 1590              		.cfi_remember_state
 1591              		.cfi_def_cfa_offset 16
 1592              		@ sp needed
 1593 0044 70BD     		pop	{r4, r5, r6, pc}
 1594              	.LVL86:
 1595              	.L98:
 1596              		.cfi_restore_state
 699:STM32Cube_FW_N6/Drivers/BSP/Components/mx66uw1g45g/mx66uw1g45g.c ****                                      ? HAL_XSPI_INSTRUCTION_DTR_ENABLE
 1597              		.loc 1 699 3 is_stmt 1 view .LVU548
 701:STM32Cube_FW_N6/Drivers/BSP/Components/mx66uw1g45g/mx66uw1g45g.c ****   s_command.InstructionWidth = (Mode == MX66UW1G45G_SPI_MODE)
 1598              		.loc 1 701 38 is_stmt 0 view .LVU549
 1599 0046 631E     		subs	r3, r4, #1
 1600 0048 5C42     		rsbs	r4, r3, #0
 1601 004a 5C41     		adcs	r4, r4, r3
 1602 004c E400     		lsls	r4, r4, #3
 1603 004e 0423     		movs	r3, #4
 1604 0050 E5E7     		b	.L100
 1605              	.L103:
 707:STM32Cube_FW_N6/Drivers/BSP/Components/mx66uw1g45g/mx66uw1g45g.c ****   s_command.AddressMode = HAL_XSPI_ADDRESS_NONE;
 1606              		.loc 1 707 31 discriminator 1 view .LVU550
 1607 0052 B023     		movs	r3, #176
 1608 0054 EAE7     		b	.L101
 1609              	.L102:
 691:STM32Cube_FW_N6/Drivers/BSP/Components/mx66uw1g45g/mx66uw1g45g.c ****   }
 1610              		.loc 1 691 12 view .LVU551
 1611 0056 4FF0FF30 		mov	r0, #-1
 1612 005a F2E7     		b	.L97
 1613              		.cfi_endproc
 1614              	.LFE872:
 1616              		.section	.text.MX66UW1G45G_Resume,"ax",%progbits
 1617              		.align	1
 1618              		.global	MX66UW1G45G_Resume
 1619              		.syntax unified
 1620              		.thumb
 1621              		.thumb_func
 1623              	MX66UW1G45G_Resume:
 1624              	.LVL87:
 1625              	.LFB873:
 725:STM32Cube_FW_N6/Drivers/BSP/Components/mx66uw1g45g/mx66uw1g45g.c **** 
 726:STM32Cube_FW_N6/Drivers/BSP/Components/mx66uw1g45g/mx66uw1g45g.c **** /**
 727:STM32Cube_FW_N6/Drivers/BSP/Components/mx66uw1g45g/mx66uw1g45g.c ****   * @brief  Flash resume program or erase command
 728:STM32Cube_FW_N6/Drivers/BSP/Components/mx66uw1g45g/mx66uw1g45g.c ****   *         SPI/OPI
 729:STM32Cube_FW_N6/Drivers/BSP/Components/mx66uw1g45g/mx66uw1g45g.c ****   * @param  Ctx Component object pointer
 730:STM32Cube_FW_N6/Drivers/BSP/Components/mx66uw1g45g/mx66uw1g45g.c ****   * @param  Mode Interface select
 731:STM32Cube_FW_N6/Drivers/BSP/Components/mx66uw1g45g/mx66uw1g45g.c ****   * @param  Rate Transfer rate STR or DTR
 732:STM32Cube_FW_N6/Drivers/BSP/Components/mx66uw1g45g/mx66uw1g45g.c ****   * @retval error status
 733:STM32Cube_FW_N6/Drivers/BSP/Components/mx66uw1g45g/mx66uw1g45g.c ****   */
 734:STM32Cube_FW_N6/Drivers/BSP/Components/mx66uw1g45g/mx66uw1g45g.c **** int32_t MX66UW1G45G_Resume(XSPI_HandleTypeDef *Ctx, MX66UW1G45G_Interface_t Mode, MX66UW1G45G_Trans
 735:STM32Cube_FW_N6/Drivers/BSP/Components/mx66uw1g45g/mx66uw1g45g.c **** {
 1626              		.loc 1 735 1 is_stmt 1 view -0
 1627              		.cfi_startproc
 1628              		@ args = 0, pretend = 0, frame = 80
 1629              		@ frame_needed = 0, uses_anonymous_args = 0
 736:STM32Cube_FW_N6/Drivers/BSP/Components/mx66uw1g45g/mx66uw1g45g.c ****   XSPI_RegularCmdTypeDef s_command = {0};
 1630              		.loc 1 736 3 view .LVU553
ARM GAS  C:\Users\DJESSOU\AppData\Local\Temp\ccAx4BcF.s 			page 48


 735:STM32Cube_FW_N6/Drivers/BSP/Components/mx66uw1g45g/mx66uw1g45g.c ****   XSPI_RegularCmdTypeDef s_command = {0};
 1631              		.loc 1 735 1 is_stmt 0 view .LVU554
 1632 0000 70B5     		push	{r4, r5, r6, lr}
 1633              		.cfi_def_cfa_offset 16
 1634              		.cfi_offset 4, -16
 1635              		.cfi_offset 5, -12
 1636              		.cfi_offset 6, -8
 1637              		.cfi_offset 14, -4
 1638 0002 0D46     		mov	r5, r1
 1639 0004 94B0     		sub	sp, sp, #80
 1640              		.cfi_def_cfa_offset 96
 735:STM32Cube_FW_N6/Drivers/BSP/Components/mx66uw1g45g/mx66uw1g45g.c ****   XSPI_RegularCmdTypeDef s_command = {0};
 1641              		.loc 1 735 1 view .LVU555
 1642 0006 0646     		mov	r6, r0
 1643 0008 1446     		mov	r4, r2
 1644              		.loc 1 736 26 view .LVU556
 1645 000a 0021     		movs	r1, #0
 1646              	.LVL88:
 1647              		.loc 1 736 26 view .LVU557
 1648 000c 4C22     		movs	r2, #76
 1649              	.LVL89:
 1650              		.loc 1 736 26 view .LVU558
 1651 000e 01A8     		add	r0, sp, #4
 1652              	.LVL90:
 1653              		.loc 1 736 26 view .LVU559
 1654 0010 FFF7FEFF 		bl	memset
 1655              	.LVL91:
 737:STM32Cube_FW_N6/Drivers/BSP/Components/mx66uw1g45g/mx66uw1g45g.c **** 
 738:STM32Cube_FW_N6/Drivers/BSP/Components/mx66uw1g45g/mx66uw1g45g.c ****   /* SPI mode and DTR transfer not supported by memory */
 739:STM32Cube_FW_N6/Drivers/BSP/Components/mx66uw1g45g/mx66uw1g45g.c ****   if ((Mode == MX66UW1G45G_SPI_MODE) && (Rate == MX66UW1G45G_DTR_TRANSFER))
 1656              		.loc 1 739 3 is_stmt 1 view .LVU560
 1657              		.loc 1 739 6 is_stmt 0 view .LVU561
 1658 0014 BDB9     		cbnz	r5, .L105
 1659              		.loc 1 739 38 discriminator 1 view .LVU562
 1660 0016 012C     		cmp	r4, #1
 1661 0018 1DD0     		beq	.L109
 1662 001a 0123     		movs	r3, #1
 740:STM32Cube_FW_N6/Drivers/BSP/Components/mx66uw1g45g/mx66uw1g45g.c ****   {
 741:STM32Cube_FW_N6/Drivers/BSP/Components/mx66uw1g45g/mx66uw1g45g.c ****     return MX66UW1G45G_ERROR;
 742:STM32Cube_FW_N6/Drivers/BSP/Components/mx66uw1g45g/mx66uw1g45g.c ****   }
 743:STM32Cube_FW_N6/Drivers/BSP/Components/mx66uw1g45g/mx66uw1g45g.c **** 
 744:STM32Cube_FW_N6/Drivers/BSP/Components/mx66uw1g45g/mx66uw1g45g.c ****   /* Initialize the resume command */
 745:STM32Cube_FW_N6/Drivers/BSP/Components/mx66uw1g45g/mx66uw1g45g.c ****   s_command.OperationType = HAL_XSPI_OPTYPE_COMMON_CFG;
 746:STM32Cube_FW_N6/Drivers/BSP/Components/mx66uw1g45g/mx66uw1g45g.c ****   s_command.InstructionMode = (Mode == MX66UW1G45G_SPI_MODE)
 747:STM32Cube_FW_N6/Drivers/BSP/Components/mx66uw1g45g/mx66uw1g45g.c ****                                   ? HAL_XSPI_INSTRUCTION_1_LINE
 748:STM32Cube_FW_N6/Drivers/BSP/Components/mx66uw1g45g/mx66uw1g45g.c ****                                   : HAL_XSPI_INSTRUCTION_8_LINES;
 749:STM32Cube_FW_N6/Drivers/BSP/Components/mx66uw1g45g/mx66uw1g45g.c ****   s_command.InstructionDTRMode = (Rate == MX66UW1G45G_DTR_TRANSFER)
 750:STM32Cube_FW_N6/Drivers/BSP/Components/mx66uw1g45g/mx66uw1g45g.c ****                                      ? HAL_XSPI_INSTRUCTION_DTR_ENABLE
 751:STM32Cube_FW_N6/Drivers/BSP/Components/mx66uw1g45g/mx66uw1g45g.c ****                                      : HAL_XSPI_INSTRUCTION_DTR_DISABLE;
 1663              		.loc 1 751 38 discriminator 2 view .LVU563
 1664 001c 2C46     		mov	r4, r5
 1665              	.LVL92:
 1666              	.L107:
 746:STM32Cube_FW_N6/Drivers/BSP/Components/mx66uw1g45g/mx66uw1g45g.c ****                                   ? HAL_XSPI_INSTRUCTION_1_LINE
 1667              		.loc 1 746 29 view .LVU564
 1668 001e 0493     		str	r3, [sp, #16]
 749:STM32Cube_FW_N6/Drivers/BSP/Components/mx66uw1g45g/mx66uw1g45g.c ****                                      ? HAL_XSPI_INSTRUCTION_DTR_ENABLE
ARM GAS  C:\Users\DJESSOU\AppData\Local\Temp\ccAx4BcF.s 			page 49


 1669              		.loc 1 749 32 view .LVU565
 1670 0020 0694     		str	r4, [sp, #24]
 752:STM32Cube_FW_N6/Drivers/BSP/Components/mx66uw1g45g/mx66uw1g45g.c ****   s_command.InstructionWidth = (Mode == MX66UW1G45G_SPI_MODE)
 1671              		.loc 1 752 3 is_stmt 1 view .LVU566
 753:STM32Cube_FW_N6/Drivers/BSP/Components/mx66uw1g45g/mx66uw1g45g.c ****                                    ? HAL_XSPI_INSTRUCTION_8_BITS
 754:STM32Cube_FW_N6/Drivers/BSP/Components/mx66uw1g45g/mx66uw1g45g.c ****                                    : HAL_XSPI_INSTRUCTION_16_BITS;
 1672              		.loc 1 754 36 is_stmt 0 view .LVU567
 1673 0022 B5B1     		cbz	r5, .L110
 752:STM32Cube_FW_N6/Drivers/BSP/Components/mx66uw1g45g/mx66uw1g45g.c ****   s_command.InstructionWidth = (Mode == MX66UW1G45G_SPI_MODE)
 1674              		.loc 1 752 30 view .LVU568
 1675 0024 1023     		movs	r3, #16
 1676 0026 0593     		str	r3, [sp, #20]
 755:STM32Cube_FW_N6/Drivers/BSP/Components/mx66uw1g45g/mx66uw1g45g.c ****   s_command.Instruction = (Mode == MX66UW1G45G_SPI_MODE)
 1677              		.loc 1 755 3 is_stmt 1 view .LVU569
 756:STM32Cube_FW_N6/Drivers/BSP/Components/mx66uw1g45g/mx66uw1g45g.c ****                               ? MX66UW1G45G_PROG_ERASE_RESUME_CMD
 757:STM32Cube_FW_N6/Drivers/BSP/Components/mx66uw1g45g/mx66uw1g45g.c ****                               : MX66UW1G45G_OCTA_PROG_ERASE_RESUME_CMD;
 1678              		.loc 1 757 31 is_stmt 0 discriminator 2 view .LVU570
 1679 0028 43F2CF03 		movw	r3, #12495
 1680              	.L108:
 758:STM32Cube_FW_N6/Drivers/BSP/Components/mx66uw1g45g/mx66uw1g45g.c ****   s_command.AddressMode = HAL_XSPI_ADDRESS_NONE;
 759:STM32Cube_FW_N6/Drivers/BSP/Components/mx66uw1g45g/mx66uw1g45g.c ****   s_command.AlternateBytesMode = HAL_XSPI_ALT_BYTES_NONE;
 760:STM32Cube_FW_N6/Drivers/BSP/Components/mx66uw1g45g/mx66uw1g45g.c ****   s_command.DataMode = HAL_XSPI_DATA_NONE;
 761:STM32Cube_FW_N6/Drivers/BSP/Components/mx66uw1g45g/mx66uw1g45g.c ****   s_command.DummyCycles = 0U;
 762:STM32Cube_FW_N6/Drivers/BSP/Components/mx66uw1g45g/mx66uw1g45g.c ****   s_command.DQSMode = HAL_XSPI_DQS_DISABLE;
 763:STM32Cube_FW_N6/Drivers/BSP/Components/mx66uw1g45g/mx66uw1g45g.c ****  #if defined (XSPI_CCR_SIOO)
 764:STM32Cube_FW_N6/Drivers/BSP/Components/mx66uw1g45g/mx66uw1g45g.c ****   s_command.SIOOMode            = HAL_XSPI_SIOO_INST_EVERY_CMD;
 765:STM32Cube_FW_N6/Drivers/BSP/Components/mx66uw1g45g/mx66uw1g45g.c ****  #endif
 766:STM32Cube_FW_N6/Drivers/BSP/Components/mx66uw1g45g/mx66uw1g45g.c **** 
 767:STM32Cube_FW_N6/Drivers/BSP/Components/mx66uw1g45g/mx66uw1g45g.c ****   /* Send the command */
 768:STM32Cube_FW_N6/Drivers/BSP/Components/mx66uw1g45g/mx66uw1g45g.c ****   if (HAL_XSPI_Command(Ctx, &s_command, HAL_XSPI_TIMEOUT_DEFAULT_VALUE) != HAL_OK)
 1681              		.loc 1 768 7 view .LVU571
 1682 002c 41F28832 		movw	r2, #5000
 1683 0030 3046     		mov	r0, r6
 1684 0032 01A9     		add	r1, sp, #4
 755:STM32Cube_FW_N6/Drivers/BSP/Components/mx66uw1g45g/mx66uw1g45g.c ****                               ? MX66UW1G45G_PROG_ERASE_RESUME_CMD
 1685              		.loc 1 755 25 view .LVU572
 1686 0034 0393     		str	r3, [sp, #12]
 758:STM32Cube_FW_N6/Drivers/BSP/Components/mx66uw1g45g/mx66uw1g45g.c ****   s_command.AddressMode = HAL_XSPI_ADDRESS_NONE;
 1687              		.loc 1 758 3 is_stmt 1 view .LVU573
 759:STM32Cube_FW_N6/Drivers/BSP/Components/mx66uw1g45g/mx66uw1g45g.c ****   s_command.DataMode = HAL_XSPI_DATA_NONE;
 1688              		.loc 1 759 3 view .LVU574
 760:STM32Cube_FW_N6/Drivers/BSP/Components/mx66uw1g45g/mx66uw1g45g.c ****   s_command.DummyCycles = 0U;
 1689              		.loc 1 760 3 view .LVU575
 761:STM32Cube_FW_N6/Drivers/BSP/Components/mx66uw1g45g/mx66uw1g45g.c ****   s_command.DQSMode = HAL_XSPI_DQS_DISABLE;
 1690              		.loc 1 761 3 view .LVU576
 762:STM32Cube_FW_N6/Drivers/BSP/Components/mx66uw1g45g/mx66uw1g45g.c ****  #if defined (XSPI_CCR_SIOO)
 1691              		.loc 1 762 3 view .LVU577
 1692              		.loc 1 768 3 view .LVU578
 1693              		.loc 1 768 7 is_stmt 0 view .LVU579
 1694 0036 FFF7FEFF 		bl	HAL_XSPI_Command
 1695              	.LVL93:
 1696              		.loc 1 768 6 discriminator 1 view .LVU580
 1697 003a 0038     		subs	r0, r0, #0
 1698 003c 18BF     		it	ne
 1699 003e 0120     		movne	r0, #1
 1700 0040 4042     		rsbs	r0, r0, #0
 1701              	.L104:
ARM GAS  C:\Users\DJESSOU\AppData\Local\Temp\ccAx4BcF.s 			page 50


 769:STM32Cube_FW_N6/Drivers/BSP/Components/mx66uw1g45g/mx66uw1g45g.c ****   {
 770:STM32Cube_FW_N6/Drivers/BSP/Components/mx66uw1g45g/mx66uw1g45g.c ****     return MX66UW1G45G_ERROR;
 771:STM32Cube_FW_N6/Drivers/BSP/Components/mx66uw1g45g/mx66uw1g45g.c ****   }
 772:STM32Cube_FW_N6/Drivers/BSP/Components/mx66uw1g45g/mx66uw1g45g.c **** 
 773:STM32Cube_FW_N6/Drivers/BSP/Components/mx66uw1g45g/mx66uw1g45g.c ****   return MX66UW1G45G_OK;
 774:STM32Cube_FW_N6/Drivers/BSP/Components/mx66uw1g45g/mx66uw1g45g.c **** }
 1702              		.loc 1 774 1 view .LVU581
 1703 0042 14B0     		add	sp, sp, #80
 1704              		.cfi_remember_state
 1705              		.cfi_def_cfa_offset 16
 1706              		@ sp needed
 1707 0044 70BD     		pop	{r4, r5, r6, pc}
 1708              	.LVL94:
 1709              	.L105:
 1710              		.cfi_restore_state
 749:STM32Cube_FW_N6/Drivers/BSP/Components/mx66uw1g45g/mx66uw1g45g.c ****                                      ? HAL_XSPI_INSTRUCTION_DTR_ENABLE
 1711              		.loc 1 749 3 is_stmt 1 view .LVU582
 751:STM32Cube_FW_N6/Drivers/BSP/Components/mx66uw1g45g/mx66uw1g45g.c ****   s_command.InstructionWidth = (Mode == MX66UW1G45G_SPI_MODE)
 1712              		.loc 1 751 38 is_stmt 0 view .LVU583
 1713 0046 631E     		subs	r3, r4, #1
 1714 0048 5C42     		rsbs	r4, r3, #0
 1715 004a 5C41     		adcs	r4, r4, r3
 1716 004c E400     		lsls	r4, r4, #3
 1717 004e 0423     		movs	r3, #4
 1718 0050 E5E7     		b	.L107
 1719              	.L110:
 757:STM32Cube_FW_N6/Drivers/BSP/Components/mx66uw1g45g/mx66uw1g45g.c ****   s_command.AddressMode = HAL_XSPI_ADDRESS_NONE;
 1720              		.loc 1 757 31 discriminator 1 view .LVU584
 1721 0052 3023     		movs	r3, #48
 1722 0054 EAE7     		b	.L108
 1723              	.L109:
 741:STM32Cube_FW_N6/Drivers/BSP/Components/mx66uw1g45g/mx66uw1g45g.c ****   }
 1724              		.loc 1 741 12 view .LVU585
 1725 0056 4FF0FF30 		mov	r0, #-1
 1726 005a F2E7     		b	.L104
 1727              		.cfi_endproc
 1728              	.LFE873:
 1730              		.section	.text.MX66UW1G45G_WriteEnable,"ax",%progbits
 1731              		.align	1
 1732              		.global	MX66UW1G45G_WriteEnable
 1733              		.syntax unified
 1734              		.thumb
 1735              		.thumb_func
 1737              	MX66UW1G45G_WriteEnable:
 1738              	.LVL95:
 1739              	.LFB874:
 775:STM32Cube_FW_N6/Drivers/BSP/Components/mx66uw1g45g/mx66uw1g45g.c **** 
 776:STM32Cube_FW_N6/Drivers/BSP/Components/mx66uw1g45g/mx66uw1g45g.c **** /* Register/Setting Commands **************************************************/
 777:STM32Cube_FW_N6/Drivers/BSP/Components/mx66uw1g45g/mx66uw1g45g.c **** /**
 778:STM32Cube_FW_N6/Drivers/BSP/Components/mx66uw1g45g/mx66uw1g45g.c ****   * @brief  This function send a Write Enable and wait it is effective.
 779:STM32Cube_FW_N6/Drivers/BSP/Components/mx66uw1g45g/mx66uw1g45g.c ****   *         SPI/OPI
 780:STM32Cube_FW_N6/Drivers/BSP/Components/mx66uw1g45g/mx66uw1g45g.c ****   * @param  Ctx Component object pointer
 781:STM32Cube_FW_N6/Drivers/BSP/Components/mx66uw1g45g/mx66uw1g45g.c ****   * @param  Mode Interface mode
 782:STM32Cube_FW_N6/Drivers/BSP/Components/mx66uw1g45g/mx66uw1g45g.c ****   * @param  Rate Transfer rate STR or DTR
 783:STM32Cube_FW_N6/Drivers/BSP/Components/mx66uw1g45g/mx66uw1g45g.c ****   * @retval error status
 784:STM32Cube_FW_N6/Drivers/BSP/Components/mx66uw1g45g/mx66uw1g45g.c ****   */
 785:STM32Cube_FW_N6/Drivers/BSP/Components/mx66uw1g45g/mx66uw1g45g.c **** int32_t MX66UW1G45G_WriteEnable(XSPI_HandleTypeDef *Ctx, MX66UW1G45G_Interface_t Mode, MX66UW1G45G_
ARM GAS  C:\Users\DJESSOU\AppData\Local\Temp\ccAx4BcF.s 			page 51


 786:STM32Cube_FW_N6/Drivers/BSP/Components/mx66uw1g45g/mx66uw1g45g.c **** {
 1740              		.loc 1 786 1 is_stmt 1 view -0
 1741              		.cfi_startproc
 1742              		@ args = 0, pretend = 0, frame = 96
 1743              		@ frame_needed = 0, uses_anonymous_args = 0
 787:STM32Cube_FW_N6/Drivers/BSP/Components/mx66uw1g45g/mx66uw1g45g.c ****   XSPI_RegularCmdTypeDef s_command = {0};
 1744              		.loc 1 787 3 view .LVU587
 786:STM32Cube_FW_N6/Drivers/BSP/Components/mx66uw1g45g/mx66uw1g45g.c ****   XSPI_RegularCmdTypeDef s_command = {0};
 1745              		.loc 1 786 1 is_stmt 0 view .LVU588
 1746 0000 F0B5     		push	{r4, r5, r6, r7, lr}
 1747              		.cfi_def_cfa_offset 20
 1748              		.cfi_offset 4, -20
 1749              		.cfi_offset 5, -16
 1750              		.cfi_offset 6, -12
 1751              		.cfi_offset 7, -8
 1752              		.cfi_offset 14, -4
 1753 0002 0C46     		mov	r4, r1
 1754 0004 99B0     		sub	sp, sp, #100
 1755              		.cfi_def_cfa_offset 120
 1756              		.loc 1 787 26 view .LVU589
 1757 0006 0021     		movs	r1, #0
 1758              	.LVL96:
 786:STM32Cube_FW_N6/Drivers/BSP/Components/mx66uw1g45g/mx66uw1g45g.c ****   XSPI_RegularCmdTypeDef s_command = {0};
 1759              		.loc 1 786 1 view .LVU590
 1760 0008 0646     		mov	r6, r0
 1761 000a 1546     		mov	r5, r2
 1762              		.loc 1 787 26 view .LVU591
 1763 000c 05A8     		add	r0, sp, #20
 1764              	.LVL97:
 1765              		.loc 1 787 26 view .LVU592
 1766 000e 4C22     		movs	r2, #76
 1767              	.LVL98:
 1768              		.loc 1 787 26 view .LVU593
 1769 0010 FFF7FEFF 		bl	memset
 1770              	.LVL99:
 788:STM32Cube_FW_N6/Drivers/BSP/Components/mx66uw1g45g/mx66uw1g45g.c ****   XSPI_AutoPollingTypeDef s_config = {0};
 1771              		.loc 1 788 3 is_stmt 1 view .LVU594
 1772              		.loc 1 788 27 is_stmt 0 view .LVU595
 1773 0014 1422     		movs	r2, #20
 1774 0016 0021     		movs	r1, #0
 1775 0018 6846     		mov	r0, sp
 1776 001a FFF7FEFF 		bl	memset
 1777              	.LVL100:
 789:STM32Cube_FW_N6/Drivers/BSP/Components/mx66uw1g45g/mx66uw1g45g.c **** 
 790:STM32Cube_FW_N6/Drivers/BSP/Components/mx66uw1g45g/mx66uw1g45g.c ****   /* SPI mode and DTR transfer not supported by memory */
 791:STM32Cube_FW_N6/Drivers/BSP/Components/mx66uw1g45g/mx66uw1g45g.c ****   if ((Mode == MX66UW1G45G_SPI_MODE) && (Rate == MX66UW1G45G_DTR_TRANSFER))
 1778              		.loc 1 791 3 is_stmt 1 view .LVU596
 1779              		.loc 1 791 6 is_stmt 0 view .LVU597
 1780 001e 2CB9     		cbnz	r4, .L112
 1781              		.loc 1 791 38 discriminator 1 view .LVU598
 1782 0020 012D     		cmp	r5, #1
 1783 0022 5DD1     		bne	.L120
 1784              	.LVL101:
 1785              	.L116:
 792:STM32Cube_FW_N6/Drivers/BSP/Components/mx66uw1g45g/mx66uw1g45g.c ****   {
 793:STM32Cube_FW_N6/Drivers/BSP/Components/mx66uw1g45g/mx66uw1g45g.c ****     return MX66UW1G45G_ERROR;
 1786              		.loc 1 793 12 view .LVU599
ARM GAS  C:\Users\DJESSOU\AppData\Local\Temp\ccAx4BcF.s 			page 52


 1787 0024 4FF0FF30 		mov	r0, #-1
 1788              	.L111:
 794:STM32Cube_FW_N6/Drivers/BSP/Components/mx66uw1g45g/mx66uw1g45g.c ****   }
 795:STM32Cube_FW_N6/Drivers/BSP/Components/mx66uw1g45g/mx66uw1g45g.c **** 
 796:STM32Cube_FW_N6/Drivers/BSP/Components/mx66uw1g45g/mx66uw1g45g.c ****   /* Initialize the write enable command */
 797:STM32Cube_FW_N6/Drivers/BSP/Components/mx66uw1g45g/mx66uw1g45g.c ****   s_command.OperationType = HAL_XSPI_OPTYPE_COMMON_CFG;
 798:STM32Cube_FW_N6/Drivers/BSP/Components/mx66uw1g45g/mx66uw1g45g.c ****   s_command.InstructionMode = (Mode == MX66UW1G45G_SPI_MODE)
 799:STM32Cube_FW_N6/Drivers/BSP/Components/mx66uw1g45g/mx66uw1g45g.c ****                                   ? HAL_XSPI_INSTRUCTION_1_LINE
 800:STM32Cube_FW_N6/Drivers/BSP/Components/mx66uw1g45g/mx66uw1g45g.c ****                                   : HAL_XSPI_INSTRUCTION_8_LINES;
 801:STM32Cube_FW_N6/Drivers/BSP/Components/mx66uw1g45g/mx66uw1g45g.c ****   s_command.InstructionDTRMode = (Rate == MX66UW1G45G_DTR_TRANSFER)
 802:STM32Cube_FW_N6/Drivers/BSP/Components/mx66uw1g45g/mx66uw1g45g.c ****                                      ? HAL_XSPI_INSTRUCTION_DTR_ENABLE
 803:STM32Cube_FW_N6/Drivers/BSP/Components/mx66uw1g45g/mx66uw1g45g.c ****                                      : HAL_XSPI_INSTRUCTION_DTR_DISABLE;
 804:STM32Cube_FW_N6/Drivers/BSP/Components/mx66uw1g45g/mx66uw1g45g.c ****   s_command.InstructionWidth = (Mode == MX66UW1G45G_SPI_MODE)
 805:STM32Cube_FW_N6/Drivers/BSP/Components/mx66uw1g45g/mx66uw1g45g.c ****                                    ? HAL_XSPI_INSTRUCTION_8_BITS
 806:STM32Cube_FW_N6/Drivers/BSP/Components/mx66uw1g45g/mx66uw1g45g.c ****                                    : HAL_XSPI_INSTRUCTION_16_BITS;
 807:STM32Cube_FW_N6/Drivers/BSP/Components/mx66uw1g45g/mx66uw1g45g.c ****   s_command.Instruction = (Mode == MX66UW1G45G_SPI_MODE)
 808:STM32Cube_FW_N6/Drivers/BSP/Components/mx66uw1g45g/mx66uw1g45g.c ****                               ? MX66UW1G45G_WRITE_ENABLE_CMD
 809:STM32Cube_FW_N6/Drivers/BSP/Components/mx66uw1g45g/mx66uw1g45g.c ****                               : MX66UW1G45G_OCTA_WRITE_ENABLE_CMD;
 810:STM32Cube_FW_N6/Drivers/BSP/Components/mx66uw1g45g/mx66uw1g45g.c ****   s_command.AddressMode = HAL_XSPI_ADDRESS_NONE;
 811:STM32Cube_FW_N6/Drivers/BSP/Components/mx66uw1g45g/mx66uw1g45g.c ****   s_command.AlternateBytesMode = HAL_XSPI_ALT_BYTES_NONE;
 812:STM32Cube_FW_N6/Drivers/BSP/Components/mx66uw1g45g/mx66uw1g45g.c ****   s_command.DataMode = HAL_XSPI_DATA_NONE;
 813:STM32Cube_FW_N6/Drivers/BSP/Components/mx66uw1g45g/mx66uw1g45g.c ****   s_command.DummyCycles = 0U;
 814:STM32Cube_FW_N6/Drivers/BSP/Components/mx66uw1g45g/mx66uw1g45g.c ****   s_command.DQSMode = HAL_XSPI_DQS_DISABLE;
 815:STM32Cube_FW_N6/Drivers/BSP/Components/mx66uw1g45g/mx66uw1g45g.c ****  #if defined (XSPI_CCR_SIOO)
 816:STM32Cube_FW_N6/Drivers/BSP/Components/mx66uw1g45g/mx66uw1g45g.c ****   s_command.SIOOMode            = HAL_XSPI_SIOO_INST_EVERY_CMD;
 817:STM32Cube_FW_N6/Drivers/BSP/Components/mx66uw1g45g/mx66uw1g45g.c ****  #endif
 818:STM32Cube_FW_N6/Drivers/BSP/Components/mx66uw1g45g/mx66uw1g45g.c **** 
 819:STM32Cube_FW_N6/Drivers/BSP/Components/mx66uw1g45g/mx66uw1g45g.c ****   /* Send the command */
 820:STM32Cube_FW_N6/Drivers/BSP/Components/mx66uw1g45g/mx66uw1g45g.c ****   if (HAL_XSPI_Command(Ctx, &s_command, HAL_XSPI_TIMEOUT_DEFAULT_VALUE) != HAL_OK)
 821:STM32Cube_FW_N6/Drivers/BSP/Components/mx66uw1g45g/mx66uw1g45g.c ****   {
 822:STM32Cube_FW_N6/Drivers/BSP/Components/mx66uw1g45g/mx66uw1g45g.c ****     return MX66UW1G45G_ERROR;
 823:STM32Cube_FW_N6/Drivers/BSP/Components/mx66uw1g45g/mx66uw1g45g.c ****   }
 824:STM32Cube_FW_N6/Drivers/BSP/Components/mx66uw1g45g/mx66uw1g45g.c **** 
 825:STM32Cube_FW_N6/Drivers/BSP/Components/mx66uw1g45g/mx66uw1g45g.c ****   /* Configure automatic polling mode to wait for write enabling */
 826:STM32Cube_FW_N6/Drivers/BSP/Components/mx66uw1g45g/mx66uw1g45g.c ****   s_command.Instruction = (Mode == MX66UW1G45G_SPI_MODE)
 827:STM32Cube_FW_N6/Drivers/BSP/Components/mx66uw1g45g/mx66uw1g45g.c ****                               ? MX66UW1G45G_READ_STATUS_REG_CMD
 828:STM32Cube_FW_N6/Drivers/BSP/Components/mx66uw1g45g/mx66uw1g45g.c ****                               : MX66UW1G45G_OCTA_READ_STATUS_REG_CMD;
 829:STM32Cube_FW_N6/Drivers/BSP/Components/mx66uw1g45g/mx66uw1g45g.c ****   s_command.AddressMode = (Mode == MX66UW1G45G_SPI_MODE) ? HAL_XSPI_ADDRESS_NONE : HAL_XSPI_ADDRESS
 830:STM32Cube_FW_N6/Drivers/BSP/Components/mx66uw1g45g/mx66uw1g45g.c ****   s_command.AddressDTRMode = (Rate == MX66UW1G45G_DTR_TRANSFER)
 831:STM32Cube_FW_N6/Drivers/BSP/Components/mx66uw1g45g/mx66uw1g45g.c ****                                  ? HAL_XSPI_ADDRESS_DTR_ENABLE
 832:STM32Cube_FW_N6/Drivers/BSP/Components/mx66uw1g45g/mx66uw1g45g.c ****                                  : HAL_XSPI_ADDRESS_DTR_DISABLE;
 833:STM32Cube_FW_N6/Drivers/BSP/Components/mx66uw1g45g/mx66uw1g45g.c ****   s_command.AddressWidth = HAL_XSPI_ADDRESS_32_BITS;
 834:STM32Cube_FW_N6/Drivers/BSP/Components/mx66uw1g45g/mx66uw1g45g.c ****   s_command.Address = 0U;
 835:STM32Cube_FW_N6/Drivers/BSP/Components/mx66uw1g45g/mx66uw1g45g.c ****   s_command.DataMode = (Mode == MX66UW1G45G_SPI_MODE) ? HAL_XSPI_DATA_1_LINE : HAL_XSPI_DATA_8_LINE
 836:STM32Cube_FW_N6/Drivers/BSP/Components/mx66uw1g45g/mx66uw1g45g.c ****   s_command.DataDTRMode = (Rate == MX66UW1G45G_DTR_TRANSFER) ? HAL_XSPI_DATA_DTR_ENABLE : HAL_XSPI_
 837:STM32Cube_FW_N6/Drivers/BSP/Components/mx66uw1g45g/mx66uw1g45g.c ****   s_command.DummyCycles = (Mode == MX66UW1G45G_SPI_MODE)
 838:STM32Cube_FW_N6/Drivers/BSP/Components/mx66uw1g45g/mx66uw1g45g.c ****                               ? 0U
 839:STM32Cube_FW_N6/Drivers/BSP/Components/mx66uw1g45g/mx66uw1g45g.c ****                               : ((Rate == MX66UW1G45G_DTR_TRANSFER)
 840:STM32Cube_FW_N6/Drivers/BSP/Components/mx66uw1g45g/mx66uw1g45g.c ****                                      ? DUMMY_CYCLES_REG_OCTAL_DTR
 841:STM32Cube_FW_N6/Drivers/BSP/Components/mx66uw1g45g/mx66uw1g45g.c ****                                      : DUMMY_CYCLES_REG_OCTAL);
 842:STM32Cube_FW_N6/Drivers/BSP/Components/mx66uw1g45g/mx66uw1g45g.c ****   s_command.DataLength = (Rate == MX66UW1G45G_DTR_TRANSFER) ? 2U : 1U;
 843:STM32Cube_FW_N6/Drivers/BSP/Components/mx66uw1g45g/mx66uw1g45g.c ****   s_command.DQSMode = (Rate == MX66UW1G45G_DTR_TRANSFER) ? HAL_XSPI_DQS_ENABLE : HAL_XSPI_DQS_DISAB
 844:STM32Cube_FW_N6/Drivers/BSP/Components/mx66uw1g45g/mx66uw1g45g.c **** 
 845:STM32Cube_FW_N6/Drivers/BSP/Components/mx66uw1g45g/mx66uw1g45g.c ****   /* Send the command */
 846:STM32Cube_FW_N6/Drivers/BSP/Components/mx66uw1g45g/mx66uw1g45g.c ****   if (HAL_XSPI_Command(Ctx, &s_command, HAL_XSPI_TIMEOUT_DEFAULT_VALUE) != HAL_OK)
 847:STM32Cube_FW_N6/Drivers/BSP/Components/mx66uw1g45g/mx66uw1g45g.c ****   {
 848:STM32Cube_FW_N6/Drivers/BSP/Components/mx66uw1g45g/mx66uw1g45g.c ****     return MX66UW1G45G_ERROR;
ARM GAS  C:\Users\DJESSOU\AppData\Local\Temp\ccAx4BcF.s 			page 53


 849:STM32Cube_FW_N6/Drivers/BSP/Components/mx66uw1g45g/mx66uw1g45g.c ****   }
 850:STM32Cube_FW_N6/Drivers/BSP/Components/mx66uw1g45g/mx66uw1g45g.c **** 
 851:STM32Cube_FW_N6/Drivers/BSP/Components/mx66uw1g45g/mx66uw1g45g.c ****   s_config.MatchValue = 2U;
 852:STM32Cube_FW_N6/Drivers/BSP/Components/mx66uw1g45g/mx66uw1g45g.c ****   s_config.MatchMask = 2U;
 853:STM32Cube_FW_N6/Drivers/BSP/Components/mx66uw1g45g/mx66uw1g45g.c ****   s_config.MatchMode = HAL_XSPI_MATCH_MODE_AND;
 854:STM32Cube_FW_N6/Drivers/BSP/Components/mx66uw1g45g/mx66uw1g45g.c ****   s_config.IntervalTime = MX66UW1G45G_AUTOPOLLING_INTERVAL_TIME;
 855:STM32Cube_FW_N6/Drivers/BSP/Components/mx66uw1g45g/mx66uw1g45g.c ****   s_config.AutomaticStop = HAL_XSPI_AUTOMATIC_STOP_ENABLE;
 856:STM32Cube_FW_N6/Drivers/BSP/Components/mx66uw1g45g/mx66uw1g45g.c **** 
 857:STM32Cube_FW_N6/Drivers/BSP/Components/mx66uw1g45g/mx66uw1g45g.c ****   if (HAL_XSPI_AutoPolling(Ctx, &s_config, HAL_XSPI_TIMEOUT_DEFAULT_VALUE) != HAL_OK)
 858:STM32Cube_FW_N6/Drivers/BSP/Components/mx66uw1g45g/mx66uw1g45g.c ****   {
 859:STM32Cube_FW_N6/Drivers/BSP/Components/mx66uw1g45g/mx66uw1g45g.c ****     return MX66UW1G45G_ERROR;
 860:STM32Cube_FW_N6/Drivers/BSP/Components/mx66uw1g45g/mx66uw1g45g.c ****   }
 861:STM32Cube_FW_N6/Drivers/BSP/Components/mx66uw1g45g/mx66uw1g45g.c **** 
 862:STM32Cube_FW_N6/Drivers/BSP/Components/mx66uw1g45g/mx66uw1g45g.c ****   return MX66UW1G45G_OK;
 863:STM32Cube_FW_N6/Drivers/BSP/Components/mx66uw1g45g/mx66uw1g45g.c **** }
 1789              		.loc 1 863 1 view .LVU600
 1790 0028 19B0     		add	sp, sp, #100
 1791              		.cfi_remember_state
 1792              		.cfi_def_cfa_offset 20
 1793              		@ sp needed
 1794 002a F0BD     		pop	{r4, r5, r6, r7, pc}
 1795              	.LVL102:
 1796              	.L112:
 1797              		.cfi_restore_state
 801:STM32Cube_FW_N6/Drivers/BSP/Components/mx66uw1g45g/mx66uw1g45g.c ****                                      ? HAL_XSPI_INSTRUCTION_DTR_ENABLE
 1798              		.loc 1 801 3 is_stmt 1 view .LVU601
 1799 002c 0422     		movs	r2, #4
 803:STM32Cube_FW_N6/Drivers/BSP/Components/mx66uw1g45g/mx66uw1g45g.c ****   s_command.InstructionWidth = (Mode == MX66UW1G45G_SPI_MODE)
 1800              		.loc 1 803 38 is_stmt 0 view .LVU602
 1801 002e 691E     		subs	r1, r5, #1
 1802 0030 4B42     		rsbs	r3, r1, #0
 1803 0032 4B41     		adcs	r3, r3, r1
 1804 0034 DB00     		lsls	r3, r3, #3
 1805              	.L113:
 798:STM32Cube_FW_N6/Drivers/BSP/Components/mx66uw1g45g/mx66uw1g45g.c ****                                   ? HAL_XSPI_INSTRUCTION_1_LINE
 1806              		.loc 1 798 29 view .LVU603
 1807 0036 0892     		str	r2, [sp, #32]
 801:STM32Cube_FW_N6/Drivers/BSP/Components/mx66uw1g45g/mx66uw1g45g.c ****                                      ? HAL_XSPI_INSTRUCTION_DTR_ENABLE
 1808              		.loc 1 801 32 view .LVU604
 1809 0038 0A93     		str	r3, [sp, #40]
 804:STM32Cube_FW_N6/Drivers/BSP/Components/mx66uw1g45g/mx66uw1g45g.c ****                                    ? HAL_XSPI_INSTRUCTION_8_BITS
 1810              		.loc 1 804 3 is_stmt 1 view .LVU605
 806:STM32Cube_FW_N6/Drivers/BSP/Components/mx66uw1g45g/mx66uw1g45g.c ****   s_command.Instruction = (Mode == MX66UW1G45G_SPI_MODE)
 1811              		.loc 1 806 36 is_stmt 0 view .LVU606
 1812 003a 002C     		cmp	r4, #0
 1813 003c 53D0     		beq	.L121
 804:STM32Cube_FW_N6/Drivers/BSP/Components/mx66uw1g45g/mx66uw1g45g.c ****                                    ? HAL_XSPI_INSTRUCTION_8_BITS
 1814              		.loc 1 804 30 view .LVU607
 1815 003e 1023     		movs	r3, #16
 1816 0040 0993     		str	r3, [sp, #36]
 807:STM32Cube_FW_N6/Drivers/BSP/Components/mx66uw1g45g/mx66uw1g45g.c ****                               ? MX66UW1G45G_WRITE_ENABLE_CMD
 1817              		.loc 1 807 3 is_stmt 1 view .LVU608
 809:STM32Cube_FW_N6/Drivers/BSP/Components/mx66uw1g45g/mx66uw1g45g.c ****   s_command.AddressMode = HAL_XSPI_ADDRESS_NONE;
 1818              		.loc 1 809 31 is_stmt 0 discriminator 2 view .LVU609
 1819 0042 40F2F963 		movw	r3, #1785
 1820              	.L115:
 820:STM32Cube_FW_N6/Drivers/BSP/Components/mx66uw1g45g/mx66uw1g45g.c ****   {
ARM GAS  C:\Users\DJESSOU\AppData\Local\Temp\ccAx4BcF.s 			page 54


 1821              		.loc 1 820 7 view .LVU610
 1822 0046 41F28832 		movw	r2, #5000
 1823 004a 3046     		mov	r0, r6
 1824 004c 05A9     		add	r1, sp, #20
 807:STM32Cube_FW_N6/Drivers/BSP/Components/mx66uw1g45g/mx66uw1g45g.c ****                               ? MX66UW1G45G_WRITE_ENABLE_CMD
 1825              		.loc 1 807 25 view .LVU611
 1826 004e 0793     		str	r3, [sp, #28]
 810:STM32Cube_FW_N6/Drivers/BSP/Components/mx66uw1g45g/mx66uw1g45g.c ****   s_command.AlternateBytesMode = HAL_XSPI_ALT_BYTES_NONE;
 1827              		.loc 1 810 3 is_stmt 1 view .LVU612
 811:STM32Cube_FW_N6/Drivers/BSP/Components/mx66uw1g45g/mx66uw1g45g.c ****   s_command.DataMode = HAL_XSPI_DATA_NONE;
 1828              		.loc 1 811 3 view .LVU613
 812:STM32Cube_FW_N6/Drivers/BSP/Components/mx66uw1g45g/mx66uw1g45g.c ****   s_command.DummyCycles = 0U;
 1829              		.loc 1 812 3 view .LVU614
 813:STM32Cube_FW_N6/Drivers/BSP/Components/mx66uw1g45g/mx66uw1g45g.c ****   s_command.DQSMode = HAL_XSPI_DQS_DISABLE;
 1830              		.loc 1 813 3 view .LVU615
 814:STM32Cube_FW_N6/Drivers/BSP/Components/mx66uw1g45g/mx66uw1g45g.c ****  #if defined (XSPI_CCR_SIOO)
 1831              		.loc 1 814 3 view .LVU616
 820:STM32Cube_FW_N6/Drivers/BSP/Components/mx66uw1g45g/mx66uw1g45g.c ****   {
 1832              		.loc 1 820 3 view .LVU617
 820:STM32Cube_FW_N6/Drivers/BSP/Components/mx66uw1g45g/mx66uw1g45g.c ****   {
 1833              		.loc 1 820 7 is_stmt 0 view .LVU618
 1834 0050 FFF7FEFF 		bl	HAL_XSPI_Command
 1835              	.LVL103:
 820:STM32Cube_FW_N6/Drivers/BSP/Components/mx66uw1g45g/mx66uw1g45g.c ****   {
 1836              		.loc 1 820 6 discriminator 1 view .LVU619
 1837 0054 0346     		mov	r3, r0
 1838 0056 0028     		cmp	r0, #0
 1839 0058 E4D1     		bne	.L116
 826:STM32Cube_FW_N6/Drivers/BSP/Components/mx66uw1g45g/mx66uw1g45g.c ****                               ? MX66UW1G45G_READ_STATUS_REG_CMD
 1840              		.loc 1 826 3 is_stmt 1 view .LVU620
 826:STM32Cube_FW_N6/Drivers/BSP/Components/mx66uw1g45g/mx66uw1g45g.c ****                               ? MX66UW1G45G_READ_STATUS_REG_CMD
 1841              		.loc 1 826 25 is_stmt 0 view .LVU621
 1842 005a 002C     		cmp	r4, #0
 832:STM32Cube_FW_N6/Drivers/BSP/Components/mx66uw1g45g/mx66uw1g45g.c ****   s_command.AddressWidth = HAL_XSPI_ADDRESS_32_BITS;
 1843              		.loc 1 832 34 view .LVU622
 1844 005c 05F1FF32 		add	r2, r5, #-1
 826:STM32Cube_FW_N6/Drivers/BSP/Components/mx66uw1g45g/mx66uw1g45g.c ****                               ? MX66UW1G45G_READ_STATUS_REG_CMD
 1845              		.loc 1 826 25 view .LVU623
 1846 0060 40F2FA5C 		movw	ip, #1530
 1847 0064 12BF     		itee	ne
 1848 0066 4FF4806E 		movne	lr, #1024
 1849 006a 4FF0050C 		moveq	ip, #5
 1850 006e 4FF0000E 		moveq	lr, #0
 830:STM32Cube_FW_N6/Drivers/BSP/Components/mx66uw1g45g/mx66uw1g45g.c ****                                  ? HAL_XSPI_ADDRESS_DTR_ENABLE
 1851              		.loc 1 830 3 is_stmt 1 view .LVU624
 832:STM32Cube_FW_N6/Drivers/BSP/Components/mx66uw1g45g/mx66uw1g45g.c ****   s_command.AddressWidth = HAL_XSPI_ADDRESS_32_BITS;
 1852              		.loc 1 832 34 is_stmt 0 view .LVU625
 1853 0072 5742     		rsbs	r7, r2, #0
 1854 0074 5741     		adcs	r7, r7, r2
 1855 0076 FF02     		lsls	r7, r7, #11
 833:STM32Cube_FW_N6/Drivers/BSP/Components/mx66uw1g45g/mx66uw1g45g.c ****   s_command.Address = 0U;
 1856              		.loc 1 833 3 is_stmt 1 view .LVU626
 834:STM32Cube_FW_N6/Drivers/BSP/Components/mx66uw1g45g/mx66uw1g45g.c ****   s_command.DataMode = (Mode == MX66UW1G45G_SPI_MODE) ? HAL_XSPI_DATA_1_LINE : HAL_XSPI_DATA_8_LINE
 1857              		.loc 1 834 3 view .LVU627
 835:STM32Cube_FW_N6/Drivers/BSP/Components/mx66uw1g45g/mx66uw1g45g.c ****   s_command.DataDTRMode = (Rate == MX66UW1G45G_DTR_TRANSFER) ? HAL_XSPI_DATA_DTR_ENABLE : HAL_XSPI_
 1858              		.loc 1 835 3 view .LVU628
 835:STM32Cube_FW_N6/Drivers/BSP/Components/mx66uw1g45g/mx66uw1g45g.c ****   s_command.DataDTRMode = (Rate == MX66UW1G45G_DTR_TRANSFER) ? HAL_XSPI_DATA_DTR_ENABLE : HAL_XSPI_
ARM GAS  C:\Users\DJESSOU\AppData\Local\Temp\ccAx4BcF.s 			page 55


 1859              		.loc 1 835 78 is_stmt 0 view .LVU629
 1860 0078 002C     		cmp	r4, #0
 1861 007a 36D0     		beq	.L118
 836:STM32Cube_FW_N6/Drivers/BSP/Components/mx66uw1g45g/mx66uw1g45g.c ****   s_command.DummyCycles = (Mode == MX66UW1G45G_SPI_MODE)
 1862              		.loc 1 836 3 is_stmt 1 view .LVU630
 837:STM32Cube_FW_N6/Drivers/BSP/Components/mx66uw1g45g/mx66uw1g45g.c ****                               ? 0U
 1863              		.loc 1 837 3 view .LVU631
 839:STM32Cube_FW_N6/Drivers/BSP/Components/mx66uw1g45g/mx66uw1g45g.c ****                                      ? DUMMY_CYCLES_REG_OCTAL_DTR
 1864              		.loc 1 839 31 is_stmt 0 discriminator 1 view .LVU632
 1865 007c 012D     		cmp	r5, #1
 1866 007e 3AD0     		beq	.L123
 835:STM32Cube_FW_N6/Drivers/BSP/Components/mx66uw1g45g/mx66uw1g45g.c ****   s_command.DataDTRMode = (Rate == MX66UW1G45G_DTR_TRANSFER) ? HAL_XSPI_DATA_DTR_ENABLE : HAL_XSPI_
 1867              		.loc 1 835 78 discriminator 2 view .LVU633
 1868 0080 4FF08060 		mov	r0, #67108864
 839:STM32Cube_FW_N6/Drivers/BSP/Components/mx66uw1g45g/mx66uw1g45g.c ****                                      ? DUMMY_CYCLES_REG_OCTAL_DTR
 1869              		.loc 1 839 31 discriminator 1 view .LVU634
 1870 0084 0424     		movs	r4, #4
 1871              	.L125:
 842:STM32Cube_FW_N6/Drivers/BSP/Components/mx66uw1g45g/mx66uw1g45g.c ****   s_command.DQSMode = (Rate == MX66UW1G45G_DTR_TRANSFER) ? HAL_XSPI_DQS_ENABLE : HAL_XSPI_DQS_DISAB
 1872              		.loc 1 842 24 discriminator 4 view .LVU635
 1873 0086 0121     		movs	r1, #1
 843:STM32Cube_FW_N6/Drivers/BSP/Components/mx66uw1g45g/mx66uw1g45g.c **** 
 1874              		.loc 1 843 80 discriminator 2 view .LVU636
 1875 0088 1A46     		mov	r2, r3
 1876              	.L119:
 833:STM32Cube_FW_N6/Drivers/BSP/Components/mx66uw1g45g/mx66uw1g45g.c ****   s_command.Address = 0U;
 1877              		.loc 1 833 26 view .LVU637
 1878 008a 4FF44055 		mov	r5, #12288
 1879 008e 0D95     		str	r5, [sp, #52]
 834:STM32Cube_FW_N6/Drivers/BSP/Components/mx66uw1g45g/mx66uw1g45g.c ****   s_command.DataMode = (Mode == MX66UW1G45G_SPI_MODE) ? HAL_XSPI_DATA_1_LINE : HAL_XSPI_DATA_8_LINE
 1880              		.loc 1 834 21 view .LVU638
 1881 0090 0025     		movs	r5, #0
 835:STM32Cube_FW_N6/Drivers/BSP/Components/mx66uw1g45g/mx66uw1g45g.c ****   s_command.DataDTRMode = (Rate == MX66UW1G45G_DTR_TRANSFER) ? HAL_XSPI_DATA_DTR_ENABLE : HAL_XSPI_
 1882              		.loc 1 835 22 discriminator 4 view .LVU639
 1883 0092 1390     		str	r0, [sp, #76]
 1884 0094 1491     		str	r1, [sp, #80]
 843:STM32Cube_FW_N6/Drivers/BSP/Components/mx66uw1g45g/mx66uw1g45g.c **** 
 1885              		.loc 1 843 21 discriminator 4 view .LVU640
 1886 0096 1792     		str	r2, [sp, #92]
 846:STM32Cube_FW_N6/Drivers/BSP/Components/mx66uw1g45g/mx66uw1g45g.c ****   {
 1887              		.loc 1 846 3 is_stmt 1 view .LVU641
 846:STM32Cube_FW_N6/Drivers/BSP/Components/mx66uw1g45g/mx66uw1g45g.c ****   {
 1888              		.loc 1 846 7 is_stmt 0 view .LVU642
 1889 0098 3046     		mov	r0, r6
 1890 009a 41F28832 		movw	r2, #5000
 1891 009e 05A9     		add	r1, sp, #20
 837:STM32Cube_FW_N6/Drivers/BSP/Components/mx66uw1g45g/mx66uw1g45g.c ****                               ? 0U
 1892              		.loc 1 837 25 view .LVU643
 1893 00a0 CDE91534 		strd	r3, r4, [sp, #84]
 1894 00a4 CDF81CC0 		str	ip, [sp, #28]
 829:STM32Cube_FW_N6/Drivers/BSP/Components/mx66uw1g45g/mx66uw1g45g.c ****   s_command.AddressDTRMode = (Rate == MX66UW1G45G_DTR_TRANSFER)
 1895              		.loc 1 829 25 discriminator 4 view .LVU644
 1896 00a8 CDF830E0 		str	lr, [sp, #48]
 830:STM32Cube_FW_N6/Drivers/BSP/Components/mx66uw1g45g/mx66uw1g45g.c ****                                  ? HAL_XSPI_ADDRESS_DTR_ENABLE
 1897              		.loc 1 830 28 view .LVU645
 1898 00ac 0E97     		str	r7, [sp, #56]
 834:STM32Cube_FW_N6/Drivers/BSP/Components/mx66uw1g45g/mx66uw1g45g.c ****   s_command.DataMode = (Mode == MX66UW1G45G_SPI_MODE) ? HAL_XSPI_DATA_1_LINE : HAL_XSPI_DATA_8_LINE
ARM GAS  C:\Users\DJESSOU\AppData\Local\Temp\ccAx4BcF.s 			page 56


 1899              		.loc 1 834 21 view .LVU646
 1900 00ae 0B95     		str	r5, [sp, #44]
 846:STM32Cube_FW_N6/Drivers/BSP/Components/mx66uw1g45g/mx66uw1g45g.c ****   {
 1901              		.loc 1 846 7 view .LVU647
 1902 00b0 FFF7FEFF 		bl	HAL_XSPI_Command
 1903              	.LVL104:
 846:STM32Cube_FW_N6/Drivers/BSP/Components/mx66uw1g45g/mx66uw1g45g.c ****   {
 1904              		.loc 1 846 6 discriminator 1 view .LVU648
 1905 00b4 0028     		cmp	r0, #0
 1906 00b6 B5D1     		bne	.L116
 851:STM32Cube_FW_N6/Drivers/BSP/Components/mx66uw1g45g/mx66uw1g45g.c ****   s_config.MatchMask = 2U;
 1907              		.loc 1 851 3 is_stmt 1 view .LVU649
 851:STM32Cube_FW_N6/Drivers/BSP/Components/mx66uw1g45g/mx66uw1g45g.c ****   s_config.MatchMask = 2U;
 1908              		.loc 1 851 23 is_stmt 0 view .LVU650
 1909 00b8 0223     		movs	r3, #2
 855:STM32Cube_FW_N6/Drivers/BSP/Components/mx66uw1g45g/mx66uw1g45g.c **** 
 1910              		.loc 1 855 26 view .LVU651
 1911 00ba 1022     		movs	r2, #16
 852:STM32Cube_FW_N6/Drivers/BSP/Components/mx66uw1g45g/mx66uw1g45g.c ****   s_config.MatchMode = HAL_XSPI_MATCH_MODE_AND;
 1912              		.loc 1 852 22 view .LVU652
 1913 00bc CDE90033 		strd	r3, r3, [sp]
 853:STM32Cube_FW_N6/Drivers/BSP/Components/mx66uw1g45g/mx66uw1g45g.c ****   s_config.IntervalTime = MX66UW1G45G_AUTOPOLLING_INTERVAL_TIME;
 1914              		.loc 1 853 3 is_stmt 1 view .LVU653
 855:STM32Cube_FW_N6/Drivers/BSP/Components/mx66uw1g45g/mx66uw1g45g.c **** 
 1915              		.loc 1 855 26 is_stmt 0 view .LVU654
 1916 00c0 4FF48003 		mov	r3, #4194304
 853:STM32Cube_FW_N6/Drivers/BSP/Components/mx66uw1g45g/mx66uw1g45g.c ****   s_config.IntervalTime = MX66UW1G45G_AUTOPOLLING_INTERVAL_TIME;
 1917              		.loc 1 853 22 view .LVU655
 1918 00c4 0290     		str	r0, [sp, #8]
 854:STM32Cube_FW_N6/Drivers/BSP/Components/mx66uw1g45g/mx66uw1g45g.c ****   s_config.AutomaticStop = HAL_XSPI_AUTOMATIC_STOP_ENABLE;
 1919              		.loc 1 854 3 is_stmt 1 view .LVU656
 855:STM32Cube_FW_N6/Drivers/BSP/Components/mx66uw1g45g/mx66uw1g45g.c **** 
 1920              		.loc 1 855 26 is_stmt 0 view .LVU657
 1921 00c6 CDE90332 		strd	r3, r2, [sp, #12]
 857:STM32Cube_FW_N6/Drivers/BSP/Components/mx66uw1g45g/mx66uw1g45g.c ****   {
 1922              		.loc 1 857 3 is_stmt 1 view .LVU658
 857:STM32Cube_FW_N6/Drivers/BSP/Components/mx66uw1g45g/mx66uw1g45g.c ****   {
 1923              		.loc 1 857 7 is_stmt 0 view .LVU659
 1924 00ca 6946     		mov	r1, sp
 1925 00cc 41F28832 		movw	r2, #5000
 1926 00d0 3046     		mov	r0, r6
 1927 00d2 FFF7FEFF 		bl	HAL_XSPI_AutoPolling
 1928              	.LVL105:
 857:STM32Cube_FW_N6/Drivers/BSP/Components/mx66uw1g45g/mx66uw1g45g.c ****   {
 1929              		.loc 1 857 6 discriminator 1 view .LVU660
 1930 00d6 401B     		subs	r0, r0, r5
 1931 00d8 18BF     		it	ne
 1932 00da 0120     		movne	r0, #1
 1933 00dc 4042     		rsbs	r0, r0, #0
 1934 00de A3E7     		b	.L111
 1935              	.L120:
 857:STM32Cube_FW_N6/Drivers/BSP/Components/mx66uw1g45g/mx66uw1g45g.c ****   {
 1936              		.loc 1 857 6 discriminator 1 view .LVU661
 1937 00e0 0122     		movs	r2, #1
 803:STM32Cube_FW_N6/Drivers/BSP/Components/mx66uw1g45g/mx66uw1g45g.c ****   s_command.InstructionWidth = (Mode == MX66UW1G45G_SPI_MODE)
 1938              		.loc 1 803 38 discriminator 2 view .LVU662
 1939 00e2 2346     		mov	r3, r4
ARM GAS  C:\Users\DJESSOU\AppData\Local\Temp\ccAx4BcF.s 			page 57


 1940 00e4 A7E7     		b	.L113
 1941              	.L121:
 809:STM32Cube_FW_N6/Drivers/BSP/Components/mx66uw1g45g/mx66uw1g45g.c ****   s_command.AddressMode = HAL_XSPI_ADDRESS_NONE;
 1942              		.loc 1 809 31 discriminator 1 view .LVU663
 1943 00e6 0623     		movs	r3, #6
 1944 00e8 ADE7     		b	.L115
 1945              	.L118:
 836:STM32Cube_FW_N6/Drivers/BSP/Components/mx66uw1g45g/mx66uw1g45g.c ****   s_command.DummyCycles = (Mode == MX66UW1G45G_SPI_MODE)
 1946              		.loc 1 836 3 is_stmt 1 view .LVU664
 837:STM32Cube_FW_N6/Drivers/BSP/Components/mx66uw1g45g/mx66uw1g45g.c ****                               ? 0U
 1947              		.loc 1 837 3 view .LVU665
 842:STM32Cube_FW_N6/Drivers/BSP/Components/mx66uw1g45g/mx66uw1g45g.c ****   s_command.DQSMode = (Rate == MX66UW1G45G_DTR_TRANSFER) ? HAL_XSPI_DQS_ENABLE : HAL_XSPI_DQS_DISAB
 1948              		.loc 1 842 3 view .LVU666
 842:STM32Cube_FW_N6/Drivers/BSP/Components/mx66uw1g45g/mx66uw1g45g.c ****   s_command.DQSMode = (Rate == MX66UW1G45G_DTR_TRANSFER) ? HAL_XSPI_DQS_ENABLE : HAL_XSPI_DQS_DISAB
 1949              		.loc 1 842 66 is_stmt 0 view .LVU667
 1950 00ea 012D     		cmp	r5, #1
 1951 00ec 0CD0     		beq	.L124
 836:STM32Cube_FW_N6/Drivers/BSP/Components/mx66uw1g45g/mx66uw1g45g.c ****   s_command.DummyCycles = (Mode == MX66UW1G45G_SPI_MODE)
 1952              		.loc 1 836 89 view .LVU668
 1953 00ee 2346     		mov	r3, r4
 835:STM32Cube_FW_N6/Drivers/BSP/Components/mx66uw1g45g/mx66uw1g45g.c ****   s_command.DataDTRMode = (Rate == MX66UW1G45G_DTR_TRANSFER) ? HAL_XSPI_DATA_DTR_ENABLE : HAL_XSPI_
 1954              		.loc 1 835 78 discriminator 1 view .LVU669
 1955 00f0 4FF08070 		mov	r0, #16777216
 1956 00f4 C7E7     		b	.L125
 1957              	.L123:
 836:STM32Cube_FW_N6/Drivers/BSP/Components/mx66uw1g45g/mx66uw1g45g.c ****   s_command.DummyCycles = (Mode == MX66UW1G45G_SPI_MODE)
 1958              		.loc 1 836 89 view .LVU670
 1959 00f6 4FF00063 		mov	r3, #134217728
 835:STM32Cube_FW_N6/Drivers/BSP/Components/mx66uw1g45g/mx66uw1g45g.c ****   s_command.DataDTRMode = (Rate == MX66UW1G45G_DTR_TRANSFER) ? HAL_XSPI_DATA_DTR_ENABLE : HAL_XSPI_
 1960              		.loc 1 835 78 discriminator 2 view .LVU671
 1961 00fa 4FF08060 		mov	r0, #67108864
 1962 00fe 0524     		movs	r4, #5
 1963              	.L126:
 842:STM32Cube_FW_N6/Drivers/BSP/Components/mx66uw1g45g/mx66uw1g45g.c ****   s_command.DQSMode = (Rate == MX66UW1G45G_DTR_TRANSFER) ? HAL_XSPI_DQS_ENABLE : HAL_XSPI_DQS_DISAB
 1964              		.loc 1 842 24 discriminator 4 view .LVU672
 1965 0100 0221     		movs	r1, #2
 843:STM32Cube_FW_N6/Drivers/BSP/Components/mx66uw1g45g/mx66uw1g45g.c **** 
 1966              		.loc 1 843 80 discriminator 1 view .LVU673
 1967 0102 4FF00052 		mov	r2, #536870912
 1968 0106 C0E7     		b	.L119
 1969              	.L124:
 836:STM32Cube_FW_N6/Drivers/BSP/Components/mx66uw1g45g/mx66uw1g45g.c ****   s_command.DummyCycles = (Mode == MX66UW1G45G_SPI_MODE)
 1970              		.loc 1 836 89 view .LVU674
 1971 0108 4FF00063 		mov	r3, #134217728
 835:STM32Cube_FW_N6/Drivers/BSP/Components/mx66uw1g45g/mx66uw1g45g.c ****   s_command.DataDTRMode = (Rate == MX66UW1G45G_DTR_TRANSFER) ? HAL_XSPI_DATA_DTR_ENABLE : HAL_XSPI_
 1972              		.loc 1 835 78 discriminator 1 view .LVU675
 1973 010c 4FF08070 		mov	r0, #16777216
 1974 0110 F6E7     		b	.L126
 1975              		.cfi_endproc
 1976              	.LFE874:
 1978              		.section	.text.MX66UW1G45G_WriteDisable,"ax",%progbits
 1979              		.align	1
 1980              		.global	MX66UW1G45G_WriteDisable
 1981              		.syntax unified
 1982              		.thumb
 1983              		.thumb_func
 1985              	MX66UW1G45G_WriteDisable:
ARM GAS  C:\Users\DJESSOU\AppData\Local\Temp\ccAx4BcF.s 			page 58


 1986              	.LVL106:
 1987              	.LFB875:
 864:STM32Cube_FW_N6/Drivers/BSP/Components/mx66uw1g45g/mx66uw1g45g.c **** 
 865:STM32Cube_FW_N6/Drivers/BSP/Components/mx66uw1g45g/mx66uw1g45g.c **** /**
 866:STM32Cube_FW_N6/Drivers/BSP/Components/mx66uw1g45g/mx66uw1g45g.c ****   * @brief  This function reset the (WEN) Write Enable Latch bit.
 867:STM32Cube_FW_N6/Drivers/BSP/Components/mx66uw1g45g/mx66uw1g45g.c ****   *         SPI/OPI
 868:STM32Cube_FW_N6/Drivers/BSP/Components/mx66uw1g45g/mx66uw1g45g.c ****   * @param  Ctx Component object pointer
 869:STM32Cube_FW_N6/Drivers/BSP/Components/mx66uw1g45g/mx66uw1g45g.c ****   * @param  Mode Interface mode
 870:STM32Cube_FW_N6/Drivers/BSP/Components/mx66uw1g45g/mx66uw1g45g.c ****   * @param  Rate Transfer rate STR or DTR
 871:STM32Cube_FW_N6/Drivers/BSP/Components/mx66uw1g45g/mx66uw1g45g.c ****   * @retval error status
 872:STM32Cube_FW_N6/Drivers/BSP/Components/mx66uw1g45g/mx66uw1g45g.c ****   */
 873:STM32Cube_FW_N6/Drivers/BSP/Components/mx66uw1g45g/mx66uw1g45g.c **** int32_t MX66UW1G45G_WriteDisable(XSPI_HandleTypeDef *Ctx, MX66UW1G45G_Interface_t Mode, MX66UW1G45G
 874:STM32Cube_FW_N6/Drivers/BSP/Components/mx66uw1g45g/mx66uw1g45g.c **** {
 1988              		.loc 1 874 1 is_stmt 1 view -0
 1989              		.cfi_startproc
 1990              		@ args = 0, pretend = 0, frame = 80
 1991              		@ frame_needed = 0, uses_anonymous_args = 0
 875:STM32Cube_FW_N6/Drivers/BSP/Components/mx66uw1g45g/mx66uw1g45g.c ****   XSPI_RegularCmdTypeDef s_command = {0};
 1992              		.loc 1 875 3 view .LVU677
 874:STM32Cube_FW_N6/Drivers/BSP/Components/mx66uw1g45g/mx66uw1g45g.c ****   XSPI_RegularCmdTypeDef s_command = {0};
 1993              		.loc 1 874 1 is_stmt 0 view .LVU678
 1994 0000 70B5     		push	{r4, r5, r6, lr}
 1995              		.cfi_def_cfa_offset 16
 1996              		.cfi_offset 4, -16
 1997              		.cfi_offset 5, -12
 1998              		.cfi_offset 6, -8
 1999              		.cfi_offset 14, -4
 2000 0002 0D46     		mov	r5, r1
 2001 0004 94B0     		sub	sp, sp, #80
 2002              		.cfi_def_cfa_offset 96
 874:STM32Cube_FW_N6/Drivers/BSP/Components/mx66uw1g45g/mx66uw1g45g.c ****   XSPI_RegularCmdTypeDef s_command = {0};
 2003              		.loc 1 874 1 view .LVU679
 2004 0006 0646     		mov	r6, r0
 2005 0008 1446     		mov	r4, r2
 2006              		.loc 1 875 26 view .LVU680
 2007 000a 0021     		movs	r1, #0
 2008              	.LVL107:
 2009              		.loc 1 875 26 view .LVU681
 2010 000c 4C22     		movs	r2, #76
 2011              	.LVL108:
 2012              		.loc 1 875 26 view .LVU682
 2013 000e 01A8     		add	r0, sp, #4
 2014              	.LVL109:
 2015              		.loc 1 875 26 view .LVU683
 2016 0010 FFF7FEFF 		bl	memset
 2017              	.LVL110:
 876:STM32Cube_FW_N6/Drivers/BSP/Components/mx66uw1g45g/mx66uw1g45g.c **** 
 877:STM32Cube_FW_N6/Drivers/BSP/Components/mx66uw1g45g/mx66uw1g45g.c ****   /* SPI mode and DTR transfer not supported by memory */
 878:STM32Cube_FW_N6/Drivers/BSP/Components/mx66uw1g45g/mx66uw1g45g.c ****   if ((Mode == MX66UW1G45G_SPI_MODE) && (Rate == MX66UW1G45G_DTR_TRANSFER))
 2018              		.loc 1 878 3 is_stmt 1 view .LVU684
 2019              		.loc 1 878 6 is_stmt 0 view .LVU685
 2020 0014 BDB9     		cbnz	r5, .L128
 2021              		.loc 1 878 38 discriminator 1 view .LVU686
 2022 0016 012C     		cmp	r4, #1
 2023 0018 1DD0     		beq	.L132
 2024 001a 0123     		movs	r3, #1
 879:STM32Cube_FW_N6/Drivers/BSP/Components/mx66uw1g45g/mx66uw1g45g.c ****   {
ARM GAS  C:\Users\DJESSOU\AppData\Local\Temp\ccAx4BcF.s 			page 59


 880:STM32Cube_FW_N6/Drivers/BSP/Components/mx66uw1g45g/mx66uw1g45g.c ****     return MX66UW1G45G_ERROR;
 881:STM32Cube_FW_N6/Drivers/BSP/Components/mx66uw1g45g/mx66uw1g45g.c ****   }
 882:STM32Cube_FW_N6/Drivers/BSP/Components/mx66uw1g45g/mx66uw1g45g.c **** 
 883:STM32Cube_FW_N6/Drivers/BSP/Components/mx66uw1g45g/mx66uw1g45g.c ****   /* Initialize the write disable command */
 884:STM32Cube_FW_N6/Drivers/BSP/Components/mx66uw1g45g/mx66uw1g45g.c ****   s_command.OperationType = HAL_XSPI_OPTYPE_COMMON_CFG;
 885:STM32Cube_FW_N6/Drivers/BSP/Components/mx66uw1g45g/mx66uw1g45g.c ****   s_command.InstructionMode = (Mode == MX66UW1G45G_SPI_MODE)
 886:STM32Cube_FW_N6/Drivers/BSP/Components/mx66uw1g45g/mx66uw1g45g.c ****                                   ? HAL_XSPI_INSTRUCTION_1_LINE
 887:STM32Cube_FW_N6/Drivers/BSP/Components/mx66uw1g45g/mx66uw1g45g.c ****                                   : HAL_XSPI_INSTRUCTION_8_LINES;
 888:STM32Cube_FW_N6/Drivers/BSP/Components/mx66uw1g45g/mx66uw1g45g.c ****   s_command.InstructionDTRMode = (Rate == MX66UW1G45G_DTR_TRANSFER)
 889:STM32Cube_FW_N6/Drivers/BSP/Components/mx66uw1g45g/mx66uw1g45g.c ****                                      ? HAL_XSPI_INSTRUCTION_DTR_ENABLE
 890:STM32Cube_FW_N6/Drivers/BSP/Components/mx66uw1g45g/mx66uw1g45g.c ****                                      : HAL_XSPI_INSTRUCTION_DTR_DISABLE;
 2025              		.loc 1 890 38 discriminator 2 view .LVU687
 2026 001c 2C46     		mov	r4, r5
 2027              	.LVL111:
 2028              	.L130:
 885:STM32Cube_FW_N6/Drivers/BSP/Components/mx66uw1g45g/mx66uw1g45g.c ****                                   ? HAL_XSPI_INSTRUCTION_1_LINE
 2029              		.loc 1 885 29 view .LVU688
 2030 001e 0493     		str	r3, [sp, #16]
 888:STM32Cube_FW_N6/Drivers/BSP/Components/mx66uw1g45g/mx66uw1g45g.c ****                                      ? HAL_XSPI_INSTRUCTION_DTR_ENABLE
 2031              		.loc 1 888 32 view .LVU689
 2032 0020 0694     		str	r4, [sp, #24]
 891:STM32Cube_FW_N6/Drivers/BSP/Components/mx66uw1g45g/mx66uw1g45g.c ****   s_command.InstructionWidth = (Mode == MX66UW1G45G_SPI_MODE)
 2033              		.loc 1 891 3 is_stmt 1 view .LVU690
 892:STM32Cube_FW_N6/Drivers/BSP/Components/mx66uw1g45g/mx66uw1g45g.c ****                                    ? HAL_XSPI_INSTRUCTION_8_BITS
 893:STM32Cube_FW_N6/Drivers/BSP/Components/mx66uw1g45g/mx66uw1g45g.c ****                                    : HAL_XSPI_INSTRUCTION_16_BITS;
 2034              		.loc 1 893 36 is_stmt 0 view .LVU691
 2035 0022 B5B1     		cbz	r5, .L133
 891:STM32Cube_FW_N6/Drivers/BSP/Components/mx66uw1g45g/mx66uw1g45g.c ****   s_command.InstructionWidth = (Mode == MX66UW1G45G_SPI_MODE)
 2036              		.loc 1 891 30 view .LVU692
 2037 0024 1023     		movs	r3, #16
 2038 0026 0593     		str	r3, [sp, #20]
 894:STM32Cube_FW_N6/Drivers/BSP/Components/mx66uw1g45g/mx66uw1g45g.c ****   s_command.Instruction = (Mode == MX66UW1G45G_SPI_MODE)
 2039              		.loc 1 894 3 is_stmt 1 view .LVU693
 895:STM32Cube_FW_N6/Drivers/BSP/Components/mx66uw1g45g/mx66uw1g45g.c ****                               ? MX66UW1G45G_WRITE_DISABLE_CMD
 896:STM32Cube_FW_N6/Drivers/BSP/Components/mx66uw1g45g/mx66uw1g45g.c ****                               : MX66UW1G45G_OCTA_WRITE_DISABLE_CMD;
 2040              		.loc 1 896 31 is_stmt 0 discriminator 2 view .LVU694
 2041 0028 40F2FB43 		movw	r3, #1275
 2042              	.L131:
 897:STM32Cube_FW_N6/Drivers/BSP/Components/mx66uw1g45g/mx66uw1g45g.c ****   s_command.AddressMode = HAL_XSPI_ADDRESS_NONE;
 898:STM32Cube_FW_N6/Drivers/BSP/Components/mx66uw1g45g/mx66uw1g45g.c ****   s_command.AlternateBytesMode = HAL_XSPI_ALT_BYTES_NONE;
 899:STM32Cube_FW_N6/Drivers/BSP/Components/mx66uw1g45g/mx66uw1g45g.c ****   s_command.DataMode = HAL_XSPI_DATA_NONE;
 900:STM32Cube_FW_N6/Drivers/BSP/Components/mx66uw1g45g/mx66uw1g45g.c ****   s_command.DummyCycles = 0U;
 901:STM32Cube_FW_N6/Drivers/BSP/Components/mx66uw1g45g/mx66uw1g45g.c ****   s_command.DQSMode = HAL_XSPI_DQS_DISABLE;
 902:STM32Cube_FW_N6/Drivers/BSP/Components/mx66uw1g45g/mx66uw1g45g.c ****  #if defined (XSPI_CCR_SIOO)
 903:STM32Cube_FW_N6/Drivers/BSP/Components/mx66uw1g45g/mx66uw1g45g.c ****   s_command.SIOOMode            = HAL_XSPI_SIOO_INST_EVERY_CMD;
 904:STM32Cube_FW_N6/Drivers/BSP/Components/mx66uw1g45g/mx66uw1g45g.c ****  #endif
 905:STM32Cube_FW_N6/Drivers/BSP/Components/mx66uw1g45g/mx66uw1g45g.c **** 
 906:STM32Cube_FW_N6/Drivers/BSP/Components/mx66uw1g45g/mx66uw1g45g.c ****   /* Send the command */
 907:STM32Cube_FW_N6/Drivers/BSP/Components/mx66uw1g45g/mx66uw1g45g.c ****   if (HAL_XSPI_Command(Ctx, &s_command, HAL_XSPI_TIMEOUT_DEFAULT_VALUE) != HAL_OK)
 2043              		.loc 1 907 7 view .LVU695
 2044 002c 41F28832 		movw	r2, #5000
 2045 0030 3046     		mov	r0, r6
 2046 0032 01A9     		add	r1, sp, #4
 894:STM32Cube_FW_N6/Drivers/BSP/Components/mx66uw1g45g/mx66uw1g45g.c ****                               ? MX66UW1G45G_WRITE_DISABLE_CMD
 2047              		.loc 1 894 25 view .LVU696
 2048 0034 0393     		str	r3, [sp, #12]
 897:STM32Cube_FW_N6/Drivers/BSP/Components/mx66uw1g45g/mx66uw1g45g.c ****   s_command.AddressMode = HAL_XSPI_ADDRESS_NONE;
ARM GAS  C:\Users\DJESSOU\AppData\Local\Temp\ccAx4BcF.s 			page 60


 2049              		.loc 1 897 3 is_stmt 1 view .LVU697
 898:STM32Cube_FW_N6/Drivers/BSP/Components/mx66uw1g45g/mx66uw1g45g.c ****   s_command.DataMode = HAL_XSPI_DATA_NONE;
 2050              		.loc 1 898 3 view .LVU698
 899:STM32Cube_FW_N6/Drivers/BSP/Components/mx66uw1g45g/mx66uw1g45g.c ****   s_command.DummyCycles = 0U;
 2051              		.loc 1 899 3 view .LVU699
 900:STM32Cube_FW_N6/Drivers/BSP/Components/mx66uw1g45g/mx66uw1g45g.c ****   s_command.DQSMode = HAL_XSPI_DQS_DISABLE;
 2052              		.loc 1 900 3 view .LVU700
 901:STM32Cube_FW_N6/Drivers/BSP/Components/mx66uw1g45g/mx66uw1g45g.c ****  #if defined (XSPI_CCR_SIOO)
 2053              		.loc 1 901 3 view .LVU701
 2054              		.loc 1 907 3 view .LVU702
 2055              		.loc 1 907 7 is_stmt 0 view .LVU703
 2056 0036 FFF7FEFF 		bl	HAL_XSPI_Command
 2057              	.LVL112:
 2058              		.loc 1 907 6 discriminator 1 view .LVU704
 2059 003a 0038     		subs	r0, r0, #0
 2060 003c 18BF     		it	ne
 2061 003e 0120     		movne	r0, #1
 2062 0040 4042     		rsbs	r0, r0, #0
 2063              	.L127:
 908:STM32Cube_FW_N6/Drivers/BSP/Components/mx66uw1g45g/mx66uw1g45g.c ****   {
 909:STM32Cube_FW_N6/Drivers/BSP/Components/mx66uw1g45g/mx66uw1g45g.c ****     return MX66UW1G45G_ERROR;
 910:STM32Cube_FW_N6/Drivers/BSP/Components/mx66uw1g45g/mx66uw1g45g.c ****   }
 911:STM32Cube_FW_N6/Drivers/BSP/Components/mx66uw1g45g/mx66uw1g45g.c **** 
 912:STM32Cube_FW_N6/Drivers/BSP/Components/mx66uw1g45g/mx66uw1g45g.c ****   return MX66UW1G45G_OK;
 913:STM32Cube_FW_N6/Drivers/BSP/Components/mx66uw1g45g/mx66uw1g45g.c **** }
 2064              		.loc 1 913 1 view .LVU705
 2065 0042 14B0     		add	sp, sp, #80
 2066              		.cfi_remember_state
 2067              		.cfi_def_cfa_offset 16
 2068              		@ sp needed
 2069 0044 70BD     		pop	{r4, r5, r6, pc}
 2070              	.LVL113:
 2071              	.L128:
 2072              		.cfi_restore_state
 888:STM32Cube_FW_N6/Drivers/BSP/Components/mx66uw1g45g/mx66uw1g45g.c ****                                      ? HAL_XSPI_INSTRUCTION_DTR_ENABLE
 2073              		.loc 1 888 3 is_stmt 1 view .LVU706
 890:STM32Cube_FW_N6/Drivers/BSP/Components/mx66uw1g45g/mx66uw1g45g.c ****   s_command.InstructionWidth = (Mode == MX66UW1G45G_SPI_MODE)
 2074              		.loc 1 890 38 is_stmt 0 view .LVU707
 2075 0046 631E     		subs	r3, r4, #1
 2076 0048 5C42     		rsbs	r4, r3, #0
 2077 004a 5C41     		adcs	r4, r4, r3
 2078 004c E400     		lsls	r4, r4, #3
 2079 004e 0423     		movs	r3, #4
 2080 0050 E5E7     		b	.L130
 2081              	.L133:
 896:STM32Cube_FW_N6/Drivers/BSP/Components/mx66uw1g45g/mx66uw1g45g.c ****   s_command.AddressMode = HAL_XSPI_ADDRESS_NONE;
 2082              		.loc 1 896 31 discriminator 1 view .LVU708
 2083 0052 0423     		movs	r3, #4
 2084 0054 EAE7     		b	.L131
 2085              	.L132:
 880:STM32Cube_FW_N6/Drivers/BSP/Components/mx66uw1g45g/mx66uw1g45g.c ****   }
 2086              		.loc 1 880 12 view .LVU709
 2087 0056 4FF0FF30 		mov	r0, #-1
 2088 005a F2E7     		b	.L127
 2089              		.cfi_endproc
 2090              	.LFE875:
 2092              		.section	.text.MX66UW1G45G_ReadStatusRegister,"ax",%progbits
ARM GAS  C:\Users\DJESSOU\AppData\Local\Temp\ccAx4BcF.s 			page 61


 2093              		.align	1
 2094              		.global	MX66UW1G45G_ReadStatusRegister
