ARM GAS  C:\Users\DJESSOU\AppData\Local\Temp\ccj5Kmgq.s 			page 1


   1              		.arch armv8.1-m.main
   2              		.fpu fpv5-d16
   3              		.arch_extension dsp
   4              		.arch_extension fp
   5              		.arch_extension fp.dp
   6              		.arch_extension mve
   7              		.arch_extension mve.fp
   8              		.eabi_attribute 5, "cortex-m55"
   9              		.eabi_attribute 28, 1
  10              		.eabi_attribute 20, 1
  11              		.eabi_attribute 21, 1
  12              		.eabi_attribute 23, 3
  13              		.eabi_attribute 24, 1
  14              		.eabi_attribute 25, 1
  15              		.eabi_attribute 26, 1
  16              		.eabi_attribute 30, 4
  17              		.eabi_attribute 34, 1
  18              		.eabi_attribute 38, 1
  19              		.eabi_attribute 18, 4
  20              		.file	"pd_pp_model.c"
  21              		.text
  22              	.Ltext0:
  23              		.cfi_sections	.debug_frame
  24              		.file 1 "Lib/lib_vision_models_pp/lib_vision_models_pp/Src/pd_pp_model.c"
  25              		.section	.text.pd_pp_nms_comparator,"ax",%progbits
  26              		.align	1
  27              		.syntax unified
  28              		.thumb
  29              		.thumb_func
  31              	pd_pp_nms_comparator:
  32              	.LVL0:
  33              	.LFB2671:
   1:Lib/lib_vision_models_pp/lib_vision_models_pp/Src/pd_pp_model.c **** /**
   2:Lib/lib_vision_models_pp/lib_vision_models_pp/Src/pd_pp_model.c ****   ******************************************************************************
   3:Lib/lib_vision_models_pp/lib_vision_models_pp/Src/pd_pp_model.c ****   * @file    pd_pp_model.c
   4:Lib/lib_vision_models_pp/lib_vision_models_pp/Src/pd_pp_model.c ****   * @author  MDG Application Team
   5:Lib/lib_vision_models_pp/lib_vision_models_pp/Src/pd_pp_model.c ****   ******************************************************************************
   6:Lib/lib_vision_models_pp/lib_vision_models_pp/Src/pd_pp_model.c ****   * @attention
   7:Lib/lib_vision_models_pp/lib_vision_models_pp/Src/pd_pp_model.c ****   *
   8:Lib/lib_vision_models_pp/lib_vision_models_pp/Src/pd_pp_model.c ****   * Copyright (c) 2024 STMicroelectronics.
   9:Lib/lib_vision_models_pp/lib_vision_models_pp/Src/pd_pp_model.c ****   * All rights reserved.
  10:Lib/lib_vision_models_pp/lib_vision_models_pp/Src/pd_pp_model.c ****   *
  11:Lib/lib_vision_models_pp/lib_vision_models_pp/Src/pd_pp_model.c ****   * This software is licensed under terms that can be found in the LICENSE file
  12:Lib/lib_vision_models_pp/lib_vision_models_pp/Src/pd_pp_model.c ****   * in the root directory of this software component.
  13:Lib/lib_vision_models_pp/lib_vision_models_pp/Src/pd_pp_model.c ****   * If no LICENSE file comes with this software, it is provided AS-IS.
  14:Lib/lib_vision_models_pp/lib_vision_models_pp/Src/pd_pp_model.c ****   *
  15:Lib/lib_vision_models_pp/lib_vision_models_pp/Src/pd_pp_model.c ****   ******************************************************************************
  16:Lib/lib_vision_models_pp/lib_vision_models_pp/Src/pd_pp_model.c ****   */
  17:Lib/lib_vision_models_pp/lib_vision_models_pp/Src/pd_pp_model.c **** 
  18:Lib/lib_vision_models_pp/lib_vision_models_pp/Src/pd_pp_model.c **** #include "pd_model_pp_if.h"
  19:Lib/lib_vision_models_pp/lib_vision_models_pp/Src/pd_pp_model.c **** #include "vision_models_pp.h"
  20:Lib/lib_vision_models_pp/lib_vision_models_pp/Src/pd_pp_model.c **** #include "pd_pp_loc.h"
  21:Lib/lib_vision_models_pp/lib_vision_models_pp/Src/pd_pp_model.c **** 
  22:Lib/lib_vision_models_pp/lib_vision_models_pp/Src/pd_pp_model.c **** 
  23:Lib/lib_vision_models_pp/lib_vision_models_pp/Src/pd_pp_model.c **** static int32_t pd_pp_nms_comparator(const void *arg1, const void *arg2)
  24:Lib/lib_vision_models_pp/lib_vision_models_pp/Src/pd_pp_model.c **** {
  34              		.loc 1 24 1 view -0
ARM GAS  C:\Users\DJESSOU\AppData\Local\Temp\ccj5Kmgq.s 			page 2


  35              		.cfi_startproc
  36              		@ args = 0, pretend = 0, frame = 0
  37              		@ frame_needed = 0, uses_anonymous_args = 0
  38              		@ link register save eliminated.
  25:Lib/lib_vision_models_pp/lib_vision_models_pp/Src/pd_pp_model.c ****   const pd_pp_box_t *box1 = arg1;
  39              		.loc 1 25 3 view .LVU1
  26:Lib/lib_vision_models_pp/lib_vision_models_pp/Src/pd_pp_model.c ****   const pd_pp_box_t *box2 = arg2;
  40              		.loc 1 26 3 view .LVU2
  27:Lib/lib_vision_models_pp/lib_vision_models_pp/Src/pd_pp_model.c **** 
  28:Lib/lib_vision_models_pp/lib_vision_models_pp/Src/pd_pp_model.c ****   if (box1->prob < box2->prob)
  41              		.loc 1 28 3 view .LVU3
  42              		.loc 1 28 11 is_stmt 0 view .LVU4
  43 0000 90ED007A 		vldr.32	s14, [r0]
  44              		.loc 1 28 24 view .LVU5
  45 0004 D1ED007A 		vldr.32	s15, [r1]
  46              		.loc 1 28 6 view .LVU6
  47 0008 B4EEE77A 		vcmpe.f32	s14, s15
  48 000c F1EE10FA 		vmrs	APSR_nzcv, FPSCR
  29:Lib/lib_vision_models_pp/lib_vision_models_pp/Src/pd_pp_model.c ****     return 1;
  30:Lib/lib_vision_models_pp/lib_vision_models_pp/Src/pd_pp_model.c **** 
  31:Lib/lib_vision_models_pp/lib_vision_models_pp/Src/pd_pp_model.c ****   if (box1->prob > box2->prob)
  49              		.loc 1 31 6 view .LVU7
  50 0010 B4EE677A 		vcmp.f32	s14, s15
  51 0014 CCBF     		ite	gt
  52 0016 4FF0FF30 		movgt	r0, #-1
  53              	.LVL1:
  54              		.loc 1 31 6 view .LVU8
  55 001a 0020     		movle	r0, #0
  56 001c F1EE10FA 		vmrs	APSR_nzcv, FPSCR
  32:Lib/lib_vision_models_pp/lib_vision_models_pp/Src/pd_pp_model.c ****     return -1;
  33:Lib/lib_vision_models_pp/lib_vision_models_pp/Src/pd_pp_model.c **** 
  34:Lib/lib_vision_models_pp/lib_vision_models_pp/Src/pd_pp_model.c ****   return 0;
  35:Lib/lib_vision_models_pp/lib_vision_models_pp/Src/pd_pp_model.c **** }
  57              		.loc 1 35 1 view .LVU9
  58 0020 48BF     		it	mi
  59 0022 0120     		movmi	r0, #1
  60 0024 7047     		bx	lr
  61              		.cfi_endproc
  62              	.LFE2671:
  64              		.section	.text.pd_pp_nms.isra.0,"ax",%progbits
  65              		.align	1
  66              		.syntax unified
  67              		.thumb
  68              		.thumb_func
  70              	pd_pp_nms.isra.0:
  71              	.LVL2:
  72              	.LFB2680:
  36:Lib/lib_vision_models_pp/lib_vision_models_pp/Src/pd_pp_model.c **** 
  37:Lib/lib_vision_models_pp/lib_vision_models_pp/Src/pd_pp_model.c **** static void pd_pp_compute_opposite_corners_from_box(pd_pp_box_t *box, pd_pp_point_t corners[2])
  38:Lib/lib_vision_models_pp/lib_vision_models_pp/Src/pd_pp_model.c **** {
  39:Lib/lib_vision_models_pp/lib_vision_models_pp/Src/pd_pp_model.c ****   corners[0].x = box->x_center - box->width / 2;
  40:Lib/lib_vision_models_pp/lib_vision_models_pp/Src/pd_pp_model.c ****   corners[0].y = box->y_center - box->height / 2;
  41:Lib/lib_vision_models_pp/lib_vision_models_pp/Src/pd_pp_model.c ****   corners[1].x = box->x_center + box->width / 2;
  42:Lib/lib_vision_models_pp/lib_vision_models_pp/Src/pd_pp_model.c ****   corners[1].y = box->y_center + box->height / 2;
  43:Lib/lib_vision_models_pp/lib_vision_models_pp/Src/pd_pp_model.c **** }
  44:Lib/lib_vision_models_pp/lib_vision_models_pp/Src/pd_pp_model.c **** 
  45:Lib/lib_vision_models_pp/lib_vision_models_pp/Src/pd_pp_model.c **** static float pd_pp_compute_iou(pd_pp_box_t *box0, pd_pp_box_t *box1)
ARM GAS  C:\Users\DJESSOU\AppData\Local\Temp\ccj5Kmgq.s 			page 3


  46:Lib/lib_vision_models_pp/lib_vision_models_pp/Src/pd_pp_model.c **** {
  47:Lib/lib_vision_models_pp/lib_vision_models_pp/Src/pd_pp_model.c ****   pd_pp_point_t corners[2][2];
  48:Lib/lib_vision_models_pp/lib_vision_models_pp/Src/pd_pp_model.c ****   float32_t intersect_xmin;
  49:Lib/lib_vision_models_pp/lib_vision_models_pp/Src/pd_pp_model.c ****   float32_t intersect_ymin;
  50:Lib/lib_vision_models_pp/lib_vision_models_pp/Src/pd_pp_model.c ****   float32_t intersect_xmax;
  51:Lib/lib_vision_models_pp/lib_vision_models_pp/Src/pd_pp_model.c ****   float32_t intersect_ymax;
  52:Lib/lib_vision_models_pp/lib_vision_models_pp/Src/pd_pp_model.c ****   float32_t intersect_area;
  53:Lib/lib_vision_models_pp/lib_vision_models_pp/Src/pd_pp_model.c ****   float32_t area[2];
  54:Lib/lib_vision_models_pp/lib_vision_models_pp/Src/pd_pp_model.c ****   float32_t xmin[2];
  55:Lib/lib_vision_models_pp/lib_vision_models_pp/Src/pd_pp_model.c ****   float32_t xmax[2];
  56:Lib/lib_vision_models_pp/lib_vision_models_pp/Src/pd_pp_model.c ****   float32_t ymin[2];
  57:Lib/lib_vision_models_pp/lib_vision_models_pp/Src/pd_pp_model.c ****   float32_t ymax[2];
  58:Lib/lib_vision_models_pp/lib_vision_models_pp/Src/pd_pp_model.c ****   int i;
  59:Lib/lib_vision_models_pp/lib_vision_models_pp/Src/pd_pp_model.c **** 
  60:Lib/lib_vision_models_pp/lib_vision_models_pp/Src/pd_pp_model.c ****   pd_pp_compute_opposite_corners_from_box(box0, corners[0]);
  61:Lib/lib_vision_models_pp/lib_vision_models_pp/Src/pd_pp_model.c ****   pd_pp_compute_opposite_corners_from_box(box1, corners[1]);
  62:Lib/lib_vision_models_pp/lib_vision_models_pp/Src/pd_pp_model.c **** 
  63:Lib/lib_vision_models_pp/lib_vision_models_pp/Src/pd_pp_model.c ****   for (i = 0; i < 2; i++) {
  64:Lib/lib_vision_models_pp/lib_vision_models_pp/Src/pd_pp_model.c ****     xmin[i] = MIN(corners[i][0].x, corners[i][1].x);
  65:Lib/lib_vision_models_pp/lib_vision_models_pp/Src/pd_pp_model.c ****     xmax[i] = MAX(corners[i][0].x, corners[i][1].x);
  66:Lib/lib_vision_models_pp/lib_vision_models_pp/Src/pd_pp_model.c ****     ymin[i] = MIN(corners[i][0].y, corners[i][1].y);
  67:Lib/lib_vision_models_pp/lib_vision_models_pp/Src/pd_pp_model.c ****     ymax[i] = MAX(corners[i][0].y, corners[i][1].y);
  68:Lib/lib_vision_models_pp/lib_vision_models_pp/Src/pd_pp_model.c ****   }
  69:Lib/lib_vision_models_pp/lib_vision_models_pp/Src/pd_pp_model.c **** 
  70:Lib/lib_vision_models_pp/lib_vision_models_pp/Src/pd_pp_model.c ****   for (i = 0; i < 2; i++) {
  71:Lib/lib_vision_models_pp/lib_vision_models_pp/Src/pd_pp_model.c ****     area[i] = (ymax[i] - ymin[i]) * (xmax[i] - xmin[i]);
  72:Lib/lib_vision_models_pp/lib_vision_models_pp/Src/pd_pp_model.c ****   }
  73:Lib/lib_vision_models_pp/lib_vision_models_pp/Src/pd_pp_model.c ****   if (area[0] <= 0 || area[1] <= 0)
  74:Lib/lib_vision_models_pp/lib_vision_models_pp/Src/pd_pp_model.c ****     return 0;
  75:Lib/lib_vision_models_pp/lib_vision_models_pp/Src/pd_pp_model.c **** 
  76:Lib/lib_vision_models_pp/lib_vision_models_pp/Src/pd_pp_model.c ****   intersect_xmin = MAX(xmin[0], xmin[1]);
  77:Lib/lib_vision_models_pp/lib_vision_models_pp/Src/pd_pp_model.c ****   intersect_ymin = MAX(ymin[0], ymin[1]);
  78:Lib/lib_vision_models_pp/lib_vision_models_pp/Src/pd_pp_model.c ****   intersect_xmax = MIN(xmax[0], xmax[1]);
  79:Lib/lib_vision_models_pp/lib_vision_models_pp/Src/pd_pp_model.c ****   intersect_ymax = MIN(ymax[0], ymax[1]);
  80:Lib/lib_vision_models_pp/lib_vision_models_pp/Src/pd_pp_model.c **** 
  81:Lib/lib_vision_models_pp/lib_vision_models_pp/Src/pd_pp_model.c ****   intersect_area = MAX(intersect_ymax - intersect_ymin, 0.0f) * MAX(intersect_xmax - intersect_xmin
  82:Lib/lib_vision_models_pp/lib_vision_models_pp/Src/pd_pp_model.c **** 
  83:Lib/lib_vision_models_pp/lib_vision_models_pp/Src/pd_pp_model.c ****   return intersect_area / (area[0] + area[1] - intersect_area);
  84:Lib/lib_vision_models_pp/lib_vision_models_pp/Src/pd_pp_model.c **** }
  85:Lib/lib_vision_models_pp/lib_vision_models_pp/Src/pd_pp_model.c **** static int32_t pd_pp_decode(pd_model_pp_in_t *pInput,
  86:Lib/lib_vision_models_pp/lib_vision_models_pp/Src/pd_pp_model.c ****                             pd_pp_out_t *pOutput,
  87:Lib/lib_vision_models_pp/lib_vision_models_pp/Src/pd_pp_model.c ****                             pd_model_pp_static_param_t *pInput_static_param) {
  88:Lib/lib_vision_models_pp/lib_vision_models_pp/Src/pd_pp_model.c **** 
  89:Lib/lib_vision_models_pp/lib_vision_models_pp/Src/pd_pp_model.c ****   pOutput->box_nb = 0;
  90:Lib/lib_vision_models_pp/lib_vision_models_pp/Src/pd_pp_model.c **** 
  91:Lib/lib_vision_models_pp/lib_vision_models_pp/Src/pd_pp_model.c ****   pd_pp_box_t *pBoxes = (pd_pp_box_t *)pOutput->pOutData;
  92:Lib/lib_vision_models_pp/lib_vision_models_pp/Src/pd_pp_model.c ****   float32_t width  = pInput_static_param->width;
  93:Lib/lib_vision_models_pp/lib_vision_models_pp/Src/pd_pp_model.c ****   float32_t height = pInput_static_param->height;
  94:Lib/lib_vision_models_pp/lib_vision_models_pp/Src/pd_pp_model.c ****   float32_t *pRawBoxes = (float32_t *)pInput->pBoxes;
  95:Lib/lib_vision_models_pp/lib_vision_models_pp/Src/pd_pp_model.c ****   float32_t *pRawProbs = (float32_t *)pInput->pProbs;
  96:Lib/lib_vision_models_pp/lib_vision_models_pp/Src/pd_pp_model.c ****   float32_t *pAnchors = (float32_t *)pInput_static_param->pAnchors;
  97:Lib/lib_vision_models_pp/lib_vision_models_pp/Src/pd_pp_model.c ****   const size_t in_struct_size = (2 * pInput_static_param->nb_keypoints) + AI_PD_MODEL_PP_KEYPOINTS;
  98:Lib/lib_vision_models_pp/lib_vision_models_pp/Src/pd_pp_model.c ****   size_t box_nb = 0;
  99:Lib/lib_vision_models_pp/lib_vision_models_pp/Src/pd_pp_model.c ****   float32_t computedThreshold = -logf( 1 / pInput_static_param->conf_threshold - 1);
 100:Lib/lib_vision_models_pp/lib_vision_models_pp/Src/pd_pp_model.c **** 
 101:Lib/lib_vision_models_pp/lib_vision_models_pp/Src/pd_pp_model.c ****   for (uint32_t i = 0; i < pInput_static_param->nb_total_boxes; i++) {
 102:Lib/lib_vision_models_pp/lib_vision_models_pp/Src/pd_pp_model.c ****     pd_pp_box_t *pBox = &pBoxes[box_nb]; //&pd_boxes[box_nb];
ARM GAS  C:\Users\DJESSOU\AppData\Local\Temp\ccj5Kmgq.s 			page 4


 103:Lib/lib_vision_models_pp/lib_vision_models_pp/Src/pd_pp_model.c **** 
 104:Lib/lib_vision_models_pp/lib_vision_models_pp/Src/pd_pp_model.c ****     /* decode prob */
 105:Lib/lib_vision_models_pp/lib_vision_models_pp/Src/pd_pp_model.c ****     if (pRawProbs[i] >= computedThreshold) {
 106:Lib/lib_vision_models_pp/lib_vision_models_pp/Src/pd_pp_model.c ****       pBox->prob = 1.0f / (1.0f + expf(-pRawProbs[i]));
 107:Lib/lib_vision_models_pp/lib_vision_models_pp/Src/pd_pp_model.c ****       /* decode palm box */
 108:Lib/lib_vision_models_pp/lib_vision_models_pp/Src/pd_pp_model.c ****       pBox->x_center = (pAnchors[i*2+0] * width  + pRawBoxes[i * in_struct_size + AI_PD_MODEL_PP_XC
 109:Lib/lib_vision_models_pp/lib_vision_models_pp/Src/pd_pp_model.c ****       pBox->y_center = (pAnchors[i*2+1] * height + pRawBoxes[i * in_struct_size + AI_PD_MODEL_PP_YC
 110:Lib/lib_vision_models_pp/lib_vision_models_pp/Src/pd_pp_model.c ****       pBox->width = pRawBoxes[i * in_struct_size + AI_PD_MODEL_PP_WIDTHREL]  / width;
 111:Lib/lib_vision_models_pp/lib_vision_models_pp/Src/pd_pp_model.c ****       pBox->height = pRawBoxes[i * in_struct_size + AI_PD_MODEL_PP_HEIGHTREL] / height;
 112:Lib/lib_vision_models_pp/lib_vision_models_pp/Src/pd_pp_model.c **** 
 113:Lib/lib_vision_models_pp/lib_vision_models_pp/Src/pd_pp_model.c ****       /* decode keypoints */
 114:Lib/lib_vision_models_pp/lib_vision_models_pp/Src/pd_pp_model.c ****       for (uint32_t j = 0; j < pInput_static_param->nb_keypoints; j++) {
 115:Lib/lib_vision_models_pp/lib_vision_models_pp/Src/pd_pp_model.c ****         pBox->pKps[j].x = (pAnchors[i*2+0] * width  + pRawBoxes[i * in_struct_size + AI_PD_MODEL_PP
 116:Lib/lib_vision_models_pp/lib_vision_models_pp/Src/pd_pp_model.c ****         pBox->pKps[j].y = (pAnchors[i*2+1] * height + pRawBoxes[i * in_struct_size + AI_PD_MODEL_PP
 117:Lib/lib_vision_models_pp/lib_vision_models_pp/Src/pd_pp_model.c ****      }
 118:Lib/lib_vision_models_pp/lib_vision_models_pp/Src/pd_pp_model.c **** 
 119:Lib/lib_vision_models_pp/lib_vision_models_pp/Src/pd_pp_model.c ****       box_nb++;
 120:Lib/lib_vision_models_pp/lib_vision_models_pp/Src/pd_pp_model.c ****       if (box_nb >= pInput_static_param->max_boxes_limit) {
 121:Lib/lib_vision_models_pp/lib_vision_models_pp/Src/pd_pp_model.c ****         break;
 122:Lib/lib_vision_models_pp/lib_vision_models_pp/Src/pd_pp_model.c ****       }
 123:Lib/lib_vision_models_pp/lib_vision_models_pp/Src/pd_pp_model.c ****     }
 124:Lib/lib_vision_models_pp/lib_vision_models_pp/Src/pd_pp_model.c ****   }
 125:Lib/lib_vision_models_pp/lib_vision_models_pp/Src/pd_pp_model.c **** 
 126:Lib/lib_vision_models_pp/lib_vision_models_pp/Src/pd_pp_model.c ****   pOutput->box_nb = box_nb;
 127:Lib/lib_vision_models_pp/lib_vision_models_pp/Src/pd_pp_model.c ****   return AI_PD_POSTPROCESS_ERROR_NO;
 128:Lib/lib_vision_models_pp/lib_vision_models_pp/Src/pd_pp_model.c **** }
 129:Lib/lib_vision_models_pp/lib_vision_models_pp/Src/pd_pp_model.c **** 
 130:Lib/lib_vision_models_pp/lib_vision_models_pp/Src/pd_pp_model.c **** static int32_t pd_pp_decode_int8(pd_model_pp_in_t *pInput,
 131:Lib/lib_vision_models_pp/lib_vision_models_pp/Src/pd_pp_model.c ****                             pd_pp_out_t *pOutput,
 132:Lib/lib_vision_models_pp/lib_vision_models_pp/Src/pd_pp_model.c ****                             pd_model_pp_static_param_t *pInput_static_param) {
 133:Lib/lib_vision_models_pp/lib_vision_models_pp/Src/pd_pp_model.c **** 
 134:Lib/lib_vision_models_pp/lib_vision_models_pp/Src/pd_pp_model.c ****   pOutput->box_nb = 0;
 135:Lib/lib_vision_models_pp/lib_vision_models_pp/Src/pd_pp_model.c **** 
 136:Lib/lib_vision_models_pp/lib_vision_models_pp/Src/pd_pp_model.c ****   pd_pp_box_t *pBoxes = (pd_pp_box_t *)pOutput->pOutData;
 137:Lib/lib_vision_models_pp/lib_vision_models_pp/Src/pd_pp_model.c ****   float32_t width  = pInput_static_param->width;
 138:Lib/lib_vision_models_pp/lib_vision_models_pp/Src/pd_pp_model.c ****   float32_t height = pInput_static_param->height;
 139:Lib/lib_vision_models_pp/lib_vision_models_pp/Src/pd_pp_model.c ****   int8_t *pRawBoxes = (int8_t *)pInput->pBoxes;
 140:Lib/lib_vision_models_pp/lib_vision_models_pp/Src/pd_pp_model.c ****   int8_t *pRawProbs = (int8_t *)pInput->pProbs;
 141:Lib/lib_vision_models_pp/lib_vision_models_pp/Src/pd_pp_model.c ****   float32_t *pAnchors  = (float32_t *)pInput_static_param->pAnchors;
 142:Lib/lib_vision_models_pp/lib_vision_models_pp/Src/pd_pp_model.c **** 
 143:Lib/lib_vision_models_pp/lib_vision_models_pp/Src/pd_pp_model.c ****   float32_t boxe_scale = pInput_static_param->boxe_scale;
 144:Lib/lib_vision_models_pp/lib_vision_models_pp/Src/pd_pp_model.c ****   float32_t proba_scale = pInput_static_param->proba_scale;
 145:Lib/lib_vision_models_pp/lib_vision_models_pp/Src/pd_pp_model.c ****   int8_t boxe_zp = pInput_static_param->boxe_zp;
 146:Lib/lib_vision_models_pp/lib_vision_models_pp/Src/pd_pp_model.c ****   int8_t proba_zp = pInput_static_param->proba_zp;
 147:Lib/lib_vision_models_pp/lib_vision_models_pp/Src/pd_pp_model.c **** 
 148:Lib/lib_vision_models_pp/lib_vision_models_pp/Src/pd_pp_model.c ****   const size_t in_struct_size = (2 * pInput_static_param->nb_keypoints) + AI_PD_MODEL_PP_KEYPOINTS;
 149:Lib/lib_vision_models_pp/lib_vision_models_pp/Src/pd_pp_model.c ****   size_t box_nb = 0;
 150:Lib/lib_vision_models_pp/lib_vision_models_pp/Src/pd_pp_model.c ****   float32_t computedThreshold = -logf( 1.0f / pInput_static_param->conf_threshold - 1);
 151:Lib/lib_vision_models_pp/lib_vision_models_pp/Src/pd_pp_model.c ****   int8_t threshold_s8  = (int8_t)(computedThreshold / proba_scale + 0.5f + proba_zp);
 152:Lib/lib_vision_models_pp/lib_vision_models_pp/Src/pd_pp_model.c **** 
 153:Lib/lib_vision_models_pp/lib_vision_models_pp/Src/pd_pp_model.c ****   for (uint32_t i = 0; i < pInput_static_param->nb_total_boxes; i++) {
 154:Lib/lib_vision_models_pp/lib_vision_models_pp/Src/pd_pp_model.c ****     pd_pp_box_t *pBox = &pBoxes[box_nb]; //&pd_boxes[box_nb];
 155:Lib/lib_vision_models_pp/lib_vision_models_pp/Src/pd_pp_model.c **** 
 156:Lib/lib_vision_models_pp/lib_vision_models_pp/Src/pd_pp_model.c ****     /* decode prob */
 157:Lib/lib_vision_models_pp/lib_vision_models_pp/Src/pd_pp_model.c ****     if (pRawProbs[i] >= threshold_s8) {
 158:Lib/lib_vision_models_pp/lib_vision_models_pp/Src/pd_pp_model.c ****       float32_t value = (float32_t)((int32_t)pRawProbs[i] - proba_zp) * proba_scale;
 159:Lib/lib_vision_models_pp/lib_vision_models_pp/Src/pd_pp_model.c ****       pBox->prob = 1.0f / (1.0f + expf(-value));
ARM GAS  C:\Users\DJESSOU\AppData\Local\Temp\ccj5Kmgq.s 			page 5


 160:Lib/lib_vision_models_pp/lib_vision_models_pp/Src/pd_pp_model.c ****       /* decode palm box */
 161:Lib/lib_vision_models_pp/lib_vision_models_pp/Src/pd_pp_model.c ****       float32_t anchor_x, anchor_y;
 162:Lib/lib_vision_models_pp/lib_vision_models_pp/Src/pd_pp_model.c **** 
 163:Lib/lib_vision_models_pp/lib_vision_models_pp/Src/pd_pp_model.c ****       value = (float32_t)((int32_t)pRawBoxes[i * in_struct_size + AI_PD_MODEL_PP_XCENTER] - boxe_zp
 164:Lib/lib_vision_models_pp/lib_vision_models_pp/Src/pd_pp_model.c ****       anchor_x = pAnchors[i*2+0];
 165:Lib/lib_vision_models_pp/lib_vision_models_pp/Src/pd_pp_model.c **** 
 166:Lib/lib_vision_models_pp/lib_vision_models_pp/Src/pd_pp_model.c ****       pBox->x_center = (anchor_x * width  + value) / width;
 167:Lib/lib_vision_models_pp/lib_vision_models_pp/Src/pd_pp_model.c **** 
 168:Lib/lib_vision_models_pp/lib_vision_models_pp/Src/pd_pp_model.c ****       value = (float32_t)((int32_t)pRawBoxes[i * in_struct_size + AI_PD_MODEL_PP_YCENTER] - boxe_zp
 169:Lib/lib_vision_models_pp/lib_vision_models_pp/Src/pd_pp_model.c ****       anchor_y = pAnchors[i*2+1];
 170:Lib/lib_vision_models_pp/lib_vision_models_pp/Src/pd_pp_model.c **** 
 171:Lib/lib_vision_models_pp/lib_vision_models_pp/Src/pd_pp_model.c ****       pBox->y_center = (anchor_y * height + value) / height;
 172:Lib/lib_vision_models_pp/lib_vision_models_pp/Src/pd_pp_model.c **** 
 173:Lib/lib_vision_models_pp/lib_vision_models_pp/Src/pd_pp_model.c ****       value = (float32_t)((int32_t)pRawBoxes[i * in_struct_size + AI_PD_MODEL_PP_WIDTHREL] - boxe_z
 174:Lib/lib_vision_models_pp/lib_vision_models_pp/Src/pd_pp_model.c ****       pBox->width = value  / width;
 175:Lib/lib_vision_models_pp/lib_vision_models_pp/Src/pd_pp_model.c **** 
 176:Lib/lib_vision_models_pp/lib_vision_models_pp/Src/pd_pp_model.c ****       value = (float32_t)((int32_t)pRawBoxes[i * in_struct_size + AI_PD_MODEL_PP_HEIGHTREL] - boxe_
 177:Lib/lib_vision_models_pp/lib_vision_models_pp/Src/pd_pp_model.c ****       pBox->height = value / height;
 178:Lib/lib_vision_models_pp/lib_vision_models_pp/Src/pd_pp_model.c **** 
 179:Lib/lib_vision_models_pp/lib_vision_models_pp/Src/pd_pp_model.c ****       /* decode keypoints */
 180:Lib/lib_vision_models_pp/lib_vision_models_pp/Src/pd_pp_model.c ****       for (uint32_t j = 0; j < pInput_static_param->nb_keypoints; j++) {
 181:Lib/lib_vision_models_pp/lib_vision_models_pp/Src/pd_pp_model.c ****         value = (float32_t)((int32_t)pRawBoxes[i * in_struct_size + AI_PD_MODEL_PP_KEYPOINTS + (2 *
 182:Lib/lib_vision_models_pp/lib_vision_models_pp/Src/pd_pp_model.c ****         pBox->pKps[j].x = (anchor_x * width  + value) / width;
 183:Lib/lib_vision_models_pp/lib_vision_models_pp/Src/pd_pp_model.c **** 
 184:Lib/lib_vision_models_pp/lib_vision_models_pp/Src/pd_pp_model.c ****         value = (float32_t)((int32_t)pRawBoxes[i * in_struct_size + AI_PD_MODEL_PP_KEYPOINTS + (2 *
 185:Lib/lib_vision_models_pp/lib_vision_models_pp/Src/pd_pp_model.c ****         pBox->pKps[j].y = (anchor_y * height + value) / height;
 186:Lib/lib_vision_models_pp/lib_vision_models_pp/Src/pd_pp_model.c ****       }
 187:Lib/lib_vision_models_pp/lib_vision_models_pp/Src/pd_pp_model.c **** 
 188:Lib/lib_vision_models_pp/lib_vision_models_pp/Src/pd_pp_model.c ****       box_nb++;
 189:Lib/lib_vision_models_pp/lib_vision_models_pp/Src/pd_pp_model.c ****       if (box_nb >= pInput_static_param->max_boxes_limit) {
 190:Lib/lib_vision_models_pp/lib_vision_models_pp/Src/pd_pp_model.c ****         break;
 191:Lib/lib_vision_models_pp/lib_vision_models_pp/Src/pd_pp_model.c ****       }
 192:Lib/lib_vision_models_pp/lib_vision_models_pp/Src/pd_pp_model.c ****     }
 193:Lib/lib_vision_models_pp/lib_vision_models_pp/Src/pd_pp_model.c ****   }
 194:Lib/lib_vision_models_pp/lib_vision_models_pp/Src/pd_pp_model.c **** 
 195:Lib/lib_vision_models_pp/lib_vision_models_pp/Src/pd_pp_model.c ****   pOutput->box_nb = box_nb;
 196:Lib/lib_vision_models_pp/lib_vision_models_pp/Src/pd_pp_model.c ****   return AI_PD_POSTPROCESS_ERROR_NO;
 197:Lib/lib_vision_models_pp/lib_vision_models_pp/Src/pd_pp_model.c **** }
 198:Lib/lib_vision_models_pp/lib_vision_models_pp/Src/pd_pp_model.c **** 
 199:Lib/lib_vision_models_pp/lib_vision_models_pp/Src/pd_pp_model.c **** static int pd_pp_nms(pd_pp_out_t *pOutput,
  73              		.loc 1 199 12 is_stmt 1 view -0
  74              		.cfi_startproc
  75              		@ args = 0, pretend = 0, frame = 64
  76              		@ frame_needed = 0, uses_anonymous_args = 0
 200:Lib/lib_vision_models_pp/lib_vision_models_pp/Src/pd_pp_model.c ****                      pd_model_pp_static_param_t *pInput_static_param)
 201:Lib/lib_vision_models_pp/lib_vision_models_pp/Src/pd_pp_model.c **** {
 202:Lib/lib_vision_models_pp/lib_vision_models_pp/Src/pd_pp_model.c ****   int hand_nb = 0;
  77              		.loc 1 202 3 view .LVU11
 203:Lib/lib_vision_models_pp/lib_vision_models_pp/Src/pd_pp_model.c ****   int skip_box;
  78              		.loc 1 203 3 view .LVU12
 204:Lib/lib_vision_models_pp/lib_vision_models_pp/Src/pd_pp_model.c ****   float iou;
  79              		.loc 1 204 3 view .LVU13
 205:Lib/lib_vision_models_pp/lib_vision_models_pp/Src/pd_pp_model.c ****   pd_pp_box_t *pd_boxes = (pd_pp_box_t *)pOutput->pOutData;
  80              		.loc 1 205 3 view .LVU14
 199:Lib/lib_vision_models_pp/lib_vision_models_pp/Src/pd_pp_model.c ****                      pd_model_pp_static_param_t *pInput_static_param)
  81              		.loc 1 199 12 is_stmt 0 view .LVU15
  82 0000 2DE9F04F 		push	{r4, r5, r6, r7, r8, r9, r10, fp, lr}
ARM GAS  C:\Users\DJESSOU\AppData\Local\Temp\ccj5Kmgq.s 			page 6


  83              		.cfi_def_cfa_offset 36
  84              		.cfi_offset 4, -36
  85              		.cfi_offset 5, -32
  86              		.cfi_offset 6, -28
  87              		.cfi_offset 7, -24
  88              		.cfi_offset 8, -20
  89              		.cfi_offset 9, -16
  90              		.cfi_offset 10, -12
  91              		.cfi_offset 11, -8
  92              		.cfi_offset 14, -4
 206:Lib/lib_vision_models_pp/lib_vision_models_pp/Src/pd_pp_model.c ****   size_t box_nb =  pOutput->box_nb;
  93              		.loc 1 206 10 view .LVU16
  94 0004 D0E90074 		ldrd	r7, r4, [r0]
  95              	.LVL3:
 207:Lib/lib_vision_models_pp/lib_vision_models_pp/Src/pd_pp_model.c **** 
 208:Lib/lib_vision_models_pp/lib_vision_models_pp/Src/pd_pp_model.c ****   /* first sort boxes by higher probability */
 209:Lib/lib_vision_models_pp/lib_vision_models_pp/Src/pd_pp_model.c ****   qsort(pd_boxes, box_nb, sizeof(pd_pp_box_t), pd_pp_nms_comparator);
  96              		.loc 1 209 3 is_stmt 1 view .LVU17
  97 0008 814B     		ldr	r3, .L42
 199:Lib/lib_vision_models_pp/lib_vision_models_pp/Src/pd_pp_model.c ****                      pd_model_pp_static_param_t *pInput_static_param)
  98              		.loc 1 199 12 is_stmt 0 view .LVU18
  99 000a 8846     		mov	r8, r1
 100              		.loc 1 209 3 view .LVU19
 101 000c 1822     		movs	r2, #24
 102 000e 2146     		mov	r1, r4
 103              	.LVL4:
 104              		.loc 1 209 3 view .LVU20
 105 0010 3846     		mov	r0, r7
 106              	.LVL5:
 199:Lib/lib_vision_models_pp/lib_vision_models_pp/Src/pd_pp_model.c ****                      pd_model_pp_static_param_t *pInput_static_param)
 107              		.loc 1 199 12 view .LVU21
 108 0012 91B0     		sub	sp, sp, #68
 109              		.cfi_def_cfa_offset 104
 110              		.loc 1 209 3 view .LVU22
 111 0014 FFF7FEFF 		bl	qsort
 112              	.LVL6:
 210:Lib/lib_vision_models_pp/lib_vision_models_pp/Src/pd_pp_model.c **** 
 211:Lib/lib_vision_models_pp/lib_vision_models_pp/Src/pd_pp_model.c ****   /* then apply iou to filter them */
 212:Lib/lib_vision_models_pp/lib_vision_models_pp/Src/pd_pp_model.c ****   for (size_t i = 0; i < box_nb; i++) {
 113              		.loc 1 212 3 is_stmt 1 view .LVU23
 114              	.LBB12:
 115              		.loc 1 212 8 view .LVU24
 116              		.loc 1 212 8 is_stmt 0 view .LVU25
 117 0018 1823     		movs	r3, #24
 118              		.loc 1 212 3 view .LVU26
 119 001a 3E46     		mov	r6, r7
 120              	.LBE12:
 202:Lib/lib_vision_models_pp/lib_vision_models_pp/Src/pd_pp_model.c ****   int skip_box;
 121              		.loc 1 202 7 view .LVU27
 122 001c 4FF0000C 		mov	ip, #0
 123              	.LBB45:
 124              	.LBB13:
 125              	.LBB14:
 126              	.LBB15:
 127              	.LBB16:
 128              	.LBB17:
  39:Lib/lib_vision_models_pp/lib_vision_models_pp/Src/pd_pp_model.c ****   corners[0].y = box->y_center - box->height / 2;
ARM GAS  C:\Users\DJESSOU\AppData\Local\Temp\ccj5Kmgq.s 			page 7


 129              		.loc 1 39 32 view .LVU28
 130 0020 F6EE006A 		vmov.f32	s13, #5.0e-1
 131              	.LBE17:
 132              	.LBE16:
  74:Lib/lib_vision_models_pp/lib_vision_models_pp/Src/pd_pp_model.c **** 
 133              		.loc 1 74 12 view .LVU29
 134 0024 9FED7B4A 		vldr.32	s8, .L42+4
 135 0028 03FB047E 		mla	lr, r3, r4, r7
 136              	.LVL7:
 137              	.L5:
  74:Lib/lib_vision_models_pp/lib_vision_models_pp/Src/pd_pp_model.c **** 
 138              		.loc 1 74 12 view .LVU30
 139              	.LBE15:
 140              	.LBE14:
 141              	.LBE13:
 142              		.loc 1 212 24 is_stmt 1 discriminator 1 view .LVU31
 143 002c 7645     		cmp	r6, lr
 144 002e 40F0EB80 		bne	.L31
 145              	.LBE45:
 213:Lib/lib_vision_models_pp/lib_vision_models_pp/Src/pd_pp_model.c ****     skip_box = 0;
 214:Lib/lib_vision_models_pp/lib_vision_models_pp/Src/pd_pp_model.c ****     for (int j = 0; j < hand_nb; j++) {
 215:Lib/lib_vision_models_pp/lib_vision_models_pp/Src/pd_pp_model.c ****       iou = pd_pp_compute_iou(&pd_boxes[i], &pd_boxes[j]);
 216:Lib/lib_vision_models_pp/lib_vision_models_pp/Src/pd_pp_model.c ****       if (iou >= pInput_static_param->iou_threshold) {
 217:Lib/lib_vision_models_pp/lib_vision_models_pp/Src/pd_pp_model.c ****         skip_box = 1;
 218:Lib/lib_vision_models_pp/lib_vision_models_pp/Src/pd_pp_model.c ****         break;
 219:Lib/lib_vision_models_pp/lib_vision_models_pp/Src/pd_pp_model.c ****       }
 220:Lib/lib_vision_models_pp/lib_vision_models_pp/Src/pd_pp_model.c ****     }
 221:Lib/lib_vision_models_pp/lib_vision_models_pp/Src/pd_pp_model.c ****     if (skip_box)
 222:Lib/lib_vision_models_pp/lib_vision_models_pp/Src/pd_pp_model.c ****       continue;
 223:Lib/lib_vision_models_pp/lib_vision_models_pp/Src/pd_pp_model.c **** 
 224:Lib/lib_vision_models_pp/lib_vision_models_pp/Src/pd_pp_model.c ****     pd_boxes[hand_nb++] = pd_boxes[i];
 225:Lib/lib_vision_models_pp/lib_vision_models_pp/Src/pd_pp_model.c ****   }
 226:Lib/lib_vision_models_pp/lib_vision_models_pp/Src/pd_pp_model.c **** 
 227:Lib/lib_vision_models_pp/lib_vision_models_pp/Src/pd_pp_model.c ****   return hand_nb;
 228:Lib/lib_vision_models_pp/lib_vision_models_pp/Src/pd_pp_model.c **** }
 146              		.loc 1 228 1 is_stmt 0 view .LVU32
 147 0032 11B0     		add	sp, sp, #68
 148              		.cfi_remember_state
 149              		.cfi_def_cfa_offset 36
 150              		@ sp needed
 151 0034 BDE8F08F 		pop	{r4, r5, r6, r7, r8, r9, r10, fp, pc}
 152              	.LVL8:
 153              	.L23:
 154              		.cfi_restore_state
 155              	.LBB46:
 156              	.LBB42:
 215:Lib/lib_vision_models_pp/lib_vision_models_pp/Src/pd_pp_model.c ****       if (iou >= pInput_static_param->iou_threshold) {
 157              		.loc 1 215 7 is_stmt 1 view .LVU33
 158              	.LBB40:
 159              	.LBI14:
  45:Lib/lib_vision_models_pp/lib_vision_models_pp/Src/pd_pp_model.c **** {
 160              		.loc 1 45 14 view .LVU34
 161              	.LBB38:
  47:Lib/lib_vision_models_pp/lib_vision_models_pp/Src/pd_pp_model.c ****   float32_t intersect_xmin;
 162              		.loc 1 47 3 view .LVU35
  48:Lib/lib_vision_models_pp/lib_vision_models_pp/Src/pd_pp_model.c ****   float32_t intersect_ymin;
 163              		.loc 1 48 3 view .LVU36
ARM GAS  C:\Users\DJESSOU\AppData\Local\Temp\ccj5Kmgq.s 			page 8


  49:Lib/lib_vision_models_pp/lib_vision_models_pp/Src/pd_pp_model.c ****   float32_t intersect_xmax;
 164              		.loc 1 49 3 view .LVU37
  50:Lib/lib_vision_models_pp/lib_vision_models_pp/Src/pd_pp_model.c ****   float32_t intersect_ymax;
 165              		.loc 1 50 3 view .LVU38
  51:Lib/lib_vision_models_pp/lib_vision_models_pp/Src/pd_pp_model.c ****   float32_t intersect_area;
 166              		.loc 1 51 3 view .LVU39
  52:Lib/lib_vision_models_pp/lib_vision_models_pp/Src/pd_pp_model.c ****   float32_t area[2];
 167              		.loc 1 52 3 view .LVU40
  53:Lib/lib_vision_models_pp/lib_vision_models_pp/Src/pd_pp_model.c ****   float32_t xmin[2];
 168              		.loc 1 53 3 view .LVU41
  54:Lib/lib_vision_models_pp/lib_vision_models_pp/Src/pd_pp_model.c ****   float32_t xmax[2];
 169              		.loc 1 54 3 view .LVU42
  55:Lib/lib_vision_models_pp/lib_vision_models_pp/Src/pd_pp_model.c ****   float32_t ymin[2];
 170              		.loc 1 55 3 view .LVU43
  56:Lib/lib_vision_models_pp/lib_vision_models_pp/Src/pd_pp_model.c ****   float32_t ymax[2];
 171              		.loc 1 56 3 view .LVU44
  57:Lib/lib_vision_models_pp/lib_vision_models_pp/Src/pd_pp_model.c ****   int i;
 172              		.loc 1 57 3 view .LVU45
  58:Lib/lib_vision_models_pp/lib_vision_models_pp/Src/pd_pp_model.c **** 
 173              		.loc 1 58 3 view .LVU46
  60:Lib/lib_vision_models_pp/lib_vision_models_pp/Src/pd_pp_model.c ****   pd_pp_compute_opposite_corners_from_box(box1, corners[1]);
 174              		.loc 1 60 3 view .LVU47
 175              	.LBB23:
 176              	.LBI16:
  37:Lib/lib_vision_models_pp/lib_vision_models_pp/Src/pd_pp_model.c **** {
 177              		.loc 1 37 13 view .LVU48
 178              	.LBB18:
  39:Lib/lib_vision_models_pp/lib_vision_models_pp/Src/pd_pp_model.c ****   corners[0].y = box->y_center - box->height / 2;
 179              		.loc 1 39 3 view .LVU49
  39:Lib/lib_vision_models_pp/lib_vision_models_pp/Src/pd_pp_model.c ****   corners[0].y = box->y_center - box->height / 2;
 180              		.loc 1 39 21 is_stmt 0 view .LVU50
 181 0038 96ED017A 		vldr.32	s14, [r6, #4]
  39:Lib/lib_vision_models_pp/lib_vision_models_pp/Src/pd_pp_model.c ****   corners[0].y = box->y_center - box->height / 2;
 182              		.loc 1 39 37 view .LVU51
 183 003c D6ED035A 		vldr.32	s11, [r6, #12]
  39:Lib/lib_vision_models_pp/lib_vision_models_pp/Src/pd_pp_model.c ****   corners[0].y = box->y_center - box->height / 2;
 184              		.loc 1 39 32 view .LVU52
 185 0040 F0EE477A 		vmov.f32	s15, s14
 186 0044 E5EEE67A 		vfms.f32	s15, s11, s13
  40:Lib/lib_vision_models_pp/lib_vision_models_pp/Src/pd_pp_model.c ****   corners[1].x = box->x_center + box->width / 2;
 187              		.loc 1 40 37 view .LVU53
 188 0048 96ED046A 		vldr.32	s12, [r6, #16]
  41:Lib/lib_vision_models_pp/lib_vision_models_pp/Src/pd_pp_model.c ****   corners[1].y = box->y_center + box->height / 2;
 189              		.loc 1 41 32 view .LVU54
 190 004c A5EEA67A 		vfma.f32	s14, s11, s13
  39:Lib/lib_vision_models_pp/lib_vision_models_pp/Src/pd_pp_model.c ****   corners[0].y = box->y_center - box->height / 2;
 191              		.loc 1 39 16 view .LVU55
 192 0050 CDED087A 		vstr.32	s15, [sp, #32]
  40:Lib/lib_vision_models_pp/lib_vision_models_pp/Src/pd_pp_model.c ****   corners[1].x = box->x_center + box->width / 2;
 193              		.loc 1 40 3 is_stmt 1 view .LVU56
  40:Lib/lib_vision_models_pp/lib_vision_models_pp/Src/pd_pp_model.c ****   corners[1].x = box->x_center + box->width / 2;
 194              		.loc 1 40 21 is_stmt 0 view .LVU57
 195 0054 D6ED027A 		vldr.32	s15, [r6, #8]
  41:Lib/lib_vision_models_pp/lib_vision_models_pp/Src/pd_pp_model.c ****   corners[1].y = box->y_center + box->height / 2;
 196              		.loc 1 41 16 view .LVU58
 197 0058 8DED0A7A 		vstr.32	s14, [sp, #40]
  40:Lib/lib_vision_models_pp/lib_vision_models_pp/Src/pd_pp_model.c ****   corners[1].x = box->x_center + box->width / 2;
ARM GAS  C:\Users\DJESSOU\AppData\Local\Temp\ccj5Kmgq.s 			page 9


 198              		.loc 1 40 32 view .LVU59
 199 005c B0EE675A 		vmov.f32	s10, s15
 200              	.LBE18:
 201              	.LBE23:
 202              	.LBB24:
 203              	.LBB25:
  39:Lib/lib_vision_models_pp/lib_vision_models_pp/Src/pd_pp_model.c ****   corners[0].y = box->y_center - box->height / 2;
 204              		.loc 1 39 21 view .LVU60
 205 0060 93ED017A 		vldr.32	s14, [r3, #4]
 206              	.LBE25:
 207              	.LBE24:
 208              	.LBB30:
 209              	.LBB19:
  42:Lib/lib_vision_models_pp/lib_vision_models_pp/Src/pd_pp_model.c **** }
 210              		.loc 1 42 32 view .LVU61
 211 0064 E6EE267A 		vfma.f32	s15, s12, s13
 212              	.LBE19:
 213              	.LBE30:
 214              	.LBB31:
 215              	.LBB26:
  39:Lib/lib_vision_models_pp/lib_vision_models_pp/Src/pd_pp_model.c ****   corners[0].y = box->y_center - box->height / 2;
 216              		.loc 1 39 37 view .LVU62
 217 0068 D3ED035A 		vldr.32	s11, [r3, #12]
 218              	.LBE26:
 219              	.LBE31:
 220              	.LBB32:
 221              	.LBB20:
  42:Lib/lib_vision_models_pp/lib_vision_models_pp/Src/pd_pp_model.c **** }
 222              		.loc 1 42 16 view .LVU63
 223 006c CDED0B7A 		vstr.32	s15, [sp, #44]
 224              	.LBE20:
 225              	.LBE32:
 226              	.LBB33:
 227              	.LBB27:
  39:Lib/lib_vision_models_pp/lib_vision_models_pp/Src/pd_pp_model.c ****   corners[0].y = box->y_center - box->height / 2;
 228              		.loc 1 39 32 view .LVU64
 229 0070 F0EE477A 		vmov.f32	s15, s14
 230 0074 E5EEE67A 		vfms.f32	s15, s11, s13
 231              	.LBE27:
 232              	.LBE33:
 233              	.LBB34:
 234              	.LBB21:
  40:Lib/lib_vision_models_pp/lib_vision_models_pp/Src/pd_pp_model.c ****   corners[1].x = box->x_center + box->width / 2;
 235              		.loc 1 40 32 view .LVU65
 236 0078 A6EE665A 		vfms.f32	s10, s12, s13
 237              	.LBE21:
 238              	.LBE34:
 239              	.LBB35:
 240              	.LBB28:
  39:Lib/lib_vision_models_pp/lib_vision_models_pp/Src/pd_pp_model.c ****   corners[0].y = box->y_center - box->height / 2;
 241              		.loc 1 39 16 view .LVU66
 242 007c CDED0C7A 		vstr.32	s15, [sp, #48]
  40:Lib/lib_vision_models_pp/lib_vision_models_pp/Src/pd_pp_model.c ****   corners[1].x = box->x_center + box->width / 2;
 243              		.loc 1 40 21 view .LVU67
 244 0080 D3ED027A 		vldr.32	s15, [r3, #8]
  40:Lib/lib_vision_models_pp/lib_vision_models_pp/Src/pd_pp_model.c ****   corners[1].x = box->x_center + box->width / 2;
 245              		.loc 1 40 37 view .LVU68
ARM GAS  C:\Users\DJESSOU\AppData\Local\Temp\ccj5Kmgq.s 			page 10


 246 0084 93ED046A 		vldr.32	s12, [r3, #16]
 247              	.LBE28:
 248              	.LBE35:
 249              	.LBB36:
 250              	.LBB22:
  40:Lib/lib_vision_models_pp/lib_vision_models_pp/Src/pd_pp_model.c ****   corners[1].x = box->x_center + box->width / 2;
 251              		.loc 1 40 16 view .LVU69
 252 0088 8DED095A 		vstr.32	s10, [sp, #36]
  41:Lib/lib_vision_models_pp/lib_vision_models_pp/Src/pd_pp_model.c ****   corners[1].y = box->y_center + box->height / 2;
 253              		.loc 1 41 3 is_stmt 1 view .LVU70
  42:Lib/lib_vision_models_pp/lib_vision_models_pp/Src/pd_pp_model.c **** }
 254              		.loc 1 42 3 view .LVU71
 255              	.LVL9:
  42:Lib/lib_vision_models_pp/lib_vision_models_pp/Src/pd_pp_model.c **** }
 256              		.loc 1 42 3 is_stmt 0 view .LVU72
 257              	.LBE22:
 258              	.LBE36:
  61:Lib/lib_vision_models_pp/lib_vision_models_pp/Src/pd_pp_model.c **** 
 259              		.loc 1 61 3 is_stmt 1 view .LVU73
 260              	.LBB37:
 261              	.LBI24:
  37:Lib/lib_vision_models_pp/lib_vision_models_pp/Src/pd_pp_model.c **** {
 262              		.loc 1 37 13 view .LVU74
 263              	.LBB29:
  39:Lib/lib_vision_models_pp/lib_vision_models_pp/Src/pd_pp_model.c ****   corners[0].y = box->y_center - box->height / 2;
 264              		.loc 1 39 3 view .LVU75
  40:Lib/lib_vision_models_pp/lib_vision_models_pp/Src/pd_pp_model.c ****   corners[1].x = box->x_center + box->width / 2;
 265              		.loc 1 40 3 view .LVU76
  40:Lib/lib_vision_models_pp/lib_vision_models_pp/Src/pd_pp_model.c ****   corners[1].x = box->x_center + box->width / 2;
 266              		.loc 1 40 32 is_stmt 0 view .LVU77
 267 008c B0EE675A 		vmov.f32	s10, s15
  41:Lib/lib_vision_models_pp/lib_vision_models_pp/Src/pd_pp_model.c ****   corners[1].y = box->y_center + box->height / 2;
 268              		.loc 1 41 32 view .LVU78
 269 0090 A5EEA67A 		vfma.f32	s14, s11, s13
  40:Lib/lib_vision_models_pp/lib_vision_models_pp/Src/pd_pp_model.c ****   corners[1].x = box->x_center + box->width / 2;
 270              		.loc 1 40 32 view .LVU79
 271 0094 A6EE665A 		vfms.f32	s10, s12, s13
  42:Lib/lib_vision_models_pp/lib_vision_models_pp/Src/pd_pp_model.c **** }
 272              		.loc 1 42 32 view .LVU80
 273 0098 E6EE267A 		vfma.f32	s15, s12, s13
  40:Lib/lib_vision_models_pp/lib_vision_models_pp/Src/pd_pp_model.c ****   corners[1].x = box->x_center + box->width / 2;
 274              		.loc 1 40 16 view .LVU81
 275 009c 8DED0D5A 		vstr.32	s10, [sp, #52]
  41:Lib/lib_vision_models_pp/lib_vision_models_pp/Src/pd_pp_model.c ****   corners[1].y = box->y_center + box->height / 2;
 276              		.loc 1 41 3 is_stmt 1 view .LVU82
  41:Lib/lib_vision_models_pp/lib_vision_models_pp/Src/pd_pp_model.c ****   corners[1].y = box->y_center + box->height / 2;
 277              		.loc 1 41 16 is_stmt 0 view .LVU83
 278 00a0 8DED0E7A 		vstr.32	s14, [sp, #56]
  42:Lib/lib_vision_models_pp/lib_vision_models_pp/Src/pd_pp_model.c **** }
 279              		.loc 1 42 3 is_stmt 1 view .LVU84
  42:Lib/lib_vision_models_pp/lib_vision_models_pp/Src/pd_pp_model.c **** }
 280              		.loc 1 42 16 is_stmt 0 view .LVU85
 281 00a4 CDED0F7A 		vstr.32	s15, [sp, #60]
 282              	.LVL10:
  42:Lib/lib_vision_models_pp/lib_vision_models_pp/Src/pd_pp_model.c **** }
 283              		.loc 1 42 16 view .LVU86
 284              	.LBE29:
ARM GAS  C:\Users\DJESSOU\AppData\Local\Temp\ccj5Kmgq.s 			page 11


 285              	.LBE37:
  63:Lib/lib_vision_models_pp/lib_vision_models_pp/Src/pd_pp_model.c ****     xmin[i] = MIN(corners[i][0].x, corners[i][1].x);
 286              		.loc 1 63 3 is_stmt 1 view .LVU87
  63:Lib/lib_vision_models_pp/lib_vision_models_pp/Src/pd_pp_model.c ****     xmin[i] = MIN(corners[i][0].x, corners[i][1].x);
 287              		.loc 1 63 17 discriminator 1 view .LVU88
 288 00a8 EA46     		mov	r10, sp
  63:Lib/lib_vision_models_pp/lib_vision_models_pp/Src/pd_pp_model.c ****     xmin[i] = MIN(corners[i][0].x, corners[i][1].x);
 289              		.loc 1 63 10 is_stmt 0 view .LVU89
 290 00aa 0020     		movs	r0, #0
 291 00ac 08AA     		add	r2, sp, #32
 292 00ae 04AD     		add	r5, sp, #16
 293 00b0 06AC     		add	r4, sp, #24
 294 00b2 0DF10809 		add	r9, sp, #8
 295              	.LVL11:
 296              	.L10:
  64:Lib/lib_vision_models_pp/lib_vision_models_pp/Src/pd_pp_model.c ****     xmax[i] = MAX(corners[i][0].x, corners[i][1].x);
 297              		.loc 1 64 5 is_stmt 1 view .LVU90
  64:Lib/lib_vision_models_pp/lib_vision_models_pp/Src/pd_pp_model.c ****     xmax[i] = MAX(corners[i][0].x, corners[i][1].x);
 298              		.loc 1 64 15 is_stmt 0 view .LVU91
 299 00b6 92ED007A 		vldr.32	s14, [r2]
 300 00ba D2ED027A 		vldr.32	s15, [r2, #8]
 301 00be B4EEE77A 		vcmpe.f32	s14, s15
 302 00c2 F1EE10FA 		vmrs	APSR_nzcv, FPSCR
 303 00c6 08D4     		bmi	.L6
  65:Lib/lib_vision_models_pp/lib_vision_models_pp/Src/pd_pp_model.c ****     ymin[i] = MIN(corners[i][0].y, corners[i][1].y);
 304              		.loc 1 65 5 is_stmt 1 view .LVU92
  65:Lib/lib_vision_models_pp/lib_vision_models_pp/Src/pd_pp_model.c ****     ymin[i] = MIN(corners[i][0].y, corners[i][1].y);
 305              		.loc 1 65 15 is_stmt 0 view .LVU93
 306 00c8 C9BF     		itett	gt
 307 00ca 17EE90BA 		vmovgt	fp, s15
 308 00ce B0EE677A 		vmovle.f32	s14, s15
  65:Lib/lib_vision_models_pp/lib_vision_models_pp/Src/pd_pp_model.c ****     ymin[i] = MIN(corners[i][0].y, corners[i][1].y);
 309              		.loc 1 65 15 discriminator 1 view .LVU94
 310 00d2 F0EE477A 		vmovgt.f32	s15, s14
  65:Lib/lib_vision_models_pp/lib_vision_models_pp/Src/pd_pp_model.c ****     ymin[i] = MIN(corners[i][0].y, corners[i][1].y);
 311              		.loc 1 65 15 view .LVU95
 312 00d6 07EE10BA 		vmovgt	s14, fp
 313              	.L6:
  64:Lib/lib_vision_models_pp/lib_vision_models_pp/Src/pd_pp_model.c ****     xmax[i] = MAX(corners[i][0].x, corners[i][1].x);
 314              		.loc 1 64 13 discriminator 4 view .LVU96
 315 00da AAEC017A 		vstmia.32	r10!, {s14}
  65:Lib/lib_vision_models_pp/lib_vision_models_pp/Src/pd_pp_model.c ****     ymin[i] = MIN(corners[i][0].y, corners[i][1].y);
 316              		.loc 1 65 13 discriminator 4 view .LVU97
 317 00de E9EC017A 		vstmia.32	r9!, {s15}
  66:Lib/lib_vision_models_pp/lib_vision_models_pp/Src/pd_pp_model.c ****     ymax[i] = MAX(corners[i][0].y, corners[i][1].y);
 318              		.loc 1 66 5 is_stmt 1 view .LVU98
  66:Lib/lib_vision_models_pp/lib_vision_models_pp/Src/pd_pp_model.c ****     ymax[i] = MAX(corners[i][0].y, corners[i][1].y);
 319              		.loc 1 66 15 is_stmt 0 view .LVU99
 320 00e2 92ED017A 		vldr.32	s14, [r2, #4]
 321 00e6 D2ED037A 		vldr.32	s15, [r2, #12]
 322 00ea B4EEE77A 		vcmpe.f32	s14, s15
 323 00ee F1EE10FA 		vmrs	APSR_nzcv, FPSCR
 324 00f2 08D4     		bmi	.L8
  67:Lib/lib_vision_models_pp/lib_vision_models_pp/Src/pd_pp_model.c ****   }
 325              		.loc 1 67 5 is_stmt 1 view .LVU100
  67:Lib/lib_vision_models_pp/lib_vision_models_pp/Src/pd_pp_model.c ****   }
 326              		.loc 1 67 15 is_stmt 0 view .LVU101
ARM GAS  C:\Users\DJESSOU\AppData\Local\Temp\ccj5Kmgq.s 			page 12


 327 00f4 C9BF     		itett	gt
 328 00f6 17EE90BA 		vmovgt	fp, s15
 329 00fa B0EE677A 		vmovle.f32	s14, s15
  67:Lib/lib_vision_models_pp/lib_vision_models_pp/Src/pd_pp_model.c ****   }
 330              		.loc 1 67 15 discriminator 1 view .LVU102
 331 00fe F0EE477A 		vmovgt.f32	s15, s14
  67:Lib/lib_vision_models_pp/lib_vision_models_pp/Src/pd_pp_model.c ****   }
 332              		.loc 1 67 15 view .LVU103
 333 0102 07EE10BA 		vmovgt	s14, fp
 334              	.L8:
  66:Lib/lib_vision_models_pp/lib_vision_models_pp/Src/pd_pp_model.c ****     ymax[i] = MAX(corners[i][0].y, corners[i][1].y);
 335              		.loc 1 66 13 discriminator 4 view .LVU104
 336 0106 A5EC017A 		vstmia.32	r5!, {s14}
  67:Lib/lib_vision_models_pp/lib_vision_models_pp/Src/pd_pp_model.c ****   }
 337              		.loc 1 67 13 discriminator 4 view .LVU105
 338 010a E4EC017A 		vstmia.32	r4!, {s15}
  63:Lib/lib_vision_models_pp/lib_vision_models_pp/Src/pd_pp_model.c ****     xmin[i] = MIN(corners[i][0].x, corners[i][1].x);
 339              		.loc 1 63 23 is_stmt 1 discriminator 2 view .LVU106
 340              	.LVL12:
  63:Lib/lib_vision_models_pp/lib_vision_models_pp/Src/pd_pp_model.c ****     xmin[i] = MIN(corners[i][0].x, corners[i][1].x);
 341              		.loc 1 63 17 discriminator 1 view .LVU107
 342 010e 1032     		adds	r2, r2, #16
 343 0110 0028     		cmp	r0, #0
 344 0112 74D0     		beq	.L28
 345              	.LVL13:
  70:Lib/lib_vision_models_pp/lib_vision_models_pp/Src/pd_pp_model.c ****     area[i] = (ymax[i] - ymin[i]) * (xmax[i] - xmin[i]);
 346              		.loc 1 70 17 discriminator 1 view .LVU108
  71:Lib/lib_vision_models_pp/lib_vision_models_pp/Src/pd_pp_model.c ****   }
 347              		.loc 1 71 5 view .LVU109
  71:Lib/lib_vision_models_pp/lib_vision_models_pp/Src/pd_pp_model.c ****   }
 348              		.loc 1 71 20 is_stmt 0 view .LVU110
 349 0114 DDED063A 		vldr.32	s7, [sp, #24]
  71:Lib/lib_vision_models_pp/lib_vision_models_pp/Src/pd_pp_model.c ****   }
 350              		.loc 1 71 30 view .LVU111
 351 0118 DDED042A 		vldr.32	s5, [sp, #16]
  71:Lib/lib_vision_models_pp/lib_vision_models_pp/Src/pd_pp_model.c ****   }
 352              		.loc 1 71 42 view .LVU112
 353 011c 9DED023A 		vldr.32	s6, [sp, #8]
  71:Lib/lib_vision_models_pp/lib_vision_models_pp/Src/pd_pp_model.c ****   }
 354              		.loc 1 71 52 view .LVU113
 355 0120 9DED002A 		vldr.32	s4, [sp]
  71:Lib/lib_vision_models_pp/lib_vision_models_pp/Src/pd_pp_model.c ****   }
 356              		.loc 1 71 24 view .LVU114
 357 0124 33EEE26A 		vsub.f32	s12, s7, s5
  71:Lib/lib_vision_models_pp/lib_vision_models_pp/Src/pd_pp_model.c ****   }
 358              		.loc 1 71 46 view .LVU115
 359 0128 73EE427A 		vsub.f32	s15, s6, s4
  71:Lib/lib_vision_models_pp/lib_vision_models_pp/Src/pd_pp_model.c ****   }
 360              		.loc 1 71 35 view .LVU116
 361 012c 26EE276A 		vmul.f32	s12, s12, s15
  70:Lib/lib_vision_models_pp/lib_vision_models_pp/Src/pd_pp_model.c ****     area[i] = (ymax[i] - ymin[i]) * (xmax[i] - xmin[i]);
 362              		.loc 1 70 23 is_stmt 1 discriminator 3 view .LVU117
 363              	.LVL14:
  70:Lib/lib_vision_models_pp/lib_vision_models_pp/Src/pd_pp_model.c ****     area[i] = (ymax[i] - ymin[i]) * (xmax[i] - xmin[i]);
 364              		.loc 1 70 17 discriminator 1 view .LVU118
  71:Lib/lib_vision_models_pp/lib_vision_models_pp/Src/pd_pp_model.c ****   }
 365              		.loc 1 71 5 view .LVU119
ARM GAS  C:\Users\DJESSOU\AppData\Local\Temp\ccj5Kmgq.s 			page 13


  73:Lib/lib_vision_models_pp/lib_vision_models_pp/Src/pd_pp_model.c ****     return 0;
 366              		.loc 1 73 6 is_stmt 0 view .LVU120
 367 0130 B5EEC06A 		vcmpe.f32	s12, #0
 368 0134 F1EE10FA 		vmrs	APSR_nzcv, FPSCR
  71:Lib/lib_vision_models_pp/lib_vision_models_pp/Src/pd_pp_model.c ****   }
 369              		.loc 1 71 20 view .LVU121
 370 0138 DDED077A 		vldr.32	s15, [sp, #28]
  71:Lib/lib_vision_models_pp/lib_vision_models_pp/Src/pd_pp_model.c ****   }
 371              		.loc 1 71 30 view .LVU122
 372 013c DDED054A 		vldr.32	s9, [sp, #20]
  71:Lib/lib_vision_models_pp/lib_vision_models_pp/Src/pd_pp_model.c ****   }
 373              		.loc 1 71 42 view .LVU123
 374 0140 9DED037A 		vldr.32	s14, [sp, #12]
  71:Lib/lib_vision_models_pp/lib_vision_models_pp/Src/pd_pp_model.c ****   }
 375              		.loc 1 71 52 view .LVU124
 376 0144 9DED015A 		vldr.32	s10, [sp, #4]
  70:Lib/lib_vision_models_pp/lib_vision_models_pp/Src/pd_pp_model.c ****     area[i] = (ymax[i] - ymin[i]) * (xmax[i] - xmin[i]);
 377              		.loc 1 70 23 is_stmt 1 discriminator 3 view .LVU125
 378              	.LVL15:
  70:Lib/lib_vision_models_pp/lib_vision_models_pp/Src/pd_pp_model.c ****     area[i] = (ymax[i] - ymin[i]) * (xmax[i] - xmin[i]);
 379              		.loc 1 70 17 discriminator 1 view .LVU126
  73:Lib/lib_vision_models_pp/lib_vision_models_pp/Src/pd_pp_model.c ****     return 0;
 380              		.loc 1 73 3 view .LVU127
  74:Lib/lib_vision_models_pp/lib_vision_models_pp/Src/pd_pp_model.c **** 
 381              		.loc 1 74 12 is_stmt 0 view .LVU128
 382 0148 F0EE445A 		vmov.f32	s11, s8
  73:Lib/lib_vision_models_pp/lib_vision_models_pp/Src/pd_pp_model.c ****     return 0;
 383              		.loc 1 73 6 view .LVU129
 384 014c 3CD9     		bls	.L11
  71:Lib/lib_vision_models_pp/lib_vision_models_pp/Src/pd_pp_model.c ****   }
 385              		.loc 1 71 24 view .LVU130
 386 014e 77EEE45A 		vsub.f32	s11, s15, s9
  71:Lib/lib_vision_models_pp/lib_vision_models_pp/Src/pd_pp_model.c ****   }
 387              		.loc 1 71 46 view .LVU131
 388 0152 77EE451A 		vsub.f32	s3, s14, s10
  71:Lib/lib_vision_models_pp/lib_vision_models_pp/Src/pd_pp_model.c ****   }
 389              		.loc 1 71 35 view .LVU132
 390 0156 65EEA15A 		vmul.f32	s11, s11, s3
  73:Lib/lib_vision_models_pp/lib_vision_models_pp/Src/pd_pp_model.c ****     return 0;
 391              		.loc 1 73 20 discriminator 1 view .LVU133
 392 015a F5EEC05A 		vcmpe.f32	s11, #0
 393 015e F1EE10FA 		vmrs	APSR_nzcv, FPSCR
 394 0162 4ED9     		bls	.L30
  76:Lib/lib_vision_models_pp/lib_vision_models_pp/Src/pd_pp_model.c ****   intersect_ymin = MAX(ymin[0], ymin[1]);
 395              		.loc 1 76 3 is_stmt 1 view .LVU134
  76:Lib/lib_vision_models_pp/lib_vision_models_pp/Src/pd_pp_model.c ****   intersect_ymin = MAX(ymin[0], ymin[1]);
 396              		.loc 1 76 20 is_stmt 0 discriminator 1 view .LVU135
 397 0164 B4EE452A 		vcmp.f32	s4, s10
 398 0168 F1EE10FA 		vmrs	APSR_nzcv, FPSCR
  77:Lib/lib_vision_models_pp/lib_vision_models_pp/Src/pd_pp_model.c ****   intersect_xmax = MIN(xmax[0], xmax[1]);
 399              		.loc 1 77 20 discriminator 1 view .LVU136
 400 016c F4EE642A 		vcmp.f32	s5, s9
  76:Lib/lib_vision_models_pp/lib_vision_models_pp/Src/pd_pp_model.c ****   intersect_ymin = MAX(ymin[0], ymin[1]);
 401              		.loc 1 76 20 discriminator 1 view .LVU137
 402 0170 32FE055A 		vselgt.f32	s10, s4, s10
 403              	.LVL16:
  77:Lib/lib_vision_models_pp/lib_vision_models_pp/Src/pd_pp_model.c ****   intersect_xmax = MIN(xmax[0], xmax[1]);
ARM GAS  C:\Users\DJESSOU\AppData\Local\Temp\ccj5Kmgq.s 			page 14


 404              		.loc 1 77 3 is_stmt 1 view .LVU138
  77:Lib/lib_vision_models_pp/lib_vision_models_pp/Src/pd_pp_model.c ****   intersect_xmax = MIN(xmax[0], xmax[1]);
 405              		.loc 1 77 20 is_stmt 0 discriminator 1 view .LVU139
 406 0174 F1EE10FA 		vmrs	APSR_nzcv, FPSCR
  78:Lib/lib_vision_models_pp/lib_vision_models_pp/Src/pd_pp_model.c ****   intersect_ymax = MIN(ymax[0], ymax[1]);
 407              		.loc 1 78 20 discriminator 1 view .LVU140
 408 0178 B4EE473A 		vcmp.f32	s6, s14
  77:Lib/lib_vision_models_pp/lib_vision_models_pp/Src/pd_pp_model.c ****   intersect_xmax = MIN(xmax[0], xmax[1]);
 409              		.loc 1 77 20 discriminator 1 view .LVU141
 410 017c 72FEA44A 		vselgt.f32	s9, s5, s9
 411              	.LVL17:
  78:Lib/lib_vision_models_pp/lib_vision_models_pp/Src/pd_pp_model.c ****   intersect_ymax = MIN(ymax[0], ymax[1]);
 412              		.loc 1 78 3 is_stmt 1 view .LVU142
  78:Lib/lib_vision_models_pp/lib_vision_models_pp/Src/pd_pp_model.c ****   intersect_ymax = MIN(ymax[0], ymax[1]);
 413              		.loc 1 78 20 is_stmt 0 discriminator 1 view .LVU143
 414 0180 F1EE10FA 		vmrs	APSR_nzcv, FPSCR
  79:Lib/lib_vision_models_pp/lib_vision_models_pp/Src/pd_pp_model.c **** 
 415              		.loc 1 79 20 discriminator 1 view .LVU144
 416 0184 F4EE673A 		vcmp.f32	s7, s15
  78:Lib/lib_vision_models_pp/lib_vision_models_pp/Src/pd_pp_model.c ****   intersect_ymax = MIN(ymax[0], ymax[1]);
 417              		.loc 1 78 20 discriminator 1 view .LVU145
 418 0188 48BF     		it	mi
 419 018a B0EE437A 		vmovmi.f32	s14, s6
 420              	.LVL18:
  79:Lib/lib_vision_models_pp/lib_vision_models_pp/Src/pd_pp_model.c **** 
 421              		.loc 1 79 3 is_stmt 1 view .LVU146
  79:Lib/lib_vision_models_pp/lib_vision_models_pp/Src/pd_pp_model.c **** 
 422              		.loc 1 79 20 is_stmt 0 discriminator 1 view .LVU147
 423 018e F1EE10FA 		vmrs	APSR_nzcv, FPSCR
 424 0192 48BF     		it	mi
 425 0194 F0EE637A 		vmovmi.f32	s15, s7
 426              	.LVL19:
  81:Lib/lib_vision_models_pp/lib_vision_models_pp/Src/pd_pp_model.c **** 
 427              		.loc 1 81 3 is_stmt 1 view .LVU148
  81:Lib/lib_vision_models_pp/lib_vision_models_pp/Src/pd_pp_model.c **** 
 428              		.loc 1 81 20 is_stmt 0 view .LVU149
 429 0198 77EEE47A 		vsub.f32	s15, s15, s9
 430              	.LVL20:
  81:Lib/lib_vision_models_pp/lib_vision_models_pp/Src/pd_pp_model.c **** 
 431              		.loc 1 81 65 discriminator 4 view .LVU150
 432 019c 37EE457A 		vsub.f32	s14, s14, s10
 433              	.LVL21:
  81:Lib/lib_vision_models_pp/lib_vision_models_pp/Src/pd_pp_model.c **** 
 434              		.loc 1 81 20 view .LVU151
 435 01a0 F5EEC07A 		vcmpe.f32	s15, #0
 436 01a4 F1EE10FA 		vmrs	APSR_nzcv, FPSCR
 437              	.LVL22:
  81:Lib/lib_vision_models_pp/lib_vision_models_pp/Src/pd_pp_model.c **** 
 438              		.loc 1 81 65 discriminator 4 view .LVU152
 439 01a8 B5EEC07A 		vcmpe.f32	s14, #0
  81:Lib/lib_vision_models_pp/lib_vision_models_pp/Src/pd_pp_model.c **** 
 440              		.loc 1 81 20 discriminator 2 view .LVU153
 441 01ac 77FE847A 		vselgt.f32	s15, s15, s8
  81:Lib/lib_vision_models_pp/lib_vision_models_pp/Src/pd_pp_model.c **** 
 442              		.loc 1 81 65 discriminator 4 view .LVU154
 443 01b0 F1EE10FA 		vmrs	APSR_nzcv, FPSCR
  81:Lib/lib_vision_models_pp/lib_vision_models_pp/Src/pd_pp_model.c **** 
ARM GAS  C:\Users\DJESSOU\AppData\Local\Temp\ccj5Kmgq.s 			page 15


 444              		.loc 1 81 65 discriminator 6 view .LVU155
 445 01b4 37FE047A 		vselgt.f32	s14, s14, s8
  81:Lib/lib_vision_models_pp/lib_vision_models_pp/Src/pd_pp_model.c **** 
 446              		.loc 1 81 18 discriminator 8 view .LVU156
 447 01b8 67EE877A 		vmul.f32	s15, s15, s14
 448              	.LVL23:
  83:Lib/lib_vision_models_pp/lib_vision_models_pp/Src/pd_pp_model.c **** }
 449              		.loc 1 83 3 is_stmt 1 view .LVU157
  83:Lib/lib_vision_models_pp/lib_vision_models_pp/Src/pd_pp_model.c **** }
 450              		.loc 1 83 36 is_stmt 0 view .LVU158
 451 01bc 36EE256A 		vadd.f32	s12, s12, s11
  83:Lib/lib_vision_models_pp/lib_vision_models_pp/Src/pd_pp_model.c **** }
 452              		.loc 1 83 46 view .LVU159
 453 01c0 36EE676A 		vsub.f32	s12, s12, s15
  83:Lib/lib_vision_models_pp/lib_vision_models_pp/Src/pd_pp_model.c **** }
 454              		.loc 1 83 25 view .LVU160
 455 01c4 C7EE865A 		vdiv.f32	s11, s15, s12
 456              	.LVL24:
 457              	.L11:
  83:Lib/lib_vision_models_pp/lib_vision_models_pp/Src/pd_pp_model.c **** }
 458              		.loc 1 83 25 view .LVU161
 459              	.LBE38:
 460              	.LBE40:
 216:Lib/lib_vision_models_pp/lib_vision_models_pp/Src/pd_pp_model.c ****         skip_box = 1;
 461              		.loc 1 216 7 is_stmt 1 view .LVU162
 216:Lib/lib_vision_models_pp/lib_vision_models_pp/Src/pd_pp_model.c ****         skip_box = 1;
 462              		.loc 1 216 10 is_stmt 0 view .LVU163
 463 01c8 D8ED047A 		vldr.32	s15, [r8, #16]
 464 01cc F4EEE57A 		vcmpe.f32	s15, s11
 465 01d0 F1EE10FA 		vmrs	APSR_nzcv, FPSCR
 466 01d4 03F11803 		add	r3, r3, #24
 467 01d8 0FD9     		bls	.L22
 214:Lib/lib_vision_models_pp/lib_vision_models_pp/Src/pd_pp_model.c ****       iou = pd_pp_compute_iou(&pd_boxes[i], &pd_boxes[j]);
 468              		.loc 1 214 35 is_stmt 1 discriminator 2 view .LVU164
 469 01da 0131     		adds	r1, r1, #1
 470              	.LVL25:
 471              	.L25:
 214:Lib/lib_vision_models_pp/lib_vision_models_pp/Src/pd_pp_model.c ****       iou = pd_pp_compute_iou(&pd_boxes[i], &pd_boxes[j]);
 472              		.loc 1 214 23 discriminator 1 view .LVU165
 473 01dc 6145     		cmp	r1, ip
 474 01de FFF62BAF 		blt	.L23
 475              	.LVL26:
 214:Lib/lib_vision_models_pp/lib_vision_models_pp/Src/pd_pp_model.c ****       iou = pd_pp_compute_iou(&pd_boxes[i], &pd_boxes[j]);
 476              		.loc 1 214 23 is_stmt 0 discriminator 1 view .LVU166
 477              	.LBE42:
 221:Lib/lib_vision_models_pp/lib_vision_models_pp/Src/pd_pp_model.c ****       continue;
 478              		.loc 1 221 5 is_stmt 1 view .LVU167
 224:Lib/lib_vision_models_pp/lib_vision_models_pp/Src/pd_pp_model.c ****   }
 479              		.loc 1 224 5 view .LVU168
 224:Lib/lib_vision_models_pp/lib_vision_models_pp/Src/pd_pp_model.c ****   }
 480              		.loc 1 224 25 is_stmt 0 view .LVU169
 481 01e2 1824     		movs	r4, #24
 482 01e4 3546     		mov	r5, r6
 483 01e6 04FB0C74 		mla	r4, r4, ip, r7
 484 01ea 0FCD     		ldmia	r5!, {r0, r1, r2, r3}
 485              	.LVL27:
 224:Lib/lib_vision_models_pp/lib_vision_models_pp/Src/pd_pp_model.c ****   }
ARM GAS  C:\Users\DJESSOU\AppData\Local\Temp\ccj5Kmgq.s 			page 16


 486              		.loc 1 224 25 view .LVU170
 487 01ec 0FC4     		stmia	r4!, {r0, r1, r2, r3}
 488 01ee 95E80300 		ldm	r5, {r0, r1}
 489 01f2 84E80300 		stm	r4, {r0, r1}
 224:Lib/lib_vision_models_pp/lib_vision_models_pp/Src/pd_pp_model.c ****   }
 490              		.loc 1 224 21 view .LVU171
 491 01f6 0CF1010C 		add	ip, ip, #1
 492              	.LVL28:
 493              	.L22:
 212:Lib/lib_vision_models_pp/lib_vision_models_pp/Src/pd_pp_model.c ****     skip_box = 0;
 494              		.loc 1 212 35 is_stmt 1 discriminator 2 view .LVU172
 495 01fa 1836     		adds	r6, r6, #24
 496 01fc 16E7     		b	.L5
 497              	.LVL29:
 498              	.L28:
 499              	.LBB43:
 500              	.LBB41:
 501              	.LBB39:
 212:Lib/lib_vision_models_pp/lib_vision_models_pp/Src/pd_pp_model.c ****     skip_box = 0;
 502              		.loc 1 212 35 is_stmt 0 discriminator 2 view .LVU173
 503 01fe 0120     		movs	r0, #1
 504              	.LVL30:
 212:Lib/lib_vision_models_pp/lib_vision_models_pp/Src/pd_pp_model.c ****     skip_box = 0;
 505              		.loc 1 212 35 discriminator 2 view .LVU174
 506 0200 59E7     		b	.L10
 507              	.LVL31:
 508              	.L30:
  74:Lib/lib_vision_models_pp/lib_vision_models_pp/Src/pd_pp_model.c **** 
 509              		.loc 1 74 12 view .LVU175
 510 0202 F0EE445A 		vmov.f32	s11, s8
 511 0206 DFE7     		b	.L11
 512              	.LVL32:
 513              	.L31:
  74:Lib/lib_vision_models_pp/lib_vision_models_pp/Src/pd_pp_model.c **** 
 514              		.loc 1 74 12 view .LVU176
 515              	.LBE39:
 516              	.LBE41:
 517              	.LBE43:
 518 0208 3B46     		mov	r3, r7
 519              	.LBB44:
 214:Lib/lib_vision_models_pp/lib_vision_models_pp/Src/pd_pp_model.c ****       iou = pd_pp_compute_iou(&pd_boxes[i], &pd_boxes[j]);
 520              		.loc 1 214 14 view .LVU177
 521 020a 0021     		movs	r1, #0
 522 020c E6E7     		b	.L25
 523              	.L43:
 524 020e 00BF     		.align	2
 525              	.L42:
 526 0210 00000000 		.word	pd_pp_nms_comparator
 527 0214 00000000 		.word	0
 528              	.LBE44:
 529              	.LBE46:
 530              		.cfi_endproc
 531              	.LFE2680:
 533              		.section	.text.pd_model_pp_reset,"ax",%progbits
 534              		.align	1
 535              		.global	pd_model_pp_reset
 536              		.syntax unified
ARM GAS  C:\Users\DJESSOU\AppData\Local\Temp\ccj5Kmgq.s 			page 17


 537              		.thumb
 538              		.thumb_func
 540              	pd_model_pp_reset:
 541              	.LVL33:
 542              	.LFB2677:
 229:Lib/lib_vision_models_pp/lib_vision_models_pp/Src/pd_pp_model.c **** int32_t pd_model_pp_reset(pd_model_pp_static_param_t *pInput_static_param)
 230:Lib/lib_vision_models_pp/lib_vision_models_pp/Src/pd_pp_model.c **** {
 543              		.loc 1 230 1 is_stmt 1 view -0
 544              		.cfi_startproc
 545              		@ args = 0, pretend = 0, frame = 0
 546              		@ frame_needed = 0, uses_anonymous_args = 0
 547              		@ link register save eliminated.
 231:Lib/lib_vision_models_pp/lib_vision_models_pp/Src/pd_pp_model.c ****   return AI_PD_POSTPROCESS_ERROR_NO;
 548              		.loc 1 231 3 view .LVU179
 232:Lib/lib_vision_models_pp/lib_vision_models_pp/Src/pd_pp_model.c **** }
 549              		.loc 1 232 1 is_stmt 0 view .LVU180
 550 0000 0020     		movs	r0, #0
 551              	.LVL34:
 552              		.loc 1 232 1 view .LVU181
 553 0002 7047     		bx	lr
 554              		.cfi_endproc
 555              	.LFE2677:
 557              		.section	.text.pd_model_pp_process,"ax",%progbits
 558              		.align	1
 559              		.global	pd_model_pp_process
 560              		.syntax unified
 561              		.thumb
 562              		.thumb_func
 564              	pd_model_pp_process:
 565              	.LVL35:
 566              	.LFB2678:
 233:Lib/lib_vision_models_pp/lib_vision_models_pp/Src/pd_pp_model.c **** 
 234:Lib/lib_vision_models_pp/lib_vision_models_pp/Src/pd_pp_model.c **** 
 235:Lib/lib_vision_models_pp/lib_vision_models_pp/Src/pd_pp_model.c **** int32_t pd_model_pp_process(pd_model_pp_in_t *pInput,
 236:Lib/lib_vision_models_pp/lib_vision_models_pp/Src/pd_pp_model.c ****                             pd_pp_out_t *pOutput,
 237:Lib/lib_vision_models_pp/lib_vision_models_pp/Src/pd_pp_model.c ****                             pd_model_pp_static_param_t *pInput_static_param)
 238:Lib/lib_vision_models_pp/lib_vision_models_pp/Src/pd_pp_model.c **** {
 567              		.loc 1 238 1 is_stmt 1 view -0
 568              		.cfi_startproc
 569              		@ args = 0, pretend = 0, frame = 16
 570              		@ frame_needed = 0, uses_anonymous_args = 0
 239:Lib/lib_vision_models_pp/lib_vision_models_pp/Src/pd_pp_model.c ****   int32_t ret = AI_PD_POSTPROCESS_ERROR;
 571              		.loc 1 239 3 view .LVU183
 240:Lib/lib_vision_models_pp/lib_vision_models_pp/Src/pd_pp_model.c ****   ret = pd_pp_decode(pInput,
 572              		.loc 1 240 3 view .LVU184
 573              	.LBB52:
 574              	.LBI52:
  85:Lib/lib_vision_models_pp/lib_vision_models_pp/Src/pd_pp_model.c ****                             pd_pp_out_t *pOutput,
 575              		.loc 1 85 16 view .LVU185
 576              	.LBB53:
  89:Lib/lib_vision_models_pp/lib_vision_models_pp/Src/pd_pp_model.c **** 
 577              		.loc 1 89 3 view .LVU186
  92:Lib/lib_vision_models_pp/lib_vision_models_pp/Src/pd_pp_model.c ****   float32_t height = pInput_static_param->height;
 578              		.loc 1 92 13 is_stmt 0 view .LVU187
 579 0000 D2ED007A 		vldr.32	s15, [r2]	@ int
 580              	.LBE53:
 581              	.LBE52:
ARM GAS  C:\Users\DJESSOU\AppData\Local\Temp\ccj5Kmgq.s 			page 18


 238:Lib/lib_vision_models_pp/lib_vision_models_pp/Src/pd_pp_model.c ****   int32_t ret = AI_PD_POSTPROCESS_ERROR;
 582              		.loc 1 238 1 view .LVU188
 583 0004 2DE9F04F 		push	{r4, r5, r6, r7, r8, r9, r10, fp, lr}
 584              		.cfi_def_cfa_offset 36
 585              		.cfi_offset 4, -36
 586              		.cfi_offset 5, -32
 587              		.cfi_offset 6, -28
 588              		.cfi_offset 7, -24
 589              		.cfi_offset 8, -20
 590              		.cfi_offset 9, -16
 591              		.cfi_offset 10, -12
 592              		.cfi_offset 11, -8
 593              		.cfi_offset 14, -4
 594              	.LBB71:
 595              	.LBB64:
  95:Lib/lib_vision_models_pp/lib_vision_models_pp/Src/pd_pp_model.c ****   float32_t *pAnchors = (float32_t *)pInput_static_param->pAnchors;
 596              		.loc 1 95 14 view .LVU189
 597 0008 D0E900B5 		ldrd	fp, r5, [r0]
 598              	.LBE64:
 599              	.LBE71:
 238:Lib/lib_vision_models_pp/lib_vision_models_pp/Src/pd_pp_model.c ****   int32_t ret = AI_PD_POSTPROCESS_ERROR;
 600              		.loc 1 238 1 view .LVU190
 601 000c 2DED048B 		vpush.64	{d8, d9}
 602              		.cfi_def_cfa_offset 52
 603              		.cfi_offset 80, -52
 604              		.cfi_offset 81, -48
 605              		.cfi_offset 82, -44
 606              		.cfi_offset 83, -40
 607              	.LBB72:
 608              	.LBB65:
  92:Lib/lib_vision_models_pp/lib_vision_models_pp/Src/pd_pp_model.c ****   float32_t height = pInput_static_param->height;
 609              		.loc 1 92 13 view .LVU191
 610 0010 B8EE678A 		vcvt.f32.u32	s16, s15
  93:Lib/lib_vision_models_pp/lib_vision_models_pp/Src/pd_pp_model.c ****   float32_t *pRawBoxes = (float32_t *)pInput->pBoxes;
 611              		.loc 1 93 13 view .LVU192
 612 0014 D2ED017A 		vldr.32	s15, [r2, #4]	@ int
  99:Lib/lib_vision_models_pp/lib_vision_models_pp/Src/pd_pp_model.c **** 
 613              		.loc 1 99 42 view .LVU193
 614 0018 B7EE009A 		vmov.f32	s18, #1.0e+0
  93:Lib/lib_vision_models_pp/lib_vision_models_pp/Src/pd_pp_model.c ****   float32_t *pRawBoxes = (float32_t *)pInput->pBoxes;
 615              		.loc 1 93 13 view .LVU194
 616 001c F8EE678A 		vcvt.f32.u32	s17, s15
  99:Lib/lib_vision_models_pp/lib_vision_models_pp/Src/pd_pp_model.c **** 
 617              		.loc 1 99 42 view .LVU195
 618 0020 D2ED037A 		vldr.32	s15, [r2, #12]
  89:Lib/lib_vision_models_pp/lib_vision_models_pp/Src/pd_pp_model.c **** 
 619              		.loc 1 89 19 view .LVU196
 620 0024 0027     		movs	r7, #0
  99:Lib/lib_vision_models_pp/lib_vision_models_pp/Src/pd_pp_model.c **** 
 621              		.loc 1 99 42 view .LVU197
 622 0026 89EE270A 		vdiv.f32	s0, s18, s15
  91:Lib/lib_vision_models_pp/lib_vision_models_pp/Src/pd_pp_model.c ****   float32_t width  = pInput_static_param->width;
 623              		.loc 1 91 16 view .LVU198
 624 002a 0B68     		ldr	r3, [r1]
 625              	.LBE65:
 626              	.LBE72:
 238:Lib/lib_vision_models_pp/lib_vision_models_pp/Src/pd_pp_model.c ****   int32_t ret = AI_PD_POSTPROCESS_ERROR;
ARM GAS  C:\Users\DJESSOU\AppData\Local\Temp\ccj5Kmgq.s 			page 19


 627              		.loc 1 238 1 view .LVU199
 628 002c 85B0     		sub	sp, sp, #20
 629              		.cfi_def_cfa_offset 72
 630              	.LBB73:
 631              	.LBB66:
  99:Lib/lib_vision_models_pp/lib_vision_models_pp/Src/pd_pp_model.c **** 
 632              		.loc 1 99 34 view .LVU200
 633 002e 30EE490A 		vsub.f32	s0, s0, s18
  89:Lib/lib_vision_models_pp/lib_vision_models_pp/Src/pd_pp_model.c **** 
 634              		.loc 1 89 19 view .LVU201
 635 0032 4F60     		str	r7, [r1, #4]
  91:Lib/lib_vision_models_pp/lib_vision_models_pp/Src/pd_pp_model.c ****   float32_t width  = pInput_static_param->width;
 636              		.loc 1 91 3 is_stmt 1 view .LVU202
  97:Lib/lib_vision_models_pp/lib_vision_models_pp/Src/pd_pp_model.c ****   size_t box_nb = 0;
 637              		.loc 1 97 57 is_stmt 0 view .LVU203
 638 0034 D2F808A0 		ldr	r10, [r2, #8]
 639              	.LBE66:
 640              	.LBE73:
 238:Lib/lib_vision_models_pp/lib_vision_models_pp/Src/pd_pp_model.c ****   int32_t ret = AI_PD_POSTPROCESS_ERROR;
 641              		.loc 1 238 1 view .LVU204
 642 0038 1446     		mov	r4, r2
 643              	.LBB74:
 644              	.LBB67:
  96:Lib/lib_vision_models_pp/lib_vision_models_pp/Src/pd_pp_model.c ****   const size_t in_struct_size = (2 * pInput_static_param->nb_keypoints) + AI_PD_MODEL_PP_KEYPOINTS;
 645              		.loc 1 96 14 view .LVU205
 646 003a D669     		ldr	r6, [r2, #28]
  91:Lib/lib_vision_models_pp/lib_vision_models_pp/Src/pd_pp_model.c ****   float32_t width  = pInput_static_param->width;
 647              		.loc 1 91 16 view .LVU206
 648 003c 0193     		str	r3, [sp, #4]
 649              	.LVL36:
  92:Lib/lib_vision_models_pp/lib_vision_models_pp/Src/pd_pp_model.c ****   float32_t height = pInput_static_param->height;
 650              		.loc 1 92 3 is_stmt 1 view .LVU207
  93:Lib/lib_vision_models_pp/lib_vision_models_pp/Src/pd_pp_model.c ****   float32_t *pRawBoxes = (float32_t *)pInput->pBoxes;
 651              		.loc 1 93 3 view .LVU208
  94:Lib/lib_vision_models_pp/lib_vision_models_pp/Src/pd_pp_model.c ****   float32_t *pRawProbs = (float32_t *)pInput->pProbs;
 652              		.loc 1 94 3 view .LVU209
  96:Lib/lib_vision_models_pp/lib_vision_models_pp/Src/pd_pp_model.c ****   const size_t in_struct_size = (2 * pInput_static_param->nb_keypoints) + AI_PD_MODEL_PP_KEYPOINTS;
 653              		.loc 1 96 3 view .LVU210
  97:Lib/lib_vision_models_pp/lib_vision_models_pp/Src/pd_pp_model.c ****   size_t box_nb = 0;
 654              		.loc 1 97 3 view .LVU211
  98:Lib/lib_vision_models_pp/lib_vision_models_pp/Src/pd_pp_model.c ****   float32_t computedThreshold = -logf( 1 / pInput_static_param->conf_threshold - 1);
 655              		.loc 1 98 3 view .LVU212
  99:Lib/lib_vision_models_pp/lib_vision_models_pp/Src/pd_pp_model.c **** 
 656              		.loc 1 99 3 view .LVU213
 657              	.LBE67:
 658              	.LBE74:
 238:Lib/lib_vision_models_pp/lib_vision_models_pp/Src/pd_pp_model.c ****   int32_t ret = AI_PD_POSTPROCESS_ERROR;
 659              		.loc 1 238 1 is_stmt 0 view .LVU214
 660 003e 8846     		mov	r8, r1
 661              	.LBB75:
 662              	.LBB68:
  99:Lib/lib_vision_models_pp/lib_vision_models_pp/Src/pd_pp_model.c **** 
 663              		.loc 1 99 34 view .LVU215
 664 0040 FFF7FEFF 		bl	logf
 665              	.LVL37:
  98:Lib/lib_vision_models_pp/lib_vision_models_pp/Src/pd_pp_model.c ****   float32_t computedThreshold = -logf( 1 / pInput_static_param->conf_threshold - 1);
 666              		.loc 1 98 10 view .LVU216
ARM GAS  C:\Users\DJESSOU\AppData\Local\Temp\ccj5Kmgq.s 			page 20


 667 0044 B946     		mov	r9, r7
  99:Lib/lib_vision_models_pp/lib_vision_models_pp/Src/pd_pp_model.c **** 
 668              		.loc 1 99 13 discriminator 1 view .LVU217
 669 0046 F1EE409A 		vneg.f32	s19, s0
 670              	.LVL38:
 101:Lib/lib_vision_models_pp/lib_vision_models_pp/Src/pd_pp_model.c ****     pd_pp_box_t *pBox = &pBoxes[box_nb]; //&pd_boxes[box_nb];
 671              		.loc 1 101 3 is_stmt 1 view .LVU218
 672              	.LBB54:
 101:Lib/lib_vision_models_pp/lib_vision_models_pp/Src/pd_pp_model.c ****     pd_pp_box_t *pBox = &pBoxes[box_nb]; //&pd_boxes[box_nb];
 673              		.loc 1 101 8 view .LVU219
 674              	.LBB55:
 102:Lib/lib_vision_models_pp/lib_vision_models_pp/Src/pd_pp_model.c **** 
 675              		.loc 1 102 32 is_stmt 0 view .LVU220
 676 004a 1822     		movs	r2, #24
 677              	.LBE55:
 678              	.LBE54:
  97:Lib/lib_vision_models_pp/lib_vision_models_pp/Src/pd_pp_model.c ****   size_t box_nb = 0;
 679              		.loc 1 97 73 view .LVU221
 680 004c 0AF10203 		add	r3, r10, #2
 681 0050 DB00     		lsls	r3, r3, #3
 682 0052 0293     		str	r3, [sp, #8]
 683              	.LVL39:
 684              	.L46:
 685              	.LBB62:
 101:Lib/lib_vision_models_pp/lib_vision_models_pp/Src/pd_pp_model.c ****     pd_pp_box_t *pBox = &pBoxes[box_nb]; //&pd_boxes[box_nb];
 686              		.loc 1 101 26 is_stmt 1 discriminator 1 view .LVU222
 687 0054 6369     		ldr	r3, [r4, #20]
 688 0056 9F42     		cmp	r7, r3
 689 0058 0BD3     		bcc	.L52
 690              	.L51:
 101:Lib/lib_vision_models_pp/lib_vision_models_pp/Src/pd_pp_model.c ****     pd_pp_box_t *pBox = &pBoxes[box_nb]; //&pd_boxes[box_nb];
 691              		.loc 1 101 26 is_stmt 0 discriminator 1 view .LVU223
 692              	.LBE62:
 126:Lib/lib_vision_models_pp/lib_vision_models_pp/Src/pd_pp_model.c ****   return AI_PD_POSTPROCESS_ERROR_NO;
 693              		.loc 1 126 3 is_stmt 1 view .LVU224
 694              	.LBE68:
 695              	.LBE75:
 241:Lib/lib_vision_models_pp/lib_vision_models_pp/Src/pd_pp_model.c ****                      pOutput,
 242:Lib/lib_vision_models_pp/lib_vision_models_pp/Src/pd_pp_model.c ****                      pInput_static_param);
 243:Lib/lib_vision_models_pp/lib_vision_models_pp/Src/pd_pp_model.c **** 
 244:Lib/lib_vision_models_pp/lib_vision_models_pp/Src/pd_pp_model.c ****   if (AI_PD_POSTPROCESS_ERROR_NO != ret) {
 245:Lib/lib_vision_models_pp/lib_vision_models_pp/Src/pd_pp_model.c ****     return ret;
 246:Lib/lib_vision_models_pp/lib_vision_models_pp/Src/pd_pp_model.c ****   }
 247:Lib/lib_vision_models_pp/lib_vision_models_pp/Src/pd_pp_model.c ****   pd_pp_nms(pOutput,
 696              		.loc 1 247 3 is_stmt 0 view .LVU225
 697 005a 4046     		mov	r0, r8
 698 005c 2146     		mov	r1, r4
 699              	.LBB76:
 700              	.LBB69:
 126:Lib/lib_vision_models_pp/lib_vision_models_pp/Src/pd_pp_model.c ****   return AI_PD_POSTPROCESS_ERROR_NO;
 701              		.loc 1 126 19 view .LVU226
 702 005e C8F80490 		str	r9, [r8, #4]
 127:Lib/lib_vision_models_pp/lib_vision_models_pp/Src/pd_pp_model.c **** }
 703              		.loc 1 127 3 is_stmt 1 view .LVU227
 704              	.LVL40:
 127:Lib/lib_vision_models_pp/lib_vision_models_pp/Src/pd_pp_model.c **** }
 705              		.loc 1 127 3 is_stmt 0 view .LVU228
ARM GAS  C:\Users\DJESSOU\AppData\Local\Temp\ccj5Kmgq.s 			page 21


 706              	.LBE69:
 707              	.LBE76:
 244:Lib/lib_vision_models_pp/lib_vision_models_pp/Src/pd_pp_model.c ****     return ret;
 708              		.loc 1 244 3 is_stmt 1 view .LVU229
 709              		.loc 1 247 3 view .LVU230
 710 0062 FFF7FEFF 		bl	pd_pp_nms.isra.0
 711              	.LVL41:
 248:Lib/lib_vision_models_pp/lib_vision_models_pp/Src/pd_pp_model.c ****             pInput_static_param);
 249:Lib/lib_vision_models_pp/lib_vision_models_pp/Src/pd_pp_model.c **** 
 250:Lib/lib_vision_models_pp/lib_vision_models_pp/Src/pd_pp_model.c ****   return ret;
 712              		.loc 1 250 3 view .LVU231
 251:Lib/lib_vision_models_pp/lib_vision_models_pp/Src/pd_pp_model.c **** }
 713              		.loc 1 251 1 is_stmt 0 view .LVU232
 714 0066 0020     		movs	r0, #0
 715 0068 05B0     		add	sp, sp, #20
 716              		.cfi_remember_state
 717              		.cfi_def_cfa_offset 52
 718              		@ sp needed
 719 006a BDEC048B 		vldm	sp!, {d8-d9}
 720              		.cfi_restore 82
 721              		.cfi_restore 83
 722              		.cfi_restore 80
 723              		.cfi_restore 81
 724              		.cfi_def_cfa_offset 36
 725 006e BDE8F08F 		pop	{r4, r5, r6, r7, r8, r9, r10, fp, pc}
 726              	.LVL42:
 727              	.L52:
 728              		.cfi_restore_state
 729              	.LBB77:
 730              	.LBB70:
 731              	.LBB63:
 732              	.LBB60:
 102:Lib/lib_vision_models_pp/lib_vision_models_pp/Src/pd_pp_model.c **** 
 733              		.loc 1 102 5 is_stmt 1 view .LVU233
 105:Lib/lib_vision_models_pp/lib_vision_models_pp/Src/pd_pp_model.c ****       pBox->prob = 1.0f / (1.0f + expf(-pRawProbs[i]));
 734              		.loc 1 105 5 view .LVU234
 105:Lib/lib_vision_models_pp/lib_vision_models_pp/Src/pd_pp_model.c ****       pBox->prob = 1.0f / (1.0f + expf(-pRawProbs[i]));
 735              		.loc 1 105 18 is_stmt 0 view .LVU235
 736 0072 BBEC010A 		vldmia.32	fp!, {s0}
 105:Lib/lib_vision_models_pp/lib_vision_models_pp/Src/pd_pp_model.c ****       pBox->prob = 1.0f / (1.0f + expf(-pRawProbs[i]));
 737              		.loc 1 105 8 view .LVU236
 738 0076 F4EEC09A 		vcmpe.f32	s19, s0
 739 007a F1EE10FA 		vmrs	APSR_nzcv, FPSCR
 740 007e 3ED8     		bhi	.L47
 102:Lib/lib_vision_models_pp/lib_vision_models_pp/Src/pd_pp_model.c **** 
 741              		.loc 1 102 18 view .LVU237
 742 0080 019B     		ldr	r3, [sp, #4]
 106:Lib/lib_vision_models_pp/lib_vision_models_pp/Src/pd_pp_model.c ****       /* decode palm box */
 743              		.loc 1 106 35 view .LVU238
 744 0082 B1EE400A 		vneg.f32	s0, s0
 102:Lib/lib_vision_models_pp/lib_vision_models_pp/Src/pd_pp_model.c **** 
 745              		.loc 1 102 18 view .LVU239
 746 0086 02FB0931 		mla	r1, r2, r9, r3
 747 008a 0391     		str	r1, [sp, #12]
 106:Lib/lib_vision_models_pp/lib_vision_models_pp/Src/pd_pp_model.c ****       /* decode palm box */
 748              		.loc 1 106 7 is_stmt 1 view .LVU240
 106:Lib/lib_vision_models_pp/lib_vision_models_pp/Src/pd_pp_model.c ****       /* decode palm box */
ARM GAS  C:\Users\DJESSOU\AppData\Local\Temp\ccj5Kmgq.s 			page 22


 749              		.loc 1 106 35 is_stmt 0 view .LVU241
 750 008c FFF7FEFF 		bl	expf
 751              	.LVL43:
 106:Lib/lib_vision_models_pp/lib_vision_models_pp/Src/pd_pp_model.c ****       /* decode palm box */
 752              		.loc 1 106 33 discriminator 1 view .LVU242
 753 0090 30EE090A 		vadd.f32	s0, s0, s18
 106:Lib/lib_vision_models_pp/lib_vision_models_pp/Src/pd_pp_model.c ****       /* decode palm box */
 754              		.loc 1 106 25 discriminator 1 view .LVU243
 755 0094 C9EE007A 		vdiv.f32	s15, s18, s0
 106:Lib/lib_vision_models_pp/lib_vision_models_pp/Src/pd_pp_model.c ****       /* decode palm box */
 756              		.loc 1 106 18 discriminator 1 view .LVU244
 757 0098 0399     		ldr	r1, [sp, #12]
 758              	.LBB56:
 114:Lib/lib_vision_models_pp/lib_vision_models_pp/Src/pd_pp_model.c ****         pBox->pKps[j].x = (pAnchors[i*2+0] * width  + pRawBoxes[i * in_struct_size + AI_PD_MODEL_PP
 759              		.loc 1 114 7 view .LVU245
 760 009a 2846     		mov	r0, r5
 761              	.LBE56:
 106:Lib/lib_vision_models_pp/lib_vision_models_pp/Src/pd_pp_model.c ****       /* decode palm box */
 762              		.loc 1 106 18 discriminator 1 view .LVU246
 763 009c C1ED007A 		vstr.32	s15, [r1]
 108:Lib/lib_vision_models_pp/lib_vision_models_pp/Src/pd_pp_model.c ****       pBox->y_center = (pAnchors[i*2+1] * height + pRawBoxes[i * in_struct_size + AI_PD_MODEL_PP_YC
 764              		.loc 1 108 7 is_stmt 1 view .LVU247
 108:Lib/lib_vision_models_pp/lib_vision_models_pp/Src/pd_pp_model.c ****       pBox->y_center = (pAnchors[i*2+1] * height + pRawBoxes[i * in_struct_size + AI_PD_MODEL_PP_YC
 765              		.loc 1 108 50 is_stmt 0 view .LVU248
 766 00a0 96ED007A 		vldr.32	s14, [r6]
 767 00a4 D5ED007A 		vldr.32	s15, [r5]
 768 00a8 E8EE077A 		vfma.f32	s15, s16, s14
 108:Lib/lib_vision_models_pp/lib_vision_models_pp/Src/pd_pp_model.c ****       pBox->y_center = (pAnchors[i*2+1] * height + pRawBoxes[i * in_struct_size + AI_PD_MODEL_PP_YC
 769              		.loc 1 108 108 view .LVU249
 770 00ac 87EE887A 		vdiv.f32	s14, s15, s16
 108:Lib/lib_vision_models_pp/lib_vision_models_pp/Src/pd_pp_model.c ****       pBox->y_center = (pAnchors[i*2+1] * height + pRawBoxes[i * in_struct_size + AI_PD_MODEL_PP_YC
 771              		.loc 1 108 22 view .LVU250
 772 00b0 81ED017A 		vstr.32	s14, [r1, #4]
 109:Lib/lib_vision_models_pp/lib_vision_models_pp/Src/pd_pp_model.c ****       pBox->width = pRawBoxes[i * in_struct_size + AI_PD_MODEL_PP_WIDTHREL]  / width;
 773              		.loc 1 109 7 is_stmt 1 view .LVU251
 109:Lib/lib_vision_models_pp/lib_vision_models_pp/Src/pd_pp_model.c ****       pBox->width = pRawBoxes[i * in_struct_size + AI_PD_MODEL_PP_WIDTHREL]  / width;
 774              		.loc 1 109 50 is_stmt 0 view .LVU252
 775 00b4 96ED017A 		vldr.32	s14, [r6, #4]
 776 00b8 D5ED017A 		vldr.32	s15, [r5, #4]
 777 00bc E8EE877A 		vfma.f32	s15, s17, s14
 109:Lib/lib_vision_models_pp/lib_vision_models_pp/Src/pd_pp_model.c ****       pBox->width = pRawBoxes[i * in_struct_size + AI_PD_MODEL_PP_WIDTHREL]  / width;
 778              		.loc 1 109 108 view .LVU253
 779 00c0 87EEA87A 		vdiv.f32	s14, s15, s17
 109:Lib/lib_vision_models_pp/lib_vision_models_pp/Src/pd_pp_model.c ****       pBox->width = pRawBoxes[i * in_struct_size + AI_PD_MODEL_PP_WIDTHREL]  / width;
 780              		.loc 1 109 22 view .LVU254
 781 00c4 81ED027A 		vstr.32	s14, [r1, #8]
 110:Lib/lib_vision_models_pp/lib_vision_models_pp/Src/pd_pp_model.c ****       pBox->height = pRawBoxes[i * in_struct_size + AI_PD_MODEL_PP_HEIGHTREL] / height;
 782              		.loc 1 110 7 is_stmt 1 view .LVU255
 110:Lib/lib_vision_models_pp/lib_vision_models_pp/Src/pd_pp_model.c ****       pBox->height = pRawBoxes[i * in_struct_size + AI_PD_MODEL_PP_HEIGHTREL] / height;
 783              		.loc 1 110 78 is_stmt 0 view .LVU256
 784 00c8 95ED027A 		vldr.32	s14, [r5, #8]
 785 00cc C7EE087A 		vdiv.f32	s15, s14, s16
 110:Lib/lib_vision_models_pp/lib_vision_models_pp/Src/pd_pp_model.c ****       pBox->height = pRawBoxes[i * in_struct_size + AI_PD_MODEL_PP_HEIGHTREL] / height;
 786              		.loc 1 110 19 view .LVU257
 787 00d0 C1ED037A 		vstr.32	s15, [r1, #12]
 111:Lib/lib_vision_models_pp/lib_vision_models_pp/Src/pd_pp_model.c **** 
 788              		.loc 1 111 7 is_stmt 1 view .LVU258
ARM GAS  C:\Users\DJESSOU\AppData\Local\Temp\ccj5Kmgq.s 			page 23


 111:Lib/lib_vision_models_pp/lib_vision_models_pp/Src/pd_pp_model.c **** 
 789              		.loc 1 111 79 is_stmt 0 view .LVU259
 790 00d4 95ED037A 		vldr.32	s14, [r5, #12]
 791 00d8 C7EE287A 		vdiv.f32	s15, s14, s17
 792              	.LBB57:
 114:Lib/lib_vision_models_pp/lib_vision_models_pp/Src/pd_pp_model.c ****         pBox->pKps[j].x = (pAnchors[i*2+0] * width  + pRawBoxes[i * in_struct_size + AI_PD_MODEL_PP
 793              		.loc 1 114 21 view .LVU260
 794 00dc 4FF0000E 		mov	lr, #0
 795              	.LBE57:
 111:Lib/lib_vision_models_pp/lib_vision_models_pp/Src/pd_pp_model.c **** 
 796              		.loc 1 111 20 view .LVU261
 797 00e0 C1ED047A 		vstr.32	s15, [r1, #16]
 114:Lib/lib_vision_models_pp/lib_vision_models_pp/Src/pd_pp_model.c ****         pBox->pKps[j].x = (pAnchors[i*2+0] * width  + pRawBoxes[i * in_struct_size + AI_PD_MODEL_PP
 798              		.loc 1 114 7 is_stmt 1 view .LVU262
 799              	.LBB58:
 114:Lib/lib_vision_models_pp/lib_vision_models_pp/Src/pd_pp_model.c ****         pBox->pKps[j].x = (pAnchors[i*2+0] * width  + pRawBoxes[i * in_struct_size + AI_PD_MODEL_PP
 800              		.loc 1 114 12 view .LVU263
 801              	.LVL44:
 114:Lib/lib_vision_models_pp/lib_vision_models_pp/Src/pd_pp_model.c ****         pBox->pKps[j].x = (pAnchors[i*2+0] * width  + pRawBoxes[i * in_struct_size + AI_PD_MODEL_PP
 802              		.loc 1 114 7 is_stmt 0 view .LVU264
 803 00e4 1822     		movs	r2, #24
 114:Lib/lib_vision_models_pp/lib_vision_models_pp/Src/pd_pp_model.c ****         pBox->pKps[j].x = (pAnchors[i*2+0] * width  + pRawBoxes[i * in_struct_size + AI_PD_MODEL_PP
 804              		.loc 1 114 21 view .LVU265
 805 00e6 0AF1010C 		add	ip, r10, #1
 806              	.LVL45:
 807              	.L49:
 114:Lib/lib_vision_models_pp/lib_vision_models_pp/Src/pd_pp_model.c ****         pBox->pKps[j].x = (pAnchors[i*2+0] * width  + pRawBoxes[i * in_struct_size + AI_PD_MODEL_PP
 808              		.loc 1 114 30 is_stmt 1 discriminator 1 view .LVU266
 809 00ea BCF1010C 		subs	ip, ip, #1
 810 00ee 00F10800 		add	r0, r0, #8
 811 00f2 09D1     		bne	.L50
 812              	.LBE58:
 119:Lib/lib_vision_models_pp/lib_vision_models_pp/Src/pd_pp_model.c ****       if (box_nb >= pInput_static_param->max_boxes_limit) {
 813              		.loc 1 119 7 view .LVU267
 120:Lib/lib_vision_models_pp/lib_vision_models_pp/Src/pd_pp_model.c ****         break;
 814              		.loc 1 120 10 is_stmt 0 view .LVU268
 815 00f4 A369     		ldr	r3, [r4, #24]
 119:Lib/lib_vision_models_pp/lib_vision_models_pp/Src/pd_pp_model.c ****       if (box_nb >= pInput_static_param->max_boxes_limit) {
 816              		.loc 1 119 13 view .LVU269
 817 00f6 09F10109 		add	r9, r9, #1
 818              	.LVL46:
 120:Lib/lib_vision_models_pp/lib_vision_models_pp/Src/pd_pp_model.c ****         break;
 819              		.loc 1 120 7 is_stmt 1 view .LVU270
 120:Lib/lib_vision_models_pp/lib_vision_models_pp/Src/pd_pp_model.c ****         break;
 820              		.loc 1 120 10 is_stmt 0 view .LVU271
 821 00fa 9945     		cmp	r9, r3
 822 00fc ADD2     		bcs	.L51
 823              	.LVL47:
 824              	.L47:
 120:Lib/lib_vision_models_pp/lib_vision_models_pp/Src/pd_pp_model.c ****         break;
 825              		.loc 1 120 10 view .LVU272
 826              	.LBE60:
 101:Lib/lib_vision_models_pp/lib_vision_models_pp/Src/pd_pp_model.c ****     pd_pp_box_t *pBox = &pBoxes[box_nb]; //&pd_boxes[box_nb];
 827              		.loc 1 101 66 is_stmt 1 discriminator 2 view .LVU273
 828 00fe 029B     		ldr	r3, [sp, #8]
 829 0100 0137     		adds	r7, r7, #1
 830              	.LVL48:
ARM GAS  C:\Users\DJESSOU\AppData\Local\Temp\ccj5Kmgq.s 			page 24


 101:Lib/lib_vision_models_pp/lib_vision_models_pp/Src/pd_pp_model.c ****     pd_pp_box_t *pBox = &pBoxes[box_nb]; //&pd_boxes[box_nb];
 831              		.loc 1 101 66 is_stmt 0 discriminator 2 view .LVU274
 832 0102 1D44     		add	r5, r5, r3
 833 0104 0836     		adds	r6, r6, #8
 834 0106 A5E7     		b	.L46
 835              	.LVL49:
 836              	.L50:
 837              	.LBB61:
 838              	.LBB59:
 115:Lib/lib_vision_models_pp/lib_vision_models_pp/Src/pd_pp_model.c ****         pBox->pKps[j].y = (pAnchors[i*2+1] * height + pRawBoxes[i * in_struct_size + AI_PD_MODEL_PP
 839              		.loc 1 115 9 is_stmt 1 view .LVU275
 115:Lib/lib_vision_models_pp/lib_vision_models_pp/Src/pd_pp_model.c ****         pBox->pKps[j].y = (pAnchors[i*2+1] * height + pRawBoxes[i * in_struct_size + AI_PD_MODEL_PP
 840              		.loc 1 115 53 is_stmt 0 view .LVU276
 841 0108 96ED007A 		vldr.32	s14, [r6]
 842 010c D0ED027A 		vldr.32	s15, [r0, #8]
 843 0110 E8EE077A 		vfma.f32	s15, s16, s14
 115:Lib/lib_vision_models_pp/lib_vision_models_pp/Src/pd_pp_model.c ****         pBox->pKps[j].y = (pAnchors[i*2+1] * height + pRawBoxes[i * in_struct_size + AI_PD_MODEL_PP
 844              		.loc 1 115 127 view .LVU277
 845 0114 87EE887A 		vdiv.f32	s14, s15, s16
 115:Lib/lib_vision_models_pp/lib_vision_models_pp/Src/pd_pp_model.c ****         pBox->pKps[j].y = (pAnchors[i*2+1] * height + pRawBoxes[i * in_struct_size + AI_PD_MODEL_PP
 846              		.loc 1 115 19 view .LVU278
 847 0118 4B69     		ldr	r3, [r1, #20]
 848 011a 03EBCE03 		add	r3, r3, lr, lsl #3
 115:Lib/lib_vision_models_pp/lib_vision_models_pp/Src/pd_pp_model.c ****         pBox->pKps[j].y = (pAnchors[i*2+1] * height + pRawBoxes[i * in_struct_size + AI_PD_MODEL_PP
 849              		.loc 1 115 25 view .LVU279
 850 011e 83ED007A 		vstr.32	s14, [r3]
 116:Lib/lib_vision_models_pp/lib_vision_models_pp/Src/pd_pp_model.c ****      }
 851              		.loc 1 116 9 is_stmt 1 view .LVU280
 116:Lib/lib_vision_models_pp/lib_vision_models_pp/Src/pd_pp_model.c ****      }
 852              		.loc 1 116 53 is_stmt 0 view .LVU281
 853 0122 96ED017A 		vldr.32	s14, [r6, #4]
 854 0126 D0ED037A 		vldr.32	s15, [r0, #12]
 855 012a E8EE877A 		vfma.f32	s15, s17, s14
 116:Lib/lib_vision_models_pp/lib_vision_models_pp/Src/pd_pp_model.c ****      }
 856              		.loc 1 116 127 view .LVU282
 857 012e 87EEA87A 		vdiv.f32	s14, s15, s17
 114:Lib/lib_vision_models_pp/lib_vision_models_pp/Src/pd_pp_model.c ****         pBox->pKps[j].x = (pAnchors[i*2+0] * width  + pRawBoxes[i * in_struct_size + AI_PD_MODEL_PP
 858              		.loc 1 114 68 discriminator 3 view .LVU283
 859 0132 0EF1010E 		add	lr, lr, #1
 860              	.LVL50:
 116:Lib/lib_vision_models_pp/lib_vision_models_pp/Src/pd_pp_model.c ****      }
 861              		.loc 1 116 25 view .LVU284
 862 0136 83ED017A 		vstr.32	s14, [r3, #4]
 114:Lib/lib_vision_models_pp/lib_vision_models_pp/Src/pd_pp_model.c ****         pBox->pKps[j].x = (pAnchors[i*2+0] * width  + pRawBoxes[i * in_struct_size + AI_PD_MODEL_PP
 863              		.loc 1 114 68 is_stmt 1 discriminator 3 view .LVU285
 864              	.LVL51:
 114:Lib/lib_vision_models_pp/lib_vision_models_pp/Src/pd_pp_model.c ****         pBox->pKps[j].x = (pAnchors[i*2+0] * width  + pRawBoxes[i * in_struct_size + AI_PD_MODEL_PP
 865              		.loc 1 114 68 is_stmt 0 discriminator 3 view .LVU286
 866 013a D6E7     		b	.L49
 867              	.LBE59:
 868              	.LBE61:
 869              	.LBE63:
 870              	.LBE70:
 871              	.LBE77:
 872              		.cfi_endproc
 873              	.LFE2678:
 875              		.section	.text.pd_model_pp_process_int8,"ax",%progbits
ARM GAS  C:\Users\DJESSOU\AppData\Local\Temp\ccj5Kmgq.s 			page 25


 876              		.align	1
 877              		.global	pd_model_pp_process_int8
 878              		.syntax unified
 879              		.thumb
 880              		.thumb_func
 882              	pd_model_pp_process_int8:
 883              	.LVL52:
 884              	.LFB2679:
 252:Lib/lib_vision_models_pp/lib_vision_models_pp/Src/pd_pp_model.c **** 
 253:Lib/lib_vision_models_pp/lib_vision_models_pp/Src/pd_pp_model.c **** int32_t pd_model_pp_process_int8(pd_model_pp_in_t *pInput,
 254:Lib/lib_vision_models_pp/lib_vision_models_pp/Src/pd_pp_model.c ****                             pd_pp_out_t *pOutput,
 255:Lib/lib_vision_models_pp/lib_vision_models_pp/Src/pd_pp_model.c ****                             pd_model_pp_static_param_t *pInput_static_param)
 256:Lib/lib_vision_models_pp/lib_vision_models_pp/Src/pd_pp_model.c **** {
 885              		.loc 1 256 1 is_stmt 1 view -0
 886              		.cfi_startproc
 887              		@ args = 0, pretend = 0, frame = 24
 888              		@ frame_needed = 0, uses_anonymous_args = 0
 257:Lib/lib_vision_models_pp/lib_vision_models_pp/Src/pd_pp_model.c ****   int32_t ret = AI_PD_POSTPROCESS_ERROR;
 889              		.loc 1 257 3 view .LVU288
 258:Lib/lib_vision_models_pp/lib_vision_models_pp/Src/pd_pp_model.c ****   ret = pd_pp_decode_int8(pInput,
 890              		.loc 1 258 3 view .LVU289
 891              	.LBB84:
 892              	.LBI84:
 130:Lib/lib_vision_models_pp/lib_vision_models_pp/Src/pd_pp_model.c ****                             pd_pp_out_t *pOutput,
 893              		.loc 1 130 16 view .LVU290
 894              	.LBB85:
 134:Lib/lib_vision_models_pp/lib_vision_models_pp/Src/pd_pp_model.c **** 
 895              		.loc 1 134 3 view .LVU291
 137:Lib/lib_vision_models_pp/lib_vision_models_pp/Src/pd_pp_model.c ****   float32_t height = pInput_static_param->height;
 896              		.loc 1 137 13 is_stmt 0 view .LVU292
 897 0000 D2ED007A 		vldr.32	s15, [r2]	@ int
 898              	.LBE85:
 899              	.LBE84:
 256:Lib/lib_vision_models_pp/lib_vision_models_pp/Src/pd_pp_model.c ****   int32_t ret = AI_PD_POSTPROCESS_ERROR;
 900              		.loc 1 256 1 view .LVU293
 901 0004 2DE9F04F 		push	{r4, r5, r6, r7, r8, r9, r10, fp, lr}
 902              		.cfi_def_cfa_offset 36
 903              		.cfi_offset 4, -36
 904              		.cfi_offset 5, -32
 905              		.cfi_offset 6, -28
 906              		.cfi_offset 7, -24
 907              		.cfi_offset 8, -20
 908              		.cfi_offset 9, -16
 909              		.cfi_offset 10, -12
 910              		.cfi_offset 11, -8
 911              		.cfi_offset 14, -4
 912 0008 2DED068B 		vpush.64	{d8, d9, d10}
 913              		.cfi_def_cfa_offset 60
 914              		.cfi_offset 80, -60
 915              		.cfi_offset 81, -56
 916              		.cfi_offset 82, -52
 917              		.cfi_offset 83, -48
 918              		.cfi_offset 84, -44
 919              		.cfi_offset 85, -40
 920              	.LBB104:
 921              	.LBB98:
 137:Lib/lib_vision_models_pp/lib_vision_models_pp/Src/pd_pp_model.c ****   float32_t height = pInput_static_param->height;
ARM GAS  C:\Users\DJESSOU\AppData\Local\Temp\ccj5Kmgq.s 			page 26


 922              		.loc 1 137 13 view .LVU294
 923 000c B8EE678A 		vcvt.f32.u32	s16, s15
 138:Lib/lib_vision_models_pp/lib_vision_models_pp/Src/pd_pp_model.c ****   int8_t *pRawBoxes = (int8_t *)pInput->pBoxes;
 924              		.loc 1 138 13 view .LVU295
 925 0010 D2ED017A 		vldr.32	s15, [r2, #4]	@ int
 150:Lib/lib_vision_models_pp/lib_vision_models_pp/Src/pd_pp_model.c ****   int8_t threshold_s8  = (int8_t)(computedThreshold / proba_scale + 0.5f + proba_zp);
 926              		.loc 1 150 45 view .LVU296
 927 0014 F7EE00AA 		vmov.f32	s21, #1.0e+0
 138:Lib/lib_vision_models_pp/lib_vision_models_pp/Src/pd_pp_model.c ****   int8_t *pRawBoxes = (int8_t *)pInput->pBoxes;
 928              		.loc 1 138 13 view .LVU297
 929 0018 F8EE678A 		vcvt.f32.u32	s17, s15
 150:Lib/lib_vision_models_pp/lib_vision_models_pp/Src/pd_pp_model.c ****   int8_t threshold_s8  = (int8_t)(computedThreshold / proba_scale + 0.5f + proba_zp);
 930              		.loc 1 150 45 view .LVU298
 931 001c D2ED037A 		vldr.32	s15, [r2, #12]
 134:Lib/lib_vision_models_pp/lib_vision_models_pp/Src/pd_pp_model.c **** 
 932              		.loc 1 134 19 view .LVU299
 933 0020 0026     		movs	r6, #0
 150:Lib/lib_vision_models_pp/lib_vision_models_pp/Src/pd_pp_model.c ****   int8_t threshold_s8  = (int8_t)(computedThreshold / proba_scale + 0.5f + proba_zp);
 934              		.loc 1 150 45 view .LVU300
 935 0022 8AEEA70A 		vdiv.f32	s0, s21, s15
 136:Lib/lib_vision_models_pp/lib_vision_models_pp/Src/pd_pp_model.c ****   float32_t width  = pInput_static_param->width;
 936              		.loc 1 136 16 view .LVU301
 937 0026 0B68     		ldr	r3, [r1]
 938              	.LBE98:
 939              	.LBE104:
 256:Lib/lib_vision_models_pp/lib_vision_models_pp/Src/pd_pp_model.c ****   int32_t ret = AI_PD_POSTPROCESS_ERROR;
 940              		.loc 1 256 1 view .LVU302
 941 0028 87B0     		sub	sp, sp, #28
 942              		.cfi_def_cfa_offset 88
 943              	.LBB105:
 944              	.LBB99:
 134:Lib/lib_vision_models_pp/lib_vision_models_pp/Src/pd_pp_model.c **** 
 945              		.loc 1 134 19 view .LVU303
 946 002a 4E60     		str	r6, [r1, #4]
 136:Lib/lib_vision_models_pp/lib_vision_models_pp/Src/pd_pp_model.c ****   float32_t width  = pInput_static_param->width;
 947              		.loc 1 136 3 is_stmt 1 view .LVU304
 136:Lib/lib_vision_models_pp/lib_vision_models_pp/Src/pd_pp_model.c ****   float32_t width  = pInput_static_param->width;
 948              		.loc 1 136 16 is_stmt 0 view .LVU305
 949 002c 0193     		str	r3, [sp, #4]
 950              	.LVL53:
 137:Lib/lib_vision_models_pp/lib_vision_models_pp/Src/pd_pp_model.c ****   float32_t height = pInput_static_param->height;
 951              		.loc 1 137 3 is_stmt 1 view .LVU306
 138:Lib/lib_vision_models_pp/lib_vision_models_pp/Src/pd_pp_model.c ****   int8_t *pRawBoxes = (int8_t *)pInput->pBoxes;
 952              		.loc 1 138 3 view .LVU307
 139:Lib/lib_vision_models_pp/lib_vision_models_pp/Src/pd_pp_model.c ****   int8_t *pRawProbs = (int8_t *)pInput->pProbs;
 953              		.loc 1 139 3 view .LVU308
 140:Lib/lib_vision_models_pp/lib_vision_models_pp/Src/pd_pp_model.c ****   float32_t *pAnchors  = (float32_t *)pInput_static_param->pAnchors;
 954              		.loc 1 140 11 is_stmt 0 view .LVU309
 955 002e D0E90035 		ldrd	r3, r5, [r0]
 956              	.LVL54:
 140:Lib/lib_vision_models_pp/lib_vision_models_pp/Src/pd_pp_model.c ****   float32_t *pAnchors  = (float32_t *)pInput_static_param->pAnchors;
 957              		.loc 1 140 11 view .LVU310
 958 0032 0293     		str	r3, [sp, #8]
 959              	.LVL55:
 141:Lib/lib_vision_models_pp/lib_vision_models_pp/Src/pd_pp_model.c **** 
 960              		.loc 1 141 3 is_stmt 1 view .LVU311
 146:Lib/lib_vision_models_pp/lib_vision_models_pp/Src/pd_pp_model.c **** 
ARM GAS  C:\Users\DJESSOU\AppData\Local\Temp\ccj5Kmgq.s 			page 27


 961              		.loc 1 146 10 is_stmt 0 view .LVU312
 962 0034 92F92930 		ldrsb	r3, [r2, #41]
 963              	.LVL56:
 150:Lib/lib_vision_models_pp/lib_vision_models_pp/Src/pd_pp_model.c ****   int8_t threshold_s8  = (int8_t)(computedThreshold / proba_scale + 0.5f + proba_zp);
 964              		.loc 1 150 34 view .LVU313
 965 0038 30EE6A0A 		vsub.f32	s0, s0, s21
 144:Lib/lib_vision_models_pp/lib_vision_models_pp/Src/pd_pp_model.c ****   int8_t boxe_zp = pInput_static_param->boxe_zp;
 966              		.loc 1 144 13 view .LVU314
 967 003c D2ED099A 		vldr.32	s19, [r2, #36]
 146:Lib/lib_vision_models_pp/lib_vision_models_pp/Src/pd_pp_model.c **** 
 968              		.loc 1 146 10 view .LVU315
 969 0040 0AEE103A 		vmov	s20, r3	@ int
 148:Lib/lib_vision_models_pp/lib_vision_models_pp/Src/pd_pp_model.c ****   size_t box_nb = 0;
 970              		.loc 1 148 57 view .LVU316
 971 0044 D2F808A0 		ldr	r10, [r2, #8]
 972              	.LBE99:
 973              	.LBE105:
 256:Lib/lib_vision_models_pp/lib_vision_models_pp/Src/pd_pp_model.c ****   int32_t ret = AI_PD_POSTPROCESS_ERROR;
 974              		.loc 1 256 1 view .LVU317
 975 0048 1446     		mov	r4, r2
 976              	.LBB106:
 977              	.LBB100:
 143:Lib/lib_vision_models_pp/lib_vision_models_pp/Src/pd_pp_model.c ****   float32_t proba_scale = pInput_static_param->proba_scale;
 978              		.loc 1 143 13 view .LVU318
 979 004a 92ED089A 		vldr.32	s18, [r2, #32]
 141:Lib/lib_vision_models_pp/lib_vision_models_pp/Src/pd_pp_model.c **** 
 980              		.loc 1 141 14 view .LVU319
 981 004e D2F81C90 		ldr	r9, [r2, #28]
 982              	.LVL57:
 143:Lib/lib_vision_models_pp/lib_vision_models_pp/Src/pd_pp_model.c ****   float32_t proba_scale = pInput_static_param->proba_scale;
 983              		.loc 1 143 3 is_stmt 1 view .LVU320
 144:Lib/lib_vision_models_pp/lib_vision_models_pp/Src/pd_pp_model.c ****   int8_t boxe_zp = pInput_static_param->boxe_zp;
 984              		.loc 1 144 3 view .LVU321
 145:Lib/lib_vision_models_pp/lib_vision_models_pp/Src/pd_pp_model.c ****   int8_t proba_zp = pInput_static_param->proba_zp;
 985              		.loc 1 145 3 view .LVU322
 145:Lib/lib_vision_models_pp/lib_vision_models_pp/Src/pd_pp_model.c ****   int8_t proba_zp = pInput_static_param->proba_zp;
 986              		.loc 1 145 10 is_stmt 0 view .LVU323
 987 0052 92F92880 		ldrsb	r8, [r2, #40]
 988              	.LVL58:
 146:Lib/lib_vision_models_pp/lib_vision_models_pp/Src/pd_pp_model.c **** 
 989              		.loc 1 146 3 is_stmt 1 view .LVU324
 148:Lib/lib_vision_models_pp/lib_vision_models_pp/Src/pd_pp_model.c ****   size_t box_nb = 0;
 990              		.loc 1 148 3 view .LVU325
 149:Lib/lib_vision_models_pp/lib_vision_models_pp/Src/pd_pp_model.c ****   float32_t computedThreshold = -logf( 1.0f / pInput_static_param->conf_threshold - 1);
 991              		.loc 1 149 3 view .LVU326
 150:Lib/lib_vision_models_pp/lib_vision_models_pp/Src/pd_pp_model.c ****   int8_t threshold_s8  = (int8_t)(computedThreshold / proba_scale + 0.5f + proba_zp);
 992              		.loc 1 150 3 view .LVU327
 993              	.LBE100:
 994              	.LBE106:
 256:Lib/lib_vision_models_pp/lib_vision_models_pp/Src/pd_pp_model.c ****   int32_t ret = AI_PD_POSTPROCESS_ERROR;
 995              		.loc 1 256 1 is_stmt 0 view .LVU328
 996 0056 0F46     		mov	r7, r1
 997              	.LBB107:
 998              	.LBB101:
 150:Lib/lib_vision_models_pp/lib_vision_models_pp/Src/pd_pp_model.c ****   int8_t threshold_s8  = (int8_t)(computedThreshold / proba_scale + 0.5f + proba_zp);
 999              		.loc 1 150 34 view .LVU329
 1000 0058 FFF7FEFF 		bl	logf
ARM GAS  C:\Users\DJESSOU\AppData\Local\Temp\ccj5Kmgq.s 			page 28


 1001              	.LVL59:
 151:Lib/lib_vision_models_pp/lib_vision_models_pp/Src/pd_pp_model.c **** 
 1002              		.loc 1 151 3 is_stmt 1 view .LVU330
 150:Lib/lib_vision_models_pp/lib_vision_models_pp/Src/pd_pp_model.c ****   int8_t threshold_s8  = (int8_t)(computedThreshold / proba_scale + 0.5f + proba_zp);
 1003              		.loc 1 150 13 is_stmt 0 discriminator 1 view .LVU331
 1004 005c B1EE400A 		vneg.f32	s0, s0
 1005              	.LVL60:
 151:Lib/lib_vision_models_pp/lib_vision_models_pp/Src/pd_pp_model.c **** 
 1006              		.loc 1 151 67 view .LVU332
 1007 0060 B6EE007A 		vmov.f32	s14, #5.0e-1
 151:Lib/lib_vision_models_pp/lib_vision_models_pp/Src/pd_pp_model.c **** 
 1008              		.loc 1 151 53 view .LVU333
 1009 0064 C0EE297A 		vdiv.f32	s15, s0, s19
 151:Lib/lib_vision_models_pp/lib_vision_models_pp/Src/pd_pp_model.c **** 
 1010              		.loc 1 151 67 view .LVU334
 1011 0068 77EE877A 		vadd.f32	s15, s15, s14
 151:Lib/lib_vision_models_pp/lib_vision_models_pp/Src/pd_pp_model.c **** 
 1012              		.loc 1 151 74 view .LVU335
 1013 006c B8EECA7A 		vcvt.f32.s32	s14, s20
 1014 0070 77EE877A 		vadd.f32	s15, s15, s14
 151:Lib/lib_vision_models_pp/lib_vision_models_pp/Src/pd_pp_model.c **** 
 1015              		.loc 1 151 10 view .LVU336
 1016 0074 FDEEE77A 		vcvt.s32.f32	s15, s15
 1017 0078 CDED037A 		vstr.32	s15, [sp, #12]	@ int
 149:Lib/lib_vision_models_pp/lib_vision_models_pp/Src/pd_pp_model.c ****   float32_t computedThreshold = -logf( 1.0f / pInput_static_param->conf_threshold - 1);
 1018              		.loc 1 149 10 view .LVU337
 1019 007c 3246     		mov	r2, r6
 151:Lib/lib_vision_models_pp/lib_vision_models_pp/Src/pd_pp_model.c **** 
 1020              		.loc 1 151 10 view .LVU338
 1021 007e 9DF90C30 		ldrsb	r3, [sp, #12]
 1022 0082 0393     		str	r3, [sp, #12]
 1023              	.LVL61:
 153:Lib/lib_vision_models_pp/lib_vision_models_pp/Src/pd_pp_model.c ****     pd_pp_box_t *pBox = &pBoxes[box_nb]; //&pd_boxes[box_nb];
 1024              		.loc 1 153 3 is_stmt 1 view .LVU339
 1025              	.LBB86:
 153:Lib/lib_vision_models_pp/lib_vision_models_pp/Src/pd_pp_model.c ****     pd_pp_box_t *pBox = &pBoxes[box_nb]; //&pd_boxes[box_nb];
 1026              		.loc 1 153 8 view .LVU340
 153:Lib/lib_vision_models_pp/lib_vision_models_pp/Src/pd_pp_model.c ****     pd_pp_box_t *pBox = &pBoxes[box_nb]; //&pd_boxes[box_nb];
 1027              		.loc 1 153 8 is_stmt 0 view .LVU341
 1028              	.LBE86:
 148:Lib/lib_vision_models_pp/lib_vision_models_pp/Src/pd_pp_model.c ****   size_t box_nb = 0;
 1029              		.loc 1 148 73 view .LVU342
 1030 0084 0AF10203 		add	r3, r10, #2
 1031 0088 5B00     		lsls	r3, r3, #1
 1032              	.LVL62:
 148:Lib/lib_vision_models_pp/lib_vision_models_pp/Src/pd_pp_model.c ****   size_t box_nb = 0;
 1033              		.loc 1 148 73 view .LVU343
 1034 008a 0493     		str	r3, [sp, #16]
 1035              	.LVL63:
 1036              	.L55:
 1037              	.LBB96:
 153:Lib/lib_vision_models_pp/lib_vision_models_pp/Src/pd_pp_model.c ****     pd_pp_box_t *pBox = &pBoxes[box_nb]; //&pd_boxes[box_nb];
 1038              		.loc 1 153 26 is_stmt 1 discriminator 1 view .LVU344
 1039 008c 6369     		ldr	r3, [r4, #20]
 1040 008e 9E42     		cmp	r6, r3
 1041 0090 0AD3     		bcc	.L60
 1042              	.L59:
ARM GAS  C:\Users\DJESSOU\AppData\Local\Temp\ccj5Kmgq.s 			page 29


 153:Lib/lib_vision_models_pp/lib_vision_models_pp/Src/pd_pp_model.c ****     pd_pp_box_t *pBox = &pBoxes[box_nb]; //&pd_boxes[box_nb];
 1043              		.loc 1 153 26 is_stmt 0 discriminator 1 view .LVU345
 1044              	.LBE96:
 195:Lib/lib_vision_models_pp/lib_vision_models_pp/Src/pd_pp_model.c ****   return AI_PD_POSTPROCESS_ERROR_NO;
 1045              		.loc 1 195 3 is_stmt 1 view .LVU346
 1046              	.LBE101:
 1047              	.LBE107:
 259:Lib/lib_vision_models_pp/lib_vision_models_pp/Src/pd_pp_model.c ****                           pOutput,
 260:Lib/lib_vision_models_pp/lib_vision_models_pp/Src/pd_pp_model.c ****                           pInput_static_param);
 261:Lib/lib_vision_models_pp/lib_vision_models_pp/Src/pd_pp_model.c **** 
 262:Lib/lib_vision_models_pp/lib_vision_models_pp/Src/pd_pp_model.c ****   if (AI_PD_POSTPROCESS_ERROR_NO != ret) {
 263:Lib/lib_vision_models_pp/lib_vision_models_pp/Src/pd_pp_model.c ****     return ret;
 264:Lib/lib_vision_models_pp/lib_vision_models_pp/Src/pd_pp_model.c ****   }
 265:Lib/lib_vision_models_pp/lib_vision_models_pp/Src/pd_pp_model.c ****   pd_pp_nms(pOutput,
 1048              		.loc 1 265 3 is_stmt 0 view .LVU347
 1049 0092 3846     		mov	r0, r7
 1050 0094 2146     		mov	r1, r4
 1051              	.LBB108:
 1052              	.LBB102:
 195:Lib/lib_vision_models_pp/lib_vision_models_pp/Src/pd_pp_model.c ****   return AI_PD_POSTPROCESS_ERROR_NO;
 1053              		.loc 1 195 19 view .LVU348
 1054 0096 7A60     		str	r2, [r7, #4]
 196:Lib/lib_vision_models_pp/lib_vision_models_pp/Src/pd_pp_model.c **** }
 1055              		.loc 1 196 3 is_stmt 1 view .LVU349
 1056              	.LVL64:
 196:Lib/lib_vision_models_pp/lib_vision_models_pp/Src/pd_pp_model.c **** }
 1057              		.loc 1 196 3 is_stmt 0 view .LVU350
 1058              	.LBE102:
 1059              	.LBE108:
 262:Lib/lib_vision_models_pp/lib_vision_models_pp/Src/pd_pp_model.c ****     return ret;
 1060              		.loc 1 262 3 is_stmt 1 view .LVU351
 1061              		.loc 1 265 3 view .LVU352
 1062 0098 FFF7FEFF 		bl	pd_pp_nms.isra.0
 1063              	.LVL65:
 266:Lib/lib_vision_models_pp/lib_vision_models_pp/Src/pd_pp_model.c ****             pInput_static_param);
 267:Lib/lib_vision_models_pp/lib_vision_models_pp/Src/pd_pp_model.c **** 
 268:Lib/lib_vision_models_pp/lib_vision_models_pp/Src/pd_pp_model.c ****   return ret;
 1064              		.loc 1 268 3 view .LVU353
 269:Lib/lib_vision_models_pp/lib_vision_models_pp/Src/pd_pp_model.c **** }
 1065              		.loc 1 269 1 is_stmt 0 view .LVU354
 1066 009c 0020     		movs	r0, #0
 1067 009e 07B0     		add	sp, sp, #28
 1068              		.cfi_remember_state
 1069              		.cfi_def_cfa_offset 60
 1070              		@ sp needed
 1071 00a0 BDEC068B 		vldm	sp!, {d8-d10}
 1072              		.cfi_restore 84
 1073              		.cfi_restore 85
 1074              		.cfi_restore 82
 1075              		.cfi_restore 83
 1076              		.cfi_restore 80
 1077              		.cfi_restore 81
 1078              		.cfi_def_cfa_offset 36
 1079 00a4 BDE8F08F 		pop	{r4, r5, r6, r7, r8, r9, r10, fp, pc}
 1080              	.LVL66:
 1081              	.L60:
 1082              		.cfi_restore_state
ARM GAS  C:\Users\DJESSOU\AppData\Local\Temp\ccj5Kmgq.s 			page 30


 1083              	.LBB109:
 1084              	.LBB103:
 1085              	.LBB97:
 1086              	.LBB87:
 154:Lib/lib_vision_models_pp/lib_vision_models_pp/Src/pd_pp_model.c **** 
 1087              		.loc 1 154 5 is_stmt 1 view .LVU355
 157:Lib/lib_vision_models_pp/lib_vision_models_pp/Src/pd_pp_model.c ****       float32_t value = (float32_t)((int32_t)pRawProbs[i] - proba_zp) * proba_scale;
 1088              		.loc 1 157 5 view .LVU356
 157:Lib/lib_vision_models_pp/lib_vision_models_pp/Src/pd_pp_model.c ****       float32_t value = (float32_t)((int32_t)pRawProbs[i] - proba_zp) * proba_scale;
 1089              		.loc 1 157 18 is_stmt 0 view .LVU357
 1090 00a8 029B     		ldr	r3, [sp, #8]
 157:Lib/lib_vision_models_pp/lib_vision_models_pp/Src/pd_pp_model.c ****       float32_t value = (float32_t)((int32_t)pRawProbs[i] - proba_zp) * proba_scale;
 1091              		.loc 1 157 8 view .LVU358
 1092 00aa 0399     		ldr	r1, [sp, #12]
 157:Lib/lib_vision_models_pp/lib_vision_models_pp/Src/pd_pp_model.c ****       float32_t value = (float32_t)((int32_t)pRawProbs[i] - proba_zp) * proba_scale;
 1093              		.loc 1 157 18 view .LVU359
 1094 00ac 9B57     		ldrsb	r3, [r3, r6]
 157:Lib/lib_vision_models_pp/lib_vision_models_pp/Src/pd_pp_model.c ****       float32_t value = (float32_t)((int32_t)pRawProbs[i] - proba_zp) * proba_scale;
 1095              		.loc 1 157 8 view .LVU360
 1096 00ae 9942     		cmp	r1, r3
 1097 00b0 68DC     		bgt	.L56
 154:Lib/lib_vision_models_pp/lib_vision_models_pp/Src/pd_pp_model.c **** 
 1098              		.loc 1 154 18 view .LVU361
 1099 00b2 1820     		movs	r0, #24
 1100 00b4 0199     		ldr	r1, [sp, #4]
 1101 00b6 0592     		str	r2, [sp, #20]
 1102              	.LBB88:
 158:Lib/lib_vision_models_pp/lib_vision_models_pp/Src/pd_pp_model.c ****       pBox->prob = 1.0f / (1.0f + expf(-value));
 1103              		.loc 1 158 7 is_stmt 1 view .LVU362
 1104              	.LVL67:
 159:Lib/lib_vision_models_pp/lib_vision_models_pp/Src/pd_pp_model.c ****       /* decode palm box */
 1105              		.loc 1 159 7 view .LVU363
 1106              	.LBE88:
 154:Lib/lib_vision_models_pp/lib_vision_models_pp/Src/pd_pp_model.c **** 
 1107              		.loc 1 154 18 is_stmt 0 view .LVU364
 1108 00b8 00FB021B 		mla	fp, r0, r2, r1
 1109              	.LBB93:
 158:Lib/lib_vision_models_pp/lib_vision_models_pp/Src/pd_pp_model.c ****       pBox->prob = 1.0f / (1.0f + expf(-value));
 1110              		.loc 1 158 59 view .LVU365
 1111 00bc 1AEE102A 		vmov	r2, s20	@ int
 1112              	.LVL68:
 158:Lib/lib_vision_models_pp/lib_vision_models_pp/Src/pd_pp_model.c ****       pBox->prob = 1.0f / (1.0f + expf(-value));
 1113              		.loc 1 158 59 view .LVU366
 1114 00c0 9B1A     		subs	r3, r3, r2
 1115              	.LVL69:
 158:Lib/lib_vision_models_pp/lib_vision_models_pp/Src/pd_pp_model.c ****       pBox->prob = 1.0f / (1.0f + expf(-value));
 1116              		.loc 1 158 59 view .LVU367
 1117 00c2 00EE103A 		vmov	s0, r3	@ int
 158:Lib/lib_vision_models_pp/lib_vision_models_pp/Src/pd_pp_model.c ****       pBox->prob = 1.0f / (1.0f + expf(-value));
 1118              		.loc 1 158 25 view .LVU368
 1119 00c6 B8EEC00A 		vcvt.f32.s32	s0, s0
 159:Lib/lib_vision_models_pp/lib_vision_models_pp/Src/pd_pp_model.c ****       /* decode palm box */
 1120              		.loc 1 159 35 view .LVU369
 1121 00ca 29EEC00A 		vnmul.f32	s0, s19, s0
 1122 00ce FFF7FEFF 		bl	expf
 1123              	.LVL70:
 159:Lib/lib_vision_models_pp/lib_vision_models_pp/Src/pd_pp_model.c ****       /* decode palm box */
ARM GAS  C:\Users\DJESSOU\AppData\Local\Temp\ccj5Kmgq.s 			page 31


 1124              		.loc 1 159 33 discriminator 1 view .LVU370
 1125 00d2 30EE2A0A 		vadd.f32	s0, s0, s21
 159:Lib/lib_vision_models_pp/lib_vision_models_pp/Src/pd_pp_model.c ****       /* decode palm box */
 1126              		.loc 1 159 25 discriminator 1 view .LVU371
 1127 00d6 CAEE807A 		vdiv.f32	s15, s21, s0
 159:Lib/lib_vision_models_pp/lib_vision_models_pp/Src/pd_pp_model.c ****       /* decode palm box */
 1128              		.loc 1 159 18 discriminator 1 view .LVU372
 1129 00da CBED007A 		vstr.32	s15, [fp]
 161:Lib/lib_vision_models_pp/lib_vision_models_pp/Src/pd_pp_model.c **** 
 1130              		.loc 1 161 7 is_stmt 1 view .LVU373
 163:Lib/lib_vision_models_pp/lib_vision_models_pp/Src/pd_pp_model.c ****       anchor_x = pAnchors[i*2+0];
 1131              		.loc 1 163 7 view .LVU374
 1132              	.LVL71:
 164:Lib/lib_vision_models_pp/lib_vision_models_pp/Src/pd_pp_model.c **** 
 1133              		.loc 1 164 7 view .LVU375
 166:Lib/lib_vision_models_pp/lib_vision_models_pp/Src/pd_pp_model.c **** 
 1134              		.loc 1 166 7 view .LVU376
 166:Lib/lib_vision_models_pp/lib_vision_models_pp/Src/pd_pp_model.c **** 
 1135              		.loc 1 166 34 is_stmt 0 view .LVU377
 1136 00de 99ED007A 		vldr.32	s14, [r9]
 163:Lib/lib_vision_models_pp/lib_vision_models_pp/Src/pd_pp_model.c ****       anchor_x = pAnchors[i*2+0];
 1137              		.loc 1 163 27 view .LVU378
 1138 00e2 95F90030 		ldrsb	r3, [r5]
 166:Lib/lib_vision_models_pp/lib_vision_models_pp/Src/pd_pp_model.c **** 
 1139              		.loc 1 166 34 view .LVU379
 1140 00e6 28EE077A 		vmul.f32	s14, s16, s14
 163:Lib/lib_vision_models_pp/lib_vision_models_pp/Src/pd_pp_model.c ****       anchor_x = pAnchors[i*2+0];
 1141              		.loc 1 163 91 view .LVU380
 1142 00ea A3EB0803 		sub	r3, r3, r8
 163:Lib/lib_vision_models_pp/lib_vision_models_pp/Src/pd_pp_model.c ****       anchor_x = pAnchors[i*2+0];
 1143              		.loc 1 163 15 view .LVU381
 1144 00ee 07EE903A 		vmov	s15, r3	@ int
 166:Lib/lib_vision_models_pp/lib_vision_models_pp/Src/pd_pp_model.c **** 
 1145              		.loc 1 166 43 view .LVU382
 1146 00f2 F0EE476A 		vmov.f32	s13, s14
 163:Lib/lib_vision_models_pp/lib_vision_models_pp/Src/pd_pp_model.c ****       anchor_x = pAnchors[i*2+0];
 1147              		.loc 1 163 15 view .LVU383
 1148 00f6 F8EEE77A 		vcvt.f32.s32	s15, s15
 166:Lib/lib_vision_models_pp/lib_vision_models_pp/Src/pd_pp_model.c **** 
 1149              		.loc 1 166 43 view .LVU384
 1150 00fa E9EE276A 		vfma.f32	s13, s18, s15
 166:Lib/lib_vision_models_pp/lib_vision_models_pp/Src/pd_pp_model.c **** 
 1151              		.loc 1 166 52 view .LVU385
 1152 00fe C6EE887A 		vdiv.f32	s15, s13, s16
 166:Lib/lib_vision_models_pp/lib_vision_models_pp/Src/pd_pp_model.c **** 
 1153              		.loc 1 166 22 view .LVU386
 1154 0102 CBED017A 		vstr.32	s15, [fp, #4]
 1155              	.LVL72:
 168:Lib/lib_vision_models_pp/lib_vision_models_pp/Src/pd_pp_model.c ****       anchor_y = pAnchors[i*2+1];
 1156              		.loc 1 168 7 is_stmt 1 view .LVU387
 169:Lib/lib_vision_models_pp/lib_vision_models_pp/Src/pd_pp_model.c **** 
 1157              		.loc 1 169 7 view .LVU388
 171:Lib/lib_vision_models_pp/lib_vision_models_pp/Src/pd_pp_model.c **** 
 1158              		.loc 1 171 7 view .LVU389
 171:Lib/lib_vision_models_pp/lib_vision_models_pp/Src/pd_pp_model.c **** 
 1159              		.loc 1 171 34 is_stmt 0 view .LVU390
 1160 0106 D9ED016A 		vldr.32	s13, [r9, #4]
ARM GAS  C:\Users\DJESSOU\AppData\Local\Temp\ccj5Kmgq.s 			page 32


 168:Lib/lib_vision_models_pp/lib_vision_models_pp/Src/pd_pp_model.c ****       anchor_y = pAnchors[i*2+1];
 1161              		.loc 1 168 27 view .LVU391
 1162 010a 95F90130 		ldrsb	r3, [r5, #1]
 171:Lib/lib_vision_models_pp/lib_vision_models_pp/Src/pd_pp_model.c **** 
 1163              		.loc 1 171 34 view .LVU392
 1164 010e 68EEA66A 		vmul.f32	s13, s17, s13
 168:Lib/lib_vision_models_pp/lib_vision_models_pp/Src/pd_pp_model.c ****       anchor_y = pAnchors[i*2+1];
 1165              		.loc 1 168 91 view .LVU393
 1166 0112 A3EB0803 		sub	r3, r3, r8
 168:Lib/lib_vision_models_pp/lib_vision_models_pp/Src/pd_pp_model.c ****       anchor_y = pAnchors[i*2+1];
 1167              		.loc 1 168 15 view .LVU394
 1168 0116 07EE903A 		vmov	s15, r3	@ int
 171:Lib/lib_vision_models_pp/lib_vision_models_pp/Src/pd_pp_model.c **** 
 1169              		.loc 1 171 43 view .LVU395
 1170 011a B0EE666A 		vmov.f32	s12, s13
 168:Lib/lib_vision_models_pp/lib_vision_models_pp/Src/pd_pp_model.c ****       anchor_y = pAnchors[i*2+1];
 1171              		.loc 1 168 15 view .LVU396
 1172 011e F8EEE77A 		vcvt.f32.s32	s15, s15
 171:Lib/lib_vision_models_pp/lib_vision_models_pp/Src/pd_pp_model.c **** 
 1173              		.loc 1 171 43 view .LVU397
 1174 0122 A9EE276A 		vfma.f32	s12, s18, s15
 171:Lib/lib_vision_models_pp/lib_vision_models_pp/Src/pd_pp_model.c **** 
 1175              		.loc 1 171 52 view .LVU398
 1176 0126 C6EE287A 		vdiv.f32	s15, s12, s17
 171:Lib/lib_vision_models_pp/lib_vision_models_pp/Src/pd_pp_model.c **** 
 1177              		.loc 1 171 22 view .LVU399
 1178 012a CBED027A 		vstr.32	s15, [fp, #8]
 1179              	.LVL73:
 173:Lib/lib_vision_models_pp/lib_vision_models_pp/Src/pd_pp_model.c ****       pBox->width = value  / width;
 1180              		.loc 1 173 7 is_stmt 1 view .LVU400
 174:Lib/lib_vision_models_pp/lib_vision_models_pp/Src/pd_pp_model.c **** 
 1181              		.loc 1 174 7 view .LVU401
 173:Lib/lib_vision_models_pp/lib_vision_models_pp/Src/pd_pp_model.c ****       pBox->width = value  / width;
 1182              		.loc 1 173 27 is_stmt 0 view .LVU402
 1183 012e 95F90230 		ldrsb	r3, [r5, #2]
 1184              	.LBB89:
 180:Lib/lib_vision_models_pp/lib_vision_models_pp/Src/pd_pp_model.c ****         value = (float32_t)((int32_t)pRawBoxes[i * in_struct_size + AI_PD_MODEL_PP_KEYPOINTS + (2 *
 1185              		.loc 1 180 7 view .LVU403
 1186 0132 2846     		mov	r0, r5
 1187              	.LBE89:
 173:Lib/lib_vision_models_pp/lib_vision_models_pp/Src/pd_pp_model.c ****       pBox->width = value  / width;
 1188              		.loc 1 173 92 view .LVU404
 1189 0134 A3EB0803 		sub	r3, r3, r8
 1190 0138 07EE903A 		vmov	s15, r3	@ int
 173:Lib/lib_vision_models_pp/lib_vision_models_pp/Src/pd_pp_model.c ****       pBox->width = value  / width;
 1191              		.loc 1 173 15 view .LVU405
 1192 013c F8EEE77A 		vcvt.f32.s32	s15, s15
 173:Lib/lib_vision_models_pp/lib_vision_models_pp/Src/pd_pp_model.c ****       pBox->width = value  / width;
 1193              		.loc 1 173 13 view .LVU406
 1194 0140 67EE897A 		vmul.f32	s15, s15, s18
 174:Lib/lib_vision_models_pp/lib_vision_models_pp/Src/pd_pp_model.c **** 
 1195              		.loc 1 174 28 view .LVU407
 1196 0144 87EE886A 		vdiv.f32	s12, s15, s16
 174:Lib/lib_vision_models_pp/lib_vision_models_pp/Src/pd_pp_model.c **** 
 1197              		.loc 1 174 19 view .LVU408
 1198 0148 8BED036A 		vstr.32	s12, [fp, #12]
 1199              	.LVL74:
ARM GAS  C:\Users\DJESSOU\AppData\Local\Temp\ccj5Kmgq.s 			page 33


 176:Lib/lib_vision_models_pp/lib_vision_models_pp/Src/pd_pp_model.c ****       pBox->height = value / height;
 1200              		.loc 1 176 7 is_stmt 1 view .LVU409
 177:Lib/lib_vision_models_pp/lib_vision_models_pp/Src/pd_pp_model.c **** 
 1201              		.loc 1 177 7 view .LVU410
 176:Lib/lib_vision_models_pp/lib_vision_models_pp/Src/pd_pp_model.c ****       pBox->height = value / height;
 1202              		.loc 1 176 27 is_stmt 0 view .LVU411
 1203 014c 95F90330 		ldrsb	r3, [r5, #3]
 1204              	.LBB90:
 180:Lib/lib_vision_models_pp/lib_vision_models_pp/Src/pd_pp_model.c ****         value = (float32_t)((int32_t)pRawBoxes[i * in_struct_size + AI_PD_MODEL_PP_KEYPOINTS + (2 *
 1205              		.loc 1 180 21 view .LVU412
 1206 0150 4FF0000E 		mov	lr, #0
 1207              	.LBE90:
 176:Lib/lib_vision_models_pp/lib_vision_models_pp/Src/pd_pp_model.c ****       pBox->height = value / height;
 1208              		.loc 1 176 93 view .LVU413
 1209 0154 A3EB0803 		sub	r3, r3, r8
 1210 0158 07EE903A 		vmov	s15, r3	@ int
 176:Lib/lib_vision_models_pp/lib_vision_models_pp/Src/pd_pp_model.c ****       pBox->height = value / height;
 1211              		.loc 1 176 15 view .LVU414
 1212 015c F8EEE77A 		vcvt.f32.s32	s15, s15
 176:Lib/lib_vision_models_pp/lib_vision_models_pp/Src/pd_pp_model.c ****       pBox->height = value / height;
 1213              		.loc 1 176 13 view .LVU415
 1214 0160 67EE897A 		vmul.f32	s15, s15, s18
 177:Lib/lib_vision_models_pp/lib_vision_models_pp/Src/pd_pp_model.c **** 
 1215              		.loc 1 177 28 view .LVU416
 1216 0164 87EEA86A 		vdiv.f32	s12, s15, s17
 177:Lib/lib_vision_models_pp/lib_vision_models_pp/Src/pd_pp_model.c **** 
 1217              		.loc 1 177 20 view .LVU417
 1218 0168 8BED046A 		vstr.32	s12, [fp, #16]
 1219              	.LVL75:
 180:Lib/lib_vision_models_pp/lib_vision_models_pp/Src/pd_pp_model.c ****         value = (float32_t)((int32_t)pRawBoxes[i * in_struct_size + AI_PD_MODEL_PP_KEYPOINTS + (2 *
 1220              		.loc 1 180 7 is_stmt 1 view .LVU418
 1221              	.LBB91:
 180:Lib/lib_vision_models_pp/lib_vision_models_pp/Src/pd_pp_model.c ****         value = (float32_t)((int32_t)pRawBoxes[i * in_struct_size + AI_PD_MODEL_PP_KEYPOINTS + (2 *
 1222              		.loc 1 180 12 view .LVU419
 180:Lib/lib_vision_models_pp/lib_vision_models_pp/Src/pd_pp_model.c ****         value = (float32_t)((int32_t)pRawBoxes[i * in_struct_size + AI_PD_MODEL_PP_KEYPOINTS + (2 *
 1223              		.loc 1 180 7 is_stmt 0 view .LVU420
 1224 016c 059A     		ldr	r2, [sp, #20]
 180:Lib/lib_vision_models_pp/lib_vision_models_pp/Src/pd_pp_model.c ****         value = (float32_t)((int32_t)pRawBoxes[i * in_struct_size + AI_PD_MODEL_PP_KEYPOINTS + (2 *
 1225              		.loc 1 180 21 view .LVU421
 1226 016e 0AF1010C 		add	ip, r10, #1
 1227              	.LVL76:
 1228              	.L57:
 180:Lib/lib_vision_models_pp/lib_vision_models_pp/Src/pd_pp_model.c ****         value = (float32_t)((int32_t)pRawBoxes[i * in_struct_size + AI_PD_MODEL_PP_KEYPOINTS + (2 *
 1229              		.loc 1 180 30 is_stmt 1 discriminator 1 view .LVU422
 1230 0172 BCF1010C 		subs	ip, ip, #1
 1231 0176 00F10200 		add	r0, r0, #2
 1232 017a 09D1     		bne	.L58
 1233              	.LBE91:
 188:Lib/lib_vision_models_pp/lib_vision_models_pp/Src/pd_pp_model.c ****       if (box_nb >= pInput_static_param->max_boxes_limit) {
 1234              		.loc 1 188 7 view .LVU423
 189:Lib/lib_vision_models_pp/lib_vision_models_pp/Src/pd_pp_model.c ****         break;
 1235              		.loc 1 189 10 is_stmt 0 view .LVU424
 1236 017c A369     		ldr	r3, [r4, #24]
 188:Lib/lib_vision_models_pp/lib_vision_models_pp/Src/pd_pp_model.c ****       if (box_nb >= pInput_static_param->max_boxes_limit) {
 1237              		.loc 1 188 13 view .LVU425
 1238 017e 0132     		adds	r2, r2, #1
 1239              	.LVL77:
ARM GAS  C:\Users\DJESSOU\AppData\Local\Temp\ccj5Kmgq.s 			page 34


 189:Lib/lib_vision_models_pp/lib_vision_models_pp/Src/pd_pp_model.c ****         break;
 1240              		.loc 1 189 7 is_stmt 1 view .LVU426
 189:Lib/lib_vision_models_pp/lib_vision_models_pp/Src/pd_pp_model.c ****         break;
 1241              		.loc 1 189 10 is_stmt 0 view .LVU427
 1242 0180 9A42     		cmp	r2, r3
 1243 0182 86D2     		bcs	.L59
 1244              	.LVL78:
 1245              	.L56:
 189:Lib/lib_vision_models_pp/lib_vision_models_pp/Src/pd_pp_model.c ****         break;
 1246              		.loc 1 189 10 view .LVU428
 1247              	.LBE93:
 1248              	.LBE87:
 153:Lib/lib_vision_models_pp/lib_vision_models_pp/Src/pd_pp_model.c ****     pd_pp_box_t *pBox = &pBoxes[box_nb]; //&pd_boxes[box_nb];
 1249              		.loc 1 153 66 is_stmt 1 discriminator 2 view .LVU429
 1250 0184 049B     		ldr	r3, [sp, #16]
 1251 0186 0136     		adds	r6, r6, #1
 1252              	.LVL79:
 153:Lib/lib_vision_models_pp/lib_vision_models_pp/Src/pd_pp_model.c ****     pd_pp_box_t *pBox = &pBoxes[box_nb]; //&pd_boxes[box_nb];
 1253              		.loc 1 153 66 is_stmt 0 discriminator 2 view .LVU430
 1254 0188 1D44     		add	r5, r5, r3
 1255 018a 09F10809 		add	r9, r9, #8
 1256 018e 7DE7     		b	.L55
 1257              	.LVL80:
 1258              	.L58:
 1259              	.LBB95:
 1260              	.LBB94:
 1261              	.LBB92:
 181:Lib/lib_vision_models_pp/lib_vision_models_pp/Src/pd_pp_model.c ****         pBox->pKps[j].x = (anchor_x * width  + value) / width;
 1262              		.loc 1 181 9 is_stmt 1 view .LVU431
 182:Lib/lib_vision_models_pp/lib_vision_models_pp/Src/pd_pp_model.c **** 
 1263              		.loc 1 182 9 view .LVU432
 181:Lib/lib_vision_models_pp/lib_vision_models_pp/Src/pd_pp_model.c ****         pBox->pKps[j].x = (anchor_x * width  + value) / width;
 1264              		.loc 1 181 29 is_stmt 0 view .LVU433
 1265 0190 90F90230 		ldrsb	r3, [r0, #2]
 182:Lib/lib_vision_models_pp/lib_vision_models_pp/Src/pd_pp_model.c **** 
 1266              		.loc 1 182 46 view .LVU434
 1267 0194 B0EE476A 		vmov.f32	s12, s14
 181:Lib/lib_vision_models_pp/lib_vision_models_pp/Src/pd_pp_model.c ****         pBox->pKps[j].x = (anchor_x * width  + value) / width;
 1268              		.loc 1 181 109 view .LVU435
 1269 0198 A3EB0803 		sub	r3, r3, r8
 181:Lib/lib_vision_models_pp/lib_vision_models_pp/Src/pd_pp_model.c ****         pBox->pKps[j].x = (anchor_x * width  + value) / width;
 1270              		.loc 1 181 17 view .LVU436
 1271 019c 07EE903A 		vmov	s15, r3	@ int
 1272 01a0 F8EEE77A 		vcvt.f32.s32	s15, s15
 182:Lib/lib_vision_models_pp/lib_vision_models_pp/Src/pd_pp_model.c **** 
 1273              		.loc 1 182 46 view .LVU437
 1274 01a4 A9EE276A 		vfma.f32	s12, s18, s15
 182:Lib/lib_vision_models_pp/lib_vision_models_pp/Src/pd_pp_model.c **** 
 1275              		.loc 1 182 55 view .LVU438
 1276 01a8 C6EE087A 		vdiv.f32	s15, s12, s16
 182:Lib/lib_vision_models_pp/lib_vision_models_pp/Src/pd_pp_model.c **** 
 1277              		.loc 1 182 19 view .LVU439
 1278 01ac DBF81430 		ldr	r3, [fp, #20]
 185:Lib/lib_vision_models_pp/lib_vision_models_pp/Src/pd_pp_model.c ****       }
 1279              		.loc 1 185 46 view .LVU440
 1280 01b0 B0EE666A 		vmov.f32	s12, s13
 182:Lib/lib_vision_models_pp/lib_vision_models_pp/Src/pd_pp_model.c **** 
ARM GAS  C:\Users\DJESSOU\AppData\Local\Temp\ccj5Kmgq.s 			page 35


 1281              		.loc 1 182 19 view .LVU441
 1282 01b4 03EBCE03 		add	r3, r3, lr, lsl #3
 182:Lib/lib_vision_models_pp/lib_vision_models_pp/Src/pd_pp_model.c **** 
 1283              		.loc 1 182 25 view .LVU442
 1284 01b8 C3ED007A 		vstr.32	s15, [r3]
 1285              	.LVL81:
 184:Lib/lib_vision_models_pp/lib_vision_models_pp/Src/pd_pp_model.c ****         pBox->pKps[j].y = (anchor_y * height + value) / height;
 1286              		.loc 1 184 9 is_stmt 1 view .LVU443
 185:Lib/lib_vision_models_pp/lib_vision_models_pp/Src/pd_pp_model.c ****       }
 1287              		.loc 1 185 9 view .LVU444
 184:Lib/lib_vision_models_pp/lib_vision_models_pp/Src/pd_pp_model.c ****         pBox->pKps[j].y = (anchor_y * height + value) / height;
 1288              		.loc 1 184 29 is_stmt 0 view .LVU445
 1289 01bc 90F90310 		ldrsb	r1, [r0, #3]
 180:Lib/lib_vision_models_pp/lib_vision_models_pp/Src/pd_pp_model.c ****         value = (float32_t)((int32_t)pRawBoxes[i * in_struct_size + AI_PD_MODEL_PP_KEYPOINTS + (2 *
 1290              		.loc 1 180 68 discriminator 3 view .LVU446
 1291 01c0 0EF1010E 		add	lr, lr, #1
 1292              	.LVL82:
 184:Lib/lib_vision_models_pp/lib_vision_models_pp/Src/pd_pp_model.c ****         pBox->pKps[j].y = (anchor_y * height + value) / height;
 1293              		.loc 1 184 109 view .LVU447
 1294 01c4 A1EB0801 		sub	r1, r1, r8
 184:Lib/lib_vision_models_pp/lib_vision_models_pp/Src/pd_pp_model.c ****         pBox->pKps[j].y = (anchor_y * height + value) / height;
 1295              		.loc 1 184 17 view .LVU448
 1296 01c8 07EE901A 		vmov	s15, r1	@ int
 1297 01cc F8EEE77A 		vcvt.f32.s32	s15, s15
 185:Lib/lib_vision_models_pp/lib_vision_models_pp/Src/pd_pp_model.c ****       }
 1298              		.loc 1 185 46 view .LVU449
 1299 01d0 A9EE276A 		vfma.f32	s12, s18, s15
 185:Lib/lib_vision_models_pp/lib_vision_models_pp/Src/pd_pp_model.c ****       }
 1300              		.loc 1 185 55 view .LVU450
 1301 01d4 C6EE287A 		vdiv.f32	s15, s12, s17
 185:Lib/lib_vision_models_pp/lib_vision_models_pp/Src/pd_pp_model.c ****       }
 1302              		.loc 1 185 25 view .LVU451
 1303 01d8 C3ED017A 		vstr.32	s15, [r3, #4]
 1304              	.LVL83:
 180:Lib/lib_vision_models_pp/lib_vision_models_pp/Src/pd_pp_model.c ****         value = (float32_t)((int32_t)pRawBoxes[i * in_struct_size + AI_PD_MODEL_PP_KEYPOINTS + (2 *
 1305              		.loc 1 180 68 is_stmt 1 discriminator 3 view .LVU452
 180:Lib/lib_vision_models_pp/lib_vision_models_pp/Src/pd_pp_model.c ****         value = (float32_t)((int32_t)pRawBoxes[i * in_struct_size + AI_PD_MODEL_PP_KEYPOINTS + (2 *
 1306              		.loc 1 180 68 is_stmt 0 discriminator 3 view .LVU453
 1307 01dc C9E7     		b	.L57
 1308              	.LBE92:
 1309              	.LBE94:
 1310              	.LBE95:
 1311              	.LBE97:
 1312              	.LBE103:
 1313              	.LBE109:
 1314              		.cfi_endproc
 1315              	.LFE2679:
 1317              		.text
 1318              	.Letext0:
 1319              		.file 2 "C:\\ST\\STM32CubeIDE_1.18.1\\STM32CubeIDE\\plugins\\com.st.stm32cube.ide.mcu.externaltool
 1320              		.file 3 "C:\\ST\\STM32CubeIDE_1.18.1\\STM32CubeIDE\\plugins\\com.st.stm32cube.ide.mcu.externaltool
 1321              		.file 4 "C:\\ST\\STM32CubeIDE_1.18.1\\STM32CubeIDE\\plugins\\com.st.stm32cube.ide.mcu.externaltool
 1322              		.file 5 "C:\\ST\\STM32CubeIDE_1.18.1\\STM32CubeIDE\\plugins\\com.st.stm32cube.ide.mcu.externaltool
 1323              		.file 6 "Lib/lib_vision_models_pp/lib_vision_models_pp/Inc/pd_pp_output_if.h"
 1324              		.file 7 "Lib/lib_vision_models_pp/lib_vision_models_pp/Inc/pd_model_pp_if.h"
 1325              		.file 8 "Lib/lib_vision_models_pp/lib_vision_models_pp/Src/vision_models_pp.h"
 1326              		.file 9 "C:\\ST\\STM32CubeIDE_1.18.1\\STM32CubeIDE\\plugins\\com.st.stm32cube.ide.mcu.externaltool
ARM GAS  C:\Users\DJESSOU\AppData\Local\Temp\ccj5Kmgq.s 			page 36


ARM GAS  C:\Users\DJESSOU\AppData\Local\Temp\ccj5Kmgq.s 			page 37

