ARM GAS  C:\Users\DJESSOU\AppData\Local\Temp\ccruImXQ.s 			page 1


   1              		.arch armv8.1-m.main
   2              		.fpu fpv5-d16
   3              		.arch_extension dsp
   4              		.arch_extension fp
   5              		.arch_extension fp.dp
   6              		.arch_extension mve
   7              		.arch_extension mve.fp
   8              		.eabi_attribute 5, "cortex-m55"
   9              		.eabi_attribute 28, 1
  10              		.eabi_attribute 20, 1
  11              		.eabi_attribute 21, 1
  12              		.eabi_attribute 23, 3
  13              		.eabi_attribute 24, 1
  14              		.eabi_attribute 25, 1
  15              		.eabi_attribute 26, 1
  16              		.eabi_attribute 30, 4
  17              		.eabi_attribute 34, 1
  18              		.eabi_attribute 38, 1
  19              		.eabi_attribute 18, 4
  20              		.file	"stai_palm_detector.c"
  21              		.text
  22              	.Ltext0:
  23              		.cfi_sections	.debug_frame
  24              		.file 1 "Model/stai_palm_detector.c"
  25              		.section	.text.LL_Buffer_addr_start,"ax",%progbits
  26              		.align	1
  27              		.syntax unified
  28              		.thumb
  29              		.thumb_func
  31              	LL_Buffer_addr_start:
  32              	.LVL0:
  33              	.LFB15:
  34              		.file 2 "Lib/AI_Runtime/Npu/ll_aton/ll_aton_NN_interface.h"
   1:Lib/AI_Runtime/Npu/ll_aton/ll_aton_NN_interface.h **** /**
   2:Lib/AI_Runtime/Npu/ll_aton/ll_aton_NN_interface.h ****  ******************************************************************************
   3:Lib/AI_Runtime/Npu/ll_aton/ll_aton_NN_interface.h ****  * @file    ll_aton_NN_interface.h
   4:Lib/AI_Runtime/Npu/ll_aton/ll_aton_NN_interface.h ****  * @author  SRA Artificial Intelligence & Embedded Architectures
   5:Lib/AI_Runtime/Npu/ll_aton/ll_aton_NN_interface.h ****  * @brief   Interface that defines a NN generated by the AtoNN Compiler.
   6:Lib/AI_Runtime/Npu/ll_aton/ll_aton_NN_interface.h ****  ******************************************************************************
   7:Lib/AI_Runtime/Npu/ll_aton/ll_aton_NN_interface.h ****  * @attention
   8:Lib/AI_Runtime/Npu/ll_aton/ll_aton_NN_interface.h ****  *
   9:Lib/AI_Runtime/Npu/ll_aton/ll_aton_NN_interface.h ****  * Copyright (c) 2024 STMicroelectronics.
  10:Lib/AI_Runtime/Npu/ll_aton/ll_aton_NN_interface.h ****  * All rights reserved.
  11:Lib/AI_Runtime/Npu/ll_aton/ll_aton_NN_interface.h ****  *
  12:Lib/AI_Runtime/Npu/ll_aton/ll_aton_NN_interface.h ****  * This software is licensed under terms that can be found in the LICENSE file
  13:Lib/AI_Runtime/Npu/ll_aton/ll_aton_NN_interface.h ****  * in the root directory of this software component.
  14:Lib/AI_Runtime/Npu/ll_aton/ll_aton_NN_interface.h ****  * If no LICENSE file comes with this software, it is provided AS-IS.
  15:Lib/AI_Runtime/Npu/ll_aton/ll_aton_NN_interface.h ****  *
  16:Lib/AI_Runtime/Npu/ll_aton/ll_aton_NN_interface.h ****  ******************************************************************************
  17:Lib/AI_Runtime/Npu/ll_aton/ll_aton_NN_interface.h ****  */
  18:Lib/AI_Runtime/Npu/ll_aton/ll_aton_NN_interface.h **** 
  19:Lib/AI_Runtime/Npu/ll_aton/ll_aton_NN_interface.h **** #ifndef __LL_ATON_NN_INTERFACE_H
  20:Lib/AI_Runtime/Npu/ll_aton/ll_aton_NN_interface.h **** #define __LL_ATON_NN_INTERFACE_H
  21:Lib/AI_Runtime/Npu/ll_aton/ll_aton_NN_interface.h **** 
  22:Lib/AI_Runtime/Npu/ll_aton/ll_aton_NN_interface.h **** #ifdef __cplusplus
  23:Lib/AI_Runtime/Npu/ll_aton/ll_aton_NN_interface.h **** extern "C"
  24:Lib/AI_Runtime/Npu/ll_aton/ll_aton_NN_interface.h **** {
ARM GAS  C:\Users\DJESSOU\AppData\Local\Temp\ccruImXQ.s 			page 2


  25:Lib/AI_Runtime/Npu/ll_aton/ll_aton_NN_interface.h **** #endif
  26:Lib/AI_Runtime/Npu/ll_aton/ll_aton_NN_interface.h **** 
  27:Lib/AI_Runtime/Npu/ll_aton/ll_aton_NN_interface.h **** #include <stdbool.h>
  28:Lib/AI_Runtime/Npu/ll_aton/ll_aton_NN_interface.h **** #include <stddef.h>
  29:Lib/AI_Runtime/Npu/ll_aton/ll_aton_NN_interface.h **** #include <stdint.h>
  30:Lib/AI_Runtime/Npu/ll_aton/ll_aton_NN_interface.h **** 
  31:Lib/AI_Runtime/Npu/ll_aton/ll_aton_NN_interface.h **** #include "ll_aton_config.h"
  32:Lib/AI_Runtime/Npu/ll_aton/ll_aton_NN_interface.h **** 
  33:Lib/AI_Runtime/Npu/ll_aton/ll_aton_NN_interface.h **** #include "ll_aton_attributes.h"
  34:Lib/AI_Runtime/Npu/ll_aton/ll_aton_NN_interface.h **** #include "ll_aton_cipher.h"
  35:Lib/AI_Runtime/Npu/ll_aton/ll_aton_NN_interface.h **** #include "ll_aton_util.h"
  36:Lib/AI_Runtime/Npu/ll_aton/ll_aton_NN_interface.h **** 
  37:Lib/AI_Runtime/Npu/ll_aton/ll_aton_NN_interface.h ****   /** @defgroup User I/O Return Values & Callback Event Types
  38:Lib/AI_Runtime/Npu/ll_aton/ll_aton_NN_interface.h ****    * @{
  39:Lib/AI_Runtime/Npu/ll_aton/ll_aton_NN_interface.h ****    */
  40:Lib/AI_Runtime/Npu/ll_aton/ll_aton_NN_interface.h **** 
  41:Lib/AI_Runtime/Npu/ll_aton/ll_aton_NN_interface.h ****   typedef enum LL_ATON_User_IO_Result
  42:Lib/AI_Runtime/Npu/ll_aton/ll_aton_NN_interface.h ****   {
  43:Lib/AI_Runtime/Npu/ll_aton/ll_aton_NN_interface.h ****     LL_ATON_User_IO_NOERROR,     /**< */
  44:Lib/AI_Runtime/Npu/ll_aton/ll_aton_NN_interface.h ****     LL_ATON_User_IO_WRONG_ALIGN, /**< */
  45:Lib/AI_Runtime/Npu/ll_aton/ll_aton_NN_interface.h ****     LL_ATON_User_IO_WRONG_SIZE,  /**< */
  46:Lib/AI_Runtime/Npu/ll_aton/ll_aton_NN_interface.h ****     LL_ATON_User_IO_WRONG_INDEX, /**< */
  47:Lib/AI_Runtime/Npu/ll_aton/ll_aton_NN_interface.h ****   } LL_ATON_User_IO_Result_t;
  48:Lib/AI_Runtime/Npu/ll_aton/ll_aton_NN_interface.h **** 
  49:Lib/AI_Runtime/Npu/ll_aton/ll_aton_NN_interface.h ****   typedef enum LL_ATON_RT_Callbacktype
  50:Lib/AI_Runtime/Npu/ll_aton/ll_aton_NN_interface.h ****   {
  51:Lib/AI_Runtime/Npu/ll_aton/ll_aton_NN_interface.h ****     LL_ATON_RT_Callbacktype_PRE_START,  /**< Callback called before start_epoch_block */
  52:Lib/AI_Runtime/Npu/ll_aton/ll_aton_NN_interface.h ****     LL_ATON_RT_Callbacktype_POST_START, /**< Callback called after start_epoch_block */
  53:Lib/AI_Runtime/Npu/ll_aton/ll_aton_NN_interface.h ****     LL_ATON_RT_Callbacktype_PRE_END,    /**< Callback called before end_epoch_block */
  54:Lib/AI_Runtime/Npu/ll_aton/ll_aton_NN_interface.h ****     LL_ATON_RT_Callbacktype_POST_END,   /**< Callback called after end_epoch_block */
  55:Lib/AI_Runtime/Npu/ll_aton/ll_aton_NN_interface.h ****     LL_ATON_RT_Callbacktype_NN_Init,    /**< Callback called after `LL_ATON_RT_Init_Network`,
  56:Lib/AI_Runtime/Npu/ll_aton/ll_aton_NN_interface.h ****                                          *     NOTE: 3rd parameter passed is `NULL` */
  57:Lib/AI_Runtime/Npu/ll_aton/ll_aton_NN_interface.h ****     LL_ATON_RT_Callbacktype_NN_DeInit,  /**< Callback called after `LL_ATON_RT_DeInit_Network`,
  58:Lib/AI_Runtime/Npu/ll_aton/ll_aton_NN_interface.h ****                                          *     NOTE: 3rd parameter passed is `NULL` */
  59:Lib/AI_Runtime/Npu/ll_aton/ll_aton_NN_interface.h ****     LL_ATON_RT_Callbacktype_RT_Init,    /**< Callback called after `LL_ATON_RT_RuntimeInit` */
  60:Lib/AI_Runtime/Npu/ll_aton/ll_aton_NN_interface.h ****     LL_ATON_RT_Callbacktype_RT_Deinit,  /**< Callback called before `LL_ATON_RT_RuntimeDeInit` */
  61:Lib/AI_Runtime/Npu/ll_aton/ll_aton_NN_interface.h ****   } LL_ATON_RT_Callbacktype_t;
  62:Lib/AI_Runtime/Npu/ll_aton/ll_aton_NN_interface.h **** 
  63:Lib/AI_Runtime/Npu/ll_aton/ll_aton_NN_interface.h ****   /**
  64:Lib/AI_Runtime/Npu/ll_aton/ll_aton_NN_interface.h ****    * @}
  65:Lib/AI_Runtime/Npu/ll_aton/ll_aton_NN_interface.h ****    */
  66:Lib/AI_Runtime/Npu/ll_aton/ll_aton_NN_interface.h **** 
  67:Lib/AI_Runtime/Npu/ll_aton/ll_aton_NN_interface.h ****   /** @defgroup Handle-style Data Types for Epoch Blocks
  68:Lib/AI_Runtime/Npu/ll_aton/ll_aton_NN_interface.h ****    * @{
  69:Lib/AI_Runtime/Npu/ll_aton/ll_aton_NN_interface.h ****    */
  70:Lib/AI_Runtime/Npu/ll_aton/ll_aton_NN_interface.h **** 
  71:Lib/AI_Runtime/Npu/ll_aton/ll_aton_NN_interface.h ****   /* this is needed to avoid some compilers (e.g. KEIL) that observe a strict semantic about conver
  72:Lib/AI_Runtime/Npu/ll_aton/ll_aton_NN_interface.h ****    * pointers to integers in cost initializers
  73:Lib/AI_Runtime/Npu/ll_aton/ll_aton_NN_interface.h ****    */
  74:Lib/AI_Runtime/Npu/ll_aton/ll_aton_NN_interface.h ****   typedef union
  75:Lib/AI_Runtime/Npu/ll_aton/ll_aton_NN_interface.h ****   {
  76:Lib/AI_Runtime/Npu/ll_aton/ll_aton_NN_interface.h ****     unsigned char *p;
  77:Lib/AI_Runtime/Npu/ll_aton/ll_aton_NN_interface.h ****     uintptr_t i;
  78:Lib/AI_Runtime/Npu/ll_aton/ll_aton_NN_interface.h ****   } __LL_address_t;
  79:Lib/AI_Runtime/Npu/ll_aton/ll_aton_NN_interface.h **** 
  80:Lib/AI_Runtime/Npu/ll_aton/ll_aton_NN_interface.h ****   typedef void (*EpochBlock_FuncPtr_t)(const void *epoch_block);
  81:Lib/AI_Runtime/Npu/ll_aton/ll_aton_NN_interface.h **** 
ARM GAS  C:\Users\DJESSOU\AppData\Local\Temp\ccruImXQ.s 			page 3


  82:Lib/AI_Runtime/Npu/ll_aton/ll_aton_NN_interface.h ****   typedef enum
  83:Lib/AI_Runtime/Npu/ll_aton/ll_aton_NN_interface.h ****   {
  84:Lib/AI_Runtime/Npu/ll_aton/ll_aton_NN_interface.h ****     EpochBlock_Flags_NONE = 0x0,                 /**< */
  85:Lib/AI_Runtime/Npu/ll_aton/ll_aton_NN_interface.h ****     EpochBlock_Flags_epoch_start = (0x1 << 0),   /**< First EpochBlock of an Epoch */
  86:Lib/AI_Runtime/Npu/ll_aton/ll_aton_NN_interface.h ****     EpochBlock_Flags_epoch_end = (0x1 << 1),     /**< Last EpochBlock of an Epoch */
  87:Lib/AI_Runtime/Npu/ll_aton/ll_aton_NN_interface.h ****     EpochBlock_Flags_blob = (0x1 << 2),          /**< Item is an Epoch Blob */
  88:Lib/AI_Runtime/Npu/ll_aton/ll_aton_NN_interface.h ****     EpochBlock_Flags_last_eb = (0x1 << 3),       /**< Last EpochBlock */
  89:Lib/AI_Runtime/Npu/ll_aton/ll_aton_NN_interface.h ****     EpochBlock_Flags_pure_hw = (0x1 << 4),       /**< Pure HW EpochBlock */
  90:Lib/AI_Runtime/Npu/ll_aton/ll_aton_NN_interface.h ****     EpochBlock_Flags_pure_sw = (0x1 << 5),       /**< Pure SW EpochBlock */
  91:Lib/AI_Runtime/Npu/ll_aton/ll_aton_NN_interface.h ****     EpochBlock_Flags_hybrid = (0x1 << 6),        /**< Hybrid EpochBlock (i.e. mixed HW/SW) */
  92:Lib/AI_Runtime/Npu/ll_aton/ll_aton_NN_interface.h ****     EpochBlock_Flags_internal = (0x1 << 7),      /**< ATON lib internal EpochBlock (used to impleme
  93:Lib/AI_Runtime/Npu/ll_aton/ll_aton_NN_interface.h ****     EpochBlock_Flags_blob_encrypted = (0x1 << 8) /**< The blob is encrypted and must be decrypted o
  94:Lib/AI_Runtime/Npu/ll_aton/ll_aton_NN_interface.h ****   } EpochBlock_Flags_t;
  95:Lib/AI_Runtime/Npu/ll_aton/ll_aton_NN_interface.h **** 
  96:Lib/AI_Runtime/Npu/ll_aton/ll_aton_NN_interface.h ****   typedef struct
  97:Lib/AI_Runtime/Npu/ll_aton/ll_aton_NN_interface.h ****   {
  98:Lib/AI_Runtime/Npu/ll_aton/ll_aton_NN_interface.h ****     EpochBlock_FuncPtr_t start_epoch_block; /**< Method to execute the EpochBlock */
  99:Lib/AI_Runtime/Npu/ll_aton/ll_aton_NN_interface.h ****     EpochBlock_FuncPtr_t end_epoch_block;   /**< Method to be executed when the EpochBlock ends */
 100:Lib/AI_Runtime/Npu/ll_aton/ll_aton_NN_interface.h ****     uintptr_t blob_address;                 /**< Blob address (in case this EpochBlock represents a
 101:Lib/AI_Runtime/Npu/ll_aton/ll_aton_NN_interface.h ****     uint32_t wait_mask;                     /**< Mask needed to check when an EpochBlock ends
 102:Lib/AI_Runtime/Npu/ll_aton/ll_aton_NN_interface.h ****                                              *    - if epoch blob: number (not bitmask) of epoch co
 103:Lib/AI_Runtime/Npu/ll_aton/ll_aton_NN_interface.h ****                                              *    - otherwise: bitmask with all output streaming en
 104:Lib/AI_Runtime/Npu/ll_aton/ll_aton_NN_interface.h ****     uint16_t flags;                         /**< EpochBlock flags */
 105:Lib/AI_Runtime/Npu/ll_aton/ll_aton_NN_interface.h **** #ifdef LL_ATON_EB_DBG_INFO
 106:Lib/AI_Runtime/Npu/ll_aton/ll_aton_NN_interface.h ****     int16_t epoch_num;             /**< Epoch number / First epoch number within blob */
 107:Lib/AI_Runtime/Npu/ll_aton/ll_aton_NN_interface.h ****     int16_t last_epoch_num;        /**< Epoch number / Last epoch number within blob */
 108:Lib/AI_Runtime/Npu/ll_aton/ll_aton_NN_interface.h ****     uint32_t in_streng_mask;       /**< Debug information about input streaming engines used in epo
 109:Lib/AI_Runtime/Npu/ll_aton/ll_aton_NN_interface.h ****     uint32_t out_streng_mask;      /**< Debug information about output streaming engines used in ep
 110:Lib/AI_Runtime/Npu/ll_aton/ll_aton_NN_interface.h ****     uint64_t estimated_npu_cycles; /**< Debug information estimates for NPU cycles in epoch w/o mem
 111:Lib/AI_Runtime/Npu/ll_aton/ll_aton_NN_interface.h ****     uint64_t estimated_tot_cycles; /**< Debug information estimates for NPU cycles in epoch w/ memo
 112:Lib/AI_Runtime/Npu/ll_aton/ll_aton_NN_interface.h **** #endif                             // LL_ATON_EB_DBG_INFO
 113:Lib/AI_Runtime/Npu/ll_aton/ll_aton_NN_interface.h ****   } EpochBlock_ItemTypeDef;
 114:Lib/AI_Runtime/Npu/ll_aton/ll_aton_NN_interface.h ****   typedef EpochBlock_ItemTypeDef LL_ATON_RT_EpochBlockItem_t;
 115:Lib/AI_Runtime/Npu/ll_aton/ll_aton_NN_interface.h **** 
 116:Lib/AI_Runtime/Npu/ll_aton/ll_aton_NN_interface.h ****   /**
 117:Lib/AI_Runtime/Npu/ll_aton/ll_aton_NN_interface.h ****    * @}
 118:Lib/AI_Runtime/Npu/ll_aton/ll_aton_NN_interface.h ****    */
 119:Lib/AI_Runtime/Npu/ll_aton/ll_aton_NN_interface.h **** 
 120:Lib/AI_Runtime/Npu/ll_aton/ll_aton_NN_interface.h ****   /** @defgroup Helper Function Declarations for User Callbacks
 121:Lib/AI_Runtime/Npu/ll_aton/ll_aton_NN_interface.h ****    * @{
 122:Lib/AI_Runtime/Npu/ll_aton/ll_aton_NN_interface.h ****    */
 123:Lib/AI_Runtime/Npu/ll_aton/ll_aton_NN_interface.h **** 
 124:Lib/AI_Runtime/Npu/ll_aton/ll_aton_NN_interface.h ****   /**
 125:Lib/AI_Runtime/Npu/ll_aton/ll_aton_NN_interface.h ****    * @brief Checks if the pointed element is the last one of an array of `const EpochBlock_ItemType
 126:Lib/AI_Runtime/Npu/ll_aton/ll_aton_NN_interface.h ****    *
 127:Lib/AI_Runtime/Npu/ll_aton/ll_aton_NN_interface.h ****    */
 128:Lib/AI_Runtime/Npu/ll_aton/ll_aton_NN_interface.h ****   static inline bool EpochBlock_IsLastEpochBlock(const EpochBlock_ItemTypeDef *eb);
 129:Lib/AI_Runtime/Npu/ll_aton/ll_aton_NN_interface.h **** 
 130:Lib/AI_Runtime/Npu/ll_aton/ll_aton_NN_interface.h ****   /**
 131:Lib/AI_Runtime/Npu/ll_aton/ll_aton_NN_interface.h ****    * @brief Checks if the pointed element is the first EpochBlock of an Epoch
 132:Lib/AI_Runtime/Npu/ll_aton/ll_aton_NN_interface.h ****    *
 133:Lib/AI_Runtime/Npu/ll_aton/ll_aton_NN_interface.h ****    */
 134:Lib/AI_Runtime/Npu/ll_aton/ll_aton_NN_interface.h ****   static inline bool EpochBlock_IsEpochStart(const EpochBlock_ItemTypeDef *eb);
 135:Lib/AI_Runtime/Npu/ll_aton/ll_aton_NN_interface.h **** 
 136:Lib/AI_Runtime/Npu/ll_aton/ll_aton_NN_interface.h ****   /**
 137:Lib/AI_Runtime/Npu/ll_aton/ll_aton_NN_interface.h ****    * @brief Checks if the pointed element is the last EpochBlock of an Epoch
 138:Lib/AI_Runtime/Npu/ll_aton/ll_aton_NN_interface.h ****    *
ARM GAS  C:\Users\DJESSOU\AppData\Local\Temp\ccruImXQ.s 			page 4


 139:Lib/AI_Runtime/Npu/ll_aton/ll_aton_NN_interface.h ****    */
 140:Lib/AI_Runtime/Npu/ll_aton/ll_aton_NN_interface.h ****   static inline bool EpochBlock_IsEpochEnd(const EpochBlock_ItemTypeDef *eb);
 141:Lib/AI_Runtime/Npu/ll_aton/ll_aton_NN_interface.h **** 
 142:Lib/AI_Runtime/Npu/ll_aton/ll_aton_NN_interface.h ****   /**
 143:Lib/AI_Runtime/Npu/ll_aton/ll_aton_NN_interface.h ****    * @brief Checks if the pointed element is the an Epoch Blob
 144:Lib/AI_Runtime/Npu/ll_aton/ll_aton_NN_interface.h ****    *
 145:Lib/AI_Runtime/Npu/ll_aton/ll_aton_NN_interface.h ****    */
 146:Lib/AI_Runtime/Npu/ll_aton/ll_aton_NN_interface.h ****   static inline bool EpochBlock_IsEpochBlob(const EpochBlock_ItemTypeDef *eb);
 147:Lib/AI_Runtime/Npu/ll_aton/ll_aton_NN_interface.h **** 
 148:Lib/AI_Runtime/Npu/ll_aton/ll_aton_NN_interface.h ****   /**
 149:Lib/AI_Runtime/Npu/ll_aton/ll_aton_NN_interface.h ****    * @brief Checks if - in case this epoch is a blob (see above) - the blob is encrypted
 150:Lib/AI_Runtime/Npu/ll_aton/ll_aton_NN_interface.h ****    *
 151:Lib/AI_Runtime/Npu/ll_aton/ll_aton_NN_interface.h ****    */
 152:Lib/AI_Runtime/Npu/ll_aton/ll_aton_NN_interface.h ****   static inline bool EpochBlock_IsBlobEncrypted(const EpochBlock_ItemTypeDef *eb);
 153:Lib/AI_Runtime/Npu/ll_aton/ll_aton_NN_interface.h **** 
 154:Lib/AI_Runtime/Npu/ll_aton/ll_aton_NN_interface.h ****   /**
 155:Lib/AI_Runtime/Npu/ll_aton/ll_aton_NN_interface.h ****    * @brief Checks if the pointed element is pure SW epoch
 156:Lib/AI_Runtime/Npu/ll_aton/ll_aton_NN_interface.h ****    *
 157:Lib/AI_Runtime/Npu/ll_aton/ll_aton_NN_interface.h ****    */
 158:Lib/AI_Runtime/Npu/ll_aton/ll_aton_NN_interface.h ****   static inline bool EpochBlock_IsEpochPureSW(const EpochBlock_ItemTypeDef *eb);
 159:Lib/AI_Runtime/Npu/ll_aton/ll_aton_NN_interface.h **** 
 160:Lib/AI_Runtime/Npu/ll_aton/ll_aton_NN_interface.h ****   /**
 161:Lib/AI_Runtime/Npu/ll_aton/ll_aton_NN_interface.h ****    * @brief Checks if the pointed element is a pure HW or mixed SW/HW epoch
 162:Lib/AI_Runtime/Npu/ll_aton/ll_aton_NN_interface.h ****    *
 163:Lib/AI_Runtime/Npu/ll_aton/ll_aton_NN_interface.h ****    */
 164:Lib/AI_Runtime/Npu/ll_aton/ll_aton_NN_interface.h ****   static inline bool EpochBlock_IsEpochPureHW(const EpochBlock_ItemTypeDef *eb);
 165:Lib/AI_Runtime/Npu/ll_aton/ll_aton_NN_interface.h **** 
 166:Lib/AI_Runtime/Npu/ll_aton/ll_aton_NN_interface.h ****   /**
 167:Lib/AI_Runtime/Npu/ll_aton/ll_aton_NN_interface.h ****    * @brief Checks if the pointed element is a hybrid epoch
 168:Lib/AI_Runtime/Npu/ll_aton/ll_aton_NN_interface.h ****    *
 169:Lib/AI_Runtime/Npu/ll_aton/ll_aton_NN_interface.h ****    */
 170:Lib/AI_Runtime/Npu/ll_aton/ll_aton_NN_interface.h ****   static inline bool EpochBlock_IsEpochHybrid(const EpochBlock_ItemTypeDef *eb);
 171:Lib/AI_Runtime/Npu/ll_aton/ll_aton_NN_interface.h **** 
 172:Lib/AI_Runtime/Npu/ll_aton/ll_aton_NN_interface.h ****   /**
 173:Lib/AI_Runtime/Npu/ll_aton/ll_aton_NN_interface.h ****    * @brief Checks if the pointed element is an internal epoch
 174:Lib/AI_Runtime/Npu/ll_aton/ll_aton_NN_interface.h ****    *
 175:Lib/AI_Runtime/Npu/ll_aton/ll_aton_NN_interface.h ****    */
 176:Lib/AI_Runtime/Npu/ll_aton/ll_aton_NN_interface.h ****   static inline bool EpochBlock_IsEpochInternal(const EpochBlock_ItemTypeDef *eb);
 177:Lib/AI_Runtime/Npu/ll_aton/ll_aton_NN_interface.h **** 
 178:Lib/AI_Runtime/Npu/ll_aton/ll_aton_NN_interface.h ****   /**
 179:Lib/AI_Runtime/Npu/ll_aton/ll_aton_NN_interface.h ****    * @brief Returns the Epoch controller id to use
 180:Lib/AI_Runtime/Npu/ll_aton/ll_aton_NN_interface.h ****    *
 181:Lib/AI_Runtime/Npu/ll_aton/ll_aton_NN_interface.h ****    */
 182:Lib/AI_Runtime/Npu/ll_aton/ll_aton_NN_interface.h ****   static inline uint32_t EpochBlock_EpochControllerUnit(const EpochBlock_ItemTypeDef *eb);
 183:Lib/AI_Runtime/Npu/ll_aton/ll_aton_NN_interface.h **** 
 184:Lib/AI_Runtime/Npu/ll_aton/ll_aton_NN_interface.h ****   /**
 185:Lib/AI_Runtime/Npu/ll_aton/ll_aton_NN_interface.h ****    * @brief Returns the address of the configuration of the epoch controller (the blob address)
 186:Lib/AI_Runtime/Npu/ll_aton/ll_aton_NN_interface.h ****    *
 187:Lib/AI_Runtime/Npu/ll_aton/ll_aton_NN_interface.h ****    */
 188:Lib/AI_Runtime/Npu/ll_aton/ll_aton_NN_interface.h ****   static inline uintptr_t EpochBlock_EpochBlobAddr(const EpochBlock_ItemTypeDef *eb);
 189:Lib/AI_Runtime/Npu/ll_aton/ll_aton_NN_interface.h **** 
 190:Lib/AI_Runtime/Npu/ll_aton/ll_aton_NN_interface.h ****   /**
 191:Lib/AI_Runtime/Npu/ll_aton/ll_aton_NN_interface.h ****    * @brief ATON buffer types definition
 192:Lib/AI_Runtime/Npu/ll_aton/ll_aton_NN_interface.h ****    */
 193:Lib/AI_Runtime/Npu/ll_aton/ll_aton_NN_interface.h **** 
 194:Lib/AI_Runtime/Npu/ll_aton/ll_aton_NN_interface.h ****   /**
 195:Lib/AI_Runtime/Npu/ll_aton/ll_aton_NN_interface.h ****    * @}
ARM GAS  C:\Users\DJESSOU\AppData\Local\Temp\ccruImXQ.s 			page 5


 196:Lib/AI_Runtime/Npu/ll_aton/ll_aton_NN_interface.h ****    */
 197:Lib/AI_Runtime/Npu/ll_aton/ll_aton_NN_interface.h **** 
 198:Lib/AI_Runtime/Npu/ll_aton/ll_aton_NN_interface.h ****   /** @defgroup Handle-style Data Types for Input, Output, and Internal Buffers
 199:Lib/AI_Runtime/Npu/ll_aton/ll_aton_NN_interface.h ****    * @{
 200:Lib/AI_Runtime/Npu/ll_aton/ll_aton_NN_interface.h ****    */
 201:Lib/AI_Runtime/Npu/ll_aton/ll_aton_NN_interface.h **** 
 202:Lib/AI_Runtime/Npu/ll_aton/ll_aton_NN_interface.h ****   typedef enum
 203:Lib/AI_Runtime/Npu/ll_aton/ll_aton_NN_interface.h ****   {
 204:Lib/AI_Runtime/Npu/ll_aton/ll_aton_NN_interface.h ****     DataType_UNDEFINED = 0,
 205:Lib/AI_Runtime/Npu/ll_aton/ll_aton_NN_interface.h ****     DataType_FLOAT = 1,
 206:Lib/AI_Runtime/Npu/ll_aton/ll_aton_NN_interface.h ****     DataType_UINT2 = 2,
 207:Lib/AI_Runtime/Npu/ll_aton/ll_aton_NN_interface.h ****     DataType_INT2 = 3,
 208:Lib/AI_Runtime/Npu/ll_aton/ll_aton_NN_interface.h ****     DataType_UINT4 = 4,
 209:Lib/AI_Runtime/Npu/ll_aton/ll_aton_NN_interface.h ****     DataType_INT4 = 5,
 210:Lib/AI_Runtime/Npu/ll_aton/ll_aton_NN_interface.h ****     DataType_UINT8 = 6,
 211:Lib/AI_Runtime/Npu/ll_aton/ll_aton_NN_interface.h ****     DataType_INT8 = 7,
 212:Lib/AI_Runtime/Npu/ll_aton/ll_aton_NN_interface.h ****     DataType_UINT16 = 8,
 213:Lib/AI_Runtime/Npu/ll_aton/ll_aton_NN_interface.h ****     DataType_INT16 = 9,
 214:Lib/AI_Runtime/Npu/ll_aton/ll_aton_NN_interface.h ****     DataType_INT32 = 10,
 215:Lib/AI_Runtime/Npu/ll_aton/ll_aton_NN_interface.h ****     DataType_INT64 = 11,
 216:Lib/AI_Runtime/Npu/ll_aton/ll_aton_NN_interface.h ****     DataType_STRING = 12,
 217:Lib/AI_Runtime/Npu/ll_aton/ll_aton_NN_interface.h ****     DataType_BOOL = 13,
 218:Lib/AI_Runtime/Npu/ll_aton/ll_aton_NN_interface.h ****     DataType_FLOAT16 = 14,
 219:Lib/AI_Runtime/Npu/ll_aton/ll_aton_NN_interface.h ****     DataType_DOUBLE = 15,
 220:Lib/AI_Runtime/Npu/ll_aton/ll_aton_NN_interface.h ****     DataType_UINT32 = 16,
 221:Lib/AI_Runtime/Npu/ll_aton/ll_aton_NN_interface.h ****     DataType_UINT64 = 17,
 222:Lib/AI_Runtime/Npu/ll_aton/ll_aton_NN_interface.h ****     DataType_COMPLEX64 = 18,
 223:Lib/AI_Runtime/Npu/ll_aton/ll_aton_NN_interface.h ****     DataType_COMPLEX128 = 19,
 224:Lib/AI_Runtime/Npu/ll_aton/ll_aton_NN_interface.h ****     DataType_BFLOAT16 = 20,
 225:Lib/AI_Runtime/Npu/ll_aton/ll_aton_NN_interface.h ****     DataType_FXP = 100 // AtoNN specific
 226:Lib/AI_Runtime/Npu/ll_aton/ll_aton_NN_interface.h ****   } Buffer_DataType_TypeDef;
 227:Lib/AI_Runtime/Npu/ll_aton/ll_aton_NN_interface.h **** 
 228:Lib/AI_Runtime/Npu/ll_aton/ll_aton_NN_interface.h ****   /**
 229:Lib/AI_Runtime/Npu/ll_aton/ll_aton_NN_interface.h ****    * @brief ATON buffer Channel position
 230:Lib/AI_Runtime/Npu/ll_aton/ll_aton_NN_interface.h ****    */
 231:Lib/AI_Runtime/Npu/ll_aton/ll_aton_NN_interface.h **** 
 232:Lib/AI_Runtime/Npu/ll_aton/ll_aton_NN_interface.h ****   typedef enum
 233:Lib/AI_Runtime/Npu/ll_aton/ll_aton_NN_interface.h ****   {
 234:Lib/AI_Runtime/Npu/ll_aton/ll_aton_NN_interface.h ****     CHPos_UNDEFINED = 0, /**< No channel present */
 235:Lib/AI_Runtime/Npu/ll_aton/ll_aton_NN_interface.h ****     CHPos_First = 1,     /**< Channel First         ( ...B C H W )*/
 236:Lib/AI_Runtime/Npu/ll_aton/ll_aton_NN_interface.h ****     CHPos_Last = 2,      /**< Channel Last          ( ...B H W C ) */
 237:Lib/AI_Runtime/Npu/ll_aton/ll_aton_NN_interface.h ****     CHPos_Mixed = 3,     /**< Channel with Batch(b) ( ...B C/b H W b ) */
 238:Lib/AI_Runtime/Npu/ll_aton/ll_aton_NN_interface.h ****   } Buffer_CHPos_TypeDef;
 239:Lib/AI_Runtime/Npu/ll_aton/ll_aton_NN_interface.h **** 
 240:Lib/AI_Runtime/Npu/ll_aton/ll_aton_NN_interface.h ****   /**
 241:Lib/AI_Runtime/Npu/ll_aton/ll_aton_NN_interface.h ****    * @brief ATON buffer definition
 242:Lib/AI_Runtime/Npu/ll_aton/ll_aton_NN_interface.h ****    */
 243:Lib/AI_Runtime/Npu/ll_aton/ll_aton_NN_interface.h ****   typedef struct
 244:Lib/AI_Runtime/Npu/ll_aton/ll_aton_NN_interface.h ****   {
 245:Lib/AI_Runtime/Npu/ll_aton/ll_aton_NN_interface.h ****     const char *name;             /**< Buffer name. NULL if end of list */
 246:Lib/AI_Runtime/Npu/ll_aton/ll_aton_NN_interface.h ****     __LL_address_t addr_base;     /**< Buffer base address */
 247:Lib/AI_Runtime/Npu/ll_aton/ll_aton_NN_interface.h ****     uint32_t offset_start;        /**< Offset of the buffer start address from the base address */
 248:Lib/AI_Runtime/Npu/ll_aton/ll_aton_NN_interface.h ****     uint32_t offset_end;          /**< Offset of the buffer end address from the base address
 249:Lib/AI_Runtime/Npu/ll_aton/ll_aton_NN_interface.h ****                                    *   (first bytes address beyond buffer length) */
 250:Lib/AI_Runtime/Npu/ll_aton/ll_aton_NN_interface.h ****     uint32_t offset_limit;        /**< Offset of the limiter address from the base address,
 251:Lib/AI_Runtime/Npu/ll_aton/ll_aton_NN_interface.h ****                                    *   (needed for configuring streaming engines) */
 252:Lib/AI_Runtime/Npu/ll_aton/ll_aton_NN_interface.h ****     uint8_t is_user_allocated;    /**< */
ARM GAS  C:\Users\DJESSOU\AppData\Local\Temp\ccruImXQ.s 			page 6


 253:Lib/AI_Runtime/Npu/ll_aton/ll_aton_NN_interface.h ****     uint8_t is_param;             /**< */
 254:Lib/AI_Runtime/Npu/ll_aton/ll_aton_NN_interface.h ****     uint16_t epoch;               /**< */
 255:Lib/AI_Runtime/Npu/ll_aton/ll_aton_NN_interface.h ****     uint32_t batch;               /**< */
 256:Lib/AI_Runtime/Npu/ll_aton/ll_aton_NN_interface.h ****     const uint32_t *mem_shape;    /**< shape as seen by the user in memory (only valid for input/ou
 257:Lib/AI_Runtime/Npu/ll_aton/ll_aton_NN_interface.h ****     uint16_t mem_ndims;           /**< Number of dimensions of mem_shape (Length of mem_shape) */
 258:Lib/AI_Runtime/Npu/ll_aton/ll_aton_NN_interface.h ****     Buffer_CHPos_TypeDef chpos;   /**< Position  of channels dimension in mem shape */
 259:Lib/AI_Runtime/Npu/ll_aton/ll_aton_NN_interface.h ****     Buffer_DataType_TypeDef type; /**< */
 260:Lib/AI_Runtime/Npu/ll_aton/ll_aton_NN_interface.h ****     int8_t Qm;                    /**< */
 261:Lib/AI_Runtime/Npu/ll_aton/ll_aton_NN_interface.h ****     int8_t Qn;                    /**< */
 262:Lib/AI_Runtime/Npu/ll_aton/ll_aton_NN_interface.h ****     uint8_t Qunsigned;            /**< */
 263:Lib/AI_Runtime/Npu/ll_aton/ll_aton_NN_interface.h ****     uint8_t ndims;                /**< */
 264:Lib/AI_Runtime/Npu/ll_aton/ll_aton_NN_interface.h ****     uint8_t nbits;                /**< */
 265:Lib/AI_Runtime/Npu/ll_aton/ll_aton_NN_interface.h ****     uint8_t per_channel;          /**< */
 266:Lib/AI_Runtime/Npu/ll_aton/ll_aton_NN_interface.h ****     const uint32_t *shape;        /**< */
 267:Lib/AI_Runtime/Npu/ll_aton/ll_aton_NN_interface.h ****     const float *scale;           /**< */
 268:Lib/AI_Runtime/Npu/ll_aton/ll_aton_NN_interface.h ****     const int16_t *offset;        /**< This can become int8 or uint8 based on the Qunsigned field.
 269:Lib/AI_Runtime/Npu/ll_aton/ll_aton_NN_interface.h ****                                    *   (This field Must have the same format of the quantized value
 270:Lib/AI_Runtime/Npu/ll_aton/ll_aton_NN_interface.h ****   } LL_Buffer_InfoTypeDef;
 271:Lib/AI_Runtime/Npu/ll_aton/ll_aton_NN_interface.h **** 
 272:Lib/AI_Runtime/Npu/ll_aton/ll_aton_NN_interface.h ****   /**
 273:Lib/AI_Runtime/Npu/ll_aton/ll_aton_NN_interface.h ****    * @}
 274:Lib/AI_Runtime/Npu/ll_aton/ll_aton_NN_interface.h ****    */
 275:Lib/AI_Runtime/Npu/ll_aton/ll_aton_NN_interface.h **** 
 276:Lib/AI_Runtime/Npu/ll_aton/ll_aton_NN_interface.h ****   /** @defgroup Helper Function Declarations for Buffer Analysis
 277:Lib/AI_Runtime/Npu/ll_aton/ll_aton_NN_interface.h ****    * @{
 278:Lib/AI_Runtime/Npu/ll_aton/ll_aton_NN_interface.h ****    */
 279:Lib/AI_Runtime/Npu/ll_aton/ll_aton_NN_interface.h **** 
 280:Lib/AI_Runtime/Npu/ll_aton/ll_aton_NN_interface.h ****   /**
 281:Lib/AI_Runtime/Npu/ll_aton/ll_aton_NN_interface.h ****    * @brief returns the base address of the mem pool the buffer is allocated in
 282:Lib/AI_Runtime/Npu/ll_aton/ll_aton_NN_interface.h ****    *
 283:Lib/AI_Runtime/Npu/ll_aton/ll_aton_NN_interface.h ****    */
 284:Lib/AI_Runtime/Npu/ll_aton/ll_aton_NN_interface.h ****   static inline unsigned char *LL_Buffer_addr_base(const LL_Buffer_InfoTypeDef *buf);
 285:Lib/AI_Runtime/Npu/ll_aton/ll_aton_NN_interface.h **** 
 286:Lib/AI_Runtime/Npu/ll_aton/ll_aton_NN_interface.h ****   /**
 287:Lib/AI_Runtime/Npu/ll_aton/ll_aton_NN_interface.h ****    * @brief returns the start address of the buffer
 288:Lib/AI_Runtime/Npu/ll_aton/ll_aton_NN_interface.h ****    *
 289:Lib/AI_Runtime/Npu/ll_aton/ll_aton_NN_interface.h ****    */
 290:Lib/AI_Runtime/Npu/ll_aton/ll_aton_NN_interface.h ****   static inline unsigned char *LL_Buffer_addr_start(const LL_Buffer_InfoTypeDef *buf);
 291:Lib/AI_Runtime/Npu/ll_aton/ll_aton_NN_interface.h **** 
 292:Lib/AI_Runtime/Npu/ll_aton/ll_aton_NN_interface.h ****   /**
 293:Lib/AI_Runtime/Npu/ll_aton/ll_aton_NN_interface.h ****    * @brief returns the end address of the buffer
 294:Lib/AI_Runtime/Npu/ll_aton/ll_aton_NN_interface.h ****    *
 295:Lib/AI_Runtime/Npu/ll_aton/ll_aton_NN_interface.h ****    */
 296:Lib/AI_Runtime/Npu/ll_aton/ll_aton_NN_interface.h ****   static inline unsigned char *LL_Buffer_addr_end(const LL_Buffer_InfoTypeDef *buf);
 297:Lib/AI_Runtime/Npu/ll_aton/ll_aton_NN_interface.h **** 
 298:Lib/AI_Runtime/Npu/ll_aton/ll_aton_NN_interface.h ****   /**
 299:Lib/AI_Runtime/Npu/ll_aton/ll_aton_NN_interface.h ****    * @brief returns the limit address of the buffer
 300:Lib/AI_Runtime/Npu/ll_aton/ll_aton_NN_interface.h ****    *
 301:Lib/AI_Runtime/Npu/ll_aton/ll_aton_NN_interface.h ****    */
 302:Lib/AI_Runtime/Npu/ll_aton/ll_aton_NN_interface.h ****   static inline unsigned char *LL_Buffer_addr_limit(const LL_Buffer_InfoTypeDef *buf);
 303:Lib/AI_Runtime/Npu/ll_aton/ll_aton_NN_interface.h **** 
 304:Lib/AI_Runtime/Npu/ll_aton/ll_aton_NN_interface.h ****   /**
 305:Lib/AI_Runtime/Npu/ll_aton/ll_aton_NN_interface.h ****    * @brief returns the length of the buffer
 306:Lib/AI_Runtime/Npu/ll_aton/ll_aton_NN_interface.h ****    *
 307:Lib/AI_Runtime/Npu/ll_aton/ll_aton_NN_interface.h ****    */
 308:Lib/AI_Runtime/Npu/ll_aton/ll_aton_NN_interface.h ****   static inline uint32_t LL_Buffer_len(const LL_Buffer_InfoTypeDef *buf);
 309:Lib/AI_Runtime/Npu/ll_aton/ll_aton_NN_interface.h **** 
ARM GAS  C:\Users\DJESSOU\AppData\Local\Temp\ccruImXQ.s 			page 7


 310:Lib/AI_Runtime/Npu/ll_aton/ll_aton_NN_interface.h ****   /**
 311:Lib/AI_Runtime/Npu/ll_aton/ll_aton_NN_interface.h ****    * @brief returns the buffer elements number of bits
 312:Lib/AI_Runtime/Npu/ll_aton/ll_aton_NN_interface.h ****    *
 313:Lib/AI_Runtime/Npu/ll_aton/ll_aton_NN_interface.h ****    */
 314:Lib/AI_Runtime/Npu/ll_aton/ll_aton_NN_interface.h ****   static inline uint32_t LL_Buffer_bits(const LL_Buffer_InfoTypeDef *buf);
 315:Lib/AI_Runtime/Npu/ll_aton/ll_aton_NN_interface.h **** 
 316:Lib/AI_Runtime/Npu/ll_aton/ll_aton_NN_interface.h ****   /**
 317:Lib/AI_Runtime/Npu/ll_aton/ll_aton_NN_interface.h ****    * @}
 318:Lib/AI_Runtime/Npu/ll_aton/ll_aton_NN_interface.h ****    */
 319:Lib/AI_Runtime/Npu/ll_aton/ll_aton_NN_interface.h **** 
 320:Lib/AI_Runtime/Npu/ll_aton/ll_aton_NN_interface.h ****   /** @defgroup Handle-style Data Types and Declaration Macros for ATON Runtime Execution & User AP
 321:Lib/AI_Runtime/Npu/ll_aton/ll_aton_NN_interface.h ****    * @{
 322:Lib/AI_Runtime/Npu/ll_aton/ll_aton_NN_interface.h ****    */
 323:Lib/AI_Runtime/Npu/ll_aton/ll_aton_NN_interface.h **** 
 324:Lib/AI_Runtime/Npu/ll_aton/ll_aton_NN_interface.h ****   struct __nn_instance_struct; // forward declaration
 325:Lib/AI_Runtime/Npu/ll_aton/ll_aton_NN_interface.h ****   typedef struct __nn_instance_struct NN_Instance_TypeDef;
 326:Lib/AI_Runtime/Npu/ll_aton/ll_aton_NN_interface.h **** 
 327:Lib/AI_Runtime/Npu/ll_aton/ll_aton_NN_interface.h **** /**
 328:Lib/AI_Runtime/Npu/ll_aton/ll_aton_NN_interface.h ****  * @brief Declare the function prototypes for named NN interface functions generated by the AtoNN c
 329:Lib/AI_Runtime/Npu/ll_aton/ll_aton_NN_interface.h ****  * @param network_name name of the network as provided by option `--network-name`
 330:Lib/AI_Runtime/Npu/ll_aton/ll_aton_NN_interface.h ****  */
 331:Lib/AI_Runtime/Npu/ll_aton/ll_aton_NN_interface.h **** #define LL_ATON_DECLARE_NAMED_NN_PROTOS(network_name)                                              
 332:Lib/AI_Runtime/Npu/ll_aton/ll_aton_NN_interface.h ****   extern bool LL_ATON_EC_Network_Init_##network_name(void);                                        
 333:Lib/AI_Runtime/Npu/ll_aton/ll_aton_NN_interface.h ****   extern bool LL_ATON_EC_Inference_Init_##network_name(void);                                      
 334:Lib/AI_Runtime/Npu/ll_aton/ll_aton_NN_interface.h ****   extern LL_ATON_User_IO_Result_t LL_ATON_Set_User_Input_Buffer_##network_name(uint32_t num, void *
 335:Lib/AI_Runtime/Npu/ll_aton/ll_aton_NN_interface.h ****                                                                                uint32_t size);     
 336:Lib/AI_Runtime/Npu/ll_aton/ll_aton_NN_interface.h ****   extern void *LL_ATON_Get_User_Input_Buffer_##network_name(uint32_t num);                         
 337:Lib/AI_Runtime/Npu/ll_aton/ll_aton_NN_interface.h ****   extern LL_ATON_User_IO_Result_t LL_ATON_Set_User_Output_Buffer_##network_name(uint32_t num, void 
 338:Lib/AI_Runtime/Npu/ll_aton/ll_aton_NN_interface.h ****                                                                                 uint32_t size);    
 339:Lib/AI_Runtime/Npu/ll_aton/ll_aton_NN_interface.h ****   extern void *LL_ATON_Get_User_Output_Buffer_##network_name(uint32_t num);                        
 340:Lib/AI_Runtime/Npu/ll_aton/ll_aton_NN_interface.h ****   extern const EpochBlock_ItemTypeDef *LL_ATON_EpochBlockItems_##network_name(void);               
 341:Lib/AI_Runtime/Npu/ll_aton/ll_aton_NN_interface.h ****   extern const LL_Buffer_InfoTypeDef *LL_ATON_Output_Buffers_Info_##network_name(void);            
 342:Lib/AI_Runtime/Npu/ll_aton/ll_aton_NN_interface.h ****   extern const LL_Buffer_InfoTypeDef *LL_ATON_Input_Buffers_Info_##network_name(void);             
 343:Lib/AI_Runtime/Npu/ll_aton/ll_aton_NN_interface.h ****   extern const LL_Streng_EncryptionTypedef *LL_ATON_WeightEncryption_Info_##network_name(void);    
 344:Lib/AI_Runtime/Npu/ll_aton/ll_aton_NN_interface.h ****   extern const LL_Streng_EncryptionTypedef *LL_ATON_BlobEncryption_Info_##network_name(void);      
 345:Lib/AI_Runtime/Npu/ll_aton/ll_aton_NN_interface.h ****   extern const LL_Buffer_InfoTypeDef *LL_ATON_Internal_Buffers_Info_##network_name(void);
 346:Lib/AI_Runtime/Npu/ll_aton/ll_aton_NN_interface.h **** 
 347:Lib/AI_Runtime/Npu/ll_aton/ll_aton_NN_interface.h ****   /**
 348:Lib/AI_Runtime/Npu/ll_aton/ll_aton_NN_interface.h ****    * @brief  Type definitions for NN interface functions
 349:Lib/AI_Runtime/Npu/ll_aton/ll_aton_NN_interface.h ****    */
 350:Lib/AI_Runtime/Npu/ll_aton/ll_aton_NN_interface.h ****   typedef bool (*NN_EC_Hook_TypeDef)(void);
 351:Lib/AI_Runtime/Npu/ll_aton/ll_aton_NN_interface.h ****   typedef LL_ATON_User_IO_Result_t (*NN_InputSetter_TypeDef)(uint32_t num, void *buffer, uint32_t s
 352:Lib/AI_Runtime/Npu/ll_aton/ll_aton_NN_interface.h ****   typedef void *(*NN_InputGetter_TypeDef)(uint32_t num);
 353:Lib/AI_Runtime/Npu/ll_aton/ll_aton_NN_interface.h ****   typedef LL_ATON_User_IO_Result_t (*NN_OutputSetter_TypeDef)(uint32_t num, void *buffer, uint32_t 
 354:Lib/AI_Runtime/Npu/ll_aton/ll_aton_NN_interface.h ****   typedef void *(*NN_OutputGetter_TypeDef)(uint32_t num);
 355:Lib/AI_Runtime/Npu/ll_aton/ll_aton_NN_interface.h ****   typedef const EpochBlock_ItemTypeDef *(*NN_EpochBlockItems_TypeDef)(void);
 356:Lib/AI_Runtime/Npu/ll_aton/ll_aton_NN_interface.h ****   typedef const LL_Streng_EncryptionTypedef *(*NN_Encryption_Info_TypeDef)(void);
 357:Lib/AI_Runtime/Npu/ll_aton/ll_aton_NN_interface.h ****   typedef const LL_Buffer_InfoTypeDef *(*NN_Buffers_Info_TypeDef)(void);
 358:Lib/AI_Runtime/Npu/ll_aton/ll_aton_NN_interface.h **** 
 359:Lib/AI_Runtime/Npu/ll_aton/ll_aton_NN_interface.h ****   typedef void (*TraceRuntime_FuncPtr_t)(LL_ATON_RT_Callbacktype_t ctype);
 360:Lib/AI_Runtime/Npu/ll_aton/ll_aton_NN_interface.h **** 
 361:Lib/AI_Runtime/Npu/ll_aton/ll_aton_NN_interface.h ****   typedef void (*TraceEpochBlock_FuncPtr_t)(LL_ATON_RT_Callbacktype_t ctype, const NN_Instance_Type
 362:Lib/AI_Runtime/Npu/ll_aton/ll_aton_NN_interface.h ****                                             const EpochBlock_ItemTypeDef *epoch_block);
 363:Lib/AI_Runtime/Npu/ll_aton/ll_aton_NN_interface.h **** 
 364:Lib/AI_Runtime/Npu/ll_aton/ll_aton_NN_interface.h ****   typedef struct
 365:Lib/AI_Runtime/Npu/ll_aton/ll_aton_NN_interface.h ****   {
 366:Lib/AI_Runtime/Npu/ll_aton/ll_aton_NN_interface.h ****     const char *network_name;
ARM GAS  C:\Users\DJESSOU\AppData\Local\Temp\ccruImXQ.s 			page 8


 367:Lib/AI_Runtime/Npu/ll_aton/ll_aton_NN_interface.h ****     NN_EC_Hook_TypeDef ec_network_init;
 368:Lib/AI_Runtime/Npu/ll_aton/ll_aton_NN_interface.h ****     NN_EC_Hook_TypeDef ec_inference_init;
 369:Lib/AI_Runtime/Npu/ll_aton/ll_aton_NN_interface.h ****     NN_InputSetter_TypeDef input_setter;
 370:Lib/AI_Runtime/Npu/ll_aton/ll_aton_NN_interface.h ****     NN_InputGetter_TypeDef input_getter;
 371:Lib/AI_Runtime/Npu/ll_aton/ll_aton_NN_interface.h ****     NN_OutputSetter_TypeDef output_setter;
 372:Lib/AI_Runtime/Npu/ll_aton/ll_aton_NN_interface.h ****     NN_OutputGetter_TypeDef output_getter;
 373:Lib/AI_Runtime/Npu/ll_aton/ll_aton_NN_interface.h ****     NN_EpochBlockItems_TypeDef epoch_block_items;
 374:Lib/AI_Runtime/Npu/ll_aton/ll_aton_NN_interface.h ****     NN_Buffers_Info_TypeDef output_buffers_info;
 375:Lib/AI_Runtime/Npu/ll_aton/ll_aton_NN_interface.h ****     NN_Buffers_Info_TypeDef input_buffers_info;
 376:Lib/AI_Runtime/Npu/ll_aton/ll_aton_NN_interface.h ****     NN_Encryption_Info_TypeDef blob_encryption_info;
 377:Lib/AI_Runtime/Npu/ll_aton/ll_aton_NN_interface.h ****     NN_Encryption_Info_TypeDef weight_encryption_info;
 378:Lib/AI_Runtime/Npu/ll_aton/ll_aton_NN_interface.h ****     NN_Buffers_Info_TypeDef internal_buffers_info;
 379:Lib/AI_Runtime/Npu/ll_aton/ll_aton_NN_interface.h ****   } NN_Interface_TypeDef;
 380:Lib/AI_Runtime/Npu/ll_aton/ll_aton_NN_interface.h **** 
 381:Lib/AI_Runtime/Npu/ll_aton/ll_aton_NN_interface.h ****   typedef struct
 382:Lib/AI_Runtime/Npu/ll_aton/ll_aton_NN_interface.h ****   {
 383:Lib/AI_Runtime/Npu/ll_aton/ll_aton_NN_interface.h ****     const EpochBlock_ItemTypeDef *volatile current_epoch_block; // pointer to current epoch block
 384:Lib/AI_Runtime/Npu/ll_aton/ll_aton_NN_interface.h ****     const EpochBlock_ItemTypeDef *volatile first_epoch_block;   // pointer to first epoch block in 
 385:Lib/AI_Runtime/Npu/ll_aton/ll_aton_NN_interface.h ****     const EpochBlock_ItemTypeDef *volatile next_epoch_block;    // pointer to epoch block to be ins
 386:Lib/AI_Runtime/Npu/ll_aton/ll_aton_NN_interface.h **** 
 387:Lib/AI_Runtime/Npu/ll_aton/ll_aton_NN_interface.h ****     const EpochBlock_ItemTypeDef *volatile saved_current_epoch_block; // pointer to saved current e
 388:Lib/AI_Runtime/Npu/ll_aton/ll_aton_NN_interface.h ****     const EpochBlock_ItemTypeDef
 389:Lib/AI_Runtime/Npu/ll_aton/ll_aton_NN_interface.h ****         *volatile saved_first_epoch_block; // pointer to saved first epoch block in current epoch l
 390:Lib/AI_Runtime/Npu/ll_aton/ll_aton_NN_interface.h **** 
 391:Lib/AI_Runtime/Npu/ll_aton/ll_aton_NN_interface.h ****     bool inference_started; // inference has been started
 392:Lib/AI_Runtime/Npu/ll_aton/ll_aton_NN_interface.h **** 
 393:Lib/AI_Runtime/Npu/ll_aton/ll_aton_NN_interface.h **** #if (LL_ATON_RT_MODE == LL_ATON_RT_ASYNC)
 394:Lib/AI_Runtime/Npu/ll_aton/ll_aton_NN_interface.h ****     volatile uint32_t triggered_events;        // currently triggered events/IRQs in current epoch
 395:Lib/AI_Runtime/Npu/ll_aton/ll_aton_NN_interface.h ****     volatile bool current_epoch_block_started; // has current epoch block already been started
 396:Lib/AI_Runtime/Npu/ll_aton/ll_aton_NN_interface.h **** #endif                                         // (LL_ATON_RT_MODE == LL_ATON_RT_ASYNC)
 397:Lib/AI_Runtime/Npu/ll_aton/ll_aton_NN_interface.h **** 
 398:Lib/AI_Runtime/Npu/ll_aton/ll_aton_NN_interface.h **** #ifndef NDEBUG
 399:Lib/AI_Runtime/Npu/ll_aton/ll_aton_NN_interface.h ****     volatile uint32_t
 400:Lib/AI_Runtime/Npu/ll_aton/ll_aton_NN_interface.h ****         nr_of_epoch_blocks; // number of epoch blocks in network (includes also terminating empty e
 401:Lib/AI_Runtime/Npu/ll_aton/ll_aton_NN_interface.h ****     volatile uint32_t saved_nr_of_epoch_blocks; // number of epoch blocks in saved network (include
 402:Lib/AI_Runtime/Npu/ll_aton/ll_aton_NN_interface.h ****                                                 // empty epoch block)
 403:Lib/AI_Runtime/Npu/ll_aton/ll_aton_NN_interface.h **** #endif                                          // !NDEBUG
 404:Lib/AI_Runtime/Npu/ll_aton/ll_aton_NN_interface.h **** 
 405:Lib/AI_Runtime/Npu/ll_aton/ll_aton_NN_interface.h ****     TraceEpochBlock_FuncPtr_t epoch_callback_function; // epoch callback function
 406:Lib/AI_Runtime/Npu/ll_aton/ll_aton_NN_interface.h **** 
 407:Lib/AI_Runtime/Npu/ll_aton/ll_aton_NN_interface.h **** #if defined(LL_ATON_RT_RELOC)
 408:Lib/AI_Runtime/Npu/ll_aton/ll_aton_NN_interface.h ****     uint32_t inst_reloc;
 409:Lib/AI_Runtime/Npu/ll_aton/ll_aton_NN_interface.h **** #endif
 410:Lib/AI_Runtime/Npu/ll_aton/ll_aton_NN_interface.h **** 
 411:Lib/AI_Runtime/Npu/ll_aton/ll_aton_NN_interface.h ****   } NN_Execution_State_TypeDef;
 412:Lib/AI_Runtime/Npu/ll_aton/ll_aton_NN_interface.h **** 
 413:Lib/AI_Runtime/Npu/ll_aton/ll_aton_NN_interface.h ****   struct __nn_instance_struct
 414:Lib/AI_Runtime/Npu/ll_aton/ll_aton_NN_interface.h ****   {
 415:Lib/AI_Runtime/Npu/ll_aton/ll_aton_NN_interface.h ****     const NN_Interface_TypeDef *network;
 416:Lib/AI_Runtime/Npu/ll_aton/ll_aton_NN_interface.h ****     NN_Execution_State_TypeDef exec_state;
 417:Lib/AI_Runtime/Npu/ll_aton/ll_aton_NN_interface.h ****   };
 418:Lib/AI_Runtime/Npu/ll_aton/ll_aton_NN_interface.h **** 
 419:Lib/AI_Runtime/Npu/ll_aton/ll_aton_NN_interface.h ****   /**
 420:Lib/AI_Runtime/Npu/ll_aton/ll_aton_NN_interface.h ****    * @}
 421:Lib/AI_Runtime/Npu/ll_aton/ll_aton_NN_interface.h ****    */
 422:Lib/AI_Runtime/Npu/ll_aton/ll_aton_NN_interface.h **** 
 423:Lib/AI_Runtime/Npu/ll_aton/ll_aton_NN_interface.h ****   /** @defgroup Helper Function Inline Implementations
ARM GAS  C:\Users\DJESSOU\AppData\Local\Temp\ccruImXQ.s 			page 9


 424:Lib/AI_Runtime/Npu/ll_aton/ll_aton_NN_interface.h ****    * @{
 425:Lib/AI_Runtime/Npu/ll_aton/ll_aton_NN_interface.h ****    */
 426:Lib/AI_Runtime/Npu/ll_aton/ll_aton_NN_interface.h **** 
 427:Lib/AI_Runtime/Npu/ll_aton/ll_aton_NN_interface.h ****   static inline bool EpochBlock_IsLastEpochBlock(const EpochBlock_ItemTypeDef *eb)
 428:Lib/AI_Runtime/Npu/ll_aton/ll_aton_NN_interface.h ****   {
 429:Lib/AI_Runtime/Npu/ll_aton/ll_aton_NN_interface.h ****     return ((eb->flags & EpochBlock_Flags_last_eb) != 0);
 430:Lib/AI_Runtime/Npu/ll_aton/ll_aton_NN_interface.h ****   }
 431:Lib/AI_Runtime/Npu/ll_aton/ll_aton_NN_interface.h **** 
 432:Lib/AI_Runtime/Npu/ll_aton/ll_aton_NN_interface.h ****   static inline bool EpochBlock_IsEpochStart(const EpochBlock_ItemTypeDef *eb)
 433:Lib/AI_Runtime/Npu/ll_aton/ll_aton_NN_interface.h ****   {
 434:Lib/AI_Runtime/Npu/ll_aton/ll_aton_NN_interface.h ****     return ((eb->flags & EpochBlock_Flags_epoch_start) != 0);
 435:Lib/AI_Runtime/Npu/ll_aton/ll_aton_NN_interface.h ****   }
 436:Lib/AI_Runtime/Npu/ll_aton/ll_aton_NN_interface.h **** 
 437:Lib/AI_Runtime/Npu/ll_aton/ll_aton_NN_interface.h ****   static inline bool EpochBlock_IsEpochEnd(const EpochBlock_ItemTypeDef *eb)
 438:Lib/AI_Runtime/Npu/ll_aton/ll_aton_NN_interface.h ****   {
 439:Lib/AI_Runtime/Npu/ll_aton/ll_aton_NN_interface.h ****     return ((eb->flags & EpochBlock_Flags_epoch_end) != 0);
 440:Lib/AI_Runtime/Npu/ll_aton/ll_aton_NN_interface.h ****   }
 441:Lib/AI_Runtime/Npu/ll_aton/ll_aton_NN_interface.h **** 
 442:Lib/AI_Runtime/Npu/ll_aton/ll_aton_NN_interface.h ****   static inline bool EpochBlock_IsEpochBlob(const EpochBlock_ItemTypeDef *eb)
 443:Lib/AI_Runtime/Npu/ll_aton/ll_aton_NN_interface.h ****   {
 444:Lib/AI_Runtime/Npu/ll_aton/ll_aton_NN_interface.h ****     return ((eb->flags & EpochBlock_Flags_blob) != 0);
 445:Lib/AI_Runtime/Npu/ll_aton/ll_aton_NN_interface.h ****   }
 446:Lib/AI_Runtime/Npu/ll_aton/ll_aton_NN_interface.h **** 
 447:Lib/AI_Runtime/Npu/ll_aton/ll_aton_NN_interface.h ****   static inline bool EpochBlock_IsBlobEncrypted(const EpochBlock_ItemTypeDef *eb)
 448:Lib/AI_Runtime/Npu/ll_aton/ll_aton_NN_interface.h ****   {
 449:Lib/AI_Runtime/Npu/ll_aton/ll_aton_NN_interface.h ****     return ((eb->flags & EpochBlock_Flags_blob_encrypted) != 0);
 450:Lib/AI_Runtime/Npu/ll_aton/ll_aton_NN_interface.h ****   }
 451:Lib/AI_Runtime/Npu/ll_aton/ll_aton_NN_interface.h **** 
 452:Lib/AI_Runtime/Npu/ll_aton/ll_aton_NN_interface.h ****   static inline bool EpochBlock_IsEpochPureSW(const EpochBlock_ItemTypeDef *eb)
 453:Lib/AI_Runtime/Npu/ll_aton/ll_aton_NN_interface.h ****   {
 454:Lib/AI_Runtime/Npu/ll_aton/ll_aton_NN_interface.h ****     return ((eb->flags & EpochBlock_Flags_pure_sw) != 0);
 455:Lib/AI_Runtime/Npu/ll_aton/ll_aton_NN_interface.h ****   }
 456:Lib/AI_Runtime/Npu/ll_aton/ll_aton_NN_interface.h **** 
 457:Lib/AI_Runtime/Npu/ll_aton/ll_aton_NN_interface.h ****   static inline bool EpochBlock_IsEpochPureHW(const EpochBlock_ItemTypeDef *eb)
 458:Lib/AI_Runtime/Npu/ll_aton/ll_aton_NN_interface.h ****   {
 459:Lib/AI_Runtime/Npu/ll_aton/ll_aton_NN_interface.h ****     return ((eb->flags & EpochBlock_Flags_pure_hw) != 0);
 460:Lib/AI_Runtime/Npu/ll_aton/ll_aton_NN_interface.h ****   }
 461:Lib/AI_Runtime/Npu/ll_aton/ll_aton_NN_interface.h **** 
 462:Lib/AI_Runtime/Npu/ll_aton/ll_aton_NN_interface.h ****   static inline bool EpochBlock_IsEpochHybrid(const EpochBlock_ItemTypeDef *eb)
 463:Lib/AI_Runtime/Npu/ll_aton/ll_aton_NN_interface.h ****   {
 464:Lib/AI_Runtime/Npu/ll_aton/ll_aton_NN_interface.h ****     return ((eb->flags & EpochBlock_Flags_hybrid) != 0);
 465:Lib/AI_Runtime/Npu/ll_aton/ll_aton_NN_interface.h ****   }
 466:Lib/AI_Runtime/Npu/ll_aton/ll_aton_NN_interface.h **** 
 467:Lib/AI_Runtime/Npu/ll_aton/ll_aton_NN_interface.h ****   static inline bool EpochBlock_IsEpochInternal(const EpochBlock_ItemTypeDef *eb)
 468:Lib/AI_Runtime/Npu/ll_aton/ll_aton_NN_interface.h ****   {
 469:Lib/AI_Runtime/Npu/ll_aton/ll_aton_NN_interface.h ****     return ((eb->flags & EpochBlock_Flags_internal) != 0);
 470:Lib/AI_Runtime/Npu/ll_aton/ll_aton_NN_interface.h ****   }
 471:Lib/AI_Runtime/Npu/ll_aton/ll_aton_NN_interface.h **** 
 472:Lib/AI_Runtime/Npu/ll_aton/ll_aton_NN_interface.h ****   static inline uint32_t EpochBlock_EpochControllerUnit(const EpochBlock_ItemTypeDef *eb)
 473:Lib/AI_Runtime/Npu/ll_aton/ll_aton_NN_interface.h ****   {
 474:Lib/AI_Runtime/Npu/ll_aton/ll_aton_NN_interface.h ****     LL_ATON_ASSERT(EpochBlock_IsEpochBlob(eb));
 475:Lib/AI_Runtime/Npu/ll_aton/ll_aton_NN_interface.h ****     return eb->wait_mask;
 476:Lib/AI_Runtime/Npu/ll_aton/ll_aton_NN_interface.h ****   }
 477:Lib/AI_Runtime/Npu/ll_aton/ll_aton_NN_interface.h **** 
 478:Lib/AI_Runtime/Npu/ll_aton/ll_aton_NN_interface.h ****   static inline uintptr_t EpochBlock_EpochBlobAddr(const EpochBlock_ItemTypeDef *eb)
 479:Lib/AI_Runtime/Npu/ll_aton/ll_aton_NN_interface.h ****   {
 480:Lib/AI_Runtime/Npu/ll_aton/ll_aton_NN_interface.h ****     LL_ATON_ASSERT(EpochBlock_IsEpochBlob(eb));
ARM GAS  C:\Users\DJESSOU\AppData\Local\Temp\ccruImXQ.s 			page 10


 481:Lib/AI_Runtime/Npu/ll_aton/ll_aton_NN_interface.h ****     return eb->blob_address;
 482:Lib/AI_Runtime/Npu/ll_aton/ll_aton_NN_interface.h ****   }
 483:Lib/AI_Runtime/Npu/ll_aton/ll_aton_NN_interface.h **** 
 484:Lib/AI_Runtime/Npu/ll_aton/ll_aton_NN_interface.h ****   static inline unsigned char *LL_Buffer_addr_base(const LL_Buffer_InfoTypeDef *buf)
 485:Lib/AI_Runtime/Npu/ll_aton/ll_aton_NN_interface.h ****   {
 486:Lib/AI_Runtime/Npu/ll_aton/ll_aton_NN_interface.h ****     if (buf->is_user_allocated)
 487:Lib/AI_Runtime/Npu/ll_aton/ll_aton_NN_interface.h ****     {
 488:Lib/AI_Runtime/Npu/ll_aton/ll_aton_NN_interface.h ****       unsigned char **tmp = (unsigned char **)buf->addr_base.p;
 489:Lib/AI_Runtime/Npu/ll_aton/ll_aton_NN_interface.h ****       return *tmp;
 490:Lib/AI_Runtime/Npu/ll_aton/ll_aton_NN_interface.h ****     }
 491:Lib/AI_Runtime/Npu/ll_aton/ll_aton_NN_interface.h ****     return buf->addr_base.p;
 492:Lib/AI_Runtime/Npu/ll_aton/ll_aton_NN_interface.h ****   }
 493:Lib/AI_Runtime/Npu/ll_aton/ll_aton_NN_interface.h **** 
 494:Lib/AI_Runtime/Npu/ll_aton/ll_aton_NN_interface.h ****   static inline unsigned char *LL_Buffer_addr_start(const LL_Buffer_InfoTypeDef *buf)
 495:Lib/AI_Runtime/Npu/ll_aton/ll_aton_NN_interface.h ****   {
  35              		.loc 2 495 3 view -0
  36              		.cfi_startproc
  37              		@ args = 0, pretend = 0, frame = 0
  38              		@ frame_needed = 0, uses_anonymous_args = 0
  39              		@ link register save eliminated.
 496:Lib/AI_Runtime/Npu/ll_aton/ll_aton_NN_interface.h ****     return LL_Buffer_addr_base(buf) + buf->offset_start;
  40              		.loc 2 496 5 view .LVU1
  41              	.LBB9:
  42              	.LBI9:
 484:Lib/AI_Runtime/Npu/ll_aton/ll_aton_NN_interface.h ****   {
  43              		.loc 2 484 32 view .LVU2
  44              	.LBB10:
 486:Lib/AI_Runtime/Npu/ll_aton/ll_aton_NN_interface.h ****     {
  45              		.loc 2 486 5 view .LVU3
 486:Lib/AI_Runtime/Npu/ll_aton/ll_aton_NN_interface.h ****     {
  46              		.loc 2 486 8 is_stmt 0 view .LVU4
  47 0000 027D     		ldrb	r2, [r0, #20]	@ zero_extendqisi2
  48              	.LBB11:
 488:Lib/AI_Runtime/Npu/ll_aton/ll_aton_NN_interface.h ****       return *tmp;
  49              		.loc 2 488 23 view .LVU5
  50 0002 4368     		ldr	r3, [r0, #4]
  51              	.LBE11:
 486:Lib/AI_Runtime/Npu/ll_aton/ll_aton_NN_interface.h ****     {
  52              		.loc 2 486 8 view .LVU6
  53 0004 02B1     		cbz	r2, .L2
  54              	.LBB12:
 488:Lib/AI_Runtime/Npu/ll_aton/ll_aton_NN_interface.h ****       return *tmp;
  55              		.loc 2 488 7 is_stmt 1 view .LVU7
  56              	.LVL1:
 489:Lib/AI_Runtime/Npu/ll_aton/ll_aton_NN_interface.h ****     }
  57              		.loc 2 489 7 view .LVU8
 489:Lib/AI_Runtime/Npu/ll_aton/ll_aton_NN_interface.h ****     }
  58              		.loc 2 489 14 is_stmt 0 view .LVU9
  59 0006 1B68     		ldr	r3, [r3]
  60              	.LVL2:
  61              	.L2:
 489:Lib/AI_Runtime/Npu/ll_aton/ll_aton_NN_interface.h ****     }
  62              		.loc 2 489 14 view .LVU10
  63              	.LBE12:
  64              	.LBE10:
  65              	.LBE9:
  66              		.loc 2 496 37 discriminator 1 view .LVU11
ARM GAS  C:\Users\DJESSOU\AppData\Local\Temp\ccruImXQ.s 			page 11


  67 0008 8068     		ldr	r0, [r0, #8]
  68              	.LVL3:
 497:Lib/AI_Runtime/Npu/ll_aton/ll_aton_NN_interface.h ****   }
  69              		.loc 2 497 3 view .LVU12
  70 000a 1844     		add	r0, r0, r3
  71 000c 7047     		bx	lr
  72              		.cfi_endproc
  73              	.LFE15:
  75              		.section	.text.__ll_aton_stai_check_context_network_handle.constprop.0,"ax",%progbits
  76              		.align	1
  77              		.syntax unified
  78              		.thumb
  79              		.thumb_func
  81              	__ll_aton_stai_check_context_network_handle.constprop.0:
  82              	.LVL4:
  83              	.LFB329:
  84              		.file 3 "Lib/AI_Runtime/Npu/ll_aton/ll_aton_stai_internal.h"
   1:Lib/AI_Runtime/Npu/ll_aton/ll_aton_stai_internal.h **** /**
   2:Lib/AI_Runtime/Npu/ll_aton/ll_aton_stai_internal.h ****  ******************************************************************************
   3:Lib/AI_Runtime/Npu/ll_aton/ll_aton_stai_internal.h ****  * @file    ll_aton_stai_internal.h
   4:Lib/AI_Runtime/Npu/ll_aton/ll_aton_stai_internal.h ****  * @author  SRA Artificial Intelligence & Embedded Architectures
   5:Lib/AI_Runtime/Npu/ll_aton/ll_aton_stai_internal.h ****  * @brief   Implementation of ST.AI public & internal APIs for ATON
   6:Lib/AI_Runtime/Npu/ll_aton/ll_aton_stai_internal.h ****  ******************************************************************************
   7:Lib/AI_Runtime/Npu/ll_aton/ll_aton_stai_internal.h ****  * @attention
   8:Lib/AI_Runtime/Npu/ll_aton/ll_aton_stai_internal.h ****  *
   9:Lib/AI_Runtime/Npu/ll_aton/ll_aton_stai_internal.h ****  * Copyright (c) 2024 STMicroelectronics.
  10:Lib/AI_Runtime/Npu/ll_aton/ll_aton_stai_internal.h ****  * All rights reserved.
  11:Lib/AI_Runtime/Npu/ll_aton/ll_aton_stai_internal.h ****  *
  12:Lib/AI_Runtime/Npu/ll_aton/ll_aton_stai_internal.h ****  * This software is licensed under terms that can be found in the LICENSE file
  13:Lib/AI_Runtime/Npu/ll_aton/ll_aton_stai_internal.h ****  * in the root directory of this software component.
  14:Lib/AI_Runtime/Npu/ll_aton/ll_aton_stai_internal.h ****  * If no LICENSE file comes with this software, it is provided AS-IS.
  15:Lib/AI_Runtime/Npu/ll_aton/ll_aton_stai_internal.h ****  *
  16:Lib/AI_Runtime/Npu/ll_aton/ll_aton_stai_internal.h ****  ******************************************************************************
  17:Lib/AI_Runtime/Npu/ll_aton/ll_aton_stai_internal.h ****  */
  18:Lib/AI_Runtime/Npu/ll_aton/ll_aton_stai_internal.h **** 
  19:Lib/AI_Runtime/Npu/ll_aton/ll_aton_stai_internal.h **** #ifndef __LL_ATON_STAI_INTERNAL_H
  20:Lib/AI_Runtime/Npu/ll_aton/ll_aton_stai_internal.h **** #define __LL_ATON_STAI_INTERNAL_H
  21:Lib/AI_Runtime/Npu/ll_aton/ll_aton_stai_internal.h **** 
  22:Lib/AI_Runtime/Npu/ll_aton/ll_aton_stai_internal.h **** // ATON headers
  23:Lib/AI_Runtime/Npu/ll_aton/ll_aton_stai_internal.h **** #include "ll_aton_rt_user_api.h"
  24:Lib/AI_Runtime/Npu/ll_aton/ll_aton_stai_internal.h **** #include "ll_aton_util.h"
  25:Lib/AI_Runtime/Npu/ll_aton/ll_aton_stai_internal.h **** 
  26:Lib/AI_Runtime/Npu/ll_aton/ll_aton_stai_internal.h **** // ST.AI headers
  27:Lib/AI_Runtime/Npu/ll_aton/ll_aton_stai_internal.h **** #include "stai_aton_common.h"
  28:Lib/AI_Runtime/Npu/ll_aton/ll_aton_stai_internal.h **** 
  29:Lib/AI_Runtime/Npu/ll_aton/ll_aton_stai_internal.h **** #ifdef __cplusplus
  30:Lib/AI_Runtime/Npu/ll_aton/ll_aton_stai_internal.h **** extern "C"
  31:Lib/AI_Runtime/Npu/ll_aton/ll_aton_stai_internal.h **** {
  32:Lib/AI_Runtime/Npu/ll_aton/ll_aton_stai_internal.h **** #endif
  33:Lib/AI_Runtime/Npu/ll_aton/ll_aton_stai_internal.h **** 
  34:Lib/AI_Runtime/Npu/ll_aton/ll_aton_stai_internal.h **** /*****************************************************************************/
  35:Lib/AI_Runtime/Npu/ll_aton/ll_aton_stai_internal.h **** #define STAI_INTERNAL_ENTRY /* STAI_INTERNAL_ENTRY */
  36:Lib/AI_Runtime/Npu/ll_aton/ll_aton_stai_internal.h **** #define STAI_SIZE(_size)    ((stai_size)(_size))
  37:Lib/AI_Runtime/Npu/ll_aton/ll_aton_stai_internal.h **** 
  38:Lib/AI_Runtime/Npu/ll_aton/ll_aton_stai_internal.h **** /*****************************************************************************/
  39:Lib/AI_Runtime/Npu/ll_aton/ll_aton_stai_internal.h **** #define STAI_INIT_BUFFER(_flags, _size, _address)                                                  
  40:Lib/AI_Runtime/Npu/ll_aton/ll_aton_stai_internal.h ****   {                                                                                                
ARM GAS  C:\Users\DJESSOU\AppData\Local\Temp\ccruImXQ.s 			page 12


  41:Lib/AI_Runtime/Npu/ll_aton/ll_aton_stai_internal.h ****     .size = (_size), .address = (uintptr_t)(_address), .flags = (_flags),                          
  42:Lib/AI_Runtime/Npu/ll_aton/ll_aton_stai_internal.h ****   }
  43:Lib/AI_Runtime/Npu/ll_aton/ll_aton_stai_internal.h **** 
  44:Lib/AI_Runtime/Npu/ll_aton/ll_aton_stai_internal.h **** #define STAI_INIT_TENSOR(_name, _flags, _fmt, _size_bytes, _shape, _scale, _zeropoint)             
  45:Lib/AI_Runtime/Npu/ll_aton/ll_aton_stai_internal.h ****   {                                                                                                
  46:Lib/AI_Runtime/Npu/ll_aton/ll_aton_stai_internal.h ****     .size_bytes = (_size_bytes), .flags = (_flags), .format = (stai_format)(_fmt), .shape = STAI_PA
  47:Lib/AI_Runtime/Npu/ll_aton/ll_aton_stai_internal.h ****     .scale = STAI_PACK(_scale), .zeropoint = STAI_PACK(_zeropoint), .name = (_name)                
  48:Lib/AI_Runtime/Npu/ll_aton/ll_aton_stai_internal.h ****   }
  49:Lib/AI_Runtime/Npu/ll_aton/ll_aton_stai_internal.h **** 
  50:Lib/AI_Runtime/Npu/ll_aton/ll_aton_stai_internal.h **** #define STAI_INIT_ARRAY(_size, _ptr)                                                               
  51:Lib/AI_Runtime/Npu/ll_aton/ll_aton_stai_internal.h ****   {                                                                                                
  52:Lib/AI_Runtime/Npu/ll_aton/ll_aton_stai_internal.h ****     .size = STAI_SIZE(_size), .data = STAI_PACK(_ptr)                                              
  53:Lib/AI_Runtime/Npu/ll_aton/ll_aton_stai_internal.h ****   }
  54:Lib/AI_Runtime/Npu/ll_aton/ll_aton_stai_internal.h **** 
  55:Lib/AI_Runtime/Npu/ll_aton/ll_aton_stai_internal.h **** #define STAI_CAST_ARRAY(_type, _size, _ptr)                                                        
  56:Lib/AI_Runtime/Npu/ll_aton/ll_aton_stai_internal.h ****   {                                                                                                
  57:Lib/AI_Runtime/Npu/ll_aton/ll_aton_stai_internal.h ****     .size = STAI_SIZE(_size), .data = (_type)STAI_PACK(_ptr)                                       
  58:Lib/AI_Runtime/Npu/ll_aton/ll_aton_stai_internal.h ****   }
  59:Lib/AI_Runtime/Npu/ll_aton/ll_aton_stai_internal.h **** 
  60:Lib/AI_Runtime/Npu/ll_aton/ll_aton_stai_internal.h **** #define STAI_DECLARE_ARRAY(_type, _size, _array_initializer)                                       
  61:Lib/AI_Runtime/Npu/ll_aton/ll_aton_stai_internal.h ****   {                                                                                                
  62:Lib/AI_Runtime/Npu/ll_aton/ll_aton_stai_internal.h ****     .size = STAI_SIZE(_size), .data = (_type[_size])STAI_PACK(_array_initializer)                  
  63:Lib/AI_Runtime/Npu/ll_aton/ll_aton_stai_internal.h ****   }
  64:Lib/AI_Runtime/Npu/ll_aton/ll_aton_stai_internal.h **** 
  65:Lib/AI_Runtime/Npu/ll_aton/ll_aton_stai_internal.h **** #define STAI_EMPTY_ARRAY()                                                                         
  66:Lib/AI_Runtime/Npu/ll_aton/ll_aton_stai_internal.h ****   {                                                                                                
  67:Lib/AI_Runtime/Npu/ll_aton/ll_aton_stai_internal.h ****     .size = 0, .data = NULL                                                                        
  68:Lib/AI_Runtime/Npu/ll_aton/ll_aton_stai_internal.h ****   }
  69:Lib/AI_Runtime/Npu/ll_aton/ll_aton_stai_internal.h **** 
  70:Lib/AI_Runtime/Npu/ll_aton/ll_aton_stai_internal.h **** #define STAI_INIT_VERSION(_major, _minor, _micro)                                                  
  71:Lib/AI_Runtime/Npu/ll_aton/ll_aton_stai_internal.h ****   {                                                                                                
  72:Lib/AI_Runtime/Npu/ll_aton/ll_aton_stai_internal.h ****     .major = (_major), .minor = (_minor), .micro = (_micro), .reserved = 0x0                       
  73:Lib/AI_Runtime/Npu/ll_aton/ll_aton_stai_internal.h ****   }
  74:Lib/AI_Runtime/Npu/ll_aton/ll_aton_stai_internal.h **** 
  75:Lib/AI_Runtime/Npu/ll_aton/ll_aton_stai_internal.h **** /*****************************************************************************/
  76:Lib/AI_Runtime/Npu/ll_aton/ll_aton_stai_internal.h **** /**  Internal ATON ST.AI APIs                                               **/
  77:Lib/AI_Runtime/Npu/ll_aton/ll_aton_stai_internal.h **** /*****************************************************************************/
  78:Lib/AI_Runtime/Npu/ll_aton/ll_aton_stai_internal.h **** 
  79:Lib/AI_Runtime/Npu/ll_aton/ll_aton_stai_internal.h **** /*****************************************************************************/
  80:Lib/AI_Runtime/Npu/ll_aton/ll_aton_stai_internal.h **** /**Macros **/
  81:Lib/AI_Runtime/Npu/ll_aton/ll_aton_stai_internal.h **** /* Set context error */
  82:Lib/AI_Runtime/Npu/ll_aton/ll_aton_stai_internal.h **** #define __LL_ATON_STAI_SET_1ST_CTX_ERROR_AND_RETURN(ctx, err)                                      
  83:Lib/AI_Runtime/Npu/ll_aton/ll_aton_stai_internal.h ****   do                                                                                               
  84:Lib/AI_Runtime/Npu/ll_aton/ll_aton_stai_internal.h ****   {                                                                                                
  85:Lib/AI_Runtime/Npu/ll_aton/ll_aton_stai_internal.h ****     /* check context handle */                                                                     
  86:Lib/AI_Runtime/Npu/ll_aton/ll_aton_stai_internal.h ****     if (!(ctx))                                                                                    
  87:Lib/AI_Runtime/Npu/ll_aton/ll_aton_stai_internal.h ****       return STAI_ERROR_NETWORK_INVALID_CONTEXT_HANDLE;                                            
  88:Lib/AI_Runtime/Npu/ll_aton/ll_aton_stai_internal.h ****                                                                                                    
  89:Lib/AI_Runtime/Npu/ll_aton/ll_aton_stai_internal.h ****     if (((ctx)->first_error) < STAI_ERROR_GENERIC)                                                 
  90:Lib/AI_Runtime/Npu/ll_aton/ll_aton_stai_internal.h ****       (ctx)->first_error = (err);                                                                  
  91:Lib/AI_Runtime/Npu/ll_aton/ll_aton_stai_internal.h ****     return (err);                                                                                  
  92:Lib/AI_Runtime/Npu/ll_aton/ll_aton_stai_internal.h ****   } while (0)
  93:Lib/AI_Runtime/Npu/ll_aton/ll_aton_stai_internal.h **** 
  94:Lib/AI_Runtime/Npu/ll_aton/ll_aton_stai_internal.h **** /* check context & network interface handle */
  95:Lib/AI_Runtime/Npu/ll_aton/ll_aton_stai_internal.h **** #define __LL_ATON_STAI_ACQUIRE_INTERFACE(_net_interface, _network)                                 
  96:Lib/AI_Runtime/Npu/ll_aton/ll_aton_stai_internal.h ****   const NN_Interface_TypeDef *_net_interface = NULL;                                               
  97:Lib/AI_Runtime/Npu/ll_aton/ll_aton_stai_internal.h ****   stai_return_code _ret = __ll_aton_stai_check_context_network_handle(_network, &_net_interface);  
ARM GAS  C:\Users\DJESSOU\AppData\Local\Temp\ccruImXQ.s 			page 13


  98:Lib/AI_Runtime/Npu/ll_aton/ll_aton_stai_internal.h ****   if (_ret >= STAI_ERROR_GENERIC)                                                                  
  99:Lib/AI_Runtime/Npu/ll_aton/ll_aton_stai_internal.h ****     return _ret;
 100:Lib/AI_Runtime/Npu/ll_aton/ll_aton_stai_internal.h **** 
 101:Lib/AI_Runtime/Npu/ll_aton/ll_aton_stai_internal.h **** #define __LL_ATON_START_CONT_EXEC(_nn_instance)                                                    
 102:Lib/AI_Runtime/Npu/ll_aton/ll_aton_stai_internal.h ****   do                                                                                               
 103:Lib/AI_Runtime/Npu/ll_aton/ll_aton_stai_internal.h ****   {                                                                                                
 104:Lib/AI_Runtime/Npu/ll_aton/ll_aton_stai_internal.h ****     STAI_ASSERT((_nn_instance) != NULL);                                                           
 105:Lib/AI_Runtime/Npu/ll_aton/ll_aton_stai_internal.h ****     _stai_aton_context *_stai_nn_ctx =                                                             
 106:Lib/AI_Runtime/Npu/ll_aton/ll_aton_stai_internal.h ****         (_stai_aton_context *)((void *)(_nn_instance)) - offsetof(_stai_aton_context, network_insta
 107:Lib/AI_Runtime/Npu/ll_aton/ll_aton_stai_internal.h ****                                                                                                    
 108:Lib/AI_Runtime/Npu/ll_aton/ll_aton_stai_internal.h ****     /* start/continue execution */                                                                 
 109:Lib/AI_Runtime/Npu/ll_aton/ll_aton_stai_internal.h ****     __ll_aton_stai_set_execution_status(LL_ATON_RT_RunEpochBlock((_nn_instance)), _stai_nn_ctx);   
 110:Lib/AI_Runtime/Npu/ll_aton/ll_aton_stai_internal.h ****                                                                                                    
 111:Lib/AI_Runtime/Npu/ll_aton/ll_aton_stai_internal.h ****     /* get current execution status */                                                             
 112:Lib/AI_Runtime/Npu/ll_aton/ll_aton_stai_internal.h ****     stai_return_code current_exec_status = __ll_aton_stai_get_execution_status(_stai_nn_ctx);      
 113:Lib/AI_Runtime/Npu/ll_aton/ll_aton_stai_internal.h ****     return current_exec_status;                                                                    
 114:Lib/AI_Runtime/Npu/ll_aton/ll_aton_stai_internal.h ****   } while (0)
 115:Lib/AI_Runtime/Npu/ll_aton/ll_aton_stai_internal.h **** 
 116:Lib/AI_Runtime/Npu/ll_aton/ll_aton_stai_internal.h ****   /** Functions **/
 117:Lib/AI_Runtime/Npu/ll_aton/ll_aton_stai_internal.h ****   STAI_API_DECLARE_BEGIN
 118:Lib/AI_Runtime/Npu/ll_aton/ll_aton_stai_internal.h **** 
 119:Lib/AI_Runtime/Npu/ll_aton/ll_aton_stai_internal.h ****   STAI_INTERNAL_ENTRY
 120:Lib/AI_Runtime/Npu/ll_aton/ll_aton_stai_internal.h ****   static inline stai_return_code __ll_aton_stai_check_context_network_handle(stai_network *network,
  85              		.loc 3 120 34 is_stmt 1 view -0
  86              		.cfi_startproc
  87              		@ args = 0, pretend = 0, frame = 0
  88              		@ frame_needed = 0, uses_anonymous_args = 0
  89              		@ link register save eliminated.
 121:Lib/AI_Runtime/Npu/ll_aton/ll_aton_stai_internal.h ****                                                                              const NN_Interface_Typ
 122:Lib/AI_Runtime/Npu/ll_aton/ll_aton_stai_internal.h ****   {
 123:Lib/AI_Runtime/Npu/ll_aton/ll_aton_stai_internal.h ****     /* check context handle */
 124:Lib/AI_Runtime/Npu/ll_aton/ll_aton_stai_internal.h ****     if (!network)
  90              		.loc 3 124 5 view .LVU14
  91              		.loc 3 124 8 is_stmt 0 view .LVU15
  92 0000 40B1     		cbz	r0, .L7
 125:Lib/AI_Runtime/Npu/ll_aton/ll_aton_stai_internal.h ****       return STAI_ERROR_NETWORK_INVALID_CONTEXT_HANDLE;
 126:Lib/AI_Runtime/Npu/ll_aton/ll_aton_stai_internal.h **** 
 127:Lib/AI_Runtime/Npu/ll_aton/ll_aton_stai_internal.h ****     /* check network handle */
 128:Lib/AI_Runtime/Npu/ll_aton/ll_aton_stai_internal.h ****     _stai_aton_context *context_ptr = (_stai_aton_context *)network;
  93              		.loc 3 128 5 is_stmt 1 view .LVU16
  94              	.LVL5:
 129:Lib/AI_Runtime/Npu/ll_aton/ll_aton_stai_internal.h ****     const NN_Interface_TypeDef *nn_i_ptr = context_ptr->network_instance.network;
  95              		.loc 3 129 5 view .LVU17
  96              		.loc 3 129 33 is_stmt 0 view .LVU18
  97 0002 0368     		ldr	r3, [r0]
  98              	.LVL6:
 130:Lib/AI_Runtime/Npu/ll_aton/ll_aton_stai_internal.h ****     if (!nn_i_ptr)
  99              		.loc 3 130 5 is_stmt 1 view .LVU19
 100              		.loc 3 130 8 is_stmt 0 view .LVU20
 101 0004 4BB9     		cbnz	r3, .L8
 131:Lib/AI_Runtime/Npu/ll_aton/ll_aton_stai_internal.h ****     {
 132:Lib/AI_Runtime/Npu/ll_aton/ll_aton_stai_internal.h ****       __LL_ATON_STAI_SET_1ST_CTX_ERROR_AND_RETURN(context_ptr, STAI_ERROR_NETWORK_INVALID_CONTEXT_H
 102              		.loc 3 132 7 is_stmt 1 view .LVU21
 103              		.loc 3 132 7 view .LVU22
 104              		.loc 3 132 7 discriminator 2 view .LVU23
 105 0006 C36B     		ldr	r3, [r0, #60]
 106              	.LVL7:
ARM GAS  C:\Users\DJESSOU\AppData\Local\Temp\ccruImXQ.s 			page 14


 107              		.loc 3 132 7 is_stmt 0 discriminator 2 view .LVU24
 108 0008 B3F5003F 		cmp	r3, #131072
 109              		.loc 3 132 7 is_stmt 1 discriminator 3 view .LVU25
 110 000c 3CBF     		itt	cc
 111 000e 4FF44033 		movcc	r3, #196608
 112 0012 C363     		strcc	r3, [r0, #60]
 113              	.LVL8:
 114              	.L7:
 125:Lib/AI_Runtime/Npu/ll_aton/ll_aton_stai_internal.h **** 
 115              		.loc 3 125 14 is_stmt 0 view .LVU26
 116 0014 4FF44030 		mov	r0, #196608
 117              	.LVL9:
 125:Lib/AI_Runtime/Npu/ll_aton/ll_aton_stai_internal.h **** 
 118              		.loc 3 125 14 view .LVU27
 119 0018 7047     		bx	lr
 120              	.LVL10:
 121              	.L8:
 122              		.loc 3 132 7 is_stmt 1 view .LVU28
 133:Lib/AI_Runtime/Npu/ll_aton/ll_aton_stai_internal.h ****     }
 134:Lib/AI_Runtime/Npu/ll_aton/ll_aton_stai_internal.h **** 
 135:Lib/AI_Runtime/Npu/ll_aton/ll_aton_stai_internal.h ****     /* save network pointer */
 136:Lib/AI_Runtime/Npu/ll_aton/ll_aton_stai_internal.h ****     *nn_i_ptr_ptr = nn_i_ptr;
 123              		.loc 3 136 5 view .LVU29
 137:Lib/AI_Runtime/Npu/ll_aton/ll_aton_stai_internal.h ****     return STAI_SUCCESS;
 124              		.loc 3 137 12 is_stmt 0 view .LVU30
 125 001a 0020     		movs	r0, #0
 126              	.LVL11:
 136:Lib/AI_Runtime/Npu/ll_aton/ll_aton_stai_internal.h ****     return STAI_SUCCESS;
 127              		.loc 3 136 19 view .LVU31
 128 001c 0B60     		str	r3, [r1]
 129              		.loc 3 137 5 is_stmt 1 view .LVU32
 138:Lib/AI_Runtime/Npu/ll_aton/ll_aton_stai_internal.h ****   }
 130              		.loc 3 138 3 is_stmt 0 view .LVU33
 131 001e 7047     		bx	lr
 132              		.cfi_endproc
 133              	.LFE329:
 135              		.section	.rodata.__ll_aton_stai_palm_detector_set_outputs_or_activations.str1.1,"aMS",%progbits,1
 136              	.LC0:
 137 0000 62756666 		.ascii	"buffer_info->offset_start == 0\000"
 137      65725F69 
 137      6E666F2D 
 137      3E6F6666 
 137      7365745F 
 138              	.LC1:
 139 001f 4D6F6465 		.ascii	"Model/stai_palm_detector.c\000"
 139      6C2F7374 
 139      61695F70 
 139      616C6D5F 
 139      64657465 
 140              	.LC2:
 141 003a 61646472 		.ascii	"address_location != ((void *)0)\000"
 141      6573735F 
 141      6C6F6361 
 141      74696F6E 
 141      20213D20 
 142              		.section	.text.__ll_aton_stai_palm_detector_set_outputs_or_activations,"ax",%progbits
 143              		.align	1
ARM GAS  C:\Users\DJESSOU\AppData\Local\Temp\ccruImXQ.s 			page 15


 144              		.syntax unified
 145              		.thumb
 146              		.thumb_func
 148              	__ll_aton_stai_palm_detector_set_outputs_or_activations:
 149              	.LVL12:
 150              	.LFB306:
   1:Model/stai_palm_detector.c **** 
   2:Model/stai_palm_detector.c **** /* AUTOGENERATED DO NOT MODIFY */
   3:Model/stai_palm_detector.c **** 
   4:Model/stai_palm_detector.c **** /**
   5:Model/stai_palm_detector.c ****  ******************************************************************************
   6:Model/stai_palm_detector.c ****  * @file    stai_palm_detector.c
   7:Model/stai_palm_detector.c ****  * @author  SRA Artificial Intelligence & Embedded Architectures
   8:Model/stai_palm_detector.c ****  * @brief   Implementation of ST.AI platform public APIs for ATON
   9:Model/stai_palm_detector.c ****  ******************************************************************************
  10:Model/stai_palm_detector.c ****  * @attention
  11:Model/stai_palm_detector.c ****  *
  12:Model/stai_palm_detector.c ****  * Copyright (c) 2024 STMicroelectronics.
  13:Model/stai_palm_detector.c ****  * All rights reserved.
  14:Model/stai_palm_detector.c ****  *
  15:Model/stai_palm_detector.c ****  * This software is licensed under terms that can be found in the LICENSE file
  16:Model/stai_palm_detector.c ****  * in the root directory of this software component.
  17:Model/stai_palm_detector.c ****  * If no LICENSE file comes with this software, it is provided AS-IS.
  18:Model/stai_palm_detector.c ****  *
  19:Model/stai_palm_detector.c ****  ******************************************************************************
  20:Model/stai_palm_detector.c ****  */
  21:Model/stai_palm_detector.c **** 
  22:Model/stai_palm_detector.c **** #include "stai_palm_detector.h"
  23:Model/stai_palm_detector.c **** #include "ll_aton_rt_user_api.h"
  24:Model/stai_palm_detector.c **** #include "ll_aton_util.h"
  25:Model/stai_palm_detector.c **** #include "ll_aton_version.h"
  26:Model/stai_palm_detector.c **** 
  27:Model/stai_palm_detector.c **** /* Status variables */
  28:Model/stai_palm_detector.c **** LL_ATON_DECLARE_NAMED_NN_INTERFACE(palm_detector);
  29:Model/stai_palm_detector.c **** 
  30:Model/stai_palm_detector.c **** /* Helper macros & functions */
  31:Model/stai_palm_detector.c **** #define __LL_ATON_STAI_CHECK_NETWORK_INTERFACE(nn_interface_ptr, ctx)                              
  32:Model/stai_palm_detector.c ****   do                                                                                               
  33:Model/stai_palm_detector.c ****   {                                                                                                
  34:Model/stai_palm_detector.c ****     if ((nn_interface_ptr) != &NN_Interface_palm_detector)                                         
  35:Model/stai_palm_detector.c ****       __LL_ATON_STAI_SET_1ST_CTX_ERROR_AND_RETURN((ctx), STAI_ERROR_NETWORK_INVALID_CONTEXT_HANDLE)
  36:Model/stai_palm_detector.c ****   } while (0)
  37:Model/stai_palm_detector.c **** 
  38:Model/stai_palm_detector.c **** static inline stai_return_code __ll_aton_stai_palm_detector_get_inputs_or_weights(stai_network *net
  39:Model/stai_palm_detector.c ****                                                                                           stai_ptr 
  40:Model/stai_palm_detector.c ****                                                                                           stai_size
  41:Model/stai_palm_detector.c ****                                                                                           bool inpu
  42:Model/stai_palm_detector.c **** {
  43:Model/stai_palm_detector.c ****   __LL_ATON_STAI_ACQUIRE_INTERFACE(nn_i_ptr, network);
  44:Model/stai_palm_detector.c ****   __LL_ATON_STAI_CHECK_NETWORK_INTERFACE(nn_i_ptr, (_stai_aton_context *)network);
  45:Model/stai_palm_detector.c **** 
  46:Model/stai_palm_detector.c ****   /* check parameters */
  47:Model/stai_palm_detector.c ****   if (!n_ptrs)
  48:Model/stai_palm_detector.c ****     __LL_ATON_STAI_SET_1ST_CTX_ERROR_AND_RETURN((_stai_aton_context *)network,
  49:Model/stai_palm_detector.c ****                                                 STAI_ERROR_NETWORK_INVALID_API_ARGUMENTS);
  50:Model/stai_palm_detector.c **** 
  51:Model/stai_palm_detector.c ****   /* get input buffers */
ARM GAS  C:\Users\DJESSOU\AppData\Local\Temp\ccruImXQ.s 			page 16


  52:Model/stai_palm_detector.c ****   const LL_Buffer_InfoTypeDef *input_buffers = nn_i_ptr->input_buffers_info();
  53:Model/stai_palm_detector.c **** 
  54:Model/stai_palm_detector.c ****   /* copy buffer addresses */
  55:Model/stai_palm_detector.c ****   unsigned cnt = 0;
  56:Model/stai_palm_detector.c ****   if (input_buffers != NULL)
  57:Model/stai_palm_detector.c ****   {
  58:Model/stai_palm_detector.c ****     for (unsigned idx = 0; input_buffers[idx].name != NULL; idx++)
  59:Model/stai_palm_detector.c ****     {
  60:Model/stai_palm_detector.c ****       const LL_Buffer_InfoTypeDef *buffer_info = &input_buffers[idx];
  61:Model/stai_palm_detector.c ****       if (inputs == !buffer_info->is_param)
  62:Model/stai_palm_detector.c ****       {
  63:Model/stai_palm_detector.c ****         if (pointers)
  64:Model/stai_palm_detector.c ****         {
  65:Model/stai_palm_detector.c ****           if (buffer_info->is_user_allocated) // is it an user allocatable buffer
  66:Model/stai_palm_detector.c ****           {
  67:Model/stai_palm_detector.c ****             LL_ATON_ASSERT(buffer_info->offset_start ==
  68:Model/stai_palm_detector.c ****                            0); // user allocated buffers always have an offset equal to zero
  69:Model/stai_palm_detector.c ****             pointers[cnt] = LL_Buffer_addr_start(buffer_info); // user allocated buffers are saved 
  70:Model/stai_palm_detector.c ****             LL_ATON_ASSERT(((uintptr_t)pointers[cnt] % STAI_CACHE_USER_BUFFER_ALIGNMENT) == 0);
  71:Model/stai_palm_detector.c ****           }
  72:Model/stai_palm_detector.c ****           else // buffer is not user allocatable
  73:Model/stai_palm_detector.c ****           {
  74:Model/stai_palm_detector.c ****             pointers[cnt] = ATON_LIB_PHYSICAL_TO_VIRTUAL_ADDR(LL_Buffer_addr_start(buffer_info));
  75:Model/stai_palm_detector.c ****           }
  76:Model/stai_palm_detector.c ****         }
  77:Model/stai_palm_detector.c ****         cnt++;
  78:Model/stai_palm_detector.c ****       }
  79:Model/stai_palm_detector.c ****     }
  80:Model/stai_palm_detector.c ****   }
  81:Model/stai_palm_detector.c ****   else
  82:Model/stai_palm_detector.c ****   {
  83:Model/stai_palm_detector.c ****     STAI_ASSERT((inputs ? STAI_PALM_DETECTOR_IN_NUM : STAI_PALM_DETECTOR_WEIGHTS_NUM) == 0);
  84:Model/stai_palm_detector.c ****   }
  85:Model/stai_palm_detector.c **** #ifndef NDEBUG
  86:Model/stai_palm_detector.c ****   if (inputs)
  87:Model/stai_palm_detector.c ****   {
  88:Model/stai_palm_detector.c ****     STAI_ASSERT(cnt == STAI_PALM_DETECTOR_IN_NUM);
  89:Model/stai_palm_detector.c ****   }
  90:Model/stai_palm_detector.c ****   else
  91:Model/stai_palm_detector.c ****   {
  92:Model/stai_palm_detector.c ****     STAI_ASSERT(cnt == STAI_PALM_DETECTOR_WEIGHTS_NUM);
  93:Model/stai_palm_detector.c ****   }
  94:Model/stai_palm_detector.c **** #endif // !NDEBUG
  95:Model/stai_palm_detector.c **** 
  96:Model/stai_palm_detector.c ****   /* save number of elements return value */
  97:Model/stai_palm_detector.c ****   if (inputs)
  98:Model/stai_palm_detector.c ****   {
  99:Model/stai_palm_detector.c ****     *n_ptrs = STAI_PALM_DETECTOR_IN_NUM;
 100:Model/stai_palm_detector.c ****   }
 101:Model/stai_palm_detector.c ****   else
 102:Model/stai_palm_detector.c ****   {
 103:Model/stai_palm_detector.c ****     *n_ptrs = STAI_PALM_DETECTOR_WEIGHTS_NUM;
 104:Model/stai_palm_detector.c ****   }
 105:Model/stai_palm_detector.c **** 
 106:Model/stai_palm_detector.c ****   return STAI_SUCCESS;
 107:Model/stai_palm_detector.c **** }
 108:Model/stai_palm_detector.c **** 
ARM GAS  C:\Users\DJESSOU\AppData\Local\Temp\ccruImXQ.s 			page 17


 109:Model/stai_palm_detector.c **** static inline stai_return_code __ll_aton_stai_palm_detector_get_outputs_or_activations(stai_network
 110:Model/stai_palm_detector.c ****                                                                                                stai
 111:Model/stai_palm_detector.c ****                                                                                                stai
 112:Model/stai_palm_detector.c ****                                                                                                bool
 113:Model/stai_palm_detector.c **** {
 114:Model/stai_palm_detector.c ****   /* check context & network interface handle */
 115:Model/stai_palm_detector.c ****   __LL_ATON_STAI_ACQUIRE_INTERFACE(nn_i_ptr, network);
 116:Model/stai_palm_detector.c ****   __LL_ATON_STAI_CHECK_NETWORK_INTERFACE(nn_i_ptr, (_stai_aton_context *)network);
 117:Model/stai_palm_detector.c **** 
 118:Model/stai_palm_detector.c ****   /* check parameters */
 119:Model/stai_palm_detector.c ****   if (!n_ptrs)
 120:Model/stai_palm_detector.c ****     __LL_ATON_STAI_SET_1ST_CTX_ERROR_AND_RETURN((_stai_aton_context *)network,
 121:Model/stai_palm_detector.c ****                                                 STAI_ERROR_NETWORK_INVALID_API_ARGUMENTS);
 122:Model/stai_palm_detector.c **** 
 123:Model/stai_palm_detector.c ****   /* get output buffers */
 124:Model/stai_palm_detector.c ****   const LL_Buffer_InfoTypeDef *out_activ_buffers;
 125:Model/stai_palm_detector.c ****   if (outputs)
 126:Model/stai_palm_detector.c ****   {
 127:Model/stai_palm_detector.c ****     out_activ_buffers = nn_i_ptr->output_buffers_info();
 128:Model/stai_palm_detector.c ****   }
 129:Model/stai_palm_detector.c ****   else
 130:Model/stai_palm_detector.c ****   {
 131:Model/stai_palm_detector.c ****     out_activ_buffers = nn_i_ptr->internal_buffers_info();
 132:Model/stai_palm_detector.c ****   }
 133:Model/stai_palm_detector.c **** 
 134:Model/stai_palm_detector.c ****   /* copy buffer addresses */
 135:Model/stai_palm_detector.c ****   unsigned cnt = 0;
 136:Model/stai_palm_detector.c ****   if (out_activ_buffers != NULL)
 137:Model/stai_palm_detector.c ****   {
 138:Model/stai_palm_detector.c ****     for (unsigned idx = 0; out_activ_buffers[idx].name != NULL; idx++)
 139:Model/stai_palm_detector.c ****     {
 140:Model/stai_palm_detector.c ****       const LL_Buffer_InfoTypeDef *buffer_info = &out_activ_buffers[idx];
 141:Model/stai_palm_detector.c ****       STAI_ASSERT(!buffer_info->is_param); // may never happen
 142:Model/stai_palm_detector.c ****       if (pointers)
 143:Model/stai_palm_detector.c ****       {
 144:Model/stai_palm_detector.c ****         if (buffer_info->is_user_allocated) // is it a user allocatable buffer
 145:Model/stai_palm_detector.c ****         {
 146:Model/stai_palm_detector.c ****           LL_ATON_ASSERT(buffer_info->offset_start == 0); // user allocated buffers always have an 
 147:Model/stai_palm_detector.c ****           pointers[cnt] = LL_Buffer_addr_start(buffer_info); // user allocated buffers are saved wi
 148:Model/stai_palm_detector.c ****           LL_ATON_ASSERT(((uintptr_t)pointers[cnt] % STAI_CACHE_USER_BUFFER_ALIGNMENT) == 0);
 149:Model/stai_palm_detector.c ****         }
 150:Model/stai_palm_detector.c ****         else // buffer is not user allocatable
 151:Model/stai_palm_detector.c ****         {
 152:Model/stai_palm_detector.c ****           pointers[cnt] = ATON_LIB_PHYSICAL_TO_VIRTUAL_ADDR(LL_Buffer_addr_start(buffer_info));
 153:Model/stai_palm_detector.c ****         }
 154:Model/stai_palm_detector.c ****       }
 155:Model/stai_palm_detector.c ****       cnt++;
 156:Model/stai_palm_detector.c ****     }
 157:Model/stai_palm_detector.c ****   }
 158:Model/stai_palm_detector.c ****   else
 159:Model/stai_palm_detector.c ****   {
 160:Model/stai_palm_detector.c ****     STAI_ASSERT((outputs ? STAI_PALM_DETECTOR_OUT_NUM : STAI_PALM_DETECTOR_ACTIVATIONS_NUM) == 0);
 161:Model/stai_palm_detector.c ****   }
 162:Model/stai_palm_detector.c **** #ifndef NDEBUG
 163:Model/stai_palm_detector.c ****   if (outputs)
 164:Model/stai_palm_detector.c ****   {
 165:Model/stai_palm_detector.c ****     STAI_ASSERT(cnt == STAI_PALM_DETECTOR_OUT_NUM);
ARM GAS  C:\Users\DJESSOU\AppData\Local\Temp\ccruImXQ.s 			page 18


 166:Model/stai_palm_detector.c ****   }
 167:Model/stai_palm_detector.c ****   else
 168:Model/stai_palm_detector.c ****   {
 169:Model/stai_palm_detector.c ****     STAI_ASSERT(cnt == STAI_PALM_DETECTOR_ACTIVATIONS_NUM);
 170:Model/stai_palm_detector.c ****   }
 171:Model/stai_palm_detector.c **** #endif // !NDEBUG
 172:Model/stai_palm_detector.c **** 
 173:Model/stai_palm_detector.c ****   /* save number of elements return value */
 174:Model/stai_palm_detector.c ****   if (outputs)
 175:Model/stai_palm_detector.c ****   {
 176:Model/stai_palm_detector.c ****     *n_ptrs = STAI_PALM_DETECTOR_OUT_NUM;
 177:Model/stai_palm_detector.c ****   }
 178:Model/stai_palm_detector.c ****   else
 179:Model/stai_palm_detector.c ****   {
 180:Model/stai_palm_detector.c ****     *n_ptrs = STAI_PALM_DETECTOR_ACTIVATIONS_NUM;
 181:Model/stai_palm_detector.c ****   }
 182:Model/stai_palm_detector.c **** 
 183:Model/stai_palm_detector.c ****   return STAI_SUCCESS;
 184:Model/stai_palm_detector.c **** }
 185:Model/stai_palm_detector.c **** 
 186:Model/stai_palm_detector.c **** static inline stai_return_code __ll_aton_stai_palm_detector_set_inputs_or_weights(stai_network *net
 187:Model/stai_palm_detector.c ****                                                                                           const sta
 188:Model/stai_palm_detector.c ****                                                                                           const sta
 189:Model/stai_palm_detector.c ****                                                                                           bool inpu
 190:Model/stai_palm_detector.c **** {
 191:Model/stai_palm_detector.c ****   /* check context & network interface handle */
 192:Model/stai_palm_detector.c ****   __LL_ATON_STAI_ACQUIRE_INTERFACE(nn_i_ptr, network);
 193:Model/stai_palm_detector.c ****   __LL_ATON_STAI_CHECK_NETWORK_INTERFACE(nn_i_ptr, (_stai_aton_context *)network);
 194:Model/stai_palm_detector.c **** 
 195:Model/stai_palm_detector.c ****   /* get input buffers */
 196:Model/stai_palm_detector.c ****   const LL_Buffer_InfoTypeDef *input_buffers = nn_i_ptr->input_buffers_info();
 197:Model/stai_palm_detector.c **** 
 198:Model/stai_palm_detector.c ****   /* check values & addresses */
 199:Model/stai_palm_detector.c ****   LL_ATON_ASSERT(input_buffers != NULL);
 200:Model/stai_palm_detector.c ****   if (input_buffers && !pointers)
 201:Model/stai_palm_detector.c ****     __LL_ATON_STAI_SET_1ST_CTX_ERROR_AND_RETURN((_stai_aton_context *)network,
 202:Model/stai_palm_detector.c ****                                                 STAI_ERROR_NETWORK_INVALID_API_ARGUMENTS);
 203:Model/stai_palm_detector.c **** 
 204:Model/stai_palm_detector.c ****   if (inputs)
 205:Model/stai_palm_detector.c ****   {
 206:Model/stai_palm_detector.c ****     if (n_ptrs != STAI_PALM_DETECTOR_IN_NUM)
 207:Model/stai_palm_detector.c ****       __LL_ATON_STAI_SET_1ST_CTX_ERROR_AND_RETURN((_stai_aton_context *)network, STAI_ERROR_NETWORK
 208:Model/stai_palm_detector.c ****   }
 209:Model/stai_palm_detector.c ****   else
 210:Model/stai_palm_detector.c ****   {
 211:Model/stai_palm_detector.c ****     if (n_ptrs != STAI_PALM_DETECTOR_WEIGHTS_NUM)
 212:Model/stai_palm_detector.c ****       __LL_ATON_STAI_SET_1ST_CTX_ERROR_AND_RETURN((_stai_aton_context *)network,
 213:Model/stai_palm_detector.c ****                                                   STAI_ERROR_NETWORK_INVALID_WEIGHTS_NUM);
 214:Model/stai_palm_detector.c ****   }
 215:Model/stai_palm_detector.c **** 
 216:Model/stai_palm_detector.c ****   unsigned cnt = 0;
 217:Model/stai_palm_detector.c ****   if (input_buffers != NULL)
 218:Model/stai_palm_detector.c ****   {
 219:Model/stai_palm_detector.c ****     for (unsigned idx = 0; input_buffers[idx].name != NULL; idx++)
 220:Model/stai_palm_detector.c ****     {
 221:Model/stai_palm_detector.c ****       const LL_Buffer_InfoTypeDef *buffer_info = &input_buffers[idx];
 222:Model/stai_palm_detector.c ****       if (inputs == !buffer_info->is_param)
ARM GAS  C:\Users\DJESSOU\AppData\Local\Temp\ccruImXQ.s 			page 19


 223:Model/stai_palm_detector.c ****       {
 224:Model/stai_palm_detector.c ****         if (buffer_info->is_user_allocated) // is it an user allocatable buffer
 225:Model/stai_palm_detector.c ****         {
 226:Model/stai_palm_detector.c ****           LL_ATON_ASSERT(buffer_info->offset_start == 0); // user allocated buffers always have an 
 227:Model/stai_palm_detector.c ****           unsigned char **address_location = (unsigned char **)buffer_info->addr_base.p;
 228:Model/stai_palm_detector.c ****           unsigned char *new_address = pointers[cnt];
 229:Model/stai_palm_detector.c **** 
 230:Model/stai_palm_detector.c ****           if (((uintptr_t)new_address % STAI_CACHE_USER_BUFFER_ALIGNMENT) != 0) // check new addres
 231:Model/stai_palm_detector.c ****           {                                                                     // new address is n
 232:Model/stai_palm_detector.c ****             __LL_ATON_STAI_SET_1ST_CTX_ERROR_AND_RETURN((_stai_aton_context *)network,
 233:Model/stai_palm_detector.c ****                                                         STAI_ERROR_INVALID_BUFFER_ALIGNMENT);
 234:Model/stai_palm_detector.c ****           }
 235:Model/stai_palm_detector.c ****           else // new address is aligned
 236:Model/stai_palm_detector.c ****           {
 237:Model/stai_palm_detector.c ****             LL_ATON_ASSERT(address_location != NULL);
 238:Model/stai_palm_detector.c ****             *address_location = new_address;
 239:Model/stai_palm_detector.c ****           }
 240:Model/stai_palm_detector.c ****         }
 241:Model/stai_palm_detector.c ****         else // buffer is not user allocatable
 242:Model/stai_palm_detector.c ****         {
 243:Model/stai_palm_detector.c ****           if (ATON_LIB_VIRTUAL_TO_PHYSICAL_ADDR(pointers[cnt]) != LL_Buffer_addr_start(buffer_info)
 244:Model/stai_palm_detector.c ****             __LL_ATON_STAI_SET_1ST_CTX_ERROR_AND_RETURN((_stai_aton_context *)network,
 245:Model/stai_palm_detector.c ****                                                         STAI_ERROR_NETWORK_INVALID_IN_PTR);
 246:Model/stai_palm_detector.c ****         }
 247:Model/stai_palm_detector.c ****         cnt++;
 248:Model/stai_palm_detector.c ****       }
 249:Model/stai_palm_detector.c ****     }
 250:Model/stai_palm_detector.c ****   }
 251:Model/stai_palm_detector.c ****   else
 252:Model/stai_palm_detector.c ****   {
 253:Model/stai_palm_detector.c ****     STAI_ASSERT((inputs ? STAI_PALM_DETECTOR_IN_NUM : STAI_PALM_DETECTOR_WEIGHTS_NUM) == 0);
 254:Model/stai_palm_detector.c ****   }
 255:Model/stai_palm_detector.c **** #ifndef NDEBUG
 256:Model/stai_palm_detector.c ****   if (inputs)
 257:Model/stai_palm_detector.c ****   {
 258:Model/stai_palm_detector.c ****     STAI_ASSERT(cnt == STAI_PALM_DETECTOR_IN_NUM);
 259:Model/stai_palm_detector.c ****   }
 260:Model/stai_palm_detector.c ****   else
 261:Model/stai_palm_detector.c ****   {
 262:Model/stai_palm_detector.c ****     STAI_ASSERT(cnt == STAI_PALM_DETECTOR_WEIGHTS_NUM);
 263:Model/stai_palm_detector.c ****   }
 264:Model/stai_palm_detector.c **** #endif // !NDEBUG
 265:Model/stai_palm_detector.c **** 
 266:Model/stai_palm_detector.c ****   return STAI_SUCCESS;
 267:Model/stai_palm_detector.c **** }
 268:Model/stai_palm_detector.c **** 
 269:Model/stai_palm_detector.c **** static inline stai_return_code __ll_aton_stai_palm_detector_set_outputs_or_activations(stai_network
 270:Model/stai_palm_detector.c ****                                                                                                cons
 271:Model/stai_palm_detector.c ****                                                                                                cons
 272:Model/stai_palm_detector.c ****                                                                                                bool
 273:Model/stai_palm_detector.c **** {
 151              		.loc 1 273 1 is_stmt 1 view -0
 152              		.cfi_startproc
 153              		@ args = 0, pretend = 0, frame = 8
 154              		@ frame_needed = 0, uses_anonymous_args = 0
 274:Model/stai_palm_detector.c ****   /* check context & network interface handle */
 275:Model/stai_palm_detector.c ****   __LL_ATON_STAI_ACQUIRE_INTERFACE(nn_i_ptr, network);
ARM GAS  C:\Users\DJESSOU\AppData\Local\Temp\ccruImXQ.s 			page 20


 155              		.loc 1 275 3 view .LVU35
 273:Model/stai_palm_detector.c ****   /* check context & network interface handle */
 156              		.loc 1 273 1 is_stmt 0 view .LVU36
 157 0000 2DE9F341 		push	{r0, r1, r4, r5, r6, r7, r8, lr}
 158              		.cfi_def_cfa_offset 32
 159              		.cfi_offset 4, -24
 160              		.cfi_offset 5, -20
 161              		.cfi_offset 6, -16
 162              		.cfi_offset 7, -12
 163              		.cfi_offset 8, -8
 164              		.cfi_offset 14, -4
 273:Model/stai_palm_detector.c ****   /* check context & network interface handle */
 165              		.loc 1 273 1 view .LVU37
 166 0004 9846     		mov	r8, r3
 167              		.loc 1 275 3 view .LVU38
 168 0006 0023     		movs	r3, #0
 169              	.LVL13:
 273:Model/stai_palm_detector.c ****   /* check context & network interface handle */
 170              		.loc 1 273 1 view .LVU39
 171 0008 0F46     		mov	r7, r1
 172              		.loc 1 275 3 view .LVU40
 173 000a 01A9     		add	r1, sp, #4
 174              	.LVL14:
 273:Model/stai_palm_detector.c ****   /* check context & network interface handle */
 175              		.loc 1 273 1 view .LVU41
 176 000c 0446     		mov	r4, r0
 177              		.loc 1 275 3 view .LVU42
 178 000e 0193     		str	r3, [sp, #4]
 179              		.loc 1 275 3 is_stmt 1 view .LVU43
 180 0010 FFF7FEFF 		bl	__ll_aton_stai_check_context_network_handle.constprop.0
 181              	.LVL15:
 182              		.loc 1 275 3 discriminator 1 view .LVU44
 183 0014 B0F5003F 		cmp	r0, #131072
 273:Model/stai_palm_detector.c ****   /* check context & network interface handle */
 184              		.loc 1 273 1 is_stmt 0 view .LVU45
 185 0018 1646     		mov	r6, r2
 186              		.loc 1 275 3 discriminator 1 view .LVU46
 187 001a 0DD2     		bcs	.L13
 188              		.loc 1 275 54 is_stmt 1 discriminator 2 view .LVU47
 276:Model/stai_palm_detector.c ****   __LL_ATON_STAI_CHECK_NETWORK_INTERFACE(nn_i_ptr, (_stai_aton_context *)network);
 189              		.loc 1 276 3 view .LVU48
 190              		.loc 1 276 3 view .LVU49
 191 001c 3B4B     		ldr	r3, .L66
 192 001e 019A     		ldr	r2, [sp, #4]
 193              	.LVL16:
 194              		.loc 1 276 3 is_stmt 0 view .LVU50
 195 0020 9A42     		cmp	r2, r3
 196 0022 0CD0     		beq	.L15
 197              		.loc 1 276 3 is_stmt 1 discriminator 1 view .LVU51
 198              		.loc 1 276 3 discriminator 1 view .LVU52
 199 0024 34B1     		cbz	r4, .L17
 200              		.loc 1 276 3 discriminator 4 view .LVU53
 201 0026 E36B     		ldr	r3, [r4, #60]
 202 0028 B3F5003F 		cmp	r3, #131072
 203              		.loc 1 276 3 discriminator 5 view .LVU54
 204 002c 3CBF     		itt	cc
 205 002e 4FF44033 		movcc	r3, #196608
ARM GAS  C:\Users\DJESSOU\AppData\Local\Temp\ccruImXQ.s 			page 21


 206 0032 E363     		strcc	r3, [r4, #60]
 207              	.LVL17:
 208              	.L17:
 209              		.loc 1 276 3 is_stmt 0 discriminator 3 view .LVU55
 210 0034 4FF44030 		mov	r0, #196608
 211              	.L13:
 277:Model/stai_palm_detector.c **** 
 278:Model/stai_palm_detector.c ****   /* get output buffers */
 279:Model/stai_palm_detector.c ****   const LL_Buffer_InfoTypeDef *out_activ_buffers;
 280:Model/stai_palm_detector.c ****   if (outputs)
 281:Model/stai_palm_detector.c ****   {
 282:Model/stai_palm_detector.c ****     out_activ_buffers = nn_i_ptr->output_buffers_info();
 283:Model/stai_palm_detector.c ****   }
 284:Model/stai_palm_detector.c ****   else
 285:Model/stai_palm_detector.c ****   {
 286:Model/stai_palm_detector.c ****     out_activ_buffers = nn_i_ptr->output_buffers_info();
 287:Model/stai_palm_detector.c ****   }
 288:Model/stai_palm_detector.c **** 
 289:Model/stai_palm_detector.c ****   /* check values & addresses */
 290:Model/stai_palm_detector.c ****   if (out_activ_buffers && !pointers)
 291:Model/stai_palm_detector.c ****     __LL_ATON_STAI_SET_1ST_CTX_ERROR_AND_RETURN((_stai_aton_context *)network,
 292:Model/stai_palm_detector.c ****                                                 STAI_ERROR_NETWORK_INVALID_API_ARGUMENTS);
 293:Model/stai_palm_detector.c **** 
 294:Model/stai_palm_detector.c ****   if (outputs)
 295:Model/stai_palm_detector.c ****   {
 296:Model/stai_palm_detector.c ****     if (n_ptrs != STAI_PALM_DETECTOR_OUT_NUM)
 297:Model/stai_palm_detector.c ****       __LL_ATON_STAI_SET_1ST_CTX_ERROR_AND_RETURN((_stai_aton_context *)network, STAI_ERROR_NETWORK
 298:Model/stai_palm_detector.c ****   }
 299:Model/stai_palm_detector.c ****   else
 300:Model/stai_palm_detector.c ****   {
 301:Model/stai_palm_detector.c ****     if (n_ptrs != STAI_PALM_DETECTOR_ACTIVATIONS_NUM)
 302:Model/stai_palm_detector.c ****       __LL_ATON_STAI_SET_1ST_CTX_ERROR_AND_RETURN((_stai_aton_context *)network, STAI_ERROR_NETWORK
 303:Model/stai_palm_detector.c ****   }
 304:Model/stai_palm_detector.c **** 
 305:Model/stai_palm_detector.c ****   unsigned cnt = 0;
 306:Model/stai_palm_detector.c ****   if (out_activ_buffers != NULL)
 307:Model/stai_palm_detector.c ****   {
 308:Model/stai_palm_detector.c ****     for (unsigned idx = 0; out_activ_buffers[idx].name != NULL; idx++)
 309:Model/stai_palm_detector.c ****     {
 310:Model/stai_palm_detector.c ****       const LL_Buffer_InfoTypeDef *buffer_info = &out_activ_buffers[idx];
 311:Model/stai_palm_detector.c ****       if (buffer_info->is_user_allocated) // is it an user allocatable buffer
 312:Model/stai_palm_detector.c ****       {
 313:Model/stai_palm_detector.c ****         LL_ATON_ASSERT(buffer_info->offset_start == 0); // user allocated buffers always have an of
 314:Model/stai_palm_detector.c ****         unsigned char **address_location = (unsigned char **)buffer_info->addr_base.p;
 315:Model/stai_palm_detector.c ****         unsigned char *new_address = pointers[cnt];
 316:Model/stai_palm_detector.c **** 
 317:Model/stai_palm_detector.c ****         if (((uintptr_t)new_address % STAI_CACHE_USER_BUFFER_ALIGNMENT) != 0) // check new address 
 318:Model/stai_palm_detector.c ****         {                                                                     // new address is not
 319:Model/stai_palm_detector.c ****           __LL_ATON_STAI_SET_1ST_CTX_ERROR_AND_RETURN((_stai_aton_context *)network,
 320:Model/stai_palm_detector.c ****                                                       STAI_ERROR_INVALID_BUFFER_ALIGNMENT);
 321:Model/stai_palm_detector.c ****         }
 322:Model/stai_palm_detector.c ****         else // new address is aligned
 323:Model/stai_palm_detector.c ****         {
 324:Model/stai_palm_detector.c ****           LL_ATON_ASSERT(address_location != NULL);
 325:Model/stai_palm_detector.c ****           *address_location = new_address;
 326:Model/stai_palm_detector.c ****         }
 327:Model/stai_palm_detector.c ****       }
ARM GAS  C:\Users\DJESSOU\AppData\Local\Temp\ccruImXQ.s 			page 22


 328:Model/stai_palm_detector.c ****       else // buffer is not user allocatable
 329:Model/stai_palm_detector.c ****       {
 330:Model/stai_palm_detector.c ****         STAI_ASSERT(!buffer_info->is_param);
 331:Model/stai_palm_detector.c ****         if (ATON_LIB_VIRTUAL_TO_PHYSICAL_ADDR(pointers[cnt]) != LL_Buffer_addr_start(out_activ_buff
 332:Model/stai_palm_detector.c ****           __LL_ATON_STAI_SET_1ST_CTX_ERROR_AND_RETURN((_stai_aton_context *)network,
 333:Model/stai_palm_detector.c ****                                                       STAI_ERROR_NETWORK_INVALID_OUT_PTR);
 334:Model/stai_palm_detector.c ****       }
 335:Model/stai_palm_detector.c ****       cnt++;
 336:Model/stai_palm_detector.c ****     }
 337:Model/stai_palm_detector.c ****   }
 338:Model/stai_palm_detector.c ****   else
 339:Model/stai_palm_detector.c ****   {
 340:Model/stai_palm_detector.c ****     STAI_ASSERT((outputs ? STAI_PALM_DETECTOR_OUT_NUM : STAI_PALM_DETECTOR_ACTIVATIONS_NUM) == 0);
 341:Model/stai_palm_detector.c ****   }
 342:Model/stai_palm_detector.c **** #ifndef NDEBUG
 343:Model/stai_palm_detector.c ****   if (outputs)
 344:Model/stai_palm_detector.c ****   {
 345:Model/stai_palm_detector.c ****     STAI_ASSERT(cnt == STAI_PALM_DETECTOR_OUT_NUM);
 346:Model/stai_palm_detector.c ****   }
 347:Model/stai_palm_detector.c ****   else
 348:Model/stai_palm_detector.c ****   {
 349:Model/stai_palm_detector.c ****     STAI_ASSERT(cnt == STAI_PALM_DETECTOR_ACTIVATIONS_NUM);
 350:Model/stai_palm_detector.c ****   }
 351:Model/stai_palm_detector.c **** #endif // !NDEBUG
 352:Model/stai_palm_detector.c **** 
 353:Model/stai_palm_detector.c ****   return STAI_SUCCESS;
 354:Model/stai_palm_detector.c **** }
 212              		.loc 1 354 1 view .LVU56
 213 0038 02B0     		add	sp, sp, #8
 214              		.cfi_remember_state
 215              		.cfi_def_cfa_offset 24
 216              		@ sp needed
 217 003a BDE8F081 		pop	{r4, r5, r6, r7, r8, pc}
 218              	.LVL18:
 219              	.L15:
 220              		.cfi_restore_state
 276:Model/stai_palm_detector.c ****   __LL_ATON_STAI_CHECK_NETWORK_INTERFACE(nn_i_ptr, (_stai_aton_context *)network);
 221              		.loc 1 276 3 is_stmt 1 discriminator 2 view .LVU57
 276:Model/stai_palm_detector.c ****   __LL_ATON_STAI_CHECK_NETWORK_INTERFACE(nn_i_ptr, (_stai_aton_context *)network);
 222              		.loc 1 276 3 discriminator 2 view .LVU58
 279:Model/stai_palm_detector.c ****   if (outputs)
 223              		.loc 1 279 3 view .LVU59
 280:Model/stai_palm_detector.c ****   {
 224              		.loc 1 280 3 view .LVU60
 280:Model/stai_palm_detector.c ****   {
 225              		.loc 1 280 6 is_stmt 0 view .LVU61
 226 003e B8F1000F 		cmp	r8, #0
 227 0042 0DD0     		beq	.L19
 282:Model/stai_palm_detector.c ****   }
 228              		.loc 1 282 5 is_stmt 1 view .LVU62
 282:Model/stai_palm_detector.c ****   }
 229              		.loc 1 282 25 is_stmt 0 view .LVU63
 230 0044 FFF7FEFF 		bl	LL_ATON_Output_Buffers_Info_palm_detector
 231              	.LVL19:
 290:Model/stai_palm_detector.c ****     __LL_ATON_STAI_SET_1ST_CTX_ERROR_AND_RETURN((_stai_aton_context *)network,
 232              		.loc 1 290 3 is_stmt 1 view .LVU64
 290:Model/stai_palm_detector.c ****     __LL_ATON_STAI_SET_1ST_CTX_ERROR_AND_RETURN((_stai_aton_context *)network,
ARM GAS  C:\Users\DJESSOU\AppData\Local\Temp\ccruImXQ.s 			page 23


 233              		.loc 1 290 6 is_stmt 0 view .LVU65
 234 0048 0546     		mov	r5, r0
 235 004a 70B9     		cbnz	r0, .L20
 296:Model/stai_palm_detector.c ****       __LL_ATON_STAI_SET_1ST_CTX_ERROR_AND_RETURN((_stai_aton_context *)network, STAI_ERROR_NETWORK
 236              		.loc 1 296 5 is_stmt 1 view .LVU66
 296:Model/stai_palm_detector.c ****       __LL_ATON_STAI_SET_1ST_CTX_ERROR_AND_RETURN((_stai_aton_context *)network, STAI_ERROR_NETWORK
 237              		.loc 1 296 8 is_stmt 0 view .LVU67
 238 004c 022E     		cmp	r6, #2
 239              	.L64:
 301:Model/stai_palm_detector.c ****       __LL_ATON_STAI_SET_1ST_CTX_ERROR_AND_RETURN((_stai_aton_context *)network, STAI_ERROR_NETWORK
 240              		.loc 1 301 8 view .LVU68
 241 004e 59D0     		beq	.L39
 242              	.L40:
 297:Model/stai_palm_detector.c ****   }
 243              		.loc 1 297 7 is_stmt 1 view .LVU69
 297:Model/stai_palm_detector.c ****   }
 244              		.loc 1 297 7 view .LVU70
 245 0050 002C     		cmp	r4, #0
 246 0052 EFD0     		beq	.L17
 297:Model/stai_palm_detector.c ****   }
 247              		.loc 1 297 7 discriminator 2 view .LVU71
 248 0054 E36B     		ldr	r3, [r4, #60]
 249 0056 B3F5003F 		cmp	r3, #131072
 250 005a 16D3     		bcc	.L27
 251              	.L28:
 297:Model/stai_palm_detector.c ****   }
 252              		.loc 1 297 7 is_stmt 0 discriminator 5 view .LVU72
 253 005c 2C48     		ldr	r0, .L66+4
 254              	.LVL20:
 297:Model/stai_palm_detector.c ****   }
 255              		.loc 1 297 7 discriminator 5 view .LVU73
 256 005e EBE7     		b	.L13
 257              	.LVL21:
 258              	.L19:
 286:Model/stai_palm_detector.c ****   }
 259              		.loc 1 286 5 is_stmt 1 view .LVU74
 286:Model/stai_palm_detector.c ****   }
 260              		.loc 1 286 25 is_stmt 0 view .LVU75
 261 0060 FFF7FEFF 		bl	LL_ATON_Output_Buffers_Info_palm_detector
 262              	.LVL22:
 290:Model/stai_palm_detector.c ****     __LL_ATON_STAI_SET_1ST_CTX_ERROR_AND_RETURN((_stai_aton_context *)network,
 263              		.loc 1 290 3 is_stmt 1 view .LVU76
 290:Model/stai_palm_detector.c ****     __LL_ATON_STAI_SET_1ST_CTX_ERROR_AND_RETURN((_stai_aton_context *)network,
 264              		.loc 1 290 6 is_stmt 0 view .LVU77
 265 0064 0546     		mov	r5, r0
 266 0066 0028     		cmp	r0, #0
 267 0068 4ED0     		beq	.L22
 268              	.L20:
 290:Model/stai_palm_detector.c ****     __LL_ATON_STAI_SET_1ST_CTX_ERROR_AND_RETURN((_stai_aton_context *)network,
 269              		.loc 1 290 25 discriminator 1 view .LVU78
 270 006a 4FB9     		cbnz	r7, .L23
 291:Model/stai_palm_detector.c ****                                                 STAI_ERROR_NETWORK_INVALID_API_ARGUMENTS);
 271              		.loc 1 291 5 is_stmt 1 view .LVU79
 291:Model/stai_palm_detector.c ****                                                 STAI_ERROR_NETWORK_INVALID_API_ARGUMENTS);
 272              		.loc 1 291 5 view .LVU80
 273 006c 002C     		cmp	r4, #0
 274 006e E1D0     		beq	.L17
ARM GAS  C:\Users\DJESSOU\AppData\Local\Temp\ccruImXQ.s 			page 24


 291:Model/stai_palm_detector.c ****                                                 STAI_ERROR_NETWORK_INVALID_API_ARGUMENTS);
 275              		.loc 1 291 5 discriminator 2 view .LVU81
 276 0070 E36B     		ldr	r3, [r4, #60]
 277 0072 B3F5003F 		cmp	r3, #131072
 278 0076 01D2     		bcs	.L24
 291:Model/stai_palm_detector.c ****                                                 STAI_ERROR_NETWORK_INVALID_API_ARGUMENTS);
 279              		.loc 1 291 5 discriminator 3 view .LVU82
 280 0078 264B     		ldr	r3, .L66+8
 281 007a E363     		str	r3, [r4, #60]
 282              	.L24:
 291:Model/stai_palm_detector.c ****                                                 STAI_ERROR_NETWORK_INVALID_API_ARGUMENTS);
 283              		.loc 1 291 5 is_stmt 0 discriminator 5 view .LVU83
 284 007c 2548     		ldr	r0, .L66+8
 285              	.LVL23:
 291:Model/stai_palm_detector.c ****                                                 STAI_ERROR_NETWORK_INVALID_API_ARGUMENTS);
 286              		.loc 1 291 5 discriminator 5 view .LVU84
 287 007e DBE7     		b	.L13
 288              	.LVL24:
 289              	.L23:
 291:Model/stai_palm_detector.c ****                                                 STAI_ERROR_NETWORK_INVALID_API_ARGUMENTS);
 290              		.loc 1 291 5 is_stmt 1 view .LVU85
 294:Model/stai_palm_detector.c ****   {
 291              		.loc 1 294 3 view .LVU86
 294:Model/stai_palm_detector.c ****   {
 292              		.loc 1 294 6 is_stmt 0 view .LVU87
 293 0080 B8F1000F 		cmp	r8, #0
 294 0084 37D1     		bne	.L25
 301:Model/stai_palm_detector.c ****       __LL_ATON_STAI_SET_1ST_CTX_ERROR_AND_RETURN((_stai_aton_context *)network, STAI_ERROR_NETWORK
 295              		.loc 1 301 5 is_stmt 1 view .LVU88
 301:Model/stai_palm_detector.c ****       __LL_ATON_STAI_SET_1ST_CTX_ERROR_AND_RETURN((_stai_aton_context *)network, STAI_ERROR_NETWORK
 296              		.loc 1 301 8 is_stmt 0 view .LVU89
 297 0086 EF2E     		cmp	r6, #239
 298 0088 36E0     		b	.L65
 299              	.L27:
 297:Model/stai_palm_detector.c ****   }
 300              		.loc 1 297 7 is_stmt 1 discriminator 3 view .LVU90
 301 008a 214B     		ldr	r3, .L66+4
 302 008c E363     		str	r3, [r4, #60]
 303 008e E5E7     		b	.L28
 304              	.LVL25:
 305              	.L38:
 306              	.LBB13:
 307              	.LBB14:
 310:Model/stai_palm_detector.c ****       if (buffer_info->is_user_allocated) // is it an user allocatable buffer
 308              		.loc 1 310 7 view .LVU91
 311:Model/stai_palm_detector.c ****       {
 309              		.loc 1 311 7 view .LVU92
 311:Model/stai_palm_detector.c ****       {
 310              		.loc 1 311 10 is_stmt 0 view .LVU93
 311 0090 337D     		ldrb	r3, [r6, #20]	@ zero_extendqisi2
 312 0092 03B3     		cbz	r3, .L31
 313              	.LBB15:
 313:Model/stai_palm_detector.c ****         unsigned char **address_location = (unsigned char **)buffer_info->addr_base.p;
 314              		.loc 1 313 9 is_stmt 1 view .LVU94
 315 0094 B368     		ldr	r3, [r6, #8]
 316 0096 33B1     		cbz	r3, .L32
 313:Model/stai_palm_detector.c ****         unsigned char **address_location = (unsigned char **)buffer_info->addr_base.p;
ARM GAS  C:\Users\DJESSOU\AppData\Local\Temp\ccruImXQ.s 			page 25


 317              		.loc 1 313 9 is_stmt 0 discriminator 1 view .LVU95
 318 0098 40F23911 		movw	r1, #313
 319 009c 1E4B     		ldr	r3, .L66+12
 320 009e 1F4A     		ldr	r2, .L66+16
 321              	.L62:
 324:Model/stai_palm_detector.c ****           *address_location = new_address;
 322              		.loc 1 324 11 discriminator 1 view .LVU96
 323 00a0 1F48     		ldr	r0, .L66+20
 324 00a2 FFF7FEFF 		bl	__assert_func
 325              	.LVL26:
 326              	.L32:
 314:Model/stai_palm_detector.c ****         unsigned char *new_address = pointers[cnt];
 327              		.loc 1 314 9 is_stmt 1 view .LVU97
 315:Model/stai_palm_detector.c **** 
 328              		.loc 1 315 24 is_stmt 0 view .LVU98
 329 00a6 0A68     		ldr	r2, [r1]
 314:Model/stai_palm_detector.c ****         unsigned char *new_address = pointers[cnt];
 330              		.loc 1 314 25 view .LVU99
 331 00a8 7368     		ldr	r3, [r6, #4]
 332              	.LVL27:
 315:Model/stai_palm_detector.c **** 
 333              		.loc 1 315 9 is_stmt 1 view .LVU100
 317:Model/stai_palm_detector.c ****         {                                                                     // new address is not
 334              		.loc 1 317 9 view .LVU101
 317:Model/stai_palm_detector.c ****         {                                                                     // new address is not
 335              		.loc 1 317 12 is_stmt 0 view .LVU102
 336 00aa D006     		lsls	r0, r2, #27
 337 00ac 09D0     		beq	.L33
 319:Model/stai_palm_detector.c ****                                                       STAI_ERROR_INVALID_BUFFER_ALIGNMENT);
 338              		.loc 1 319 11 is_stmt 1 view .LVU103
 319:Model/stai_palm_detector.c ****                                                       STAI_ERROR_INVALID_BUFFER_ALIGNMENT);
 339              		.loc 1 319 11 view .LVU104
 340 00ae 002C     		cmp	r4, #0
 341 00b0 C0D0     		beq	.L17
 319:Model/stai_palm_detector.c ****                                                       STAI_ERROR_INVALID_BUFFER_ALIGNMENT);
 342              		.loc 1 319 11 discriminator 2 view .LVU105
 343 00b2 E36B     		ldr	r3, [r4, #60]
 344              	.LVL28:
 319:Model/stai_palm_detector.c ****                                                       STAI_ERROR_INVALID_BUFFER_ALIGNMENT);
 345              		.loc 1 319 11 is_stmt 0 discriminator 5 view .LVU106
 346 00b4 1B48     		ldr	r0, .L66+24
 319:Model/stai_palm_detector.c ****                                                       STAI_ERROR_INVALID_BUFFER_ALIGNMENT);
 347              		.loc 1 319 11 discriminator 2 view .LVU107
 348 00b6 B3F5003F 		cmp	r3, #131072
 319:Model/stai_palm_detector.c ****                                                       STAI_ERROR_INVALID_BUFFER_ALIGNMENT);
 349              		.loc 1 319 11 is_stmt 1 discriminator 3 view .LVU108
 350 00ba 3CBF     		itt	cc
 351 00bc 194B     		ldrcc	r3, .L66+24
 352 00be E363     		strcc	r3, [r4, #60]
 353 00c0 BAE7     		b	.L13
 354              	.LVL29:
 355              	.L33:
 319:Model/stai_palm_detector.c ****                                                       STAI_ERROR_INVALID_BUFFER_ALIGNMENT);
 356              		.loc 1 319 11 view .LVU109
 324:Model/stai_palm_detector.c ****           *address_location = new_address;
 357              		.loc 1 324 11 view .LVU110
 358 00c2 23B9     		cbnz	r3, .L35
ARM GAS  C:\Users\DJESSOU\AppData\Local\Temp\ccruImXQ.s 			page 26


 324:Model/stai_palm_detector.c ****           *address_location = new_address;
 359              		.loc 1 324 11 is_stmt 0 discriminator 1 view .LVU111
 360 00c4 4FF4A271 		mov	r1, #324
 361 00c8 174B     		ldr	r3, .L66+28
 362              	.LVL30:
 324:Model/stai_palm_detector.c ****           *address_location = new_address;
 363              		.loc 1 324 11 discriminator 1 view .LVU112
 364 00ca 144A     		ldr	r2, .L66+16
 365              	.LVL31:
 324:Model/stai_palm_detector.c ****           *address_location = new_address;
 366              		.loc 1 324 11 discriminator 1 view .LVU113
 367 00cc E8E7     		b	.L62
 368              	.LVL32:
 369              	.L35:
 325:Model/stai_palm_detector.c ****         }
 370              		.loc 1 325 11 is_stmt 1 view .LVU114
 325:Model/stai_palm_detector.c ****         }
 371              		.loc 1 325 29 is_stmt 0 view .LVU115
 372 00ce 1A60     		str	r2, [r3]
 373              	.LVL33:
 374              	.L36:
 325:Model/stai_palm_detector.c ****         }
 375              		.loc 1 325 29 view .LVU116
 376              	.LBE15:
 332:Model/stai_palm_detector.c ****                                                       STAI_ERROR_NETWORK_INVALID_OUT_PTR);
 377              		.loc 1 332 11 is_stmt 1 view .LVU117
 335:Model/stai_palm_detector.c ****     }
 378              		.loc 1 335 7 view .LVU118
 335:Model/stai_palm_detector.c ****     }
 379              		.loc 1 335 7 is_stmt 0 view .LVU119
 380              	.LBE14:
 308:Model/stai_palm_detector.c ****     {
 381              		.loc 1 308 68 is_stmt 1 discriminator 2 view .LVU120
 308:Model/stai_palm_detector.c ****     {
 382              		.loc 1 308 68 is_stmt 0 discriminator 2 view .LVU121
 383 00d0 3836     		adds	r6, r6, #56
 384              	.LVL34:
 308:Model/stai_palm_detector.c ****     {
 385              		.loc 1 308 68 discriminator 2 view .LVU122
 386 00d2 0431     		adds	r1, r1, #4
 387 00d4 13E0     		b	.L30
 388              	.LVL35:
 389              	.L31:
 390              	.LBB16:
 330:Model/stai_palm_detector.c ****         if (ATON_LIB_VIRTUAL_TO_PHYSICAL_ADDR(pointers[cnt]) != LL_Buffer_addr_start(out_activ_buff
 391              		.loc 1 330 9 is_stmt 1 view .LVU123
 330:Model/stai_palm_detector.c ****         if (ATON_LIB_VIRTUAL_TO_PHYSICAL_ADDR(pointers[cnt]) != LL_Buffer_addr_start(out_activ_buff
 392              		.loc 1 330 9 view .LVU124
 330:Model/stai_palm_detector.c ****         if (ATON_LIB_VIRTUAL_TO_PHYSICAL_ADDR(pointers[cnt]) != LL_Buffer_addr_start(out_activ_buff
 393              		.loc 1 330 9 view .LVU125
 330:Model/stai_palm_detector.c ****         if (ATON_LIB_VIRTUAL_TO_PHYSICAL_ADDR(pointers[cnt]) != LL_Buffer_addr_start(out_activ_buff
 394              		.loc 1 330 44 view .LVU126
 331:Model/stai_palm_detector.c ****           __LL_ATON_STAI_SET_1ST_CTX_ERROR_AND_RETURN((_stai_aton_context *)network,
 395              		.loc 1 331 9 view .LVU127
 331:Model/stai_palm_detector.c ****           __LL_ATON_STAI_SET_1ST_CTX_ERROR_AND_RETURN((_stai_aton_context *)network,
 396              		.loc 1 331 65 is_stmt 0 view .LVU128
 397 00d6 2846     		mov	r0, r5
ARM GAS  C:\Users\DJESSOU\AppData\Local\Temp\ccruImXQ.s 			page 27


 398 00d8 FFF7FEFF 		bl	LL_Buffer_addr_start
 399              	.LVL36:
 331:Model/stai_palm_detector.c ****           __LL_ATON_STAI_SET_1ST_CTX_ERROR_AND_RETURN((_stai_aton_context *)network,
 400              		.loc 1 331 13 view .LVU129
 401 00dc 0F68     		ldr	r7, [r1]
 331:Model/stai_palm_detector.c ****           __LL_ATON_STAI_SET_1ST_CTX_ERROR_AND_RETURN((_stai_aton_context *)network,
 402              		.loc 1 331 12 discriminator 1 view .LVU130
 403 00de 8742     		cmp	r7, r0
 404 00e0 F6D0     		beq	.L36
 332:Model/stai_palm_detector.c ****                                                       STAI_ERROR_NETWORK_INVALID_OUT_PTR);
 405              		.loc 1 332 11 is_stmt 1 view .LVU131
 332:Model/stai_palm_detector.c ****                                                       STAI_ERROR_NETWORK_INVALID_OUT_PTR);
 406              		.loc 1 332 11 view .LVU132
 407 00e2 002C     		cmp	r4, #0
 408 00e4 A6D0     		beq	.L17
 332:Model/stai_palm_detector.c ****                                                       STAI_ERROR_NETWORK_INVALID_OUT_PTR);
 409              		.loc 1 332 11 discriminator 2 view .LVU133
 410 00e6 E36B     		ldr	r3, [r4, #60]
 332:Model/stai_palm_detector.c ****                                                       STAI_ERROR_NETWORK_INVALID_OUT_PTR);
 411              		.loc 1 332 11 is_stmt 0 discriminator 5 view .LVU134
 412 00e8 1048     		ldr	r0, .L66+32
 332:Model/stai_palm_detector.c ****                                                       STAI_ERROR_NETWORK_INVALID_OUT_PTR);
 413              		.loc 1 332 11 discriminator 2 view .LVU135
 414 00ea B3F5003F 		cmp	r3, #131072
 332:Model/stai_palm_detector.c ****                                                       STAI_ERROR_NETWORK_INVALID_OUT_PTR);
 415              		.loc 1 332 11 is_stmt 1 discriminator 3 view .LVU136
 416 00ee 3CBF     		itt	cc
 417 00f0 0E4B     		ldrcc	r3, .L66+32
 418 00f2 E363     		strcc	r3, [r4, #60]
 419 00f4 A0E7     		b	.L13
 420              	.LVL37:
 421              	.L25:
 332:Model/stai_palm_detector.c ****                                                       STAI_ERROR_NETWORK_INVALID_OUT_PTR);
 422              		.loc 1 332 11 is_stmt 0 discriminator 3 view .LVU137
 423              	.LBE16:
 424              	.LBE13:
 296:Model/stai_palm_detector.c ****       __LL_ATON_STAI_SET_1ST_CTX_ERROR_AND_RETURN((_stai_aton_context *)network, STAI_ERROR_NETWORK
 425              		.loc 1 296 5 is_stmt 1 view .LVU138
 296:Model/stai_palm_detector.c ****       __LL_ATON_STAI_SET_1ST_CTX_ERROR_AND_RETURN((_stai_aton_context *)network, STAI_ERROR_NETWORK
 426              		.loc 1 296 8 is_stmt 0 view .LVU139
 427 00f6 022E     		cmp	r6, #2
 428              	.L65:
 301:Model/stai_palm_detector.c ****       __LL_ATON_STAI_SET_1ST_CTX_ERROR_AND_RETURN((_stai_aton_context *)network, STAI_ERROR_NETWORK
 429              		.loc 1 301 8 view .LVU140
 430 00f8 AAD1     		bne	.L40
 431              	.LVL38:
 301:Model/stai_palm_detector.c ****       __LL_ATON_STAI_SET_1ST_CTX_ERROR_AND_RETURN((_stai_aton_context *)network, STAI_ERROR_NETWORK
 432              		.loc 1 301 8 view .LVU141
 433 00fa 2E46     		mov	r6, r5
 434              	.LVL39:
 301:Model/stai_palm_detector.c ****       __LL_ATON_STAI_SET_1ST_CTX_ERROR_AND_RETURN((_stai_aton_context *)network, STAI_ERROR_NETWORK
 435              		.loc 1 301 8 view .LVU142
 436 00fc 3946     		mov	r1, r7
 437              	.LVL40:
 438              	.L30:
 439              	.LBB17:
 308:Model/stai_palm_detector.c ****     {
ARM GAS  C:\Users\DJESSOU\AppData\Local\Temp\ccruImXQ.s 			page 28


 440              		.loc 1 308 56 is_stmt 1 discriminator 1 view .LVU143
 441 00fe 3368     		ldr	r3, [r6]
 442 0100 002B     		cmp	r3, #0
 443 0102 C5D1     		bne	.L38
 444              	.L39:
 308:Model/stai_palm_detector.c ****     {
 445              		.loc 1 308 56 is_stmt 0 discriminator 1 view .LVU144
 446              	.LBE17:
 353:Model/stai_palm_detector.c **** }
 447              		.loc 1 353 10 view .LVU145
 448 0104 0020     		movs	r0, #0
 449 0106 97E7     		b	.L13
 450              	.LVL41:
 451              	.L22:
 301:Model/stai_palm_detector.c ****       __LL_ATON_STAI_SET_1ST_CTX_ERROR_AND_RETURN((_stai_aton_context *)network, STAI_ERROR_NETWORK
 452              		.loc 1 301 5 is_stmt 1 view .LVU146
 301:Model/stai_palm_detector.c ****       __LL_ATON_STAI_SET_1ST_CTX_ERROR_AND_RETURN((_stai_aton_context *)network, STAI_ERROR_NETWORK
 453              		.loc 1 301 8 is_stmt 0 view .LVU147
 454 0108 EF2E     		cmp	r6, #239
 455 010a A0E7     		b	.L64
 456              	.L67:
 457              		.align	2
 458              	.L66:
 459 010c 00000000 		.word	NN_Interface_palm_detector
 460 0110 21000400 		.word	262177
 461 0114 01000200 		.word	131073
 462 0118 00000000 		.word	.LC0
 463 011c 00000000 		.word	__func__.0
 464 0120 1F000000 		.word	.LC1
 465 0124 70000400 		.word	262256
 466 0128 3A000000 		.word	.LC2
 467 012c 20000400 		.word	262176
 468              		.cfi_endproc
 469              	.LFE306:
 471              		.section	.rodata.__ll_aton_stai_palm_detector_set_inputs_or_weights.str1.1,"aMS",%progbits,1
 472              	.LC3:
 473 0000 696E7075 		.ascii	"input_buffers != ((void *)0)\000"
 473      745F6275 
 473      66666572 
 473      7320213D 
 473      20282876 
 474              		.section	.text.__ll_aton_stai_palm_detector_set_inputs_or_weights,"ax",%progbits
 475              		.align	1
 476              		.syntax unified
 477              		.thumb
 478              		.thumb_func
 480              	__ll_aton_stai_palm_detector_set_inputs_or_weights:
 481              	.LVL42:
 482              	.LFB305:
 190:Model/stai_palm_detector.c ****   /* check context & network interface handle */
 483              		.loc 1 190 1 is_stmt 1 view -0
 484              		.cfi_startproc
 485              		@ args = 0, pretend = 0, frame = 8
 486              		@ frame_needed = 0, uses_anonymous_args = 0
 192:Model/stai_palm_detector.c ****   __LL_ATON_STAI_CHECK_NETWORK_INTERFACE(nn_i_ptr, (_stai_aton_context *)network);
 487              		.loc 1 192 3 view .LVU149
 190:Model/stai_palm_detector.c ****   /* check context & network interface handle */
ARM GAS  C:\Users\DJESSOU\AppData\Local\Temp\ccruImXQ.s 			page 29


 488              		.loc 1 190 1 is_stmt 0 view .LVU150
 489 0000 2DE9F341 		push	{r0, r1, r4, r5, r6, r7, r8, lr}
 490              		.cfi_def_cfa_offset 32
 491              		.cfi_offset 4, -24
 492              		.cfi_offset 5, -20
 493              		.cfi_offset 6, -16
 494              		.cfi_offset 7, -12
 495              		.cfi_offset 8, -8
 496              		.cfi_offset 14, -4
 190:Model/stai_palm_detector.c ****   /* check context & network interface handle */
 497              		.loc 1 190 1 view .LVU151
 498 0004 1F46     		mov	r7, r3
 192:Model/stai_palm_detector.c ****   __LL_ATON_STAI_CHECK_NETWORK_INTERFACE(nn_i_ptr, (_stai_aton_context *)network);
 499              		.loc 1 192 3 view .LVU152
 500 0006 0023     		movs	r3, #0
 501              	.LVL43:
 190:Model/stai_palm_detector.c ****   /* check context & network interface handle */
 502              		.loc 1 190 1 view .LVU153
 503 0008 0E46     		mov	r6, r1
 192:Model/stai_palm_detector.c ****   __LL_ATON_STAI_CHECK_NETWORK_INTERFACE(nn_i_ptr, (_stai_aton_context *)network);
 504              		.loc 1 192 3 view .LVU154
 505 000a 01A9     		add	r1, sp, #4
 506              	.LVL44:
 190:Model/stai_palm_detector.c ****   /* check context & network interface handle */
 507              		.loc 1 190 1 view .LVU155
 508 000c 0446     		mov	r4, r0
 192:Model/stai_palm_detector.c ****   __LL_ATON_STAI_CHECK_NETWORK_INTERFACE(nn_i_ptr, (_stai_aton_context *)network);
 509              		.loc 1 192 3 view .LVU156
 510 000e 0193     		str	r3, [sp, #4]
 192:Model/stai_palm_detector.c ****   __LL_ATON_STAI_CHECK_NETWORK_INTERFACE(nn_i_ptr, (_stai_aton_context *)network);
 511              		.loc 1 192 3 is_stmt 1 view .LVU157
 512 0010 FFF7FEFF 		bl	__ll_aton_stai_check_context_network_handle.constprop.0
 513              	.LVL45:
 192:Model/stai_palm_detector.c ****   __LL_ATON_STAI_CHECK_NETWORK_INTERFACE(nn_i_ptr, (_stai_aton_context *)network);
 514              		.loc 1 192 3 discriminator 1 view .LVU158
 515 0014 B0F5003F 		cmp	r0, #131072
 190:Model/stai_palm_detector.c ****   /* check context & network interface handle */
 516              		.loc 1 190 1 is_stmt 0 view .LVU159
 517 0018 9046     		mov	r8, r2
 192:Model/stai_palm_detector.c ****   __LL_ATON_STAI_CHECK_NETWORK_INTERFACE(nn_i_ptr, (_stai_aton_context *)network);
 518              		.loc 1 192 3 discriminator 1 view .LVU160
 519 001a 0DD2     		bcs	.L68
 192:Model/stai_palm_detector.c ****   __LL_ATON_STAI_CHECK_NETWORK_INTERFACE(nn_i_ptr, (_stai_aton_context *)network);
 520              		.loc 1 192 54 is_stmt 1 discriminator 2 view .LVU161
 193:Model/stai_palm_detector.c **** 
 521              		.loc 1 193 3 view .LVU162
 193:Model/stai_palm_detector.c **** 
 522              		.loc 1 193 3 view .LVU163
 523 001c 3E4B     		ldr	r3, .L111
 524 001e 019A     		ldr	r2, [sp, #4]
 525              	.LVL46:
 193:Model/stai_palm_detector.c **** 
 526              		.loc 1 193 3 is_stmt 0 view .LVU164
 527 0020 9A42     		cmp	r2, r3
 528 0022 0CD0     		beq	.L70
 193:Model/stai_palm_detector.c **** 
 529              		.loc 1 193 3 is_stmt 1 discriminator 1 view .LVU165
ARM GAS  C:\Users\DJESSOU\AppData\Local\Temp\ccruImXQ.s 			page 30


 193:Model/stai_palm_detector.c **** 
 530              		.loc 1 193 3 discriminator 1 view .LVU166
 531 0024 34B1     		cbz	r4, .L72
 193:Model/stai_palm_detector.c **** 
 532              		.loc 1 193 3 discriminator 4 view .LVU167
 533 0026 E36B     		ldr	r3, [r4, #60]
 534 0028 B3F5003F 		cmp	r3, #131072
 193:Model/stai_palm_detector.c **** 
 535              		.loc 1 193 3 discriminator 5 view .LVU168
 536 002c 3CBF     		itt	cc
 537 002e 4FF44033 		movcc	r3, #196608
 538 0032 E363     		strcc	r3, [r4, #60]
 539              	.LVL47:
 540              	.L72:
 193:Model/stai_palm_detector.c **** 
 541              		.loc 1 193 3 is_stmt 0 discriminator 3 view .LVU169
 542 0034 4FF44030 		mov	r0, #196608
 543              	.L68:
 267:Model/stai_palm_detector.c **** 
 544              		.loc 1 267 1 view .LVU170
 545 0038 02B0     		add	sp, sp, #8
 546              		.cfi_remember_state
 547              		.cfi_def_cfa_offset 24
 548              		@ sp needed
 549 003a BDE8F081 		pop	{r4, r5, r6, r7, r8, pc}
 550              	.LVL48:
 551              	.L70:
 552              		.cfi_restore_state
 193:Model/stai_palm_detector.c **** 
 553              		.loc 1 193 3 is_stmt 1 discriminator 2 view .LVU171
 193:Model/stai_palm_detector.c **** 
 554              		.loc 1 193 3 discriminator 2 view .LVU172
 196:Model/stai_palm_detector.c **** 
 555              		.loc 1 196 3 view .LVU173
 196:Model/stai_palm_detector.c **** 
 556              		.loc 1 196 48 is_stmt 0 view .LVU174
 557 003e FFF7FEFF 		bl	LL_ATON_Input_Buffers_Info_palm_detector
 558              	.LVL49:
 199:Model/stai_palm_detector.c ****   if (input_buffers && !pointers)
 559              		.loc 1 199 3 is_stmt 1 view .LVU175
 560 0042 0546     		mov	r5, r0
 561 0044 28B9     		cbnz	r0, .L74
 199:Model/stai_palm_detector.c ****   if (input_buffers && !pointers)
 562              		.loc 1 199 3 is_stmt 0 discriminator 1 view .LVU176
 563 0046 C721     		movs	r1, #199
 564 0048 344B     		ldr	r3, .L111+4
 565 004a 354A     		ldr	r2, .L111+8
 566              	.LVL50:
 567              	.L110:
 568              	.LBB18:
 569              	.LBB19:
 570              	.LBB20:
 226:Model/stai_palm_detector.c ****           unsigned char **address_location = (unsigned char **)buffer_info->addr_base.p;
 571              		.loc 1 226 11 discriminator 1 view .LVU177
 572 004c 3548     		ldr	r0, .L111+12
 573 004e FFF7FEFF 		bl	__assert_func
 574              	.LVL51:
ARM GAS  C:\Users\DJESSOU\AppData\Local\Temp\ccruImXQ.s 			page 31


 575              	.L74:
 226:Model/stai_palm_detector.c ****           unsigned char **address_location = (unsigned char **)buffer_info->addr_base.p;
 576              		.loc 1 226 11 discriminator 1 view .LVU178
 577              	.LBE20:
 578              	.LBE19:
 579              	.LBE18:
 200:Model/stai_palm_detector.c ****     __LL_ATON_STAI_SET_1ST_CTX_ERROR_AND_RETURN((_stai_aton_context *)network,
 580              		.loc 1 200 3 is_stmt 1 view .LVU179
 200:Model/stai_palm_detector.c ****     __LL_ATON_STAI_SET_1ST_CTX_ERROR_AND_RETURN((_stai_aton_context *)network,
 581              		.loc 1 200 21 is_stmt 0 discriminator 1 view .LVU180
 582 0052 4EB9     		cbnz	r6, .L75
 201:Model/stai_palm_detector.c ****                                                 STAI_ERROR_NETWORK_INVALID_API_ARGUMENTS);
 583              		.loc 1 201 5 is_stmt 1 view .LVU181
 201:Model/stai_palm_detector.c ****                                                 STAI_ERROR_NETWORK_INVALID_API_ARGUMENTS);
 584              		.loc 1 201 5 view .LVU182
 585 0054 002C     		cmp	r4, #0
 586 0056 EDD0     		beq	.L72
 201:Model/stai_palm_detector.c ****                                                 STAI_ERROR_NETWORK_INVALID_API_ARGUMENTS);
 587              		.loc 1 201 5 discriminator 2 view .LVU183
 588 0058 E36B     		ldr	r3, [r4, #60]
 201:Model/stai_palm_detector.c ****                                                 STAI_ERROR_NETWORK_INVALID_API_ARGUMENTS);
 589              		.loc 1 201 5 is_stmt 0 discriminator 5 view .LVU184
 590 005a 3348     		ldr	r0, .L111+16
 591              	.LVL52:
 201:Model/stai_palm_detector.c ****                                                 STAI_ERROR_NETWORK_INVALID_API_ARGUMENTS);
 592              		.loc 1 201 5 discriminator 2 view .LVU185
 593 005c B3F5003F 		cmp	r3, #131072
 201:Model/stai_palm_detector.c ****                                                 STAI_ERROR_NETWORK_INVALID_API_ARGUMENTS);
 594              		.loc 1 201 5 is_stmt 1 discriminator 3 view .LVU186
 595 0060 3CBF     		itt	cc
 596 0062 314B     		ldrcc	r3, .L111+16
 597 0064 E363     		strcc	r3, [r4, #60]
 598 0066 E7E7     		b	.L68
 599              	.LVL53:
 600              	.L75:
 201:Model/stai_palm_detector.c ****                                                 STAI_ERROR_NETWORK_INVALID_API_ARGUMENTS);
 601              		.loc 1 201 5 view .LVU187
 204:Model/stai_palm_detector.c ****   {
 602              		.loc 1 204 3 view .LVU188
 204:Model/stai_palm_detector.c ****   {
 603              		.loc 1 204 6 is_stmt 0 view .LVU189
 604 0068 FFB1     		cbz	r7, .L77
 206:Model/stai_palm_detector.c ****       __LL_ATON_STAI_SET_1ST_CTX_ERROR_AND_RETURN((_stai_aton_context *)network, STAI_ERROR_NETWORK
 605              		.loc 1 206 5 is_stmt 1 view .LVU190
 206:Model/stai_palm_detector.c ****       __LL_ATON_STAI_SET_1ST_CTX_ERROR_AND_RETURN((_stai_aton_context *)network, STAI_ERROR_NETWORK
 606              		.loc 1 206 8 is_stmt 0 view .LVU191
 607 006a B8F1010F 		cmp	r8, #1
 608 006e 12D1     		bne	.L78
 609              	.L81:
 190:Model/stai_palm_detector.c ****   /* check context & network interface handle */
 610              		.loc 1 190 1 view .LVU192
 611 0070 0021     		movs	r1, #0
 612              	.LVL54:
 613              	.L79:
 614              	.LBB26:
 219:Model/stai_palm_detector.c ****     {
 615              		.loc 1 219 52 is_stmt 1 discriminator 1 view .LVU193
ARM GAS  C:\Users\DJESSOU\AppData\Local\Temp\ccruImXQ.s 			page 32


 616 0072 2868     		ldr	r0, [r5]
 617 0074 0028     		cmp	r0, #0
 618 0076 DFD0     		beq	.L68
 619              	.LBB23:
 221:Model/stai_palm_detector.c ****       if (inputs == !buffer_info->is_param)
 620              		.loc 1 221 7 view .LVU194
 621              	.LVL55:
 222:Model/stai_palm_detector.c ****       {
 622              		.loc 1 222 7 view .LVU195
 222:Model/stai_palm_detector.c ****       {
 623              		.loc 1 222 21 is_stmt 0 view .LVU196
 624 0078 6A7D     		ldrb	r2, [r5, #21]	@ zero_extendqisi2
 222:Model/stai_palm_detector.c ****       {
 625              		.loc 1 222 10 view .LVU197
 626 007a B2FA82F2 		clz	r2, r2
 627 007e 5209     		lsrs	r2, r2, #5
 628 0080 BA42     		cmp	r2, r7
 629 0082 35D1     		bne	.L83
 224:Model/stai_palm_detector.c ****         {
 630              		.loc 1 224 9 is_stmt 1 view .LVU198
 224:Model/stai_palm_detector.c ****         {
 631              		.loc 1 224 12 is_stmt 0 view .LVU199
 632 0084 2B7D     		ldrb	r3, [r5, #20]	@ zero_extendqisi2
 633 0086 002B     		cmp	r3, #0
 634 0088 34D0     		beq	.L84
 635              	.LBB21:
 226:Model/stai_palm_detector.c ****           unsigned char **address_location = (unsigned char **)buffer_info->addr_base.p;
 636              		.loc 1 226 11 is_stmt 1 view .LVU200
 637 008a AB68     		ldr	r3, [r5, #8]
 638 008c D3B1     		cbz	r3, .L85
 226:Model/stai_palm_detector.c ****           unsigned char **address_location = (unsigned char **)buffer_info->addr_base.p;
 639              		.loc 1 226 11 is_stmt 0 discriminator 1 view .LVU201
 640 008e E221     		movs	r1, #226
 641              	.LVL56:
 226:Model/stai_palm_detector.c ****           unsigned char **address_location = (unsigned char **)buffer_info->addr_base.p;
 642              		.loc 1 226 11 discriminator 1 view .LVU202
 643 0090 264B     		ldr	r3, .L111+20
 644 0092 234A     		ldr	r2, .L111+8
 645 0094 DAE7     		b	.L110
 646              	.LVL57:
 647              	.L78:
 226:Model/stai_palm_detector.c ****           unsigned char **address_location = (unsigned char **)buffer_info->addr_base.p;
 648              		.loc 1 226 11 discriminator 1 view .LVU203
 649              	.LBE21:
 650              	.LBE23:
 651              	.LBE26:
 207:Model/stai_palm_detector.c ****   }
 652              		.loc 1 207 7 is_stmt 1 view .LVU204
 207:Model/stai_palm_detector.c ****   }
 653              		.loc 1 207 7 view .LVU205
 654 0096 002C     		cmp	r4, #0
 655 0098 CCD0     		beq	.L72
 207:Model/stai_palm_detector.c ****   }
 656              		.loc 1 207 7 discriminator 2 view .LVU206
 657 009a E36B     		ldr	r3, [r4, #60]
 207:Model/stai_palm_detector.c ****   }
 658              		.loc 1 207 7 is_stmt 0 discriminator 5 view .LVU207
ARM GAS  C:\Users\DJESSOU\AppData\Local\Temp\ccruImXQ.s 			page 33


 659 009c 2448     		ldr	r0, .L111+24
 660              	.LVL58:
 207:Model/stai_palm_detector.c ****   }
 661              		.loc 1 207 7 discriminator 2 view .LVU208
 662 009e B3F5003F 		cmp	r3, #131072
 207:Model/stai_palm_detector.c ****   }
 663              		.loc 1 207 7 is_stmt 1 discriminator 3 view .LVU209
 664 00a2 3CBF     		itt	cc
 665 00a4 224B     		ldrcc	r3, .L111+24
 666 00a6 E363     		strcc	r3, [r4, #60]
 667 00a8 C6E7     		b	.L68
 668              	.LVL59:
 669              	.L77:
 211:Model/stai_palm_detector.c ****       __LL_ATON_STAI_SET_1ST_CTX_ERROR_AND_RETURN((_stai_aton_context *)network,
 670              		.loc 1 211 5 view .LVU210
 211:Model/stai_palm_detector.c ****       __LL_ATON_STAI_SET_1ST_CTX_ERROR_AND_RETURN((_stai_aton_context *)network,
 671              		.loc 1 211 8 is_stmt 0 view .LVU211
 672 00aa B8F1000F 		cmp	r8, #0
 673 00ae DFD0     		beq	.L81
 212:Model/stai_palm_detector.c ****                                                   STAI_ERROR_NETWORK_INVALID_WEIGHTS_NUM);
 674              		.loc 1 212 7 is_stmt 1 view .LVU212
 212:Model/stai_palm_detector.c ****                                                   STAI_ERROR_NETWORK_INVALID_WEIGHTS_NUM);
 675              		.loc 1 212 7 view .LVU213
 676 00b0 002C     		cmp	r4, #0
 677 00b2 BFD0     		beq	.L72
 212:Model/stai_palm_detector.c ****                                                   STAI_ERROR_NETWORK_INVALID_WEIGHTS_NUM);
 678              		.loc 1 212 7 discriminator 2 view .LVU214
 679 00b4 E36B     		ldr	r3, [r4, #60]
 212:Model/stai_palm_detector.c ****                                                   STAI_ERROR_NETWORK_INVALID_WEIGHTS_NUM);
 680              		.loc 1 212 7 is_stmt 0 discriminator 5 view .LVU215
 681 00b6 1F48     		ldr	r0, .L111+28
 682              	.LVL60:
 212:Model/stai_palm_detector.c ****                                                   STAI_ERROR_NETWORK_INVALID_WEIGHTS_NUM);
 683              		.loc 1 212 7 discriminator 2 view .LVU216
 684 00b8 B3F5003F 		cmp	r3, #131072
 212:Model/stai_palm_detector.c ****                                                   STAI_ERROR_NETWORK_INVALID_WEIGHTS_NUM);
 685              		.loc 1 212 7 is_stmt 1 discriminator 3 view .LVU217
 686 00bc 3CBF     		itt	cc
 687 00be 1D4B     		ldrcc	r3, .L111+28
 688 00c0 E363     		strcc	r3, [r4, #60]
 689 00c2 B9E7     		b	.L68
 690              	.LVL61:
 691              	.L85:
 692              	.LBB27:
 693              	.LBB24:
 694              	.LBB22:
 227:Model/stai_palm_detector.c ****           unsigned char *new_address = pointers[cnt];
 695              		.loc 1 227 11 view .LVU218
 228:Model/stai_palm_detector.c **** 
 696              		.loc 1 228 26 is_stmt 0 view .LVU219
 697 00c4 56F82120 		ldr	r2, [r6, r1, lsl #2]
 227:Model/stai_palm_detector.c ****           unsigned char *new_address = pointers[cnt];
 698              		.loc 1 227 27 view .LVU220
 699 00c8 6B68     		ldr	r3, [r5, #4]
 700              	.LVL62:
 228:Model/stai_palm_detector.c **** 
 701              		.loc 1 228 11 is_stmt 1 view .LVU221
ARM GAS  C:\Users\DJESSOU\AppData\Local\Temp\ccruImXQ.s 			page 34


 230:Model/stai_palm_detector.c ****           {                                                                     // new address is n
 702              		.loc 1 230 11 view .LVU222
 230:Model/stai_palm_detector.c ****           {                                                                     // new address is n
 703              		.loc 1 230 14 is_stmt 0 view .LVU223
 704 00ca D006     		lsls	r0, r2, #27
 705 00cc 09D0     		beq	.L86
 232:Model/stai_palm_detector.c ****                                                         STAI_ERROR_INVALID_BUFFER_ALIGNMENT);
 706              		.loc 1 232 13 is_stmt 1 view .LVU224
 232:Model/stai_palm_detector.c ****                                                         STAI_ERROR_INVALID_BUFFER_ALIGNMENT);
 707              		.loc 1 232 13 view .LVU225
 708 00ce 002C     		cmp	r4, #0
 709 00d0 B0D0     		beq	.L72
 232:Model/stai_palm_detector.c ****                                                         STAI_ERROR_INVALID_BUFFER_ALIGNMENT);
 710              		.loc 1 232 13 discriminator 2 view .LVU226
 711 00d2 E36B     		ldr	r3, [r4, #60]
 712              	.LVL63:
 232:Model/stai_palm_detector.c ****                                                         STAI_ERROR_INVALID_BUFFER_ALIGNMENT);
 713              		.loc 1 232 13 is_stmt 0 discriminator 5 view .LVU227
 714 00d4 1848     		ldr	r0, .L111+32
 232:Model/stai_palm_detector.c ****                                                         STAI_ERROR_INVALID_BUFFER_ALIGNMENT);
 715              		.loc 1 232 13 discriminator 2 view .LVU228
 716 00d6 B3F5003F 		cmp	r3, #131072
 232:Model/stai_palm_detector.c ****                                                         STAI_ERROR_INVALID_BUFFER_ALIGNMENT);
 717              		.loc 1 232 13 is_stmt 1 discriminator 3 view .LVU229
 718 00da 3CBF     		itt	cc
 719 00dc 164B     		ldrcc	r3, .L111+32
 720 00de E363     		strcc	r3, [r4, #60]
 721 00e0 AAE7     		b	.L68
 722              	.LVL64:
 723              	.L86:
 232:Model/stai_palm_detector.c ****                                                         STAI_ERROR_INVALID_BUFFER_ALIGNMENT);
 724              		.loc 1 232 13 view .LVU230
 237:Model/stai_palm_detector.c ****             *address_location = new_address;
 725              		.loc 1 237 13 view .LVU231
 726 00e2 1BB9     		cbnz	r3, .L88
 237:Model/stai_palm_detector.c ****             *address_location = new_address;
 727              		.loc 1 237 13 is_stmt 0 discriminator 1 view .LVU232
 728 00e4 ED21     		movs	r1, #237
 729              	.LVL65:
 237:Model/stai_palm_detector.c ****             *address_location = new_address;
 730              		.loc 1 237 13 discriminator 1 view .LVU233
 731 00e6 154B     		ldr	r3, .L111+36
 732              	.LVL66:
 237:Model/stai_palm_detector.c ****             *address_location = new_address;
 733              		.loc 1 237 13 discriminator 1 view .LVU234
 734 00e8 0D4A     		ldr	r2, .L111+8
 735              	.LVL67:
 237:Model/stai_palm_detector.c ****             *address_location = new_address;
 736              		.loc 1 237 13 discriminator 1 view .LVU235
 737 00ea AFE7     		b	.L110
 738              	.LVL68:
 739              	.L88:
 238:Model/stai_palm_detector.c ****           }
 740              		.loc 1 238 13 is_stmt 1 view .LVU236
 238:Model/stai_palm_detector.c ****           }
 741              		.loc 1 238 31 is_stmt 0 view .LVU237
 742 00ec 1A60     		str	r2, [r3]
ARM GAS  C:\Users\DJESSOU\AppData\Local\Temp\ccruImXQ.s 			page 35


 743              	.LVL69:
 744              	.L89:
 238:Model/stai_palm_detector.c ****           }
 745              		.loc 1 238 31 view .LVU238
 746              	.LBE22:
 244:Model/stai_palm_detector.c ****                                                         STAI_ERROR_NETWORK_INVALID_IN_PTR);
 747              		.loc 1 244 13 is_stmt 1 view .LVU239
 247:Model/stai_palm_detector.c ****       }
 748              		.loc 1 247 9 view .LVU240
 247:Model/stai_palm_detector.c ****       }
 749              		.loc 1 247 12 is_stmt 0 view .LVU241
 750 00ee 0131     		adds	r1, r1, #1
 751              	.LVL70:
 752              	.L83:
 247:Model/stai_palm_detector.c ****       }
 753              		.loc 1 247 12 view .LVU242
 754              	.LBE24:
 219:Model/stai_palm_detector.c ****     {
 755              		.loc 1 219 64 is_stmt 1 discriminator 2 view .LVU243
 756 00f0 3835     		adds	r5, r5, #56
 757              	.LVL71:
 219:Model/stai_palm_detector.c ****     {
 758              		.loc 1 219 64 is_stmt 0 discriminator 2 view .LVU244
 759 00f2 BEE7     		b	.L79
 760              	.LVL72:
 761              	.L84:
 762              	.LBB25:
 243:Model/stai_palm_detector.c ****             __LL_ATON_STAI_SET_1ST_CTX_ERROR_AND_RETURN((_stai_aton_context *)network,
 763              		.loc 1 243 11 is_stmt 1 view .LVU245
 243:Model/stai_palm_detector.c ****             __LL_ATON_STAI_SET_1ST_CTX_ERROR_AND_RETURN((_stai_aton_context *)network,
 764              		.loc 1 243 67 is_stmt 0 view .LVU246
 765 00f4 2846     		mov	r0, r5
 766 00f6 FFF7FEFF 		bl	LL_Buffer_addr_start
 767              	.LVL73:
 243:Model/stai_palm_detector.c ****             __LL_ATON_STAI_SET_1ST_CTX_ERROR_AND_RETURN((_stai_aton_context *)network,
 768              		.loc 1 243 15 view .LVU247
 769 00fa 56F82180 		ldr	r8, [r6, r1, lsl #2]
 243:Model/stai_palm_detector.c ****             __LL_ATON_STAI_SET_1ST_CTX_ERROR_AND_RETURN((_stai_aton_context *)network,
 770              		.loc 1 243 14 discriminator 1 view .LVU248
 771 00fe 8045     		cmp	r8, r0
 772 0100 F5D0     		beq	.L89
 244:Model/stai_palm_detector.c ****                                                         STAI_ERROR_NETWORK_INVALID_IN_PTR);
 773              		.loc 1 244 13 is_stmt 1 view .LVU249
 244:Model/stai_palm_detector.c ****                                                         STAI_ERROR_NETWORK_INVALID_IN_PTR);
 774              		.loc 1 244 13 view .LVU250
 775 0102 002C     		cmp	r4, #0
 776 0104 96D0     		beq	.L72
 244:Model/stai_palm_detector.c ****                                                         STAI_ERROR_NETWORK_INVALID_IN_PTR);
 777              		.loc 1 244 13 discriminator 2 view .LVU251
 778 0106 E36B     		ldr	r3, [r4, #60]
 244:Model/stai_palm_detector.c ****                                                         STAI_ERROR_NETWORK_INVALID_IN_PTR);
 779              		.loc 1 244 13 is_stmt 0 discriminator 5 view .LVU252
 780 0108 0D48     		ldr	r0, .L111+40
 244:Model/stai_palm_detector.c ****                                                         STAI_ERROR_NETWORK_INVALID_IN_PTR);
 781              		.loc 1 244 13 discriminator 2 view .LVU253
 782 010a B3F5003F 		cmp	r3, #131072
 244:Model/stai_palm_detector.c ****                                                         STAI_ERROR_NETWORK_INVALID_IN_PTR);
ARM GAS  C:\Users\DJESSOU\AppData\Local\Temp\ccruImXQ.s 			page 36


 783              		.loc 1 244 13 is_stmt 1 discriminator 3 view .LVU254
 784 010e 3CBF     		itt	cc
 785 0110 0B4B     		ldrcc	r3, .L111+40
 786 0112 E363     		strcc	r3, [r4, #60]
 787 0114 90E7     		b	.L68
 788              	.L112:
 789 0116 00BF     		.align	2
 790              	.L111:
 791 0118 00000000 		.word	NN_Interface_palm_detector
 792 011c 00000000 		.word	.LC3
 793 0120 00000000 		.word	__func__.1
 794 0124 1F000000 		.word	.LC1
 795 0128 01000200 		.word	131073
 796 012c 00000000 		.word	.LC0
 797 0130 11000400 		.word	262161
 798 0134 41000400 		.word	262209
 799 0138 70000400 		.word	262256
 800 013c 3A000000 		.word	.LC2
 801 0140 10000400 		.word	262160
 802              	.LBE25:
 803              	.LBE27:
 804              		.cfi_endproc
 805              	.LFE305:
 807              		.section	.rodata.__ll_aton_stai_palm_detector_get_outputs_or_activations.str1.1,"aMS",%progbits,1
 808              	.LC4:
 809 0000 28287569 		.ascii	"((uintptr_t)pointers[cnt] % (32)) == 0\000"
 809      6E747074 
 809      725F7429 
 809      706F696E 
 809      74657273 
 810              		.section	.text.__ll_aton_stai_palm_detector_get_outputs_or_activations,"ax",%progbits
 811              		.align	1
 812              		.syntax unified
 813              		.thumb
 814              		.thumb_func
 816              	__ll_aton_stai_palm_detector_get_outputs_or_activations:
 817              	.LVL74:
 818              	.LFB304:
 113:Model/stai_palm_detector.c ****   /* check context & network interface handle */
 819              		.loc 1 113 1 view -0
 820              		.cfi_startproc
 821              		@ args = 0, pretend = 0, frame = 8
 822              		@ frame_needed = 0, uses_anonymous_args = 0
 113:Model/stai_palm_detector.c ****   /* check context & network interface handle */
 823              		.loc 1 113 1 is_stmt 0 view .LVU256
 824 0000 F7B5     		push	{r0, r1, r2, r4, r5, r6, r7, lr}
 825              		.cfi_def_cfa_offset 32
 826              		.cfi_offset 4, -20
 827              		.cfi_offset 5, -16
 828              		.cfi_offset 6, -12
 829              		.cfi_offset 7, -8
 830              		.cfi_offset 14, -4
 113:Model/stai_palm_detector.c ****   /* check context & network interface handle */
 831              		.loc 1 113 1 view .LVU257
 832 0002 1E46     		mov	r6, r3
 115:Model/stai_palm_detector.c ****   __LL_ATON_STAI_CHECK_NETWORK_INTERFACE(nn_i_ptr, (_stai_aton_context *)network);
 833              		.loc 1 115 3 view .LVU258
ARM GAS  C:\Users\DJESSOU\AppData\Local\Temp\ccruImXQ.s 			page 37


 834 0004 0023     		movs	r3, #0
 835              	.LVL75:
 113:Model/stai_palm_detector.c ****   /* check context & network interface handle */
 836              		.loc 1 113 1 view .LVU259
 837 0006 0F46     		mov	r7, r1
 115:Model/stai_palm_detector.c ****   __LL_ATON_STAI_CHECK_NETWORK_INTERFACE(nn_i_ptr, (_stai_aton_context *)network);
 838              		.loc 1 115 3 view .LVU260
 839 0008 01A9     		add	r1, sp, #4
 840              	.LVL76:
 113:Model/stai_palm_detector.c ****   /* check context & network interface handle */
 841              		.loc 1 113 1 view .LVU261
 842 000a 0446     		mov	r4, r0
 115:Model/stai_palm_detector.c ****   __LL_ATON_STAI_CHECK_NETWORK_INTERFACE(nn_i_ptr, (_stai_aton_context *)network);
 843              		.loc 1 115 3 view .LVU262
 844 000c 0193     		str	r3, [sp, #4]
 845 000e FFF7FEFF 		bl	__ll_aton_stai_check_context_network_handle.constprop.0
 846              	.LVL77:
 115:Model/stai_palm_detector.c ****   __LL_ATON_STAI_CHECK_NETWORK_INTERFACE(nn_i_ptr, (_stai_aton_context *)network);
 847              		.loc 1 115 3 discriminator 1 view .LVU263
 848 0012 B0F5003F 		cmp	r0, #131072
 113:Model/stai_palm_detector.c ****   /* check context & network interface handle */
 849              		.loc 1 113 1 view .LVU264
 850 0016 1546     		mov	r5, r2
 115:Model/stai_palm_detector.c ****   __LL_ATON_STAI_CHECK_NETWORK_INTERFACE(nn_i_ptr, (_stai_aton_context *)network);
 851              		.loc 1 115 3 is_stmt 1 view .LVU265
 115:Model/stai_palm_detector.c ****   __LL_ATON_STAI_CHECK_NETWORK_INTERFACE(nn_i_ptr, (_stai_aton_context *)network);
 852              		.loc 1 115 3 view .LVU266
 853              	.LVL78:
 115:Model/stai_palm_detector.c ****   __LL_ATON_STAI_CHECK_NETWORK_INTERFACE(nn_i_ptr, (_stai_aton_context *)network);
 854              		.loc 1 115 3 discriminator 1 view .LVU267
 855 0018 0DD2     		bcs	.L113
 115:Model/stai_palm_detector.c ****   __LL_ATON_STAI_CHECK_NETWORK_INTERFACE(nn_i_ptr, (_stai_aton_context *)network);
 856              		.loc 1 115 54 discriminator 2 view .LVU268
 116:Model/stai_palm_detector.c **** 
 857              		.loc 1 116 3 view .LVU269
 116:Model/stai_palm_detector.c **** 
 858              		.loc 1 116 3 view .LVU270
 859 001a 254B     		ldr	r3, .L144
 860 001c 019A     		ldr	r2, [sp, #4]
 861              	.LVL79:
 116:Model/stai_palm_detector.c **** 
 862              		.loc 1 116 3 is_stmt 0 view .LVU271
 863 001e 9A42     		cmp	r2, r3
 864 0020 0BD0     		beq	.L115
 116:Model/stai_palm_detector.c **** 
 865              		.loc 1 116 3 is_stmt 1 discriminator 1 view .LVU272
 116:Model/stai_palm_detector.c **** 
 866              		.loc 1 116 3 discriminator 1 view .LVU273
 867 0022 34B1     		cbz	r4, .L116
 116:Model/stai_palm_detector.c **** 
 868              		.loc 1 116 3 discriminator 4 view .LVU274
 869 0024 E36B     		ldr	r3, [r4, #60]
 870 0026 B3F5003F 		cmp	r3, #131072
 116:Model/stai_palm_detector.c **** 
 871              		.loc 1 116 3 discriminator 5 view .LVU275
 872 002a 3CBF     		itt	cc
 873 002c 4FF44033 		movcc	r3, #196608
ARM GAS  C:\Users\DJESSOU\AppData\Local\Temp\ccruImXQ.s 			page 38


 874 0030 E363     		strcc	r3, [r4, #60]
 875              	.L116:
 116:Model/stai_palm_detector.c **** 
 876              		.loc 1 116 3 is_stmt 0 discriminator 3 view .LVU276
 877 0032 4FF44030 		mov	r0, #196608
 878              	.LVL80:
 879              	.L113:
 184:Model/stai_palm_detector.c **** 
 880              		.loc 1 184 1 view .LVU277
 881 0036 03B0     		add	sp, sp, #12
 882              		.cfi_remember_state
 883              		.cfi_def_cfa_offset 20
 884              		@ sp needed
 885 0038 F0BD     		pop	{r4, r5, r6, r7, pc}
 886              	.LVL81:
 887              	.L115:
 888              		.cfi_restore_state
 116:Model/stai_palm_detector.c **** 
 889              		.loc 1 116 3 is_stmt 1 discriminator 2 view .LVU278
 116:Model/stai_palm_detector.c **** 
 890              		.loc 1 116 3 discriminator 2 view .LVU279
 119:Model/stai_palm_detector.c ****     __LL_ATON_STAI_SET_1ST_CTX_ERROR_AND_RETURN((_stai_aton_context *)network,
 891              		.loc 1 119 3 view .LVU280
 119:Model/stai_palm_detector.c ****     __LL_ATON_STAI_SET_1ST_CTX_ERROR_AND_RETURN((_stai_aton_context *)network,
 892              		.loc 1 119 6 is_stmt 0 view .LVU281
 893 003a 4DB9     		cbnz	r5, .L117
 120:Model/stai_palm_detector.c ****                                                 STAI_ERROR_NETWORK_INVALID_API_ARGUMENTS);
 894              		.loc 1 120 5 is_stmt 1 view .LVU282
 120:Model/stai_palm_detector.c ****                                                 STAI_ERROR_NETWORK_INVALID_API_ARGUMENTS);
 895              		.loc 1 120 5 view .LVU283
 896 003c 002C     		cmp	r4, #0
 897 003e F8D0     		beq	.L116
 120:Model/stai_palm_detector.c ****                                                 STAI_ERROR_NETWORK_INVALID_API_ARGUMENTS);
 898              		.loc 1 120 5 discriminator 2 view .LVU284
 899 0040 E36B     		ldr	r3, [r4, #60]
 900 0042 B3F5003F 		cmp	r3, #131072
 901 0046 01D2     		bcs	.L118
 120:Model/stai_palm_detector.c ****                                                 STAI_ERROR_NETWORK_INVALID_API_ARGUMENTS);
 902              		.loc 1 120 5 discriminator 3 view .LVU285
 903 0048 1A4B     		ldr	r3, .L144+4
 904 004a E363     		str	r3, [r4, #60]
 905              	.L118:
 120:Model/stai_palm_detector.c ****                                                 STAI_ERROR_NETWORK_INVALID_API_ARGUMENTS);
 906              		.loc 1 120 5 is_stmt 0 discriminator 5 view .LVU286
 907 004c 1948     		ldr	r0, .L144+4
 908              	.LVL82:
 120:Model/stai_palm_detector.c ****                                                 STAI_ERROR_NETWORK_INVALID_API_ARGUMENTS);
 909              		.loc 1 120 5 discriminator 5 view .LVU287
 910 004e F2E7     		b	.L113
 911              	.LVL83:
 912              	.L117:
 120:Model/stai_palm_detector.c ****                                                 STAI_ERROR_NETWORK_INVALID_API_ARGUMENTS);
 913              		.loc 1 120 5 is_stmt 1 view .LVU288
 124:Model/stai_palm_detector.c ****   if (outputs)
 914              		.loc 1 124 3 view .LVU289
 125:Model/stai_palm_detector.c ****   {
 915              		.loc 1 125 3 view .LVU290
ARM GAS  C:\Users\DJESSOU\AppData\Local\Temp\ccruImXQ.s 			page 39


 125:Model/stai_palm_detector.c ****   {
 916              		.loc 1 125 6 is_stmt 0 view .LVU291
 917 0050 36B1     		cbz	r6, .L119
 127:Model/stai_palm_detector.c ****   }
 918              		.loc 1 127 5 is_stmt 1 view .LVU292
 127:Model/stai_palm_detector.c ****   }
 919              		.loc 1 127 25 is_stmt 0 view .LVU293
 920 0052 FFF7FEFF 		bl	LL_ATON_Output_Buffers_Info_palm_detector
 921              	.LVL84:
 135:Model/stai_palm_detector.c ****   if (out_activ_buffers != NULL)
 922              		.loc 1 135 3 is_stmt 1 view .LVU294
 136:Model/stai_palm_detector.c ****   {
 923              		.loc 1 136 3 view .LVU295
 136:Model/stai_palm_detector.c ****   {
 924              		.loc 1 136 6 is_stmt 0 view .LVU296
 925 0056 30B9     		cbnz	r0, .L120
 926              	.LVL85:
 927              	.L129:
 176:Model/stai_palm_detector.c ****   }
 928              		.loc 1 176 5 is_stmt 1 view .LVU297
 929 0058 0223     		movs	r3, #2
 930              	.L130:
 183:Model/stai_palm_detector.c **** }
 931              		.loc 1 183 10 is_stmt 0 view .LVU298
 932 005a 0020     		movs	r0, #0
 176:Model/stai_palm_detector.c ****   }
 933              		.loc 1 176 13 view .LVU299
 934 005c 2B60     		str	r3, [r5]
 935 005e EAE7     		b	.L113
 936              	.LVL86:
 937              	.L119:
 131:Model/stai_palm_detector.c ****   }
 938              		.loc 1 131 5 is_stmt 1 view .LVU300
 131:Model/stai_palm_detector.c ****   }
 939              		.loc 1 131 25 is_stmt 0 view .LVU301
 940 0060 FFF7FEFF 		bl	LL_ATON_Internal_Buffers_Info_palm_detector
 941              	.LVL87:
 135:Model/stai_palm_detector.c ****   if (out_activ_buffers != NULL)
 942              		.loc 1 135 3 is_stmt 1 view .LVU302
 136:Model/stai_palm_detector.c ****   {
 943              		.loc 1 136 3 view .LVU303
 136:Model/stai_palm_detector.c ****   {
 944              		.loc 1 136 6 is_stmt 0 view .LVU304
 945 0064 28B1     		cbz	r0, .L121
 946              	.L120:
 136:Model/stai_palm_detector.c ****   {
 947              		.loc 1 136 6 view .LVU305
 948 0066 0446     		mov	r4, r0
 949              	.LVL88:
 136:Model/stai_palm_detector.c ****   {
 950              		.loc 1 136 6 view .LVU306
 951 0068 3946     		mov	r1, r7
 952              	.LVL89:
 953              	.L122:
 954              	.LBB34:
 138:Model/stai_palm_detector.c ****     {
 955              		.loc 1 138 56 is_stmt 1 discriminator 1 view .LVU307
ARM GAS  C:\Users\DJESSOU\AppData\Local\Temp\ccruImXQ.s 			page 40


 956 006a 2368     		ldr	r3, [r4]
 957 006c 1BB9     		cbnz	r3, .L128
 958              	.LBE34:
 160:Model/stai_palm_detector.c ****   }
 959              		.loc 1 160 5 view .LVU308
 160:Model/stai_palm_detector.c ****   }
 960              		.loc 1 160 5 view .LVU309
 160:Model/stai_palm_detector.c ****   }
 961              		.loc 1 160 5 view .LVU310
 160:Model/stai_palm_detector.c ****   }
 962              		.loc 1 160 98 view .LVU311
 163:Model/stai_palm_detector.c ****   {
 963              		.loc 1 163 3 view .LVU312
 165:Model/stai_palm_detector.c ****   }
 964              		.loc 1 165 5 view .LVU313
 165:Model/stai_palm_detector.c ****   }
 965              		.loc 1 165 5 view .LVU314
 165:Model/stai_palm_detector.c ****   }
 966              		.loc 1 165 5 view .LVU315
 165:Model/stai_palm_detector.c ****   }
 967              		.loc 1 165 51 view .LVU316
 169:Model/stai_palm_detector.c ****   }
 968              		.loc 1 169 5 view .LVU317
 169:Model/stai_palm_detector.c ****   }
 969              		.loc 1 169 5 view .LVU318
 169:Model/stai_palm_detector.c ****   }
 970              		.loc 1 169 5 view .LVU319
 169:Model/stai_palm_detector.c ****   }
 971              		.loc 1 169 59 view .LVU320
 174:Model/stai_palm_detector.c ****   {
 972              		.loc 1 174 3 view .LVU321
 174:Model/stai_palm_detector.c ****   {
 973              		.loc 1 174 6 is_stmt 0 view .LVU322
 974 006e 002E     		cmp	r6, #0
 975 0070 F2D1     		bne	.L129
 976              	.LVL90:
 977              	.L121:
 180:Model/stai_palm_detector.c ****   }
 978              		.loc 1 180 5 is_stmt 1 view .LVU323
 979 0072 EF23     		movs	r3, #239
 980 0074 F1E7     		b	.L130
 981              	.LVL91:
 982              	.L128:
 983              	.LBB38:
 984              	.LBB35:
 140:Model/stai_palm_detector.c ****       STAI_ASSERT(!buffer_info->is_param); // may never happen
 985              		.loc 1 140 7 view .LVU324
 141:Model/stai_palm_detector.c ****       if (pointers)
 986              		.loc 1 141 7 view .LVU325
 141:Model/stai_palm_detector.c ****       if (pointers)
 987              		.loc 1 141 7 view .LVU326
 141:Model/stai_palm_detector.c ****       if (pointers)
 988              		.loc 1 141 7 view .LVU327
 141:Model/stai_palm_detector.c ****       if (pointers)
 989              		.loc 1 141 42 view .LVU328
 142:Model/stai_palm_detector.c ****       {
 990              		.loc 1 142 7 view .LVU329
ARM GAS  C:\Users\DJESSOU\AppData\Local\Temp\ccruImXQ.s 			page 41


 142:Model/stai_palm_detector.c ****       {
 991              		.loc 1 142 10 is_stmt 0 view .LVU330
 992 0076 BFB1     		cbz	r7, .L124
 144:Model/stai_palm_detector.c ****         {
 993              		.loc 1 144 9 is_stmt 1 view .LVU331
 144:Model/stai_palm_detector.c ****         {
 994              		.loc 1 144 12 is_stmt 0 view .LVU332
 995 0078 237D     		ldrb	r3, [r4, #20]	@ zero_extendqisi2
 996 007a 8BB1     		cbz	r3, .L125
 146:Model/stai_palm_detector.c ****           pointers[cnt] = LL_Buffer_addr_start(buffer_info); // user allocated buffers are saved wi
 997              		.loc 1 146 11 is_stmt 1 view .LVU333
 998 007c A368     		ldr	r3, [r4, #8]
 999 007e 2BB1     		cbz	r3, .L126
 146:Model/stai_palm_detector.c ****           pointers[cnt] = LL_Buffer_addr_start(buffer_info); // user allocated buffers are saved wi
 1000              		.loc 1 146 11 is_stmt 0 discriminator 1 view .LVU334
 1001 0080 9221     		movs	r1, #146
 1002 0082 0D4B     		ldr	r3, .L144+8
 1003 0084 0D4A     		ldr	r2, .L144+12
 1004              	.L143:
 146:Model/stai_palm_detector.c ****           pointers[cnt] = LL_Buffer_addr_start(buffer_info); // user allocated buffers are saved wi
 1005              		.loc 1 146 11 discriminator 1 view .LVU335
 1006              	.LBE35:
 1007              	.LBE38:
 1008              	.LBB39:
 1009              	.LBB40:
 1010              	.LBB41:
 1011              	.LBB42:
 148:Model/stai_palm_detector.c ****         }
 1012              		.loc 1 148 11 discriminator 1 view .LVU336
 1013 0086 0E48     		ldr	r0, .L144+16
 1014 0088 FFF7FEFF 		bl	__assert_func
 1015              	.LVL92:
 1016              	.L126:
 148:Model/stai_palm_detector.c ****         }
 1017              		.loc 1 148 11 discriminator 1 view .LVU337
 1018              	.LBE42:
 1019              	.LBE41:
 1020              	.LBE40:
 1021              	.LBE39:
 1022              	.LBB46:
 1023              	.LBB36:
 147:Model/stai_palm_detector.c ****           LL_ATON_ASSERT(((uintptr_t)pointers[cnt] % STAI_CACHE_USER_BUFFER_ALIGNMENT) == 0);
 1024              		.loc 1 147 11 is_stmt 1 view .LVU338
 147:Model/stai_palm_detector.c ****           LL_ATON_ASSERT(((uintptr_t)pointers[cnt] % STAI_CACHE_USER_BUFFER_ALIGNMENT) == 0);
 1025              		.loc 1 147 27 is_stmt 0 view .LVU339
 1026 008c 2046     		mov	r0, r4
 1027 008e FFF7FEFF 		bl	LL_Buffer_addr_start
 1028              	.LVL93:
 148:Model/stai_palm_detector.c ****         }
 1029              		.loc 1 148 11 view .LVU340
 1030 0092 C306     		lsls	r3, r0, #27
 147:Model/stai_palm_detector.c ****           LL_ATON_ASSERT(((uintptr_t)pointers[cnt] % STAI_CACHE_USER_BUFFER_ALIGNMENT) == 0);
 1031              		.loc 1 147 25 discriminator 1 view .LVU341
 1032 0094 0860     		str	r0, [r1]
 148:Model/stai_palm_detector.c ****         }
 1033              		.loc 1 148 11 is_stmt 1 view .LVU342
 1034 0096 07D0     		beq	.L124
ARM GAS  C:\Users\DJESSOU\AppData\Local\Temp\ccruImXQ.s 			page 42


 1035              	.LBE36:
 1036              	.LBE46:
 1037              	.LBB47:
 1038              	.LBI39:
 109:Model/stai_palm_detector.c ****                                                                                                stai
 1039              		.loc 1 109 32 view .LVU343
 1040              	.LVL94:
 1041              	.LBB45:
 1042              	.LBB44:
 1043              	.LBB43:
 148:Model/stai_palm_detector.c ****         }
 1044              		.loc 1 148 11 is_stmt 0 discriminator 1 view .LVU344
 1045 0098 9421     		movs	r1, #148
 1046 009a 0A4B     		ldr	r3, .L144+20
 1047 009c 074A     		ldr	r2, .L144+12
 1048 009e F2E7     		b	.L143
 1049              	.LVL95:
 1050              	.L125:
 148:Model/stai_palm_detector.c ****         }
 1051              		.loc 1 148 11 discriminator 1 view .LVU345
 1052              	.LBE43:
 1053              	.LBE44:
 1054              	.LBE45:
 1055              	.LBE47:
 1056              	.LBB48:
 1057              	.LBB37:
 152:Model/stai_palm_detector.c ****         }
 1058              		.loc 1 152 11 is_stmt 1 view .LVU346
 152:Model/stai_palm_detector.c ****         }
 1059              		.loc 1 152 27 is_stmt 0 view .LVU347
 1060 00a0 2046     		mov	r0, r4
 1061 00a2 FFF7FEFF 		bl	LL_Buffer_addr_start
 1062              	.LVL96:
 152:Model/stai_palm_detector.c ****         }
 1063              		.loc 1 152 25 discriminator 1 view .LVU348
 1064 00a6 0860     		str	r0, [r1]
 1065              	.L124:
 155:Model/stai_palm_detector.c ****     }
 1066              		.loc 1 155 7 is_stmt 1 view .LVU349
 1067              	.LVL97:
 155:Model/stai_palm_detector.c ****     }
 1068              		.loc 1 155 7 is_stmt 0 view .LVU350
 1069              	.LBE37:
 138:Model/stai_palm_detector.c ****     {
 1070              		.loc 1 138 68 is_stmt 1 discriminator 2 view .LVU351
 138:Model/stai_palm_detector.c ****     {
 1071              		.loc 1 138 68 is_stmt 0 discriminator 2 view .LVU352
 1072 00a8 3834     		adds	r4, r4, #56
 1073              	.LVL98:
 138:Model/stai_palm_detector.c ****     {
 1074              		.loc 1 138 68 discriminator 2 view .LVU353
 1075 00aa 0431     		adds	r1, r1, #4
 1076 00ac DDE7     		b	.L122
 1077              	.L145:
 1078 00ae 00BF     		.align	2
 1079              	.L144:
 1080 00b0 00000000 		.word	NN_Interface_palm_detector
ARM GAS  C:\Users\DJESSOU\AppData\Local\Temp\ccruImXQ.s 			page 43


 1081 00b4 01000200 		.word	131073
 1082 00b8 00000000 		.word	.LC0
 1083 00bc 00000000 		.word	__func__.2
 1084 00c0 1F000000 		.word	.LC1
 1085 00c4 00000000 		.word	.LC4
 1086              	.LBE48:
 1087              		.cfi_endproc
 1088              	.LFE304:
 1090              		.section	.text.__ll_aton_stai_palm_detector_get_inputs_or_weights,"ax",%progbits
 1091              		.align	1
 1092              		.syntax unified
 1093              		.thumb
 1094              		.thumb_func
 1096              	__ll_aton_stai_palm_detector_get_inputs_or_weights:
 1097              	.LVL99:
 1098              	.LFB303:
  42:Model/stai_palm_detector.c ****   __LL_ATON_STAI_ACQUIRE_INTERFACE(nn_i_ptr, network);
 1099              		.loc 1 42 1 is_stmt 1 view -0
 1100              		.cfi_startproc
 1101              		@ args = 0, pretend = 0, frame = 8
 1102              		@ frame_needed = 0, uses_anonymous_args = 0
  42:Model/stai_palm_detector.c ****   __LL_ATON_STAI_ACQUIRE_INTERFACE(nn_i_ptr, network);
 1103              		.loc 1 42 1 is_stmt 0 view .LVU355
 1104 0000 2DE9F341 		push	{r0, r1, r4, r5, r6, r7, r8, lr}
 1105              		.cfi_def_cfa_offset 32
 1106              		.cfi_offset 4, -24
 1107              		.cfi_offset 5, -20
 1108              		.cfi_offset 6, -16
 1109              		.cfi_offset 7, -12
 1110              		.cfi_offset 8, -8
 1111              		.cfi_offset 14, -4
  43:Model/stai_palm_detector.c ****   __LL_ATON_STAI_CHECK_NETWORK_INTERFACE(nn_i_ptr, (_stai_aton_context *)network);
 1112              		.loc 1 43 3 view .LVU356
 1113 0004 4FF00008 		mov	r8, #0
  42:Model/stai_palm_detector.c ****   __LL_ATON_STAI_ACQUIRE_INTERFACE(nn_i_ptr, network);
 1114              		.loc 1 42 1 view .LVU357
 1115 0008 0D46     		mov	r5, r1
  43:Model/stai_palm_detector.c ****   __LL_ATON_STAI_CHECK_NETWORK_INTERFACE(nn_i_ptr, (_stai_aton_context *)network);
 1116              		.loc 1 43 3 view .LVU358
 1117 000a 01A9     		add	r1, sp, #4
 1118              	.LVL100:
  42:Model/stai_palm_detector.c ****   __LL_ATON_STAI_ACQUIRE_INTERFACE(nn_i_ptr, network);
 1119              		.loc 1 42 1 view .LVU359
 1120 000c 0446     		mov	r4, r0
 1121 000e 1F46     		mov	r7, r3
  43:Model/stai_palm_detector.c ****   __LL_ATON_STAI_CHECK_NETWORK_INTERFACE(nn_i_ptr, (_stai_aton_context *)network);
 1122              		.loc 1 43 3 view .LVU360
 1123 0010 CDF80480 		str	r8, [sp, #4]
 1124 0014 FFF7FEFF 		bl	__ll_aton_stai_check_context_network_handle.constprop.0
 1125              	.LVL101:
  43:Model/stai_palm_detector.c ****   __LL_ATON_STAI_CHECK_NETWORK_INTERFACE(nn_i_ptr, (_stai_aton_context *)network);
 1126              		.loc 1 43 3 discriminator 1 view .LVU361
 1127 0018 B0F5003F 		cmp	r0, #131072
  42:Model/stai_palm_detector.c ****   __LL_ATON_STAI_ACQUIRE_INTERFACE(nn_i_ptr, network);
 1128              		.loc 1 42 1 view .LVU362
 1129 001c 1646     		mov	r6, r2
  43:Model/stai_palm_detector.c ****   __LL_ATON_STAI_CHECK_NETWORK_INTERFACE(nn_i_ptr, (_stai_aton_context *)network);
ARM GAS  C:\Users\DJESSOU\AppData\Local\Temp\ccruImXQ.s 			page 44


 1130              		.loc 1 43 3 is_stmt 1 view .LVU363
  43:Model/stai_palm_detector.c ****   __LL_ATON_STAI_CHECK_NETWORK_INTERFACE(nn_i_ptr, (_stai_aton_context *)network);
 1131              		.loc 1 43 3 view .LVU364
 1132              	.LVL102:
  43:Model/stai_palm_detector.c ****   __LL_ATON_STAI_CHECK_NETWORK_INTERFACE(nn_i_ptr, (_stai_aton_context *)network);
 1133              		.loc 1 43 3 discriminator 1 view .LVU365
 1134 001e 0DD2     		bcs	.L146
  43:Model/stai_palm_detector.c ****   __LL_ATON_STAI_CHECK_NETWORK_INTERFACE(nn_i_ptr, (_stai_aton_context *)network);
 1135              		.loc 1 43 54 discriminator 2 view .LVU366
  44:Model/stai_palm_detector.c **** 
 1136              		.loc 1 44 3 view .LVU367
  44:Model/stai_palm_detector.c **** 
 1137              		.loc 1 44 3 view .LVU368
 1138 0020 264B     		ldr	r3, .L174
 1139 0022 019A     		ldr	r2, [sp, #4]
 1140              	.LVL103:
  44:Model/stai_palm_detector.c **** 
 1141              		.loc 1 44 3 is_stmt 0 view .LVU369
 1142 0024 9A42     		cmp	r2, r3
 1143 0026 0CD0     		beq	.L148
  44:Model/stai_palm_detector.c **** 
 1144              		.loc 1 44 3 is_stmt 1 discriminator 1 view .LVU370
  44:Model/stai_palm_detector.c **** 
 1145              		.loc 1 44 3 discriminator 1 view .LVU371
 1146 0028 34B1     		cbz	r4, .L149
  44:Model/stai_palm_detector.c **** 
 1147              		.loc 1 44 3 discriminator 4 view .LVU372
 1148 002a E36B     		ldr	r3, [r4, #60]
 1149 002c B3F5003F 		cmp	r3, #131072
  44:Model/stai_palm_detector.c **** 
 1150              		.loc 1 44 3 discriminator 5 view .LVU373
 1151 0030 3CBF     		itt	cc
 1152 0032 4FF44033 		movcc	r3, #196608
 1153 0036 E363     		strcc	r3, [r4, #60]
 1154              	.L149:
  44:Model/stai_palm_detector.c **** 
 1155              		.loc 1 44 3 is_stmt 0 discriminator 3 view .LVU374
 1156 0038 4FF44030 		mov	r0, #196608
 1157              	.LVL104:
 1158              	.L146:
 107:Model/stai_palm_detector.c **** 
 1159              		.loc 1 107 1 view .LVU375
 1160 003c 02B0     		add	sp, sp, #8
 1161              		.cfi_remember_state
 1162              		.cfi_def_cfa_offset 24
 1163              		@ sp needed
 1164 003e BDE8F081 		pop	{r4, r5, r6, r7, r8, pc}
 1165              	.LVL105:
 1166              	.L148:
 1167              		.cfi_restore_state
  44:Model/stai_palm_detector.c **** 
 1168              		.loc 1 44 3 is_stmt 1 discriminator 2 view .LVU376
  44:Model/stai_palm_detector.c **** 
 1169              		.loc 1 44 3 discriminator 2 view .LVU377
  47:Model/stai_palm_detector.c ****     __LL_ATON_STAI_SET_1ST_CTX_ERROR_AND_RETURN((_stai_aton_context *)network,
 1170              		.loc 1 47 3 view .LVU378
  47:Model/stai_palm_detector.c ****     __LL_ATON_STAI_SET_1ST_CTX_ERROR_AND_RETURN((_stai_aton_context *)network,
ARM GAS  C:\Users\DJESSOU\AppData\Local\Temp\ccruImXQ.s 			page 45


 1171              		.loc 1 47 6 is_stmt 0 view .LVU379
 1172 0042 4EB9     		cbnz	r6, .L150
  48:Model/stai_palm_detector.c ****                                                 STAI_ERROR_NETWORK_INVALID_API_ARGUMENTS);
 1173              		.loc 1 48 5 is_stmt 1 view .LVU380
  48:Model/stai_palm_detector.c ****                                                 STAI_ERROR_NETWORK_INVALID_API_ARGUMENTS);
 1174              		.loc 1 48 5 view .LVU381
 1175 0044 002C     		cmp	r4, #0
 1176 0046 F7D0     		beq	.L149
  48:Model/stai_palm_detector.c ****                                                 STAI_ERROR_NETWORK_INVALID_API_ARGUMENTS);
 1177              		.loc 1 48 5 discriminator 2 view .LVU382
 1178 0048 E36B     		ldr	r3, [r4, #60]
 1179 004a B3F5003F 		cmp	r3, #131072
 1180 004e 01D2     		bcs	.L151
  48:Model/stai_palm_detector.c ****                                                 STAI_ERROR_NETWORK_INVALID_API_ARGUMENTS);
 1181              		.loc 1 48 5 discriminator 3 view .LVU383
 1182 0050 1B4B     		ldr	r3, .L174+4
 1183 0052 E363     		str	r3, [r4, #60]
 1184              	.L151:
  48:Model/stai_palm_detector.c ****                                                 STAI_ERROR_NETWORK_INVALID_API_ARGUMENTS);
 1185              		.loc 1 48 5 is_stmt 0 discriminator 5 view .LVU384
 1186 0054 1A48     		ldr	r0, .L174+4
 1187              	.LVL106:
  48:Model/stai_palm_detector.c ****                                                 STAI_ERROR_NETWORK_INVALID_API_ARGUMENTS);
 1188              		.loc 1 48 5 discriminator 5 view .LVU385
 1189 0056 F1E7     		b	.L146
 1190              	.LVL107:
 1191              	.L150:
  48:Model/stai_palm_detector.c ****                                                 STAI_ERROR_NETWORK_INVALID_API_ARGUMENTS);
 1192              		.loc 1 48 5 is_stmt 1 view .LVU386
  52:Model/stai_palm_detector.c **** 
 1193              		.loc 1 52 3 view .LVU387
  52:Model/stai_palm_detector.c **** 
 1194              		.loc 1 52 48 is_stmt 0 view .LVU388
 1195 0058 FFF7FEFF 		bl	LL_ATON_Input_Buffers_Info_palm_detector
 1196              	.LVL108:
  55:Model/stai_palm_detector.c ****   if (input_buffers != NULL)
 1197              		.loc 1 55 3 is_stmt 1 view .LVU389
  56:Model/stai_palm_detector.c ****   {
 1198              		.loc 1 56 3 view .LVU390
  56:Model/stai_palm_detector.c ****   {
 1199              		.loc 1 56 6 is_stmt 0 view .LVU391
 1200 005c 0446     		mov	r4, r0
 1201              	.LVL109:
  56:Model/stai_palm_detector.c ****   {
 1202              		.loc 1 56 6 view .LVU392
 1203 005e A0B9     		cbnz	r0, .L153
 1204              	.LVL110:
 1205              	.L152:
  83:Model/stai_palm_detector.c ****   }
 1206              		.loc 1 83 5 is_stmt 1 view .LVU393
  83:Model/stai_palm_detector.c ****   }
 1207              		.loc 1 83 5 view .LVU394
  83:Model/stai_palm_detector.c ****   }
 1208              		.loc 1 83 5 view .LVU395
  83:Model/stai_palm_detector.c ****   }
 1209              		.loc 1 83 92 view .LVU396
  86:Model/stai_palm_detector.c ****   {
ARM GAS  C:\Users\DJESSOU\AppData\Local\Temp\ccruImXQ.s 			page 46


 1210              		.loc 1 86 3 view .LVU397
  88:Model/stai_palm_detector.c ****   }
 1211              		.loc 1 88 5 view .LVU398
  88:Model/stai_palm_detector.c ****   }
 1212              		.loc 1 88 5 view .LVU399
  88:Model/stai_palm_detector.c ****   }
 1213              		.loc 1 88 5 view .LVU400
  88:Model/stai_palm_detector.c ****   }
 1214              		.loc 1 88 50 view .LVU401
  92:Model/stai_palm_detector.c ****   }
 1215              		.loc 1 92 5 view .LVU402
  92:Model/stai_palm_detector.c ****   }
 1216              		.loc 1 92 5 view .LVU403
  92:Model/stai_palm_detector.c ****   }
 1217              		.loc 1 92 5 view .LVU404
  92:Model/stai_palm_detector.c ****   }
 1218              		.loc 1 92 55 view .LVU405
  97:Model/stai_palm_detector.c ****   {
 1219              		.loc 1 97 3 view .LVU406
 106:Model/stai_palm_detector.c **** }
 1220              		.loc 1 106 10 is_stmt 0 view .LVU407
 1221 0060 0020     		movs	r0, #0
  97:Model/stai_palm_detector.c ****   {
 1222              		.loc 1 97 6 view .LVU408
 1223 0062 3760     		str	r7, [r6]
 1224 0064 EAE7     		b	.L146
 1225              	.LVL111:
 1226              	.L158:
 1227              	.LBB55:
 1228              	.LBB56:
  69:Model/stai_palm_detector.c ****             LL_ATON_ASSERT(((uintptr_t)pointers[cnt] % STAI_CACHE_USER_BUFFER_ALIGNMENT) == 0);
 1229              		.loc 1 69 13 is_stmt 1 view .LVU409
  69:Model/stai_palm_detector.c ****             LL_ATON_ASSERT(((uintptr_t)pointers[cnt] % STAI_CACHE_USER_BUFFER_ALIGNMENT) == 0);
 1230              		.loc 1 69 29 is_stmt 0 view .LVU410
 1231 0066 2046     		mov	r0, r4
 1232 0068 FFF7FEFF 		bl	LL_Buffer_addr_start
 1233              	.LVL112:
  70:Model/stai_palm_detector.c ****           }
 1234              		.loc 1 70 13 view .LVU411
 1235 006c C306     		lsls	r3, r0, #27
  69:Model/stai_palm_detector.c ****             LL_ATON_ASSERT(((uintptr_t)pointers[cnt] % STAI_CACHE_USER_BUFFER_ALIGNMENT) == 0);
 1236              		.loc 1 69 27 discriminator 1 view .LVU412
 1237 006e 6850     		str	r0, [r5, r1]
  70:Model/stai_palm_detector.c ****           }
 1238              		.loc 1 70 13 is_stmt 1 view .LVU413
 1239 0070 08D0     		beq	.L156
  70:Model/stai_palm_detector.c ****           }
 1240              		.loc 1 70 13 is_stmt 0 view .LVU414
 1241              	.LBE56:
 1242              	.LBE55:
 1243              	.LBB59:
 1244              	.LBI59:
  38:Model/stai_palm_detector.c ****                                                                                           stai_ptr 
 1245              		.loc 1 38 32 is_stmt 1 view .LVU415
 1246              	.LVL113:
 1247              	.LBB60:
 1248              	.LBB61:
ARM GAS  C:\Users\DJESSOU\AppData\Local\Temp\ccruImXQ.s 			page 47


 1249              	.LBB62:
  70:Model/stai_palm_detector.c ****           }
 1250              		.loc 1 70 13 is_stmt 0 discriminator 1 view .LVU416
 1251 0072 4621     		movs	r1, #70
 1252 0074 134B     		ldr	r3, .L174+8
 1253 0076 144A     		ldr	r2, .L174+12
 1254 0078 1DE0     		b	.L173
 1255              	.LVL114:
 1256              	.L157:
  70:Model/stai_palm_detector.c ****           }
 1257              		.loc 1 70 13 discriminator 1 view .LVU417
 1258              	.LBE62:
 1259              	.LBE61:
 1260              	.LBE60:
 1261              	.LBE59:
 1262              	.LBB66:
 1263              	.LBB57:
  74:Model/stai_palm_detector.c ****           }
 1264              		.loc 1 74 13 is_stmt 1 view .LVU418
  74:Model/stai_palm_detector.c ****           }
 1265              		.loc 1 74 29 is_stmt 0 view .LVU419
 1266 007a 2046     		mov	r0, r4
 1267 007c FFF7FEFF 		bl	LL_Buffer_addr_start
 1268              	.LVL115:
  74:Model/stai_palm_detector.c ****           }
 1269              		.loc 1 74 27 discriminator 1 view .LVU420
 1270 0080 45F82800 		str	r0, [r5, r8, lsl #2]
 1271              	.L156:
  77:Model/stai_palm_detector.c ****       }
 1272              		.loc 1 77 9 is_stmt 1 view .LVU421
  77:Model/stai_palm_detector.c ****       }
 1273              		.loc 1 77 12 is_stmt 0 view .LVU422
 1274 0084 08F10108 		add	r8, r8, #1
 1275              	.LVL116:
 1276              	.L154:
  77:Model/stai_palm_detector.c ****       }
 1277              		.loc 1 77 12 view .LVU423
 1278              	.LBE57:
  58:Model/stai_palm_detector.c ****     {
 1279              		.loc 1 58 64 is_stmt 1 discriminator 2 view .LVU424
 1280 0088 3834     		adds	r4, r4, #56
 1281              	.LVL117:
 1282              	.L153:
  58:Model/stai_palm_detector.c ****     {
 1283              		.loc 1 58 52 discriminator 1 view .LVU425
 1284 008a 2368     		ldr	r3, [r4]
 1285 008c 002B     		cmp	r3, #0
 1286 008e E7D0     		beq	.L152
 1287              	.LBB58:
  60:Model/stai_palm_detector.c ****       if (inputs == !buffer_info->is_param)
 1288              		.loc 1 60 7 view .LVU426
 1289              	.LVL118:
  61:Model/stai_palm_detector.c ****       {
 1290              		.loc 1 61 7 view .LVU427
  61:Model/stai_palm_detector.c ****       {
 1291              		.loc 1 61 21 is_stmt 0 view .LVU428
 1292 0090 617D     		ldrb	r1, [r4, #21]	@ zero_extendqisi2
ARM GAS  C:\Users\DJESSOU\AppData\Local\Temp\ccruImXQ.s 			page 48


  61:Model/stai_palm_detector.c ****       {
 1293              		.loc 1 61 10 view .LVU429
 1294 0092 B1FA81F1 		clz	r1, r1
 1295 0096 4909     		lsrs	r1, r1, #5
 1296 0098 B942     		cmp	r1, r7
 1297 009a F5D1     		bne	.L154
  63:Model/stai_palm_detector.c ****         {
 1298              		.loc 1 63 9 is_stmt 1 view .LVU430
  63:Model/stai_palm_detector.c ****         {
 1299              		.loc 1 63 12 is_stmt 0 view .LVU431
 1300 009c 002D     		cmp	r5, #0
 1301 009e F1D0     		beq	.L156
  65:Model/stai_palm_detector.c ****           {
 1302              		.loc 1 65 11 is_stmt 1 view .LVU432
  65:Model/stai_palm_detector.c ****           {
 1303              		.loc 1 65 14 is_stmt 0 view .LVU433
 1304 00a0 237D     		ldrb	r3, [r4, #20]	@ zero_extendqisi2
 1305 00a2 4FEA8801 		lsl	r1, r8, #2
 1306 00a6 002B     		cmp	r3, #0
 1307 00a8 E7D0     		beq	.L157
  67:Model/stai_palm_detector.c ****                            0); // user allocated buffers always have an offset equal to zero
 1308              		.loc 1 67 13 is_stmt 1 view .LVU434
 1309 00aa A368     		ldr	r3, [r4, #8]
 1310 00ac 002B     		cmp	r3, #0
 1311 00ae DAD0     		beq	.L158
  67:Model/stai_palm_detector.c ****                            0); // user allocated buffers always have an offset equal to zero
 1312              		.loc 1 67 13 is_stmt 0 discriminator 1 view .LVU435
 1313 00b0 4321     		movs	r1, #67
 1314 00b2 064B     		ldr	r3, .L174+16
 1315 00b4 044A     		ldr	r2, .L174+12
 1316              	.L173:
 1317              	.LBE58:
 1318              	.LBE66:
 1319              	.LBB67:
 1320              	.LBB65:
 1321              	.LBB64:
 1322              	.LBB63:
  70:Model/stai_palm_detector.c ****           }
 1323              		.loc 1 70 13 discriminator 1 view .LVU436
 1324 00b6 0648     		ldr	r0, .L174+20
 1325 00b8 FFF7FEFF 		bl	__assert_func
 1326              	.LVL119:
 1327              	.L175:
 1328              		.align	2
 1329              	.L174:
 1330 00bc 00000000 		.word	NN_Interface_palm_detector
 1331 00c0 01000200 		.word	131073
 1332 00c4 00000000 		.word	.LC4
 1333 00c8 00000000 		.word	__func__.3
 1334 00cc 00000000 		.word	.LC0
 1335 00d0 1F000000 		.word	.LC1
 1336              	.LBE63:
 1337              	.LBE64:
 1338              	.LBE65:
 1339              	.LBE67:
 1340              		.cfi_endproc
 1341              	.LFE303:
ARM GAS  C:\Users\DJESSOU\AppData\Local\Temp\ccruImXQ.s 			page 49


 1343              		.section	.text.stai_palm_detector_init,"ax",%progbits
 1344              		.align	1
 1345              		.global	stai_palm_detector_init
 1346              		.syntax unified
 1347              		.thumb
 1348              		.thumb_func
 1350              	stai_palm_detector_init:
 1351              	.LVL120:
 1352              	.LFB307:
 355:Model/stai_palm_detector.c **** 
 356:Model/stai_palm_detector.c **** /*****************************************************************************/
 357:Model/stai_palm_detector.c **** /*  Network management APIs  */
 358:Model/stai_palm_detector.c **** STAI_API_ENTRY
 359:Model/stai_palm_detector.c **** stai_return_code stai_palm_detector_init(stai_network *network)
 360:Model/stai_palm_detector.c **** {
 1353              		.loc 1 360 1 is_stmt 1 view -0
 1354              		.cfi_startproc
 1355              		@ args = 0, pretend = 0, frame = 0
 1356              		@ frame_needed = 0, uses_anonymous_args = 0
 361:Model/stai_palm_detector.c ****   /* check context handle */
 362:Model/stai_palm_detector.c ****   if (!network)
 1357              		.loc 1 362 3 view .LVU438
 360:Model/stai_palm_detector.c ****   /* check context handle */
 1358              		.loc 1 360 1 is_stmt 0 view .LVU439
 1359 0000 10B5     		push	{r4, lr}
 1360              		.cfi_def_cfa_offset 8
 1361              		.cfi_offset 4, -8
 1362              		.cfi_offset 14, -4
 1363              		.loc 1 362 6 view .LVU440
 1364 0002 40B1     		cbz	r0, .L177
 363:Model/stai_palm_detector.c ****     return STAI_ERROR_NETWORK_INVALID_CONTEXT_HANDLE;
 364:Model/stai_palm_detector.c **** 
 365:Model/stai_palm_detector.c ****   _stai_aton_context *ctx = (_stai_aton_context *)network;
 1365              		.loc 1 365 3 is_stmt 1 view .LVU441
 1366              	.LVL121:
 366:Model/stai_palm_detector.c ****   if (ctx->network_instance.network != NULL) // already initialized
 1367              		.loc 1 366 3 view .LVU442
 1368              		.loc 1 366 6 is_stmt 0 view .LVU443
 1369 0004 0468     		ldr	r4, [r0]
 1370 0006 4CB1     		cbz	r4, .L178
 367:Model/stai_palm_detector.c ****     __LL_ATON_STAI_SET_1ST_CTX_ERROR_AND_RETURN(ctx, STAI_ERROR_NETWORK_INVALID_CONTEXT_HANDLE);
 1371              		.loc 1 367 5 is_stmt 1 view .LVU444
 1372              		.loc 1 367 5 view .LVU445
 1373              		.loc 1 367 5 discriminator 2 view .LVU446
 1374 0008 C26B     		ldr	r2, [r0, #60]
 1375 000a B2F5003F 		cmp	r2, #131072
 1376              		.loc 1 367 5 discriminator 3 view .LVU447
 1377 000e 3CBF     		itt	cc
 1378 0010 4FF44032 		movcc	r2, #196608
 1379 0014 C263     		strcc	r2, [r0, #60]
 1380              	.LVL122:
 1381              	.L177:
 363:Model/stai_palm_detector.c ****     return STAI_ERROR_NETWORK_INVALID_CONTEXT_HANDLE;
 1382              		.loc 1 363 12 is_stmt 0 view .LVU448
 1383 0016 4FF44030 		mov	r0, #196608
 1384              	.LVL123:
 1385              	.L176:
ARM GAS  C:\Users\DJESSOU\AppData\Local\Temp\ccruImXQ.s 			page 50


 368:Model/stai_palm_detector.c **** 
 369:Model/stai_palm_detector.c ****   ctx->network_instance.network = (const NN_Interface_TypeDef *)&NN_Interface_palm_detector;
 370:Model/stai_palm_detector.c ****   ctx->exec_status = STAI_SUCCESS;
 371:Model/stai_palm_detector.c ****   ctx->first_error = STAI_SUCCESS;
 372:Model/stai_palm_detector.c **** 
 373:Model/stai_palm_detector.c ****   __ll_aton_stai_init_network_instance(ctx);
 374:Model/stai_palm_detector.c **** 
 375:Model/stai_palm_detector.c ****   return STAI_SUCCESS;
 376:Model/stai_palm_detector.c **** }
 1386              		.loc 1 376 1 view .LVU449
 1387 001a 10BD     		pop	{r4, pc}
 1388              	.LVL124:
 1389              	.L178:
 367:Model/stai_palm_detector.c ****     __LL_ATON_STAI_SET_1ST_CTX_ERROR_AND_RETURN(ctx, STAI_ERROR_NETWORK_INVALID_CONTEXT_HANDLE);
 1390              		.loc 1 367 5 is_stmt 1 view .LVU450
 369:Model/stai_palm_detector.c ****   ctx->exec_status = STAI_SUCCESS;
 1391              		.loc 1 369 3 view .LVU451
 369:Model/stai_palm_detector.c ****   ctx->exec_status = STAI_SUCCESS;
 1392              		.loc 1 369 33 is_stmt 0 view .LVU452
 1393 001c 034A     		ldr	r2, .L183
 371:Model/stai_palm_detector.c **** 
 1394              		.loc 1 371 20 view .LVU453
 1395 001e C0E90E44 		strd	r4, r4, [r0, #56]
 369:Model/stai_palm_detector.c ****   ctx->exec_status = STAI_SUCCESS;
 1396              		.loc 1 369 33 view .LVU454
 1397 0022 0260     		str	r2, [r0]
 370:Model/stai_palm_detector.c ****   ctx->first_error = STAI_SUCCESS;
 1398              		.loc 1 370 3 is_stmt 1 view .LVU455
 373:Model/stai_palm_detector.c **** 
 1399              		.loc 1 373 3 view .LVU456
 1400 0024 FFF7FEFF 		bl	__ll_aton_stai_init_network_instance
 1401              	.LVL125:
 375:Model/stai_palm_detector.c **** }
 1402              		.loc 1 375 3 view .LVU457
 375:Model/stai_palm_detector.c **** }
 1403              		.loc 1 375 10 is_stmt 0 view .LVU458
 1404 0028 2046     		mov	r0, r4
 1405 002a F6E7     		b	.L176
 1406              	.L184:
 1407              		.align	2
 1408              	.L183:
 1409 002c 00000000 		.word	NN_Interface_palm_detector
 1410              		.cfi_endproc
 1411              	.LFE307:
 1413              		.section	.text.stai_palm_detector_deinit,"ax",%progbits
 1414              		.align	1
 1415              		.global	stai_palm_detector_deinit
 1416              		.syntax unified
 1417              		.thumb
 1418              		.thumb_func
 1420              	stai_palm_detector_deinit:
 1421              	.LVL126:
 1422              	.LFB308:
 377:Model/stai_palm_detector.c **** 
 378:Model/stai_palm_detector.c **** STAI_API_ENTRY
 379:Model/stai_palm_detector.c **** stai_return_code stai_palm_detector_deinit(stai_network *network)
 380:Model/stai_palm_detector.c **** {
ARM GAS  C:\Users\DJESSOU\AppData\Local\Temp\ccruImXQ.s 			page 51


 1423              		.loc 1 380 1 is_stmt 1 view -0
 1424              		.cfi_startproc
 1425              		@ args = 0, pretend = 0, frame = 8
 1426              		@ frame_needed = 0, uses_anonymous_args = 0
 381:Model/stai_palm_detector.c ****   __LL_ATON_STAI_ACQUIRE_INTERFACE(nn_i_ptr, network);
 1427              		.loc 1 381 3 view .LVU460
 1428 0000 0023     		movs	r3, #0
 380:Model/stai_palm_detector.c ****   __LL_ATON_STAI_ACQUIRE_INTERFACE(nn_i_ptr, network);
 1429              		.loc 1 380 1 is_stmt 0 view .LVU461
 1430 0002 37B5     		push	{r0, r1, r2, r4, r5, lr}
 1431              		.cfi_def_cfa_offset 24
 1432              		.cfi_offset 4, -12
 1433              		.cfi_offset 5, -8
 1434              		.cfi_offset 14, -4
 1435              		.loc 1 381 3 view .LVU462
 1436 0004 01A9     		add	r1, sp, #4
 380:Model/stai_palm_detector.c ****   __LL_ATON_STAI_ACQUIRE_INTERFACE(nn_i_ptr, network);
 1437              		.loc 1 380 1 view .LVU463
 1438 0006 0546     		mov	r5, r0
 1439              		.loc 1 381 3 view .LVU464
 1440 0008 0193     		str	r3, [sp, #4]
 1441              		.loc 1 381 3 is_stmt 1 view .LVU465
 1442 000a FFF7FEFF 		bl	__ll_aton_stai_check_context_network_handle.constprop.0
 1443              	.LVL127:
 1444              		.loc 1 381 3 discriminator 1 view .LVU466
 1445 000e B0F5003F 		cmp	r0, #131072
 1446 0012 0DD2     		bcs	.L185
 1447              		.loc 1 381 54 discriminator 2 view .LVU467
 382:Model/stai_palm_detector.c ****   __LL_ATON_STAI_CHECK_NETWORK_INTERFACE(nn_i_ptr, (_stai_aton_context *)network);
 1448              		.loc 1 382 3 view .LVU468
 1449              		.loc 1 382 3 view .LVU469
 1450 0014 164B     		ldr	r3, .L200
 1451 0016 019A     		ldr	r2, [sp, #4]
 1452 0018 9A42     		cmp	r2, r3
 1453 001a 0BD0     		beq	.L187
 1454              		.loc 1 382 3 discriminator 1 view .LVU470
 1455              		.loc 1 382 3 discriminator 1 view .LVU471
 1456 001c 35B1     		cbz	r5, .L188
 1457              		.loc 1 382 3 discriminator 4 view .LVU472
 1458 001e EB6B     		ldr	r3, [r5, #60]
 1459 0020 B3F5003F 		cmp	r3, #131072
 1460              		.loc 1 382 3 discriminator 5 view .LVU473
 1461 0024 3CBF     		itt	cc
 1462 0026 4FF44033 		movcc	r3, #196608
 1463 002a EB63     		strcc	r3, [r5, #60]
 1464              	.L188:
 1465              		.loc 1 382 3 is_stmt 0 discriminator 3 view .LVU474
 1466 002c 4FF44030 		mov	r0, #196608
 1467              	.LVL128:
 1468              	.L185:
 383:Model/stai_palm_detector.c ****   _stai_aton_context *ctx = (_stai_aton_context *)network;
 384:Model/stai_palm_detector.c **** 
 385:Model/stai_palm_detector.c ****   if (ctx->exec_status != STAI_DONE && ctx->exec_status != STAI_SUCCESS)
 386:Model/stai_palm_detector.c ****   {
 387:Model/stai_palm_detector.c ****     __LL_ATON_STAI_SET_1ST_CTX_ERROR_AND_RETURN(ctx, STAI_ERROR_NETWORK_STILL_RUNNING);
 388:Model/stai_palm_detector.c ****   }
 389:Model/stai_palm_detector.c **** 
ARM GAS  C:\Users\DJESSOU\AppData\Local\Temp\ccruImXQ.s 			page 52


 390:Model/stai_palm_detector.c ****   __ll_aton_stai_deinit_network_instance(ctx);
 391:Model/stai_palm_detector.c **** 
 392:Model/stai_palm_detector.c ****   ctx->network_instance.network = NULL;
 393:Model/stai_palm_detector.c **** 
 394:Model/stai_palm_detector.c ****   ctx->callback = NULL;
 395:Model/stai_palm_detector.c ****   ctx->callback_cookie = NULL;
 396:Model/stai_palm_detector.c ****   LL_ATON_RT_SetNetworkCallback(&ctx->network_instance, NULL);
 397:Model/stai_palm_detector.c **** 
 398:Model/stai_palm_detector.c ****   ctx->exec_status = STAI_SUCCESS;
 399:Model/stai_palm_detector.c ****   ctx->first_error = STAI_SUCCESS;
 400:Model/stai_palm_detector.c **** 
 401:Model/stai_palm_detector.c ****   return STAI_SUCCESS;
 402:Model/stai_palm_detector.c **** }
 1469              		.loc 1 402 1 view .LVU475
 1470 0030 03B0     		add	sp, sp, #12
 1471              		.cfi_remember_state
 1472              		.cfi_def_cfa_offset 12
 1473              		@ sp needed
 1474 0032 30BD     		pop	{r4, r5, pc}
 1475              	.LVL129:
 1476              	.L187:
 1477              		.cfi_restore_state
 382:Model/stai_palm_detector.c ****   __LL_ATON_STAI_CHECK_NETWORK_INTERFACE(nn_i_ptr, (_stai_aton_context *)network);
 1478              		.loc 1 382 3 is_stmt 1 discriminator 2 view .LVU476
 382:Model/stai_palm_detector.c ****   __LL_ATON_STAI_CHECK_NETWORK_INTERFACE(nn_i_ptr, (_stai_aton_context *)network);
 1479              		.loc 1 382 3 discriminator 2 view .LVU477
 383:Model/stai_palm_detector.c ****   _stai_aton_context *ctx = (_stai_aton_context *)network;
 1480              		.loc 1 383 3 view .LVU478
 385:Model/stai_palm_detector.c ****   {
 1481              		.loc 1 385 3 view .LVU479
 385:Model/stai_palm_detector.c ****   {
 1482              		.loc 1 385 10 is_stmt 0 view .LVU480
 1483 0034 AB6B     		ldr	r3, [r5, #56]
 385:Model/stai_palm_detector.c ****   {
 1484              		.loc 1 385 6 view .LVU481
 1485 0036 122B     		cmp	r3, #18
 1486 0038 0AD0     		beq	.L189
 385:Model/stai_palm_detector.c ****   {
 1487              		.loc 1 385 37 discriminator 1 view .LVU482
 1488 003a 4BB1     		cbz	r3, .L189
 387:Model/stai_palm_detector.c ****   }
 1489              		.loc 1 387 5 is_stmt 1 view .LVU483
 387:Model/stai_palm_detector.c ****   }
 1490              		.loc 1 387 5 view .LVU484
 387:Model/stai_palm_detector.c ****   }
 1491              		.loc 1 387 5 discriminator 2 view .LVU485
 1492 003c EB6B     		ldr	r3, [r5, #60]
 387:Model/stai_palm_detector.c ****   }
 1493              		.loc 1 387 5 is_stmt 0 discriminator 5 view .LVU486
 1494 003e 4FF4A020 		mov	r0, #327680
 1495              	.LVL130:
 387:Model/stai_palm_detector.c ****   }
 1496              		.loc 1 387 5 discriminator 2 view .LVU487
 1497 0042 B3F5003F 		cmp	r3, #131072
 387:Model/stai_palm_detector.c ****   }
 1498              		.loc 1 387 5 is_stmt 1 discriminator 3 view .LVU488
 1499 0046 3CBF     		itt	cc
ARM GAS  C:\Users\DJESSOU\AppData\Local\Temp\ccruImXQ.s 			page 53


 1500 0048 4FF4A023 		movcc	r3, #327680
 1501 004c EB63     		strcc	r3, [r5, #60]
 1502 004e EFE7     		b	.L185
 1503              	.LVL131:
 1504              	.L189:
 387:Model/stai_palm_detector.c ****   }
 1505              		.loc 1 387 5 view .LVU489
 390:Model/stai_palm_detector.c **** 
 1506              		.loc 1 390 3 view .LVU490
 392:Model/stai_palm_detector.c **** 
 1507              		.loc 1 392 33 is_stmt 0 view .LVU491
 1508 0050 0024     		movs	r4, #0
 390:Model/stai_palm_detector.c **** 
 1509              		.loc 1 390 3 view .LVU492
 1510 0052 2846     		mov	r0, r5
 1511              	.LVL132:
 390:Model/stai_palm_detector.c **** 
 1512              		.loc 1 390 3 view .LVU493
 1513 0054 FFF7FEFF 		bl	__ll_aton_stai_deinit_network_instance
 1514              	.LVL133:
 392:Model/stai_palm_detector.c **** 
 1515              		.loc 1 392 3 is_stmt 1 view .LVU494
 396:Model/stai_palm_detector.c **** 
 1516              		.loc 1 396 3 is_stmt 0 view .LVU495
 1517 0058 2846     		mov	r0, r5
 1518 005a 2146     		mov	r1, r4
 395:Model/stai_palm_detector.c ****   LL_ATON_RT_SetNetworkCallback(&ctx->network_instance, NULL);
 1519              		.loc 1 395 24 view .LVU496
 1520 005c C5E90C44 		strd	r4, r4, [r5, #48]
 392:Model/stai_palm_detector.c **** 
 1521              		.loc 1 392 33 view .LVU497
 1522 0060 2C60     		str	r4, [r5]
 394:Model/stai_palm_detector.c ****   ctx->callback_cookie = NULL;
 1523              		.loc 1 394 3 is_stmt 1 view .LVU498
 396:Model/stai_palm_detector.c **** 
 1524              		.loc 1 396 3 view .LVU499
 1525 0062 FFF7FEFF 		bl	LL_ATON_RT_SetNetworkCallback
 1526              	.LVL134:
 398:Model/stai_palm_detector.c ****   ctx->first_error = STAI_SUCCESS;
 1527              		.loc 1 398 3 view .LVU500
 401:Model/stai_palm_detector.c **** }
 1528              		.loc 1 401 10 is_stmt 0 view .LVU501
 1529 0066 2046     		mov	r0, r4
 399:Model/stai_palm_detector.c **** 
 1530              		.loc 1 399 20 view .LVU502
 1531 0068 C5E90E44 		strd	r4, r4, [r5, #56]
 401:Model/stai_palm_detector.c **** }
 1532              		.loc 1 401 3 is_stmt 1 view .LVU503
 401:Model/stai_palm_detector.c **** }
 1533              		.loc 1 401 10 is_stmt 0 view .LVU504
 1534 006c E0E7     		b	.L185
 1535              	.L201:
 1536 006e 00BF     		.align	2
 1537              	.L200:
 1538 0070 00000000 		.word	NN_Interface_palm_detector
 1539              		.cfi_endproc
 1540              	.LFE308:
ARM GAS  C:\Users\DJESSOU\AppData\Local\Temp\ccruImXQ.s 			page 54


 1542              		.section	.text.stai_palm_detector_run,"ax",%progbits
 1543              		.align	1
 1544              		.global	stai_palm_detector_run
 1545              		.syntax unified
 1546              		.thumb
 1547              		.thumb_func
 1549              	stai_palm_detector_run:
 1550              	.LVL135:
 1551              	.LFB309:
 403:Model/stai_palm_detector.c **** 
 404:Model/stai_palm_detector.c **** STAI_API_ENTRY
 405:Model/stai_palm_detector.c **** stai_return_code stai_palm_detector_run(stai_network *network, const stai_run_mode mode)
 406:Model/stai_palm_detector.c **** {
 1552              		.loc 1 406 1 is_stmt 1 view -0
 1553              		.cfi_startproc
 1554              		@ args = 0, pretend = 0, frame = 8
 1555              		@ frame_needed = 0, uses_anonymous_args = 0
 407:Model/stai_palm_detector.c ****   /* check context & network interface handle */
 408:Model/stai_palm_detector.c ****   __LL_ATON_STAI_ACQUIRE_INTERFACE(nn_i_ptr, network);
 1556              		.loc 1 408 3 view .LVU506
 1557 0000 0023     		movs	r3, #0
 406:Model/stai_palm_detector.c ****   /* check context & network interface handle */
 1558              		.loc 1 406 1 is_stmt 0 view .LVU507
 1559 0002 13B5     		push	{r0, r1, r4, lr}
 1560              		.cfi_def_cfa_offset 16
 1561              		.cfi_offset 4, -8
 1562              		.cfi_offset 14, -4
 406:Model/stai_palm_detector.c ****   /* check context & network interface handle */
 1563              		.loc 1 406 1 view .LVU508
 1564 0004 0C46     		mov	r4, r1
 1565              		.loc 1 408 3 view .LVU509
 1566 0006 01A9     		add	r1, sp, #4
 1567              	.LVL136:
 406:Model/stai_palm_detector.c ****   /* check context & network interface handle */
 1568              		.loc 1 406 1 view .LVU510
 1569 0008 0246     		mov	r2, r0
 1570              		.loc 1 408 3 view .LVU511
 1571 000a 0193     		str	r3, [sp, #4]
 1572              		.loc 1 408 3 is_stmt 1 view .LVU512
 1573 000c FFF7FEFF 		bl	__ll_aton_stai_check_context_network_handle.constprop.0
 1574              	.LVL137:
 1575              		.loc 1 408 3 discriminator 1 view .LVU513
 1576 0010 B0F5003F 		cmp	r0, #131072
 1577 0014 0DD2     		bcs	.L202
 1578              		.loc 1 408 54 discriminator 2 view .LVU514
 409:Model/stai_palm_detector.c ****   __LL_ATON_STAI_CHECK_NETWORK_INTERFACE(nn_i_ptr, (_stai_aton_context *)network);
 1579              		.loc 1 409 3 view .LVU515
 1580              		.loc 1 409 3 view .LVU516
 1581 0016 0B4B     		ldr	r3, .L209
 1582 0018 0199     		ldr	r1, [sp, #4]
 1583 001a 9942     		cmp	r1, r3
 1584 001c 0BD0     		beq	.L204
 1585              		.loc 1 409 3 discriminator 1 view .LVU517
 1586              		.loc 1 409 3 discriminator 1 view .LVU518
 1587 001e 32B1     		cbz	r2, .L205
 1588              		.loc 1 409 3 discriminator 4 view .LVU519
 1589 0020 D36B     		ldr	r3, [r2, #60]
ARM GAS  C:\Users\DJESSOU\AppData\Local\Temp\ccruImXQ.s 			page 55


 1590 0022 B3F5003F 		cmp	r3, #131072
 1591              		.loc 1 409 3 discriminator 5 view .LVU520
 1592 0026 3CBF     		itt	cc
 1593 0028 4FF44033 		movcc	r3, #196608
 1594 002c D363     		strcc	r3, [r2, #60]
 1595              	.L205:
 1596              		.loc 1 409 3 is_stmt 0 discriminator 3 view .LVU521
 1597 002e 4FF44030 		mov	r0, #196608
 1598              	.LVL138:
 1599              	.L202:
 410:Model/stai_palm_detector.c **** 
 411:Model/stai_palm_detector.c ****   return __ll_aton_stai_run(network, mode);
 412:Model/stai_palm_detector.c **** }
 1600              		.loc 1 412 1 view .LVU522
 1601 0032 02B0     		add	sp, sp, #8
 1602              		.cfi_remember_state
 1603              		.cfi_def_cfa_offset 8
 1604              		@ sp needed
 1605 0034 10BD     		pop	{r4, pc}
 1606              	.LVL139:
 1607              	.L204:
 1608              		.cfi_restore_state
 409:Model/stai_palm_detector.c ****   __LL_ATON_STAI_CHECK_NETWORK_INTERFACE(nn_i_ptr, (_stai_aton_context *)network);
 1609              		.loc 1 409 3 is_stmt 1 discriminator 2 view .LVU523
 409:Model/stai_palm_detector.c ****   __LL_ATON_STAI_CHECK_NETWORK_INTERFACE(nn_i_ptr, (_stai_aton_context *)network);
 1610              		.loc 1 409 3 discriminator 2 view .LVU524
 411:Model/stai_palm_detector.c **** }
 1611              		.loc 1 411 3 view .LVU525
 411:Model/stai_palm_detector.c **** }
 1612              		.loc 1 411 10 is_stmt 0 view .LVU526
 1613 0036 2146     		mov	r1, r4
 1614 0038 1046     		mov	r0, r2
 1615              	.LVL140:
 1616              		.loc 1 412 1 view .LVU527
 1617 003a 02B0     		add	sp, sp, #8
 1618              		.cfi_def_cfa_offset 8
 1619              		@ sp needed
 1620 003c BDE81040 		pop	{r4, lr}
 1621              		.cfi_restore 14
 1622              		.cfi_restore 4
 1623              		.cfi_def_cfa_offset 0
 411:Model/stai_palm_detector.c **** }
 1624              		.loc 1 411 10 view .LVU528
 1625 0040 FFF7FEBF 		b	__ll_aton_stai_run
 1626              	.LVL141:
 1627              	.L210:
 411:Model/stai_palm_detector.c **** }
 1628              		.loc 1 411 10 view .LVU529
 1629              		.align	2
 1630              	.L209:
 1631 0044 00000000 		.word	NN_Interface_palm_detector
 1632              		.cfi_endproc
 1633              	.LFE309:
 1635              		.section	.text.stai_palm_detector_train,"ax",%progbits
 1636              		.align	1
 1637              		.global	stai_palm_detector_train
 1638              		.syntax unified
ARM GAS  C:\Users\DJESSOU\AppData\Local\Temp\ccruImXQ.s 			page 56


 1639              		.thumb
 1640              		.thumb_func
 1642              	stai_palm_detector_train:
 1643              	.LVL142:
 1644              	.LFB310:
 413:Model/stai_palm_detector.c **** 
 414:Model/stai_palm_detector.c **** STAI_API_ENTRY
 415:Model/stai_palm_detector.c **** stai_return_code stai_palm_detector_train(stai_network *network, const stai_run_mode mode)
 416:Model/stai_palm_detector.c **** {
 1645              		.loc 1 416 1 is_stmt 1 view -0
 1646              		.cfi_startproc
 1647              		@ args = 0, pretend = 0, frame = 8
 1648              		@ frame_needed = 0, uses_anonymous_args = 0
 417:Model/stai_palm_detector.c ****   LL_ATON_LIB_UNUSED(mode);
 1649              		.loc 1 417 3 view .LVU531
 418:Model/stai_palm_detector.c **** 
 419:Model/stai_palm_detector.c ****   /* check context & network interface handle */
 420:Model/stai_palm_detector.c ****   __LL_ATON_STAI_ACQUIRE_INTERFACE(nn_i_ptr, network);
 1650              		.loc 1 420 3 view .LVU532
 1651 0000 0023     		movs	r3, #0
 416:Model/stai_palm_detector.c ****   LL_ATON_LIB_UNUSED(mode);
 1652              		.loc 1 416 1 is_stmt 0 view .LVU533
 1653 0002 07B5     		push	{r0, r1, r2, lr}
 1654              		.cfi_def_cfa_offset 16
 1655              		.cfi_offset 14, -4
 1656              		.loc 1 420 3 view .LVU534
 1657 0004 01A9     		add	r1, sp, #4
 1658              	.LVL143:
 416:Model/stai_palm_detector.c ****   LL_ATON_LIB_UNUSED(mode);
 1659              		.loc 1 416 1 view .LVU535
 1660 0006 0246     		mov	r2, r0
 1661              		.loc 1 420 3 view .LVU536
 1662 0008 0193     		str	r3, [sp, #4]
 1663              		.loc 1 420 3 is_stmt 1 view .LVU537
 1664 000a FFF7FEFF 		bl	__ll_aton_stai_check_context_network_handle.constprop.0
 1665              	.LVL144:
 1666              		.loc 1 420 3 discriminator 1 view .LVU538
 1667 000e B0F5003F 		cmp	r0, #131072
 1668 0012 15D2     		bcs	.L211
 1669              		.loc 1 420 54 discriminator 2 view .LVU539
 421:Model/stai_palm_detector.c ****   __LL_ATON_STAI_CHECK_NETWORK_INTERFACE(nn_i_ptr, (_stai_aton_context *)network);
 1670              		.loc 1 421 3 view .LVU540
 1671              		.loc 1 421 3 view .LVU541
 1672 0014 0D4B     		ldr	r3, .L223
 1673 0016 0199     		ldr	r1, [sp, #4]
 1674 0018 9942     		cmp	r1, r3
 1675 001a 0AD0     		beq	.L213
 1676              		.loc 1 421 3 discriminator 1 view .LVU542
 1677              		.loc 1 421 3 discriminator 1 view .LVU543
 1678 001c 32B1     		cbz	r2, .L214
 1679              		.loc 1 421 3 discriminator 4 view .LVU544
 1680 001e D36B     		ldr	r3, [r2, #60]
 1681 0020 B3F5003F 		cmp	r3, #131072
 1682 0024 02D2     		bcs	.L214
 1683              		.loc 1 421 3 discriminator 5 view .LVU545
 1684 0026 4FF44033 		mov	r3, #196608
 1685 002a D363     		str	r3, [r2, #60]
ARM GAS  C:\Users\DJESSOU\AppData\Local\Temp\ccruImXQ.s 			page 57


 1686              	.L214:
 1687              		.loc 1 421 3 is_stmt 0 discriminator 3 view .LVU546
 1688 002c 4FF44030 		mov	r0, #196608
 1689              	.LVL145:
 422:Model/stai_palm_detector.c **** 
 423:Model/stai_palm_detector.c ****   __LL_ATON_STAI_SET_1ST_CTX_ERROR_AND_RETURN((_stai_aton_context *)network, STAI_ERROR_NOT_IMPLEME
 1690              		.loc 1 423 3 is_stmt 1 discriminator 7 view .LVU547
 1691 0030 06E0     		b	.L211
 1692              	.LVL146:
 1693              	.L213:
 421:Model/stai_palm_detector.c ****   __LL_ATON_STAI_CHECK_NETWORK_INTERFACE(nn_i_ptr, (_stai_aton_context *)network);
 1694              		.loc 1 421 3 discriminator 2 view .LVU548
 421:Model/stai_palm_detector.c ****   __LL_ATON_STAI_CHECK_NETWORK_INTERFACE(nn_i_ptr, (_stai_aton_context *)network);
 1695              		.loc 1 421 3 discriminator 2 view .LVU549
 1696              		.loc 1 423 3 view .LVU550
 1697              		.loc 1 423 3 view .LVU551
 1698 0032 002A     		cmp	r2, #0
 1699 0034 FAD0     		beq	.L214
 1700              		.loc 1 423 3 discriminator 2 view .LVU552
 1701 0036 D36B     		ldr	r3, [r2, #60]
 1702 0038 B3F5003F 		cmp	r3, #131072
 1703 003c 03D3     		bcc	.L215
 1704              	.L216:
 1705              		.loc 1 423 3 is_stmt 0 discriminator 6 view .LVU553
 1706 003e 0448     		ldr	r0, .L223+4
 1707              	.LVL147:
 1708              	.L211:
 424:Model/stai_palm_detector.c **** }
 1709              		.loc 1 424 1 view .LVU554
 1710 0040 03B0     		add	sp, sp, #12
 1711              		.cfi_remember_state
 1712              		.cfi_def_cfa_offset 4
 1713              		@ sp needed
 1714 0042 5DF804FB 		ldr	pc, [sp], #4
 1715              	.LVL148:
 1716              	.L215:
 1717              		.cfi_restore_state
 423:Model/stai_palm_detector.c **** }
 1718              		.loc 1 423 3 is_stmt 1 discriminator 4 view .LVU555
 1719 0046 024B     		ldr	r3, .L223+4
 1720 0048 D363     		str	r3, [r2, #60]
 1721 004a F8E7     		b	.L216
 1722              	.L224:
 1723              		.align	2
 1724              	.L223:
 1725 004c 00000000 		.word	NN_Interface_palm_detector
 1726 0050 60000400 		.word	262240
 1727              		.cfi_endproc
 1728              	.LFE310:
 1730              		.section	.text.stai_palm_detector_get_inputs,"ax",%progbits
 1731              		.align	1
 1732              		.global	stai_palm_detector_get_inputs
 1733              		.syntax unified
 1734              		.thumb
 1735              		.thumb_func
 1737              	stai_palm_detector_get_inputs:
 1738              	.LVL149:
ARM GAS  C:\Users\DJESSOU\AppData\Local\Temp\ccruImXQ.s 			page 58


 1739              	.LFB311:
 425:Model/stai_palm_detector.c **** 
 426:Model/stai_palm_detector.c **** /*****************************************************************************/
 427:Model/stai_palm_detector.c **** /*  Getters APIs  */
 428:Model/stai_palm_detector.c **** STAI_API_ENTRY
 429:Model/stai_palm_detector.c **** stai_return_code stai_palm_detector_get_inputs(stai_network *network, stai_ptr *inputs, stai_size *
 430:Model/stai_palm_detector.c **** {
 1740              		.loc 1 430 1 view -0
 1741              		.cfi_startproc
 1742              		@ args = 0, pretend = 0, frame = 0
 1743              		@ frame_needed = 0, uses_anonymous_args = 0
 1744              		@ link register save eliminated.
 431:Model/stai_palm_detector.c ****   return __ll_aton_stai_palm_detector_get_inputs_or_weights(network, inputs, n_inputs, true);
 1745              		.loc 1 431 3 view .LVU557
 1746              		.loc 1 431 10 is_stmt 0 view .LVU558
 1747 0000 0123     		movs	r3, #1
 1748 0002 FFF7FEBF 		b	__ll_aton_stai_palm_detector_get_inputs_or_weights
 1749              	.LVL150:
 1750              		.loc 1 431 10 view .LVU559
 1751              		.cfi_endproc
 1752              	.LFE311:
 1754              		.section	.text.stai_palm_detector_get_weights,"ax",%progbits
 1755              		.align	1
 1756              		.global	stai_palm_detector_get_weights
 1757              		.syntax unified
 1758              		.thumb
 1759              		.thumb_func
 1761              	stai_palm_detector_get_weights:
 1762              	.LVL151:
 1763              	.LFB312:
 432:Model/stai_palm_detector.c **** }
 433:Model/stai_palm_detector.c **** 
 434:Model/stai_palm_detector.c **** STAI_API_ENTRY
 435:Model/stai_palm_detector.c **** stai_return_code stai_palm_detector_get_weights(stai_network *network, stai_ptr *weights, stai_size
 436:Model/stai_palm_detector.c **** {
 1764              		.loc 1 436 1 is_stmt 1 view -0
 1765              		.cfi_startproc
 1766              		@ args = 0, pretend = 0, frame = 0
 1767              		@ frame_needed = 0, uses_anonymous_args = 0
 1768              		@ link register save eliminated.
 437:Model/stai_palm_detector.c ****   return __ll_aton_stai_palm_detector_get_inputs_or_weights(network, weights, n_weights, false);
 1769              		.loc 1 437 3 view .LVU561
 1770              		.loc 1 437 10 is_stmt 0 view .LVU562
 1771 0000 0023     		movs	r3, #0
 1772 0002 FFF7FEBF 		b	__ll_aton_stai_palm_detector_get_inputs_or_weights
 1773              	.LVL152:
 1774              		.loc 1 437 10 view .LVU563
 1775              		.cfi_endproc
 1776              	.LFE312:
 1778              		.section	.text.stai_palm_detector_get_outputs,"ax",%progbits
 1779              		.align	1
 1780              		.global	stai_palm_detector_get_outputs
 1781              		.syntax unified
 1782              		.thumb
 1783              		.thumb_func
 1785              	stai_palm_detector_get_outputs:
 1786              	.LVL153:
ARM GAS  C:\Users\DJESSOU\AppData\Local\Temp\ccruImXQ.s 			page 59


 1787              	.LFB313:
 438:Model/stai_palm_detector.c **** }
 439:Model/stai_palm_detector.c **** 
 440:Model/stai_palm_detector.c **** STAI_API_ENTRY
 441:Model/stai_palm_detector.c **** stai_return_code stai_palm_detector_get_outputs(stai_network *network, stai_ptr *outputs, stai_size
 442:Model/stai_palm_detector.c **** {
 1788              		.loc 1 442 1 is_stmt 1 view -0
 1789              		.cfi_startproc
 1790              		@ args = 0, pretend = 0, frame = 0
 1791              		@ frame_needed = 0, uses_anonymous_args = 0
 1792              		@ link register save eliminated.
 443:Model/stai_palm_detector.c ****   return __ll_aton_stai_palm_detector_get_outputs_or_activations(network, outputs, n_outputs, true)
 1793              		.loc 1 443 3 view .LVU565
 1794              		.loc 1 443 10 is_stmt 0 view .LVU566
 1795 0000 0123     		movs	r3, #1
 1796 0002 FFF7FEBF 		b	__ll_aton_stai_palm_detector_get_outputs_or_activations
 1797              	.LVL154:
 1798              		.loc 1 443 10 view .LVU567
 1799              		.cfi_endproc
 1800              	.LFE313:
 1802              		.section	.text.stai_palm_detector_get_activations,"ax",%progbits
 1803              		.align	1
 1804              		.global	stai_palm_detector_get_activations
 1805              		.syntax unified
 1806              		.thumb
 1807              		.thumb_func
 1809              	stai_palm_detector_get_activations:
 1810              	.LVL155:
 1811              	.LFB314:
 444:Model/stai_palm_detector.c **** }
 445:Model/stai_palm_detector.c **** 
 446:Model/stai_palm_detector.c **** STAI_API_ENTRY
 447:Model/stai_palm_detector.c **** stai_return_code stai_palm_detector_get_activations(stai_network *network, stai_ptr *activations,
 448:Model/stai_palm_detector.c ****                                                             stai_size *n_activations)
 449:Model/stai_palm_detector.c **** {
 1812              		.loc 1 449 1 is_stmt 1 view -0
 1813              		.cfi_startproc
 1814              		@ args = 0, pretend = 0, frame = 0
 1815              		@ frame_needed = 0, uses_anonymous_args = 0
 1816              		@ link register save eliminated.
 450:Model/stai_palm_detector.c ****   return __ll_aton_stai_palm_detector_get_outputs_or_activations(network, activations, n_activation
 1817              		.loc 1 450 3 view .LVU569
 1818              		.loc 1 450 10 is_stmt 0 view .LVU570
 1819 0000 0023     		movs	r3, #0
 1820 0002 FFF7FEBF 		b	__ll_aton_stai_palm_detector_get_outputs_or_activations
 1821              	.LVL156:
 1822              		.loc 1 450 10 view .LVU571
 1823              		.cfi_endproc
 1824              	.LFE314:
 1826              		.section	.rodata.stai_palm_detector_get_info.str1.1,"aMS",%progbits,1
 1827              	.LC5:
 1828 0000 46656220 		.ascii	"Feb 10 2026 15:18:26\000"
 1828      31302032 
 1828      30323620 
 1828      31353A31 
 1828      383A3236 
 1829              	.LC6:
ARM GAS  C:\Users\DJESSOU\AppData\Local\Temp\ccruImXQ.s 			page 60


 1830 0015 70616C6D 		.ascii	"palm_detector\000"
 1830      5F646574 
 1830      6563746F 
 1830      7200
 1831              	.LC7:
 1832 0023 32303235 		.ascii	"2025-12-12 11:14:53\000"
 1832      2D31322D 
 1832      31322031 
 1832      313A3134 
 1832      3A353300 
 1833              		.section	.text.stai_palm_detector_get_info,"ax",%progbits
 1834              		.align	1
 1835              		.global	stai_palm_detector_get_info
 1836              		.syntax unified
 1837              		.thumb
 1838              		.thumb_func
 1840              	stai_palm_detector_get_info:
 1841              	.LVL157:
 1842              	.LFB315:
 451:Model/stai_palm_detector.c **** }
 452:Model/stai_palm_detector.c **** 
 453:Model/stai_palm_detector.c **** static const stai_network_info __stai_palm_detector_network_info;
 454:Model/stai_palm_detector.c **** STAI_API_ENTRY
 455:Model/stai_palm_detector.c **** stai_return_code stai_palm_detector_get_info(stai_network *network, stai_network_info *info)
 456:Model/stai_palm_detector.c **** {
 1843              		.loc 1 456 1 is_stmt 1 view -0
 1844              		.cfi_startproc
 1845              		@ args = 0, pretend = 0, frame = 8
 1846              		@ frame_needed = 0, uses_anonymous_args = 0
 457:Model/stai_palm_detector.c ****   /* check context & network interface handle */
 458:Model/stai_palm_detector.c ****   __LL_ATON_STAI_ACQUIRE_INTERFACE(nn_i_ptr, network);
 1847              		.loc 1 458 3 view .LVU573
 456:Model/stai_palm_detector.c ****   /* check context & network interface handle */
 1848              		.loc 1 456 1 is_stmt 0 view .LVU574
 1849 0000 37B5     		push	{r0, r1, r2, r4, r5, lr}
 1850              		.cfi_def_cfa_offset 24
 1851              		.cfi_offset 4, -12
 1852              		.cfi_offset 5, -8
 1853              		.cfi_offset 14, -4
 1854              		.loc 1 458 3 view .LVU575
 1855 0002 0025     		movs	r5, #0
 456:Model/stai_palm_detector.c ****   /* check context & network interface handle */
 1856              		.loc 1 456 1 view .LVU576
 1857 0004 0C46     		mov	r4, r1
 1858              		.loc 1 458 3 view .LVU577
 1859 0006 01A9     		add	r1, sp, #4
 1860              	.LVL158:
 456:Model/stai_palm_detector.c ****   /* check context & network interface handle */
 1861              		.loc 1 456 1 view .LVU578
 1862 0008 0246     		mov	r2, r0
 1863              		.loc 1 458 3 view .LVU579
 1864 000a 0195     		str	r5, [sp, #4]
 1865              		.loc 1 458 3 is_stmt 1 view .LVU580
 1866 000c FFF7FEFF 		bl	__ll_aton_stai_check_context_network_handle.constprop.0
 1867              	.LVL159:
 1868              		.loc 1 458 3 discriminator 1 view .LVU581
 1869 0010 B0F5003F 		cmp	r0, #131072
ARM GAS  C:\Users\DJESSOU\AppData\Local\Temp\ccruImXQ.s 			page 61


 1870 0014 0DD2     		bcs	.L229
 1871              		.loc 1 458 54 discriminator 2 view .LVU582
 459:Model/stai_palm_detector.c ****   __LL_ATON_STAI_CHECK_NETWORK_INTERFACE(nn_i_ptr, (_stai_aton_context *)network);
 1872              		.loc 1 459 3 view .LVU583
 1873              		.loc 1 459 3 view .LVU584
 1874 0016 1A4B     		ldr	r3, .L236
 1875 0018 0199     		ldr	r1, [sp, #4]
 1876 001a 9942     		cmp	r1, r3
 1877 001c 0BD0     		beq	.L231
 1878              		.loc 1 459 3 discriminator 1 view .LVU585
 1879              		.loc 1 459 3 discriminator 1 view .LVU586
 1880 001e 32B1     		cbz	r2, .L232
 1881              		.loc 1 459 3 discriminator 4 view .LVU587
 1882 0020 D36B     		ldr	r3, [r2, #60]
 1883 0022 B3F5003F 		cmp	r3, #131072
 1884              		.loc 1 459 3 discriminator 5 view .LVU588
 1885 0026 3CBF     		itt	cc
 1886 0028 4FF44033 		movcc	r3, #196608
 1887 002c D363     		strcc	r3, [r2, #60]
 1888              	.L232:
 1889              		.loc 1 459 3 is_stmt 0 discriminator 3 view .LVU589
 1890 002e 4FF44030 		mov	r0, #196608
 1891              	.LVL160:
 1892              	.L229:
 460:Model/stai_palm_detector.c **** 
 461:Model/stai_palm_detector.c ****   // Copy of network info struct
 462:Model/stai_palm_detector.c ****   *info = __stai_palm_detector_network_info;
 463:Model/stai_palm_detector.c **** 
 464:Model/stai_palm_detector.c ****   return STAI_SUCCESS;
 465:Model/stai_palm_detector.c **** }
 1893              		.loc 1 465 1 view .LVU590
 1894 0032 03B0     		add	sp, sp, #12
 1895              		.cfi_remember_state
 1896              		.cfi_def_cfa_offset 12
 1897              		@ sp needed
 1898 0034 30BD     		pop	{r4, r5, pc}
 1899              	.LVL161:
 1900              	.L231:
 1901              		.cfi_restore_state
 459:Model/stai_palm_detector.c ****   __LL_ATON_STAI_CHECK_NETWORK_INTERFACE(nn_i_ptr, (_stai_aton_context *)network);
 1902              		.loc 1 459 3 is_stmt 1 discriminator 2 view .LVU591
 459:Model/stai_palm_detector.c ****   __LL_ATON_STAI_CHECK_NETWORK_INTERFACE(nn_i_ptr, (_stai_aton_context *)network);
 1903              		.loc 1 459 3 discriminator 2 view .LVU592
 462:Model/stai_palm_detector.c **** 
 1904              		.loc 1 462 3 view .LVU593
 462:Model/stai_palm_detector.c **** 
 1905              		.loc 1 462 9 is_stmt 0 view .LVU594
 1906 0036 5022     		movs	r2, #80
 1907              	.LVL162:
 462:Model/stai_palm_detector.c **** 
 1908              		.loc 1 462 9 view .LVU595
 1909 0038 2946     		mov	r1, r5
 1910 003a 2046     		mov	r0, r4
 1911              	.LVL163:
 462:Model/stai_palm_detector.c **** 
 1912              		.loc 1 462 9 view .LVU596
 1913 003c FFF7FEFF 		bl	memset
ARM GAS  C:\Users\DJESSOU\AppData\Local\Temp\ccruImXQ.s 			page 62


 1914              	.LVL164:
 1915 0040 104B     		ldr	r3, .L236+4
 1916 0042 40F2E112 		movw	r2, #481
 1917 0046 6360     		str	r3, [r4, #4]
 1918 0048 0F4B     		ldr	r3, .L236+8
 464:Model/stai_palm_detector.c **** }
 1919              		.loc 1 464 10 view .LVU597
 1920 004a 2846     		mov	r0, r5
 462:Model/stai_palm_detector.c **** 
 1921              		.loc 1 462 9 view .LVU598
 1922 004c A360     		str	r3, [r4, #8]
 1923 004e 0F4B     		ldr	r3, .L236+12
 1924 0050 E360     		str	r3, [r4, #12]
 1925 0052 40F20113 		movw	r3, #257
 1926 0056 A382     		strh	r3, [r4, #20]	@ movhi
 1927 0058 0323     		movs	r3, #3
 1928 005a A375     		strb	r3, [r4, #22]
 1929 005c 2376     		strb	r3, [r4, #24]
 1930 005e 0123     		movs	r3, #1
 1931 0060 2377     		strb	r3, [r4, #28]
 1932 0062 4FF0E053 		mov	r3, #469762048
 1933 0066 C4E90A23 		strd	r2, r3, [r4, #40]
 1934 006a 094B     		ldr	r3, .L236+16
 1935 006c 2363     		str	r3, [r4, #48]
 1936 006e EF23     		movs	r3, #239
 1937 0070 A386     		strh	r3, [r4, #52]	@ movhi
 1938 0072 084B     		ldr	r3, .L236+20
 1939 0074 E363     		str	r3, [r4, #60]
 1940 0076 084B     		ldr	r3, .L236+24
 1941 0078 2364     		str	r3, [r4, #64]
 1942 007a 084B     		ldr	r3, .L236+28
 1943 007c 6364     		str	r3, [r4, #68]
 464:Model/stai_palm_detector.c **** }
 1944              		.loc 1 464 3 is_stmt 1 view .LVU599
 464:Model/stai_palm_detector.c **** }
 1945              		.loc 1 464 10 is_stmt 0 view .LVU600
 1946 007e D8E7     		b	.L229
 1947              	.L237:
 1948              		.align	2
 1949              	.L236:
 1950 0080 00000000 		.word	NN_Interface_palm_detector
 1951 0084 00000000 		.word	.LC5
 1952 0088 15000000 		.word	.LC6
 1953 008c 23000000 		.word	.LC7
 1954 0090 01000200 		.word	131073
 1955 0094 00000000 		.word	__compound_literal.3
 1956 0098 00000000 		.word	__compound_literal.6
 1957 009c 00000000 		.word	__compound_literal.616
 1958              		.cfi_endproc
 1959              	.LFE315:
 1961              		.section	.text.stai_palm_detector_get_states,"ax",%progbits
 1962              		.align	1
 1963              		.global	stai_palm_detector_get_states
 1964              		.syntax unified
 1965              		.thumb
 1966              		.thumb_func
 1968              	stai_palm_detector_get_states:
ARM GAS  C:\Users\DJESSOU\AppData\Local\Temp\ccruImXQ.s 			page 63


 1969              	.LVL165:
 1970              	.LFB316:
 466:Model/stai_palm_detector.c **** 
 467:Model/stai_palm_detector.c **** STAI_API_ENTRY
 468:Model/stai_palm_detector.c **** stai_return_code stai_palm_detector_get_states(stai_network *network, stai_ptr *states, stai_size *
 469:Model/stai_palm_detector.c **** {
 1971              		.loc 1 469 1 is_stmt 1 view -0
 1972              		.cfi_startproc
 1973              		@ args = 0, pretend = 0, frame = 8
 1974              		@ frame_needed = 0, uses_anonymous_args = 0
 470:Model/stai_palm_detector.c ****   LL_ATON_LIB_UNUSED(states);
 1975              		.loc 1 470 3 view .LVU602
 471:Model/stai_palm_detector.c **** 
 472:Model/stai_palm_detector.c ****   /* check context & network interface handle */
 473:Model/stai_palm_detector.c ****   __LL_ATON_STAI_ACQUIRE_INTERFACE(nn_i_ptr, network);
 1976              		.loc 1 473 3 view .LVU603
 469:Model/stai_palm_detector.c ****   LL_ATON_LIB_UNUSED(states);
 1977              		.loc 1 469 1 is_stmt 0 view .LVU604
 1978 0000 37B5     		push	{r0, r1, r2, r4, r5, lr}
 1979              		.cfi_def_cfa_offset 24
 1980              		.cfi_offset 4, -12
 1981              		.cfi_offset 5, -8
 1982              		.cfi_offset 14, -4
 1983              		.loc 1 473 3 view .LVU605
 1984 0002 0025     		movs	r5, #0
 1985 0004 01A9     		add	r1, sp, #4
 1986              	.LVL166:
 469:Model/stai_palm_detector.c ****   LL_ATON_LIB_UNUSED(states);
 1987              		.loc 1 469 1 view .LVU606
 1988 0006 0446     		mov	r4, r0
 1989              		.loc 1 473 3 view .LVU607
 1990 0008 0195     		str	r5, [sp, #4]
 1991              		.loc 1 473 3 is_stmt 1 view .LVU608
 1992 000a FFF7FEFF 		bl	__ll_aton_stai_check_context_network_handle.constprop.0
 1993              	.LVL167:
 1994              		.loc 1 473 3 discriminator 1 view .LVU609
 1995 000e B0F5003F 		cmp	r0, #131072
 1996 0012 0DD2     		bcs	.L238
 1997              		.loc 1 473 54 discriminator 2 view .LVU610
 474:Model/stai_palm_detector.c ****   __LL_ATON_STAI_CHECK_NETWORK_INTERFACE(nn_i_ptr, (_stai_aton_context *)network);
 1998              		.loc 1 474 3 view .LVU611
 1999              		.loc 1 474 3 view .LVU612
 2000 0014 094B     		ldr	r3, .L245
 2001 0016 0199     		ldr	r1, [sp, #4]
 2002 0018 9942     		cmp	r1, r3
 2003 001a 0BD0     		beq	.L240
 2004              		.loc 1 474 3 discriminator 1 view .LVU613
 2005              		.loc 1 474 3 discriminator 1 view .LVU614
 2006 001c 34B1     		cbz	r4, .L241
 2007              		.loc 1 474 3 discriminator 4 view .LVU615
 2008 001e E36B     		ldr	r3, [r4, #60]
 2009 0020 B3F5003F 		cmp	r3, #131072
 2010              		.loc 1 474 3 discriminator 5 view .LVU616
 2011 0024 3CBF     		itt	cc
 2012 0026 4FF44033 		movcc	r3, #196608
 2013 002a E363     		strcc	r3, [r4, #60]
 2014              	.L241:
ARM GAS  C:\Users\DJESSOU\AppData\Local\Temp\ccruImXQ.s 			page 64


 2015              		.loc 1 474 3 is_stmt 0 discriminator 3 view .LVU617
 2016 002c 4FF44030 		mov	r0, #196608
 2017              	.LVL168:
 2018              	.L238:
 475:Model/stai_palm_detector.c **** 
 476:Model/stai_palm_detector.c ****   *n_states = 0;
 477:Model/stai_palm_detector.c ****   return STAI_SUCCESS;
 478:Model/stai_palm_detector.c **** }
 2019              		.loc 1 478 1 view .LVU618
 2020 0030 03B0     		add	sp, sp, #12
 2021              		.cfi_remember_state
 2022              		.cfi_def_cfa_offset 12
 2023              		@ sp needed
 2024 0032 30BD     		pop	{r4, r5, pc}
 2025              	.LVL169:
 2026              	.L240:
 2027              		.cfi_restore_state
 474:Model/stai_palm_detector.c ****   __LL_ATON_STAI_CHECK_NETWORK_INTERFACE(nn_i_ptr, (_stai_aton_context *)network);
 2028              		.loc 1 474 3 is_stmt 1 discriminator 2 view .LVU619
 474:Model/stai_palm_detector.c ****   __LL_ATON_STAI_CHECK_NETWORK_INTERFACE(nn_i_ptr, (_stai_aton_context *)network);
 2029              		.loc 1 474 3 discriminator 2 view .LVU620
 476:Model/stai_palm_detector.c ****   return STAI_SUCCESS;
 2030              		.loc 1 476 3 view .LVU621
 477:Model/stai_palm_detector.c **** }
 2031              		.loc 1 477 10 is_stmt 0 view .LVU622
 2032 0034 2846     		mov	r0, r5
 2033              	.LVL170:
 476:Model/stai_palm_detector.c ****   return STAI_SUCCESS;
 2034              		.loc 1 476 13 view .LVU623
 2035 0036 1560     		str	r5, [r2]
 477:Model/stai_palm_detector.c **** }
 2036              		.loc 1 477 3 is_stmt 1 view .LVU624
 477:Model/stai_palm_detector.c **** }
 2037              		.loc 1 477 10 is_stmt 0 view .LVU625
 2038 0038 FAE7     		b	.L238
 2039              	.L246:
 2040 003a 00BF     		.align	2
 2041              	.L245:
 2042 003c 00000000 		.word	NN_Interface_palm_detector
 2043              		.cfi_endproc
 2044              	.LFE316:
 2046              		.section	.text.stai_palm_detector_get_error,"ax",%progbits
 2047              		.align	1
 2048              		.global	stai_palm_detector_get_error
 2049              		.syntax unified
 2050              		.thumb
 2051              		.thumb_func
 2053              	stai_palm_detector_get_error:
 2054              	.LVL171:
 2055              	.LFB317:
 479:Model/stai_palm_detector.c **** 
 480:Model/stai_palm_detector.c **** STAI_API_ENTRY
 481:Model/stai_palm_detector.c **** stai_return_code stai_palm_detector_get_error(stai_network *network)
 482:Model/stai_palm_detector.c **** {
 2056              		.loc 1 482 1 is_stmt 1 view -0
 2057              		.cfi_startproc
 2058              		@ args = 0, pretend = 0, frame = 8
ARM GAS  C:\Users\DJESSOU\AppData\Local\Temp\ccruImXQ.s 			page 65


 2059              		@ frame_needed = 0, uses_anonymous_args = 0
 483:Model/stai_palm_detector.c ****   __LL_ATON_STAI_ACQUIRE_INTERFACE(nn_i_ptr, network);
 2060              		.loc 1 483 3 view .LVU627
 2061 0000 0023     		movs	r3, #0
 482:Model/stai_palm_detector.c ****   __LL_ATON_STAI_ACQUIRE_INTERFACE(nn_i_ptr, network);
 2062              		.loc 1 482 1 is_stmt 0 view .LVU628
 2063 0002 07B5     		push	{r0, r1, r2, lr}
 2064              		.cfi_def_cfa_offset 16
 2065              		.cfi_offset 14, -4
 2066              		.loc 1 483 3 view .LVU629
 2067 0004 01A9     		add	r1, sp, #4
 482:Model/stai_palm_detector.c ****   __LL_ATON_STAI_ACQUIRE_INTERFACE(nn_i_ptr, network);
 2068              		.loc 1 482 1 view .LVU630
 2069 0006 0246     		mov	r2, r0
 2070              		.loc 1 483 3 view .LVU631
 2071 0008 0193     		str	r3, [sp, #4]
 2072              		.loc 1 483 3 is_stmt 1 view .LVU632
 2073 000a FFF7FEFF 		bl	__ll_aton_stai_check_context_network_handle.constprop.0
 2074              	.LVL172:
 2075              		.loc 1 483 3 discriminator 1 view .LVU633
 2076 000e B0F5003F 		cmp	r0, #131072
 2077 0012 0DD2     		bcs	.L247
 2078              		.loc 1 483 54 discriminator 2 view .LVU634
 484:Model/stai_palm_detector.c ****   __LL_ATON_STAI_CHECK_NETWORK_INTERFACE(nn_i_ptr, (_stai_aton_context *)network);
 2079              		.loc 1 484 3 view .LVU635
 2080              		.loc 1 484 3 view .LVU636
 2081 0014 094B     		ldr	r3, .L254
 2082 0016 0199     		ldr	r1, [sp, #4]
 2083 0018 9942     		cmp	r1, r3
 2084 001a 0CD0     		beq	.L249
 2085              		.loc 1 484 3 discriminator 1 view .LVU637
 2086              		.loc 1 484 3 discriminator 1 view .LVU638
 2087 001c 32B1     		cbz	r2, .L250
 2088              		.loc 1 484 3 discriminator 4 view .LVU639
 2089 001e D36B     		ldr	r3, [r2, #60]
 2090 0020 B3F5003F 		cmp	r3, #131072
 2091              		.loc 1 484 3 discriminator 5 view .LVU640
 2092 0024 3CBF     		itt	cc
 2093 0026 4FF44033 		movcc	r3, #196608
 2094 002a D363     		strcc	r3, [r2, #60]
 2095              	.L250:
 2096              		.loc 1 484 3 is_stmt 0 discriminator 3 view .LVU641
 2097 002c 4FF44030 		mov	r0, #196608
 2098              	.LVL173:
 2099              	.L247:
 485:Model/stai_palm_detector.c ****   _stai_aton_context *ctx = (_stai_aton_context *)network;
 486:Model/stai_palm_detector.c **** 
 487:Model/stai_palm_detector.c ****   // return 1st generated error or STAI_SUCCESS if no errors so far
 488:Model/stai_palm_detector.c ****   return ctx->first_error;
 489:Model/stai_palm_detector.c **** }
 2100              		.loc 1 489 1 view .LVU642
 2101 0030 03B0     		add	sp, sp, #12
 2102              		.cfi_remember_state
 2103              		.cfi_def_cfa_offset 4
 2104              		@ sp needed
 2105 0032 5DF804FB 		ldr	pc, [sp], #4
 2106              	.LVL174:
ARM GAS  C:\Users\DJESSOU\AppData\Local\Temp\ccruImXQ.s 			page 66


 2107              	.L249:
 2108              		.cfi_restore_state
 484:Model/stai_palm_detector.c ****   __LL_ATON_STAI_CHECK_NETWORK_INTERFACE(nn_i_ptr, (_stai_aton_context *)network);
 2109              		.loc 1 484 3 is_stmt 1 discriminator 2 view .LVU643
 484:Model/stai_palm_detector.c ****   __LL_ATON_STAI_CHECK_NETWORK_INTERFACE(nn_i_ptr, (_stai_aton_context *)network);
 2110              		.loc 1 484 3 discriminator 2 view .LVU644
 485:Model/stai_palm_detector.c ****   _stai_aton_context *ctx = (_stai_aton_context *)network;
 2111              		.loc 1 485 3 view .LVU645
 488:Model/stai_palm_detector.c **** }
 2112              		.loc 1 488 3 view .LVU646
 488:Model/stai_palm_detector.c **** }
 2113              		.loc 1 488 13 is_stmt 0 view .LVU647
 2114 0036 D06B     		ldr	r0, [r2, #60]
 2115              	.LVL175:
 488:Model/stai_palm_detector.c **** }
 2116              		.loc 1 488 13 view .LVU648
 2117 0038 FAE7     		b	.L247
 2118              	.L255:
 2119 003a 00BF     		.align	2
 2120              	.L254:
 2121 003c 00000000 		.word	NN_Interface_palm_detector
 2122              		.cfi_endproc
 2123              	.LFE317:
 2125              		.section	.text.stai_palm_detector_set_inputs,"ax",%progbits
 2126              		.align	1
 2127              		.global	stai_palm_detector_set_inputs
 2128              		.syntax unified
 2129              		.thumb
 2130              		.thumb_func
 2132              	stai_palm_detector_set_inputs:
 2133              	.LVL176:
 2134              	.LFB318:
 490:Model/stai_palm_detector.c **** 
 491:Model/stai_palm_detector.c **** /*****************************************************************************/
 492:Model/stai_palm_detector.c **** /*  Setters APIs  */
 493:Model/stai_palm_detector.c **** STAI_API_ENTRY
 494:Model/stai_palm_detector.c **** stai_return_code stai_palm_detector_set_inputs(stai_network *network, const stai_ptr *inputs,
 495:Model/stai_palm_detector.c ****                                                        const stai_size n_inputs)
 496:Model/stai_palm_detector.c **** {
 2135              		.loc 1 496 1 is_stmt 1 view -0
 2136              		.cfi_startproc
 2137              		@ args = 0, pretend = 0, frame = 0
 2138              		@ frame_needed = 0, uses_anonymous_args = 0
 2139              		@ link register save eliminated.
 497:Model/stai_palm_detector.c ****   return __ll_aton_stai_palm_detector_set_inputs_or_weights(network, inputs, n_inputs, true);
 2140              		.loc 1 497 3 view .LVU650
 2141              		.loc 1 497 10 is_stmt 0 view .LVU651
 2142 0000 0123     		movs	r3, #1
 2143 0002 FFF7FEBF 		b	__ll_aton_stai_palm_detector_set_inputs_or_weights
 2144              	.LVL177:
 2145              		.loc 1 497 10 view .LVU652
 2146              		.cfi_endproc
 2147              	.LFE318:
 2149              		.section	.text.stai_palm_detector_set_weights,"ax",%progbits
 2150              		.align	1
 2151              		.global	stai_palm_detector_set_weights
 2152              		.syntax unified
ARM GAS  C:\Users\DJESSOU\AppData\Local\Temp\ccruImXQ.s 			page 67


 2153              		.thumb
 2154              		.thumb_func
 2156              	stai_palm_detector_set_weights:
 2157              	.LVL178:
 2158              	.LFB319:
 498:Model/stai_palm_detector.c **** }
 499:Model/stai_palm_detector.c **** 
 500:Model/stai_palm_detector.c **** STAI_API_ENTRY
 501:Model/stai_palm_detector.c **** stai_return_code stai_palm_detector_set_weights(stai_network *network, const stai_ptr *weights,
 502:Model/stai_palm_detector.c ****                                                         const stai_size n_weights)
 503:Model/stai_palm_detector.c **** {
 2159              		.loc 1 503 1 is_stmt 1 view -0
 2160              		.cfi_startproc
 2161              		@ args = 0, pretend = 0, frame = 0
 2162              		@ frame_needed = 0, uses_anonymous_args = 0
 2163              		@ link register save eliminated.
 504:Model/stai_palm_detector.c ****   return __ll_aton_stai_palm_detector_set_inputs_or_weights(network, weights, n_weights, false);
 2164              		.loc 1 504 3 view .LVU654
 2165              		.loc 1 504 10 is_stmt 0 view .LVU655
 2166 0000 0023     		movs	r3, #0
 2167 0002 FFF7FEBF 		b	__ll_aton_stai_palm_detector_set_inputs_or_weights
 2168              	.LVL179:
 2169              		.loc 1 504 10 view .LVU656
 2170              		.cfi_endproc
 2171              	.LFE319:
 2173              		.section	.text.stai_palm_detector_set_outputs,"ax",%progbits
 2174              		.align	1
 2175              		.global	stai_palm_detector_set_outputs
 2176              		.syntax unified
 2177              		.thumb
 2178              		.thumb_func
 2180              	stai_palm_detector_set_outputs:
 2181              	.LVL180:
 2182              	.LFB320:
 505:Model/stai_palm_detector.c **** }
 506:Model/stai_palm_detector.c **** 
 507:Model/stai_palm_detector.c **** STAI_API_ENTRY
 508:Model/stai_palm_detector.c **** stai_return_code stai_palm_detector_set_outputs(stai_network *network, const stai_ptr *outputs,
 509:Model/stai_palm_detector.c ****                                                         const stai_size n_outputs)
 510:Model/stai_palm_detector.c **** {
 2183              		.loc 1 510 1 is_stmt 1 view -0
 2184              		.cfi_startproc
 2185              		@ args = 0, pretend = 0, frame = 0
 2186              		@ frame_needed = 0, uses_anonymous_args = 0
 2187              		@ link register save eliminated.
 511:Model/stai_palm_detector.c ****   return __ll_aton_stai_palm_detector_set_outputs_or_activations(network, outputs, n_outputs, true)
 2188              		.loc 1 511 3 view .LVU658
 2189              		.loc 1 511 10 is_stmt 0 view .LVU659
 2190 0000 0123     		movs	r3, #1
 2191 0002 FFF7FEBF 		b	__ll_aton_stai_palm_detector_set_outputs_or_activations
 2192              	.LVL181:
 2193              		.loc 1 511 10 view .LVU660
 2194              		.cfi_endproc
 2195              	.LFE320:
 2197              		.section	.text.stai_palm_detector_set_activations,"ax",%progbits
 2198              		.align	1
 2199              		.global	stai_palm_detector_set_activations
ARM GAS  C:\Users\DJESSOU\AppData\Local\Temp\ccruImXQ.s 			page 68


 2200              		.syntax unified
 2201              		.thumb
 2202              		.thumb_func
 2204              	stai_palm_detector_set_activations:
 2205              	.LVL182:
 2206              	.LFB321:
 512:Model/stai_palm_detector.c **** }
 513:Model/stai_palm_detector.c **** 
 514:Model/stai_palm_detector.c **** STAI_API_ENTRY
 515:Model/stai_palm_detector.c **** stai_return_code stai_palm_detector_set_activations(stai_network *network, const stai_ptr *activati
 516:Model/stai_palm_detector.c ****                                                             const stai_size n_activations)
 517:Model/stai_palm_detector.c **** {
 2207              		.loc 1 517 1 is_stmt 1 view -0
 2208              		.cfi_startproc
 2209              		@ args = 0, pretend = 0, frame = 0
 2210              		@ frame_needed = 0, uses_anonymous_args = 0
 2211              		@ link register save eliminated.
 518:Model/stai_palm_detector.c ****   return __ll_aton_stai_palm_detector_set_outputs_or_activations(network, activations, n_activation
 2212              		.loc 1 518 3 view .LVU662
 2213              		.loc 1 518 10 is_stmt 0 view .LVU663
 2214 0000 0023     		movs	r3, #0
 2215 0002 FFF7FEBF 		b	__ll_aton_stai_palm_detector_set_outputs_or_activations
 2216              	.LVL183:
 2217              		.loc 1 518 10 view .LVU664
 2218              		.cfi_endproc
 2219              	.LFE321:
 2221              		.section	.text.stai_palm_detector_set_states,"ax",%progbits
 2222              		.align	1
 2223              		.global	stai_palm_detector_set_states
 2224              		.syntax unified
 2225              		.thumb
 2226              		.thumb_func
 2228              	stai_palm_detector_set_states:
 2229              	.LVL184:
 2230              	.LFB322:
 519:Model/stai_palm_detector.c **** }
 520:Model/stai_palm_detector.c **** 
 521:Model/stai_palm_detector.c **** STAI_API_ENTRY
 522:Model/stai_palm_detector.c **** stai_return_code stai_palm_detector_set_states(stai_network *network, const stai_ptr *states,
 523:Model/stai_palm_detector.c ****                                                        const stai_size n_states)
 524:Model/stai_palm_detector.c **** {
 2231              		.loc 1 524 1 is_stmt 1 view -0
 2232              		.cfi_startproc
 2233              		@ args = 0, pretend = 0, frame = 8
 2234              		@ frame_needed = 0, uses_anonymous_args = 0
 525:Model/stai_palm_detector.c ****   LL_ATON_LIB_UNUSED(states);
 2235              		.loc 1 525 3 view .LVU666
 526:Model/stai_palm_detector.c **** 
 527:Model/stai_palm_detector.c ****   /* check context & network interface handle */
 528:Model/stai_palm_detector.c ****   __LL_ATON_STAI_ACQUIRE_INTERFACE(nn_i_ptr, network);
 2236              		.loc 1 528 3 view .LVU667
 2237 0000 0023     		movs	r3, #0
 524:Model/stai_palm_detector.c ****   LL_ATON_LIB_UNUSED(states);
 2238              		.loc 1 524 1 is_stmt 0 view .LVU668
 2239 0002 13B5     		push	{r0, r1, r4, lr}
 2240              		.cfi_def_cfa_offset 16
 2241              		.cfi_offset 4, -8
ARM GAS  C:\Users\DJESSOU\AppData\Local\Temp\ccruImXQ.s 			page 69


 2242              		.cfi_offset 14, -4
 2243              		.loc 1 528 3 view .LVU669
 2244 0004 01A9     		add	r1, sp, #4
 2245              	.LVL185:
 524:Model/stai_palm_detector.c ****   LL_ATON_LIB_UNUSED(states);
 2246              		.loc 1 524 1 view .LVU670
 2247 0006 0446     		mov	r4, r0
 2248              		.loc 1 528 3 view .LVU671
 2249 0008 0193     		str	r3, [sp, #4]
 2250              		.loc 1 528 3 is_stmt 1 view .LVU672
 2251 000a FFF7FEFF 		bl	__ll_aton_stai_check_context_network_handle.constprop.0
 2252              	.LVL186:
 2253              		.loc 1 528 3 discriminator 1 view .LVU673
 2254 000e B0F5003F 		cmp	r0, #131072
 2255 0012 0DD2     		bcs	.L260
 2256              		.loc 1 528 54 discriminator 2 view .LVU674
 529:Model/stai_palm_detector.c ****   __LL_ATON_STAI_CHECK_NETWORK_INTERFACE(nn_i_ptr, (_stai_aton_context *)network);
 2257              		.loc 1 529 3 view .LVU675
 2258              		.loc 1 529 3 view .LVU676
 2259 0014 0E4B     		ldr	r3, .L272
 2260 0016 0199     		ldr	r1, [sp, #4]
 2261 0018 9942     		cmp	r1, r3
 2262 001a 0BD0     		beq	.L262
 2263              		.loc 1 529 3 discriminator 1 view .LVU677
 2264              		.loc 1 529 3 discriminator 1 view .LVU678
 2265 001c 34B1     		cbz	r4, .L263
 2266              		.loc 1 529 3 discriminator 4 view .LVU679
 2267 001e E36B     		ldr	r3, [r4, #60]
 2268 0020 B3F5003F 		cmp	r3, #131072
 2269              		.loc 1 529 3 discriminator 5 view .LVU680
 2270 0024 3CBF     		itt	cc
 2271 0026 4FF44033 		movcc	r3, #196608
 2272 002a E363     		strcc	r3, [r4, #60]
 2273              	.LVL187:
 2274              	.L263:
 2275              		.loc 1 529 3 is_stmt 0 discriminator 3 view .LVU681
 2276 002c 4FF44030 		mov	r0, #196608
 2277              	.L260:
 530:Model/stai_palm_detector.c **** 
 531:Model/stai_palm_detector.c ****   if (n_states != 0)
 532:Model/stai_palm_detector.c ****     __LL_ATON_STAI_SET_1ST_CTX_ERROR_AND_RETURN((_stai_aton_context *)network, STAI_ERROR_NETWORK_I
 533:Model/stai_palm_detector.c ****   else
 534:Model/stai_palm_detector.c ****     return STAI_SUCCESS;
 535:Model/stai_palm_detector.c **** }
 2278              		.loc 1 535 1 view .LVU682
 2279 0030 02B0     		add	sp, sp, #8
 2280              		.cfi_remember_state
 2281              		.cfi_def_cfa_offset 8
 2282              		@ sp needed
 2283 0032 10BD     		pop	{r4, pc}
 2284              	.LVL188:
 2285              	.L262:
 2286              		.cfi_restore_state
 529:Model/stai_palm_detector.c ****   __LL_ATON_STAI_CHECK_NETWORK_INTERFACE(nn_i_ptr, (_stai_aton_context *)network);
 2287              		.loc 1 529 3 is_stmt 1 discriminator 2 view .LVU683
 529:Model/stai_palm_detector.c ****   __LL_ATON_STAI_CHECK_NETWORK_INTERFACE(nn_i_ptr, (_stai_aton_context *)network);
 2288              		.loc 1 529 3 discriminator 2 view .LVU684
ARM GAS  C:\Users\DJESSOU\AppData\Local\Temp\ccruImXQ.s 			page 70


 531:Model/stai_palm_detector.c ****     __LL_ATON_STAI_SET_1ST_CTX_ERROR_AND_RETURN((_stai_aton_context *)network, STAI_ERROR_NETWORK_I
 2289              		.loc 1 531 3 view .LVU685
 534:Model/stai_palm_detector.c **** }
 2290              		.loc 1 534 12 is_stmt 0 view .LVU686
 2291 0034 1046     		mov	r0, r2
 2292              	.LVL189:
 531:Model/stai_palm_detector.c ****     __LL_ATON_STAI_SET_1ST_CTX_ERROR_AND_RETURN((_stai_aton_context *)network, STAI_ERROR_NETWORK_I
 2293              		.loc 1 531 6 view .LVU687
 2294 0036 002A     		cmp	r2, #0
 2295 0038 FAD0     		beq	.L260
 2296              	.LVL190:
 532:Model/stai_palm_detector.c ****   else
 2297              		.loc 1 532 5 is_stmt 1 view .LVU688
 532:Model/stai_palm_detector.c ****   else
 2298              		.loc 1 532 5 view .LVU689
 2299 003a 002C     		cmp	r4, #0
 2300 003c F6D0     		beq	.L263
 532:Model/stai_palm_detector.c ****   else
 2301              		.loc 1 532 5 discriminator 2 view .LVU690
 2302 003e E36B     		ldr	r3, [r4, #60]
 532:Model/stai_palm_detector.c ****   else
 2303              		.loc 1 532 5 is_stmt 0 discriminator 5 view .LVU691
 2304 0040 0448     		ldr	r0, .L272+4
 2305              	.LVL191:
 532:Model/stai_palm_detector.c ****   else
 2306              		.loc 1 532 5 discriminator 2 view .LVU692
 2307 0042 B3F5003F 		cmp	r3, #131072
 532:Model/stai_palm_detector.c ****   else
 2308              		.loc 1 532 5 is_stmt 1 discriminator 3 view .LVU693
 2309 0046 3CBF     		itt	cc
 2310 0048 024B     		ldrcc	r3, .L272+4
 2311 004a E363     		strcc	r3, [r4, #60]
 2312 004c F0E7     		b	.L260
 2313              	.L273:
 2314 004e 00BF     		.align	2
 2315              	.L272:
 2316 0050 00000000 		.word	NN_Interface_palm_detector
 2317 0054 31000400 		.word	262193
 2318              		.cfi_endproc
 2319              	.LFE322:
 2321              		.section	.text.stai_palm_detector_set_callback,"ax",%progbits
 2322              		.align	1
 2323              		.global	stai_palm_detector_set_callback
 2324              		.syntax unified
 2325              		.thumb
 2326              		.thumb_func
 2328              	stai_palm_detector_set_callback:
 2329              	.LVL192:
 2330              	.LFB323:
 536:Model/stai_palm_detector.c **** 
 537:Model/stai_palm_detector.c **** STAI_API_ENTRY
 538:Model/stai_palm_detector.c **** stai_return_code stai_palm_detector_set_callback(stai_network *network, const stai_event_cb cb, voi
 539:Model/stai_palm_detector.c **** {
 2331              		.loc 1 539 1 view -0
 2332              		.cfi_startproc
 2333              		@ args = 0, pretend = 0, frame = 0
 2334              		@ frame_needed = 0, uses_anonymous_args = 0
ARM GAS  C:\Users\DJESSOU\AppData\Local\Temp\ccruImXQ.s 			page 71


 540:Model/stai_palm_detector.c ****   if (network == NULL)
 2335              		.loc 1 540 3 view .LVU695
 539:Model/stai_palm_detector.c ****   if (network == NULL)
 2336              		.loc 1 539 1 is_stmt 0 view .LVU696
 2337 0000 10B5     		push	{r4, lr}
 2338              		.cfi_def_cfa_offset 8
 2339              		.cfi_offset 4, -8
 2340              		.cfi_offset 14, -4
 2341              		.loc 1 540 6 view .LVU697
 2342 0002 58B1     		cbz	r0, .L275
 541:Model/stai_palm_detector.c ****   {
 542:Model/stai_palm_detector.c ****     return STAI_ERROR_NETWORK_INVALID_CONTEXT_HANDLE;
 543:Model/stai_palm_detector.c ****   }
 544:Model/stai_palm_detector.c **** 
 545:Model/stai_palm_detector.c ****   _stai_aton_context *nn_ctx = (_stai_aton_context *)network;
 2343              		.loc 1 545 3 is_stmt 1 view .LVU698
 2344              	.LVL193:
 546:Model/stai_palm_detector.c **** 
 547:Model/stai_palm_detector.c ****   if ((nn_ctx->network_instance.network != NULL) &&
 2345              		.loc 1 547 3 view .LVU699
 2346              		.loc 1 547 32 is_stmt 0 view .LVU700
 2347 0004 0368     		ldr	r3, [r0]
 2348              		.loc 1 547 6 view .LVU701
 2349 0006 63B1     		cbz	r3, .L276
 2350              		.loc 1 547 50 discriminator 1 view .LVU702
 2351 0008 0B4C     		ldr	r4, .L287
 2352 000a A342     		cmp	r3, r4
 2353 000c 09D0     		beq	.L276
 548:Model/stai_palm_detector.c ****       (nn_ctx->network_instance.network != &NN_Interface_palm_detector))
 549:Model/stai_palm_detector.c ****   {
 550:Model/stai_palm_detector.c ****     __LL_ATON_STAI_SET_1ST_CTX_ERROR_AND_RETURN(nn_ctx, STAI_ERROR_NETWORK_INVALID_CONTEXT_HANDLE);
 2354              		.loc 1 550 5 is_stmt 1 view .LVU703
 2355              		.loc 1 550 5 view .LVU704
 2356              		.loc 1 550 5 discriminator 2 view .LVU705
 2357 000e C36B     		ldr	r3, [r0, #60]
 2358 0010 B3F5003F 		cmp	r3, #131072
 2359              		.loc 1 550 5 discriminator 3 view .LVU706
 2360 0014 3CBF     		itt	cc
 2361 0016 4FF44033 		movcc	r3, #196608
 2362 001a C363     		strcc	r3, [r0, #60]
 2363              	.LVL194:
 2364              	.L275:
 542:Model/stai_palm_detector.c ****   }
 2365              		.loc 1 542 12 is_stmt 0 view .LVU707
 2366 001c 4FF44030 		mov	r0, #196608
 2367              	.LVL195:
 2368              	.L274:
 551:Model/stai_palm_detector.c ****   }
 552:Model/stai_palm_detector.c **** 
 553:Model/stai_palm_detector.c ****   nn_ctx->callback = cb;
 554:Model/stai_palm_detector.c ****   nn_ctx->callback_cookie = cb_cookie;
 555:Model/stai_palm_detector.c **** 
 556:Model/stai_palm_detector.c ****   LL_ATON_RT_SetNetworkCallback(&nn_ctx->network_instance,
 557:Model/stai_palm_detector.c ****                                 (cb != NULL) ? _stai_aton_internal_epoch_block_callback : NULL);
 558:Model/stai_palm_detector.c **** 
 559:Model/stai_palm_detector.c ****   return STAI_SUCCESS;
 560:Model/stai_palm_detector.c **** }
ARM GAS  C:\Users\DJESSOU\AppData\Local\Temp\ccruImXQ.s 			page 72


 2369              		.loc 1 560 1 view .LVU708
 2370 0020 10BD     		pop	{r4, pc}
 2371              	.LVL196:
 2372              	.L276:
 550:Model/stai_palm_detector.c ****   }
 2373              		.loc 1 550 5 is_stmt 1 view .LVU709
 553:Model/stai_palm_detector.c ****   nn_ctx->callback_cookie = cb_cookie;
 2374              		.loc 1 553 3 view .LVU710
 556:Model/stai_palm_detector.c ****                                 (cb != NULL) ? _stai_aton_internal_epoch_block_callback : NULL);
 2375              		.loc 1 556 3 is_stmt 0 discriminator 4 view .LVU711
 2376 0022 064B     		ldr	r3, .L287+4
 556:Model/stai_palm_detector.c ****                                 (cb != NULL) ? _stai_aton_internal_epoch_block_callback : NULL);
 2377              		.loc 1 556 3 discriminator 1 view .LVU712
 2378 0024 0029     		cmp	r1, #0
 554:Model/stai_palm_detector.c **** 
 2379              		.loc 1 554 27 view .LVU713
 2380 0026 C0E90C12 		strd	r1, r2, [r0, #48]
 556:Model/stai_palm_detector.c ****                                 (cb != NULL) ? _stai_aton_internal_epoch_block_callback : NULL);
 2381              		.loc 1 556 3 is_stmt 1 view .LVU714
 556:Model/stai_palm_detector.c ****                                 (cb != NULL) ? _stai_aton_internal_epoch_block_callback : NULL);
 2382              		.loc 1 556 3 is_stmt 0 discriminator 4 view .LVU715
 2383 002a 18BF     		it	ne
 2384 002c 1946     		movne	r1, r3
 2385              	.LVL197:
 556:Model/stai_palm_detector.c ****                                 (cb != NULL) ? _stai_aton_internal_epoch_block_callback : NULL);
 2386              		.loc 1 556 3 discriminator 4 view .LVU716
 2387 002e FFF7FEFF 		bl	LL_ATON_RT_SetNetworkCallback
 2388              	.LVL198:
 559:Model/stai_palm_detector.c **** }
 2389              		.loc 1 559 3 is_stmt 1 view .LVU717
 559:Model/stai_palm_detector.c **** }
 2390              		.loc 1 559 10 is_stmt 0 view .LVU718
 2391 0032 0020     		movs	r0, #0
 2392 0034 F4E7     		b	.L274
 2393              	.L288:
 2394 0036 00BF     		.align	2
 2395              	.L287:
 2396 0038 00000000 		.word	NN_Interface_palm_detector
 2397 003c 00000000 		.word	_stai_aton_internal_epoch_block_callback
 2398              		.cfi_endproc
 2399              	.LFE323:
 2401              		.section	.text.stai_ext_palm_detector_run_continue,"ax",%progbits
 2402              		.align	1
 2403              		.global	stai_ext_palm_detector_run_continue
 2404              		.syntax unified
 2405              		.thumb
 2406              		.thumb_func
 2408              	stai_ext_palm_detector_run_continue:
 2409              	.LVL199:
 2410              	.LFB324:
 561:Model/stai_palm_detector.c **** 
 562:Model/stai_palm_detector.c **** /***************************************************************************/
 563:Model/stai_palm_detector.c **** /*  Extended ATON Target Specific APIs  */
 564:Model/stai_palm_detector.c **** STAI_API_ENTRY
 565:Model/stai_palm_detector.c **** stai_return_code stai_ext_palm_detector_run_continue(stai_network *network)
 566:Model/stai_palm_detector.c **** {
 2411              		.loc 1 566 1 is_stmt 1 view -0
ARM GAS  C:\Users\DJESSOU\AppData\Local\Temp\ccruImXQ.s 			page 73


 2412              		.cfi_startproc
 2413              		@ args = 0, pretend = 0, frame = 8
 2414              		@ frame_needed = 0, uses_anonymous_args = 0
 567:Model/stai_palm_detector.c ****   _stai_aton_context *nn_ctx = (_stai_aton_context *)network;
 2415              		.loc 1 567 3 view .LVU720
 568:Model/stai_palm_detector.c ****   if (nn_ctx == NULL)
 2416              		.loc 1 568 3 view .LVU721
 566:Model/stai_palm_detector.c ****   _stai_aton_context *nn_ctx = (_stai_aton_context *)network;
 2417              		.loc 1 566 1 is_stmt 0 view .LVU722
 2418 0000 13B5     		push	{r0, r1, r4, lr}
 2419              		.cfi_def_cfa_offset 16
 2420              		.cfi_offset 4, -8
 2421              		.cfi_offset 14, -4
 2422              		.loc 1 568 6 view .LVU723
 2423 0002 0446     		mov	r4, r0
 2424 0004 90B1     		cbz	r0, .L291
 569:Model/stai_palm_detector.c ****   {
 570:Model/stai_palm_detector.c ****     __LL_ATON_STAI_SET_1ST_CTX_ERROR_AND_RETURN((_stai_aton_context *)network,
 2425              		.loc 1 570 5 is_stmt 1 view .LVU724
 571:Model/stai_palm_detector.c ****                                                 STAI_ERROR_NETWORK_INVALID_CONTEXT_HANDLE);
 572:Model/stai_palm_detector.c ****   }
 573:Model/stai_palm_detector.c **** 
 574:Model/stai_palm_detector.c ****   __LL_ATON_STAI_ACQUIRE_INTERFACE(nn_i_ptr, network);
 2426              		.loc 1 574 3 view .LVU725
 2427 0006 0023     		movs	r3, #0
 2428 0008 01A9     		add	r1, sp, #4
 2429 000a 0193     		str	r3, [sp, #4]
 2430              		.loc 1 574 3 view .LVU726
 2431 000c FFF7FEFF 		bl	__ll_aton_stai_check_context_network_handle.constprop.0
 2432              	.LVL200:
 2433              		.loc 1 574 3 discriminator 1 view .LVU727
 2434 0010 B0F5003F 		cmp	r0, #131072
 2435 0014 0CD2     		bcs	.L289
 2436              		.loc 1 574 54 discriminator 2 view .LVU728
 575:Model/stai_palm_detector.c ****   __LL_ATON_STAI_CHECK_NETWORK_INTERFACE(nn_i_ptr, nn_ctx);
 2437              		.loc 1 575 3 view .LVU729
 2438              		.loc 1 575 3 view .LVU730
 2439 0016 124B     		ldr	r3, .L297
 2440 0018 019A     		ldr	r2, [sp, #4]
 2441 001a 9A42     		cmp	r2, r3
 2442 001c 0AD0     		beq	.L293
 2443              		.loc 1 575 3 discriminator 1 view .LVU731
 2444              		.loc 1 575 3 discriminator 1 view .LVU732
 2445              		.loc 1 575 3 discriminator 4 view .LVU733
 2446 001e E36B     		ldr	r3, [r4, #60]
 2447 0020 B3F5003F 		cmp	r3, #131072
 2448              		.loc 1 575 3 discriminator 5 view .LVU734
 2449 0024 3CBF     		itt	cc
 2450 0026 4FF44033 		movcc	r3, #196608
 2451 002a E363     		strcc	r3, [r4, #60]
 2452              	.LVL201:
 2453              	.L291:
 570:Model/stai_palm_detector.c ****                                                 STAI_ERROR_NETWORK_INVALID_CONTEXT_HANDLE);
 2454              		.loc 1 570 5 is_stmt 0 discriminator 1 view .LVU735
 2455 002c 4FF44030 		mov	r0, #196608
 2456              	.L289:
 576:Model/stai_palm_detector.c **** 
ARM GAS  C:\Users\DJESSOU\AppData\Local\Temp\ccruImXQ.s 			page 74


 577:Model/stai_palm_detector.c ****   if (nn_ctx->network_instance.exec_state.current_epoch_block == NULL)
 578:Model/stai_palm_detector.c ****   {
 579:Model/stai_palm_detector.c ****     __LL_ATON_STAI_SET_1ST_CTX_ERROR_AND_RETURN(nn_ctx, STAI_ERROR_NETWORK_INVALID_API_ARGUMENTS);
 580:Model/stai_palm_detector.c ****   }
 581:Model/stai_palm_detector.c **** 
 582:Model/stai_palm_detector.c ****   __LL_ATON_START_CONT_EXEC(&nn_ctx->network_instance);
 583:Model/stai_palm_detector.c **** }
 2457              		.loc 1 583 1 view .LVU736
 2458 0030 02B0     		add	sp, sp, #8
 2459              		.cfi_remember_state
 2460              		.cfi_def_cfa_offset 8
 2461              		@ sp needed
 2462 0032 10BD     		pop	{r4, pc}
 2463              	.LVL202:
 2464              	.L293:
 2465              		.cfi_restore_state
 575:Model/stai_palm_detector.c **** 
 2466              		.loc 1 575 3 is_stmt 1 discriminator 2 view .LVU737
 575:Model/stai_palm_detector.c **** 
 2467              		.loc 1 575 3 discriminator 2 view .LVU738
 577:Model/stai_palm_detector.c ****   {
 2468              		.loc 1 577 3 view .LVU739
 577:Model/stai_palm_detector.c ****   {
 2469              		.loc 1 577 42 is_stmt 0 view .LVU740
 2470 0034 6368     		ldr	r3, [r4, #4]
 577:Model/stai_palm_detector.c ****   {
 2471              		.loc 1 577 6 view .LVU741
 2472 0036 3BB9     		cbnz	r3, .L295
 579:Model/stai_palm_detector.c ****   }
 2473              		.loc 1 579 5 is_stmt 1 view .LVU742
 579:Model/stai_palm_detector.c ****   }
 2474              		.loc 1 579 5 view .LVU743
 579:Model/stai_palm_detector.c ****   }
 2475              		.loc 1 579 5 discriminator 2 view .LVU744
 2476 0038 E36B     		ldr	r3, [r4, #60]
 579:Model/stai_palm_detector.c ****   }
 2477              		.loc 1 579 5 is_stmt 0 discriminator 5 view .LVU745
 2478 003a 0A48     		ldr	r0, .L297+4
 2479              	.LVL203:
 579:Model/stai_palm_detector.c ****   }
 2480              		.loc 1 579 5 discriminator 2 view .LVU746
 2481 003c B3F5003F 		cmp	r3, #131072
 579:Model/stai_palm_detector.c ****   }
 2482              		.loc 1 579 5 is_stmt 1 discriminator 3 view .LVU747
 2483 0040 3CBF     		itt	cc
 2484 0042 084B     		ldrcc	r3, .L297+4
 2485 0044 E363     		strcc	r3, [r4, #60]
 2486 0046 F3E7     		b	.L289
 2487              	.LVL204:
 2488              	.L295:
 579:Model/stai_palm_detector.c ****   }
 2489              		.loc 1 579 5 view .LVU748
 582:Model/stai_palm_detector.c **** }
 2490              		.loc 1 582 3 view .LVU749
 2491              	.LBB68:
 582:Model/stai_palm_detector.c **** }
 2492              		.loc 1 582 3 view .LVU750
ARM GAS  C:\Users\DJESSOU\AppData\Local\Temp\ccruImXQ.s 			page 75


 582:Model/stai_palm_detector.c **** }
 2493              		.loc 1 582 3 view .LVU751
 582:Model/stai_palm_detector.c **** }
 2494              		.loc 1 582 3 view .LVU752
 582:Model/stai_palm_detector.c **** }
 2495              		.loc 1 582 3 view .LVU753
 582:Model/stai_palm_detector.c **** }
 2496              		.loc 1 582 3 view .LVU754
 582:Model/stai_palm_detector.c **** }
 2497              		.loc 1 582 3 view .LVU755
 2498 0048 2046     		mov	r0, r4
 2499              	.LVL205:
 582:Model/stai_palm_detector.c **** }
 2500              		.loc 1 582 3 is_stmt 0 view .LVU756
 2501 004a FFF7FEFF 		bl	LL_ATON_RT_RunEpochBlock
 2502              	.LVL206:
 582:Model/stai_palm_detector.c **** }
 2503              		.loc 1 582 3 discriminator 1 view .LVU757
 2504 004e 2146     		mov	r1, r4
 2505 0050 FFF7FEFF 		bl	__ll_aton_stai_set_execution_status
 2506              	.LVL207:
 582:Model/stai_palm_detector.c **** }
 2507              		.loc 1 582 3 is_stmt 1 discriminator 2 view .LVU758
 2508 0054 2046     		mov	r0, r4
 2509              	.LBE68:
 2510              		.loc 1 583 1 is_stmt 0 view .LVU759
 2511 0056 02B0     		add	sp, sp, #8
 2512              		.cfi_def_cfa_offset 8
 2513              		@ sp needed
 2514 0058 BDE81040 		pop	{r4, lr}
 2515              		.cfi_restore 14
 2516              		.cfi_restore 4
 2517              		.cfi_def_cfa_offset 0
 2518              	.LVL208:
 2519              	.LBB69:
 582:Model/stai_palm_detector.c **** }
 2520              		.loc 1 582 3 discriminator 2 view .LVU760
 2521 005c FFF7FEBF 		b	__ll_aton_stai_get_execution_status
 2522              	.LVL209:
 2523              	.L298:
 582:Model/stai_palm_detector.c **** }
 2524              		.loc 1 582 3 discriminator 2 view .LVU761
 2525              		.align	2
 2526              	.L297:
 2527 0060 00000000 		.word	NN_Interface_palm_detector
 2528 0064 01000200 		.word	131073
 2529              	.LBE69:
 2530              		.cfi_endproc
 2531              	.LFE324:
 2533              		.section	.text.stai_ext_palm_detector_get_nn_run_status,"ax",%progbits
 2534              		.align	1
 2535              		.global	stai_ext_palm_detector_get_nn_run_status
 2536              		.syntax unified
 2537              		.thumb
 2538              		.thumb_func
 2540              	stai_ext_palm_detector_get_nn_run_status:
 2541              	.LVL210:
ARM GAS  C:\Users\DJESSOU\AppData\Local\Temp\ccruImXQ.s 			page 76


 2542              	.LFB325:
 584:Model/stai_palm_detector.c **** 
 585:Model/stai_palm_detector.c **** STAI_API_ENTRY
 586:Model/stai_palm_detector.c **** stai_return_code stai_ext_palm_detector_get_nn_run_status(stai_network *network)
 587:Model/stai_palm_detector.c **** {
 2543              		.loc 1 587 1 is_stmt 1 view -0
 2544              		.cfi_startproc
 2545              		@ args = 0, pretend = 0, frame = 8
 2546              		@ frame_needed = 0, uses_anonymous_args = 0
 588:Model/stai_palm_detector.c ****   /* check context & network interface handle */
 589:Model/stai_palm_detector.c ****   __LL_ATON_STAI_ACQUIRE_INTERFACE(nn_i_ptr, network);
 2547              		.loc 1 589 3 view .LVU763
 2548 0000 0023     		movs	r3, #0
 587:Model/stai_palm_detector.c ****   /* check context & network interface handle */
 2549              		.loc 1 587 1 is_stmt 0 view .LVU764
 2550 0002 07B5     		push	{r0, r1, r2, lr}
 2551              		.cfi_def_cfa_offset 16
 2552              		.cfi_offset 14, -4
 2553              		.loc 1 589 3 view .LVU765
 2554 0004 01A9     		add	r1, sp, #4
 587:Model/stai_palm_detector.c ****   /* check context & network interface handle */
 2555              		.loc 1 587 1 view .LVU766
 2556 0006 0246     		mov	r2, r0
 2557              		.loc 1 589 3 view .LVU767
 2558 0008 0193     		str	r3, [sp, #4]
 2559              		.loc 1 589 3 is_stmt 1 view .LVU768
 2560 000a FFF7FEFF 		bl	__ll_aton_stai_check_context_network_handle.constprop.0
 2561              	.LVL211:
 2562              		.loc 1 589 3 discriminator 1 view .LVU769
 2563 000e B0F5003F 		cmp	r0, #131072
 2564 0012 0DD2     		bcs	.L299
 2565              		.loc 1 589 54 discriminator 2 view .LVU770
 590:Model/stai_palm_detector.c ****   __LL_ATON_STAI_CHECK_NETWORK_INTERFACE(nn_i_ptr, (_stai_aton_context *)network);
 2566              		.loc 1 590 3 view .LVU771
 2567              		.loc 1 590 3 view .LVU772
 2568 0014 0B4B     		ldr	r3, .L306
 2569 0016 0199     		ldr	r1, [sp, #4]
 2570 0018 9942     		cmp	r1, r3
 2571 001a 0CD0     		beq	.L301
 2572              		.loc 1 590 3 discriminator 1 view .LVU773
 2573              		.loc 1 590 3 discriminator 1 view .LVU774
 2574 001c 32B1     		cbz	r2, .L302
 2575              		.loc 1 590 3 discriminator 4 view .LVU775
 2576 001e D36B     		ldr	r3, [r2, #60]
 2577 0020 B3F5003F 		cmp	r3, #131072
 2578              		.loc 1 590 3 discriminator 5 view .LVU776
 2579 0024 3CBF     		itt	cc
 2580 0026 4FF44033 		movcc	r3, #196608
 2581 002a D363     		strcc	r3, [r2, #60]
 2582              	.L302:
 2583              		.loc 1 590 3 is_stmt 0 discriminator 3 view .LVU777
 2584 002c 4FF44030 		mov	r0, #196608
 2585              	.LVL212:
 2586              	.L299:
 591:Model/stai_palm_detector.c **** 
 592:Model/stai_palm_detector.c ****   /* get current execution status */
 593:Model/stai_palm_detector.c ****   STAI_ASSERT(network != NULL);
ARM GAS  C:\Users\DJESSOU\AppData\Local\Temp\ccruImXQ.s 			page 77


 594:Model/stai_palm_detector.c ****   _stai_aton_context *stai_nn_ctx =
 595:Model/stai_palm_detector.c ****       (_stai_aton_context *)((void *)network) - offsetof(_stai_aton_context, network_instance);
 596:Model/stai_palm_detector.c ****   stai_return_code current_exec_status = __ll_aton_stai_get_execution_status(stai_nn_ctx);
 597:Model/stai_palm_detector.c **** 
 598:Model/stai_palm_detector.c ****   return current_exec_status;
 599:Model/stai_palm_detector.c **** }
 2587              		.loc 1 599 1 view .LVU778
 2588 0030 03B0     		add	sp, sp, #12
 2589              		.cfi_remember_state
 2590              		.cfi_def_cfa_offset 4
 2591              		@ sp needed
 2592 0032 5DF804FB 		ldr	pc, [sp], #4
 2593              	.LVL213:
 2594              	.L301:
 2595              		.cfi_restore_state
 590:Model/stai_palm_detector.c ****   __LL_ATON_STAI_CHECK_NETWORK_INTERFACE(nn_i_ptr, (_stai_aton_context *)network);
 2596              		.loc 1 590 3 is_stmt 1 discriminator 2 view .LVU779
 590:Model/stai_palm_detector.c ****   __LL_ATON_STAI_CHECK_NETWORK_INTERFACE(nn_i_ptr, (_stai_aton_context *)network);
 2597              		.loc 1 590 3 discriminator 2 view .LVU780
 593:Model/stai_palm_detector.c ****   _stai_aton_context *stai_nn_ctx =
 2598              		.loc 1 593 3 view .LVU781
 593:Model/stai_palm_detector.c ****   _stai_aton_context *stai_nn_ctx =
 2599              		.loc 1 593 3 view .LVU782
 593:Model/stai_palm_detector.c ****   _stai_aton_context *stai_nn_ctx =
 2600              		.loc 1 593 3 view .LVU783
 593:Model/stai_palm_detector.c ****   _stai_aton_context *stai_nn_ctx =
 2601              		.loc 1 593 31 view .LVU784
 594:Model/stai_palm_detector.c ****       (_stai_aton_context *)((void *)network) - offsetof(_stai_aton_context, network_instance);
 2602              		.loc 1 594 3 view .LVU785
 596:Model/stai_palm_detector.c **** 
 2603              		.loc 1 596 3 view .LVU786
 596:Model/stai_palm_detector.c **** 
 2604              		.loc 1 596 42 is_stmt 0 view .LVU787
 2605 0036 1046     		mov	r0, r2
 2606              	.LVL214:
 2607              		.loc 1 599 1 view .LVU788
 2608 0038 03B0     		add	sp, sp, #12
 2609              		.cfi_def_cfa_offset 4
 2610              		@ sp needed
 2611 003a 5DF804EB 		ldr	lr, [sp], #4
 2612              		.cfi_restore 14
 2613              		.cfi_def_cfa_offset 0
 596:Model/stai_palm_detector.c **** 
 2614              		.loc 1 596 42 view .LVU789
 2615 003e FFF7FEBF 		b	__ll_aton_stai_get_execution_status
 2616              	.LVL215:
 2617              	.L307:
 596:Model/stai_palm_detector.c **** 
 2618              		.loc 1 596 42 view .LVU790
 2619 0042 00BF     		.align	2
 2620              	.L306:
 2621 0044 00000000 		.word	NN_Interface_palm_detector
 2622              		.cfi_endproc
 2623              	.LFE325:
 2625              		.section	.text.stai_ext_palm_detector_new_inference,"ax",%progbits
 2626              		.align	1
 2627              		.global	stai_ext_palm_detector_new_inference
ARM GAS  C:\Users\DJESSOU\AppData\Local\Temp\ccruImXQ.s 			page 78


 2628              		.syntax unified
 2629              		.thumb
 2630              		.thumb_func
 2632              	stai_ext_palm_detector_new_inference:
 2633              	.LVL216:
 2634              	.LFB326:
 600:Model/stai_palm_detector.c **** 
 601:Model/stai_palm_detector.c **** STAI_API_ENTRY
 602:Model/stai_palm_detector.c **** stai_return_code stai_ext_palm_detector_new_inference(stai_network *network)
 603:Model/stai_palm_detector.c **** {
 2635              		.loc 1 603 1 is_stmt 1 view -0
 2636              		.cfi_startproc
 2637              		@ args = 0, pretend = 0, frame = 0
 2638              		@ frame_needed = 0, uses_anonymous_args = 0
 2639              		@ link register save eliminated.
 604:Model/stai_palm_detector.c ****   return __ll_aton_stai_reset(network);
 2640              		.loc 1 604 3 view .LVU792
 2641              		.loc 1 604 10 is_stmt 0 view .LVU793
 2642 0000 FFF7FEBF 		b	__ll_aton_stai_reset
 2643              	.LVL217:
 2644              		.loc 1 604 10 view .LVU794
 2645              		.cfi_endproc
 2646              	.LFE326:
 2648              		.section	.rodata.__func__.0,"a"
 2651              	__func__.0:
 2652 0000 5F5F6C6C 		.ascii	"__ll_aton_stai_palm_detector_set_outputs_or_activat"
 2652      5F61746F 
 2652      6E5F7374 
 2652      61695F70 
 2652      616C6D5F 
 2653 0033 696F6E73 		.ascii	"ions\000"
 2653      00
 2654              		.section	.rodata.__func__.1,"a"
 2657              	__func__.1:
 2658 0000 5F5F6C6C 		.ascii	"__ll_aton_stai_palm_detector_set_inputs_or_weights\000"
 2658      5F61746F 
 2658      6E5F7374 
 2658      61695F70 
 2658      616C6D5F 
 2659              		.section	.rodata.__func__.2,"a"
 2662              	__func__.2:
 2663 0000 5F5F6C6C 		.ascii	"__ll_aton_stai_palm_detector_get_outputs_or_activat"
 2663      5F61746F 
 2663      6E5F7374 
 2663      61695F70 
 2663      616C6D5F 
 2664 0033 696F6E73 		.ascii	"ions\000"
 2664      00
 2665              		.section	.rodata.__func__.3,"a"
 2668              	__func__.3:
 2669 0000 5F5F6C6C 		.ascii	"__ll_aton_stai_palm_detector_get_inputs_or_weights\000"
 2669      5F61746F 
 2669      6E5F7374 
 2669      61695F70 
 2669      616C6D5F 
 2670              		.section	.rodata.str1.1,"aMS",%progbits,1
 2671              	.LC8:
ARM GAS  C:\Users\DJESSOU\AppData\Local\Temp\ccruImXQ.s 			page 79


 2672 0000 5472616E 		.ascii	"Transpose_1_out_0\000"
 2672      73706F73 
 2672      655F315F 
 2672      6F75745F 
 2672      3000
 2673              	.LC9:
 2674 0012 436F6E76 		.ascii	"Conv2D_7_zero_off_out_32\000"
 2674      32445F37 
 2674      5F7A6572 
 2674      6F5F6F66 
 2674      665F6F75 
 2675              	.LC10:
 2676 002b 436F6E76 		.ascii	"Conv2D_7_off_bias_out_38\000"
 2676      32445F37 
 2676      5F6F6666 
 2676      5F626961 
 2676      735F6F75 
 2677              	.LC11:
 2678 0044 5052654C 		.ascii	"PReLU_10_0_mul_x\000"
 2678      555F3130 
 2678      5F305F6D 
 2678      756C5F78 
 2678      00
 2679              	.LC12:
 2680 0055 5052654C 		.ascii	"PReLU_10_out_0\000"
 2680      555F3130 
 2680      5F6F7574 
 2680      5F3000
 2681              	.LC13:
 2682 0064 436F6E76 		.ascii	"Conv2D_11_off_bias_out_47\000"
 2682      32445F31 
 2682      315F6F66 
 2682      665F6269 
 2682      61735F6F 
 2683              	.LC14:
 2684 007e 436F6E76 		.ascii	"Conv2D_14_off_bias_out_56\000"
 2684      32445F31 
 2684      345F6F66 
 2684      665F6269 
 2684      61735F6F 
 2685              	.LC15:
 2686 0098 4164645F 		.ascii	"Add_17_out_0\000"
 2686      31375F6F 
 2686      75745F30 
 2686      00
 2687              	.LC16:
 2688 00a5 5052654C 		.ascii	"PReLU_20_1_mul_x_cp_in_257\000"
 2688      555F3230 
 2688      5F315F6D 
 2688      756C5F78 
 2688      5F63705F 
 2689              	.LC17:
 2690 00c0 5052654C 		.ascii	"PReLU_20_out_0\000"
 2690      555F3230 
 2690      5F6F7574 
 2690      5F3000
 2691              	.LC18:
ARM GAS  C:\Users\DJESSOU\AppData\Local\Temp\ccruImXQ.s 			page 80


 2692 00cf 436F6E76 		.ascii	"Conv2D_21_off_bias_out_65\000"
 2692      32445F32 
 2692      315F6F66 
 2692      665F6269 
 2692      61735F6F 
 2693              	.LC19:
 2694 00e9 436F6E76 		.ascii	"Conv2D_24_off_bias_out_74\000"
 2694      32445F32 
 2694      345F6F66 
 2694      665F6269 
 2694      61735F6F 
 2695              	.LC20:
 2696 0103 4164645F 		.ascii	"Add_27_out_0\000"
 2696      32375F6F 
 2696      75745F30 
 2696      00
 2697              	.LC21:
 2698 0110 5052654C 		.ascii	"PReLU_30_2_mul_x_cp_in_259\000"
 2698      555F3330 
 2698      5F325F6D 
 2698      756C5F78 
 2698      5F63705F 
 2699              	.LC22:
 2700 012b 5052654C 		.ascii	"PReLU_30_out_0\000"
 2700      555F3330 
 2700      5F6F7574 
 2700      5F3000
 2701              	.LC23:
 2702 013a 436F6E76 		.ascii	"Conv2D_31_off_bias_out_83\000"
 2702      32445F33 
 2702      315F6F66 
 2702      665F6269 
 2702      61735F6F 
 2703              	.LC24:
 2704 0154 436F6E76 		.ascii	"Conv2D_34_off_bias_out_92\000"
 2704      32445F33 
 2704      345F6F66 
 2704      665F6269 
 2704      61735F6F 
 2705              	.LC25:
 2706 016e 4164645F 		.ascii	"Add_37_out_0\000"
 2706      33375F6F 
 2706      75745F30 
 2706      00
 2707              	.LC26:
 2708 017b 5052654C 		.ascii	"PReLU_40_3_mul_x_cp_in_261\000"
 2708      555F3430 
 2708      5F335F6D 
 2708      756C5F78 
 2708      5F63705F 
 2709              	.LC27:
 2710 0196 5052654C 		.ascii	"PReLU_40_out_0\000"
 2710      555F3430 
 2710      5F6F7574 
 2710      5F3000
 2711              	.LC28:
 2712 01a5 436F6E76 		.ascii	"Conv2D_41_off_bias_out_101\000"
ARM GAS  C:\Users\DJESSOU\AppData\Local\Temp\ccruImXQ.s 			page 81


 2712      32445F34 
 2712      315F6F66 
 2712      665F6269 
 2712      61735F6F 
 2713              	.LC29:
 2714 01c0 436F6E76 		.ascii	"Conv2D_44_off_bias_out_110\000"
 2714      32445F34 
 2714      345F6F66 
 2714      665F6269 
 2714      61735F6F 
 2715              	.LC30:
 2716 01db 4164645F 		.ascii	"Add_47_out_0\000"
 2716      34375F6F 
 2716      75745F30 
 2716      00
 2717              	.LC31:
 2718 01e8 5052654C 		.ascii	"PReLU_50_4_mul_x_cp_in_263\000"
 2718      555F3530 
 2718      5F345F6D 
 2718      756C5F78 
 2718      5F63705F 
 2719              	.LC32:
 2720 0203 5052654C 		.ascii	"PReLU_50_out_0\000"
 2720      555F3530 
 2720      5F6F7574 
 2720      5F3000
 2721              	.LC33:
 2722 0212 4D617850 		.ascii	"MaxPool_51_out_0\000"
 2722      6F6F6C5F 
 2722      35315F6F 
 2722      75745F30 
 2722      00
 2723              	.LC34:
 2724 0223 5472616E 		.ascii	"Transpose_52_out_0\000"
 2724      73706F73 
 2724      655F3532 
 2724      5F6F7574 
 2724      5F3000
 2725              	.LC35:
 2726 0236 5061645F 		.ascii	"Pad_53_out_0\000"
 2726      35335F6F 
 2726      75745F30 
 2726      00
 2727              	.LC36:
 2728 0243 436F6E76 		.ascii	"Conv2D_55_off_bias_out_119\000"
 2728      32445F35 
 2728      355F6F66 
 2728      665F6269 
 2728      61735F6F 
 2729              	.LC37:
 2730 025e 436F6E76 		.ascii	"Conv2D_58_off_bias_out_128\000"
 2730      32445F35 
 2730      385F6F66 
 2730      665F6269 
 2730      61735F6F 
 2731              	.LC38:
 2732 0279 5472616E 		.ascii	"Transpose_54_out_0\000"
ARM GAS  C:\Users\DJESSOU\AppData\Local\Temp\ccruImXQ.s 			page 82


 2732      73706F73 
 2732      655F3534 
 2732      5F6F7574 
 2732      5F3000
 2733              	.LC39:
 2734 028c 4164645F 		.ascii	"Add_61_out_0\000"
 2734      36315F6F 
 2734      75745F30 
 2734      00
 2735              	.LC40:
 2736 0299 5052654C 		.ascii	"PReLU_64_5_mul_x_cp_in_266\000"
 2736      555F3634 
 2736      5F355F6D 
 2736      756C5F78 
 2736      5F63705F 
 2737              	.LC41:
 2738 02b4 5052654C 		.ascii	"PReLU_64_out_0\000"
 2738      555F3634 
 2738      5F6F7574 
 2738      5F3000
 2739              	.LC42:
 2740 02c3 5F5F5F5F 		.ascii	"____1639\000"
 2740      31363339 
 2740      00
 2741              	.LC43:
 2742 02cc 436F6E76 		.ascii	"Conv2D_65_off_bias_out_137\000"
 2742      32445F36 
 2742      355F6F66 
 2742      665F6269 
 2742      61735F6F 
 2743              	.LC44:
 2744 02e7 436F6E76 		.ascii	"Conv2D_68_off_bias_out_146\000"
 2744      32445F36 
 2744      385F6F66 
 2744      665F6269 
 2744      61735F6F 
 2745              	.LC45:
 2746 0302 4164645F 		.ascii	"Add_71_out_0\000"
 2746      37315F6F 
 2746      75745F30 
 2746      00
 2747              	.LC46:
 2748 030f 5052654C 		.ascii	"PReLU_74_6_mul_x_cp_in_270\000"
 2748      555F3734 
 2748      5F365F6D 
 2748      756C5F78 
 2748      5F63705F 
 2749              	.LC47:
 2750 032a 5052654C 		.ascii	"PReLU_74_out_0\000"
 2750      555F3734 
 2750      5F6F7574 
 2750      5F3000
 2751              	.LC48:
 2752 0339 5F5F5F5F 		.ascii	"____1646\000"
 2752      31363436 
 2752      00
 2753              	.LC49:
ARM GAS  C:\Users\DJESSOU\AppData\Local\Temp\ccruImXQ.s 			page 83


 2754 0342 436F6E76 		.ascii	"Conv2D_75_off_bias_out_155\000"
 2754      32445F37 
 2754      355F6F66 
 2754      665F6269 
 2754      61735F6F 
 2755              	.LC50:
 2756 035d 436F6E76 		.ascii	"Conv2D_78_off_bias_out_161\000"
 2756      32445F37 
 2756      385F6F66 
 2756      665F6269 
 2756      61735F6F 
 2757              	.LC51:
 2758 0378 4164645F 		.ascii	"Add_81_out_0\000"
 2758      38315F6F 
 2758      75745F30 
 2758      00
 2759              	.LC52:
 2760 0385 5052654C 		.ascii	"PReLU_84_7_mul_x_cp_in_274\000"
 2760      555F3834 
 2760      5F375F6D 
 2760      756C5F78 
 2760      5F63705F 
 2761              	.LC53:
 2762 03a0 5052654C 		.ascii	"PReLU_84_out_0\000"
 2762      555F3834 
 2762      5F6F7574 
 2762      5F3000
 2763              	.LC54:
 2764 03af 5F5F5F5F 		.ascii	"____1653\000"
 2764      31363533 
 2764      00
 2765              	.LC55:
 2766 03b8 436F6E76 		.ascii	"Conv2D_85_off_bias_out_170\000"
 2766      32445F38 
 2766      355F6F66 
 2766      665F6269 
 2766      61735F6F 
 2767              	.LC56:
 2768 03d3 436F6E76 		.ascii	"Conv2D_88_off_bias_out_179\000"
 2768      32445F38 
 2768      385F6F66 
 2768      665F6269 
 2768      61735F6F 
 2769              	.LC57:
 2770 03ee 4164645F 		.ascii	"Add_91_out_0\000"
 2770      39315F6F 
 2770      75745F30 
 2770      00
 2771              	.LC58:
 2772 03fb 5052654C 		.ascii	"PReLU_94_8_mul_x_cp_in_278\000"
 2772      555F3934 
 2772      5F385F6D 
 2772      756C5F78 
 2772      5F63705F 
 2773              	.LC59:
 2774 0416 5052654C 		.ascii	"PReLU_94_out_0\000"
 2774      555F3934 
ARM GAS  C:\Users\DJESSOU\AppData\Local\Temp\ccruImXQ.s 			page 84


 2774      5F6F7574 
 2774      5F3000
 2775              	.LC60:
 2776 0425 5F5F5F5F 		.ascii	"____1660\000"
 2776      31363630 
 2776      00
 2777              	.LC61:
 2778 042e 436F6E76 		.ascii	"Conv2D_95_off_bias_out_188\000"
 2778      32445F39 
 2778      355F6F66 
 2778      665F6269 
 2778      61735F6F 
 2779              	.LC62:
 2780 0449 436F6E76 		.ascii	"Conv2D_98_off_bias_out_197\000"
 2780      32445F39 
 2780      385F6F66 
 2780      665F6269 
 2780      61735F6F 
 2781              	.LC63:
 2782 0464 4164645F 		.ascii	"Add_101_out_0\000"
 2782      3130315F 
 2782      6F75745F 
 2782      3000
 2783              	.LC64:
 2784 0472 5052654C 		.ascii	"PReLU_104_9_mul_x_cp_in_282\000"
 2784      555F3130 
 2784      345F395F 
 2784      6D756C5F 
 2784      785F6370 
 2785              	.LC65:
 2786 048e 5052654C 		.ascii	"PReLU_104_out_0\000"
 2786      555F3130 
 2786      345F6F75 
 2786      745F3000 
 2787              	.LC66:
 2788 049e 5F5F5F5F 		.ascii	"____1667\000"
 2788      31363637 
 2788      00
 2789              	.LC67:
 2790 04a7 436F6E76 		.ascii	"Conv2D_109_off_bias_out_206\000"
 2790      32445F31 
 2790      30395F6F 
 2790      66665F62 
 2790      6961735F 
 2791              	.LC68:
 2792 04c3 436F6E76 		.ascii	"Conv2D_112_off_bias_out_215\000"
 2792      32445F31 
 2792      31325F6F 
 2792      66665F62 
 2792      6961735F 
 2793              	.LC69:
 2794 04df 4D617850 		.ascii	"MaxPool_105_out_0\000"
 2794      6F6F6C5F 
 2794      3130355F 
 2794      6F75745F 
 2794      3000
 2795              	.LC70:
ARM GAS  C:\Users\DJESSOU\AppData\Local\Temp\ccruImXQ.s 			page 85


 2796 04f1 5472616E 		.ascii	"Transpose_106_out_0\000"
 2796      73706F73 
 2796      655F3130 
 2796      365F6F75 
 2796      745F3000 
 2797              	.LC71:
 2798 0505 5061645F 		.ascii	"Pad_107_out_0\000"
 2798      3130375F 
 2798      6F75745F 
 2798      3000
 2799              	.LC72:
 2800 0513 5472616E 		.ascii	"Transpose_108_out_0\000"
 2800      73706F73 
 2800      655F3130 
 2800      385F6F75 
 2800      745F3000 
 2801              	.LC73:
 2802 0527 4164645F 		.ascii	"Add_115_out_0\000"
 2802      3131355F 
 2802      6F75745F 
 2802      3000
 2803              	.LC74:
 2804 0535 5052654C 		.ascii	"PReLU_118_10_mul_x_cp_in_287\000"
 2804      555F3131 
 2804      385F3130 
 2804      5F6D756C 
 2804      5F785F63 
 2805              	.LC75:
 2806 0552 5052654C 		.ascii	"PReLU_118_out_0\000"
 2806      555F3131 
 2806      385F6F75 
 2806      745F3000 
 2807              	.LC76:
 2808 0562 5F5F5F5F 		.ascii	"____1674\000"
 2808      31363734 
 2808      00
 2809              	.LC77:
 2810 056b 436F6E76 		.ascii	"Conv2D_119_off_bias_out_224\000"
 2810      32445F31 
 2810      31395F6F 
 2810      66665F62 
 2810      6961735F 
 2811              	.LC78:
 2812 0587 436F6E76 		.ascii	"Conv2D_122_out_0_cp_in_288_cp_in_289_cp_in_290\000"
 2812      32445F31 
 2812      32325F6F 
 2812      75745F30 
 2812      5F63705F 
 2813              	.LC79:
 2814 05b6 436F6E76 		.ascii	"Conv2D_122_off_bias_out_233\000"
 2814      32445F31 
 2814      32325F6F 
 2814      66665F62 
 2814      6961735F 
 2815              	.LC80:
 2816 05d2 4164645F 		.ascii	"Add_125_out_0\000"
 2816      3132355F 
ARM GAS  C:\Users\DJESSOU\AppData\Local\Temp\ccruImXQ.s 			page 86


 2816      6F75745F 
 2816      3000
 2817              	.LC81:
 2818 05e0 5052654C 		.ascii	"PReLU_128_11_mul_x_cp_in_291\000"
 2818      555F3132 
 2818      385F3131 
 2818      5F6D756C 
 2818      5F785F63 
 2819              	.LC82:
 2820 05fd 5052654C 		.ascii	"PReLU_128_out_0\000"
 2820      555F3132 
 2820      385F6F75 
 2820      745F3000 
 2821              	.LC83:
 2822 060d 5F5F5F5F 		.ascii	"____1681\000"
 2822      31363831 
 2822      00
 2823              	.LC84:
 2824 0616 436F6E76 		.ascii	"Conv2D_129_off_bias_out_242\000"
 2824      32445F31 
 2824      32395F6F 
 2824      66665F62 
 2824      6961735F 
 2825              	.LC85:
 2826 0632 436F6E76 		.ascii	"Conv2D_132_out_0_cp_in_292_cp_in_293_cp_in_294\000"
 2826      32445F31 
 2826      33325F6F 
 2826      75745F30 
 2826      5F63705F 
 2827              	.LC86:
 2828 0661 436F6E76 		.ascii	"Conv2D_132_off_bias_out_251\000"
 2828      32445F31 
 2828      33325F6F 
 2828      66665F62 
 2828      6961735F 
 2829              	.LC87:
 2830 067d 4164645F 		.ascii	"Add_135_out_0\000"
 2830      3133355F 
 2830      6F75745F 
 2830      3000
 2831              	.LC88:
 2832 068b 5052654C 		.ascii	"PReLU_138_12_mul_x_cp_in_295\000"
 2832      555F3133 
 2832      385F3132 
 2832      5F6D756C 
 2832      5F785F63 
 2833              	.LC89:
 2834 06a8 5052654C 		.ascii	"PReLU_138_out_0\000"
 2834      555F3133 
 2834      385F6F75 
 2834      745F3000 
 2835              	.LC90:
 2836 06b8 5F5F5F5F 		.ascii	"____1688\000"
 2836      31363838 
 2836      00
 2837              	.LC91:
 2838 06c1 436F6E76 		.ascii	"Conv2D_139_off_bias_out_260\000"
ARM GAS  C:\Users\DJESSOU\AppData\Local\Temp\ccruImXQ.s 			page 87


 2838      32445F31 
 2838      33395F6F 
 2838      66665F62 
 2838      6961735F 
 2839              	.LC92:
 2840 06dd 436F6E76 		.ascii	"Conv2D_142_out_0_cp_in_296_cp_in_297_cp_in_298\000"
 2840      32445F31 
 2840      34325F6F 
 2840      75745F30 
 2840      5F63705F 
 2841              	.LC93:
 2842 070c 436F6E76 		.ascii	"Conv2D_142_off_bias_out_269\000"
 2842      32445F31 
 2842      34325F6F 
 2842      66665F62 
 2842      6961735F 
 2843              	.LC94:
 2844 0728 4164645F 		.ascii	"Add_145_out_0\000"
 2844      3134355F 
 2844      6F75745F 
 2844      3000
 2845              	.LC95:
 2846 0736 5052654C 		.ascii	"PReLU_148_13_mul_x_cp_in_299\000"
 2846      555F3134 
 2846      385F3133 
 2846      5F6D756C 
 2846      5F785F63 
 2847              	.LC96:
 2848 0753 5052654C 		.ascii	"PReLU_148_out_0\000"
 2848      555F3134 
 2848      385F6F75 
 2848      745F3000 
 2849              	.LC97:
 2850 0763 5F5F5F5F 		.ascii	"____1695\000"
 2850      31363935 
 2850      00
 2851              	.LC98:
 2852 076c 436F6E76 		.ascii	"Conv2D_149_off_bias_out_278\000"
 2852      32445F31 
 2852      34395F6F 
 2852      66665F62 
 2852      6961735F 
 2853              	.LC99:
 2854 0788 436F6E76 		.ascii	"Conv2D_152_out_0_cp_in_300_cp_in_301_cp_in_302\000"
 2854      32445F31 
 2854      35325F6F 
 2854      75745F30 
 2854      5F63705F 
 2855              	.LC100:
 2856 07b7 436F6E76 		.ascii	"Conv2D_152_off_bias_out_287\000"
 2856      32445F31 
 2856      35325F6F 
 2856      66665F62 
 2856      6961735F 
 2857              	.LC101:
 2858 07d3 4164645F 		.ascii	"Add_155_out_0\000"
 2858      3135355F 
ARM GAS  C:\Users\DJESSOU\AppData\Local\Temp\ccruImXQ.s 			page 88


 2858      6F75745F 
 2858      3000
 2859              	.LC102:
 2860 07e1 5052654C 		.ascii	"PReLU_158_14_mul_x_cp_in_303\000"
 2860      555F3135 
 2860      385F3134 
 2860      5F6D756C 
 2860      5F785F63 
 2861              	.LC103:
 2862 07fe 5052654C 		.ascii	"PReLU_158_out_0\000"
 2862      555F3135 
 2862      385F6F75 
 2862      745F3000 
 2863              	.LC104:
 2864 080e 5F5F5F5F 		.ascii	"____1702\000"
 2864      31373032 
 2864      00
 2865              	.LC105:
 2866 0817 436F6E76 		.ascii	"Conv2D_163_off_bias_out_296\000"
 2866      32445F31 
 2866      36335F6F 
 2866      66665F62 
 2866      6961735F 
 2867              	.LC106:
 2868 0833 436F6E76 		.ascii	"Conv2D_166_out_0_cp_in_305_cp_in_306_cp_in_307\000"
 2868      32445F31 
 2868      36365F6F 
 2868      75745F30 
 2868      5F63705F 
 2869              	.LC107:
 2870 0862 436F6E76 		.ascii	"Conv2D_166_off_bias_out_305\000"
 2870      32445F31 
 2870      36365F6F 
 2870      66665F62 
 2870      6961735F 
 2871              	.LC108:
 2872 087e 4D617850 		.ascii	"MaxPool_159_out_0\000"
 2872      6F6F6C5F 
 2872      3135395F 
 2872      6F75745F 
 2872      3000
 2873              	.LC109:
 2874 0890 5472616E 		.ascii	"Transpose_160_out_0\000"
 2874      73706F73 
 2874      655F3136 
 2874      305F6F75 
 2874      745F3000 
 2875              	.LC110:
 2876 08a4 5061645F 		.ascii	"Pad_161_out_0\000"
 2876      3136315F 
 2876      6F75745F 
 2876      3000
 2877              	.LC111:
 2878 08b2 5472616E 		.ascii	"Transpose_162_out_0\000"
 2878      73706F73 
 2878      655F3136 
 2878      325F6F75 
ARM GAS  C:\Users\DJESSOU\AppData\Local\Temp\ccruImXQ.s 			page 89


 2878      745F3000 
 2879              	.LC112:
 2880 08c6 4164645F 		.ascii	"Add_169_out_0\000"
 2880      3136395F 
 2880      6F75745F 
 2880      3000
 2881              	.LC113:
 2882 08d4 5052654C 		.ascii	"PReLU_172_15_mul_x_cp_in_308\000"
 2882      555F3137 
 2882      325F3135 
 2882      5F6D756C 
 2882      5F785F63 
 2883              	.LC114:
 2884 08f1 5052654C 		.ascii	"PReLU_172_out_0\000"
 2884      555F3137 
 2884      325F6F75 
 2884      745F3000 
 2885              	.LC115:
 2886 0901 5F5F5F5F 		.ascii	"____1709\000"
 2886      31373039 
 2886      00
 2887              	.LC116:
 2888 090a 436F6E76 		.ascii	"Conv2D_173_off_bias_out_314\000"
 2888      32445F31 
 2888      37335F6F 
 2888      66665F62 
 2888      6961735F 
 2889              	.LC117:
 2890 0926 436F6E76 		.ascii	"Conv2D_176_off_bias_out_320\000"
 2890      32445F31 
 2890      37365F6F 
 2890      66665F62 
 2890      6961735F 
 2891              	.LC118:
 2892 0942 4164645F 		.ascii	"Add_179_out_0\000"
 2892      3137395F 
 2892      6F75745F 
 2892      3000
 2893              	.LC119:
 2894 0950 5052654C 		.ascii	"PReLU_182_16_mul_x_cp_in_310\000"
 2894      555F3138 
 2894      325F3136 
 2894      5F6D756C 
 2894      5F785F63 
 2895              	.LC120:
 2896 096d 5052654C 		.ascii	"PReLU_182_out_0\000"
 2896      555F3138 
 2896      325F6F75 
 2896      745F3000 
 2897              	.LC121:
 2898 097d 5F5F5F5F 		.ascii	"____1716\000"
 2898      31373136 
 2898      00
 2899              	.LC122:
 2900 0986 436F6E76 		.ascii	"Conv2D_183_off_bias_out_329\000"
 2900      32445F31 
 2900      38335F6F 
ARM GAS  C:\Users\DJESSOU\AppData\Local\Temp\ccruImXQ.s 			page 90


 2900      66665F62 
 2900      6961735F 
 2901              	.LC123:
 2902 09a2 436F6E76 		.ascii	"Conv2D_186_out_0_cp_in_311_cp_in_312_cp_in_313\000"
 2902      32445F31 
 2902      38365F6F 
 2902      75745F30 
 2902      5F63705F 
 2903              	.LC124:
 2904 09d1 436F6E76 		.ascii	"Conv2D_186_off_bias_out_338\000"
 2904      32445F31 
 2904      38365F6F 
 2904      66665F62 
 2904      6961735F 
 2905              	.LC125:
 2906 09ed 4164645F 		.ascii	"Add_189_out_0\000"
 2906      3138395F 
 2906      6F75745F 
 2906      3000
 2907              	.LC126:
 2908 09fb 5052654C 		.ascii	"PReLU_192_17_mul_x_cp_in_314\000"
 2908      555F3139 
 2908      325F3137 
 2908      5F6D756C 
 2908      5F785F63 
 2909              	.LC127:
 2910 0a18 5052654C 		.ascii	"PReLU_192_out_0\000"
 2910      555F3139 
 2910      325F6F75 
 2910      745F3000 
 2911              	.LC128:
 2912 0a28 5F5F5F5F 		.ascii	"____1723\000"
 2912      31373233 
 2912      00
 2913              	.LC129:
 2914 0a31 436F6E76 		.ascii	"Conv2D_193_off_bias_out_347\000"
 2914      32445F31 
 2914      39335F6F 
 2914      66665F62 
 2914      6961735F 
 2915              	.LC130:
 2916 0a4d 436F6E76 		.ascii	"Conv2D_196_out_0_cp_in_315_cp_in_316_cp_in_317\000"
 2916      32445F31 
 2916      39365F6F 
 2916      75745F30 
 2916      5F63705F 
 2917              	.LC131:
 2918 0a7c 436F6E76 		.ascii	"Conv2D_196_off_bias_out_356\000"
 2918      32445F31 
 2918      39365F6F 
 2918      66665F62 
 2918      6961735F 
 2919              	.LC132:
 2920 0a98 4164645F 		.ascii	"Add_199_out_0\000"
 2920      3139395F 
 2920      6F75745F 
 2920      3000
ARM GAS  C:\Users\DJESSOU\AppData\Local\Temp\ccruImXQ.s 			page 91


 2921              	.LC133:
 2922 0aa6 5052654C 		.ascii	"PReLU_202_18_mul_x_cp_in_318\000"
 2922      555F3230 
 2922      325F3138 
 2922      5F6D756C 
 2922      5F785F63 
 2923              	.LC134:
 2924 0ac3 5052654C 		.ascii	"PReLU_202_out_0\000"
 2924      555F3230 
 2924      325F6F75 
 2924      745F3000 
 2925              	.LC135:
 2926 0ad3 5F5F5F5F 		.ascii	"____1730\000"
 2926      31373330 
 2926      00
 2927              	.LC136:
 2928 0adc 436F6E76 		.ascii	"Conv2D_203_off_bias_out_365\000"
 2928      32445F32 
 2928      30335F6F 
 2928      66665F62 
 2928      6961735F 
 2929              	.LC137:
 2930 0af8 436F6E76 		.ascii	"Conv2D_206_out_0_cp_in_319_cp_in_320_cp_in_321\000"
 2930      32445F32 
 2930      30365F6F 
 2930      75745F30 
 2930      5F63705F 
 2931              	.LC138:
 2932 0b27 436F6E76 		.ascii	"Conv2D_206_off_bias_out_374\000"
 2932      32445F32 
 2932      30365F6F 
 2932      66665F62 
 2932      6961735F 
 2933              	.LC139:
 2934 0b43 4164645F 		.ascii	"Add_209_out_0\000"
 2934      3230395F 
 2934      6F75745F 
 2934      3000
 2935              	.LC140:
 2936 0b51 5052654C 		.ascii	"PReLU_212_19_mul_x_cp_in_322\000"
 2936      555F3231 
 2936      325F3139 
 2936      5F6D756C 
 2936      5F785F63 
 2937              	.LC141:
 2938 0b6e 5052654C 		.ascii	"PReLU_212_out_0\000"
 2938      555F3231 
 2938      325F6F75 
 2938      745F3000 
 2939              	.LC142:
 2940 0b7e 5F5F5F5F 		.ascii	"____1737\000"
 2940      31373337 
 2940      00
 2941              	.LC143:
 2942 0b87 436F6E76 		.ascii	"Conv2D_214_off_bias_out_383\000"
 2942      32445F32 
 2942      31345F6F 
ARM GAS  C:\Users\DJESSOU\AppData\Local\Temp\ccruImXQ.s 			page 92


 2942      66665F62 
 2942      6961735F 
 2943              	.LC144:
 2944 0ba3 436F6E76 		.ascii	"Conv2D_217_out_0_cp_in_323_cp_in_324_cp_in_325\000"
 2944      32445F32 
 2944      31375F6F 
 2944      75745F30 
 2944      5F63705F 
 2945              	.LC145:
 2946 0bd2 436F6E76 		.ascii	"Conv2D_217_off_bias_out_392\000"
 2946      32445F32 
 2946      31375F6F 
 2946      66665F62 
 2946      6961735F 
 2947              	.LC146:
 2948 0bee 4D617850 		.ascii	"MaxPool_213_out_0\000"
 2948      6F6F6C5F 
 2948      3231335F 
 2948      6F75745F 
 2948      3000
 2949              	.LC147:
 2950 0c00 4164645F 		.ascii	"Add_220_out_0\000"
 2950      3232305F 
 2950      6F75745F 
 2950      3000
 2951              	.LC148:
 2952 0c0e 5052654C 		.ascii	"PReLU_223_20_mul_x_cp_in_326\000"
 2952      555F3232 
 2952      335F3230 
 2952      5F6D756C 
 2952      5F785F63 
 2953              	.LC149:
 2954 0c2b 5052654C 		.ascii	"PReLU_223_out_0\000"
 2954      555F3232 
 2954      335F6F75 
 2954      745F3000 
 2955              	.LC150:
 2956 0c3b 5F5F5F5F 		.ascii	"____1744\000"
 2956      31373434 
 2956      00
 2957              	.LC151:
 2958 0c44 436F6E76 		.ascii	"Conv2D_224_off_bias_out_398\000"
 2958      32445F32 
 2958      32345F6F 
 2958      66665F62 
 2958      6961735F 
 2959              	.LC152:
 2960 0c60 436F6E76 		.ascii	"Conv2D_227_out_0_cp_in_327_cp_in_328_cp_in_329\000"
 2960      32445F32 
 2960      32375F6F 
 2960      75745F30 
 2960      5F63705F 
 2961              	.LC153:
 2962 0c8f 436F6E76 		.ascii	"Conv2D_227_off_bias_out_407\000"
 2962      32445F32 
 2962      32375F6F 
 2962      66665F62 
ARM GAS  C:\Users\DJESSOU\AppData\Local\Temp\ccruImXQ.s 			page 93


 2962      6961735F 
 2963              	.LC154:
 2964 0cab 4164645F 		.ascii	"Add_230_out_0\000"
 2964      3233305F 
 2964      6F75745F 
 2964      3000
 2965              	.LC155:
 2966 0cb9 5052654C 		.ascii	"PReLU_233_21_mul_x_cp_in_330\000"
 2966      555F3233 
 2966      335F3231 
 2966      5F6D756C 
 2966      5F785F63 
 2967              	.LC156:
 2968 0cd6 5052654C 		.ascii	"PReLU_233_out_0\000"
 2968      555F3233 
 2968      335F6F75 
 2968      745F3000 
 2969              	.LC157:
 2970 0ce6 5F5F5F5F 		.ascii	"____1751\000"
 2970      31373531 
 2970      00
 2971              	.LC158:
 2972 0cef 436F6E76 		.ascii	"Conv2D_234_off_bias_out_416\000"
 2972      32445F32 
 2972      33345F6F 
 2972      66665F62 
 2972      6961735F 
 2973              	.LC159:
 2974 0d0b 436F6E76 		.ascii	"Conv2D_237_out_0_cp_in_331_cp_in_332_cp_in_333\000"
 2974      32445F32 
 2974      33375F6F 
 2974      75745F30 
 2974      5F63705F 
 2975              	.LC160:
 2976 0d3a 436F6E76 		.ascii	"Conv2D_237_off_bias_out_425\000"
 2976      32445F32 
 2976      33375F6F 
 2976      66665F62 
 2976      6961735F 
 2977              	.LC161:
 2978 0d56 4164645F 		.ascii	"Add_240_out_0\000"
 2978      3234305F 
 2978      6F75745F 
 2978      3000
 2979              	.LC162:
 2980 0d64 5052654C 		.ascii	"PReLU_243_22_mul_x_cp_in_334\000"
 2980      555F3234 
 2980      335F3232 
 2980      5F6D756C 
 2980      5F785F63 
 2981              	.LC163:
 2982 0d81 5052654C 		.ascii	"PReLU_243_out_0\000"
 2982      555F3234 
 2982      335F6F75 
 2982      745F3000 
 2983              	.LC164:
 2984 0d91 5F5F5F5F 		.ascii	"____1758\000"
ARM GAS  C:\Users\DJESSOU\AppData\Local\Temp\ccruImXQ.s 			page 94


 2984      31373538 
 2984      00
 2985              	.LC165:
 2986 0d9a 436F6E76 		.ascii	"Conv2D_244_off_bias_out_434\000"
 2986      32445F32 
 2986      34345F6F 
 2986      66665F62 
 2986      6961735F 
 2987              	.LC166:
 2988 0db6 436F6E76 		.ascii	"Conv2D_247_out_0_cp_in_335_cp_in_336_cp_in_337\000"
 2988      32445F32 
 2988      34375F6F 
 2988      75745F30 
 2988      5F63705F 
 2989              	.LC167:
 2990 0de5 436F6E76 		.ascii	"Conv2D_247_off_bias_out_443\000"
 2990      32445F32 
 2990      34375F6F 
 2990      66665F62 
 2990      6961735F 
 2991              	.LC168:
 2992 0e01 4164645F 		.ascii	"Add_250_out_0\000"
 2992      3235305F 
 2992      6F75745F 
 2992      3000
 2993              	.LC169:
 2994 0e0f 5052654C 		.ascii	"PReLU_253_23_mul_x_cp_in_338\000"
 2994      555F3235 
 2994      335F3233 
 2994      5F6D756C 
 2994      5F785F63 
 2995              	.LC170:
 2996 0e2c 5052654C 		.ascii	"PReLU_253_out_0\000"
 2996      555F3235 
 2996      335F6F75 
 2996      745F3000 
 2997              	.LC171:
 2998 0e3c 5F5F5F5F 		.ascii	"____1765\000"
 2998      31373635 
 2998      00
 2999              	.LC172:
 3000 0e45 436F6E76 		.ascii	"Conv2D_254_off_bias_out_452\000"
 3000      32445F32 
 3000      35345F6F 
 3000      66665F62 
 3000      6961735F 
 3001              	.LC173:
 3002 0e61 436F6E76 		.ascii	"Conv2D_257_out_0_cp_in_339_cp_in_340_cp_in_341\000"
 3002      32445F32 
 3002      35375F6F 
 3002      75745F30 
 3002      5F63705F 
 3003              	.LC174:
 3004 0e90 436F6E76 		.ascii	"Conv2D_257_off_bias_out_461\000"
 3004      32445F32 
 3004      35375F6F 
 3004      66665F62 
ARM GAS  C:\Users\DJESSOU\AppData\Local\Temp\ccruImXQ.s 			page 95


 3004      6961735F 
 3005              	.LC175:
 3006 0eac 4164645F 		.ascii	"Add_260_out_0\000"
 3006      3236305F 
 3006      6F75745F 
 3006      3000
 3007              	.LC176:
 3008 0eba 5052654C 		.ascii	"PReLU_263_24_mul_x_cp_in_342\000"
 3008      555F3236 
 3008      335F3234 
 3008      5F6D756C 
 3008      5F785F63 
 3009              	.LC177:
 3010 0ed7 5052654C 		.ascii	"PReLU_263_out_0\000"
 3010      555F3236 
 3010      335F6F75 
 3010      745F3000 
 3011              	.LC178:
 3012 0ee7 52657369 		.ascii	"Resize_264_out_0\000"
 3012      7A655F32 
 3012      36345F6F 
 3012      75745F30 
 3012      00
 3013              	.LC179:
 3014 0ef8 436F6E76 		.ascii	"Conv2D_265_out_0_cp_in_343_cp_in_344_cp_in_345\000"
 3014      32445F32 
 3014      36355F6F 
 3014      75745F30 
 3014      5F63705F 
 3015              	.LC180:
 3016 0f27 436F6E76 		.ascii	"Conv2D_265_off_bias_out_470\000"
 3016      32445F32 
 3016      36355F6F 
 3016      66665F62 
 3016      6961735F 
 3017              	.LC181:
 3018 0f43 5052654C 		.ascii	"PReLU_268_25_mul_x_cp_in_346\000"
 3018      555F3236 
 3018      385F3235 
 3018      5F6D756C 
 3018      5F785F63 
 3019              	.LC182:
 3020 0f60 5052654C 		.ascii	"PReLU_268_out_0\000"
 3020      555F3236 
 3020      385F6F75 
 3020      745F3000 
 3021              	.LC183:
 3022 0f70 4164645F 		.ascii	"Add_269_out_0\000"
 3022      3236395F 
 3022      6F75745F 
 3022      3000
 3023              	.LC184:
 3024 0f7e 5F5F5F5F 		.ascii	"____1772\000"
 3024      31373732 
 3024      00
 3025              	.LC185:
 3026 0f87 436F6E76 		.ascii	"Conv2D_272_off_bias_out_479\000"
ARM GAS  C:\Users\DJESSOU\AppData\Local\Temp\ccruImXQ.s 			page 96


 3026      32445F32 
 3026      37325F6F 
 3026      66665F62 
 3026      6961735F 
 3027              	.LC186:
 3028 0fa3 436F6E76 		.ascii	"Conv2D_275_out_0_cp_in_347_cp_in_348_cp_in_349\000"
 3028      32445F32 
 3028      37355F6F 
 3028      75745F30 
 3028      5F63705F 
 3029              	.LC187:
 3030 0fd2 436F6E76 		.ascii	"Conv2D_275_off_bias_out_488\000"
 3030      32445F32 
 3030      37355F6F 
 3030      66665F62 
 3030      6961735F 
 3031              	.LC188:
 3032 0fee 4164645F 		.ascii	"Add_278_out_0\000"
 3032      3237385F 
 3032      6F75745F 
 3032      3000
 3033              	.LC189:
 3034 0ffc 5052654C 		.ascii	"PReLU_281_26_mul_x_cp_in_350\000"
 3034      555F3238 
 3034      315F3236 
 3034      5F6D756C 
 3034      5F785F63 
 3035              	.LC190:
 3036 1019 5052654C 		.ascii	"PReLU_281_out_0\000"
 3036      555F3238 
 3036      315F6F75 
 3036      745F3000 
 3037              	.LC191:
 3038 1029 5F5F5F5F 		.ascii	"____1779\000"
 3038      31373739 
 3038      00
 3039              	.LC192:
 3040 1032 436F6E76 		.ascii	"Conv2D_282_off_bias_out_497\000"
 3040      32445F32 
 3040      38325F6F 
 3040      66665F62 
 3040      6961735F 
 3041              	.LC193:
 3042 104e 436F6E76 		.ascii	"Conv2D_285_out_0_cp_in_351_cp_in_352_cp_in_353\000"
 3042      32445F32 
 3042      38355F6F 
 3042      75745F30 
 3042      5F63705F 
 3043              	.LC194:
 3044 107d 436F6E76 		.ascii	"Conv2D_285_off_bias_out_506\000"
 3044      32445F32 
 3044      38355F6F 
 3044      66665F62 
 3044      6961735F 
 3045              	.LC195:
 3046 1099 4164645F 		.ascii	"Add_288_out_0\000"
 3046      3238385F 
ARM GAS  C:\Users\DJESSOU\AppData\Local\Temp\ccruImXQ.s 			page 97


 3046      6F75745F 
 3046      3000
 3047              	.LC196:
 3048 10a7 5052654C 		.ascii	"PReLU_291_27_mul_x_cp_in_354\000"
 3048      555F3239 
 3048      315F3237 
 3048      5F6D756C 
 3048      5F785F63 
 3049              	.LC197:
 3050 10c4 5052654C 		.ascii	"PReLU_291_out_0\000"
 3050      555F3239 
 3050      315F6F75 
 3050      745F3000 
 3051              	.LC198:
 3052 10d4 436F6E76 		.ascii	"Conv2D_342_out_0_cp_in_355_cp_in_356_cp_in_357\000"
 3052      32445F33 
 3052      34325F6F 
 3052      75745F30 
 3052      5F63705F 
 3053              	.LC199:
 3054 1103 436F6E76 		.ascii	"Conv2D_332_out_0_cp_in_358_cp_in_359_cp_in_360\000"
 3054      32445F33 
 3054      33325F6F 
 3054      75745F30 
 3054      5F63705F 
 3055              	.LC200:
 3056 1132 436F6E76 		.ascii	"Conv2D_332_off_bias_out_578\000"
 3056      32445F33 
 3056      33325F6F 
 3056      66665F62 
 3056      6961735F 
 3057              	.LC201:
 3058 114e 5472616E 		.ascii	"Transpose_335_out_0\000"
 3058      73706F73 
 3058      655F3333 
 3058      355F6F75 
 3058      745F3000 
 3059              	.LC202:
 3060 1162 52657368 		.ascii	"Reshape_336_out_0_inserted_out1137\000"
 3060      6170655F 
 3060      3333365F 
 3060      6F75745F 
 3060      305F696E 
 3061              	.LC203:
 3062 1185 436F6E76 		.ascii	"Conv2D_342_off_bias_out_587\000"
 3062      32445F33 
 3062      34325F6F 
 3062      66665F62 
 3062      6961735F 
 3063              	.LC204:
 3064 11a1 5472616E 		.ascii	"Transpose_345_out_0\000"
 3064      73706F73 
 3064      655F3334 
 3064      355F6F75 
 3064      745F3000 
 3065              	.LC205:
 3066 11b5 5472616E 		.ascii	"Transpose_347_out_0\000"
ARM GAS  C:\Users\DJESSOU\AppData\Local\Temp\ccruImXQ.s 			page 98


 3066      73706F73 
 3066      655F3334 
 3066      375F6F75 
 3066      745F3000 
 3067              	.LC206:
 3068 11c9 52657369 		.ascii	"Resize_292_out_0\000"
 3068      7A655F32 
 3068      39325F6F 
 3068      75745F30 
 3068      00
 3069              	.LC207:
 3070 11da 436F6E76 		.ascii	"Conv2D_293_out_0_cp_in_361_cp_in_362_cp_in_363\000"
 3070      32445F32 
 3070      39335F6F 
 3070      75745F30 
 3070      5F63705F 
 3071              	.LC208:
 3072 1209 436F6E76 		.ascii	"Conv2D_293_off_bias_out_515\000"
 3072      32445F32 
 3072      39335F6F 
 3072      66665F62 
 3072      6961735F 
 3073              	.LC209:
 3074 1225 5052654C 		.ascii	"PReLU_296_28_mul_x_cp_in_364\000"
 3074      555F3239 
 3074      365F3238 
 3074      5F6D756C 
 3074      5F785F63 
 3075              	.LC210:
 3076 1242 52657368 		.ascii	"Reshape_336_out_0_inserted_out1137_inserted_out1139"
 3076      6170655F 
 3076      3333365F 
 3076      6F75745F 
 3076      305F696E 
 3077 1275 00       		.ascii	"\000"
 3078              	.LC211:
 3079 1276 5472616E 		.ascii	"Transpose_337_out_0\000"
 3079      73706F73 
 3079      655F3333 
 3079      375F6F75 
 3079      745F3000 
 3080              	.LC212:
 3081 128a 5472616E 		.ascii	"Transpose_337_out_0_cp_in_365\000"
 3081      73706F73 
 3081      655F3333 
 3081      375F6F75 
 3081      745F305F 
 3082              	.LC213:
 3083 12a8 5052654C 		.ascii	"PReLU_296_out_0\000"
 3083      555F3239 
 3083      365F6F75 
 3083      745F3000 
 3084              	.LC214:
 3085 12b8 4164645F 		.ascii	"Add_297_out_0\000"
 3085      3239375F 
 3085      6F75745F 
 3085      3000
ARM GAS  C:\Users\DJESSOU\AppData\Local\Temp\ccruImXQ.s 			page 99


 3086              	.LC215:
 3087 12c6 5F5F5F5F 		.ascii	"____1786\000"
 3087      31373836 
 3087      00
 3088              	.LC216:
 3089 12cf 436F6E76 		.ascii	"Conv2D_300_off_bias_out_524\000"
 3089      32445F33 
 3089      30305F6F 
 3089      66665F62 
 3089      6961735F 
 3090              	.LC217:
 3091 12eb 436F6E76 		.ascii	"Conv2D_303_out_0_cp_in_366_cp_in_367_cp_in_368\000"
 3091      32445F33 
 3091      30335F6F 
 3091      75745F30 
 3091      5F63705F 
 3092              	.LC218:
 3093 131a 436F6E76 		.ascii	"Conv2D_303_off_bias_out_533\000"
 3093      32445F33 
 3093      30335F6F 
 3093      66665F62 
 3093      6961735F 
 3094              	.LC219:
 3095 1336 4164645F 		.ascii	"Add_306_out_0\000"
 3095      3330365F 
 3095      6F75745F 
 3095      3000
 3096              	.LC220:
 3097 1344 5052654C 		.ascii	"PReLU_309_29_mul_x_cp_in_369\000"
 3097      555F3330 
 3097      395F3239 
 3097      5F6D756C 
 3097      5F785F63 
 3098              	.LC221:
 3099 1361 5052654C 		.ascii	"PReLU_309_out_0\000"
 3099      555F3330 
 3099      395F6F75 
 3099      745F3000 
 3100              	.LC222:
 3101 1371 5F5F5F5F 		.ascii	"____1793\000"
 3101      31373933 
 3101      00
 3102              	.LC223:
 3103 137a 436F6E76 		.ascii	"Conv2D_310_off_bias_out_542\000"
 3103      32445F33 
 3103      31305F6F 
 3103      66665F62 
 3103      6961735F 
 3104              	.LC224:
 3105 1396 436F6E76 		.ascii	"Conv2D_313_out_0_cp_in_370_cp_in_371_cp_in_372\000"
 3105      32445F33 
 3105      31335F6F 
 3105      75745F30 
 3105      5F63705F 
 3106              	.LC225:
 3107 13c5 436F6E76 		.ascii	"Conv2D_313_off_bias_out_551\000"
 3107      32445F33 
ARM GAS  C:\Users\DJESSOU\AppData\Local\Temp\ccruImXQ.s 			page 100


 3107      31335F6F 
 3107      66665F62 
 3107      6961735F 
 3108              	.LC226:
 3109 13e1 4164645F 		.ascii	"Add_316_out_0\000"
 3109      3331365F 
 3109      6F75745F 
 3109      3000
 3110              	.LC227:
 3111 13ef 5052654C 		.ascii	"PReLU_319_30_mul_x_cp_in_373\000"
 3111      555F3331 
 3111      395F3330 
 3111      5F6D756C 
 3111      5F785F63 
 3112              	.LC228:
 3113 140c 5052654C 		.ascii	"PReLU_319_out_0\000"
 3113      555F3331 
 3113      395F6F75 
 3113      745F3000 
 3114              	.LC229:
 3115 141c 436F6E76 		.ascii	"Conv2D_326_out_0_cp_in_374_cp_in_375_cp_in_376\000"
 3115      32445F33 
 3115      32365F6F 
 3115      75745F30 
 3115      5F63705F 
 3116              	.LC230:
 3117 144b 436F6E76 		.ascii	"Conv2D_320_out_0_cp_in_377_cp_in_378_cp_in_379\000"
 3117      32445F33 
 3117      32305F6F 
 3117      75745F30 
 3117      5F63705F 
 3118              	.LC231:
 3119 147a 436F6E76 		.ascii	"Conv2D_320_off_bias_out_560\000"
 3119      32445F33 
 3119      32305F6F 
 3119      66665F62 
 3119      6961735F 
 3120              	.LC232:
 3121 1496 5472616E 		.ascii	"Transpose_323_out_0\000"
 3121      73706F73 
 3121      655F3332 
 3121      335F6F75 
 3121      745F3000 
 3122              	.LC233:
 3123 14aa 52657368 		.ascii	"Reshape_324_out_0_inserted_out1158\000"
 3123      6170655F 
 3123      3332345F 
 3123      6F75745F 
 3123      305F696E 
 3124              	.LC234:
 3125 14cd 436F6E76 		.ascii	"Conv2D_326_off_bias_out_569\000"
 3125      32445F33 
 3125      32365F6F 
 3125      66665F62 
 3125      6961735F 
 3126              	.LC235:
 3127 14e9 5472616E 		.ascii	"Transpose_329_out_0\000"
ARM GAS  C:\Users\DJESSOU\AppData\Local\Temp\ccruImXQ.s 			page 101


 3127      73706F73 
 3127      655F3332 
 3127      395F6F75 
 3127      745F3000 
 3128              	.LC236:
 3129 14fd 5472616E 		.ascii	"Transpose_331_out_0\000"
 3129      73706F73 
 3129      655F3333 
 3129      315F6F75 
 3129      745F3000 
 3130              	.LC237:
 3131 1511 52657368 		.ascii	"Reshape_324_out_0_inserted_out1158_inserted_out1160"
 3131      6170655F 
 3131      3332345F 
 3131      6F75745F 
 3131      305F696E 
 3132 1544 00       		.ascii	"\000"
 3133              	.LC238:
 3134 1545 5472616E 		.ascii	"Transpose_325_out_0\000"
 3134      73706F73 
 3134      655F3332 
 3134      355F6F75 
 3134      745F3000 
 3135              	.LC239:
 3136 1559 5472616E 		.ascii	"Transpose_325_out_0_cp_in_380\000"
 3136      73706F73 
 3136      655F3332 
 3136      355F6F75 
 3136      745F305F 
 3137              	.LC240:
 3138 1577 436F6E63 		.ascii	"Concat_348_out_0\000"
 3138      61745F33 
 3138      34385F6F 
 3138      75745F30 
 3138      00
 3139              	.LC241:
 3140 1588 436F6E63 		.ascii	"Concat_338_out_0\000"
 3140      61745F33 
 3140      33385F6F 
 3140      75745F30 
 3140      00
 3141              	.LC242:
 3142 1599 44657175 		.ascii	"Dequantize_340_out_0\000"
 3142      616E7469 
 3142      7A655F33 
 3142      34305F6F 
 3142      75745F30 
 3143              	.LC243:
 3144 15ae 44657175 		.ascii	"Dequantize_350_out_0\000"
 3144      616E7469 
 3144      7A655F33 
 3144      35305F6F 
 3144      75745F30 
 3145              	.LC244:
 3146 15c3 44657175 		.ascii	"Dequantize_340_out_0_inserted_out1161\000"
 3146      616E7469 
 3146      7A655F33 
ARM GAS  C:\Users\DJESSOU\AppData\Local\Temp\ccruImXQ.s 			page 102


 3146      34305F6F 
 3146      75745F30 
 3147              	.LC245:
 3148 15e9 44657175 		.ascii	"Dequantize_340_out_0_inserted_out1161_inserted_out1"
 3148      616E7469 
 3148      7A655F33 
 3148      34305F6F 
 3148      75745F30 
 3149 161c 31363300 		.ascii	"163\000"
 3150              	.LC246:
 3151 1620 5472616E 		.ascii	"Transpose_341_out_0_cp_in_381\000"
 3151      73706F73 
 3151      655F3334 
 3151      315F6F75 
 3151      745F305F 
 3152              		.section	.data.__compound_literal.616,"aw"
 3153              		.align	2
 3156              	__compound_literal.616:
 3157 0000 00B00100 		.word	110592
 3158 0004 88000000 		.word	136
 3159 0008 40040400 		.word	263232
 3160 000c 04000000 		.word	4
 3161 0010 00000000 		.word	__compound_literal.7
 3162 0014 01000000 		.word	1
 3163 0018 00000000 		.word	__compound_literal.8
 3164 001c 01000000 		.word	1
 3165 0020 00000000 		.word	__compound_literal.9
 3166 0024 00000000 		.word	.LC8
 3167 0028 00B00100 		.word	110592
 3168 002c 89000000 		.word	137
 3169 0030 40040400 		.word	263232
 3170 0034 04000000 		.word	4
 3171 0038 00000000 		.word	__compound_literal.10
 3172 003c 01000000 		.word	1
 3173 0040 00000000 		.word	__compound_literal.11
 3174 0044 01000000 		.word	1
 3175 0048 00000000 		.word	__compound_literal.12
 3176 004c 12000000 		.word	.LC9
 3177 0050 00800400 		.word	294912
 3178 0054 09010000 		.word	265
 3179 0058 40048400 		.word	8651840
 3180 005c 05000000 		.word	5
 3181 0060 00000000 		.word	__compound_literal.13
 3182 0064 01000000 		.word	1
 3183 0068 00000000 		.word	__compound_literal.14
 3184 006c 01000000 		.word	1
 3185 0070 00000000 		.word	__compound_literal.15
 3186 0074 2B000000 		.word	.LC10
 3187 0078 00000900 		.word	589824
 3188 007c 09010000 		.word	265
 3189 0080 40088400 		.word	8652864
 3190 0084 05000000 		.word	5
 3191 0088 00000000 		.word	__compound_literal.16
 3192 008c 01000000 		.word	1
 3193 0090 00000000 		.word	__compound_literal.17
 3194 0094 01000000 		.word	1
 3195 0098 00000000 		.word	__compound_literal.18
ARM GAS  C:\Users\DJESSOU\AppData\Local\Temp\ccruImXQ.s 			page 103


 3196 009c 44000000 		.word	.LC11
 3197 00a0 00800400 		.word	294912
 3198 00a4 89000000 		.word	137
 3199 00a8 40048400 		.word	8651840
 3200 00ac 04000000 		.word	4
 3201 00b0 00000000 		.word	__compound_literal.19
 3202 00b4 01000000 		.word	1
 3203 00b8 00000000 		.word	__compound_literal.20
 3204 00bc 01000000 		.word	1
 3205 00c0 00000000 		.word	__compound_literal.21
 3206 00c4 55000000 		.word	.LC12
 3207 00c8 00800400 		.word	294912
 3208 00cc 89000000 		.word	137
 3209 00d0 40048400 		.word	8651840
 3210 00d4 04000000 		.word	4
 3211 00d8 00000000 		.word	__compound_literal.22
 3212 00dc 01000000 		.word	1
 3213 00e0 00000000 		.word	__compound_literal.23
 3214 00e4 01000000 		.word	1
 3215 00e8 00000000 		.word	__compound_literal.24
 3216 00ec 64000000 		.word	.LC13
 3217 00f0 00800400 		.word	294912
 3218 00f4 89000000 		.word	137
 3219 00f8 40048400 		.word	8651840
 3220 00fc 04000000 		.word	4
 3221 0100 00000000 		.word	__compound_literal.25
 3222 0104 01000000 		.word	1
 3223 0108 00000000 		.word	__compound_literal.26
 3224 010c 01000000 		.word	1
 3225 0110 00000000 		.word	__compound_literal.27
 3226 0114 7E000000 		.word	.LC14
 3227 0118 00800400 		.word	294912
 3228 011c 09010000 		.word	265
 3229 0120 40048400 		.word	8651840
 3230 0124 05000000 		.word	5
 3231 0128 00000000 		.word	__compound_literal.28
 3232 012c 01000000 		.word	1
 3233 0130 00000000 		.word	__compound_literal.29
 3234 0134 01000000 		.word	1
 3235 0138 00000000 		.word	__compound_literal.30
 3236 013c 98000000 		.word	.LC15
 3237 0140 00800400 		.word	294912
 3238 0144 09010000 		.word	265
 3239 0148 40048400 		.word	8651840
 3240 014c 05000000 		.word	5
 3241 0150 00000000 		.word	__compound_literal.31
 3242 0154 01000000 		.word	1
 3243 0158 00000000 		.word	__compound_literal.32
 3244 015c 01000000 		.word	1
 3245 0160 00000000 		.word	__compound_literal.33
 3246 0164 A5000000 		.word	.LC16
 3247 0168 00800400 		.word	294912
 3248 016c 89000000 		.word	137
 3249 0170 40048400 		.word	8651840
 3250 0174 04000000 		.word	4
 3251 0178 00000000 		.word	__compound_literal.34
 3252 017c 01000000 		.word	1
ARM GAS  C:\Users\DJESSOU\AppData\Local\Temp\ccruImXQ.s 			page 104


 3253 0180 00000000 		.word	__compound_literal.35
 3254 0184 01000000 		.word	1
 3255 0188 00000000 		.word	__compound_literal.36
 3256 018c C0000000 		.word	.LC17
 3257 0190 00800400 		.word	294912
 3258 0194 89000000 		.word	137
 3259 0198 40048400 		.word	8651840
 3260 019c 04000000 		.word	4
 3261 01a0 00000000 		.word	__compound_literal.37
 3262 01a4 01000000 		.word	1
 3263 01a8 00000000 		.word	__compound_literal.38
 3264 01ac 01000000 		.word	1
 3265 01b0 00000000 		.word	__compound_literal.39
 3266 01b4 CF000000 		.word	.LC18
 3267 01b8 00800400 		.word	294912
 3268 01bc 89000000 		.word	137
 3269 01c0 40048400 		.word	8651840
 3270 01c4 04000000 		.word	4
 3271 01c8 00000000 		.word	__compound_literal.40
 3272 01cc 01000000 		.word	1
 3273 01d0 00000000 		.word	__compound_literal.41
 3274 01d4 01000000 		.word	1
 3275 01d8 00000000 		.word	__compound_literal.42
 3276 01dc E9000000 		.word	.LC19
 3277 01e0 00800400 		.word	294912
 3278 01e4 09010000 		.word	265
 3279 01e8 40048400 		.word	8651840
 3280 01ec 05000000 		.word	5
 3281 01f0 00000000 		.word	__compound_literal.43
 3282 01f4 01000000 		.word	1
 3283 01f8 00000000 		.word	__compound_literal.44
 3284 01fc 01000000 		.word	1
 3285 0200 00000000 		.word	__compound_literal.45
 3286 0204 03010000 		.word	.LC20
 3287 0208 00800400 		.word	294912
 3288 020c 09010000 		.word	265
 3289 0210 40048400 		.word	8651840
 3290 0214 05000000 		.word	5
 3291 0218 00000000 		.word	__compound_literal.46
 3292 021c 01000000 		.word	1
 3293 0220 00000000 		.word	__compound_literal.47
 3294 0224 01000000 		.word	1
 3295 0228 00000000 		.word	__compound_literal.48
 3296 022c 10010000 		.word	.LC21
 3297 0230 00800400 		.word	294912
 3298 0234 89000000 		.word	137
 3299 0238 40048400 		.word	8651840
 3300 023c 04000000 		.word	4
 3301 0240 00000000 		.word	__compound_literal.49
 3302 0244 01000000 		.word	1
 3303 0248 00000000 		.word	__compound_literal.50
 3304 024c 01000000 		.word	1
 3305 0250 00000000 		.word	__compound_literal.51
 3306 0254 2B010000 		.word	.LC22
 3307 0258 00800400 		.word	294912
 3308 025c 89000000 		.word	137
 3309 0260 40048400 		.word	8651840
ARM GAS  C:\Users\DJESSOU\AppData\Local\Temp\ccruImXQ.s 			page 105


 3310 0264 04000000 		.word	4
 3311 0268 00000000 		.word	__compound_literal.52
 3312 026c 01000000 		.word	1
 3313 0270 00000000 		.word	__compound_literal.53
 3314 0274 01000000 		.word	1
 3315 0278 00000000 		.word	__compound_literal.54
 3316 027c 3A010000 		.word	.LC23
 3317 0280 00800400 		.word	294912
 3318 0284 89000000 		.word	137
 3319 0288 40048400 		.word	8651840
 3320 028c 04000000 		.word	4
 3321 0290 00000000 		.word	__compound_literal.55
 3322 0294 01000000 		.word	1
 3323 0298 00000000 		.word	__compound_literal.56
 3324 029c 01000000 		.word	1
 3325 02a0 00000000 		.word	__compound_literal.57
 3326 02a4 54010000 		.word	.LC24
 3327 02a8 00800400 		.word	294912
 3328 02ac 09010000 		.word	265
 3329 02b0 40048400 		.word	8651840
 3330 02b4 05000000 		.word	5
 3331 02b8 00000000 		.word	__compound_literal.58
 3332 02bc 01000000 		.word	1
 3333 02c0 00000000 		.word	__compound_literal.59
 3334 02c4 01000000 		.word	1
 3335 02c8 00000000 		.word	__compound_literal.60
 3336 02cc 6E010000 		.word	.LC25
 3337 02d0 00800400 		.word	294912
 3338 02d4 09010000 		.word	265
 3339 02d8 40048400 		.word	8651840
 3340 02dc 05000000 		.word	5
 3341 02e0 00000000 		.word	__compound_literal.61
 3342 02e4 01000000 		.word	1
 3343 02e8 00000000 		.word	__compound_literal.62
 3344 02ec 01000000 		.word	1
 3345 02f0 00000000 		.word	__compound_literal.63
 3346 02f4 7B010000 		.word	.LC26
 3347 02f8 00800400 		.word	294912
 3348 02fc 89000000 		.word	137
 3349 0300 40048400 		.word	8651840
 3350 0304 04000000 		.word	4
 3351 0308 00000000 		.word	__compound_literal.64
 3352 030c 01000000 		.word	1
 3353 0310 00000000 		.word	__compound_literal.65
 3354 0314 01000000 		.word	1
 3355 0318 00000000 		.word	__compound_literal.66
 3356 031c 96010000 		.word	.LC27
 3357 0320 00800400 		.word	294912
 3358 0324 89000000 		.word	137
 3359 0328 40048400 		.word	8651840
 3360 032c 04000000 		.word	4
 3361 0330 00000000 		.word	__compound_literal.67
 3362 0334 01000000 		.word	1
 3363 0338 00000000 		.word	__compound_literal.68
 3364 033c 01000000 		.word	1
 3365 0340 00000000 		.word	__compound_literal.69
 3366 0344 A5010000 		.word	.LC28
ARM GAS  C:\Users\DJESSOU\AppData\Local\Temp\ccruImXQ.s 			page 106


 3367 0348 00800400 		.word	294912
 3368 034c 89000000 		.word	137
 3369 0350 40048400 		.word	8651840
 3370 0354 04000000 		.word	4
 3371 0358 00000000 		.word	__compound_literal.70
 3372 035c 01000000 		.word	1
 3373 0360 00000000 		.word	__compound_literal.71
 3374 0364 01000000 		.word	1
 3375 0368 00000000 		.word	__compound_literal.72
 3376 036c C0010000 		.word	.LC29
 3377 0370 00800400 		.word	294912
 3378 0374 09010000 		.word	265
 3379 0378 40048400 		.word	8651840
 3380 037c 05000000 		.word	5
 3381 0380 00000000 		.word	__compound_literal.73
 3382 0384 01000000 		.word	1
 3383 0388 00000000 		.word	__compound_literal.74
 3384 038c 01000000 		.word	1
 3385 0390 00000000 		.word	__compound_literal.75
 3386 0394 DB010000 		.word	.LC30
 3387 0398 00800400 		.word	294912
 3388 039c 09010000 		.word	265
 3389 03a0 40048400 		.word	8651840
 3390 03a4 05000000 		.word	5
 3391 03a8 00000000 		.word	__compound_literal.76
 3392 03ac 01000000 		.word	1
 3393 03b0 00000000 		.word	__compound_literal.77
 3394 03b4 01000000 		.word	1
 3395 03b8 00000000 		.word	__compound_literal.78
 3396 03bc E8010000 		.word	.LC31
 3397 03c0 00800400 		.word	294912
 3398 03c4 89000000 		.word	137
 3399 03c8 40048400 		.word	8651840
 3400 03cc 04000000 		.word	4
 3401 03d0 00000000 		.word	__compound_literal.79
 3402 03d4 01000000 		.word	1
 3403 03d8 00000000 		.word	__compound_literal.80
 3404 03dc 01000000 		.word	1
 3405 03e0 00000000 		.word	__compound_literal.81
 3406 03e4 03020000 		.word	.LC32
 3407 03e8 00200100 		.word	73728
 3408 03ec 89000000 		.word	137
 3409 03f0 40048400 		.word	8651840
 3410 03f4 04000000 		.word	4
 3411 03f8 00000000 		.word	__compound_literal.82
 3412 03fc 01000000 		.word	1
 3413 0400 00000000 		.word	__compound_literal.83
 3414 0404 01000000 		.word	1
 3415 0408 00000000 		.word	__compound_literal.84
 3416 040c 12020000 		.word	.LC33
 3417 0410 00200100 		.word	73728
 3418 0414 89000000 		.word	137
 3419 0418 40048400 		.word	8651840
 3420 041c 04000000 		.word	4
 3421 0420 00000000 		.word	__compound_literal.85
 3422 0424 01000000 		.word	1
 3423 0428 00000000 		.word	__compound_literal.86
ARM GAS  C:\Users\DJESSOU\AppData\Local\Temp\ccruImXQ.s 			page 107


 3424 042c 01000000 		.word	1
 3425 0430 00000000 		.word	__compound_literal.87
 3426 0434 23020000 		.word	.LC34
 3427 0438 00400200 		.word	147456
 3428 043c 49000000 		.word	73
 3429 0440 47048400 		.word	8651847
 3430 0444 04000000 		.word	4
 3431 0448 00000000 		.word	__compound_literal.88
 3432 044c 00000000 		.word	0
 3433 0450 00000000 		.word	0
 3434 0454 00000000 		.word	0
 3435 0458 00000000 		.word	0
 3436 045c 36020000 		.word	.LC35
 3437 0460 00200100 		.word	73728
 3438 0464 89000000 		.word	137
 3439 0468 40048400 		.word	8651840
 3440 046c 04000000 		.word	4
 3441 0470 00000000 		.word	__compound_literal.89
 3442 0474 01000000 		.word	1
 3443 0478 00000000 		.word	__compound_literal.90
 3444 047c 01000000 		.word	1
 3445 0480 00000000 		.word	__compound_literal.91
 3446 0484 43020000 		.word	.LC36
 3447 0488 00400200 		.word	147456
 3448 048c 89000000 		.word	137
 3449 0490 40048400 		.word	8651840
 3450 0494 04000000 		.word	4
 3451 0498 00000000 		.word	__compound_literal.92
 3452 049c 01000000 		.word	1
 3453 04a0 00000000 		.word	__compound_literal.93
 3454 04a4 01000000 		.word	1
 3455 04a8 00000000 		.word	__compound_literal.94
 3456 04ac 5E020000 		.word	.LC37
 3457 04b0 00400200 		.word	147456
 3458 04b4 49000000 		.word	73
 3459 04b8 40048400 		.word	8651840
 3460 04bc 04000000 		.word	4
 3461 04c0 00000000 		.word	__compound_literal.95
 3462 04c4 01000000 		.word	1
 3463 04c8 00000000 		.word	__compound_literal.96
 3464 04cc 01000000 		.word	1
 3465 04d0 00000000 		.word	__compound_literal.97
 3466 04d4 79020000 		.word	.LC38
 3467 04d8 00400200 		.word	147456
 3468 04dc 49000000 		.word	73
 3469 04e0 40048400 		.word	8651840
 3470 04e4 04000000 		.word	4
 3471 04e8 00000000 		.word	__compound_literal.98
 3472 04ec 01000000 		.word	1
 3473 04f0 00000000 		.word	__compound_literal.99
 3474 04f4 01000000 		.word	1
 3475 04f8 00000000 		.word	__compound_literal.100
 3476 04fc 8C020000 		.word	.LC39
 3477 0500 00400200 		.word	147456
 3478 0504 49000000 		.word	73
 3479 0508 40048400 		.word	8651840
 3480 050c 04000000 		.word	4
ARM GAS  C:\Users\DJESSOU\AppData\Local\Temp\ccruImXQ.s 			page 108


 3481 0510 00000000 		.word	__compound_literal.101
 3482 0514 01000000 		.word	1
 3483 0518 00000000 		.word	__compound_literal.102
 3484 051c 01000000 		.word	1
 3485 0520 00000000 		.word	__compound_literal.103
 3486 0524 99020000 		.word	.LC40
 3487 0528 00400200 		.word	147456
 3488 052c 49000000 		.word	73
 3489 0530 40048400 		.word	8651840
 3490 0534 04000000 		.word	4
 3491 0538 00000000 		.word	__compound_literal.104
 3492 053c 01000000 		.word	1
 3493 0540 00000000 		.word	__compound_literal.105
 3494 0544 01000000 		.word	1
 3495 0548 00000000 		.word	__compound_literal.106
 3496 054c B4020000 		.word	.LC41
 3497 0550 00800400 		.word	294912
 3498 0554 49000000 		.word	73
 3499 0558 4F088400 		.word	8652879
 3500 055c 04000000 		.word	4
 3501 0560 00000000 		.word	__compound_literal.107
 3502 0564 00000000 		.word	0
 3503 0568 00000000 		.word	0
 3504 056c 00000000 		.word	0
 3505 0570 00000000 		.word	0
 3506 0574 C3020000 		.word	.LC42
 3507 0578 00400200 		.word	147456
 3508 057c 89000000 		.word	137
 3509 0580 40048400 		.word	8651840
 3510 0584 04000000 		.word	4
 3511 0588 00000000 		.word	__compound_literal.108
 3512 058c 01000000 		.word	1
 3513 0590 00000000 		.word	__compound_literal.109
 3514 0594 01000000 		.word	1
 3515 0598 00000000 		.word	__compound_literal.110
 3516 059c CC020000 		.word	.LC43
 3517 05a0 00400200 		.word	147456
 3518 05a4 89000000 		.word	137
 3519 05a8 40048400 		.word	8651840
 3520 05ac 04000000 		.word	4
 3521 05b0 00000000 		.word	__compound_literal.111
 3522 05b4 01000000 		.word	1
 3523 05b8 00000000 		.word	__compound_literal.112
 3524 05bc 01000000 		.word	1
 3525 05c0 00000000 		.word	__compound_literal.113
 3526 05c4 E7020000 		.word	.LC44
 3527 05c8 00400200 		.word	147456
 3528 05cc 49000000 		.word	73
 3529 05d0 40048400 		.word	8651840
 3530 05d4 04000000 		.word	4
 3531 05d8 00000000 		.word	__compound_literal.114
 3532 05dc 01000000 		.word	1
 3533 05e0 00000000 		.word	__compound_literal.115
 3534 05e4 01000000 		.word	1
 3535 05e8 00000000 		.word	__compound_literal.116
 3536 05ec 02030000 		.word	.LC45
 3537 05f0 00400200 		.word	147456
ARM GAS  C:\Users\DJESSOU\AppData\Local\Temp\ccruImXQ.s 			page 109


 3538 05f4 49000000 		.word	73
 3539 05f8 40048400 		.word	8651840
 3540 05fc 04000000 		.word	4
 3541 0600 00000000 		.word	__compound_literal.117
 3542 0604 01000000 		.word	1
 3543 0608 00000000 		.word	__compound_literal.118
 3544 060c 01000000 		.word	1
 3545 0610 00000000 		.word	__compound_literal.119
 3546 0614 0F030000 		.word	.LC46
 3547 0618 00400200 		.word	147456
 3548 061c 49000000 		.word	73
 3549 0620 40048400 		.word	8651840
 3550 0624 04000000 		.word	4
 3551 0628 00000000 		.word	__compound_literal.120
 3552 062c 01000000 		.word	1
 3553 0630 00000000 		.word	__compound_literal.121
 3554 0634 01000000 		.word	1
 3555 0638 00000000 		.word	__compound_literal.122
 3556 063c 2A030000 		.word	.LC47
 3557 0640 00800400 		.word	294912
 3558 0644 49000000 		.word	73
 3559 0648 4F088400 		.word	8652879
 3560 064c 04000000 		.word	4
 3561 0650 00000000 		.word	__compound_literal.123
 3562 0654 00000000 		.word	0
 3563 0658 00000000 		.word	0
 3564 065c 00000000 		.word	0
 3565 0660 00000000 		.word	0
 3566 0664 39030000 		.word	.LC48
 3567 0668 00400200 		.word	147456
 3568 066c 89000000 		.word	137
 3569 0670 40048400 		.word	8651840
 3570 0674 04000000 		.word	4
 3571 0678 00000000 		.word	__compound_literal.124
 3572 067c 01000000 		.word	1
 3573 0680 00000000 		.word	__compound_literal.125
 3574 0684 01000000 		.word	1
 3575 0688 00000000 		.word	__compound_literal.126
 3576 068c 42030000 		.word	.LC49
 3577 0690 00400200 		.word	147456
 3578 0694 89000000 		.word	137
 3579 0698 40048400 		.word	8651840
 3580 069c 04000000 		.word	4
 3581 06a0 00000000 		.word	__compound_literal.127
 3582 06a4 01000000 		.word	1
 3583 06a8 00000000 		.word	__compound_literal.128
 3584 06ac 01000000 		.word	1
 3585 06b0 00000000 		.word	__compound_literal.129
 3586 06b4 5D030000 		.word	.LC50
 3587 06b8 00400200 		.word	147456
 3588 06bc 49000000 		.word	73
 3589 06c0 40048400 		.word	8651840
 3590 06c4 04000000 		.word	4
 3591 06c8 00000000 		.word	__compound_literal.130
 3592 06cc 01000000 		.word	1
 3593 06d0 00000000 		.word	__compound_literal.131
 3594 06d4 01000000 		.word	1
ARM GAS  C:\Users\DJESSOU\AppData\Local\Temp\ccruImXQ.s 			page 110


 3595 06d8 00000000 		.word	__compound_literal.132
 3596 06dc 78030000 		.word	.LC51
 3597 06e0 00400200 		.word	147456
 3598 06e4 49000000 		.word	73
 3599 06e8 40048400 		.word	8651840
 3600 06ec 04000000 		.word	4
 3601 06f0 00000000 		.word	__compound_literal.133
 3602 06f4 01000000 		.word	1
 3603 06f8 00000000 		.word	__compound_literal.134
 3604 06fc 01000000 		.word	1
 3605 0700 00000000 		.word	__compound_literal.135
 3606 0704 85030000 		.word	.LC52
 3607 0708 00400200 		.word	147456
 3608 070c 49000000 		.word	73
 3609 0710 40048400 		.word	8651840
 3610 0714 04000000 		.word	4
 3611 0718 00000000 		.word	__compound_literal.136
 3612 071c 01000000 		.word	1
 3613 0720 00000000 		.word	__compound_literal.137
 3614 0724 01000000 		.word	1
 3615 0728 00000000 		.word	__compound_literal.138
 3616 072c A0030000 		.word	.LC53
 3617 0730 00800400 		.word	294912
 3618 0734 49000000 		.word	73
 3619 0738 4F088400 		.word	8652879
 3620 073c 04000000 		.word	4
 3621 0740 00000000 		.word	__compound_literal.139
 3622 0744 00000000 		.word	0
 3623 0748 00000000 		.word	0
 3624 074c 00000000 		.word	0
 3625 0750 00000000 		.word	0
 3626 0754 AF030000 		.word	.LC54
 3627 0758 00400200 		.word	147456
 3628 075c 89000000 		.word	137
 3629 0760 40048400 		.word	8651840
 3630 0764 04000000 		.word	4
 3631 0768 00000000 		.word	__compound_literal.140
 3632 076c 01000000 		.word	1
 3633 0770 00000000 		.word	__compound_literal.141
 3634 0774 01000000 		.word	1
 3635 0778 00000000 		.word	__compound_literal.142
 3636 077c B8030000 		.word	.LC55
 3637 0780 00400200 		.word	147456
 3638 0784 89000000 		.word	137
 3639 0788 40048400 		.word	8651840
 3640 078c 04000000 		.word	4
 3641 0790 00000000 		.word	__compound_literal.143
 3642 0794 01000000 		.word	1
 3643 0798 00000000 		.word	__compound_literal.144
 3644 079c 01000000 		.word	1
 3645 07a0 00000000 		.word	__compound_literal.145
 3646 07a4 D3030000 		.word	.LC56
 3647 07a8 00400200 		.word	147456
 3648 07ac 49000000 		.word	73
 3649 07b0 40048400 		.word	8651840
 3650 07b4 04000000 		.word	4
 3651 07b8 00000000 		.word	__compound_literal.146
ARM GAS  C:\Users\DJESSOU\AppData\Local\Temp\ccruImXQ.s 			page 111


 3652 07bc 01000000 		.word	1
 3653 07c0 00000000 		.word	__compound_literal.147
 3654 07c4 01000000 		.word	1
 3655 07c8 00000000 		.word	__compound_literal.148
 3656 07cc EE030000 		.word	.LC57
 3657 07d0 00400200 		.word	147456
 3658 07d4 49000000 		.word	73
 3659 07d8 40048400 		.word	8651840
 3660 07dc 04000000 		.word	4
 3661 07e0 00000000 		.word	__compound_literal.149
 3662 07e4 01000000 		.word	1
 3663 07e8 00000000 		.word	__compound_literal.150
 3664 07ec 01000000 		.word	1
 3665 07f0 00000000 		.word	__compound_literal.151
 3666 07f4 FB030000 		.word	.LC58
 3667 07f8 00400200 		.word	147456
 3668 07fc 49000000 		.word	73
 3669 0800 40048400 		.word	8651840
 3670 0804 04000000 		.word	4
 3671 0808 00000000 		.word	__compound_literal.152
 3672 080c 01000000 		.word	1
 3673 0810 00000000 		.word	__compound_literal.153
 3674 0814 01000000 		.word	1
 3675 0818 00000000 		.word	__compound_literal.154
 3676 081c 16040000 		.word	.LC59
 3677 0820 00800400 		.word	294912
 3678 0824 49000000 		.word	73
 3679 0828 4F088400 		.word	8652879
 3680 082c 04000000 		.word	4
 3681 0830 00000000 		.word	__compound_literal.155
 3682 0834 00000000 		.word	0
 3683 0838 00000000 		.word	0
 3684 083c 00000000 		.word	0
 3685 0840 00000000 		.word	0
 3686 0844 25040000 		.word	.LC60
 3687 0848 00400200 		.word	147456
 3688 084c 89000000 		.word	137
 3689 0850 40048400 		.word	8651840
 3690 0854 04000000 		.word	4
 3691 0858 00000000 		.word	__compound_literal.156
 3692 085c 01000000 		.word	1
 3693 0860 00000000 		.word	__compound_literal.157
 3694 0864 01000000 		.word	1
 3695 0868 00000000 		.word	__compound_literal.158
 3696 086c 2E040000 		.word	.LC61
 3697 0870 00400200 		.word	147456
 3698 0874 89000000 		.word	137
 3699 0878 40048400 		.word	8651840
 3700 087c 04000000 		.word	4
 3701 0880 00000000 		.word	__compound_literal.159
 3702 0884 01000000 		.word	1
 3703 0888 00000000 		.word	__compound_literal.160
 3704 088c 01000000 		.word	1
 3705 0890 00000000 		.word	__compound_literal.161
 3706 0894 49040000 		.word	.LC62
 3707 0898 00400200 		.word	147456
 3708 089c 49000000 		.word	73
ARM GAS  C:\Users\DJESSOU\AppData\Local\Temp\ccruImXQ.s 			page 112


 3709 08a0 40048400 		.word	8651840
 3710 08a4 04000000 		.word	4
 3711 08a8 00000000 		.word	__compound_literal.162
 3712 08ac 01000000 		.word	1
 3713 08b0 00000000 		.word	__compound_literal.163
 3714 08b4 01000000 		.word	1
 3715 08b8 00000000 		.word	__compound_literal.164
 3716 08bc 64040000 		.word	.LC63
 3717 08c0 00400200 		.word	147456
 3718 08c4 49000000 		.word	73
 3719 08c8 40048400 		.word	8651840
 3720 08cc 04000000 		.word	4
 3721 08d0 00000000 		.word	__compound_literal.165
 3722 08d4 01000000 		.word	1
 3723 08d8 00000000 		.word	__compound_literal.166
 3724 08dc 01000000 		.word	1
 3725 08e0 00000000 		.word	__compound_literal.167
 3726 08e4 72040000 		.word	.LC64
 3727 08e8 00400200 		.word	147456
 3728 08ec 49000000 		.word	73
 3729 08f0 40048400 		.word	8651840
 3730 08f4 04000000 		.word	4
 3731 08f8 00000000 		.word	__compound_literal.168
 3732 08fc 01000000 		.word	1
 3733 0900 00000000 		.word	__compound_literal.169
 3734 0904 01000000 		.word	1
 3735 0908 00000000 		.word	__compound_literal.170
 3736 090c 8E040000 		.word	.LC65
 3737 0910 00200100 		.word	73728
 3738 0914 49000000 		.word	73
 3739 0918 4F088400 		.word	8652879
 3740 091c 04000000 		.word	4
 3741 0920 00000000 		.word	__compound_literal.171
 3742 0924 00000000 		.word	0
 3743 0928 00000000 		.word	0
 3744 092c 00000000 		.word	0
 3745 0930 00000000 		.word	0
 3746 0934 9E040000 		.word	.LC66
 3747 0938 00900000 		.word	36864
 3748 093c 89000000 		.word	137
 3749 0940 40048400 		.word	8651840
 3750 0944 04000000 		.word	4
 3751 0948 00000000 		.word	__compound_literal.172
 3752 094c 01000000 		.word	1
 3753 0950 00000000 		.word	__compound_literal.173
 3754 0954 01000000 		.word	1
 3755 0958 00000000 		.word	__compound_literal.174
 3756 095c A7040000 		.word	.LC67
 3757 0960 00200100 		.word	73728
 3758 0964 89000000 		.word	137
 3759 0968 40048400 		.word	8651840
 3760 096c 04000000 		.word	4
 3761 0970 00000000 		.word	__compound_literal.175
 3762 0974 01000000 		.word	1
 3763 0978 00000000 		.word	__compound_literal.176
 3764 097c 01000000 		.word	1
 3765 0980 00000000 		.word	__compound_literal.177
ARM GAS  C:\Users\DJESSOU\AppData\Local\Temp\ccruImXQ.s 			page 113


 3766 0984 C3040000 		.word	.LC68
 3767 0988 00900000 		.word	36864
 3768 098c 49000000 		.word	73
 3769 0990 40048400 		.word	8651840
 3770 0994 04000000 		.word	4
 3771 0998 00000000 		.word	__compound_literal.178
 3772 099c 01000000 		.word	1
 3773 09a0 00000000 		.word	__compound_literal.179
 3774 09a4 01000000 		.word	1
 3775 09a8 00000000 		.word	__compound_literal.180
 3776 09ac DF040000 		.word	.LC69
 3777 09b0 00900000 		.word	36864
 3778 09b4 49000000 		.word	73
 3779 09b8 40048400 		.word	8651840
 3780 09bc 04000000 		.word	4
 3781 09c0 00000000 		.word	__compound_literal.181
 3782 09c4 01000000 		.word	1
 3783 09c8 00000000 		.word	__compound_literal.182
 3784 09cc 01000000 		.word	1
 3785 09d0 00000000 		.word	__compound_literal.183
 3786 09d4 F1040000 		.word	.LC70
 3787 09d8 00200100 		.word	73728
 3788 09dc 49000000 		.word	73
 3789 09e0 47048400 		.word	8651847
 3790 09e4 04000000 		.word	4
 3791 09e8 00000000 		.word	__compound_literal.184
 3792 09ec 00000000 		.word	0
 3793 09f0 00000000 		.word	0
 3794 09f4 00000000 		.word	0
 3795 09f8 00000000 		.word	0
 3796 09fc 05050000 		.word	.LC71
 3797 0a00 00200100 		.word	73728
 3798 0a04 49000000 		.word	73
 3799 0a08 40048400 		.word	8651840
 3800 0a0c 04000000 		.word	4
 3801 0a10 00000000 		.word	__compound_literal.185
 3802 0a14 01000000 		.word	1
 3803 0a18 00000000 		.word	__compound_literal.186
 3804 0a1c 01000000 		.word	1
 3805 0a20 00000000 		.word	__compound_literal.187
 3806 0a24 13050000 		.word	.LC72
 3807 0a28 00200100 		.word	73728
 3808 0a2c 49000000 		.word	73
 3809 0a30 40048400 		.word	8651840
 3810 0a34 04000000 		.word	4
 3811 0a38 00000000 		.word	__compound_literal.188
 3812 0a3c 01000000 		.word	1
 3813 0a40 00000000 		.word	__compound_literal.189
 3814 0a44 01000000 		.word	1
 3815 0a48 00000000 		.word	__compound_literal.190
 3816 0a4c 27050000 		.word	.LC73
 3817 0a50 00200100 		.word	73728
 3818 0a54 49000000 		.word	73
 3819 0a58 40048400 		.word	8651840
 3820 0a5c 04000000 		.word	4
 3821 0a60 00000000 		.word	__compound_literal.191
 3822 0a64 01000000 		.word	1
ARM GAS  C:\Users\DJESSOU\AppData\Local\Temp\ccruImXQ.s 			page 114


 3823 0a68 00000000 		.word	__compound_literal.192
 3824 0a6c 01000000 		.word	1
 3825 0a70 00000000 		.word	__compound_literal.193
 3826 0a74 35050000 		.word	.LC74
 3827 0a78 00200100 		.word	73728
 3828 0a7c 49000000 		.word	73
 3829 0a80 40048400 		.word	8651840
 3830 0a84 04000000 		.word	4
 3831 0a88 00000000 		.word	__compound_literal.194
 3832 0a8c 01000000 		.word	1
 3833 0a90 00000000 		.word	__compound_literal.195
 3834 0a94 01000000 		.word	1
 3835 0a98 00000000 		.word	__compound_literal.196
 3836 0a9c 52050000 		.word	.LC75
 3837 0aa0 00400200 		.word	147456
 3838 0aa4 49000000 		.word	73
 3839 0aa8 4F088400 		.word	8652879
 3840 0aac 04000000 		.word	4
 3841 0ab0 00000000 		.word	__compound_literal.197
 3842 0ab4 00000000 		.word	0
 3843 0ab8 00000000 		.word	0
 3844 0abc 00000000 		.word	0
 3845 0ac0 00000000 		.word	0
 3846 0ac4 62050000 		.word	.LC76
 3847 0ac8 00200100 		.word	73728
 3848 0acc 89000000 		.word	137
 3849 0ad0 40048400 		.word	8651840
 3850 0ad4 04000000 		.word	4
 3851 0ad8 00000000 		.word	__compound_literal.198
 3852 0adc 01000000 		.word	1
 3853 0ae0 00000000 		.word	__compound_literal.199
 3854 0ae4 01000000 		.word	1
 3855 0ae8 00000000 		.word	__compound_literal.200
 3856 0aec 6B050000 		.word	.LC77
 3857 0af0 00400200 		.word	147456
 3858 0af4 09010000 		.word	265
 3859 0af8 4F088400 		.word	8652879
 3860 0afc 05000000 		.word	5
 3861 0b00 00000000 		.word	__compound_literal.201
 3862 0b04 00000000 		.word	0
 3863 0b08 00000000 		.word	0
 3864 0b0c 00000000 		.word	0
 3865 0b10 00000000 		.word	0
 3866 0b14 87050000 		.word	.LC78
 3867 0b18 00200100 		.word	73728
 3868 0b1c 89000000 		.word	137
 3869 0b20 40048400 		.word	8651840
 3870 0b24 04000000 		.word	4
 3871 0b28 00000000 		.word	__compound_literal.202
 3872 0b2c 01000000 		.word	1
 3873 0b30 00000000 		.word	__compound_literal.203
 3874 0b34 01000000 		.word	1
 3875 0b38 00000000 		.word	__compound_literal.204
 3876 0b3c B6050000 		.word	.LC79
 3877 0b40 00200100 		.word	73728
 3878 0b44 49000000 		.word	73
 3879 0b48 40048400 		.word	8651840
ARM GAS  C:\Users\DJESSOU\AppData\Local\Temp\ccruImXQ.s 			page 115


 3880 0b4c 04000000 		.word	4
 3881 0b50 00000000 		.word	__compound_literal.205
 3882 0b54 01000000 		.word	1
 3883 0b58 00000000 		.word	__compound_literal.206
 3884 0b5c 01000000 		.word	1
 3885 0b60 00000000 		.word	__compound_literal.207
 3886 0b64 D2050000 		.word	.LC80
 3887 0b68 00200100 		.word	73728
 3888 0b6c 49000000 		.word	73
 3889 0b70 40048400 		.word	8651840
 3890 0b74 04000000 		.word	4
 3891 0b78 00000000 		.word	__compound_literal.208
 3892 0b7c 01000000 		.word	1
 3893 0b80 00000000 		.word	__compound_literal.209
 3894 0b84 01000000 		.word	1
 3895 0b88 00000000 		.word	__compound_literal.210
 3896 0b8c E0050000 		.word	.LC81
 3897 0b90 00200100 		.word	73728
 3898 0b94 49000000 		.word	73
 3899 0b98 40048400 		.word	8651840
 3900 0b9c 04000000 		.word	4
 3901 0ba0 00000000 		.word	__compound_literal.211
 3902 0ba4 01000000 		.word	1
 3903 0ba8 00000000 		.word	__compound_literal.212
 3904 0bac 01000000 		.word	1
 3905 0bb0 00000000 		.word	__compound_literal.213
 3906 0bb4 FD050000 		.word	.LC82
 3907 0bb8 00400200 		.word	147456
 3908 0bbc 49000000 		.word	73
 3909 0bc0 4F088400 		.word	8652879
 3910 0bc4 04000000 		.word	4
 3911 0bc8 00000000 		.word	__compound_literal.214
 3912 0bcc 00000000 		.word	0
 3913 0bd0 00000000 		.word	0
 3914 0bd4 00000000 		.word	0
 3915 0bd8 00000000 		.word	0
 3916 0bdc 0D060000 		.word	.LC83
 3917 0be0 00200100 		.word	73728
 3918 0be4 89000000 		.word	137
 3919 0be8 40048400 		.word	8651840
 3920 0bec 04000000 		.word	4
 3921 0bf0 00000000 		.word	__compound_literal.215
 3922 0bf4 01000000 		.word	1
 3923 0bf8 00000000 		.word	__compound_literal.216
 3924 0bfc 01000000 		.word	1
 3925 0c00 00000000 		.word	__compound_literal.217
 3926 0c04 16060000 		.word	.LC84
 3927 0c08 00400200 		.word	147456
 3928 0c0c 09010000 		.word	265
 3929 0c10 4F088400 		.word	8652879
 3930 0c14 05000000 		.word	5
 3931 0c18 00000000 		.word	__compound_literal.218
 3932 0c1c 00000000 		.word	0
 3933 0c20 00000000 		.word	0
 3934 0c24 00000000 		.word	0
 3935 0c28 00000000 		.word	0
 3936 0c2c 32060000 		.word	.LC85
ARM GAS  C:\Users\DJESSOU\AppData\Local\Temp\ccruImXQ.s 			page 116


 3937 0c30 00200100 		.word	73728
 3938 0c34 89000000 		.word	137
 3939 0c38 40048400 		.word	8651840
 3940 0c3c 04000000 		.word	4
 3941 0c40 00000000 		.word	__compound_literal.219
 3942 0c44 01000000 		.word	1
 3943 0c48 00000000 		.word	__compound_literal.220
 3944 0c4c 01000000 		.word	1
 3945 0c50 00000000 		.word	__compound_literal.221
 3946 0c54 61060000 		.word	.LC86
 3947 0c58 00200100 		.word	73728
 3948 0c5c 49000000 		.word	73
 3949 0c60 40048400 		.word	8651840
 3950 0c64 04000000 		.word	4
 3951 0c68 00000000 		.word	__compound_literal.222
 3952 0c6c 01000000 		.word	1
 3953 0c70 00000000 		.word	__compound_literal.223
 3954 0c74 01000000 		.word	1
 3955 0c78 00000000 		.word	__compound_literal.224
 3956 0c7c 7D060000 		.word	.LC87
 3957 0c80 00200100 		.word	73728
 3958 0c84 49000000 		.word	73
 3959 0c88 40048400 		.word	8651840
 3960 0c8c 04000000 		.word	4
 3961 0c90 00000000 		.word	__compound_literal.225
 3962 0c94 01000000 		.word	1
 3963 0c98 00000000 		.word	__compound_literal.226
 3964 0c9c 01000000 		.word	1
 3965 0ca0 00000000 		.word	__compound_literal.227
 3966 0ca4 8B060000 		.word	.LC88
 3967 0ca8 00200100 		.word	73728
 3968 0cac 49000000 		.word	73
 3969 0cb0 40048400 		.word	8651840
 3970 0cb4 04000000 		.word	4
 3971 0cb8 00000000 		.word	__compound_literal.228
 3972 0cbc 01000000 		.word	1
 3973 0cc0 00000000 		.word	__compound_literal.229
 3974 0cc4 01000000 		.word	1
 3975 0cc8 00000000 		.word	__compound_literal.230
 3976 0ccc A8060000 		.word	.LC89
 3977 0cd0 00400200 		.word	147456
 3978 0cd4 49000000 		.word	73
 3979 0cd8 4F088400 		.word	8652879
 3980 0cdc 04000000 		.word	4
 3981 0ce0 00000000 		.word	__compound_literal.231
 3982 0ce4 00000000 		.word	0
 3983 0ce8 00000000 		.word	0
 3984 0cec 00000000 		.word	0
 3985 0cf0 00000000 		.word	0
 3986 0cf4 B8060000 		.word	.LC90
 3987 0cf8 00200100 		.word	73728
 3988 0cfc 89000000 		.word	137
 3989 0d00 40048400 		.word	8651840
 3990 0d04 04000000 		.word	4
 3991 0d08 00000000 		.word	__compound_literal.232
 3992 0d0c 01000000 		.word	1
 3993 0d10 00000000 		.word	__compound_literal.233
ARM GAS  C:\Users\DJESSOU\AppData\Local\Temp\ccruImXQ.s 			page 117


 3994 0d14 01000000 		.word	1
 3995 0d18 00000000 		.word	__compound_literal.234
 3996 0d1c C1060000 		.word	.LC91
 3997 0d20 00400200 		.word	147456
 3998 0d24 09010000 		.word	265
 3999 0d28 4F088400 		.word	8652879
 4000 0d2c 05000000 		.word	5
 4001 0d30 00000000 		.word	__compound_literal.235
 4002 0d34 00000000 		.word	0
 4003 0d38 00000000 		.word	0
 4004 0d3c 00000000 		.word	0
 4005 0d40 00000000 		.word	0
 4006 0d44 DD060000 		.word	.LC92
 4007 0d48 00200100 		.word	73728
 4008 0d4c 89000000 		.word	137
 4009 0d50 40048400 		.word	8651840
 4010 0d54 04000000 		.word	4
 4011 0d58 00000000 		.word	__compound_literal.236
 4012 0d5c 01000000 		.word	1
 4013 0d60 00000000 		.word	__compound_literal.237
 4014 0d64 01000000 		.word	1
 4015 0d68 00000000 		.word	__compound_literal.238
 4016 0d6c 0C070000 		.word	.LC93
 4017 0d70 00200100 		.word	73728
 4018 0d74 49000000 		.word	73
 4019 0d78 40048400 		.word	8651840
 4020 0d7c 04000000 		.word	4
 4021 0d80 00000000 		.word	__compound_literal.239
 4022 0d84 01000000 		.word	1
 4023 0d88 00000000 		.word	__compound_literal.240
 4024 0d8c 01000000 		.word	1
 4025 0d90 00000000 		.word	__compound_literal.241
 4026 0d94 28070000 		.word	.LC94
 4027 0d98 00200100 		.word	73728
 4028 0d9c 49000000 		.word	73
 4029 0da0 40048400 		.word	8651840
 4030 0da4 04000000 		.word	4
 4031 0da8 00000000 		.word	__compound_literal.242
 4032 0dac 01000000 		.word	1
 4033 0db0 00000000 		.word	__compound_literal.243
 4034 0db4 01000000 		.word	1
 4035 0db8 00000000 		.word	__compound_literal.244
 4036 0dbc 36070000 		.word	.LC95
 4037 0dc0 00200100 		.word	73728
 4038 0dc4 49000000 		.word	73
 4039 0dc8 40048400 		.word	8651840
 4040 0dcc 04000000 		.word	4
 4041 0dd0 00000000 		.word	__compound_literal.245
 4042 0dd4 01000000 		.word	1
 4043 0dd8 00000000 		.word	__compound_literal.246
 4044 0ddc 01000000 		.word	1
 4045 0de0 00000000 		.word	__compound_literal.247
 4046 0de4 53070000 		.word	.LC96
 4047 0de8 00400200 		.word	147456
 4048 0dec 49000000 		.word	73
 4049 0df0 4F088400 		.word	8652879
 4050 0df4 04000000 		.word	4
ARM GAS  C:\Users\DJESSOU\AppData\Local\Temp\ccruImXQ.s 			page 118


 4051 0df8 00000000 		.word	__compound_literal.248
 4052 0dfc 00000000 		.word	0
 4053 0e00 00000000 		.word	0
 4054 0e04 00000000 		.word	0
 4055 0e08 00000000 		.word	0
 4056 0e0c 63070000 		.word	.LC97
 4057 0e10 00200100 		.word	73728
 4058 0e14 89000000 		.word	137
 4059 0e18 40048400 		.word	8651840
 4060 0e1c 04000000 		.word	4
 4061 0e20 00000000 		.word	__compound_literal.249
 4062 0e24 01000000 		.word	1
 4063 0e28 00000000 		.word	__compound_literal.250
 4064 0e2c 01000000 		.word	1
 4065 0e30 00000000 		.word	__compound_literal.251
 4066 0e34 6C070000 		.word	.LC98
 4067 0e38 00400200 		.word	147456
 4068 0e3c 09010000 		.word	265
 4069 0e40 4F088400 		.word	8652879
 4070 0e44 05000000 		.word	5
 4071 0e48 00000000 		.word	__compound_literal.252
 4072 0e4c 00000000 		.word	0
 4073 0e50 00000000 		.word	0
 4074 0e54 00000000 		.word	0
 4075 0e58 00000000 		.word	0
 4076 0e5c 88070000 		.word	.LC99
 4077 0e60 00200100 		.word	73728
 4078 0e64 89000000 		.word	137
 4079 0e68 40048400 		.word	8651840
 4080 0e6c 04000000 		.word	4
 4081 0e70 00000000 		.word	__compound_literal.253
 4082 0e74 01000000 		.word	1
 4083 0e78 00000000 		.word	__compound_literal.254
 4084 0e7c 01000000 		.word	1
 4085 0e80 00000000 		.word	__compound_literal.255
 4086 0e84 B7070000 		.word	.LC100
 4087 0e88 00200100 		.word	73728
 4088 0e8c 49000000 		.word	73
 4089 0e90 40048400 		.word	8651840
 4090 0e94 04000000 		.word	4
 4091 0e98 00000000 		.word	__compound_literal.256
 4092 0e9c 01000000 		.word	1
 4093 0ea0 00000000 		.word	__compound_literal.257
 4094 0ea4 01000000 		.word	1
 4095 0ea8 00000000 		.word	__compound_literal.258
 4096 0eac D3070000 		.word	.LC101
 4097 0eb0 00200100 		.word	73728
 4098 0eb4 49000000 		.word	73
 4099 0eb8 40048400 		.word	8651840
 4100 0ebc 04000000 		.word	4
 4101 0ec0 00000000 		.word	__compound_literal.259
 4102 0ec4 01000000 		.word	1
 4103 0ec8 00000000 		.word	__compound_literal.260
 4104 0ecc 01000000 		.word	1
 4105 0ed0 00000000 		.word	__compound_literal.261
 4106 0ed4 E1070000 		.word	.LC102
 4107 0ed8 00200100 		.word	73728
ARM GAS  C:\Users\DJESSOU\AppData\Local\Temp\ccruImXQ.s 			page 119


 4108 0edc 49000000 		.word	73
 4109 0ee0 40048400 		.word	8651840
 4110 0ee4 04000000 		.word	4
 4111 0ee8 00000000 		.word	__compound_literal.262
 4112 0eec 01000000 		.word	1
 4113 0ef0 00000000 		.word	__compound_literal.263
 4114 0ef4 01000000 		.word	1
 4115 0ef8 00000000 		.word	__compound_literal.264
 4116 0efc FE070000 		.word	.LC103
 4117 0f00 00900000 		.word	36864
 4118 0f04 49000000 		.word	73
 4119 0f08 4F088400 		.word	8652879
 4120 0f0c 04000000 		.word	4
 4121 0f10 00000000 		.word	__compound_literal.265
 4122 0f14 00000000 		.word	0
 4123 0f18 00000000 		.word	0
 4124 0f1c 00000000 		.word	0
 4125 0f20 00000000 		.word	0
 4126 0f24 0E080000 		.word	.LC104
 4127 0f28 00480000 		.word	18432
 4128 0f2c 89000000 		.word	137
 4129 0f30 40048400 		.word	8651840
 4130 0f34 04000000 		.word	4
 4131 0f38 00000000 		.word	__compound_literal.266
 4132 0f3c 01000000 		.word	1
 4133 0f40 00000000 		.word	__compound_literal.267
 4134 0f44 01000000 		.word	1
 4135 0f48 00000000 		.word	__compound_literal.268
 4136 0f4c 17080000 		.word	.LC105
 4137 0f50 00200100 		.word	73728
 4138 0f54 09010000 		.word	265
 4139 0f58 4F088400 		.word	8652879
 4140 0f5c 05000000 		.word	5
 4141 0f60 00000000 		.word	__compound_literal.269
 4142 0f64 00000000 		.word	0
 4143 0f68 00000000 		.word	0
 4144 0f6c 00000000 		.word	0
 4145 0f70 00000000 		.word	0
 4146 0f74 33080000 		.word	.LC106
 4147 0f78 00900000 		.word	36864
 4148 0f7c 89000000 		.word	137
 4149 0f80 40048400 		.word	8651840
 4150 0f84 04000000 		.word	4
 4151 0f88 00000000 		.word	__compound_literal.270
 4152 0f8c 01000000 		.word	1
 4153 0f90 00000000 		.word	__compound_literal.271
 4154 0f94 01000000 		.word	1
 4155 0f98 00000000 		.word	__compound_literal.272
 4156 0f9c 62080000 		.word	.LC107
 4157 0fa0 00480000 		.word	18432
 4158 0fa4 49000000 		.word	73
 4159 0fa8 40048400 		.word	8651840
 4160 0fac 04000000 		.word	4
 4161 0fb0 00000000 		.word	__compound_literal.273
 4162 0fb4 01000000 		.word	1
 4163 0fb8 00000000 		.word	__compound_literal.274
 4164 0fbc 01000000 		.word	1
ARM GAS  C:\Users\DJESSOU\AppData\Local\Temp\ccruImXQ.s 			page 120


 4165 0fc0 00000000 		.word	__compound_literal.275
 4166 0fc4 7E080000 		.word	.LC108
 4167 0fc8 00480000 		.word	18432
 4168 0fcc 49000000 		.word	73
 4169 0fd0 40048400 		.word	8651840
 4170 0fd4 04000000 		.word	4
 4171 0fd8 00000000 		.word	__compound_literal.276
 4172 0fdc 01000000 		.word	1
 4173 0fe0 00000000 		.word	__compound_literal.277
 4174 0fe4 01000000 		.word	1
 4175 0fe8 00000000 		.word	__compound_literal.278
 4176 0fec 90080000 		.word	.LC109
 4177 0ff0 00900000 		.word	36864
 4178 0ff4 49000000 		.word	73
 4179 0ff8 47048400 		.word	8651847
 4180 0ffc 04000000 		.word	4
 4181 1000 00000000 		.word	__compound_literal.279
 4182 1004 00000000 		.word	0
 4183 1008 00000000 		.word	0
 4184 100c 00000000 		.word	0
 4185 1010 00000000 		.word	0
 4186 1014 A4080000 		.word	.LC110
 4187 1018 00900000 		.word	36864
 4188 101c 49000000 		.word	73
 4189 1020 40048400 		.word	8651840
 4190 1024 04000000 		.word	4
 4191 1028 00000000 		.word	__compound_literal.280
 4192 102c 01000000 		.word	1
 4193 1030 00000000 		.word	__compound_literal.281
 4194 1034 01000000 		.word	1
 4195 1038 00000000 		.word	__compound_literal.282
 4196 103c B2080000 		.word	.LC111
 4197 1040 00900000 		.word	36864
 4198 1044 49000000 		.word	73
 4199 1048 40048400 		.word	8651840
 4200 104c 04000000 		.word	4
 4201 1050 00000000 		.word	__compound_literal.283
 4202 1054 01000000 		.word	1
 4203 1058 00000000 		.word	__compound_literal.284
 4204 105c 01000000 		.word	1
 4205 1060 00000000 		.word	__compound_literal.285
 4206 1064 C6080000 		.word	.LC112
 4207 1068 00900000 		.word	36864
 4208 106c 49000000 		.word	73
 4209 1070 40048400 		.word	8651840
 4210 1074 04000000 		.word	4
 4211 1078 00000000 		.word	__compound_literal.286
 4212 107c 01000000 		.word	1
 4213 1080 00000000 		.word	__compound_literal.287
 4214 1084 01000000 		.word	1
 4215 1088 00000000 		.word	__compound_literal.288
 4216 108c D4080000 		.word	.LC113
 4217 1090 00900000 		.word	36864
 4218 1094 49000000 		.word	73
 4219 1098 40048400 		.word	8651840
 4220 109c 04000000 		.word	4
 4221 10a0 00000000 		.word	__compound_literal.289
ARM GAS  C:\Users\DJESSOU\AppData\Local\Temp\ccruImXQ.s 			page 121


 4222 10a4 01000000 		.word	1
 4223 10a8 00000000 		.word	__compound_literal.290
 4224 10ac 01000000 		.word	1
 4225 10b0 00000000 		.word	__compound_literal.291
 4226 10b4 F1080000 		.word	.LC114
 4227 10b8 00200100 		.word	73728
 4228 10bc 49000000 		.word	73
 4229 10c0 4F088400 		.word	8652879
 4230 10c4 04000000 		.word	4
 4231 10c8 00000000 		.word	__compound_literal.292
 4232 10cc 00000000 		.word	0
 4233 10d0 00000000 		.word	0
 4234 10d4 00000000 		.word	0
 4235 10d8 00000000 		.word	0
 4236 10dc 01090000 		.word	.LC115
 4237 10e0 00900000 		.word	36864
 4238 10e4 89000000 		.word	137
 4239 10e8 40048400 		.word	8651840
 4240 10ec 04000000 		.word	4
 4241 10f0 00000000 		.word	__compound_literal.293
 4242 10f4 01000000 		.word	1
 4243 10f8 00000000 		.word	__compound_literal.294
 4244 10fc 01000000 		.word	1
 4245 1100 00000000 		.word	__compound_literal.295
 4246 1104 0A090000 		.word	.LC116
 4247 1108 00900000 		.word	36864
 4248 110c 89000000 		.word	137
 4249 1110 40048400 		.word	8651840
 4250 1114 04000000 		.word	4
 4251 1118 00000000 		.word	__compound_literal.296
 4252 111c 01000000 		.word	1
 4253 1120 00000000 		.word	__compound_literal.297
 4254 1124 01000000 		.word	1
 4255 1128 00000000 		.word	__compound_literal.298
 4256 112c 26090000 		.word	.LC117
 4257 1130 00900000 		.word	36864
 4258 1134 49000000 		.word	73
 4259 1138 40048400 		.word	8651840
 4260 113c 04000000 		.word	4
 4261 1140 00000000 		.word	__compound_literal.299
 4262 1144 01000000 		.word	1
 4263 1148 00000000 		.word	__compound_literal.300
 4264 114c 01000000 		.word	1
 4265 1150 00000000 		.word	__compound_literal.301
 4266 1154 42090000 		.word	.LC118
 4267 1158 00900000 		.word	36864
 4268 115c 49000000 		.word	73
 4269 1160 40048400 		.word	8651840
 4270 1164 04000000 		.word	4
 4271 1168 00000000 		.word	__compound_literal.302
 4272 116c 01000000 		.word	1
 4273 1170 00000000 		.word	__compound_literal.303
 4274 1174 01000000 		.word	1
 4275 1178 00000000 		.word	__compound_literal.304
 4276 117c 50090000 		.word	.LC119
 4277 1180 00900000 		.word	36864
 4278 1184 49000000 		.word	73
ARM GAS  C:\Users\DJESSOU\AppData\Local\Temp\ccruImXQ.s 			page 122


 4279 1188 40048400 		.word	8651840
 4280 118c 04000000 		.word	4
 4281 1190 00000000 		.word	__compound_literal.305
 4282 1194 01000000 		.word	1
 4283 1198 00000000 		.word	__compound_literal.306
 4284 119c 01000000 		.word	1
 4285 11a0 00000000 		.word	__compound_literal.307
 4286 11a4 6D090000 		.word	.LC120
 4287 11a8 00200100 		.word	73728
 4288 11ac 49000000 		.word	73
 4289 11b0 4F088400 		.word	8652879
 4290 11b4 04000000 		.word	4
 4291 11b8 00000000 		.word	__compound_literal.308
 4292 11bc 00000000 		.word	0
 4293 11c0 00000000 		.word	0
 4294 11c4 00000000 		.word	0
 4295 11c8 00000000 		.word	0
 4296 11cc 7D090000 		.word	.LC121
 4297 11d0 00900000 		.word	36864
 4298 11d4 89000000 		.word	137
 4299 11d8 40048400 		.word	8651840
 4300 11dc 04000000 		.word	4
 4301 11e0 00000000 		.word	__compound_literal.309
 4302 11e4 01000000 		.word	1
 4303 11e8 00000000 		.word	__compound_literal.310
 4304 11ec 01000000 		.word	1
 4305 11f0 00000000 		.word	__compound_literal.311
 4306 11f4 86090000 		.word	.LC122
 4307 11f8 00200100 		.word	73728
 4308 11fc 09010000 		.word	265
 4309 1200 4F088400 		.word	8652879
 4310 1204 05000000 		.word	5
 4311 1208 00000000 		.word	__compound_literal.312
 4312 120c 00000000 		.word	0
 4313 1210 00000000 		.word	0
 4314 1214 00000000 		.word	0
 4315 1218 00000000 		.word	0
 4316 121c A2090000 		.word	.LC123
 4317 1220 00900000 		.word	36864
 4318 1224 89000000 		.word	137
 4319 1228 40048400 		.word	8651840
 4320 122c 04000000 		.word	4
 4321 1230 00000000 		.word	__compound_literal.313
 4322 1234 01000000 		.word	1
 4323 1238 00000000 		.word	__compound_literal.314
 4324 123c 01000000 		.word	1
 4325 1240 00000000 		.word	__compound_literal.315
 4326 1244 D1090000 		.word	.LC124
 4327 1248 00900000 		.word	36864
 4328 124c 49000000 		.word	73
 4329 1250 40048400 		.word	8651840
 4330 1254 04000000 		.word	4
 4331 1258 00000000 		.word	__compound_literal.316
 4332 125c 01000000 		.word	1
 4333 1260 00000000 		.word	__compound_literal.317
 4334 1264 01000000 		.word	1
 4335 1268 00000000 		.word	__compound_literal.318
ARM GAS  C:\Users\DJESSOU\AppData\Local\Temp\ccruImXQ.s 			page 123


 4336 126c ED090000 		.word	.LC125
 4337 1270 00900000 		.word	36864
 4338 1274 49000000 		.word	73
 4339 1278 40048400 		.word	8651840
 4340 127c 04000000 		.word	4
 4341 1280 00000000 		.word	__compound_literal.319
 4342 1284 01000000 		.word	1
 4343 1288 00000000 		.word	__compound_literal.320
 4344 128c 01000000 		.word	1
 4345 1290 00000000 		.word	__compound_literal.321
 4346 1294 FB090000 		.word	.LC126
 4347 1298 00900000 		.word	36864
 4348 129c 49000000 		.word	73
 4349 12a0 40048400 		.word	8651840
 4350 12a4 04000000 		.word	4
 4351 12a8 00000000 		.word	__compound_literal.322
 4352 12ac 01000000 		.word	1
 4353 12b0 00000000 		.word	__compound_literal.323
 4354 12b4 01000000 		.word	1
 4355 12b8 00000000 		.word	__compound_literal.324
 4356 12bc 180A0000 		.word	.LC127
 4357 12c0 00200100 		.word	73728
 4358 12c4 49000000 		.word	73
 4359 12c8 4F088400 		.word	8652879
 4360 12cc 04000000 		.word	4
 4361 12d0 00000000 		.word	__compound_literal.325
 4362 12d4 00000000 		.word	0
 4363 12d8 00000000 		.word	0
 4364 12dc 00000000 		.word	0
 4365 12e0 00000000 		.word	0
 4366 12e4 280A0000 		.word	.LC128
 4367 12e8 00900000 		.word	36864
 4368 12ec 89000000 		.word	137
 4369 12f0 40048400 		.word	8651840
 4370 12f4 04000000 		.word	4
 4371 12f8 00000000 		.word	__compound_literal.326
 4372 12fc 01000000 		.word	1
 4373 1300 00000000 		.word	__compound_literal.327
 4374 1304 01000000 		.word	1
 4375 1308 00000000 		.word	__compound_literal.328
 4376 130c 310A0000 		.word	.LC129
 4377 1310 00200100 		.word	73728
 4378 1314 09010000 		.word	265
 4379 1318 4F088400 		.word	8652879
 4380 131c 05000000 		.word	5
 4381 1320 00000000 		.word	__compound_literal.329
 4382 1324 00000000 		.word	0
 4383 1328 00000000 		.word	0
 4384 132c 00000000 		.word	0
 4385 1330 00000000 		.word	0
 4386 1334 4D0A0000 		.word	.LC130
 4387 1338 00900000 		.word	36864
 4388 133c 89000000 		.word	137
 4389 1340 40048400 		.word	8651840
 4390 1344 04000000 		.word	4
 4391 1348 00000000 		.word	__compound_literal.330
 4392 134c 01000000 		.word	1
ARM GAS  C:\Users\DJESSOU\AppData\Local\Temp\ccruImXQ.s 			page 124


 4393 1350 00000000 		.word	__compound_literal.331
 4394 1354 01000000 		.word	1
 4395 1358 00000000 		.word	__compound_literal.332
 4396 135c 7C0A0000 		.word	.LC131
 4397 1360 00900000 		.word	36864
 4398 1364 49000000 		.word	73
 4399 1368 40048400 		.word	8651840
 4400 136c 04000000 		.word	4
 4401 1370 00000000 		.word	__compound_literal.333
 4402 1374 01000000 		.word	1
 4403 1378 00000000 		.word	__compound_literal.334
 4404 137c 01000000 		.word	1
 4405 1380 00000000 		.word	__compound_literal.335
 4406 1384 980A0000 		.word	.LC132
 4407 1388 00900000 		.word	36864
 4408 138c 49000000 		.word	73
 4409 1390 40048400 		.word	8651840
 4410 1394 04000000 		.word	4
 4411 1398 00000000 		.word	__compound_literal.336
 4412 139c 01000000 		.word	1
 4413 13a0 00000000 		.word	__compound_literal.337
 4414 13a4 01000000 		.word	1
 4415 13a8 00000000 		.word	__compound_literal.338
 4416 13ac A60A0000 		.word	.LC133
 4417 13b0 00900000 		.word	36864
 4418 13b4 49000000 		.word	73
 4419 13b8 40048400 		.word	8651840
 4420 13bc 04000000 		.word	4
 4421 13c0 00000000 		.word	__compound_literal.339
 4422 13c4 01000000 		.word	1
 4423 13c8 00000000 		.word	__compound_literal.340
 4424 13cc 01000000 		.word	1
 4425 13d0 00000000 		.word	__compound_literal.341
 4426 13d4 C30A0000 		.word	.LC134
 4427 13d8 00200100 		.word	73728
 4428 13dc 49000000 		.word	73
 4429 13e0 4F088400 		.word	8652879
 4430 13e4 04000000 		.word	4
 4431 13e8 00000000 		.word	__compound_literal.342
 4432 13ec 00000000 		.word	0
 4433 13f0 00000000 		.word	0
 4434 13f4 00000000 		.word	0
 4435 13f8 00000000 		.word	0
 4436 13fc D30A0000 		.word	.LC135
 4437 1400 00900000 		.word	36864
 4438 1404 89000000 		.word	137
 4439 1408 40048400 		.word	8651840
 4440 140c 04000000 		.word	4
 4441 1410 00000000 		.word	__compound_literal.343
 4442 1414 01000000 		.word	1
 4443 1418 00000000 		.word	__compound_literal.344
 4444 141c 01000000 		.word	1
 4445 1420 00000000 		.word	__compound_literal.345
 4446 1424 DC0A0000 		.word	.LC136
 4447 1428 00200100 		.word	73728
 4448 142c 09010000 		.word	265
 4449 1430 4F088400 		.word	8652879
ARM GAS  C:\Users\DJESSOU\AppData\Local\Temp\ccruImXQ.s 			page 125


 4450 1434 05000000 		.word	5
 4451 1438 00000000 		.word	__compound_literal.346
 4452 143c 00000000 		.word	0
 4453 1440 00000000 		.word	0
 4454 1444 00000000 		.word	0
 4455 1448 00000000 		.word	0
 4456 144c F80A0000 		.word	.LC137
 4457 1450 00900000 		.word	36864
 4458 1454 89000000 		.word	137
 4459 1458 40048400 		.word	8651840
 4460 145c 04000000 		.word	4
 4461 1460 00000000 		.word	__compound_literal.347
 4462 1464 01000000 		.word	1
 4463 1468 00000000 		.word	__compound_literal.348
 4464 146c 01000000 		.word	1
 4465 1470 00000000 		.word	__compound_literal.349
 4466 1474 270B0000 		.word	.LC138
 4467 1478 00900000 		.word	36864
 4468 147c 49000000 		.word	73
 4469 1480 40048400 		.word	8651840
 4470 1484 04000000 		.word	4
 4471 1488 00000000 		.word	__compound_literal.350
 4472 148c 01000000 		.word	1
 4473 1490 00000000 		.word	__compound_literal.351
 4474 1494 01000000 		.word	1
 4475 1498 00000000 		.word	__compound_literal.352
 4476 149c 430B0000 		.word	.LC139
 4477 14a0 00900000 		.word	36864
 4478 14a4 49000000 		.word	73
 4479 14a8 40048400 		.word	8651840
 4480 14ac 04000000 		.word	4
 4481 14b0 00000000 		.word	__compound_literal.353
 4482 14b4 01000000 		.word	1
 4483 14b8 00000000 		.word	__compound_literal.354
 4484 14bc 01000000 		.word	1
 4485 14c0 00000000 		.word	__compound_literal.355
 4486 14c4 510B0000 		.word	.LC140
 4487 14c8 00900000 		.word	36864
 4488 14cc 49000000 		.word	73
 4489 14d0 40048400 		.word	8651840
 4490 14d4 04000000 		.word	4
 4491 14d8 00000000 		.word	__compound_literal.356
 4492 14dc 01000000 		.word	1
 4493 14e0 00000000 		.word	__compound_literal.357
 4494 14e4 01000000 		.word	1
 4495 14e8 00000000 		.word	__compound_literal.358
 4496 14ec 6E0B0000 		.word	.LC141
 4497 14f0 00480000 		.word	18432
 4498 14f4 49000000 		.word	73
 4499 14f8 4F088400 		.word	8652879
 4500 14fc 04000000 		.word	4
 4501 1500 00000000 		.word	__compound_literal.359
 4502 1504 00000000 		.word	0
 4503 1508 00000000 		.word	0
 4504 150c 00000000 		.word	0
 4505 1510 00000000 		.word	0
 4506 1514 7E0B0000 		.word	.LC142
ARM GAS  C:\Users\DJESSOU\AppData\Local\Temp\ccruImXQ.s 			page 126


 4507 1518 00240000 		.word	9216
 4508 151c 89000000 		.word	137
 4509 1520 40048400 		.word	8651840
 4510 1524 04000000 		.word	4
 4511 1528 00000000 		.word	__compound_literal.360
 4512 152c 01000000 		.word	1
 4513 1530 00000000 		.word	__compound_literal.361
 4514 1534 01000000 		.word	1
 4515 1538 00000000 		.word	__compound_literal.362
 4516 153c 870B0000 		.word	.LC143
 4517 1540 00480000 		.word	18432
 4518 1544 09010000 		.word	265
 4519 1548 4F088400 		.word	8652879
 4520 154c 05000000 		.word	5
 4521 1550 00000000 		.word	__compound_literal.363
 4522 1554 00000000 		.word	0
 4523 1558 00000000 		.word	0
 4524 155c 00000000 		.word	0
 4525 1560 00000000 		.word	0
 4526 1564 A30B0000 		.word	.LC144
 4527 1568 00240000 		.word	9216
 4528 156c 89000000 		.word	137
 4529 1570 40048400 		.word	8651840
 4530 1574 04000000 		.word	4
 4531 1578 00000000 		.word	__compound_literal.364
 4532 157c 01000000 		.word	1
 4533 1580 00000000 		.word	__compound_literal.365
 4534 1584 01000000 		.word	1
 4535 1588 00000000 		.word	__compound_literal.366
 4536 158c D20B0000 		.word	.LC145
 4537 1590 00240000 		.word	9216
 4538 1594 49000000 		.word	73
 4539 1598 40048400 		.word	8651840
 4540 159c 04000000 		.word	4
 4541 15a0 00000000 		.word	__compound_literal.367
 4542 15a4 01000000 		.word	1
 4543 15a8 00000000 		.word	__compound_literal.368
 4544 15ac 01000000 		.word	1
 4545 15b0 00000000 		.word	__compound_literal.369
 4546 15b4 EE0B0000 		.word	.LC146
 4547 15b8 00240000 		.word	9216
 4548 15bc 49000000 		.word	73
 4549 15c0 40048400 		.word	8651840
 4550 15c4 04000000 		.word	4
 4551 15c8 00000000 		.word	__compound_literal.370
 4552 15cc 01000000 		.word	1
 4553 15d0 00000000 		.word	__compound_literal.371
 4554 15d4 01000000 		.word	1
 4555 15d8 00000000 		.word	__compound_literal.372
 4556 15dc 000C0000 		.word	.LC147
 4557 15e0 00240000 		.word	9216
 4558 15e4 49000000 		.word	73
 4559 15e8 40048400 		.word	8651840
 4560 15ec 04000000 		.word	4
 4561 15f0 00000000 		.word	__compound_literal.373
 4562 15f4 01000000 		.word	1
 4563 15f8 00000000 		.word	__compound_literal.374
ARM GAS  C:\Users\DJESSOU\AppData\Local\Temp\ccruImXQ.s 			page 127


 4564 15fc 01000000 		.word	1
 4565 1600 00000000 		.word	__compound_literal.375
 4566 1604 0E0C0000 		.word	.LC148
 4567 1608 00240000 		.word	9216
 4568 160c 49000000 		.word	73
 4569 1610 40048400 		.word	8651840
 4570 1614 04000000 		.word	4
 4571 1618 00000000 		.word	__compound_literal.376
 4572 161c 01000000 		.word	1
 4573 1620 00000000 		.word	__compound_literal.377
 4574 1624 01000000 		.word	1
 4575 1628 00000000 		.word	__compound_literal.378
 4576 162c 2B0C0000 		.word	.LC149
 4577 1630 00480000 		.word	18432
 4578 1634 49000000 		.word	73
 4579 1638 4F088400 		.word	8652879
 4580 163c 04000000 		.word	4
 4581 1640 00000000 		.word	__compound_literal.379
 4582 1644 00000000 		.word	0
 4583 1648 00000000 		.word	0
 4584 164c 00000000 		.word	0
 4585 1650 00000000 		.word	0
 4586 1654 3B0C0000 		.word	.LC150
 4587 1658 00240000 		.word	9216
 4588 165c 89000000 		.word	137
 4589 1660 40048400 		.word	8651840
 4590 1664 04000000 		.word	4
 4591 1668 00000000 		.word	__compound_literal.380
 4592 166c 01000000 		.word	1
 4593 1670 00000000 		.word	__compound_literal.381
 4594 1674 01000000 		.word	1
 4595 1678 00000000 		.word	__compound_literal.382
 4596 167c 440C0000 		.word	.LC151
 4597 1680 00480000 		.word	18432
 4598 1684 09010000 		.word	265
 4599 1688 4F088400 		.word	8652879
 4600 168c 05000000 		.word	5
 4601 1690 00000000 		.word	__compound_literal.383
 4602 1694 00000000 		.word	0
 4603 1698 00000000 		.word	0
 4604 169c 00000000 		.word	0
 4605 16a0 00000000 		.word	0
 4606 16a4 600C0000 		.word	.LC152
 4607 16a8 00240000 		.word	9216
 4608 16ac 89000000 		.word	137
 4609 16b0 40048400 		.word	8651840
 4610 16b4 04000000 		.word	4
 4611 16b8 00000000 		.word	__compound_literal.384
 4612 16bc 01000000 		.word	1
 4613 16c0 00000000 		.word	__compound_literal.385
 4614 16c4 01000000 		.word	1
 4615 16c8 00000000 		.word	__compound_literal.386
 4616 16cc 8F0C0000 		.word	.LC153
 4617 16d0 00240000 		.word	9216
 4618 16d4 49000000 		.word	73
 4619 16d8 40048400 		.word	8651840
 4620 16dc 04000000 		.word	4
ARM GAS  C:\Users\DJESSOU\AppData\Local\Temp\ccruImXQ.s 			page 128


 4621 16e0 00000000 		.word	__compound_literal.387
 4622 16e4 01000000 		.word	1
 4623 16e8 00000000 		.word	__compound_literal.388
 4624 16ec 01000000 		.word	1
 4625 16f0 00000000 		.word	__compound_literal.389
 4626 16f4 AB0C0000 		.word	.LC154
 4627 16f8 00240000 		.word	9216
 4628 16fc 49000000 		.word	73
 4629 1700 40048400 		.word	8651840
 4630 1704 04000000 		.word	4
 4631 1708 00000000 		.word	__compound_literal.390
 4632 170c 01000000 		.word	1
 4633 1710 00000000 		.word	__compound_literal.391
 4634 1714 01000000 		.word	1
 4635 1718 00000000 		.word	__compound_literal.392
 4636 171c B90C0000 		.word	.LC155
 4637 1720 00240000 		.word	9216
 4638 1724 49000000 		.word	73
 4639 1728 40048400 		.word	8651840
 4640 172c 04000000 		.word	4
 4641 1730 00000000 		.word	__compound_literal.393
 4642 1734 01000000 		.word	1
 4643 1738 00000000 		.word	__compound_literal.394
 4644 173c 01000000 		.word	1
 4645 1740 00000000 		.word	__compound_literal.395
 4646 1744 D60C0000 		.word	.LC156
 4647 1748 00480000 		.word	18432
 4648 174c 49000000 		.word	73
 4649 1750 4F088400 		.word	8652879
 4650 1754 04000000 		.word	4
 4651 1758 00000000 		.word	__compound_literal.396
 4652 175c 00000000 		.word	0
 4653 1760 00000000 		.word	0
 4654 1764 00000000 		.word	0
 4655 1768 00000000 		.word	0
 4656 176c E60C0000 		.word	.LC157
 4657 1770 00240000 		.word	9216
 4658 1774 89000000 		.word	137
 4659 1778 40048400 		.word	8651840
 4660 177c 04000000 		.word	4
 4661 1780 00000000 		.word	__compound_literal.397
 4662 1784 01000000 		.word	1
 4663 1788 00000000 		.word	__compound_literal.398
 4664 178c 01000000 		.word	1
 4665 1790 00000000 		.word	__compound_literal.399
 4666 1794 EF0C0000 		.word	.LC158
 4667 1798 00480000 		.word	18432
 4668 179c 09010000 		.word	265
 4669 17a0 4F088400 		.word	8652879
 4670 17a4 05000000 		.word	5
 4671 17a8 00000000 		.word	__compound_literal.400
 4672 17ac 00000000 		.word	0
 4673 17b0 00000000 		.word	0
 4674 17b4 00000000 		.word	0
 4675 17b8 00000000 		.word	0
 4676 17bc 0B0D0000 		.word	.LC159
 4677 17c0 00240000 		.word	9216
ARM GAS  C:\Users\DJESSOU\AppData\Local\Temp\ccruImXQ.s 			page 129


 4678 17c4 89000000 		.word	137
 4679 17c8 40048400 		.word	8651840
 4680 17cc 04000000 		.word	4
 4681 17d0 00000000 		.word	__compound_literal.401
 4682 17d4 01000000 		.word	1
 4683 17d8 00000000 		.word	__compound_literal.402
 4684 17dc 01000000 		.word	1
 4685 17e0 00000000 		.word	__compound_literal.403
 4686 17e4 3A0D0000 		.word	.LC160
 4687 17e8 00240000 		.word	9216
 4688 17ec 49000000 		.word	73
 4689 17f0 40048400 		.word	8651840
 4690 17f4 04000000 		.word	4
 4691 17f8 00000000 		.word	__compound_literal.404
 4692 17fc 01000000 		.word	1
 4693 1800 00000000 		.word	__compound_literal.405
 4694 1804 01000000 		.word	1
 4695 1808 00000000 		.word	__compound_literal.406
 4696 180c 560D0000 		.word	.LC161
 4697 1810 00240000 		.word	9216
 4698 1814 49000000 		.word	73
 4699 1818 40048400 		.word	8651840
 4700 181c 04000000 		.word	4
 4701 1820 00000000 		.word	__compound_literal.407
 4702 1824 01000000 		.word	1
 4703 1828 00000000 		.word	__compound_literal.408
 4704 182c 01000000 		.word	1
 4705 1830 00000000 		.word	__compound_literal.409
 4706 1834 640D0000 		.word	.LC162
 4707 1838 00240000 		.word	9216
 4708 183c 49000000 		.word	73
 4709 1840 40048400 		.word	8651840
 4710 1844 04000000 		.word	4
 4711 1848 00000000 		.word	__compound_literal.410
 4712 184c 01000000 		.word	1
 4713 1850 00000000 		.word	__compound_literal.411
 4714 1854 01000000 		.word	1
 4715 1858 00000000 		.word	__compound_literal.412
 4716 185c 810D0000 		.word	.LC163
 4717 1860 00480000 		.word	18432
 4718 1864 49000000 		.word	73
 4719 1868 4F088400 		.word	8652879
 4720 186c 04000000 		.word	4
 4721 1870 00000000 		.word	__compound_literal.413
 4722 1874 00000000 		.word	0
 4723 1878 00000000 		.word	0
 4724 187c 00000000 		.word	0
 4725 1880 00000000 		.word	0
 4726 1884 910D0000 		.word	.LC164
 4727 1888 00240000 		.word	9216
 4728 188c 89000000 		.word	137
 4729 1890 40048400 		.word	8651840
 4730 1894 04000000 		.word	4
 4731 1898 00000000 		.word	__compound_literal.414
 4732 189c 01000000 		.word	1
 4733 18a0 00000000 		.word	__compound_literal.415
 4734 18a4 01000000 		.word	1
ARM GAS  C:\Users\DJESSOU\AppData\Local\Temp\ccruImXQ.s 			page 130


 4735 18a8 00000000 		.word	__compound_literal.416
 4736 18ac 9A0D0000 		.word	.LC165
 4737 18b0 00480000 		.word	18432
 4738 18b4 09010000 		.word	265
 4739 18b8 4F088400 		.word	8652879
 4740 18bc 05000000 		.word	5
 4741 18c0 00000000 		.word	__compound_literal.417
 4742 18c4 00000000 		.word	0
 4743 18c8 00000000 		.word	0
 4744 18cc 00000000 		.word	0
 4745 18d0 00000000 		.word	0
 4746 18d4 B60D0000 		.word	.LC166
 4747 18d8 00240000 		.word	9216
 4748 18dc 89000000 		.word	137
 4749 18e0 40048400 		.word	8651840
 4750 18e4 04000000 		.word	4
 4751 18e8 00000000 		.word	__compound_literal.418
 4752 18ec 01000000 		.word	1
 4753 18f0 00000000 		.word	__compound_literal.419
 4754 18f4 01000000 		.word	1
 4755 18f8 00000000 		.word	__compound_literal.420
 4756 18fc E50D0000 		.word	.LC167
 4757 1900 00240000 		.word	9216
 4758 1904 49000000 		.word	73
 4759 1908 40048400 		.word	8651840
 4760 190c 04000000 		.word	4
 4761 1910 00000000 		.word	__compound_literal.421
 4762 1914 01000000 		.word	1
 4763 1918 00000000 		.word	__compound_literal.422
 4764 191c 01000000 		.word	1
 4765 1920 00000000 		.word	__compound_literal.423
 4766 1924 010E0000 		.word	.LC168
 4767 1928 00240000 		.word	9216
 4768 192c 49000000 		.word	73
 4769 1930 40048400 		.word	8651840
 4770 1934 04000000 		.word	4
 4771 1938 00000000 		.word	__compound_literal.424
 4772 193c 01000000 		.word	1
 4773 1940 00000000 		.word	__compound_literal.425
 4774 1944 01000000 		.word	1
 4775 1948 00000000 		.word	__compound_literal.426
 4776 194c 0F0E0000 		.word	.LC169
 4777 1950 00240000 		.word	9216
 4778 1954 49000000 		.word	73
 4779 1958 40048400 		.word	8651840
 4780 195c 04000000 		.word	4
 4781 1960 00000000 		.word	__compound_literal.427
 4782 1964 01000000 		.word	1
 4783 1968 00000000 		.word	__compound_literal.428
 4784 196c 01000000 		.word	1
 4785 1970 00000000 		.word	__compound_literal.429
 4786 1974 2C0E0000 		.word	.LC170
 4787 1978 00480000 		.word	18432
 4788 197c 49000000 		.word	73
 4789 1980 4F088400 		.word	8652879
 4790 1984 04000000 		.word	4
 4791 1988 00000000 		.word	__compound_literal.430
ARM GAS  C:\Users\DJESSOU\AppData\Local\Temp\ccruImXQ.s 			page 131


 4792 198c 00000000 		.word	0
 4793 1990 00000000 		.word	0
 4794 1994 00000000 		.word	0
 4795 1998 00000000 		.word	0
 4796 199c 3C0E0000 		.word	.LC171
 4797 19a0 00240000 		.word	9216
 4798 19a4 89000000 		.word	137
 4799 19a8 40048400 		.word	8651840
 4800 19ac 04000000 		.word	4
 4801 19b0 00000000 		.word	__compound_literal.431
 4802 19b4 01000000 		.word	1
 4803 19b8 00000000 		.word	__compound_literal.432
 4804 19bc 01000000 		.word	1
 4805 19c0 00000000 		.word	__compound_literal.433
 4806 19c4 450E0000 		.word	.LC172
 4807 19c8 00480000 		.word	18432
 4808 19cc 09010000 		.word	265
 4809 19d0 4F088400 		.word	8652879
 4810 19d4 05000000 		.word	5
 4811 19d8 00000000 		.word	__compound_literal.434
 4812 19dc 00000000 		.word	0
 4813 19e0 00000000 		.word	0
 4814 19e4 00000000 		.word	0
 4815 19e8 00000000 		.word	0
 4816 19ec 610E0000 		.word	.LC173
 4817 19f0 00240000 		.word	9216
 4818 19f4 89000000 		.word	137
 4819 19f8 40048400 		.word	8651840
 4820 19fc 04000000 		.word	4
 4821 1a00 00000000 		.word	__compound_literal.435
 4822 1a04 01000000 		.word	1
 4823 1a08 00000000 		.word	__compound_literal.436
 4824 1a0c 01000000 		.word	1
 4825 1a10 00000000 		.word	__compound_literal.437
 4826 1a14 900E0000 		.word	.LC174
 4827 1a18 00240000 		.word	9216
 4828 1a1c 49000000 		.word	73
 4829 1a20 40048400 		.word	8651840
 4830 1a24 04000000 		.word	4
 4831 1a28 00000000 		.word	__compound_literal.438
 4832 1a2c 01000000 		.word	1
 4833 1a30 00000000 		.word	__compound_literal.439
 4834 1a34 01000000 		.word	1
 4835 1a38 00000000 		.word	__compound_literal.440
 4836 1a3c AC0E0000 		.word	.LC175
 4837 1a40 00240000 		.word	9216
 4838 1a44 49000000 		.word	73
 4839 1a48 40048400 		.word	8651840
 4840 1a4c 04000000 		.word	4
 4841 1a50 00000000 		.word	__compound_literal.441
 4842 1a54 01000000 		.word	1
 4843 1a58 00000000 		.word	__compound_literal.442
 4844 1a5c 01000000 		.word	1
 4845 1a60 00000000 		.word	__compound_literal.443
 4846 1a64 BA0E0000 		.word	.LC176
 4847 1a68 00240000 		.word	9216
 4848 1a6c 89000000 		.word	137
ARM GAS  C:\Users\DJESSOU\AppData\Local\Temp\ccruImXQ.s 			page 132


 4849 1a70 40048400 		.word	8651840
 4850 1a74 04000000 		.word	4
 4851 1a78 00000000 		.word	__compound_literal.444
 4852 1a7c 01000000 		.word	1
 4853 1a80 00000000 		.word	__compound_literal.445
 4854 1a84 01000000 		.word	1
 4855 1a88 00000000 		.word	__compound_literal.446
 4856 1a8c D70E0000 		.word	.LC177
 4857 1a90 00900000 		.word	36864
 4858 1a94 89000000 		.word	137
 4859 1a98 40048400 		.word	8651840
 4860 1a9c 04000000 		.word	4
 4861 1aa0 00000000 		.word	__compound_literal.447
 4862 1aa4 01000000 		.word	1
 4863 1aa8 00000000 		.word	__compound_literal.448
 4864 1aac 01000000 		.word	1
 4865 1ab0 00000000 		.word	__compound_literal.449
 4866 1ab4 E70E0000 		.word	.LC178
 4867 1ab8 00200100 		.word	73728
 4868 1abc 09010000 		.word	265
 4869 1ac0 4F088400 		.word	8652879
 4870 1ac4 05000000 		.word	5
 4871 1ac8 00000000 		.word	__compound_literal.450
 4872 1acc 00000000 		.word	0
 4873 1ad0 00000000 		.word	0
 4874 1ad4 00000000 		.word	0
 4875 1ad8 00000000 		.word	0
 4876 1adc F80E0000 		.word	.LC179
 4877 1ae0 00900000 		.word	36864
 4878 1ae4 09010000 		.word	265
 4879 1ae8 40048400 		.word	8651840
 4880 1aec 05000000 		.word	5
 4881 1af0 00000000 		.word	__compound_literal.451
 4882 1af4 01000000 		.word	1
 4883 1af8 00000000 		.word	__compound_literal.452
 4884 1afc 01000000 		.word	1
 4885 1b00 00000000 		.word	__compound_literal.453
 4886 1b04 270F0000 		.word	.LC180
 4887 1b08 00900000 		.word	36864
 4888 1b0c 09010000 		.word	265
 4889 1b10 40048400 		.word	8651840
 4890 1b14 05000000 		.word	5
 4891 1b18 00000000 		.word	__compound_literal.454
 4892 1b1c 01000000 		.word	1
 4893 1b20 00000000 		.word	__compound_literal.455
 4894 1b24 01000000 		.word	1
 4895 1b28 00000000 		.word	__compound_literal.456
 4896 1b2c 430F0000 		.word	.LC181
 4897 1b30 00900000 		.word	36864
 4898 1b34 89000000 		.word	137
 4899 1b38 40048400 		.word	8651840
 4900 1b3c 04000000 		.word	4
 4901 1b40 00000000 		.word	__compound_literal.457
 4902 1b44 01000000 		.word	1
 4903 1b48 00000000 		.word	__compound_literal.458
 4904 1b4c 01000000 		.word	1
 4905 1b50 00000000 		.word	__compound_literal.459
ARM GAS  C:\Users\DJESSOU\AppData\Local\Temp\ccruImXQ.s 			page 133


 4906 1b54 600F0000 		.word	.LC182
 4907 1b58 00900000 		.word	36864
 4908 1b5c 49000000 		.word	73
 4909 1b60 40048400 		.word	8651840
 4910 1b64 04000000 		.word	4
 4911 1b68 00000000 		.word	__compound_literal.460
 4912 1b6c 01000000 		.word	1
 4913 1b70 00000000 		.word	__compound_literal.461
 4914 1b74 01000000 		.word	1
 4915 1b78 00000000 		.word	__compound_literal.462
 4916 1b7c 700F0000 		.word	.LC183
 4917 1b80 00200100 		.word	73728
 4918 1b84 49000000 		.word	73
 4919 1b88 4F088400 		.word	8652879
 4920 1b8c 04000000 		.word	4
 4921 1b90 00000000 		.word	__compound_literal.463
 4922 1b94 00000000 		.word	0
 4923 1b98 00000000 		.word	0
 4924 1b9c 00000000 		.word	0
 4925 1ba0 00000000 		.word	0
 4926 1ba4 7E0F0000 		.word	.LC184
 4927 1ba8 00900000 		.word	36864
 4928 1bac 89000000 		.word	137
 4929 1bb0 40048400 		.word	8651840
 4930 1bb4 04000000 		.word	4
 4931 1bb8 00000000 		.word	__compound_literal.464
 4932 1bbc 01000000 		.word	1
 4933 1bc0 00000000 		.word	__compound_literal.465
 4934 1bc4 01000000 		.word	1
 4935 1bc8 00000000 		.word	__compound_literal.466
 4936 1bcc 870F0000 		.word	.LC185
 4937 1bd0 00200100 		.word	73728
 4938 1bd4 09010000 		.word	265
 4939 1bd8 4F088400 		.word	8652879
 4940 1bdc 05000000 		.word	5
 4941 1be0 00000000 		.word	__compound_literal.467
 4942 1be4 00000000 		.word	0
 4943 1be8 00000000 		.word	0
 4944 1bec 00000000 		.word	0
 4945 1bf0 00000000 		.word	0
 4946 1bf4 A30F0000 		.word	.LC186
 4947 1bf8 00900000 		.word	36864
 4948 1bfc 89000000 		.word	137
 4949 1c00 40048400 		.word	8651840
 4950 1c04 04000000 		.word	4
 4951 1c08 00000000 		.word	__compound_literal.468
 4952 1c0c 01000000 		.word	1
 4953 1c10 00000000 		.word	__compound_literal.469
 4954 1c14 01000000 		.word	1
 4955 1c18 00000000 		.word	__compound_literal.470
 4956 1c1c D20F0000 		.word	.LC187
 4957 1c20 00900000 		.word	36864
 4958 1c24 49000000 		.word	73
 4959 1c28 40048400 		.word	8651840
 4960 1c2c 04000000 		.word	4
 4961 1c30 00000000 		.word	__compound_literal.471
 4962 1c34 01000000 		.word	1
ARM GAS  C:\Users\DJESSOU\AppData\Local\Temp\ccruImXQ.s 			page 134


 4963 1c38 00000000 		.word	__compound_literal.472
 4964 1c3c 01000000 		.word	1
 4965 1c40 00000000 		.word	__compound_literal.473
 4966 1c44 EE0F0000 		.word	.LC188
 4967 1c48 00900000 		.word	36864
 4968 1c4c 49000000 		.word	73
 4969 1c50 40048400 		.word	8651840
 4970 1c54 04000000 		.word	4
 4971 1c58 00000000 		.word	__compound_literal.474
 4972 1c5c 01000000 		.word	1
 4973 1c60 00000000 		.word	__compound_literal.475
 4974 1c64 01000000 		.word	1
 4975 1c68 00000000 		.word	__compound_literal.476
 4976 1c6c FC0F0000 		.word	.LC189
 4977 1c70 00900000 		.word	36864
 4978 1c74 49000000 		.word	73
 4979 1c78 40048400 		.word	8651840
 4980 1c7c 04000000 		.word	4
 4981 1c80 00000000 		.word	__compound_literal.477
 4982 1c84 01000000 		.word	1
 4983 1c88 00000000 		.word	__compound_literal.478
 4984 1c8c 01000000 		.word	1
 4985 1c90 00000000 		.word	__compound_literal.479
 4986 1c94 19100000 		.word	.LC190
 4987 1c98 00200100 		.word	73728
 4988 1c9c 49000000 		.word	73
 4989 1ca0 4F088400 		.word	8652879
 4990 1ca4 04000000 		.word	4
 4991 1ca8 00000000 		.word	__compound_literal.480
 4992 1cac 00000000 		.word	0
 4993 1cb0 00000000 		.word	0
 4994 1cb4 00000000 		.word	0
 4995 1cb8 00000000 		.word	0
 4996 1cbc 29100000 		.word	.LC191
 4997 1cc0 00900000 		.word	36864
 4998 1cc4 89000000 		.word	137
 4999 1cc8 40048400 		.word	8651840
 5000 1ccc 04000000 		.word	4
 5001 1cd0 00000000 		.word	__compound_literal.481
 5002 1cd4 01000000 		.word	1
 5003 1cd8 00000000 		.word	__compound_literal.482
 5004 1cdc 01000000 		.word	1
 5005 1ce0 00000000 		.word	__compound_literal.483
 5006 1ce4 32100000 		.word	.LC192
 5007 1ce8 00200100 		.word	73728
 5008 1cec 09010000 		.word	265
 5009 1cf0 4F088400 		.word	8652879
 5010 1cf4 05000000 		.word	5
 5011 1cf8 00000000 		.word	__compound_literal.484
 5012 1cfc 00000000 		.word	0
 5013 1d00 00000000 		.word	0
 5014 1d04 00000000 		.word	0
 5015 1d08 00000000 		.word	0
 5016 1d0c 4E100000 		.word	.LC193
 5017 1d10 00900000 		.word	36864
 5018 1d14 89000000 		.word	137
 5019 1d18 40048400 		.word	8651840
ARM GAS  C:\Users\DJESSOU\AppData\Local\Temp\ccruImXQ.s 			page 135


 5020 1d1c 04000000 		.word	4
 5021 1d20 00000000 		.word	__compound_literal.485
 5022 1d24 01000000 		.word	1
 5023 1d28 00000000 		.word	__compound_literal.486
 5024 1d2c 01000000 		.word	1
 5025 1d30 00000000 		.word	__compound_literal.487
 5026 1d34 7D100000 		.word	.LC194
 5027 1d38 00900000 		.word	36864
 5028 1d3c 49000000 		.word	73
 5029 1d40 40048400 		.word	8651840
 5030 1d44 04000000 		.word	4
 5031 1d48 00000000 		.word	__compound_literal.488
 5032 1d4c 01000000 		.word	1
 5033 1d50 00000000 		.word	__compound_literal.489
 5034 1d54 01000000 		.word	1
 5035 1d58 00000000 		.word	__compound_literal.490
 5036 1d5c 99100000 		.word	.LC195
 5037 1d60 00900000 		.word	36864
 5038 1d64 49000000 		.word	73
 5039 1d68 40048400 		.word	8651840
 5040 1d6c 04000000 		.word	4
 5041 1d70 00000000 		.word	__compound_literal.491
 5042 1d74 01000000 		.word	1
 5043 1d78 00000000 		.word	__compound_literal.492
 5044 1d7c 01000000 		.word	1
 5045 1d80 00000000 		.word	__compound_literal.493
 5046 1d84 A7100000 		.word	.LC196
 5047 1d88 00900000 		.word	36864
 5048 1d8c 89000000 		.word	137
 5049 1d90 40048400 		.word	8651840
 5050 1d94 04000000 		.word	4
 5051 1d98 00000000 		.word	__compound_literal.494
 5052 1d9c 01000000 		.word	1
 5053 1da0 00000000 		.word	__compound_literal.495
 5054 1da4 01000000 		.word	1
 5055 1da8 00000000 		.word	__compound_literal.496
 5056 1dac C4100000 		.word	.LC197
 5057 1db0 C0060000 		.word	1728
 5058 1db4 89000000 		.word	137
 5059 1db8 4F088400 		.word	8652879
 5060 1dbc 04000000 		.word	4
 5061 1dc0 00000000 		.word	__compound_literal.497
 5062 1dc4 00000000 		.word	0
 5063 1dc8 00000000 		.word	0
 5064 1dcc 00000000 		.word	0
 5065 1dd0 00000000 		.word	0
 5066 1dd4 D4100000 		.word	.LC198
 5067 1dd8 80790000 		.word	31104
 5068 1ddc 09010000 		.word	265
 5069 1de0 4F088400 		.word	8652879
 5070 1de4 05000000 		.word	5
 5071 1de8 00000000 		.word	__compound_literal.498
 5072 1dec 00000000 		.word	0
 5073 1df0 00000000 		.word	0
 5074 1df4 00000000 		.word	0
 5075 1df8 00000000 		.word	0
 5076 1dfc 03110000 		.word	.LC199
ARM GAS  C:\Users\DJESSOU\AppData\Local\Temp\ccruImXQ.s 			page 136


 5077 1e00 C03C0000 		.word	15552
 5078 1e04 89000000 		.word	137
 5079 1e08 40048400 		.word	8651840
 5080 1e0c 04000000 		.word	4
 5081 1e10 00000000 		.word	__compound_literal.499
 5082 1e14 01000000 		.word	1
 5083 1e18 00000000 		.word	__compound_literal.500
 5084 1e1c 01000000 		.word	1
 5085 1e20 00000000 		.word	__compound_literal.501
 5086 1e24 32110000 		.word	.LC200
 5087 1e28 C03C0000 		.word	15552
 5088 1e2c 49000000 		.word	73
 5089 1e30 40048400 		.word	8651840
 5090 1e34 04000000 		.word	4
 5091 1e38 00000000 		.word	__compound_literal.502
 5092 1e3c 01000000 		.word	1
 5093 1e40 00000000 		.word	__compound_literal.503
 5094 1e44 01000000 		.word	1
 5095 1e48 00000000 		.word	__compound_literal.504
 5096 1e4c 4E110000 		.word	.LC201
 5097 1e50 C03C0000 		.word	15552
 5098 1e54 49000000 		.word	73
 5099 1e58 40048400 		.word	8651840
 5100 1e5c 04000000 		.word	4
 5101 1e60 00000000 		.word	__compound_literal.505
 5102 1e64 01000000 		.word	1
 5103 1e68 00000000 		.word	__compound_literal.506
 5104 1e6c 01000000 		.word	1
 5105 1e70 00000000 		.word	__compound_literal.507
 5106 1e74 62110000 		.word	.LC202
 5107 1e78 60030000 		.word	864
 5108 1e7c 89000000 		.word	137
 5109 1e80 40048400 		.word	8651840
 5110 1e84 04000000 		.word	4
 5111 1e88 00000000 		.word	__compound_literal.508
 5112 1e8c 01000000 		.word	1
 5113 1e90 00000000 		.word	__compound_literal.509
 5114 1e94 01000000 		.word	1
 5115 1e98 00000000 		.word	__compound_literal.510
 5116 1e9c 85110000 		.word	.LC203
 5117 1ea0 60030000 		.word	864
 5118 1ea4 49000000 		.word	73
 5119 1ea8 40048400 		.word	8651840
 5120 1eac 04000000 		.word	4
 5121 1eb0 00000000 		.word	__compound_literal.511
 5122 1eb4 01000000 		.word	1
 5123 1eb8 00000000 		.word	__compound_literal.512
 5124 1ebc 01000000 		.word	1
 5125 1ec0 00000000 		.word	__compound_literal.513
 5126 1ec4 A1110000 		.word	.LC204
 5127 1ec8 60030000 		.word	864
 5128 1ecc 89000000 		.word	137
 5129 1ed0 40048400 		.word	8651840
 5130 1ed4 03000000 		.word	3
 5131 1ed8 00000000 		.word	__compound_literal.514
 5132 1edc 01000000 		.word	1
 5133 1ee0 00000000 		.word	__compound_literal.515
ARM GAS  C:\Users\DJESSOU\AppData\Local\Temp\ccruImXQ.s 			page 137


 5134 1ee4 01000000 		.word	1
 5135 1ee8 00000000 		.word	__compound_literal.516
 5136 1eec B5110000 		.word	.LC205
 5137 1ef0 00400200 		.word	147456
 5138 1ef4 89000000 		.word	137
 5139 1ef8 40048400 		.word	8651840
 5140 1efc 04000000 		.word	4
 5141 1f00 00000000 		.word	__compound_literal.517
 5142 1f04 01000000 		.word	1
 5143 1f08 00000000 		.word	__compound_literal.518
 5144 1f0c 01000000 		.word	1
 5145 1f10 00000000 		.word	__compound_literal.519
 5146 1f14 C9110000 		.word	.LC206
 5147 1f18 00400200 		.word	147456
 5148 1f1c 09010000 		.word	265
 5149 1f20 4F088400 		.word	8652879
 5150 1f24 05000000 		.word	5
 5151 1f28 00000000 		.word	__compound_literal.520
 5152 1f2c 00000000 		.word	0
 5153 1f30 00000000 		.word	0
 5154 1f34 00000000 		.word	0
 5155 1f38 00000000 		.word	0
 5156 1f3c DA110000 		.word	.LC207
 5157 1f40 00200100 		.word	73728
 5158 1f44 09010000 		.word	265
 5159 1f48 40048400 		.word	8651840
 5160 1f4c 05000000 		.word	5
 5161 1f50 00000000 		.word	__compound_literal.521
 5162 1f54 01000000 		.word	1
 5163 1f58 00000000 		.word	__compound_literal.522
 5164 1f5c 01000000 		.word	1
 5165 1f60 00000000 		.word	__compound_literal.523
 5166 1f64 09120000 		.word	.LC208
 5167 1f68 00200100 		.word	73728
 5168 1f6c 09010000 		.word	265
 5169 1f70 40048400 		.word	8651840
 5170 1f74 05000000 		.word	5
 5171 1f78 00000000 		.word	__compound_literal.524
 5172 1f7c 01000000 		.word	1
 5173 1f80 00000000 		.word	__compound_literal.525
 5174 1f84 01000000 		.word	1
 5175 1f88 00000000 		.word	__compound_literal.526
 5176 1f8c 25120000 		.word	.LC209
 5177 1f90 C03C0000 		.word	15552
 5178 1f94 89000000 		.word	137
 5179 1f98 40048400 		.word	8651840
 5180 1f9c 04000000 		.word	4
 5181 1fa0 00000000 		.word	__compound_literal.527
 5182 1fa4 01000000 		.word	1
 5183 1fa8 00000000 		.word	__compound_literal.528
 5184 1fac 01000000 		.word	1
 5185 1fb0 00000000 		.word	__compound_literal.529
 5186 1fb4 42120000 		.word	.LC210
 5187 1fb8 C03C0000 		.word	15552
 5188 1fbc 49000000 		.word	73
 5189 1fc0 40048400 		.word	8651840
 5190 1fc4 04000000 		.word	4
ARM GAS  C:\Users\DJESSOU\AppData\Local\Temp\ccruImXQ.s 			page 138


 5191 1fc8 00000000 		.word	__compound_literal.530
 5192 1fcc 01000000 		.word	1
 5193 1fd0 00000000 		.word	__compound_literal.531
 5194 1fd4 01000000 		.word	1
 5195 1fd8 00000000 		.word	__compound_literal.532
 5196 1fdc 76120000 		.word	.LC211
 5197 1fe0 C03C0000 		.word	15552
 5198 1fe4 89000000 		.word	137
 5199 1fe8 40048400 		.word	8651840
 5200 1fec 03000000 		.word	3
 5201 1ff0 00000000 		.word	__compound_literal.533
 5202 1ff4 01000000 		.word	1
 5203 1ff8 00000000 		.word	__compound_literal.534
 5204 1ffc 01000000 		.word	1
 5205 2000 00000000 		.word	__compound_literal.535
 5206 2004 8A120000 		.word	.LC212
 5207 2008 00200100 		.word	73728
 5208 200c 89000000 		.word	137
 5209 2010 40048400 		.word	8651840
 5210 2014 04000000 		.word	4
 5211 2018 00000000 		.word	__compound_literal.536
 5212 201c 01000000 		.word	1
 5213 2020 00000000 		.word	__compound_literal.537
 5214 2024 01000000 		.word	1
 5215 2028 00000000 		.word	__compound_literal.538
 5216 202c A8120000 		.word	.LC213
 5217 2030 00200100 		.word	73728
 5218 2034 49000000 		.word	73
 5219 2038 40048400 		.word	8651840
 5220 203c 04000000 		.word	4
 5221 2040 00000000 		.word	__compound_literal.539
 5222 2044 01000000 		.word	1
 5223 2048 00000000 		.word	__compound_literal.540
 5224 204c 01000000 		.word	1
 5225 2050 00000000 		.word	__compound_literal.541
 5226 2054 B8120000 		.word	.LC214
 5227 2058 00400200 		.word	147456
 5228 205c 49000000 		.word	73
 5229 2060 4F088400 		.word	8652879
 5230 2064 04000000 		.word	4
 5231 2068 00000000 		.word	__compound_literal.542
 5232 206c 00000000 		.word	0
 5233 2070 00000000 		.word	0
 5234 2074 00000000 		.word	0
 5235 2078 00000000 		.word	0
 5236 207c C6120000 		.word	.LC215
 5237 2080 00200100 		.word	73728
 5238 2084 89000000 		.word	137
 5239 2088 40048400 		.word	8651840
 5240 208c 04000000 		.word	4
 5241 2090 00000000 		.word	__compound_literal.543
 5242 2094 01000000 		.word	1
 5243 2098 00000000 		.word	__compound_literal.544
 5244 209c 01000000 		.word	1
 5245 20a0 00000000 		.word	__compound_literal.545
 5246 20a4 CF120000 		.word	.LC216
 5247 20a8 00400200 		.word	147456
ARM GAS  C:\Users\DJESSOU\AppData\Local\Temp\ccruImXQ.s 			page 139


 5248 20ac 09010000 		.word	265
 5249 20b0 4F088400 		.word	8652879
 5250 20b4 05000000 		.word	5
 5251 20b8 00000000 		.word	__compound_literal.546
 5252 20bc 00000000 		.word	0
 5253 20c0 00000000 		.word	0
 5254 20c4 00000000 		.word	0
 5255 20c8 00000000 		.word	0
 5256 20cc EB120000 		.word	.LC217
 5257 20d0 00200100 		.word	73728
 5258 20d4 89000000 		.word	137
 5259 20d8 40048400 		.word	8651840
 5260 20dc 04000000 		.word	4
 5261 20e0 00000000 		.word	__compound_literal.547
 5262 20e4 01000000 		.word	1
 5263 20e8 00000000 		.word	__compound_literal.548
 5264 20ec 01000000 		.word	1
 5265 20f0 00000000 		.word	__compound_literal.549
 5266 20f4 1A130000 		.word	.LC218
 5267 20f8 00200100 		.word	73728
 5268 20fc 49000000 		.word	73
 5269 2100 40048400 		.word	8651840
 5270 2104 04000000 		.word	4
 5271 2108 00000000 		.word	__compound_literal.550
 5272 210c 01000000 		.word	1
 5273 2110 00000000 		.word	__compound_literal.551
 5274 2114 01000000 		.word	1
 5275 2118 00000000 		.word	__compound_literal.552
 5276 211c 36130000 		.word	.LC219
 5277 2120 00200100 		.word	73728
 5278 2124 49000000 		.word	73
 5279 2128 40048400 		.word	8651840
 5280 212c 04000000 		.word	4
 5281 2130 00000000 		.word	__compound_literal.553
 5282 2134 01000000 		.word	1
 5283 2138 00000000 		.word	__compound_literal.554
 5284 213c 01000000 		.word	1
 5285 2140 00000000 		.word	__compound_literal.555
 5286 2144 44130000 		.word	.LC220
 5287 2148 00200100 		.word	73728
 5288 214c 49000000 		.word	73
 5289 2150 40048400 		.word	8651840
 5290 2154 04000000 		.word	4
 5291 2158 00000000 		.word	__compound_literal.556
 5292 215c 01000000 		.word	1
 5293 2160 00000000 		.word	__compound_literal.557
 5294 2164 01000000 		.word	1
 5295 2168 00000000 		.word	__compound_literal.558
 5296 216c 61130000 		.word	.LC221
 5297 2170 00400200 		.word	147456
 5298 2174 49000000 		.word	73
 5299 2178 4F088400 		.word	8652879
 5300 217c 04000000 		.word	4
 5301 2180 00000000 		.word	__compound_literal.559
 5302 2184 00000000 		.word	0
 5303 2188 00000000 		.word	0
 5304 218c 00000000 		.word	0
ARM GAS  C:\Users\DJESSOU\AppData\Local\Temp\ccruImXQ.s 			page 140


 5305 2190 00000000 		.word	0
 5306 2194 71130000 		.word	.LC222
 5307 2198 00200100 		.word	73728
 5308 219c 89000000 		.word	137
 5309 21a0 40048400 		.word	8651840
 5310 21a4 04000000 		.word	4
 5311 21a8 00000000 		.word	__compound_literal.560
 5312 21ac 01000000 		.word	1
 5313 21b0 00000000 		.word	__compound_literal.561
 5314 21b4 01000000 		.word	1
 5315 21b8 00000000 		.word	__compound_literal.562
 5316 21bc 7A130000 		.word	.LC223
 5317 21c0 00400200 		.word	147456
 5318 21c4 09010000 		.word	265
 5319 21c8 4F088400 		.word	8652879
 5320 21cc 05000000 		.word	5
 5321 21d0 00000000 		.word	__compound_literal.563
 5322 21d4 00000000 		.word	0
 5323 21d8 00000000 		.word	0
 5324 21dc 00000000 		.word	0
 5325 21e0 00000000 		.word	0
 5326 21e4 96130000 		.word	.LC224
 5327 21e8 00200100 		.word	73728
 5328 21ec 89000000 		.word	137
 5329 21f0 40048400 		.word	8651840
 5330 21f4 04000000 		.word	4
 5331 21f8 00000000 		.word	__compound_literal.564
 5332 21fc 01000000 		.word	1
 5333 2200 00000000 		.word	__compound_literal.565
 5334 2204 01000000 		.word	1
 5335 2208 00000000 		.word	__compound_literal.566
 5336 220c C5130000 		.word	.LC225
 5337 2210 00200100 		.word	73728
 5338 2214 49000000 		.word	73
 5339 2218 40048400 		.word	8651840
 5340 221c 04000000 		.word	4
 5341 2220 00000000 		.word	__compound_literal.567
 5342 2224 01000000 		.word	1
 5343 2228 00000000 		.word	__compound_literal.568
 5344 222c 01000000 		.word	1
 5345 2230 00000000 		.word	__compound_literal.569
 5346 2234 E1130000 		.word	.LC226
 5347 2238 00200100 		.word	73728
 5348 223c 49000000 		.word	73
 5349 2240 40048400 		.word	8651840
 5350 2244 04000000 		.word	4
 5351 2248 00000000 		.word	__compound_literal.570
 5352 224c 01000000 		.word	1
 5353 2250 00000000 		.word	__compound_literal.571
 5354 2254 01000000 		.word	1
 5355 2258 00000000 		.word	__compound_literal.572
 5356 225c EF130000 		.word	.LC227
 5357 2260 00200100 		.word	73728
 5358 2264 89000000 		.word	137
 5359 2268 40048400 		.word	8651840
 5360 226c 04000000 		.word	4
 5361 2270 00000000 		.word	__compound_literal.573
ARM GAS  C:\Users\DJESSOU\AppData\Local\Temp\ccruImXQ.s 			page 141


 5362 2274 01000000 		.word	1
 5363 2278 00000000 		.word	__compound_literal.574
 5364 227c 01000000 		.word	1
 5365 2280 00000000 		.word	__compound_literal.575
 5366 2284 0C140000 		.word	.LC228
 5367 2288 00090000 		.word	2304
 5368 228c 89000000 		.word	137
 5369 2290 4F088400 		.word	8652879
 5370 2294 04000000 		.word	4
 5371 2298 00000000 		.word	__compound_literal.576
 5372 229c 00000000 		.word	0
 5373 22a0 00000000 		.word	0
 5374 22a4 00000000 		.word	0
 5375 22a8 00000000 		.word	0
 5376 22ac 1C140000 		.word	.LC229
 5377 22b0 00A20000 		.word	41472
 5378 22b4 09010000 		.word	265
 5379 22b8 4F088400 		.word	8652879
 5380 22bc 05000000 		.word	5
 5381 22c0 00000000 		.word	__compound_literal.577
 5382 22c4 00000000 		.word	0
 5383 22c8 00000000 		.word	0
 5384 22cc 00000000 		.word	0
 5385 22d0 00000000 		.word	0
 5386 22d4 4B140000 		.word	.LC230
 5387 22d8 00510000 		.word	20736
 5388 22dc 89000000 		.word	137
 5389 22e0 40048400 		.word	8651840
 5390 22e4 04000000 		.word	4
 5391 22e8 00000000 		.word	__compound_literal.578
 5392 22ec 01000000 		.word	1
 5393 22f0 00000000 		.word	__compound_literal.579
 5394 22f4 01000000 		.word	1
 5395 22f8 00000000 		.word	__compound_literal.580
 5396 22fc 7A140000 		.word	.LC231
 5397 2300 00510000 		.word	20736
 5398 2304 49000000 		.word	73
 5399 2308 40048400 		.word	8651840
 5400 230c 04000000 		.word	4
 5401 2310 00000000 		.word	__compound_literal.581
 5402 2314 01000000 		.word	1
 5403 2318 00000000 		.word	__compound_literal.582
 5404 231c 01000000 		.word	1
 5405 2320 00000000 		.word	__compound_literal.583
 5406 2324 96140000 		.word	.LC232
 5407 2328 00510000 		.word	20736
 5408 232c 49000000 		.word	73
 5409 2330 40048400 		.word	8651840
 5410 2334 04000000 		.word	4
 5411 2338 00000000 		.word	__compound_literal.584
 5412 233c 01000000 		.word	1
 5413 2340 00000000 		.word	__compound_literal.585
 5414 2344 01000000 		.word	1
 5415 2348 00000000 		.word	__compound_literal.586
 5416 234c AA140000 		.word	.LC233
 5417 2350 80040000 		.word	1152
 5418 2354 89000000 		.word	137
ARM GAS  C:\Users\DJESSOU\AppData\Local\Temp\ccruImXQ.s 			page 142


 5419 2358 40048400 		.word	8651840
 5420 235c 04000000 		.word	4
 5421 2360 00000000 		.word	__compound_literal.587
 5422 2364 01000000 		.word	1
 5423 2368 00000000 		.word	__compound_literal.588
 5424 236c 01000000 		.word	1
 5425 2370 00000000 		.word	__compound_literal.589
 5426 2374 CD140000 		.word	.LC234
 5427 2378 80040000 		.word	1152
 5428 237c 49000000 		.word	73
 5429 2380 40048400 		.word	8651840
 5430 2384 04000000 		.word	4
 5431 2388 00000000 		.word	__compound_literal.590
 5432 238c 01000000 		.word	1
 5433 2390 00000000 		.word	__compound_literal.591
 5434 2394 01000000 		.word	1
 5435 2398 00000000 		.word	__compound_literal.592
 5436 239c E9140000 		.word	.LC235
 5437 23a0 80040000 		.word	1152
 5438 23a4 89000000 		.word	137
 5439 23a8 40048400 		.word	8651840
 5440 23ac 03000000 		.word	3
 5441 23b0 00000000 		.word	__compound_literal.593
 5442 23b4 01000000 		.word	1
 5443 23b8 00000000 		.word	__compound_literal.594
 5444 23bc 01000000 		.word	1
 5445 23c0 00000000 		.word	__compound_literal.595
 5446 23c4 FD140000 		.word	.LC236
 5447 23c8 00510000 		.word	20736
 5448 23cc 89000000 		.word	137
 5449 23d0 40048400 		.word	8651840
 5450 23d4 04000000 		.word	4
 5451 23d8 00000000 		.word	__compound_literal.596
 5452 23dc 01000000 		.word	1
 5453 23e0 00000000 		.word	__compound_literal.597
 5454 23e4 01000000 		.word	1
 5455 23e8 00000000 		.word	__compound_literal.598
 5456 23ec 11150000 		.word	.LC237
 5457 23f0 00510000 		.word	20736
 5458 23f4 49000000 		.word	73
 5459 23f8 40048400 		.word	8651840
 5460 23fc 04000000 		.word	4
 5461 2400 00000000 		.word	__compound_literal.599
 5462 2404 01000000 		.word	1
 5463 2408 00000000 		.word	__compound_literal.600
 5464 240c 01000000 		.word	1
 5465 2410 00000000 		.word	__compound_literal.601
 5466 2414 45150000 		.word	.LC238
 5467 2418 00510000 		.word	20736
 5468 241c 89000000 		.word	137
 5469 2420 40048400 		.word	8651840
 5470 2424 03000000 		.word	3
 5471 2428 00000000 		.word	__compound_literal.602
 5472 242c 01000000 		.word	1
 5473 2430 00000000 		.word	__compound_literal.603
 5474 2434 01000000 		.word	1
 5475 2438 00000000 		.word	__compound_literal.604
ARM GAS  C:\Users\DJESSOU\AppData\Local\Temp\ccruImXQ.s 			page 143


 5476 243c 59150000 		.word	.LC239
 5477 2440 E0070000 		.word	2016
 5478 2444 89000000 		.word	137
 5479 2448 40048400 		.word	8651840
 5480 244c 03000000 		.word	3
 5481 2450 00000000 		.word	__compound_literal.605
 5482 2454 01000000 		.word	1
 5483 2458 00000000 		.word	__compound_literal.606
 5484 245c 01000000 		.word	1
 5485 2460 00000000 		.word	__compound_literal.607
 5486 2464 77150000 		.word	.LC240
 5487 2468 C08D0000 		.word	36288
 5488 246c 89000000 		.word	137
 5489 2470 40048400 		.word	8651840
 5490 2474 03000000 		.word	3
 5491 2478 00000000 		.word	__compound_literal.608
 5492 247c 01000000 		.word	1
 5493 2480 00000000 		.word	__compound_literal.609
 5494 2484 01000000 		.word	1
 5495 2488 00000000 		.word	__compound_literal.610
 5496 248c 88150000 		.word	.LC241
 5497 2490 00370200 		.word	145152
 5498 2494 89000000 		.word	137
 5499 2498 40108200 		.word	8523840
 5500 249c 03000000 		.word	3
 5501 24a0 00000000 		.word	__compound_literal.611
 5502 24a4 00000000 		.word	0
 5503 24a8 00000000 		.word	0
 5504 24ac 00000000 		.word	0
 5505 24b0 00000000 		.word	0
 5506 24b4 99150000 		.word	.LC242
 5507 24b8 801F0000 		.word	8064
 5508 24bc 89000000 		.word	137
 5509 24c0 40108200 		.word	8523840
 5510 24c4 03000000 		.word	3
 5511 24c8 00000000 		.word	__compound_literal.612
 5512 24cc 00000000 		.word	0
 5513 24d0 00000000 		.word	0
 5514 24d4 00000000 		.word	0
 5515 24d8 00000000 		.word	0
 5516 24dc AE150000 		.word	.LC243
 5517 24e0 00370200 		.word	145152
 5518 24e4 49000000 		.word	73
 5519 24e8 40108200 		.word	8523840
 5520 24ec 04000000 		.word	4
 5521 24f0 00000000 		.word	__compound_literal.613
 5522 24f4 00000000 		.word	0
 5523 24f8 00000000 		.word	0
 5524 24fc 00000000 		.word	0
 5525 2500 00000000 		.word	0
 5526 2504 C3150000 		.word	.LC244
 5527 2508 00370200 		.word	145152
 5528 250c 89000000 		.word	137
 5529 2510 40108200 		.word	8523840
 5530 2514 04000000 		.word	4
 5531 2518 00000000 		.word	__compound_literal.614
 5532 251c 00000000 		.word	0
ARM GAS  C:\Users\DJESSOU\AppData\Local\Temp\ccruImXQ.s 			page 144


 5533 2520 00000000 		.word	0
 5534 2524 00000000 		.word	0
 5535 2528 00000000 		.word	0
 5536 252c E9150000 		.word	.LC245
 5537 2530 00370200 		.word	145152
 5538 2534 49000000 		.word	73
 5539 2538 40108200 		.word	8523840
 5540 253c 04000000 		.word	4
 5541 2540 00000000 		.word	__compound_literal.615
 5542 2544 00000000 		.word	0
 5543 2548 00000000 		.word	0
 5544 254c 00000000 		.word	0
 5545 2550 00000000 		.word	0
 5546 2554 20160000 		.word	.LC246
 5547              		.section	.data.__compound_literal.615,"aw"
 5548              		.align	2
 5551              	__compound_literal.615:
 5552 0000 01000000 		.word	1
 5553 0004 E0070000 		.word	2016
 5554 0008 01000000 		.word	1
 5555 000c 12000000 		.word	18
 5556              		.section	.data.__compound_literal.614,"aw"
 5557              		.align	2
 5560              	__compound_literal.614:
 5561 0000 01000000 		.word	1
 5562 0004 E0070000 		.word	2016
 5563 0008 01000000 		.word	1
 5564 000c 12000000 		.word	18
 5565              		.section	.data.__compound_literal.613,"aw"
 5566              		.align	2
 5569              	__compound_literal.613:
 5570 0000 01000000 		.word	1
 5571 0004 12000000 		.word	18
 5572 0008 E0070000 		.word	2016
 5573 000c 01000000 		.word	1
 5574              		.section	.data.__compound_literal.612,"aw"
 5575              		.align	2
 5578              	__compound_literal.612:
 5579 0000 01000000 		.word	1
 5580 0004 E0070000 		.word	2016
 5581 0008 01000000 		.word	1
 5582              		.section	.data.__compound_literal.611,"aw"
 5583              		.align	2
 5586              	__compound_literal.611:
 5587 0000 12000000 		.word	18
 5588 0004 E0070000 		.word	2016
 5589 0008 01000000 		.word	1
 5590              		.section	.data.__compound_literal.610,"aw"
 5591              		.align	1
 5594              	__compound_literal.610:
 5595 0000 F6FF     		.short	-10
 5596              		.section	.data.__compound_literal.609,"aw"
 5597              		.align	2
 5600              	__compound_literal.609:
 5601 0000 4B52863F 		.word	1065767499
 5602              		.section	.data.__compound_literal.608,"aw"
 5603              		.align	2
ARM GAS  C:\Users\DJESSOU\AppData\Local\Temp\ccruImXQ.s 			page 145


 5606              	__compound_literal.608:
 5607 0000 12000000 		.word	18
 5608 0004 E0070000 		.word	2016
 5609 0008 01000000 		.word	1
 5610              		.section	.data.__compound_literal.607,"aw"
 5611              		.align	1
 5614              	__compound_literal.607:
 5615 0000 6000     		.short	96
 5616              		.section	.data.__compound_literal.606,"aw"
 5617              		.align	2
 5620              	__compound_literal.606:
 5621 0000 FF3FDD3D 		.word	1037910015
 5622              		.section	.data.__compound_literal.605,"aw"
 5623              		.align	2
 5626              	__compound_literal.605:
 5627 0000 01000000 		.word	1
 5628 0004 E0070000 		.word	2016
 5629 0008 01000000 		.word	1
 5630              		.section	.data.__compound_literal.604,"aw"
 5631              		.align	1
 5634              	__compound_literal.604:
 5635 0000 F6FF     		.short	-10
 5636              		.section	.data.__compound_literal.603,"aw"
 5637              		.align	2
 5640              	__compound_literal.603:
 5641 0000 4B52863F 		.word	1065767499
 5642              		.section	.data.__compound_literal.602,"aw"
 5643              		.align	2
 5646              	__compound_literal.602:
 5647 0000 12000000 		.word	18
 5648 0004 80040000 		.word	1152
 5649 0008 01000000 		.word	1
 5650              		.section	.data.__compound_literal.601,"aw"
 5651              		.align	1
 5654              	__compound_literal.601:
 5655 0000 F6FF     		.short	-10
 5656              		.section	.data.__compound_literal.600,"aw"
 5657              		.align	2
 5660              	__compound_literal.600:
 5661 0000 4B52863F 		.word	1065767499
 5662              		.section	.data.__compound_literal.599,"aw"
 5663              		.align	2
 5666              	__compound_literal.599:
 5667 0000 01000000 		.word	1
 5668 0004 12000000 		.word	18
 5669 0008 01000000 		.word	1
 5670 000c 80040000 		.word	1152
 5671              		.section	.data.__compound_literal.598,"aw"
 5672              		.align	1
 5675              	__compound_literal.598:
 5676 0000 F6FF     		.short	-10
 5677              		.section	.data.__compound_literal.597,"aw"
 5678              		.align	2
 5681              	__compound_literal.597:
 5682 0000 4B52863F 		.word	1065767499
 5683              		.section	.data.__compound_literal.596,"aw"
 5684              		.align	2
ARM GAS  C:\Users\DJESSOU\AppData\Local\Temp\ccruImXQ.s 			page 146


 5687              	__compound_literal.596:
 5688 0000 01000000 		.word	1
 5689 0004 12000000 		.word	18
 5690 0008 01000000 		.word	1
 5691 000c 80040000 		.word	1152
 5692              		.section	.data.__compound_literal.595,"aw"
 5693              		.align	1
 5696              	__compound_literal.595:
 5697 0000 6000     		.short	96
 5698              		.section	.data.__compound_literal.594,"aw"
 5699              		.align	2
 5702              	__compound_literal.594:
 5703 0000 FF3FDD3D 		.word	1037910015
 5704              		.section	.data.__compound_literal.593,"aw"
 5705              		.align	2
 5708              	__compound_literal.593:
 5709 0000 01000000 		.word	1
 5710 0004 80040000 		.word	1152
 5711 0008 01000000 		.word	1
 5712              		.section	.data.__compound_literal.592,"aw"
 5713              		.align	1
 5716              	__compound_literal.592:
 5717 0000 6000     		.short	96
 5718              		.section	.data.__compound_literal.591,"aw"
 5719              		.align	2
 5722              	__compound_literal.591:
 5723 0000 FF3FDD3D 		.word	1037910015
 5724              		.section	.data.__compound_literal.590,"aw"
 5725              		.align	2
 5728              	__compound_literal.590:
 5729 0000 01000000 		.word	1
 5730 0004 18000000 		.word	24
 5731 0008 18000000 		.word	24
 5732 000c 02000000 		.word	2
 5733              		.section	.data.__compound_literal.589,"aw"
 5734              		.align	1
 5737              	__compound_literal.589:
 5738 0000 6000     		.short	96
 5739              		.section	.data.__compound_literal.588,"aw"
 5740              		.align	2
 5743              	__compound_literal.588:
 5744 0000 FF3FDD3D 		.word	1037910015
 5745              		.section	.data.__compound_literal.587,"aw"
 5746              		.align	2
 5749              	__compound_literal.587:
 5750 0000 01000000 		.word	1
 5751 0004 18000000 		.word	24
 5752 0008 18000000 		.word	24
 5753 000c 02000000 		.word	2
 5754              		.section	.data.__compound_literal.586,"aw"
 5755              		.align	1
 5758              	__compound_literal.586:
 5759 0000 F6FF     		.short	-10
 5760              		.section	.data.__compound_literal.585,"aw"
 5761              		.align	2
 5764              	__compound_literal.585:
 5765 0000 4B52863F 		.word	1065767499
ARM GAS  C:\Users\DJESSOU\AppData\Local\Temp\ccruImXQ.s 			page 147


 5766              		.section	.data.__compound_literal.584,"aw"
 5767              		.align	2
 5770              	__compound_literal.584:
 5771 0000 01000000 		.word	1
 5772 0004 80040000 		.word	1152
 5773 0008 12000000 		.word	18
 5774 000c 01000000 		.word	1
 5775              		.section	.data.__compound_literal.583,"aw"
 5776              		.align	1
 5779              	__compound_literal.583:
 5780 0000 F6FF     		.short	-10
 5781              		.section	.data.__compound_literal.582,"aw"
 5782              		.align	2
 5785              	__compound_literal.582:
 5786 0000 4B52863F 		.word	1065767499
 5787              		.section	.data.__compound_literal.581,"aw"
 5788              		.align	2
 5791              	__compound_literal.581:
 5792 0000 01000000 		.word	1
 5793 0004 18000000 		.word	24
 5794 0008 18000000 		.word	24
 5795 000c 24000000 		.word	36
 5796              		.section	.data.__compound_literal.580,"aw"
 5797              		.align	1
 5800              	__compound_literal.580:
 5801 0000 F6FF     		.short	-10
 5802              		.section	.data.__compound_literal.579,"aw"
 5803              		.align	2
 5806              	__compound_literal.579:
 5807 0000 4B52863F 		.word	1065767499
 5808              		.section	.data.__compound_literal.578,"aw"
 5809              		.align	2
 5812              	__compound_literal.578:
 5813 0000 01000000 		.word	1
 5814 0004 18000000 		.word	24
 5815 0008 18000000 		.word	24
 5816 000c 24000000 		.word	36
 5817              		.section	.data.__compound_literal.577,"aw"
 5818              		.align	2
 5821              	__compound_literal.577:
 5822 0000 01000000 		.word	1
 5823 0004 02000000 		.word	2
 5824 0008 18000000 		.word	24
 5825 000c 18000000 		.word	24
 5826 0010 12000000 		.word	18
 5827              		.section	.data.__compound_literal.576,"aw"
 5828              		.align	2
 5831              	__compound_literal.576:
 5832 0000 01000000 		.word	1
 5833 0004 18000000 		.word	24
 5834 0008 18000000 		.word	24
 5835 000c 02000000 		.word	2
 5836              		.section	.data.__compound_literal.575,"aw"
 5837              		.align	1
 5840              	__compound_literal.575:
 5841 0000 9FFF     		.short	-97
 5842              		.section	.data.__compound_literal.574,"aw"
ARM GAS  C:\Users\DJESSOU\AppData\Local\Temp\ccruImXQ.s 			page 148


 5843              		.align	2
 5846              	__compound_literal.574:
 5847 0000 AFA97A3E 		.word	1048226223
 5848              		.section	.data.__compound_literal.573,"aw"
 5849              		.align	2
 5852              	__compound_literal.573:
 5853 0000 01000000 		.word	1
 5854 0004 18000000 		.word	24
 5855 0008 18000000 		.word	24
 5856 000c 80000000 		.word	128
 5857              		.section	.data.__compound_literal.572,"aw"
 5858              		.align	1
 5861              	__compound_literal.572:
 5862 0000 9FFF     		.short	-97
 5863              		.section	.data.__compound_literal.571,"aw"
 5864              		.align	2
 5867              	__compound_literal.571:
 5868 0000 AFA97A3E 		.word	1048226223
 5869              		.section	.data.__compound_literal.570,"aw"
 5870              		.align	2
 5873              	__compound_literal.570:
 5874 0000 01000000 		.word	1
 5875 0004 80000000 		.word	128
 5876 0008 18000000 		.word	24
 5877 000c 18000000 		.word	24
 5878              		.section	.data.__compound_literal.569,"aw"
 5879              		.align	1
 5882              	__compound_literal.569:
 5883 0000 1600     		.short	22
 5884              		.section	.data.__compound_literal.568,"aw"
 5885              		.align	2
 5888              	__compound_literal.568:
 5889 0000 3E6E053F 		.word	1057320510
 5890              		.section	.data.__compound_literal.567,"aw"
 5891              		.align	2
 5894              	__compound_literal.567:
 5895 0000 01000000 		.word	1
 5896 0004 80000000 		.word	128
 5897 0008 18000000 		.word	24
 5898 000c 18000000 		.word	24
 5899              		.section	.data.__compound_literal.566,"aw"
 5900              		.align	1
 5903              	__compound_literal.566:
 5904 0000 0B00     		.short	11
 5905              		.section	.data.__compound_literal.565,"aw"
 5906              		.align	2
 5909              	__compound_literal.565:
 5910 0000 0155A23E 		.word	1050825985
 5911              		.section	.data.__compound_literal.564,"aw"
 5912              		.align	2
 5915              	__compound_literal.564:
 5916 0000 01000000 		.word	1
 5917 0004 18000000 		.word	24
 5918 0008 18000000 		.word	24
 5919 000c 80000000 		.word	128
 5920              		.section	.data.__compound_literal.563,"aw"
 5921              		.align	2
ARM GAS  C:\Users\DJESSOU\AppData\Local\Temp\ccruImXQ.s 			page 149


 5924              	__compound_literal.563:
 5925 0000 01000000 		.word	1
 5926 0004 08000000 		.word	8
 5927 0008 18000000 		.word	24
 5928 000c 18000000 		.word	24
 5929 0010 10000000 		.word	16
 5930              		.section	.data.__compound_literal.562,"aw"
 5931              		.align	1
 5934              	__compound_literal.562:
 5935 0000 E7FF     		.short	-25
 5936              		.section	.data.__compound_literal.561,"aw"
 5937              		.align	2
 5940              	__compound_literal.561:
 5941 0000 7B905C3F 		.word	1063030907
 5942              		.section	.data.__compound_literal.560,"aw"
 5943              		.align	2
 5946              	__compound_literal.560:
 5947 0000 01000000 		.word	1
 5948 0004 18000000 		.word	24
 5949 0008 18000000 		.word	24
 5950 000c 80000000 		.word	128
 5951              		.section	.data.__compound_literal.559,"aw"
 5952              		.align	2
 5955              	__compound_literal.559:
 5956 0000 01000000 		.word	1
 5957 0004 80000000 		.word	128
 5958 0008 18000000 		.word	24
 5959 000c 18000000 		.word	24
 5960              		.section	.data.__compound_literal.558,"aw"
 5961              		.align	1
 5964              	__compound_literal.558:
 5965 0000 0F00     		.short	15
 5966              		.section	.data.__compound_literal.557,"aw"
 5967              		.align	2
 5970              	__compound_literal.557:
 5971 0000 D9D5833E 		.word	1048827353
 5972              		.section	.data.__compound_literal.556,"aw"
 5973              		.align	2
 5976              	__compound_literal.556:
 5977 0000 01000000 		.word	1
 5978 0004 80000000 		.word	128
 5979 0008 18000000 		.word	24
 5980 000c 18000000 		.word	24
 5981              		.section	.data.__compound_literal.555,"aw"
 5982              		.align	1
 5985              	__compound_literal.555:
 5986 0000 0F00     		.short	15
 5987              		.section	.data.__compound_literal.554,"aw"
 5988              		.align	2
 5991              	__compound_literal.554:
 5992 0000 D9D5833E 		.word	1048827353
 5993              		.section	.data.__compound_literal.553,"aw"
 5994              		.align	2
 5997              	__compound_literal.553:
 5998 0000 01000000 		.word	1
 5999 0004 80000000 		.word	128
 6000 0008 18000000 		.word	24
ARM GAS  C:\Users\DJESSOU\AppData\Local\Temp\ccruImXQ.s 			page 150


 6001 000c 18000000 		.word	24
 6002              		.section	.data.__compound_literal.552,"aw"
 6003              		.align	1
 6006              	__compound_literal.552:
 6007 0000 1B00     		.short	27
 6008              		.section	.data.__compound_literal.551,"aw"
 6009              		.align	2
 6012              	__compound_literal.551:
 6013 0000 5DBB8C3E 		.word	1049410397
 6014              		.section	.data.__compound_literal.550,"aw"
 6015              		.align	2
 6018              	__compound_literal.550:
 6019 0000 01000000 		.word	1
 6020 0004 80000000 		.word	128
 6021 0008 18000000 		.word	24
 6022 000c 18000000 		.word	24
 6023              		.section	.data.__compound_literal.549,"aw"
 6024              		.align	1
 6027              	__compound_literal.549:
 6028 0000 2B00     		.short	43
 6029              		.section	.data.__compound_literal.548,"aw"
 6030              		.align	2
 6033              	__compound_literal.548:
 6034 0000 E2E9803E 		.word	1048635874
 6035              		.section	.data.__compound_literal.547,"aw"
 6036              		.align	2
 6039              	__compound_literal.547:
 6040 0000 01000000 		.word	1
 6041 0004 18000000 		.word	24
 6042 0008 18000000 		.word	24
 6043 000c 80000000 		.word	128
 6044              		.section	.data.__compound_literal.546,"aw"
 6045              		.align	2
 6048              	__compound_literal.546:
 6049 0000 01000000 		.word	1
 6050 0004 08000000 		.word	8
 6051 0008 18000000 		.word	24
 6052 000c 18000000 		.word	24
 6053 0010 10000000 		.word	16
 6054              		.section	.data.__compound_literal.545,"aw"
 6055              		.align	1
 6058              	__compound_literal.545:
 6059 0000 1500     		.short	21
 6060              		.section	.data.__compound_literal.544,"aw"
 6061              		.align	2
 6064              	__compound_literal.544:
 6065 0000 D1FEFB3E 		.word	1056702161
 6066              		.section	.data.__compound_literal.543,"aw"
 6067              		.align	2
 6070              	__compound_literal.543:
 6071 0000 01000000 		.word	1
 6072 0004 18000000 		.word	24
 6073 0008 18000000 		.word	24
 6074 000c 80000000 		.word	128
 6075              		.section	.data.__compound_literal.542,"aw"
 6076              		.align	2
 6079              	__compound_literal.542:
ARM GAS  C:\Users\DJESSOU\AppData\Local\Temp\ccruImXQ.s 			page 151


 6080 0000 01000000 		.word	1
 6081 0004 80000000 		.word	128
 6082 0008 18000000 		.word	24
 6083 000c 18000000 		.word	24
 6084              		.section	.data.__compound_literal.541,"aw"
 6085              		.align	1
 6088              	__compound_literal.541:
 6089 0000 1900     		.short	25
 6090              		.section	.data.__compound_literal.540,"aw"
 6091              		.align	2
 6094              	__compound_literal.540:
 6095 0000 72610D3E 		.word	1041064306
 6096              		.section	.data.__compound_literal.539,"aw"
 6097              		.align	2
 6100              	__compound_literal.539:
 6101 0000 01000000 		.word	1
 6102 0004 80000000 		.word	128
 6103 0008 18000000 		.word	24
 6104 000c 18000000 		.word	24
 6105              		.section	.data.__compound_literal.538,"aw"
 6106              		.align	1
 6109              	__compound_literal.538:
 6110 0000 1900     		.short	25
 6111              		.section	.data.__compound_literal.537,"aw"
 6112              		.align	2
 6115              	__compound_literal.537:
 6116 0000 F8FD0C3E 		.word	1041038840
 6117              		.section	.data.__compound_literal.536,"aw"
 6118              		.align	2
 6121              	__compound_literal.536:
 6122 0000 01000000 		.word	1
 6123 0004 18000000 		.word	24
 6124 0008 18000000 		.word	24
 6125 000c 80000000 		.word	128
 6126              		.section	.data.__compound_literal.535,"aw"
 6127              		.align	1
 6130              	__compound_literal.535:
 6131 0000 F6FF     		.short	-10
 6132              		.section	.data.__compound_literal.534,"aw"
 6133              		.align	2
 6136              	__compound_literal.534:
 6137 0000 4B52863F 		.word	1065767499
 6138              		.section	.data.__compound_literal.533,"aw"
 6139              		.align	2
 6142              	__compound_literal.533:
 6143 0000 12000000 		.word	18
 6144 0004 60030000 		.word	864
 6145 0008 01000000 		.word	1
 6146              		.section	.data.__compound_literal.532,"aw"
 6147              		.align	1
 6150              	__compound_literal.532:
 6151 0000 F6FF     		.short	-10
 6152              		.section	.data.__compound_literal.531,"aw"
 6153              		.align	2
 6156              	__compound_literal.531:
 6157 0000 4B52863F 		.word	1065767499
 6158              		.section	.data.__compound_literal.530,"aw"
ARM GAS  C:\Users\DJESSOU\AppData\Local\Temp\ccruImXQ.s 			page 152


 6159              		.align	2
 6162              	__compound_literal.530:
 6163 0000 01000000 		.word	1
 6164 0004 12000000 		.word	18
 6165 0008 01000000 		.word	1
 6166 000c 60030000 		.word	864
 6167              		.section	.data.__compound_literal.529,"aw"
 6168              		.align	1
 6171              	__compound_literal.529:
 6172 0000 F6FF     		.short	-10
 6173              		.section	.data.__compound_literal.528,"aw"
 6174              		.align	2
 6177              	__compound_literal.528:
 6178 0000 4B52863F 		.word	1065767499
 6179              		.section	.data.__compound_literal.527,"aw"
 6180              		.align	2
 6183              	__compound_literal.527:
 6184 0000 01000000 		.word	1
 6185 0004 12000000 		.word	18
 6186 0008 01000000 		.word	1
 6187 000c 60030000 		.word	864
 6188              		.section	.data.__compound_literal.526,"aw"
 6189              		.align	1
 6192              	__compound_literal.526:
 6193 0000 1900     		.short	25
 6194              		.section	.data.__compound_literal.525,"aw"
 6195              		.align	2
 6198              	__compound_literal.525:
 6199 0000 F8FD0C3E 		.word	1041038840
 6200              		.section	.data.__compound_literal.524,"aw"
 6201              		.align	2
 6204              	__compound_literal.524:
 6205 0000 01000000 		.word	1
 6206 0004 08000000 		.word	8
 6207 0008 18000000 		.word	24
 6208 000c 18000000 		.word	24
 6209 0010 10000000 		.word	16
 6210              		.section	.data.__compound_literal.523,"aw"
 6211              		.align	1
 6214              	__compound_literal.523:
 6215 0000 1D00     		.short	29
 6216              		.section	.data.__compound_literal.522,"aw"
 6217              		.align	2
 6220              	__compound_literal.522:
 6221 0000 33B5133E 		.word	1041478963
 6222              		.section	.data.__compound_literal.521,"aw"
 6223              		.align	2
 6226              	__compound_literal.521:
 6227 0000 01000000 		.word	1
 6228 0004 08000000 		.word	8
 6229 0008 18000000 		.word	24
 6230 000c 18000000 		.word	24
 6231 0010 10000000 		.word	16
 6232              		.section	.data.__compound_literal.520,"aw"
 6233              		.align	2
 6236              	__compound_literal.520:
 6237 0000 01000000 		.word	1
ARM GAS  C:\Users\DJESSOU\AppData\Local\Temp\ccruImXQ.s 			page 153


 6238 0004 08000000 		.word	8
 6239 0008 18000000 		.word	24
 6240 000c 18000000 		.word	24
 6241 0010 10000000 		.word	16
 6242              		.section	.data.__compound_literal.519,"aw"
 6243              		.align	1
 6246              	__compound_literal.519:
 6247 0000 A8FF     		.short	-88
 6248              		.section	.data.__compound_literal.518,"aw"
 6249              		.align	2
 6252              	__compound_literal.518:
 6253 0000 A904F63D 		.word	1039533225
 6254              		.section	.data.__compound_literal.517,"aw"
 6255              		.align	2
 6258              	__compound_literal.517:
 6259 0000 01000000 		.word	1
 6260 0004 18000000 		.word	24
 6261 0008 18000000 		.word	24
 6262 000c 00010000 		.word	256
 6263              		.section	.data.__compound_literal.516,"aw"
 6264              		.align	1
 6267              	__compound_literal.516:
 6268 0000 6000     		.short	96
 6269              		.section	.data.__compound_literal.515,"aw"
 6270              		.align	2
 6273              	__compound_literal.515:
 6274 0000 FF3FDD3D 		.word	1037910015
 6275              		.section	.data.__compound_literal.514,"aw"
 6276              		.align	2
 6279              	__compound_literal.514:
 6280 0000 01000000 		.word	1
 6281 0004 60030000 		.word	864
 6282 0008 01000000 		.word	1
 6283              		.section	.data.__compound_literal.513,"aw"
 6284              		.align	1
 6287              	__compound_literal.513:
 6288 0000 6000     		.short	96
 6289              		.section	.data.__compound_literal.512,"aw"
 6290              		.align	2
 6293              	__compound_literal.512:
 6294 0000 FF3FDD3D 		.word	1037910015
 6295              		.section	.data.__compound_literal.511,"aw"
 6296              		.align	2
 6299              	__compound_literal.511:
 6300 0000 01000000 		.word	1
 6301 0004 0C000000 		.word	12
 6302 0008 0C000000 		.word	12
 6303 000c 06000000 		.word	6
 6304              		.section	.data.__compound_literal.510,"aw"
 6305              		.align	1
 6308              	__compound_literal.510:
 6309 0000 6000     		.short	96
 6310              		.section	.data.__compound_literal.509,"aw"
 6311              		.align	2
 6314              	__compound_literal.509:
 6315 0000 FF3FDD3D 		.word	1037910015
 6316              		.section	.data.__compound_literal.508,"aw"
ARM GAS  C:\Users\DJESSOU\AppData\Local\Temp\ccruImXQ.s 			page 154


 6317              		.align	2
 6320              	__compound_literal.508:
 6321 0000 01000000 		.word	1
 6322 0004 0C000000 		.word	12
 6323 0008 0C000000 		.word	12
 6324 000c 06000000 		.word	6
 6325              		.section	.data.__compound_literal.507,"aw"
 6326              		.align	1
 6329              	__compound_literal.507:
 6330 0000 F6FF     		.short	-10
 6331              		.section	.data.__compound_literal.506,"aw"
 6332              		.align	2
 6335              	__compound_literal.506:
 6336 0000 4B52863F 		.word	1065767499
 6337              		.section	.data.__compound_literal.505,"aw"
 6338              		.align	2
 6341              	__compound_literal.505:
 6342 0000 01000000 		.word	1
 6343 0004 60030000 		.word	864
 6344 0008 12000000 		.word	18
 6345 000c 01000000 		.word	1
 6346              		.section	.data.__compound_literal.504,"aw"
 6347              		.align	1
 6350              	__compound_literal.504:
 6351 0000 F6FF     		.short	-10
 6352              		.section	.data.__compound_literal.503,"aw"
 6353              		.align	2
 6356              	__compound_literal.503:
 6357 0000 4B52863F 		.word	1065767499
 6358              		.section	.data.__compound_literal.502,"aw"
 6359              		.align	2
 6362              	__compound_literal.502:
 6363 0000 01000000 		.word	1
 6364 0004 0C000000 		.word	12
 6365 0008 0C000000 		.word	12
 6366 000c 6C000000 		.word	108
 6367              		.section	.data.__compound_literal.501,"aw"
 6368              		.align	1
 6371              	__compound_literal.501:
 6372 0000 F6FF     		.short	-10
 6373              		.section	.data.__compound_literal.500,"aw"
 6374              		.align	2
 6377              	__compound_literal.500:
 6378 0000 4B52863F 		.word	1065767499
 6379              		.section	.data.__compound_literal.499,"aw"
 6380              		.align	2
 6383              	__compound_literal.499:
 6384 0000 01000000 		.word	1
 6385 0004 0C000000 		.word	12
 6386 0008 0C000000 		.word	12
 6387 000c 6C000000 		.word	108
 6388              		.section	.data.__compound_literal.498,"aw"
 6389              		.align	2
 6392              	__compound_literal.498:
 6393 0000 01000000 		.word	1
 6394 0004 06000000 		.word	6
 6395 0008 0C000000 		.word	12
ARM GAS  C:\Users\DJESSOU\AppData\Local\Temp\ccruImXQ.s 			page 155


 6396 000c 0C000000 		.word	12
 6397 0010 12000000 		.word	18
 6398              		.section	.data.__compound_literal.497,"aw"
 6399              		.align	2
 6402              	__compound_literal.497:
 6403 0000 01000000 		.word	1
 6404 0004 0C000000 		.word	12
 6405 0008 0C000000 		.word	12
 6406 000c 06000000 		.word	6
 6407              		.section	.data.__compound_literal.496,"aw"
 6408              		.align	1
 6411              	__compound_literal.496:
 6412 0000 A8FF     		.short	-88
 6413              		.section	.data.__compound_literal.495,"aw"
 6414              		.align	2
 6417              	__compound_literal.495:
 6418 0000 A904F63D 		.word	1039533225
 6419              		.section	.data.__compound_literal.494,"aw"
 6420              		.align	2
 6423              	__compound_literal.494:
 6424 0000 01000000 		.word	1
 6425 0004 0C000000 		.word	12
 6426 0008 0C000000 		.word	12
 6427 000c 00010000 		.word	256
 6428              		.section	.data.__compound_literal.493,"aw"
 6429              		.align	1
 6432              	__compound_literal.493:
 6433 0000 A8FF     		.short	-88
 6434              		.section	.data.__compound_literal.492,"aw"
 6435              		.align	2
 6438              	__compound_literal.492:
 6439 0000 A904F63D 		.word	1039533225
 6440              		.section	.data.__compound_literal.491,"aw"
 6441              		.align	2
 6444              	__compound_literal.491:
 6445 0000 01000000 		.word	1
 6446 0004 00010000 		.word	256
 6447 0008 0C000000 		.word	12
 6448 000c 0C000000 		.word	12
 6449              		.section	.data.__compound_literal.490,"aw"
 6450              		.align	1
 6453              	__compound_literal.490:
 6454 0000 3300     		.short	51
 6455              		.section	.data.__compound_literal.489,"aw"
 6456              		.align	2
 6459              	__compound_literal.489:
 6460 0000 6266AE3E 		.word	1051616866
 6461              		.section	.data.__compound_literal.488,"aw"
 6462              		.align	2
 6465              	__compound_literal.488:
 6466 0000 01000000 		.word	1
 6467 0004 00010000 		.word	256
 6468 0008 0C000000 		.word	12
 6469 000c 0C000000 		.word	12
 6470              		.section	.data.__compound_literal.487,"aw"
 6471              		.align	1
 6474              	__compound_literal.487:
ARM GAS  C:\Users\DJESSOU\AppData\Local\Temp\ccruImXQ.s 			page 156


 6475 0000 2700     		.short	39
 6476              		.section	.data.__compound_literal.486,"aw"
 6477              		.align	2
 6480              	__compound_literal.486:
 6481 0000 431B163E 		.word	1041636163
 6482              		.section	.data.__compound_literal.485,"aw"
 6483              		.align	2
 6486              	__compound_literal.485:
 6487 0000 01000000 		.word	1
 6488 0004 0C000000 		.word	12
 6489 0008 0C000000 		.word	12
 6490 000c 00010000 		.word	256
 6491              		.section	.data.__compound_literal.484,"aw"
 6492              		.align	2
 6495              	__compound_literal.484:
 6496 0000 01000000 		.word	1
 6497 0004 10000000 		.word	16
 6498 0008 0C000000 		.word	12
 6499 000c 0C000000 		.word	12
 6500 0010 10000000 		.word	16
 6501              		.section	.data.__compound_literal.483,"aw"
 6502              		.align	1
 6505              	__compound_literal.483:
 6506 0000 CDFF     		.short	-51
 6507              		.section	.data.__compound_literal.482,"aw"
 6508              		.align	2
 6511              	__compound_literal.482:
 6512 0000 540C743F 		.word	1064569940
 6513              		.section	.data.__compound_literal.481,"aw"
 6514              		.align	2
 6517              	__compound_literal.481:
 6518 0000 01000000 		.word	1
 6519 0004 0C000000 		.word	12
 6520 0008 0C000000 		.word	12
 6521 000c 00010000 		.word	256
 6522              		.section	.data.__compound_literal.480,"aw"
 6523              		.align	2
 6526              	__compound_literal.480:
 6527 0000 01000000 		.word	1
 6528 0004 00010000 		.word	256
 6529 0008 0C000000 		.word	12
 6530 000c 0C000000 		.word	12
 6531              		.section	.data.__compound_literal.479,"aw"
 6532              		.align	1
 6535              	__compound_literal.479:
 6536 0000 2600     		.short	38
 6537              		.section	.data.__compound_literal.478,"aw"
 6538              		.align	2
 6541              	__compound_literal.478:
 6542 0000 C9679A3E 		.word	1050306505
 6543              		.section	.data.__compound_literal.477,"aw"
 6544              		.align	2
 6547              	__compound_literal.477:
 6548 0000 01000000 		.word	1
 6549 0004 00010000 		.word	256
 6550 0008 0C000000 		.word	12
 6551 000c 0C000000 		.word	12
ARM GAS  C:\Users\DJESSOU\AppData\Local\Temp\ccruImXQ.s 			page 157


 6552              		.section	.data.__compound_literal.476,"aw"
 6553              		.align	1
 6556              	__compound_literal.476:
 6557 0000 2600     		.short	38
 6558              		.section	.data.__compound_literal.475,"aw"
 6559              		.align	2
 6562              	__compound_literal.475:
 6563 0000 C9679A3E 		.word	1050306505
 6564              		.section	.data.__compound_literal.474,"aw"
 6565              		.align	2
 6568              	__compound_literal.474:
 6569 0000 01000000 		.word	1
 6570 0004 00010000 		.word	256
 6571 0008 0C000000 		.word	12
 6572 000c 0C000000 		.word	12
 6573              		.section	.data.__compound_literal.473,"aw"
 6574              		.align	1
 6577              	__compound_literal.473:
 6578 0000 EEFF     		.short	-18
 6579              		.section	.data.__compound_literal.472,"aw"
 6580              		.align	2
 6583              	__compound_literal.472:
 6584 0000 40323D3E 		.word	1044197952
 6585              		.section	.data.__compound_literal.471,"aw"
 6586              		.align	2
 6589              	__compound_literal.471:
 6590 0000 01000000 		.word	1
 6591 0004 00010000 		.word	256
 6592 0008 0C000000 		.word	12
 6593 000c 0C000000 		.word	12
 6594              		.section	.data.__compound_literal.470,"aw"
 6595              		.align	1
 6598              	__compound_literal.470:
 6599 0000 1000     		.short	16
 6600              		.section	.data.__compound_literal.469,"aw"
 6601              		.align	2
 6604              	__compound_literal.469:
 6605 0000 7F74193E 		.word	1041855615
 6606              		.section	.data.__compound_literal.468,"aw"
 6607              		.align	2
 6610              	__compound_literal.468:
 6611 0000 01000000 		.word	1
 6612 0004 0C000000 		.word	12
 6613 0008 0C000000 		.word	12
 6614 000c 00010000 		.word	256
 6615              		.section	.data.__compound_literal.467,"aw"
 6616              		.align	2
 6619              	__compound_literal.467:
 6620 0000 01000000 		.word	1
 6621 0004 10000000 		.word	16
 6622 0008 0C000000 		.word	12
 6623 000c 0C000000 		.word	12
 6624 0010 10000000 		.word	16
 6625              		.section	.data.__compound_literal.466,"aw"
 6626              		.align	1
 6629              	__compound_literal.466:
 6630 0000 E7FF     		.short	-25
ARM GAS  C:\Users\DJESSOU\AppData\Local\Temp\ccruImXQ.s 			page 158


 6631              		.section	.data.__compound_literal.465,"aw"
 6632              		.align	2
 6635              	__compound_literal.465:
 6636 0000 4359403F 		.word	1061181763
 6637              		.section	.data.__compound_literal.464,"aw"
 6638              		.align	2
 6641              	__compound_literal.464:
 6642 0000 01000000 		.word	1
 6643 0004 0C000000 		.word	12
 6644 0008 0C000000 		.word	12
 6645 000c 00010000 		.word	256
 6646              		.section	.data.__compound_literal.463,"aw"
 6647              		.align	2
 6650              	__compound_literal.463:
 6651 0000 01000000 		.word	1
 6652 0004 00010000 		.word	256
 6653 0008 0C000000 		.word	12
 6654 000c 0C000000 		.word	12
 6655              		.section	.data.__compound_literal.462,"aw"
 6656              		.align	1
 6659              	__compound_literal.462:
 6660 0000 E1FF     		.short	-31
 6661              		.section	.data.__compound_literal.461,"aw"
 6662              		.align	2
 6665              	__compound_literal.461:
 6666 0000 B993B43D 		.word	1035244473
 6667              		.section	.data.__compound_literal.460,"aw"
 6668              		.align	2
 6671              	__compound_literal.460:
 6672 0000 01000000 		.word	1
 6673 0004 00010000 		.word	256
 6674 0008 0C000000 		.word	12
 6675 000c 0C000000 		.word	12
 6676              		.section	.data.__compound_literal.459,"aw"
 6677              		.align	1
 6680              	__compound_literal.459:
 6681 0000 E4FF     		.short	-28
 6682              		.section	.data.__compound_literal.458,"aw"
 6683              		.align	2
 6686              	__compound_literal.458:
 6687 0000 F978B03D 		.word	1034975481
 6688              		.section	.data.__compound_literal.457,"aw"
 6689              		.align	2
 6692              	__compound_literal.457:
 6693 0000 01000000 		.word	1
 6694 0004 0C000000 		.word	12
 6695 0008 0C000000 		.word	12
 6696 000c 00010000 		.word	256
 6697              		.section	.data.__compound_literal.456,"aw"
 6698              		.align	1
 6701              	__compound_literal.456:
 6702 0000 E4FF     		.short	-28
 6703              		.section	.data.__compound_literal.455,"aw"
 6704              		.align	2
 6707              	__compound_literal.455:
 6708 0000 F978B03D 		.word	1034975481
 6709              		.section	.data.__compound_literal.454,"aw"
ARM GAS  C:\Users\DJESSOU\AppData\Local\Temp\ccruImXQ.s 			page 159


 6710              		.align	2
 6713              	__compound_literal.454:
 6714 0000 01000000 		.word	1
 6715 0004 10000000 		.word	16
 6716 0008 0C000000 		.word	12
 6717 000c 0C000000 		.word	12
 6718 0010 10000000 		.word	16
 6719              		.section	.data.__compound_literal.453,"aw"
 6720              		.align	1
 6723              	__compound_literal.453:
 6724 0000 0400     		.short	4
 6725              		.section	.data.__compound_literal.452,"aw"
 6726              		.align	2
 6729              	__compound_literal.452:
 6730 0000 7F75DE3D 		.word	1037989247
 6731              		.section	.data.__compound_literal.451,"aw"
 6732              		.align	2
 6735              	__compound_literal.451:
 6736 0000 01000000 		.word	1
 6737 0004 10000000 		.word	16
 6738 0008 0C000000 		.word	12
 6739 000c 0C000000 		.word	12
 6740 0010 10000000 		.word	16
 6741              		.section	.data.__compound_literal.450,"aw"
 6742              		.align	2
 6745              	__compound_literal.450:
 6746 0000 01000000 		.word	1
 6747 0004 10000000 		.word	16
 6748 0008 0C000000 		.word	12
 6749 000c 0C000000 		.word	12
 6750 0010 10000000 		.word	16
 6751              		.section	.data.__compound_literal.449,"aw"
 6752              		.align	1
 6755              	__compound_literal.449:
 6756 0000 AEFF     		.short	-82
 6757              		.section	.data.__compound_literal.448,"aw"
 6758              		.align	2
 6761              	__compound_literal.448:
 6762 0000 1166843E 		.word	1048864273
 6763              		.section	.data.__compound_literal.447,"aw"
 6764              		.align	2
 6767              	__compound_literal.447:
 6768 0000 01000000 		.word	1
 6769 0004 0C000000 		.word	12
 6770 0008 0C000000 		.word	12
 6771 000c 00010000 		.word	256
 6772              		.section	.data.__compound_literal.446,"aw"
 6773              		.align	1
 6776              	__compound_literal.446:
 6777 0000 AEFF     		.short	-82
 6778              		.section	.data.__compound_literal.445,"aw"
 6779              		.align	2
 6782              	__compound_literal.445:
 6783 0000 1166843E 		.word	1048864273
 6784              		.section	.data.__compound_literal.444,"aw"
 6785              		.align	2
 6788              	__compound_literal.444:
ARM GAS  C:\Users\DJESSOU\AppData\Local\Temp\ccruImXQ.s 			page 160


 6789 0000 01000000 		.word	1
 6790 0004 06000000 		.word	6
 6791 0008 06000000 		.word	6
 6792 000c 00010000 		.word	256
 6793              		.section	.data.__compound_literal.443,"aw"
 6794              		.align	1
 6797              	__compound_literal.443:
 6798 0000 AEFF     		.short	-82
 6799              		.section	.data.__compound_literal.442,"aw"
 6800              		.align	2
 6803              	__compound_literal.442:
 6804 0000 1166843E 		.word	1048864273
 6805              		.section	.data.__compound_literal.441,"aw"
 6806              		.align	2
 6809              	__compound_literal.441:
 6810 0000 01000000 		.word	1
 6811 0004 00010000 		.word	256
 6812 0008 06000000 		.word	6
 6813 000c 06000000 		.word	6
 6814              		.section	.data.__compound_literal.440,"aw"
 6815              		.align	1
 6818              	__compound_literal.440:
 6819 0000 EAFF     		.short	-22
 6820              		.section	.data.__compound_literal.439,"aw"
 6821              		.align	2
 6824              	__compound_literal.439:
 6825 0000 7B4EB93E 		.word	1052331643
 6826              		.section	.data.__compound_literal.438,"aw"
 6827              		.align	2
 6830              	__compound_literal.438:
 6831 0000 01000000 		.word	1
 6832 0004 00010000 		.word	256
 6833 0008 06000000 		.word	6
 6834 000c 06000000 		.word	6
 6835              		.section	.data.__compound_literal.437,"aw"
 6836              		.align	1
 6839              	__compound_literal.437:
 6840 0000 0C00     		.short	12
 6841              		.section	.data.__compound_literal.436,"aw"
 6842              		.align	2
 6845              	__compound_literal.436:
 6846 0000 E07F933E 		.word	1049853920
 6847              		.section	.data.__compound_literal.435,"aw"
 6848              		.align	2
 6851              	__compound_literal.435:
 6852 0000 01000000 		.word	1
 6853 0004 06000000 		.word	6
 6854 0008 06000000 		.word	6
 6855 000c 00010000 		.word	256
 6856              		.section	.data.__compound_literal.434,"aw"
 6857              		.align	2
 6860              	__compound_literal.434:
 6861 0000 01000000 		.word	1
 6862 0004 10000000 		.word	16
 6863 0008 06000000 		.word	6
 6864 000c 06000000 		.word	6
 6865 0010 10000000 		.word	16
ARM GAS  C:\Users\DJESSOU\AppData\Local\Temp\ccruImXQ.s 			page 161


 6866              		.section	.data.__compound_literal.433,"aw"
 6867              		.align	1
 6870              	__compound_literal.433:
 6871 0000 0C00     		.short	12
 6872              		.section	.data.__compound_literal.432,"aw"
 6873              		.align	2
 6876              	__compound_literal.432:
 6877 0000 12ACE13F 		.word	1071754258
 6878              		.section	.data.__compound_literal.431,"aw"
 6879              		.align	2
 6882              	__compound_literal.431:
 6883 0000 01000000 		.word	1
 6884 0004 06000000 		.word	6
 6885 0008 06000000 		.word	6
 6886 000c 00010000 		.word	256
 6887              		.section	.data.__compound_literal.430,"aw"
 6888              		.align	2
 6891              	__compound_literal.430:
 6892 0000 01000000 		.word	1
 6893 0004 00010000 		.word	256
 6894 0008 06000000 		.word	6
 6895 000c 06000000 		.word	6
 6896              		.section	.data.__compound_literal.429,"aw"
 6897              		.align	1
 6900              	__compound_literal.429:
 6901 0000 D9FF     		.short	-39
 6902              		.section	.data.__compound_literal.428,"aw"
 6903              		.align	2
 6906              	__compound_literal.428:
 6907 0000 D1AC8D3E 		.word	1049472209
 6908              		.section	.data.__compound_literal.427,"aw"
 6909              		.align	2
 6912              	__compound_literal.427:
 6913 0000 01000000 		.word	1
 6914 0004 00010000 		.word	256
 6915 0008 06000000 		.word	6
 6916 000c 06000000 		.word	6
 6917              		.section	.data.__compound_literal.426,"aw"
 6918              		.align	1
 6921              	__compound_literal.426:
 6922 0000 D9FF     		.short	-39
 6923              		.section	.data.__compound_literal.425,"aw"
 6924              		.align	2
 6927              	__compound_literal.425:
 6928 0000 D1AC8D3E 		.word	1049472209
 6929              		.section	.data.__compound_literal.424,"aw"
 6930              		.align	2
 6933              	__compound_literal.424:
 6934 0000 01000000 		.word	1
 6935 0004 00010000 		.word	256
 6936 0008 06000000 		.word	6
 6937 000c 06000000 		.word	6
 6938              		.section	.data.__compound_literal.423,"aw"
 6939              		.align	1
 6942              	__compound_literal.423:
 6943 0000 F8FF     		.short	-8
 6944              		.section	.data.__compound_literal.422,"aw"
ARM GAS  C:\Users\DJESSOU\AppData\Local\Temp\ccruImXQ.s 			page 162


 6945              		.align	2
 6948              	__compound_literal.422:
 6949 0000 58F0AD3E 		.word	1051586648
 6950              		.section	.data.__compound_literal.421,"aw"
 6951              		.align	2
 6954              	__compound_literal.421:
 6955 0000 01000000 		.word	1
 6956 0004 00010000 		.word	256
 6957 0008 06000000 		.word	6
 6958 000c 06000000 		.word	6
 6959              		.section	.data.__compound_literal.420,"aw"
 6960              		.align	1
 6963              	__compound_literal.420:
 6964 0000 1D00     		.short	29
 6965              		.section	.data.__compound_literal.419,"aw"
 6966              		.align	2
 6969              	__compound_literal.419:
 6970 0000 58658E3E 		.word	1049519448
 6971              		.section	.data.__compound_literal.418,"aw"
 6972              		.align	2
 6975              	__compound_literal.418:
 6976 0000 01000000 		.word	1
 6977 0004 06000000 		.word	6
 6978 0008 06000000 		.word	6
 6979 000c 00010000 		.word	256
 6980              		.section	.data.__compound_literal.417,"aw"
 6981              		.align	2
 6984              	__compound_literal.417:
 6985 0000 01000000 		.word	1
 6986 0004 10000000 		.word	16
 6987 0008 06000000 		.word	6
 6988 000c 06000000 		.word	6
 6989 0010 10000000 		.word	16
 6990              		.section	.data.__compound_literal.416,"aw"
 6991              		.align	1
 6994              	__compound_literal.416:
 6995 0000 EBFF     		.short	-21
 6996              		.section	.data.__compound_literal.415,"aw"
 6997              		.align	2
 7000              	__compound_literal.415:
 7001 0000 4CF6A03F 		.word	1067513420
 7002              		.section	.data.__compound_literal.414,"aw"
 7003              		.align	2
 7006              	__compound_literal.414:
 7007 0000 01000000 		.word	1
 7008 0004 06000000 		.word	6
 7009 0008 06000000 		.word	6
 7010 000c 00010000 		.word	256
 7011              		.section	.data.__compound_literal.413,"aw"
 7012              		.align	2
 7015              	__compound_literal.413:
 7016 0000 01000000 		.word	1
 7017 0004 00010000 		.word	256
 7018 0008 06000000 		.word	6
 7019 000c 06000000 		.word	6
 7020              		.section	.data.__compound_literal.412,"aw"
 7021              		.align	1
ARM GAS  C:\Users\DJESSOU\AppData\Local\Temp\ccruImXQ.s 			page 163


 7024              	__compound_literal.412:
 7025 0000 E9FF     		.short	-23
 7026              		.section	.data.__compound_literal.411,"aw"
 7027              		.align	2
 7030              	__compound_literal.411:
 7031 0000 F0BB4D3E 		.word	1045281776
 7032              		.section	.data.__compound_literal.410,"aw"
 7033              		.align	2
 7036              	__compound_literal.410:
 7037 0000 01000000 		.word	1
 7038 0004 00010000 		.word	256
 7039 0008 06000000 		.word	6
 7040 000c 06000000 		.word	6
 7041              		.section	.data.__compound_literal.409,"aw"
 7042              		.align	1
 7045              	__compound_literal.409:
 7046 0000 E9FF     		.short	-23
 7047              		.section	.data.__compound_literal.408,"aw"
 7048              		.align	2
 7051              	__compound_literal.408:
 7052 0000 F0BB4D3E 		.word	1045281776
 7053              		.section	.data.__compound_literal.407,"aw"
 7054              		.align	2
 7057              	__compound_literal.407:
 7058 0000 01000000 		.word	1
 7059 0004 00010000 		.word	256
 7060 0008 06000000 		.word	6
 7061 000c 06000000 		.word	6
 7062              		.section	.data.__compound_literal.406,"aw"
 7063              		.align	1
 7066              	__compound_literal.406:
 7067 0000 F5FF     		.short	-11
 7068              		.section	.data.__compound_literal.405,"aw"
 7069              		.align	2
 7072              	__compound_literal.405:
 7073 0000 B2F35E3E 		.word	1046410162
 7074              		.section	.data.__compound_literal.404,"aw"
 7075              		.align	2
 7078              	__compound_literal.404:
 7079 0000 01000000 		.word	1
 7080 0004 00010000 		.word	256
 7081 0008 06000000 		.word	6
 7082 000c 06000000 		.word	6
 7083              		.section	.data.__compound_literal.403,"aw"
 7084              		.align	1
 7087              	__compound_literal.403:
 7088 0000 1600     		.short	22
 7089              		.section	.data.__compound_literal.402,"aw"
 7090              		.align	2
 7093              	__compound_literal.402:
 7094 0000 A80F233E 		.word	1042485160
 7095              		.section	.data.__compound_literal.401,"aw"
 7096              		.align	2
 7099              	__compound_literal.401:
 7100 0000 01000000 		.word	1
 7101 0004 06000000 		.word	6
 7102 0008 06000000 		.word	6
ARM GAS  C:\Users\DJESSOU\AppData\Local\Temp\ccruImXQ.s 			page 164


 7103 000c 00010000 		.word	256
 7104              		.section	.data.__compound_literal.400,"aw"
 7105              		.align	2
 7108              	__compound_literal.400:
 7109 0000 01000000 		.word	1
 7110 0004 10000000 		.word	16
 7111 0008 06000000 		.word	6
 7112 000c 06000000 		.word	6
 7113 0010 10000000 		.word	16
 7114              		.section	.data.__compound_literal.399,"aw"
 7115              		.align	1
 7118              	__compound_literal.399:
 7119 0000 F2FF     		.short	-14
 7120              		.section	.data.__compound_literal.398,"aw"
 7121              		.align	2
 7124              	__compound_literal.398:
 7125 0000 5DE9A43F 		.word	1067772253
 7126              		.section	.data.__compound_literal.397,"aw"
 7127              		.align	2
 7130              	__compound_literal.397:
 7131 0000 01000000 		.word	1
 7132 0004 06000000 		.word	6
 7133 0008 06000000 		.word	6
 7134 000c 00010000 		.word	256
 7135              		.section	.data.__compound_literal.396,"aw"
 7136              		.align	2
 7139              	__compound_literal.396:
 7140 0000 01000000 		.word	1
 7141 0004 00010000 		.word	256
 7142 0008 06000000 		.word	6
 7143 000c 06000000 		.word	6
 7144              		.section	.data.__compound_literal.395,"aw"
 7145              		.align	1
 7148              	__compound_literal.395:
 7149 0000 F1FF     		.short	-15
 7150              		.section	.data.__compound_literal.394,"aw"
 7151              		.align	2
 7154              	__compound_literal.394:
 7155 0000 18263A3E 		.word	1043998232
 7156              		.section	.data.__compound_literal.393,"aw"
 7157              		.align	2
 7160              	__compound_literal.393:
 7161 0000 01000000 		.word	1
 7162 0004 00010000 		.word	256
 7163 0008 06000000 		.word	6
 7164 000c 06000000 		.word	6
 7165              		.section	.data.__compound_literal.392,"aw"
 7166              		.align	1
 7169              	__compound_literal.392:
 7170 0000 F1FF     		.short	-15
 7171              		.section	.data.__compound_literal.391,"aw"
 7172              		.align	2
 7175              	__compound_literal.391:
 7176 0000 18263A3E 		.word	1043998232
 7177              		.section	.data.__compound_literal.390,"aw"
 7178              		.align	2
 7181              	__compound_literal.390:
ARM GAS  C:\Users\DJESSOU\AppData\Local\Temp\ccruImXQ.s 			page 165


 7182 0000 01000000 		.word	1
 7183 0004 00010000 		.word	256
 7184 0008 06000000 		.word	6
 7185 000c 06000000 		.word	6
 7186              		.section	.data.__compound_literal.389,"aw"
 7187              		.align	1
 7190              	__compound_literal.389:
 7191 0000 0300     		.short	3
 7192              		.section	.data.__compound_literal.388,"aw"
 7193              		.align	2
 7196              	__compound_literal.388:
 7197 0000 A192543E 		.word	1045729953
 7198              		.section	.data.__compound_literal.387,"aw"
 7199              		.align	2
 7202              	__compound_literal.387:
 7203 0000 01000000 		.word	1
 7204 0004 00010000 		.word	256
 7205 0008 06000000 		.word	6
 7206 000c 06000000 		.word	6
 7207              		.section	.data.__compound_literal.386,"aw"
 7208              		.align	1
 7211              	__compound_literal.386:
 7212 0000 1100     		.short	17
 7213              		.section	.data.__compound_literal.385,"aw"
 7214              		.align	2
 7217              	__compound_literal.385:
 7218 0000 7FD7003E 		.word	1040242559
 7219              		.section	.data.__compound_literal.384,"aw"
 7220              		.align	2
 7223              	__compound_literal.384:
 7224 0000 01000000 		.word	1
 7225 0004 06000000 		.word	6
 7226 0008 06000000 		.word	6
 7227 000c 00010000 		.word	256
 7228              		.section	.data.__compound_literal.383,"aw"
 7229              		.align	2
 7232              	__compound_literal.383:
 7233 0000 01000000 		.word	1
 7234 0004 10000000 		.word	16
 7235 0008 06000000 		.word	6
 7236 000c 06000000 		.word	6
 7237 0010 10000000 		.word	16
 7238              		.section	.data.__compound_literal.382,"aw"
 7239              		.align	1
 7242              	__compound_literal.382:
 7243 0000 0700     		.short	7
 7244              		.section	.data.__compound_literal.381,"aw"
 7245              		.align	2
 7248              	__compound_literal.381:
 7249 0000 008D643F 		.word	1063554304
 7250              		.section	.data.__compound_literal.380,"aw"
 7251              		.align	2
 7254              	__compound_literal.380:
 7255 0000 01000000 		.word	1
 7256 0004 06000000 		.word	6
 7257 0008 06000000 		.word	6
 7258 000c 00010000 		.word	256
ARM GAS  C:\Users\DJESSOU\AppData\Local\Temp\ccruImXQ.s 			page 166


 7259              		.section	.data.__compound_literal.379,"aw"
 7260              		.align	2
 7263              	__compound_literal.379:
 7264 0000 01000000 		.word	1
 7265 0004 00010000 		.word	256
 7266 0008 06000000 		.word	6
 7267 000c 06000000 		.word	6
 7268              		.section	.bss.__compound_literal.378,"aw",%nobits
 7269              		.align	1
 7272              	__compound_literal.378:
 7273 0000 0000     		.space	2
 7274              		.section	.data.__compound_literal.377,"aw"
 7275              		.align	2
 7278              	__compound_literal.377:
 7279 0000 637F353E 		.word	1043693411
 7280              		.section	.data.__compound_literal.376,"aw"
 7281              		.align	2
 7284              	__compound_literal.376:
 7285 0000 01000000 		.word	1
 7286 0004 00010000 		.word	256
 7287 0008 06000000 		.word	6
 7288 000c 06000000 		.word	6
 7289              		.section	.bss.__compound_literal.375,"aw",%nobits
 7290              		.align	1
 7293              	__compound_literal.375:
 7294 0000 0000     		.space	2
 7295              		.section	.data.__compound_literal.374,"aw"
 7296              		.align	2
 7299              	__compound_literal.374:
 7300 0000 637F353E 		.word	1043693411
 7301              		.section	.data.__compound_literal.373,"aw"
 7302              		.align	2
 7305              	__compound_literal.373:
 7306 0000 01000000 		.word	1
 7307 0004 00010000 		.word	256
 7308 0008 06000000 		.word	6
 7309 000c 06000000 		.word	6
 7310              		.section	.data.__compound_literal.372,"aw"
 7311              		.align	1
 7314              	__compound_literal.372:
 7315 0000 F2FF     		.short	-14
 7316              		.section	.data.__compound_literal.371,"aw"
 7317              		.align	2
 7320              	__compound_literal.371:
 7321 0000 129D233E 		.word	1042521362
 7322              		.section	.data.__compound_literal.370,"aw"
 7323              		.align	2
 7326              	__compound_literal.370:
 7327 0000 01000000 		.word	1
 7328 0004 00010000 		.word	256
 7329 0008 06000000 		.word	6
 7330 000c 06000000 		.word	6
 7331              		.section	.data.__compound_literal.369,"aw"
 7332              		.align	1
 7335              	__compound_literal.369:
 7336 0000 C8FF     		.short	-56
 7337              		.section	.data.__compound_literal.368,"aw"
ARM GAS  C:\Users\DJESSOU\AppData\Local\Temp\ccruImXQ.s 			page 167


 7338              		.align	2
 7341              	__compound_literal.368:
 7342 0000 9B425A3D 		.word	1029325467
 7343              		.section	.data.__compound_literal.367,"aw"
 7344              		.align	2
 7347              	__compound_literal.367:
 7348 0000 01000000 		.word	1
 7349 0004 00010000 		.word	256
 7350 0008 06000000 		.word	6
 7351 000c 06000000 		.word	6
 7352              		.section	.data.__compound_literal.366,"aw"
 7353              		.align	1
 7356              	__compound_literal.366:
 7357 0000 0300     		.short	3
 7358              		.section	.data.__compound_literal.365,"aw"
 7359              		.align	2
 7362              	__compound_literal.365:
 7363 0000 4E840F3E 		.word	1041204302
 7364              		.section	.data.__compound_literal.364,"aw"
 7365              		.align	2
 7368              	__compound_literal.364:
 7369 0000 01000000 		.word	1
 7370 0004 06000000 		.word	6
 7371 0008 06000000 		.word	6
 7372 000c 00010000 		.word	256
 7373              		.section	.data.__compound_literal.363,"aw"
 7374              		.align	2
 7377              	__compound_literal.363:
 7378 0000 01000000 		.word	1
 7379 0004 10000000 		.word	16
 7380 0008 06000000 		.word	6
 7381 000c 06000000 		.word	6
 7382 0010 10000000 		.word	16
 7383              		.section	.data.__compound_literal.362,"aw"
 7384              		.align	1
 7387              	__compound_literal.362:
 7388 0000 0A00     		.short	10
 7389              		.section	.data.__compound_literal.361,"aw"
 7390              		.align	2
 7393              	__compound_literal.361:
 7394 0000 3BD5013F 		.word	1057084731
 7395              		.section	.data.__compound_literal.360,"aw"
 7396              		.align	2
 7399              	__compound_literal.360:
 7400 0000 01000000 		.word	1
 7401 0004 06000000 		.word	6
 7402 0008 06000000 		.word	6
 7403 000c 00010000 		.word	256
 7404              		.section	.data.__compound_literal.359,"aw"
 7405              		.align	2
 7408              	__compound_literal.359:
 7409 0000 01000000 		.word	1
 7410 0004 00010000 		.word	256
 7411 0008 06000000 		.word	6
 7412 000c 06000000 		.word	6
 7413              		.section	.data.__compound_literal.358,"aw"
 7414              		.align	1
ARM GAS  C:\Users\DJESSOU\AppData\Local\Temp\ccruImXQ.s 			page 168


 7417              	__compound_literal.358:
 7418 0000 C8FF     		.short	-56
 7419              		.section	.data.__compound_literal.357,"aw"
 7420              		.align	2
 7423              	__compound_literal.357:
 7424 0000 9B425A3D 		.word	1029325467
 7425              		.section	.data.__compound_literal.356,"aw"
 7426              		.align	2
 7429              	__compound_literal.356:
 7430 0000 01000000 		.word	1
 7431 0004 00010000 		.word	256
 7432 0008 0C000000 		.word	12
 7433 000c 0C000000 		.word	12
 7434              		.section	.data.__compound_literal.355,"aw"
 7435              		.align	1
 7438              	__compound_literal.355:
 7439 0000 C8FF     		.short	-56
 7440              		.section	.data.__compound_literal.354,"aw"
 7441              		.align	2
 7444              	__compound_literal.354:
 7445 0000 9B425A3D 		.word	1029325467
 7446              		.section	.data.__compound_literal.353,"aw"
 7447              		.align	2
 7450              	__compound_literal.353:
 7451 0000 01000000 		.word	1
 7452 0004 00010000 		.word	256
 7453 0008 0C000000 		.word	12
 7454 000c 0C000000 		.word	12
 7455              		.section	.data.__compound_literal.352,"aw"
 7456              		.align	1
 7459              	__compound_literal.352:
 7460 0000 EEFF     		.short	-18
 7461              		.section	.data.__compound_literal.351,"aw"
 7462              		.align	2
 7465              	__compound_literal.351:
 7466 0000 428A893D 		.word	1032424002
 7467              		.section	.data.__compound_literal.350,"aw"
 7468              		.align	2
 7471              	__compound_literal.350:
 7472 0000 01000000 		.word	1
 7473 0004 00010000 		.word	256
 7474 0008 0C000000 		.word	12
 7475 000c 0C000000 		.word	12
 7476              		.section	.data.__compound_literal.349,"aw"
 7477              		.align	1
 7480              	__compound_literal.349:
 7481 0000 3000     		.short	48
 7482              		.section	.data.__compound_literal.348,"aw"
 7483              		.align	2
 7486              	__compound_literal.348:
 7487 0000 E657433D 		.word	1027823590
 7488              		.section	.data.__compound_literal.347,"aw"
 7489              		.align	2
 7492              	__compound_literal.347:
 7493 0000 01000000 		.word	1
 7494 0004 0C000000 		.word	12
 7495 0008 0C000000 		.word	12
ARM GAS  C:\Users\DJESSOU\AppData\Local\Temp\ccruImXQ.s 			page 169


 7496 000c 00010000 		.word	256
 7497              		.section	.data.__compound_literal.346,"aw"
 7498              		.align	2
 7501              	__compound_literal.346:
 7502 0000 01000000 		.word	1
 7503 0004 10000000 		.word	16
 7504 0008 0C000000 		.word	12
 7505 000c 0C000000 		.word	12
 7506 0010 10000000 		.word	16
 7507              		.section	.data.__compound_literal.345,"aw"
 7508              		.align	1
 7511              	__compound_literal.345:
 7512 0000 EEFF     		.short	-18
 7513              		.section	.data.__compound_literal.344,"aw"
 7514              		.align	2
 7517              	__compound_literal.344:
 7518 0000 A20CC63E 		.word	1053166754
 7519              		.section	.data.__compound_literal.343,"aw"
 7520              		.align	2
 7523              	__compound_literal.343:
 7524 0000 01000000 		.word	1
 7525 0004 0C000000 		.word	12
 7526 0008 0C000000 		.word	12
 7527 000c 00010000 		.word	256
 7528              		.section	.data.__compound_literal.342,"aw"
 7529              		.align	2
 7532              	__compound_literal.342:
 7533 0000 01000000 		.word	1
 7534 0004 00010000 		.word	256
 7535 0008 0C000000 		.word	12
 7536 000c 0C000000 		.word	12
 7537              		.section	.data.__compound_literal.341,"aw"
 7538              		.align	1
 7541              	__compound_literal.341:
 7542 0000 CCFF     		.short	-52
 7543              		.section	.data.__compound_literal.340,"aw"
 7544              		.align	2
 7547              	__compound_literal.340:
 7548 0000 FCAB553D 		.word	1029024764
 7549              		.section	.data.__compound_literal.339,"aw"
 7550              		.align	2
 7553              	__compound_literal.339:
 7554 0000 01000000 		.word	1
 7555 0004 00010000 		.word	256
 7556 0008 0C000000 		.word	12
 7557 000c 0C000000 		.word	12
 7558              		.section	.data.__compound_literal.338,"aw"
 7559              		.align	1
 7562              	__compound_literal.338:
 7563 0000 CCFF     		.short	-52
 7564              		.section	.data.__compound_literal.337,"aw"
 7565              		.align	2
 7568              	__compound_literal.337:
 7569 0000 FCAB553D 		.word	1029024764
 7570              		.section	.data.__compound_literal.336,"aw"
 7571              		.align	2
 7574              	__compound_literal.336:
ARM GAS  C:\Users\DJESSOU\AppData\Local\Temp\ccruImXQ.s 			page 170


 7575 0000 01000000 		.word	1
 7576 0004 00010000 		.word	256
 7577 0008 0C000000 		.word	12
 7578 000c 0C000000 		.word	12
 7579              		.section	.data.__compound_literal.335,"aw"
 7580              		.align	1
 7583              	__compound_literal.335:
 7584 0000 F9FF     		.short	-7
 7585              		.section	.data.__compound_literal.334,"aw"
 7586              		.align	2
 7589              	__compound_literal.334:
 7590 0000 3C9C8E3D 		.word	1032756284
 7591              		.section	.data.__compound_literal.333,"aw"
 7592              		.align	2
 7595              	__compound_literal.333:
 7596 0000 01000000 		.word	1
 7597 0004 00010000 		.word	256
 7598 0008 0C000000 		.word	12
 7599 000c 0C000000 		.word	12
 7600              		.section	.data.__compound_literal.332,"aw"
 7601              		.align	1
 7604              	__compound_literal.332:
 7605 0000 1F00     		.short	31
 7606              		.section	.data.__compound_literal.331,"aw"
 7607              		.align	2
 7610              	__compound_literal.331:
 7611 0000 3BC4483D 		.word	1028179003
 7612              		.section	.data.__compound_literal.330,"aw"
 7613              		.align	2
 7616              	__compound_literal.330:
 7617 0000 01000000 		.word	1
 7618 0004 0C000000 		.word	12
 7619 0008 0C000000 		.word	12
 7620 000c 00010000 		.word	256
 7621              		.section	.data.__compound_literal.329,"aw"
 7622              		.align	2
 7625              	__compound_literal.329:
 7626 0000 01000000 		.word	1
 7627 0004 10000000 		.word	16
 7628 0008 0C000000 		.word	12
 7629 000c 0C000000 		.word	12
 7630 0010 10000000 		.word	16
 7631              		.section	.data.__compound_literal.328,"aw"
 7632              		.align	1
 7635              	__compound_literal.328:
 7636 0000 F7FF     		.short	-9
 7637              		.section	.data.__compound_literal.327,"aw"
 7638              		.align	2
 7641              	__compound_literal.327:
 7642 0000 A526D43E 		.word	1054090917
 7643              		.section	.data.__compound_literal.326,"aw"
 7644              		.align	2
 7647              	__compound_literal.326:
 7648 0000 01000000 		.word	1
 7649 0004 0C000000 		.word	12
 7650 0008 0C000000 		.word	12
 7651 000c 00010000 		.word	256
ARM GAS  C:\Users\DJESSOU\AppData\Local\Temp\ccruImXQ.s 			page 171


 7652              		.section	.data.__compound_literal.325,"aw"
 7653              		.align	2
 7656              	__compound_literal.325:
 7657 0000 01000000 		.word	1
 7658 0004 00010000 		.word	256
 7659 0008 0C000000 		.word	12
 7660 000c 0C000000 		.word	12
 7661              		.section	.data.__compound_literal.324,"aw"
 7662              		.align	1
 7665              	__compound_literal.324:
 7666 0000 DAFF     		.short	-38
 7667              		.section	.data.__compound_literal.323,"aw"
 7668              		.align	2
 7671              	__compound_literal.323:
 7672 0000 1C438E3D 		.word	1032733468
 7673              		.section	.data.__compound_literal.322,"aw"
 7674              		.align	2
 7677              	__compound_literal.322:
 7678 0000 01000000 		.word	1
 7679 0004 00010000 		.word	256
 7680 0008 0C000000 		.word	12
 7681 000c 0C000000 		.word	12
 7682              		.section	.data.__compound_literal.321,"aw"
 7683              		.align	1
 7686              	__compound_literal.321:
 7687 0000 DAFF     		.short	-38
 7688              		.section	.data.__compound_literal.320,"aw"
 7689              		.align	2
 7692              	__compound_literal.320:
 7693 0000 1C438E3D 		.word	1032733468
 7694              		.section	.data.__compound_literal.319,"aw"
 7695              		.align	2
 7698              	__compound_literal.319:
 7699 0000 01000000 		.word	1
 7700 0004 00010000 		.word	256
 7701 0008 0C000000 		.word	12
 7702 000c 0C000000 		.word	12
 7703              		.section	.data.__compound_literal.318,"aw"
 7704              		.align	1
 7707              	__compound_literal.318:
 7708 0000 EAFF     		.short	-22
 7709              		.section	.data.__compound_literal.317,"aw"
 7710              		.align	2
 7713              	__compound_literal.317:
 7714 0000 497F9D3D 		.word	1033731913
 7715              		.section	.data.__compound_literal.316,"aw"
 7716              		.align	2
 7719              	__compound_literal.316:
 7720 0000 01000000 		.word	1
 7721 0004 00010000 		.word	256
 7722 0008 0C000000 		.word	12
 7723 000c 0C000000 		.word	12
 7724              		.section	.data.__compound_literal.315,"aw"
 7725              		.align	1
 7728              	__compound_literal.315:
 7729 0000 1A00     		.short	26
 7730              		.section	.data.__compound_literal.314,"aw"
ARM GAS  C:\Users\DJESSOU\AppData\Local\Temp\ccruImXQ.s 			page 172


 7731              		.align	2
 7734              	__compound_literal.314:
 7735 0000 B5DF3E3D 		.word	1027530677
 7736              		.section	.data.__compound_literal.313,"aw"
 7737              		.align	2
 7740              	__compound_literal.313:
 7741 0000 01000000 		.word	1
 7742 0004 0C000000 		.word	12
 7743 0008 0C000000 		.word	12
 7744 000c 00010000 		.word	256
 7745              		.section	.data.__compound_literal.312,"aw"
 7746              		.align	2
 7749              	__compound_literal.312:
 7750 0000 01000000 		.word	1
 7751 0004 10000000 		.word	16
 7752 0008 0C000000 		.word	12
 7753 000c 0C000000 		.word	12
 7754 0010 10000000 		.word	16
 7755              		.section	.data.__compound_literal.311,"aw"
 7756              		.align	1
 7759              	__compound_literal.311:
 7760 0000 0200     		.short	2
 7761              		.section	.data.__compound_literal.310,"aw"
 7762              		.align	2
 7765              	__compound_literal.310:
 7766 0000 663AA63E 		.word	1051081318
 7767              		.section	.data.__compound_literal.309,"aw"
 7768              		.align	2
 7771              	__compound_literal.309:
 7772 0000 01000000 		.word	1
 7773 0004 0C000000 		.word	12
 7774 0008 0C000000 		.word	12
 7775 000c 00010000 		.word	256
 7776              		.section	.data.__compound_literal.308,"aw"
 7777              		.align	2
 7780              	__compound_literal.308:
 7781 0000 01000000 		.word	1
 7782 0004 00010000 		.word	256
 7783 0008 0C000000 		.word	12
 7784 000c 0C000000 		.word	12
 7785              		.section	.data.__compound_literal.307,"aw"
 7786              		.align	1
 7789              	__compound_literal.307:
 7790 0000 F7FF     		.short	-9
 7791              		.section	.data.__compound_literal.306,"aw"
 7792              		.align	2
 7795              	__compound_literal.306:
 7796 0000 67FFB83D 		.word	1035534183
 7797              		.section	.data.__compound_literal.305,"aw"
 7798              		.align	2
 7801              	__compound_literal.305:
 7802 0000 01000000 		.word	1
 7803 0004 00010000 		.word	256
 7804 0008 0C000000 		.word	12
 7805 000c 0C000000 		.word	12
 7806              		.section	.data.__compound_literal.304,"aw"
 7807              		.align	1
ARM GAS  C:\Users\DJESSOU\AppData\Local\Temp\ccruImXQ.s 			page 173


 7810              	__compound_literal.304:
 7811 0000 F7FF     		.short	-9
 7812              		.section	.data.__compound_literal.303,"aw"
 7813              		.align	2
 7816              	__compound_literal.303:
 7817 0000 67FFB83D 		.word	1035534183
 7818              		.section	.data.__compound_literal.302,"aw"
 7819              		.align	2
 7822              	__compound_literal.302:
 7823 0000 01000000 		.word	1
 7824 0004 00010000 		.word	256
 7825 0008 0C000000 		.word	12
 7826 000c 0C000000 		.word	12
 7827              		.section	.data.__compound_literal.301,"aw"
 7828              		.align	1
 7831              	__compound_literal.301:
 7832 0000 EDFF     		.short	-19
 7833              		.section	.data.__compound_literal.300,"aw"
 7834              		.align	2
 7837              	__compound_literal.300:
 7838 0000 C972AB3D 		.word	1034646217
 7839              		.section	.data.__compound_literal.299,"aw"
 7840              		.align	2
 7843              	__compound_literal.299:
 7844 0000 01000000 		.word	1
 7845 0004 00010000 		.word	256
 7846 0008 0C000000 		.word	12
 7847 000c 0C000000 		.word	12
 7848              		.section	.data.__compound_literal.298,"aw"
 7849              		.align	1
 7852              	__compound_literal.298:
 7853 0000 1700     		.short	23
 7854              		.section	.data.__compound_literal.297,"aw"
 7855              		.align	2
 7858              	__compound_literal.297:
 7859 0000 4BEC413D 		.word	1027730507
 7860              		.section	.data.__compound_literal.296,"aw"
 7861              		.align	2
 7864              	__compound_literal.296:
 7865 0000 01000000 		.word	1
 7866 0004 0C000000 		.word	12
 7867 0008 0C000000 		.word	12
 7868 000c 00010000 		.word	256
 7869              		.section	.bss.__compound_literal.295,"aw",%nobits
 7870              		.align	1
 7873              	__compound_literal.295:
 7874 0000 0000     		.space	2
 7875              		.section	.data.__compound_literal.294,"aw"
 7876              		.align	2
 7879              	__compound_literal.294:
 7880 0000 B617743E 		.word	1047795638
 7881              		.section	.data.__compound_literal.293,"aw"
 7882              		.align	2
 7885              	__compound_literal.293:
 7886 0000 01000000 		.word	1
 7887 0004 0C000000 		.word	12
 7888 0008 0C000000 		.word	12
ARM GAS  C:\Users\DJESSOU\AppData\Local\Temp\ccruImXQ.s 			page 174


 7889 000c 00010000 		.word	256
 7890              		.section	.data.__compound_literal.292,"aw"
 7891              		.align	2
 7894              	__compound_literal.292:
 7895 0000 01000000 		.word	1
 7896 0004 00010000 		.word	256
 7897 0008 0C000000 		.word	12
 7898 000c 0C000000 		.word	12
 7899              		.section	.data.__compound_literal.291,"aw"
 7900              		.align	1
 7903              	__compound_literal.291:
 7904 0000 CFFF     		.short	-49
 7905              		.section	.data.__compound_literal.290,"aw"
 7906              		.align	2
 7909              	__compound_literal.290:
 7910 0000 B00FA23D 		.word	1034031024
 7911              		.section	.data.__compound_literal.289,"aw"
 7912              		.align	2
 7915              	__compound_literal.289:
 7916 0000 01000000 		.word	1
 7917 0004 00010000 		.word	256
 7918 0008 0C000000 		.word	12
 7919 000c 0C000000 		.word	12
 7920              		.section	.data.__compound_literal.288,"aw"
 7921              		.align	1
 7924              	__compound_literal.288:
 7925 0000 CFFF     		.short	-49
 7926              		.section	.data.__compound_literal.287,"aw"
 7927              		.align	2
 7930              	__compound_literal.287:
 7931 0000 B00FA23D 		.word	1034031024
 7932              		.section	.data.__compound_literal.286,"aw"
 7933              		.align	2
 7936              	__compound_literal.286:
 7937 0000 01000000 		.word	1
 7938 0004 00010000 		.word	256
 7939 0008 0C000000 		.word	12
 7940 000c 0C000000 		.word	12
 7941              		.section	.data.__compound_literal.285,"aw"
 7942              		.align	1
 7945              	__compound_literal.285:
 7946 0000 EAFF     		.short	-22
 7947              		.section	.data.__compound_literal.284,"aw"
 7948              		.align	2
 7951              	__compound_literal.284:
 7952 0000 946EBF3D 		.word	1035955860
 7953              		.section	.data.__compound_literal.283,"aw"
 7954              		.align	2
 7957              	__compound_literal.283:
 7958 0000 01000000 		.word	1
 7959 0004 00010000 		.word	256
 7960 0008 0C000000 		.word	12
 7961 000c 0C000000 		.word	12
 7962              		.section	.data.__compound_literal.282,"aw"
 7963              		.align	1
 7966              	__compound_literal.282:
 7967 0000 DAFF     		.short	-38
ARM GAS  C:\Users\DJESSOU\AppData\Local\Temp\ccruImXQ.s 			page 175


 7968              		.section	.data.__compound_literal.281,"aw"
 7969              		.align	2
 7972              	__compound_literal.281:
 7973 0000 07293A3D 		.word	1027221767
 7974              		.section	.data.__compound_literal.280,"aw"
 7975              		.align	2
 7978              	__compound_literal.280:
 7979 0000 01000000 		.word	1
 7980 0004 00010000 		.word	256
 7981 0008 0C000000 		.word	12
 7982 000c 0C000000 		.word	12
 7983              		.section	.data.__compound_literal.279,"aw"
 7984              		.align	2
 7987              	__compound_literal.279:
 7988 0000 01000000 		.word	1
 7989 0004 0C000000 		.word	12
 7990 0008 00010000 		.word	256
 7991 000c 0C000000 		.word	12
 7992              		.section	.data.__compound_literal.278,"aw"
 7993              		.align	1
 7996              	__compound_literal.278:
 7997 0000 DAFF     		.short	-38
 7998              		.section	.data.__compound_literal.277,"aw"
 7999              		.align	2
 8002              	__compound_literal.277:
 8003 0000 07293A3D 		.word	1027221767
 8004              		.section	.data.__compound_literal.276,"aw"
 8005              		.align	2
 8008              	__compound_literal.276:
 8009 0000 01000000 		.word	1
 8010 0004 0C000000 		.word	12
 8011 0008 80000000 		.word	128
 8012 000c 0C000000 		.word	12
 8013              		.section	.data.__compound_literal.275,"aw"
 8014              		.align	1
 8017              	__compound_literal.275:
 8018 0000 DAFF     		.short	-38
 8019              		.section	.data.__compound_literal.274,"aw"
 8020              		.align	2
 8023              	__compound_literal.274:
 8024 0000 07293A3D 		.word	1027221767
 8025              		.section	.data.__compound_literal.273,"aw"
 8026              		.align	2
 8029              	__compound_literal.273:
 8030 0000 01000000 		.word	1
 8031 0004 80000000 		.word	128
 8032 0008 0C000000 		.word	12
 8033 000c 0C000000 		.word	12
 8034              		.section	.data.__compound_literal.272,"aw"
 8035              		.align	1
 8038              	__compound_literal.272:
 8039 0000 F2FF     		.short	-14
 8040              		.section	.data.__compound_literal.271,"aw"
 8041              		.align	2
 8044              	__compound_literal.271:
 8045 0000 007CB03D 		.word	1034976256
 8046              		.section	.data.__compound_literal.270,"aw"
ARM GAS  C:\Users\DJESSOU\AppData\Local\Temp\ccruImXQ.s 			page 176


 8047              		.align	2
 8050              	__compound_literal.270:
 8051 0000 01000000 		.word	1
 8052 0004 0C000000 		.word	12
 8053 0008 0C000000 		.word	12
 8054 000c 00010000 		.word	256
 8055              		.section	.data.__compound_literal.269,"aw"
 8056              		.align	2
 8059              	__compound_literal.269:
 8060 0000 01000000 		.word	1
 8061 0004 10000000 		.word	16
 8062 0008 0C000000 		.word	12
 8063 000c 0C000000 		.word	12
 8064 0010 10000000 		.word	16
 8065              		.section	.data.__compound_literal.268,"aw"
 8066              		.align	1
 8069              	__compound_literal.268:
 8070 0000 2800     		.short	40
 8071              		.section	.data.__compound_literal.267,"aw"
 8072              		.align	2
 8075              	__compound_literal.267:
 8076 0000 E950013F 		.word	1057050857
 8077              		.section	.data.__compound_literal.266,"aw"
 8078              		.align	2
 8081              	__compound_literal.266:
 8082 0000 01000000 		.word	1
 8083 0004 0C000000 		.word	12
 8084 0008 0C000000 		.word	12
 8085 000c 80000000 		.word	128
 8086              		.section	.data.__compound_literal.265,"aw"
 8087              		.align	2
 8090              	__compound_literal.265:
 8091 0000 01000000 		.word	1
 8092 0004 80000000 		.word	128
 8093 0008 0C000000 		.word	12
 8094 000c 0C000000 		.word	12
 8095              		.section	.data.__compound_literal.264,"aw"
 8096              		.align	1
 8099              	__compound_literal.264:
 8100 0000 DAFF     		.short	-38
 8101              		.section	.data.__compound_literal.263,"aw"
 8102              		.align	2
 8105              	__compound_literal.263:
 8106 0000 07293A3D 		.word	1027221767
 8107              		.section	.data.__compound_literal.262,"aw"
 8108              		.align	2
 8111              	__compound_literal.262:
 8112 0000 01000000 		.word	1
 8113 0004 80000000 		.word	128
 8114 0008 18000000 		.word	24
 8115 000c 18000000 		.word	24
 8116              		.section	.data.__compound_literal.261,"aw"
 8117              		.align	1
 8120              	__compound_literal.261:
 8121 0000 DAFF     		.short	-38
 8122              		.section	.data.__compound_literal.260,"aw"
 8123              		.align	2
ARM GAS  C:\Users\DJESSOU\AppData\Local\Temp\ccruImXQ.s 			page 177


 8126              	__compound_literal.260:
 8127 0000 07293A3D 		.word	1027221767
 8128              		.section	.data.__compound_literal.259,"aw"
 8129              		.align	2
 8132              	__compound_literal.259:
 8133 0000 01000000 		.word	1
 8134 0004 80000000 		.word	128
 8135 0008 18000000 		.word	24
 8136 000c 18000000 		.word	24
 8137              		.section	.data.__compound_literal.258,"aw"
 8138              		.align	1
 8141              	__compound_literal.258:
 8142 0000 1C00     		.short	28
 8143              		.section	.data.__compound_literal.257,"aw"
 8144              		.align	2
 8147              	__compound_literal.257:
 8148 0000 2A4E9C3D 		.word	1033653802
 8149              		.section	.data.__compound_literal.256,"aw"
 8150              		.align	2
 8153              	__compound_literal.256:
 8154 0000 01000000 		.word	1
 8155 0004 80000000 		.word	128
 8156 0008 18000000 		.word	24
 8157 000c 18000000 		.word	24
 8158              		.section	.data.__compound_literal.255,"aw"
 8159              		.align	1
 8162              	__compound_literal.255:
 8163 0000 4800     		.short	72
 8164              		.section	.data.__compound_literal.254,"aw"
 8165              		.align	2
 8168              	__compound_literal.254:
 8169 0000 6301833D 		.word	1031995747
 8170              		.section	.data.__compound_literal.253,"aw"
 8171              		.align	2
 8174              	__compound_literal.253:
 8175 0000 01000000 		.word	1
 8176 0004 18000000 		.word	24
 8177 0008 18000000 		.word	24
 8178 000c 80000000 		.word	128
 8179              		.section	.data.__compound_literal.252,"aw"
 8180              		.align	2
 8183              	__compound_literal.252:
 8184 0000 01000000 		.word	1
 8185 0004 08000000 		.word	8
 8186 0008 18000000 		.word	24
 8187 000c 18000000 		.word	24
 8188 0010 10000000 		.word	16
 8189              		.section	.data.__compound_literal.251,"aw"
 8190              		.align	1
 8193              	__compound_literal.251:
 8194 0000 0400     		.short	4
 8195              		.section	.data.__compound_literal.250,"aw"
 8196              		.align	2
 8199              	__compound_literal.250:
 8200 0000 29F56B3E 		.word	1047262505
 8201              		.section	.data.__compound_literal.249,"aw"
 8202              		.align	2
ARM GAS  C:\Users\DJESSOU\AppData\Local\Temp\ccruImXQ.s 			page 178


 8205              	__compound_literal.249:
 8206 0000 01000000 		.word	1
 8207 0004 18000000 		.word	24
 8208 0008 18000000 		.word	24
 8209 000c 80000000 		.word	128
 8210              		.section	.data.__compound_literal.248,"aw"
 8211              		.align	2
 8214              	__compound_literal.248:
 8215 0000 01000000 		.word	1
 8216 0004 80000000 		.word	128
 8217 0008 18000000 		.word	24
 8218 000c 18000000 		.word	24
 8219              		.section	.data.__compound_literal.247,"aw"
 8220              		.align	1
 8223              	__compound_literal.247:
 8224 0000 D5FF     		.short	-43
 8225              		.section	.data.__compound_literal.246,"aw"
 8226              		.align	2
 8229              	__compound_literal.246:
 8230 0000 855A633D 		.word	1029921413
 8231              		.section	.data.__compound_literal.245,"aw"
 8232              		.align	2
 8235              	__compound_literal.245:
 8236 0000 01000000 		.word	1
 8237 0004 80000000 		.word	128
 8238 0008 18000000 		.word	24
 8239 000c 18000000 		.word	24
 8240              		.section	.data.__compound_literal.244,"aw"
 8241              		.align	1
 8244              	__compound_literal.244:
 8245 0000 D5FF     		.short	-43
 8246              		.section	.data.__compound_literal.243,"aw"
 8247              		.align	2
 8250              	__compound_literal.243:
 8251 0000 855A633D 		.word	1029921413
 8252              		.section	.data.__compound_literal.242,"aw"
 8253              		.align	2
 8256              	__compound_literal.242:
 8257 0000 01000000 		.word	1
 8258 0004 80000000 		.word	128
 8259 0008 18000000 		.word	24
 8260 000c 18000000 		.word	24
 8261              		.section	.data.__compound_literal.241,"aw"
 8262              		.align	1
 8265              	__compound_literal.241:
 8266 0000 1900     		.short	25
 8267              		.section	.data.__compound_literal.240,"aw"
 8268              		.align	2
 8271              	__compound_literal.240:
 8272 0000 492DBE3D 		.word	1035873609
 8273              		.section	.data.__compound_literal.239,"aw"
 8274              		.align	2
 8277              	__compound_literal.239:
 8278 0000 01000000 		.word	1
 8279 0004 80000000 		.word	128
 8280 0008 18000000 		.word	24
 8281 000c 18000000 		.word	24
ARM GAS  C:\Users\DJESSOU\AppData\Local\Temp\ccruImXQ.s 			page 179


 8282              		.section	.data.__compound_literal.238,"aw"
 8283              		.align	1
 8286              	__compound_literal.238:
 8287 0000 3E00     		.short	62
 8288              		.section	.data.__compound_literal.237,"aw"
 8289              		.align	2
 8292              	__compound_literal.237:
 8293 0000 AEC0DD3D 		.word	1037942958
 8294              		.section	.data.__compound_literal.236,"aw"
 8295              		.align	2
 8298              	__compound_literal.236:
 8299 0000 01000000 		.word	1
 8300 0004 18000000 		.word	24
 8301 0008 18000000 		.word	24
 8302 000c 80000000 		.word	128
 8303              		.section	.data.__compound_literal.235,"aw"
 8304              		.align	2
 8307              	__compound_literal.235:
 8308 0000 01000000 		.word	1
 8309 0004 08000000 		.word	8
 8310 0008 18000000 		.word	24
 8311 000c 18000000 		.word	24
 8312 0010 10000000 		.word	16
 8313              		.section	.data.__compound_literal.234,"aw"
 8314              		.align	1
 8317              	__compound_literal.234:
 8318 0000 0800     		.short	8
 8319              		.section	.data.__compound_literal.233,"aw"
 8320              		.align	2
 8323              	__compound_literal.233:
 8324 0000 2E44B93E 		.word	1052329006
 8325              		.section	.data.__compound_literal.232,"aw"
 8326              		.align	2
 8329              	__compound_literal.232:
 8330 0000 01000000 		.word	1
 8331 0004 18000000 		.word	24
 8332 0008 18000000 		.word	24
 8333 000c 80000000 		.word	128
 8334              		.section	.data.__compound_literal.231,"aw"
 8335              		.align	2
 8338              	__compound_literal.231:
 8339 0000 01000000 		.word	1
 8340 0004 80000000 		.word	128
 8341 0008 18000000 		.word	24
 8342 000c 18000000 		.word	24
 8343              		.section	.data.__compound_literal.230,"aw"
 8344              		.align	1
 8347              	__compound_literal.230:
 8348 0000 D5FF     		.short	-43
 8349              		.section	.data.__compound_literal.229,"aw"
 8350              		.align	2
 8353              	__compound_literal.229:
 8354 0000 15C8A53D 		.word	1034274837
 8355              		.section	.data.__compound_literal.228,"aw"
 8356              		.align	2
 8359              	__compound_literal.228:
 8360 0000 01000000 		.word	1
ARM GAS  C:\Users\DJESSOU\AppData\Local\Temp\ccruImXQ.s 			page 180


 8361 0004 80000000 		.word	128
 8362 0008 18000000 		.word	24
 8363 000c 18000000 		.word	24
 8364              		.section	.data.__compound_literal.227,"aw"
 8365              		.align	1
 8368              	__compound_literal.227:
 8369 0000 D5FF     		.short	-43
 8370              		.section	.data.__compound_literal.226,"aw"
 8371              		.align	2
 8374              	__compound_literal.226:
 8375 0000 15C8A53D 		.word	1034274837
 8376              		.section	.data.__compound_literal.225,"aw"
 8377              		.align	2
 8380              	__compound_literal.225:
 8381 0000 01000000 		.word	1
 8382 0004 80000000 		.word	128
 8383 0008 18000000 		.word	24
 8384 000c 18000000 		.word	24
 8385              		.section	.data.__compound_literal.224,"aw"
 8386              		.align	1
 8389              	__compound_literal.224:
 8390 0000 FEFF     		.short	-2
 8391              		.section	.data.__compound_literal.223,"aw"
 8392              		.align	2
 8395              	__compound_literal.223:
 8396 0000 89FCDA3D 		.word	1037761673
 8397              		.section	.data.__compound_literal.222,"aw"
 8398              		.align	2
 8401              	__compound_literal.222:
 8402 0000 01000000 		.word	1
 8403 0004 80000000 		.word	128
 8404 0008 18000000 		.word	24
 8405 000c 18000000 		.word	24
 8406              		.section	.data.__compound_literal.221,"aw"
 8407              		.align	1
 8410              	__compound_literal.221:
 8411 0000 2900     		.short	41
 8412              		.section	.data.__compound_literal.220,"aw"
 8413              		.align	2
 8416              	__compound_literal.220:
 8417 0000 D1DFB13D 		.word	1035067345
 8418              		.section	.data.__compound_literal.219,"aw"
 8419              		.align	2
 8422              	__compound_literal.219:
 8423 0000 01000000 		.word	1
 8424 0004 18000000 		.word	24
 8425 0008 18000000 		.word	24
 8426 000c 80000000 		.word	128
 8427              		.section	.data.__compound_literal.218,"aw"
 8428              		.align	2
 8431              	__compound_literal.218:
 8432 0000 01000000 		.word	1
 8433 0004 08000000 		.word	8
 8434 0008 18000000 		.word	24
 8435 000c 18000000 		.word	24
 8436 0010 10000000 		.word	16
 8437              		.section	.data.__compound_literal.217,"aw"
ARM GAS  C:\Users\DJESSOU\AppData\Local\Temp\ccruImXQ.s 			page 181


 8438              		.align	1
 8441              	__compound_literal.217:
 8442 0000 FBFF     		.short	-5
 8443              		.section	.data.__compound_literal.216,"aw"
 8444              		.align	2
 8447              	__compound_literal.216:
 8448 0000 29EDA63E 		.word	1051127081
 8449              		.section	.data.__compound_literal.215,"aw"
 8450              		.align	2
 8453              	__compound_literal.215:
 8454 0000 01000000 		.word	1
 8455 0004 18000000 		.word	24
 8456 0008 18000000 		.word	24
 8457 000c 80000000 		.word	128
 8458              		.section	.data.__compound_literal.214,"aw"
 8459              		.align	2
 8462              	__compound_literal.214:
 8463 0000 01000000 		.word	1
 8464 0004 80000000 		.word	128
 8465 0008 18000000 		.word	24
 8466 000c 18000000 		.word	24
 8467              		.section	.data.__compound_literal.213,"aw"
 8468              		.align	1
 8471              	__compound_literal.213:
 8472 0000 CEFF     		.short	-50
 8473              		.section	.data.__compound_literal.212,"aw"
 8474              		.align	2
 8477              	__compound_literal.212:
 8478 0000 AE0F973D 		.word	1033310126
 8479              		.section	.data.__compound_literal.211,"aw"
 8480              		.align	2
 8483              	__compound_literal.211:
 8484 0000 01000000 		.word	1
 8485 0004 80000000 		.word	128
 8486 0008 18000000 		.word	24
 8487 000c 18000000 		.word	24
 8488              		.section	.data.__compound_literal.210,"aw"
 8489              		.align	1
 8492              	__compound_literal.210:
 8493 0000 CEFF     		.short	-50
 8494              		.section	.data.__compound_literal.209,"aw"
 8495              		.align	2
 8498              	__compound_literal.209:
 8499 0000 AE0F973D 		.word	1033310126
 8500              		.section	.data.__compound_literal.208,"aw"
 8501              		.align	2
 8504              	__compound_literal.208:
 8505 0000 01000000 		.word	1
 8506 0004 80000000 		.word	128
 8507 0008 18000000 		.word	24
 8508 000c 18000000 		.word	24
 8509              		.section	.data.__compound_literal.207,"aw"
 8510              		.align	1
 8513              	__compound_literal.207:
 8514 0000 F9FF     		.short	-7
 8515              		.section	.data.__compound_literal.206,"aw"
 8516              		.align	2
ARM GAS  C:\Users\DJESSOU\AppData\Local\Temp\ccruImXQ.s 			page 182


 8519              	__compound_literal.206:
 8520 0000 EB51C73D 		.word	1036472811
 8521              		.section	.data.__compound_literal.205,"aw"
 8522              		.align	2
 8525              	__compound_literal.205:
 8526 0000 01000000 		.word	1
 8527 0004 80000000 		.word	128
 8528 0008 18000000 		.word	24
 8529 000c 18000000 		.word	24
 8530              		.section	.data.__compound_literal.204,"aw"
 8531              		.align	1
 8534              	__compound_literal.204:
 8535 0000 2500     		.short	37
 8536              		.section	.data.__compound_literal.203,"aw"
 8537              		.align	2
 8540              	__compound_literal.203:
 8541 0000 67B3D43D 		.word	1037349735
 8542              		.section	.data.__compound_literal.202,"aw"
 8543              		.align	2
 8546              	__compound_literal.202:
 8547 0000 01000000 		.word	1
 8548 0004 18000000 		.word	24
 8549 0008 18000000 		.word	24
 8550 000c 80000000 		.word	128
 8551              		.section	.data.__compound_literal.201,"aw"
 8552              		.align	2
 8555              	__compound_literal.201:
 8556 0000 01000000 		.word	1
 8557 0004 08000000 		.word	8
 8558 0008 18000000 		.word	24
 8559 000c 18000000 		.word	24
 8560 0010 10000000 		.word	16
 8561              		.section	.data.__compound_literal.200,"aw"
 8562              		.align	1
 8565              	__compound_literal.200:
 8566 0000 FFFF     		.short	-1
 8567              		.section	.data.__compound_literal.199,"aw"
 8568              		.align	2
 8571              	__compound_literal.199:
 8572 0000 4D598B3E 		.word	1049319757
 8573              		.section	.data.__compound_literal.198,"aw"
 8574              		.align	2
 8577              	__compound_literal.198:
 8578 0000 01000000 		.word	1
 8579 0004 18000000 		.word	24
 8580 0008 18000000 		.word	24
 8581 000c 80000000 		.word	128
 8582              		.section	.data.__compound_literal.197,"aw"
 8583              		.align	2
 8586              	__compound_literal.197:
 8587 0000 01000000 		.word	1
 8588 0004 80000000 		.word	128
 8589 0008 18000000 		.word	24
 8590 000c 18000000 		.word	24
 8591              		.section	.data.__compound_literal.196,"aw"
 8592              		.align	1
 8595              	__compound_literal.196:
ARM GAS  C:\Users\DJESSOU\AppData\Local\Temp\ccruImXQ.s 			page 183


 8596 0000 DFFF     		.short	-33
 8597              		.section	.data.__compound_literal.195,"aw"
 8598              		.align	2
 8601              	__compound_literal.195:
 8602 0000 46CE973D 		.word	1033358918
 8603              		.section	.data.__compound_literal.194,"aw"
 8604              		.align	2
 8607              	__compound_literal.194:
 8608 0000 01000000 		.word	1
 8609 0004 80000000 		.word	128
 8610 0008 18000000 		.word	24
 8611 000c 18000000 		.word	24
 8612              		.section	.data.__compound_literal.193,"aw"
 8613              		.align	1
 8616              	__compound_literal.193:
 8617 0000 DFFF     		.short	-33
 8618              		.section	.data.__compound_literal.192,"aw"
 8619              		.align	2
 8622              	__compound_literal.192:
 8623 0000 46CE973D 		.word	1033358918
 8624              		.section	.data.__compound_literal.191,"aw"
 8625              		.align	2
 8628              	__compound_literal.191:
 8629 0000 01000000 		.word	1
 8630 0004 80000000 		.word	128
 8631 0008 18000000 		.word	24
 8632 000c 18000000 		.word	24
 8633              		.section	.data.__compound_literal.190,"aw"
 8634              		.align	1
 8637              	__compound_literal.190:
 8638 0000 0E00     		.short	14
 8639              		.section	.data.__compound_literal.189,"aw"
 8640              		.align	2
 8643              	__compound_literal.189:
 8644 0000 72D2D53D 		.word	1037423218
 8645              		.section	.data.__compound_literal.188,"aw"
 8646              		.align	2
 8649              	__compound_literal.188:
 8650 0000 01000000 		.word	1
 8651 0004 80000000 		.word	128
 8652 0008 18000000 		.word	24
 8653 000c 18000000 		.word	24
 8654              		.section	.data.__compound_literal.187,"aw"
 8655              		.align	1
 8658              	__compound_literal.187:
 8659 0000 CAFF     		.short	-54
 8660              		.section	.data.__compound_literal.186,"aw"
 8661              		.align	2
 8664              	__compound_literal.186:
 8665 0000 FF75973D 		.word	1033336319
 8666              		.section	.data.__compound_literal.185,"aw"
 8667              		.align	2
 8670              	__compound_literal.185:
 8671 0000 01000000 		.word	1
 8672 0004 80000000 		.word	128
 8673 0008 18000000 		.word	24
 8674 000c 18000000 		.word	24
ARM GAS  C:\Users\DJESSOU\AppData\Local\Temp\ccruImXQ.s 			page 184


 8675              		.section	.data.__compound_literal.184,"aw"
 8676              		.align	2
 8679              	__compound_literal.184:
 8680 0000 01000000 		.word	1
 8681 0004 18000000 		.word	24
 8682 0008 80000000 		.word	128
 8683 000c 18000000 		.word	24
 8684              		.section	.data.__compound_literal.183,"aw"
 8685              		.align	1
 8688              	__compound_literal.183:
 8689 0000 CAFF     		.short	-54
 8690              		.section	.data.__compound_literal.182,"aw"
 8691              		.align	2
 8694              	__compound_literal.182:
 8695 0000 FF75973D 		.word	1033336319
 8696              		.section	.data.__compound_literal.181,"aw"
 8697              		.align	2
 8700              	__compound_literal.181:
 8701 0000 01000000 		.word	1
 8702 0004 18000000 		.word	24
 8703 0008 40000000 		.word	64
 8704 000c 18000000 		.word	24
 8705              		.section	.data.__compound_literal.180,"aw"
 8706              		.align	1
 8709              	__compound_literal.180:
 8710 0000 CAFF     		.short	-54
 8711              		.section	.data.__compound_literal.179,"aw"
 8712              		.align	2
 8715              	__compound_literal.179:
 8716 0000 FF75973D 		.word	1033336319
 8717              		.section	.data.__compound_literal.178,"aw"
 8718              		.align	2
 8721              	__compound_literal.178:
 8722 0000 01000000 		.word	1
 8723 0004 40000000 		.word	64
 8724 0008 18000000 		.word	24
 8725 000c 18000000 		.word	24
 8726              		.section	.data.__compound_literal.177,"aw"
 8727              		.align	1
 8730              	__compound_literal.177:
 8731 0000 1C00     		.short	28
 8732              		.section	.data.__compound_literal.176,"aw"
 8733              		.align	2
 8736              	__compound_literal.176:
 8737 0000 ABB2CE3D 		.word	1036956331
 8738              		.section	.data.__compound_literal.175,"aw"
 8739              		.align	2
 8742              	__compound_literal.175:
 8743 0000 01000000 		.word	1
 8744 0004 18000000 		.word	24
 8745 0008 18000000 		.word	24
 8746 000c 80000000 		.word	128
 8747              		.section	.data.__compound_literal.174,"aw"
 8748              		.align	1
 8751              	__compound_literal.174:
 8752 0000 1100     		.short	17
 8753              		.section	.data.__compound_literal.173,"aw"
ARM GAS  C:\Users\DJESSOU\AppData\Local\Temp\ccruImXQ.s 			page 185


 8754              		.align	2
 8757              	__compound_literal.173:
 8758 0000 3F95FA3E 		.word	1056609599
 8759              		.section	.data.__compound_literal.172,"aw"
 8760              		.align	2
 8763              	__compound_literal.172:
 8764 0000 01000000 		.word	1
 8765 0004 18000000 		.word	24
 8766 0008 18000000 		.word	24
 8767 000c 40000000 		.word	64
 8768              		.section	.data.__compound_literal.171,"aw"
 8769              		.align	2
 8772              	__compound_literal.171:
 8773 0000 01000000 		.word	1
 8774 0004 40000000 		.word	64
 8775 0008 18000000 		.word	24
 8776 000c 18000000 		.word	24
 8777              		.section	.data.__compound_literal.170,"aw"
 8778              		.align	1
 8781              	__compound_literal.170:
 8782 0000 CAFF     		.short	-54
 8783              		.section	.data.__compound_literal.169,"aw"
 8784              		.align	2
 8787              	__compound_literal.169:
 8788 0000 FF75973D 		.word	1033336319
 8789              		.section	.data.__compound_literal.168,"aw"
 8790              		.align	2
 8793              	__compound_literal.168:
 8794 0000 01000000 		.word	1
 8795 0004 40000000 		.word	64
 8796 0008 30000000 		.word	48
 8797 000c 30000000 		.word	48
 8798              		.section	.data.__compound_literal.167,"aw"
 8799              		.align	1
 8802              	__compound_literal.167:
 8803 0000 CAFF     		.short	-54
 8804              		.section	.data.__compound_literal.166,"aw"
 8805              		.align	2
 8808              	__compound_literal.166:
 8809 0000 FF75973D 		.word	1033336319
 8810              		.section	.data.__compound_literal.165,"aw"
 8811              		.align	2
 8814              	__compound_literal.165:
 8815 0000 01000000 		.word	1
 8816 0004 40000000 		.word	64
 8817 0008 30000000 		.word	48
 8818 000c 30000000 		.word	48
 8819              		.section	.data.__compound_literal.164,"aw"
 8820              		.align	1
 8823              	__compound_literal.164:
 8824 0000 0400     		.short	4
 8825              		.section	.data.__compound_literal.163,"aw"
 8826              		.align	2
 8829              	__compound_literal.163:
 8830 0000 61BBDE3D 		.word	1038007137
 8831              		.section	.data.__compound_literal.162,"aw"
 8832              		.align	2
ARM GAS  C:\Users\DJESSOU\AppData\Local\Temp\ccruImXQ.s 			page 186


 8835              	__compound_literal.162:
 8836 0000 01000000 		.word	1
 8837 0004 40000000 		.word	64
 8838 0008 30000000 		.word	48
 8839 000c 30000000 		.word	48
 8840              		.section	.data.__compound_literal.161,"aw"
 8841              		.align	1
 8844              	__compound_literal.161:
 8845 0000 2000     		.short	32
 8846              		.section	.data.__compound_literal.160,"aw"
 8847              		.align	2
 8850              	__compound_literal.160:
 8851 0000 6AA18F3D 		.word	1032823146
 8852              		.section	.data.__compound_literal.159,"aw"
 8853              		.align	2
 8856              	__compound_literal.159:
 8857 0000 01000000 		.word	1
 8858 0004 30000000 		.word	48
 8859 0008 30000000 		.word	48
 8860 000c 40000000 		.word	64
 8861              		.section	.data.__compound_literal.158,"aw"
 8862              		.align	1
 8865              	__compound_literal.158:
 8866 0000 DCFF     		.short	-36
 8867              		.section	.data.__compound_literal.157,"aw"
 8868              		.align	2
 8871              	__compound_literal.157:
 8872 0000 4A42DA3E 		.word	1054491210
 8873              		.section	.data.__compound_literal.156,"aw"
 8874              		.align	2
 8877              	__compound_literal.156:
 8878 0000 01000000 		.word	1
 8879 0004 30000000 		.word	48
 8880 0008 30000000 		.word	48
 8881 000c 40000000 		.word	64
 8882              		.section	.data.__compound_literal.155,"aw"
 8883              		.align	2
 8886              	__compound_literal.155:
 8887 0000 01000000 		.word	1
 8888 0004 40000000 		.word	64
 8889 0008 30000000 		.word	48
 8890 000c 30000000 		.word	48
 8891              		.section	.data.__compound_literal.154,"aw"
 8892              		.align	1
 8895              	__compound_literal.154:
 8896 0000 DEFF     		.short	-34
 8897              		.section	.data.__compound_literal.153,"aw"
 8898              		.align	2
 8901              	__compound_literal.153:
 8902 0000 F4D1B33D 		.word	1035194868
 8903              		.section	.data.__compound_literal.152,"aw"
 8904              		.align	2
 8907              	__compound_literal.152:
 8908 0000 01000000 		.word	1
 8909 0004 40000000 		.word	64
 8910 0008 30000000 		.word	48
 8911 000c 30000000 		.word	48
ARM GAS  C:\Users\DJESSOU\AppData\Local\Temp\ccruImXQ.s 			page 187


 8912              		.section	.data.__compound_literal.151,"aw"
 8913              		.align	1
 8916              	__compound_literal.151:
 8917 0000 DEFF     		.short	-34
 8918              		.section	.data.__compound_literal.150,"aw"
 8919              		.align	2
 8922              	__compound_literal.150:
 8923 0000 F4D1B33D 		.word	1035194868
 8924              		.section	.data.__compound_literal.149,"aw"
 8925              		.align	2
 8928              	__compound_literal.149:
 8929 0000 01000000 		.word	1
 8930 0004 40000000 		.word	64
 8931 0008 30000000 		.word	48
 8932 000c 30000000 		.word	48
 8933              		.section	.data.__compound_literal.148,"aw"
 8934              		.align	1
 8937              	__compound_literal.148:
 8938 0000 F3FF     		.short	-13
 8939              		.section	.data.__compound_literal.147,"aw"
 8940              		.align	2
 8943              	__compound_literal.147:
 8944 0000 DCA5CF3D 		.word	1037018588
 8945              		.section	.data.__compound_literal.146,"aw"
 8946              		.align	2
 8949              	__compound_literal.146:
 8950 0000 01000000 		.word	1
 8951 0004 40000000 		.word	64
 8952 0008 30000000 		.word	48
 8953 000c 30000000 		.word	48
 8954              		.section	.data.__compound_literal.145,"aw"
 8955              		.align	1
 8958              	__compound_literal.145:
 8959 0000 1800     		.short	24
 8960              		.section	.data.__compound_literal.144,"aw"
 8961              		.align	2
 8964              	__compound_literal.144:
 8965 0000 09DFB93D 		.word	1035591433
 8966              		.section	.data.__compound_literal.143,"aw"
 8967              		.align	2
 8970              	__compound_literal.143:
 8971 0000 01000000 		.word	1
 8972 0004 30000000 		.word	48
 8973 0008 30000000 		.word	48
 8974 000c 40000000 		.word	64
 8975              		.section	.data.__compound_literal.142,"aw"
 8976              		.align	1
 8979              	__compound_literal.142:
 8980 0000 E7FF     		.short	-25
 8981              		.section	.data.__compound_literal.141,"aw"
 8982              		.align	2
 8985              	__compound_literal.141:
 8986 0000 A734DC3E 		.word	1054618791
 8987              		.section	.data.__compound_literal.140,"aw"
 8988              		.align	2
 8991              	__compound_literal.140:
 8992 0000 01000000 		.word	1
ARM GAS  C:\Users\DJESSOU\AppData\Local\Temp\ccruImXQ.s 			page 188


 8993 0004 30000000 		.word	48
 8994 0008 30000000 		.word	48
 8995 000c 40000000 		.word	64
 8996              		.section	.data.__compound_literal.139,"aw"
 8997              		.align	2
 9000              	__compound_literal.139:
 9001 0000 01000000 		.word	1
 9002 0004 40000000 		.word	64
 9003 0008 30000000 		.word	48
 9004 000c 30000000 		.word	48
 9005              		.section	.data.__compound_literal.138,"aw"
 9006              		.align	1
 9009              	__compound_literal.138:
 9010 0000 E7FF     		.short	-25
 9011              		.section	.data.__compound_literal.137,"aw"
 9012              		.align	2
 9015              	__compound_literal.137:
 9016 0000 79CBD83D 		.word	1037618041
 9017              		.section	.data.__compound_literal.136,"aw"
 9018              		.align	2
 9021              	__compound_literal.136:
 9022 0000 01000000 		.word	1
 9023 0004 40000000 		.word	64
 9024 0008 30000000 		.word	48
 9025 000c 30000000 		.word	48
 9026              		.section	.data.__compound_literal.135,"aw"
 9027              		.align	1
 9030              	__compound_literal.135:
 9031 0000 E7FF     		.short	-25
 9032              		.section	.data.__compound_literal.134,"aw"
 9033              		.align	2
 9036              	__compound_literal.134:
 9037 0000 79CBD83D 		.word	1037618041
 9038              		.section	.data.__compound_literal.133,"aw"
 9039              		.align	2
 9042              	__compound_literal.133:
 9043 0000 01000000 		.word	1
 9044 0004 40000000 		.word	64
 9045 0008 30000000 		.word	48
 9046 000c 30000000 		.word	48
 9047              		.section	.data.__compound_literal.132,"aw"
 9048              		.align	1
 9051              	__compound_literal.132:
 9052 0000 0100     		.short	1
 9053              		.section	.data.__compound_literal.131,"aw"
 9054              		.align	2
 9057              	__compound_literal.131:
 9058 0000 2642023E 		.word	1040335398
 9059              		.section	.data.__compound_literal.130,"aw"
 9060              		.align	2
 9063              	__compound_literal.130:
 9064 0000 01000000 		.word	1
 9065 0004 40000000 		.word	64
 9066 0008 30000000 		.word	48
 9067 000c 30000000 		.word	48
 9068              		.section	.data.__compound_literal.129,"aw"
 9069              		.align	1
ARM GAS  C:\Users\DJESSOU\AppData\Local\Temp\ccruImXQ.s 			page 189


 9072              	__compound_literal.129:
 9073 0000 3D00     		.short	61
 9074              		.section	.data.__compound_literal.128,"aw"
 9075              		.align	2
 9078              	__compound_literal.128:
 9079 0000 DA15B03D 		.word	1034950106
 9080              		.section	.data.__compound_literal.127,"aw"
 9081              		.align	2
 9084              	__compound_literal.127:
 9085 0000 01000000 		.word	1
 9086 0004 30000000 		.word	48
 9087 0008 30000000 		.word	48
 9088 000c 40000000 		.word	64
 9089              		.section	.bss.__compound_literal.126,"aw",%nobits
 9090              		.align	1
 9093              	__compound_literal.126:
 9094 0000 0000     		.space	2
 9095              		.section	.data.__compound_literal.125,"aw"
 9096              		.align	2
 9099              	__compound_literal.125:
 9100 0000 722AAA3E 		.word	1051339378
 9101              		.section	.data.__compound_literal.124,"aw"
 9102              		.align	2
 9105              	__compound_literal.124:
 9106 0000 01000000 		.word	1
 9107 0004 30000000 		.word	48
 9108 0008 30000000 		.word	48
 9109 000c 40000000 		.word	64
 9110              		.section	.data.__compound_literal.123,"aw"
 9111              		.align	2
 9114              	__compound_literal.123:
 9115 0000 01000000 		.word	1
 9116 0004 40000000 		.word	64
 9117 0008 30000000 		.word	48
 9118 000c 30000000 		.word	48
 9119              		.section	.data.__compound_literal.122,"aw"
 9120              		.align	1
 9123              	__compound_literal.122:
 9124 0000 E3FF     		.short	-29
 9125              		.section	.data.__compound_literal.121,"aw"
 9126              		.align	2
 9129              	__compound_literal.121:
 9130 0000 4B28B83D 		.word	1035479115
 9131              		.section	.data.__compound_literal.120,"aw"
 9132              		.align	2
 9135              	__compound_literal.120:
 9136 0000 01000000 		.word	1
 9137 0004 40000000 		.word	64
 9138 0008 30000000 		.word	48
 9139 000c 30000000 		.word	48
 9140              		.section	.data.__compound_literal.119,"aw"
 9141              		.align	1
 9144              	__compound_literal.119:
 9145 0000 E3FF     		.short	-29
 9146              		.section	.data.__compound_literal.118,"aw"
 9147              		.align	2
 9150              	__compound_literal.118:
ARM GAS  C:\Users\DJESSOU\AppData\Local\Temp\ccruImXQ.s 			page 190


 9151 0000 4B28B83D 		.word	1035479115
 9152              		.section	.data.__compound_literal.117,"aw"
 9153              		.align	2
 9156              	__compound_literal.117:
 9157 0000 01000000 		.word	1
 9158 0004 40000000 		.word	64
 9159 0008 30000000 		.word	48
 9160 000c 30000000 		.word	48
 9161              		.section	.data.__compound_literal.116,"aw"
 9162              		.align	1
 9165              	__compound_literal.116:
 9166 0000 0900     		.short	9
 9167              		.section	.data.__compound_literal.115,"aw"
 9168              		.align	2
 9171              	__compound_literal.115:
 9172 0000 2A81F23D 		.word	1039302954
 9173              		.section	.data.__compound_literal.114,"aw"
 9174              		.align	2
 9177              	__compound_literal.114:
 9178 0000 01000000 		.word	1
 9179 0004 40000000 		.word	64
 9180 0008 30000000 		.word	48
 9181 000c 30000000 		.word	48
 9182              		.section	.data.__compound_literal.113,"aw"
 9183              		.align	1
 9186              	__compound_literal.113:
 9187 0000 2700     		.short	39
 9188              		.section	.data.__compound_literal.112,"aw"
 9189              		.align	2
 9192              	__compound_literal.112:
 9193 0000 3BB3D33D 		.word	1037284155
 9194              		.section	.data.__compound_literal.111,"aw"
 9195              		.align	2
 9198              	__compound_literal.111:
 9199 0000 01000000 		.word	1
 9200 0004 30000000 		.word	48
 9201 0008 30000000 		.word	48
 9202 000c 40000000 		.word	64
 9203              		.section	.data.__compound_literal.110,"aw"
 9204              		.align	1
 9207              	__compound_literal.110:
 9208 0000 E6FF     		.short	-26
 9209              		.section	.data.__compound_literal.109,"aw"
 9210              		.align	2
 9213              	__compound_literal.109:
 9214 0000 5AC6FC3E 		.word	1056753242
 9215              		.section	.data.__compound_literal.108,"aw"
 9216              		.align	2
 9219              	__compound_literal.108:
 9220 0000 01000000 		.word	1
 9221 0004 30000000 		.word	48
 9222 0008 30000000 		.word	48
 9223 000c 40000000 		.word	64
 9224              		.section	.data.__compound_literal.107,"aw"
 9225              		.align	2
 9228              	__compound_literal.107:
 9229 0000 01000000 		.word	1
ARM GAS  C:\Users\DJESSOU\AppData\Local\Temp\ccruImXQ.s 			page 191


 9230 0004 40000000 		.word	64
 9231 0008 30000000 		.word	48
 9232 000c 30000000 		.word	48
 9233              		.section	.data.__compound_literal.106,"aw"
 9234              		.align	1
 9237              	__compound_literal.106:
 9238 0000 1000     		.short	16
 9239              		.section	.data.__compound_literal.105,"aw"
 9240              		.align	2
 9243              	__compound_literal.105:
 9244 0000 0D210F3E 		.word	1041178893
 9245              		.section	.data.__compound_literal.104,"aw"
 9246              		.align	2
 9249              	__compound_literal.104:
 9250 0000 01000000 		.word	1
 9251 0004 40000000 		.word	64
 9252 0008 30000000 		.word	48
 9253 000c 30000000 		.word	48
 9254              		.section	.data.__compound_literal.103,"aw"
 9255              		.align	1
 9258              	__compound_literal.103:
 9259 0000 1000     		.short	16
 9260              		.section	.data.__compound_literal.102,"aw"
 9261              		.align	2
 9264              	__compound_literal.102:
 9265 0000 0D210F3E 		.word	1041178893
 9266              		.section	.data.__compound_literal.101,"aw"
 9267              		.align	2
 9270              	__compound_literal.101:
 9271 0000 01000000 		.word	1
 9272 0004 40000000 		.word	64
 9273 0008 30000000 		.word	48
 9274 000c 30000000 		.word	48
 9275              		.section	.data.__compound_literal.100,"aw"
 9276              		.align	1
 9279              	__compound_literal.100:
 9280 0000 F8FF     		.short	-8
 9281              		.section	.data.__compound_literal.99,"aw"
 9282              		.align	2
 9285              	__compound_literal.99:
 9286 0000 242CEB3D 		.word	1038822436
 9287              		.section	.data.__compound_literal.98,"aw"
 9288              		.align	2
 9291              	__compound_literal.98:
 9292 0000 01000000 		.word	1
 9293 0004 40000000 		.word	64
 9294 0008 30000000 		.word	48
 9295 000c 30000000 		.word	48
 9296              		.section	.data.__compound_literal.97,"aw"
 9297              		.align	1
 9300              	__compound_literal.97:
 9301 0000 6100     		.short	97
 9302              		.section	.data.__compound_literal.96,"aw"
 9303              		.align	2
 9306              	__compound_literal.96:
 9307 0000 2FF49B3E 		.word	1050407983
 9308              		.section	.data.__compound_literal.95,"aw"
ARM GAS  C:\Users\DJESSOU\AppData\Local\Temp\ccruImXQ.s 			page 192


 9309              		.align	2
 9312              	__compound_literal.95:
 9313 0000 01000000 		.word	1
 9314 0004 40000000 		.word	64
 9315 0008 30000000 		.word	48
 9316 000c 30000000 		.word	48
 9317              		.section	.data.__compound_literal.94,"aw"
 9318              		.align	1
 9321              	__compound_literal.94:
 9322 0000 1600     		.short	22
 9323              		.section	.data.__compound_literal.93,"aw"
 9324              		.align	2
 9327              	__compound_literal.93:
 9328 0000 F465DA3D 		.word	1037723124
 9329              		.section	.data.__compound_literal.92,"aw"
 9330              		.align	2
 9333              	__compound_literal.92:
 9334 0000 01000000 		.word	1
 9335 0004 30000000 		.word	48
 9336 0008 30000000 		.word	48
 9337 000c 40000000 		.word	64
 9338              		.section	.data.__compound_literal.91,"aw"
 9339              		.align	1
 9342              	__compound_literal.91:
 9343 0000 E5FF     		.short	-27
 9344              		.section	.data.__compound_literal.90,"aw"
 9345              		.align	2
 9348              	__compound_literal.90:
 9349 0000 F427353F 		.word	1060448244
 9350              		.section	.data.__compound_literal.89,"aw"
 9351              		.align	2
 9354              	__compound_literal.89:
 9355 0000 01000000 		.word	1
 9356 0004 30000000 		.word	48
 9357 0008 30000000 		.word	48
 9358 000c 20000000 		.word	32
 9359              		.section	.data.__compound_literal.88,"aw"
 9360              		.align	2
 9363              	__compound_literal.88:
 9364 0000 01000000 		.word	1
 9365 0004 30000000 		.word	48
 9366 0008 40000000 		.word	64
 9367 000c 30000000 		.word	48
 9368              		.section	.data.__compound_literal.87,"aw"
 9369              		.align	1
 9372              	__compound_literal.87:
 9373 0000 6100     		.short	97
 9374              		.section	.data.__compound_literal.86,"aw"
 9375              		.align	2
 9378              	__compound_literal.86:
 9379 0000 2FF49B3E 		.word	1050407983
 9380              		.section	.data.__compound_literal.85,"aw"
 9381              		.align	2
 9384              	__compound_literal.85:
 9385 0000 01000000 		.word	1
 9386 0004 20000000 		.word	32
 9387 0008 30000000 		.word	48
ARM GAS  C:\Users\DJESSOU\AppData\Local\Temp\ccruImXQ.s 			page 193


 9388 000c 30000000 		.word	48
 9389              		.section	.data.__compound_literal.84,"aw"
 9390              		.align	1
 9393              	__compound_literal.84:
 9394 0000 6100     		.short	97
 9395              		.section	.data.__compound_literal.83,"aw"
 9396              		.align	2
 9399              	__compound_literal.83:
 9400 0000 2FF49B3E 		.word	1050407983
 9401              		.section	.data.__compound_literal.82,"aw"
 9402              		.align	2
 9405              	__compound_literal.82:
 9406 0000 01000000 		.word	1
 9407 0004 30000000 		.word	48
 9408 0008 30000000 		.word	48
 9409 000c 20000000 		.word	32
 9410              		.section	.data.__compound_literal.81,"aw"
 9411              		.align	1
 9414              	__compound_literal.81:
 9415 0000 6100     		.short	97
 9416              		.section	.data.__compound_literal.80,"aw"
 9417              		.align	2
 9420              	__compound_literal.80:
 9421 0000 2FF49B3E 		.word	1050407983
 9422              		.section	.data.__compound_literal.79,"aw"
 9423              		.align	2
 9426              	__compound_literal.79:
 9427 0000 01000000 		.word	1
 9428 0004 60000000 		.word	96
 9429 0008 60000000 		.word	96
 9430 000c 20000000 		.word	32
 9431              		.section	.data.__compound_literal.78,"aw"
 9432              		.align	1
 9435              	__compound_literal.78:
 9436 0000 6100     		.short	97
 9437              		.section	.data.__compound_literal.77,"aw"
 9438              		.align	2
 9441              	__compound_literal.77:
 9442 0000 2FF49B3E 		.word	1050407983
 9443              		.section	.data.__compound_literal.76,"aw"
 9444              		.align	2
 9447              	__compound_literal.76:
 9448 0000 01000000 		.word	1
 9449 0004 04000000 		.word	4
 9450 0008 60000000 		.word	96
 9451 000c 60000000 		.word	96
 9452 0010 08000000 		.word	8
 9453              		.section	.data.__compound_literal.75,"aw"
 9454              		.align	1
 9457              	__compound_literal.75:
 9458 0000 1E00     		.short	30
 9459              		.section	.data.__compound_literal.74,"aw"
 9460              		.align	2
 9463              	__compound_literal.74:
 9464 0000 9634C13D 		.word	1036072086
 9465              		.section	.data.__compound_literal.73,"aw"
 9466              		.align	2
ARM GAS  C:\Users\DJESSOU\AppData\Local\Temp\ccruImXQ.s 			page 194


 9469              	__compound_literal.73:
 9470 0000 01000000 		.word	1
 9471 0004 04000000 		.word	4
 9472 0008 60000000 		.word	96
 9473 000c 60000000 		.word	96
 9474 0010 08000000 		.word	8
 9475              		.section	.data.__compound_literal.72,"aw"
 9476              		.align	1
 9479              	__compound_literal.72:
 9480 0000 3200     		.short	50
 9481              		.section	.data.__compound_literal.71,"aw"
 9482              		.align	2
 9485              	__compound_literal.71:
 9486 0000 EFCCB73D 		.word	1035455727
 9487              		.section	.data.__compound_literal.70,"aw"
 9488              		.align	2
 9491              	__compound_literal.70:
 9492 0000 01000000 		.word	1
 9493 0004 60000000 		.word	96
 9494 0008 60000000 		.word	96
 9495 000c 20000000 		.word	32
 9496              		.section	.data.__compound_literal.69,"aw"
 9497              		.align	1
 9500              	__compound_literal.69:
 9501 0000 E9FF     		.short	-23
 9502              		.section	.data.__compound_literal.68,"aw"
 9503              		.align	2
 9506              	__compound_literal.68:
 9507 0000 3134083F 		.word	1057502257
 9508              		.section	.data.__compound_literal.67,"aw"
 9509              		.align	2
 9512              	__compound_literal.67:
 9513 0000 01000000 		.word	1
 9514 0004 60000000 		.word	96
 9515 0008 60000000 		.word	96
 9516 000c 20000000 		.word	32
 9517              		.section	.data.__compound_literal.66,"aw"
 9518              		.align	1
 9521              	__compound_literal.66:
 9522 0000 C6FF     		.short	-58
 9523              		.section	.data.__compound_literal.65,"aw"
 9524              		.align	2
 9527              	__compound_literal.65:
 9528 0000 588CC93D 		.word	1036618840
 9529              		.section	.data.__compound_literal.64,"aw"
 9530              		.align	2
 9533              	__compound_literal.64:
 9534 0000 01000000 		.word	1
 9535 0004 60000000 		.word	96
 9536 0008 60000000 		.word	96
 9537 000c 20000000 		.word	32
 9538              		.section	.data.__compound_literal.63,"aw"
 9539              		.align	1
 9542              	__compound_literal.63:
 9543 0000 C6FF     		.short	-58
 9544              		.section	.data.__compound_literal.62,"aw"
 9545              		.align	2
ARM GAS  C:\Users\DJESSOU\AppData\Local\Temp\ccruImXQ.s 			page 195


 9548              	__compound_literal.62:
 9549 0000 588CC93D 		.word	1036618840
 9550              		.section	.data.__compound_literal.61,"aw"
 9551              		.align	2
 9554              	__compound_literal.61:
 9555 0000 01000000 		.word	1
 9556 0004 04000000 		.word	4
 9557 0008 60000000 		.word	96
 9558 000c 60000000 		.word	96
 9559 0010 08000000 		.word	8
 9560              		.section	.data.__compound_literal.60,"aw"
 9561              		.align	1
 9564              	__compound_literal.60:
 9565 0000 E7FF     		.short	-25
 9566              		.section	.data.__compound_literal.59,"aw"
 9567              		.align	2
 9570              	__compound_literal.59:
 9571 0000 0595F43D 		.word	1039439109
 9572              		.section	.data.__compound_literal.58,"aw"
 9573              		.align	2
 9576              	__compound_literal.58:
 9577 0000 01000000 		.word	1
 9578 0004 04000000 		.word	4
 9579 0008 60000000 		.word	96
 9580 000c 60000000 		.word	96
 9581 0010 08000000 		.word	8
 9582              		.section	.data.__compound_literal.57,"aw"
 9583              		.align	1
 9586              	__compound_literal.57:
 9587 0000 0200     		.short	2
 9588              		.section	.data.__compound_literal.56,"aw"
 9589              		.align	2
 9592              	__compound_literal.56:
 9593 0000 F170EF3D 		.word	1039102193
 9594              		.section	.data.__compound_literal.55,"aw"
 9595              		.align	2
 9598              	__compound_literal.55:
 9599 0000 01000000 		.word	1
 9600 0004 60000000 		.word	96
 9601 0008 60000000 		.word	96
 9602 000c 20000000 		.word	32
 9603              		.section	.data.__compound_literal.54,"aw"
 9604              		.align	1
 9607              	__compound_literal.54:
 9608 0000 D7FF     		.short	-41
 9609              		.section	.data.__compound_literal.53,"aw"
 9610              		.align	2
 9613              	__compound_literal.53:
 9614 0000 7C78063F 		.word	1057388668
 9615              		.section	.data.__compound_literal.52,"aw"
 9616              		.align	2
 9619              	__compound_literal.52:
 9620 0000 01000000 		.word	1
 9621 0004 60000000 		.word	96
 9622 0008 60000000 		.word	96
 9623 000c 20000000 		.word	32
 9624              		.section	.data.__compound_literal.51,"aw"
ARM GAS  C:\Users\DJESSOU\AppData\Local\Temp\ccruImXQ.s 			page 196


 9625              		.align	1
 9628              	__compound_literal.51:
 9629 0000 DEFF     		.short	-34
 9630              		.section	.data.__compound_literal.50,"aw"
 9631              		.align	2
 9634              	__compound_literal.50:
 9635 0000 0682C13D 		.word	1036091910
 9636              		.section	.data.__compound_literal.49,"aw"
 9637              		.align	2
 9640              	__compound_literal.49:
 9641 0000 01000000 		.word	1
 9642 0004 60000000 		.word	96
 9643 0008 60000000 		.word	96
 9644 000c 20000000 		.word	32
 9645              		.section	.data.__compound_literal.48,"aw"
 9646              		.align	1
 9649              	__compound_literal.48:
 9650 0000 DEFF     		.short	-34
 9651              		.section	.data.__compound_literal.47,"aw"
 9652              		.align	2
 9655              	__compound_literal.47:
 9656 0000 0682C13D 		.word	1036091910
 9657              		.section	.data.__compound_literal.46,"aw"
 9658              		.align	2
 9661              	__compound_literal.46:
 9662 0000 01000000 		.word	1
 9663 0004 04000000 		.word	4
 9664 0008 60000000 		.word	96
 9665 000c 60000000 		.word	96
 9666 0010 08000000 		.word	8
 9667              		.section	.data.__compound_literal.45,"aw"
 9668              		.align	1
 9671              	__compound_literal.45:
 9672 0000 3800     		.short	56
 9673              		.section	.data.__compound_literal.44,"aw"
 9674              		.align	2
 9677              	__compound_literal.44:
 9678 0000 48E45B3E 		.word	1046209608
 9679              		.section	.data.__compound_literal.43,"aw"
 9680              		.align	2
 9683              	__compound_literal.43:
 9684 0000 01000000 		.word	1
 9685 0004 04000000 		.word	4
 9686 0008 60000000 		.word	96
 9687 000c 60000000 		.word	96
 9688 0010 08000000 		.word	8
 9689              		.section	.data.__compound_literal.42,"aw"
 9690              		.align	1
 9693              	__compound_literal.42:
 9694 0000 3B00     		.short	59
 9695              		.section	.data.__compound_literal.41,"aw"
 9696              		.align	2
 9699              	__compound_literal.41:
 9700 0000 5F8B3A3E 		.word	1044024159
 9701              		.section	.data.__compound_literal.40,"aw"
 9702              		.align	2
 9705              	__compound_literal.40:
ARM GAS  C:\Users\DJESSOU\AppData\Local\Temp\ccruImXQ.s 			page 197


 9706 0000 01000000 		.word	1
 9707 0004 60000000 		.word	96
 9708 0008 60000000 		.word	96
 9709 000c 20000000 		.word	32
 9710              		.section	.data.__compound_literal.39,"aw"
 9711              		.align	1
 9714              	__compound_literal.39:
 9715 0000 1500     		.short	21
 9716              		.section	.data.__compound_literal.38,"aw"
 9717              		.align	2
 9720              	__compound_literal.38:
 9721 0000 D825133F 		.word	1058219480
 9722              		.section	.data.__compound_literal.37,"aw"
 9723              		.align	2
 9726              	__compound_literal.37:
 9727 0000 01000000 		.word	1
 9728 0004 60000000 		.word	96
 9729 0008 60000000 		.word	96
 9730 000c 20000000 		.word	32
 9731              		.section	.data.__compound_literal.36,"aw"
 9732              		.align	1
 9735              	__compound_literal.36:
 9736 0000 0400     		.short	4
 9737              		.section	.data.__compound_literal.35,"aw"
 9738              		.align	2
 9741              	__compound_literal.35:
 9742 0000 3078183E 		.word	1041791024
 9743              		.section	.data.__compound_literal.34,"aw"
 9744              		.align	2
 9747              	__compound_literal.34:
 9748 0000 01000000 		.word	1
 9749 0004 60000000 		.word	96
 9750 0008 60000000 		.word	96
 9751 000c 20000000 		.word	32
 9752              		.section	.data.__compound_literal.33,"aw"
 9753              		.align	1
 9756              	__compound_literal.33:
 9757 0000 0400     		.short	4
 9758              		.section	.data.__compound_literal.32,"aw"
 9759              		.align	2
 9762              	__compound_literal.32:
 9763 0000 3078183E 		.word	1041791024
 9764              		.section	.data.__compound_literal.31,"aw"
 9765              		.align	2
 9768              	__compound_literal.31:
 9769 0000 01000000 		.word	1
 9770 0004 04000000 		.word	4
 9771 0008 60000000 		.word	96
 9772 000c 60000000 		.word	96
 9773 0010 08000000 		.word	8
 9774              		.section	.data.__compound_literal.30,"aw"
 9775              		.align	1
 9778              	__compound_literal.30:
 9779 0000 1800     		.short	24
 9780              		.section	.data.__compound_literal.29,"aw"
 9781              		.align	2
 9784              	__compound_literal.29:
ARM GAS  C:\Users\DJESSOU\AppData\Local\Temp\ccruImXQ.s 			page 198


 9785 0000 66B1353E 		.word	1043706214
 9786              		.section	.data.__compound_literal.28,"aw"
 9787              		.align	2
 9790              	__compound_literal.28:
 9791 0000 01000000 		.word	1
 9792 0004 04000000 		.word	4
 9793 0008 60000000 		.word	96
 9794 000c 60000000 		.word	96
 9795 0010 08000000 		.word	8
 9796              		.section	.data.__compound_literal.27,"aw"
 9797              		.align	1
 9800              	__compound_literal.27:
 9801 0000 1E00     		.short	30
 9802              		.section	.data.__compound_literal.26,"aw"
 9803              		.align	2
 9806              	__compound_literal.26:
 9807 0000 540B3F3E 		.word	1044319060
 9808              		.section	.data.__compound_literal.25,"aw"
 9809              		.align	2
 9812              	__compound_literal.25:
 9813 0000 01000000 		.word	1
 9814 0004 60000000 		.word	96
 9815 0008 60000000 		.word	96
 9816 000c 20000000 		.word	32
 9817              		.section	.data.__compound_literal.24,"aw"
 9818              		.align	1
 9821              	__compound_literal.24:
 9822 0000 EFFF     		.short	-17
 9823              		.section	.data.__compound_literal.23,"aw"
 9824              		.align	2
 9827              	__compound_literal.23:
 9828 0000 F229F73E 		.word	1056385522
 9829              		.section	.data.__compound_literal.22,"aw"
 9830              		.align	2
 9833              	__compound_literal.22:
 9834 0000 01000000 		.word	1
 9835 0004 60000000 		.word	96
 9836 0008 60000000 		.word	96
 9837 000c 20000000 		.word	32
 9838              		.section	.data.__compound_literal.21,"aw"
 9839              		.align	1
 9842              	__compound_literal.21:
 9843 0000 F0FF     		.short	-16
 9844              		.section	.data.__compound_literal.20,"aw"
 9845              		.align	2
 9848              	__compound_literal.20:
 9849 0000 3743753D 		.word	1031095095
 9850              		.section	.data.__compound_literal.19,"aw"
 9851              		.align	2
 9854              	__compound_literal.19:
 9855 0000 01000000 		.word	1
 9856 0004 60000000 		.word	96
 9857 0008 60000000 		.word	96
 9858 000c 20000000 		.word	32
 9859              		.section	.bss.__compound_literal.18,"aw",%nobits
 9860              		.align	1
 9863              	__compound_literal.18:
ARM GAS  C:\Users\DJESSOU\AppData\Local\Temp\ccruImXQ.s 			page 199


 9864 0000 0000     		.space	2
 9865              		.section	.data.__compound_literal.17,"aw"
 9866              		.align	2
 9869              	__compound_literal.17:
 9870 0000 6BB4D03A 		.word	986756203
 9871              		.section	.data.__compound_literal.16,"aw"
 9872              		.align	2
 9875              	__compound_literal.16:
 9876 0000 01000000 		.word	1
 9877 0004 04000000 		.word	4
 9878 0008 60000000 		.word	96
 9879 000c 60000000 		.word	96
 9880 0010 08000000 		.word	8
 9881              		.section	.data.__compound_literal.15,"aw"
 9882              		.align	1
 9885              	__compound_literal.15:
 9886 0000 0C00     		.short	12
 9887              		.section	.data.__compound_literal.14,"aw"
 9888              		.align	2
 9891              	__compound_literal.14:
 9892 0000 58E3863D 		.word	1032250200
 9893              		.section	.data.__compound_literal.13,"aw"
 9894              		.align	2
 9897              	__compound_literal.13:
 9898 0000 01000000 		.word	1
 9899 0004 04000000 		.word	4
 9900 0008 60000000 		.word	96
 9901 000c 60000000 		.word	96
 9902 0010 08000000 		.word	8
 9903              		.section	.bss.__compound_literal.12,"aw",%nobits
 9904              		.align	1
 9907              	__compound_literal.12:
 9908 0000 0000     		.space	2
 9909              		.section	.data.__compound_literal.11,"aw"
 9910              		.align	2
 9913              	__compound_literal.11:
 9914 0000 8180803B 		.word	998277249
 9915              		.section	.data.__compound_literal.10,"aw"
 9916              		.align	2
 9919              	__compound_literal.10:
 9920 0000 01000000 		.word	1
 9921 0004 C0000000 		.word	192
 9922 0008 C0000000 		.word	192
 9923 000c 03000000 		.word	3
 9924              		.section	.bss.__compound_literal.9,"aw",%nobits
 9925              		.align	1
 9928              	__compound_literal.9:
 9929 0000 0000     		.space	2
 9930              		.section	.data.__compound_literal.8,"aw"
 9931              		.align	2
 9934              	__compound_literal.8:
 9935 0000 8180803B 		.word	998277249
 9936              		.section	.data.__compound_literal.7,"aw"
 9937              		.align	2
 9940              	__compound_literal.7:
 9941 0000 01000000 		.word	1
 9942 0004 C0000000 		.word	192
ARM GAS  C:\Users\DJESSOU\AppData\Local\Temp\ccruImXQ.s 			page 200


 9943 0008 C0000000 		.word	192
 9944 000c 03000000 		.word	3
 9945              		.section	.rodata.str1.1
 9946              	.LC247:
 9947 163e 5472616E 		.ascii	"Transpose_351_out_0\000"
 9947      73706F73 
 9947      655F3335 
 9947      315F6F75 
 9947      745F3000 
 9948              	.LC248:
 9949 1652 5472616E 		.ascii	"Transpose_341_out_0\000"
 9949      73706F73 
 9949      655F3334 
 9949      315F6F75 
 9949      745F3000 
 9950              		.section	.data.__compound_literal.6,"aw"
 9951              		.align	2
 9954              	__compound_literal.6:
 9955 0000 801F0000 		.word	8064
 9956 0004 89000000 		.word	137
 9957 0008 40108200 		.word	8523840
 9958 000c 03000000 		.word	3
 9959 0010 00000000 		.word	__compound_literal.4
 9960 0014 00000000 		.word	0
 9961 0018 00000000 		.word	0
 9962 001c 00000000 		.word	0
 9963 0020 00000000 		.word	0
 9964 0024 3E160000 		.word	.LC247
 9965 0028 00370200 		.word	145152
 9966 002c 89000000 		.word	137
 9967 0030 40108200 		.word	8523840
 9968 0034 03000000 		.word	3
 9969 0038 00000000 		.word	__compound_literal.5
 9970 003c 00000000 		.word	0
 9971 0040 00000000 		.word	0
 9972 0044 00000000 		.word	0
 9973 0048 00000000 		.word	0
 9974 004c 52160000 		.word	.LC248
 9975              		.section	.data.__compound_literal.5,"aw"
 9976              		.align	2
 9979              	__compound_literal.5:
 9980 0000 E0070000 		.word	2016
 9981 0004 12000000 		.word	18
 9982 0008 01000000 		.word	1
 9983              		.section	.data.__compound_literal.4,"aw"
 9984              		.align	2
 9987              	__compound_literal.4:
 9988 0000 E0070000 		.word	2016
 9989 0004 01000000 		.word	1
 9990 0008 01000000 		.word	1
 9991              		.section	.rodata.str1.1
 9992              	.LC249:
 9993 1666 496E7075 		.ascii	"Input_0_out_0\000"
 9993      745F305F 
 9993      6F75745F 
 9993      3000
 9994              		.section	.data.__compound_literal.3,"aw"
ARM GAS  C:\Users\DJESSOU\AppData\Local\Temp\ccruImXQ.s 			page 201


 9995              		.align	2
 9998              	__compound_literal.3:
 9999 0000 00B00100 		.word	110592
 10000 0004 80000000 		.word	128
 10001 0008 40040400 		.word	263232
 10002 000c 04000000 		.word	4
 10003 0010 00000000 		.word	__compound_literal.0
 10004 0014 01000000 		.word	1
 10005 0018 00000000 		.word	__compound_literal.1
 10006 001c 01000000 		.word	1
 10007 0020 00000000 		.word	__compound_literal.2
 10008 0024 66160000 		.word	.LC249
 10009              		.section	.bss.__compound_literal.2,"aw",%nobits
 10010              		.align	1
 10013              	__compound_literal.2:
 10014 0000 0000     		.space	2
 10015              		.section	.data.__compound_literal.1,"aw"
 10016              		.align	2
 10019              	__compound_literal.1:
 10020 0000 8180803B 		.word	998277249
 10021              		.section	.data.__compound_literal.0,"aw"
 10022              		.align	2
 10025              	__compound_literal.0:
 10026 0000 01000000 		.word	1
 10027 0004 C0000000 		.word	192
 10028 0008 C0000000 		.word	192
 10029 000c 03000000 		.word	3
 10030              		.section	.rodata.NN_Interface_palm_detector,"a"
 10031              		.align	2
 10034              	NN_Interface_palm_detector:
 10035 0000 15000000 		.word	.LC6
 10036 0004 00000000 		.word	LL_ATON_EC_Network_Init_palm_detector
 10037 0008 00000000 		.word	LL_ATON_EC_Inference_Init_palm_detector
 10038 000c 00000000 		.word	LL_ATON_Set_User_Input_Buffer_palm_detector
 10039 0010 00000000 		.word	LL_ATON_Get_User_Input_Buffer_palm_detector
 10040 0014 00000000 		.word	LL_ATON_Set_User_Output_Buffer_palm_detector
 10041 0018 00000000 		.word	LL_ATON_Get_User_Output_Buffer_palm_detector
 10042 001c 00000000 		.word	LL_ATON_EpochBlockItems_palm_detector
 10043 0020 00000000 		.word	LL_ATON_Output_Buffers_Info_palm_detector
 10044 0024 00000000 		.word	LL_ATON_Input_Buffers_Info_palm_detector
 10045 0028 00000000 		.word	LL_ATON_BlobEncryption_Info_palm_detector
 10046 002c 00000000 		.word	LL_ATON_WeightEncryption_Info_palm_detector
 10047 0030 00000000 		.word	LL_ATON_Internal_Buffers_Info_palm_detector
 10048              		.text
 10049              	.Letext0:
 10050              		.file 4 "C:\\ST\\STM32CubeIDE_1.18.1\\STM32CubeIDE\\plugins\\com.st.stm32cube.ide.mcu.externaltool
 10051              		.file 5 "C:\\ST\\STM32CubeIDE_1.18.1\\STM32CubeIDE\\plugins\\com.st.stm32cube.ide.mcu.externaltool
 10052              		.file 6 "Lib/AI_Runtime/Npu/ll_aton/ll_aton_cipher.h"
 10053              		.file 7 "Lib/AI_Runtime/Npu/ll_aton/ll_aton_rt_user_api.h"
 10054              		.file 8 "Lib/AI_Runtime/Inc/stai.h"
 10055              		.file 9 "Lib/AI_Runtime/Npu/ll_aton/stai_aton_common.h"
 10056              		.file 10 "C:\\ST\\STM32CubeIDE_1.18.1\\STM32CubeIDE\\plugins\\com.st.stm32cube.ide.mcu.externaltoo
 10057              		.file 11 "<built-in>"
ARM GAS  C:\Users\DJESSOU\AppData\Local\Temp\ccruImXQ.s 			page 202


DEFINED SYMBOLS
                            *ABS*:00000000 stai_palm_detector.c
C:\Users\DJESSOU\AppData\Local\Temp\ccruImXQ.s:26     .text.LL_Buffer_addr_start:00000000 $t
C:\Users\DJESSOU\AppData\Local\Temp\ccruImXQ.s:31     .text.LL_Buffer_addr_start:00000000 LL_Buffer_addr_start
C:\Users\DJESSOU\AppData\Local\Temp\ccruImXQ.s:76     .text.__ll_aton_stai_check_context_network_handle.constprop.0:00000000 $t
C:\Users\DJESSOU\AppData\Local\Temp\ccruImXQ.s:81     .text.__ll_aton_stai_check_context_network_handle.constprop.0:00000000 __ll_aton_stai_check_context_network_handle.constprop.0
C:\Users\DJESSOU\AppData\Local\Temp\ccruImXQ.s:143    .text.__ll_aton_stai_palm_detector_set_outputs_or_activations:00000000 $t
C:\Users\DJESSOU\AppData\Local\Temp\ccruImXQ.s:148    .text.__ll_aton_stai_palm_detector_set_outputs_or_activations:00000000 __ll_aton_stai_palm_detector_set_outputs_or_activations
C:\Users\DJESSOU\AppData\Local\Temp\ccruImXQ.s:459    .text.__ll_aton_stai_palm_detector_set_outputs_or_activations:0000010c $d
C:\Users\DJESSOU\AppData\Local\Temp\ccruImXQ.s:10034  .rodata.NN_Interface_palm_detector:00000000 NN_Interface_palm_detector
C:\Users\DJESSOU\AppData\Local\Temp\ccruImXQ.s:2651   .rodata.__func__.0:00000000 __func__.0
C:\Users\DJESSOU\AppData\Local\Temp\ccruImXQ.s:475    .text.__ll_aton_stai_palm_detector_set_inputs_or_weights:00000000 $t
C:\Users\DJESSOU\AppData\Local\Temp\ccruImXQ.s:480    .text.__ll_aton_stai_palm_detector_set_inputs_or_weights:00000000 __ll_aton_stai_palm_detector_set_inputs_or_weights
C:\Users\DJESSOU\AppData\Local\Temp\ccruImXQ.s:791    .text.__ll_aton_stai_palm_detector_set_inputs_or_weights:00000118 $d
C:\Users\DJESSOU\AppData\Local\Temp\ccruImXQ.s:2657   .rodata.__func__.1:00000000 __func__.1
C:\Users\DJESSOU\AppData\Local\Temp\ccruImXQ.s:811    .text.__ll_aton_stai_palm_detector_get_outputs_or_activations:00000000 $t
C:\Users\DJESSOU\AppData\Local\Temp\ccruImXQ.s:816    .text.__ll_aton_stai_palm_detector_get_outputs_or_activations:00000000 __ll_aton_stai_palm_detector_get_outputs_or_activations
C:\Users\DJESSOU\AppData\Local\Temp\ccruImXQ.s:1080   .text.__ll_aton_stai_palm_detector_get_outputs_or_activations:000000b0 $d
C:\Users\DJESSOU\AppData\Local\Temp\ccruImXQ.s:2662   .rodata.__func__.2:00000000 __func__.2
C:\Users\DJESSOU\AppData\Local\Temp\ccruImXQ.s:1091   .text.__ll_aton_stai_palm_detector_get_inputs_or_weights:00000000 $t
C:\Users\DJESSOU\AppData\Local\Temp\ccruImXQ.s:1096   .text.__ll_aton_stai_palm_detector_get_inputs_or_weights:00000000 __ll_aton_stai_palm_detector_get_inputs_or_weights
C:\Users\DJESSOU\AppData\Local\Temp\ccruImXQ.s:1330   .text.__ll_aton_stai_palm_detector_get_inputs_or_weights:000000bc $d
C:\Users\DJESSOU\AppData\Local\Temp\ccruImXQ.s:2668   .rodata.__func__.3:00000000 __func__.3
C:\Users\DJESSOU\AppData\Local\Temp\ccruImXQ.s:1344   .text.stai_palm_detector_init:00000000 $t
C:\Users\DJESSOU\AppData\Local\Temp\ccruImXQ.s:1350   .text.stai_palm_detector_init:00000000 stai_palm_detector_init
C:\Users\DJESSOU\AppData\Local\Temp\ccruImXQ.s:1409   .text.stai_palm_detector_init:0000002c $d
C:\Users\DJESSOU\AppData\Local\Temp\ccruImXQ.s:1414   .text.stai_palm_detector_deinit:00000000 $t
C:\Users\DJESSOU\AppData\Local\Temp\ccruImXQ.s:1420   .text.stai_palm_detector_deinit:00000000 stai_palm_detector_deinit
C:\Users\DJESSOU\AppData\Local\Temp\ccruImXQ.s:1538   .text.stai_palm_detector_deinit:00000070 $d
C:\Users\DJESSOU\AppData\Local\Temp\ccruImXQ.s:1543   .text.stai_palm_detector_run:00000000 $t
C:\Users\DJESSOU\AppData\Local\Temp\ccruImXQ.s:1549   .text.stai_palm_detector_run:00000000 stai_palm_detector_run
C:\Users\DJESSOU\AppData\Local\Temp\ccruImXQ.s:1631   .text.stai_palm_detector_run:00000044 $d
C:\Users\DJESSOU\AppData\Local\Temp\ccruImXQ.s:1636   .text.stai_palm_detector_train:00000000 $t
C:\Users\DJESSOU\AppData\Local\Temp\ccruImXQ.s:1642   .text.stai_palm_detector_train:00000000 stai_palm_detector_train
C:\Users\DJESSOU\AppData\Local\Temp\ccruImXQ.s:1725   .text.stai_palm_detector_train:0000004c $d
C:\Users\DJESSOU\AppData\Local\Temp\ccruImXQ.s:1731   .text.stai_palm_detector_get_inputs:00000000 $t
C:\Users\DJESSOU\AppData\Local\Temp\ccruImXQ.s:1737   .text.stai_palm_detector_get_inputs:00000000 stai_palm_detector_get_inputs
C:\Users\DJESSOU\AppData\Local\Temp\ccruImXQ.s:1755   .text.stai_palm_detector_get_weights:00000000 $t
C:\Users\DJESSOU\AppData\Local\Temp\ccruImXQ.s:1761   .text.stai_palm_detector_get_weights:00000000 stai_palm_detector_get_weights
C:\Users\DJESSOU\AppData\Local\Temp\ccruImXQ.s:1779   .text.stai_palm_detector_get_outputs:00000000 $t
C:\Users\DJESSOU\AppData\Local\Temp\ccruImXQ.s:1785   .text.stai_palm_detector_get_outputs:00000000 stai_palm_detector_get_outputs
C:\Users\DJESSOU\AppData\Local\Temp\ccruImXQ.s:1803   .text.stai_palm_detector_get_activations:00000000 $t
C:\Users\DJESSOU\AppData\Local\Temp\ccruImXQ.s:1809   .text.stai_palm_detector_get_activations:00000000 stai_palm_detector_get_activations
C:\Users\DJESSOU\AppData\Local\Temp\ccruImXQ.s:1834   .text.stai_palm_detector_get_info:00000000 $t
C:\Users\DJESSOU\AppData\Local\Temp\ccruImXQ.s:1840   .text.stai_palm_detector_get_info:00000000 stai_palm_detector_get_info
C:\Users\DJESSOU\AppData\Local\Temp\ccruImXQ.s:1950   .text.stai_palm_detector_get_info:00000080 $d
C:\Users\DJESSOU\AppData\Local\Temp\ccruImXQ.s:9998   .data.__compound_literal.3:00000000 __compound_literal.3
C:\Users\DJESSOU\AppData\Local\Temp\ccruImXQ.s:9954   .data.__compound_literal.6:00000000 __compound_literal.6
C:\Users\DJESSOU\AppData\Local\Temp\ccruImXQ.s:3156   .data.__compound_literal.616:00000000 __compound_literal.616
C:\Users\DJESSOU\AppData\Local\Temp\ccruImXQ.s:1962   .text.stai_palm_detector_get_states:00000000 $t
C:\Users\DJESSOU\AppData\Local\Temp\ccruImXQ.s:1968   .text.stai_palm_detector_get_states:00000000 stai_palm_detector_get_states
C:\Users\DJESSOU\AppData\Local\Temp\ccruImXQ.s:2042   .text.stai_palm_detector_get_states:0000003c $d
C:\Users\DJESSOU\AppData\Local\Temp\ccruImXQ.s:2047   .text.stai_palm_detector_get_error:00000000 $t
C:\Users\DJESSOU\AppData\Local\Temp\ccruImXQ.s:2053   .text.stai_palm_detector_get_error:00000000 stai_palm_detector_get_error
C:\Users\DJESSOU\AppData\Local\Temp\ccruImXQ.s:2121   .text.stai_palm_detector_get_error:0000003c $d
C:\Users\DJESSOU\AppData\Local\Temp\ccruImXQ.s:2126   .text.stai_palm_detector_set_inputs:00000000 $t
C:\Users\DJESSOU\AppData\Local\Temp\ccruImXQ.s:2132   .text.stai_palm_detector_set_inputs:00000000 stai_palm_detector_set_inputs
ARM GAS  C:\Users\DJESSOU\AppData\Local\Temp\ccruImXQ.s 			page 203


C:\Users\DJESSOU\AppData\Local\Temp\ccruImXQ.s:2150   .text.stai_palm_detector_set_weights:00000000 $t
C:\Users\DJESSOU\AppData\Local\Temp\ccruImXQ.s:2156   .text.stai_palm_detector_set_weights:00000000 stai_palm_detector_set_weights
C:\Users\DJESSOU\AppData\Local\Temp\ccruImXQ.s:2174   .text.stai_palm_detector_set_outputs:00000000 $t
C:\Users\DJESSOU\AppData\Local\Temp\ccruImXQ.s:2180   .text.stai_palm_detector_set_outputs:00000000 stai_palm_detector_set_outputs
C:\Users\DJESSOU\AppData\Local\Temp\ccruImXQ.s:2198   .text.stai_palm_detector_set_activations:00000000 $t
C:\Users\DJESSOU\AppData\Local\Temp\ccruImXQ.s:2204   .text.stai_palm_detector_set_activations:00000000 stai_palm_detector_set_activations
C:\Users\DJESSOU\AppData\Local\Temp\ccruImXQ.s:2222   .text.stai_palm_detector_set_states:00000000 $t
C:\Users\DJESSOU\AppData\Local\Temp\ccruImXQ.s:2228   .text.stai_palm_detector_set_states:00000000 stai_palm_detector_set_states
C:\Users\DJESSOU\AppData\Local\Temp\ccruImXQ.s:2316   .text.stai_palm_detector_set_states:00000050 $d
C:\Users\DJESSOU\AppData\Local\Temp\ccruImXQ.s:2322   .text.stai_palm_detector_set_callback:00000000 $t
C:\Users\DJESSOU\AppData\Local\Temp\ccruImXQ.s:2328   .text.stai_palm_detector_set_callback:00000000 stai_palm_detector_set_callback
C:\Users\DJESSOU\AppData\Local\Temp\ccruImXQ.s:2396   .text.stai_palm_detector_set_callback:00000038 $d
C:\Users\DJESSOU\AppData\Local\Temp\ccruImXQ.s:2402   .text.stai_ext_palm_detector_run_continue:00000000 $t
C:\Users\DJESSOU\AppData\Local\Temp\ccruImXQ.s:2408   .text.stai_ext_palm_detector_run_continue:00000000 stai_ext_palm_detector_run_continue
C:\Users\DJESSOU\AppData\Local\Temp\ccruImXQ.s:2527   .text.stai_ext_palm_detector_run_continue:00000060 $d
C:\Users\DJESSOU\AppData\Local\Temp\ccruImXQ.s:2534   .text.stai_ext_palm_detector_get_nn_run_status:00000000 $t
C:\Users\DJESSOU\AppData\Local\Temp\ccruImXQ.s:2540   .text.stai_ext_palm_detector_get_nn_run_status:00000000 stai_ext_palm_detector_get_nn_run_status
C:\Users\DJESSOU\AppData\Local\Temp\ccruImXQ.s:2621   .text.stai_ext_palm_detector_get_nn_run_status:00000044 $d
C:\Users\DJESSOU\AppData\Local\Temp\ccruImXQ.s:2626   .text.stai_ext_palm_detector_new_inference:00000000 $t
C:\Users\DJESSOU\AppData\Local\Temp\ccruImXQ.s:2632   .text.stai_ext_palm_detector_new_inference:00000000 stai_ext_palm_detector_new_inference
C:\Users\DJESSOU\AppData\Local\Temp\ccruImXQ.s:3153   .data.__compound_literal.616:00000000 $d
C:\Users\DJESSOU\AppData\Local\Temp\ccruImXQ.s:9940   .data.__compound_literal.7:00000000 __compound_literal.7
C:\Users\DJESSOU\AppData\Local\Temp\ccruImXQ.s:9934   .data.__compound_literal.8:00000000 __compound_literal.8
C:\Users\DJESSOU\AppData\Local\Temp\ccruImXQ.s:9928   .bss.__compound_literal.9:00000000 __compound_literal.9
C:\Users\DJESSOU\AppData\Local\Temp\ccruImXQ.s:9919   .data.__compound_literal.10:00000000 __compound_literal.10
C:\Users\DJESSOU\AppData\Local\Temp\ccruImXQ.s:9913   .data.__compound_literal.11:00000000 __compound_literal.11
C:\Users\DJESSOU\AppData\Local\Temp\ccruImXQ.s:9907   .bss.__compound_literal.12:00000000 __compound_literal.12
C:\Users\DJESSOU\AppData\Local\Temp\ccruImXQ.s:9897   .data.__compound_literal.13:00000000 __compound_literal.13
C:\Users\DJESSOU\AppData\Local\Temp\ccruImXQ.s:9891   .data.__compound_literal.14:00000000 __compound_literal.14
C:\Users\DJESSOU\AppData\Local\Temp\ccruImXQ.s:9885   .data.__compound_literal.15:00000000 __compound_literal.15
C:\Users\DJESSOU\AppData\Local\Temp\ccruImXQ.s:9875   .data.__compound_literal.16:00000000 __compound_literal.16
C:\Users\DJESSOU\AppData\Local\Temp\ccruImXQ.s:9869   .data.__compound_literal.17:00000000 __compound_literal.17
C:\Users\DJESSOU\AppData\Local\Temp\ccruImXQ.s:9863   .bss.__compound_literal.18:00000000 __compound_literal.18
C:\Users\DJESSOU\AppData\Local\Temp\ccruImXQ.s:9854   .data.__compound_literal.19:00000000 __compound_literal.19
C:\Users\DJESSOU\AppData\Local\Temp\ccruImXQ.s:9848   .data.__compound_literal.20:00000000 __compound_literal.20
C:\Users\DJESSOU\AppData\Local\Temp\ccruImXQ.s:9842   .data.__compound_literal.21:00000000 __compound_literal.21
C:\Users\DJESSOU\AppData\Local\Temp\ccruImXQ.s:9833   .data.__compound_literal.22:00000000 __compound_literal.22
C:\Users\DJESSOU\AppData\Local\Temp\ccruImXQ.s:9827   .data.__compound_literal.23:00000000 __compound_literal.23
C:\Users\DJESSOU\AppData\Local\Temp\ccruImXQ.s:9821   .data.__compound_literal.24:00000000 __compound_literal.24
C:\Users\DJESSOU\AppData\Local\Temp\ccruImXQ.s:9812   .data.__compound_literal.25:00000000 __compound_literal.25
C:\Users\DJESSOU\AppData\Local\Temp\ccruImXQ.s:9806   .data.__compound_literal.26:00000000 __compound_literal.26
C:\Users\DJESSOU\AppData\Local\Temp\ccruImXQ.s:9800   .data.__compound_literal.27:00000000 __compound_literal.27
C:\Users\DJESSOU\AppData\Local\Temp\ccruImXQ.s:9790   .data.__compound_literal.28:00000000 __compound_literal.28
C:\Users\DJESSOU\AppData\Local\Temp\ccruImXQ.s:9784   .data.__compound_literal.29:00000000 __compound_literal.29
C:\Users\DJESSOU\AppData\Local\Temp\ccruImXQ.s:9778   .data.__compound_literal.30:00000000 __compound_literal.30
C:\Users\DJESSOU\AppData\Local\Temp\ccruImXQ.s:9768   .data.__compound_literal.31:00000000 __compound_literal.31
C:\Users\DJESSOU\AppData\Local\Temp\ccruImXQ.s:9762   .data.__compound_literal.32:00000000 __compound_literal.32
C:\Users\DJESSOU\AppData\Local\Temp\ccruImXQ.s:9756   .data.__compound_literal.33:00000000 __compound_literal.33
C:\Users\DJESSOU\AppData\Local\Temp\ccruImXQ.s:9747   .data.__compound_literal.34:00000000 __compound_literal.34
C:\Users\DJESSOU\AppData\Local\Temp\ccruImXQ.s:9741   .data.__compound_literal.35:00000000 __compound_literal.35
C:\Users\DJESSOU\AppData\Local\Temp\ccruImXQ.s:9735   .data.__compound_literal.36:00000000 __compound_literal.36
C:\Users\DJESSOU\AppData\Local\Temp\ccruImXQ.s:9726   .data.__compound_literal.37:00000000 __compound_literal.37
C:\Users\DJESSOU\AppData\Local\Temp\ccruImXQ.s:9720   .data.__compound_literal.38:00000000 __compound_literal.38
C:\Users\DJESSOU\AppData\Local\Temp\ccruImXQ.s:9714   .data.__compound_literal.39:00000000 __compound_literal.39
C:\Users\DJESSOU\AppData\Local\Temp\ccruImXQ.s:9705   .data.__compound_literal.40:00000000 __compound_literal.40
C:\Users\DJESSOU\AppData\Local\Temp\ccruImXQ.s:9699   .data.__compound_literal.41:00000000 __compound_literal.41
C:\Users\DJESSOU\AppData\Local\Temp\ccruImXQ.s:9693   .data.__compound_literal.42:00000000 __compound_literal.42
ARM GAS  C:\Users\DJESSOU\AppData\Local\Temp\ccruImXQ.s 			page 204


C:\Users\DJESSOU\AppData\Local\Temp\ccruImXQ.s:9683   .data.__compound_literal.43:00000000 __compound_literal.43
C:\Users\DJESSOU\AppData\Local\Temp\ccruImXQ.s:9677   .data.__compound_literal.44:00000000 __compound_literal.44
C:\Users\DJESSOU\AppData\Local\Temp\ccruImXQ.s:9671   .data.__compound_literal.45:00000000 __compound_literal.45
C:\Users\DJESSOU\AppData\Local\Temp\ccruImXQ.s:9661   .data.__compound_literal.46:00000000 __compound_literal.46
C:\Users\DJESSOU\AppData\Local\Temp\ccruImXQ.s:9655   .data.__compound_literal.47:00000000 __compound_literal.47
C:\Users\DJESSOU\AppData\Local\Temp\ccruImXQ.s:9649   .data.__compound_literal.48:00000000 __compound_literal.48
C:\Users\DJESSOU\AppData\Local\Temp\ccruImXQ.s:9640   .data.__compound_literal.49:00000000 __compound_literal.49
C:\Users\DJESSOU\AppData\Local\Temp\ccruImXQ.s:9634   .data.__compound_literal.50:00000000 __compound_literal.50
C:\Users\DJESSOU\AppData\Local\Temp\ccruImXQ.s:9628   .data.__compound_literal.51:00000000 __compound_literal.51
C:\Users\DJESSOU\AppData\Local\Temp\ccruImXQ.s:9619   .data.__compound_literal.52:00000000 __compound_literal.52
C:\Users\DJESSOU\AppData\Local\Temp\ccruImXQ.s:9613   .data.__compound_literal.53:00000000 __compound_literal.53
C:\Users\DJESSOU\AppData\Local\Temp\ccruImXQ.s:9607   .data.__compound_literal.54:00000000 __compound_literal.54
C:\Users\DJESSOU\AppData\Local\Temp\ccruImXQ.s:9598   .data.__compound_literal.55:00000000 __compound_literal.55
C:\Users\DJESSOU\AppData\Local\Temp\ccruImXQ.s:9592   .data.__compound_literal.56:00000000 __compound_literal.56
C:\Users\DJESSOU\AppData\Local\Temp\ccruImXQ.s:9586   .data.__compound_literal.57:00000000 __compound_literal.57
C:\Users\DJESSOU\AppData\Local\Temp\ccruImXQ.s:9576   .data.__compound_literal.58:00000000 __compound_literal.58
C:\Users\DJESSOU\AppData\Local\Temp\ccruImXQ.s:9570   .data.__compound_literal.59:00000000 __compound_literal.59
C:\Users\DJESSOU\AppData\Local\Temp\ccruImXQ.s:9564   .data.__compound_literal.60:00000000 __compound_literal.60
C:\Users\DJESSOU\AppData\Local\Temp\ccruImXQ.s:9554   .data.__compound_literal.61:00000000 __compound_literal.61
C:\Users\DJESSOU\AppData\Local\Temp\ccruImXQ.s:9548   .data.__compound_literal.62:00000000 __compound_literal.62
C:\Users\DJESSOU\AppData\Local\Temp\ccruImXQ.s:9542   .data.__compound_literal.63:00000000 __compound_literal.63
C:\Users\DJESSOU\AppData\Local\Temp\ccruImXQ.s:9533   .data.__compound_literal.64:00000000 __compound_literal.64
C:\Users\DJESSOU\AppData\Local\Temp\ccruImXQ.s:9527   .data.__compound_literal.65:00000000 __compound_literal.65
C:\Users\DJESSOU\AppData\Local\Temp\ccruImXQ.s:9521   .data.__compound_literal.66:00000000 __compound_literal.66
C:\Users\DJESSOU\AppData\Local\Temp\ccruImXQ.s:9512   .data.__compound_literal.67:00000000 __compound_literal.67
C:\Users\DJESSOU\AppData\Local\Temp\ccruImXQ.s:9506   .data.__compound_literal.68:00000000 __compound_literal.68
C:\Users\DJESSOU\AppData\Local\Temp\ccruImXQ.s:9500   .data.__compound_literal.69:00000000 __compound_literal.69
C:\Users\DJESSOU\AppData\Local\Temp\ccruImXQ.s:9491   .data.__compound_literal.70:00000000 __compound_literal.70
C:\Users\DJESSOU\AppData\Local\Temp\ccruImXQ.s:9485   .data.__compound_literal.71:00000000 __compound_literal.71
C:\Users\DJESSOU\AppData\Local\Temp\ccruImXQ.s:9479   .data.__compound_literal.72:00000000 __compound_literal.72
C:\Users\DJESSOU\AppData\Local\Temp\ccruImXQ.s:9469   .data.__compound_literal.73:00000000 __compound_literal.73
C:\Users\DJESSOU\AppData\Local\Temp\ccruImXQ.s:9463   .data.__compound_literal.74:00000000 __compound_literal.74
C:\Users\DJESSOU\AppData\Local\Temp\ccruImXQ.s:9457   .data.__compound_literal.75:00000000 __compound_literal.75
C:\Users\DJESSOU\AppData\Local\Temp\ccruImXQ.s:9447   .data.__compound_literal.76:00000000 __compound_literal.76
C:\Users\DJESSOU\AppData\Local\Temp\ccruImXQ.s:9441   .data.__compound_literal.77:00000000 __compound_literal.77
C:\Users\DJESSOU\AppData\Local\Temp\ccruImXQ.s:9435   .data.__compound_literal.78:00000000 __compound_literal.78
C:\Users\DJESSOU\AppData\Local\Temp\ccruImXQ.s:9426   .data.__compound_literal.79:00000000 __compound_literal.79
C:\Users\DJESSOU\AppData\Local\Temp\ccruImXQ.s:9420   .data.__compound_literal.80:00000000 __compound_literal.80
C:\Users\DJESSOU\AppData\Local\Temp\ccruImXQ.s:9414   .data.__compound_literal.81:00000000 __compound_literal.81
C:\Users\DJESSOU\AppData\Local\Temp\ccruImXQ.s:9405   .data.__compound_literal.82:00000000 __compound_literal.82
C:\Users\DJESSOU\AppData\Local\Temp\ccruImXQ.s:9399   .data.__compound_literal.83:00000000 __compound_literal.83
C:\Users\DJESSOU\AppData\Local\Temp\ccruImXQ.s:9393   .data.__compound_literal.84:00000000 __compound_literal.84
C:\Users\DJESSOU\AppData\Local\Temp\ccruImXQ.s:9384   .data.__compound_literal.85:00000000 __compound_literal.85
C:\Users\DJESSOU\AppData\Local\Temp\ccruImXQ.s:9378   .data.__compound_literal.86:00000000 __compound_literal.86
C:\Users\DJESSOU\AppData\Local\Temp\ccruImXQ.s:9372   .data.__compound_literal.87:00000000 __compound_literal.87
C:\Users\DJESSOU\AppData\Local\Temp\ccruImXQ.s:9363   .data.__compound_literal.88:00000000 __compound_literal.88
C:\Users\DJESSOU\AppData\Local\Temp\ccruImXQ.s:9354   .data.__compound_literal.89:00000000 __compound_literal.89
C:\Users\DJESSOU\AppData\Local\Temp\ccruImXQ.s:9348   .data.__compound_literal.90:00000000 __compound_literal.90
C:\Users\DJESSOU\AppData\Local\Temp\ccruImXQ.s:9342   .data.__compound_literal.91:00000000 __compound_literal.91
C:\Users\DJESSOU\AppData\Local\Temp\ccruImXQ.s:9333   .data.__compound_literal.92:00000000 __compound_literal.92
C:\Users\DJESSOU\AppData\Local\Temp\ccruImXQ.s:9327   .data.__compound_literal.93:00000000 __compound_literal.93
C:\Users\DJESSOU\AppData\Local\Temp\ccruImXQ.s:9321   .data.__compound_literal.94:00000000 __compound_literal.94
C:\Users\DJESSOU\AppData\Local\Temp\ccruImXQ.s:9312   .data.__compound_literal.95:00000000 __compound_literal.95
C:\Users\DJESSOU\AppData\Local\Temp\ccruImXQ.s:9306   .data.__compound_literal.96:00000000 __compound_literal.96
C:\Users\DJESSOU\AppData\Local\Temp\ccruImXQ.s:9300   .data.__compound_literal.97:00000000 __compound_literal.97
C:\Users\DJESSOU\AppData\Local\Temp\ccruImXQ.s:9291   .data.__compound_literal.98:00000000 __compound_literal.98
C:\Users\DJESSOU\AppData\Local\Temp\ccruImXQ.s:9285   .data.__compound_literal.99:00000000 __compound_literal.99
ARM GAS  C:\Users\DJESSOU\AppData\Local\Temp\ccruImXQ.s 			page 205


C:\Users\DJESSOU\AppData\Local\Temp\ccruImXQ.s:9279   .data.__compound_literal.100:00000000 __compound_literal.100
C:\Users\DJESSOU\AppData\Local\Temp\ccruImXQ.s:9270   .data.__compound_literal.101:00000000 __compound_literal.101
C:\Users\DJESSOU\AppData\Local\Temp\ccruImXQ.s:9264   .data.__compound_literal.102:00000000 __compound_literal.102
C:\Users\DJESSOU\AppData\Local\Temp\ccruImXQ.s:9258   .data.__compound_literal.103:00000000 __compound_literal.103
C:\Users\DJESSOU\AppData\Local\Temp\ccruImXQ.s:9249   .data.__compound_literal.104:00000000 __compound_literal.104
C:\Users\DJESSOU\AppData\Local\Temp\ccruImXQ.s:9243   .data.__compound_literal.105:00000000 __compound_literal.105
C:\Users\DJESSOU\AppData\Local\Temp\ccruImXQ.s:9237   .data.__compound_literal.106:00000000 __compound_literal.106
C:\Users\DJESSOU\AppData\Local\Temp\ccruImXQ.s:9228   .data.__compound_literal.107:00000000 __compound_literal.107
C:\Users\DJESSOU\AppData\Local\Temp\ccruImXQ.s:9219   .data.__compound_literal.108:00000000 __compound_literal.108
C:\Users\DJESSOU\AppData\Local\Temp\ccruImXQ.s:9213   .data.__compound_literal.109:00000000 __compound_literal.109
C:\Users\DJESSOU\AppData\Local\Temp\ccruImXQ.s:9207   .data.__compound_literal.110:00000000 __compound_literal.110
C:\Users\DJESSOU\AppData\Local\Temp\ccruImXQ.s:9198   .data.__compound_literal.111:00000000 __compound_literal.111
C:\Users\DJESSOU\AppData\Local\Temp\ccruImXQ.s:9192   .data.__compound_literal.112:00000000 __compound_literal.112
C:\Users\DJESSOU\AppData\Local\Temp\ccruImXQ.s:9186   .data.__compound_literal.113:00000000 __compound_literal.113
C:\Users\DJESSOU\AppData\Local\Temp\ccruImXQ.s:9177   .data.__compound_literal.114:00000000 __compound_literal.114
C:\Users\DJESSOU\AppData\Local\Temp\ccruImXQ.s:9171   .data.__compound_literal.115:00000000 __compound_literal.115
C:\Users\DJESSOU\AppData\Local\Temp\ccruImXQ.s:9165   .data.__compound_literal.116:00000000 __compound_literal.116
C:\Users\DJESSOU\AppData\Local\Temp\ccruImXQ.s:9156   .data.__compound_literal.117:00000000 __compound_literal.117
C:\Users\DJESSOU\AppData\Local\Temp\ccruImXQ.s:9150   .data.__compound_literal.118:00000000 __compound_literal.118
C:\Users\DJESSOU\AppData\Local\Temp\ccruImXQ.s:9144   .data.__compound_literal.119:00000000 __compound_literal.119
C:\Users\DJESSOU\AppData\Local\Temp\ccruImXQ.s:9135   .data.__compound_literal.120:00000000 __compound_literal.120
C:\Users\DJESSOU\AppData\Local\Temp\ccruImXQ.s:9129   .data.__compound_literal.121:00000000 __compound_literal.121
C:\Users\DJESSOU\AppData\Local\Temp\ccruImXQ.s:9123   .data.__compound_literal.122:00000000 __compound_literal.122
C:\Users\DJESSOU\AppData\Local\Temp\ccruImXQ.s:9114   .data.__compound_literal.123:00000000 __compound_literal.123
C:\Users\DJESSOU\AppData\Local\Temp\ccruImXQ.s:9105   .data.__compound_literal.124:00000000 __compound_literal.124
C:\Users\DJESSOU\AppData\Local\Temp\ccruImXQ.s:9099   .data.__compound_literal.125:00000000 __compound_literal.125
C:\Users\DJESSOU\AppData\Local\Temp\ccruImXQ.s:9093   .bss.__compound_literal.126:00000000 __compound_literal.126
C:\Users\DJESSOU\AppData\Local\Temp\ccruImXQ.s:9084   .data.__compound_literal.127:00000000 __compound_literal.127
C:\Users\DJESSOU\AppData\Local\Temp\ccruImXQ.s:9078   .data.__compound_literal.128:00000000 __compound_literal.128
C:\Users\DJESSOU\AppData\Local\Temp\ccruImXQ.s:9072   .data.__compound_literal.129:00000000 __compound_literal.129
C:\Users\DJESSOU\AppData\Local\Temp\ccruImXQ.s:9063   .data.__compound_literal.130:00000000 __compound_literal.130
C:\Users\DJESSOU\AppData\Local\Temp\ccruImXQ.s:9057   .data.__compound_literal.131:00000000 __compound_literal.131
C:\Users\DJESSOU\AppData\Local\Temp\ccruImXQ.s:9051   .data.__compound_literal.132:00000000 __compound_literal.132
C:\Users\DJESSOU\AppData\Local\Temp\ccruImXQ.s:9042   .data.__compound_literal.133:00000000 __compound_literal.133
C:\Users\DJESSOU\AppData\Local\Temp\ccruImXQ.s:9036   .data.__compound_literal.134:00000000 __compound_literal.134
C:\Users\DJESSOU\AppData\Local\Temp\ccruImXQ.s:9030   .data.__compound_literal.135:00000000 __compound_literal.135
C:\Users\DJESSOU\AppData\Local\Temp\ccruImXQ.s:9021   .data.__compound_literal.136:00000000 __compound_literal.136
C:\Users\DJESSOU\AppData\Local\Temp\ccruImXQ.s:9015   .data.__compound_literal.137:00000000 __compound_literal.137
C:\Users\DJESSOU\AppData\Local\Temp\ccruImXQ.s:9009   .data.__compound_literal.138:00000000 __compound_literal.138
C:\Users\DJESSOU\AppData\Local\Temp\ccruImXQ.s:9000   .data.__compound_literal.139:00000000 __compound_literal.139
C:\Users\DJESSOU\AppData\Local\Temp\ccruImXQ.s:8991   .data.__compound_literal.140:00000000 __compound_literal.140
C:\Users\DJESSOU\AppData\Local\Temp\ccruImXQ.s:8985   .data.__compound_literal.141:00000000 __compound_literal.141
C:\Users\DJESSOU\AppData\Local\Temp\ccruImXQ.s:8979   .data.__compound_literal.142:00000000 __compound_literal.142
C:\Users\DJESSOU\AppData\Local\Temp\ccruImXQ.s:8970   .data.__compound_literal.143:00000000 __compound_literal.143
C:\Users\DJESSOU\AppData\Local\Temp\ccruImXQ.s:8964   .data.__compound_literal.144:00000000 __compound_literal.144
C:\Users\DJESSOU\AppData\Local\Temp\ccruImXQ.s:8958   .data.__compound_literal.145:00000000 __compound_literal.145
C:\Users\DJESSOU\AppData\Local\Temp\ccruImXQ.s:8949   .data.__compound_literal.146:00000000 __compound_literal.146
C:\Users\DJESSOU\AppData\Local\Temp\ccruImXQ.s:8943   .data.__compound_literal.147:00000000 __compound_literal.147
C:\Users\DJESSOU\AppData\Local\Temp\ccruImXQ.s:8937   .data.__compound_literal.148:00000000 __compound_literal.148
C:\Users\DJESSOU\AppData\Local\Temp\ccruImXQ.s:8928   .data.__compound_literal.149:00000000 __compound_literal.149
C:\Users\DJESSOU\AppData\Local\Temp\ccruImXQ.s:8922   .data.__compound_literal.150:00000000 __compound_literal.150
C:\Users\DJESSOU\AppData\Local\Temp\ccruImXQ.s:8916   .data.__compound_literal.151:00000000 __compound_literal.151
C:\Users\DJESSOU\AppData\Local\Temp\ccruImXQ.s:8907   .data.__compound_literal.152:00000000 __compound_literal.152
C:\Users\DJESSOU\AppData\Local\Temp\ccruImXQ.s:8901   .data.__compound_literal.153:00000000 __compound_literal.153
C:\Users\DJESSOU\AppData\Local\Temp\ccruImXQ.s:8895   .data.__compound_literal.154:00000000 __compound_literal.154
C:\Users\DJESSOU\AppData\Local\Temp\ccruImXQ.s:8886   .data.__compound_literal.155:00000000 __compound_literal.155
C:\Users\DJESSOU\AppData\Local\Temp\ccruImXQ.s:8877   .data.__compound_literal.156:00000000 __compound_literal.156
ARM GAS  C:\Users\DJESSOU\AppData\Local\Temp\ccruImXQ.s 			page 206


C:\Users\DJESSOU\AppData\Local\Temp\ccruImXQ.s:8871   .data.__compound_literal.157:00000000 __compound_literal.157
C:\Users\DJESSOU\AppData\Local\Temp\ccruImXQ.s:8865   .data.__compound_literal.158:00000000 __compound_literal.158
C:\Users\DJESSOU\AppData\Local\Temp\ccruImXQ.s:8856   .data.__compound_literal.159:00000000 __compound_literal.159
C:\Users\DJESSOU\AppData\Local\Temp\ccruImXQ.s:8850   .data.__compound_literal.160:00000000 __compound_literal.160
C:\Users\DJESSOU\AppData\Local\Temp\ccruImXQ.s:8844   .data.__compound_literal.161:00000000 __compound_literal.161
C:\Users\DJESSOU\AppData\Local\Temp\ccruImXQ.s:8835   .data.__compound_literal.162:00000000 __compound_literal.162
C:\Users\DJESSOU\AppData\Local\Temp\ccruImXQ.s:8829   .data.__compound_literal.163:00000000 __compound_literal.163
C:\Users\DJESSOU\AppData\Local\Temp\ccruImXQ.s:8823   .data.__compound_literal.164:00000000 __compound_literal.164
C:\Users\DJESSOU\AppData\Local\Temp\ccruImXQ.s:8814   .data.__compound_literal.165:00000000 __compound_literal.165
C:\Users\DJESSOU\AppData\Local\Temp\ccruImXQ.s:8808   .data.__compound_literal.166:00000000 __compound_literal.166
C:\Users\DJESSOU\AppData\Local\Temp\ccruImXQ.s:8802   .data.__compound_literal.167:00000000 __compound_literal.167
C:\Users\DJESSOU\AppData\Local\Temp\ccruImXQ.s:8793   .data.__compound_literal.168:00000000 __compound_literal.168
C:\Users\DJESSOU\AppData\Local\Temp\ccruImXQ.s:8787   .data.__compound_literal.169:00000000 __compound_literal.169
C:\Users\DJESSOU\AppData\Local\Temp\ccruImXQ.s:8781   .data.__compound_literal.170:00000000 __compound_literal.170
C:\Users\DJESSOU\AppData\Local\Temp\ccruImXQ.s:8772   .data.__compound_literal.171:00000000 __compound_literal.171
C:\Users\DJESSOU\AppData\Local\Temp\ccruImXQ.s:8763   .data.__compound_literal.172:00000000 __compound_literal.172
C:\Users\DJESSOU\AppData\Local\Temp\ccruImXQ.s:8757   .data.__compound_literal.173:00000000 __compound_literal.173
C:\Users\DJESSOU\AppData\Local\Temp\ccruImXQ.s:8751   .data.__compound_literal.174:00000000 __compound_literal.174
C:\Users\DJESSOU\AppData\Local\Temp\ccruImXQ.s:8742   .data.__compound_literal.175:00000000 __compound_literal.175
C:\Users\DJESSOU\AppData\Local\Temp\ccruImXQ.s:8736   .data.__compound_literal.176:00000000 __compound_literal.176
C:\Users\DJESSOU\AppData\Local\Temp\ccruImXQ.s:8730   .data.__compound_literal.177:00000000 __compound_literal.177
C:\Users\DJESSOU\AppData\Local\Temp\ccruImXQ.s:8721   .data.__compound_literal.178:00000000 __compound_literal.178
C:\Users\DJESSOU\AppData\Local\Temp\ccruImXQ.s:8715   .data.__compound_literal.179:00000000 __compound_literal.179
C:\Users\DJESSOU\AppData\Local\Temp\ccruImXQ.s:8709   .data.__compound_literal.180:00000000 __compound_literal.180
C:\Users\DJESSOU\AppData\Local\Temp\ccruImXQ.s:8700   .data.__compound_literal.181:00000000 __compound_literal.181
C:\Users\DJESSOU\AppData\Local\Temp\ccruImXQ.s:8694   .data.__compound_literal.182:00000000 __compound_literal.182
C:\Users\DJESSOU\AppData\Local\Temp\ccruImXQ.s:8688   .data.__compound_literal.183:00000000 __compound_literal.183
C:\Users\DJESSOU\AppData\Local\Temp\ccruImXQ.s:8679   .data.__compound_literal.184:00000000 __compound_literal.184
C:\Users\DJESSOU\AppData\Local\Temp\ccruImXQ.s:8670   .data.__compound_literal.185:00000000 __compound_literal.185
C:\Users\DJESSOU\AppData\Local\Temp\ccruImXQ.s:8664   .data.__compound_literal.186:00000000 __compound_literal.186
C:\Users\DJESSOU\AppData\Local\Temp\ccruImXQ.s:8658   .data.__compound_literal.187:00000000 __compound_literal.187
C:\Users\DJESSOU\AppData\Local\Temp\ccruImXQ.s:8649   .data.__compound_literal.188:00000000 __compound_literal.188
C:\Users\DJESSOU\AppData\Local\Temp\ccruImXQ.s:8643   .data.__compound_literal.189:00000000 __compound_literal.189
C:\Users\DJESSOU\AppData\Local\Temp\ccruImXQ.s:8637   .data.__compound_literal.190:00000000 __compound_literal.190
C:\Users\DJESSOU\AppData\Local\Temp\ccruImXQ.s:8628   .data.__compound_literal.191:00000000 __compound_literal.191
C:\Users\DJESSOU\AppData\Local\Temp\ccruImXQ.s:8622   .data.__compound_literal.192:00000000 __compound_literal.192
C:\Users\DJESSOU\AppData\Local\Temp\ccruImXQ.s:8616   .data.__compound_literal.193:00000000 __compound_literal.193
C:\Users\DJESSOU\AppData\Local\Temp\ccruImXQ.s:8607   .data.__compound_literal.194:00000000 __compound_literal.194
C:\Users\DJESSOU\AppData\Local\Temp\ccruImXQ.s:8601   .data.__compound_literal.195:00000000 __compound_literal.195
C:\Users\DJESSOU\AppData\Local\Temp\ccruImXQ.s:8595   .data.__compound_literal.196:00000000 __compound_literal.196
C:\Users\DJESSOU\AppData\Local\Temp\ccruImXQ.s:8586   .data.__compound_literal.197:00000000 __compound_literal.197
C:\Users\DJESSOU\AppData\Local\Temp\ccruImXQ.s:8577   .data.__compound_literal.198:00000000 __compound_literal.198
C:\Users\DJESSOU\AppData\Local\Temp\ccruImXQ.s:8571   .data.__compound_literal.199:00000000 __compound_literal.199
C:\Users\DJESSOU\AppData\Local\Temp\ccruImXQ.s:8565   .data.__compound_literal.200:00000000 __compound_literal.200
C:\Users\DJESSOU\AppData\Local\Temp\ccruImXQ.s:8555   .data.__compound_literal.201:00000000 __compound_literal.201
C:\Users\DJESSOU\AppData\Local\Temp\ccruImXQ.s:8546   .data.__compound_literal.202:00000000 __compound_literal.202
C:\Users\DJESSOU\AppData\Local\Temp\ccruImXQ.s:8540   .data.__compound_literal.203:00000000 __compound_literal.203
C:\Users\DJESSOU\AppData\Local\Temp\ccruImXQ.s:8534   .data.__compound_literal.204:00000000 __compound_literal.204
C:\Users\DJESSOU\AppData\Local\Temp\ccruImXQ.s:8525   .data.__compound_literal.205:00000000 __compound_literal.205
C:\Users\DJESSOU\AppData\Local\Temp\ccruImXQ.s:8519   .data.__compound_literal.206:00000000 __compound_literal.206
C:\Users\DJESSOU\AppData\Local\Temp\ccruImXQ.s:8513   .data.__compound_literal.207:00000000 __compound_literal.207
C:\Users\DJESSOU\AppData\Local\Temp\ccruImXQ.s:8504   .data.__compound_literal.208:00000000 __compound_literal.208
C:\Users\DJESSOU\AppData\Local\Temp\ccruImXQ.s:8498   .data.__compound_literal.209:00000000 __compound_literal.209
C:\Users\DJESSOU\AppData\Local\Temp\ccruImXQ.s:8492   .data.__compound_literal.210:00000000 __compound_literal.210
C:\Users\DJESSOU\AppData\Local\Temp\ccruImXQ.s:8483   .data.__compound_literal.211:00000000 __compound_literal.211
C:\Users\DJESSOU\AppData\Local\Temp\ccruImXQ.s:8477   .data.__compound_literal.212:00000000 __compound_literal.212
C:\Users\DJESSOU\AppData\Local\Temp\ccruImXQ.s:8471   .data.__compound_literal.213:00000000 __compound_literal.213
ARM GAS  C:\Users\DJESSOU\AppData\Local\Temp\ccruImXQ.s 			page 207


C:\Users\DJESSOU\AppData\Local\Temp\ccruImXQ.s:8462   .data.__compound_literal.214:00000000 __compound_literal.214
C:\Users\DJESSOU\AppData\Local\Temp\ccruImXQ.s:8453   .data.__compound_literal.215:00000000 __compound_literal.215
C:\Users\DJESSOU\AppData\Local\Temp\ccruImXQ.s:8447   .data.__compound_literal.216:00000000 __compound_literal.216
C:\Users\DJESSOU\AppData\Local\Temp\ccruImXQ.s:8441   .data.__compound_literal.217:00000000 __compound_literal.217
C:\Users\DJESSOU\AppData\Local\Temp\ccruImXQ.s:8431   .data.__compound_literal.218:00000000 __compound_literal.218
C:\Users\DJESSOU\AppData\Local\Temp\ccruImXQ.s:8422   .data.__compound_literal.219:00000000 __compound_literal.219
C:\Users\DJESSOU\AppData\Local\Temp\ccruImXQ.s:8416   .data.__compound_literal.220:00000000 __compound_literal.220
C:\Users\DJESSOU\AppData\Local\Temp\ccruImXQ.s:8410   .data.__compound_literal.221:00000000 __compound_literal.221
C:\Users\DJESSOU\AppData\Local\Temp\ccruImXQ.s:8401   .data.__compound_literal.222:00000000 __compound_literal.222
C:\Users\DJESSOU\AppData\Local\Temp\ccruImXQ.s:8395   .data.__compound_literal.223:00000000 __compound_literal.223
C:\Users\DJESSOU\AppData\Local\Temp\ccruImXQ.s:8389   .data.__compound_literal.224:00000000 __compound_literal.224
C:\Users\DJESSOU\AppData\Local\Temp\ccruImXQ.s:8380   .data.__compound_literal.225:00000000 __compound_literal.225
C:\Users\DJESSOU\AppData\Local\Temp\ccruImXQ.s:8374   .data.__compound_literal.226:00000000 __compound_literal.226
C:\Users\DJESSOU\AppData\Local\Temp\ccruImXQ.s:8368   .data.__compound_literal.227:00000000 __compound_literal.227
C:\Users\DJESSOU\AppData\Local\Temp\ccruImXQ.s:8359   .data.__compound_literal.228:00000000 __compound_literal.228
C:\Users\DJESSOU\AppData\Local\Temp\ccruImXQ.s:8353   .data.__compound_literal.229:00000000 __compound_literal.229
C:\Users\DJESSOU\AppData\Local\Temp\ccruImXQ.s:8347   .data.__compound_literal.230:00000000 __compound_literal.230
C:\Users\DJESSOU\AppData\Local\Temp\ccruImXQ.s:8338   .data.__compound_literal.231:00000000 __compound_literal.231
C:\Users\DJESSOU\AppData\Local\Temp\ccruImXQ.s:8329   .data.__compound_literal.232:00000000 __compound_literal.232
C:\Users\DJESSOU\AppData\Local\Temp\ccruImXQ.s:8323   .data.__compound_literal.233:00000000 __compound_literal.233
C:\Users\DJESSOU\AppData\Local\Temp\ccruImXQ.s:8317   .data.__compound_literal.234:00000000 __compound_literal.234
C:\Users\DJESSOU\AppData\Local\Temp\ccruImXQ.s:8307   .data.__compound_literal.235:00000000 __compound_literal.235
C:\Users\DJESSOU\AppData\Local\Temp\ccruImXQ.s:8298   .data.__compound_literal.236:00000000 __compound_literal.236
C:\Users\DJESSOU\AppData\Local\Temp\ccruImXQ.s:8292   .data.__compound_literal.237:00000000 __compound_literal.237
C:\Users\DJESSOU\AppData\Local\Temp\ccruImXQ.s:8286   .data.__compound_literal.238:00000000 __compound_literal.238
C:\Users\DJESSOU\AppData\Local\Temp\ccruImXQ.s:8277   .data.__compound_literal.239:00000000 __compound_literal.239
C:\Users\DJESSOU\AppData\Local\Temp\ccruImXQ.s:8271   .data.__compound_literal.240:00000000 __compound_literal.240
C:\Users\DJESSOU\AppData\Local\Temp\ccruImXQ.s:8265   .data.__compound_literal.241:00000000 __compound_literal.241
C:\Users\DJESSOU\AppData\Local\Temp\ccruImXQ.s:8256   .data.__compound_literal.242:00000000 __compound_literal.242
C:\Users\DJESSOU\AppData\Local\Temp\ccruImXQ.s:8250   .data.__compound_literal.243:00000000 __compound_literal.243
C:\Users\DJESSOU\AppData\Local\Temp\ccruImXQ.s:8244   .data.__compound_literal.244:00000000 __compound_literal.244
C:\Users\DJESSOU\AppData\Local\Temp\ccruImXQ.s:8235   .data.__compound_literal.245:00000000 __compound_literal.245
C:\Users\DJESSOU\AppData\Local\Temp\ccruImXQ.s:8229   .data.__compound_literal.246:00000000 __compound_literal.246
C:\Users\DJESSOU\AppData\Local\Temp\ccruImXQ.s:8223   .data.__compound_literal.247:00000000 __compound_literal.247
C:\Users\DJESSOU\AppData\Local\Temp\ccruImXQ.s:8214   .data.__compound_literal.248:00000000 __compound_literal.248
C:\Users\DJESSOU\AppData\Local\Temp\ccruImXQ.s:8205   .data.__compound_literal.249:00000000 __compound_literal.249
C:\Users\DJESSOU\AppData\Local\Temp\ccruImXQ.s:8199   .data.__compound_literal.250:00000000 __compound_literal.250
C:\Users\DJESSOU\AppData\Local\Temp\ccruImXQ.s:8193   .data.__compound_literal.251:00000000 __compound_literal.251
C:\Users\DJESSOU\AppData\Local\Temp\ccruImXQ.s:8183   .data.__compound_literal.252:00000000 __compound_literal.252
C:\Users\DJESSOU\AppData\Local\Temp\ccruImXQ.s:8174   .data.__compound_literal.253:00000000 __compound_literal.253
C:\Users\DJESSOU\AppData\Local\Temp\ccruImXQ.s:8168   .data.__compound_literal.254:00000000 __compound_literal.254
C:\Users\DJESSOU\AppData\Local\Temp\ccruImXQ.s:8162   .data.__compound_literal.255:00000000 __compound_literal.255
C:\Users\DJESSOU\AppData\Local\Temp\ccruImXQ.s:8153   .data.__compound_literal.256:00000000 __compound_literal.256
C:\Users\DJESSOU\AppData\Local\Temp\ccruImXQ.s:8147   .data.__compound_literal.257:00000000 __compound_literal.257
C:\Users\DJESSOU\AppData\Local\Temp\ccruImXQ.s:8141   .data.__compound_literal.258:00000000 __compound_literal.258
C:\Users\DJESSOU\AppData\Local\Temp\ccruImXQ.s:8132   .data.__compound_literal.259:00000000 __compound_literal.259
C:\Users\DJESSOU\AppData\Local\Temp\ccruImXQ.s:8126   .data.__compound_literal.260:00000000 __compound_literal.260
C:\Users\DJESSOU\AppData\Local\Temp\ccruImXQ.s:8120   .data.__compound_literal.261:00000000 __compound_literal.261
C:\Users\DJESSOU\AppData\Local\Temp\ccruImXQ.s:8111   .data.__compound_literal.262:00000000 __compound_literal.262
C:\Users\DJESSOU\AppData\Local\Temp\ccruImXQ.s:8105   .data.__compound_literal.263:00000000 __compound_literal.263
C:\Users\DJESSOU\AppData\Local\Temp\ccruImXQ.s:8099   .data.__compound_literal.264:00000000 __compound_literal.264
C:\Users\DJESSOU\AppData\Local\Temp\ccruImXQ.s:8090   .data.__compound_literal.265:00000000 __compound_literal.265
C:\Users\DJESSOU\AppData\Local\Temp\ccruImXQ.s:8081   .data.__compound_literal.266:00000000 __compound_literal.266
C:\Users\DJESSOU\AppData\Local\Temp\ccruImXQ.s:8075   .data.__compound_literal.267:00000000 __compound_literal.267
C:\Users\DJESSOU\AppData\Local\Temp\ccruImXQ.s:8069   .data.__compound_literal.268:00000000 __compound_literal.268
C:\Users\DJESSOU\AppData\Local\Temp\ccruImXQ.s:8059   .data.__compound_literal.269:00000000 __compound_literal.269
C:\Users\DJESSOU\AppData\Local\Temp\ccruImXQ.s:8050   .data.__compound_literal.270:00000000 __compound_literal.270
ARM GAS  C:\Users\DJESSOU\AppData\Local\Temp\ccruImXQ.s 			page 208


C:\Users\DJESSOU\AppData\Local\Temp\ccruImXQ.s:8044   .data.__compound_literal.271:00000000 __compound_literal.271
C:\Users\DJESSOU\AppData\Local\Temp\ccruImXQ.s:8038   .data.__compound_literal.272:00000000 __compound_literal.272
C:\Users\DJESSOU\AppData\Local\Temp\ccruImXQ.s:8029   .data.__compound_literal.273:00000000 __compound_literal.273
C:\Users\DJESSOU\AppData\Local\Temp\ccruImXQ.s:8023   .data.__compound_literal.274:00000000 __compound_literal.274
C:\Users\DJESSOU\AppData\Local\Temp\ccruImXQ.s:8017   .data.__compound_literal.275:00000000 __compound_literal.275
C:\Users\DJESSOU\AppData\Local\Temp\ccruImXQ.s:8008   .data.__compound_literal.276:00000000 __compound_literal.276
C:\Users\DJESSOU\AppData\Local\Temp\ccruImXQ.s:8002   .data.__compound_literal.277:00000000 __compound_literal.277
C:\Users\DJESSOU\AppData\Local\Temp\ccruImXQ.s:7996   .data.__compound_literal.278:00000000 __compound_literal.278
C:\Users\DJESSOU\AppData\Local\Temp\ccruImXQ.s:7987   .data.__compound_literal.279:00000000 __compound_literal.279
C:\Users\DJESSOU\AppData\Local\Temp\ccruImXQ.s:7978   .data.__compound_literal.280:00000000 __compound_literal.280
C:\Users\DJESSOU\AppData\Local\Temp\ccruImXQ.s:7972   .data.__compound_literal.281:00000000 __compound_literal.281
C:\Users\DJESSOU\AppData\Local\Temp\ccruImXQ.s:7966   .data.__compound_literal.282:00000000 __compound_literal.282
C:\Users\DJESSOU\AppData\Local\Temp\ccruImXQ.s:7957   .data.__compound_literal.283:00000000 __compound_literal.283
C:\Users\DJESSOU\AppData\Local\Temp\ccruImXQ.s:7951   .data.__compound_literal.284:00000000 __compound_literal.284
C:\Users\DJESSOU\AppData\Local\Temp\ccruImXQ.s:7945   .data.__compound_literal.285:00000000 __compound_literal.285
C:\Users\DJESSOU\AppData\Local\Temp\ccruImXQ.s:7936   .data.__compound_literal.286:00000000 __compound_literal.286
C:\Users\DJESSOU\AppData\Local\Temp\ccruImXQ.s:7930   .data.__compound_literal.287:00000000 __compound_literal.287
C:\Users\DJESSOU\AppData\Local\Temp\ccruImXQ.s:7924   .data.__compound_literal.288:00000000 __compound_literal.288
C:\Users\DJESSOU\AppData\Local\Temp\ccruImXQ.s:7915   .data.__compound_literal.289:00000000 __compound_literal.289
C:\Users\DJESSOU\AppData\Local\Temp\ccruImXQ.s:7909   .data.__compound_literal.290:00000000 __compound_literal.290
C:\Users\DJESSOU\AppData\Local\Temp\ccruImXQ.s:7903   .data.__compound_literal.291:00000000 __compound_literal.291
C:\Users\DJESSOU\AppData\Local\Temp\ccruImXQ.s:7894   .data.__compound_literal.292:00000000 __compound_literal.292
C:\Users\DJESSOU\AppData\Local\Temp\ccruImXQ.s:7885   .data.__compound_literal.293:00000000 __compound_literal.293
C:\Users\DJESSOU\AppData\Local\Temp\ccruImXQ.s:7879   .data.__compound_literal.294:00000000 __compound_literal.294
C:\Users\DJESSOU\AppData\Local\Temp\ccruImXQ.s:7873   .bss.__compound_literal.295:00000000 __compound_literal.295
C:\Users\DJESSOU\AppData\Local\Temp\ccruImXQ.s:7864   .data.__compound_literal.296:00000000 __compound_literal.296
C:\Users\DJESSOU\AppData\Local\Temp\ccruImXQ.s:7858   .data.__compound_literal.297:00000000 __compound_literal.297
C:\Users\DJESSOU\AppData\Local\Temp\ccruImXQ.s:7852   .data.__compound_literal.298:00000000 __compound_literal.298
C:\Users\DJESSOU\AppData\Local\Temp\ccruImXQ.s:7843   .data.__compound_literal.299:00000000 __compound_literal.299
C:\Users\DJESSOU\AppData\Local\Temp\ccruImXQ.s:7837   .data.__compound_literal.300:00000000 __compound_literal.300
C:\Users\DJESSOU\AppData\Local\Temp\ccruImXQ.s:7831   .data.__compound_literal.301:00000000 __compound_literal.301
C:\Users\DJESSOU\AppData\Local\Temp\ccruImXQ.s:7822   .data.__compound_literal.302:00000000 __compound_literal.302
C:\Users\DJESSOU\AppData\Local\Temp\ccruImXQ.s:7816   .data.__compound_literal.303:00000000 __compound_literal.303
C:\Users\DJESSOU\AppData\Local\Temp\ccruImXQ.s:7810   .data.__compound_literal.304:00000000 __compound_literal.304
C:\Users\DJESSOU\AppData\Local\Temp\ccruImXQ.s:7801   .data.__compound_literal.305:00000000 __compound_literal.305
C:\Users\DJESSOU\AppData\Local\Temp\ccruImXQ.s:7795   .data.__compound_literal.306:00000000 __compound_literal.306
C:\Users\DJESSOU\AppData\Local\Temp\ccruImXQ.s:7789   .data.__compound_literal.307:00000000 __compound_literal.307
C:\Users\DJESSOU\AppData\Local\Temp\ccruImXQ.s:7780   .data.__compound_literal.308:00000000 __compound_literal.308
C:\Users\DJESSOU\AppData\Local\Temp\ccruImXQ.s:7771   .data.__compound_literal.309:00000000 __compound_literal.309
C:\Users\DJESSOU\AppData\Local\Temp\ccruImXQ.s:7765   .data.__compound_literal.310:00000000 __compound_literal.310
C:\Users\DJESSOU\AppData\Local\Temp\ccruImXQ.s:7759   .data.__compound_literal.311:00000000 __compound_literal.311
C:\Users\DJESSOU\AppData\Local\Temp\ccruImXQ.s:7749   .data.__compound_literal.312:00000000 __compound_literal.312
C:\Users\DJESSOU\AppData\Local\Temp\ccruImXQ.s:7740   .data.__compound_literal.313:00000000 __compound_literal.313
C:\Users\DJESSOU\AppData\Local\Temp\ccruImXQ.s:7734   .data.__compound_literal.314:00000000 __compound_literal.314
C:\Users\DJESSOU\AppData\Local\Temp\ccruImXQ.s:7728   .data.__compound_literal.315:00000000 __compound_literal.315
C:\Users\DJESSOU\AppData\Local\Temp\ccruImXQ.s:7719   .data.__compound_literal.316:00000000 __compound_literal.316
C:\Users\DJESSOU\AppData\Local\Temp\ccruImXQ.s:7713   .data.__compound_literal.317:00000000 __compound_literal.317
C:\Users\DJESSOU\AppData\Local\Temp\ccruImXQ.s:7707   .data.__compound_literal.318:00000000 __compound_literal.318
C:\Users\DJESSOU\AppData\Local\Temp\ccruImXQ.s:7698   .data.__compound_literal.319:00000000 __compound_literal.319
C:\Users\DJESSOU\AppData\Local\Temp\ccruImXQ.s:7692   .data.__compound_literal.320:00000000 __compound_literal.320
C:\Users\DJESSOU\AppData\Local\Temp\ccruImXQ.s:7686   .data.__compound_literal.321:00000000 __compound_literal.321
C:\Users\DJESSOU\AppData\Local\Temp\ccruImXQ.s:7677   .data.__compound_literal.322:00000000 __compound_literal.322
C:\Users\DJESSOU\AppData\Local\Temp\ccruImXQ.s:7671   .data.__compound_literal.323:00000000 __compound_literal.323
C:\Users\DJESSOU\AppData\Local\Temp\ccruImXQ.s:7665   .data.__compound_literal.324:00000000 __compound_literal.324
C:\Users\DJESSOU\AppData\Local\Temp\ccruImXQ.s:7656   .data.__compound_literal.325:00000000 __compound_literal.325
C:\Users\DJESSOU\AppData\Local\Temp\ccruImXQ.s:7647   .data.__compound_literal.326:00000000 __compound_literal.326
C:\Users\DJESSOU\AppData\Local\Temp\ccruImXQ.s:7641   .data.__compound_literal.327:00000000 __compound_literal.327
ARM GAS  C:\Users\DJESSOU\AppData\Local\Temp\ccruImXQ.s 			page 209


C:\Users\DJESSOU\AppData\Local\Temp\ccruImXQ.s:7635   .data.__compound_literal.328:00000000 __compound_literal.328
C:\Users\DJESSOU\AppData\Local\Temp\ccruImXQ.s:7625   .data.__compound_literal.329:00000000 __compound_literal.329
C:\Users\DJESSOU\AppData\Local\Temp\ccruImXQ.s:7616   .data.__compound_literal.330:00000000 __compound_literal.330
C:\Users\DJESSOU\AppData\Local\Temp\ccruImXQ.s:7610   .data.__compound_literal.331:00000000 __compound_literal.331
C:\Users\DJESSOU\AppData\Local\Temp\ccruImXQ.s:7604   .data.__compound_literal.332:00000000 __compound_literal.332
C:\Users\DJESSOU\AppData\Local\Temp\ccruImXQ.s:7595   .data.__compound_literal.333:00000000 __compound_literal.333
C:\Users\DJESSOU\AppData\Local\Temp\ccruImXQ.s:7589   .data.__compound_literal.334:00000000 __compound_literal.334
C:\Users\DJESSOU\AppData\Local\Temp\ccruImXQ.s:7583   .data.__compound_literal.335:00000000 __compound_literal.335
C:\Users\DJESSOU\AppData\Local\Temp\ccruImXQ.s:7574   .data.__compound_literal.336:00000000 __compound_literal.336
C:\Users\DJESSOU\AppData\Local\Temp\ccruImXQ.s:7568   .data.__compound_literal.337:00000000 __compound_literal.337
C:\Users\DJESSOU\AppData\Local\Temp\ccruImXQ.s:7562   .data.__compound_literal.338:00000000 __compound_literal.338
C:\Users\DJESSOU\AppData\Local\Temp\ccruImXQ.s:7553   .data.__compound_literal.339:00000000 __compound_literal.339
C:\Users\DJESSOU\AppData\Local\Temp\ccruImXQ.s:7547   .data.__compound_literal.340:00000000 __compound_literal.340
C:\Users\DJESSOU\AppData\Local\Temp\ccruImXQ.s:7541   .data.__compound_literal.341:00000000 __compound_literal.341
C:\Users\DJESSOU\AppData\Local\Temp\ccruImXQ.s:7532   .data.__compound_literal.342:00000000 __compound_literal.342
C:\Users\DJESSOU\AppData\Local\Temp\ccruImXQ.s:7523   .data.__compound_literal.343:00000000 __compound_literal.343
C:\Users\DJESSOU\AppData\Local\Temp\ccruImXQ.s:7517   .data.__compound_literal.344:00000000 __compound_literal.344
C:\Users\DJESSOU\AppData\Local\Temp\ccruImXQ.s:7511   .data.__compound_literal.345:00000000 __compound_literal.345
C:\Users\DJESSOU\AppData\Local\Temp\ccruImXQ.s:7501   .data.__compound_literal.346:00000000 __compound_literal.346
C:\Users\DJESSOU\AppData\Local\Temp\ccruImXQ.s:7492   .data.__compound_literal.347:00000000 __compound_literal.347
C:\Users\DJESSOU\AppData\Local\Temp\ccruImXQ.s:7486   .data.__compound_literal.348:00000000 __compound_literal.348
C:\Users\DJESSOU\AppData\Local\Temp\ccruImXQ.s:7480   .data.__compound_literal.349:00000000 __compound_literal.349
C:\Users\DJESSOU\AppData\Local\Temp\ccruImXQ.s:7471   .data.__compound_literal.350:00000000 __compound_literal.350
C:\Users\DJESSOU\AppData\Local\Temp\ccruImXQ.s:7465   .data.__compound_literal.351:00000000 __compound_literal.351
C:\Users\DJESSOU\AppData\Local\Temp\ccruImXQ.s:7459   .data.__compound_literal.352:00000000 __compound_literal.352
C:\Users\DJESSOU\AppData\Local\Temp\ccruImXQ.s:7450   .data.__compound_literal.353:00000000 __compound_literal.353
C:\Users\DJESSOU\AppData\Local\Temp\ccruImXQ.s:7444   .data.__compound_literal.354:00000000 __compound_literal.354
C:\Users\DJESSOU\AppData\Local\Temp\ccruImXQ.s:7438   .data.__compound_literal.355:00000000 __compound_literal.355
C:\Users\DJESSOU\AppData\Local\Temp\ccruImXQ.s:7429   .data.__compound_literal.356:00000000 __compound_literal.356
C:\Users\DJESSOU\AppData\Local\Temp\ccruImXQ.s:7423   .data.__compound_literal.357:00000000 __compound_literal.357
C:\Users\DJESSOU\AppData\Local\Temp\ccruImXQ.s:7417   .data.__compound_literal.358:00000000 __compound_literal.358
C:\Users\DJESSOU\AppData\Local\Temp\ccruImXQ.s:7408   .data.__compound_literal.359:00000000 __compound_literal.359
C:\Users\DJESSOU\AppData\Local\Temp\ccruImXQ.s:7399   .data.__compound_literal.360:00000000 __compound_literal.360
C:\Users\DJESSOU\AppData\Local\Temp\ccruImXQ.s:7393   .data.__compound_literal.361:00000000 __compound_literal.361
C:\Users\DJESSOU\AppData\Local\Temp\ccruImXQ.s:7387   .data.__compound_literal.362:00000000 __compound_literal.362
C:\Users\DJESSOU\AppData\Local\Temp\ccruImXQ.s:7377   .data.__compound_literal.363:00000000 __compound_literal.363
C:\Users\DJESSOU\AppData\Local\Temp\ccruImXQ.s:7368   .data.__compound_literal.364:00000000 __compound_literal.364
C:\Users\DJESSOU\AppData\Local\Temp\ccruImXQ.s:7362   .data.__compound_literal.365:00000000 __compound_literal.365
C:\Users\DJESSOU\AppData\Local\Temp\ccruImXQ.s:7356   .data.__compound_literal.366:00000000 __compound_literal.366
C:\Users\DJESSOU\AppData\Local\Temp\ccruImXQ.s:7347   .data.__compound_literal.367:00000000 __compound_literal.367
C:\Users\DJESSOU\AppData\Local\Temp\ccruImXQ.s:7341   .data.__compound_literal.368:00000000 __compound_literal.368
C:\Users\DJESSOU\AppData\Local\Temp\ccruImXQ.s:7335   .data.__compound_literal.369:00000000 __compound_literal.369
C:\Users\DJESSOU\AppData\Local\Temp\ccruImXQ.s:7326   .data.__compound_literal.370:00000000 __compound_literal.370
C:\Users\DJESSOU\AppData\Local\Temp\ccruImXQ.s:7320   .data.__compound_literal.371:00000000 __compound_literal.371
C:\Users\DJESSOU\AppData\Local\Temp\ccruImXQ.s:7314   .data.__compound_literal.372:00000000 __compound_literal.372
C:\Users\DJESSOU\AppData\Local\Temp\ccruImXQ.s:7305   .data.__compound_literal.373:00000000 __compound_literal.373
C:\Users\DJESSOU\AppData\Local\Temp\ccruImXQ.s:7299   .data.__compound_literal.374:00000000 __compound_literal.374
C:\Users\DJESSOU\AppData\Local\Temp\ccruImXQ.s:7293   .bss.__compound_literal.375:00000000 __compound_literal.375
C:\Users\DJESSOU\AppData\Local\Temp\ccruImXQ.s:7284   .data.__compound_literal.376:00000000 __compound_literal.376
C:\Users\DJESSOU\AppData\Local\Temp\ccruImXQ.s:7278   .data.__compound_literal.377:00000000 __compound_literal.377
C:\Users\DJESSOU\AppData\Local\Temp\ccruImXQ.s:7272   .bss.__compound_literal.378:00000000 __compound_literal.378
C:\Users\DJESSOU\AppData\Local\Temp\ccruImXQ.s:7263   .data.__compound_literal.379:00000000 __compound_literal.379
C:\Users\DJESSOU\AppData\Local\Temp\ccruImXQ.s:7254   .data.__compound_literal.380:00000000 __compound_literal.380
C:\Users\DJESSOU\AppData\Local\Temp\ccruImXQ.s:7248   .data.__compound_literal.381:00000000 __compound_literal.381
C:\Users\DJESSOU\AppData\Local\Temp\ccruImXQ.s:7242   .data.__compound_literal.382:00000000 __compound_literal.382
C:\Users\DJESSOU\AppData\Local\Temp\ccruImXQ.s:7232   .data.__compound_literal.383:00000000 __compound_literal.383
C:\Users\DJESSOU\AppData\Local\Temp\ccruImXQ.s:7223   .data.__compound_literal.384:00000000 __compound_literal.384
ARM GAS  C:\Users\DJESSOU\AppData\Local\Temp\ccruImXQ.s 			page 210


C:\Users\DJESSOU\AppData\Local\Temp\ccruImXQ.s:7217   .data.__compound_literal.385:00000000 __compound_literal.385
C:\Users\DJESSOU\AppData\Local\Temp\ccruImXQ.s:7211   .data.__compound_literal.386:00000000 __compound_literal.386
C:\Users\DJESSOU\AppData\Local\Temp\ccruImXQ.s:7202   .data.__compound_literal.387:00000000 __compound_literal.387
C:\Users\DJESSOU\AppData\Local\Temp\ccruImXQ.s:7196   .data.__compound_literal.388:00000000 __compound_literal.388
C:\Users\DJESSOU\AppData\Local\Temp\ccruImXQ.s:7190   .data.__compound_literal.389:00000000 __compound_literal.389
C:\Users\DJESSOU\AppData\Local\Temp\ccruImXQ.s:7181   .data.__compound_literal.390:00000000 __compound_literal.390
C:\Users\DJESSOU\AppData\Local\Temp\ccruImXQ.s:7175   .data.__compound_literal.391:00000000 __compound_literal.391
C:\Users\DJESSOU\AppData\Local\Temp\ccruImXQ.s:7169   .data.__compound_literal.392:00000000 __compound_literal.392
C:\Users\DJESSOU\AppData\Local\Temp\ccruImXQ.s:7160   .data.__compound_literal.393:00000000 __compound_literal.393
C:\Users\DJESSOU\AppData\Local\Temp\ccruImXQ.s:7154   .data.__compound_literal.394:00000000 __compound_literal.394
C:\Users\DJESSOU\AppData\Local\Temp\ccruImXQ.s:7148   .data.__compound_literal.395:00000000 __compound_literal.395
C:\Users\DJESSOU\AppData\Local\Temp\ccruImXQ.s:7139   .data.__compound_literal.396:00000000 __compound_literal.396
C:\Users\DJESSOU\AppData\Local\Temp\ccruImXQ.s:7130   .data.__compound_literal.397:00000000 __compound_literal.397
C:\Users\DJESSOU\AppData\Local\Temp\ccruImXQ.s:7124   .data.__compound_literal.398:00000000 __compound_literal.398
C:\Users\DJESSOU\AppData\Local\Temp\ccruImXQ.s:7118   .data.__compound_literal.399:00000000 __compound_literal.399
C:\Users\DJESSOU\AppData\Local\Temp\ccruImXQ.s:7108   .data.__compound_literal.400:00000000 __compound_literal.400
C:\Users\DJESSOU\AppData\Local\Temp\ccruImXQ.s:7099   .data.__compound_literal.401:00000000 __compound_literal.401
C:\Users\DJESSOU\AppData\Local\Temp\ccruImXQ.s:7093   .data.__compound_literal.402:00000000 __compound_literal.402
C:\Users\DJESSOU\AppData\Local\Temp\ccruImXQ.s:7087   .data.__compound_literal.403:00000000 __compound_literal.403
C:\Users\DJESSOU\AppData\Local\Temp\ccruImXQ.s:7078   .data.__compound_literal.404:00000000 __compound_literal.404
C:\Users\DJESSOU\AppData\Local\Temp\ccruImXQ.s:7072   .data.__compound_literal.405:00000000 __compound_literal.405
C:\Users\DJESSOU\AppData\Local\Temp\ccruImXQ.s:7066   .data.__compound_literal.406:00000000 __compound_literal.406
C:\Users\DJESSOU\AppData\Local\Temp\ccruImXQ.s:7057   .data.__compound_literal.407:00000000 __compound_literal.407
C:\Users\DJESSOU\AppData\Local\Temp\ccruImXQ.s:7051   .data.__compound_literal.408:00000000 __compound_literal.408
C:\Users\DJESSOU\AppData\Local\Temp\ccruImXQ.s:7045   .data.__compound_literal.409:00000000 __compound_literal.409
C:\Users\DJESSOU\AppData\Local\Temp\ccruImXQ.s:7036   .data.__compound_literal.410:00000000 __compound_literal.410
C:\Users\DJESSOU\AppData\Local\Temp\ccruImXQ.s:7030   .data.__compound_literal.411:00000000 __compound_literal.411
C:\Users\DJESSOU\AppData\Local\Temp\ccruImXQ.s:7024   .data.__compound_literal.412:00000000 __compound_literal.412
C:\Users\DJESSOU\AppData\Local\Temp\ccruImXQ.s:7015   .data.__compound_literal.413:00000000 __compound_literal.413
C:\Users\DJESSOU\AppData\Local\Temp\ccruImXQ.s:7006   .data.__compound_literal.414:00000000 __compound_literal.414
C:\Users\DJESSOU\AppData\Local\Temp\ccruImXQ.s:7000   .data.__compound_literal.415:00000000 __compound_literal.415
C:\Users\DJESSOU\AppData\Local\Temp\ccruImXQ.s:6994   .data.__compound_literal.416:00000000 __compound_literal.416
C:\Users\DJESSOU\AppData\Local\Temp\ccruImXQ.s:6984   .data.__compound_literal.417:00000000 __compound_literal.417
C:\Users\DJESSOU\AppData\Local\Temp\ccruImXQ.s:6975   .data.__compound_literal.418:00000000 __compound_literal.418
C:\Users\DJESSOU\AppData\Local\Temp\ccruImXQ.s:6969   .data.__compound_literal.419:00000000 __compound_literal.419
C:\Users\DJESSOU\AppData\Local\Temp\ccruImXQ.s:6963   .data.__compound_literal.420:00000000 __compound_literal.420
C:\Users\DJESSOU\AppData\Local\Temp\ccruImXQ.s:6954   .data.__compound_literal.421:00000000 __compound_literal.421
C:\Users\DJESSOU\AppData\Local\Temp\ccruImXQ.s:6948   .data.__compound_literal.422:00000000 __compound_literal.422
C:\Users\DJESSOU\AppData\Local\Temp\ccruImXQ.s:6942   .data.__compound_literal.423:00000000 __compound_literal.423
C:\Users\DJESSOU\AppData\Local\Temp\ccruImXQ.s:6933   .data.__compound_literal.424:00000000 __compound_literal.424
C:\Users\DJESSOU\AppData\Local\Temp\ccruImXQ.s:6927   .data.__compound_literal.425:00000000 __compound_literal.425
C:\Users\DJESSOU\AppData\Local\Temp\ccruImXQ.s:6921   .data.__compound_literal.426:00000000 __compound_literal.426
C:\Users\DJESSOU\AppData\Local\Temp\ccruImXQ.s:6912   .data.__compound_literal.427:00000000 __compound_literal.427
C:\Users\DJESSOU\AppData\Local\Temp\ccruImXQ.s:6906   .data.__compound_literal.428:00000000 __compound_literal.428
C:\Users\DJESSOU\AppData\Local\Temp\ccruImXQ.s:6900   .data.__compound_literal.429:00000000 __compound_literal.429
C:\Users\DJESSOU\AppData\Local\Temp\ccruImXQ.s:6891   .data.__compound_literal.430:00000000 __compound_literal.430
C:\Users\DJESSOU\AppData\Local\Temp\ccruImXQ.s:6882   .data.__compound_literal.431:00000000 __compound_literal.431
C:\Users\DJESSOU\AppData\Local\Temp\ccruImXQ.s:6876   .data.__compound_literal.432:00000000 __compound_literal.432
C:\Users\DJESSOU\AppData\Local\Temp\ccruImXQ.s:6870   .data.__compound_literal.433:00000000 __compound_literal.433
C:\Users\DJESSOU\AppData\Local\Temp\ccruImXQ.s:6860   .data.__compound_literal.434:00000000 __compound_literal.434
C:\Users\DJESSOU\AppData\Local\Temp\ccruImXQ.s:6851   .data.__compound_literal.435:00000000 __compound_literal.435
C:\Users\DJESSOU\AppData\Local\Temp\ccruImXQ.s:6845   .data.__compound_literal.436:00000000 __compound_literal.436
C:\Users\DJESSOU\AppData\Local\Temp\ccruImXQ.s:6839   .data.__compound_literal.437:00000000 __compound_literal.437
C:\Users\DJESSOU\AppData\Local\Temp\ccruImXQ.s:6830   .data.__compound_literal.438:00000000 __compound_literal.438
C:\Users\DJESSOU\AppData\Local\Temp\ccruImXQ.s:6824   .data.__compound_literal.439:00000000 __compound_literal.439
C:\Users\DJESSOU\AppData\Local\Temp\ccruImXQ.s:6818   .data.__compound_literal.440:00000000 __compound_literal.440
C:\Users\DJESSOU\AppData\Local\Temp\ccruImXQ.s:6809   .data.__compound_literal.441:00000000 __compound_literal.441
ARM GAS  C:\Users\DJESSOU\AppData\Local\Temp\ccruImXQ.s 			page 211


C:\Users\DJESSOU\AppData\Local\Temp\ccruImXQ.s:6803   .data.__compound_literal.442:00000000 __compound_literal.442
C:\Users\DJESSOU\AppData\Local\Temp\ccruImXQ.s:6797   .data.__compound_literal.443:00000000 __compound_literal.443
C:\Users\DJESSOU\AppData\Local\Temp\ccruImXQ.s:6788   .data.__compound_literal.444:00000000 __compound_literal.444
C:\Users\DJESSOU\AppData\Local\Temp\ccruImXQ.s:6782   .data.__compound_literal.445:00000000 __compound_literal.445
C:\Users\DJESSOU\AppData\Local\Temp\ccruImXQ.s:6776   .data.__compound_literal.446:00000000 __compound_literal.446
C:\Users\DJESSOU\AppData\Local\Temp\ccruImXQ.s:6767   .data.__compound_literal.447:00000000 __compound_literal.447
C:\Users\DJESSOU\AppData\Local\Temp\ccruImXQ.s:6761   .data.__compound_literal.448:00000000 __compound_literal.448
C:\Users\DJESSOU\AppData\Local\Temp\ccruImXQ.s:6755   .data.__compound_literal.449:00000000 __compound_literal.449
C:\Users\DJESSOU\AppData\Local\Temp\ccruImXQ.s:6745   .data.__compound_literal.450:00000000 __compound_literal.450
C:\Users\DJESSOU\AppData\Local\Temp\ccruImXQ.s:6735   .data.__compound_literal.451:00000000 __compound_literal.451
C:\Users\DJESSOU\AppData\Local\Temp\ccruImXQ.s:6729   .data.__compound_literal.452:00000000 __compound_literal.452
C:\Users\DJESSOU\AppData\Local\Temp\ccruImXQ.s:6723   .data.__compound_literal.453:00000000 __compound_literal.453
C:\Users\DJESSOU\AppData\Local\Temp\ccruImXQ.s:6713   .data.__compound_literal.454:00000000 __compound_literal.454
C:\Users\DJESSOU\AppData\Local\Temp\ccruImXQ.s:6707   .data.__compound_literal.455:00000000 __compound_literal.455
C:\Users\DJESSOU\AppData\Local\Temp\ccruImXQ.s:6701   .data.__compound_literal.456:00000000 __compound_literal.456
C:\Users\DJESSOU\AppData\Local\Temp\ccruImXQ.s:6692   .data.__compound_literal.457:00000000 __compound_literal.457
C:\Users\DJESSOU\AppData\Local\Temp\ccruImXQ.s:6686   .data.__compound_literal.458:00000000 __compound_literal.458
C:\Users\DJESSOU\AppData\Local\Temp\ccruImXQ.s:6680   .data.__compound_literal.459:00000000 __compound_literal.459
C:\Users\DJESSOU\AppData\Local\Temp\ccruImXQ.s:6671   .data.__compound_literal.460:00000000 __compound_literal.460
C:\Users\DJESSOU\AppData\Local\Temp\ccruImXQ.s:6665   .data.__compound_literal.461:00000000 __compound_literal.461
C:\Users\DJESSOU\AppData\Local\Temp\ccruImXQ.s:6659   .data.__compound_literal.462:00000000 __compound_literal.462
C:\Users\DJESSOU\AppData\Local\Temp\ccruImXQ.s:6650   .data.__compound_literal.463:00000000 __compound_literal.463
C:\Users\DJESSOU\AppData\Local\Temp\ccruImXQ.s:6641   .data.__compound_literal.464:00000000 __compound_literal.464
C:\Users\DJESSOU\AppData\Local\Temp\ccruImXQ.s:6635   .data.__compound_literal.465:00000000 __compound_literal.465
C:\Users\DJESSOU\AppData\Local\Temp\ccruImXQ.s:6629   .data.__compound_literal.466:00000000 __compound_literal.466
C:\Users\DJESSOU\AppData\Local\Temp\ccruImXQ.s:6619   .data.__compound_literal.467:00000000 __compound_literal.467
C:\Users\DJESSOU\AppData\Local\Temp\ccruImXQ.s:6610   .data.__compound_literal.468:00000000 __compound_literal.468
C:\Users\DJESSOU\AppData\Local\Temp\ccruImXQ.s:6604   .data.__compound_literal.469:00000000 __compound_literal.469
C:\Users\DJESSOU\AppData\Local\Temp\ccruImXQ.s:6598   .data.__compound_literal.470:00000000 __compound_literal.470
C:\Users\DJESSOU\AppData\Local\Temp\ccruImXQ.s:6589   .data.__compound_literal.471:00000000 __compound_literal.471
C:\Users\DJESSOU\AppData\Local\Temp\ccruImXQ.s:6583   .data.__compound_literal.472:00000000 __compound_literal.472
C:\Users\DJESSOU\AppData\Local\Temp\ccruImXQ.s:6577   .data.__compound_literal.473:00000000 __compound_literal.473
C:\Users\DJESSOU\AppData\Local\Temp\ccruImXQ.s:6568   .data.__compound_literal.474:00000000 __compound_literal.474
C:\Users\DJESSOU\AppData\Local\Temp\ccruImXQ.s:6562   .data.__compound_literal.475:00000000 __compound_literal.475
C:\Users\DJESSOU\AppData\Local\Temp\ccruImXQ.s:6556   .data.__compound_literal.476:00000000 __compound_literal.476
C:\Users\DJESSOU\AppData\Local\Temp\ccruImXQ.s:6547   .data.__compound_literal.477:00000000 __compound_literal.477
C:\Users\DJESSOU\AppData\Local\Temp\ccruImXQ.s:6541   .data.__compound_literal.478:00000000 __compound_literal.478
C:\Users\DJESSOU\AppData\Local\Temp\ccruImXQ.s:6535   .data.__compound_literal.479:00000000 __compound_literal.479
C:\Users\DJESSOU\AppData\Local\Temp\ccruImXQ.s:6526   .data.__compound_literal.480:00000000 __compound_literal.480
C:\Users\DJESSOU\AppData\Local\Temp\ccruImXQ.s:6517   .data.__compound_literal.481:00000000 __compound_literal.481
C:\Users\DJESSOU\AppData\Local\Temp\ccruImXQ.s:6511   .data.__compound_literal.482:00000000 __compound_literal.482
C:\Users\DJESSOU\AppData\Local\Temp\ccruImXQ.s:6505   .data.__compound_literal.483:00000000 __compound_literal.483
C:\Users\DJESSOU\AppData\Local\Temp\ccruImXQ.s:6495   .data.__compound_literal.484:00000000 __compound_literal.484
C:\Users\DJESSOU\AppData\Local\Temp\ccruImXQ.s:6486   .data.__compound_literal.485:00000000 __compound_literal.485
C:\Users\DJESSOU\AppData\Local\Temp\ccruImXQ.s:6480   .data.__compound_literal.486:00000000 __compound_literal.486
C:\Users\DJESSOU\AppData\Local\Temp\ccruImXQ.s:6474   .data.__compound_literal.487:00000000 __compound_literal.487
C:\Users\DJESSOU\AppData\Local\Temp\ccruImXQ.s:6465   .data.__compound_literal.488:00000000 __compound_literal.488
C:\Users\DJESSOU\AppData\Local\Temp\ccruImXQ.s:6459   .data.__compound_literal.489:00000000 __compound_literal.489
C:\Users\DJESSOU\AppData\Local\Temp\ccruImXQ.s:6453   .data.__compound_literal.490:00000000 __compound_literal.490
C:\Users\DJESSOU\AppData\Local\Temp\ccruImXQ.s:6444   .data.__compound_literal.491:00000000 __compound_literal.491
C:\Users\DJESSOU\AppData\Local\Temp\ccruImXQ.s:6438   .data.__compound_literal.492:00000000 __compound_literal.492
C:\Users\DJESSOU\AppData\Local\Temp\ccruImXQ.s:6432   .data.__compound_literal.493:00000000 __compound_literal.493
C:\Users\DJESSOU\AppData\Local\Temp\ccruImXQ.s:6423   .data.__compound_literal.494:00000000 __compound_literal.494
C:\Users\DJESSOU\AppData\Local\Temp\ccruImXQ.s:6417   .data.__compound_literal.495:00000000 __compound_literal.495
C:\Users\DJESSOU\AppData\Local\Temp\ccruImXQ.s:6411   .data.__compound_literal.496:00000000 __compound_literal.496
C:\Users\DJESSOU\AppData\Local\Temp\ccruImXQ.s:6402   .data.__compound_literal.497:00000000 __compound_literal.497
C:\Users\DJESSOU\AppData\Local\Temp\ccruImXQ.s:6392   .data.__compound_literal.498:00000000 __compound_literal.498
ARM GAS  C:\Users\DJESSOU\AppData\Local\Temp\ccruImXQ.s 			page 212


C:\Users\DJESSOU\AppData\Local\Temp\ccruImXQ.s:6383   .data.__compound_literal.499:00000000 __compound_literal.499
C:\Users\DJESSOU\AppData\Local\Temp\ccruImXQ.s:6377   .data.__compound_literal.500:00000000 __compound_literal.500
C:\Users\DJESSOU\AppData\Local\Temp\ccruImXQ.s:6371   .data.__compound_literal.501:00000000 __compound_literal.501
C:\Users\DJESSOU\AppData\Local\Temp\ccruImXQ.s:6362   .data.__compound_literal.502:00000000 __compound_literal.502
C:\Users\DJESSOU\AppData\Local\Temp\ccruImXQ.s:6356   .data.__compound_literal.503:00000000 __compound_literal.503
C:\Users\DJESSOU\AppData\Local\Temp\ccruImXQ.s:6350   .data.__compound_literal.504:00000000 __compound_literal.504
C:\Users\DJESSOU\AppData\Local\Temp\ccruImXQ.s:6341   .data.__compound_literal.505:00000000 __compound_literal.505
C:\Users\DJESSOU\AppData\Local\Temp\ccruImXQ.s:6335   .data.__compound_literal.506:00000000 __compound_literal.506
C:\Users\DJESSOU\AppData\Local\Temp\ccruImXQ.s:6329   .data.__compound_literal.507:00000000 __compound_literal.507
C:\Users\DJESSOU\AppData\Local\Temp\ccruImXQ.s:6320   .data.__compound_literal.508:00000000 __compound_literal.508
C:\Users\DJESSOU\AppData\Local\Temp\ccruImXQ.s:6314   .data.__compound_literal.509:00000000 __compound_literal.509
C:\Users\DJESSOU\AppData\Local\Temp\ccruImXQ.s:6308   .data.__compound_literal.510:00000000 __compound_literal.510
C:\Users\DJESSOU\AppData\Local\Temp\ccruImXQ.s:6299   .data.__compound_literal.511:00000000 __compound_literal.511
C:\Users\DJESSOU\AppData\Local\Temp\ccruImXQ.s:6293   .data.__compound_literal.512:00000000 __compound_literal.512
C:\Users\DJESSOU\AppData\Local\Temp\ccruImXQ.s:6287   .data.__compound_literal.513:00000000 __compound_literal.513
C:\Users\DJESSOU\AppData\Local\Temp\ccruImXQ.s:6279   .data.__compound_literal.514:00000000 __compound_literal.514
C:\Users\DJESSOU\AppData\Local\Temp\ccruImXQ.s:6273   .data.__compound_literal.515:00000000 __compound_literal.515
C:\Users\DJESSOU\AppData\Local\Temp\ccruImXQ.s:6267   .data.__compound_literal.516:00000000 __compound_literal.516
C:\Users\DJESSOU\AppData\Local\Temp\ccruImXQ.s:6258   .data.__compound_literal.517:00000000 __compound_literal.517
C:\Users\DJESSOU\AppData\Local\Temp\ccruImXQ.s:6252   .data.__compound_literal.518:00000000 __compound_literal.518
C:\Users\DJESSOU\AppData\Local\Temp\ccruImXQ.s:6246   .data.__compound_literal.519:00000000 __compound_literal.519
C:\Users\DJESSOU\AppData\Local\Temp\ccruImXQ.s:6236   .data.__compound_literal.520:00000000 __compound_literal.520
C:\Users\DJESSOU\AppData\Local\Temp\ccruImXQ.s:6226   .data.__compound_literal.521:00000000 __compound_literal.521
C:\Users\DJESSOU\AppData\Local\Temp\ccruImXQ.s:6220   .data.__compound_literal.522:00000000 __compound_literal.522
C:\Users\DJESSOU\AppData\Local\Temp\ccruImXQ.s:6214   .data.__compound_literal.523:00000000 __compound_literal.523
C:\Users\DJESSOU\AppData\Local\Temp\ccruImXQ.s:6204   .data.__compound_literal.524:00000000 __compound_literal.524
C:\Users\DJESSOU\AppData\Local\Temp\ccruImXQ.s:6198   .data.__compound_literal.525:00000000 __compound_literal.525
C:\Users\DJESSOU\AppData\Local\Temp\ccruImXQ.s:6192   .data.__compound_literal.526:00000000 __compound_literal.526
C:\Users\DJESSOU\AppData\Local\Temp\ccruImXQ.s:6183   .data.__compound_literal.527:00000000 __compound_literal.527
C:\Users\DJESSOU\AppData\Local\Temp\ccruImXQ.s:6177   .data.__compound_literal.528:00000000 __compound_literal.528
C:\Users\DJESSOU\AppData\Local\Temp\ccruImXQ.s:6171   .data.__compound_literal.529:00000000 __compound_literal.529
C:\Users\DJESSOU\AppData\Local\Temp\ccruImXQ.s:6162   .data.__compound_literal.530:00000000 __compound_literal.530
C:\Users\DJESSOU\AppData\Local\Temp\ccruImXQ.s:6156   .data.__compound_literal.531:00000000 __compound_literal.531
C:\Users\DJESSOU\AppData\Local\Temp\ccruImXQ.s:6150   .data.__compound_literal.532:00000000 __compound_literal.532
C:\Users\DJESSOU\AppData\Local\Temp\ccruImXQ.s:6142   .data.__compound_literal.533:00000000 __compound_literal.533
C:\Users\DJESSOU\AppData\Local\Temp\ccruImXQ.s:6136   .data.__compound_literal.534:00000000 __compound_literal.534
C:\Users\DJESSOU\AppData\Local\Temp\ccruImXQ.s:6130   .data.__compound_literal.535:00000000 __compound_literal.535
C:\Users\DJESSOU\AppData\Local\Temp\ccruImXQ.s:6121   .data.__compound_literal.536:00000000 __compound_literal.536
C:\Users\DJESSOU\AppData\Local\Temp\ccruImXQ.s:6115   .data.__compound_literal.537:00000000 __compound_literal.537
C:\Users\DJESSOU\AppData\Local\Temp\ccruImXQ.s:6109   .data.__compound_literal.538:00000000 __compound_literal.538
C:\Users\DJESSOU\AppData\Local\Temp\ccruImXQ.s:6100   .data.__compound_literal.539:00000000 __compound_literal.539
C:\Users\DJESSOU\AppData\Local\Temp\ccruImXQ.s:6094   .data.__compound_literal.540:00000000 __compound_literal.540
C:\Users\DJESSOU\AppData\Local\Temp\ccruImXQ.s:6088   .data.__compound_literal.541:00000000 __compound_literal.541
C:\Users\DJESSOU\AppData\Local\Temp\ccruImXQ.s:6079   .data.__compound_literal.542:00000000 __compound_literal.542
C:\Users\DJESSOU\AppData\Local\Temp\ccruImXQ.s:6070   .data.__compound_literal.543:00000000 __compound_literal.543
C:\Users\DJESSOU\AppData\Local\Temp\ccruImXQ.s:6064   .data.__compound_literal.544:00000000 __compound_literal.544
C:\Users\DJESSOU\AppData\Local\Temp\ccruImXQ.s:6058   .data.__compound_literal.545:00000000 __compound_literal.545
C:\Users\DJESSOU\AppData\Local\Temp\ccruImXQ.s:6048   .data.__compound_literal.546:00000000 __compound_literal.546
C:\Users\DJESSOU\AppData\Local\Temp\ccruImXQ.s:6039   .data.__compound_literal.547:00000000 __compound_literal.547
C:\Users\DJESSOU\AppData\Local\Temp\ccruImXQ.s:6033   .data.__compound_literal.548:00000000 __compound_literal.548
C:\Users\DJESSOU\AppData\Local\Temp\ccruImXQ.s:6027   .data.__compound_literal.549:00000000 __compound_literal.549
C:\Users\DJESSOU\AppData\Local\Temp\ccruImXQ.s:6018   .data.__compound_literal.550:00000000 __compound_literal.550
C:\Users\DJESSOU\AppData\Local\Temp\ccruImXQ.s:6012   .data.__compound_literal.551:00000000 __compound_literal.551
C:\Users\DJESSOU\AppData\Local\Temp\ccruImXQ.s:6006   .data.__compound_literal.552:00000000 __compound_literal.552
C:\Users\DJESSOU\AppData\Local\Temp\ccruImXQ.s:5997   .data.__compound_literal.553:00000000 __compound_literal.553
C:\Users\DJESSOU\AppData\Local\Temp\ccruImXQ.s:5991   .data.__compound_literal.554:00000000 __compound_literal.554
C:\Users\DJESSOU\AppData\Local\Temp\ccruImXQ.s:5985   .data.__compound_literal.555:00000000 __compound_literal.555
ARM GAS  C:\Users\DJESSOU\AppData\Local\Temp\ccruImXQ.s 			page 213


C:\Users\DJESSOU\AppData\Local\Temp\ccruImXQ.s:5976   .data.__compound_literal.556:00000000 __compound_literal.556
C:\Users\DJESSOU\AppData\Local\Temp\ccruImXQ.s:5970   .data.__compound_literal.557:00000000 __compound_literal.557
C:\Users\DJESSOU\AppData\Local\Temp\ccruImXQ.s:5964   .data.__compound_literal.558:00000000 __compound_literal.558
C:\Users\DJESSOU\AppData\Local\Temp\ccruImXQ.s:5955   .data.__compound_literal.559:00000000 __compound_literal.559
C:\Users\DJESSOU\AppData\Local\Temp\ccruImXQ.s:5946   .data.__compound_literal.560:00000000 __compound_literal.560
C:\Users\DJESSOU\AppData\Local\Temp\ccruImXQ.s:5940   .data.__compound_literal.561:00000000 __compound_literal.561
C:\Users\DJESSOU\AppData\Local\Temp\ccruImXQ.s:5934   .data.__compound_literal.562:00000000 __compound_literal.562
C:\Users\DJESSOU\AppData\Local\Temp\ccruImXQ.s:5924   .data.__compound_literal.563:00000000 __compound_literal.563
C:\Users\DJESSOU\AppData\Local\Temp\ccruImXQ.s:5915   .data.__compound_literal.564:00000000 __compound_literal.564
C:\Users\DJESSOU\AppData\Local\Temp\ccruImXQ.s:5909   .data.__compound_literal.565:00000000 __compound_literal.565
C:\Users\DJESSOU\AppData\Local\Temp\ccruImXQ.s:5903   .data.__compound_literal.566:00000000 __compound_literal.566
C:\Users\DJESSOU\AppData\Local\Temp\ccruImXQ.s:5894   .data.__compound_literal.567:00000000 __compound_literal.567
C:\Users\DJESSOU\AppData\Local\Temp\ccruImXQ.s:5888   .data.__compound_literal.568:00000000 __compound_literal.568
C:\Users\DJESSOU\AppData\Local\Temp\ccruImXQ.s:5882   .data.__compound_literal.569:00000000 __compound_literal.569
C:\Users\DJESSOU\AppData\Local\Temp\ccruImXQ.s:5873   .data.__compound_literal.570:00000000 __compound_literal.570
C:\Users\DJESSOU\AppData\Local\Temp\ccruImXQ.s:5867   .data.__compound_literal.571:00000000 __compound_literal.571
C:\Users\DJESSOU\AppData\Local\Temp\ccruImXQ.s:5861   .data.__compound_literal.572:00000000 __compound_literal.572
C:\Users\DJESSOU\AppData\Local\Temp\ccruImXQ.s:5852   .data.__compound_literal.573:00000000 __compound_literal.573
C:\Users\DJESSOU\AppData\Local\Temp\ccruImXQ.s:5846   .data.__compound_literal.574:00000000 __compound_literal.574
C:\Users\DJESSOU\AppData\Local\Temp\ccruImXQ.s:5840   .data.__compound_literal.575:00000000 __compound_literal.575
C:\Users\DJESSOU\AppData\Local\Temp\ccruImXQ.s:5831   .data.__compound_literal.576:00000000 __compound_literal.576
C:\Users\DJESSOU\AppData\Local\Temp\ccruImXQ.s:5821   .data.__compound_literal.577:00000000 __compound_literal.577
C:\Users\DJESSOU\AppData\Local\Temp\ccruImXQ.s:5812   .data.__compound_literal.578:00000000 __compound_literal.578
C:\Users\DJESSOU\AppData\Local\Temp\ccruImXQ.s:5806   .data.__compound_literal.579:00000000 __compound_literal.579
C:\Users\DJESSOU\AppData\Local\Temp\ccruImXQ.s:5800   .data.__compound_literal.580:00000000 __compound_literal.580
C:\Users\DJESSOU\AppData\Local\Temp\ccruImXQ.s:5791   .data.__compound_literal.581:00000000 __compound_literal.581
C:\Users\DJESSOU\AppData\Local\Temp\ccruImXQ.s:5785   .data.__compound_literal.582:00000000 __compound_literal.582
C:\Users\DJESSOU\AppData\Local\Temp\ccruImXQ.s:5779   .data.__compound_literal.583:00000000 __compound_literal.583
C:\Users\DJESSOU\AppData\Local\Temp\ccruImXQ.s:5770   .data.__compound_literal.584:00000000 __compound_literal.584
C:\Users\DJESSOU\AppData\Local\Temp\ccruImXQ.s:5764   .data.__compound_literal.585:00000000 __compound_literal.585
C:\Users\DJESSOU\AppData\Local\Temp\ccruImXQ.s:5758   .data.__compound_literal.586:00000000 __compound_literal.586
C:\Users\DJESSOU\AppData\Local\Temp\ccruImXQ.s:5749   .data.__compound_literal.587:00000000 __compound_literal.587
C:\Users\DJESSOU\AppData\Local\Temp\ccruImXQ.s:5743   .data.__compound_literal.588:00000000 __compound_literal.588
C:\Users\DJESSOU\AppData\Local\Temp\ccruImXQ.s:5737   .data.__compound_literal.589:00000000 __compound_literal.589
C:\Users\DJESSOU\AppData\Local\Temp\ccruImXQ.s:5728   .data.__compound_literal.590:00000000 __compound_literal.590
C:\Users\DJESSOU\AppData\Local\Temp\ccruImXQ.s:5722   .data.__compound_literal.591:00000000 __compound_literal.591
C:\Users\DJESSOU\AppData\Local\Temp\ccruImXQ.s:5716   .data.__compound_literal.592:00000000 __compound_literal.592
C:\Users\DJESSOU\AppData\Local\Temp\ccruImXQ.s:5708   .data.__compound_literal.593:00000000 __compound_literal.593
C:\Users\DJESSOU\AppData\Local\Temp\ccruImXQ.s:5702   .data.__compound_literal.594:00000000 __compound_literal.594
C:\Users\DJESSOU\AppData\Local\Temp\ccruImXQ.s:5696   .data.__compound_literal.595:00000000 __compound_literal.595
C:\Users\DJESSOU\AppData\Local\Temp\ccruImXQ.s:5687   .data.__compound_literal.596:00000000 __compound_literal.596
C:\Users\DJESSOU\AppData\Local\Temp\ccruImXQ.s:5681   .data.__compound_literal.597:00000000 __compound_literal.597
C:\Users\DJESSOU\AppData\Local\Temp\ccruImXQ.s:5675   .data.__compound_literal.598:00000000 __compound_literal.598
C:\Users\DJESSOU\AppData\Local\Temp\ccruImXQ.s:5666   .data.__compound_literal.599:00000000 __compound_literal.599
C:\Users\DJESSOU\AppData\Local\Temp\ccruImXQ.s:5660   .data.__compound_literal.600:00000000 __compound_literal.600
C:\Users\DJESSOU\AppData\Local\Temp\ccruImXQ.s:5654   .data.__compound_literal.601:00000000 __compound_literal.601
C:\Users\DJESSOU\AppData\Local\Temp\ccruImXQ.s:5646   .data.__compound_literal.602:00000000 __compound_literal.602
C:\Users\DJESSOU\AppData\Local\Temp\ccruImXQ.s:5640   .data.__compound_literal.603:00000000 __compound_literal.603
C:\Users\DJESSOU\AppData\Local\Temp\ccruImXQ.s:5634   .data.__compound_literal.604:00000000 __compound_literal.604
C:\Users\DJESSOU\AppData\Local\Temp\ccruImXQ.s:5626   .data.__compound_literal.605:00000000 __compound_literal.605
C:\Users\DJESSOU\AppData\Local\Temp\ccruImXQ.s:5620   .data.__compound_literal.606:00000000 __compound_literal.606
C:\Users\DJESSOU\AppData\Local\Temp\ccruImXQ.s:5614   .data.__compound_literal.607:00000000 __compound_literal.607
C:\Users\DJESSOU\AppData\Local\Temp\ccruImXQ.s:5606   .data.__compound_literal.608:00000000 __compound_literal.608
C:\Users\DJESSOU\AppData\Local\Temp\ccruImXQ.s:5600   .data.__compound_literal.609:00000000 __compound_literal.609
C:\Users\DJESSOU\AppData\Local\Temp\ccruImXQ.s:5594   .data.__compound_literal.610:00000000 __compound_literal.610
C:\Users\DJESSOU\AppData\Local\Temp\ccruImXQ.s:5586   .data.__compound_literal.611:00000000 __compound_literal.611
C:\Users\DJESSOU\AppData\Local\Temp\ccruImXQ.s:5578   .data.__compound_literal.612:00000000 __compound_literal.612
ARM GAS  C:\Users\DJESSOU\AppData\Local\Temp\ccruImXQ.s 			page 214


C:\Users\DJESSOU\AppData\Local\Temp\ccruImXQ.s:5569   .data.__compound_literal.613:00000000 __compound_literal.613
C:\Users\DJESSOU\AppData\Local\Temp\ccruImXQ.s:5560   .data.__compound_literal.614:00000000 __compound_literal.614
C:\Users\DJESSOU\AppData\Local\Temp\ccruImXQ.s:5551   .data.__compound_literal.615:00000000 __compound_literal.615
C:\Users\DJESSOU\AppData\Local\Temp\ccruImXQ.s:5548   .data.__compound_literal.615:00000000 $d
C:\Users\DJESSOU\AppData\Local\Temp\ccruImXQ.s:5557   .data.__compound_literal.614:00000000 $d
C:\Users\DJESSOU\AppData\Local\Temp\ccruImXQ.s:5566   .data.__compound_literal.613:00000000 $d
C:\Users\DJESSOU\AppData\Local\Temp\ccruImXQ.s:5575   .data.__compound_literal.612:00000000 $d
C:\Users\DJESSOU\AppData\Local\Temp\ccruImXQ.s:5583   .data.__compound_literal.611:00000000 $d
C:\Users\DJESSOU\AppData\Local\Temp\ccruImXQ.s:5591   .data.__compound_literal.610:00000000 $d
C:\Users\DJESSOU\AppData\Local\Temp\ccruImXQ.s:5597   .data.__compound_literal.609:00000000 $d
C:\Users\DJESSOU\AppData\Local\Temp\ccruImXQ.s:5603   .data.__compound_literal.608:00000000 $d
C:\Users\DJESSOU\AppData\Local\Temp\ccruImXQ.s:5611   .data.__compound_literal.607:00000000 $d
C:\Users\DJESSOU\AppData\Local\Temp\ccruImXQ.s:5617   .data.__compound_literal.606:00000000 $d
C:\Users\DJESSOU\AppData\Local\Temp\ccruImXQ.s:5623   .data.__compound_literal.605:00000000 $d
C:\Users\DJESSOU\AppData\Local\Temp\ccruImXQ.s:5631   .data.__compound_literal.604:00000000 $d
C:\Users\DJESSOU\AppData\Local\Temp\ccruImXQ.s:5637   .data.__compound_literal.603:00000000 $d
C:\Users\DJESSOU\AppData\Local\Temp\ccruImXQ.s:5643   .data.__compound_literal.602:00000000 $d
C:\Users\DJESSOU\AppData\Local\Temp\ccruImXQ.s:5651   .data.__compound_literal.601:00000000 $d
C:\Users\DJESSOU\AppData\Local\Temp\ccruImXQ.s:5657   .data.__compound_literal.600:00000000 $d
C:\Users\DJESSOU\AppData\Local\Temp\ccruImXQ.s:5663   .data.__compound_literal.599:00000000 $d
C:\Users\DJESSOU\AppData\Local\Temp\ccruImXQ.s:5672   .data.__compound_literal.598:00000000 $d
C:\Users\DJESSOU\AppData\Local\Temp\ccruImXQ.s:5678   .data.__compound_literal.597:00000000 $d
C:\Users\DJESSOU\AppData\Local\Temp\ccruImXQ.s:5684   .data.__compound_literal.596:00000000 $d
C:\Users\DJESSOU\AppData\Local\Temp\ccruImXQ.s:5693   .data.__compound_literal.595:00000000 $d
C:\Users\DJESSOU\AppData\Local\Temp\ccruImXQ.s:5699   .data.__compound_literal.594:00000000 $d
C:\Users\DJESSOU\AppData\Local\Temp\ccruImXQ.s:5705   .data.__compound_literal.593:00000000 $d
C:\Users\DJESSOU\AppData\Local\Temp\ccruImXQ.s:5713   .data.__compound_literal.592:00000000 $d
C:\Users\DJESSOU\AppData\Local\Temp\ccruImXQ.s:5719   .data.__compound_literal.591:00000000 $d
C:\Users\DJESSOU\AppData\Local\Temp\ccruImXQ.s:5725   .data.__compound_literal.590:00000000 $d
C:\Users\DJESSOU\AppData\Local\Temp\ccruImXQ.s:5734   .data.__compound_literal.589:00000000 $d
C:\Users\DJESSOU\AppData\Local\Temp\ccruImXQ.s:5740   .data.__compound_literal.588:00000000 $d
C:\Users\DJESSOU\AppData\Local\Temp\ccruImXQ.s:5746   .data.__compound_literal.587:00000000 $d
C:\Users\DJESSOU\AppData\Local\Temp\ccruImXQ.s:5755   .data.__compound_literal.586:00000000 $d
C:\Users\DJESSOU\AppData\Local\Temp\ccruImXQ.s:5761   .data.__compound_literal.585:00000000 $d
C:\Users\DJESSOU\AppData\Local\Temp\ccruImXQ.s:5767   .data.__compound_literal.584:00000000 $d
C:\Users\DJESSOU\AppData\Local\Temp\ccruImXQ.s:5776   .data.__compound_literal.583:00000000 $d
C:\Users\DJESSOU\AppData\Local\Temp\ccruImXQ.s:5782   .data.__compound_literal.582:00000000 $d
C:\Users\DJESSOU\AppData\Local\Temp\ccruImXQ.s:5788   .data.__compound_literal.581:00000000 $d
C:\Users\DJESSOU\AppData\Local\Temp\ccruImXQ.s:5797   .data.__compound_literal.580:00000000 $d
C:\Users\DJESSOU\AppData\Local\Temp\ccruImXQ.s:5803   .data.__compound_literal.579:00000000 $d
C:\Users\DJESSOU\AppData\Local\Temp\ccruImXQ.s:5809   .data.__compound_literal.578:00000000 $d
C:\Users\DJESSOU\AppData\Local\Temp\ccruImXQ.s:5818   .data.__compound_literal.577:00000000 $d
C:\Users\DJESSOU\AppData\Local\Temp\ccruImXQ.s:5828   .data.__compound_literal.576:00000000 $d
C:\Users\DJESSOU\AppData\Local\Temp\ccruImXQ.s:5837   .data.__compound_literal.575:00000000 $d
C:\Users\DJESSOU\AppData\Local\Temp\ccruImXQ.s:5843   .data.__compound_literal.574:00000000 $d
C:\Users\DJESSOU\AppData\Local\Temp\ccruImXQ.s:5849   .data.__compound_literal.573:00000000 $d
C:\Users\DJESSOU\AppData\Local\Temp\ccruImXQ.s:5858   .data.__compound_literal.572:00000000 $d
C:\Users\DJESSOU\AppData\Local\Temp\ccruImXQ.s:5864   .data.__compound_literal.571:00000000 $d
C:\Users\DJESSOU\AppData\Local\Temp\ccruImXQ.s:5870   .data.__compound_literal.570:00000000 $d
C:\Users\DJESSOU\AppData\Local\Temp\ccruImXQ.s:5879   .data.__compound_literal.569:00000000 $d
C:\Users\DJESSOU\AppData\Local\Temp\ccruImXQ.s:5885   .data.__compound_literal.568:00000000 $d
C:\Users\DJESSOU\AppData\Local\Temp\ccruImXQ.s:5891   .data.__compound_literal.567:00000000 $d
C:\Users\DJESSOU\AppData\Local\Temp\ccruImXQ.s:5900   .data.__compound_literal.566:00000000 $d
C:\Users\DJESSOU\AppData\Local\Temp\ccruImXQ.s:5906   .data.__compound_literal.565:00000000 $d
C:\Users\DJESSOU\AppData\Local\Temp\ccruImXQ.s:5912   .data.__compound_literal.564:00000000 $d
C:\Users\DJESSOU\AppData\Local\Temp\ccruImXQ.s:5921   .data.__compound_literal.563:00000000 $d
C:\Users\DJESSOU\AppData\Local\Temp\ccruImXQ.s:5931   .data.__compound_literal.562:00000000 $d
ARM GAS  C:\Users\DJESSOU\AppData\Local\Temp\ccruImXQ.s 			page 215


C:\Users\DJESSOU\AppData\Local\Temp\ccruImXQ.s:5937   .data.__compound_literal.561:00000000 $d
C:\Users\DJESSOU\AppData\Local\Temp\ccruImXQ.s:5943   .data.__compound_literal.560:00000000 $d
C:\Users\DJESSOU\AppData\Local\Temp\ccruImXQ.s:5952   .data.__compound_literal.559:00000000 $d
C:\Users\DJESSOU\AppData\Local\Temp\ccruImXQ.s:5961   .data.__compound_literal.558:00000000 $d
C:\Users\DJESSOU\AppData\Local\Temp\ccruImXQ.s:5967   .data.__compound_literal.557:00000000 $d
C:\Users\DJESSOU\AppData\Local\Temp\ccruImXQ.s:5973   .data.__compound_literal.556:00000000 $d
C:\Users\DJESSOU\AppData\Local\Temp\ccruImXQ.s:5982   .data.__compound_literal.555:00000000 $d
C:\Users\DJESSOU\AppData\Local\Temp\ccruImXQ.s:5988   .data.__compound_literal.554:00000000 $d
C:\Users\DJESSOU\AppData\Local\Temp\ccruImXQ.s:5994   .data.__compound_literal.553:00000000 $d
C:\Users\DJESSOU\AppData\Local\Temp\ccruImXQ.s:6003   .data.__compound_literal.552:00000000 $d
C:\Users\DJESSOU\AppData\Local\Temp\ccruImXQ.s:6009   .data.__compound_literal.551:00000000 $d
C:\Users\DJESSOU\AppData\Local\Temp\ccruImXQ.s:6015   .data.__compound_literal.550:00000000 $d
C:\Users\DJESSOU\AppData\Local\Temp\ccruImXQ.s:6024   .data.__compound_literal.549:00000000 $d
C:\Users\DJESSOU\AppData\Local\Temp\ccruImXQ.s:6030   .data.__compound_literal.548:00000000 $d
C:\Users\DJESSOU\AppData\Local\Temp\ccruImXQ.s:6036   .data.__compound_literal.547:00000000 $d
C:\Users\DJESSOU\AppData\Local\Temp\ccruImXQ.s:6045   .data.__compound_literal.546:00000000 $d
C:\Users\DJESSOU\AppData\Local\Temp\ccruImXQ.s:6055   .data.__compound_literal.545:00000000 $d
C:\Users\DJESSOU\AppData\Local\Temp\ccruImXQ.s:6061   .data.__compound_literal.544:00000000 $d
C:\Users\DJESSOU\AppData\Local\Temp\ccruImXQ.s:6067   .data.__compound_literal.543:00000000 $d
C:\Users\DJESSOU\AppData\Local\Temp\ccruImXQ.s:6076   .data.__compound_literal.542:00000000 $d
C:\Users\DJESSOU\AppData\Local\Temp\ccruImXQ.s:6085   .data.__compound_literal.541:00000000 $d
C:\Users\DJESSOU\AppData\Local\Temp\ccruImXQ.s:6091   .data.__compound_literal.540:00000000 $d
C:\Users\DJESSOU\AppData\Local\Temp\ccruImXQ.s:6097   .data.__compound_literal.539:00000000 $d
C:\Users\DJESSOU\AppData\Local\Temp\ccruImXQ.s:6106   .data.__compound_literal.538:00000000 $d
C:\Users\DJESSOU\AppData\Local\Temp\ccruImXQ.s:6112   .data.__compound_literal.537:00000000 $d
C:\Users\DJESSOU\AppData\Local\Temp\ccruImXQ.s:6118   .data.__compound_literal.536:00000000 $d
C:\Users\DJESSOU\AppData\Local\Temp\ccruImXQ.s:6127   .data.__compound_literal.535:00000000 $d
C:\Users\DJESSOU\AppData\Local\Temp\ccruImXQ.s:6133   .data.__compound_literal.534:00000000 $d
C:\Users\DJESSOU\AppData\Local\Temp\ccruImXQ.s:6139   .data.__compound_literal.533:00000000 $d
C:\Users\DJESSOU\AppData\Local\Temp\ccruImXQ.s:6147   .data.__compound_literal.532:00000000 $d
C:\Users\DJESSOU\AppData\Local\Temp\ccruImXQ.s:6153   .data.__compound_literal.531:00000000 $d
C:\Users\DJESSOU\AppData\Local\Temp\ccruImXQ.s:6159   .data.__compound_literal.530:00000000 $d
C:\Users\DJESSOU\AppData\Local\Temp\ccruImXQ.s:6168   .data.__compound_literal.529:00000000 $d
C:\Users\DJESSOU\AppData\Local\Temp\ccruImXQ.s:6174   .data.__compound_literal.528:00000000 $d
C:\Users\DJESSOU\AppData\Local\Temp\ccruImXQ.s:6180   .data.__compound_literal.527:00000000 $d
C:\Users\DJESSOU\AppData\Local\Temp\ccruImXQ.s:6189   .data.__compound_literal.526:00000000 $d
C:\Users\DJESSOU\AppData\Local\Temp\ccruImXQ.s:6195   .data.__compound_literal.525:00000000 $d
C:\Users\DJESSOU\AppData\Local\Temp\ccruImXQ.s:6201   .data.__compound_literal.524:00000000 $d
C:\Users\DJESSOU\AppData\Local\Temp\ccruImXQ.s:6211   .data.__compound_literal.523:00000000 $d
C:\Users\DJESSOU\AppData\Local\Temp\ccruImXQ.s:6217   .data.__compound_literal.522:00000000 $d
C:\Users\DJESSOU\AppData\Local\Temp\ccruImXQ.s:6223   .data.__compound_literal.521:00000000 $d
C:\Users\DJESSOU\AppData\Local\Temp\ccruImXQ.s:6233   .data.__compound_literal.520:00000000 $d
C:\Users\DJESSOU\AppData\Local\Temp\ccruImXQ.s:6243   .data.__compound_literal.519:00000000 $d
C:\Users\DJESSOU\AppData\Local\Temp\ccruImXQ.s:6249   .data.__compound_literal.518:00000000 $d
C:\Users\DJESSOU\AppData\Local\Temp\ccruImXQ.s:6255   .data.__compound_literal.517:00000000 $d
C:\Users\DJESSOU\AppData\Local\Temp\ccruImXQ.s:6264   .data.__compound_literal.516:00000000 $d
C:\Users\DJESSOU\AppData\Local\Temp\ccruImXQ.s:6270   .data.__compound_literal.515:00000000 $d
C:\Users\DJESSOU\AppData\Local\Temp\ccruImXQ.s:6276   .data.__compound_literal.514:00000000 $d
C:\Users\DJESSOU\AppData\Local\Temp\ccruImXQ.s:6284   .data.__compound_literal.513:00000000 $d
C:\Users\DJESSOU\AppData\Local\Temp\ccruImXQ.s:6290   .data.__compound_literal.512:00000000 $d
C:\Users\DJESSOU\AppData\Local\Temp\ccruImXQ.s:6296   .data.__compound_literal.511:00000000 $d
C:\Users\DJESSOU\AppData\Local\Temp\ccruImXQ.s:6305   .data.__compound_literal.510:00000000 $d
C:\Users\DJESSOU\AppData\Local\Temp\ccruImXQ.s:6311   .data.__compound_literal.509:00000000 $d
C:\Users\DJESSOU\AppData\Local\Temp\ccruImXQ.s:6317   .data.__compound_literal.508:00000000 $d
C:\Users\DJESSOU\AppData\Local\Temp\ccruImXQ.s:6326   .data.__compound_literal.507:00000000 $d
C:\Users\DJESSOU\AppData\Local\Temp\ccruImXQ.s:6332   .data.__compound_literal.506:00000000 $d
C:\Users\DJESSOU\AppData\Local\Temp\ccruImXQ.s:6338   .data.__compound_literal.505:00000000 $d
ARM GAS  C:\Users\DJESSOU\AppData\Local\Temp\ccruImXQ.s 			page 216


C:\Users\DJESSOU\AppData\Local\Temp\ccruImXQ.s:6347   .data.__compound_literal.504:00000000 $d
C:\Users\DJESSOU\AppData\Local\Temp\ccruImXQ.s:6353   .data.__compound_literal.503:00000000 $d
C:\Users\DJESSOU\AppData\Local\Temp\ccruImXQ.s:6359   .data.__compound_literal.502:00000000 $d
C:\Users\DJESSOU\AppData\Local\Temp\ccruImXQ.s:6368   .data.__compound_literal.501:00000000 $d
C:\Users\DJESSOU\AppData\Local\Temp\ccruImXQ.s:6374   .data.__compound_literal.500:00000000 $d
C:\Users\DJESSOU\AppData\Local\Temp\ccruImXQ.s:6380   .data.__compound_literal.499:00000000 $d
C:\Users\DJESSOU\AppData\Local\Temp\ccruImXQ.s:6389   .data.__compound_literal.498:00000000 $d
C:\Users\DJESSOU\AppData\Local\Temp\ccruImXQ.s:6399   .data.__compound_literal.497:00000000 $d
C:\Users\DJESSOU\AppData\Local\Temp\ccruImXQ.s:6408   .data.__compound_literal.496:00000000 $d
C:\Users\DJESSOU\AppData\Local\Temp\ccruImXQ.s:6414   .data.__compound_literal.495:00000000 $d
C:\Users\DJESSOU\AppData\Local\Temp\ccruImXQ.s:6420   .data.__compound_literal.494:00000000 $d
C:\Users\DJESSOU\AppData\Local\Temp\ccruImXQ.s:6429   .data.__compound_literal.493:00000000 $d
C:\Users\DJESSOU\AppData\Local\Temp\ccruImXQ.s:6435   .data.__compound_literal.492:00000000 $d
C:\Users\DJESSOU\AppData\Local\Temp\ccruImXQ.s:6441   .data.__compound_literal.491:00000000 $d
C:\Users\DJESSOU\AppData\Local\Temp\ccruImXQ.s:6450   .data.__compound_literal.490:00000000 $d
C:\Users\DJESSOU\AppData\Local\Temp\ccruImXQ.s:6456   .data.__compound_literal.489:00000000 $d
C:\Users\DJESSOU\AppData\Local\Temp\ccruImXQ.s:6462   .data.__compound_literal.488:00000000 $d
C:\Users\DJESSOU\AppData\Local\Temp\ccruImXQ.s:6471   .data.__compound_literal.487:00000000 $d
C:\Users\DJESSOU\AppData\Local\Temp\ccruImXQ.s:6477   .data.__compound_literal.486:00000000 $d
C:\Users\DJESSOU\AppData\Local\Temp\ccruImXQ.s:6483   .data.__compound_literal.485:00000000 $d
C:\Users\DJESSOU\AppData\Local\Temp\ccruImXQ.s:6492   .data.__compound_literal.484:00000000 $d
C:\Users\DJESSOU\AppData\Local\Temp\ccruImXQ.s:6502   .data.__compound_literal.483:00000000 $d
C:\Users\DJESSOU\AppData\Local\Temp\ccruImXQ.s:6508   .data.__compound_literal.482:00000000 $d
C:\Users\DJESSOU\AppData\Local\Temp\ccruImXQ.s:6514   .data.__compound_literal.481:00000000 $d
C:\Users\DJESSOU\AppData\Local\Temp\ccruImXQ.s:6523   .data.__compound_literal.480:00000000 $d
C:\Users\DJESSOU\AppData\Local\Temp\ccruImXQ.s:6532   .data.__compound_literal.479:00000000 $d
C:\Users\DJESSOU\AppData\Local\Temp\ccruImXQ.s:6538   .data.__compound_literal.478:00000000 $d
C:\Users\DJESSOU\AppData\Local\Temp\ccruImXQ.s:6544   .data.__compound_literal.477:00000000 $d
C:\Users\DJESSOU\AppData\Local\Temp\ccruImXQ.s:6553   .data.__compound_literal.476:00000000 $d
C:\Users\DJESSOU\AppData\Local\Temp\ccruImXQ.s:6559   .data.__compound_literal.475:00000000 $d
C:\Users\DJESSOU\AppData\Local\Temp\ccruImXQ.s:6565   .data.__compound_literal.474:00000000 $d
C:\Users\DJESSOU\AppData\Local\Temp\ccruImXQ.s:6574   .data.__compound_literal.473:00000000 $d
C:\Users\DJESSOU\AppData\Local\Temp\ccruImXQ.s:6580   .data.__compound_literal.472:00000000 $d
C:\Users\DJESSOU\AppData\Local\Temp\ccruImXQ.s:6586   .data.__compound_literal.471:00000000 $d
C:\Users\DJESSOU\AppData\Local\Temp\ccruImXQ.s:6595   .data.__compound_literal.470:00000000 $d
C:\Users\DJESSOU\AppData\Local\Temp\ccruImXQ.s:6601   .data.__compound_literal.469:00000000 $d
C:\Users\DJESSOU\AppData\Local\Temp\ccruImXQ.s:6607   .data.__compound_literal.468:00000000 $d
C:\Users\DJESSOU\AppData\Local\Temp\ccruImXQ.s:6616   .data.__compound_literal.467:00000000 $d
C:\Users\DJESSOU\AppData\Local\Temp\ccruImXQ.s:6626   .data.__compound_literal.466:00000000 $d
C:\Users\DJESSOU\AppData\Local\Temp\ccruImXQ.s:6632   .data.__compound_literal.465:00000000 $d
C:\Users\DJESSOU\AppData\Local\Temp\ccruImXQ.s:6638   .data.__compound_literal.464:00000000 $d
C:\Users\DJESSOU\AppData\Local\Temp\ccruImXQ.s:6647   .data.__compound_literal.463:00000000 $d
C:\Users\DJESSOU\AppData\Local\Temp\ccruImXQ.s:6656   .data.__compound_literal.462:00000000 $d
C:\Users\DJESSOU\AppData\Local\Temp\ccruImXQ.s:6662   .data.__compound_literal.461:00000000 $d
C:\Users\DJESSOU\AppData\Local\Temp\ccruImXQ.s:6668   .data.__compound_literal.460:00000000 $d
C:\Users\DJESSOU\AppData\Local\Temp\ccruImXQ.s:6677   .data.__compound_literal.459:00000000 $d
C:\Users\DJESSOU\AppData\Local\Temp\ccruImXQ.s:6683   .data.__compound_literal.458:00000000 $d
C:\Users\DJESSOU\AppData\Local\Temp\ccruImXQ.s:6689   .data.__compound_literal.457:00000000 $d
C:\Users\DJESSOU\AppData\Local\Temp\ccruImXQ.s:6698   .data.__compound_literal.456:00000000 $d
C:\Users\DJESSOU\AppData\Local\Temp\ccruImXQ.s:6704   .data.__compound_literal.455:00000000 $d
C:\Users\DJESSOU\AppData\Local\Temp\ccruImXQ.s:6710   .data.__compound_literal.454:00000000 $d
C:\Users\DJESSOU\AppData\Local\Temp\ccruImXQ.s:6720   .data.__compound_literal.453:00000000 $d
C:\Users\DJESSOU\AppData\Local\Temp\ccruImXQ.s:6726   .data.__compound_literal.452:00000000 $d
C:\Users\DJESSOU\AppData\Local\Temp\ccruImXQ.s:6732   .data.__compound_literal.451:00000000 $d
C:\Users\DJESSOU\AppData\Local\Temp\ccruImXQ.s:6742   .data.__compound_literal.450:00000000 $d
C:\Users\DJESSOU\AppData\Local\Temp\ccruImXQ.s:6752   .data.__compound_literal.449:00000000 $d
C:\Users\DJESSOU\AppData\Local\Temp\ccruImXQ.s:6758   .data.__compound_literal.448:00000000 $d
ARM GAS  C:\Users\DJESSOU\AppData\Local\Temp\ccruImXQ.s 			page 217


C:\Users\DJESSOU\AppData\Local\Temp\ccruImXQ.s:6764   .data.__compound_literal.447:00000000 $d
C:\Users\DJESSOU\AppData\Local\Temp\ccruImXQ.s:6773   .data.__compound_literal.446:00000000 $d
C:\Users\DJESSOU\AppData\Local\Temp\ccruImXQ.s:6779   .data.__compound_literal.445:00000000 $d
C:\Users\DJESSOU\AppData\Local\Temp\ccruImXQ.s:6785   .data.__compound_literal.444:00000000 $d
C:\Users\DJESSOU\AppData\Local\Temp\ccruImXQ.s:6794   .data.__compound_literal.443:00000000 $d
C:\Users\DJESSOU\AppData\Local\Temp\ccruImXQ.s:6800   .data.__compound_literal.442:00000000 $d
C:\Users\DJESSOU\AppData\Local\Temp\ccruImXQ.s:6806   .data.__compound_literal.441:00000000 $d
C:\Users\DJESSOU\AppData\Local\Temp\ccruImXQ.s:6815   .data.__compound_literal.440:00000000 $d
C:\Users\DJESSOU\AppData\Local\Temp\ccruImXQ.s:6821   .data.__compound_literal.439:00000000 $d
C:\Users\DJESSOU\AppData\Local\Temp\ccruImXQ.s:6827   .data.__compound_literal.438:00000000 $d
C:\Users\DJESSOU\AppData\Local\Temp\ccruImXQ.s:6836   .data.__compound_literal.437:00000000 $d
C:\Users\DJESSOU\AppData\Local\Temp\ccruImXQ.s:6842   .data.__compound_literal.436:00000000 $d
C:\Users\DJESSOU\AppData\Local\Temp\ccruImXQ.s:6848   .data.__compound_literal.435:00000000 $d
C:\Users\DJESSOU\AppData\Local\Temp\ccruImXQ.s:6857   .data.__compound_literal.434:00000000 $d
C:\Users\DJESSOU\AppData\Local\Temp\ccruImXQ.s:6867   .data.__compound_literal.433:00000000 $d
C:\Users\DJESSOU\AppData\Local\Temp\ccruImXQ.s:6873   .data.__compound_literal.432:00000000 $d
C:\Users\DJESSOU\AppData\Local\Temp\ccruImXQ.s:6879   .data.__compound_literal.431:00000000 $d
C:\Users\DJESSOU\AppData\Local\Temp\ccruImXQ.s:6888   .data.__compound_literal.430:00000000 $d
C:\Users\DJESSOU\AppData\Local\Temp\ccruImXQ.s:6897   .data.__compound_literal.429:00000000 $d
C:\Users\DJESSOU\AppData\Local\Temp\ccruImXQ.s:6903   .data.__compound_literal.428:00000000 $d
C:\Users\DJESSOU\AppData\Local\Temp\ccruImXQ.s:6909   .data.__compound_literal.427:00000000 $d
C:\Users\DJESSOU\AppData\Local\Temp\ccruImXQ.s:6918   .data.__compound_literal.426:00000000 $d
C:\Users\DJESSOU\AppData\Local\Temp\ccruImXQ.s:6924   .data.__compound_literal.425:00000000 $d
C:\Users\DJESSOU\AppData\Local\Temp\ccruImXQ.s:6930   .data.__compound_literal.424:00000000 $d
C:\Users\DJESSOU\AppData\Local\Temp\ccruImXQ.s:6939   .data.__compound_literal.423:00000000 $d
C:\Users\DJESSOU\AppData\Local\Temp\ccruImXQ.s:6945   .data.__compound_literal.422:00000000 $d
C:\Users\DJESSOU\AppData\Local\Temp\ccruImXQ.s:6951   .data.__compound_literal.421:00000000 $d
C:\Users\DJESSOU\AppData\Local\Temp\ccruImXQ.s:6960   .data.__compound_literal.420:00000000 $d
C:\Users\DJESSOU\AppData\Local\Temp\ccruImXQ.s:6966   .data.__compound_literal.419:00000000 $d
C:\Users\DJESSOU\AppData\Local\Temp\ccruImXQ.s:6972   .data.__compound_literal.418:00000000 $d
C:\Users\DJESSOU\AppData\Local\Temp\ccruImXQ.s:6981   .data.__compound_literal.417:00000000 $d
C:\Users\DJESSOU\AppData\Local\Temp\ccruImXQ.s:6991   .data.__compound_literal.416:00000000 $d
C:\Users\DJESSOU\AppData\Local\Temp\ccruImXQ.s:6997   .data.__compound_literal.415:00000000 $d
C:\Users\DJESSOU\AppData\Local\Temp\ccruImXQ.s:7003   .data.__compound_literal.414:00000000 $d
C:\Users\DJESSOU\AppData\Local\Temp\ccruImXQ.s:7012   .data.__compound_literal.413:00000000 $d
C:\Users\DJESSOU\AppData\Local\Temp\ccruImXQ.s:7021   .data.__compound_literal.412:00000000 $d
C:\Users\DJESSOU\AppData\Local\Temp\ccruImXQ.s:7027   .data.__compound_literal.411:00000000 $d
C:\Users\DJESSOU\AppData\Local\Temp\ccruImXQ.s:7033   .data.__compound_literal.410:00000000 $d
C:\Users\DJESSOU\AppData\Local\Temp\ccruImXQ.s:7042   .data.__compound_literal.409:00000000 $d
C:\Users\DJESSOU\AppData\Local\Temp\ccruImXQ.s:7048   .data.__compound_literal.408:00000000 $d
C:\Users\DJESSOU\AppData\Local\Temp\ccruImXQ.s:7054   .data.__compound_literal.407:00000000 $d
C:\Users\DJESSOU\AppData\Local\Temp\ccruImXQ.s:7063   .data.__compound_literal.406:00000000 $d
C:\Users\DJESSOU\AppData\Local\Temp\ccruImXQ.s:7069   .data.__compound_literal.405:00000000 $d
C:\Users\DJESSOU\AppData\Local\Temp\ccruImXQ.s:7075   .data.__compound_literal.404:00000000 $d
C:\Users\DJESSOU\AppData\Local\Temp\ccruImXQ.s:7084   .data.__compound_literal.403:00000000 $d
C:\Users\DJESSOU\AppData\Local\Temp\ccruImXQ.s:7090   .data.__compound_literal.402:00000000 $d
C:\Users\DJESSOU\AppData\Local\Temp\ccruImXQ.s:7096   .data.__compound_literal.401:00000000 $d
C:\Users\DJESSOU\AppData\Local\Temp\ccruImXQ.s:7105   .data.__compound_literal.400:00000000 $d
C:\Users\DJESSOU\AppData\Local\Temp\ccruImXQ.s:7115   .data.__compound_literal.399:00000000 $d
C:\Users\DJESSOU\AppData\Local\Temp\ccruImXQ.s:7121   .data.__compound_literal.398:00000000 $d
C:\Users\DJESSOU\AppData\Local\Temp\ccruImXQ.s:7127   .data.__compound_literal.397:00000000 $d
C:\Users\DJESSOU\AppData\Local\Temp\ccruImXQ.s:7136   .data.__compound_literal.396:00000000 $d
C:\Users\DJESSOU\AppData\Local\Temp\ccruImXQ.s:7145   .data.__compound_literal.395:00000000 $d
C:\Users\DJESSOU\AppData\Local\Temp\ccruImXQ.s:7151   .data.__compound_literal.394:00000000 $d
C:\Users\DJESSOU\AppData\Local\Temp\ccruImXQ.s:7157   .data.__compound_literal.393:00000000 $d
C:\Users\DJESSOU\AppData\Local\Temp\ccruImXQ.s:7166   .data.__compound_literal.392:00000000 $d
C:\Users\DJESSOU\AppData\Local\Temp\ccruImXQ.s:7172   .data.__compound_literal.391:00000000 $d
ARM GAS  C:\Users\DJESSOU\AppData\Local\Temp\ccruImXQ.s 			page 218


C:\Users\DJESSOU\AppData\Local\Temp\ccruImXQ.s:7178   .data.__compound_literal.390:00000000 $d
C:\Users\DJESSOU\AppData\Local\Temp\ccruImXQ.s:7187   .data.__compound_literal.389:00000000 $d
C:\Users\DJESSOU\AppData\Local\Temp\ccruImXQ.s:7193   .data.__compound_literal.388:00000000 $d
C:\Users\DJESSOU\AppData\Local\Temp\ccruImXQ.s:7199   .data.__compound_literal.387:00000000 $d
C:\Users\DJESSOU\AppData\Local\Temp\ccruImXQ.s:7208   .data.__compound_literal.386:00000000 $d
C:\Users\DJESSOU\AppData\Local\Temp\ccruImXQ.s:7214   .data.__compound_literal.385:00000000 $d
C:\Users\DJESSOU\AppData\Local\Temp\ccruImXQ.s:7220   .data.__compound_literal.384:00000000 $d
C:\Users\DJESSOU\AppData\Local\Temp\ccruImXQ.s:7229   .data.__compound_literal.383:00000000 $d
C:\Users\DJESSOU\AppData\Local\Temp\ccruImXQ.s:7239   .data.__compound_literal.382:00000000 $d
C:\Users\DJESSOU\AppData\Local\Temp\ccruImXQ.s:7245   .data.__compound_literal.381:00000000 $d
C:\Users\DJESSOU\AppData\Local\Temp\ccruImXQ.s:7251   .data.__compound_literal.380:00000000 $d
C:\Users\DJESSOU\AppData\Local\Temp\ccruImXQ.s:7260   .data.__compound_literal.379:00000000 $d
C:\Users\DJESSOU\AppData\Local\Temp\ccruImXQ.s:7269   .bss.__compound_literal.378:00000000 $d
C:\Users\DJESSOU\AppData\Local\Temp\ccruImXQ.s:7275   .data.__compound_literal.377:00000000 $d
C:\Users\DJESSOU\AppData\Local\Temp\ccruImXQ.s:7281   .data.__compound_literal.376:00000000 $d
C:\Users\DJESSOU\AppData\Local\Temp\ccruImXQ.s:7290   .bss.__compound_literal.375:00000000 $d
C:\Users\DJESSOU\AppData\Local\Temp\ccruImXQ.s:7296   .data.__compound_literal.374:00000000 $d
C:\Users\DJESSOU\AppData\Local\Temp\ccruImXQ.s:7302   .data.__compound_literal.373:00000000 $d
C:\Users\DJESSOU\AppData\Local\Temp\ccruImXQ.s:7311   .data.__compound_literal.372:00000000 $d
C:\Users\DJESSOU\AppData\Local\Temp\ccruImXQ.s:7317   .data.__compound_literal.371:00000000 $d
C:\Users\DJESSOU\AppData\Local\Temp\ccruImXQ.s:7323   .data.__compound_literal.370:00000000 $d
C:\Users\DJESSOU\AppData\Local\Temp\ccruImXQ.s:7332   .data.__compound_literal.369:00000000 $d
C:\Users\DJESSOU\AppData\Local\Temp\ccruImXQ.s:7338   .data.__compound_literal.368:00000000 $d
C:\Users\DJESSOU\AppData\Local\Temp\ccruImXQ.s:7344   .data.__compound_literal.367:00000000 $d
C:\Users\DJESSOU\AppData\Local\Temp\ccruImXQ.s:7353   .data.__compound_literal.366:00000000 $d
C:\Users\DJESSOU\AppData\Local\Temp\ccruImXQ.s:7359   .data.__compound_literal.365:00000000 $d
C:\Users\DJESSOU\AppData\Local\Temp\ccruImXQ.s:7365   .data.__compound_literal.364:00000000 $d
C:\Users\DJESSOU\AppData\Local\Temp\ccruImXQ.s:7374   .data.__compound_literal.363:00000000 $d
C:\Users\DJESSOU\AppData\Local\Temp\ccruImXQ.s:7384   .data.__compound_literal.362:00000000 $d
C:\Users\DJESSOU\AppData\Local\Temp\ccruImXQ.s:7390   .data.__compound_literal.361:00000000 $d
C:\Users\DJESSOU\AppData\Local\Temp\ccruImXQ.s:7396   .data.__compound_literal.360:00000000 $d
C:\Users\DJESSOU\AppData\Local\Temp\ccruImXQ.s:7405   .data.__compound_literal.359:00000000 $d
C:\Users\DJESSOU\AppData\Local\Temp\ccruImXQ.s:7414   .data.__compound_literal.358:00000000 $d
C:\Users\DJESSOU\AppData\Local\Temp\ccruImXQ.s:7420   .data.__compound_literal.357:00000000 $d
C:\Users\DJESSOU\AppData\Local\Temp\ccruImXQ.s:7426   .data.__compound_literal.356:00000000 $d
C:\Users\DJESSOU\AppData\Local\Temp\ccruImXQ.s:7435   .data.__compound_literal.355:00000000 $d
C:\Users\DJESSOU\AppData\Local\Temp\ccruImXQ.s:7441   .data.__compound_literal.354:00000000 $d
C:\Users\DJESSOU\AppData\Local\Temp\ccruImXQ.s:7447   .data.__compound_literal.353:00000000 $d
C:\Users\DJESSOU\AppData\Local\Temp\ccruImXQ.s:7456   .data.__compound_literal.352:00000000 $d
C:\Users\DJESSOU\AppData\Local\Temp\ccruImXQ.s:7462   .data.__compound_literal.351:00000000 $d
C:\Users\DJESSOU\AppData\Local\Temp\ccruImXQ.s:7468   .data.__compound_literal.350:00000000 $d
C:\Users\DJESSOU\AppData\Local\Temp\ccruImXQ.s:7477   .data.__compound_literal.349:00000000 $d
C:\Users\DJESSOU\AppData\Local\Temp\ccruImXQ.s:7483   .data.__compound_literal.348:00000000 $d
C:\Users\DJESSOU\AppData\Local\Temp\ccruImXQ.s:7489   .data.__compound_literal.347:00000000 $d
C:\Users\DJESSOU\AppData\Local\Temp\ccruImXQ.s:7498   .data.__compound_literal.346:00000000 $d
C:\Users\DJESSOU\AppData\Local\Temp\ccruImXQ.s:7508   .data.__compound_literal.345:00000000 $d
C:\Users\DJESSOU\AppData\Local\Temp\ccruImXQ.s:7514   .data.__compound_literal.344:00000000 $d
C:\Users\DJESSOU\AppData\Local\Temp\ccruImXQ.s:7520   .data.__compound_literal.343:00000000 $d
C:\Users\DJESSOU\AppData\Local\Temp\ccruImXQ.s:7529   .data.__compound_literal.342:00000000 $d
C:\Users\DJESSOU\AppData\Local\Temp\ccruImXQ.s:7538   .data.__compound_literal.341:00000000 $d
C:\Users\DJESSOU\AppData\Local\Temp\ccruImXQ.s:7544   .data.__compound_literal.340:00000000 $d
C:\Users\DJESSOU\AppData\Local\Temp\ccruImXQ.s:7550   .data.__compound_literal.339:00000000 $d
C:\Users\DJESSOU\AppData\Local\Temp\ccruImXQ.s:7559   .data.__compound_literal.338:00000000 $d
C:\Users\DJESSOU\AppData\Local\Temp\ccruImXQ.s:7565   .data.__compound_literal.337:00000000 $d
C:\Users\DJESSOU\AppData\Local\Temp\ccruImXQ.s:7571   .data.__compound_literal.336:00000000 $d
C:\Users\DJESSOU\AppData\Local\Temp\ccruImXQ.s:7580   .data.__compound_literal.335:00000000 $d
C:\Users\DJESSOU\AppData\Local\Temp\ccruImXQ.s:7586   .data.__compound_literal.334:00000000 $d
ARM GAS  C:\Users\DJESSOU\AppData\Local\Temp\ccruImXQ.s 			page 219


C:\Users\DJESSOU\AppData\Local\Temp\ccruImXQ.s:7592   .data.__compound_literal.333:00000000 $d
C:\Users\DJESSOU\AppData\Local\Temp\ccruImXQ.s:7601   .data.__compound_literal.332:00000000 $d
C:\Users\DJESSOU\AppData\Local\Temp\ccruImXQ.s:7607   .data.__compound_literal.331:00000000 $d
C:\Users\DJESSOU\AppData\Local\Temp\ccruImXQ.s:7613   .data.__compound_literal.330:00000000 $d
C:\Users\DJESSOU\AppData\Local\Temp\ccruImXQ.s:7622   .data.__compound_literal.329:00000000 $d
C:\Users\DJESSOU\AppData\Local\Temp\ccruImXQ.s:7632   .data.__compound_literal.328:00000000 $d
C:\Users\DJESSOU\AppData\Local\Temp\ccruImXQ.s:7638   .data.__compound_literal.327:00000000 $d
C:\Users\DJESSOU\AppData\Local\Temp\ccruImXQ.s:7644   .data.__compound_literal.326:00000000 $d
C:\Users\DJESSOU\AppData\Local\Temp\ccruImXQ.s:7653   .data.__compound_literal.325:00000000 $d
C:\Users\DJESSOU\AppData\Local\Temp\ccruImXQ.s:7662   .data.__compound_literal.324:00000000 $d
C:\Users\DJESSOU\AppData\Local\Temp\ccruImXQ.s:7668   .data.__compound_literal.323:00000000 $d
C:\Users\DJESSOU\AppData\Local\Temp\ccruImXQ.s:7674   .data.__compound_literal.322:00000000 $d
C:\Users\DJESSOU\AppData\Local\Temp\ccruImXQ.s:7683   .data.__compound_literal.321:00000000 $d
C:\Users\DJESSOU\AppData\Local\Temp\ccruImXQ.s:7689   .data.__compound_literal.320:00000000 $d
C:\Users\DJESSOU\AppData\Local\Temp\ccruImXQ.s:7695   .data.__compound_literal.319:00000000 $d
C:\Users\DJESSOU\AppData\Local\Temp\ccruImXQ.s:7704   .data.__compound_literal.318:00000000 $d
C:\Users\DJESSOU\AppData\Local\Temp\ccruImXQ.s:7710   .data.__compound_literal.317:00000000 $d
C:\Users\DJESSOU\AppData\Local\Temp\ccruImXQ.s:7716   .data.__compound_literal.316:00000000 $d
C:\Users\DJESSOU\AppData\Local\Temp\ccruImXQ.s:7725   .data.__compound_literal.315:00000000 $d
C:\Users\DJESSOU\AppData\Local\Temp\ccruImXQ.s:7731   .data.__compound_literal.314:00000000 $d
C:\Users\DJESSOU\AppData\Local\Temp\ccruImXQ.s:7737   .data.__compound_literal.313:00000000 $d
C:\Users\DJESSOU\AppData\Local\Temp\ccruImXQ.s:7746   .data.__compound_literal.312:00000000 $d
C:\Users\DJESSOU\AppData\Local\Temp\ccruImXQ.s:7756   .data.__compound_literal.311:00000000 $d
C:\Users\DJESSOU\AppData\Local\Temp\ccruImXQ.s:7762   .data.__compound_literal.310:00000000 $d
C:\Users\DJESSOU\AppData\Local\Temp\ccruImXQ.s:7768   .data.__compound_literal.309:00000000 $d
C:\Users\DJESSOU\AppData\Local\Temp\ccruImXQ.s:7777   .data.__compound_literal.308:00000000 $d
C:\Users\DJESSOU\AppData\Local\Temp\ccruImXQ.s:7786   .data.__compound_literal.307:00000000 $d
C:\Users\DJESSOU\AppData\Local\Temp\ccruImXQ.s:7792   .data.__compound_literal.306:00000000 $d
C:\Users\DJESSOU\AppData\Local\Temp\ccruImXQ.s:7798   .data.__compound_literal.305:00000000 $d
C:\Users\DJESSOU\AppData\Local\Temp\ccruImXQ.s:7807   .data.__compound_literal.304:00000000 $d
C:\Users\DJESSOU\AppData\Local\Temp\ccruImXQ.s:7813   .data.__compound_literal.303:00000000 $d
C:\Users\DJESSOU\AppData\Local\Temp\ccruImXQ.s:7819   .data.__compound_literal.302:00000000 $d
C:\Users\DJESSOU\AppData\Local\Temp\ccruImXQ.s:7828   .data.__compound_literal.301:00000000 $d
C:\Users\DJESSOU\AppData\Local\Temp\ccruImXQ.s:7834   .data.__compound_literal.300:00000000 $d
C:\Users\DJESSOU\AppData\Local\Temp\ccruImXQ.s:7840   .data.__compound_literal.299:00000000 $d
C:\Users\DJESSOU\AppData\Local\Temp\ccruImXQ.s:7849   .data.__compound_literal.298:00000000 $d
C:\Users\DJESSOU\AppData\Local\Temp\ccruImXQ.s:7855   .data.__compound_literal.297:00000000 $d
C:\Users\DJESSOU\AppData\Local\Temp\ccruImXQ.s:7861   .data.__compound_literal.296:00000000 $d
C:\Users\DJESSOU\AppData\Local\Temp\ccruImXQ.s:7870   .bss.__compound_literal.295:00000000 $d
C:\Users\DJESSOU\AppData\Local\Temp\ccruImXQ.s:7876   .data.__compound_literal.294:00000000 $d
C:\Users\DJESSOU\AppData\Local\Temp\ccruImXQ.s:7882   .data.__compound_literal.293:00000000 $d
C:\Users\DJESSOU\AppData\Local\Temp\ccruImXQ.s:7891   .data.__compound_literal.292:00000000 $d
C:\Users\DJESSOU\AppData\Local\Temp\ccruImXQ.s:7900   .data.__compound_literal.291:00000000 $d
C:\Users\DJESSOU\AppData\Local\Temp\ccruImXQ.s:7906   .data.__compound_literal.290:00000000 $d
C:\Users\DJESSOU\AppData\Local\Temp\ccruImXQ.s:7912   .data.__compound_literal.289:00000000 $d
C:\Users\DJESSOU\AppData\Local\Temp\ccruImXQ.s:7921   .data.__compound_literal.288:00000000 $d
C:\Users\DJESSOU\AppData\Local\Temp\ccruImXQ.s:7927   .data.__compound_literal.287:00000000 $d
C:\Users\DJESSOU\AppData\Local\Temp\ccruImXQ.s:7933   .data.__compound_literal.286:00000000 $d
C:\Users\DJESSOU\AppData\Local\Temp\ccruImXQ.s:7942   .data.__compound_literal.285:00000000 $d
C:\Users\DJESSOU\AppData\Local\Temp\ccruImXQ.s:7948   .data.__compound_literal.284:00000000 $d
C:\Users\DJESSOU\AppData\Local\Temp\ccruImXQ.s:7954   .data.__compound_literal.283:00000000 $d
C:\Users\DJESSOU\AppData\Local\Temp\ccruImXQ.s:7963   .data.__compound_literal.282:00000000 $d
C:\Users\DJESSOU\AppData\Local\Temp\ccruImXQ.s:7969   .data.__compound_literal.281:00000000 $d
C:\Users\DJESSOU\AppData\Local\Temp\ccruImXQ.s:7975   .data.__compound_literal.280:00000000 $d
C:\Users\DJESSOU\AppData\Local\Temp\ccruImXQ.s:7984   .data.__compound_literal.279:00000000 $d
C:\Users\DJESSOU\AppData\Local\Temp\ccruImXQ.s:7993   .data.__compound_literal.278:00000000 $d
C:\Users\DJESSOU\AppData\Local\Temp\ccruImXQ.s:7999   .data.__compound_literal.277:00000000 $d
ARM GAS  C:\Users\DJESSOU\AppData\Local\Temp\ccruImXQ.s 			page 220


C:\Users\DJESSOU\AppData\Local\Temp\ccruImXQ.s:8005   .data.__compound_literal.276:00000000 $d
C:\Users\DJESSOU\AppData\Local\Temp\ccruImXQ.s:8014   .data.__compound_literal.275:00000000 $d
C:\Users\DJESSOU\AppData\Local\Temp\ccruImXQ.s:8020   .data.__compound_literal.274:00000000 $d
C:\Users\DJESSOU\AppData\Local\Temp\ccruImXQ.s:8026   .data.__compound_literal.273:00000000 $d
C:\Users\DJESSOU\AppData\Local\Temp\ccruImXQ.s:8035   .data.__compound_literal.272:00000000 $d
C:\Users\DJESSOU\AppData\Local\Temp\ccruImXQ.s:8041   .data.__compound_literal.271:00000000 $d
C:\Users\DJESSOU\AppData\Local\Temp\ccruImXQ.s:8047   .data.__compound_literal.270:00000000 $d
C:\Users\DJESSOU\AppData\Local\Temp\ccruImXQ.s:8056   .data.__compound_literal.269:00000000 $d
C:\Users\DJESSOU\AppData\Local\Temp\ccruImXQ.s:8066   .data.__compound_literal.268:00000000 $d
C:\Users\DJESSOU\AppData\Local\Temp\ccruImXQ.s:8072   .data.__compound_literal.267:00000000 $d
C:\Users\DJESSOU\AppData\Local\Temp\ccruImXQ.s:8078   .data.__compound_literal.266:00000000 $d
C:\Users\DJESSOU\AppData\Local\Temp\ccruImXQ.s:8087   .data.__compound_literal.265:00000000 $d
C:\Users\DJESSOU\AppData\Local\Temp\ccruImXQ.s:8096   .data.__compound_literal.264:00000000 $d
C:\Users\DJESSOU\AppData\Local\Temp\ccruImXQ.s:8102   .data.__compound_literal.263:00000000 $d
C:\Users\DJESSOU\AppData\Local\Temp\ccruImXQ.s:8108   .data.__compound_literal.262:00000000 $d
C:\Users\DJESSOU\AppData\Local\Temp\ccruImXQ.s:8117   .data.__compound_literal.261:00000000 $d
C:\Users\DJESSOU\AppData\Local\Temp\ccruImXQ.s:8123   .data.__compound_literal.260:00000000 $d
C:\Users\DJESSOU\AppData\Local\Temp\ccruImXQ.s:8129   .data.__compound_literal.259:00000000 $d
C:\Users\DJESSOU\AppData\Local\Temp\ccruImXQ.s:8138   .data.__compound_literal.258:00000000 $d
C:\Users\DJESSOU\AppData\Local\Temp\ccruImXQ.s:8144   .data.__compound_literal.257:00000000 $d
C:\Users\DJESSOU\AppData\Local\Temp\ccruImXQ.s:8150   .data.__compound_literal.256:00000000 $d
C:\Users\DJESSOU\AppData\Local\Temp\ccruImXQ.s:8159   .data.__compound_literal.255:00000000 $d
C:\Users\DJESSOU\AppData\Local\Temp\ccruImXQ.s:8165   .data.__compound_literal.254:00000000 $d
C:\Users\DJESSOU\AppData\Local\Temp\ccruImXQ.s:8171   .data.__compound_literal.253:00000000 $d
C:\Users\DJESSOU\AppData\Local\Temp\ccruImXQ.s:8180   .data.__compound_literal.252:00000000 $d
C:\Users\DJESSOU\AppData\Local\Temp\ccruImXQ.s:8190   .data.__compound_literal.251:00000000 $d
C:\Users\DJESSOU\AppData\Local\Temp\ccruImXQ.s:8196   .data.__compound_literal.250:00000000 $d
C:\Users\DJESSOU\AppData\Local\Temp\ccruImXQ.s:8202   .data.__compound_literal.249:00000000 $d
C:\Users\DJESSOU\AppData\Local\Temp\ccruImXQ.s:8211   .data.__compound_literal.248:00000000 $d
C:\Users\DJESSOU\AppData\Local\Temp\ccruImXQ.s:8220   .data.__compound_literal.247:00000000 $d
C:\Users\DJESSOU\AppData\Local\Temp\ccruImXQ.s:8226   .data.__compound_literal.246:00000000 $d
C:\Users\DJESSOU\AppData\Local\Temp\ccruImXQ.s:8232   .data.__compound_literal.245:00000000 $d
C:\Users\DJESSOU\AppData\Local\Temp\ccruImXQ.s:8241   .data.__compound_literal.244:00000000 $d
C:\Users\DJESSOU\AppData\Local\Temp\ccruImXQ.s:8247   .data.__compound_literal.243:00000000 $d
C:\Users\DJESSOU\AppData\Local\Temp\ccruImXQ.s:8253   .data.__compound_literal.242:00000000 $d
C:\Users\DJESSOU\AppData\Local\Temp\ccruImXQ.s:8262   .data.__compound_literal.241:00000000 $d
C:\Users\DJESSOU\AppData\Local\Temp\ccruImXQ.s:8268   .data.__compound_literal.240:00000000 $d
C:\Users\DJESSOU\AppData\Local\Temp\ccruImXQ.s:8274   .data.__compound_literal.239:00000000 $d
C:\Users\DJESSOU\AppData\Local\Temp\ccruImXQ.s:8283   .data.__compound_literal.238:00000000 $d
C:\Users\DJESSOU\AppData\Local\Temp\ccruImXQ.s:8289   .data.__compound_literal.237:00000000 $d
C:\Users\DJESSOU\AppData\Local\Temp\ccruImXQ.s:8295   .data.__compound_literal.236:00000000 $d
C:\Users\DJESSOU\AppData\Local\Temp\ccruImXQ.s:8304   .data.__compound_literal.235:00000000 $d
C:\Users\DJESSOU\AppData\Local\Temp\ccruImXQ.s:8314   .data.__compound_literal.234:00000000 $d
C:\Users\DJESSOU\AppData\Local\Temp\ccruImXQ.s:8320   .data.__compound_literal.233:00000000 $d
C:\Users\DJESSOU\AppData\Local\Temp\ccruImXQ.s:8326   .data.__compound_literal.232:00000000 $d
C:\Users\DJESSOU\AppData\Local\Temp\ccruImXQ.s:8335   .data.__compound_literal.231:00000000 $d
C:\Users\DJESSOU\AppData\Local\Temp\ccruImXQ.s:8344   .data.__compound_literal.230:00000000 $d
C:\Users\DJESSOU\AppData\Local\Temp\ccruImXQ.s:8350   .data.__compound_literal.229:00000000 $d
C:\Users\DJESSOU\AppData\Local\Temp\ccruImXQ.s:8356   .data.__compound_literal.228:00000000 $d
C:\Users\DJESSOU\AppData\Local\Temp\ccruImXQ.s:8365   .data.__compound_literal.227:00000000 $d
C:\Users\DJESSOU\AppData\Local\Temp\ccruImXQ.s:8371   .data.__compound_literal.226:00000000 $d
C:\Users\DJESSOU\AppData\Local\Temp\ccruImXQ.s:8377   .data.__compound_literal.225:00000000 $d
C:\Users\DJESSOU\AppData\Local\Temp\ccruImXQ.s:8386   .data.__compound_literal.224:00000000 $d
C:\Users\DJESSOU\AppData\Local\Temp\ccruImXQ.s:8392   .data.__compound_literal.223:00000000 $d
C:\Users\DJESSOU\AppData\Local\Temp\ccruImXQ.s:8398   .data.__compound_literal.222:00000000 $d
C:\Users\DJESSOU\AppData\Local\Temp\ccruImXQ.s:8407   .data.__compound_literal.221:00000000 $d
C:\Users\DJESSOU\AppData\Local\Temp\ccruImXQ.s:8413   .data.__compound_literal.220:00000000 $d
ARM GAS  C:\Users\DJESSOU\AppData\Local\Temp\ccruImXQ.s 			page 221


C:\Users\DJESSOU\AppData\Local\Temp\ccruImXQ.s:8419   .data.__compound_literal.219:00000000 $d
C:\Users\DJESSOU\AppData\Local\Temp\ccruImXQ.s:8428   .data.__compound_literal.218:00000000 $d
C:\Users\DJESSOU\AppData\Local\Temp\ccruImXQ.s:8438   .data.__compound_literal.217:00000000 $d
C:\Users\DJESSOU\AppData\Local\Temp\ccruImXQ.s:8444   .data.__compound_literal.216:00000000 $d
C:\Users\DJESSOU\AppData\Local\Temp\ccruImXQ.s:8450   .data.__compound_literal.215:00000000 $d
C:\Users\DJESSOU\AppData\Local\Temp\ccruImXQ.s:8459   .data.__compound_literal.214:00000000 $d
C:\Users\DJESSOU\AppData\Local\Temp\ccruImXQ.s:8468   .data.__compound_literal.213:00000000 $d
C:\Users\DJESSOU\AppData\Local\Temp\ccruImXQ.s:8474   .data.__compound_literal.212:00000000 $d
C:\Users\DJESSOU\AppData\Local\Temp\ccruImXQ.s:8480   .data.__compound_literal.211:00000000 $d
C:\Users\DJESSOU\AppData\Local\Temp\ccruImXQ.s:8489   .data.__compound_literal.210:00000000 $d
C:\Users\DJESSOU\AppData\Local\Temp\ccruImXQ.s:8495   .data.__compound_literal.209:00000000 $d
C:\Users\DJESSOU\AppData\Local\Temp\ccruImXQ.s:8501   .data.__compound_literal.208:00000000 $d
C:\Users\DJESSOU\AppData\Local\Temp\ccruImXQ.s:8510   .data.__compound_literal.207:00000000 $d
C:\Users\DJESSOU\AppData\Local\Temp\ccruImXQ.s:8516   .data.__compound_literal.206:00000000 $d
C:\Users\DJESSOU\AppData\Local\Temp\ccruImXQ.s:8522   .data.__compound_literal.205:00000000 $d
C:\Users\DJESSOU\AppData\Local\Temp\ccruImXQ.s:8531   .data.__compound_literal.204:00000000 $d
C:\Users\DJESSOU\AppData\Local\Temp\ccruImXQ.s:8537   .data.__compound_literal.203:00000000 $d
C:\Users\DJESSOU\AppData\Local\Temp\ccruImXQ.s:8543   .data.__compound_literal.202:00000000 $d
C:\Users\DJESSOU\AppData\Local\Temp\ccruImXQ.s:8552   .data.__compound_literal.201:00000000 $d
C:\Users\DJESSOU\AppData\Local\Temp\ccruImXQ.s:8562   .data.__compound_literal.200:00000000 $d
C:\Users\DJESSOU\AppData\Local\Temp\ccruImXQ.s:8568   .data.__compound_literal.199:00000000 $d
C:\Users\DJESSOU\AppData\Local\Temp\ccruImXQ.s:8574   .data.__compound_literal.198:00000000 $d
C:\Users\DJESSOU\AppData\Local\Temp\ccruImXQ.s:8583   .data.__compound_literal.197:00000000 $d
C:\Users\DJESSOU\AppData\Local\Temp\ccruImXQ.s:8592   .data.__compound_literal.196:00000000 $d
C:\Users\DJESSOU\AppData\Local\Temp\ccruImXQ.s:8598   .data.__compound_literal.195:00000000 $d
C:\Users\DJESSOU\AppData\Local\Temp\ccruImXQ.s:8604   .data.__compound_literal.194:00000000 $d
C:\Users\DJESSOU\AppData\Local\Temp\ccruImXQ.s:8613   .data.__compound_literal.193:00000000 $d
C:\Users\DJESSOU\AppData\Local\Temp\ccruImXQ.s:8619   .data.__compound_literal.192:00000000 $d
C:\Users\DJESSOU\AppData\Local\Temp\ccruImXQ.s:8625   .data.__compound_literal.191:00000000 $d
C:\Users\DJESSOU\AppData\Local\Temp\ccruImXQ.s:8634   .data.__compound_literal.190:00000000 $d
C:\Users\DJESSOU\AppData\Local\Temp\ccruImXQ.s:8640   .data.__compound_literal.189:00000000 $d
C:\Users\DJESSOU\AppData\Local\Temp\ccruImXQ.s:8646   .data.__compound_literal.188:00000000 $d
C:\Users\DJESSOU\AppData\Local\Temp\ccruImXQ.s:8655   .data.__compound_literal.187:00000000 $d
C:\Users\DJESSOU\AppData\Local\Temp\ccruImXQ.s:8661   .data.__compound_literal.186:00000000 $d
C:\Users\DJESSOU\AppData\Local\Temp\ccruImXQ.s:8667   .data.__compound_literal.185:00000000 $d
C:\Users\DJESSOU\AppData\Local\Temp\ccruImXQ.s:8676   .data.__compound_literal.184:00000000 $d
C:\Users\DJESSOU\AppData\Local\Temp\ccruImXQ.s:8685   .data.__compound_literal.183:00000000 $d
C:\Users\DJESSOU\AppData\Local\Temp\ccruImXQ.s:8691   .data.__compound_literal.182:00000000 $d
C:\Users\DJESSOU\AppData\Local\Temp\ccruImXQ.s:8697   .data.__compound_literal.181:00000000 $d
C:\Users\DJESSOU\AppData\Local\Temp\ccruImXQ.s:8706   .data.__compound_literal.180:00000000 $d
C:\Users\DJESSOU\AppData\Local\Temp\ccruImXQ.s:8712   .data.__compound_literal.179:00000000 $d
C:\Users\DJESSOU\AppData\Local\Temp\ccruImXQ.s:8718   .data.__compound_literal.178:00000000 $d
C:\Users\DJESSOU\AppData\Local\Temp\ccruImXQ.s:8727   .data.__compound_literal.177:00000000 $d
C:\Users\DJESSOU\AppData\Local\Temp\ccruImXQ.s:8733   .data.__compound_literal.176:00000000 $d
C:\Users\DJESSOU\AppData\Local\Temp\ccruImXQ.s:8739   .data.__compound_literal.175:00000000 $d
C:\Users\DJESSOU\AppData\Local\Temp\ccruImXQ.s:8748   .data.__compound_literal.174:00000000 $d
C:\Users\DJESSOU\AppData\Local\Temp\ccruImXQ.s:8754   .data.__compound_literal.173:00000000 $d
C:\Users\DJESSOU\AppData\Local\Temp\ccruImXQ.s:8760   .data.__compound_literal.172:00000000 $d
C:\Users\DJESSOU\AppData\Local\Temp\ccruImXQ.s:8769   .data.__compound_literal.171:00000000 $d
C:\Users\DJESSOU\AppData\Local\Temp\ccruImXQ.s:8778   .data.__compound_literal.170:00000000 $d
C:\Users\DJESSOU\AppData\Local\Temp\ccruImXQ.s:8784   .data.__compound_literal.169:00000000 $d
C:\Users\DJESSOU\AppData\Local\Temp\ccruImXQ.s:8790   .data.__compound_literal.168:00000000 $d
C:\Users\DJESSOU\AppData\Local\Temp\ccruImXQ.s:8799   .data.__compound_literal.167:00000000 $d
C:\Users\DJESSOU\AppData\Local\Temp\ccruImXQ.s:8805   .data.__compound_literal.166:00000000 $d
C:\Users\DJESSOU\AppData\Local\Temp\ccruImXQ.s:8811   .data.__compound_literal.165:00000000 $d
C:\Users\DJESSOU\AppData\Local\Temp\ccruImXQ.s:8820   .data.__compound_literal.164:00000000 $d
C:\Users\DJESSOU\AppData\Local\Temp\ccruImXQ.s:8826   .data.__compound_literal.163:00000000 $d
ARM GAS  C:\Users\DJESSOU\AppData\Local\Temp\ccruImXQ.s 			page 222


C:\Users\DJESSOU\AppData\Local\Temp\ccruImXQ.s:8832   .data.__compound_literal.162:00000000 $d
C:\Users\DJESSOU\AppData\Local\Temp\ccruImXQ.s:8841   .data.__compound_literal.161:00000000 $d
C:\Users\DJESSOU\AppData\Local\Temp\ccruImXQ.s:8847   .data.__compound_literal.160:00000000 $d
C:\Users\DJESSOU\AppData\Local\Temp\ccruImXQ.s:8853   .data.__compound_literal.159:00000000 $d
C:\Users\DJESSOU\AppData\Local\Temp\ccruImXQ.s:8862   .data.__compound_literal.158:00000000 $d
C:\Users\DJESSOU\AppData\Local\Temp\ccruImXQ.s:8868   .data.__compound_literal.157:00000000 $d
C:\Users\DJESSOU\AppData\Local\Temp\ccruImXQ.s:8874   .data.__compound_literal.156:00000000 $d
C:\Users\DJESSOU\AppData\Local\Temp\ccruImXQ.s:8883   .data.__compound_literal.155:00000000 $d
C:\Users\DJESSOU\AppData\Local\Temp\ccruImXQ.s:8892   .data.__compound_literal.154:00000000 $d
C:\Users\DJESSOU\AppData\Local\Temp\ccruImXQ.s:8898   .data.__compound_literal.153:00000000 $d
C:\Users\DJESSOU\AppData\Local\Temp\ccruImXQ.s:8904   .data.__compound_literal.152:00000000 $d
C:\Users\DJESSOU\AppData\Local\Temp\ccruImXQ.s:8913   .data.__compound_literal.151:00000000 $d
C:\Users\DJESSOU\AppData\Local\Temp\ccruImXQ.s:8919   .data.__compound_literal.150:00000000 $d
C:\Users\DJESSOU\AppData\Local\Temp\ccruImXQ.s:8925   .data.__compound_literal.149:00000000 $d
C:\Users\DJESSOU\AppData\Local\Temp\ccruImXQ.s:8934   .data.__compound_literal.148:00000000 $d
C:\Users\DJESSOU\AppData\Local\Temp\ccruImXQ.s:8940   .data.__compound_literal.147:00000000 $d
C:\Users\DJESSOU\AppData\Local\Temp\ccruImXQ.s:8946   .data.__compound_literal.146:00000000 $d
C:\Users\DJESSOU\AppData\Local\Temp\ccruImXQ.s:8955   .data.__compound_literal.145:00000000 $d
C:\Users\DJESSOU\AppData\Local\Temp\ccruImXQ.s:8961   .data.__compound_literal.144:00000000 $d
C:\Users\DJESSOU\AppData\Local\Temp\ccruImXQ.s:8967   .data.__compound_literal.143:00000000 $d
C:\Users\DJESSOU\AppData\Local\Temp\ccruImXQ.s:8976   .data.__compound_literal.142:00000000 $d
C:\Users\DJESSOU\AppData\Local\Temp\ccruImXQ.s:8982   .data.__compound_literal.141:00000000 $d
C:\Users\DJESSOU\AppData\Local\Temp\ccruImXQ.s:8988   .data.__compound_literal.140:00000000 $d
C:\Users\DJESSOU\AppData\Local\Temp\ccruImXQ.s:8997   .data.__compound_literal.139:00000000 $d
C:\Users\DJESSOU\AppData\Local\Temp\ccruImXQ.s:9006   .data.__compound_literal.138:00000000 $d
C:\Users\DJESSOU\AppData\Local\Temp\ccruImXQ.s:9012   .data.__compound_literal.137:00000000 $d
C:\Users\DJESSOU\AppData\Local\Temp\ccruImXQ.s:9018   .data.__compound_literal.136:00000000 $d
C:\Users\DJESSOU\AppData\Local\Temp\ccruImXQ.s:9027   .data.__compound_literal.135:00000000 $d
C:\Users\DJESSOU\AppData\Local\Temp\ccruImXQ.s:9033   .data.__compound_literal.134:00000000 $d
C:\Users\DJESSOU\AppData\Local\Temp\ccruImXQ.s:9039   .data.__compound_literal.133:00000000 $d
C:\Users\DJESSOU\AppData\Local\Temp\ccruImXQ.s:9048   .data.__compound_literal.132:00000000 $d
C:\Users\DJESSOU\AppData\Local\Temp\ccruImXQ.s:9054   .data.__compound_literal.131:00000000 $d
C:\Users\DJESSOU\AppData\Local\Temp\ccruImXQ.s:9060   .data.__compound_literal.130:00000000 $d
C:\Users\DJESSOU\AppData\Local\Temp\ccruImXQ.s:9069   .data.__compound_literal.129:00000000 $d
C:\Users\DJESSOU\AppData\Local\Temp\ccruImXQ.s:9075   .data.__compound_literal.128:00000000 $d
C:\Users\DJESSOU\AppData\Local\Temp\ccruImXQ.s:9081   .data.__compound_literal.127:00000000 $d
C:\Users\DJESSOU\AppData\Local\Temp\ccruImXQ.s:9090   .bss.__compound_literal.126:00000000 $d
C:\Users\DJESSOU\AppData\Local\Temp\ccruImXQ.s:9096   .data.__compound_literal.125:00000000 $d
C:\Users\DJESSOU\AppData\Local\Temp\ccruImXQ.s:9102   .data.__compound_literal.124:00000000 $d
C:\Users\DJESSOU\AppData\Local\Temp\ccruImXQ.s:9111   .data.__compound_literal.123:00000000 $d
C:\Users\DJESSOU\AppData\Local\Temp\ccruImXQ.s:9120   .data.__compound_literal.122:00000000 $d
C:\Users\DJESSOU\AppData\Local\Temp\ccruImXQ.s:9126   .data.__compound_literal.121:00000000 $d
C:\Users\DJESSOU\AppData\Local\Temp\ccruImXQ.s:9132   .data.__compound_literal.120:00000000 $d
C:\Users\DJESSOU\AppData\Local\Temp\ccruImXQ.s:9141   .data.__compound_literal.119:00000000 $d
C:\Users\DJESSOU\AppData\Local\Temp\ccruImXQ.s:9147   .data.__compound_literal.118:00000000 $d
C:\Users\DJESSOU\AppData\Local\Temp\ccruImXQ.s:9153   .data.__compound_literal.117:00000000 $d
C:\Users\DJESSOU\AppData\Local\Temp\ccruImXQ.s:9162   .data.__compound_literal.116:00000000 $d
C:\Users\DJESSOU\AppData\Local\Temp\ccruImXQ.s:9168   .data.__compound_literal.115:00000000 $d
C:\Users\DJESSOU\AppData\Local\Temp\ccruImXQ.s:9174   .data.__compound_literal.114:00000000 $d
C:\Users\DJESSOU\AppData\Local\Temp\ccruImXQ.s:9183   .data.__compound_literal.113:00000000 $d
C:\Users\DJESSOU\AppData\Local\Temp\ccruImXQ.s:9189   .data.__compound_literal.112:00000000 $d
C:\Users\DJESSOU\AppData\Local\Temp\ccruImXQ.s:9195   .data.__compound_literal.111:00000000 $d
C:\Users\DJESSOU\AppData\Local\Temp\ccruImXQ.s:9204   .data.__compound_literal.110:00000000 $d
C:\Users\DJESSOU\AppData\Local\Temp\ccruImXQ.s:9210   .data.__compound_literal.109:00000000 $d
C:\Users\DJESSOU\AppData\Local\Temp\ccruImXQ.s:9216   .data.__compound_literal.108:00000000 $d
C:\Users\DJESSOU\AppData\Local\Temp\ccruImXQ.s:9225   .data.__compound_literal.107:00000000 $d
C:\Users\DJESSOU\AppData\Local\Temp\ccruImXQ.s:9234   .data.__compound_literal.106:00000000 $d
ARM GAS  C:\Users\DJESSOU\AppData\Local\Temp\ccruImXQ.s 			page 223


C:\Users\DJESSOU\AppData\Local\Temp\ccruImXQ.s:9240   .data.__compound_literal.105:00000000 $d
C:\Users\DJESSOU\AppData\Local\Temp\ccruImXQ.s:9246   .data.__compound_literal.104:00000000 $d
C:\Users\DJESSOU\AppData\Local\Temp\ccruImXQ.s:9255   .data.__compound_literal.103:00000000 $d
C:\Users\DJESSOU\AppData\Local\Temp\ccruImXQ.s:9261   .data.__compound_literal.102:00000000 $d
C:\Users\DJESSOU\AppData\Local\Temp\ccruImXQ.s:9267   .data.__compound_literal.101:00000000 $d
C:\Users\DJESSOU\AppData\Local\Temp\ccruImXQ.s:9276   .data.__compound_literal.100:00000000 $d
C:\Users\DJESSOU\AppData\Local\Temp\ccruImXQ.s:9282   .data.__compound_literal.99:00000000 $d
C:\Users\DJESSOU\AppData\Local\Temp\ccruImXQ.s:9288   .data.__compound_literal.98:00000000 $d
C:\Users\DJESSOU\AppData\Local\Temp\ccruImXQ.s:9297   .data.__compound_literal.97:00000000 $d
C:\Users\DJESSOU\AppData\Local\Temp\ccruImXQ.s:9303   .data.__compound_literal.96:00000000 $d
C:\Users\DJESSOU\AppData\Local\Temp\ccruImXQ.s:9309   .data.__compound_literal.95:00000000 $d
C:\Users\DJESSOU\AppData\Local\Temp\ccruImXQ.s:9318   .data.__compound_literal.94:00000000 $d
C:\Users\DJESSOU\AppData\Local\Temp\ccruImXQ.s:9324   .data.__compound_literal.93:00000000 $d
C:\Users\DJESSOU\AppData\Local\Temp\ccruImXQ.s:9330   .data.__compound_literal.92:00000000 $d
C:\Users\DJESSOU\AppData\Local\Temp\ccruImXQ.s:9339   .data.__compound_literal.91:00000000 $d
C:\Users\DJESSOU\AppData\Local\Temp\ccruImXQ.s:9345   .data.__compound_literal.90:00000000 $d
C:\Users\DJESSOU\AppData\Local\Temp\ccruImXQ.s:9351   .data.__compound_literal.89:00000000 $d
C:\Users\DJESSOU\AppData\Local\Temp\ccruImXQ.s:9360   .data.__compound_literal.88:00000000 $d
C:\Users\DJESSOU\AppData\Local\Temp\ccruImXQ.s:9369   .data.__compound_literal.87:00000000 $d
C:\Users\DJESSOU\AppData\Local\Temp\ccruImXQ.s:9375   .data.__compound_literal.86:00000000 $d
C:\Users\DJESSOU\AppData\Local\Temp\ccruImXQ.s:9381   .data.__compound_literal.85:00000000 $d
C:\Users\DJESSOU\AppData\Local\Temp\ccruImXQ.s:9390   .data.__compound_literal.84:00000000 $d
C:\Users\DJESSOU\AppData\Local\Temp\ccruImXQ.s:9396   .data.__compound_literal.83:00000000 $d
C:\Users\DJESSOU\AppData\Local\Temp\ccruImXQ.s:9402   .data.__compound_literal.82:00000000 $d
C:\Users\DJESSOU\AppData\Local\Temp\ccruImXQ.s:9411   .data.__compound_literal.81:00000000 $d
C:\Users\DJESSOU\AppData\Local\Temp\ccruImXQ.s:9417   .data.__compound_literal.80:00000000 $d
C:\Users\DJESSOU\AppData\Local\Temp\ccruImXQ.s:9423   .data.__compound_literal.79:00000000 $d
C:\Users\DJESSOU\AppData\Local\Temp\ccruImXQ.s:9432   .data.__compound_literal.78:00000000 $d
C:\Users\DJESSOU\AppData\Local\Temp\ccruImXQ.s:9438   .data.__compound_literal.77:00000000 $d
C:\Users\DJESSOU\AppData\Local\Temp\ccruImXQ.s:9444   .data.__compound_literal.76:00000000 $d
C:\Users\DJESSOU\AppData\Local\Temp\ccruImXQ.s:9454   .data.__compound_literal.75:00000000 $d
C:\Users\DJESSOU\AppData\Local\Temp\ccruImXQ.s:9460   .data.__compound_literal.74:00000000 $d
C:\Users\DJESSOU\AppData\Local\Temp\ccruImXQ.s:9466   .data.__compound_literal.73:00000000 $d
C:\Users\DJESSOU\AppData\Local\Temp\ccruImXQ.s:9476   .data.__compound_literal.72:00000000 $d
C:\Users\DJESSOU\AppData\Local\Temp\ccruImXQ.s:9482   .data.__compound_literal.71:00000000 $d
C:\Users\DJESSOU\AppData\Local\Temp\ccruImXQ.s:9488   .data.__compound_literal.70:00000000 $d
C:\Users\DJESSOU\AppData\Local\Temp\ccruImXQ.s:9497   .data.__compound_literal.69:00000000 $d
C:\Users\DJESSOU\AppData\Local\Temp\ccruImXQ.s:9503   .data.__compound_literal.68:00000000 $d
C:\Users\DJESSOU\AppData\Local\Temp\ccruImXQ.s:9509   .data.__compound_literal.67:00000000 $d
C:\Users\DJESSOU\AppData\Local\Temp\ccruImXQ.s:9518   .data.__compound_literal.66:00000000 $d
C:\Users\DJESSOU\AppData\Local\Temp\ccruImXQ.s:9524   .data.__compound_literal.65:00000000 $d
C:\Users\DJESSOU\AppData\Local\Temp\ccruImXQ.s:9530   .data.__compound_literal.64:00000000 $d
C:\Users\DJESSOU\AppData\Local\Temp\ccruImXQ.s:9539   .data.__compound_literal.63:00000000 $d
C:\Users\DJESSOU\AppData\Local\Temp\ccruImXQ.s:9545   .data.__compound_literal.62:00000000 $d
C:\Users\DJESSOU\AppData\Local\Temp\ccruImXQ.s:9551   .data.__compound_literal.61:00000000 $d
C:\Users\DJESSOU\AppData\Local\Temp\ccruImXQ.s:9561   .data.__compound_literal.60:00000000 $d
C:\Users\DJESSOU\AppData\Local\Temp\ccruImXQ.s:9567   .data.__compound_literal.59:00000000 $d
C:\Users\DJESSOU\AppData\Local\Temp\ccruImXQ.s:9573   .data.__compound_literal.58:00000000 $d
C:\Users\DJESSOU\AppData\Local\Temp\ccruImXQ.s:9583   .data.__compound_literal.57:00000000 $d
C:\Users\DJESSOU\AppData\Local\Temp\ccruImXQ.s:9589   .data.__compound_literal.56:00000000 $d
C:\Users\DJESSOU\AppData\Local\Temp\ccruImXQ.s:9595   .data.__compound_literal.55:00000000 $d
C:\Users\DJESSOU\AppData\Local\Temp\ccruImXQ.s:9604   .data.__compound_literal.54:00000000 $d
C:\Users\DJESSOU\AppData\Local\Temp\ccruImXQ.s:9610   .data.__compound_literal.53:00000000 $d
C:\Users\DJESSOU\AppData\Local\Temp\ccruImXQ.s:9616   .data.__compound_literal.52:00000000 $d
C:\Users\DJESSOU\AppData\Local\Temp\ccruImXQ.s:9625   .data.__compound_literal.51:00000000 $d
C:\Users\DJESSOU\AppData\Local\Temp\ccruImXQ.s:9631   .data.__compound_literal.50:00000000 $d
C:\Users\DJESSOU\AppData\Local\Temp\ccruImXQ.s:9637   .data.__compound_literal.49:00000000 $d
ARM GAS  C:\Users\DJESSOU\AppData\Local\Temp\ccruImXQ.s 			page 224


C:\Users\DJESSOU\AppData\Local\Temp\ccruImXQ.s:9646   .data.__compound_literal.48:00000000 $d
C:\Users\DJESSOU\AppData\Local\Temp\ccruImXQ.s:9652   .data.__compound_literal.47:00000000 $d
C:\Users\DJESSOU\AppData\Local\Temp\ccruImXQ.s:9658   .data.__compound_literal.46:00000000 $d
C:\Users\DJESSOU\AppData\Local\Temp\ccruImXQ.s:9668   .data.__compound_literal.45:00000000 $d
C:\Users\DJESSOU\AppData\Local\Temp\ccruImXQ.s:9674   .data.__compound_literal.44:00000000 $d
C:\Users\DJESSOU\AppData\Local\Temp\ccruImXQ.s:9680   .data.__compound_literal.43:00000000 $d
C:\Users\DJESSOU\AppData\Local\Temp\ccruImXQ.s:9690   .data.__compound_literal.42:00000000 $d
C:\Users\DJESSOU\AppData\Local\Temp\ccruImXQ.s:9696   .data.__compound_literal.41:00000000 $d
C:\Users\DJESSOU\AppData\Local\Temp\ccruImXQ.s:9702   .data.__compound_literal.40:00000000 $d
C:\Users\DJESSOU\AppData\Local\Temp\ccruImXQ.s:9711   .data.__compound_literal.39:00000000 $d
C:\Users\DJESSOU\AppData\Local\Temp\ccruImXQ.s:9717   .data.__compound_literal.38:00000000 $d
C:\Users\DJESSOU\AppData\Local\Temp\ccruImXQ.s:9723   .data.__compound_literal.37:00000000 $d
C:\Users\DJESSOU\AppData\Local\Temp\ccruImXQ.s:9732   .data.__compound_literal.36:00000000 $d
C:\Users\DJESSOU\AppData\Local\Temp\ccruImXQ.s:9738   .data.__compound_literal.35:00000000 $d
C:\Users\DJESSOU\AppData\Local\Temp\ccruImXQ.s:9744   .data.__compound_literal.34:00000000 $d
C:\Users\DJESSOU\AppData\Local\Temp\ccruImXQ.s:9753   .data.__compound_literal.33:00000000 $d
C:\Users\DJESSOU\AppData\Local\Temp\ccruImXQ.s:9759   .data.__compound_literal.32:00000000 $d
C:\Users\DJESSOU\AppData\Local\Temp\ccruImXQ.s:9765   .data.__compound_literal.31:00000000 $d
C:\Users\DJESSOU\AppData\Local\Temp\ccruImXQ.s:9775   .data.__compound_literal.30:00000000 $d
C:\Users\DJESSOU\AppData\Local\Temp\ccruImXQ.s:9781   .data.__compound_literal.29:00000000 $d
C:\Users\DJESSOU\AppData\Local\Temp\ccruImXQ.s:9787   .data.__compound_literal.28:00000000 $d
C:\Users\DJESSOU\AppData\Local\Temp\ccruImXQ.s:9797   .data.__compound_literal.27:00000000 $d
C:\Users\DJESSOU\AppData\Local\Temp\ccruImXQ.s:9803   .data.__compound_literal.26:00000000 $d
C:\Users\DJESSOU\AppData\Local\Temp\ccruImXQ.s:9809   .data.__compound_literal.25:00000000 $d
C:\Users\DJESSOU\AppData\Local\Temp\ccruImXQ.s:9818   .data.__compound_literal.24:00000000 $d
C:\Users\DJESSOU\AppData\Local\Temp\ccruImXQ.s:9824   .data.__compound_literal.23:00000000 $d
C:\Users\DJESSOU\AppData\Local\Temp\ccruImXQ.s:9830   .data.__compound_literal.22:00000000 $d
C:\Users\DJESSOU\AppData\Local\Temp\ccruImXQ.s:9839   .data.__compound_literal.21:00000000 $d
C:\Users\DJESSOU\AppData\Local\Temp\ccruImXQ.s:9845   .data.__compound_literal.20:00000000 $d
C:\Users\DJESSOU\AppData\Local\Temp\ccruImXQ.s:9851   .data.__compound_literal.19:00000000 $d
C:\Users\DJESSOU\AppData\Local\Temp\ccruImXQ.s:9860   .bss.__compound_literal.18:00000000 $d
C:\Users\DJESSOU\AppData\Local\Temp\ccruImXQ.s:9866   .data.__compound_literal.17:00000000 $d
C:\Users\DJESSOU\AppData\Local\Temp\ccruImXQ.s:9872   .data.__compound_literal.16:00000000 $d
C:\Users\DJESSOU\AppData\Local\Temp\ccruImXQ.s:9882   .data.__compound_literal.15:00000000 $d
C:\Users\DJESSOU\AppData\Local\Temp\ccruImXQ.s:9888   .data.__compound_literal.14:00000000 $d
C:\Users\DJESSOU\AppData\Local\Temp\ccruImXQ.s:9894   .data.__compound_literal.13:00000000 $d
C:\Users\DJESSOU\AppData\Local\Temp\ccruImXQ.s:9904   .bss.__compound_literal.12:00000000 $d
C:\Users\DJESSOU\AppData\Local\Temp\ccruImXQ.s:9910   .data.__compound_literal.11:00000000 $d
C:\Users\DJESSOU\AppData\Local\Temp\ccruImXQ.s:9916   .data.__compound_literal.10:00000000 $d
C:\Users\DJESSOU\AppData\Local\Temp\ccruImXQ.s:9925   .bss.__compound_literal.9:00000000 $d
C:\Users\DJESSOU\AppData\Local\Temp\ccruImXQ.s:9931   .data.__compound_literal.8:00000000 $d
C:\Users\DJESSOU\AppData\Local\Temp\ccruImXQ.s:9937   .data.__compound_literal.7:00000000 $d
C:\Users\DJESSOU\AppData\Local\Temp\ccruImXQ.s:9951   .data.__compound_literal.6:00000000 $d
C:\Users\DJESSOU\AppData\Local\Temp\ccruImXQ.s:9987   .data.__compound_literal.4:00000000 __compound_literal.4
C:\Users\DJESSOU\AppData\Local\Temp\ccruImXQ.s:9979   .data.__compound_literal.5:00000000 __compound_literal.5
C:\Users\DJESSOU\AppData\Local\Temp\ccruImXQ.s:9976   .data.__compound_literal.5:00000000 $d
C:\Users\DJESSOU\AppData\Local\Temp\ccruImXQ.s:9984   .data.__compound_literal.4:00000000 $d
C:\Users\DJESSOU\AppData\Local\Temp\ccruImXQ.s:9995   .data.__compound_literal.3:00000000 $d
C:\Users\DJESSOU\AppData\Local\Temp\ccruImXQ.s:10025  .data.__compound_literal.0:00000000 __compound_literal.0
C:\Users\DJESSOU\AppData\Local\Temp\ccruImXQ.s:10019  .data.__compound_literal.1:00000000 __compound_literal.1
C:\Users\DJESSOU\AppData\Local\Temp\ccruImXQ.s:10013  .bss.__compound_literal.2:00000000 __compound_literal.2
C:\Users\DJESSOU\AppData\Local\Temp\ccruImXQ.s:10010  .bss.__compound_literal.2:00000000 $d
C:\Users\DJESSOU\AppData\Local\Temp\ccruImXQ.s:10016  .data.__compound_literal.1:00000000 $d
C:\Users\DJESSOU\AppData\Local\Temp\ccruImXQ.s:10022  .data.__compound_literal.0:00000000 $d
C:\Users\DJESSOU\AppData\Local\Temp\ccruImXQ.s:10031  .rodata.NN_Interface_palm_detector:00000000 $d
                           .group:00000000 wm4.0.c530a555507323ed657a04d5a22acbf4
                           .group:00000000 wm4.ll_aton_config.h.20.27cfa9f6f5afc4105991355367358a39
ARM GAS  C:\Users\DJESSOU\AppData\Local\Temp\ccruImXQ.s 			page 225


                           .group:00000000 wm4.stdbool.h.29.c08aa3eec75cf5b9b5003883f43253f0
                           .group:00000000 wm4.stddef.h.39.0dc9006b34572d4d9cae4c8b422c4971
                           .group:00000000 wm4._newlib_version.h.4.411db44ea2338a62eca2f0777f81481b
                           .group:00000000 wm4.features.h.33.e0c9f337c65cb9f22ed5f23d082bc78b
                           .group:00000000 wm4._default_types.h.15.247e5cd201eca3442cbf5404108c4935
                           .group:00000000 wm4._intsup.h.10.48bafbb683905c4daa4565a85aeeb264
                           .group:00000000 wm4._stdint.h.10.c24fa3af3bc1706662bb5593a907e841
                           .group:00000000 wm4.stdint.h.23.d53047a68f4a85177f80b422d52785ed
                           .group:00000000 wm4.ll_aton_attributes.h.20.26d469460cb32db5740effdc8cc403f3
                           .group:00000000 wm4.ll_aton_cipher.h.20.e98fdae11c912f4036a83cedb835e14e
                           .group:00000000 wm4.newlib.h.7.a37ffbe9e5aff74303f4e60b1cc1c01b
                           .group:00000000 wm4.ieeefp.h.77.bd5feb87d9990dd328793ced294f6a87
                           .group:00000000 wm4.config.h.224.10ee1ad185d877c6e334e6581faab44d
                           .group:00000000 wm4._ansi.h.31.de524f58584151836e90d8620a16f8e8
                           .group:00000000 wm4.assert.h.11.db24e541f16414db224bf986d21017e2
                           .group:00000000 wm4.errno.h.2.ba016d646105af6cad23be83630b6a3f
                           .group:00000000 wm4.cdefs.h.49.70fc7af612f78ddcace70fdd90b5623b
                           .group:00000000 wm4._types.h.20.dd0d04dca3800a0d2a6129b87f3adbb2
                           .group:00000000 wm4.stddef.h.158.6f8e08a347b1cff664332fa350bfceb3
                           .group:00000000 wm4._types.h.127.3bdfe3ff8ea2d0985b03d9cbe93480e3
                           .group:00000000 wm4.reent.h.18.25503cdc8b7e55dd0d6ea7b3e5af7a03
                           .group:00000000 wm4.lock.h.2.1461d1fff82dffe8bfddc23307f6484f
                           .group:00000000 wm4.reent.h.78.6b87466b04591b1f1cb88c14fdf2ba9e
                           .group:00000000 wm4.errno.h.18.87873c1c5b242e8a4fdc43daa9aad824
                           .group:00000000 wm4.stdio.h.27.3fc80220048df77954e38daec3bb9670
                           .group:00000000 wm4.stddef.h.158.eec8bf00b5213f43d095cb984c5f22e3
                           .group:00000000 wm4.stdarg.h.34.3a23a216c0c293b3d2ea2e89281481e6
                           .group:00000000 wm4.stdio.h.47.dc31ec4674d7bcb103c9f08809549f45
                           .group:00000000 wm4.stdio.h.2.4aa87247282eca6c8f36f9de33d8df1a
                           .group:00000000 wm4.stdio.h.87.a1e20d2651f9bfb66e51bfbe849db00a
                           .group:00000000 wm4.ll_aton_util.h.34.9098eaa90d3d72b819973556e3e5fe44
                           .group:00000000 wm4.FreeRTOS.h.59.647b1b0da38e4e98108aae13c8abe9ee
                           .group:00000000 wm4.assert.h.11.d99a111e320bc5106fc4046225782672
                           .group:00000000 wm4.FreeRTOSConfig.h.59.2629c72cff9e6dbe880a2dc225eae516
                           .group:00000000 wm4.FreeRTOS.h.80.7742fabaf5accf3762dc12f7f259a8a0
                           .group:00000000 wm4.projdefs.h.30.55a824156f299c075c33148a9fdadb99
                           .group:00000000 wm4.portmacro.h.30.cbb4b2da41f551c2a9904f0d03a1ce3e
                           .group:00000000 wm4.portmacrocommon.h.30.d5cb67896ab50a95311be7e023da5c4f
                           .group:00000000 wm4.portmacro.h.68.4051ecf710d074fb55b16d91dfebeeaa
                           .group:00000000 wm4.portable.h.61.d557c57974d490f056246a26cdcddd6c
                           .group:00000000 wm4.mpu_wrappers.h.30.ccc5f1a6903f941a88c268f5f62af3fe
                           .group:00000000 wm4.portable.h.189.522b8bd52a171d3fd1432ef06d0caa63
                           .group:00000000 wm4.FreeRTOS.h.102.fb871f3e464d99c5a57b3115545a02ad
                           .group:00000000 wm4.list.h.59.bce6419520cd4f5f98779a1530bf2118
                           .group:00000000 wm4.task.h.56.84290139c73b47f5b9aac361361a2a31
                           .group:00000000 wm4.queue.h.68.219f47fba8b59640449b84d04c5bd6d8
                           .group:00000000 wm4.semphr.h.40.c1a9c6f5bf0feb4da0b6a45d234a79d0
                           .group:00000000 wm4.ll_aton_platform.h.20.8f1d4e7781c282794886ffdd00ccd30b
                           .group:00000000 wm4.stm32n6xx.h.34.c523a1ffdf274a69e8802892c6776332
                           .group:00000000 wm4.stm32n657xx.h.26.acd272cb67318cc1a4791ce2f0720ca6
                           .group:00000000 wm4.cmsis_version.h.30.d128735bf87720f7436b74fefeb5043c
                           .group:00000000 wm4.core_cm55.h.67.25006a3ce7048d64bcddd2996d5fac93
                           .group:00000000 wm4.arm_acle.h.28.ce8f475a5cc50333e54ae4adeb8c0298
                           .group:00000000 wm4.cmsis_gcc.h.39.eba7438bc45fd1a6e6376b63ffe44436
                           .group:00000000 wm4.cmsis_gcc_m.h.24.e590ec51aeda3a1242400351d73f5dce
                           .group:00000000 wm4.core_cm55.h.213.0528f46a674315ef8d35c4477e230358
                           .group:00000000 wm4.armv8m_mpu.h.24.bf28cc25bee30a7ff9d2f7a44a5e2230
ARM GAS  C:\Users\DJESSOU\AppData\Local\Temp\ccruImXQ.s 			page 226


                           .group:00000000 wm4.armv8m_pmu.h.24.6ded195d2625055391fd378c0e1d2519
                           .group:00000000 wm4.core_cm55.h.4477.396e822ef855bcfb932819ad48de1c4c
                           .group:00000000 wm4.armv7m_cachel1.h.24.936dd92d6e204a8d0b17d5e4ea4a356e
                           .group:00000000 wm4.stm32n657xx.h.575.78d331c417ec710388ced647138f735f
                           .group:00000000 wm4.stm32n6xx.h.116.b4247d9785590e7c5ec9234ffb2153bf
                           .group:00000000 wm4.ll_aton_platform.h.205.098bebcb126012e5dfc0544db0a7d4c8
                           .group:00000000 wm4.inttypes.h.14.b28deb26920e51e0da310220ef0f9003
                           .group:00000000 wm4.inttypes.h.28.684aa7736e7ecc9a6ffc44acc61c7a90
                           .group:00000000 wm4.syslimits.h.34.de5cbd310098bc5895998b6bde577ed2
                           .group:00000000 wm4.limits.h.9.70fb0ada6f71b16202a66baaa6d8ea70
                           .group:00000000 wm4.limits.h.60.56a1ae353e2028a24298ec6463b8b593
                           .group:00000000 wm4.string.h.8.c4b8571ce60dff2817f43fec8b86aecd
                           .group:00000000 wm4.string.h.177.59a005921fa78485abc80a0267de5752
                           .group:00000000 wm4.ATONidxs.h.16.969ebf3fd32e13543179e6907b3869c9
                           .group:00000000 wm4.ATON.h.19.0bce86f27eb7ac354272c44c1804cd24
                           .group:00000000 wm4.ll_aton_rcompat.h.22.4788366561a5f8dfb37661f794bdd403
                           .group:00000000 wm4.ll_aton_platform.h.279.2fa1ab569e6816db5b603cc3ef09d875
                           .group:00000000 wm4.ll_aton_osal_freertos.h.63.1e66f105894f6ee9e5e9ee361a3df896
                           .group:00000000 wm4.ll_aton_osal.h.117.70ff644e90427fadc04622c387869938
                           .group:00000000 wm4.ll_aton_rt_user_api.h.71.52957347efa02883c6e8b1a7f756d297
                           .group:00000000 wm4.stai.h.24.a274645e79490de4e05332b397550d1f
                           .group:00000000 wm4.stai_debug.h.37.4be079c70c66033549ba26b63a31db94
                           .group:00000000 wm4.ll_aton_stai_internal.h.35.4ede4d59178f196dca4b635c5600498b
                           .group:00000000 wm4.stai_palm_detector.h.57.debf59e73409726805ff914e3324d286
                           .group:00000000 wm4.ll_aton_version.h.20.4fe5a5919aaeaa0d3ac9d2820d4f14d4

UNDEFINED SYMBOLS
LL_ATON_Output_Buffers_Info_palm_detector
__assert_func
LL_ATON_Input_Buffers_Info_palm_detector
LL_ATON_Internal_Buffers_Info_palm_detector
__ll_aton_stai_init_network_instance
__ll_aton_stai_deinit_network_instance
LL_ATON_RT_SetNetworkCallback
__ll_aton_stai_run
memset
_stai_aton_internal_epoch_block_callback
LL_ATON_RT_RunEpochBlock
__ll_aton_stai_set_execution_status
__ll_aton_stai_get_execution_status
__ll_aton_stai_reset
LL_ATON_EC_Network_Init_palm_detector
LL_ATON_EC_Inference_Init_palm_detector
LL_ATON_Set_User_Input_Buffer_palm_detector
LL_ATON_Get_User_Input_Buffer_palm_detector
LL_ATON_Set_User_Output_Buffer_palm_detector
LL_ATON_Get_User_Output_Buffer_palm_detector
LL_ATON_EpochBlockItems_palm_detector
LL_ATON_BlobEncryption_Info_palm_detector
LL_ATON_WeightEncryption_Info_palm_detector
