ARM GAS  C:\Users\DJESSOU\AppData\Local\Temp\ccfF5lhd.s 			page 1


   1              		.arch armv8.1-m.main
   2              		.fpu fpv5-d16
   3              		.arch_extension dsp
   4              		.arch_extension fp
   5              		.arch_extension fp.dp
   6              		.arch_extension mve
   7              		.arch_extension mve.fp
   8              		.eabi_attribute 5, "cortex-m55"
   9              		.eabi_attribute 28, 1
  10              		.eabi_attribute 20, 1
  11              		.eabi_attribute 21, 1
  12              		.eabi_attribute 23, 3
  13              		.eabi_attribute 24, 1
  14              		.eabi_attribute 25, 1
  15              		.eabi_attribute 26, 1
  16              		.eabi_attribute 30, 4
  17              		.eabi_attribute 34, 1
  18              		.eabi_attribute 38, 1
  19              		.eabi_attribute 18, 4
  20              		.file	"stai_hand_landmark.c"
  21              		.text
  22              	.Ltext0:
  23              		.cfi_sections	.debug_frame
  24              		.file 1 "Model/stai_hand_landmark.c"
  25              		.section	.text.LL_Buffer_addr_start,"ax",%progbits
  26              		.align	1
  27              		.syntax unified
  28              		.thumb
  29              		.thumb_func
  31              	LL_Buffer_addr_start:
  32              	.LVL0:
  33              	.LFB15:
  34              		.file 2 "Lib/AI_Runtime/Npu/ll_aton/ll_aton_NN_interface.h"
   1:Lib/AI_Runtime/Npu/ll_aton/ll_aton_NN_interface.h **** /**
   2:Lib/AI_Runtime/Npu/ll_aton/ll_aton_NN_interface.h ****  ******************************************************************************
   3:Lib/AI_Runtime/Npu/ll_aton/ll_aton_NN_interface.h ****  * @file    ll_aton_NN_interface.h
   4:Lib/AI_Runtime/Npu/ll_aton/ll_aton_NN_interface.h ****  * @author  SRA Artificial Intelligence & Embedded Architectures
   5:Lib/AI_Runtime/Npu/ll_aton/ll_aton_NN_interface.h ****  * @brief   Interface that defines a NN generated by the AtoNN Compiler.
   6:Lib/AI_Runtime/Npu/ll_aton/ll_aton_NN_interface.h ****  ******************************************************************************
   7:Lib/AI_Runtime/Npu/ll_aton/ll_aton_NN_interface.h ****  * @attention
   8:Lib/AI_Runtime/Npu/ll_aton/ll_aton_NN_interface.h ****  *
   9:Lib/AI_Runtime/Npu/ll_aton/ll_aton_NN_interface.h ****  * Copyright (c) 2024 STMicroelectronics.
  10:Lib/AI_Runtime/Npu/ll_aton/ll_aton_NN_interface.h ****  * All rights reserved.
  11:Lib/AI_Runtime/Npu/ll_aton/ll_aton_NN_interface.h ****  *
  12:Lib/AI_Runtime/Npu/ll_aton/ll_aton_NN_interface.h ****  * This software is licensed under terms that can be found in the LICENSE file
  13:Lib/AI_Runtime/Npu/ll_aton/ll_aton_NN_interface.h ****  * in the root directory of this software component.
  14:Lib/AI_Runtime/Npu/ll_aton/ll_aton_NN_interface.h ****  * If no LICENSE file comes with this software, it is provided AS-IS.
  15:Lib/AI_Runtime/Npu/ll_aton/ll_aton_NN_interface.h ****  *
  16:Lib/AI_Runtime/Npu/ll_aton/ll_aton_NN_interface.h ****  ******************************************************************************
  17:Lib/AI_Runtime/Npu/ll_aton/ll_aton_NN_interface.h ****  */
  18:Lib/AI_Runtime/Npu/ll_aton/ll_aton_NN_interface.h **** 
  19:Lib/AI_Runtime/Npu/ll_aton/ll_aton_NN_interface.h **** #ifndef __LL_ATON_NN_INTERFACE_H
  20:Lib/AI_Runtime/Npu/ll_aton/ll_aton_NN_interface.h **** #define __LL_ATON_NN_INTERFACE_H
  21:Lib/AI_Runtime/Npu/ll_aton/ll_aton_NN_interface.h **** 
  22:Lib/AI_Runtime/Npu/ll_aton/ll_aton_NN_interface.h **** #ifdef __cplusplus
  23:Lib/AI_Runtime/Npu/ll_aton/ll_aton_NN_interface.h **** extern "C"
  24:Lib/AI_Runtime/Npu/ll_aton/ll_aton_NN_interface.h **** {
ARM GAS  C:\Users\DJESSOU\AppData\Local\Temp\ccfF5lhd.s 			page 2


  25:Lib/AI_Runtime/Npu/ll_aton/ll_aton_NN_interface.h **** #endif
  26:Lib/AI_Runtime/Npu/ll_aton/ll_aton_NN_interface.h **** 
  27:Lib/AI_Runtime/Npu/ll_aton/ll_aton_NN_interface.h **** #include <stdbool.h>
  28:Lib/AI_Runtime/Npu/ll_aton/ll_aton_NN_interface.h **** #include <stddef.h>
  29:Lib/AI_Runtime/Npu/ll_aton/ll_aton_NN_interface.h **** #include <stdint.h>
  30:Lib/AI_Runtime/Npu/ll_aton/ll_aton_NN_interface.h **** 
  31:Lib/AI_Runtime/Npu/ll_aton/ll_aton_NN_interface.h **** #include "ll_aton_config.h"
  32:Lib/AI_Runtime/Npu/ll_aton/ll_aton_NN_interface.h **** 
  33:Lib/AI_Runtime/Npu/ll_aton/ll_aton_NN_interface.h **** #include "ll_aton_attributes.h"
  34:Lib/AI_Runtime/Npu/ll_aton/ll_aton_NN_interface.h **** #include "ll_aton_cipher.h"
  35:Lib/AI_Runtime/Npu/ll_aton/ll_aton_NN_interface.h **** #include "ll_aton_util.h"
  36:Lib/AI_Runtime/Npu/ll_aton/ll_aton_NN_interface.h **** 
  37:Lib/AI_Runtime/Npu/ll_aton/ll_aton_NN_interface.h ****   /** @defgroup User I/O Return Values & Callback Event Types
  38:Lib/AI_Runtime/Npu/ll_aton/ll_aton_NN_interface.h ****    * @{
  39:Lib/AI_Runtime/Npu/ll_aton/ll_aton_NN_interface.h ****    */
  40:Lib/AI_Runtime/Npu/ll_aton/ll_aton_NN_interface.h **** 
  41:Lib/AI_Runtime/Npu/ll_aton/ll_aton_NN_interface.h ****   typedef enum LL_ATON_User_IO_Result
  42:Lib/AI_Runtime/Npu/ll_aton/ll_aton_NN_interface.h ****   {
  43:Lib/AI_Runtime/Npu/ll_aton/ll_aton_NN_interface.h ****     LL_ATON_User_IO_NOERROR,     /**< */
  44:Lib/AI_Runtime/Npu/ll_aton/ll_aton_NN_interface.h ****     LL_ATON_User_IO_WRONG_ALIGN, /**< */
  45:Lib/AI_Runtime/Npu/ll_aton/ll_aton_NN_interface.h ****     LL_ATON_User_IO_WRONG_SIZE,  /**< */
  46:Lib/AI_Runtime/Npu/ll_aton/ll_aton_NN_interface.h ****     LL_ATON_User_IO_WRONG_INDEX, /**< */
  47:Lib/AI_Runtime/Npu/ll_aton/ll_aton_NN_interface.h ****   } LL_ATON_User_IO_Result_t;
  48:Lib/AI_Runtime/Npu/ll_aton/ll_aton_NN_interface.h **** 
  49:Lib/AI_Runtime/Npu/ll_aton/ll_aton_NN_interface.h ****   typedef enum LL_ATON_RT_Callbacktype
  50:Lib/AI_Runtime/Npu/ll_aton/ll_aton_NN_interface.h ****   {
  51:Lib/AI_Runtime/Npu/ll_aton/ll_aton_NN_interface.h ****     LL_ATON_RT_Callbacktype_PRE_START,  /**< Callback called before start_epoch_block */
  52:Lib/AI_Runtime/Npu/ll_aton/ll_aton_NN_interface.h ****     LL_ATON_RT_Callbacktype_POST_START, /**< Callback called after start_epoch_block */
  53:Lib/AI_Runtime/Npu/ll_aton/ll_aton_NN_interface.h ****     LL_ATON_RT_Callbacktype_PRE_END,    /**< Callback called before end_epoch_block */
  54:Lib/AI_Runtime/Npu/ll_aton/ll_aton_NN_interface.h ****     LL_ATON_RT_Callbacktype_POST_END,   /**< Callback called after end_epoch_block */
  55:Lib/AI_Runtime/Npu/ll_aton/ll_aton_NN_interface.h ****     LL_ATON_RT_Callbacktype_NN_Init,    /**< Callback called after `LL_ATON_RT_Init_Network`,
  56:Lib/AI_Runtime/Npu/ll_aton/ll_aton_NN_interface.h ****                                          *     NOTE: 3rd parameter passed is `NULL` */
  57:Lib/AI_Runtime/Npu/ll_aton/ll_aton_NN_interface.h ****     LL_ATON_RT_Callbacktype_NN_DeInit,  /**< Callback called after `LL_ATON_RT_DeInit_Network`,
  58:Lib/AI_Runtime/Npu/ll_aton/ll_aton_NN_interface.h ****                                          *     NOTE: 3rd parameter passed is `NULL` */
  59:Lib/AI_Runtime/Npu/ll_aton/ll_aton_NN_interface.h ****     LL_ATON_RT_Callbacktype_RT_Init,    /**< Callback called after `LL_ATON_RT_RuntimeInit` */
  60:Lib/AI_Runtime/Npu/ll_aton/ll_aton_NN_interface.h ****     LL_ATON_RT_Callbacktype_RT_Deinit,  /**< Callback called before `LL_ATON_RT_RuntimeDeInit` */
  61:Lib/AI_Runtime/Npu/ll_aton/ll_aton_NN_interface.h ****   } LL_ATON_RT_Callbacktype_t;
  62:Lib/AI_Runtime/Npu/ll_aton/ll_aton_NN_interface.h **** 
  63:Lib/AI_Runtime/Npu/ll_aton/ll_aton_NN_interface.h ****   /**
  64:Lib/AI_Runtime/Npu/ll_aton/ll_aton_NN_interface.h ****    * @}
  65:Lib/AI_Runtime/Npu/ll_aton/ll_aton_NN_interface.h ****    */
  66:Lib/AI_Runtime/Npu/ll_aton/ll_aton_NN_interface.h **** 
  67:Lib/AI_Runtime/Npu/ll_aton/ll_aton_NN_interface.h ****   /** @defgroup Handle-style Data Types for Epoch Blocks
  68:Lib/AI_Runtime/Npu/ll_aton/ll_aton_NN_interface.h ****    * @{
  69:Lib/AI_Runtime/Npu/ll_aton/ll_aton_NN_interface.h ****    */
  70:Lib/AI_Runtime/Npu/ll_aton/ll_aton_NN_interface.h **** 
  71:Lib/AI_Runtime/Npu/ll_aton/ll_aton_NN_interface.h ****   /* this is needed to avoid some compilers (e.g. KEIL) that observe a strict semantic about conver
  72:Lib/AI_Runtime/Npu/ll_aton/ll_aton_NN_interface.h ****    * pointers to integers in cost initializers
  73:Lib/AI_Runtime/Npu/ll_aton/ll_aton_NN_interface.h ****    */
  74:Lib/AI_Runtime/Npu/ll_aton/ll_aton_NN_interface.h ****   typedef union
  75:Lib/AI_Runtime/Npu/ll_aton/ll_aton_NN_interface.h ****   {
  76:Lib/AI_Runtime/Npu/ll_aton/ll_aton_NN_interface.h ****     unsigned char *p;
  77:Lib/AI_Runtime/Npu/ll_aton/ll_aton_NN_interface.h ****     uintptr_t i;
  78:Lib/AI_Runtime/Npu/ll_aton/ll_aton_NN_interface.h ****   } __LL_address_t;
  79:Lib/AI_Runtime/Npu/ll_aton/ll_aton_NN_interface.h **** 
  80:Lib/AI_Runtime/Npu/ll_aton/ll_aton_NN_interface.h ****   typedef void (*EpochBlock_FuncPtr_t)(const void *epoch_block);
  81:Lib/AI_Runtime/Npu/ll_aton/ll_aton_NN_interface.h **** 
ARM GAS  C:\Users\DJESSOU\AppData\Local\Temp\ccfF5lhd.s 			page 3


  82:Lib/AI_Runtime/Npu/ll_aton/ll_aton_NN_interface.h ****   typedef enum
  83:Lib/AI_Runtime/Npu/ll_aton/ll_aton_NN_interface.h ****   {
  84:Lib/AI_Runtime/Npu/ll_aton/ll_aton_NN_interface.h ****     EpochBlock_Flags_NONE = 0x0,                 /**< */
  85:Lib/AI_Runtime/Npu/ll_aton/ll_aton_NN_interface.h ****     EpochBlock_Flags_epoch_start = (0x1 << 0),   /**< First EpochBlock of an Epoch */
  86:Lib/AI_Runtime/Npu/ll_aton/ll_aton_NN_interface.h ****     EpochBlock_Flags_epoch_end = (0x1 << 1),     /**< Last EpochBlock of an Epoch */
  87:Lib/AI_Runtime/Npu/ll_aton/ll_aton_NN_interface.h ****     EpochBlock_Flags_blob = (0x1 << 2),          /**< Item is an Epoch Blob */
  88:Lib/AI_Runtime/Npu/ll_aton/ll_aton_NN_interface.h ****     EpochBlock_Flags_last_eb = (0x1 << 3),       /**< Last EpochBlock */
  89:Lib/AI_Runtime/Npu/ll_aton/ll_aton_NN_interface.h ****     EpochBlock_Flags_pure_hw = (0x1 << 4),       /**< Pure HW EpochBlock */
  90:Lib/AI_Runtime/Npu/ll_aton/ll_aton_NN_interface.h ****     EpochBlock_Flags_pure_sw = (0x1 << 5),       /**< Pure SW EpochBlock */
  91:Lib/AI_Runtime/Npu/ll_aton/ll_aton_NN_interface.h ****     EpochBlock_Flags_hybrid = (0x1 << 6),        /**< Hybrid EpochBlock (i.e. mixed HW/SW) */
  92:Lib/AI_Runtime/Npu/ll_aton/ll_aton_NN_interface.h ****     EpochBlock_Flags_internal = (0x1 << 7),      /**< ATON lib internal EpochBlock (used to impleme
  93:Lib/AI_Runtime/Npu/ll_aton/ll_aton_NN_interface.h ****     EpochBlock_Flags_blob_encrypted = (0x1 << 8) /**< The blob is encrypted and must be decrypted o
  94:Lib/AI_Runtime/Npu/ll_aton/ll_aton_NN_interface.h ****   } EpochBlock_Flags_t;
  95:Lib/AI_Runtime/Npu/ll_aton/ll_aton_NN_interface.h **** 
  96:Lib/AI_Runtime/Npu/ll_aton/ll_aton_NN_interface.h ****   typedef struct
  97:Lib/AI_Runtime/Npu/ll_aton/ll_aton_NN_interface.h ****   {
  98:Lib/AI_Runtime/Npu/ll_aton/ll_aton_NN_interface.h ****     EpochBlock_FuncPtr_t start_epoch_block; /**< Method to execute the EpochBlock */
  99:Lib/AI_Runtime/Npu/ll_aton/ll_aton_NN_interface.h ****     EpochBlock_FuncPtr_t end_epoch_block;   /**< Method to be executed when the EpochBlock ends */
 100:Lib/AI_Runtime/Npu/ll_aton/ll_aton_NN_interface.h ****     uintptr_t blob_address;                 /**< Blob address (in case this EpochBlock represents a
 101:Lib/AI_Runtime/Npu/ll_aton/ll_aton_NN_interface.h ****     uint32_t wait_mask;                     /**< Mask needed to check when an EpochBlock ends
 102:Lib/AI_Runtime/Npu/ll_aton/ll_aton_NN_interface.h ****                                              *    - if epoch blob: number (not bitmask) of epoch co
 103:Lib/AI_Runtime/Npu/ll_aton/ll_aton_NN_interface.h ****                                              *    - otherwise: bitmask with all output streaming en
 104:Lib/AI_Runtime/Npu/ll_aton/ll_aton_NN_interface.h ****     uint16_t flags;                         /**< EpochBlock flags */
 105:Lib/AI_Runtime/Npu/ll_aton/ll_aton_NN_interface.h **** #ifdef LL_ATON_EB_DBG_INFO
 106:Lib/AI_Runtime/Npu/ll_aton/ll_aton_NN_interface.h ****     int16_t epoch_num;             /**< Epoch number / First epoch number within blob */
 107:Lib/AI_Runtime/Npu/ll_aton/ll_aton_NN_interface.h ****     int16_t last_epoch_num;        /**< Epoch number / Last epoch number within blob */
 108:Lib/AI_Runtime/Npu/ll_aton/ll_aton_NN_interface.h ****     uint32_t in_streng_mask;       /**< Debug information about input streaming engines used in epo
 109:Lib/AI_Runtime/Npu/ll_aton/ll_aton_NN_interface.h ****     uint32_t out_streng_mask;      /**< Debug information about output streaming engines used in ep
 110:Lib/AI_Runtime/Npu/ll_aton/ll_aton_NN_interface.h ****     uint64_t estimated_npu_cycles; /**< Debug information estimates for NPU cycles in epoch w/o mem
 111:Lib/AI_Runtime/Npu/ll_aton/ll_aton_NN_interface.h ****     uint64_t estimated_tot_cycles; /**< Debug information estimates for NPU cycles in epoch w/ memo
 112:Lib/AI_Runtime/Npu/ll_aton/ll_aton_NN_interface.h **** #endif                             // LL_ATON_EB_DBG_INFO
 113:Lib/AI_Runtime/Npu/ll_aton/ll_aton_NN_interface.h ****   } EpochBlock_ItemTypeDef;
 114:Lib/AI_Runtime/Npu/ll_aton/ll_aton_NN_interface.h ****   typedef EpochBlock_ItemTypeDef LL_ATON_RT_EpochBlockItem_t;
 115:Lib/AI_Runtime/Npu/ll_aton/ll_aton_NN_interface.h **** 
 116:Lib/AI_Runtime/Npu/ll_aton/ll_aton_NN_interface.h ****   /**
 117:Lib/AI_Runtime/Npu/ll_aton/ll_aton_NN_interface.h ****    * @}
 118:Lib/AI_Runtime/Npu/ll_aton/ll_aton_NN_interface.h ****    */
 119:Lib/AI_Runtime/Npu/ll_aton/ll_aton_NN_interface.h **** 
 120:Lib/AI_Runtime/Npu/ll_aton/ll_aton_NN_interface.h ****   /** @defgroup Helper Function Declarations for User Callbacks
 121:Lib/AI_Runtime/Npu/ll_aton/ll_aton_NN_interface.h ****    * @{
 122:Lib/AI_Runtime/Npu/ll_aton/ll_aton_NN_interface.h ****    */
 123:Lib/AI_Runtime/Npu/ll_aton/ll_aton_NN_interface.h **** 
 124:Lib/AI_Runtime/Npu/ll_aton/ll_aton_NN_interface.h ****   /**
 125:Lib/AI_Runtime/Npu/ll_aton/ll_aton_NN_interface.h ****    * @brief Checks if the pointed element is the last one of an array of `const EpochBlock_ItemType
 126:Lib/AI_Runtime/Npu/ll_aton/ll_aton_NN_interface.h ****    *
 127:Lib/AI_Runtime/Npu/ll_aton/ll_aton_NN_interface.h ****    */
 128:Lib/AI_Runtime/Npu/ll_aton/ll_aton_NN_interface.h ****   static inline bool EpochBlock_IsLastEpochBlock(const EpochBlock_ItemTypeDef *eb);
 129:Lib/AI_Runtime/Npu/ll_aton/ll_aton_NN_interface.h **** 
 130:Lib/AI_Runtime/Npu/ll_aton/ll_aton_NN_interface.h ****   /**
 131:Lib/AI_Runtime/Npu/ll_aton/ll_aton_NN_interface.h ****    * @brief Checks if the pointed element is the first EpochBlock of an Epoch
 132:Lib/AI_Runtime/Npu/ll_aton/ll_aton_NN_interface.h ****    *
 133:Lib/AI_Runtime/Npu/ll_aton/ll_aton_NN_interface.h ****    */
 134:Lib/AI_Runtime/Npu/ll_aton/ll_aton_NN_interface.h ****   static inline bool EpochBlock_IsEpochStart(const EpochBlock_ItemTypeDef *eb);
 135:Lib/AI_Runtime/Npu/ll_aton/ll_aton_NN_interface.h **** 
 136:Lib/AI_Runtime/Npu/ll_aton/ll_aton_NN_interface.h ****   /**
 137:Lib/AI_Runtime/Npu/ll_aton/ll_aton_NN_interface.h ****    * @brief Checks if the pointed element is the last EpochBlock of an Epoch
 138:Lib/AI_Runtime/Npu/ll_aton/ll_aton_NN_interface.h ****    *
ARM GAS  C:\Users\DJESSOU\AppData\Local\Temp\ccfF5lhd.s 			page 4


 139:Lib/AI_Runtime/Npu/ll_aton/ll_aton_NN_interface.h ****    */
 140:Lib/AI_Runtime/Npu/ll_aton/ll_aton_NN_interface.h ****   static inline bool EpochBlock_IsEpochEnd(const EpochBlock_ItemTypeDef *eb);
 141:Lib/AI_Runtime/Npu/ll_aton/ll_aton_NN_interface.h **** 
 142:Lib/AI_Runtime/Npu/ll_aton/ll_aton_NN_interface.h ****   /**
 143:Lib/AI_Runtime/Npu/ll_aton/ll_aton_NN_interface.h ****    * @brief Checks if the pointed element is the an Epoch Blob
 144:Lib/AI_Runtime/Npu/ll_aton/ll_aton_NN_interface.h ****    *
 145:Lib/AI_Runtime/Npu/ll_aton/ll_aton_NN_interface.h ****    */
 146:Lib/AI_Runtime/Npu/ll_aton/ll_aton_NN_interface.h ****   static inline bool EpochBlock_IsEpochBlob(const EpochBlock_ItemTypeDef *eb);
 147:Lib/AI_Runtime/Npu/ll_aton/ll_aton_NN_interface.h **** 
 148:Lib/AI_Runtime/Npu/ll_aton/ll_aton_NN_interface.h ****   /**
 149:Lib/AI_Runtime/Npu/ll_aton/ll_aton_NN_interface.h ****    * @brief Checks if - in case this epoch is a blob (see above) - the blob is encrypted
 150:Lib/AI_Runtime/Npu/ll_aton/ll_aton_NN_interface.h ****    *
 151:Lib/AI_Runtime/Npu/ll_aton/ll_aton_NN_interface.h ****    */
 152:Lib/AI_Runtime/Npu/ll_aton/ll_aton_NN_interface.h ****   static inline bool EpochBlock_IsBlobEncrypted(const EpochBlock_ItemTypeDef *eb);
 153:Lib/AI_Runtime/Npu/ll_aton/ll_aton_NN_interface.h **** 
 154:Lib/AI_Runtime/Npu/ll_aton/ll_aton_NN_interface.h ****   /**
 155:Lib/AI_Runtime/Npu/ll_aton/ll_aton_NN_interface.h ****    * @brief Checks if the pointed element is pure SW epoch
 156:Lib/AI_Runtime/Npu/ll_aton/ll_aton_NN_interface.h ****    *
 157:Lib/AI_Runtime/Npu/ll_aton/ll_aton_NN_interface.h ****    */
 158:Lib/AI_Runtime/Npu/ll_aton/ll_aton_NN_interface.h ****   static inline bool EpochBlock_IsEpochPureSW(const EpochBlock_ItemTypeDef *eb);
 159:Lib/AI_Runtime/Npu/ll_aton/ll_aton_NN_interface.h **** 
 160:Lib/AI_Runtime/Npu/ll_aton/ll_aton_NN_interface.h ****   /**
 161:Lib/AI_Runtime/Npu/ll_aton/ll_aton_NN_interface.h ****    * @brief Checks if the pointed element is a pure HW or mixed SW/HW epoch
 162:Lib/AI_Runtime/Npu/ll_aton/ll_aton_NN_interface.h ****    *
 163:Lib/AI_Runtime/Npu/ll_aton/ll_aton_NN_interface.h ****    */
 164:Lib/AI_Runtime/Npu/ll_aton/ll_aton_NN_interface.h ****   static inline bool EpochBlock_IsEpochPureHW(const EpochBlock_ItemTypeDef *eb);
 165:Lib/AI_Runtime/Npu/ll_aton/ll_aton_NN_interface.h **** 
 166:Lib/AI_Runtime/Npu/ll_aton/ll_aton_NN_interface.h ****   /**
 167:Lib/AI_Runtime/Npu/ll_aton/ll_aton_NN_interface.h ****    * @brief Checks if the pointed element is a hybrid epoch
 168:Lib/AI_Runtime/Npu/ll_aton/ll_aton_NN_interface.h ****    *
 169:Lib/AI_Runtime/Npu/ll_aton/ll_aton_NN_interface.h ****    */
 170:Lib/AI_Runtime/Npu/ll_aton/ll_aton_NN_interface.h ****   static inline bool EpochBlock_IsEpochHybrid(const EpochBlock_ItemTypeDef *eb);
 171:Lib/AI_Runtime/Npu/ll_aton/ll_aton_NN_interface.h **** 
 172:Lib/AI_Runtime/Npu/ll_aton/ll_aton_NN_interface.h ****   /**
 173:Lib/AI_Runtime/Npu/ll_aton/ll_aton_NN_interface.h ****    * @brief Checks if the pointed element is an internal epoch
 174:Lib/AI_Runtime/Npu/ll_aton/ll_aton_NN_interface.h ****    *
 175:Lib/AI_Runtime/Npu/ll_aton/ll_aton_NN_interface.h ****    */
 176:Lib/AI_Runtime/Npu/ll_aton/ll_aton_NN_interface.h ****   static inline bool EpochBlock_IsEpochInternal(const EpochBlock_ItemTypeDef *eb);
 177:Lib/AI_Runtime/Npu/ll_aton/ll_aton_NN_interface.h **** 
 178:Lib/AI_Runtime/Npu/ll_aton/ll_aton_NN_interface.h ****   /**
 179:Lib/AI_Runtime/Npu/ll_aton/ll_aton_NN_interface.h ****    * @brief Returns the Epoch controller id to use
 180:Lib/AI_Runtime/Npu/ll_aton/ll_aton_NN_interface.h ****    *
 181:Lib/AI_Runtime/Npu/ll_aton/ll_aton_NN_interface.h ****    */
 182:Lib/AI_Runtime/Npu/ll_aton/ll_aton_NN_interface.h ****   static inline uint32_t EpochBlock_EpochControllerUnit(const EpochBlock_ItemTypeDef *eb);
 183:Lib/AI_Runtime/Npu/ll_aton/ll_aton_NN_interface.h **** 
 184:Lib/AI_Runtime/Npu/ll_aton/ll_aton_NN_interface.h ****   /**
 185:Lib/AI_Runtime/Npu/ll_aton/ll_aton_NN_interface.h ****    * @brief Returns the address of the configuration of the epoch controller (the blob address)
 186:Lib/AI_Runtime/Npu/ll_aton/ll_aton_NN_interface.h ****    *
 187:Lib/AI_Runtime/Npu/ll_aton/ll_aton_NN_interface.h ****    */
 188:Lib/AI_Runtime/Npu/ll_aton/ll_aton_NN_interface.h ****   static inline uintptr_t EpochBlock_EpochBlobAddr(const EpochBlock_ItemTypeDef *eb);
 189:Lib/AI_Runtime/Npu/ll_aton/ll_aton_NN_interface.h **** 
 190:Lib/AI_Runtime/Npu/ll_aton/ll_aton_NN_interface.h ****   /**
 191:Lib/AI_Runtime/Npu/ll_aton/ll_aton_NN_interface.h ****    * @brief ATON buffer types definition
 192:Lib/AI_Runtime/Npu/ll_aton/ll_aton_NN_interface.h ****    */
 193:Lib/AI_Runtime/Npu/ll_aton/ll_aton_NN_interface.h **** 
 194:Lib/AI_Runtime/Npu/ll_aton/ll_aton_NN_interface.h ****   /**
 195:Lib/AI_Runtime/Npu/ll_aton/ll_aton_NN_interface.h ****    * @}
ARM GAS  C:\Users\DJESSOU\AppData\Local\Temp\ccfF5lhd.s 			page 5


 196:Lib/AI_Runtime/Npu/ll_aton/ll_aton_NN_interface.h ****    */
 197:Lib/AI_Runtime/Npu/ll_aton/ll_aton_NN_interface.h **** 
 198:Lib/AI_Runtime/Npu/ll_aton/ll_aton_NN_interface.h ****   /** @defgroup Handle-style Data Types for Input, Output, and Internal Buffers
 199:Lib/AI_Runtime/Npu/ll_aton/ll_aton_NN_interface.h ****    * @{
 200:Lib/AI_Runtime/Npu/ll_aton/ll_aton_NN_interface.h ****    */
 201:Lib/AI_Runtime/Npu/ll_aton/ll_aton_NN_interface.h **** 
 202:Lib/AI_Runtime/Npu/ll_aton/ll_aton_NN_interface.h ****   typedef enum
 203:Lib/AI_Runtime/Npu/ll_aton/ll_aton_NN_interface.h ****   {
 204:Lib/AI_Runtime/Npu/ll_aton/ll_aton_NN_interface.h ****     DataType_UNDEFINED = 0,
 205:Lib/AI_Runtime/Npu/ll_aton/ll_aton_NN_interface.h ****     DataType_FLOAT = 1,
 206:Lib/AI_Runtime/Npu/ll_aton/ll_aton_NN_interface.h ****     DataType_UINT2 = 2,
 207:Lib/AI_Runtime/Npu/ll_aton/ll_aton_NN_interface.h ****     DataType_INT2 = 3,
 208:Lib/AI_Runtime/Npu/ll_aton/ll_aton_NN_interface.h ****     DataType_UINT4 = 4,
 209:Lib/AI_Runtime/Npu/ll_aton/ll_aton_NN_interface.h ****     DataType_INT4 = 5,
 210:Lib/AI_Runtime/Npu/ll_aton/ll_aton_NN_interface.h ****     DataType_UINT8 = 6,
 211:Lib/AI_Runtime/Npu/ll_aton/ll_aton_NN_interface.h ****     DataType_INT8 = 7,
 212:Lib/AI_Runtime/Npu/ll_aton/ll_aton_NN_interface.h ****     DataType_UINT16 = 8,
 213:Lib/AI_Runtime/Npu/ll_aton/ll_aton_NN_interface.h ****     DataType_INT16 = 9,
 214:Lib/AI_Runtime/Npu/ll_aton/ll_aton_NN_interface.h ****     DataType_INT32 = 10,
 215:Lib/AI_Runtime/Npu/ll_aton/ll_aton_NN_interface.h ****     DataType_INT64 = 11,
 216:Lib/AI_Runtime/Npu/ll_aton/ll_aton_NN_interface.h ****     DataType_STRING = 12,
 217:Lib/AI_Runtime/Npu/ll_aton/ll_aton_NN_interface.h ****     DataType_BOOL = 13,
 218:Lib/AI_Runtime/Npu/ll_aton/ll_aton_NN_interface.h ****     DataType_FLOAT16 = 14,
 219:Lib/AI_Runtime/Npu/ll_aton/ll_aton_NN_interface.h ****     DataType_DOUBLE = 15,
 220:Lib/AI_Runtime/Npu/ll_aton/ll_aton_NN_interface.h ****     DataType_UINT32 = 16,
 221:Lib/AI_Runtime/Npu/ll_aton/ll_aton_NN_interface.h ****     DataType_UINT64 = 17,
 222:Lib/AI_Runtime/Npu/ll_aton/ll_aton_NN_interface.h ****     DataType_COMPLEX64 = 18,
 223:Lib/AI_Runtime/Npu/ll_aton/ll_aton_NN_interface.h ****     DataType_COMPLEX128 = 19,
 224:Lib/AI_Runtime/Npu/ll_aton/ll_aton_NN_interface.h ****     DataType_BFLOAT16 = 20,
 225:Lib/AI_Runtime/Npu/ll_aton/ll_aton_NN_interface.h ****     DataType_FXP = 100 // AtoNN specific
 226:Lib/AI_Runtime/Npu/ll_aton/ll_aton_NN_interface.h ****   } Buffer_DataType_TypeDef;
 227:Lib/AI_Runtime/Npu/ll_aton/ll_aton_NN_interface.h **** 
 228:Lib/AI_Runtime/Npu/ll_aton/ll_aton_NN_interface.h ****   /**
 229:Lib/AI_Runtime/Npu/ll_aton/ll_aton_NN_interface.h ****    * @brief ATON buffer Channel position
 230:Lib/AI_Runtime/Npu/ll_aton/ll_aton_NN_interface.h ****    */
 231:Lib/AI_Runtime/Npu/ll_aton/ll_aton_NN_interface.h **** 
 232:Lib/AI_Runtime/Npu/ll_aton/ll_aton_NN_interface.h ****   typedef enum
 233:Lib/AI_Runtime/Npu/ll_aton/ll_aton_NN_interface.h ****   {
 234:Lib/AI_Runtime/Npu/ll_aton/ll_aton_NN_interface.h ****     CHPos_UNDEFINED = 0, /**< No channel present */
 235:Lib/AI_Runtime/Npu/ll_aton/ll_aton_NN_interface.h ****     CHPos_First = 1,     /**< Channel First         ( ...B C H W )*/
 236:Lib/AI_Runtime/Npu/ll_aton/ll_aton_NN_interface.h ****     CHPos_Last = 2,      /**< Channel Last          ( ...B H W C ) */
 237:Lib/AI_Runtime/Npu/ll_aton/ll_aton_NN_interface.h ****     CHPos_Mixed = 3,     /**< Channel with Batch(b) ( ...B C/b H W b ) */
 238:Lib/AI_Runtime/Npu/ll_aton/ll_aton_NN_interface.h ****   } Buffer_CHPos_TypeDef;
 239:Lib/AI_Runtime/Npu/ll_aton/ll_aton_NN_interface.h **** 
 240:Lib/AI_Runtime/Npu/ll_aton/ll_aton_NN_interface.h ****   /**
 241:Lib/AI_Runtime/Npu/ll_aton/ll_aton_NN_interface.h ****    * @brief ATON buffer definition
 242:Lib/AI_Runtime/Npu/ll_aton/ll_aton_NN_interface.h ****    */
 243:Lib/AI_Runtime/Npu/ll_aton/ll_aton_NN_interface.h ****   typedef struct
 244:Lib/AI_Runtime/Npu/ll_aton/ll_aton_NN_interface.h ****   {
 245:Lib/AI_Runtime/Npu/ll_aton/ll_aton_NN_interface.h ****     const char *name;             /**< Buffer name. NULL if end of list */
 246:Lib/AI_Runtime/Npu/ll_aton/ll_aton_NN_interface.h ****     __LL_address_t addr_base;     /**< Buffer base address */
 247:Lib/AI_Runtime/Npu/ll_aton/ll_aton_NN_interface.h ****     uint32_t offset_start;        /**< Offset of the buffer start address from the base address */
 248:Lib/AI_Runtime/Npu/ll_aton/ll_aton_NN_interface.h ****     uint32_t offset_end;          /**< Offset of the buffer end address from the base address
 249:Lib/AI_Runtime/Npu/ll_aton/ll_aton_NN_interface.h ****                                    *   (first bytes address beyond buffer length) */
 250:Lib/AI_Runtime/Npu/ll_aton/ll_aton_NN_interface.h ****     uint32_t offset_limit;        /**< Offset of the limiter address from the base address,
 251:Lib/AI_Runtime/Npu/ll_aton/ll_aton_NN_interface.h ****                                    *   (needed for configuring streaming engines) */
 252:Lib/AI_Runtime/Npu/ll_aton/ll_aton_NN_interface.h ****     uint8_t is_user_allocated;    /**< */
ARM GAS  C:\Users\DJESSOU\AppData\Local\Temp\ccfF5lhd.s 			page 6


 253:Lib/AI_Runtime/Npu/ll_aton/ll_aton_NN_interface.h ****     uint8_t is_param;             /**< */
 254:Lib/AI_Runtime/Npu/ll_aton/ll_aton_NN_interface.h ****     uint16_t epoch;               /**< */
 255:Lib/AI_Runtime/Npu/ll_aton/ll_aton_NN_interface.h ****     uint32_t batch;               /**< */
 256:Lib/AI_Runtime/Npu/ll_aton/ll_aton_NN_interface.h ****     const uint32_t *mem_shape;    /**< shape as seen by the user in memory (only valid for input/ou
 257:Lib/AI_Runtime/Npu/ll_aton/ll_aton_NN_interface.h ****     uint16_t mem_ndims;           /**< Number of dimensions of mem_shape (Length of mem_shape) */
 258:Lib/AI_Runtime/Npu/ll_aton/ll_aton_NN_interface.h ****     Buffer_CHPos_TypeDef chpos;   /**< Position  of channels dimension in mem shape */
 259:Lib/AI_Runtime/Npu/ll_aton/ll_aton_NN_interface.h ****     Buffer_DataType_TypeDef type; /**< */
 260:Lib/AI_Runtime/Npu/ll_aton/ll_aton_NN_interface.h ****     int8_t Qm;                    /**< */
 261:Lib/AI_Runtime/Npu/ll_aton/ll_aton_NN_interface.h ****     int8_t Qn;                    /**< */
 262:Lib/AI_Runtime/Npu/ll_aton/ll_aton_NN_interface.h ****     uint8_t Qunsigned;            /**< */
 263:Lib/AI_Runtime/Npu/ll_aton/ll_aton_NN_interface.h ****     uint8_t ndims;                /**< */
 264:Lib/AI_Runtime/Npu/ll_aton/ll_aton_NN_interface.h ****     uint8_t nbits;                /**< */
 265:Lib/AI_Runtime/Npu/ll_aton/ll_aton_NN_interface.h ****     uint8_t per_channel;          /**< */
 266:Lib/AI_Runtime/Npu/ll_aton/ll_aton_NN_interface.h ****     const uint32_t *shape;        /**< */
 267:Lib/AI_Runtime/Npu/ll_aton/ll_aton_NN_interface.h ****     const float *scale;           /**< */
 268:Lib/AI_Runtime/Npu/ll_aton/ll_aton_NN_interface.h ****     const int16_t *offset;        /**< This can become int8 or uint8 based on the Qunsigned field.
 269:Lib/AI_Runtime/Npu/ll_aton/ll_aton_NN_interface.h ****                                    *   (This field Must have the same format of the quantized value
 270:Lib/AI_Runtime/Npu/ll_aton/ll_aton_NN_interface.h ****   } LL_Buffer_InfoTypeDef;
 271:Lib/AI_Runtime/Npu/ll_aton/ll_aton_NN_interface.h **** 
 272:Lib/AI_Runtime/Npu/ll_aton/ll_aton_NN_interface.h ****   /**
 273:Lib/AI_Runtime/Npu/ll_aton/ll_aton_NN_interface.h ****    * @}
 274:Lib/AI_Runtime/Npu/ll_aton/ll_aton_NN_interface.h ****    */
 275:Lib/AI_Runtime/Npu/ll_aton/ll_aton_NN_interface.h **** 
 276:Lib/AI_Runtime/Npu/ll_aton/ll_aton_NN_interface.h ****   /** @defgroup Helper Function Declarations for Buffer Analysis
 277:Lib/AI_Runtime/Npu/ll_aton/ll_aton_NN_interface.h ****    * @{
 278:Lib/AI_Runtime/Npu/ll_aton/ll_aton_NN_interface.h ****    */
 279:Lib/AI_Runtime/Npu/ll_aton/ll_aton_NN_interface.h **** 
 280:Lib/AI_Runtime/Npu/ll_aton/ll_aton_NN_interface.h ****   /**
 281:Lib/AI_Runtime/Npu/ll_aton/ll_aton_NN_interface.h ****    * @brief returns the base address of the mem pool the buffer is allocated in
 282:Lib/AI_Runtime/Npu/ll_aton/ll_aton_NN_interface.h ****    *
 283:Lib/AI_Runtime/Npu/ll_aton/ll_aton_NN_interface.h ****    */
 284:Lib/AI_Runtime/Npu/ll_aton/ll_aton_NN_interface.h ****   static inline unsigned char *LL_Buffer_addr_base(const LL_Buffer_InfoTypeDef *buf);
 285:Lib/AI_Runtime/Npu/ll_aton/ll_aton_NN_interface.h **** 
 286:Lib/AI_Runtime/Npu/ll_aton/ll_aton_NN_interface.h ****   /**
 287:Lib/AI_Runtime/Npu/ll_aton/ll_aton_NN_interface.h ****    * @brief returns the start address of the buffer
 288:Lib/AI_Runtime/Npu/ll_aton/ll_aton_NN_interface.h ****    *
 289:Lib/AI_Runtime/Npu/ll_aton/ll_aton_NN_interface.h ****    */
 290:Lib/AI_Runtime/Npu/ll_aton/ll_aton_NN_interface.h ****   static inline unsigned char *LL_Buffer_addr_start(const LL_Buffer_InfoTypeDef *buf);
 291:Lib/AI_Runtime/Npu/ll_aton/ll_aton_NN_interface.h **** 
 292:Lib/AI_Runtime/Npu/ll_aton/ll_aton_NN_interface.h ****   /**
 293:Lib/AI_Runtime/Npu/ll_aton/ll_aton_NN_interface.h ****    * @brief returns the end address of the buffer
 294:Lib/AI_Runtime/Npu/ll_aton/ll_aton_NN_interface.h ****    *
 295:Lib/AI_Runtime/Npu/ll_aton/ll_aton_NN_interface.h ****    */
 296:Lib/AI_Runtime/Npu/ll_aton/ll_aton_NN_interface.h ****   static inline unsigned char *LL_Buffer_addr_end(const LL_Buffer_InfoTypeDef *buf);
 297:Lib/AI_Runtime/Npu/ll_aton/ll_aton_NN_interface.h **** 
 298:Lib/AI_Runtime/Npu/ll_aton/ll_aton_NN_interface.h ****   /**
 299:Lib/AI_Runtime/Npu/ll_aton/ll_aton_NN_interface.h ****    * @brief returns the limit address of the buffer
 300:Lib/AI_Runtime/Npu/ll_aton/ll_aton_NN_interface.h ****    *
 301:Lib/AI_Runtime/Npu/ll_aton/ll_aton_NN_interface.h ****    */
 302:Lib/AI_Runtime/Npu/ll_aton/ll_aton_NN_interface.h ****   static inline unsigned char *LL_Buffer_addr_limit(const LL_Buffer_InfoTypeDef *buf);
 303:Lib/AI_Runtime/Npu/ll_aton/ll_aton_NN_interface.h **** 
 304:Lib/AI_Runtime/Npu/ll_aton/ll_aton_NN_interface.h ****   /**
 305:Lib/AI_Runtime/Npu/ll_aton/ll_aton_NN_interface.h ****    * @brief returns the length of the buffer
 306:Lib/AI_Runtime/Npu/ll_aton/ll_aton_NN_interface.h ****    *
 307:Lib/AI_Runtime/Npu/ll_aton/ll_aton_NN_interface.h ****    */
 308:Lib/AI_Runtime/Npu/ll_aton/ll_aton_NN_interface.h ****   static inline uint32_t LL_Buffer_len(const LL_Buffer_InfoTypeDef *buf);
 309:Lib/AI_Runtime/Npu/ll_aton/ll_aton_NN_interface.h **** 
ARM GAS  C:\Users\DJESSOU\AppData\Local\Temp\ccfF5lhd.s 			page 7


 310:Lib/AI_Runtime/Npu/ll_aton/ll_aton_NN_interface.h ****   /**
 311:Lib/AI_Runtime/Npu/ll_aton/ll_aton_NN_interface.h ****    * @brief returns the buffer elements number of bits
 312:Lib/AI_Runtime/Npu/ll_aton/ll_aton_NN_interface.h ****    *
 313:Lib/AI_Runtime/Npu/ll_aton/ll_aton_NN_interface.h ****    */
 314:Lib/AI_Runtime/Npu/ll_aton/ll_aton_NN_interface.h ****   static inline uint32_t LL_Buffer_bits(const LL_Buffer_InfoTypeDef *buf);
 315:Lib/AI_Runtime/Npu/ll_aton/ll_aton_NN_interface.h **** 
 316:Lib/AI_Runtime/Npu/ll_aton/ll_aton_NN_interface.h ****   /**
 317:Lib/AI_Runtime/Npu/ll_aton/ll_aton_NN_interface.h ****    * @}
 318:Lib/AI_Runtime/Npu/ll_aton/ll_aton_NN_interface.h ****    */
 319:Lib/AI_Runtime/Npu/ll_aton/ll_aton_NN_interface.h **** 
 320:Lib/AI_Runtime/Npu/ll_aton/ll_aton_NN_interface.h ****   /** @defgroup Handle-style Data Types and Declaration Macros for ATON Runtime Execution & User AP
 321:Lib/AI_Runtime/Npu/ll_aton/ll_aton_NN_interface.h ****    * @{
 322:Lib/AI_Runtime/Npu/ll_aton/ll_aton_NN_interface.h ****    */
 323:Lib/AI_Runtime/Npu/ll_aton/ll_aton_NN_interface.h **** 
 324:Lib/AI_Runtime/Npu/ll_aton/ll_aton_NN_interface.h ****   struct __nn_instance_struct; // forward declaration
 325:Lib/AI_Runtime/Npu/ll_aton/ll_aton_NN_interface.h ****   typedef struct __nn_instance_struct NN_Instance_TypeDef;
 326:Lib/AI_Runtime/Npu/ll_aton/ll_aton_NN_interface.h **** 
 327:Lib/AI_Runtime/Npu/ll_aton/ll_aton_NN_interface.h **** /**
 328:Lib/AI_Runtime/Npu/ll_aton/ll_aton_NN_interface.h ****  * @brief Declare the function prototypes for named NN interface functions generated by the AtoNN c
 329:Lib/AI_Runtime/Npu/ll_aton/ll_aton_NN_interface.h ****  * @param network_name name of the network as provided by option `--network-name`
 330:Lib/AI_Runtime/Npu/ll_aton/ll_aton_NN_interface.h ****  */
 331:Lib/AI_Runtime/Npu/ll_aton/ll_aton_NN_interface.h **** #define LL_ATON_DECLARE_NAMED_NN_PROTOS(network_name)                                              
 332:Lib/AI_Runtime/Npu/ll_aton/ll_aton_NN_interface.h ****   extern bool LL_ATON_EC_Network_Init_##network_name(void);                                        
 333:Lib/AI_Runtime/Npu/ll_aton/ll_aton_NN_interface.h ****   extern bool LL_ATON_EC_Inference_Init_##network_name(void);                                      
 334:Lib/AI_Runtime/Npu/ll_aton/ll_aton_NN_interface.h ****   extern LL_ATON_User_IO_Result_t LL_ATON_Set_User_Input_Buffer_##network_name(uint32_t num, void *
 335:Lib/AI_Runtime/Npu/ll_aton/ll_aton_NN_interface.h ****                                                                                uint32_t size);     
 336:Lib/AI_Runtime/Npu/ll_aton/ll_aton_NN_interface.h ****   extern void *LL_ATON_Get_User_Input_Buffer_##network_name(uint32_t num);                         
 337:Lib/AI_Runtime/Npu/ll_aton/ll_aton_NN_interface.h ****   extern LL_ATON_User_IO_Result_t LL_ATON_Set_User_Output_Buffer_##network_name(uint32_t num, void 
 338:Lib/AI_Runtime/Npu/ll_aton/ll_aton_NN_interface.h ****                                                                                 uint32_t size);    
 339:Lib/AI_Runtime/Npu/ll_aton/ll_aton_NN_interface.h ****   extern void *LL_ATON_Get_User_Output_Buffer_##network_name(uint32_t num);                        
 340:Lib/AI_Runtime/Npu/ll_aton/ll_aton_NN_interface.h ****   extern const EpochBlock_ItemTypeDef *LL_ATON_EpochBlockItems_##network_name(void);               
 341:Lib/AI_Runtime/Npu/ll_aton/ll_aton_NN_interface.h ****   extern const LL_Buffer_InfoTypeDef *LL_ATON_Output_Buffers_Info_##network_name(void);            
 342:Lib/AI_Runtime/Npu/ll_aton/ll_aton_NN_interface.h ****   extern const LL_Buffer_InfoTypeDef *LL_ATON_Input_Buffers_Info_##network_name(void);             
 343:Lib/AI_Runtime/Npu/ll_aton/ll_aton_NN_interface.h ****   extern const LL_Streng_EncryptionTypedef *LL_ATON_WeightEncryption_Info_##network_name(void);    
 344:Lib/AI_Runtime/Npu/ll_aton/ll_aton_NN_interface.h ****   extern const LL_Streng_EncryptionTypedef *LL_ATON_BlobEncryption_Info_##network_name(void);      
 345:Lib/AI_Runtime/Npu/ll_aton/ll_aton_NN_interface.h ****   extern const LL_Buffer_InfoTypeDef *LL_ATON_Internal_Buffers_Info_##network_name(void);
 346:Lib/AI_Runtime/Npu/ll_aton/ll_aton_NN_interface.h **** 
 347:Lib/AI_Runtime/Npu/ll_aton/ll_aton_NN_interface.h ****   /**
 348:Lib/AI_Runtime/Npu/ll_aton/ll_aton_NN_interface.h ****    * @brief  Type definitions for NN interface functions
 349:Lib/AI_Runtime/Npu/ll_aton/ll_aton_NN_interface.h ****    */
 350:Lib/AI_Runtime/Npu/ll_aton/ll_aton_NN_interface.h ****   typedef bool (*NN_EC_Hook_TypeDef)(void);
 351:Lib/AI_Runtime/Npu/ll_aton/ll_aton_NN_interface.h ****   typedef LL_ATON_User_IO_Result_t (*NN_InputSetter_TypeDef)(uint32_t num, void *buffer, uint32_t s
 352:Lib/AI_Runtime/Npu/ll_aton/ll_aton_NN_interface.h ****   typedef void *(*NN_InputGetter_TypeDef)(uint32_t num);
 353:Lib/AI_Runtime/Npu/ll_aton/ll_aton_NN_interface.h ****   typedef LL_ATON_User_IO_Result_t (*NN_OutputSetter_TypeDef)(uint32_t num, void *buffer, uint32_t 
 354:Lib/AI_Runtime/Npu/ll_aton/ll_aton_NN_interface.h ****   typedef void *(*NN_OutputGetter_TypeDef)(uint32_t num);
 355:Lib/AI_Runtime/Npu/ll_aton/ll_aton_NN_interface.h ****   typedef const EpochBlock_ItemTypeDef *(*NN_EpochBlockItems_TypeDef)(void);
 356:Lib/AI_Runtime/Npu/ll_aton/ll_aton_NN_interface.h ****   typedef const LL_Streng_EncryptionTypedef *(*NN_Encryption_Info_TypeDef)(void);
 357:Lib/AI_Runtime/Npu/ll_aton/ll_aton_NN_interface.h ****   typedef const LL_Buffer_InfoTypeDef *(*NN_Buffers_Info_TypeDef)(void);
 358:Lib/AI_Runtime/Npu/ll_aton/ll_aton_NN_interface.h **** 
 359:Lib/AI_Runtime/Npu/ll_aton/ll_aton_NN_interface.h ****   typedef void (*TraceRuntime_FuncPtr_t)(LL_ATON_RT_Callbacktype_t ctype);
 360:Lib/AI_Runtime/Npu/ll_aton/ll_aton_NN_interface.h **** 
 361:Lib/AI_Runtime/Npu/ll_aton/ll_aton_NN_interface.h ****   typedef void (*TraceEpochBlock_FuncPtr_t)(LL_ATON_RT_Callbacktype_t ctype, const NN_Instance_Type
 362:Lib/AI_Runtime/Npu/ll_aton/ll_aton_NN_interface.h ****                                             const EpochBlock_ItemTypeDef *epoch_block);
 363:Lib/AI_Runtime/Npu/ll_aton/ll_aton_NN_interface.h **** 
 364:Lib/AI_Runtime/Npu/ll_aton/ll_aton_NN_interface.h ****   typedef struct
 365:Lib/AI_Runtime/Npu/ll_aton/ll_aton_NN_interface.h ****   {
 366:Lib/AI_Runtime/Npu/ll_aton/ll_aton_NN_interface.h ****     const char *network_name;
ARM GAS  C:\Users\DJESSOU\AppData\Local\Temp\ccfF5lhd.s 			page 8


 367:Lib/AI_Runtime/Npu/ll_aton/ll_aton_NN_interface.h ****     NN_EC_Hook_TypeDef ec_network_init;
 368:Lib/AI_Runtime/Npu/ll_aton/ll_aton_NN_interface.h ****     NN_EC_Hook_TypeDef ec_inference_init;
 369:Lib/AI_Runtime/Npu/ll_aton/ll_aton_NN_interface.h ****     NN_InputSetter_TypeDef input_setter;
 370:Lib/AI_Runtime/Npu/ll_aton/ll_aton_NN_interface.h ****     NN_InputGetter_TypeDef input_getter;
 371:Lib/AI_Runtime/Npu/ll_aton/ll_aton_NN_interface.h ****     NN_OutputSetter_TypeDef output_setter;
 372:Lib/AI_Runtime/Npu/ll_aton/ll_aton_NN_interface.h ****     NN_OutputGetter_TypeDef output_getter;
 373:Lib/AI_Runtime/Npu/ll_aton/ll_aton_NN_interface.h ****     NN_EpochBlockItems_TypeDef epoch_block_items;
 374:Lib/AI_Runtime/Npu/ll_aton/ll_aton_NN_interface.h ****     NN_Buffers_Info_TypeDef output_buffers_info;
 375:Lib/AI_Runtime/Npu/ll_aton/ll_aton_NN_interface.h ****     NN_Buffers_Info_TypeDef input_buffers_info;
 376:Lib/AI_Runtime/Npu/ll_aton/ll_aton_NN_interface.h ****     NN_Encryption_Info_TypeDef blob_encryption_info;
 377:Lib/AI_Runtime/Npu/ll_aton/ll_aton_NN_interface.h ****     NN_Encryption_Info_TypeDef weight_encryption_info;
 378:Lib/AI_Runtime/Npu/ll_aton/ll_aton_NN_interface.h ****     NN_Buffers_Info_TypeDef internal_buffers_info;
 379:Lib/AI_Runtime/Npu/ll_aton/ll_aton_NN_interface.h ****   } NN_Interface_TypeDef;
 380:Lib/AI_Runtime/Npu/ll_aton/ll_aton_NN_interface.h **** 
 381:Lib/AI_Runtime/Npu/ll_aton/ll_aton_NN_interface.h ****   typedef struct
 382:Lib/AI_Runtime/Npu/ll_aton/ll_aton_NN_interface.h ****   {
 383:Lib/AI_Runtime/Npu/ll_aton/ll_aton_NN_interface.h ****     const EpochBlock_ItemTypeDef *volatile current_epoch_block; // pointer to current epoch block
 384:Lib/AI_Runtime/Npu/ll_aton/ll_aton_NN_interface.h ****     const EpochBlock_ItemTypeDef *volatile first_epoch_block;   // pointer to first epoch block in 
 385:Lib/AI_Runtime/Npu/ll_aton/ll_aton_NN_interface.h ****     const EpochBlock_ItemTypeDef *volatile next_epoch_block;    // pointer to epoch block to be ins
 386:Lib/AI_Runtime/Npu/ll_aton/ll_aton_NN_interface.h **** 
 387:Lib/AI_Runtime/Npu/ll_aton/ll_aton_NN_interface.h ****     const EpochBlock_ItemTypeDef *volatile saved_current_epoch_block; // pointer to saved current e
 388:Lib/AI_Runtime/Npu/ll_aton/ll_aton_NN_interface.h ****     const EpochBlock_ItemTypeDef
 389:Lib/AI_Runtime/Npu/ll_aton/ll_aton_NN_interface.h ****         *volatile saved_first_epoch_block; // pointer to saved first epoch block in current epoch l
 390:Lib/AI_Runtime/Npu/ll_aton/ll_aton_NN_interface.h **** 
 391:Lib/AI_Runtime/Npu/ll_aton/ll_aton_NN_interface.h ****     bool inference_started; // inference has been started
 392:Lib/AI_Runtime/Npu/ll_aton/ll_aton_NN_interface.h **** 
 393:Lib/AI_Runtime/Npu/ll_aton/ll_aton_NN_interface.h **** #if (LL_ATON_RT_MODE == LL_ATON_RT_ASYNC)
 394:Lib/AI_Runtime/Npu/ll_aton/ll_aton_NN_interface.h ****     volatile uint32_t triggered_events;        // currently triggered events/IRQs in current epoch
 395:Lib/AI_Runtime/Npu/ll_aton/ll_aton_NN_interface.h ****     volatile bool current_epoch_block_started; // has current epoch block already been started
 396:Lib/AI_Runtime/Npu/ll_aton/ll_aton_NN_interface.h **** #endif                                         // (LL_ATON_RT_MODE == LL_ATON_RT_ASYNC)
 397:Lib/AI_Runtime/Npu/ll_aton/ll_aton_NN_interface.h **** 
 398:Lib/AI_Runtime/Npu/ll_aton/ll_aton_NN_interface.h **** #ifndef NDEBUG
 399:Lib/AI_Runtime/Npu/ll_aton/ll_aton_NN_interface.h ****     volatile uint32_t
 400:Lib/AI_Runtime/Npu/ll_aton/ll_aton_NN_interface.h ****         nr_of_epoch_blocks; // number of epoch blocks in network (includes also terminating empty e
 401:Lib/AI_Runtime/Npu/ll_aton/ll_aton_NN_interface.h ****     volatile uint32_t saved_nr_of_epoch_blocks; // number of epoch blocks in saved network (include
 402:Lib/AI_Runtime/Npu/ll_aton/ll_aton_NN_interface.h ****                                                 // empty epoch block)
 403:Lib/AI_Runtime/Npu/ll_aton/ll_aton_NN_interface.h **** #endif                                          // !NDEBUG
 404:Lib/AI_Runtime/Npu/ll_aton/ll_aton_NN_interface.h **** 
 405:Lib/AI_Runtime/Npu/ll_aton/ll_aton_NN_interface.h ****     TraceEpochBlock_FuncPtr_t epoch_callback_function; // epoch callback function
 406:Lib/AI_Runtime/Npu/ll_aton/ll_aton_NN_interface.h **** 
 407:Lib/AI_Runtime/Npu/ll_aton/ll_aton_NN_interface.h **** #if defined(LL_ATON_RT_RELOC)
 408:Lib/AI_Runtime/Npu/ll_aton/ll_aton_NN_interface.h ****     uint32_t inst_reloc;
 409:Lib/AI_Runtime/Npu/ll_aton/ll_aton_NN_interface.h **** #endif
 410:Lib/AI_Runtime/Npu/ll_aton/ll_aton_NN_interface.h **** 
 411:Lib/AI_Runtime/Npu/ll_aton/ll_aton_NN_interface.h ****   } NN_Execution_State_TypeDef;
 412:Lib/AI_Runtime/Npu/ll_aton/ll_aton_NN_interface.h **** 
 413:Lib/AI_Runtime/Npu/ll_aton/ll_aton_NN_interface.h ****   struct __nn_instance_struct
 414:Lib/AI_Runtime/Npu/ll_aton/ll_aton_NN_interface.h ****   {
 415:Lib/AI_Runtime/Npu/ll_aton/ll_aton_NN_interface.h ****     const NN_Interface_TypeDef *network;
 416:Lib/AI_Runtime/Npu/ll_aton/ll_aton_NN_interface.h ****     NN_Execution_State_TypeDef exec_state;
 417:Lib/AI_Runtime/Npu/ll_aton/ll_aton_NN_interface.h ****   };
 418:Lib/AI_Runtime/Npu/ll_aton/ll_aton_NN_interface.h **** 
 419:Lib/AI_Runtime/Npu/ll_aton/ll_aton_NN_interface.h ****   /**
 420:Lib/AI_Runtime/Npu/ll_aton/ll_aton_NN_interface.h ****    * @}
 421:Lib/AI_Runtime/Npu/ll_aton/ll_aton_NN_interface.h ****    */
 422:Lib/AI_Runtime/Npu/ll_aton/ll_aton_NN_interface.h **** 
 423:Lib/AI_Runtime/Npu/ll_aton/ll_aton_NN_interface.h ****   /** @defgroup Helper Function Inline Implementations
ARM GAS  C:\Users\DJESSOU\AppData\Local\Temp\ccfF5lhd.s 			page 9


 424:Lib/AI_Runtime/Npu/ll_aton/ll_aton_NN_interface.h ****    * @{
 425:Lib/AI_Runtime/Npu/ll_aton/ll_aton_NN_interface.h ****    */
 426:Lib/AI_Runtime/Npu/ll_aton/ll_aton_NN_interface.h **** 
 427:Lib/AI_Runtime/Npu/ll_aton/ll_aton_NN_interface.h ****   static inline bool EpochBlock_IsLastEpochBlock(const EpochBlock_ItemTypeDef *eb)
 428:Lib/AI_Runtime/Npu/ll_aton/ll_aton_NN_interface.h ****   {
 429:Lib/AI_Runtime/Npu/ll_aton/ll_aton_NN_interface.h ****     return ((eb->flags & EpochBlock_Flags_last_eb) != 0);
 430:Lib/AI_Runtime/Npu/ll_aton/ll_aton_NN_interface.h ****   }
 431:Lib/AI_Runtime/Npu/ll_aton/ll_aton_NN_interface.h **** 
 432:Lib/AI_Runtime/Npu/ll_aton/ll_aton_NN_interface.h ****   static inline bool EpochBlock_IsEpochStart(const EpochBlock_ItemTypeDef *eb)
 433:Lib/AI_Runtime/Npu/ll_aton/ll_aton_NN_interface.h ****   {
 434:Lib/AI_Runtime/Npu/ll_aton/ll_aton_NN_interface.h ****     return ((eb->flags & EpochBlock_Flags_epoch_start) != 0);
 435:Lib/AI_Runtime/Npu/ll_aton/ll_aton_NN_interface.h ****   }
 436:Lib/AI_Runtime/Npu/ll_aton/ll_aton_NN_interface.h **** 
 437:Lib/AI_Runtime/Npu/ll_aton/ll_aton_NN_interface.h ****   static inline bool EpochBlock_IsEpochEnd(const EpochBlock_ItemTypeDef *eb)
 438:Lib/AI_Runtime/Npu/ll_aton/ll_aton_NN_interface.h ****   {
 439:Lib/AI_Runtime/Npu/ll_aton/ll_aton_NN_interface.h ****     return ((eb->flags & EpochBlock_Flags_epoch_end) != 0);
 440:Lib/AI_Runtime/Npu/ll_aton/ll_aton_NN_interface.h ****   }
 441:Lib/AI_Runtime/Npu/ll_aton/ll_aton_NN_interface.h **** 
 442:Lib/AI_Runtime/Npu/ll_aton/ll_aton_NN_interface.h ****   static inline bool EpochBlock_IsEpochBlob(const EpochBlock_ItemTypeDef *eb)
 443:Lib/AI_Runtime/Npu/ll_aton/ll_aton_NN_interface.h ****   {
 444:Lib/AI_Runtime/Npu/ll_aton/ll_aton_NN_interface.h ****     return ((eb->flags & EpochBlock_Flags_blob) != 0);
 445:Lib/AI_Runtime/Npu/ll_aton/ll_aton_NN_interface.h ****   }
 446:Lib/AI_Runtime/Npu/ll_aton/ll_aton_NN_interface.h **** 
 447:Lib/AI_Runtime/Npu/ll_aton/ll_aton_NN_interface.h ****   static inline bool EpochBlock_IsBlobEncrypted(const EpochBlock_ItemTypeDef *eb)
 448:Lib/AI_Runtime/Npu/ll_aton/ll_aton_NN_interface.h ****   {
 449:Lib/AI_Runtime/Npu/ll_aton/ll_aton_NN_interface.h ****     return ((eb->flags & EpochBlock_Flags_blob_encrypted) != 0);
 450:Lib/AI_Runtime/Npu/ll_aton/ll_aton_NN_interface.h ****   }
 451:Lib/AI_Runtime/Npu/ll_aton/ll_aton_NN_interface.h **** 
 452:Lib/AI_Runtime/Npu/ll_aton/ll_aton_NN_interface.h ****   static inline bool EpochBlock_IsEpochPureSW(const EpochBlock_ItemTypeDef *eb)
 453:Lib/AI_Runtime/Npu/ll_aton/ll_aton_NN_interface.h ****   {
 454:Lib/AI_Runtime/Npu/ll_aton/ll_aton_NN_interface.h ****     return ((eb->flags & EpochBlock_Flags_pure_sw) != 0);
 455:Lib/AI_Runtime/Npu/ll_aton/ll_aton_NN_interface.h ****   }
 456:Lib/AI_Runtime/Npu/ll_aton/ll_aton_NN_interface.h **** 
 457:Lib/AI_Runtime/Npu/ll_aton/ll_aton_NN_interface.h ****   static inline bool EpochBlock_IsEpochPureHW(const EpochBlock_ItemTypeDef *eb)
 458:Lib/AI_Runtime/Npu/ll_aton/ll_aton_NN_interface.h ****   {
 459:Lib/AI_Runtime/Npu/ll_aton/ll_aton_NN_interface.h ****     return ((eb->flags & EpochBlock_Flags_pure_hw) != 0);
 460:Lib/AI_Runtime/Npu/ll_aton/ll_aton_NN_interface.h ****   }
 461:Lib/AI_Runtime/Npu/ll_aton/ll_aton_NN_interface.h **** 
 462:Lib/AI_Runtime/Npu/ll_aton/ll_aton_NN_interface.h ****   static inline bool EpochBlock_IsEpochHybrid(const EpochBlock_ItemTypeDef *eb)
 463:Lib/AI_Runtime/Npu/ll_aton/ll_aton_NN_interface.h ****   {
 464:Lib/AI_Runtime/Npu/ll_aton/ll_aton_NN_interface.h ****     return ((eb->flags & EpochBlock_Flags_hybrid) != 0);
 465:Lib/AI_Runtime/Npu/ll_aton/ll_aton_NN_interface.h ****   }
 466:Lib/AI_Runtime/Npu/ll_aton/ll_aton_NN_interface.h **** 
 467:Lib/AI_Runtime/Npu/ll_aton/ll_aton_NN_interface.h ****   static inline bool EpochBlock_IsEpochInternal(const EpochBlock_ItemTypeDef *eb)
 468:Lib/AI_Runtime/Npu/ll_aton/ll_aton_NN_interface.h ****   {
 469:Lib/AI_Runtime/Npu/ll_aton/ll_aton_NN_interface.h ****     return ((eb->flags & EpochBlock_Flags_internal) != 0);
 470:Lib/AI_Runtime/Npu/ll_aton/ll_aton_NN_interface.h ****   }
 471:Lib/AI_Runtime/Npu/ll_aton/ll_aton_NN_interface.h **** 
 472:Lib/AI_Runtime/Npu/ll_aton/ll_aton_NN_interface.h ****   static inline uint32_t EpochBlock_EpochControllerUnit(const EpochBlock_ItemTypeDef *eb)
 473:Lib/AI_Runtime/Npu/ll_aton/ll_aton_NN_interface.h ****   {
 474:Lib/AI_Runtime/Npu/ll_aton/ll_aton_NN_interface.h ****     LL_ATON_ASSERT(EpochBlock_IsEpochBlob(eb));
 475:Lib/AI_Runtime/Npu/ll_aton/ll_aton_NN_interface.h ****     return eb->wait_mask;
 476:Lib/AI_Runtime/Npu/ll_aton/ll_aton_NN_interface.h ****   }
 477:Lib/AI_Runtime/Npu/ll_aton/ll_aton_NN_interface.h **** 
 478:Lib/AI_Runtime/Npu/ll_aton/ll_aton_NN_interface.h ****   static inline uintptr_t EpochBlock_EpochBlobAddr(const EpochBlock_ItemTypeDef *eb)
 479:Lib/AI_Runtime/Npu/ll_aton/ll_aton_NN_interface.h ****   {
 480:Lib/AI_Runtime/Npu/ll_aton/ll_aton_NN_interface.h ****     LL_ATON_ASSERT(EpochBlock_IsEpochBlob(eb));
ARM GAS  C:\Users\DJESSOU\AppData\Local\Temp\ccfF5lhd.s 			page 10


 481:Lib/AI_Runtime/Npu/ll_aton/ll_aton_NN_interface.h ****     return eb->blob_address;
 482:Lib/AI_Runtime/Npu/ll_aton/ll_aton_NN_interface.h ****   }
 483:Lib/AI_Runtime/Npu/ll_aton/ll_aton_NN_interface.h **** 
 484:Lib/AI_Runtime/Npu/ll_aton/ll_aton_NN_interface.h ****   static inline unsigned char *LL_Buffer_addr_base(const LL_Buffer_InfoTypeDef *buf)
 485:Lib/AI_Runtime/Npu/ll_aton/ll_aton_NN_interface.h ****   {
 486:Lib/AI_Runtime/Npu/ll_aton/ll_aton_NN_interface.h ****     if (buf->is_user_allocated)
 487:Lib/AI_Runtime/Npu/ll_aton/ll_aton_NN_interface.h ****     {
 488:Lib/AI_Runtime/Npu/ll_aton/ll_aton_NN_interface.h ****       unsigned char **tmp = (unsigned char **)buf->addr_base.p;
 489:Lib/AI_Runtime/Npu/ll_aton/ll_aton_NN_interface.h ****       return *tmp;
 490:Lib/AI_Runtime/Npu/ll_aton/ll_aton_NN_interface.h ****     }
 491:Lib/AI_Runtime/Npu/ll_aton/ll_aton_NN_interface.h ****     return buf->addr_base.p;
 492:Lib/AI_Runtime/Npu/ll_aton/ll_aton_NN_interface.h ****   }
 493:Lib/AI_Runtime/Npu/ll_aton/ll_aton_NN_interface.h **** 
 494:Lib/AI_Runtime/Npu/ll_aton/ll_aton_NN_interface.h ****   static inline unsigned char *LL_Buffer_addr_start(const LL_Buffer_InfoTypeDef *buf)
 495:Lib/AI_Runtime/Npu/ll_aton/ll_aton_NN_interface.h ****   {
  35              		.loc 2 495 3 view -0
  36              		.cfi_startproc
  37              		@ args = 0, pretend = 0, frame = 0
  38              		@ frame_needed = 0, uses_anonymous_args = 0
  39              		@ link register save eliminated.
 496:Lib/AI_Runtime/Npu/ll_aton/ll_aton_NN_interface.h ****     return LL_Buffer_addr_base(buf) + buf->offset_start;
  40              		.loc 2 496 5 view .LVU1
  41              	.LBB9:
  42              	.LBI9:
 484:Lib/AI_Runtime/Npu/ll_aton/ll_aton_NN_interface.h ****   {
  43              		.loc 2 484 32 view .LVU2
  44              	.LBB10:
 486:Lib/AI_Runtime/Npu/ll_aton/ll_aton_NN_interface.h ****     {
  45              		.loc 2 486 5 view .LVU3
 486:Lib/AI_Runtime/Npu/ll_aton/ll_aton_NN_interface.h ****     {
  46              		.loc 2 486 8 is_stmt 0 view .LVU4
  47 0000 027D     		ldrb	r2, [r0, #20]	@ zero_extendqisi2
  48              	.LBB11:
 488:Lib/AI_Runtime/Npu/ll_aton/ll_aton_NN_interface.h ****       return *tmp;
  49              		.loc 2 488 23 view .LVU5
  50 0002 4368     		ldr	r3, [r0, #4]
  51              	.LBE11:
 486:Lib/AI_Runtime/Npu/ll_aton/ll_aton_NN_interface.h ****     {
  52              		.loc 2 486 8 view .LVU6
  53 0004 02B1     		cbz	r2, .L2
  54              	.LBB12:
 488:Lib/AI_Runtime/Npu/ll_aton/ll_aton_NN_interface.h ****       return *tmp;
  55              		.loc 2 488 7 is_stmt 1 view .LVU7
  56              	.LVL1:
 489:Lib/AI_Runtime/Npu/ll_aton/ll_aton_NN_interface.h ****     }
  57              		.loc 2 489 7 view .LVU8
 489:Lib/AI_Runtime/Npu/ll_aton/ll_aton_NN_interface.h ****     }
  58              		.loc 2 489 14 is_stmt 0 view .LVU9
  59 0006 1B68     		ldr	r3, [r3]
  60              	.LVL2:
  61              	.L2:
 489:Lib/AI_Runtime/Npu/ll_aton/ll_aton_NN_interface.h ****     }
  62              		.loc 2 489 14 view .LVU10
  63              	.LBE12:
  64              	.LBE10:
  65              	.LBE9:
  66              		.loc 2 496 37 discriminator 1 view .LVU11
ARM GAS  C:\Users\DJESSOU\AppData\Local\Temp\ccfF5lhd.s 			page 11


  67 0008 8068     		ldr	r0, [r0, #8]
  68              	.LVL3:
 497:Lib/AI_Runtime/Npu/ll_aton/ll_aton_NN_interface.h ****   }
  69              		.loc 2 497 3 view .LVU12
  70 000a 1844     		add	r0, r0, r3
  71 000c 7047     		bx	lr
  72              		.cfi_endproc
  73              	.LFE15:
  75              		.section	.text.__ll_aton_stai_check_context_network_handle.constprop.0,"ax",%progbits
  76              		.align	1
  77              		.syntax unified
  78              		.thumb
  79              		.thumb_func
  81              	__ll_aton_stai_check_context_network_handle.constprop.0:
  82              	.LVL4:
  83              	.LFB329:
  84              		.file 3 "Lib/AI_Runtime/Npu/ll_aton/ll_aton_stai_internal.h"
   1:Lib/AI_Runtime/Npu/ll_aton/ll_aton_stai_internal.h **** /**
   2:Lib/AI_Runtime/Npu/ll_aton/ll_aton_stai_internal.h ****  ******************************************************************************
   3:Lib/AI_Runtime/Npu/ll_aton/ll_aton_stai_internal.h ****  * @file    ll_aton_stai_internal.h
   4:Lib/AI_Runtime/Npu/ll_aton/ll_aton_stai_internal.h ****  * @author  SRA Artificial Intelligence & Embedded Architectures
   5:Lib/AI_Runtime/Npu/ll_aton/ll_aton_stai_internal.h ****  * @brief   Implementation of ST.AI public & internal APIs for ATON
   6:Lib/AI_Runtime/Npu/ll_aton/ll_aton_stai_internal.h ****  ******************************************************************************
   7:Lib/AI_Runtime/Npu/ll_aton/ll_aton_stai_internal.h ****  * @attention
   8:Lib/AI_Runtime/Npu/ll_aton/ll_aton_stai_internal.h ****  *
   9:Lib/AI_Runtime/Npu/ll_aton/ll_aton_stai_internal.h ****  * Copyright (c) 2024 STMicroelectronics.
  10:Lib/AI_Runtime/Npu/ll_aton/ll_aton_stai_internal.h ****  * All rights reserved.
  11:Lib/AI_Runtime/Npu/ll_aton/ll_aton_stai_internal.h ****  *
  12:Lib/AI_Runtime/Npu/ll_aton/ll_aton_stai_internal.h ****  * This software is licensed under terms that can be found in the LICENSE file
  13:Lib/AI_Runtime/Npu/ll_aton/ll_aton_stai_internal.h ****  * in the root directory of this software component.
  14:Lib/AI_Runtime/Npu/ll_aton/ll_aton_stai_internal.h ****  * If no LICENSE file comes with this software, it is provided AS-IS.
  15:Lib/AI_Runtime/Npu/ll_aton/ll_aton_stai_internal.h ****  *
  16:Lib/AI_Runtime/Npu/ll_aton/ll_aton_stai_internal.h ****  ******************************************************************************
  17:Lib/AI_Runtime/Npu/ll_aton/ll_aton_stai_internal.h ****  */
  18:Lib/AI_Runtime/Npu/ll_aton/ll_aton_stai_internal.h **** 
  19:Lib/AI_Runtime/Npu/ll_aton/ll_aton_stai_internal.h **** #ifndef __LL_ATON_STAI_INTERNAL_H
  20:Lib/AI_Runtime/Npu/ll_aton/ll_aton_stai_internal.h **** #define __LL_ATON_STAI_INTERNAL_H
  21:Lib/AI_Runtime/Npu/ll_aton/ll_aton_stai_internal.h **** 
  22:Lib/AI_Runtime/Npu/ll_aton/ll_aton_stai_internal.h **** // ATON headers
  23:Lib/AI_Runtime/Npu/ll_aton/ll_aton_stai_internal.h **** #include "ll_aton_rt_user_api.h"
  24:Lib/AI_Runtime/Npu/ll_aton/ll_aton_stai_internal.h **** #include "ll_aton_util.h"
  25:Lib/AI_Runtime/Npu/ll_aton/ll_aton_stai_internal.h **** 
  26:Lib/AI_Runtime/Npu/ll_aton/ll_aton_stai_internal.h **** // ST.AI headers
  27:Lib/AI_Runtime/Npu/ll_aton/ll_aton_stai_internal.h **** #include "stai_aton_common.h"
  28:Lib/AI_Runtime/Npu/ll_aton/ll_aton_stai_internal.h **** 
  29:Lib/AI_Runtime/Npu/ll_aton/ll_aton_stai_internal.h **** #ifdef __cplusplus
  30:Lib/AI_Runtime/Npu/ll_aton/ll_aton_stai_internal.h **** extern "C"
  31:Lib/AI_Runtime/Npu/ll_aton/ll_aton_stai_internal.h **** {
  32:Lib/AI_Runtime/Npu/ll_aton/ll_aton_stai_internal.h **** #endif
  33:Lib/AI_Runtime/Npu/ll_aton/ll_aton_stai_internal.h **** 
  34:Lib/AI_Runtime/Npu/ll_aton/ll_aton_stai_internal.h **** /*****************************************************************************/
  35:Lib/AI_Runtime/Npu/ll_aton/ll_aton_stai_internal.h **** #define STAI_INTERNAL_ENTRY /* STAI_INTERNAL_ENTRY */
  36:Lib/AI_Runtime/Npu/ll_aton/ll_aton_stai_internal.h **** #define STAI_SIZE(_size)    ((stai_size)(_size))
  37:Lib/AI_Runtime/Npu/ll_aton/ll_aton_stai_internal.h **** 
  38:Lib/AI_Runtime/Npu/ll_aton/ll_aton_stai_internal.h **** /*****************************************************************************/
  39:Lib/AI_Runtime/Npu/ll_aton/ll_aton_stai_internal.h **** #define STAI_INIT_BUFFER(_flags, _size, _address)                                                  
  40:Lib/AI_Runtime/Npu/ll_aton/ll_aton_stai_internal.h ****   {                                                                                                
ARM GAS  C:\Users\DJESSOU\AppData\Local\Temp\ccfF5lhd.s 			page 12


  41:Lib/AI_Runtime/Npu/ll_aton/ll_aton_stai_internal.h ****     .size = (_size), .address = (uintptr_t)(_address), .flags = (_flags),                          
  42:Lib/AI_Runtime/Npu/ll_aton/ll_aton_stai_internal.h ****   }
  43:Lib/AI_Runtime/Npu/ll_aton/ll_aton_stai_internal.h **** 
  44:Lib/AI_Runtime/Npu/ll_aton/ll_aton_stai_internal.h **** #define STAI_INIT_TENSOR(_name, _flags, _fmt, _size_bytes, _shape, _scale, _zeropoint)             
  45:Lib/AI_Runtime/Npu/ll_aton/ll_aton_stai_internal.h ****   {                                                                                                
  46:Lib/AI_Runtime/Npu/ll_aton/ll_aton_stai_internal.h ****     .size_bytes = (_size_bytes), .flags = (_flags), .format = (stai_format)(_fmt), .shape = STAI_PA
  47:Lib/AI_Runtime/Npu/ll_aton/ll_aton_stai_internal.h ****     .scale = STAI_PACK(_scale), .zeropoint = STAI_PACK(_zeropoint), .name = (_name)                
  48:Lib/AI_Runtime/Npu/ll_aton/ll_aton_stai_internal.h ****   }
  49:Lib/AI_Runtime/Npu/ll_aton/ll_aton_stai_internal.h **** 
  50:Lib/AI_Runtime/Npu/ll_aton/ll_aton_stai_internal.h **** #define STAI_INIT_ARRAY(_size, _ptr)                                                               
  51:Lib/AI_Runtime/Npu/ll_aton/ll_aton_stai_internal.h ****   {                                                                                                
  52:Lib/AI_Runtime/Npu/ll_aton/ll_aton_stai_internal.h ****     .size = STAI_SIZE(_size), .data = STAI_PACK(_ptr)                                              
  53:Lib/AI_Runtime/Npu/ll_aton/ll_aton_stai_internal.h ****   }
  54:Lib/AI_Runtime/Npu/ll_aton/ll_aton_stai_internal.h **** 
  55:Lib/AI_Runtime/Npu/ll_aton/ll_aton_stai_internal.h **** #define STAI_CAST_ARRAY(_type, _size, _ptr)                                                        
  56:Lib/AI_Runtime/Npu/ll_aton/ll_aton_stai_internal.h ****   {                                                                                                
  57:Lib/AI_Runtime/Npu/ll_aton/ll_aton_stai_internal.h ****     .size = STAI_SIZE(_size), .data = (_type)STAI_PACK(_ptr)                                       
  58:Lib/AI_Runtime/Npu/ll_aton/ll_aton_stai_internal.h ****   }
  59:Lib/AI_Runtime/Npu/ll_aton/ll_aton_stai_internal.h **** 
  60:Lib/AI_Runtime/Npu/ll_aton/ll_aton_stai_internal.h **** #define STAI_DECLARE_ARRAY(_type, _size, _array_initializer)                                       
  61:Lib/AI_Runtime/Npu/ll_aton/ll_aton_stai_internal.h ****   {                                                                                                
  62:Lib/AI_Runtime/Npu/ll_aton/ll_aton_stai_internal.h ****     .size = STAI_SIZE(_size), .data = (_type[_size])STAI_PACK(_array_initializer)                  
  63:Lib/AI_Runtime/Npu/ll_aton/ll_aton_stai_internal.h ****   }
  64:Lib/AI_Runtime/Npu/ll_aton/ll_aton_stai_internal.h **** 
  65:Lib/AI_Runtime/Npu/ll_aton/ll_aton_stai_internal.h **** #define STAI_EMPTY_ARRAY()                                                                         
  66:Lib/AI_Runtime/Npu/ll_aton/ll_aton_stai_internal.h ****   {                                                                                                
  67:Lib/AI_Runtime/Npu/ll_aton/ll_aton_stai_internal.h ****     .size = 0, .data = NULL                                                                        
  68:Lib/AI_Runtime/Npu/ll_aton/ll_aton_stai_internal.h ****   }
  69:Lib/AI_Runtime/Npu/ll_aton/ll_aton_stai_internal.h **** 
  70:Lib/AI_Runtime/Npu/ll_aton/ll_aton_stai_internal.h **** #define STAI_INIT_VERSION(_major, _minor, _micro)                                                  
  71:Lib/AI_Runtime/Npu/ll_aton/ll_aton_stai_internal.h ****   {                                                                                                
  72:Lib/AI_Runtime/Npu/ll_aton/ll_aton_stai_internal.h ****     .major = (_major), .minor = (_minor), .micro = (_micro), .reserved = 0x0                       
  73:Lib/AI_Runtime/Npu/ll_aton/ll_aton_stai_internal.h ****   }
  74:Lib/AI_Runtime/Npu/ll_aton/ll_aton_stai_internal.h **** 
  75:Lib/AI_Runtime/Npu/ll_aton/ll_aton_stai_internal.h **** /*****************************************************************************/
  76:Lib/AI_Runtime/Npu/ll_aton/ll_aton_stai_internal.h **** /**  Internal ATON ST.AI APIs                                               **/
  77:Lib/AI_Runtime/Npu/ll_aton/ll_aton_stai_internal.h **** /*****************************************************************************/
  78:Lib/AI_Runtime/Npu/ll_aton/ll_aton_stai_internal.h **** 
  79:Lib/AI_Runtime/Npu/ll_aton/ll_aton_stai_internal.h **** /*****************************************************************************/
  80:Lib/AI_Runtime/Npu/ll_aton/ll_aton_stai_internal.h **** /**Macros **/
  81:Lib/AI_Runtime/Npu/ll_aton/ll_aton_stai_internal.h **** /* Set context error */
  82:Lib/AI_Runtime/Npu/ll_aton/ll_aton_stai_internal.h **** #define __LL_ATON_STAI_SET_1ST_CTX_ERROR_AND_RETURN(ctx, err)                                      
  83:Lib/AI_Runtime/Npu/ll_aton/ll_aton_stai_internal.h ****   do                                                                                               
  84:Lib/AI_Runtime/Npu/ll_aton/ll_aton_stai_internal.h ****   {                                                                                                
  85:Lib/AI_Runtime/Npu/ll_aton/ll_aton_stai_internal.h ****     /* check context handle */                                                                     
  86:Lib/AI_Runtime/Npu/ll_aton/ll_aton_stai_internal.h ****     if (!(ctx))                                                                                    
  87:Lib/AI_Runtime/Npu/ll_aton/ll_aton_stai_internal.h ****       return STAI_ERROR_NETWORK_INVALID_CONTEXT_HANDLE;                                            
  88:Lib/AI_Runtime/Npu/ll_aton/ll_aton_stai_internal.h ****                                                                                                    
  89:Lib/AI_Runtime/Npu/ll_aton/ll_aton_stai_internal.h ****     if (((ctx)->first_error) < STAI_ERROR_GENERIC)                                                 
  90:Lib/AI_Runtime/Npu/ll_aton/ll_aton_stai_internal.h ****       (ctx)->first_error = (err);                                                                  
  91:Lib/AI_Runtime/Npu/ll_aton/ll_aton_stai_internal.h ****     return (err);                                                                                  
  92:Lib/AI_Runtime/Npu/ll_aton/ll_aton_stai_internal.h ****   } while (0)
  93:Lib/AI_Runtime/Npu/ll_aton/ll_aton_stai_internal.h **** 
  94:Lib/AI_Runtime/Npu/ll_aton/ll_aton_stai_internal.h **** /* check context & network interface handle */
  95:Lib/AI_Runtime/Npu/ll_aton/ll_aton_stai_internal.h **** #define __LL_ATON_STAI_ACQUIRE_INTERFACE(_net_interface, _network)                                 
  96:Lib/AI_Runtime/Npu/ll_aton/ll_aton_stai_internal.h ****   const NN_Interface_TypeDef *_net_interface = NULL;                                               
  97:Lib/AI_Runtime/Npu/ll_aton/ll_aton_stai_internal.h ****   stai_return_code _ret = __ll_aton_stai_check_context_network_handle(_network, &_net_interface);  
ARM GAS  C:\Users\DJESSOU\AppData\Local\Temp\ccfF5lhd.s 			page 13


  98:Lib/AI_Runtime/Npu/ll_aton/ll_aton_stai_internal.h ****   if (_ret >= STAI_ERROR_GENERIC)                                                                  
  99:Lib/AI_Runtime/Npu/ll_aton/ll_aton_stai_internal.h ****     return _ret;
 100:Lib/AI_Runtime/Npu/ll_aton/ll_aton_stai_internal.h **** 
 101:Lib/AI_Runtime/Npu/ll_aton/ll_aton_stai_internal.h **** #define __LL_ATON_START_CONT_EXEC(_nn_instance)                                                    
 102:Lib/AI_Runtime/Npu/ll_aton/ll_aton_stai_internal.h ****   do                                                                                               
 103:Lib/AI_Runtime/Npu/ll_aton/ll_aton_stai_internal.h ****   {                                                                                                
 104:Lib/AI_Runtime/Npu/ll_aton/ll_aton_stai_internal.h ****     STAI_ASSERT((_nn_instance) != NULL);                                                           
 105:Lib/AI_Runtime/Npu/ll_aton/ll_aton_stai_internal.h ****     _stai_aton_context *_stai_nn_ctx =                                                             
 106:Lib/AI_Runtime/Npu/ll_aton/ll_aton_stai_internal.h ****         (_stai_aton_context *)((void *)(_nn_instance)) - offsetof(_stai_aton_context, network_insta
 107:Lib/AI_Runtime/Npu/ll_aton/ll_aton_stai_internal.h ****                                                                                                    
 108:Lib/AI_Runtime/Npu/ll_aton/ll_aton_stai_internal.h ****     /* start/continue execution */                                                                 
 109:Lib/AI_Runtime/Npu/ll_aton/ll_aton_stai_internal.h ****     __ll_aton_stai_set_execution_status(LL_ATON_RT_RunEpochBlock((_nn_instance)), _stai_nn_ctx);   
 110:Lib/AI_Runtime/Npu/ll_aton/ll_aton_stai_internal.h ****                                                                                                    
 111:Lib/AI_Runtime/Npu/ll_aton/ll_aton_stai_internal.h ****     /* get current execution status */                                                             
 112:Lib/AI_Runtime/Npu/ll_aton/ll_aton_stai_internal.h ****     stai_return_code current_exec_status = __ll_aton_stai_get_execution_status(_stai_nn_ctx);      
 113:Lib/AI_Runtime/Npu/ll_aton/ll_aton_stai_internal.h ****     return current_exec_status;                                                                    
 114:Lib/AI_Runtime/Npu/ll_aton/ll_aton_stai_internal.h ****   } while (0)
 115:Lib/AI_Runtime/Npu/ll_aton/ll_aton_stai_internal.h **** 
 116:Lib/AI_Runtime/Npu/ll_aton/ll_aton_stai_internal.h ****   /** Functions **/
 117:Lib/AI_Runtime/Npu/ll_aton/ll_aton_stai_internal.h ****   STAI_API_DECLARE_BEGIN
 118:Lib/AI_Runtime/Npu/ll_aton/ll_aton_stai_internal.h **** 
 119:Lib/AI_Runtime/Npu/ll_aton/ll_aton_stai_internal.h ****   STAI_INTERNAL_ENTRY
 120:Lib/AI_Runtime/Npu/ll_aton/ll_aton_stai_internal.h ****   static inline stai_return_code __ll_aton_stai_check_context_network_handle(stai_network *network,
  85              		.loc 3 120 34 is_stmt 1 view -0
  86              		.cfi_startproc
  87              		@ args = 0, pretend = 0, frame = 0
  88              		@ frame_needed = 0, uses_anonymous_args = 0
  89              		@ link register save eliminated.
 121:Lib/AI_Runtime/Npu/ll_aton/ll_aton_stai_internal.h ****                                                                              const NN_Interface_Typ
 122:Lib/AI_Runtime/Npu/ll_aton/ll_aton_stai_internal.h ****   {
 123:Lib/AI_Runtime/Npu/ll_aton/ll_aton_stai_internal.h ****     /* check context handle */
 124:Lib/AI_Runtime/Npu/ll_aton/ll_aton_stai_internal.h ****     if (!network)
  90              		.loc 3 124 5 view .LVU14
  91              		.loc 3 124 8 is_stmt 0 view .LVU15
  92 0000 40B1     		cbz	r0, .L7
 125:Lib/AI_Runtime/Npu/ll_aton/ll_aton_stai_internal.h ****       return STAI_ERROR_NETWORK_INVALID_CONTEXT_HANDLE;
 126:Lib/AI_Runtime/Npu/ll_aton/ll_aton_stai_internal.h **** 
 127:Lib/AI_Runtime/Npu/ll_aton/ll_aton_stai_internal.h ****     /* check network handle */
 128:Lib/AI_Runtime/Npu/ll_aton/ll_aton_stai_internal.h ****     _stai_aton_context *context_ptr = (_stai_aton_context *)network;
  93              		.loc 3 128 5 is_stmt 1 view .LVU16
  94              	.LVL5:
 129:Lib/AI_Runtime/Npu/ll_aton/ll_aton_stai_internal.h ****     const NN_Interface_TypeDef *nn_i_ptr = context_ptr->network_instance.network;
  95              		.loc 3 129 5 view .LVU17
  96              		.loc 3 129 33 is_stmt 0 view .LVU18
  97 0002 0368     		ldr	r3, [r0]
  98              	.LVL6:
 130:Lib/AI_Runtime/Npu/ll_aton/ll_aton_stai_internal.h ****     if (!nn_i_ptr)
  99              		.loc 3 130 5 is_stmt 1 view .LVU19
 100              		.loc 3 130 8 is_stmt 0 view .LVU20
 101 0004 4BB9     		cbnz	r3, .L8
 131:Lib/AI_Runtime/Npu/ll_aton/ll_aton_stai_internal.h ****     {
 132:Lib/AI_Runtime/Npu/ll_aton/ll_aton_stai_internal.h ****       __LL_ATON_STAI_SET_1ST_CTX_ERROR_AND_RETURN(context_ptr, STAI_ERROR_NETWORK_INVALID_CONTEXT_H
 102              		.loc 3 132 7 is_stmt 1 view .LVU21
 103              		.loc 3 132 7 view .LVU22
 104              		.loc 3 132 7 discriminator 2 view .LVU23
 105 0006 C36B     		ldr	r3, [r0, #60]
 106              	.LVL7:
ARM GAS  C:\Users\DJESSOU\AppData\Local\Temp\ccfF5lhd.s 			page 14


 107              		.loc 3 132 7 is_stmt 0 discriminator 2 view .LVU24
 108 0008 B3F5003F 		cmp	r3, #131072
 109              		.loc 3 132 7 is_stmt 1 discriminator 3 view .LVU25
 110 000c 3CBF     		itt	cc
 111 000e 4FF44033 		movcc	r3, #196608
 112 0012 C363     		strcc	r3, [r0, #60]
 113              	.LVL8:
 114              	.L7:
 125:Lib/AI_Runtime/Npu/ll_aton/ll_aton_stai_internal.h **** 
 115              		.loc 3 125 14 is_stmt 0 view .LVU26
 116 0014 4FF44030 		mov	r0, #196608
 117              	.LVL9:
 125:Lib/AI_Runtime/Npu/ll_aton/ll_aton_stai_internal.h **** 
 118              		.loc 3 125 14 view .LVU27
 119 0018 7047     		bx	lr
 120              	.LVL10:
 121              	.L8:
 122              		.loc 3 132 7 is_stmt 1 view .LVU28
 133:Lib/AI_Runtime/Npu/ll_aton/ll_aton_stai_internal.h ****     }
 134:Lib/AI_Runtime/Npu/ll_aton/ll_aton_stai_internal.h **** 
 135:Lib/AI_Runtime/Npu/ll_aton/ll_aton_stai_internal.h ****     /* save network pointer */
 136:Lib/AI_Runtime/Npu/ll_aton/ll_aton_stai_internal.h ****     *nn_i_ptr_ptr = nn_i_ptr;
 123              		.loc 3 136 5 view .LVU29
 137:Lib/AI_Runtime/Npu/ll_aton/ll_aton_stai_internal.h ****     return STAI_SUCCESS;
 124              		.loc 3 137 12 is_stmt 0 view .LVU30
 125 001a 0020     		movs	r0, #0
 126              	.LVL11:
 136:Lib/AI_Runtime/Npu/ll_aton/ll_aton_stai_internal.h ****     return STAI_SUCCESS;
 127              		.loc 3 136 19 view .LVU31
 128 001c 0B60     		str	r3, [r1]
 129              		.loc 3 137 5 is_stmt 1 view .LVU32
 138:Lib/AI_Runtime/Npu/ll_aton/ll_aton_stai_internal.h ****   }
 130              		.loc 3 138 3 is_stmt 0 view .LVU33
 131 001e 7047     		bx	lr
 132              		.cfi_endproc
 133              	.LFE329:
 135              		.section	.rodata.__ll_aton_stai_hand_landmark_set_outputs_or_activations.str1.1,"aMS",%progbits,1
 136              	.LC0:
 137 0000 62756666 		.ascii	"buffer_info->offset_start == 0\000"
 137      65725F69 
 137      6E666F2D 
 137      3E6F6666 
 137      7365745F 
 138              	.LC1:
 139 001f 4D6F6465 		.ascii	"Model/stai_hand_landmark.c\000"
 139      6C2F7374 
 139      61695F68 
 139      616E645F 
 139      6C616E64 
 140              	.LC2:
 141 003a 61646472 		.ascii	"address_location != ((void *)0)\000"
 141      6573735F 
 141      6C6F6361 
 141      74696F6E 
 141      20213D20 
 142              		.section	.text.__ll_aton_stai_hand_landmark_set_outputs_or_activations,"ax",%progbits
 143              		.align	1
ARM GAS  C:\Users\DJESSOU\AppData\Local\Temp\ccfF5lhd.s 			page 15


 144              		.syntax unified
 145              		.thumb
 146              		.thumb_func
 148              	__ll_aton_stai_hand_landmark_set_outputs_or_activations:
 149              	.LVL12:
 150              	.LFB306:
   1:Model/stai_hand_landmark.c **** 
   2:Model/stai_hand_landmark.c **** /* AUTOGENERATED DO NOT MODIFY */
   3:Model/stai_hand_landmark.c **** 
   4:Model/stai_hand_landmark.c **** /**
   5:Model/stai_hand_landmark.c ****  ******************************************************************************
   6:Model/stai_hand_landmark.c ****  * @file    stai_hand_landmark.c
   7:Model/stai_hand_landmark.c ****  * @author  SRA Artificial Intelligence & Embedded Architectures
   8:Model/stai_hand_landmark.c ****  * @brief   Implementation of ST.AI platform public APIs for ATON
   9:Model/stai_hand_landmark.c ****  ******************************************************************************
  10:Model/stai_hand_landmark.c ****  * @attention
  11:Model/stai_hand_landmark.c ****  *
  12:Model/stai_hand_landmark.c ****  * Copyright (c) 2024 STMicroelectronics.
  13:Model/stai_hand_landmark.c ****  * All rights reserved.
  14:Model/stai_hand_landmark.c ****  *
  15:Model/stai_hand_landmark.c ****  * This software is licensed under terms that can be found in the LICENSE file
  16:Model/stai_hand_landmark.c ****  * in the root directory of this software component.
  17:Model/stai_hand_landmark.c ****  * If no LICENSE file comes with this software, it is provided AS-IS.
  18:Model/stai_hand_landmark.c ****  *
  19:Model/stai_hand_landmark.c ****  ******************************************************************************
  20:Model/stai_hand_landmark.c ****  */
  21:Model/stai_hand_landmark.c **** 
  22:Model/stai_hand_landmark.c **** #include "stai_hand_landmark.h"
  23:Model/stai_hand_landmark.c **** #include "ll_aton_rt_user_api.h"
  24:Model/stai_hand_landmark.c **** #include "ll_aton_util.h"
  25:Model/stai_hand_landmark.c **** #include "ll_aton_version.h"
  26:Model/stai_hand_landmark.c **** 
  27:Model/stai_hand_landmark.c **** /* Status variables */
  28:Model/stai_hand_landmark.c **** LL_ATON_DECLARE_NAMED_NN_INTERFACE(hand_landmark);
  29:Model/stai_hand_landmark.c **** 
  30:Model/stai_hand_landmark.c **** /* Helper macros & functions */
  31:Model/stai_hand_landmark.c **** #define __LL_ATON_STAI_CHECK_NETWORK_INTERFACE(nn_interface_ptr, ctx)                              
  32:Model/stai_hand_landmark.c ****   do                                                                                               
  33:Model/stai_hand_landmark.c ****   {                                                                                                
  34:Model/stai_hand_landmark.c ****     if ((nn_interface_ptr) != &NN_Interface_hand_landmark)                                         
  35:Model/stai_hand_landmark.c ****       __LL_ATON_STAI_SET_1ST_CTX_ERROR_AND_RETURN((ctx), STAI_ERROR_NETWORK_INVALID_CONTEXT_HANDLE)
  36:Model/stai_hand_landmark.c ****   } while (0)
  37:Model/stai_hand_landmark.c **** 
  38:Model/stai_hand_landmark.c **** static inline stai_return_code __ll_aton_stai_hand_landmark_get_inputs_or_weights(stai_network *net
  39:Model/stai_hand_landmark.c ****                                                                                           stai_ptr 
  40:Model/stai_hand_landmark.c ****                                                                                           stai_size
  41:Model/stai_hand_landmark.c ****                                                                                           bool inpu
  42:Model/stai_hand_landmark.c **** {
  43:Model/stai_hand_landmark.c ****   __LL_ATON_STAI_ACQUIRE_INTERFACE(nn_i_ptr, network);
  44:Model/stai_hand_landmark.c ****   __LL_ATON_STAI_CHECK_NETWORK_INTERFACE(nn_i_ptr, (_stai_aton_context *)network);
  45:Model/stai_hand_landmark.c **** 
  46:Model/stai_hand_landmark.c ****   /* check parameters */
  47:Model/stai_hand_landmark.c ****   if (!n_ptrs)
  48:Model/stai_hand_landmark.c ****     __LL_ATON_STAI_SET_1ST_CTX_ERROR_AND_RETURN((_stai_aton_context *)network,
  49:Model/stai_hand_landmark.c ****                                                 STAI_ERROR_NETWORK_INVALID_API_ARGUMENTS);
  50:Model/stai_hand_landmark.c **** 
  51:Model/stai_hand_landmark.c ****   /* get input buffers */
ARM GAS  C:\Users\DJESSOU\AppData\Local\Temp\ccfF5lhd.s 			page 16


  52:Model/stai_hand_landmark.c ****   const LL_Buffer_InfoTypeDef *input_buffers = nn_i_ptr->input_buffers_info();
  53:Model/stai_hand_landmark.c **** 
  54:Model/stai_hand_landmark.c ****   /* copy buffer addresses */
  55:Model/stai_hand_landmark.c ****   unsigned cnt = 0;
  56:Model/stai_hand_landmark.c ****   if (input_buffers != NULL)
  57:Model/stai_hand_landmark.c ****   {
  58:Model/stai_hand_landmark.c ****     for (unsigned idx = 0; input_buffers[idx].name != NULL; idx++)
  59:Model/stai_hand_landmark.c ****     {
  60:Model/stai_hand_landmark.c ****       const LL_Buffer_InfoTypeDef *buffer_info = &input_buffers[idx];
  61:Model/stai_hand_landmark.c ****       if (inputs == !buffer_info->is_param)
  62:Model/stai_hand_landmark.c ****       {
  63:Model/stai_hand_landmark.c ****         if (pointers)
  64:Model/stai_hand_landmark.c ****         {
  65:Model/stai_hand_landmark.c ****           if (buffer_info->is_user_allocated) // is it an user allocatable buffer
  66:Model/stai_hand_landmark.c ****           {
  67:Model/stai_hand_landmark.c ****             LL_ATON_ASSERT(buffer_info->offset_start ==
  68:Model/stai_hand_landmark.c ****                            0); // user allocated buffers always have an offset equal to zero
  69:Model/stai_hand_landmark.c ****             pointers[cnt] = LL_Buffer_addr_start(buffer_info); // user allocated buffers are saved 
  70:Model/stai_hand_landmark.c ****             LL_ATON_ASSERT(((uintptr_t)pointers[cnt] % STAI_CACHE_USER_BUFFER_ALIGNMENT) == 0);
  71:Model/stai_hand_landmark.c ****           }
  72:Model/stai_hand_landmark.c ****           else // buffer is not user allocatable
  73:Model/stai_hand_landmark.c ****           {
  74:Model/stai_hand_landmark.c ****             pointers[cnt] = ATON_LIB_PHYSICAL_TO_VIRTUAL_ADDR(LL_Buffer_addr_start(buffer_info));
  75:Model/stai_hand_landmark.c ****           }
  76:Model/stai_hand_landmark.c ****         }
  77:Model/stai_hand_landmark.c ****         cnt++;
  78:Model/stai_hand_landmark.c ****       }
  79:Model/stai_hand_landmark.c ****     }
  80:Model/stai_hand_landmark.c ****   }
  81:Model/stai_hand_landmark.c ****   else
  82:Model/stai_hand_landmark.c ****   {
  83:Model/stai_hand_landmark.c ****     STAI_ASSERT((inputs ? STAI_HAND_LANDMARK_IN_NUM : STAI_HAND_LANDMARK_WEIGHTS_NUM) == 0);
  84:Model/stai_hand_landmark.c ****   }
  85:Model/stai_hand_landmark.c **** #ifndef NDEBUG
  86:Model/stai_hand_landmark.c ****   if (inputs)
  87:Model/stai_hand_landmark.c ****   {
  88:Model/stai_hand_landmark.c ****     STAI_ASSERT(cnt == STAI_HAND_LANDMARK_IN_NUM);
  89:Model/stai_hand_landmark.c ****   }
  90:Model/stai_hand_landmark.c ****   else
  91:Model/stai_hand_landmark.c ****   {
  92:Model/stai_hand_landmark.c ****     STAI_ASSERT(cnt == STAI_HAND_LANDMARK_WEIGHTS_NUM);
  93:Model/stai_hand_landmark.c ****   }
  94:Model/stai_hand_landmark.c **** #endif // !NDEBUG
  95:Model/stai_hand_landmark.c **** 
  96:Model/stai_hand_landmark.c ****   /* save number of elements return value */
  97:Model/stai_hand_landmark.c ****   if (inputs)
  98:Model/stai_hand_landmark.c ****   {
  99:Model/stai_hand_landmark.c ****     *n_ptrs = STAI_HAND_LANDMARK_IN_NUM;
 100:Model/stai_hand_landmark.c ****   }
 101:Model/stai_hand_landmark.c ****   else
 102:Model/stai_hand_landmark.c ****   {
 103:Model/stai_hand_landmark.c ****     *n_ptrs = STAI_HAND_LANDMARK_WEIGHTS_NUM;
 104:Model/stai_hand_landmark.c ****   }
 105:Model/stai_hand_landmark.c **** 
 106:Model/stai_hand_landmark.c ****   return STAI_SUCCESS;
 107:Model/stai_hand_landmark.c **** }
 108:Model/stai_hand_landmark.c **** 
ARM GAS  C:\Users\DJESSOU\AppData\Local\Temp\ccfF5lhd.s 			page 17


 109:Model/stai_hand_landmark.c **** static inline stai_return_code __ll_aton_stai_hand_landmark_get_outputs_or_activations(stai_network
 110:Model/stai_hand_landmark.c ****                                                                                                stai
 111:Model/stai_hand_landmark.c ****                                                                                                stai
 112:Model/stai_hand_landmark.c ****                                                                                                bool
 113:Model/stai_hand_landmark.c **** {
 114:Model/stai_hand_landmark.c ****   /* check context & network interface handle */
 115:Model/stai_hand_landmark.c ****   __LL_ATON_STAI_ACQUIRE_INTERFACE(nn_i_ptr, network);
 116:Model/stai_hand_landmark.c ****   __LL_ATON_STAI_CHECK_NETWORK_INTERFACE(nn_i_ptr, (_stai_aton_context *)network);
 117:Model/stai_hand_landmark.c **** 
 118:Model/stai_hand_landmark.c ****   /* check parameters */
 119:Model/stai_hand_landmark.c ****   if (!n_ptrs)
 120:Model/stai_hand_landmark.c ****     __LL_ATON_STAI_SET_1ST_CTX_ERROR_AND_RETURN((_stai_aton_context *)network,
 121:Model/stai_hand_landmark.c ****                                                 STAI_ERROR_NETWORK_INVALID_API_ARGUMENTS);
 122:Model/stai_hand_landmark.c **** 
 123:Model/stai_hand_landmark.c ****   /* get output buffers */
 124:Model/stai_hand_landmark.c ****   const LL_Buffer_InfoTypeDef *out_activ_buffers;
 125:Model/stai_hand_landmark.c ****   if (outputs)
 126:Model/stai_hand_landmark.c ****   {
 127:Model/stai_hand_landmark.c ****     out_activ_buffers = nn_i_ptr->output_buffers_info();
 128:Model/stai_hand_landmark.c ****   }
 129:Model/stai_hand_landmark.c ****   else
 130:Model/stai_hand_landmark.c ****   {
 131:Model/stai_hand_landmark.c ****     out_activ_buffers = nn_i_ptr->internal_buffers_info();
 132:Model/stai_hand_landmark.c ****   }
 133:Model/stai_hand_landmark.c **** 
 134:Model/stai_hand_landmark.c ****   /* copy buffer addresses */
 135:Model/stai_hand_landmark.c ****   unsigned cnt = 0;
 136:Model/stai_hand_landmark.c ****   if (out_activ_buffers != NULL)
 137:Model/stai_hand_landmark.c ****   {
 138:Model/stai_hand_landmark.c ****     for (unsigned idx = 0; out_activ_buffers[idx].name != NULL; idx++)
 139:Model/stai_hand_landmark.c ****     {
 140:Model/stai_hand_landmark.c ****       const LL_Buffer_InfoTypeDef *buffer_info = &out_activ_buffers[idx];
 141:Model/stai_hand_landmark.c ****       STAI_ASSERT(!buffer_info->is_param); // may never happen
 142:Model/stai_hand_landmark.c ****       if (pointers)
 143:Model/stai_hand_landmark.c ****       {
 144:Model/stai_hand_landmark.c ****         if (buffer_info->is_user_allocated) // is it a user allocatable buffer
 145:Model/stai_hand_landmark.c ****         {
 146:Model/stai_hand_landmark.c ****           LL_ATON_ASSERT(buffer_info->offset_start == 0); // user allocated buffers always have an 
 147:Model/stai_hand_landmark.c ****           pointers[cnt] = LL_Buffer_addr_start(buffer_info); // user allocated buffers are saved wi
 148:Model/stai_hand_landmark.c ****           LL_ATON_ASSERT(((uintptr_t)pointers[cnt] % STAI_CACHE_USER_BUFFER_ALIGNMENT) == 0);
 149:Model/stai_hand_landmark.c ****         }
 150:Model/stai_hand_landmark.c ****         else // buffer is not user allocatable
 151:Model/stai_hand_landmark.c ****         {
 152:Model/stai_hand_landmark.c ****           pointers[cnt] = ATON_LIB_PHYSICAL_TO_VIRTUAL_ADDR(LL_Buffer_addr_start(buffer_info));
 153:Model/stai_hand_landmark.c ****         }
 154:Model/stai_hand_landmark.c ****       }
 155:Model/stai_hand_landmark.c ****       cnt++;
 156:Model/stai_hand_landmark.c ****     }
 157:Model/stai_hand_landmark.c ****   }
 158:Model/stai_hand_landmark.c ****   else
 159:Model/stai_hand_landmark.c ****   {
 160:Model/stai_hand_landmark.c ****     STAI_ASSERT((outputs ? STAI_HAND_LANDMARK_OUT_NUM : STAI_HAND_LANDMARK_ACTIVATIONS_NUM) == 0);
 161:Model/stai_hand_landmark.c ****   }
 162:Model/stai_hand_landmark.c **** #ifndef NDEBUG
 163:Model/stai_hand_landmark.c ****   if (outputs)
 164:Model/stai_hand_landmark.c ****   {
 165:Model/stai_hand_landmark.c ****     STAI_ASSERT(cnt == STAI_HAND_LANDMARK_OUT_NUM);
ARM GAS  C:\Users\DJESSOU\AppData\Local\Temp\ccfF5lhd.s 			page 18


 166:Model/stai_hand_landmark.c ****   }
 167:Model/stai_hand_landmark.c ****   else
 168:Model/stai_hand_landmark.c ****   {
 169:Model/stai_hand_landmark.c ****     STAI_ASSERT(cnt == STAI_HAND_LANDMARK_ACTIVATIONS_NUM);
 170:Model/stai_hand_landmark.c ****   }
 171:Model/stai_hand_landmark.c **** #endif // !NDEBUG
 172:Model/stai_hand_landmark.c **** 
 173:Model/stai_hand_landmark.c ****   /* save number of elements return value */
 174:Model/stai_hand_landmark.c ****   if (outputs)
 175:Model/stai_hand_landmark.c ****   {
 176:Model/stai_hand_landmark.c ****     *n_ptrs = STAI_HAND_LANDMARK_OUT_NUM;
 177:Model/stai_hand_landmark.c ****   }
 178:Model/stai_hand_landmark.c ****   else
 179:Model/stai_hand_landmark.c ****   {
 180:Model/stai_hand_landmark.c ****     *n_ptrs = STAI_HAND_LANDMARK_ACTIVATIONS_NUM;
 181:Model/stai_hand_landmark.c ****   }
 182:Model/stai_hand_landmark.c **** 
 183:Model/stai_hand_landmark.c ****   return STAI_SUCCESS;
 184:Model/stai_hand_landmark.c **** }
 185:Model/stai_hand_landmark.c **** 
 186:Model/stai_hand_landmark.c **** static inline stai_return_code __ll_aton_stai_hand_landmark_set_inputs_or_weights(stai_network *net
 187:Model/stai_hand_landmark.c ****                                                                                           const sta
 188:Model/stai_hand_landmark.c ****                                                                                           const sta
 189:Model/stai_hand_landmark.c ****                                                                                           bool inpu
 190:Model/stai_hand_landmark.c **** {
 191:Model/stai_hand_landmark.c ****   /* check context & network interface handle */
 192:Model/stai_hand_landmark.c ****   __LL_ATON_STAI_ACQUIRE_INTERFACE(nn_i_ptr, network);
 193:Model/stai_hand_landmark.c ****   __LL_ATON_STAI_CHECK_NETWORK_INTERFACE(nn_i_ptr, (_stai_aton_context *)network);
 194:Model/stai_hand_landmark.c **** 
 195:Model/stai_hand_landmark.c ****   /* get input buffers */
 196:Model/stai_hand_landmark.c ****   const LL_Buffer_InfoTypeDef *input_buffers = nn_i_ptr->input_buffers_info();
 197:Model/stai_hand_landmark.c **** 
 198:Model/stai_hand_landmark.c ****   /* check values & addresses */
 199:Model/stai_hand_landmark.c ****   LL_ATON_ASSERT(input_buffers != NULL);
 200:Model/stai_hand_landmark.c ****   if (input_buffers && !pointers)
 201:Model/stai_hand_landmark.c ****     __LL_ATON_STAI_SET_1ST_CTX_ERROR_AND_RETURN((_stai_aton_context *)network,
 202:Model/stai_hand_landmark.c ****                                                 STAI_ERROR_NETWORK_INVALID_API_ARGUMENTS);
 203:Model/stai_hand_landmark.c **** 
 204:Model/stai_hand_landmark.c ****   if (inputs)
 205:Model/stai_hand_landmark.c ****   {
 206:Model/stai_hand_landmark.c ****     if (n_ptrs != STAI_HAND_LANDMARK_IN_NUM)
 207:Model/stai_hand_landmark.c ****       __LL_ATON_STAI_SET_1ST_CTX_ERROR_AND_RETURN((_stai_aton_context *)network, STAI_ERROR_NETWORK
 208:Model/stai_hand_landmark.c ****   }
 209:Model/stai_hand_landmark.c ****   else
 210:Model/stai_hand_landmark.c ****   {
 211:Model/stai_hand_landmark.c ****     if (n_ptrs != STAI_HAND_LANDMARK_WEIGHTS_NUM)
 212:Model/stai_hand_landmark.c ****       __LL_ATON_STAI_SET_1ST_CTX_ERROR_AND_RETURN((_stai_aton_context *)network,
 213:Model/stai_hand_landmark.c ****                                                   STAI_ERROR_NETWORK_INVALID_WEIGHTS_NUM);
 214:Model/stai_hand_landmark.c ****   }
 215:Model/stai_hand_landmark.c **** 
 216:Model/stai_hand_landmark.c ****   unsigned cnt = 0;
 217:Model/stai_hand_landmark.c ****   if (input_buffers != NULL)
 218:Model/stai_hand_landmark.c ****   {
 219:Model/stai_hand_landmark.c ****     for (unsigned idx = 0; input_buffers[idx].name != NULL; idx++)
 220:Model/stai_hand_landmark.c ****     {
 221:Model/stai_hand_landmark.c ****       const LL_Buffer_InfoTypeDef *buffer_info = &input_buffers[idx];
 222:Model/stai_hand_landmark.c ****       if (inputs == !buffer_info->is_param)
ARM GAS  C:\Users\DJESSOU\AppData\Local\Temp\ccfF5lhd.s 			page 19


 223:Model/stai_hand_landmark.c ****       {
 224:Model/stai_hand_landmark.c ****         if (buffer_info->is_user_allocated) // is it an user allocatable buffer
 225:Model/stai_hand_landmark.c ****         {
 226:Model/stai_hand_landmark.c ****           LL_ATON_ASSERT(buffer_info->offset_start == 0); // user allocated buffers always have an 
 227:Model/stai_hand_landmark.c ****           unsigned char **address_location = (unsigned char **)buffer_info->addr_base.p;
 228:Model/stai_hand_landmark.c ****           unsigned char *new_address = pointers[cnt];
 229:Model/stai_hand_landmark.c **** 
 230:Model/stai_hand_landmark.c ****           if (((uintptr_t)new_address % STAI_CACHE_USER_BUFFER_ALIGNMENT) != 0) // check new addres
 231:Model/stai_hand_landmark.c ****           {                                                                     // new address is n
 232:Model/stai_hand_landmark.c ****             __LL_ATON_STAI_SET_1ST_CTX_ERROR_AND_RETURN((_stai_aton_context *)network,
 233:Model/stai_hand_landmark.c ****                                                         STAI_ERROR_INVALID_BUFFER_ALIGNMENT);
 234:Model/stai_hand_landmark.c ****           }
 235:Model/stai_hand_landmark.c ****           else // new address is aligned
 236:Model/stai_hand_landmark.c ****           {
 237:Model/stai_hand_landmark.c ****             LL_ATON_ASSERT(address_location != NULL);
 238:Model/stai_hand_landmark.c ****             *address_location = new_address;
 239:Model/stai_hand_landmark.c ****           }
 240:Model/stai_hand_landmark.c ****         }
 241:Model/stai_hand_landmark.c ****         else // buffer is not user allocatable
 242:Model/stai_hand_landmark.c ****         {
 243:Model/stai_hand_landmark.c ****           if (ATON_LIB_VIRTUAL_TO_PHYSICAL_ADDR(pointers[cnt]) != LL_Buffer_addr_start(buffer_info)
 244:Model/stai_hand_landmark.c ****             __LL_ATON_STAI_SET_1ST_CTX_ERROR_AND_RETURN((_stai_aton_context *)network,
 245:Model/stai_hand_landmark.c ****                                                         STAI_ERROR_NETWORK_INVALID_IN_PTR);
 246:Model/stai_hand_landmark.c ****         }
 247:Model/stai_hand_landmark.c ****         cnt++;
 248:Model/stai_hand_landmark.c ****       }
 249:Model/stai_hand_landmark.c ****     }
 250:Model/stai_hand_landmark.c ****   }
 251:Model/stai_hand_landmark.c ****   else
 252:Model/stai_hand_landmark.c ****   {
 253:Model/stai_hand_landmark.c ****     STAI_ASSERT((inputs ? STAI_HAND_LANDMARK_IN_NUM : STAI_HAND_LANDMARK_WEIGHTS_NUM) == 0);
 254:Model/stai_hand_landmark.c ****   }
 255:Model/stai_hand_landmark.c **** #ifndef NDEBUG
 256:Model/stai_hand_landmark.c ****   if (inputs)
 257:Model/stai_hand_landmark.c ****   {
 258:Model/stai_hand_landmark.c ****     STAI_ASSERT(cnt == STAI_HAND_LANDMARK_IN_NUM);
 259:Model/stai_hand_landmark.c ****   }
 260:Model/stai_hand_landmark.c ****   else
 261:Model/stai_hand_landmark.c ****   {
 262:Model/stai_hand_landmark.c ****     STAI_ASSERT(cnt == STAI_HAND_LANDMARK_WEIGHTS_NUM);
 263:Model/stai_hand_landmark.c ****   }
 264:Model/stai_hand_landmark.c **** #endif // !NDEBUG
 265:Model/stai_hand_landmark.c **** 
 266:Model/stai_hand_landmark.c ****   return STAI_SUCCESS;
 267:Model/stai_hand_landmark.c **** }
 268:Model/stai_hand_landmark.c **** 
 269:Model/stai_hand_landmark.c **** static inline stai_return_code __ll_aton_stai_hand_landmark_set_outputs_or_activations(stai_network
 270:Model/stai_hand_landmark.c ****                                                                                                cons
 271:Model/stai_hand_landmark.c ****                                                                                                cons
 272:Model/stai_hand_landmark.c ****                                                                                                bool
 273:Model/stai_hand_landmark.c **** {
 151              		.loc 1 273 1 is_stmt 1 view -0
 152              		.cfi_startproc
 153              		@ args = 0, pretend = 0, frame = 8
 154              		@ frame_needed = 0, uses_anonymous_args = 0
 274:Model/stai_hand_landmark.c ****   /* check context & network interface handle */
 275:Model/stai_hand_landmark.c ****   __LL_ATON_STAI_ACQUIRE_INTERFACE(nn_i_ptr, network);
ARM GAS  C:\Users\DJESSOU\AppData\Local\Temp\ccfF5lhd.s 			page 20


 155              		.loc 1 275 3 view .LVU35
 273:Model/stai_hand_landmark.c ****   /* check context & network interface handle */
 156              		.loc 1 273 1 is_stmt 0 view .LVU36
 157 0000 2DE9F341 		push	{r0, r1, r4, r5, r6, r7, r8, lr}
 158              		.cfi_def_cfa_offset 32
 159              		.cfi_offset 4, -24
 160              		.cfi_offset 5, -20
 161              		.cfi_offset 6, -16
 162              		.cfi_offset 7, -12
 163              		.cfi_offset 8, -8
 164              		.cfi_offset 14, -4
 273:Model/stai_hand_landmark.c ****   /* check context & network interface handle */
 165              		.loc 1 273 1 view .LVU37
 166 0004 9846     		mov	r8, r3
 167              		.loc 1 275 3 view .LVU38
 168 0006 0023     		movs	r3, #0
 169              	.LVL13:
 273:Model/stai_hand_landmark.c ****   /* check context & network interface handle */
 170              		.loc 1 273 1 view .LVU39
 171 0008 0F46     		mov	r7, r1
 172              		.loc 1 275 3 view .LVU40
 173 000a 01A9     		add	r1, sp, #4
 174              	.LVL14:
 273:Model/stai_hand_landmark.c ****   /* check context & network interface handle */
 175              		.loc 1 273 1 view .LVU41
 176 000c 0446     		mov	r4, r0
 177              		.loc 1 275 3 view .LVU42
 178 000e 0193     		str	r3, [sp, #4]
 179              		.loc 1 275 3 is_stmt 1 view .LVU43
 180 0010 FFF7FEFF 		bl	__ll_aton_stai_check_context_network_handle.constprop.0
 181              	.LVL15:
 182              		.loc 1 275 3 discriminator 1 view .LVU44
 183 0014 B0F5003F 		cmp	r0, #131072
 273:Model/stai_hand_landmark.c ****   /* check context & network interface handle */
 184              		.loc 1 273 1 is_stmt 0 view .LVU45
 185 0018 1646     		mov	r6, r2
 186              		.loc 1 275 3 discriminator 1 view .LVU46
 187 001a 0DD2     		bcs	.L13
 188              		.loc 1 275 54 is_stmt 1 discriminator 2 view .LVU47
 276:Model/stai_hand_landmark.c ****   __LL_ATON_STAI_CHECK_NETWORK_INTERFACE(nn_i_ptr, (_stai_aton_context *)network);
 189              		.loc 1 276 3 view .LVU48
 190              		.loc 1 276 3 view .LVU49
 191 001c 3B4B     		ldr	r3, .L66
 192 001e 019A     		ldr	r2, [sp, #4]
 193              	.LVL16:
 194              		.loc 1 276 3 is_stmt 0 view .LVU50
 195 0020 9A42     		cmp	r2, r3
 196 0022 0CD0     		beq	.L15
 197              		.loc 1 276 3 is_stmt 1 discriminator 1 view .LVU51
 198              		.loc 1 276 3 discriminator 1 view .LVU52
 199 0024 34B1     		cbz	r4, .L17
 200              		.loc 1 276 3 discriminator 4 view .LVU53
 201 0026 E36B     		ldr	r3, [r4, #60]
 202 0028 B3F5003F 		cmp	r3, #131072
 203              		.loc 1 276 3 discriminator 5 view .LVU54
 204 002c 3CBF     		itt	cc
 205 002e 4FF44033 		movcc	r3, #196608
ARM GAS  C:\Users\DJESSOU\AppData\Local\Temp\ccfF5lhd.s 			page 21


 206 0032 E363     		strcc	r3, [r4, #60]
 207              	.LVL17:
 208              	.L17:
 209              		.loc 1 276 3 is_stmt 0 discriminator 3 view .LVU55
 210 0034 4FF44030 		mov	r0, #196608
 211              	.L13:
 277:Model/stai_hand_landmark.c **** 
 278:Model/stai_hand_landmark.c ****   /* get output buffers */
 279:Model/stai_hand_landmark.c ****   const LL_Buffer_InfoTypeDef *out_activ_buffers;
 280:Model/stai_hand_landmark.c ****   if (outputs)
 281:Model/stai_hand_landmark.c ****   {
 282:Model/stai_hand_landmark.c ****     out_activ_buffers = nn_i_ptr->output_buffers_info();
 283:Model/stai_hand_landmark.c ****   }
 284:Model/stai_hand_landmark.c ****   else
 285:Model/stai_hand_landmark.c ****   {
 286:Model/stai_hand_landmark.c ****     out_activ_buffers = nn_i_ptr->output_buffers_info();
 287:Model/stai_hand_landmark.c ****   }
 288:Model/stai_hand_landmark.c **** 
 289:Model/stai_hand_landmark.c ****   /* check values & addresses */
 290:Model/stai_hand_landmark.c ****   if (out_activ_buffers && !pointers)
 291:Model/stai_hand_landmark.c ****     __LL_ATON_STAI_SET_1ST_CTX_ERROR_AND_RETURN((_stai_aton_context *)network,
 292:Model/stai_hand_landmark.c ****                                                 STAI_ERROR_NETWORK_INVALID_API_ARGUMENTS);
 293:Model/stai_hand_landmark.c **** 
 294:Model/stai_hand_landmark.c ****   if (outputs)
 295:Model/stai_hand_landmark.c ****   {
 296:Model/stai_hand_landmark.c ****     if (n_ptrs != STAI_HAND_LANDMARK_OUT_NUM)
 297:Model/stai_hand_landmark.c ****       __LL_ATON_STAI_SET_1ST_CTX_ERROR_AND_RETURN((_stai_aton_context *)network, STAI_ERROR_NETWORK
 298:Model/stai_hand_landmark.c ****   }
 299:Model/stai_hand_landmark.c ****   else
 300:Model/stai_hand_landmark.c ****   {
 301:Model/stai_hand_landmark.c ****     if (n_ptrs != STAI_HAND_LANDMARK_ACTIVATIONS_NUM)
 302:Model/stai_hand_landmark.c ****       __LL_ATON_STAI_SET_1ST_CTX_ERROR_AND_RETURN((_stai_aton_context *)network, STAI_ERROR_NETWORK
 303:Model/stai_hand_landmark.c ****   }
 304:Model/stai_hand_landmark.c **** 
 305:Model/stai_hand_landmark.c ****   unsigned cnt = 0;
 306:Model/stai_hand_landmark.c ****   if (out_activ_buffers != NULL)
 307:Model/stai_hand_landmark.c ****   {
 308:Model/stai_hand_landmark.c ****     for (unsigned idx = 0; out_activ_buffers[idx].name != NULL; idx++)
 309:Model/stai_hand_landmark.c ****     {
 310:Model/stai_hand_landmark.c ****       const LL_Buffer_InfoTypeDef *buffer_info = &out_activ_buffers[idx];
 311:Model/stai_hand_landmark.c ****       if (buffer_info->is_user_allocated) // is it an user allocatable buffer
 312:Model/stai_hand_landmark.c ****       {
 313:Model/stai_hand_landmark.c ****         LL_ATON_ASSERT(buffer_info->offset_start == 0); // user allocated buffers always have an of
 314:Model/stai_hand_landmark.c ****         unsigned char **address_location = (unsigned char **)buffer_info->addr_base.p;
 315:Model/stai_hand_landmark.c ****         unsigned char *new_address = pointers[cnt];
 316:Model/stai_hand_landmark.c **** 
 317:Model/stai_hand_landmark.c ****         if (((uintptr_t)new_address % STAI_CACHE_USER_BUFFER_ALIGNMENT) != 0) // check new address 
 318:Model/stai_hand_landmark.c ****         {                                                                     // new address is not
 319:Model/stai_hand_landmark.c ****           __LL_ATON_STAI_SET_1ST_CTX_ERROR_AND_RETURN((_stai_aton_context *)network,
 320:Model/stai_hand_landmark.c ****                                                       STAI_ERROR_INVALID_BUFFER_ALIGNMENT);
 321:Model/stai_hand_landmark.c ****         }
 322:Model/stai_hand_landmark.c ****         else // new address is aligned
 323:Model/stai_hand_landmark.c ****         {
 324:Model/stai_hand_landmark.c ****           LL_ATON_ASSERT(address_location != NULL);
 325:Model/stai_hand_landmark.c ****           *address_location = new_address;
 326:Model/stai_hand_landmark.c ****         }
 327:Model/stai_hand_landmark.c ****       }
ARM GAS  C:\Users\DJESSOU\AppData\Local\Temp\ccfF5lhd.s 			page 22


 328:Model/stai_hand_landmark.c ****       else // buffer is not user allocatable
 329:Model/stai_hand_landmark.c ****       {
 330:Model/stai_hand_landmark.c ****         STAI_ASSERT(!buffer_info->is_param);
 331:Model/stai_hand_landmark.c ****         if (ATON_LIB_VIRTUAL_TO_PHYSICAL_ADDR(pointers[cnt]) != LL_Buffer_addr_start(out_activ_buff
 332:Model/stai_hand_landmark.c ****           __LL_ATON_STAI_SET_1ST_CTX_ERROR_AND_RETURN((_stai_aton_context *)network,
 333:Model/stai_hand_landmark.c ****                                                       STAI_ERROR_NETWORK_INVALID_OUT_PTR);
 334:Model/stai_hand_landmark.c ****       }
 335:Model/stai_hand_landmark.c ****       cnt++;
 336:Model/stai_hand_landmark.c ****     }
 337:Model/stai_hand_landmark.c ****   }
 338:Model/stai_hand_landmark.c ****   else
 339:Model/stai_hand_landmark.c ****   {
 340:Model/stai_hand_landmark.c ****     STAI_ASSERT((outputs ? STAI_HAND_LANDMARK_OUT_NUM : STAI_HAND_LANDMARK_ACTIVATIONS_NUM) == 0);
 341:Model/stai_hand_landmark.c ****   }
 342:Model/stai_hand_landmark.c **** #ifndef NDEBUG
 343:Model/stai_hand_landmark.c ****   if (outputs)
 344:Model/stai_hand_landmark.c ****   {
 345:Model/stai_hand_landmark.c ****     STAI_ASSERT(cnt == STAI_HAND_LANDMARK_OUT_NUM);
 346:Model/stai_hand_landmark.c ****   }
 347:Model/stai_hand_landmark.c ****   else
 348:Model/stai_hand_landmark.c ****   {
 349:Model/stai_hand_landmark.c ****     STAI_ASSERT(cnt == STAI_HAND_LANDMARK_ACTIVATIONS_NUM);
 350:Model/stai_hand_landmark.c ****   }
 351:Model/stai_hand_landmark.c **** #endif // !NDEBUG
 352:Model/stai_hand_landmark.c **** 
 353:Model/stai_hand_landmark.c ****   return STAI_SUCCESS;
 354:Model/stai_hand_landmark.c **** }
 212              		.loc 1 354 1 view .LVU56
 213 0038 02B0     		add	sp, sp, #8
 214              		.cfi_remember_state
 215              		.cfi_def_cfa_offset 24
 216              		@ sp needed
 217 003a BDE8F081 		pop	{r4, r5, r6, r7, r8, pc}
 218              	.LVL18:
 219              	.L15:
 220              		.cfi_restore_state
 276:Model/stai_hand_landmark.c ****   __LL_ATON_STAI_CHECK_NETWORK_INTERFACE(nn_i_ptr, (_stai_aton_context *)network);
 221              		.loc 1 276 3 is_stmt 1 discriminator 2 view .LVU57
 276:Model/stai_hand_landmark.c ****   __LL_ATON_STAI_CHECK_NETWORK_INTERFACE(nn_i_ptr, (_stai_aton_context *)network);
 222              		.loc 1 276 3 discriminator 2 view .LVU58
 279:Model/stai_hand_landmark.c ****   if (outputs)
 223              		.loc 1 279 3 view .LVU59
 280:Model/stai_hand_landmark.c ****   {
 224              		.loc 1 280 3 view .LVU60
 280:Model/stai_hand_landmark.c ****   {
 225              		.loc 1 280 6 is_stmt 0 view .LVU61
 226 003e B8F1000F 		cmp	r8, #0
 227 0042 0DD0     		beq	.L19
 282:Model/stai_hand_landmark.c ****   }
 228              		.loc 1 282 5 is_stmt 1 view .LVU62
 282:Model/stai_hand_landmark.c ****   }
 229              		.loc 1 282 25 is_stmt 0 view .LVU63
 230 0044 FFF7FEFF 		bl	LL_ATON_Output_Buffers_Info_hand_landmark
 231              	.LVL19:
 290:Model/stai_hand_landmark.c ****     __LL_ATON_STAI_SET_1ST_CTX_ERROR_AND_RETURN((_stai_aton_context *)network,
 232              		.loc 1 290 3 is_stmt 1 view .LVU64
 290:Model/stai_hand_landmark.c ****     __LL_ATON_STAI_SET_1ST_CTX_ERROR_AND_RETURN((_stai_aton_context *)network,
ARM GAS  C:\Users\DJESSOU\AppData\Local\Temp\ccfF5lhd.s 			page 23


 233              		.loc 1 290 6 is_stmt 0 view .LVU65
 234 0048 0546     		mov	r5, r0
 235 004a 70B9     		cbnz	r0, .L20
 296:Model/stai_hand_landmark.c ****       __LL_ATON_STAI_SET_1ST_CTX_ERROR_AND_RETURN((_stai_aton_context *)network, STAI_ERROR_NETWORK
 236              		.loc 1 296 5 is_stmt 1 view .LVU66
 296:Model/stai_hand_landmark.c ****       __LL_ATON_STAI_SET_1ST_CTX_ERROR_AND_RETURN((_stai_aton_context *)network, STAI_ERROR_NETWORK
 237              		.loc 1 296 8 is_stmt 0 view .LVU67
 238 004c 042E     		cmp	r6, #4
 239              	.L64:
 301:Model/stai_hand_landmark.c ****       __LL_ATON_STAI_SET_1ST_CTX_ERROR_AND_RETURN((_stai_aton_context *)network, STAI_ERROR_NETWORK
 240              		.loc 1 301 8 view .LVU68
 241 004e 59D0     		beq	.L39
 242              	.L40:
 297:Model/stai_hand_landmark.c ****   }
 243              		.loc 1 297 7 is_stmt 1 view .LVU69
 297:Model/stai_hand_landmark.c ****   }
 244              		.loc 1 297 7 view .LVU70
 245 0050 002C     		cmp	r4, #0
 246 0052 EFD0     		beq	.L17
 297:Model/stai_hand_landmark.c ****   }
 247              		.loc 1 297 7 discriminator 2 view .LVU71
 248 0054 E36B     		ldr	r3, [r4, #60]
 249 0056 B3F5003F 		cmp	r3, #131072
 250 005a 16D3     		bcc	.L27
 251              	.L28:
 297:Model/stai_hand_landmark.c ****   }
 252              		.loc 1 297 7 is_stmt 0 discriminator 5 view .LVU72
 253 005c 2C48     		ldr	r0, .L66+4
 254              	.LVL20:
 297:Model/stai_hand_landmark.c ****   }
 255              		.loc 1 297 7 discriminator 5 view .LVU73
 256 005e EBE7     		b	.L13
 257              	.LVL21:
 258              	.L19:
 286:Model/stai_hand_landmark.c ****   }
 259              		.loc 1 286 5 is_stmt 1 view .LVU74
 286:Model/stai_hand_landmark.c ****   }
 260              		.loc 1 286 25 is_stmt 0 view .LVU75
 261 0060 FFF7FEFF 		bl	LL_ATON_Output_Buffers_Info_hand_landmark
 262              	.LVL22:
 290:Model/stai_hand_landmark.c ****     __LL_ATON_STAI_SET_1ST_CTX_ERROR_AND_RETURN((_stai_aton_context *)network,
 263              		.loc 1 290 3 is_stmt 1 view .LVU76
 290:Model/stai_hand_landmark.c ****     __LL_ATON_STAI_SET_1ST_CTX_ERROR_AND_RETURN((_stai_aton_context *)network,
 264              		.loc 1 290 6 is_stmt 0 view .LVU77
 265 0064 0546     		mov	r5, r0
 266 0066 0028     		cmp	r0, #0
 267 0068 4ED0     		beq	.L22
 268              	.L20:
 290:Model/stai_hand_landmark.c ****     __LL_ATON_STAI_SET_1ST_CTX_ERROR_AND_RETURN((_stai_aton_context *)network,
 269              		.loc 1 290 25 discriminator 1 view .LVU78
 270 006a 4FB9     		cbnz	r7, .L23
 291:Model/stai_hand_landmark.c ****                                                 STAI_ERROR_NETWORK_INVALID_API_ARGUMENTS);
 271              		.loc 1 291 5 is_stmt 1 view .LVU79
 291:Model/stai_hand_landmark.c ****                                                 STAI_ERROR_NETWORK_INVALID_API_ARGUMENTS);
 272              		.loc 1 291 5 view .LVU80
 273 006c 002C     		cmp	r4, #0
 274 006e E1D0     		beq	.L17
ARM GAS  C:\Users\DJESSOU\AppData\Local\Temp\ccfF5lhd.s 			page 24


 291:Model/stai_hand_landmark.c ****                                                 STAI_ERROR_NETWORK_INVALID_API_ARGUMENTS);
 275              		.loc 1 291 5 discriminator 2 view .LVU81
 276 0070 E36B     		ldr	r3, [r4, #60]
 277 0072 B3F5003F 		cmp	r3, #131072
 278 0076 01D2     		bcs	.L24
 291:Model/stai_hand_landmark.c ****                                                 STAI_ERROR_NETWORK_INVALID_API_ARGUMENTS);
 279              		.loc 1 291 5 discriminator 3 view .LVU82
 280 0078 264B     		ldr	r3, .L66+8
 281 007a E363     		str	r3, [r4, #60]
 282              	.L24:
 291:Model/stai_hand_landmark.c ****                                                 STAI_ERROR_NETWORK_INVALID_API_ARGUMENTS);
 283              		.loc 1 291 5 is_stmt 0 discriminator 5 view .LVU83
 284 007c 2548     		ldr	r0, .L66+8
 285              	.LVL23:
 291:Model/stai_hand_landmark.c ****                                                 STAI_ERROR_NETWORK_INVALID_API_ARGUMENTS);
 286              		.loc 1 291 5 discriminator 5 view .LVU84
 287 007e DBE7     		b	.L13
 288              	.LVL24:
 289              	.L23:
 291:Model/stai_hand_landmark.c ****                                                 STAI_ERROR_NETWORK_INVALID_API_ARGUMENTS);
 290              		.loc 1 291 5 is_stmt 1 view .LVU85
 294:Model/stai_hand_landmark.c ****   {
 291              		.loc 1 294 3 view .LVU86
 294:Model/stai_hand_landmark.c ****   {
 292              		.loc 1 294 6 is_stmt 0 view .LVU87
 293 0080 B8F1000F 		cmp	r8, #0
 294 0084 37D1     		bne	.L25
 301:Model/stai_hand_landmark.c ****       __LL_ATON_STAI_SET_1ST_CTX_ERROR_AND_RETURN((_stai_aton_context *)network, STAI_ERROR_NETWORK
 295              		.loc 1 301 5 is_stmt 1 view .LVU88
 301:Model/stai_hand_landmark.c ****       __LL_ATON_STAI_SET_1ST_CTX_ERROR_AND_RETURN((_stai_aton_context *)network, STAI_ERROR_NETWORK
 296              		.loc 1 301 8 is_stmt 0 view .LVU89
 297 0086 762E     		cmp	r6, #118
 298 0088 36E0     		b	.L65
 299              	.L27:
 297:Model/stai_hand_landmark.c ****   }
 300              		.loc 1 297 7 is_stmt 1 discriminator 3 view .LVU90
 301 008a 214B     		ldr	r3, .L66+4
 302 008c E363     		str	r3, [r4, #60]
 303 008e E5E7     		b	.L28
 304              	.LVL25:
 305              	.L38:
 306              	.LBB13:
 307              	.LBB14:
 310:Model/stai_hand_landmark.c ****       if (buffer_info->is_user_allocated) // is it an user allocatable buffer
 308              		.loc 1 310 7 view .LVU91
 311:Model/stai_hand_landmark.c ****       {
 309              		.loc 1 311 7 view .LVU92
 311:Model/stai_hand_landmark.c ****       {
 310              		.loc 1 311 10 is_stmt 0 view .LVU93
 311 0090 337D     		ldrb	r3, [r6, #20]	@ zero_extendqisi2
 312 0092 03B3     		cbz	r3, .L31
 313              	.LBB15:
 313:Model/stai_hand_landmark.c ****         unsigned char **address_location = (unsigned char **)buffer_info->addr_base.p;
 314              		.loc 1 313 9 is_stmt 1 view .LVU94
 315 0094 B368     		ldr	r3, [r6, #8]
 316 0096 33B1     		cbz	r3, .L32
 313:Model/stai_hand_landmark.c ****         unsigned char **address_location = (unsigned char **)buffer_info->addr_base.p;
ARM GAS  C:\Users\DJESSOU\AppData\Local\Temp\ccfF5lhd.s 			page 25


 317              		.loc 1 313 9 is_stmt 0 discriminator 1 view .LVU95
 318 0098 40F23911 		movw	r1, #313
 319 009c 1E4B     		ldr	r3, .L66+12
 320 009e 1F4A     		ldr	r2, .L66+16
 321              	.L62:
 324:Model/stai_hand_landmark.c ****           *address_location = new_address;
 322              		.loc 1 324 11 discriminator 1 view .LVU96
 323 00a0 1F48     		ldr	r0, .L66+20
 324 00a2 FFF7FEFF 		bl	__assert_func
 325              	.LVL26:
 326              	.L32:
 314:Model/stai_hand_landmark.c ****         unsigned char *new_address = pointers[cnt];
 327              		.loc 1 314 9 is_stmt 1 view .LVU97
 315:Model/stai_hand_landmark.c **** 
 328              		.loc 1 315 24 is_stmt 0 view .LVU98
 329 00a6 0A68     		ldr	r2, [r1]
 314:Model/stai_hand_landmark.c ****         unsigned char *new_address = pointers[cnt];
 330              		.loc 1 314 25 view .LVU99
 331 00a8 7368     		ldr	r3, [r6, #4]
 332              	.LVL27:
 315:Model/stai_hand_landmark.c **** 
 333              		.loc 1 315 9 is_stmt 1 view .LVU100
 317:Model/stai_hand_landmark.c ****         {                                                                     // new address is not
 334              		.loc 1 317 9 view .LVU101
 317:Model/stai_hand_landmark.c ****         {                                                                     // new address is not
 335              		.loc 1 317 12 is_stmt 0 view .LVU102
 336 00aa D006     		lsls	r0, r2, #27
 337 00ac 09D0     		beq	.L33
 319:Model/stai_hand_landmark.c ****                                                       STAI_ERROR_INVALID_BUFFER_ALIGNMENT);
 338              		.loc 1 319 11 is_stmt 1 view .LVU103
 319:Model/stai_hand_landmark.c ****                                                       STAI_ERROR_INVALID_BUFFER_ALIGNMENT);
 339              		.loc 1 319 11 view .LVU104
 340 00ae 002C     		cmp	r4, #0
 341 00b0 C0D0     		beq	.L17
 319:Model/stai_hand_landmark.c ****                                                       STAI_ERROR_INVALID_BUFFER_ALIGNMENT);
 342              		.loc 1 319 11 discriminator 2 view .LVU105
 343 00b2 E36B     		ldr	r3, [r4, #60]
 344              	.LVL28:
 319:Model/stai_hand_landmark.c ****                                                       STAI_ERROR_INVALID_BUFFER_ALIGNMENT);
 345              		.loc 1 319 11 is_stmt 0 discriminator 5 view .LVU106
 346 00b4 1B48     		ldr	r0, .L66+24
 319:Model/stai_hand_landmark.c ****                                                       STAI_ERROR_INVALID_BUFFER_ALIGNMENT);
 347              		.loc 1 319 11 discriminator 2 view .LVU107
 348 00b6 B3F5003F 		cmp	r3, #131072
 319:Model/stai_hand_landmark.c ****                                                       STAI_ERROR_INVALID_BUFFER_ALIGNMENT);
 349              		.loc 1 319 11 is_stmt 1 discriminator 3 view .LVU108
 350 00ba 3CBF     		itt	cc
 351 00bc 194B     		ldrcc	r3, .L66+24
 352 00be E363     		strcc	r3, [r4, #60]
 353 00c0 BAE7     		b	.L13
 354              	.LVL29:
 355              	.L33:
 319:Model/stai_hand_landmark.c ****                                                       STAI_ERROR_INVALID_BUFFER_ALIGNMENT);
 356              		.loc 1 319 11 view .LVU109
 324:Model/stai_hand_landmark.c ****           *address_location = new_address;
 357              		.loc 1 324 11 view .LVU110
 358 00c2 23B9     		cbnz	r3, .L35
ARM GAS  C:\Users\DJESSOU\AppData\Local\Temp\ccfF5lhd.s 			page 26


 324:Model/stai_hand_landmark.c ****           *address_location = new_address;
 359              		.loc 1 324 11 is_stmt 0 discriminator 1 view .LVU111
 360 00c4 4FF4A271 		mov	r1, #324
 361 00c8 174B     		ldr	r3, .L66+28
 362              	.LVL30:
 324:Model/stai_hand_landmark.c ****           *address_location = new_address;
 363              		.loc 1 324 11 discriminator 1 view .LVU112
 364 00ca 144A     		ldr	r2, .L66+16
 365              	.LVL31:
 324:Model/stai_hand_landmark.c ****           *address_location = new_address;
 366              		.loc 1 324 11 discriminator 1 view .LVU113
 367 00cc E8E7     		b	.L62
 368              	.LVL32:
 369              	.L35:
 325:Model/stai_hand_landmark.c ****         }
 370              		.loc 1 325 11 is_stmt 1 view .LVU114
 325:Model/stai_hand_landmark.c ****         }
 371              		.loc 1 325 29 is_stmt 0 view .LVU115
 372 00ce 1A60     		str	r2, [r3]
 373              	.LVL33:
 374              	.L36:
 325:Model/stai_hand_landmark.c ****         }
 375              		.loc 1 325 29 view .LVU116
 376              	.LBE15:
 332:Model/stai_hand_landmark.c ****                                                       STAI_ERROR_NETWORK_INVALID_OUT_PTR);
 377              		.loc 1 332 11 is_stmt 1 view .LVU117
 335:Model/stai_hand_landmark.c ****     }
 378              		.loc 1 335 7 view .LVU118
 335:Model/stai_hand_landmark.c ****     }
 379              		.loc 1 335 7 is_stmt 0 view .LVU119
 380              	.LBE14:
 308:Model/stai_hand_landmark.c ****     {
 381              		.loc 1 308 68 is_stmt 1 discriminator 2 view .LVU120
 308:Model/stai_hand_landmark.c ****     {
 382              		.loc 1 308 68 is_stmt 0 discriminator 2 view .LVU121
 383 00d0 3836     		adds	r6, r6, #56
 384              	.LVL34:
 308:Model/stai_hand_landmark.c ****     {
 385              		.loc 1 308 68 discriminator 2 view .LVU122
 386 00d2 0431     		adds	r1, r1, #4
 387 00d4 13E0     		b	.L30
 388              	.LVL35:
 389              	.L31:
 390              	.LBB16:
 330:Model/stai_hand_landmark.c ****         if (ATON_LIB_VIRTUAL_TO_PHYSICAL_ADDR(pointers[cnt]) != LL_Buffer_addr_start(out_activ_buff
 391              		.loc 1 330 9 is_stmt 1 view .LVU123
 330:Model/stai_hand_landmark.c ****         if (ATON_LIB_VIRTUAL_TO_PHYSICAL_ADDR(pointers[cnt]) != LL_Buffer_addr_start(out_activ_buff
 392              		.loc 1 330 9 view .LVU124
 330:Model/stai_hand_landmark.c ****         if (ATON_LIB_VIRTUAL_TO_PHYSICAL_ADDR(pointers[cnt]) != LL_Buffer_addr_start(out_activ_buff
 393              		.loc 1 330 9 view .LVU125
 330:Model/stai_hand_landmark.c ****         if (ATON_LIB_VIRTUAL_TO_PHYSICAL_ADDR(pointers[cnt]) != LL_Buffer_addr_start(out_activ_buff
 394              		.loc 1 330 44 view .LVU126
 331:Model/stai_hand_landmark.c ****           __LL_ATON_STAI_SET_1ST_CTX_ERROR_AND_RETURN((_stai_aton_context *)network,
 395              		.loc 1 331 9 view .LVU127
 331:Model/stai_hand_landmark.c ****           __LL_ATON_STAI_SET_1ST_CTX_ERROR_AND_RETURN((_stai_aton_context *)network,
 396              		.loc 1 331 65 is_stmt 0 view .LVU128
 397 00d6 2846     		mov	r0, r5
ARM GAS  C:\Users\DJESSOU\AppData\Local\Temp\ccfF5lhd.s 			page 27


 398 00d8 FFF7FEFF 		bl	LL_Buffer_addr_start
 399              	.LVL36:
 331:Model/stai_hand_landmark.c ****           __LL_ATON_STAI_SET_1ST_CTX_ERROR_AND_RETURN((_stai_aton_context *)network,
 400              		.loc 1 331 13 view .LVU129
 401 00dc 0F68     		ldr	r7, [r1]
 331:Model/stai_hand_landmark.c ****           __LL_ATON_STAI_SET_1ST_CTX_ERROR_AND_RETURN((_stai_aton_context *)network,
 402              		.loc 1 331 12 discriminator 1 view .LVU130
 403 00de 8742     		cmp	r7, r0
 404 00e0 F6D0     		beq	.L36
 332:Model/stai_hand_landmark.c ****                                                       STAI_ERROR_NETWORK_INVALID_OUT_PTR);
 405              		.loc 1 332 11 is_stmt 1 view .LVU131
 332:Model/stai_hand_landmark.c ****                                                       STAI_ERROR_NETWORK_INVALID_OUT_PTR);
 406              		.loc 1 332 11 view .LVU132
 407 00e2 002C     		cmp	r4, #0
 408 00e4 A6D0     		beq	.L17
 332:Model/stai_hand_landmark.c ****                                                       STAI_ERROR_NETWORK_INVALID_OUT_PTR);
 409              		.loc 1 332 11 discriminator 2 view .LVU133
 410 00e6 E36B     		ldr	r3, [r4, #60]
 332:Model/stai_hand_landmark.c ****                                                       STAI_ERROR_NETWORK_INVALID_OUT_PTR);
 411              		.loc 1 332 11 is_stmt 0 discriminator 5 view .LVU134
 412 00e8 1048     		ldr	r0, .L66+32
 332:Model/stai_hand_landmark.c ****                                                       STAI_ERROR_NETWORK_INVALID_OUT_PTR);
 413              		.loc 1 332 11 discriminator 2 view .LVU135
 414 00ea B3F5003F 		cmp	r3, #131072
 332:Model/stai_hand_landmark.c ****                                                       STAI_ERROR_NETWORK_INVALID_OUT_PTR);
 415              		.loc 1 332 11 is_stmt 1 discriminator 3 view .LVU136
 416 00ee 3CBF     		itt	cc
 417 00f0 0E4B     		ldrcc	r3, .L66+32
 418 00f2 E363     		strcc	r3, [r4, #60]
 419 00f4 A0E7     		b	.L13
 420              	.LVL37:
 421              	.L25:
 332:Model/stai_hand_landmark.c ****                                                       STAI_ERROR_NETWORK_INVALID_OUT_PTR);
 422              		.loc 1 332 11 is_stmt 0 discriminator 3 view .LVU137
 423              	.LBE16:
 424              	.LBE13:
 296:Model/stai_hand_landmark.c ****       __LL_ATON_STAI_SET_1ST_CTX_ERROR_AND_RETURN((_stai_aton_context *)network, STAI_ERROR_NETWORK
 425              		.loc 1 296 5 is_stmt 1 view .LVU138
 296:Model/stai_hand_landmark.c ****       __LL_ATON_STAI_SET_1ST_CTX_ERROR_AND_RETURN((_stai_aton_context *)network, STAI_ERROR_NETWORK
 426              		.loc 1 296 8 is_stmt 0 view .LVU139
 427 00f6 042E     		cmp	r6, #4
 428              	.L65:
 301:Model/stai_hand_landmark.c ****       __LL_ATON_STAI_SET_1ST_CTX_ERROR_AND_RETURN((_stai_aton_context *)network, STAI_ERROR_NETWORK
 429              		.loc 1 301 8 view .LVU140
 430 00f8 AAD1     		bne	.L40
 431              	.LVL38:
 301:Model/stai_hand_landmark.c ****       __LL_ATON_STAI_SET_1ST_CTX_ERROR_AND_RETURN((_stai_aton_context *)network, STAI_ERROR_NETWORK
 432              		.loc 1 301 8 view .LVU141
 433 00fa 2E46     		mov	r6, r5
 434              	.LVL39:
 301:Model/stai_hand_landmark.c ****       __LL_ATON_STAI_SET_1ST_CTX_ERROR_AND_RETURN((_stai_aton_context *)network, STAI_ERROR_NETWORK
 435              		.loc 1 301 8 view .LVU142
 436 00fc 3946     		mov	r1, r7
 437              	.LVL40:
 438              	.L30:
 439              	.LBB17:
 308:Model/stai_hand_landmark.c ****     {
ARM GAS  C:\Users\DJESSOU\AppData\Local\Temp\ccfF5lhd.s 			page 28


 440              		.loc 1 308 56 is_stmt 1 discriminator 1 view .LVU143
 441 00fe 3368     		ldr	r3, [r6]
 442 0100 002B     		cmp	r3, #0
 443 0102 C5D1     		bne	.L38
 444              	.L39:
 308:Model/stai_hand_landmark.c ****     {
 445              		.loc 1 308 56 is_stmt 0 discriminator 1 view .LVU144
 446              	.LBE17:
 353:Model/stai_hand_landmark.c **** }
 447              		.loc 1 353 10 view .LVU145
 448 0104 0020     		movs	r0, #0
 449 0106 97E7     		b	.L13
 450              	.LVL41:
 451              	.L22:
 301:Model/stai_hand_landmark.c ****       __LL_ATON_STAI_SET_1ST_CTX_ERROR_AND_RETURN((_stai_aton_context *)network, STAI_ERROR_NETWORK
 452              		.loc 1 301 5 is_stmt 1 view .LVU146
 301:Model/stai_hand_landmark.c ****       __LL_ATON_STAI_SET_1ST_CTX_ERROR_AND_RETURN((_stai_aton_context *)network, STAI_ERROR_NETWORK
 453              		.loc 1 301 8 is_stmt 0 view .LVU147
 454 0108 762E     		cmp	r6, #118
 455 010a A0E7     		b	.L64
 456              	.L67:
 457              		.align	2
 458              	.L66:
 459 010c 00000000 		.word	NN_Interface_hand_landmark
 460 0110 21000400 		.word	262177
 461 0114 01000200 		.word	131073
 462 0118 00000000 		.word	.LC0
 463 011c 00000000 		.word	__func__.0
 464 0120 1F000000 		.word	.LC1
 465 0124 70000400 		.word	262256
 466 0128 3A000000 		.word	.LC2
 467 012c 20000400 		.word	262176
 468              		.cfi_endproc
 469              	.LFE306:
 471              		.section	.rodata.__ll_aton_stai_hand_landmark_set_inputs_or_weights.str1.1,"aMS",%progbits,1
 472              	.LC3:
 473 0000 696E7075 		.ascii	"input_buffers != ((void *)0)\000"
 473      745F6275 
 473      66666572 
 473      7320213D 
 473      20282876 
 474              		.section	.text.__ll_aton_stai_hand_landmark_set_inputs_or_weights,"ax",%progbits
 475              		.align	1
 476              		.syntax unified
 477              		.thumb
 478              		.thumb_func
 480              	__ll_aton_stai_hand_landmark_set_inputs_or_weights:
 481              	.LVL42:
 482              	.LFB305:
 190:Model/stai_hand_landmark.c ****   /* check context & network interface handle */
 483              		.loc 1 190 1 is_stmt 1 view -0
 484              		.cfi_startproc
 485              		@ args = 0, pretend = 0, frame = 8
 486              		@ frame_needed = 0, uses_anonymous_args = 0
 192:Model/stai_hand_landmark.c ****   __LL_ATON_STAI_CHECK_NETWORK_INTERFACE(nn_i_ptr, (_stai_aton_context *)network);
 487              		.loc 1 192 3 view .LVU149
 190:Model/stai_hand_landmark.c ****   /* check context & network interface handle */
ARM GAS  C:\Users\DJESSOU\AppData\Local\Temp\ccfF5lhd.s 			page 29


 488              		.loc 1 190 1 is_stmt 0 view .LVU150
 489 0000 2DE9F341 		push	{r0, r1, r4, r5, r6, r7, r8, lr}
 490              		.cfi_def_cfa_offset 32
 491              		.cfi_offset 4, -24
 492              		.cfi_offset 5, -20
 493              		.cfi_offset 6, -16
 494              		.cfi_offset 7, -12
 495              		.cfi_offset 8, -8
 496              		.cfi_offset 14, -4
 190:Model/stai_hand_landmark.c ****   /* check context & network interface handle */
 497              		.loc 1 190 1 view .LVU151
 498 0004 1F46     		mov	r7, r3
 192:Model/stai_hand_landmark.c ****   __LL_ATON_STAI_CHECK_NETWORK_INTERFACE(nn_i_ptr, (_stai_aton_context *)network);
 499              		.loc 1 192 3 view .LVU152
 500 0006 0023     		movs	r3, #0
 501              	.LVL43:
 190:Model/stai_hand_landmark.c ****   /* check context & network interface handle */
 502              		.loc 1 190 1 view .LVU153
 503 0008 0E46     		mov	r6, r1
 192:Model/stai_hand_landmark.c ****   __LL_ATON_STAI_CHECK_NETWORK_INTERFACE(nn_i_ptr, (_stai_aton_context *)network);
 504              		.loc 1 192 3 view .LVU154
 505 000a 01A9     		add	r1, sp, #4
 506              	.LVL44:
 190:Model/stai_hand_landmark.c ****   /* check context & network interface handle */
 507              		.loc 1 190 1 view .LVU155
 508 000c 0446     		mov	r4, r0
 192:Model/stai_hand_landmark.c ****   __LL_ATON_STAI_CHECK_NETWORK_INTERFACE(nn_i_ptr, (_stai_aton_context *)network);
 509              		.loc 1 192 3 view .LVU156
 510 000e 0193     		str	r3, [sp, #4]
 192:Model/stai_hand_landmark.c ****   __LL_ATON_STAI_CHECK_NETWORK_INTERFACE(nn_i_ptr, (_stai_aton_context *)network);
 511              		.loc 1 192 3 is_stmt 1 view .LVU157
 512 0010 FFF7FEFF 		bl	__ll_aton_stai_check_context_network_handle.constprop.0
 513              	.LVL45:
 192:Model/stai_hand_landmark.c ****   __LL_ATON_STAI_CHECK_NETWORK_INTERFACE(nn_i_ptr, (_stai_aton_context *)network);
 514              		.loc 1 192 3 discriminator 1 view .LVU158
 515 0014 B0F5003F 		cmp	r0, #131072
 190:Model/stai_hand_landmark.c ****   /* check context & network interface handle */
 516              		.loc 1 190 1 is_stmt 0 view .LVU159
 517 0018 9046     		mov	r8, r2
 192:Model/stai_hand_landmark.c ****   __LL_ATON_STAI_CHECK_NETWORK_INTERFACE(nn_i_ptr, (_stai_aton_context *)network);
 518              		.loc 1 192 3 discriminator 1 view .LVU160
 519 001a 0DD2     		bcs	.L68
 192:Model/stai_hand_landmark.c ****   __LL_ATON_STAI_CHECK_NETWORK_INTERFACE(nn_i_ptr, (_stai_aton_context *)network);
 520              		.loc 1 192 54 is_stmt 1 discriminator 2 view .LVU161
 193:Model/stai_hand_landmark.c **** 
 521              		.loc 1 193 3 view .LVU162
 193:Model/stai_hand_landmark.c **** 
 522              		.loc 1 193 3 view .LVU163
 523 001c 3E4B     		ldr	r3, .L111
 524 001e 019A     		ldr	r2, [sp, #4]
 525              	.LVL46:
 193:Model/stai_hand_landmark.c **** 
 526              		.loc 1 193 3 is_stmt 0 view .LVU164
 527 0020 9A42     		cmp	r2, r3
 528 0022 0CD0     		beq	.L70
 193:Model/stai_hand_landmark.c **** 
 529              		.loc 1 193 3 is_stmt 1 discriminator 1 view .LVU165
ARM GAS  C:\Users\DJESSOU\AppData\Local\Temp\ccfF5lhd.s 			page 30


 193:Model/stai_hand_landmark.c **** 
 530              		.loc 1 193 3 discriminator 1 view .LVU166
 531 0024 34B1     		cbz	r4, .L72
 193:Model/stai_hand_landmark.c **** 
 532              		.loc 1 193 3 discriminator 4 view .LVU167
 533 0026 E36B     		ldr	r3, [r4, #60]
 534 0028 B3F5003F 		cmp	r3, #131072
 193:Model/stai_hand_landmark.c **** 
 535              		.loc 1 193 3 discriminator 5 view .LVU168
 536 002c 3CBF     		itt	cc
 537 002e 4FF44033 		movcc	r3, #196608
 538 0032 E363     		strcc	r3, [r4, #60]
 539              	.LVL47:
 540              	.L72:
 193:Model/stai_hand_landmark.c **** 
 541              		.loc 1 193 3 is_stmt 0 discriminator 3 view .LVU169
 542 0034 4FF44030 		mov	r0, #196608
 543              	.L68:
 267:Model/stai_hand_landmark.c **** 
 544              		.loc 1 267 1 view .LVU170
 545 0038 02B0     		add	sp, sp, #8
 546              		.cfi_remember_state
 547              		.cfi_def_cfa_offset 24
 548              		@ sp needed
 549 003a BDE8F081 		pop	{r4, r5, r6, r7, r8, pc}
 550              	.LVL48:
 551              	.L70:
 552              		.cfi_restore_state
 193:Model/stai_hand_landmark.c **** 
 553              		.loc 1 193 3 is_stmt 1 discriminator 2 view .LVU171
 193:Model/stai_hand_landmark.c **** 
 554              		.loc 1 193 3 discriminator 2 view .LVU172
 196:Model/stai_hand_landmark.c **** 
 555              		.loc 1 196 3 view .LVU173
 196:Model/stai_hand_landmark.c **** 
 556              		.loc 1 196 48 is_stmt 0 view .LVU174
 557 003e FFF7FEFF 		bl	LL_ATON_Input_Buffers_Info_hand_landmark
 558              	.LVL49:
 199:Model/stai_hand_landmark.c ****   if (input_buffers && !pointers)
 559              		.loc 1 199 3 is_stmt 1 view .LVU175
 560 0042 0546     		mov	r5, r0
 561 0044 28B9     		cbnz	r0, .L74
 199:Model/stai_hand_landmark.c ****   if (input_buffers && !pointers)
 562              		.loc 1 199 3 is_stmt 0 discriminator 1 view .LVU176
 563 0046 C721     		movs	r1, #199
 564 0048 344B     		ldr	r3, .L111+4
 565 004a 354A     		ldr	r2, .L111+8
 566              	.LVL50:
 567              	.L110:
 568              	.LBB18:
 569              	.LBB19:
 570              	.LBB20:
 226:Model/stai_hand_landmark.c ****           unsigned char **address_location = (unsigned char **)buffer_info->addr_base.p;
 571              		.loc 1 226 11 discriminator 1 view .LVU177
 572 004c 3548     		ldr	r0, .L111+12
 573 004e FFF7FEFF 		bl	__assert_func
 574              	.LVL51:
ARM GAS  C:\Users\DJESSOU\AppData\Local\Temp\ccfF5lhd.s 			page 31


 575              	.L74:
 226:Model/stai_hand_landmark.c ****           unsigned char **address_location = (unsigned char **)buffer_info->addr_base.p;
 576              		.loc 1 226 11 discriminator 1 view .LVU178
 577              	.LBE20:
 578              	.LBE19:
 579              	.LBE18:
 200:Model/stai_hand_landmark.c ****     __LL_ATON_STAI_SET_1ST_CTX_ERROR_AND_RETURN((_stai_aton_context *)network,
 580              		.loc 1 200 3 is_stmt 1 view .LVU179
 200:Model/stai_hand_landmark.c ****     __LL_ATON_STAI_SET_1ST_CTX_ERROR_AND_RETURN((_stai_aton_context *)network,
 581              		.loc 1 200 21 is_stmt 0 discriminator 1 view .LVU180
 582 0052 4EB9     		cbnz	r6, .L75
 201:Model/stai_hand_landmark.c ****                                                 STAI_ERROR_NETWORK_INVALID_API_ARGUMENTS);
 583              		.loc 1 201 5 is_stmt 1 view .LVU181
 201:Model/stai_hand_landmark.c ****                                                 STAI_ERROR_NETWORK_INVALID_API_ARGUMENTS);
 584              		.loc 1 201 5 view .LVU182
 585 0054 002C     		cmp	r4, #0
 586 0056 EDD0     		beq	.L72
 201:Model/stai_hand_landmark.c ****                                                 STAI_ERROR_NETWORK_INVALID_API_ARGUMENTS);
 587              		.loc 1 201 5 discriminator 2 view .LVU183
 588 0058 E36B     		ldr	r3, [r4, #60]
 201:Model/stai_hand_landmark.c ****                                                 STAI_ERROR_NETWORK_INVALID_API_ARGUMENTS);
 589              		.loc 1 201 5 is_stmt 0 discriminator 5 view .LVU184
 590 005a 3348     		ldr	r0, .L111+16
 591              	.LVL52:
 201:Model/stai_hand_landmark.c ****                                                 STAI_ERROR_NETWORK_INVALID_API_ARGUMENTS);
 592              		.loc 1 201 5 discriminator 2 view .LVU185
 593 005c B3F5003F 		cmp	r3, #131072
 201:Model/stai_hand_landmark.c ****                                                 STAI_ERROR_NETWORK_INVALID_API_ARGUMENTS);
 594              		.loc 1 201 5 is_stmt 1 discriminator 3 view .LVU186
 595 0060 3CBF     		itt	cc
 596 0062 314B     		ldrcc	r3, .L111+16
 597 0064 E363     		strcc	r3, [r4, #60]
 598 0066 E7E7     		b	.L68
 599              	.LVL53:
 600              	.L75:
 201:Model/stai_hand_landmark.c ****                                                 STAI_ERROR_NETWORK_INVALID_API_ARGUMENTS);
 601              		.loc 1 201 5 view .LVU187
 204:Model/stai_hand_landmark.c ****   {
 602              		.loc 1 204 3 view .LVU188
 204:Model/stai_hand_landmark.c ****   {
 603              		.loc 1 204 6 is_stmt 0 view .LVU189
 604 0068 FFB1     		cbz	r7, .L77
 206:Model/stai_hand_landmark.c ****       __LL_ATON_STAI_SET_1ST_CTX_ERROR_AND_RETURN((_stai_aton_context *)network, STAI_ERROR_NETWORK
 605              		.loc 1 206 5 is_stmt 1 view .LVU190
 206:Model/stai_hand_landmark.c ****       __LL_ATON_STAI_SET_1ST_CTX_ERROR_AND_RETURN((_stai_aton_context *)network, STAI_ERROR_NETWORK
 606              		.loc 1 206 8 is_stmt 0 view .LVU191
 607 006a B8F1010F 		cmp	r8, #1
 608 006e 12D1     		bne	.L78
 609              	.L81:
 190:Model/stai_hand_landmark.c ****   /* check context & network interface handle */
 610              		.loc 1 190 1 view .LVU192
 611 0070 0021     		movs	r1, #0
 612              	.LVL54:
 613              	.L79:
 614              	.LBB26:
 219:Model/stai_hand_landmark.c ****     {
 615              		.loc 1 219 52 is_stmt 1 discriminator 1 view .LVU193
ARM GAS  C:\Users\DJESSOU\AppData\Local\Temp\ccfF5lhd.s 			page 32


 616 0072 2868     		ldr	r0, [r5]
 617 0074 0028     		cmp	r0, #0
 618 0076 DFD0     		beq	.L68
 619              	.LBB23:
 221:Model/stai_hand_landmark.c ****       if (inputs == !buffer_info->is_param)
 620              		.loc 1 221 7 view .LVU194
 621              	.LVL55:
 222:Model/stai_hand_landmark.c ****       {
 622              		.loc 1 222 7 view .LVU195
 222:Model/stai_hand_landmark.c ****       {
 623              		.loc 1 222 21 is_stmt 0 view .LVU196
 624 0078 6A7D     		ldrb	r2, [r5, #21]	@ zero_extendqisi2
 222:Model/stai_hand_landmark.c ****       {
 625              		.loc 1 222 10 view .LVU197
 626 007a B2FA82F2 		clz	r2, r2
 627 007e 5209     		lsrs	r2, r2, #5
 628 0080 BA42     		cmp	r2, r7
 629 0082 35D1     		bne	.L83
 224:Model/stai_hand_landmark.c ****         {
 630              		.loc 1 224 9 is_stmt 1 view .LVU198
 224:Model/stai_hand_landmark.c ****         {
 631              		.loc 1 224 12 is_stmt 0 view .LVU199
 632 0084 2B7D     		ldrb	r3, [r5, #20]	@ zero_extendqisi2
 633 0086 002B     		cmp	r3, #0
 634 0088 34D0     		beq	.L84
 635              	.LBB21:
 226:Model/stai_hand_landmark.c ****           unsigned char **address_location = (unsigned char **)buffer_info->addr_base.p;
 636              		.loc 1 226 11 is_stmt 1 view .LVU200
 637 008a AB68     		ldr	r3, [r5, #8]
 638 008c D3B1     		cbz	r3, .L85
 226:Model/stai_hand_landmark.c ****           unsigned char **address_location = (unsigned char **)buffer_info->addr_base.p;
 639              		.loc 1 226 11 is_stmt 0 discriminator 1 view .LVU201
 640 008e E221     		movs	r1, #226
 641              	.LVL56:
 226:Model/stai_hand_landmark.c ****           unsigned char **address_location = (unsigned char **)buffer_info->addr_base.p;
 642              		.loc 1 226 11 discriminator 1 view .LVU202
 643 0090 264B     		ldr	r3, .L111+20
 644 0092 234A     		ldr	r2, .L111+8
 645 0094 DAE7     		b	.L110
 646              	.LVL57:
 647              	.L78:
 226:Model/stai_hand_landmark.c ****           unsigned char **address_location = (unsigned char **)buffer_info->addr_base.p;
 648              		.loc 1 226 11 discriminator 1 view .LVU203
 649              	.LBE21:
 650              	.LBE23:
 651              	.LBE26:
 207:Model/stai_hand_landmark.c ****   }
 652              		.loc 1 207 7 is_stmt 1 view .LVU204
 207:Model/stai_hand_landmark.c ****   }
 653              		.loc 1 207 7 view .LVU205
 654 0096 002C     		cmp	r4, #0
 655 0098 CCD0     		beq	.L72
 207:Model/stai_hand_landmark.c ****   }
 656              		.loc 1 207 7 discriminator 2 view .LVU206
 657 009a E36B     		ldr	r3, [r4, #60]
 207:Model/stai_hand_landmark.c ****   }
 658              		.loc 1 207 7 is_stmt 0 discriminator 5 view .LVU207
ARM GAS  C:\Users\DJESSOU\AppData\Local\Temp\ccfF5lhd.s 			page 33


 659 009c 2448     		ldr	r0, .L111+24
 660              	.LVL58:
 207:Model/stai_hand_landmark.c ****   }
 661              		.loc 1 207 7 discriminator 2 view .LVU208
 662 009e B3F5003F 		cmp	r3, #131072
 207:Model/stai_hand_landmark.c ****   }
 663              		.loc 1 207 7 is_stmt 1 discriminator 3 view .LVU209
 664 00a2 3CBF     		itt	cc
 665 00a4 224B     		ldrcc	r3, .L111+24
 666 00a6 E363     		strcc	r3, [r4, #60]
 667 00a8 C6E7     		b	.L68
 668              	.LVL59:
 669              	.L77:
 211:Model/stai_hand_landmark.c ****       __LL_ATON_STAI_SET_1ST_CTX_ERROR_AND_RETURN((_stai_aton_context *)network,
 670              		.loc 1 211 5 view .LVU210
 211:Model/stai_hand_landmark.c ****       __LL_ATON_STAI_SET_1ST_CTX_ERROR_AND_RETURN((_stai_aton_context *)network,
 671              		.loc 1 211 8 is_stmt 0 view .LVU211
 672 00aa B8F1000F 		cmp	r8, #0
 673 00ae DFD0     		beq	.L81
 212:Model/stai_hand_landmark.c ****                                                   STAI_ERROR_NETWORK_INVALID_WEIGHTS_NUM);
 674              		.loc 1 212 7 is_stmt 1 view .LVU212
 212:Model/stai_hand_landmark.c ****                                                   STAI_ERROR_NETWORK_INVALID_WEIGHTS_NUM);
 675              		.loc 1 212 7 view .LVU213
 676 00b0 002C     		cmp	r4, #0
 677 00b2 BFD0     		beq	.L72
 212:Model/stai_hand_landmark.c ****                                                   STAI_ERROR_NETWORK_INVALID_WEIGHTS_NUM);
 678              		.loc 1 212 7 discriminator 2 view .LVU214
 679 00b4 E36B     		ldr	r3, [r4, #60]
 212:Model/stai_hand_landmark.c ****                                                   STAI_ERROR_NETWORK_INVALID_WEIGHTS_NUM);
 680              		.loc 1 212 7 is_stmt 0 discriminator 5 view .LVU215
 681 00b6 1F48     		ldr	r0, .L111+28
 682              	.LVL60:
 212:Model/stai_hand_landmark.c ****                                                   STAI_ERROR_NETWORK_INVALID_WEIGHTS_NUM);
 683              		.loc 1 212 7 discriminator 2 view .LVU216
 684 00b8 B3F5003F 		cmp	r3, #131072
 212:Model/stai_hand_landmark.c ****                                                   STAI_ERROR_NETWORK_INVALID_WEIGHTS_NUM);
 685              		.loc 1 212 7 is_stmt 1 discriminator 3 view .LVU217
 686 00bc 3CBF     		itt	cc
 687 00be 1D4B     		ldrcc	r3, .L111+28
 688 00c0 E363     		strcc	r3, [r4, #60]
 689 00c2 B9E7     		b	.L68
 690              	.LVL61:
 691              	.L85:
 692              	.LBB27:
 693              	.LBB24:
 694              	.LBB22:
 227:Model/stai_hand_landmark.c ****           unsigned char *new_address = pointers[cnt];
 695              		.loc 1 227 11 view .LVU218
 228:Model/stai_hand_landmark.c **** 
 696              		.loc 1 228 26 is_stmt 0 view .LVU219
 697 00c4 56F82120 		ldr	r2, [r6, r1, lsl #2]
 227:Model/stai_hand_landmark.c ****           unsigned char *new_address = pointers[cnt];
 698              		.loc 1 227 27 view .LVU220
 699 00c8 6B68     		ldr	r3, [r5, #4]
 700              	.LVL62:
 228:Model/stai_hand_landmark.c **** 
 701              		.loc 1 228 11 is_stmt 1 view .LVU221
ARM GAS  C:\Users\DJESSOU\AppData\Local\Temp\ccfF5lhd.s 			page 34


 230:Model/stai_hand_landmark.c ****           {                                                                     // new address is n
 702              		.loc 1 230 11 view .LVU222
 230:Model/stai_hand_landmark.c ****           {                                                                     // new address is n
 703              		.loc 1 230 14 is_stmt 0 view .LVU223
 704 00ca D006     		lsls	r0, r2, #27
 705 00cc 09D0     		beq	.L86
 232:Model/stai_hand_landmark.c ****                                                         STAI_ERROR_INVALID_BUFFER_ALIGNMENT);
 706              		.loc 1 232 13 is_stmt 1 view .LVU224
 232:Model/stai_hand_landmark.c ****                                                         STAI_ERROR_INVALID_BUFFER_ALIGNMENT);
 707              		.loc 1 232 13 view .LVU225
 708 00ce 002C     		cmp	r4, #0
 709 00d0 B0D0     		beq	.L72
 232:Model/stai_hand_landmark.c ****                                                         STAI_ERROR_INVALID_BUFFER_ALIGNMENT);
 710              		.loc 1 232 13 discriminator 2 view .LVU226
 711 00d2 E36B     		ldr	r3, [r4, #60]
 712              	.LVL63:
 232:Model/stai_hand_landmark.c ****                                                         STAI_ERROR_INVALID_BUFFER_ALIGNMENT);
 713              		.loc 1 232 13 is_stmt 0 discriminator 5 view .LVU227
 714 00d4 1848     		ldr	r0, .L111+32
 232:Model/stai_hand_landmark.c ****                                                         STAI_ERROR_INVALID_BUFFER_ALIGNMENT);
 715              		.loc 1 232 13 discriminator 2 view .LVU228
 716 00d6 B3F5003F 		cmp	r3, #131072
 232:Model/stai_hand_landmark.c ****                                                         STAI_ERROR_INVALID_BUFFER_ALIGNMENT);
 717              		.loc 1 232 13 is_stmt 1 discriminator 3 view .LVU229
 718 00da 3CBF     		itt	cc
 719 00dc 164B     		ldrcc	r3, .L111+32
 720 00de E363     		strcc	r3, [r4, #60]
 721 00e0 AAE7     		b	.L68
 722              	.LVL64:
 723              	.L86:
 232:Model/stai_hand_landmark.c ****                                                         STAI_ERROR_INVALID_BUFFER_ALIGNMENT);
 724              		.loc 1 232 13 view .LVU230
 237:Model/stai_hand_landmark.c ****             *address_location = new_address;
 725              		.loc 1 237 13 view .LVU231
 726 00e2 1BB9     		cbnz	r3, .L88
 237:Model/stai_hand_landmark.c ****             *address_location = new_address;
 727              		.loc 1 237 13 is_stmt 0 discriminator 1 view .LVU232
 728 00e4 ED21     		movs	r1, #237
 729              	.LVL65:
 237:Model/stai_hand_landmark.c ****             *address_location = new_address;
 730              		.loc 1 237 13 discriminator 1 view .LVU233
 731 00e6 154B     		ldr	r3, .L111+36
 732              	.LVL66:
 237:Model/stai_hand_landmark.c ****             *address_location = new_address;
 733              		.loc 1 237 13 discriminator 1 view .LVU234
 734 00e8 0D4A     		ldr	r2, .L111+8
 735              	.LVL67:
 237:Model/stai_hand_landmark.c ****             *address_location = new_address;
 736              		.loc 1 237 13 discriminator 1 view .LVU235
 737 00ea AFE7     		b	.L110
 738              	.LVL68:
 739              	.L88:
 238:Model/stai_hand_landmark.c ****           }
 740              		.loc 1 238 13 is_stmt 1 view .LVU236
 238:Model/stai_hand_landmark.c ****           }
 741              		.loc 1 238 31 is_stmt 0 view .LVU237
 742 00ec 1A60     		str	r2, [r3]
ARM GAS  C:\Users\DJESSOU\AppData\Local\Temp\ccfF5lhd.s 			page 35


 743              	.LVL69:
 744              	.L89:
 238:Model/stai_hand_landmark.c ****           }
 745              		.loc 1 238 31 view .LVU238
 746              	.LBE22:
 244:Model/stai_hand_landmark.c ****                                                         STAI_ERROR_NETWORK_INVALID_IN_PTR);
 747              		.loc 1 244 13 is_stmt 1 view .LVU239
 247:Model/stai_hand_landmark.c ****       }
 748              		.loc 1 247 9 view .LVU240
 247:Model/stai_hand_landmark.c ****       }
 749              		.loc 1 247 12 is_stmt 0 view .LVU241
 750 00ee 0131     		adds	r1, r1, #1
 751              	.LVL70:
 752              	.L83:
 247:Model/stai_hand_landmark.c ****       }
 753              		.loc 1 247 12 view .LVU242
 754              	.LBE24:
 219:Model/stai_hand_landmark.c ****     {
 755              		.loc 1 219 64 is_stmt 1 discriminator 2 view .LVU243
 756 00f0 3835     		adds	r5, r5, #56
 757              	.LVL71:
 219:Model/stai_hand_landmark.c ****     {
 758              		.loc 1 219 64 is_stmt 0 discriminator 2 view .LVU244
 759 00f2 BEE7     		b	.L79
 760              	.LVL72:
 761              	.L84:
 762              	.LBB25:
 243:Model/stai_hand_landmark.c ****             __LL_ATON_STAI_SET_1ST_CTX_ERROR_AND_RETURN((_stai_aton_context *)network,
 763              		.loc 1 243 11 is_stmt 1 view .LVU245
 243:Model/stai_hand_landmark.c ****             __LL_ATON_STAI_SET_1ST_CTX_ERROR_AND_RETURN((_stai_aton_context *)network,
 764              		.loc 1 243 67 is_stmt 0 view .LVU246
 765 00f4 2846     		mov	r0, r5
 766 00f6 FFF7FEFF 		bl	LL_Buffer_addr_start
 767              	.LVL73:
 243:Model/stai_hand_landmark.c ****             __LL_ATON_STAI_SET_1ST_CTX_ERROR_AND_RETURN((_stai_aton_context *)network,
 768              		.loc 1 243 15 view .LVU247
 769 00fa 56F82180 		ldr	r8, [r6, r1, lsl #2]
 243:Model/stai_hand_landmark.c ****             __LL_ATON_STAI_SET_1ST_CTX_ERROR_AND_RETURN((_stai_aton_context *)network,
 770              		.loc 1 243 14 discriminator 1 view .LVU248
 771 00fe 8045     		cmp	r8, r0
 772 0100 F5D0     		beq	.L89
 244:Model/stai_hand_landmark.c ****                                                         STAI_ERROR_NETWORK_INVALID_IN_PTR);
 773              		.loc 1 244 13 is_stmt 1 view .LVU249
 244:Model/stai_hand_landmark.c ****                                                         STAI_ERROR_NETWORK_INVALID_IN_PTR);
 774              		.loc 1 244 13 view .LVU250
 775 0102 002C     		cmp	r4, #0
 776 0104 96D0     		beq	.L72
 244:Model/stai_hand_landmark.c ****                                                         STAI_ERROR_NETWORK_INVALID_IN_PTR);
 777              		.loc 1 244 13 discriminator 2 view .LVU251
 778 0106 E36B     		ldr	r3, [r4, #60]
 244:Model/stai_hand_landmark.c ****                                                         STAI_ERROR_NETWORK_INVALID_IN_PTR);
 779              		.loc 1 244 13 is_stmt 0 discriminator 5 view .LVU252
 780 0108 0D48     		ldr	r0, .L111+40
 244:Model/stai_hand_landmark.c ****                                                         STAI_ERROR_NETWORK_INVALID_IN_PTR);
 781              		.loc 1 244 13 discriminator 2 view .LVU253
 782 010a B3F5003F 		cmp	r3, #131072
 244:Model/stai_hand_landmark.c ****                                                         STAI_ERROR_NETWORK_INVALID_IN_PTR);
ARM GAS  C:\Users\DJESSOU\AppData\Local\Temp\ccfF5lhd.s 			page 36


 783              		.loc 1 244 13 is_stmt 1 discriminator 3 view .LVU254
 784 010e 3CBF     		itt	cc
 785 0110 0B4B     		ldrcc	r3, .L111+40
 786 0112 E363     		strcc	r3, [r4, #60]
 787 0114 90E7     		b	.L68
 788              	.L112:
 789 0116 00BF     		.align	2
 790              	.L111:
 791 0118 00000000 		.word	NN_Interface_hand_landmark
 792 011c 00000000 		.word	.LC3
 793 0120 00000000 		.word	__func__.1
 794 0124 1F000000 		.word	.LC1
 795 0128 01000200 		.word	131073
 796 012c 00000000 		.word	.LC0
 797 0130 11000400 		.word	262161
 798 0134 41000400 		.word	262209
 799 0138 70000400 		.word	262256
 800 013c 3A000000 		.word	.LC2
 801 0140 10000400 		.word	262160
 802              	.LBE25:
 803              	.LBE27:
 804              		.cfi_endproc
 805              	.LFE305:
 807              		.section	.rodata.__ll_aton_stai_hand_landmark_get_outputs_or_activations.str1.1,"aMS",%progbits,1
 808              	.LC4:
 809 0000 28287569 		.ascii	"((uintptr_t)pointers[cnt] % (32)) == 0\000"
 809      6E747074 
 809      725F7429 
 809      706F696E 
 809      74657273 
 810              		.section	.text.__ll_aton_stai_hand_landmark_get_outputs_or_activations,"ax",%progbits
 811              		.align	1
 812              		.syntax unified
 813              		.thumb
 814              		.thumb_func
 816              	__ll_aton_stai_hand_landmark_get_outputs_or_activations:
 817              	.LVL74:
 818              	.LFB304:
 113:Model/stai_hand_landmark.c ****   /* check context & network interface handle */
 819              		.loc 1 113 1 view -0
 820              		.cfi_startproc
 821              		@ args = 0, pretend = 0, frame = 8
 822              		@ frame_needed = 0, uses_anonymous_args = 0
 113:Model/stai_hand_landmark.c ****   /* check context & network interface handle */
 823              		.loc 1 113 1 is_stmt 0 view .LVU256
 824 0000 F7B5     		push	{r0, r1, r2, r4, r5, r6, r7, lr}
 825              		.cfi_def_cfa_offset 32
 826              		.cfi_offset 4, -20
 827              		.cfi_offset 5, -16
 828              		.cfi_offset 6, -12
 829              		.cfi_offset 7, -8
 830              		.cfi_offset 14, -4
 113:Model/stai_hand_landmark.c ****   /* check context & network interface handle */
 831              		.loc 1 113 1 view .LVU257
 832 0002 1E46     		mov	r6, r3
 115:Model/stai_hand_landmark.c ****   __LL_ATON_STAI_CHECK_NETWORK_INTERFACE(nn_i_ptr, (_stai_aton_context *)network);
 833              		.loc 1 115 3 view .LVU258
ARM GAS  C:\Users\DJESSOU\AppData\Local\Temp\ccfF5lhd.s 			page 37


 834 0004 0023     		movs	r3, #0
 835              	.LVL75:
 113:Model/stai_hand_landmark.c ****   /* check context & network interface handle */
 836              		.loc 1 113 1 view .LVU259
 837 0006 0F46     		mov	r7, r1
 115:Model/stai_hand_landmark.c ****   __LL_ATON_STAI_CHECK_NETWORK_INTERFACE(nn_i_ptr, (_stai_aton_context *)network);
 838              		.loc 1 115 3 view .LVU260
 839 0008 01A9     		add	r1, sp, #4
 840              	.LVL76:
 113:Model/stai_hand_landmark.c ****   /* check context & network interface handle */
 841              		.loc 1 113 1 view .LVU261
 842 000a 0446     		mov	r4, r0
 115:Model/stai_hand_landmark.c ****   __LL_ATON_STAI_CHECK_NETWORK_INTERFACE(nn_i_ptr, (_stai_aton_context *)network);
 843              		.loc 1 115 3 view .LVU262
 844 000c 0193     		str	r3, [sp, #4]
 845 000e FFF7FEFF 		bl	__ll_aton_stai_check_context_network_handle.constprop.0
 846              	.LVL77:
 115:Model/stai_hand_landmark.c ****   __LL_ATON_STAI_CHECK_NETWORK_INTERFACE(nn_i_ptr, (_stai_aton_context *)network);
 847              		.loc 1 115 3 discriminator 1 view .LVU263
 848 0012 B0F5003F 		cmp	r0, #131072
 113:Model/stai_hand_landmark.c ****   /* check context & network interface handle */
 849              		.loc 1 113 1 view .LVU264
 850 0016 1546     		mov	r5, r2
 115:Model/stai_hand_landmark.c ****   __LL_ATON_STAI_CHECK_NETWORK_INTERFACE(nn_i_ptr, (_stai_aton_context *)network);
 851              		.loc 1 115 3 is_stmt 1 view .LVU265
 115:Model/stai_hand_landmark.c ****   __LL_ATON_STAI_CHECK_NETWORK_INTERFACE(nn_i_ptr, (_stai_aton_context *)network);
 852              		.loc 1 115 3 view .LVU266
 853              	.LVL78:
 115:Model/stai_hand_landmark.c ****   __LL_ATON_STAI_CHECK_NETWORK_INTERFACE(nn_i_ptr, (_stai_aton_context *)network);
 854              		.loc 1 115 3 discriminator 1 view .LVU267
 855 0018 0DD2     		bcs	.L113
 115:Model/stai_hand_landmark.c ****   __LL_ATON_STAI_CHECK_NETWORK_INTERFACE(nn_i_ptr, (_stai_aton_context *)network);
 856              		.loc 1 115 54 discriminator 2 view .LVU268
 116:Model/stai_hand_landmark.c **** 
 857              		.loc 1 116 3 view .LVU269
 116:Model/stai_hand_landmark.c **** 
 858              		.loc 1 116 3 view .LVU270
 859 001a 254B     		ldr	r3, .L144
 860 001c 019A     		ldr	r2, [sp, #4]
 861              	.LVL79:
 116:Model/stai_hand_landmark.c **** 
 862              		.loc 1 116 3 is_stmt 0 view .LVU271
 863 001e 9A42     		cmp	r2, r3
 864 0020 0BD0     		beq	.L115
 116:Model/stai_hand_landmark.c **** 
 865              		.loc 1 116 3 is_stmt 1 discriminator 1 view .LVU272
 116:Model/stai_hand_landmark.c **** 
 866              		.loc 1 116 3 discriminator 1 view .LVU273
 867 0022 34B1     		cbz	r4, .L116
 116:Model/stai_hand_landmark.c **** 
 868              		.loc 1 116 3 discriminator 4 view .LVU274
 869 0024 E36B     		ldr	r3, [r4, #60]
 870 0026 B3F5003F 		cmp	r3, #131072
 116:Model/stai_hand_landmark.c **** 
 871              		.loc 1 116 3 discriminator 5 view .LVU275
 872 002a 3CBF     		itt	cc
 873 002c 4FF44033 		movcc	r3, #196608
ARM GAS  C:\Users\DJESSOU\AppData\Local\Temp\ccfF5lhd.s 			page 38


 874 0030 E363     		strcc	r3, [r4, #60]
 875              	.L116:
 116:Model/stai_hand_landmark.c **** 
 876              		.loc 1 116 3 is_stmt 0 discriminator 3 view .LVU276
 877 0032 4FF44030 		mov	r0, #196608
 878              	.LVL80:
 879              	.L113:
 184:Model/stai_hand_landmark.c **** 
 880              		.loc 1 184 1 view .LVU277
 881 0036 03B0     		add	sp, sp, #12
 882              		.cfi_remember_state
 883              		.cfi_def_cfa_offset 20
 884              		@ sp needed
 885 0038 F0BD     		pop	{r4, r5, r6, r7, pc}
 886              	.LVL81:
 887              	.L115:
 888              		.cfi_restore_state
 116:Model/stai_hand_landmark.c **** 
 889              		.loc 1 116 3 is_stmt 1 discriminator 2 view .LVU278
 116:Model/stai_hand_landmark.c **** 
 890              		.loc 1 116 3 discriminator 2 view .LVU279
 119:Model/stai_hand_landmark.c ****     __LL_ATON_STAI_SET_1ST_CTX_ERROR_AND_RETURN((_stai_aton_context *)network,
 891              		.loc 1 119 3 view .LVU280
 119:Model/stai_hand_landmark.c ****     __LL_ATON_STAI_SET_1ST_CTX_ERROR_AND_RETURN((_stai_aton_context *)network,
 892              		.loc 1 119 6 is_stmt 0 view .LVU281
 893 003a 4DB9     		cbnz	r5, .L117
 120:Model/stai_hand_landmark.c ****                                                 STAI_ERROR_NETWORK_INVALID_API_ARGUMENTS);
 894              		.loc 1 120 5 is_stmt 1 view .LVU282
 120:Model/stai_hand_landmark.c ****                                                 STAI_ERROR_NETWORK_INVALID_API_ARGUMENTS);
 895              		.loc 1 120 5 view .LVU283
 896 003c 002C     		cmp	r4, #0
 897 003e F8D0     		beq	.L116
 120:Model/stai_hand_landmark.c ****                                                 STAI_ERROR_NETWORK_INVALID_API_ARGUMENTS);
 898              		.loc 1 120 5 discriminator 2 view .LVU284
 899 0040 E36B     		ldr	r3, [r4, #60]
 900 0042 B3F5003F 		cmp	r3, #131072
 901 0046 01D2     		bcs	.L118
 120:Model/stai_hand_landmark.c ****                                                 STAI_ERROR_NETWORK_INVALID_API_ARGUMENTS);
 902              		.loc 1 120 5 discriminator 3 view .LVU285
 903 0048 1A4B     		ldr	r3, .L144+4
 904 004a E363     		str	r3, [r4, #60]
 905              	.L118:
 120:Model/stai_hand_landmark.c ****                                                 STAI_ERROR_NETWORK_INVALID_API_ARGUMENTS);
 906              		.loc 1 120 5 is_stmt 0 discriminator 5 view .LVU286
 907 004c 1948     		ldr	r0, .L144+4
 908              	.LVL82:
 120:Model/stai_hand_landmark.c ****                                                 STAI_ERROR_NETWORK_INVALID_API_ARGUMENTS);
 909              		.loc 1 120 5 discriminator 5 view .LVU287
 910 004e F2E7     		b	.L113
 911              	.LVL83:
 912              	.L117:
 120:Model/stai_hand_landmark.c ****                                                 STAI_ERROR_NETWORK_INVALID_API_ARGUMENTS);
 913              		.loc 1 120 5 is_stmt 1 view .LVU288
 124:Model/stai_hand_landmark.c ****   if (outputs)
 914              		.loc 1 124 3 view .LVU289
 125:Model/stai_hand_landmark.c ****   {
 915              		.loc 1 125 3 view .LVU290
ARM GAS  C:\Users\DJESSOU\AppData\Local\Temp\ccfF5lhd.s 			page 39


 125:Model/stai_hand_landmark.c ****   {
 916              		.loc 1 125 6 is_stmt 0 view .LVU291
 917 0050 36B1     		cbz	r6, .L119
 127:Model/stai_hand_landmark.c ****   }
 918              		.loc 1 127 5 is_stmt 1 view .LVU292
 127:Model/stai_hand_landmark.c ****   }
 919              		.loc 1 127 25 is_stmt 0 view .LVU293
 920 0052 FFF7FEFF 		bl	LL_ATON_Output_Buffers_Info_hand_landmark
 921              	.LVL84:
 135:Model/stai_hand_landmark.c ****   if (out_activ_buffers != NULL)
 922              		.loc 1 135 3 is_stmt 1 view .LVU294
 136:Model/stai_hand_landmark.c ****   {
 923              		.loc 1 136 3 view .LVU295
 136:Model/stai_hand_landmark.c ****   {
 924              		.loc 1 136 6 is_stmt 0 view .LVU296
 925 0056 30B9     		cbnz	r0, .L120
 926              	.LVL85:
 927              	.L129:
 176:Model/stai_hand_landmark.c ****   }
 928              		.loc 1 176 5 is_stmt 1 view .LVU297
 929 0058 0423     		movs	r3, #4
 930              	.L130:
 183:Model/stai_hand_landmark.c **** }
 931              		.loc 1 183 10 is_stmt 0 view .LVU298
 932 005a 0020     		movs	r0, #0
 176:Model/stai_hand_landmark.c ****   }
 933              		.loc 1 176 13 view .LVU299
 934 005c 2B60     		str	r3, [r5]
 935 005e EAE7     		b	.L113
 936              	.LVL86:
 937              	.L119:
 131:Model/stai_hand_landmark.c ****   }
 938              		.loc 1 131 5 is_stmt 1 view .LVU300
 131:Model/stai_hand_landmark.c ****   }
 939              		.loc 1 131 25 is_stmt 0 view .LVU301
 940 0060 FFF7FEFF 		bl	LL_ATON_Internal_Buffers_Info_hand_landmark
 941              	.LVL87:
 135:Model/stai_hand_landmark.c ****   if (out_activ_buffers != NULL)
 942              		.loc 1 135 3 is_stmt 1 view .LVU302
 136:Model/stai_hand_landmark.c ****   {
 943              		.loc 1 136 3 view .LVU303
 136:Model/stai_hand_landmark.c ****   {
 944              		.loc 1 136 6 is_stmt 0 view .LVU304
 945 0064 28B1     		cbz	r0, .L121
 946              	.L120:
 136:Model/stai_hand_landmark.c ****   {
 947              		.loc 1 136 6 view .LVU305
 948 0066 0446     		mov	r4, r0
 949              	.LVL88:
 136:Model/stai_hand_landmark.c ****   {
 950              		.loc 1 136 6 view .LVU306
 951 0068 3946     		mov	r1, r7
 952              	.LVL89:
 953              	.L122:
 954              	.LBB34:
 138:Model/stai_hand_landmark.c ****     {
 955              		.loc 1 138 56 is_stmt 1 discriminator 1 view .LVU307
ARM GAS  C:\Users\DJESSOU\AppData\Local\Temp\ccfF5lhd.s 			page 40


 956 006a 2368     		ldr	r3, [r4]
 957 006c 1BB9     		cbnz	r3, .L128
 958              	.LBE34:
 160:Model/stai_hand_landmark.c ****   }
 959              		.loc 1 160 5 view .LVU308
 160:Model/stai_hand_landmark.c ****   }
 960              		.loc 1 160 5 view .LVU309
 160:Model/stai_hand_landmark.c ****   }
 961              		.loc 1 160 5 view .LVU310
 160:Model/stai_hand_landmark.c ****   }
 962              		.loc 1 160 98 view .LVU311
 163:Model/stai_hand_landmark.c ****   {
 963              		.loc 1 163 3 view .LVU312
 165:Model/stai_hand_landmark.c ****   }
 964              		.loc 1 165 5 view .LVU313
 165:Model/stai_hand_landmark.c ****   }
 965              		.loc 1 165 5 view .LVU314
 165:Model/stai_hand_landmark.c ****   }
 966              		.loc 1 165 5 view .LVU315
 165:Model/stai_hand_landmark.c ****   }
 967              		.loc 1 165 51 view .LVU316
 169:Model/stai_hand_landmark.c ****   }
 968              		.loc 1 169 5 view .LVU317
 169:Model/stai_hand_landmark.c ****   }
 969              		.loc 1 169 5 view .LVU318
 169:Model/stai_hand_landmark.c ****   }
 970              		.loc 1 169 5 view .LVU319
 169:Model/stai_hand_landmark.c ****   }
 971              		.loc 1 169 59 view .LVU320
 174:Model/stai_hand_landmark.c ****   {
 972              		.loc 1 174 3 view .LVU321
 174:Model/stai_hand_landmark.c ****   {
 973              		.loc 1 174 6 is_stmt 0 view .LVU322
 974 006e 002E     		cmp	r6, #0
 975 0070 F2D1     		bne	.L129
 976              	.LVL90:
 977              	.L121:
 180:Model/stai_hand_landmark.c ****   }
 978              		.loc 1 180 5 is_stmt 1 view .LVU323
 979 0072 7623     		movs	r3, #118
 980 0074 F1E7     		b	.L130
 981              	.LVL91:
 982              	.L128:
 983              	.LBB38:
 984              	.LBB35:
 140:Model/stai_hand_landmark.c ****       STAI_ASSERT(!buffer_info->is_param); // may never happen
 985              		.loc 1 140 7 view .LVU324
 141:Model/stai_hand_landmark.c ****       if (pointers)
 986              		.loc 1 141 7 view .LVU325
 141:Model/stai_hand_landmark.c ****       if (pointers)
 987              		.loc 1 141 7 view .LVU326
 141:Model/stai_hand_landmark.c ****       if (pointers)
 988              		.loc 1 141 7 view .LVU327
 141:Model/stai_hand_landmark.c ****       if (pointers)
 989              		.loc 1 141 42 view .LVU328
 142:Model/stai_hand_landmark.c ****       {
 990              		.loc 1 142 7 view .LVU329
ARM GAS  C:\Users\DJESSOU\AppData\Local\Temp\ccfF5lhd.s 			page 41


 142:Model/stai_hand_landmark.c ****       {
 991              		.loc 1 142 10 is_stmt 0 view .LVU330
 992 0076 BFB1     		cbz	r7, .L124
 144:Model/stai_hand_landmark.c ****         {
 993              		.loc 1 144 9 is_stmt 1 view .LVU331
 144:Model/stai_hand_landmark.c ****         {
 994              		.loc 1 144 12 is_stmt 0 view .LVU332
 995 0078 237D     		ldrb	r3, [r4, #20]	@ zero_extendqisi2
 996 007a 8BB1     		cbz	r3, .L125
 146:Model/stai_hand_landmark.c ****           pointers[cnt] = LL_Buffer_addr_start(buffer_info); // user allocated buffers are saved wi
 997              		.loc 1 146 11 is_stmt 1 view .LVU333
 998 007c A368     		ldr	r3, [r4, #8]
 999 007e 2BB1     		cbz	r3, .L126
 146:Model/stai_hand_landmark.c ****           pointers[cnt] = LL_Buffer_addr_start(buffer_info); // user allocated buffers are saved wi
 1000              		.loc 1 146 11 is_stmt 0 discriminator 1 view .LVU334
 1001 0080 9221     		movs	r1, #146
 1002 0082 0D4B     		ldr	r3, .L144+8
 1003 0084 0D4A     		ldr	r2, .L144+12
 1004              	.L143:
 146:Model/stai_hand_landmark.c ****           pointers[cnt] = LL_Buffer_addr_start(buffer_info); // user allocated buffers are saved wi
 1005              		.loc 1 146 11 discriminator 1 view .LVU335
 1006              	.LBE35:
 1007              	.LBE38:
 1008              	.LBB39:
 1009              	.LBB40:
 1010              	.LBB41:
 1011              	.LBB42:
 148:Model/stai_hand_landmark.c ****         }
 1012              		.loc 1 148 11 discriminator 1 view .LVU336
 1013 0086 0E48     		ldr	r0, .L144+16
 1014 0088 FFF7FEFF 		bl	__assert_func
 1015              	.LVL92:
 1016              	.L126:
 148:Model/stai_hand_landmark.c ****         }
 1017              		.loc 1 148 11 discriminator 1 view .LVU337
 1018              	.LBE42:
 1019              	.LBE41:
 1020              	.LBE40:
 1021              	.LBE39:
 1022              	.LBB46:
 1023              	.LBB36:
 147:Model/stai_hand_landmark.c ****           LL_ATON_ASSERT(((uintptr_t)pointers[cnt] % STAI_CACHE_USER_BUFFER_ALIGNMENT) == 0);
 1024              		.loc 1 147 11 is_stmt 1 view .LVU338
 147:Model/stai_hand_landmark.c ****           LL_ATON_ASSERT(((uintptr_t)pointers[cnt] % STAI_CACHE_USER_BUFFER_ALIGNMENT) == 0);
 1025              		.loc 1 147 27 is_stmt 0 view .LVU339
 1026 008c 2046     		mov	r0, r4
 1027 008e FFF7FEFF 		bl	LL_Buffer_addr_start
 1028              	.LVL93:
 148:Model/stai_hand_landmark.c ****         }
 1029              		.loc 1 148 11 view .LVU340
 1030 0092 C306     		lsls	r3, r0, #27
 147:Model/stai_hand_landmark.c ****           LL_ATON_ASSERT(((uintptr_t)pointers[cnt] % STAI_CACHE_USER_BUFFER_ALIGNMENT) == 0);
 1031              		.loc 1 147 25 discriminator 1 view .LVU341
 1032 0094 0860     		str	r0, [r1]
 148:Model/stai_hand_landmark.c ****         }
 1033              		.loc 1 148 11 is_stmt 1 view .LVU342
 1034 0096 07D0     		beq	.L124
ARM GAS  C:\Users\DJESSOU\AppData\Local\Temp\ccfF5lhd.s 			page 42


 1035              	.LBE36:
 1036              	.LBE46:
 1037              	.LBB47:
 1038              	.LBI39:
 109:Model/stai_hand_landmark.c ****                                                                                                stai
 1039              		.loc 1 109 32 view .LVU343
 1040              	.LVL94:
 1041              	.LBB45:
 1042              	.LBB44:
 1043              	.LBB43:
 148:Model/stai_hand_landmark.c ****         }
 1044              		.loc 1 148 11 is_stmt 0 discriminator 1 view .LVU344
 1045 0098 9421     		movs	r1, #148
 1046 009a 0A4B     		ldr	r3, .L144+20
 1047 009c 074A     		ldr	r2, .L144+12
 1048 009e F2E7     		b	.L143
 1049              	.LVL95:
 1050              	.L125:
 148:Model/stai_hand_landmark.c ****         }
 1051              		.loc 1 148 11 discriminator 1 view .LVU345
 1052              	.LBE43:
 1053              	.LBE44:
 1054              	.LBE45:
 1055              	.LBE47:
 1056              	.LBB48:
 1057              	.LBB37:
 152:Model/stai_hand_landmark.c ****         }
 1058              		.loc 1 152 11 is_stmt 1 view .LVU346
 152:Model/stai_hand_landmark.c ****         }
 1059              		.loc 1 152 27 is_stmt 0 view .LVU347
 1060 00a0 2046     		mov	r0, r4
 1061 00a2 FFF7FEFF 		bl	LL_Buffer_addr_start
 1062              	.LVL96:
 152:Model/stai_hand_landmark.c ****         }
 1063              		.loc 1 152 25 discriminator 1 view .LVU348
 1064 00a6 0860     		str	r0, [r1]
 1065              	.L124:
 155:Model/stai_hand_landmark.c ****     }
 1066              		.loc 1 155 7 is_stmt 1 view .LVU349
 1067              	.LVL97:
 155:Model/stai_hand_landmark.c ****     }
 1068              		.loc 1 155 7 is_stmt 0 view .LVU350
 1069              	.LBE37:
 138:Model/stai_hand_landmark.c ****     {
 1070              		.loc 1 138 68 is_stmt 1 discriminator 2 view .LVU351
 138:Model/stai_hand_landmark.c ****     {
 1071              		.loc 1 138 68 is_stmt 0 discriminator 2 view .LVU352
 1072 00a8 3834     		adds	r4, r4, #56
 1073              	.LVL98:
 138:Model/stai_hand_landmark.c ****     {
 1074              		.loc 1 138 68 discriminator 2 view .LVU353
 1075 00aa 0431     		adds	r1, r1, #4
 1076 00ac DDE7     		b	.L122
 1077              	.L145:
 1078 00ae 00BF     		.align	2
 1079              	.L144:
 1080 00b0 00000000 		.word	NN_Interface_hand_landmark
ARM GAS  C:\Users\DJESSOU\AppData\Local\Temp\ccfF5lhd.s 			page 43


 1081 00b4 01000200 		.word	131073
 1082 00b8 00000000 		.word	.LC0
 1083 00bc 00000000 		.word	__func__.2
 1084 00c0 1F000000 		.word	.LC1
 1085 00c4 00000000 		.word	.LC4
 1086              	.LBE48:
 1087              		.cfi_endproc
 1088              	.LFE304:
 1090              		.section	.text.__ll_aton_stai_hand_landmark_get_inputs_or_weights,"ax",%progbits
 1091              		.align	1
 1092              		.syntax unified
 1093              		.thumb
 1094              		.thumb_func
 1096              	__ll_aton_stai_hand_landmark_get_inputs_or_weights:
 1097              	.LVL99:
 1098              	.LFB303:
  42:Model/stai_hand_landmark.c ****   __LL_ATON_STAI_ACQUIRE_INTERFACE(nn_i_ptr, network);
 1099              		.loc 1 42 1 is_stmt 1 view -0
 1100              		.cfi_startproc
 1101              		@ args = 0, pretend = 0, frame = 8
 1102              		@ frame_needed = 0, uses_anonymous_args = 0
  42:Model/stai_hand_landmark.c ****   __LL_ATON_STAI_ACQUIRE_INTERFACE(nn_i_ptr, network);
 1103              		.loc 1 42 1 is_stmt 0 view .LVU355
 1104 0000 2DE9F341 		push	{r0, r1, r4, r5, r6, r7, r8, lr}
 1105              		.cfi_def_cfa_offset 32
 1106              		.cfi_offset 4, -24
 1107              		.cfi_offset 5, -20
 1108              		.cfi_offset 6, -16
 1109              		.cfi_offset 7, -12
 1110              		.cfi_offset 8, -8
 1111              		.cfi_offset 14, -4
  43:Model/stai_hand_landmark.c ****   __LL_ATON_STAI_CHECK_NETWORK_INTERFACE(nn_i_ptr, (_stai_aton_context *)network);
 1112              		.loc 1 43 3 view .LVU356
 1113 0004 4FF00008 		mov	r8, #0
  42:Model/stai_hand_landmark.c ****   __LL_ATON_STAI_ACQUIRE_INTERFACE(nn_i_ptr, network);
 1114              		.loc 1 42 1 view .LVU357
 1115 0008 0D46     		mov	r5, r1
  43:Model/stai_hand_landmark.c ****   __LL_ATON_STAI_CHECK_NETWORK_INTERFACE(nn_i_ptr, (_stai_aton_context *)network);
 1116              		.loc 1 43 3 view .LVU358
 1117 000a 01A9     		add	r1, sp, #4
 1118              	.LVL100:
  42:Model/stai_hand_landmark.c ****   __LL_ATON_STAI_ACQUIRE_INTERFACE(nn_i_ptr, network);
 1119              		.loc 1 42 1 view .LVU359
 1120 000c 0446     		mov	r4, r0
 1121 000e 1F46     		mov	r7, r3
  43:Model/stai_hand_landmark.c ****   __LL_ATON_STAI_CHECK_NETWORK_INTERFACE(nn_i_ptr, (_stai_aton_context *)network);
 1122              		.loc 1 43 3 view .LVU360
 1123 0010 CDF80480 		str	r8, [sp, #4]
 1124 0014 FFF7FEFF 		bl	__ll_aton_stai_check_context_network_handle.constprop.0
 1125              	.LVL101:
  43:Model/stai_hand_landmark.c ****   __LL_ATON_STAI_CHECK_NETWORK_INTERFACE(nn_i_ptr, (_stai_aton_context *)network);
 1126              		.loc 1 43 3 discriminator 1 view .LVU361
 1127 0018 B0F5003F 		cmp	r0, #131072
  42:Model/stai_hand_landmark.c ****   __LL_ATON_STAI_ACQUIRE_INTERFACE(nn_i_ptr, network);
 1128              		.loc 1 42 1 view .LVU362
 1129 001c 1646     		mov	r6, r2
  43:Model/stai_hand_landmark.c ****   __LL_ATON_STAI_CHECK_NETWORK_INTERFACE(nn_i_ptr, (_stai_aton_context *)network);
ARM GAS  C:\Users\DJESSOU\AppData\Local\Temp\ccfF5lhd.s 			page 44


 1130              		.loc 1 43 3 is_stmt 1 view .LVU363
  43:Model/stai_hand_landmark.c ****   __LL_ATON_STAI_CHECK_NETWORK_INTERFACE(nn_i_ptr, (_stai_aton_context *)network);
 1131              		.loc 1 43 3 view .LVU364
 1132              	.LVL102:
  43:Model/stai_hand_landmark.c ****   __LL_ATON_STAI_CHECK_NETWORK_INTERFACE(nn_i_ptr, (_stai_aton_context *)network);
 1133              		.loc 1 43 3 discriminator 1 view .LVU365
 1134 001e 0DD2     		bcs	.L146
  43:Model/stai_hand_landmark.c ****   __LL_ATON_STAI_CHECK_NETWORK_INTERFACE(nn_i_ptr, (_stai_aton_context *)network);
 1135              		.loc 1 43 54 discriminator 2 view .LVU366
  44:Model/stai_hand_landmark.c **** 
 1136              		.loc 1 44 3 view .LVU367
  44:Model/stai_hand_landmark.c **** 
 1137              		.loc 1 44 3 view .LVU368
 1138 0020 264B     		ldr	r3, .L174
 1139 0022 019A     		ldr	r2, [sp, #4]
 1140              	.LVL103:
  44:Model/stai_hand_landmark.c **** 
 1141              		.loc 1 44 3 is_stmt 0 view .LVU369
 1142 0024 9A42     		cmp	r2, r3
 1143 0026 0CD0     		beq	.L148
  44:Model/stai_hand_landmark.c **** 
 1144              		.loc 1 44 3 is_stmt 1 discriminator 1 view .LVU370
  44:Model/stai_hand_landmark.c **** 
 1145              		.loc 1 44 3 discriminator 1 view .LVU371
 1146 0028 34B1     		cbz	r4, .L149
  44:Model/stai_hand_landmark.c **** 
 1147              		.loc 1 44 3 discriminator 4 view .LVU372
 1148 002a E36B     		ldr	r3, [r4, #60]
 1149 002c B3F5003F 		cmp	r3, #131072
  44:Model/stai_hand_landmark.c **** 
 1150              		.loc 1 44 3 discriminator 5 view .LVU373
 1151 0030 3CBF     		itt	cc
 1152 0032 4FF44033 		movcc	r3, #196608
 1153 0036 E363     		strcc	r3, [r4, #60]
 1154              	.L149:
  44:Model/stai_hand_landmark.c **** 
 1155              		.loc 1 44 3 is_stmt 0 discriminator 3 view .LVU374
 1156 0038 4FF44030 		mov	r0, #196608
 1157              	.LVL104:
 1158              	.L146:
 107:Model/stai_hand_landmark.c **** 
 1159              		.loc 1 107 1 view .LVU375
 1160 003c 02B0     		add	sp, sp, #8
 1161              		.cfi_remember_state
 1162              		.cfi_def_cfa_offset 24
 1163              		@ sp needed
 1164 003e BDE8F081 		pop	{r4, r5, r6, r7, r8, pc}
 1165              	.LVL105:
 1166              	.L148:
 1167              		.cfi_restore_state
  44:Model/stai_hand_landmark.c **** 
 1168              		.loc 1 44 3 is_stmt 1 discriminator 2 view .LVU376
  44:Model/stai_hand_landmark.c **** 
 1169              		.loc 1 44 3 discriminator 2 view .LVU377
  47:Model/stai_hand_landmark.c ****     __LL_ATON_STAI_SET_1ST_CTX_ERROR_AND_RETURN((_stai_aton_context *)network,
 1170              		.loc 1 47 3 view .LVU378
  47:Model/stai_hand_landmark.c ****     __LL_ATON_STAI_SET_1ST_CTX_ERROR_AND_RETURN((_stai_aton_context *)network,
ARM GAS  C:\Users\DJESSOU\AppData\Local\Temp\ccfF5lhd.s 			page 45


 1171              		.loc 1 47 6 is_stmt 0 view .LVU379
 1172 0042 4EB9     		cbnz	r6, .L150
  48:Model/stai_hand_landmark.c ****                                                 STAI_ERROR_NETWORK_INVALID_API_ARGUMENTS);
 1173              		.loc 1 48 5 is_stmt 1 view .LVU380
  48:Model/stai_hand_landmark.c ****                                                 STAI_ERROR_NETWORK_INVALID_API_ARGUMENTS);
 1174              		.loc 1 48 5 view .LVU381
 1175 0044 002C     		cmp	r4, #0
 1176 0046 F7D0     		beq	.L149
  48:Model/stai_hand_landmark.c ****                                                 STAI_ERROR_NETWORK_INVALID_API_ARGUMENTS);
 1177              		.loc 1 48 5 discriminator 2 view .LVU382
 1178 0048 E36B     		ldr	r3, [r4, #60]
 1179 004a B3F5003F 		cmp	r3, #131072
 1180 004e 01D2     		bcs	.L151
  48:Model/stai_hand_landmark.c ****                                                 STAI_ERROR_NETWORK_INVALID_API_ARGUMENTS);
 1181              		.loc 1 48 5 discriminator 3 view .LVU383
 1182 0050 1B4B     		ldr	r3, .L174+4
 1183 0052 E363     		str	r3, [r4, #60]
 1184              	.L151:
  48:Model/stai_hand_landmark.c ****                                                 STAI_ERROR_NETWORK_INVALID_API_ARGUMENTS);
 1185              		.loc 1 48 5 is_stmt 0 discriminator 5 view .LVU384
 1186 0054 1A48     		ldr	r0, .L174+4
 1187              	.LVL106:
  48:Model/stai_hand_landmark.c ****                                                 STAI_ERROR_NETWORK_INVALID_API_ARGUMENTS);
 1188              		.loc 1 48 5 discriminator 5 view .LVU385
 1189 0056 F1E7     		b	.L146
 1190              	.LVL107:
 1191              	.L150:
  48:Model/stai_hand_landmark.c ****                                                 STAI_ERROR_NETWORK_INVALID_API_ARGUMENTS);
 1192              		.loc 1 48 5 is_stmt 1 view .LVU386
  52:Model/stai_hand_landmark.c **** 
 1193              		.loc 1 52 3 view .LVU387
  52:Model/stai_hand_landmark.c **** 
 1194              		.loc 1 52 48 is_stmt 0 view .LVU388
 1195 0058 FFF7FEFF 		bl	LL_ATON_Input_Buffers_Info_hand_landmark
 1196              	.LVL108:
  55:Model/stai_hand_landmark.c ****   if (input_buffers != NULL)
 1197              		.loc 1 55 3 is_stmt 1 view .LVU389
  56:Model/stai_hand_landmark.c ****   {
 1198              		.loc 1 56 3 view .LVU390
  56:Model/stai_hand_landmark.c ****   {
 1199              		.loc 1 56 6 is_stmt 0 view .LVU391
 1200 005c 0446     		mov	r4, r0
 1201              	.LVL109:
  56:Model/stai_hand_landmark.c ****   {
 1202              		.loc 1 56 6 view .LVU392
 1203 005e A0B9     		cbnz	r0, .L153
 1204              	.LVL110:
 1205              	.L152:
  83:Model/stai_hand_landmark.c ****   }
 1206              		.loc 1 83 5 is_stmt 1 view .LVU393
  83:Model/stai_hand_landmark.c ****   }
 1207              		.loc 1 83 5 view .LVU394
  83:Model/stai_hand_landmark.c ****   }
 1208              		.loc 1 83 5 view .LVU395
  83:Model/stai_hand_landmark.c ****   }
 1209              		.loc 1 83 92 view .LVU396
  86:Model/stai_hand_landmark.c ****   {
ARM GAS  C:\Users\DJESSOU\AppData\Local\Temp\ccfF5lhd.s 			page 46


 1210              		.loc 1 86 3 view .LVU397
  88:Model/stai_hand_landmark.c ****   }
 1211              		.loc 1 88 5 view .LVU398
  88:Model/stai_hand_landmark.c ****   }
 1212              		.loc 1 88 5 view .LVU399
  88:Model/stai_hand_landmark.c ****   }
 1213              		.loc 1 88 5 view .LVU400
  88:Model/stai_hand_landmark.c ****   }
 1214              		.loc 1 88 50 view .LVU401
  92:Model/stai_hand_landmark.c ****   }
 1215              		.loc 1 92 5 view .LVU402
  92:Model/stai_hand_landmark.c ****   }
 1216              		.loc 1 92 5 view .LVU403
  92:Model/stai_hand_landmark.c ****   }
 1217              		.loc 1 92 5 view .LVU404
  92:Model/stai_hand_landmark.c ****   }
 1218              		.loc 1 92 55 view .LVU405
  97:Model/stai_hand_landmark.c ****   {
 1219              		.loc 1 97 3 view .LVU406
 106:Model/stai_hand_landmark.c **** }
 1220              		.loc 1 106 10 is_stmt 0 view .LVU407
 1221 0060 0020     		movs	r0, #0
  97:Model/stai_hand_landmark.c ****   {
 1222              		.loc 1 97 6 view .LVU408
 1223 0062 3760     		str	r7, [r6]
 1224 0064 EAE7     		b	.L146
 1225              	.LVL111:
 1226              	.L158:
 1227              	.LBB55:
 1228              	.LBB56:
  69:Model/stai_hand_landmark.c ****             LL_ATON_ASSERT(((uintptr_t)pointers[cnt] % STAI_CACHE_USER_BUFFER_ALIGNMENT) == 0);
 1229              		.loc 1 69 13 is_stmt 1 view .LVU409
  69:Model/stai_hand_landmark.c ****             LL_ATON_ASSERT(((uintptr_t)pointers[cnt] % STAI_CACHE_USER_BUFFER_ALIGNMENT) == 0);
 1230              		.loc 1 69 29 is_stmt 0 view .LVU410
 1231 0066 2046     		mov	r0, r4
 1232 0068 FFF7FEFF 		bl	LL_Buffer_addr_start
 1233              	.LVL112:
  70:Model/stai_hand_landmark.c ****           }
 1234              		.loc 1 70 13 view .LVU411
 1235 006c C306     		lsls	r3, r0, #27
  69:Model/stai_hand_landmark.c ****             LL_ATON_ASSERT(((uintptr_t)pointers[cnt] % STAI_CACHE_USER_BUFFER_ALIGNMENT) == 0);
 1236              		.loc 1 69 27 discriminator 1 view .LVU412
 1237 006e 6850     		str	r0, [r5, r1]
  70:Model/stai_hand_landmark.c ****           }
 1238              		.loc 1 70 13 is_stmt 1 view .LVU413
 1239 0070 08D0     		beq	.L156
  70:Model/stai_hand_landmark.c ****           }
 1240              		.loc 1 70 13 is_stmt 0 view .LVU414
 1241              	.LBE56:
 1242              	.LBE55:
 1243              	.LBB59:
 1244              	.LBI59:
  38:Model/stai_hand_landmark.c ****                                                                                           stai_ptr 
 1245              		.loc 1 38 32 is_stmt 1 view .LVU415
 1246              	.LVL113:
 1247              	.LBB60:
 1248              	.LBB61:
ARM GAS  C:\Users\DJESSOU\AppData\Local\Temp\ccfF5lhd.s 			page 47


 1249              	.LBB62:
  70:Model/stai_hand_landmark.c ****           }
 1250              		.loc 1 70 13 is_stmt 0 discriminator 1 view .LVU416
 1251 0072 4621     		movs	r1, #70
 1252 0074 134B     		ldr	r3, .L174+8
 1253 0076 144A     		ldr	r2, .L174+12
 1254 0078 1DE0     		b	.L173
 1255              	.LVL114:
 1256              	.L157:
  70:Model/stai_hand_landmark.c ****           }
 1257              		.loc 1 70 13 discriminator 1 view .LVU417
 1258              	.LBE62:
 1259              	.LBE61:
 1260              	.LBE60:
 1261              	.LBE59:
 1262              	.LBB66:
 1263              	.LBB57:
  74:Model/stai_hand_landmark.c ****           }
 1264              		.loc 1 74 13 is_stmt 1 view .LVU418
  74:Model/stai_hand_landmark.c ****           }
 1265              		.loc 1 74 29 is_stmt 0 view .LVU419
 1266 007a 2046     		mov	r0, r4
 1267 007c FFF7FEFF 		bl	LL_Buffer_addr_start
 1268              	.LVL115:
  74:Model/stai_hand_landmark.c ****           }
 1269              		.loc 1 74 27 discriminator 1 view .LVU420
 1270 0080 45F82800 		str	r0, [r5, r8, lsl #2]
 1271              	.L156:
  77:Model/stai_hand_landmark.c ****       }
 1272              		.loc 1 77 9 is_stmt 1 view .LVU421
  77:Model/stai_hand_landmark.c ****       }
 1273              		.loc 1 77 12 is_stmt 0 view .LVU422
 1274 0084 08F10108 		add	r8, r8, #1
 1275              	.LVL116:
 1276              	.L154:
  77:Model/stai_hand_landmark.c ****       }
 1277              		.loc 1 77 12 view .LVU423
 1278              	.LBE57:
  58:Model/stai_hand_landmark.c ****     {
 1279              		.loc 1 58 64 is_stmt 1 discriminator 2 view .LVU424
 1280 0088 3834     		adds	r4, r4, #56
 1281              	.LVL117:
 1282              	.L153:
  58:Model/stai_hand_landmark.c ****     {
 1283              		.loc 1 58 52 discriminator 1 view .LVU425
 1284 008a 2368     		ldr	r3, [r4]
 1285 008c 002B     		cmp	r3, #0
 1286 008e E7D0     		beq	.L152
 1287              	.LBB58:
  60:Model/stai_hand_landmark.c ****       if (inputs == !buffer_info->is_param)
 1288              		.loc 1 60 7 view .LVU426
 1289              	.LVL118:
  61:Model/stai_hand_landmark.c ****       {
 1290              		.loc 1 61 7 view .LVU427
  61:Model/stai_hand_landmark.c ****       {
 1291              		.loc 1 61 21 is_stmt 0 view .LVU428
 1292 0090 617D     		ldrb	r1, [r4, #21]	@ zero_extendqisi2
ARM GAS  C:\Users\DJESSOU\AppData\Local\Temp\ccfF5lhd.s 			page 48


  61:Model/stai_hand_landmark.c ****       {
 1293              		.loc 1 61 10 view .LVU429
 1294 0092 B1FA81F1 		clz	r1, r1
 1295 0096 4909     		lsrs	r1, r1, #5
 1296 0098 B942     		cmp	r1, r7
 1297 009a F5D1     		bne	.L154
  63:Model/stai_hand_landmark.c ****         {
 1298              		.loc 1 63 9 is_stmt 1 view .LVU430
  63:Model/stai_hand_landmark.c ****         {
 1299              		.loc 1 63 12 is_stmt 0 view .LVU431
 1300 009c 002D     		cmp	r5, #0
 1301 009e F1D0     		beq	.L156
  65:Model/stai_hand_landmark.c ****           {
 1302              		.loc 1 65 11 is_stmt 1 view .LVU432
  65:Model/stai_hand_landmark.c ****           {
 1303              		.loc 1 65 14 is_stmt 0 view .LVU433
 1304 00a0 237D     		ldrb	r3, [r4, #20]	@ zero_extendqisi2
 1305 00a2 4FEA8801 		lsl	r1, r8, #2
 1306 00a6 002B     		cmp	r3, #0
 1307 00a8 E7D0     		beq	.L157
  67:Model/stai_hand_landmark.c ****                            0); // user allocated buffers always have an offset equal to zero
 1308              		.loc 1 67 13 is_stmt 1 view .LVU434
 1309 00aa A368     		ldr	r3, [r4, #8]
 1310 00ac 002B     		cmp	r3, #0
 1311 00ae DAD0     		beq	.L158
  67:Model/stai_hand_landmark.c ****                            0); // user allocated buffers always have an offset equal to zero
 1312              		.loc 1 67 13 is_stmt 0 discriminator 1 view .LVU435
 1313 00b0 4321     		movs	r1, #67
 1314 00b2 064B     		ldr	r3, .L174+16
 1315 00b4 044A     		ldr	r2, .L174+12
 1316              	.L173:
 1317              	.LBE58:
 1318              	.LBE66:
 1319              	.LBB67:
 1320              	.LBB65:
 1321              	.LBB64:
 1322              	.LBB63:
  70:Model/stai_hand_landmark.c ****           }
 1323              		.loc 1 70 13 discriminator 1 view .LVU436
 1324 00b6 0648     		ldr	r0, .L174+20
 1325 00b8 FFF7FEFF 		bl	__assert_func
 1326              	.LVL119:
 1327              	.L175:
 1328              		.align	2
 1329              	.L174:
 1330 00bc 00000000 		.word	NN_Interface_hand_landmark
 1331 00c0 01000200 		.word	131073
 1332 00c4 00000000 		.word	.LC4
 1333 00c8 00000000 		.word	__func__.3
 1334 00cc 00000000 		.word	.LC0
 1335 00d0 1F000000 		.word	.LC1
 1336              	.LBE63:
 1337              	.LBE64:
 1338              	.LBE65:
 1339              	.LBE67:
 1340              		.cfi_endproc
 1341              	.LFE303:
ARM GAS  C:\Users\DJESSOU\AppData\Local\Temp\ccfF5lhd.s 			page 49


 1343              		.section	.text.stai_hand_landmark_init,"ax",%progbits
 1344              		.align	1
 1345              		.global	stai_hand_landmark_init
 1346              		.syntax unified
 1347              		.thumb
 1348              		.thumb_func
 1350              	stai_hand_landmark_init:
 1351              	.LVL120:
 1352              	.LFB307:
 355:Model/stai_hand_landmark.c **** 
 356:Model/stai_hand_landmark.c **** /*****************************************************************************/
 357:Model/stai_hand_landmark.c **** /*  Network management APIs  */
 358:Model/stai_hand_landmark.c **** STAI_API_ENTRY
 359:Model/stai_hand_landmark.c **** stai_return_code stai_hand_landmark_init(stai_network *network)
 360:Model/stai_hand_landmark.c **** {
 1353              		.loc 1 360 1 is_stmt 1 view -0
 1354              		.cfi_startproc
 1355              		@ args = 0, pretend = 0, frame = 0
 1356              		@ frame_needed = 0, uses_anonymous_args = 0
 361:Model/stai_hand_landmark.c ****   /* check context handle */
 362:Model/stai_hand_landmark.c ****   if (!network)
 1357              		.loc 1 362 3 view .LVU438
 360:Model/stai_hand_landmark.c ****   /* check context handle */
 1358              		.loc 1 360 1 is_stmt 0 view .LVU439
 1359 0000 10B5     		push	{r4, lr}
 1360              		.cfi_def_cfa_offset 8
 1361              		.cfi_offset 4, -8
 1362              		.cfi_offset 14, -4
 1363              		.loc 1 362 6 view .LVU440
 1364 0002 40B1     		cbz	r0, .L177
 363:Model/stai_hand_landmark.c ****     return STAI_ERROR_NETWORK_INVALID_CONTEXT_HANDLE;
 364:Model/stai_hand_landmark.c **** 
 365:Model/stai_hand_landmark.c ****   _stai_aton_context *ctx = (_stai_aton_context *)network;
 1365              		.loc 1 365 3 is_stmt 1 view .LVU441
 1366              	.LVL121:
 366:Model/stai_hand_landmark.c ****   if (ctx->network_instance.network != NULL) // already initialized
 1367              		.loc 1 366 3 view .LVU442
 1368              		.loc 1 366 6 is_stmt 0 view .LVU443
 1369 0004 0468     		ldr	r4, [r0]
 1370 0006 4CB1     		cbz	r4, .L178
 367:Model/stai_hand_landmark.c ****     __LL_ATON_STAI_SET_1ST_CTX_ERROR_AND_RETURN(ctx, STAI_ERROR_NETWORK_INVALID_CONTEXT_HANDLE);
 1371              		.loc 1 367 5 is_stmt 1 view .LVU444
 1372              		.loc 1 367 5 view .LVU445
 1373              		.loc 1 367 5 discriminator 2 view .LVU446
 1374 0008 C26B     		ldr	r2, [r0, #60]
 1375 000a B2F5003F 		cmp	r2, #131072
 1376              		.loc 1 367 5 discriminator 3 view .LVU447
 1377 000e 3CBF     		itt	cc
 1378 0010 4FF44032 		movcc	r2, #196608
 1379 0014 C263     		strcc	r2, [r0, #60]
 1380              	.LVL122:
 1381              	.L177:
 363:Model/stai_hand_landmark.c ****     return STAI_ERROR_NETWORK_INVALID_CONTEXT_HANDLE;
 1382              		.loc 1 363 12 is_stmt 0 view .LVU448
 1383 0016 4FF44030 		mov	r0, #196608
 1384              	.LVL123:
 1385              	.L176:
ARM GAS  C:\Users\DJESSOU\AppData\Local\Temp\ccfF5lhd.s 			page 50


 368:Model/stai_hand_landmark.c **** 
 369:Model/stai_hand_landmark.c ****   ctx->network_instance.network = (const NN_Interface_TypeDef *)&NN_Interface_hand_landmark;
 370:Model/stai_hand_landmark.c ****   ctx->exec_status = STAI_SUCCESS;
 371:Model/stai_hand_landmark.c ****   ctx->first_error = STAI_SUCCESS;
 372:Model/stai_hand_landmark.c **** 
 373:Model/stai_hand_landmark.c ****   __ll_aton_stai_init_network_instance(ctx);
 374:Model/stai_hand_landmark.c **** 
 375:Model/stai_hand_landmark.c ****   return STAI_SUCCESS;
 376:Model/stai_hand_landmark.c **** }
 1386              		.loc 1 376 1 view .LVU449
 1387 001a 10BD     		pop	{r4, pc}
 1388              	.LVL124:
 1389              	.L178:
 367:Model/stai_hand_landmark.c ****     __LL_ATON_STAI_SET_1ST_CTX_ERROR_AND_RETURN(ctx, STAI_ERROR_NETWORK_INVALID_CONTEXT_HANDLE);
 1390              		.loc 1 367 5 is_stmt 1 view .LVU450
 369:Model/stai_hand_landmark.c ****   ctx->exec_status = STAI_SUCCESS;
 1391              		.loc 1 369 3 view .LVU451
 369:Model/stai_hand_landmark.c ****   ctx->exec_status = STAI_SUCCESS;
 1392              		.loc 1 369 33 is_stmt 0 view .LVU452
 1393 001c 034A     		ldr	r2, .L183
 371:Model/stai_hand_landmark.c **** 
 1394              		.loc 1 371 20 view .LVU453
 1395 001e C0E90E44 		strd	r4, r4, [r0, #56]
 369:Model/stai_hand_landmark.c ****   ctx->exec_status = STAI_SUCCESS;
 1396              		.loc 1 369 33 view .LVU454
 1397 0022 0260     		str	r2, [r0]
 370:Model/stai_hand_landmark.c ****   ctx->first_error = STAI_SUCCESS;
 1398              		.loc 1 370 3 is_stmt 1 view .LVU455
 373:Model/stai_hand_landmark.c **** 
 1399              		.loc 1 373 3 view .LVU456
 1400 0024 FFF7FEFF 		bl	__ll_aton_stai_init_network_instance
 1401              	.LVL125:
 375:Model/stai_hand_landmark.c **** }
 1402              		.loc 1 375 3 view .LVU457
 375:Model/stai_hand_landmark.c **** }
 1403              		.loc 1 375 10 is_stmt 0 view .LVU458
 1404 0028 2046     		mov	r0, r4
 1405 002a F6E7     		b	.L176
 1406              	.L184:
 1407              		.align	2
 1408              	.L183:
 1409 002c 00000000 		.word	NN_Interface_hand_landmark
 1410              		.cfi_endproc
 1411              	.LFE307:
 1413              		.section	.text.stai_hand_landmark_deinit,"ax",%progbits
 1414              		.align	1
 1415              		.global	stai_hand_landmark_deinit
 1416              		.syntax unified
 1417              		.thumb
 1418              		.thumb_func
 1420              	stai_hand_landmark_deinit:
 1421              	.LVL126:
 1422              	.LFB308:
 377:Model/stai_hand_landmark.c **** 
 378:Model/stai_hand_landmark.c **** STAI_API_ENTRY
 379:Model/stai_hand_landmark.c **** stai_return_code stai_hand_landmark_deinit(stai_network *network)
 380:Model/stai_hand_landmark.c **** {
ARM GAS  C:\Users\DJESSOU\AppData\Local\Temp\ccfF5lhd.s 			page 51


 1423              		.loc 1 380 1 is_stmt 1 view -0
 1424              		.cfi_startproc
 1425              		@ args = 0, pretend = 0, frame = 8
 1426              		@ frame_needed = 0, uses_anonymous_args = 0
 381:Model/stai_hand_landmark.c ****   __LL_ATON_STAI_ACQUIRE_INTERFACE(nn_i_ptr, network);
 1427              		.loc 1 381 3 view .LVU460
 1428 0000 0023     		movs	r3, #0
 380:Model/stai_hand_landmark.c ****   __LL_ATON_STAI_ACQUIRE_INTERFACE(nn_i_ptr, network);
 1429              		.loc 1 380 1 is_stmt 0 view .LVU461
 1430 0002 37B5     		push	{r0, r1, r2, r4, r5, lr}
 1431              		.cfi_def_cfa_offset 24
 1432              		.cfi_offset 4, -12
 1433              		.cfi_offset 5, -8
 1434              		.cfi_offset 14, -4
 1435              		.loc 1 381 3 view .LVU462
 1436 0004 01A9     		add	r1, sp, #4
 380:Model/stai_hand_landmark.c ****   __LL_ATON_STAI_ACQUIRE_INTERFACE(nn_i_ptr, network);
 1437              		.loc 1 380 1 view .LVU463
 1438 0006 0546     		mov	r5, r0
 1439              		.loc 1 381 3 view .LVU464
 1440 0008 0193     		str	r3, [sp, #4]
 1441              		.loc 1 381 3 is_stmt 1 view .LVU465
 1442 000a FFF7FEFF 		bl	__ll_aton_stai_check_context_network_handle.constprop.0
 1443              	.LVL127:
 1444              		.loc 1 381 3 discriminator 1 view .LVU466
 1445 000e B0F5003F 		cmp	r0, #131072
 1446 0012 0DD2     		bcs	.L185
 1447              		.loc 1 381 54 discriminator 2 view .LVU467
 382:Model/stai_hand_landmark.c ****   __LL_ATON_STAI_CHECK_NETWORK_INTERFACE(nn_i_ptr, (_stai_aton_context *)network);
 1448              		.loc 1 382 3 view .LVU468
 1449              		.loc 1 382 3 view .LVU469
 1450 0014 164B     		ldr	r3, .L200
 1451 0016 019A     		ldr	r2, [sp, #4]
 1452 0018 9A42     		cmp	r2, r3
 1453 001a 0BD0     		beq	.L187
 1454              		.loc 1 382 3 discriminator 1 view .LVU470
 1455              		.loc 1 382 3 discriminator 1 view .LVU471
 1456 001c 35B1     		cbz	r5, .L188
 1457              		.loc 1 382 3 discriminator 4 view .LVU472
 1458 001e EB6B     		ldr	r3, [r5, #60]
 1459 0020 B3F5003F 		cmp	r3, #131072
 1460              		.loc 1 382 3 discriminator 5 view .LVU473
 1461 0024 3CBF     		itt	cc
 1462 0026 4FF44033 		movcc	r3, #196608
 1463 002a EB63     		strcc	r3, [r5, #60]
 1464              	.L188:
 1465              		.loc 1 382 3 is_stmt 0 discriminator 3 view .LVU474
 1466 002c 4FF44030 		mov	r0, #196608
 1467              	.LVL128:
 1468              	.L185:
 383:Model/stai_hand_landmark.c ****   _stai_aton_context *ctx = (_stai_aton_context *)network;
 384:Model/stai_hand_landmark.c **** 
 385:Model/stai_hand_landmark.c ****   if (ctx->exec_status != STAI_DONE && ctx->exec_status != STAI_SUCCESS)
 386:Model/stai_hand_landmark.c ****   {
 387:Model/stai_hand_landmark.c ****     __LL_ATON_STAI_SET_1ST_CTX_ERROR_AND_RETURN(ctx, STAI_ERROR_NETWORK_STILL_RUNNING);
 388:Model/stai_hand_landmark.c ****   }
 389:Model/stai_hand_landmark.c **** 
ARM GAS  C:\Users\DJESSOU\AppData\Local\Temp\ccfF5lhd.s 			page 52


 390:Model/stai_hand_landmark.c ****   __ll_aton_stai_deinit_network_instance(ctx);
 391:Model/stai_hand_landmark.c **** 
 392:Model/stai_hand_landmark.c ****   ctx->network_instance.network = NULL;
 393:Model/stai_hand_landmark.c **** 
 394:Model/stai_hand_landmark.c ****   ctx->callback = NULL;
 395:Model/stai_hand_landmark.c ****   ctx->callback_cookie = NULL;
 396:Model/stai_hand_landmark.c ****   LL_ATON_RT_SetNetworkCallback(&ctx->network_instance, NULL);
 397:Model/stai_hand_landmark.c **** 
 398:Model/stai_hand_landmark.c ****   ctx->exec_status = STAI_SUCCESS;
 399:Model/stai_hand_landmark.c ****   ctx->first_error = STAI_SUCCESS;
 400:Model/stai_hand_landmark.c **** 
 401:Model/stai_hand_landmark.c ****   return STAI_SUCCESS;
 402:Model/stai_hand_landmark.c **** }
 1469              		.loc 1 402 1 view .LVU475
 1470 0030 03B0     		add	sp, sp, #12
 1471              		.cfi_remember_state
 1472              		.cfi_def_cfa_offset 12
 1473              		@ sp needed
 1474 0032 30BD     		pop	{r4, r5, pc}
 1475              	.LVL129:
 1476              	.L187:
 1477              		.cfi_restore_state
 382:Model/stai_hand_landmark.c ****   __LL_ATON_STAI_CHECK_NETWORK_INTERFACE(nn_i_ptr, (_stai_aton_context *)network);
 1478              		.loc 1 382 3 is_stmt 1 discriminator 2 view .LVU476
 382:Model/stai_hand_landmark.c ****   __LL_ATON_STAI_CHECK_NETWORK_INTERFACE(nn_i_ptr, (_stai_aton_context *)network);
 1479              		.loc 1 382 3 discriminator 2 view .LVU477
 383:Model/stai_hand_landmark.c ****   _stai_aton_context *ctx = (_stai_aton_context *)network;
 1480              		.loc 1 383 3 view .LVU478
 385:Model/stai_hand_landmark.c ****   {
 1481              		.loc 1 385 3 view .LVU479
 385:Model/stai_hand_landmark.c ****   {
 1482              		.loc 1 385 10 is_stmt 0 view .LVU480
 1483 0034 AB6B     		ldr	r3, [r5, #56]
 385:Model/stai_hand_landmark.c ****   {
 1484              		.loc 1 385 6 view .LVU481
 1485 0036 122B     		cmp	r3, #18
 1486 0038 0AD0     		beq	.L189
 385:Model/stai_hand_landmark.c ****   {
 1487              		.loc 1 385 37 discriminator 1 view .LVU482
 1488 003a 4BB1     		cbz	r3, .L189
 387:Model/stai_hand_landmark.c ****   }
 1489              		.loc 1 387 5 is_stmt 1 view .LVU483
 387:Model/stai_hand_landmark.c ****   }
 1490              		.loc 1 387 5 view .LVU484
 387:Model/stai_hand_landmark.c ****   }
 1491              		.loc 1 387 5 discriminator 2 view .LVU485
 1492 003c EB6B     		ldr	r3, [r5, #60]
 387:Model/stai_hand_landmark.c ****   }
 1493              		.loc 1 387 5 is_stmt 0 discriminator 5 view .LVU486
 1494 003e 4FF4A020 		mov	r0, #327680
 1495              	.LVL130:
 387:Model/stai_hand_landmark.c ****   }
 1496              		.loc 1 387 5 discriminator 2 view .LVU487
 1497 0042 B3F5003F 		cmp	r3, #131072
 387:Model/stai_hand_landmark.c ****   }
 1498              		.loc 1 387 5 is_stmt 1 discriminator 3 view .LVU488
 1499 0046 3CBF     		itt	cc
ARM GAS  C:\Users\DJESSOU\AppData\Local\Temp\ccfF5lhd.s 			page 53


 1500 0048 4FF4A023 		movcc	r3, #327680
 1501 004c EB63     		strcc	r3, [r5, #60]
 1502 004e EFE7     		b	.L185
 1503              	.LVL131:
 1504              	.L189:
 387:Model/stai_hand_landmark.c ****   }
 1505              		.loc 1 387 5 view .LVU489
 390:Model/stai_hand_landmark.c **** 
 1506              		.loc 1 390 3 view .LVU490
 392:Model/stai_hand_landmark.c **** 
 1507              		.loc 1 392 33 is_stmt 0 view .LVU491
 1508 0050 0024     		movs	r4, #0
 390:Model/stai_hand_landmark.c **** 
 1509              		.loc 1 390 3 view .LVU492
 1510 0052 2846     		mov	r0, r5
 1511              	.LVL132:
 390:Model/stai_hand_landmark.c **** 
 1512              		.loc 1 390 3 view .LVU493
 1513 0054 FFF7FEFF 		bl	__ll_aton_stai_deinit_network_instance
 1514              	.LVL133:
 392:Model/stai_hand_landmark.c **** 
 1515              		.loc 1 392 3 is_stmt 1 view .LVU494
 396:Model/stai_hand_landmark.c **** 
 1516              		.loc 1 396 3 is_stmt 0 view .LVU495
 1517 0058 2846     		mov	r0, r5
 1518 005a 2146     		mov	r1, r4
 395:Model/stai_hand_landmark.c ****   LL_ATON_RT_SetNetworkCallback(&ctx->network_instance, NULL);
 1519              		.loc 1 395 24 view .LVU496
 1520 005c C5E90C44 		strd	r4, r4, [r5, #48]
 392:Model/stai_hand_landmark.c **** 
 1521              		.loc 1 392 33 view .LVU497
 1522 0060 2C60     		str	r4, [r5]
 394:Model/stai_hand_landmark.c ****   ctx->callback_cookie = NULL;
 1523              		.loc 1 394 3 is_stmt 1 view .LVU498
 396:Model/stai_hand_landmark.c **** 
 1524              		.loc 1 396 3 view .LVU499
 1525 0062 FFF7FEFF 		bl	LL_ATON_RT_SetNetworkCallback
 1526              	.LVL134:
 398:Model/stai_hand_landmark.c ****   ctx->first_error = STAI_SUCCESS;
 1527              		.loc 1 398 3 view .LVU500
 401:Model/stai_hand_landmark.c **** }
 1528              		.loc 1 401 10 is_stmt 0 view .LVU501
 1529 0066 2046     		mov	r0, r4
 399:Model/stai_hand_landmark.c **** 
 1530              		.loc 1 399 20 view .LVU502
 1531 0068 C5E90E44 		strd	r4, r4, [r5, #56]
 401:Model/stai_hand_landmark.c **** }
 1532              		.loc 1 401 3 is_stmt 1 view .LVU503
 401:Model/stai_hand_landmark.c **** }
 1533              		.loc 1 401 10 is_stmt 0 view .LVU504
 1534 006c E0E7     		b	.L185
 1535              	.L201:
 1536 006e 00BF     		.align	2
 1537              	.L200:
 1538 0070 00000000 		.word	NN_Interface_hand_landmark
 1539              		.cfi_endproc
 1540              	.LFE308:
ARM GAS  C:\Users\DJESSOU\AppData\Local\Temp\ccfF5lhd.s 			page 54


 1542              		.section	.text.stai_hand_landmark_run,"ax",%progbits
 1543              		.align	1
 1544              		.global	stai_hand_landmark_run
 1545              		.syntax unified
 1546              		.thumb
 1547              		.thumb_func
 1549              	stai_hand_landmark_run:
 1550              	.LVL135:
 1551              	.LFB309:
 403:Model/stai_hand_landmark.c **** 
 404:Model/stai_hand_landmark.c **** STAI_API_ENTRY
 405:Model/stai_hand_landmark.c **** stai_return_code stai_hand_landmark_run(stai_network *network, const stai_run_mode mode)
 406:Model/stai_hand_landmark.c **** {
 1552              		.loc 1 406 1 is_stmt 1 view -0
 1553              		.cfi_startproc
 1554              		@ args = 0, pretend = 0, frame = 8
 1555              		@ frame_needed = 0, uses_anonymous_args = 0
 407:Model/stai_hand_landmark.c ****   /* check context & network interface handle */
 408:Model/stai_hand_landmark.c ****   __LL_ATON_STAI_ACQUIRE_INTERFACE(nn_i_ptr, network);
 1556              		.loc 1 408 3 view .LVU506
 1557 0000 0023     		movs	r3, #0
 406:Model/stai_hand_landmark.c ****   /* check context & network interface handle */
 1558              		.loc 1 406 1 is_stmt 0 view .LVU507
 1559 0002 13B5     		push	{r0, r1, r4, lr}
 1560              		.cfi_def_cfa_offset 16
 1561              		.cfi_offset 4, -8
 1562              		.cfi_offset 14, -4
 406:Model/stai_hand_landmark.c ****   /* check context & network interface handle */
 1563              		.loc 1 406 1 view .LVU508
 1564 0004 0C46     		mov	r4, r1
 1565              		.loc 1 408 3 view .LVU509
 1566 0006 01A9     		add	r1, sp, #4
 1567              	.LVL136:
 406:Model/stai_hand_landmark.c ****   /* check context & network interface handle */
 1568              		.loc 1 406 1 view .LVU510
 1569 0008 0246     		mov	r2, r0
 1570              		.loc 1 408 3 view .LVU511
 1571 000a 0193     		str	r3, [sp, #4]
 1572              		.loc 1 408 3 is_stmt 1 view .LVU512
 1573 000c FFF7FEFF 		bl	__ll_aton_stai_check_context_network_handle.constprop.0
 1574              	.LVL137:
 1575              		.loc 1 408 3 discriminator 1 view .LVU513
 1576 0010 B0F5003F 		cmp	r0, #131072
 1577 0014 0DD2     		bcs	.L202
 1578              		.loc 1 408 54 discriminator 2 view .LVU514
 409:Model/stai_hand_landmark.c ****   __LL_ATON_STAI_CHECK_NETWORK_INTERFACE(nn_i_ptr, (_stai_aton_context *)network);
 1579              		.loc 1 409 3 view .LVU515
 1580              		.loc 1 409 3 view .LVU516
 1581 0016 0B4B     		ldr	r3, .L209
 1582 0018 0199     		ldr	r1, [sp, #4]
 1583 001a 9942     		cmp	r1, r3
 1584 001c 0BD0     		beq	.L204
 1585              		.loc 1 409 3 discriminator 1 view .LVU517
 1586              		.loc 1 409 3 discriminator 1 view .LVU518
 1587 001e 32B1     		cbz	r2, .L205
 1588              		.loc 1 409 3 discriminator 4 view .LVU519
 1589 0020 D36B     		ldr	r3, [r2, #60]
ARM GAS  C:\Users\DJESSOU\AppData\Local\Temp\ccfF5lhd.s 			page 55


 1590 0022 B3F5003F 		cmp	r3, #131072
 1591              		.loc 1 409 3 discriminator 5 view .LVU520
 1592 0026 3CBF     		itt	cc
 1593 0028 4FF44033 		movcc	r3, #196608
 1594 002c D363     		strcc	r3, [r2, #60]
 1595              	.L205:
 1596              		.loc 1 409 3 is_stmt 0 discriminator 3 view .LVU521
 1597 002e 4FF44030 		mov	r0, #196608
 1598              	.LVL138:
 1599              	.L202:
 410:Model/stai_hand_landmark.c **** 
 411:Model/stai_hand_landmark.c ****   return __ll_aton_stai_run(network, mode);
 412:Model/stai_hand_landmark.c **** }
 1600              		.loc 1 412 1 view .LVU522
 1601 0032 02B0     		add	sp, sp, #8
 1602              		.cfi_remember_state
 1603              		.cfi_def_cfa_offset 8
 1604              		@ sp needed
 1605 0034 10BD     		pop	{r4, pc}
 1606              	.LVL139:
 1607              	.L204:
 1608              		.cfi_restore_state
 409:Model/stai_hand_landmark.c ****   __LL_ATON_STAI_CHECK_NETWORK_INTERFACE(nn_i_ptr, (_stai_aton_context *)network);
 1609              		.loc 1 409 3 is_stmt 1 discriminator 2 view .LVU523
 409:Model/stai_hand_landmark.c ****   __LL_ATON_STAI_CHECK_NETWORK_INTERFACE(nn_i_ptr, (_stai_aton_context *)network);
 1610              		.loc 1 409 3 discriminator 2 view .LVU524
 411:Model/stai_hand_landmark.c **** }
 1611              		.loc 1 411 3 view .LVU525
 411:Model/stai_hand_landmark.c **** }
 1612              		.loc 1 411 10 is_stmt 0 view .LVU526
 1613 0036 2146     		mov	r1, r4
 1614 0038 1046     		mov	r0, r2
 1615              	.LVL140:
 1616              		.loc 1 412 1 view .LVU527
 1617 003a 02B0     		add	sp, sp, #8
 1618              		.cfi_def_cfa_offset 8
 1619              		@ sp needed
 1620 003c BDE81040 		pop	{r4, lr}
 1621              		.cfi_restore 14
 1622              		.cfi_restore 4
 1623              		.cfi_def_cfa_offset 0
 411:Model/stai_hand_landmark.c **** }
 1624              		.loc 1 411 10 view .LVU528
 1625 0040 FFF7FEBF 		b	__ll_aton_stai_run
 1626              	.LVL141:
 1627              	.L210:
 411:Model/stai_hand_landmark.c **** }
 1628              		.loc 1 411 10 view .LVU529
 1629              		.align	2
 1630              	.L209:
 1631 0044 00000000 		.word	NN_Interface_hand_landmark
 1632              		.cfi_endproc
 1633              	.LFE309:
 1635              		.section	.text.stai_hand_landmark_train,"ax",%progbits
 1636              		.align	1
 1637              		.global	stai_hand_landmark_train
 1638              		.syntax unified
ARM GAS  C:\Users\DJESSOU\AppData\Local\Temp\ccfF5lhd.s 			page 56


 1639              		.thumb
 1640              		.thumb_func
 1642              	stai_hand_landmark_train:
 1643              	.LVL142:
 1644              	.LFB310:
 413:Model/stai_hand_landmark.c **** 
 414:Model/stai_hand_landmark.c **** STAI_API_ENTRY
 415:Model/stai_hand_landmark.c **** stai_return_code stai_hand_landmark_train(stai_network *network, const stai_run_mode mode)
 416:Model/stai_hand_landmark.c **** {
 1645              		.loc 1 416 1 is_stmt 1 view -0
 1646              		.cfi_startproc
 1647              		@ args = 0, pretend = 0, frame = 8
 1648              		@ frame_needed = 0, uses_anonymous_args = 0
 417:Model/stai_hand_landmark.c ****   LL_ATON_LIB_UNUSED(mode);
 1649              		.loc 1 417 3 view .LVU531
 418:Model/stai_hand_landmark.c **** 
 419:Model/stai_hand_landmark.c ****   /* check context & network interface handle */
 420:Model/stai_hand_landmark.c ****   __LL_ATON_STAI_ACQUIRE_INTERFACE(nn_i_ptr, network);
 1650              		.loc 1 420 3 view .LVU532
 1651 0000 0023     		movs	r3, #0
 416:Model/stai_hand_landmark.c ****   LL_ATON_LIB_UNUSED(mode);
 1652              		.loc 1 416 1 is_stmt 0 view .LVU533
 1653 0002 07B5     		push	{r0, r1, r2, lr}
 1654              		.cfi_def_cfa_offset 16
 1655              		.cfi_offset 14, -4
 1656              		.loc 1 420 3 view .LVU534
 1657 0004 01A9     		add	r1, sp, #4
 1658              	.LVL143:
 416:Model/stai_hand_landmark.c ****   LL_ATON_LIB_UNUSED(mode);
 1659              		.loc 1 416 1 view .LVU535
 1660 0006 0246     		mov	r2, r0
 1661              		.loc 1 420 3 view .LVU536
 1662 0008 0193     		str	r3, [sp, #4]
 1663              		.loc 1 420 3 is_stmt 1 view .LVU537
 1664 000a FFF7FEFF 		bl	__ll_aton_stai_check_context_network_handle.constprop.0
 1665              	.LVL144:
 1666              		.loc 1 420 3 discriminator 1 view .LVU538
 1667 000e B0F5003F 		cmp	r0, #131072
 1668 0012 15D2     		bcs	.L211
 1669              		.loc 1 420 54 discriminator 2 view .LVU539
 421:Model/stai_hand_landmark.c ****   __LL_ATON_STAI_CHECK_NETWORK_INTERFACE(nn_i_ptr, (_stai_aton_context *)network);
 1670              		.loc 1 421 3 view .LVU540
 1671              		.loc 1 421 3 view .LVU541
 1672 0014 0D4B     		ldr	r3, .L223
 1673 0016 0199     		ldr	r1, [sp, #4]
 1674 0018 9942     		cmp	r1, r3
 1675 001a 0AD0     		beq	.L213
 1676              		.loc 1 421 3 discriminator 1 view .LVU542
 1677              		.loc 1 421 3 discriminator 1 view .LVU543
 1678 001c 32B1     		cbz	r2, .L214
 1679              		.loc 1 421 3 discriminator 4 view .LVU544
 1680 001e D36B     		ldr	r3, [r2, #60]
 1681 0020 B3F5003F 		cmp	r3, #131072
 1682 0024 02D2     		bcs	.L214
 1683              		.loc 1 421 3 discriminator 5 view .LVU545
 1684 0026 4FF44033 		mov	r3, #196608
 1685 002a D363     		str	r3, [r2, #60]
ARM GAS  C:\Users\DJESSOU\AppData\Local\Temp\ccfF5lhd.s 			page 57


 1686              	.L214:
 1687              		.loc 1 421 3 is_stmt 0 discriminator 3 view .LVU546
 1688 002c 4FF44030 		mov	r0, #196608
 1689              	.LVL145:
 422:Model/stai_hand_landmark.c **** 
 423:Model/stai_hand_landmark.c ****   __LL_ATON_STAI_SET_1ST_CTX_ERROR_AND_RETURN((_stai_aton_context *)network, STAI_ERROR_NOT_IMPLEME
 1690              		.loc 1 423 3 is_stmt 1 discriminator 7 view .LVU547
 1691 0030 06E0     		b	.L211
 1692              	.LVL146:
 1693              	.L213:
 421:Model/stai_hand_landmark.c ****   __LL_ATON_STAI_CHECK_NETWORK_INTERFACE(nn_i_ptr, (_stai_aton_context *)network);
 1694              		.loc 1 421 3 discriminator 2 view .LVU548
 421:Model/stai_hand_landmark.c ****   __LL_ATON_STAI_CHECK_NETWORK_INTERFACE(nn_i_ptr, (_stai_aton_context *)network);
 1695              		.loc 1 421 3 discriminator 2 view .LVU549
 1696              		.loc 1 423 3 view .LVU550
 1697              		.loc 1 423 3 view .LVU551
 1698 0032 002A     		cmp	r2, #0
 1699 0034 FAD0     		beq	.L214
 1700              		.loc 1 423 3 discriminator 2 view .LVU552
 1701 0036 D36B     		ldr	r3, [r2, #60]
 1702 0038 B3F5003F 		cmp	r3, #131072
 1703 003c 03D3     		bcc	.L215
 1704              	.L216:
 1705              		.loc 1 423 3 is_stmt 0 discriminator 6 view .LVU553
 1706 003e 0448     		ldr	r0, .L223+4
 1707              	.LVL147:
 1708              	.L211:
 424:Model/stai_hand_landmark.c **** }
 1709              		.loc 1 424 1 view .LVU554
 1710 0040 03B0     		add	sp, sp, #12
 1711              		.cfi_remember_state
 1712              		.cfi_def_cfa_offset 4
 1713              		@ sp needed
 1714 0042 5DF804FB 		ldr	pc, [sp], #4
 1715              	.LVL148:
 1716              	.L215:
 1717              		.cfi_restore_state
 423:Model/stai_hand_landmark.c **** }
 1718              		.loc 1 423 3 is_stmt 1 discriminator 4 view .LVU555
 1719 0046 024B     		ldr	r3, .L223+4
 1720 0048 D363     		str	r3, [r2, #60]
 1721 004a F8E7     		b	.L216
 1722              	.L224:
 1723              		.align	2
 1724              	.L223:
 1725 004c 00000000 		.word	NN_Interface_hand_landmark
 1726 0050 60000400 		.word	262240
 1727              		.cfi_endproc
 1728              	.LFE310:
 1730              		.section	.text.stai_hand_landmark_get_inputs,"ax",%progbits
 1731              		.align	1
 1732              		.global	stai_hand_landmark_get_inputs
 1733              		.syntax unified
 1734              		.thumb
 1735              		.thumb_func
 1737              	stai_hand_landmark_get_inputs:
 1738              	.LVL149:
ARM GAS  C:\Users\DJESSOU\AppData\Local\Temp\ccfF5lhd.s 			page 58


 1739              	.LFB311:
 425:Model/stai_hand_landmark.c **** 
 426:Model/stai_hand_landmark.c **** /*****************************************************************************/
 427:Model/stai_hand_landmark.c **** /*  Getters APIs  */
 428:Model/stai_hand_landmark.c **** STAI_API_ENTRY
 429:Model/stai_hand_landmark.c **** stai_return_code stai_hand_landmark_get_inputs(stai_network *network, stai_ptr *inputs, stai_size *
 430:Model/stai_hand_landmark.c **** {
 1740              		.loc 1 430 1 view -0
 1741              		.cfi_startproc
 1742              		@ args = 0, pretend = 0, frame = 0
 1743              		@ frame_needed = 0, uses_anonymous_args = 0
 1744              		@ link register save eliminated.
 431:Model/stai_hand_landmark.c ****   return __ll_aton_stai_hand_landmark_get_inputs_or_weights(network, inputs, n_inputs, true);
 1745              		.loc 1 431 3 view .LVU557
 1746              		.loc 1 431 10 is_stmt 0 view .LVU558
 1747 0000 0123     		movs	r3, #1
 1748 0002 FFF7FEBF 		b	__ll_aton_stai_hand_landmark_get_inputs_or_weights
 1749              	.LVL150:
 1750              		.loc 1 431 10 view .LVU559
 1751              		.cfi_endproc
 1752              	.LFE311:
 1754              		.section	.text.stai_hand_landmark_get_weights,"ax",%progbits
 1755              		.align	1
 1756              		.global	stai_hand_landmark_get_weights
 1757              		.syntax unified
 1758              		.thumb
 1759              		.thumb_func
 1761              	stai_hand_landmark_get_weights:
 1762              	.LVL151:
 1763              	.LFB312:
 432:Model/stai_hand_landmark.c **** }
 433:Model/stai_hand_landmark.c **** 
 434:Model/stai_hand_landmark.c **** STAI_API_ENTRY
 435:Model/stai_hand_landmark.c **** stai_return_code stai_hand_landmark_get_weights(stai_network *network, stai_ptr *weights, stai_size
 436:Model/stai_hand_landmark.c **** {
 1764              		.loc 1 436 1 is_stmt 1 view -0
 1765              		.cfi_startproc
 1766              		@ args = 0, pretend = 0, frame = 0
 1767              		@ frame_needed = 0, uses_anonymous_args = 0
 1768              		@ link register save eliminated.
 437:Model/stai_hand_landmark.c ****   return __ll_aton_stai_hand_landmark_get_inputs_or_weights(network, weights, n_weights, false);
 1769              		.loc 1 437 3 view .LVU561
 1770              		.loc 1 437 10 is_stmt 0 view .LVU562
 1771 0000 0023     		movs	r3, #0
 1772 0002 FFF7FEBF 		b	__ll_aton_stai_hand_landmark_get_inputs_or_weights
 1773              	.LVL152:
 1774              		.loc 1 437 10 view .LVU563
 1775              		.cfi_endproc
 1776              	.LFE312:
 1778              		.section	.text.stai_hand_landmark_get_outputs,"ax",%progbits
 1779              		.align	1
 1780              		.global	stai_hand_landmark_get_outputs
 1781              		.syntax unified
 1782              		.thumb
 1783              		.thumb_func
 1785              	stai_hand_landmark_get_outputs:
 1786              	.LVL153:
ARM GAS  C:\Users\DJESSOU\AppData\Local\Temp\ccfF5lhd.s 			page 59


 1787              	.LFB313:
 438:Model/stai_hand_landmark.c **** }
 439:Model/stai_hand_landmark.c **** 
 440:Model/stai_hand_landmark.c **** STAI_API_ENTRY
 441:Model/stai_hand_landmark.c **** stai_return_code stai_hand_landmark_get_outputs(stai_network *network, stai_ptr *outputs, stai_size
 442:Model/stai_hand_landmark.c **** {
 1788              		.loc 1 442 1 is_stmt 1 view -0
 1789              		.cfi_startproc
 1790              		@ args = 0, pretend = 0, frame = 0
 1791              		@ frame_needed = 0, uses_anonymous_args = 0
 1792              		@ link register save eliminated.
 443:Model/stai_hand_landmark.c ****   return __ll_aton_stai_hand_landmark_get_outputs_or_activations(network, outputs, n_outputs, true)
 1793              		.loc 1 443 3 view .LVU565
 1794              		.loc 1 443 10 is_stmt 0 view .LVU566
 1795 0000 0123     		movs	r3, #1
 1796 0002 FFF7FEBF 		b	__ll_aton_stai_hand_landmark_get_outputs_or_activations
 1797              	.LVL154:
 1798              		.loc 1 443 10 view .LVU567
 1799              		.cfi_endproc
 1800              	.LFE313:
 1802              		.section	.text.stai_hand_landmark_get_activations,"ax",%progbits
 1803              		.align	1
 1804              		.global	stai_hand_landmark_get_activations
 1805              		.syntax unified
 1806              		.thumb
 1807              		.thumb_func
 1809              	stai_hand_landmark_get_activations:
 1810              	.LVL155:
 1811              	.LFB314:
 444:Model/stai_hand_landmark.c **** }
 445:Model/stai_hand_landmark.c **** 
 446:Model/stai_hand_landmark.c **** STAI_API_ENTRY
 447:Model/stai_hand_landmark.c **** stai_return_code stai_hand_landmark_get_activations(stai_network *network, stai_ptr *activations,
 448:Model/stai_hand_landmark.c ****                                                             stai_size *n_activations)
 449:Model/stai_hand_landmark.c **** {
 1812              		.loc 1 449 1 is_stmt 1 view -0
 1813              		.cfi_startproc
 1814              		@ args = 0, pretend = 0, frame = 0
 1815              		@ frame_needed = 0, uses_anonymous_args = 0
 1816              		@ link register save eliminated.
 450:Model/stai_hand_landmark.c ****   return __ll_aton_stai_hand_landmark_get_outputs_or_activations(network, activations, n_activation
 1817              		.loc 1 450 3 view .LVU569
 1818              		.loc 1 450 10 is_stmt 0 view .LVU570
 1819 0000 0023     		movs	r3, #0
 1820 0002 FFF7FEBF 		b	__ll_aton_stai_hand_landmark_get_outputs_or_activations
 1821              	.LVL156:
 1822              		.loc 1 450 10 view .LVU571
 1823              		.cfi_endproc
 1824              	.LFE314:
 1826              		.section	.rodata.stai_hand_landmark_get_info.str1.1,"aMS",%progbits,1
 1827              	.LC5:
 1828 0000 46656220 		.ascii	"Feb 10 2026 15:18:27\000"
 1828      31302032 
 1828      30323620 
 1828      31353A31 
 1828      383A3237 
 1829              	.LC6:
ARM GAS  C:\Users\DJESSOU\AppData\Local\Temp\ccfF5lhd.s 			page 60


 1830 0015 68616E64 		.ascii	"hand_landmark\000"
 1830      5F6C616E 
 1830      646D6172 
 1830      6B00
 1831              	.LC7:
 1832 0023 32303235 		.ascii	"2025-12-12 11:15:13\000"
 1832      2D31322D 
 1832      31322031 
 1832      313A3135 
 1832      3A313300 
 1833              		.section	.text.stai_hand_landmark_get_info,"ax",%progbits
 1834              		.align	1
 1835              		.global	stai_hand_landmark_get_info
 1836              		.syntax unified
 1837              		.thumb
 1838              		.thumb_func
 1840              	stai_hand_landmark_get_info:
 1841              	.LVL157:
 1842              	.LFB315:
 451:Model/stai_hand_landmark.c **** }
 452:Model/stai_hand_landmark.c **** 
 453:Model/stai_hand_landmark.c **** static const stai_network_info __stai_hand_landmark_network_info;
 454:Model/stai_hand_landmark.c **** STAI_API_ENTRY
 455:Model/stai_hand_landmark.c **** stai_return_code stai_hand_landmark_get_info(stai_network *network, stai_network_info *info)
 456:Model/stai_hand_landmark.c **** {
 1843              		.loc 1 456 1 is_stmt 1 view -0
 1844              		.cfi_startproc
 1845              		@ args = 0, pretend = 0, frame = 8
 1846              		@ frame_needed = 0, uses_anonymous_args = 0
 457:Model/stai_hand_landmark.c ****   /* check context & network interface handle */
 458:Model/stai_hand_landmark.c ****   __LL_ATON_STAI_ACQUIRE_INTERFACE(nn_i_ptr, network);
 1847              		.loc 1 458 3 view .LVU573
 456:Model/stai_hand_landmark.c ****   /* check context & network interface handle */
 1848              		.loc 1 456 1 is_stmt 0 view .LVU574
 1849 0000 37B5     		push	{r0, r1, r2, r4, r5, lr}
 1850              		.cfi_def_cfa_offset 24
 1851              		.cfi_offset 4, -12
 1852              		.cfi_offset 5, -8
 1853              		.cfi_offset 14, -4
 1854              		.loc 1 458 3 view .LVU575
 1855 0002 0025     		movs	r5, #0
 456:Model/stai_hand_landmark.c ****   /* check context & network interface handle */
 1856              		.loc 1 456 1 view .LVU576
 1857 0004 0C46     		mov	r4, r1
 1858              		.loc 1 458 3 view .LVU577
 1859 0006 01A9     		add	r1, sp, #4
 1860              	.LVL158:
 456:Model/stai_hand_landmark.c ****   /* check context & network interface handle */
 1861              		.loc 1 456 1 view .LVU578
 1862 0008 0246     		mov	r2, r0
 1863              		.loc 1 458 3 view .LVU579
 1864 000a 0195     		str	r5, [sp, #4]
 1865              		.loc 1 458 3 is_stmt 1 view .LVU580
 1866 000c FFF7FEFF 		bl	__ll_aton_stai_check_context_network_handle.constprop.0
 1867              	.LVL159:
 1868              		.loc 1 458 3 discriminator 1 view .LVU581
 1869 0010 B0F5003F 		cmp	r0, #131072
ARM GAS  C:\Users\DJESSOU\AppData\Local\Temp\ccfF5lhd.s 			page 61


 1870 0014 0DD2     		bcs	.L229
 1871              		.loc 1 458 54 discriminator 2 view .LVU582
 459:Model/stai_hand_landmark.c ****   __LL_ATON_STAI_CHECK_NETWORK_INTERFACE(nn_i_ptr, (_stai_aton_context *)network);
 1872              		.loc 1 459 3 view .LVU583
 1873              		.loc 1 459 3 view .LVU584
 1874 0016 1A4B     		ldr	r3, .L236
 1875 0018 0199     		ldr	r1, [sp, #4]
 1876 001a 9942     		cmp	r1, r3
 1877 001c 0BD0     		beq	.L231
 1878              		.loc 1 459 3 discriminator 1 view .LVU585
 1879              		.loc 1 459 3 discriminator 1 view .LVU586
 1880 001e 32B1     		cbz	r2, .L232
 1881              		.loc 1 459 3 discriminator 4 view .LVU587
 1882 0020 D36B     		ldr	r3, [r2, #60]
 1883 0022 B3F5003F 		cmp	r3, #131072
 1884              		.loc 1 459 3 discriminator 5 view .LVU588
 1885 0026 3CBF     		itt	cc
 1886 0028 4FF44033 		movcc	r3, #196608
 1887 002c D363     		strcc	r3, [r2, #60]
 1888              	.L232:
 1889              		.loc 1 459 3 is_stmt 0 discriminator 3 view .LVU589
 1890 002e 4FF44030 		mov	r0, #196608
 1891              	.LVL160:
 1892              	.L229:
 460:Model/stai_hand_landmark.c **** 
 461:Model/stai_hand_landmark.c ****   // Copy of network info struct
 462:Model/stai_hand_landmark.c ****   *info = __stai_hand_landmark_network_info;
 463:Model/stai_hand_landmark.c **** 
 464:Model/stai_hand_landmark.c ****   return STAI_SUCCESS;
 465:Model/stai_hand_landmark.c **** }
 1893              		.loc 1 465 1 view .LVU590
 1894 0032 03B0     		add	sp, sp, #12
 1895              		.cfi_remember_state
 1896              		.cfi_def_cfa_offset 12
 1897              		@ sp needed
 1898 0034 30BD     		pop	{r4, r5, pc}
 1899              	.LVL161:
 1900              	.L231:
 1901              		.cfi_restore_state
 459:Model/stai_hand_landmark.c ****   __LL_ATON_STAI_CHECK_NETWORK_INTERFACE(nn_i_ptr, (_stai_aton_context *)network);
 1902              		.loc 1 459 3 is_stmt 1 discriminator 2 view .LVU591
 459:Model/stai_hand_landmark.c ****   __LL_ATON_STAI_CHECK_NETWORK_INTERFACE(nn_i_ptr, (_stai_aton_context *)network);
 1903              		.loc 1 459 3 discriminator 2 view .LVU592
 462:Model/stai_hand_landmark.c **** 
 1904              		.loc 1 462 3 view .LVU593
 462:Model/stai_hand_landmark.c **** 
 1905              		.loc 1 462 9 is_stmt 0 view .LVU594
 1906 0036 5022     		movs	r2, #80
 1907              	.LVL162:
 462:Model/stai_hand_landmark.c **** 
 1908              		.loc 1 462 9 view .LVU595
 1909 0038 2946     		mov	r1, r5
 1910 003a 2046     		mov	r0, r4
 1911              	.LVL163:
 462:Model/stai_hand_landmark.c **** 
 1912              		.loc 1 462 9 view .LVU596
 1913 003c FFF7FEFF 		bl	memset
ARM GAS  C:\Users\DJESSOU\AppData\Local\Temp\ccfF5lhd.s 			page 62


 1914              	.LVL164:
 1915 0040 104B     		ldr	r3, .L236+4
 1916 0042 4FF49372 		mov	r2, #294
 1917 0046 6360     		str	r3, [r4, #4]
 1918 0048 0F4B     		ldr	r3, .L236+8
 464:Model/stai_hand_landmark.c **** }
 1919              		.loc 1 464 10 view .LVU597
 1920 004a 2846     		mov	r0, r5
 462:Model/stai_hand_landmark.c **** 
 1921              		.loc 1 462 9 view .LVU598
 1922 004c A360     		str	r3, [r4, #8]
 1923 004e 0F4B     		ldr	r3, .L236+12
 1924 0050 E360     		str	r3, [r4, #12]
 1925 0052 40F20113 		movw	r3, #257
 1926 0056 A382     		strh	r3, [r4, #20]	@ movhi
 1927 0058 0323     		movs	r3, #3
 1928 005a A375     		strb	r3, [r4, #22]
 1929 005c 2376     		strb	r3, [r4, #24]
 1930 005e 0123     		movs	r3, #1
 1931 0060 2377     		strb	r3, [r4, #28]
 1932 0062 4FF0E053 		mov	r3, #469762048
 1933 0066 C4E90A23 		strd	r2, r3, [r4, #40]
 1934 006a 094B     		ldr	r3, .L236+16
 1935 006c 2363     		str	r3, [r4, #48]
 1936 006e 7623     		movs	r3, #118
 1937 0070 A386     		strh	r3, [r4, #52]	@ movhi
 1938 0072 084B     		ldr	r3, .L236+20
 1939 0074 E363     		str	r3, [r4, #60]
 1940 0076 084B     		ldr	r3, .L236+24
 1941 0078 2364     		str	r3, [r4, #64]
 1942 007a 084B     		ldr	r3, .L236+28
 1943 007c 6364     		str	r3, [r4, #68]
 464:Model/stai_hand_landmark.c **** }
 1944              		.loc 1 464 3 is_stmt 1 view .LVU599
 464:Model/stai_hand_landmark.c **** }
 1945              		.loc 1 464 10 is_stmt 0 view .LVU600
 1946 007e D8E7     		b	.L229
 1947              	.L237:
 1948              		.align	2
 1949              	.L236:
 1950 0080 00000000 		.word	NN_Interface_hand_landmark
 1951 0084 00000000 		.word	.LC5
 1952 0088 15000000 		.word	.LC6
 1953 008c 23000000 		.word	.LC7
 1954 0090 01000400 		.word	262145
 1955 0094 00000000 		.word	__compound_literal.3
 1956 0098 00000000 		.word	__compound_literal.8
 1957 009c 00000000 		.word	__compound_literal.331
 1958              		.cfi_endproc
 1959              	.LFE315:
 1961              		.section	.text.stai_hand_landmark_get_states,"ax",%progbits
 1962              		.align	1
 1963              		.global	stai_hand_landmark_get_states
 1964              		.syntax unified
 1965              		.thumb
 1966              		.thumb_func
 1968              	stai_hand_landmark_get_states:
ARM GAS  C:\Users\DJESSOU\AppData\Local\Temp\ccfF5lhd.s 			page 63


 1969              	.LVL165:
 1970              	.LFB316:
 466:Model/stai_hand_landmark.c **** 
 467:Model/stai_hand_landmark.c **** STAI_API_ENTRY
 468:Model/stai_hand_landmark.c **** stai_return_code stai_hand_landmark_get_states(stai_network *network, stai_ptr *states, stai_size *
 469:Model/stai_hand_landmark.c **** {
 1971              		.loc 1 469 1 is_stmt 1 view -0
 1972              		.cfi_startproc
 1973              		@ args = 0, pretend = 0, frame = 8
 1974              		@ frame_needed = 0, uses_anonymous_args = 0
 470:Model/stai_hand_landmark.c ****   LL_ATON_LIB_UNUSED(states);
 1975              		.loc 1 470 3 view .LVU602
 471:Model/stai_hand_landmark.c **** 
 472:Model/stai_hand_landmark.c ****   /* check context & network interface handle */
 473:Model/stai_hand_landmark.c ****   __LL_ATON_STAI_ACQUIRE_INTERFACE(nn_i_ptr, network);
 1976              		.loc 1 473 3 view .LVU603
 469:Model/stai_hand_landmark.c ****   LL_ATON_LIB_UNUSED(states);
 1977              		.loc 1 469 1 is_stmt 0 view .LVU604
 1978 0000 37B5     		push	{r0, r1, r2, r4, r5, lr}
 1979              		.cfi_def_cfa_offset 24
 1980              		.cfi_offset 4, -12
 1981              		.cfi_offset 5, -8
 1982              		.cfi_offset 14, -4
 1983              		.loc 1 473 3 view .LVU605
 1984 0002 0025     		movs	r5, #0
 1985 0004 01A9     		add	r1, sp, #4
 1986              	.LVL166:
 469:Model/stai_hand_landmark.c ****   LL_ATON_LIB_UNUSED(states);
 1987              		.loc 1 469 1 view .LVU606
 1988 0006 0446     		mov	r4, r0
 1989              		.loc 1 473 3 view .LVU607
 1990 0008 0195     		str	r5, [sp, #4]
 1991              		.loc 1 473 3 is_stmt 1 view .LVU608
 1992 000a FFF7FEFF 		bl	__ll_aton_stai_check_context_network_handle.constprop.0
 1993              	.LVL167:
 1994              		.loc 1 473 3 discriminator 1 view .LVU609
 1995 000e B0F5003F 		cmp	r0, #131072
 1996 0012 0DD2     		bcs	.L238
 1997              		.loc 1 473 54 discriminator 2 view .LVU610
 474:Model/stai_hand_landmark.c ****   __LL_ATON_STAI_CHECK_NETWORK_INTERFACE(nn_i_ptr, (_stai_aton_context *)network);
 1998              		.loc 1 474 3 view .LVU611
 1999              		.loc 1 474 3 view .LVU612
 2000 0014 094B     		ldr	r3, .L245
 2001 0016 0199     		ldr	r1, [sp, #4]
 2002 0018 9942     		cmp	r1, r3
 2003 001a 0BD0     		beq	.L240
 2004              		.loc 1 474 3 discriminator 1 view .LVU613
 2005              		.loc 1 474 3 discriminator 1 view .LVU614
 2006 001c 34B1     		cbz	r4, .L241
 2007              		.loc 1 474 3 discriminator 4 view .LVU615
 2008 001e E36B     		ldr	r3, [r4, #60]
 2009 0020 B3F5003F 		cmp	r3, #131072
 2010              		.loc 1 474 3 discriminator 5 view .LVU616
 2011 0024 3CBF     		itt	cc
 2012 0026 4FF44033 		movcc	r3, #196608
 2013 002a E363     		strcc	r3, [r4, #60]
 2014              	.L241:
ARM GAS  C:\Users\DJESSOU\AppData\Local\Temp\ccfF5lhd.s 			page 64


 2015              		.loc 1 474 3 is_stmt 0 discriminator 3 view .LVU617
 2016 002c 4FF44030 		mov	r0, #196608
 2017              	.LVL168:
 2018              	.L238:
 475:Model/stai_hand_landmark.c **** 
 476:Model/stai_hand_landmark.c ****   *n_states = 0;
 477:Model/stai_hand_landmark.c ****   return STAI_SUCCESS;
 478:Model/stai_hand_landmark.c **** }
 2019              		.loc 1 478 1 view .LVU618
 2020 0030 03B0     		add	sp, sp, #12
 2021              		.cfi_remember_state
 2022              		.cfi_def_cfa_offset 12
 2023              		@ sp needed
 2024 0032 30BD     		pop	{r4, r5, pc}
 2025              	.LVL169:
 2026              	.L240:
 2027              		.cfi_restore_state
 474:Model/stai_hand_landmark.c ****   __LL_ATON_STAI_CHECK_NETWORK_INTERFACE(nn_i_ptr, (_stai_aton_context *)network);
 2028              		.loc 1 474 3 is_stmt 1 discriminator 2 view .LVU619
 474:Model/stai_hand_landmark.c ****   __LL_ATON_STAI_CHECK_NETWORK_INTERFACE(nn_i_ptr, (_stai_aton_context *)network);
 2029              		.loc 1 474 3 discriminator 2 view .LVU620
 476:Model/stai_hand_landmark.c ****   return STAI_SUCCESS;
 2030              		.loc 1 476 3 view .LVU621
 477:Model/stai_hand_landmark.c **** }
 2031              		.loc 1 477 10 is_stmt 0 view .LVU622
 2032 0034 2846     		mov	r0, r5
 2033              	.LVL170:
 476:Model/stai_hand_landmark.c ****   return STAI_SUCCESS;
 2034              		.loc 1 476 13 view .LVU623
 2035 0036 1560     		str	r5, [r2]
 477:Model/stai_hand_landmark.c **** }
 2036              		.loc 1 477 3 is_stmt 1 view .LVU624
 477:Model/stai_hand_landmark.c **** }
 2037              		.loc 1 477 10 is_stmt 0 view .LVU625
 2038 0038 FAE7     		b	.L238
 2039              	.L246:
 2040 003a 00BF     		.align	2
 2041              	.L245:
 2042 003c 00000000 		.word	NN_Interface_hand_landmark
 2043              		.cfi_endproc
 2044              	.LFE316:
 2046              		.section	.text.stai_hand_landmark_get_error,"ax",%progbits
 2047              		.align	1
 2048              		.global	stai_hand_landmark_get_error
 2049              		.syntax unified
 2050              		.thumb
 2051              		.thumb_func
 2053              	stai_hand_landmark_get_error:
 2054              	.LVL171:
 2055              	.LFB317:
 479:Model/stai_hand_landmark.c **** 
 480:Model/stai_hand_landmark.c **** STAI_API_ENTRY
 481:Model/stai_hand_landmark.c **** stai_return_code stai_hand_landmark_get_error(stai_network *network)
 482:Model/stai_hand_landmark.c **** {
 2056              		.loc 1 482 1 is_stmt 1 view -0
 2057              		.cfi_startproc
 2058              		@ args = 0, pretend = 0, frame = 8
ARM GAS  C:\Users\DJESSOU\AppData\Local\Temp\ccfF5lhd.s 			page 65


 2059              		@ frame_needed = 0, uses_anonymous_args = 0
 483:Model/stai_hand_landmark.c ****   __LL_ATON_STAI_ACQUIRE_INTERFACE(nn_i_ptr, network);
 2060              		.loc 1 483 3 view .LVU627
 2061 0000 0023     		movs	r3, #0
 482:Model/stai_hand_landmark.c ****   __LL_ATON_STAI_ACQUIRE_INTERFACE(nn_i_ptr, network);
 2062              		.loc 1 482 1 is_stmt 0 view .LVU628
 2063 0002 07B5     		push	{r0, r1, r2, lr}
 2064              		.cfi_def_cfa_offset 16
 2065              		.cfi_offset 14, -4
 2066              		.loc 1 483 3 view .LVU629
 2067 0004 01A9     		add	r1, sp, #4
 482:Model/stai_hand_landmark.c ****   __LL_ATON_STAI_ACQUIRE_INTERFACE(nn_i_ptr, network);
 2068              		.loc 1 482 1 view .LVU630
 2069 0006 0246     		mov	r2, r0
 2070              		.loc 1 483 3 view .LVU631
 2071 0008 0193     		str	r3, [sp, #4]
 2072              		.loc 1 483 3 is_stmt 1 view .LVU632
 2073 000a FFF7FEFF 		bl	__ll_aton_stai_check_context_network_handle.constprop.0
 2074              	.LVL172:
 2075              		.loc 1 483 3 discriminator 1 view .LVU633
 2076 000e B0F5003F 		cmp	r0, #131072
 2077 0012 0DD2     		bcs	.L247
 2078              		.loc 1 483 54 discriminator 2 view .LVU634
 484:Model/stai_hand_landmark.c ****   __LL_ATON_STAI_CHECK_NETWORK_INTERFACE(nn_i_ptr, (_stai_aton_context *)network);
 2079              		.loc 1 484 3 view .LVU635
 2080              		.loc 1 484 3 view .LVU636
 2081 0014 094B     		ldr	r3, .L254
 2082 0016 0199     		ldr	r1, [sp, #4]
 2083 0018 9942     		cmp	r1, r3
 2084 001a 0CD0     		beq	.L249
 2085              		.loc 1 484 3 discriminator 1 view .LVU637
 2086              		.loc 1 484 3 discriminator 1 view .LVU638
 2087 001c 32B1     		cbz	r2, .L250
 2088              		.loc 1 484 3 discriminator 4 view .LVU639
 2089 001e D36B     		ldr	r3, [r2, #60]
 2090 0020 B3F5003F 		cmp	r3, #131072
 2091              		.loc 1 484 3 discriminator 5 view .LVU640
 2092 0024 3CBF     		itt	cc
 2093 0026 4FF44033 		movcc	r3, #196608
 2094 002a D363     		strcc	r3, [r2, #60]
 2095              	.L250:
 2096              		.loc 1 484 3 is_stmt 0 discriminator 3 view .LVU641
 2097 002c 4FF44030 		mov	r0, #196608
 2098              	.LVL173:
 2099              	.L247:
 485:Model/stai_hand_landmark.c ****   _stai_aton_context *ctx = (_stai_aton_context *)network;
 486:Model/stai_hand_landmark.c **** 
 487:Model/stai_hand_landmark.c ****   // return 1st generated error or STAI_SUCCESS if no errors so far
 488:Model/stai_hand_landmark.c ****   return ctx->first_error;
 489:Model/stai_hand_landmark.c **** }
 2100              		.loc 1 489 1 view .LVU642
 2101 0030 03B0     		add	sp, sp, #12
 2102              		.cfi_remember_state
 2103              		.cfi_def_cfa_offset 4
 2104              		@ sp needed
 2105 0032 5DF804FB 		ldr	pc, [sp], #4
 2106              	.LVL174:
ARM GAS  C:\Users\DJESSOU\AppData\Local\Temp\ccfF5lhd.s 			page 66


 2107              	.L249:
 2108              		.cfi_restore_state
 484:Model/stai_hand_landmark.c ****   __LL_ATON_STAI_CHECK_NETWORK_INTERFACE(nn_i_ptr, (_stai_aton_context *)network);
 2109              		.loc 1 484 3 is_stmt 1 discriminator 2 view .LVU643
 484:Model/stai_hand_landmark.c ****   __LL_ATON_STAI_CHECK_NETWORK_INTERFACE(nn_i_ptr, (_stai_aton_context *)network);
 2110              		.loc 1 484 3 discriminator 2 view .LVU644
 485:Model/stai_hand_landmark.c ****   _stai_aton_context *ctx = (_stai_aton_context *)network;
 2111              		.loc 1 485 3 view .LVU645
 488:Model/stai_hand_landmark.c **** }
 2112              		.loc 1 488 3 view .LVU646
 488:Model/stai_hand_landmark.c **** }
 2113              		.loc 1 488 13 is_stmt 0 view .LVU647
 2114 0036 D06B     		ldr	r0, [r2, #60]
 2115              	.LVL175:
 488:Model/stai_hand_landmark.c **** }
 2116              		.loc 1 488 13 view .LVU648
 2117 0038 FAE7     		b	.L247
 2118              	.L255:
 2119 003a 00BF     		.align	2
 2120              	.L254:
 2121 003c 00000000 		.word	NN_Interface_hand_landmark
 2122              		.cfi_endproc
 2123              	.LFE317:
 2125              		.section	.text.stai_hand_landmark_set_inputs,"ax",%progbits
 2126              		.align	1
 2127              		.global	stai_hand_landmark_set_inputs
 2128              		.syntax unified
 2129              		.thumb
 2130              		.thumb_func
 2132              	stai_hand_landmark_set_inputs:
 2133              	.LVL176:
 2134              	.LFB318:
 490:Model/stai_hand_landmark.c **** 
 491:Model/stai_hand_landmark.c **** /*****************************************************************************/
 492:Model/stai_hand_landmark.c **** /*  Setters APIs  */
 493:Model/stai_hand_landmark.c **** STAI_API_ENTRY
 494:Model/stai_hand_landmark.c **** stai_return_code stai_hand_landmark_set_inputs(stai_network *network, const stai_ptr *inputs,
 495:Model/stai_hand_landmark.c ****                                                        const stai_size n_inputs)
 496:Model/stai_hand_landmark.c **** {
 2135              		.loc 1 496 1 is_stmt 1 view -0
 2136              		.cfi_startproc
 2137              		@ args = 0, pretend = 0, frame = 0
 2138              		@ frame_needed = 0, uses_anonymous_args = 0
 2139              		@ link register save eliminated.
 497:Model/stai_hand_landmark.c ****   return __ll_aton_stai_hand_landmark_set_inputs_or_weights(network, inputs, n_inputs, true);
 2140              		.loc 1 497 3 view .LVU650
 2141              		.loc 1 497 10 is_stmt 0 view .LVU651
 2142 0000 0123     		movs	r3, #1
 2143 0002 FFF7FEBF 		b	__ll_aton_stai_hand_landmark_set_inputs_or_weights
 2144              	.LVL177:
 2145              		.loc 1 497 10 view .LVU652
 2146              		.cfi_endproc
 2147              	.LFE318:
 2149              		.section	.text.stai_hand_landmark_set_weights,"ax",%progbits
 2150              		.align	1
 2151              		.global	stai_hand_landmark_set_weights
 2152              		.syntax unified
ARM GAS  C:\Users\DJESSOU\AppData\Local\Temp\ccfF5lhd.s 			page 67


 2153              		.thumb
 2154              		.thumb_func
 2156              	stai_hand_landmark_set_weights:
 2157              	.LVL178:
 2158              	.LFB319:
 498:Model/stai_hand_landmark.c **** }
 499:Model/stai_hand_landmark.c **** 
 500:Model/stai_hand_landmark.c **** STAI_API_ENTRY
 501:Model/stai_hand_landmark.c **** stai_return_code stai_hand_landmark_set_weights(stai_network *network, const stai_ptr *weights,
 502:Model/stai_hand_landmark.c ****                                                         const stai_size n_weights)
 503:Model/stai_hand_landmark.c **** {
 2159              		.loc 1 503 1 is_stmt 1 view -0
 2160              		.cfi_startproc
 2161              		@ args = 0, pretend = 0, frame = 0
 2162              		@ frame_needed = 0, uses_anonymous_args = 0
 2163              		@ link register save eliminated.
 504:Model/stai_hand_landmark.c ****   return __ll_aton_stai_hand_landmark_set_inputs_or_weights(network, weights, n_weights, false);
 2164              		.loc 1 504 3 view .LVU654
 2165              		.loc 1 504 10 is_stmt 0 view .LVU655
 2166 0000 0023     		movs	r3, #0
 2167 0002 FFF7FEBF 		b	__ll_aton_stai_hand_landmark_set_inputs_or_weights
 2168              	.LVL179:
 2169              		.loc 1 504 10 view .LVU656
 2170              		.cfi_endproc
 2171              	.LFE319:
 2173              		.section	.text.stai_hand_landmark_set_outputs,"ax",%progbits
 2174              		.align	1
 2175              		.global	stai_hand_landmark_set_outputs
 2176              		.syntax unified
 2177              		.thumb
 2178              		.thumb_func
 2180              	stai_hand_landmark_set_outputs:
 2181              	.LVL180:
 2182              	.LFB320:
 505:Model/stai_hand_landmark.c **** }
 506:Model/stai_hand_landmark.c **** 
 507:Model/stai_hand_landmark.c **** STAI_API_ENTRY
 508:Model/stai_hand_landmark.c **** stai_return_code stai_hand_landmark_set_outputs(stai_network *network, const stai_ptr *outputs,
 509:Model/stai_hand_landmark.c ****                                                         const stai_size n_outputs)
 510:Model/stai_hand_landmark.c **** {
 2183              		.loc 1 510 1 is_stmt 1 view -0
 2184              		.cfi_startproc
 2185              		@ args = 0, pretend = 0, frame = 0
 2186              		@ frame_needed = 0, uses_anonymous_args = 0
 2187              		@ link register save eliminated.
 511:Model/stai_hand_landmark.c ****   return __ll_aton_stai_hand_landmark_set_outputs_or_activations(network, outputs, n_outputs, true)
 2188              		.loc 1 511 3 view .LVU658
 2189              		.loc 1 511 10 is_stmt 0 view .LVU659
 2190 0000 0123     		movs	r3, #1
 2191 0002 FFF7FEBF 		b	__ll_aton_stai_hand_landmark_set_outputs_or_activations
 2192              	.LVL181:
 2193              		.loc 1 511 10 view .LVU660
 2194              		.cfi_endproc
 2195              	.LFE320:
 2197              		.section	.text.stai_hand_landmark_set_activations,"ax",%progbits
 2198              		.align	1
 2199              		.global	stai_hand_landmark_set_activations
ARM GAS  C:\Users\DJESSOU\AppData\Local\Temp\ccfF5lhd.s 			page 68


 2200              		.syntax unified
 2201              		.thumb
 2202              		.thumb_func
 2204              	stai_hand_landmark_set_activations:
 2205              	.LVL182:
 2206              	.LFB321:
 512:Model/stai_hand_landmark.c **** }
 513:Model/stai_hand_landmark.c **** 
 514:Model/stai_hand_landmark.c **** STAI_API_ENTRY
 515:Model/stai_hand_landmark.c **** stai_return_code stai_hand_landmark_set_activations(stai_network *network, const stai_ptr *activati
 516:Model/stai_hand_landmark.c ****                                                             const stai_size n_activations)
 517:Model/stai_hand_landmark.c **** {
 2207              		.loc 1 517 1 is_stmt 1 view -0
 2208              		.cfi_startproc
 2209              		@ args = 0, pretend = 0, frame = 0
 2210              		@ frame_needed = 0, uses_anonymous_args = 0
 2211              		@ link register save eliminated.
 518:Model/stai_hand_landmark.c ****   return __ll_aton_stai_hand_landmark_set_outputs_or_activations(network, activations, n_activation
 2212              		.loc 1 518 3 view .LVU662
 2213              		.loc 1 518 10 is_stmt 0 view .LVU663
 2214 0000 0023     		movs	r3, #0
 2215 0002 FFF7FEBF 		b	__ll_aton_stai_hand_landmark_set_outputs_or_activations
 2216              	.LVL183:
 2217              		.loc 1 518 10 view .LVU664
 2218              		.cfi_endproc
 2219              	.LFE321:
 2221              		.section	.text.stai_hand_landmark_set_states,"ax",%progbits
 2222              		.align	1
 2223              		.global	stai_hand_landmark_set_states
 2224              		.syntax unified
 2225              		.thumb
 2226              		.thumb_func
 2228              	stai_hand_landmark_set_states:
 2229              	.LVL184:
 2230              	.LFB322:
 519:Model/stai_hand_landmark.c **** }
 520:Model/stai_hand_landmark.c **** 
 521:Model/stai_hand_landmark.c **** STAI_API_ENTRY
 522:Model/stai_hand_landmark.c **** stai_return_code stai_hand_landmark_set_states(stai_network *network, const stai_ptr *states,
 523:Model/stai_hand_landmark.c ****                                                        const stai_size n_states)
 524:Model/stai_hand_landmark.c **** {
 2231              		.loc 1 524 1 is_stmt 1 view -0
 2232              		.cfi_startproc
 2233              		@ args = 0, pretend = 0, frame = 8
 2234              		@ frame_needed = 0, uses_anonymous_args = 0
 525:Model/stai_hand_landmark.c ****   LL_ATON_LIB_UNUSED(states);
 2235              		.loc 1 525 3 view .LVU666
 526:Model/stai_hand_landmark.c **** 
 527:Model/stai_hand_landmark.c ****   /* check context & network interface handle */
 528:Model/stai_hand_landmark.c ****   __LL_ATON_STAI_ACQUIRE_INTERFACE(nn_i_ptr, network);
 2236              		.loc 1 528 3 view .LVU667
 2237 0000 0023     		movs	r3, #0
 524:Model/stai_hand_landmark.c ****   LL_ATON_LIB_UNUSED(states);
 2238              		.loc 1 524 1 is_stmt 0 view .LVU668
 2239 0002 13B5     		push	{r0, r1, r4, lr}
 2240              		.cfi_def_cfa_offset 16
 2241              		.cfi_offset 4, -8
ARM GAS  C:\Users\DJESSOU\AppData\Local\Temp\ccfF5lhd.s 			page 69


 2242              		.cfi_offset 14, -4
 2243              		.loc 1 528 3 view .LVU669
 2244 0004 01A9     		add	r1, sp, #4
 2245              	.LVL185:
 524:Model/stai_hand_landmark.c ****   LL_ATON_LIB_UNUSED(states);
 2246              		.loc 1 524 1 view .LVU670
 2247 0006 0446     		mov	r4, r0
 2248              		.loc 1 528 3 view .LVU671
 2249 0008 0193     		str	r3, [sp, #4]
 2250              		.loc 1 528 3 is_stmt 1 view .LVU672
 2251 000a FFF7FEFF 		bl	__ll_aton_stai_check_context_network_handle.constprop.0
 2252              	.LVL186:
 2253              		.loc 1 528 3 discriminator 1 view .LVU673
 2254 000e B0F5003F 		cmp	r0, #131072
 2255 0012 0DD2     		bcs	.L260
 2256              		.loc 1 528 54 discriminator 2 view .LVU674
 529:Model/stai_hand_landmark.c ****   __LL_ATON_STAI_CHECK_NETWORK_INTERFACE(nn_i_ptr, (_stai_aton_context *)network);
 2257              		.loc 1 529 3 view .LVU675
 2258              		.loc 1 529 3 view .LVU676
 2259 0014 0E4B     		ldr	r3, .L272
 2260 0016 0199     		ldr	r1, [sp, #4]
 2261 0018 9942     		cmp	r1, r3
 2262 001a 0BD0     		beq	.L262
 2263              		.loc 1 529 3 discriminator 1 view .LVU677
 2264              		.loc 1 529 3 discriminator 1 view .LVU678
 2265 001c 34B1     		cbz	r4, .L263
 2266              		.loc 1 529 3 discriminator 4 view .LVU679
 2267 001e E36B     		ldr	r3, [r4, #60]
 2268 0020 B3F5003F 		cmp	r3, #131072
 2269              		.loc 1 529 3 discriminator 5 view .LVU680
 2270 0024 3CBF     		itt	cc
 2271 0026 4FF44033 		movcc	r3, #196608
 2272 002a E363     		strcc	r3, [r4, #60]
 2273              	.LVL187:
 2274              	.L263:
 2275              		.loc 1 529 3 is_stmt 0 discriminator 3 view .LVU681
 2276 002c 4FF44030 		mov	r0, #196608
 2277              	.L260:
 530:Model/stai_hand_landmark.c **** 
 531:Model/stai_hand_landmark.c ****   if (n_states != 0)
 532:Model/stai_hand_landmark.c ****     __LL_ATON_STAI_SET_1ST_CTX_ERROR_AND_RETURN((_stai_aton_context *)network, STAI_ERROR_NETWORK_I
 533:Model/stai_hand_landmark.c ****   else
 534:Model/stai_hand_landmark.c ****     return STAI_SUCCESS;
 535:Model/stai_hand_landmark.c **** }
 2278              		.loc 1 535 1 view .LVU682
 2279 0030 02B0     		add	sp, sp, #8
 2280              		.cfi_remember_state
 2281              		.cfi_def_cfa_offset 8
 2282              		@ sp needed
 2283 0032 10BD     		pop	{r4, pc}
 2284              	.LVL188:
 2285              	.L262:
 2286              		.cfi_restore_state
 529:Model/stai_hand_landmark.c ****   __LL_ATON_STAI_CHECK_NETWORK_INTERFACE(nn_i_ptr, (_stai_aton_context *)network);
 2287              		.loc 1 529 3 is_stmt 1 discriminator 2 view .LVU683
 529:Model/stai_hand_landmark.c ****   __LL_ATON_STAI_CHECK_NETWORK_INTERFACE(nn_i_ptr, (_stai_aton_context *)network);
 2288              		.loc 1 529 3 discriminator 2 view .LVU684
ARM GAS  C:\Users\DJESSOU\AppData\Local\Temp\ccfF5lhd.s 			page 70


 531:Model/stai_hand_landmark.c ****     __LL_ATON_STAI_SET_1ST_CTX_ERROR_AND_RETURN((_stai_aton_context *)network, STAI_ERROR_NETWORK_I
 2289              		.loc 1 531 3 view .LVU685
 534:Model/stai_hand_landmark.c **** }
 2290              		.loc 1 534 12 is_stmt 0 view .LVU686
 2291 0034 1046     		mov	r0, r2
 2292              	.LVL189:
 531:Model/stai_hand_landmark.c ****     __LL_ATON_STAI_SET_1ST_CTX_ERROR_AND_RETURN((_stai_aton_context *)network, STAI_ERROR_NETWORK_I
 2293              		.loc 1 531 6 view .LVU687
 2294 0036 002A     		cmp	r2, #0
 2295 0038 FAD0     		beq	.L260
 2296              	.LVL190:
 532:Model/stai_hand_landmark.c ****   else
 2297              		.loc 1 532 5 is_stmt 1 view .LVU688
 532:Model/stai_hand_landmark.c ****   else
 2298              		.loc 1 532 5 view .LVU689
 2299 003a 002C     		cmp	r4, #0
 2300 003c F6D0     		beq	.L263
 532:Model/stai_hand_landmark.c ****   else
 2301              		.loc 1 532 5 discriminator 2 view .LVU690
 2302 003e E36B     		ldr	r3, [r4, #60]
 532:Model/stai_hand_landmark.c ****   else
 2303              		.loc 1 532 5 is_stmt 0 discriminator 5 view .LVU691
 2304 0040 0448     		ldr	r0, .L272+4
 2305              	.LVL191:
 532:Model/stai_hand_landmark.c ****   else
 2306              		.loc 1 532 5 discriminator 2 view .LVU692
 2307 0042 B3F5003F 		cmp	r3, #131072
 532:Model/stai_hand_landmark.c ****   else
 2308              		.loc 1 532 5 is_stmt 1 discriminator 3 view .LVU693
 2309 0046 3CBF     		itt	cc
 2310 0048 024B     		ldrcc	r3, .L272+4
 2311 004a E363     		strcc	r3, [r4, #60]
 2312 004c F0E7     		b	.L260
 2313              	.L273:
 2314 004e 00BF     		.align	2
 2315              	.L272:
 2316 0050 00000000 		.word	NN_Interface_hand_landmark
 2317 0054 31000400 		.word	262193
 2318              		.cfi_endproc
 2319              	.LFE322:
 2321              		.section	.text.stai_hand_landmark_set_callback,"ax",%progbits
 2322              		.align	1
 2323              		.global	stai_hand_landmark_set_callback
 2324              		.syntax unified
 2325              		.thumb
 2326              		.thumb_func
 2328              	stai_hand_landmark_set_callback:
 2329              	.LVL192:
 2330              	.LFB323:
 536:Model/stai_hand_landmark.c **** 
 537:Model/stai_hand_landmark.c **** STAI_API_ENTRY
 538:Model/stai_hand_landmark.c **** stai_return_code stai_hand_landmark_set_callback(stai_network *network, const stai_event_cb cb, voi
 539:Model/stai_hand_landmark.c **** {
 2331              		.loc 1 539 1 view -0
 2332              		.cfi_startproc
 2333              		@ args = 0, pretend = 0, frame = 0
 2334              		@ frame_needed = 0, uses_anonymous_args = 0
ARM GAS  C:\Users\DJESSOU\AppData\Local\Temp\ccfF5lhd.s 			page 71


 540:Model/stai_hand_landmark.c ****   if (network == NULL)
 2335              		.loc 1 540 3 view .LVU695
 539:Model/stai_hand_landmark.c ****   if (network == NULL)
 2336              		.loc 1 539 1 is_stmt 0 view .LVU696
 2337 0000 10B5     		push	{r4, lr}
 2338              		.cfi_def_cfa_offset 8
 2339              		.cfi_offset 4, -8
 2340              		.cfi_offset 14, -4
 2341              		.loc 1 540 6 view .LVU697
 2342 0002 58B1     		cbz	r0, .L275
 541:Model/stai_hand_landmark.c ****   {
 542:Model/stai_hand_landmark.c ****     return STAI_ERROR_NETWORK_INVALID_CONTEXT_HANDLE;
 543:Model/stai_hand_landmark.c ****   }
 544:Model/stai_hand_landmark.c **** 
 545:Model/stai_hand_landmark.c ****   _stai_aton_context *nn_ctx = (_stai_aton_context *)network;
 2343              		.loc 1 545 3 is_stmt 1 view .LVU698
 2344              	.LVL193:
 546:Model/stai_hand_landmark.c **** 
 547:Model/stai_hand_landmark.c ****   if ((nn_ctx->network_instance.network != NULL) &&
 2345              		.loc 1 547 3 view .LVU699
 2346              		.loc 1 547 32 is_stmt 0 view .LVU700
 2347 0004 0368     		ldr	r3, [r0]
 2348              		.loc 1 547 6 view .LVU701
 2349 0006 63B1     		cbz	r3, .L276
 2350              		.loc 1 547 50 discriminator 1 view .LVU702
 2351 0008 0B4C     		ldr	r4, .L287
 2352 000a A342     		cmp	r3, r4
 2353 000c 09D0     		beq	.L276
 548:Model/stai_hand_landmark.c ****       (nn_ctx->network_instance.network != &NN_Interface_hand_landmark))
 549:Model/stai_hand_landmark.c ****   {
 550:Model/stai_hand_landmark.c ****     __LL_ATON_STAI_SET_1ST_CTX_ERROR_AND_RETURN(nn_ctx, STAI_ERROR_NETWORK_INVALID_CONTEXT_HANDLE);
 2354              		.loc 1 550 5 is_stmt 1 view .LVU703
 2355              		.loc 1 550 5 view .LVU704
 2356              		.loc 1 550 5 discriminator 2 view .LVU705
 2357 000e C36B     		ldr	r3, [r0, #60]
 2358 0010 B3F5003F 		cmp	r3, #131072
 2359              		.loc 1 550 5 discriminator 3 view .LVU706
 2360 0014 3CBF     		itt	cc
 2361 0016 4FF44033 		movcc	r3, #196608
 2362 001a C363     		strcc	r3, [r0, #60]
 2363              	.LVL194:
 2364              	.L275:
 542:Model/stai_hand_landmark.c ****   }
 2365              		.loc 1 542 12 is_stmt 0 view .LVU707
 2366 001c 4FF44030 		mov	r0, #196608
 2367              	.LVL195:
 2368              	.L274:
 551:Model/stai_hand_landmark.c ****   }
 552:Model/stai_hand_landmark.c **** 
 553:Model/stai_hand_landmark.c ****   nn_ctx->callback = cb;
 554:Model/stai_hand_landmark.c ****   nn_ctx->callback_cookie = cb_cookie;
 555:Model/stai_hand_landmark.c **** 
 556:Model/stai_hand_landmark.c ****   LL_ATON_RT_SetNetworkCallback(&nn_ctx->network_instance,
 557:Model/stai_hand_landmark.c ****                                 (cb != NULL) ? _stai_aton_internal_epoch_block_callback : NULL);
 558:Model/stai_hand_landmark.c **** 
 559:Model/stai_hand_landmark.c ****   return STAI_SUCCESS;
 560:Model/stai_hand_landmark.c **** }
ARM GAS  C:\Users\DJESSOU\AppData\Local\Temp\ccfF5lhd.s 			page 72


 2369              		.loc 1 560 1 view .LVU708
 2370 0020 10BD     		pop	{r4, pc}
 2371              	.LVL196:
 2372              	.L276:
 550:Model/stai_hand_landmark.c ****   }
 2373              		.loc 1 550 5 is_stmt 1 view .LVU709
 553:Model/stai_hand_landmark.c ****   nn_ctx->callback_cookie = cb_cookie;
 2374              		.loc 1 553 3 view .LVU710
 556:Model/stai_hand_landmark.c ****                                 (cb != NULL) ? _stai_aton_internal_epoch_block_callback : NULL);
 2375              		.loc 1 556 3 is_stmt 0 discriminator 4 view .LVU711
 2376 0022 064B     		ldr	r3, .L287+4
 556:Model/stai_hand_landmark.c ****                                 (cb != NULL) ? _stai_aton_internal_epoch_block_callback : NULL);
 2377              		.loc 1 556 3 discriminator 1 view .LVU712
 2378 0024 0029     		cmp	r1, #0
 554:Model/stai_hand_landmark.c **** 
 2379              		.loc 1 554 27 view .LVU713
 2380 0026 C0E90C12 		strd	r1, r2, [r0, #48]
 556:Model/stai_hand_landmark.c ****                                 (cb != NULL) ? _stai_aton_internal_epoch_block_callback : NULL);
 2381              		.loc 1 556 3 is_stmt 1 view .LVU714
 556:Model/stai_hand_landmark.c ****                                 (cb != NULL) ? _stai_aton_internal_epoch_block_callback : NULL);
 2382              		.loc 1 556 3 is_stmt 0 discriminator 4 view .LVU715
 2383 002a 18BF     		it	ne
 2384 002c 1946     		movne	r1, r3
 2385              	.LVL197:
 556:Model/stai_hand_landmark.c ****                                 (cb != NULL) ? _stai_aton_internal_epoch_block_callback : NULL);
 2386              		.loc 1 556 3 discriminator 4 view .LVU716
 2387 002e FFF7FEFF 		bl	LL_ATON_RT_SetNetworkCallback
 2388              	.LVL198:
 559:Model/stai_hand_landmark.c **** }
 2389              		.loc 1 559 3 is_stmt 1 view .LVU717
 559:Model/stai_hand_landmark.c **** }
 2390              		.loc 1 559 10 is_stmt 0 view .LVU718
 2391 0032 0020     		movs	r0, #0
 2392 0034 F4E7     		b	.L274
 2393              	.L288:
 2394 0036 00BF     		.align	2
 2395              	.L287:
 2396 0038 00000000 		.word	NN_Interface_hand_landmark
 2397 003c 00000000 		.word	_stai_aton_internal_epoch_block_callback
 2398              		.cfi_endproc
 2399              	.LFE323:
 2401              		.section	.text.stai_ext_hand_landmark_run_continue,"ax",%progbits
 2402              		.align	1
 2403              		.global	stai_ext_hand_landmark_run_continue
 2404              		.syntax unified
 2405              		.thumb
 2406              		.thumb_func
 2408              	stai_ext_hand_landmark_run_continue:
 2409              	.LVL199:
 2410              	.LFB324:
 561:Model/stai_hand_landmark.c **** 
 562:Model/stai_hand_landmark.c **** /***************************************************************************/
 563:Model/stai_hand_landmark.c **** /*  Extended ATON Target Specific APIs  */
 564:Model/stai_hand_landmark.c **** STAI_API_ENTRY
 565:Model/stai_hand_landmark.c **** stai_return_code stai_ext_hand_landmark_run_continue(stai_network *network)
 566:Model/stai_hand_landmark.c **** {
 2411              		.loc 1 566 1 is_stmt 1 view -0
ARM GAS  C:\Users\DJESSOU\AppData\Local\Temp\ccfF5lhd.s 			page 73


 2412              		.cfi_startproc
 2413              		@ args = 0, pretend = 0, frame = 8
 2414              		@ frame_needed = 0, uses_anonymous_args = 0
 567:Model/stai_hand_landmark.c ****   _stai_aton_context *nn_ctx = (_stai_aton_context *)network;
 2415              		.loc 1 567 3 view .LVU720
 568:Model/stai_hand_landmark.c ****   if (nn_ctx == NULL)
 2416              		.loc 1 568 3 view .LVU721
 566:Model/stai_hand_landmark.c ****   _stai_aton_context *nn_ctx = (_stai_aton_context *)network;
 2417              		.loc 1 566 1 is_stmt 0 view .LVU722
 2418 0000 13B5     		push	{r0, r1, r4, lr}
 2419              		.cfi_def_cfa_offset 16
 2420              		.cfi_offset 4, -8
 2421              		.cfi_offset 14, -4
 2422              		.loc 1 568 6 view .LVU723
 2423 0002 0446     		mov	r4, r0
 2424 0004 90B1     		cbz	r0, .L291
 569:Model/stai_hand_landmark.c ****   {
 570:Model/stai_hand_landmark.c ****     __LL_ATON_STAI_SET_1ST_CTX_ERROR_AND_RETURN((_stai_aton_context *)network,
 2425              		.loc 1 570 5 is_stmt 1 view .LVU724
 571:Model/stai_hand_landmark.c ****                                                 STAI_ERROR_NETWORK_INVALID_CONTEXT_HANDLE);
 572:Model/stai_hand_landmark.c ****   }
 573:Model/stai_hand_landmark.c **** 
 574:Model/stai_hand_landmark.c ****   __LL_ATON_STAI_ACQUIRE_INTERFACE(nn_i_ptr, network);
 2426              		.loc 1 574 3 view .LVU725
 2427 0006 0023     		movs	r3, #0
 2428 0008 01A9     		add	r1, sp, #4
 2429 000a 0193     		str	r3, [sp, #4]
 2430              		.loc 1 574 3 view .LVU726
 2431 000c FFF7FEFF 		bl	__ll_aton_stai_check_context_network_handle.constprop.0
 2432              	.LVL200:
 2433              		.loc 1 574 3 discriminator 1 view .LVU727
 2434 0010 B0F5003F 		cmp	r0, #131072
 2435 0014 0CD2     		bcs	.L289
 2436              		.loc 1 574 54 discriminator 2 view .LVU728
 575:Model/stai_hand_landmark.c ****   __LL_ATON_STAI_CHECK_NETWORK_INTERFACE(nn_i_ptr, nn_ctx);
 2437              		.loc 1 575 3 view .LVU729
 2438              		.loc 1 575 3 view .LVU730
 2439 0016 124B     		ldr	r3, .L297
 2440 0018 019A     		ldr	r2, [sp, #4]
 2441 001a 9A42     		cmp	r2, r3
 2442 001c 0AD0     		beq	.L293
 2443              		.loc 1 575 3 discriminator 1 view .LVU731
 2444              		.loc 1 575 3 discriminator 1 view .LVU732
 2445              		.loc 1 575 3 discriminator 4 view .LVU733
 2446 001e E36B     		ldr	r3, [r4, #60]
 2447 0020 B3F5003F 		cmp	r3, #131072
 2448              		.loc 1 575 3 discriminator 5 view .LVU734
 2449 0024 3CBF     		itt	cc
 2450 0026 4FF44033 		movcc	r3, #196608
 2451 002a E363     		strcc	r3, [r4, #60]
 2452              	.LVL201:
 2453              	.L291:
 570:Model/stai_hand_landmark.c ****                                                 STAI_ERROR_NETWORK_INVALID_CONTEXT_HANDLE);
 2454              		.loc 1 570 5 is_stmt 0 discriminator 1 view .LVU735
 2455 002c 4FF44030 		mov	r0, #196608
 2456              	.L289:
 576:Model/stai_hand_landmark.c **** 
ARM GAS  C:\Users\DJESSOU\AppData\Local\Temp\ccfF5lhd.s 			page 74


 577:Model/stai_hand_landmark.c ****   if (nn_ctx->network_instance.exec_state.current_epoch_block == NULL)
 578:Model/stai_hand_landmark.c ****   {
 579:Model/stai_hand_landmark.c ****     __LL_ATON_STAI_SET_1ST_CTX_ERROR_AND_RETURN(nn_ctx, STAI_ERROR_NETWORK_INVALID_API_ARGUMENTS);
 580:Model/stai_hand_landmark.c ****   }
 581:Model/stai_hand_landmark.c **** 
 582:Model/stai_hand_landmark.c ****   __LL_ATON_START_CONT_EXEC(&nn_ctx->network_instance);
 583:Model/stai_hand_landmark.c **** }
 2457              		.loc 1 583 1 view .LVU736
 2458 0030 02B0     		add	sp, sp, #8
 2459              		.cfi_remember_state
 2460              		.cfi_def_cfa_offset 8
 2461              		@ sp needed
 2462 0032 10BD     		pop	{r4, pc}
 2463              	.LVL202:
 2464              	.L293:
 2465              		.cfi_restore_state
 575:Model/stai_hand_landmark.c **** 
 2466              		.loc 1 575 3 is_stmt 1 discriminator 2 view .LVU737
 575:Model/stai_hand_landmark.c **** 
 2467              		.loc 1 575 3 discriminator 2 view .LVU738
 577:Model/stai_hand_landmark.c ****   {
 2468              		.loc 1 577 3 view .LVU739
 577:Model/stai_hand_landmark.c ****   {
 2469              		.loc 1 577 42 is_stmt 0 view .LVU740
 2470 0034 6368     		ldr	r3, [r4, #4]
 577:Model/stai_hand_landmark.c ****   {
 2471              		.loc 1 577 6 view .LVU741
 2472 0036 3BB9     		cbnz	r3, .L295
 579:Model/stai_hand_landmark.c ****   }
 2473              		.loc 1 579 5 is_stmt 1 view .LVU742
 579:Model/stai_hand_landmark.c ****   }
 2474              		.loc 1 579 5 view .LVU743
 579:Model/stai_hand_landmark.c ****   }
 2475              		.loc 1 579 5 discriminator 2 view .LVU744
 2476 0038 E36B     		ldr	r3, [r4, #60]
 579:Model/stai_hand_landmark.c ****   }
 2477              		.loc 1 579 5 is_stmt 0 discriminator 5 view .LVU745
 2478 003a 0A48     		ldr	r0, .L297+4
 2479              	.LVL203:
 579:Model/stai_hand_landmark.c ****   }
 2480              		.loc 1 579 5 discriminator 2 view .LVU746
 2481 003c B3F5003F 		cmp	r3, #131072
 579:Model/stai_hand_landmark.c ****   }
 2482              		.loc 1 579 5 is_stmt 1 discriminator 3 view .LVU747
 2483 0040 3CBF     		itt	cc
 2484 0042 084B     		ldrcc	r3, .L297+4
 2485 0044 E363     		strcc	r3, [r4, #60]
 2486 0046 F3E7     		b	.L289
 2487              	.LVL204:
 2488              	.L295:
 579:Model/stai_hand_landmark.c ****   }
 2489              		.loc 1 579 5 view .LVU748
 582:Model/stai_hand_landmark.c **** }
 2490              		.loc 1 582 3 view .LVU749
 2491              	.LBB68:
 582:Model/stai_hand_landmark.c **** }
 2492              		.loc 1 582 3 view .LVU750
ARM GAS  C:\Users\DJESSOU\AppData\Local\Temp\ccfF5lhd.s 			page 75


 582:Model/stai_hand_landmark.c **** }
 2493              		.loc 1 582 3 view .LVU751
 582:Model/stai_hand_landmark.c **** }
 2494              		.loc 1 582 3 view .LVU752
 582:Model/stai_hand_landmark.c **** }
 2495              		.loc 1 582 3 view .LVU753
 582:Model/stai_hand_landmark.c **** }
 2496              		.loc 1 582 3 view .LVU754
 582:Model/stai_hand_landmark.c **** }
 2497              		.loc 1 582 3 view .LVU755
 2498 0048 2046     		mov	r0, r4
 2499              	.LVL205:
 582:Model/stai_hand_landmark.c **** }
 2500              		.loc 1 582 3 is_stmt 0 view .LVU756
 2501 004a FFF7FEFF 		bl	LL_ATON_RT_RunEpochBlock
 2502              	.LVL206:
 582:Model/stai_hand_landmark.c **** }
 2503              		.loc 1 582 3 discriminator 1 view .LVU757
 2504 004e 2146     		mov	r1, r4
 2505 0050 FFF7FEFF 		bl	__ll_aton_stai_set_execution_status
 2506              	.LVL207:
 582:Model/stai_hand_landmark.c **** }
 2507              		.loc 1 582 3 is_stmt 1 discriminator 2 view .LVU758
 2508 0054 2046     		mov	r0, r4
 2509              	.LBE68:
 2510              		.loc 1 583 1 is_stmt 0 view .LVU759
 2511 0056 02B0     		add	sp, sp, #8
 2512              		.cfi_def_cfa_offset 8
 2513              		@ sp needed
 2514 0058 BDE81040 		pop	{r4, lr}
 2515              		.cfi_restore 14
 2516              		.cfi_restore 4
 2517              		.cfi_def_cfa_offset 0
 2518              	.LVL208:
 2519              	.LBB69:
 582:Model/stai_hand_landmark.c **** }
 2520              		.loc 1 582 3 discriminator 2 view .LVU760
 2521 005c FFF7FEBF 		b	__ll_aton_stai_get_execution_status
 2522              	.LVL209:
 2523              	.L298:
 582:Model/stai_hand_landmark.c **** }
 2524              		.loc 1 582 3 discriminator 2 view .LVU761
 2525              		.align	2
 2526              	.L297:
 2527 0060 00000000 		.word	NN_Interface_hand_landmark
 2528 0064 01000200 		.word	131073
 2529              	.LBE69:
 2530              		.cfi_endproc
 2531              	.LFE324:
 2533              		.section	.text.stai_ext_hand_landmark_get_nn_run_status,"ax",%progbits
 2534              		.align	1
 2535              		.global	stai_ext_hand_landmark_get_nn_run_status
 2536              		.syntax unified
 2537              		.thumb
 2538              		.thumb_func
 2540              	stai_ext_hand_landmark_get_nn_run_status:
 2541              	.LVL210:
ARM GAS  C:\Users\DJESSOU\AppData\Local\Temp\ccfF5lhd.s 			page 76


 2542              	.LFB325:
 584:Model/stai_hand_landmark.c **** 
 585:Model/stai_hand_landmark.c **** STAI_API_ENTRY
 586:Model/stai_hand_landmark.c **** stai_return_code stai_ext_hand_landmark_get_nn_run_status(stai_network *network)
 587:Model/stai_hand_landmark.c **** {
 2543              		.loc 1 587 1 is_stmt 1 view -0
 2544              		.cfi_startproc
 2545              		@ args = 0, pretend = 0, frame = 8
 2546              		@ frame_needed = 0, uses_anonymous_args = 0
 588:Model/stai_hand_landmark.c ****   /* check context & network interface handle */
 589:Model/stai_hand_landmark.c ****   __LL_ATON_STAI_ACQUIRE_INTERFACE(nn_i_ptr, network);
 2547              		.loc 1 589 3 view .LVU763
 2548 0000 0023     		movs	r3, #0
 587:Model/stai_hand_landmark.c ****   /* check context & network interface handle */
 2549              		.loc 1 587 1 is_stmt 0 view .LVU764
 2550 0002 07B5     		push	{r0, r1, r2, lr}
 2551              		.cfi_def_cfa_offset 16
 2552              		.cfi_offset 14, -4
 2553              		.loc 1 589 3 view .LVU765
 2554 0004 01A9     		add	r1, sp, #4
 587:Model/stai_hand_landmark.c ****   /* check context & network interface handle */
 2555              		.loc 1 587 1 view .LVU766
 2556 0006 0246     		mov	r2, r0
 2557              		.loc 1 589 3 view .LVU767
 2558 0008 0193     		str	r3, [sp, #4]
 2559              		.loc 1 589 3 is_stmt 1 view .LVU768
 2560 000a FFF7FEFF 		bl	__ll_aton_stai_check_context_network_handle.constprop.0
 2561              	.LVL211:
 2562              		.loc 1 589 3 discriminator 1 view .LVU769
 2563 000e B0F5003F 		cmp	r0, #131072
 2564 0012 0DD2     		bcs	.L299
 2565              		.loc 1 589 54 discriminator 2 view .LVU770
 590:Model/stai_hand_landmark.c ****   __LL_ATON_STAI_CHECK_NETWORK_INTERFACE(nn_i_ptr, (_stai_aton_context *)network);
 2566              		.loc 1 590 3 view .LVU771
 2567              		.loc 1 590 3 view .LVU772
 2568 0014 0B4B     		ldr	r3, .L306
 2569 0016 0199     		ldr	r1, [sp, #4]
 2570 0018 9942     		cmp	r1, r3
 2571 001a 0CD0     		beq	.L301
 2572              		.loc 1 590 3 discriminator 1 view .LVU773
 2573              		.loc 1 590 3 discriminator 1 view .LVU774
 2574 001c 32B1     		cbz	r2, .L302
 2575              		.loc 1 590 3 discriminator 4 view .LVU775
 2576 001e D36B     		ldr	r3, [r2, #60]
 2577 0020 B3F5003F 		cmp	r3, #131072
 2578              		.loc 1 590 3 discriminator 5 view .LVU776
 2579 0024 3CBF     		itt	cc
 2580 0026 4FF44033 		movcc	r3, #196608
 2581 002a D363     		strcc	r3, [r2, #60]
 2582              	.L302:
 2583              		.loc 1 590 3 is_stmt 0 discriminator 3 view .LVU777
 2584 002c 4FF44030 		mov	r0, #196608
 2585              	.LVL212:
 2586              	.L299:
 591:Model/stai_hand_landmark.c **** 
 592:Model/stai_hand_landmark.c ****   /* get current execution status */
 593:Model/stai_hand_landmark.c ****   STAI_ASSERT(network != NULL);
ARM GAS  C:\Users\DJESSOU\AppData\Local\Temp\ccfF5lhd.s 			page 77


 594:Model/stai_hand_landmark.c ****   _stai_aton_context *stai_nn_ctx =
 595:Model/stai_hand_landmark.c ****       (_stai_aton_context *)((void *)network) - offsetof(_stai_aton_context, network_instance);
 596:Model/stai_hand_landmark.c ****   stai_return_code current_exec_status = __ll_aton_stai_get_execution_status(stai_nn_ctx);
 597:Model/stai_hand_landmark.c **** 
 598:Model/stai_hand_landmark.c ****   return current_exec_status;
 599:Model/stai_hand_landmark.c **** }
 2587              		.loc 1 599 1 view .LVU778
 2588 0030 03B0     		add	sp, sp, #12
 2589              		.cfi_remember_state
 2590              		.cfi_def_cfa_offset 4
 2591              		@ sp needed
 2592 0032 5DF804FB 		ldr	pc, [sp], #4
 2593              	.LVL213:
 2594              	.L301:
 2595              		.cfi_restore_state
 590:Model/stai_hand_landmark.c ****   __LL_ATON_STAI_CHECK_NETWORK_INTERFACE(nn_i_ptr, (_stai_aton_context *)network);
 2596              		.loc 1 590 3 is_stmt 1 discriminator 2 view .LVU779
 590:Model/stai_hand_landmark.c ****   __LL_ATON_STAI_CHECK_NETWORK_INTERFACE(nn_i_ptr, (_stai_aton_context *)network);
 2597              		.loc 1 590 3 discriminator 2 view .LVU780
 593:Model/stai_hand_landmark.c ****   _stai_aton_context *stai_nn_ctx =
 2598              		.loc 1 593 3 view .LVU781
 593:Model/stai_hand_landmark.c ****   _stai_aton_context *stai_nn_ctx =
 2599              		.loc 1 593 3 view .LVU782
 593:Model/stai_hand_landmark.c ****   _stai_aton_context *stai_nn_ctx =
 2600              		.loc 1 593 3 view .LVU783
 593:Model/stai_hand_landmark.c ****   _stai_aton_context *stai_nn_ctx =
 2601              		.loc 1 593 31 view .LVU784
 594:Model/stai_hand_landmark.c ****       (_stai_aton_context *)((void *)network) - offsetof(_stai_aton_context, network_instance);
 2602              		.loc 1 594 3 view .LVU785
 596:Model/stai_hand_landmark.c **** 
 2603              		.loc 1 596 3 view .LVU786
 596:Model/stai_hand_landmark.c **** 
 2604              		.loc 1 596 42 is_stmt 0 view .LVU787
 2605 0036 1046     		mov	r0, r2
 2606              	.LVL214:
 2607              		.loc 1 599 1 view .LVU788
 2608 0038 03B0     		add	sp, sp, #12
 2609              		.cfi_def_cfa_offset 4
 2610              		@ sp needed
 2611 003a 5DF804EB 		ldr	lr, [sp], #4
 2612              		.cfi_restore 14
 2613              		.cfi_def_cfa_offset 0
 596:Model/stai_hand_landmark.c **** 
 2614              		.loc 1 596 42 view .LVU789
 2615 003e FFF7FEBF 		b	__ll_aton_stai_get_execution_status
 2616              	.LVL215:
 2617              	.L307:
 596:Model/stai_hand_landmark.c **** 
 2618              		.loc 1 596 42 view .LVU790
 2619 0042 00BF     		.align	2
 2620              	.L306:
 2621 0044 00000000 		.word	NN_Interface_hand_landmark
 2622              		.cfi_endproc
 2623              	.LFE325:
 2625              		.section	.text.stai_ext_hand_landmark_new_inference,"ax",%progbits
 2626              		.align	1
 2627              		.global	stai_ext_hand_landmark_new_inference
ARM GAS  C:\Users\DJESSOU\AppData\Local\Temp\ccfF5lhd.s 			page 78


 2628              		.syntax unified
 2629              		.thumb
 2630              		.thumb_func
 2632              	stai_ext_hand_landmark_new_inference:
 2633              	.LVL216:
 2634              	.LFB326:
 600:Model/stai_hand_landmark.c **** 
 601:Model/stai_hand_landmark.c **** STAI_API_ENTRY
 602:Model/stai_hand_landmark.c **** stai_return_code stai_ext_hand_landmark_new_inference(stai_network *network)
 603:Model/stai_hand_landmark.c **** {
 2635              		.loc 1 603 1 is_stmt 1 view -0
 2636              		.cfi_startproc
 2637              		@ args = 0, pretend = 0, frame = 0
 2638              		@ frame_needed = 0, uses_anonymous_args = 0
 2639              		@ link register save eliminated.
 604:Model/stai_hand_landmark.c ****   return __ll_aton_stai_reset(network);
 2640              		.loc 1 604 3 view .LVU792
 2641              		.loc 1 604 10 is_stmt 0 view .LVU793
 2642 0000 FFF7FEBF 		b	__ll_aton_stai_reset
 2643              	.LVL217:
 2644              		.loc 1 604 10 view .LVU794
 2645              		.cfi_endproc
 2646              	.LFE326:
 2648              		.section	.rodata.__func__.0,"a"
 2651              	__func__.0:
 2652 0000 5F5F6C6C 		.ascii	"__ll_aton_stai_hand_landmark_set_outputs_or_activat"
 2652      5F61746F 
 2652      6E5F7374 
 2652      61695F68 
 2652      616E645F 
 2653 0033 696F6E73 		.ascii	"ions\000"
 2653      00
 2654              		.section	.rodata.__func__.1,"a"
 2657              	__func__.1:
 2658 0000 5F5F6C6C 		.ascii	"__ll_aton_stai_hand_landmark_set_inputs_or_weights\000"
 2658      5F61746F 
 2658      6E5F7374 
 2658      61695F68 
 2658      616E645F 
 2659              		.section	.rodata.__func__.2,"a"
 2662              	__func__.2:
 2663 0000 5F5F6C6C 		.ascii	"__ll_aton_stai_hand_landmark_get_outputs_or_activat"
 2663      5F61746F 
 2663      6E5F7374 
 2663      61695F68 
 2663      616E645F 
 2664 0033 696F6E73 		.ascii	"ions\000"
 2664      00
 2665              		.section	.rodata.__func__.3,"a"
 2668              	__func__.3:
 2669 0000 5F5F6C6C 		.ascii	"__ll_aton_stai_hand_landmark_get_inputs_or_weights\000"
 2669      5F61746F 
 2669      6E5F7374 
 2669      61695F68 
 2669      616E645F 
 2670              		.section	.rodata.str1.1,"aMS",%progbits,1
 2671              	.LC8:
ARM GAS  C:\Users\DJESSOU\AppData\Local\Temp\ccfF5lhd.s 			page 79


 2672 0000 5472616E 		.ascii	"Transpose_1_out_0\000"
 2672      73706F73 
 2672      655F315F 
 2672      6F75745F 
 2672      3000
 2673              	.LC9:
 2674 0012 436F6E76 		.ascii	"Conv2D_7_zero_off_out_25\000"
 2674      32445F37 
 2674      5F7A6572 
 2674      6F5F6F66 
 2674      665F6F75 
 2675              	.LC10:
 2676 002b 5F5F5F5F 		.ascii	"____1224\000"
 2676      31323234 
 2676      00
 2677              	.LC11:
 2678 0034 5F5F5F5F 		.ascii	"____1223\000"
 2678      31323233 
 2678      00
 2679              	.LC12:
 2680 003d 5F5F5F5F 		.ascii	"____1236\000"
 2680      31323336 
 2680      00
 2681              	.LC13:
 2682 0046 5F5F5F5F 		.ascii	"____1235\000"
 2682      31323335 
 2682      00
 2683              	.LC14:
 2684 004f 436F6E76 		.ascii	"Conv2D_16_zero_off_out_43\000"
 2684      32445F31 
 2684      365F7A65 
 2684      726F5F6F 
 2684      66665F6F 
 2685              	.LC15:
 2686 0069 436F6E76 		.ascii	"Conv2D_16_off_bias_out_49\000"
 2686      32445F31 
 2686      365F6F66 
 2686      665F6269 
 2686      61735F6F 
 2687              	.LC16:
 2688 0083 5F5F5F5F 		.ascii	"____1248\000"
 2688      31323438 
 2688      00
 2689              	.LC17:
 2690 008c 5F5F5F5F 		.ascii	"____1247\000"
 2690      31323437 
 2690      00
 2691              	.LC18:
 2692 0095 5F5F5F5F 		.ascii	"____1260\000"
 2692      31323630 
 2692      00
 2693              	.LC19:
 2694 009e 5F5F5F5F 		.ascii	"____1259\000"
 2694      31323539 
 2694      00
 2695              	.LC20:
 2696 00a7 436F6E76 		.ascii	"Conv2D_28_zero_off_out_70\000"
ARM GAS  C:\Users\DJESSOU\AppData\Local\Temp\ccfF5lhd.s 			page 80


 2696      32445F32 
 2696      385F7A65 
 2696      726F5F6F 
 2696      66665F6F 
 2697              	.LC21:
 2698 00c1 436F6E76 		.ascii	"Conv2D_28_off_bias_out_76\000"
 2698      32445F32 
 2698      385F6F66 
 2698      665F6269 
 2698      61735F6F 
 2699              	.LC22:
 2700 00db 5F5F5F5F 		.ascii	"____1272\000"
 2700      31323732 
 2700      00
 2701              	.LC23:
 2702 00e4 5F5F5F5F 		.ascii	"____1271\000"
 2702      31323731 
 2702      00
 2703              	.LC24:
 2704 00ed 5F5F5F5F 		.ascii	"____1284\000"
 2704      31323834 
 2704      00
 2705              	.LC25:
 2706 00f6 5F5F5F5F 		.ascii	"____1283\000"
 2706      31323833 
 2706      00
 2707              	.LC26:
 2708 00ff 436F6E76 		.ascii	"Conv2D_40_zero_off_out_97\000"
 2708      32445F34 
 2708      305F7A65 
 2708      726F5F6F 
 2708      66665F6F 
 2709              	.LC27:
 2710 0119 4164645F 		.ascii	"Add_43_out_0\000"
 2710      34335F6F 
 2710      75745F30 
 2710      00
 2711              	.LC28:
 2712 0126 5F5F5F5F 		.ascii	"____1296\000"
 2712      31323936 
 2712      00
 2713              	.LC29:
 2714 012f 5F5F5F5F 		.ascii	"____1295\000"
 2714      31323935 
 2714      00
 2715              	.LC30:
 2716 0138 436F6E76 		.ascii	"Conv2D_50_zero_off_out_115\000"
 2716      32445F35 
 2716      305F7A65 
 2716      726F5F6F 
 2716      66665F6F 
 2717              	.LC31:
 2718 0153 436F6E76 		.ascii	"Conv2D_54_zero_off_out_124\000"
 2718      32445F35 
 2718      345F7A65 
 2718      726F5F6F 
 2718      66665F6F 
ARM GAS  C:\Users\DJESSOU\AppData\Local\Temp\ccfF5lhd.s 			page 81


 2719              	.LC32:
 2720 016e 436F6E76 		.ascii	"Conv2D_54_off_bias_out_130\000"
 2720      32445F35 
 2720      345F6F66 
 2720      665F6269 
 2720      61735F6F 
 2721              	.LC33:
 2722 0189 436F6E76 		.ascii	"Conv2D_61_zero_off_out_142\000"
 2722      32445F36 
 2722      315F7A65 
 2722      726F5F6F 
 2722      66665F6F 
 2723              	.LC34:
 2724 01a4 436F6E76 		.ascii	"Conv2D_65_zero_off_out_151\000"
 2724      32445F36 
 2724      355F7A65 
 2724      726F5F6F 
 2724      66665F6F 
 2725              	.LC35:
 2726 01bf 4164645F 		.ascii	"Add_68_out_0\000"
 2726      36385F6F 
 2726      75745F30 
 2726      00
 2727              	.LC36:
 2728 01cc 436F6E76 		.ascii	"Conv2D_76_zero_off_out_169\000"
 2728      32445F37 
 2728      365F7A65 
 2728      726F5F6F 
 2728      66665F6F 
 2729              	.LC37:
 2730 01e7 436F6E76 		.ascii	"Conv2D_76_zero_off_out_169_split_grp_X_536_84_o_0\000"
 2730      32445F37 
 2730      365F7A65 
 2730      726F5F6F 
 2730      66665F6F 
 2731              	.LC38:
 2732 0219 436F6E76 		.ascii	"Conv2D_76_zero_off_out_169_split_grp_X_536_84_o_1\000"
 2732      32445F37 
 2732      365F7A65 
 2732      726F5F6F 
 2732      66665F6F 
 2733              	.LC39:
 2734 024b 436F6E76 		.ascii	"Conv2D_76_zero_off_out_169_split_grp_X_536_84_o_0_i"
 2734      32445F37 
 2734      365F7A65 
 2734      726F5F6F 
 2734      66665F6F 
 2735 027e 6E736572 		.ascii	"nserted_out741\000"
 2735      7465645F 
 2735      6F757437 
 2735      343100
 2736              	.LC40:
 2737 028d 436F6E76 		.ascii	"Conv2D_76_zero_off_out_169_split_grp_X_536_84_o_1_i"
 2737      32445F37 
 2737      365F7A65 
 2737      726F5F6F 
 2737      66665F6F 
ARM GAS  C:\Users\DJESSOU\AppData\Local\Temp\ccfF5lhd.s 			page 82


 2738 02c0 6E736572 		.ascii	"nserted_out740\000"
 2738      7465645F 
 2738      6F757437 
 2738      343000
 2739              	.LC41:
 2740 02cf 5F5F5F5F 		.ascii	"____1307\000"
 2740      31333037 
 2740      00
 2741              	.LC42:
 2742 02d8 5F5F5F5F 		.ascii	"____1308\000"
 2742      31333038 
 2742      00
 2743              	.LC43:
 2744 02e1 436F6E76 		.ascii	"Conv2D_80_zero_off_out_178\000"
 2744      32445F38 
 2744      305F7A65 
 2744      726F5F6F 
 2744      66665F6F 
 2745              	.LC44:
 2746 02fc 436F6E76 		.ascii	"Conv2D_80_off_bias_out_184\000"
 2746      32445F38 
 2746      305F6F66 
 2746      665F6269 
 2746      61735F6F 
 2747              	.LC45:
 2748 0317 436F6E76 		.ascii	"Conv2D_88_zero_off_out_196\000"
 2748      32445F38 
 2748      385F7A65 
 2748      726F5F6F 
 2748      66665F6F 
 2749              	.LC46:
 2750 0332 436F6E76 		.ascii	"Conv2D_88_zero_off_out_196_split_grp_X_546_98_o_0\000"
 2750      32445F38 
 2750      385F7A65 
 2750      726F5F6F 
 2750      66665F6F 
 2751              	.LC47:
 2752 0364 436F6E76 		.ascii	"Conv2D_88_zero_off_out_196_split_grp_X_546_98_o_1\000"
 2752      32445F38 
 2752      385F7A65 
 2752      726F5F6F 
 2752      66665F6F 
 2753              	.LC48:
 2754 0396 436F6E76 		.ascii	"Conv2D_88_zero_off_out_196_split_grp_X_546_98_o_0_i"
 2754      32445F38 
 2754      385F7A65 
 2754      726F5F6F 
 2754      66665F6F 
 2755 03c9 6E736572 		.ascii	"nserted_out747\000"
 2755      7465645F 
 2755      6F757437 
 2755      343700
 2756              	.LC49:
 2757 03d8 436F6E76 		.ascii	"Conv2D_88_zero_off_out_196_split_grp_X_546_98_o_1_i"
 2757      32445F38 
 2757      385F7A65 
 2757      726F5F6F 
ARM GAS  C:\Users\DJESSOU\AppData\Local\Temp\ccfF5lhd.s 			page 83


 2757      66665F6F 
 2758 040b 6E736572 		.ascii	"nserted_out746\000"
 2758      7465645F 
 2758      6F757437 
 2758      343600
 2759              	.LC50:
 2760 041a 5F5F5F5F 		.ascii	"____1319\000"
 2760      31333139 
 2760      00
 2761              	.LC51:
 2762 0423 5F5F5F5F 		.ascii	"____1320\000"
 2762      31333230 
 2762      00
 2763              	.LC52:
 2764 042c 436F6E76 		.ascii	"Conv2D_92_zero_off_out_205\000"
 2764      32445F39 
 2764      325F7A65 
 2764      726F5F6F 
 2764      66665F6F 
 2765              	.LC53:
 2766 0447 4164645F 		.ascii	"Add_95_out_0\000"
 2766      39355F6F 
 2766      75745F30 
 2766      00
 2767              	.LC54:
 2768 0454 436F6E76 		.ascii	"Conv2D_103_zero_off_out_223\000"
 2768      32445F31 
 2768      30335F7A 
 2768      65726F5F 
 2768      6F66665F 
 2769              	.LC55:
 2770 0470 436F6E76 		.ascii	"Conv2D_103_zero_off_out_223_split_grp_X_556_113_o_0"
 2770      32445F31 
 2770      30335F7A 
 2770      65726F5F 
 2770      6F66665F 
 2771 04a3 00       		.ascii	"\000"
 2772              	.LC56:
 2773 04a4 436F6E76 		.ascii	"Conv2D_103_zero_off_out_223_split_grp_X_556_113_o_1"
 2773      32445F31 
 2773      30335F7A 
 2773      65726F5F 
 2773      6F66665F 
 2774 04d7 00       		.ascii	"\000"
 2775              	.LC57:
 2776 04d8 436F6E76 		.ascii	"Conv2D_103_zero_off_out_223_split_grp_X_556_113_o_0"
 2776      32445F31 
 2776      30335F7A 
 2776      65726F5F 
 2776      6F66665F 
 2777 050b 5F696E73 		.ascii	"_inserted_out755\000"
 2777      65727465 
 2777      645F6F75 
 2777      74373535 
 2777      00
 2778              	.LC58:
 2779 051c 436F6E76 		.ascii	"Conv2D_103_zero_off_out_223_split_grp_X_556_113_o_1"
ARM GAS  C:\Users\DJESSOU\AppData\Local\Temp\ccfF5lhd.s 			page 84


 2779      32445F31 
 2779      30335F7A 
 2779      65726F5F 
 2779      6F66665F 
 2780 054f 5F696E73 		.ascii	"_inserted_out754\000"
 2780      65727465 
 2780      645F6F75 
 2780      74373534 
 2780      00
 2781              	.LC59:
 2782 0560 5F5F5F5F 		.ascii	"____1331\000"
 2782      31333331 
 2782      00
 2783              	.LC60:
 2784 0569 5F5F5F5F 		.ascii	"____1332\000"
 2784      31333332 
 2784      00
 2785              	.LC61:
 2786 0572 436F6E76 		.ascii	"Conv2D_107_zero_off_out_232\000"
 2786      32445F31 
 2786      30375F7A 
 2786      65726F5F 
 2786      6F66665F 
 2787              	.LC62:
 2788 058e 4164645F 		.ascii	"Add_110_out_0\000"
 2788      3131305F 
 2788      6F75745F 
 2788      3000
 2789              	.LC63:
 2790 059c 436F6E76 		.ascii	"Conv2D_117_zero_off_out_250\000"
 2790      32445F31 
 2790      31375F7A 
 2790      65726F5F 
 2790      6F66665F 
 2791              	.LC64:
 2792 05b8 436F6E76 		.ascii	"Conv2D_121_zero_off_out_259\000"
 2792      32445F31 
 2792      32315F7A 
 2792      65726F5F 
 2792      6F66665F 
 2793              	.LC65:
 2794 05d4 436F6E76 		.ascii	"Conv2D_121_off_bias_out_265\000"
 2794      32445F31 
 2794      32315F6F 
 2794      66665F62 
 2794      6961735F 
 2795              	.LC66:
 2796 05f0 436F6E76 		.ascii	"Conv2D_124_out_0_cp_in_25_cp_in_26_cp_in_27\000"
 2796      32445F31 
 2796      32345F6F 
 2796      75745F30 
 2796      5F63705F 
 2797              	.LC67:
 2798 061c 436F6E76 		.ascii	"Conv2D_128_zero_off_out_277\000"
 2798      32445F31 
 2798      32385F7A 
 2798      65726F5F 
ARM GAS  C:\Users\DJESSOU\AppData\Local\Temp\ccfF5lhd.s 			page 85


 2798      6F66665F 
 2799              	.LC68:
 2800 0638 436F6E76 		.ascii	"Conv2D_132_zero_off_out_286\000"
 2800      32445F31 
 2800      33325F7A 
 2800      65726F5F 
 2800      6F66665F 
 2801              	.LC69:
 2802 0654 436F6E76 		.ascii	"Conv2D_132_out_0_cp_in_28_cp_in_29\000"
 2802      32445F31 
 2802      33325F6F 
 2802      75745F30 
 2802      5F63705F 
 2803              	.LC70:
 2804 0677 4164645F 		.ascii	"Add_135_out_0\000"
 2804      3133355F 
 2804      6F75745F 
 2804      3000
 2805              	.LC71:
 2806 0685 436F6E76 		.ascii	"Conv2D_138_out_0_cp_in_30_cp_in_31_cp_in_32\000"
 2806      32445F31 
 2806      33385F6F 
 2806      75745F30 
 2806      5F63705F 
 2807              	.LC72:
 2808 06b1 436F6E76 		.ascii	"Conv2D_142_zero_off_out_304\000"
 2808      32445F31 
 2808      34325F7A 
 2808      65726F5F 
 2808      6F66665F 
 2809              	.LC73:
 2810 06cd 436F6E76 		.ascii	"Conv2D_146_zero_off_out_313\000"
 2810      32445F31 
 2810      34365F7A 
 2810      65726F5F 
 2810      6F66665F 
 2811              	.LC74:
 2812 06e9 436F6E76 		.ascii	"Conv2D_146_out_0_cp_in_33_cp_in_34\000"
 2812      32445F31 
 2812      34365F6F 
 2812      75745F30 
 2812      5F63705F 
 2813              	.LC75:
 2814 070c 4164645F 		.ascii	"Add_149_out_0\000"
 2814      3134395F 
 2814      6F75745F 
 2814      3000
 2815              	.LC76:
 2816 071a 436F6E76 		.ascii	"Conv2D_152_out_0_cp_in_35_cp_in_36_cp_in_37\000"
 2816      32445F31 
 2816      35325F6F 
 2816      75745F30 
 2816      5F63705F 
 2817              	.LC77:
 2818 0746 436F6E76 		.ascii	"Conv2D_156_zero_off_out_331\000"
 2818      32445F31 
 2818      35365F7A 
ARM GAS  C:\Users\DJESSOU\AppData\Local\Temp\ccfF5lhd.s 			page 86


 2818      65726F5F 
 2818      6F66665F 
 2819              	.LC78:
 2820 0762 436F6E76 		.ascii	"Conv2D_160_zero_off_out_340\000"
 2820      32445F31 
 2820      36305F7A 
 2820      65726F5F 
 2820      6F66665F 
 2821              	.LC79:
 2822 077e 436F6E76 		.ascii	"Conv2D_160_out_0_cp_in_38_cp_in_39\000"
 2822      32445F31 
 2822      36305F6F 
 2822      75745F30 
 2822      5F63705F 
 2823              	.LC80:
 2824 07a1 436F6E76 		.ascii	"Conv2D_160_off_bias_out_346\000"
 2824      32445F31 
 2824      36305F6F 
 2824      66665F62 
 2824      6961735F 
 2825              	.LC81:
 2826 07bd 436F6E76 		.ascii	"Conv2D_163_out_0_cp_in_40_cp_in_41_cp_in_42\000"
 2826      32445F31 
 2826      36335F6F 
 2826      75745F30 
 2826      5F63705F 
 2827              	.LC82:
 2828 07e9 436F6E76 		.ascii	"Conv2D_167_zero_off_out_358\000"
 2828      32445F31 
 2828      36375F7A 
 2828      65726F5F 
 2828      6F66665F 
 2829              	.LC83:
 2830 0805 436F6E76 		.ascii	"Conv2D_171_zero_off_out_367\000"
 2830      32445F31 
 2830      37315F7A 
 2830      65726F5F 
 2830      6F66665F 
 2831              	.LC84:
 2832 0821 436F6E76 		.ascii	"Conv2D_171_sp_kwise_627_1_output\000"
 2832      32445F31 
 2832      37315F73 
 2832      705F6B77 
 2832      6973655F 
 2833              	.LC85:
 2834 0842 5F5F5F5F 		.ascii	"____1339\000"
 2834      31333339 
 2834      00
 2835              	.LC86:
 2836 084b 436F6E76 		.ascii	"Conv2D_171_sp_kwise_626_0_output\000"
 2836      32445F31 
 2836      37315F73 
 2836      705F6B77 
 2836      6973655F 
 2837              	.LC87:
 2838 086c 5F5F5F5F 		.ascii	"____1337\000"
 2838      31333337 
ARM GAS  C:\Users\DJESSOU\AppData\Local\Temp\ccfF5lhd.s 			page 87


 2838      00
 2839              	.LC88:
 2840 0875 436F6E76 		.ascii	"Conv2D_171_off_bias_out_373\000"
 2840      32445F31 
 2840      37315F6F 
 2840      66665F62 
 2840      6961735F 
 2841              	.LC89:
 2842 0891 4164645F 		.ascii	"Add_174_out_0\000"
 2842      3137345F 
 2842      6F75745F 
 2842      3000
 2843              	.LC90:
 2844 089f 436F6E76 		.ascii	"Conv2D_177_out_0_cp_in_43_cp_in_44_cp_in_45\000"
 2844      32445F31 
 2844      37375F6F 
 2844      75745F30 
 2844      5F63705F 
 2845              	.LC91:
 2846 08cb 436F6E76 		.ascii	"Conv2D_181_zero_off_out_385\000"
 2846      32445F31 
 2846      38315F7A 
 2846      65726F5F 
 2846      6F66665F 
 2847              	.LC92:
 2848 08e7 436F6E76 		.ascii	"Conv2D_185_zero_off_out_394\000"
 2848      32445F31 
 2848      38355F7A 
 2848      65726F5F 
 2848      6F66665F 
 2849              	.LC93:
 2850 0903 436F6E76 		.ascii	"Conv2D_185_sp_kwise_636_1_output\000"
 2850      32445F31 
 2850      38355F73 
 2850      705F6B77 
 2850      6973655F 
 2851              	.LC94:
 2852 0924 5F5F5F5F 		.ascii	"____1347\000"
 2852      31333437 
 2852      00
 2853              	.LC95:
 2854 092d 436F6E76 		.ascii	"Conv2D_185_sp_kwise_635_0_output\000"
 2854      32445F31 
 2854      38355F73 
 2854      705F6B77 
 2854      6973655F 
 2855              	.LC96:
 2856 094e 5F5F5F5F 		.ascii	"____1345\000"
 2856      31333435 
 2856      00
 2857              	.LC97:
 2858 0957 436F6E76 		.ascii	"Conv2D_185_off_bias_out_400\000"
 2858      32445F31 
 2858      38355F6F 
 2858      66665F62 
 2858      6961735F 
 2859              	.LC98:
ARM GAS  C:\Users\DJESSOU\AppData\Local\Temp\ccfF5lhd.s 			page 88


 2860 0973 4164645F 		.ascii	"Add_188_out_0\000"
 2860      3138385F 
 2860      6F75745F 
 2860      3000
 2861              	.LC99:
 2862 0981 436F6E76 		.ascii	"Conv2D_191_out_0_cp_in_46_cp_in_47_cp_in_48\000"
 2862      32445F31 
 2862      39315F6F 
 2862      75745F30 
 2862      5F63705F 
 2863              	.LC100:
 2864 09ad 436F6E76 		.ascii	"Conv2D_195_zero_off_out_412\000"
 2864      32445F31 
 2864      39355F7A 
 2864      65726F5F 
 2864      6F66665F 
 2865              	.LC101:
 2866 09c9 436F6E76 		.ascii	"Conv2D_199_zero_off_out_421\000"
 2866      32445F31 
 2866      39395F7A 
 2866      65726F5F 
 2866      6F66665F 
 2867              	.LC102:
 2868 09e5 436F6E76 		.ascii	"Conv2D_199_sp_kwise_645_1_output\000"
 2868      32445F31 
 2868      39395F73 
 2868      705F6B77 
 2868      6973655F 
 2869              	.LC103:
 2870 0a06 5F5F5F5F 		.ascii	"____1355\000"
 2870      31333535 
 2870      00
 2871              	.LC104:
 2872 0a0f 436F6E76 		.ascii	"Conv2D_199_sp_kwise_644_0_output\000"
 2872      32445F31 
 2872      39395F73 
 2872      705F6B77 
 2872      6973655F 
 2873              	.LC105:
 2874 0a30 5F5F5F5F 		.ascii	"____1353\000"
 2874      31333533 
 2874      00
 2875              	.LC106:
 2876 0a39 436F6E76 		.ascii	"Conv2D_199_off_bias_out_427\000"
 2876      32445F31 
 2876      39395F6F 
 2876      66665F62 
 2876      6961735F 
 2877              	.LC107:
 2878 0a55 4164645F 		.ascii	"Add_202_out_0\000"
 2878      3230325F 
 2878      6F75745F 
 2878      3000
 2879              	.LC108:
 2880 0a63 436F6E76 		.ascii	"Conv2D_205_out_0_cp_in_49_cp_in_50_cp_in_51\000"
 2880      32445F32 
 2880      30355F6F 
ARM GAS  C:\Users\DJESSOU\AppData\Local\Temp\ccfF5lhd.s 			page 89


 2880      75745F30 
 2880      5F63705F 
 2881              	.LC109:
 2882 0a8f 436F6E76 		.ascii	"Conv2D_210_zero_off_out_439\000"
 2882      32445F32 
 2882      31305F7A 
 2882      65726F5F 
 2882      6F66665F 
 2883              	.LC110:
 2884 0aab 41766572 		.ascii	"AveragePool_214_out_0_cp_in_52\000"
 2884      61676550 
 2884      6F6F6C5F 
 2884      3231345F 
 2884      6F75745F 
 2885              	.LC111:
 2886 0aca 52657368 		.ascii	"Reshape_215_out_0\000"
 2886      6170655F 
 2886      3231355F 
 2886      6F75745F 
 2886      3000
 2887              	.LC112:
 2888 0adc 47656D6D 		.ascii	"Gemm_231_reshape_x_20\000"
 2888      5F323331 
 2888      5F726573 
 2888      68617065 
 2888      5F785F32 
 2889              	.LC113:
 2890 0af2 47656D6D 		.ascii	"Gemm_216_reshape_x_2\000"
 2890      5F323136 
 2890      5F726573 
 2890      68617065 
 2890      5F785F32 
 2891              	.LC114:
 2892 0b07 47656D6D 		.ascii	"Gemm_222_reshape_x_8\000"
 2892      5F323232 
 2892      5F726573 
 2892      68617065 
 2892      5F785F38 
 2893              	.LC115:
 2894 0b1c 47656D6D 		.ascii	"Gemm_228_reshape_x_14\000"
 2894      5F323238 
 2894      5F726573 
 2894      68617065 
 2894      5F785F31 
 2895              	.LC116:
 2896 0b32 47656D6D 		.ascii	"Gemm_231_conv_22_zero_off_out_475\000"
 2896      5F323331 
 2896      5F636F6E 
 2896      765F3232 
 2896      5F7A6572 
 2897              	.LC117:
 2898 0b54 47656D6D 		.ascii	"Gemm_216_conv_4_zero_off_out_448\000"
 2898      5F323136 
 2898      5F636F6E 
 2898      765F345F 
 2898      7A65726F 
 2899              	.LC118:
ARM GAS  C:\Users\DJESSOU\AppData\Local\Temp\ccfF5lhd.s 			page 90


 2900 0b75 47656D6D 		.ascii	"Gemm_222_conv_10_zero_off_out_457\000"
 2900      5F323232 
 2900      5F636F6E 
 2900      765F3130 
 2900      5F7A6572 
 2901              	.LC119:
 2902 0b97 47656D6D 		.ascii	"Gemm_228_conv_16_zero_off_out_466\000"
 2902      5F323238 
 2902      5F636F6E 
 2902      765F3136 
 2902      5F7A6572 
 2903              	.LC120:
 2904 0bb9 47656D6D 		.ascii	"Gemm_231_conv_22_off_bias_out_481\000"
 2904      5F323331 
 2904      5F636F6E 
 2904      765F3232 
 2904      5F6F6666 
 2905              	.LC121:
 2906 0bdb 47656D6D 		.ascii	"Gemm_231_out_0\000"
 2906      5F323331 
 2906      5F6F7574 
 2906      5F3000
 2907              	.LC122:
 2908 0bea 5369676D 		.ascii	"Sigmoid_219_out_0\000"
 2908      6F69645F 
 2908      3231395F 
 2908      6F75745F 
 2908      3000
 2909              	.LC123:
 2910 0bfc 5369676D 		.ascii	"Sigmoid_225_out_0\000"
 2910      6F69645F 
 2910      3232355F 
 2910      6F75745F 
 2910      3000
 2911              	.LC124:
 2912 0c0e 47656D6D 		.ascii	"Gemm_228_conv_16_off_bias_out_472\000"
 2912      5F323238 
 2912      5F636F6E 
 2912      765F3136 
 2912      5F6F6666 
 2913              	.LC125:
 2914 0c30 47656D6D 		.ascii	"Gemm_228_out_0\000"
 2914      5F323238 
 2914      5F6F7574 
 2914      5F3000
 2915              		.section	.data.__compound_literal.331,"aw"
 2916              		.align	2
 2919              	__compound_literal.331:
 2920 0000 004C0200 		.word	150528
 2921 0004 89000000 		.word	137
 2922 0008 40040400 		.word	263232
 2923 000c 04000000 		.word	4
 2924 0010 00000000 		.word	__compound_literal.9
 2925 0014 01000000 		.word	1
 2926 0018 00000000 		.word	__compound_literal.10
 2927 001c 01000000 		.word	1
 2928 0020 00000000 		.word	__compound_literal.11
ARM GAS  C:\Users\DJESSOU\AppData\Local\Temp\ccfF5lhd.s 			page 91


 2929 0024 00000000 		.word	.LC8
 2930 0028 004C0200 		.word	150528
 2931 002c 89000000 		.word	137
 2932 0030 40040400 		.word	263232
 2933 0034 04000000 		.word	4
 2934 0038 00000000 		.word	__compound_literal.12
 2935 003c 01000000 		.word	1
 2936 0040 00000000 		.word	__compound_literal.13
 2937 0044 01000000 		.word	1
 2938 0048 00000000 		.word	__compound_literal.14
 2939 004c 12000000 		.word	.LC9
 2940 0050 004C0200 		.word	150528
 2941 0054 89000000 		.word	137
 2942 0058 40040400 		.word	263232
 2943 005c 04000000 		.word	4
 2944 0060 00000000 		.word	__compound_literal.15
 2945 0064 01000000 		.word	1
 2946 0068 00000000 		.word	__compound_literal.16
 2947 006c 01000000 		.word	1
 2948 0070 00000000 		.word	__compound_literal.17
 2949 0074 2B000000 		.word	.LC10
 2950 0078 004C0200 		.word	150528
 2951 007c 89000000 		.word	137
 2952 0080 40040400 		.word	263232
 2953 0084 04000000 		.word	4
 2954 0088 00000000 		.word	__compound_literal.18
 2955 008c 01000000 		.word	1
 2956 0090 00000000 		.word	__compound_literal.19
 2957 0094 01000000 		.word	1
 2958 0098 00000000 		.word	__compound_literal.20
 2959 009c 34000000 		.word	.LC11
 2960 00a0 004C0200 		.word	150528
 2961 00a4 09010000 		.word	265
 2962 00a8 40040400 		.word	263232
 2963 00ac 05000000 		.word	5
 2964 00b0 00000000 		.word	__compound_literal.21
 2965 00b4 01000000 		.word	1
 2966 00b8 00000000 		.word	__compound_literal.22
 2967 00bc 01000000 		.word	1
 2968 00c0 00000000 		.word	__compound_literal.23
 2969 00c4 3D000000 		.word	.LC12
 2970 00c8 004C0200 		.word	150528
 2971 00cc 09010000 		.word	265
 2972 00d0 40040400 		.word	263232
 2973 00d4 05000000 		.word	5
 2974 00d8 00000000 		.word	__compound_literal.24
 2975 00dc 01000000 		.word	1
 2976 00e0 00000000 		.word	__compound_literal.25
 2977 00e4 01000000 		.word	1
 2978 00e8 00000000 		.word	__compound_literal.26
 2979 00ec 46000000 		.word	.LC13
 2980 00f0 00980400 		.word	301056
 2981 00f4 89000000 		.word	137
 2982 00f8 40040400 		.word	263232
 2983 00fc 04000000 		.word	4
 2984 0100 00000000 		.word	__compound_literal.27
 2985 0104 01000000 		.word	1
ARM GAS  C:\Users\DJESSOU\AppData\Local\Temp\ccfF5lhd.s 			page 92


 2986 0108 00000000 		.word	__compound_literal.28
 2987 010c 01000000 		.word	1
 2988 0110 00000000 		.word	__compound_literal.29
 2989 0114 4F000000 		.word	.LC14
 2990 0118 00100300 		.word	200704
 2991 011c 89000000 		.word	137
 2992 0120 40048400 		.word	8651840
 2993 0124 04000000 		.word	4
 2994 0128 00000000 		.word	__compound_literal.30
 2995 012c 01000000 		.word	1
 2996 0130 00000000 		.word	__compound_literal.31
 2997 0134 01000000 		.word	1
 2998 0138 00000000 		.word	__compound_literal.32
 2999 013c 69000000 		.word	.LC15
 3000 0140 00200600 		.word	401408
 3001 0144 89000000 		.word	137
 3002 0148 40040400 		.word	263232
 3003 014c 04000000 		.word	4
 3004 0150 00000000 		.word	__compound_literal.33
 3005 0154 01000000 		.word	1
 3006 0158 00000000 		.word	__compound_literal.34
 3007 015c 01000000 		.word	1
 3008 0160 00000000 		.word	__compound_literal.35
 3009 0164 83000000 		.word	.LC16
 3010 0168 00200600 		.word	401408
 3011 016c 89000000 		.word	137
 3012 0170 40040400 		.word	263232
 3013 0174 04000000 		.word	4
 3014 0178 00000000 		.word	__compound_literal.36
 3015 017c 01000000 		.word	1
 3016 0180 00000000 		.word	__compound_literal.37
 3017 0184 01000000 		.word	1
 3018 0188 00000000 		.word	__compound_literal.38
 3019 018c 8C000000 		.word	.LC17
 3020 0190 00880100 		.word	100352
 3021 0194 09010000 		.word	265
 3022 0198 40040400 		.word	263232
 3023 019c 05000000 		.word	5
 3024 01a0 00000000 		.word	__compound_literal.39
 3025 01a4 01000000 		.word	1
 3026 01a8 00000000 		.word	__compound_literal.40
 3027 01ac 01000000 		.word	1
 3028 01b0 00000000 		.word	__compound_literal.41
 3029 01b4 95000000 		.word	.LC18
 3030 01b8 00880100 		.word	100352
 3031 01bc 09010000 		.word	265
 3032 01c0 40040400 		.word	263232
 3033 01c4 05000000 		.word	5
 3034 01c8 00000000 		.word	__compound_literal.42
 3035 01cc 01000000 		.word	1
 3036 01d0 00000000 		.word	__compound_literal.43
 3037 01d4 01000000 		.word	1
 3038 01d8 00000000 		.word	__compound_literal.44
 3039 01dc 9E000000 		.word	.LC19
 3040 01e0 00100300 		.word	200704
 3041 01e4 89000000 		.word	137
 3042 01e8 40040400 		.word	263232
ARM GAS  C:\Users\DJESSOU\AppData\Local\Temp\ccfF5lhd.s 			page 93


 3043 01ec 04000000 		.word	4
 3044 01f0 00000000 		.word	__compound_literal.45
 3045 01f4 01000000 		.word	1
 3046 01f8 00000000 		.word	__compound_literal.46
 3047 01fc 01000000 		.word	1
 3048 0200 00000000 		.word	__compound_literal.47
 3049 0204 A7000000 		.word	.LC20
 3050 0208 00260100 		.word	75264
 3051 020c 89000000 		.word	137
 3052 0210 40048400 		.word	8651840
 3053 0214 04000000 		.word	4
 3054 0218 00000000 		.word	__compound_literal.48
 3055 021c 01000000 		.word	1
 3056 0220 00000000 		.word	__compound_literal.49
 3057 0224 01000000 		.word	1
 3058 0228 00000000 		.word	__compound_literal.50
 3059 022c C1000000 		.word	.LC21
 3060 0230 00720300 		.word	225792
 3061 0234 89000000 		.word	137
 3062 0238 40040400 		.word	263232
 3063 023c 04000000 		.word	4
 3064 0240 00000000 		.word	__compound_literal.51
 3065 0244 01000000 		.word	1
 3066 0248 00000000 		.word	__compound_literal.52
 3067 024c 01000000 		.word	1
 3068 0250 00000000 		.word	__compound_literal.53
 3069 0254 DB000000 		.word	.LC22
 3070 0258 00720300 		.word	225792
 3071 025c 89000000 		.word	137
 3072 0260 40040400 		.word	263232
 3073 0264 04000000 		.word	4
 3074 0268 00000000 		.word	__compound_literal.54
 3075 026c 01000000 		.word	1
 3076 0270 00000000 		.word	__compound_literal.55
 3077 0274 01000000 		.word	1
 3078 0278 00000000 		.word	__compound_literal.56
 3079 027c E4000000 		.word	.LC23
 3080 0280 00720300 		.word	225792
 3081 0284 89000000 		.word	137
 3082 0288 40040400 		.word	263232
 3083 028c 04000000 		.word	4
 3084 0290 00000000 		.word	__compound_literal.57
 3085 0294 01000000 		.word	1
 3086 0298 00000000 		.word	__compound_literal.58
 3087 029c 01000000 		.word	1
 3088 02a0 00000000 		.word	__compound_literal.59
 3089 02a4 ED000000 		.word	.LC24
 3090 02a8 00720300 		.word	225792
 3091 02ac 89000000 		.word	137
 3092 02b0 40040400 		.word	263232
 3093 02b4 04000000 		.word	4
 3094 02b8 00000000 		.word	__compound_literal.60
 3095 02bc 01000000 		.word	1
 3096 02c0 00000000 		.word	__compound_literal.61
 3097 02c4 01000000 		.word	1
 3098 02c8 00000000 		.word	__compound_literal.62
 3099 02cc F6000000 		.word	.LC25
ARM GAS  C:\Users\DJESSOU\AppData\Local\Temp\ccfF5lhd.s 			page 94


 3100 02d0 00E40600 		.word	451584
 3101 02d4 09010000 		.word	265
 3102 02d8 40040400 		.word	263232
 3103 02dc 05000000 		.word	5
 3104 02e0 00000000 		.word	__compound_literal.63
 3105 02e4 01000000 		.word	1
 3106 02e8 00000000 		.word	__compound_literal.64
 3107 02ec 01000000 		.word	1
 3108 02f0 00000000 		.word	__compound_literal.65
 3109 02f4 FF000000 		.word	.LC26
 3110 02f8 00260100 		.word	75264
 3111 02fc 89000000 		.word	137
 3112 0300 40048400 		.word	8651840
 3113 0304 04000000 		.word	4
 3114 0308 00000000 		.word	__compound_literal.66
 3115 030c 01000000 		.word	1
 3116 0310 00000000 		.word	__compound_literal.67
 3117 0314 01000000 		.word	1
 3118 0318 00000000 		.word	__compound_literal.68
 3119 031c 19010000 		.word	.LC27
 3120 0320 00720300 		.word	225792
 3121 0324 09010000 		.word	265
 3122 0328 40040400 		.word	263232
 3123 032c 05000000 		.word	5
 3124 0330 00000000 		.word	__compound_literal.69
 3125 0334 01000000 		.word	1
 3126 0338 00000000 		.word	__compound_literal.70
 3127 033c 01000000 		.word	1
 3128 0340 00000000 		.word	__compound_literal.71
 3129 0344 26010000 		.word	.LC28
 3130 0348 00720300 		.word	225792
 3131 034c 09010000 		.word	265
 3132 0350 40040400 		.word	263232
 3133 0354 05000000 		.word	5
 3134 0358 00000000 		.word	__compound_literal.72
 3135 035c 01000000 		.word	1
 3136 0360 00000000 		.word	__compound_literal.73
 3137 0364 01000000 		.word	1
 3138 0368 00000000 		.word	__compound_literal.74
 3139 036c 2F010000 		.word	.LC29
 3140 0370 00E40600 		.word	451584
 3141 0374 89000000 		.word	137
 3142 0378 40040400 		.word	263232
 3143 037c 04000000 		.word	4
 3144 0380 00000000 		.word	__compound_literal.75
 3145 0384 01000000 		.word	1
 3146 0388 00000000 		.word	__compound_literal.76
 3147 038c 01000000 		.word	1
 3148 0390 00000000 		.word	__compound_literal.77
 3149 0394 38010000 		.word	.LC30
 3150 0398 00B90100 		.word	112896
 3151 039c 89000000 		.word	137
 3152 03a0 40040400 		.word	263232
 3153 03a4 04000000 		.word	4
 3154 03a8 00000000 		.word	__compound_literal.78
 3155 03ac 01000000 		.word	1
 3156 03b0 00000000 		.word	__compound_literal.79
ARM GAS  C:\Users\DJESSOU\AppData\Local\Temp\ccfF5lhd.s 			page 95


 3157 03b4 01000000 		.word	1
 3158 03b8 00000000 		.word	__compound_literal.80
 3159 03bc 53010000 		.word	.LC31
 3160 03c0 807A0000 		.word	31360
 3161 03c4 09010000 		.word	265
 3162 03c8 40048400 		.word	8651840
 3163 03cc 05000000 		.word	5
 3164 03d0 00000000 		.word	__compound_literal.81
 3165 03d4 01000000 		.word	1
 3166 03d8 00000000 		.word	__compound_literal.82
 3167 03dc 01000000 		.word	1
 3168 03e0 00000000 		.word	__compound_literal.83
 3169 03e4 6E010000 		.word	.LC32
 3170 03e8 00DF0200 		.word	188160
 3171 03ec 89000000 		.word	137
 3172 03f0 40040400 		.word	263232
 3173 03f4 04000000 		.word	4
 3174 03f8 00000000 		.word	__compound_literal.84
 3175 03fc 01000000 		.word	1
 3176 0400 00000000 		.word	__compound_literal.85
 3177 0404 01000000 		.word	1
 3178 0408 00000000 		.word	__compound_literal.86
 3179 040c 89010000 		.word	.LC33
 3180 0410 00DF0200 		.word	188160
 3181 0414 89000000 		.word	137
 3182 0418 40040400 		.word	263232
 3183 041c 04000000 		.word	4
 3184 0420 00000000 		.word	__compound_literal.87
 3185 0424 01000000 		.word	1
 3186 0428 00000000 		.word	__compound_literal.88
 3187 042c 01000000 		.word	1
 3188 0430 00000000 		.word	__compound_literal.89
 3189 0434 A4010000 		.word	.LC34
 3190 0438 807A0000 		.word	31360
 3191 043c 09010000 		.word	265
 3192 0440 40048400 		.word	8651840
 3193 0444 05000000 		.word	5
 3194 0448 00000000 		.word	__compound_literal.90
 3195 044c 01000000 		.word	1
 3196 0450 00000000 		.word	__compound_literal.91
 3197 0454 01000000 		.word	1
 3198 0458 00000000 		.word	__compound_literal.92
 3199 045c BF010000 		.word	.LC35
 3200 0460 00DF0200 		.word	188160
 3201 0464 09010000 		.word	265
 3202 0468 40040400 		.word	263232
 3203 046c 05000000 		.word	5
 3204 0470 00000000 		.word	__compound_literal.93
 3205 0474 01000000 		.word	1
 3206 0478 00000000 		.word	__compound_literal.94
 3207 047c 01000000 		.word	1
 3208 0480 00000000 		.word	__compound_literal.95
 3209 0484 CC010000 		.word	.LC36
 3210 0488 806F0100 		.word	94080
 3211 048c 09010000 		.word	265
 3212 0490 40040400 		.word	263232
 3213 0494 05000000 		.word	5
ARM GAS  C:\Users\DJESSOU\AppData\Local\Temp\ccfF5lhd.s 			page 96


 3214 0498 00000000 		.word	__compound_literal.96
 3215 049c 01000000 		.word	1
 3216 04a0 00000000 		.word	__compound_literal.97
 3217 04a4 01000000 		.word	1
 3218 04a8 00000000 		.word	__compound_literal.98
 3219 04ac E7010000 		.word	.LC37
 3220 04b0 806F0100 		.word	94080
 3221 04b4 09010000 		.word	265
 3222 04b8 40040400 		.word	263232
 3223 04bc 05000000 		.word	5
 3224 04c0 00000000 		.word	__compound_literal.99
 3225 04c4 01000000 		.word	1
 3226 04c8 00000000 		.word	__compound_literal.100
 3227 04cc 01000000 		.word	1
 3228 04d0 00000000 		.word	__compound_literal.101
 3229 04d4 19020000 		.word	.LC38
 3230 04d8 806F0100 		.word	94080
 3231 04dc 89000000 		.word	137
 3232 04e0 40040400 		.word	263232
 3233 04e4 04000000 		.word	4
 3234 04e8 00000000 		.word	__compound_literal.102
 3235 04ec 01000000 		.word	1
 3236 04f0 00000000 		.word	__compound_literal.103
 3237 04f4 01000000 		.word	1
 3238 04f8 00000000 		.word	__compound_literal.104
 3239 04fc 4B020000 		.word	.LC39
 3240 0500 806F0100 		.word	94080
 3241 0504 89000000 		.word	137
 3242 0508 40040400 		.word	263232
 3243 050c 04000000 		.word	4
 3244 0510 00000000 		.word	__compound_literal.105
 3245 0514 01000000 		.word	1
 3246 0518 00000000 		.word	__compound_literal.106
 3247 051c 01000000 		.word	1
 3248 0520 00000000 		.word	__compound_literal.107
 3249 0524 8D020000 		.word	.LC40
 3250 0528 E05B0000 		.word	23520
 3251 052c 89000000 		.word	137
 3252 0530 40040400 		.word	263232
 3253 0534 04000000 		.word	4
 3254 0538 00000000 		.word	__compound_literal.108
 3255 053c 01000000 		.word	1
 3256 0540 00000000 		.word	__compound_literal.109
 3257 0544 01000000 		.word	1
 3258 0548 00000000 		.word	__compound_literal.110
 3259 054c CF020000 		.word	.LC41
 3260 0550 E05B0000 		.word	23520
 3261 0554 89000000 		.word	137
 3262 0558 40040400 		.word	263232
 3263 055c 04000000 		.word	4
 3264 0560 00000000 		.word	__compound_literal.111
 3265 0564 01000000 		.word	1
 3266 0568 00000000 		.word	__compound_literal.112
 3267 056c 01000000 		.word	1
 3268 0570 00000000 		.word	__compound_literal.113
 3269 0574 D8020000 		.word	.LC42
 3270 0578 C0B70000 		.word	47040
ARM GAS  C:\Users\DJESSOU\AppData\Local\Temp\ccfF5lhd.s 			page 97


 3271 057c 09010000 		.word	265
 3272 0580 40040400 		.word	263232
 3273 0584 05000000 		.word	5
 3274 0588 00000000 		.word	__compound_literal.114
 3275 058c 01000000 		.word	1
 3276 0590 00000000 		.word	__compound_literal.115
 3277 0594 01000000 		.word	1
 3278 0598 00000000 		.word	__compound_literal.116
 3279 059c E1020000 		.word	.LC43
 3280 05a0 403D0000 		.word	15680
 3281 05a4 09010000 		.word	265
 3282 05a8 40048400 		.word	8651840
 3283 05ac 05000000 		.word	5
 3284 05b0 00000000 		.word	__compound_literal.117
 3285 05b4 01000000 		.word	1
 3286 05b8 00000000 		.word	__compound_literal.118
 3287 05bc 01000000 		.word	1
 3288 05c0 00000000 		.word	__compound_literal.119
 3289 05c4 FC020000 		.word	.LC44
 3290 05c8 806F0100 		.word	94080
 3291 05cc 09010000 		.word	265
 3292 05d0 40040400 		.word	263232
 3293 05d4 05000000 		.word	5
 3294 05d8 00000000 		.word	__compound_literal.120
 3295 05dc 01000000 		.word	1
 3296 05e0 00000000 		.word	__compound_literal.121
 3297 05e4 01000000 		.word	1
 3298 05e8 00000000 		.word	__compound_literal.122
 3299 05ec 17030000 		.word	.LC45
 3300 05f0 C0B70000 		.word	47040
 3301 05f4 09010000 		.word	265
 3302 05f8 40040400 		.word	263232
 3303 05fc 05000000 		.word	5
 3304 0600 00000000 		.word	__compound_literal.123
 3305 0604 01000000 		.word	1
 3306 0608 00000000 		.word	__compound_literal.124
 3307 060c 01000000 		.word	1
 3308 0610 00000000 		.word	__compound_literal.125
 3309 0614 32030000 		.word	.LC46
 3310 0618 C0B70000 		.word	47040
 3311 061c 09010000 		.word	265
 3312 0620 40040400 		.word	263232
 3313 0624 05000000 		.word	5
 3314 0628 00000000 		.word	__compound_literal.126
 3315 062c 01000000 		.word	1
 3316 0630 00000000 		.word	__compound_literal.127
 3317 0634 01000000 		.word	1
 3318 0638 00000000 		.word	__compound_literal.128
 3319 063c 64030000 		.word	.LC47
 3320 0640 C0B70000 		.word	47040
 3321 0644 89000000 		.word	137
 3322 0648 40040400 		.word	263232
 3323 064c 04000000 		.word	4
 3324 0650 00000000 		.word	__compound_literal.129
 3325 0654 01000000 		.word	1
 3326 0658 00000000 		.word	__compound_literal.130
 3327 065c 01000000 		.word	1
ARM GAS  C:\Users\DJESSOU\AppData\Local\Temp\ccfF5lhd.s 			page 98


 3328 0660 00000000 		.word	__compound_literal.131
 3329 0664 96030000 		.word	.LC48
 3330 0668 C0B70000 		.word	47040
 3331 066c 89000000 		.word	137
 3332 0670 40040400 		.word	263232
 3333 0674 04000000 		.word	4
 3334 0678 00000000 		.word	__compound_literal.132
 3335 067c 01000000 		.word	1
 3336 0680 00000000 		.word	__compound_literal.133
 3337 0684 01000000 		.word	1
 3338 0688 00000000 		.word	__compound_literal.134
 3339 068c D8030000 		.word	.LC49
 3340 0690 C0B70000 		.word	47040
 3341 0694 09010000 		.word	265
 3342 0698 40040400 		.word	263232
 3343 069c 05000000 		.word	5
 3344 06a0 00000000 		.word	__compound_literal.135
 3345 06a4 01000000 		.word	1
 3346 06a8 00000000 		.word	__compound_literal.136
 3347 06ac 01000000 		.word	1
 3348 06b0 00000000 		.word	__compound_literal.137
 3349 06b4 1A040000 		.word	.LC50
 3350 06b8 C0B70000 		.word	47040
 3351 06bc 09010000 		.word	265
 3352 06c0 40040400 		.word	263232
 3353 06c4 05000000 		.word	5
 3354 06c8 00000000 		.word	__compound_literal.138
 3355 06cc 01000000 		.word	1
 3356 06d0 00000000 		.word	__compound_literal.139
 3357 06d4 01000000 		.word	1
 3358 06d8 00000000 		.word	__compound_literal.140
 3359 06dc 23040000 		.word	.LC51
 3360 06e0 806F0100 		.word	94080
 3361 06e4 09010000 		.word	265
 3362 06e8 40040400 		.word	263232
 3363 06ec 05000000 		.word	5
 3364 06f0 00000000 		.word	__compound_literal.141
 3365 06f4 01000000 		.word	1
 3366 06f8 00000000 		.word	__compound_literal.142
 3367 06fc 01000000 		.word	1
 3368 0700 00000000 		.word	__compound_literal.143
 3369 0704 2C040000 		.word	.LC52
 3370 0708 403D0000 		.word	15680
 3371 070c 09010000 		.word	265
 3372 0710 40048400 		.word	8651840
 3373 0714 05000000 		.word	5
 3374 0718 00000000 		.word	__compound_literal.144
 3375 071c 01000000 		.word	1
 3376 0720 00000000 		.word	__compound_literal.145
 3377 0724 01000000 		.word	1
 3378 0728 00000000 		.word	__compound_literal.146
 3379 072c 47040000 		.word	.LC53
 3380 0730 806F0100 		.word	94080
 3381 0734 09010000 		.word	265
 3382 0738 40040400 		.word	263232
 3383 073c 05000000 		.word	5
 3384 0740 00000000 		.word	__compound_literal.147
ARM GAS  C:\Users\DJESSOU\AppData\Local\Temp\ccfF5lhd.s 			page 99


 3385 0744 01000000 		.word	1
 3386 0748 00000000 		.word	__compound_literal.148
 3387 074c 01000000 		.word	1
 3388 0750 00000000 		.word	__compound_literal.149
 3389 0754 54040000 		.word	.LC54
 3390 0758 C0B70000 		.word	47040
 3391 075c 09010000 		.word	265
 3392 0760 40040400 		.word	263232
 3393 0764 05000000 		.word	5
 3394 0768 00000000 		.word	__compound_literal.150
 3395 076c 01000000 		.word	1
 3396 0770 00000000 		.word	__compound_literal.151
 3397 0774 01000000 		.word	1
 3398 0778 00000000 		.word	__compound_literal.152
 3399 077c 70040000 		.word	.LC55
 3400 0780 C0B70000 		.word	47040
 3401 0784 09010000 		.word	265
 3402 0788 40040400 		.word	263232
 3403 078c 05000000 		.word	5
 3404 0790 00000000 		.word	__compound_literal.153
 3405 0794 01000000 		.word	1
 3406 0798 00000000 		.word	__compound_literal.154
 3407 079c 01000000 		.word	1
 3408 07a0 00000000 		.word	__compound_literal.155
 3409 07a4 A4040000 		.word	.LC56
 3410 07a8 C0B70000 		.word	47040
 3411 07ac 89000000 		.word	137
 3412 07b0 40040400 		.word	263232
 3413 07b4 04000000 		.word	4
 3414 07b8 00000000 		.word	__compound_literal.156
 3415 07bc 01000000 		.word	1
 3416 07c0 00000000 		.word	__compound_literal.157
 3417 07c4 01000000 		.word	1
 3418 07c8 00000000 		.word	__compound_literal.158
 3419 07cc D8040000 		.word	.LC57
 3420 07d0 C0B70000 		.word	47040
 3421 07d4 89000000 		.word	137
 3422 07d8 40040400 		.word	263232
 3423 07dc 04000000 		.word	4
 3424 07e0 00000000 		.word	__compound_literal.159
 3425 07e4 01000000 		.word	1
 3426 07e8 00000000 		.word	__compound_literal.160
 3427 07ec 01000000 		.word	1
 3428 07f0 00000000 		.word	__compound_literal.161
 3429 07f4 1C050000 		.word	.LC58
 3430 07f8 C0B70000 		.word	47040
 3431 07fc 09010000 		.word	265
 3432 0800 40040400 		.word	263232
 3433 0804 05000000 		.word	5
 3434 0808 00000000 		.word	__compound_literal.162
 3435 080c 01000000 		.word	1
 3436 0810 00000000 		.word	__compound_literal.163
 3437 0814 01000000 		.word	1
 3438 0818 00000000 		.word	__compound_literal.164
 3439 081c 60050000 		.word	.LC59
 3440 0820 C0B70000 		.word	47040
 3441 0824 09010000 		.word	265
ARM GAS  C:\Users\DJESSOU\AppData\Local\Temp\ccfF5lhd.s 			page 100


 3442 0828 40040400 		.word	263232
 3443 082c 05000000 		.word	5
 3444 0830 00000000 		.word	__compound_literal.165
 3445 0834 01000000 		.word	1
 3446 0838 00000000 		.word	__compound_literal.166
 3447 083c 01000000 		.word	1
 3448 0840 00000000 		.word	__compound_literal.167
 3449 0844 69050000 		.word	.LC60
 3450 0848 806F0100 		.word	94080
 3451 084c 09010000 		.word	265
 3452 0850 40040400 		.word	263232
 3453 0854 05000000 		.word	5
 3454 0858 00000000 		.word	__compound_literal.168
 3455 085c 01000000 		.word	1
 3456 0860 00000000 		.word	__compound_literal.169
 3457 0864 01000000 		.word	1
 3458 0868 00000000 		.word	__compound_literal.170
 3459 086c 72050000 		.word	.LC61
 3460 0870 403D0000 		.word	15680
 3461 0874 09010000 		.word	265
 3462 0878 40048400 		.word	8651840
 3463 087c 05000000 		.word	5
 3464 0880 00000000 		.word	__compound_literal.171
 3465 0884 01000000 		.word	1
 3466 0888 00000000 		.word	__compound_literal.172
 3467 088c 01000000 		.word	1
 3468 0890 00000000 		.word	__compound_literal.173
 3469 0894 8E050000 		.word	.LC62
 3470 0898 806F0100 		.word	94080
 3471 089c 89000000 		.word	137
 3472 08a0 40040400 		.word	263232
 3473 08a4 04000000 		.word	4
 3474 08a8 00000000 		.word	__compound_literal.174
 3475 08ac 01000000 		.word	1
 3476 08b0 00000000 		.word	__compound_literal.175
 3477 08b4 01000000 		.word	1
 3478 08b8 00000000 		.word	__compound_literal.176
 3479 08bc 9C050000 		.word	.LC63
 3480 08c0 806F0100 		.word	94080
 3481 08c4 89000000 		.word	137
 3482 08c8 40040400 		.word	263232
 3483 08cc 04000000 		.word	4
 3484 08d0 00000000 		.word	__compound_literal.177
 3485 08d4 01000000 		.word	1
 3486 08d8 00000000 		.word	__compound_literal.178
 3487 08dc 01000000 		.word	1
 3488 08e0 00000000 		.word	__compound_literal.179
 3489 08e4 B8050000 		.word	.LC64
 3490 08e8 C0550000 		.word	21952
 3491 08ec 89000000 		.word	137
 3492 08f0 40048400 		.word	8651840
 3493 08f4 04000000 		.word	4
 3494 08f8 00000000 		.word	__compound_literal.180
 3495 08fc 01000000 		.word	1
 3496 0900 00000000 		.word	__compound_literal.181
 3497 0904 01000000 		.word	1
 3498 0908 00000000 		.word	__compound_literal.182
ARM GAS  C:\Users\DJESSOU\AppData\Local\Temp\ccfF5lhd.s 			page 101


 3499 090c D4050000 		.word	.LC65
 3500 0910 00050400 		.word	263424
 3501 0914 09010000 		.word	265
 3502 0918 4F088400 		.word	8652879
 3503 091c 05000000 		.word	5
 3504 0920 00000000 		.word	__compound_literal.183
 3505 0924 00000000 		.word	0
 3506 0928 00000000 		.word	0
 3507 092c 00000000 		.word	0
 3508 0930 00000000 		.word	0
 3509 0934 F0050000 		.word	.LC66
 3510 0938 80020200 		.word	131712
 3511 093c 89000000 		.word	137
 3512 0940 40040400 		.word	263232
 3513 0944 04000000 		.word	4
 3514 0948 00000000 		.word	__compound_literal.184
 3515 094c 01000000 		.word	1
 3516 0950 00000000 		.word	__compound_literal.185
 3517 0954 01000000 		.word	1
 3518 0958 00000000 		.word	__compound_literal.186
 3519 095c 1C060000 		.word	.LC67
 3520 0960 80020200 		.word	131712
 3521 0964 89000000 		.word	137
 3522 0968 40040400 		.word	263232
 3523 096c 04000000 		.word	4
 3524 0970 00000000 		.word	__compound_literal.187
 3525 0974 01000000 		.word	1
 3526 0978 00000000 		.word	__compound_literal.188
 3527 097c 01000000 		.word	1
 3528 0980 00000000 		.word	__compound_literal.189
 3529 0984 38060000 		.word	.LC68
 3530 0988 80AB0000 		.word	43904
 3531 098c 09010000 		.word	265
 3532 0990 4F088400 		.word	8652879
 3533 0994 05000000 		.word	5
 3534 0998 00000000 		.word	__compound_literal.190
 3535 099c 00000000 		.word	0
 3536 09a0 00000000 		.word	0
 3537 09a4 00000000 		.word	0
 3538 09a8 00000000 		.word	0
 3539 09ac 54060000 		.word	.LC69
 3540 09b0 C0550000 		.word	21952
 3541 09b4 89000000 		.word	137
 3542 09b8 40048400 		.word	8651840
 3543 09bc 04000000 		.word	4
 3544 09c0 00000000 		.word	__compound_literal.191
 3545 09c4 01000000 		.word	1
 3546 09c8 00000000 		.word	__compound_literal.192
 3547 09cc 01000000 		.word	1
 3548 09d0 00000000 		.word	__compound_literal.193
 3549 09d4 77060000 		.word	.LC70
 3550 09d8 00050400 		.word	263424
 3551 09dc 09010000 		.word	265
 3552 09e0 4F088400 		.word	8652879
 3553 09e4 05000000 		.word	5
 3554 09e8 00000000 		.word	__compound_literal.194
 3555 09ec 00000000 		.word	0
ARM GAS  C:\Users\DJESSOU\AppData\Local\Temp\ccfF5lhd.s 			page 102


 3556 09f0 00000000 		.word	0
 3557 09f4 00000000 		.word	0
 3558 09f8 00000000 		.word	0
 3559 09fc 85060000 		.word	.LC71
 3560 0a00 80020200 		.word	131712
 3561 0a04 89000000 		.word	137
 3562 0a08 40040400 		.word	263232
 3563 0a0c 04000000 		.word	4
 3564 0a10 00000000 		.word	__compound_literal.195
 3565 0a14 01000000 		.word	1
 3566 0a18 00000000 		.word	__compound_literal.196
 3567 0a1c 01000000 		.word	1
 3568 0a20 00000000 		.word	__compound_literal.197
 3569 0a24 B1060000 		.word	.LC72
 3570 0a28 80020200 		.word	131712
 3571 0a2c 89000000 		.word	137
 3572 0a30 40040400 		.word	263232
 3573 0a34 04000000 		.word	4
 3574 0a38 00000000 		.word	__compound_literal.198
 3575 0a3c 01000000 		.word	1
 3576 0a40 00000000 		.word	__compound_literal.199
 3577 0a44 01000000 		.word	1
 3578 0a48 00000000 		.word	__compound_literal.200
 3579 0a4c CD060000 		.word	.LC73
 3580 0a50 80AB0000 		.word	43904
 3581 0a54 09010000 		.word	265
 3582 0a58 4F088400 		.word	8652879
 3583 0a5c 05000000 		.word	5
 3584 0a60 00000000 		.word	__compound_literal.201
 3585 0a64 00000000 		.word	0
 3586 0a68 00000000 		.word	0
 3587 0a6c 00000000 		.word	0
 3588 0a70 00000000 		.word	0
 3589 0a74 E9060000 		.word	.LC74
 3590 0a78 C0550000 		.word	21952
 3591 0a7c 89000000 		.word	137
 3592 0a80 40048400 		.word	8651840
 3593 0a84 04000000 		.word	4
 3594 0a88 00000000 		.word	__compound_literal.202
 3595 0a8c 01000000 		.word	1
 3596 0a90 00000000 		.word	__compound_literal.203
 3597 0a94 01000000 		.word	1
 3598 0a98 00000000 		.word	__compound_literal.204
 3599 0a9c 0C070000 		.word	.LC75
 3600 0aa0 00050400 		.word	263424
 3601 0aa4 09010000 		.word	265
 3602 0aa8 4F088400 		.word	8652879
 3603 0aac 05000000 		.word	5
 3604 0ab0 00000000 		.word	__compound_literal.205
 3605 0ab4 00000000 		.word	0
 3606 0ab8 00000000 		.word	0
 3607 0abc 00000000 		.word	0
 3608 0ac0 00000000 		.word	0
 3609 0ac4 1A070000 		.word	.LC76
 3610 0ac8 80020200 		.word	131712
 3611 0acc 89000000 		.word	137
 3612 0ad0 40040400 		.word	263232
ARM GAS  C:\Users\DJESSOU\AppData\Local\Temp\ccfF5lhd.s 			page 103


 3613 0ad4 04000000 		.word	4
 3614 0ad8 00000000 		.word	__compound_literal.206
 3615 0adc 01000000 		.word	1
 3616 0ae0 00000000 		.word	__compound_literal.207
 3617 0ae4 01000000 		.word	1
 3618 0ae8 00000000 		.word	__compound_literal.208
 3619 0aec 46070000 		.word	.LC77
 3620 0af0 A0800000 		.word	32928
 3621 0af4 89000000 		.word	137
 3622 0af8 40040400 		.word	263232
 3623 0afc 04000000 		.word	4
 3624 0b00 00000000 		.word	__compound_literal.209
 3625 0b04 01000000 		.word	1
 3626 0b08 00000000 		.word	__compound_literal.210
 3627 0b0c 01000000 		.word	1
 3628 0b10 00000000 		.word	__compound_literal.211
 3629 0b14 62070000 		.word	.LC78
 3630 0b18 80490000 		.word	18816
 3631 0b1c 09010000 		.word	265
 3632 0b20 4F088400 		.word	8652879
 3633 0b24 05000000 		.word	5
 3634 0b28 00000000 		.word	__compound_literal.212
 3635 0b2c 00000000 		.word	0
 3636 0b30 00000000 		.word	0
 3637 0b34 00000000 		.word	0
 3638 0b38 00000000 		.word	0
 3639 0b3c 7E070000 		.word	.LC79
 3640 0b40 C0240000 		.word	9408
 3641 0b44 09010000 		.word	265
 3642 0b48 40048400 		.word	8651840
 3643 0b4c 05000000 		.word	5
 3644 0b50 00000000 		.word	__compound_literal.213
 3645 0b54 01000000 		.word	1
 3646 0b58 00000000 		.word	__compound_literal.214
 3647 0b5c 01000000 		.word	1
 3648 0b60 00000000 		.word	__compound_literal.215
 3649 0b64 A1070000 		.word	.LC80
 3650 0b68 00B90100 		.word	112896
 3651 0b6c 09010000 		.word	265
 3652 0b70 4F088400 		.word	8652879
 3653 0b74 05000000 		.word	5
 3654 0b78 00000000 		.word	__compound_literal.216
 3655 0b7c 00000000 		.word	0
 3656 0b80 00000000 		.word	0
 3657 0b84 00000000 		.word	0
 3658 0b88 00000000 		.word	0
 3659 0b8c BD070000 		.word	.LC81
 3660 0b90 80DC0000 		.word	56448
 3661 0b94 89000000 		.word	137
 3662 0b98 40040400 		.word	263232
 3663 0b9c 04000000 		.word	4
 3664 0ba0 00000000 		.word	__compound_literal.217
 3665 0ba4 01000000 		.word	1
 3666 0ba8 00000000 		.word	__compound_literal.218
 3667 0bac 01000000 		.word	1
 3668 0bb0 00000000 		.word	__compound_literal.219
 3669 0bb4 E9070000 		.word	.LC82
ARM GAS  C:\Users\DJESSOU\AppData\Local\Temp\ccfF5lhd.s 			page 104


 3670 0bb8 80DC0000 		.word	56448
 3671 0bbc 89000000 		.word	137
 3672 0bc0 40040400 		.word	263232
 3673 0bc4 04000000 		.word	4
 3674 0bc8 00000000 		.word	__compound_literal.220
 3675 0bcc 01000000 		.word	1
 3676 0bd0 00000000 		.word	__compound_literal.221
 3677 0bd4 01000000 		.word	1
 3678 0bd8 00000000 		.word	__compound_literal.222
 3679 0bdc 05080000 		.word	.LC83
 3680 0be0 C0240000 		.word	9408
 3681 0be4 09010000 		.word	265
 3682 0be8 4F088400 		.word	8652879
 3683 0bec 05000000 		.word	5
 3684 0bf0 00000000 		.word	__compound_literal.223
 3685 0bf4 00000000 		.word	0
 3686 0bf8 00000000 		.word	0
 3687 0bfc 00000000 		.word	0
 3688 0c00 00000000 		.word	0
 3689 0c04 21080000 		.word	.LC84
 3690 0c08 60120000 		.word	4704
 3691 0c0c 09010000 		.word	265
 3692 0c10 40048400 		.word	8651840
 3693 0c14 05000000 		.word	5
 3694 0c18 00000000 		.word	__compound_literal.224
 3695 0c1c 01000000 		.word	1
 3696 0c20 00000000 		.word	__compound_literal.225
 3697 0c24 01000000 		.word	1
 3698 0c28 00000000 		.word	__compound_literal.226
 3699 0c2c 42080000 		.word	.LC85
 3700 0c30 C0240000 		.word	9408
 3701 0c34 09010000 		.word	265
 3702 0c38 4F088400 		.word	8652879
 3703 0c3c 05000000 		.word	5
 3704 0c40 00000000 		.word	__compound_literal.227
 3705 0c44 00000000 		.word	0
 3706 0c48 00000000 		.word	0
 3707 0c4c 00000000 		.word	0
 3708 0c50 00000000 		.word	0
 3709 0c54 4B080000 		.word	.LC86
 3710 0c58 60120000 		.word	4704
 3711 0c5c 09010000 		.word	265
 3712 0c60 40048400 		.word	8651840
 3713 0c64 05000000 		.word	5
 3714 0c68 00000000 		.word	__compound_literal.228
 3715 0c6c 01000000 		.word	1
 3716 0c70 00000000 		.word	__compound_literal.229
 3717 0c74 01000000 		.word	1
 3718 0c78 00000000 		.word	__compound_literal.230
 3719 0c7c 6C080000 		.word	.LC87
 3720 0c80 C0240000 		.word	9408
 3721 0c84 09010000 		.word	265
 3722 0c88 40048400 		.word	8651840
 3723 0c8c 05000000 		.word	5
 3724 0c90 00000000 		.word	__compound_literal.231
 3725 0c94 01000000 		.word	1
 3726 0c98 00000000 		.word	__compound_literal.232
ARM GAS  C:\Users\DJESSOU\AppData\Local\Temp\ccfF5lhd.s 			page 105


 3727 0c9c 01000000 		.word	1
 3728 0ca0 00000000 		.word	__compound_literal.233
 3729 0ca4 75080000 		.word	.LC88
 3730 0ca8 C0240000 		.word	9408
 3731 0cac 09010000 		.word	265
 3732 0cb0 40048400 		.word	8651840
 3733 0cb4 05000000 		.word	5
 3734 0cb8 00000000 		.word	__compound_literal.234
 3735 0cbc 01000000 		.word	1
 3736 0cc0 00000000 		.word	__compound_literal.235
 3737 0cc4 01000000 		.word	1
 3738 0cc8 00000000 		.word	__compound_literal.236
 3739 0ccc 91080000 		.word	.LC89
 3740 0cd0 00B90100 		.word	112896
 3741 0cd4 09010000 		.word	265
 3742 0cd8 4F088400 		.word	8652879
 3743 0cdc 05000000 		.word	5
 3744 0ce0 00000000 		.word	__compound_literal.237
 3745 0ce4 00000000 		.word	0
 3746 0ce8 00000000 		.word	0
 3747 0cec 00000000 		.word	0
 3748 0cf0 00000000 		.word	0
 3749 0cf4 9F080000 		.word	.LC90
 3750 0cf8 80DC0000 		.word	56448
 3751 0cfc 89000000 		.word	137
 3752 0d00 40040400 		.word	263232
 3753 0d04 04000000 		.word	4
 3754 0d08 00000000 		.word	__compound_literal.238
 3755 0d0c 01000000 		.word	1
 3756 0d10 00000000 		.word	__compound_literal.239
 3757 0d14 01000000 		.word	1
 3758 0d18 00000000 		.word	__compound_literal.240
 3759 0d1c CB080000 		.word	.LC91
 3760 0d20 80DC0000 		.word	56448
 3761 0d24 89000000 		.word	137
 3762 0d28 40040400 		.word	263232
 3763 0d2c 04000000 		.word	4
 3764 0d30 00000000 		.word	__compound_literal.241
 3765 0d34 01000000 		.word	1
 3766 0d38 00000000 		.word	__compound_literal.242
 3767 0d3c 01000000 		.word	1
 3768 0d40 00000000 		.word	__compound_literal.243
 3769 0d44 E7080000 		.word	.LC92
 3770 0d48 C0240000 		.word	9408
 3771 0d4c 09010000 		.word	265
 3772 0d50 4F088400 		.word	8652879
 3773 0d54 05000000 		.word	5
 3774 0d58 00000000 		.word	__compound_literal.244
 3775 0d5c 00000000 		.word	0
 3776 0d60 00000000 		.word	0
 3777 0d64 00000000 		.word	0
 3778 0d68 00000000 		.word	0
 3779 0d6c 03090000 		.word	.LC93
 3780 0d70 60120000 		.word	4704
 3781 0d74 09010000 		.word	265
 3782 0d78 40048400 		.word	8651840
 3783 0d7c 05000000 		.word	5
ARM GAS  C:\Users\DJESSOU\AppData\Local\Temp\ccfF5lhd.s 			page 106


 3784 0d80 00000000 		.word	__compound_literal.245
 3785 0d84 01000000 		.word	1
 3786 0d88 00000000 		.word	__compound_literal.246
 3787 0d8c 01000000 		.word	1
 3788 0d90 00000000 		.word	__compound_literal.247
 3789 0d94 24090000 		.word	.LC94
 3790 0d98 C0240000 		.word	9408
 3791 0d9c 09010000 		.word	265
 3792 0da0 4F088400 		.word	8652879
 3793 0da4 05000000 		.word	5
 3794 0da8 00000000 		.word	__compound_literal.248
 3795 0dac 00000000 		.word	0
 3796 0db0 00000000 		.word	0
 3797 0db4 00000000 		.word	0
 3798 0db8 00000000 		.word	0
 3799 0dbc 2D090000 		.word	.LC95
 3800 0dc0 60120000 		.word	4704
 3801 0dc4 09010000 		.word	265
 3802 0dc8 40048400 		.word	8651840
 3803 0dcc 05000000 		.word	5
 3804 0dd0 00000000 		.word	__compound_literal.249
 3805 0dd4 01000000 		.word	1
 3806 0dd8 00000000 		.word	__compound_literal.250
 3807 0ddc 01000000 		.word	1
 3808 0de0 00000000 		.word	__compound_literal.251
 3809 0de4 4E090000 		.word	.LC96
 3810 0de8 C0240000 		.word	9408
 3811 0dec 09010000 		.word	265
 3812 0df0 40048400 		.word	8651840
 3813 0df4 05000000 		.word	5
 3814 0df8 00000000 		.word	__compound_literal.252
 3815 0dfc 01000000 		.word	1
 3816 0e00 00000000 		.word	__compound_literal.253
 3817 0e04 01000000 		.word	1
 3818 0e08 00000000 		.word	__compound_literal.254
 3819 0e0c 57090000 		.word	.LC97
 3820 0e10 C0240000 		.word	9408
 3821 0e14 09010000 		.word	265
 3822 0e18 40048400 		.word	8651840
 3823 0e1c 05000000 		.word	5
 3824 0e20 00000000 		.word	__compound_literal.255
 3825 0e24 01000000 		.word	1
 3826 0e28 00000000 		.word	__compound_literal.256
 3827 0e2c 01000000 		.word	1
 3828 0e30 00000000 		.word	__compound_literal.257
 3829 0e34 73090000 		.word	.LC98
 3830 0e38 00B90100 		.word	112896
 3831 0e3c 09010000 		.word	265
 3832 0e40 4F088400 		.word	8652879
 3833 0e44 05000000 		.word	5
 3834 0e48 00000000 		.word	__compound_literal.258
 3835 0e4c 00000000 		.word	0
 3836 0e50 00000000 		.word	0
 3837 0e54 00000000 		.word	0
 3838 0e58 00000000 		.word	0
 3839 0e5c 81090000 		.word	.LC99
 3840 0e60 80DC0000 		.word	56448
ARM GAS  C:\Users\DJESSOU\AppData\Local\Temp\ccfF5lhd.s 			page 107


 3841 0e64 89000000 		.word	137
 3842 0e68 40040400 		.word	263232
 3843 0e6c 04000000 		.word	4
 3844 0e70 00000000 		.word	__compound_literal.259
 3845 0e74 01000000 		.word	1
 3846 0e78 00000000 		.word	__compound_literal.260
 3847 0e7c 01000000 		.word	1
 3848 0e80 00000000 		.word	__compound_literal.261
 3849 0e84 AD090000 		.word	.LC100
 3850 0e88 80DC0000 		.word	56448
 3851 0e8c 89000000 		.word	137
 3852 0e90 40040400 		.word	263232
 3853 0e94 04000000 		.word	4
 3854 0e98 00000000 		.word	__compound_literal.262
 3855 0e9c 01000000 		.word	1
 3856 0ea0 00000000 		.word	__compound_literal.263
 3857 0ea4 01000000 		.word	1
 3858 0ea8 00000000 		.word	__compound_literal.264
 3859 0eac C9090000 		.word	.LC101
 3860 0eb0 C0240000 		.word	9408
 3861 0eb4 09010000 		.word	265
 3862 0eb8 4F088400 		.word	8652879
 3863 0ebc 05000000 		.word	5
 3864 0ec0 00000000 		.word	__compound_literal.265
 3865 0ec4 00000000 		.word	0
 3866 0ec8 00000000 		.word	0
 3867 0ecc 00000000 		.word	0
 3868 0ed0 00000000 		.word	0
 3869 0ed4 E5090000 		.word	.LC102
 3870 0ed8 60120000 		.word	4704
 3871 0edc 09010000 		.word	265
 3872 0ee0 40048400 		.word	8651840
 3873 0ee4 05000000 		.word	5
 3874 0ee8 00000000 		.word	__compound_literal.266
 3875 0eec 01000000 		.word	1
 3876 0ef0 00000000 		.word	__compound_literal.267
 3877 0ef4 01000000 		.word	1
 3878 0ef8 00000000 		.word	__compound_literal.268
 3879 0efc 060A0000 		.word	.LC103
 3880 0f00 C0240000 		.word	9408
 3881 0f04 09010000 		.word	265
 3882 0f08 4F088400 		.word	8652879
 3883 0f0c 05000000 		.word	5
 3884 0f10 00000000 		.word	__compound_literal.269
 3885 0f14 00000000 		.word	0
 3886 0f18 00000000 		.word	0
 3887 0f1c 00000000 		.word	0
 3888 0f20 00000000 		.word	0
 3889 0f24 0F0A0000 		.word	.LC104
 3890 0f28 60120000 		.word	4704
 3891 0f2c 09010000 		.word	265
 3892 0f30 40048400 		.word	8651840
 3893 0f34 05000000 		.word	5
 3894 0f38 00000000 		.word	__compound_literal.270
 3895 0f3c 01000000 		.word	1
 3896 0f40 00000000 		.word	__compound_literal.271
 3897 0f44 01000000 		.word	1
ARM GAS  C:\Users\DJESSOU\AppData\Local\Temp\ccfF5lhd.s 			page 108


 3898 0f48 00000000 		.word	__compound_literal.272
 3899 0f4c 300A0000 		.word	.LC105
 3900 0f50 C0240000 		.word	9408
 3901 0f54 09010000 		.word	265
 3902 0f58 40048400 		.word	8651840
 3903 0f5c 05000000 		.word	5
 3904 0f60 00000000 		.word	__compound_literal.273
 3905 0f64 01000000 		.word	1
 3906 0f68 00000000 		.word	__compound_literal.274
 3907 0f6c 01000000 		.word	1
 3908 0f70 00000000 		.word	__compound_literal.275
 3909 0f74 390A0000 		.word	.LC106
 3910 0f78 C0240000 		.word	9408
 3911 0f7c 09010000 		.word	265
 3912 0f80 40048400 		.word	8651840
 3913 0f84 05000000 		.word	5
 3914 0f88 00000000 		.word	__compound_literal.276
 3915 0f8c 01000000 		.word	1
 3916 0f90 00000000 		.word	__compound_literal.277
 3917 0f94 01000000 		.word	1
 3918 0f98 00000000 		.word	__compound_literal.278
 3919 0f9c 550A0000 		.word	.LC107
 3920 0fa0 00B90100 		.word	112896
 3921 0fa4 09010000 		.word	265
 3922 0fa8 4F088400 		.word	8652879
 3923 0fac 05000000 		.word	5
 3924 0fb0 00000000 		.word	__compound_literal.279
 3925 0fb4 00000000 		.word	0
 3926 0fb8 00000000 		.word	0
 3927 0fbc 00000000 		.word	0
 3928 0fc0 00000000 		.word	0
 3929 0fc4 630A0000 		.word	.LC108
 3930 0fc8 80DC0000 		.word	56448
 3931 0fcc 89000000 		.word	137
 3932 0fd0 40040400 		.word	263232
 3933 0fd4 04000000 		.word	4
 3934 0fd8 00000000 		.word	__compound_literal.280
 3935 0fdc 01000000 		.word	1
 3936 0fe0 00000000 		.word	__compound_literal.281
 3937 0fe4 01000000 		.word	1
 3938 0fe8 00000000 		.word	__compound_literal.282
 3939 0fec 8F0A0000 		.word	.LC109
 3940 0ff0 80040000 		.word	1152
 3941 0ff4 89000000 		.word	137
 3942 0ff8 40048400 		.word	8651840
 3943 0ffc 04000000 		.word	4
 3944 1000 00000000 		.word	__compound_literal.283
 3945 1004 01000000 		.word	1
 3946 1008 00000000 		.word	__compound_literal.284
 3947 100c 01000000 		.word	1
 3948 1010 00000000 		.word	__compound_literal.285
 3949 1014 AB0A0000 		.word	.LC110
 3950 1018 80040000 		.word	1152
 3951 101c 09000000 		.word	9
 3952 1020 40048400 		.word	8651840
 3953 1024 02000000 		.word	2
 3954 1028 00000000 		.word	__compound_literal.286
ARM GAS  C:\Users\DJESSOU\AppData\Local\Temp\ccfF5lhd.s 			page 109


 3955 102c 01000000 		.word	1
 3956 1030 00000000 		.word	__compound_literal.287
 3957 1034 01000000 		.word	1
 3958 1038 00000000 		.word	__compound_literal.288
 3959 103c CA0A0000 		.word	.LC111
 3960 1040 80040000 		.word	1152
 3961 1044 89000000 		.word	137
 3962 1048 40048400 		.word	8651840
 3963 104c 04000000 		.word	4
 3964 1050 00000000 		.word	__compound_literal.289
 3965 1054 01000000 		.word	1
 3966 1058 00000000 		.word	__compound_literal.290
 3967 105c 01000000 		.word	1
 3968 1060 00000000 		.word	__compound_literal.291
 3969 1064 DC0A0000 		.word	.LC112
 3970 1068 80040000 		.word	1152
 3971 106c 89000000 		.word	137
 3972 1070 40048400 		.word	8651840
 3973 1074 04000000 		.word	4
 3974 1078 00000000 		.word	__compound_literal.292
 3975 107c 01000000 		.word	1
 3976 1080 00000000 		.word	__compound_literal.293
 3977 1084 01000000 		.word	1
 3978 1088 00000000 		.word	__compound_literal.294
 3979 108c F20A0000 		.word	.LC113
 3980 1090 80040000 		.word	1152
 3981 1094 89000000 		.word	137
 3982 1098 40048400 		.word	8651840
 3983 109c 04000000 		.word	4
 3984 10a0 00000000 		.word	__compound_literal.295
 3985 10a4 01000000 		.word	1
 3986 10a8 00000000 		.word	__compound_literal.296
 3987 10ac 01000000 		.word	1
 3988 10b0 00000000 		.word	__compound_literal.297
 3989 10b4 070B0000 		.word	.LC114
 3990 10b8 80040000 		.word	1152
 3991 10bc 89000000 		.word	137
 3992 10c0 40048400 		.word	8651840
 3993 10c4 04000000 		.word	4
 3994 10c8 00000000 		.word	__compound_literal.298
 3995 10cc 01000000 		.word	1
 3996 10d0 00000000 		.word	__compound_literal.299
 3997 10d4 01000000 		.word	1
 3998 10d8 00000000 		.word	__compound_literal.300
 3999 10dc 1C0B0000 		.word	.LC115
 4000 10e0 80040000 		.word	1152
 4001 10e4 09010000 		.word	265
 4002 10e8 40040400 		.word	263232
 4003 10ec 05000000 		.word	5
 4004 10f0 00000000 		.word	__compound_literal.301
 4005 10f4 01000000 		.word	1
 4006 10f8 00000000 		.word	__compound_literal.302
 4007 10fc 01000000 		.word	1
 4008 1100 00000000 		.word	__compound_literal.303
 4009 1104 320B0000 		.word	.LC116
 4010 1108 80040000 		.word	1152
 4011 110c 09010000 		.word	265
ARM GAS  C:\Users\DJESSOU\AppData\Local\Temp\ccfF5lhd.s 			page 110


 4012 1110 40040400 		.word	263232
 4013 1114 05000000 		.word	5
 4014 1118 00000000 		.word	__compound_literal.304
 4015 111c 01000000 		.word	1
 4016 1120 00000000 		.word	__compound_literal.305
 4017 1124 01000000 		.word	1
 4018 1128 00000000 		.word	__compound_literal.306
 4019 112c 540B0000 		.word	.LC117
 4020 1130 80040000 		.word	1152
 4021 1134 09010000 		.word	265
 4022 1138 40040400 		.word	263232
 4023 113c 05000000 		.word	5
 4024 1140 00000000 		.word	__compound_literal.307
 4025 1144 01000000 		.word	1
 4026 1148 00000000 		.word	__compound_literal.308
 4027 114c 01000000 		.word	1
 4028 1150 00000000 		.word	__compound_literal.309
 4029 1154 750B0000 		.word	.LC118
 4030 1158 80040000 		.word	1152
 4031 115c 09010000 		.word	265
 4032 1160 40040400 		.word	263232
 4033 1164 05000000 		.word	5
 4034 1168 00000000 		.word	__compound_literal.310
 4035 116c 01000000 		.word	1
 4036 1170 00000000 		.word	__compound_literal.311
 4037 1174 01000000 		.word	1
 4038 1178 00000000 		.word	__compound_literal.312
 4039 117c 970B0000 		.word	.LC119
 4040 1180 3F000000 		.word	63
 4041 1184 89000000 		.word	137
 4042 1188 40048400 		.word	8651840
 4043 118c 04000000 		.word	4
 4044 1190 00000000 		.word	__compound_literal.313
 4045 1194 01000000 		.word	1
 4046 1198 00000000 		.word	__compound_literal.314
 4047 119c 01000000 		.word	1
 4048 11a0 00000000 		.word	__compound_literal.315
 4049 11a4 B90B0000 		.word	.LC120
 4050 11a8 3F000000 		.word	63
 4051 11ac 09000000 		.word	9
 4052 11b0 40048400 		.word	8651840
 4053 11b4 02000000 		.word	2
 4054 11b8 00000000 		.word	__compound_literal.316
 4055 11bc 01000000 		.word	1
 4056 11c0 00000000 		.word	__compound_literal.317
 4057 11c4 01000000 		.word	1
 4058 11c8 00000000 		.word	__compound_literal.318
 4059 11cc DB0B0000 		.word	.LC121
 4060 11d0 01000000 		.word	1
 4061 11d4 09000000 		.word	9
 4062 11d8 40048400 		.word	8651840
 4063 11dc 02000000 		.word	2
 4064 11e0 00000000 		.word	__compound_literal.319
 4065 11e4 01000000 		.word	1
 4066 11e8 00000000 		.word	__compound_literal.320
 4067 11ec 01000000 		.word	1
 4068 11f0 00000000 		.word	__compound_literal.321
ARM GAS  C:\Users\DJESSOU\AppData\Local\Temp\ccfF5lhd.s 			page 111


 4069 11f4 EA0B0000 		.word	.LC122
 4070 11f8 01000000 		.word	1
 4071 11fc 09000000 		.word	9
 4072 1200 40048400 		.word	8651840
 4073 1204 02000000 		.word	2
 4074 1208 00000000 		.word	__compound_literal.322
 4075 120c 01000000 		.word	1
 4076 1210 00000000 		.word	__compound_literal.323
 4077 1214 01000000 		.word	1
 4078 1218 00000000 		.word	__compound_literal.324
 4079 121c FC0B0000 		.word	.LC123
 4080 1220 3F000000 		.word	63
 4081 1224 89000000 		.word	137
 4082 1228 40048400 		.word	8651840
 4083 122c 04000000 		.word	4
 4084 1230 00000000 		.word	__compound_literal.325
 4085 1234 01000000 		.word	1
 4086 1238 00000000 		.word	__compound_literal.326
 4087 123c 01000000 		.word	1
 4088 1240 00000000 		.word	__compound_literal.327
 4089 1244 0E0C0000 		.word	.LC124
 4090 1248 3F000000 		.word	63
 4091 124c 09000000 		.word	9
 4092 1250 40048400 		.word	8651840
 4093 1254 02000000 		.word	2
 4094 1258 00000000 		.word	__compound_literal.328
 4095 125c 01000000 		.word	1
 4096 1260 00000000 		.word	__compound_literal.329
 4097 1264 01000000 		.word	1
 4098 1268 00000000 		.word	__compound_literal.330
 4099 126c 300C0000 		.word	.LC125
 4100              		.section	.data.__compound_literal.330,"aw"
 4101              		.align	1
 4104              	__compound_literal.330:
 4105 0000 AFFF     		.short	-81
 4106              		.section	.data.__compound_literal.329,"aw"
 4107              		.align	2
 4110              	__compound_literal.329:
 4111 0000 065F613F 		.word	1063345926
 4112              		.section	.data.__compound_literal.328,"aw"
 4113              		.align	2
 4116              	__compound_literal.328:
 4117 0000 01000000 		.word	1
 4118 0004 3F000000 		.word	63
 4119              		.section	.data.__compound_literal.327,"aw"
 4120              		.align	1
 4123              	__compound_literal.327:
 4124 0000 AFFF     		.short	-81
 4125              		.section	.data.__compound_literal.326,"aw"
 4126              		.align	2
 4129              	__compound_literal.326:
 4130 0000 065F613F 		.word	1063345926
 4131              		.section	.data.__compound_literal.325,"aw"
 4132              		.align	2
 4135              	__compound_literal.325:
 4136 0000 01000000 		.word	1
 4137 0004 01000000 		.word	1
ARM GAS  C:\Users\DJESSOU\AppData\Local\Temp\ccfF5lhd.s 			page 112


 4138 0008 01000000 		.word	1
 4139 000c 3F000000 		.word	63
 4140              		.section	.data.__compound_literal.324,"aw"
 4141              		.align	1
 4144              	__compound_literal.324:
 4145 0000 80FF     		.short	-128
 4146              		.section	.data.__compound_literal.323,"aw"
 4147              		.align	2
 4150              	__compound_literal.323:
 4151 0000 0000803B 		.word	998244352
 4152              		.section	.data.__compound_literal.322,"aw"
 4153              		.align	2
 4156              	__compound_literal.322:
 4157 0000 01000000 		.word	1
 4158 0004 01000000 		.word	1
 4159              		.section	.data.__compound_literal.321,"aw"
 4160              		.align	1
 4163              	__compound_literal.321:
 4164 0000 80FF     		.short	-128
 4165              		.section	.data.__compound_literal.320,"aw"
 4166              		.align	2
 4169              	__compound_literal.320:
 4170 0000 0000803B 		.word	998244352
 4171              		.section	.data.__compound_literal.319,"aw"
 4172              		.align	2
 4175              	__compound_literal.319:
 4176 0000 01000000 		.word	1
 4177 0004 01000000 		.word	1
 4178              		.section	.data.__compound_literal.318,"aw"
 4179              		.align	1
 4182              	__compound_literal.318:
 4183 0000 F6FF     		.short	-10
 4184              		.section	.data.__compound_literal.317,"aw"
 4185              		.align	2
 4188              	__compound_literal.317:
 4189 0000 91A1413A 		.word	977379729
 4190              		.section	.data.__compound_literal.316,"aw"
 4191              		.align	2
 4194              	__compound_literal.316:
 4195 0000 01000000 		.word	1
 4196 0004 3F000000 		.word	63
 4197              		.section	.data.__compound_literal.315,"aw"
 4198              		.align	1
 4201              	__compound_literal.315:
 4202 0000 F6FF     		.short	-10
 4203              		.section	.data.__compound_literal.314,"aw"
 4204              		.align	2
 4207              	__compound_literal.314:
 4208 0000 91A1413A 		.word	977379729
 4209              		.section	.data.__compound_literal.313,"aw"
 4210              		.align	2
 4213              	__compound_literal.313:
 4214 0000 01000000 		.word	1
 4215 0004 01000000 		.word	1
 4216 0008 01000000 		.word	1
 4217 000c 3F000000 		.word	63
 4218              		.section	.bss.__compound_literal.312,"aw",%nobits
ARM GAS  C:\Users\DJESSOU\AppData\Local\Temp\ccfF5lhd.s 			page 113


 4219              		.align	1
 4222              	__compound_literal.312:
 4223 0000 0000     		.space	2
 4224              		.section	.data.__compound_literal.311,"aw"
 4225              		.align	2
 4228              	__compound_literal.311:
 4229 0000 E8DDB43C 		.word	1018486248
 4230              		.section	.data.__compound_literal.310,"aw"
 4231              		.align	2
 4234              	__compound_literal.310:
 4235 0000 01000000 		.word	1
 4236 0004 09000000 		.word	9
 4237 0008 01000000 		.word	1
 4238 000c 01000000 		.word	1
 4239 0010 80000000 		.word	128
 4240              		.section	.bss.__compound_literal.309,"aw",%nobits
 4241              		.align	1
 4244              	__compound_literal.309:
 4245 0000 0000     		.space	2
 4246              		.section	.data.__compound_literal.308,"aw"
 4247              		.align	2
 4250              	__compound_literal.308:
 4251 0000 E8DDB43C 		.word	1018486248
 4252              		.section	.data.__compound_literal.307,"aw"
 4253              		.align	2
 4256              	__compound_literal.307:
 4257 0000 01000000 		.word	1
 4258 0004 09000000 		.word	9
 4259 0008 01000000 		.word	1
 4260 000c 01000000 		.word	1
 4261 0010 80000000 		.word	128
 4262              		.section	.bss.__compound_literal.306,"aw",%nobits
 4263              		.align	1
 4266              	__compound_literal.306:
 4267 0000 0000     		.space	2
 4268              		.section	.data.__compound_literal.305,"aw"
 4269              		.align	2
 4272              	__compound_literal.305:
 4273 0000 E8DDB43C 		.word	1018486248
 4274              		.section	.data.__compound_literal.304,"aw"
 4275              		.align	2
 4278              	__compound_literal.304:
 4279 0000 01000000 		.word	1
 4280 0004 09000000 		.word	9
 4281 0008 01000000 		.word	1
 4282 000c 01000000 		.word	1
 4283 0010 80000000 		.word	128
 4284              		.section	.bss.__compound_literal.303,"aw",%nobits
 4285              		.align	1
 4288              	__compound_literal.303:
 4289 0000 0000     		.space	2
 4290              		.section	.data.__compound_literal.302,"aw"
 4291              		.align	2
 4294              	__compound_literal.302:
 4295 0000 E8DDB43C 		.word	1018486248
 4296              		.section	.data.__compound_literal.301,"aw"
 4297              		.align	2
ARM GAS  C:\Users\DJESSOU\AppData\Local\Temp\ccfF5lhd.s 			page 114


 4300              	__compound_literal.301:
 4301 0000 01000000 		.word	1
 4302 0004 09000000 		.word	9
 4303 0008 01000000 		.word	1
 4304 000c 01000000 		.word	1
 4305 0010 80000000 		.word	128
 4306              		.section	.data.__compound_literal.300,"aw"
 4307              		.align	1
 4310              	__compound_literal.300:
 4311 0000 80FF     		.short	-128
 4312              		.section	.data.__compound_literal.299,"aw"
 4313              		.align	2
 4316              	__compound_literal.299:
 4317 0000 E8DDB43C 		.word	1018486248
 4318              		.section	.data.__compound_literal.298,"aw"
 4319              		.align	2
 4322              	__compound_literal.298:
 4323 0000 01000000 		.word	1
 4324 0004 01000000 		.word	1
 4325 0008 01000000 		.word	1
 4326 000c 80040000 		.word	1152
 4327              		.section	.data.__compound_literal.297,"aw"
 4328              		.align	1
 4331              	__compound_literal.297:
 4332 0000 80FF     		.short	-128
 4333              		.section	.data.__compound_literal.296,"aw"
 4334              		.align	2
 4337              	__compound_literal.296:
 4338 0000 E8DDB43C 		.word	1018486248
 4339              		.section	.data.__compound_literal.295,"aw"
 4340              		.align	2
 4343              	__compound_literal.295:
 4344 0000 01000000 		.word	1
 4345 0004 01000000 		.word	1
 4346 0008 01000000 		.word	1
 4347 000c 80040000 		.word	1152
 4348              		.section	.data.__compound_literal.294,"aw"
 4349              		.align	1
 4352              	__compound_literal.294:
 4353 0000 80FF     		.short	-128
 4354              		.section	.data.__compound_literal.293,"aw"
 4355              		.align	2
 4358              	__compound_literal.293:
 4359 0000 E8DDB43C 		.word	1018486248
 4360              		.section	.data.__compound_literal.292,"aw"
 4361              		.align	2
 4364              	__compound_literal.292:
 4365 0000 01000000 		.word	1
 4366 0004 01000000 		.word	1
 4367 0008 01000000 		.word	1
 4368 000c 80040000 		.word	1152
 4369              		.section	.data.__compound_literal.291,"aw"
 4370              		.align	1
 4373              	__compound_literal.291:
 4374 0000 80FF     		.short	-128
 4375              		.section	.data.__compound_literal.290,"aw"
 4376              		.align	2
ARM GAS  C:\Users\DJESSOU\AppData\Local\Temp\ccfF5lhd.s 			page 115


 4379              	__compound_literal.290:
 4380 0000 E8DDB43C 		.word	1018486248
 4381              		.section	.data.__compound_literal.289,"aw"
 4382              		.align	2
 4385              	__compound_literal.289:
 4386 0000 01000000 		.word	1
 4387 0004 01000000 		.word	1
 4388 0008 01000000 		.word	1
 4389 000c 80040000 		.word	1152
 4390              		.section	.data.__compound_literal.288,"aw"
 4391              		.align	1
 4394              	__compound_literal.288:
 4395 0000 80FF     		.short	-128
 4396              		.section	.data.__compound_literal.287,"aw"
 4397              		.align	2
 4400              	__compound_literal.287:
 4401 0000 E8DDB43C 		.word	1018486248
 4402              		.section	.data.__compound_literal.286,"aw"
 4403              		.align	2
 4406              	__compound_literal.286:
 4407 0000 01000000 		.word	1
 4408 0004 80040000 		.word	1152
 4409              		.section	.data.__compound_literal.285,"aw"
 4410              		.align	1
 4413              	__compound_literal.285:
 4414 0000 80FF     		.short	-128
 4415              		.section	.data.__compound_literal.284,"aw"
 4416              		.align	2
 4419              	__compound_literal.284:
 4420 0000 E8DDB43C 		.word	1018486248
 4421              		.section	.data.__compound_literal.283,"aw"
 4422              		.align	2
 4425              	__compound_literal.283:
 4426 0000 01000000 		.word	1
 4427 0004 01000000 		.word	1
 4428 0008 01000000 		.word	1
 4429 000c 80040000 		.word	1152
 4430              		.section	.bss.__compound_literal.282,"aw",%nobits
 4431              		.align	1
 4434              	__compound_literal.282:
 4435 0000 0000     		.space	2
 4436              		.section	.data.__compound_literal.281,"aw"
 4437              		.align	2
 4440              	__compound_literal.281:
 4441 0000 C1C0C03C 		.word	1019265217
 4442              		.section	.data.__compound_literal.280,"aw"
 4443              		.align	2
 4446              	__compound_literal.280:
 4447 0000 01000000 		.word	1
 4448 0004 07000000 		.word	7
 4449 0008 07000000 		.word	7
 4450 000c 80040000 		.word	1152
 4451              		.section	.data.__compound_literal.279,"aw"
 4452              		.align	2
 4455              	__compound_literal.279:
 4456 0000 01000000 		.word	1
 4457 0004 30000000 		.word	48
ARM GAS  C:\Users\DJESSOU\AppData\Local\Temp\ccfF5lhd.s 			page 116


 4458 0008 07000000 		.word	7
 4459 000c 07000000 		.word	7
 4460 0010 18000000 		.word	24
 4461              		.section	.data.__compound_literal.278,"aw"
 4462              		.align	1
 4465              	__compound_literal.278:
 4466 0000 E9FF     		.short	-23
 4467              		.section	.data.__compound_literal.277,"aw"
 4468              		.align	2
 4471              	__compound_literal.277:
 4472 0000 4723313E 		.word	1043407687
 4473              		.section	.data.__compound_literal.276,"aw"
 4474              		.align	2
 4477              	__compound_literal.276:
 4478 0000 01000000 		.word	1
 4479 0004 08000000 		.word	8
 4480 0008 07000000 		.word	7
 4481 000c 07000000 		.word	7
 4482 0010 18000000 		.word	24
 4483              		.section	.data.__compound_literal.275,"aw"
 4484              		.align	1
 4487              	__compound_literal.275:
 4488 0000 EDFF     		.short	-19
 4489              		.section	.data.__compound_literal.274,"aw"
 4490              		.align	2
 4493              	__compound_literal.274:
 4494 0000 13AD703D 		.word	1030794515
 4495              		.section	.data.__compound_literal.273,"aw"
 4496              		.align	2
 4499              	__compound_literal.273:
 4500 0000 01000000 		.word	1
 4501 0004 08000000 		.word	8
 4502 0008 07000000 		.word	7
 4503 000c 07000000 		.word	7
 4504 0010 18000000 		.word	24
 4505              		.section	.data.__compound_literal.272,"aw"
 4506              		.align	1
 4509              	__compound_literal.272:
 4510 0000 EDFF     		.short	-19
 4511              		.section	.data.__compound_literal.271,"aw"
 4512              		.align	2
 4515              	__compound_literal.271:
 4516 0000 13AD703D 		.word	1030794515
 4517              		.section	.data.__compound_literal.270,"aw"
 4518              		.align	2
 4521              	__compound_literal.270:
 4522 0000 01000000 		.word	1
 4523 0004 04000000 		.word	4
 4524 0008 07000000 		.word	7
 4525 000c 07000000 		.word	7
 4526 0010 18000000 		.word	24
 4527              		.section	.data.__compound_literal.269,"aw"
 4528              		.align	2
 4531              	__compound_literal.269:
 4532 0000 01000000 		.word	1
 4533 0004 04000000 		.word	4
 4534 0008 07000000 		.word	7
ARM GAS  C:\Users\DJESSOU\AppData\Local\Temp\ccfF5lhd.s 			page 117


 4535 000c 07000000 		.word	7
 4536 0010 18000000 		.word	24
 4537              		.section	.data.__compound_literal.268,"aw"
 4538              		.align	1
 4541              	__compound_literal.268:
 4542 0000 EDFF     		.short	-19
 4543              		.section	.data.__compound_literal.267,"aw"
 4544              		.align	2
 4547              	__compound_literal.267:
 4548 0000 13AD703D 		.word	1030794515
 4549              		.section	.data.__compound_literal.266,"aw"
 4550              		.align	2
 4553              	__compound_literal.266:
 4554 0000 01000000 		.word	1
 4555 0004 04000000 		.word	4
 4556 0008 07000000 		.word	7
 4557 000c 07000000 		.word	7
 4558 0010 18000000 		.word	24
 4559              		.section	.data.__compound_literal.265,"aw"
 4560              		.align	2
 4563              	__compound_literal.265:
 4564 0000 01000000 		.word	1
 4565 0004 04000000 		.word	4
 4566 0008 07000000 		.word	7
 4567 000c 07000000 		.word	7
 4568 0010 18000000 		.word	24
 4569              		.section	.bss.__compound_literal.264,"aw",%nobits
 4570              		.align	1
 4573              	__compound_literal.264:
 4574 0000 0000     		.space	2
 4575              		.section	.data.__compound_literal.263,"aw"
 4576              		.align	2
 4579              	__compound_literal.263:
 4580 0000 C1C0C03C 		.word	1019265217
 4581              		.section	.data.__compound_literal.262,"aw"
 4582              		.align	2
 4585              	__compound_literal.262:
 4586 0000 01000000 		.word	1
 4587 0004 07000000 		.word	7
 4588 0008 07000000 		.word	7
 4589 000c 80040000 		.word	1152
 4590              		.section	.bss.__compound_literal.261,"aw",%nobits
 4591              		.align	1
 4594              	__compound_literal.261:
 4595 0000 0000     		.space	2
 4596              		.section	.data.__compound_literal.260,"aw"
 4597              		.align	2
 4600              	__compound_literal.260:
 4601 0000 C1C0C03C 		.word	1019265217
 4602              		.section	.data.__compound_literal.259,"aw"
 4603              		.align	2
 4606              	__compound_literal.259:
 4607 0000 01000000 		.word	1
 4608 0004 07000000 		.word	7
 4609 0008 07000000 		.word	7
 4610 000c 80040000 		.word	1152
 4611              		.section	.data.__compound_literal.258,"aw"
ARM GAS  C:\Users\DJESSOU\AppData\Local\Temp\ccfF5lhd.s 			page 118


 4612              		.align	2
 4615              	__compound_literal.258:
 4616 0000 01000000 		.word	1
 4617 0004 30000000 		.word	48
 4618 0008 07000000 		.word	7
 4619 000c 07000000 		.word	7
 4620 0010 18000000 		.word	24
 4621              		.section	.data.__compound_literal.257,"aw"
 4622              		.align	1
 4625              	__compound_literal.257:
 4626 0000 E3FF     		.short	-29
 4627              		.section	.data.__compound_literal.256,"aw"
 4628              		.align	2
 4631              	__compound_literal.256:
 4632 0000 2B4D203E 		.word	1042304299
 4633              		.section	.data.__compound_literal.255,"aw"
 4634              		.align	2
 4637              	__compound_literal.255:
 4638 0000 01000000 		.word	1
 4639 0004 08000000 		.word	8
 4640 0008 07000000 		.word	7
 4641 000c 07000000 		.word	7
 4642 0010 18000000 		.word	24
 4643              		.section	.data.__compound_literal.254,"aw"
 4644              		.align	1
 4647              	__compound_literal.254:
 4648 0000 F2FF     		.short	-14
 4649              		.section	.data.__compound_literal.253,"aw"
 4650              		.align	2
 4653              	__compound_literal.253:
 4654 0000 ED52503D 		.word	1028674285
 4655              		.section	.data.__compound_literal.252,"aw"
 4656              		.align	2
 4659              	__compound_literal.252:
 4660 0000 01000000 		.word	1
 4661 0004 08000000 		.word	8
 4662 0008 07000000 		.word	7
 4663 000c 07000000 		.word	7
 4664 0010 18000000 		.word	24
 4665              		.section	.data.__compound_literal.251,"aw"
 4666              		.align	1
 4669              	__compound_literal.251:
 4670 0000 F2FF     		.short	-14
 4671              		.section	.data.__compound_literal.250,"aw"
 4672              		.align	2
 4675              	__compound_literal.250:
 4676 0000 ED52503D 		.word	1028674285
 4677              		.section	.data.__compound_literal.249,"aw"
 4678              		.align	2
 4681              	__compound_literal.249:
 4682 0000 01000000 		.word	1
 4683 0004 04000000 		.word	4
 4684 0008 07000000 		.word	7
 4685 000c 07000000 		.word	7
 4686 0010 18000000 		.word	24
 4687              		.section	.data.__compound_literal.248,"aw"
 4688              		.align	2
ARM GAS  C:\Users\DJESSOU\AppData\Local\Temp\ccfF5lhd.s 			page 119


 4691              	__compound_literal.248:
 4692 0000 01000000 		.word	1
 4693 0004 04000000 		.word	4
 4694 0008 07000000 		.word	7
 4695 000c 07000000 		.word	7
 4696 0010 18000000 		.word	24
 4697              		.section	.data.__compound_literal.247,"aw"
 4698              		.align	1
 4701              	__compound_literal.247:
 4702 0000 F2FF     		.short	-14
 4703              		.section	.data.__compound_literal.246,"aw"
 4704              		.align	2
 4707              	__compound_literal.246:
 4708 0000 ED52503D 		.word	1028674285
 4709              		.section	.data.__compound_literal.245,"aw"
 4710              		.align	2
 4713              	__compound_literal.245:
 4714 0000 01000000 		.word	1
 4715 0004 04000000 		.word	4
 4716 0008 07000000 		.word	7
 4717 000c 07000000 		.word	7
 4718 0010 18000000 		.word	24
 4719              		.section	.data.__compound_literal.244,"aw"
 4720              		.align	2
 4723              	__compound_literal.244:
 4724 0000 01000000 		.word	1
 4725 0004 04000000 		.word	4
 4726 0008 07000000 		.word	7
 4727 000c 07000000 		.word	7
 4728 0010 18000000 		.word	24
 4729              		.section	.bss.__compound_literal.243,"aw",%nobits
 4730              		.align	1
 4733              	__compound_literal.243:
 4734 0000 0000     		.space	2
 4735              		.section	.data.__compound_literal.242,"aw"
 4736              		.align	2
 4739              	__compound_literal.242:
 4740 0000 C1C0C03C 		.word	1019265217
 4741              		.section	.data.__compound_literal.241,"aw"
 4742              		.align	2
 4745              	__compound_literal.241:
 4746 0000 01000000 		.word	1
 4747 0004 07000000 		.word	7
 4748 0008 07000000 		.word	7
 4749 000c 80040000 		.word	1152
 4750              		.section	.bss.__compound_literal.240,"aw",%nobits
 4751              		.align	1
 4754              	__compound_literal.240:
 4755 0000 0000     		.space	2
 4756              		.section	.data.__compound_literal.239,"aw"
 4757              		.align	2
 4760              	__compound_literal.239:
 4761 0000 C1C0C03C 		.word	1019265217
 4762              		.section	.data.__compound_literal.238,"aw"
 4763              		.align	2
 4766              	__compound_literal.238:
 4767 0000 01000000 		.word	1
ARM GAS  C:\Users\DJESSOU\AppData\Local\Temp\ccfF5lhd.s 			page 120


 4768 0004 07000000 		.word	7
 4769 0008 07000000 		.word	7
 4770 000c 80040000 		.word	1152
 4771              		.section	.data.__compound_literal.237,"aw"
 4772              		.align	2
 4775              	__compound_literal.237:
 4776 0000 01000000 		.word	1
 4777 0004 30000000 		.word	48
 4778 0008 07000000 		.word	7
 4779 000c 07000000 		.word	7
 4780 0010 18000000 		.word	24
 4781              		.section	.data.__compound_literal.236,"aw"
 4782              		.align	1
 4785              	__compound_literal.236:
 4786 0000 F4FF     		.short	-12
 4787              		.section	.data.__compound_literal.235,"aw"
 4788              		.align	2
 4791              	__compound_literal.235:
 4792 0000 A5AD023E 		.word	1040362917
 4793              		.section	.data.__compound_literal.234,"aw"
 4794              		.align	2
 4797              	__compound_literal.234:
 4798 0000 01000000 		.word	1
 4799 0004 08000000 		.word	8
 4800 0008 07000000 		.word	7
 4801 000c 07000000 		.word	7
 4802 0010 18000000 		.word	24
 4803              		.section	.data.__compound_literal.233,"aw"
 4804              		.align	1
 4807              	__compound_literal.233:
 4808 0000 F5FF     		.short	-11
 4809              		.section	.data.__compound_literal.232,"aw"
 4810              		.align	2
 4813              	__compound_literal.232:
 4814 0000 DC854A3D 		.word	1028294108
 4815              		.section	.data.__compound_literal.231,"aw"
 4816              		.align	2
 4819              	__compound_literal.231:
 4820 0000 01000000 		.word	1
 4821 0004 08000000 		.word	8
 4822 0008 07000000 		.word	7
 4823 000c 07000000 		.word	7
 4824 0010 18000000 		.word	24
 4825              		.section	.data.__compound_literal.230,"aw"
 4826              		.align	1
 4829              	__compound_literal.230:
 4830 0000 F5FF     		.short	-11
 4831              		.section	.data.__compound_literal.229,"aw"
 4832              		.align	2
 4835              	__compound_literal.229:
 4836 0000 DC854A3D 		.word	1028294108
 4837              		.section	.data.__compound_literal.228,"aw"
 4838              		.align	2
 4841              	__compound_literal.228:
 4842 0000 01000000 		.word	1
 4843 0004 04000000 		.word	4
 4844 0008 07000000 		.word	7
ARM GAS  C:\Users\DJESSOU\AppData\Local\Temp\ccfF5lhd.s 			page 121


 4845 000c 07000000 		.word	7
 4846 0010 18000000 		.word	24
 4847              		.section	.data.__compound_literal.227,"aw"
 4848              		.align	2
 4851              	__compound_literal.227:
 4852 0000 01000000 		.word	1
 4853 0004 04000000 		.word	4
 4854 0008 07000000 		.word	7
 4855 000c 07000000 		.word	7
 4856 0010 18000000 		.word	24
 4857              		.section	.data.__compound_literal.226,"aw"
 4858              		.align	1
 4861              	__compound_literal.226:
 4862 0000 F5FF     		.short	-11
 4863              		.section	.data.__compound_literal.225,"aw"
 4864              		.align	2
 4867              	__compound_literal.225:
 4868 0000 DC854A3D 		.word	1028294108
 4869              		.section	.data.__compound_literal.224,"aw"
 4870              		.align	2
 4873              	__compound_literal.224:
 4874 0000 01000000 		.word	1
 4875 0004 04000000 		.word	4
 4876 0008 07000000 		.word	7
 4877 000c 07000000 		.word	7
 4878 0010 18000000 		.word	24
 4879              		.section	.data.__compound_literal.223,"aw"
 4880              		.align	2
 4883              	__compound_literal.223:
 4884 0000 01000000 		.word	1
 4885 0004 04000000 		.word	4
 4886 0008 07000000 		.word	7
 4887 000c 07000000 		.word	7
 4888 0010 18000000 		.word	24
 4889              		.section	.bss.__compound_literal.222,"aw",%nobits
 4890              		.align	1
 4893              	__compound_literal.222:
 4894 0000 0000     		.space	2
 4895              		.section	.data.__compound_literal.221,"aw"
 4896              		.align	2
 4899              	__compound_literal.221:
 4900 0000 C1C0C03C 		.word	1019265217
 4901              		.section	.data.__compound_literal.220,"aw"
 4902              		.align	2
 4905              	__compound_literal.220:
 4906 0000 01000000 		.word	1
 4907 0004 07000000 		.word	7
 4908 0008 07000000 		.word	7
 4909 000c 80040000 		.word	1152
 4910              		.section	.bss.__compound_literal.219,"aw",%nobits
 4911              		.align	1
 4914              	__compound_literal.219:
 4915 0000 0000     		.space	2
 4916              		.section	.data.__compound_literal.218,"aw"
 4917              		.align	2
 4920              	__compound_literal.218:
 4921 0000 C1C0C03C 		.word	1019265217
ARM GAS  C:\Users\DJESSOU\AppData\Local\Temp\ccfF5lhd.s 			page 122


 4922              		.section	.data.__compound_literal.217,"aw"
 4923              		.align	2
 4926              	__compound_literal.217:
 4927 0000 01000000 		.word	1
 4928 0004 07000000 		.word	7
 4929 0008 07000000 		.word	7
 4930 000c 80040000 		.word	1152
 4931              		.section	.data.__compound_literal.216,"aw"
 4932              		.align	2
 4935              	__compound_literal.216:
 4936 0000 01000000 		.word	1
 4937 0004 30000000 		.word	48
 4938 0008 07000000 		.word	7
 4939 000c 07000000 		.word	7
 4940 0010 18000000 		.word	24
 4941              		.section	.data.__compound_literal.215,"aw"
 4942              		.align	1
 4945              	__compound_literal.215:
 4946 0000 0100     		.short	1
 4947              		.section	.data.__compound_literal.214,"aw"
 4948              		.align	2
 4951              	__compound_literal.214:
 4952 0000 E188CB3D 		.word	1036749025
 4953              		.section	.data.__compound_literal.213,"aw"
 4954              		.align	2
 4957              	__compound_literal.213:
 4958 0000 01000000 		.word	1
 4959 0004 08000000 		.word	8
 4960 0008 07000000 		.word	7
 4961 000c 07000000 		.word	7
 4962 0010 18000000 		.word	24
 4963              		.section	.data.__compound_literal.212,"aw"
 4964              		.align	2
 4967              	__compound_literal.212:
 4968 0000 01000000 		.word	1
 4969 0004 08000000 		.word	8
 4970 0008 07000000 		.word	7
 4971 000c 07000000 		.word	7
 4972 0010 18000000 		.word	24
 4973              		.section	.bss.__compound_literal.211,"aw",%nobits
 4974              		.align	1
 4977              	__compound_literal.211:
 4978 0000 0000     		.space	2
 4979              		.section	.data.__compound_literal.210,"aw"
 4980              		.align	2
 4983              	__compound_literal.210:
 4984 0000 C1C0C03C 		.word	1019265217
 4985              		.section	.data.__compound_literal.209,"aw"
 4986              		.align	2
 4989              	__compound_literal.209:
 4990 0000 01000000 		.word	1
 4991 0004 07000000 		.word	7
 4992 0008 07000000 		.word	7
 4993 000c A0020000 		.word	672
 4994              		.section	.bss.__compound_literal.208,"aw",%nobits
 4995              		.align	1
 4998              	__compound_literal.208:
ARM GAS  C:\Users\DJESSOU\AppData\Local\Temp\ccfF5lhd.s 			page 123


 4999 0000 0000     		.space	2
 5000              		.section	.data.__compound_literal.207,"aw"
 5001              		.align	2
 5004              	__compound_literal.207:
 5005 0000 C1C0C03C 		.word	1019265217
 5006              		.section	.data.__compound_literal.206,"aw"
 5007              		.align	2
 5010              	__compound_literal.206:
 5011 0000 01000000 		.word	1
 5012 0004 0E000000 		.word	14
 5013 0008 0E000000 		.word	14
 5014 000c A0020000 		.word	672
 5015              		.section	.data.__compound_literal.205,"aw"
 5016              		.align	2
 5019              	__compound_literal.205:
 5020 0000 01000000 		.word	1
 5021 0004 1C000000 		.word	28
 5022 0008 0E000000 		.word	14
 5023 000c 0E000000 		.word	14
 5024 0010 18000000 		.word	24
 5025              		.section	.data.__compound_literal.204,"aw"
 5026              		.align	1
 5029              	__compound_literal.204:
 5030 0000 0A00     		.short	10
 5031              		.section	.data.__compound_literal.203,"aw"
 5032              		.align	2
 5035              	__compound_literal.203:
 5036 0000 5E97643E 		.word	1046779742
 5037              		.section	.data.__compound_literal.202,"aw"
 5038              		.align	2
 5041              	__compound_literal.202:
 5042 0000 01000000 		.word	1
 5043 0004 0E000000 		.word	14
 5044 0008 0E000000 		.word	14
 5045 000c 70000000 		.word	112
 5046              		.section	.data.__compound_literal.201,"aw"
 5047              		.align	2
 5050              	__compound_literal.201:
 5051 0000 01000000 		.word	1
 5052 0004 07000000 		.word	7
 5053 0008 0E000000 		.word	14
 5054 000c 0E000000 		.word	14
 5055 0010 10000000 		.word	16
 5056              		.section	.bss.__compound_literal.200,"aw",%nobits
 5057              		.align	1
 5060              	__compound_literal.200:
 5061 0000 0000     		.space	2
 5062              		.section	.data.__compound_literal.199,"aw"
 5063              		.align	2
 5066              	__compound_literal.199:
 5067 0000 C1C0C03C 		.word	1019265217
 5068              		.section	.data.__compound_literal.198,"aw"
 5069              		.align	2
 5072              	__compound_literal.198:
 5073 0000 01000000 		.word	1
 5074 0004 0E000000 		.word	14
 5075 0008 0E000000 		.word	14
ARM GAS  C:\Users\DJESSOU\AppData\Local\Temp\ccfF5lhd.s 			page 124


 5076 000c A0020000 		.word	672
 5077              		.section	.bss.__compound_literal.197,"aw",%nobits
 5078              		.align	1
 5081              	__compound_literal.197:
 5082 0000 0000     		.space	2
 5083              		.section	.data.__compound_literal.196,"aw"
 5084              		.align	2
 5087              	__compound_literal.196:
 5088 0000 C1C0C03C 		.word	1019265217
 5089              		.section	.data.__compound_literal.195,"aw"
 5090              		.align	2
 5093              	__compound_literal.195:
 5094 0000 01000000 		.word	1
 5095 0004 0E000000 		.word	14
 5096 0008 0E000000 		.word	14
 5097 000c A0020000 		.word	672
 5098              		.section	.data.__compound_literal.194,"aw"
 5099              		.align	2
 5102              	__compound_literal.194:
 5103 0000 01000000 		.word	1
 5104 0004 1C000000 		.word	28
 5105 0008 0E000000 		.word	14
 5106 000c 0E000000 		.word	14
 5107 0010 18000000 		.word	24
 5108              		.section	.data.__compound_literal.193,"aw"
 5109              		.align	1
 5112              	__compound_literal.193:
 5113 0000 0400     		.short	4
 5114              		.section	.data.__compound_literal.192,"aw"
 5115              		.align	2
 5118              	__compound_literal.192:
 5119 0000 7071193E 		.word	1041854832
 5120              		.section	.data.__compound_literal.191,"aw"
 5121              		.align	2
 5124              	__compound_literal.191:
 5125 0000 01000000 		.word	1
 5126 0004 0E000000 		.word	14
 5127 0008 0E000000 		.word	14
 5128 000c 70000000 		.word	112
 5129              		.section	.data.__compound_literal.190,"aw"
 5130              		.align	2
 5133              	__compound_literal.190:
 5134 0000 01000000 		.word	1
 5135 0004 07000000 		.word	7
 5136 0008 0E000000 		.word	14
 5137 000c 0E000000 		.word	14
 5138 0010 10000000 		.word	16
 5139              		.section	.bss.__compound_literal.189,"aw",%nobits
 5140              		.align	1
 5143              	__compound_literal.189:
 5144 0000 0000     		.space	2
 5145              		.section	.data.__compound_literal.188,"aw"
 5146              		.align	2
 5149              	__compound_literal.188:
 5150 0000 C1C0C03C 		.word	1019265217
 5151              		.section	.data.__compound_literal.187,"aw"
 5152              		.align	2
ARM GAS  C:\Users\DJESSOU\AppData\Local\Temp\ccfF5lhd.s 			page 125


 5155              	__compound_literal.187:
 5156 0000 01000000 		.word	1
 5157 0004 0E000000 		.word	14
 5158 0008 0E000000 		.word	14
 5159 000c A0020000 		.word	672
 5160              		.section	.bss.__compound_literal.186,"aw",%nobits
 5161              		.align	1
 5164              	__compound_literal.186:
 5165 0000 0000     		.space	2
 5166              		.section	.data.__compound_literal.185,"aw"
 5167              		.align	2
 5170              	__compound_literal.185:
 5171 0000 C1C0C03C 		.word	1019265217
 5172              		.section	.data.__compound_literal.184,"aw"
 5173              		.align	2
 5176              	__compound_literal.184:
 5177 0000 01000000 		.word	1
 5178 0004 0E000000 		.word	14
 5179 0008 0E000000 		.word	14
 5180 000c A0020000 		.word	672
 5181              		.section	.data.__compound_literal.183,"aw"
 5182              		.align	2
 5185              	__compound_literal.183:
 5186 0000 01000000 		.word	1
 5187 0004 1C000000 		.word	28
 5188 0008 0E000000 		.word	14
 5189 000c 0E000000 		.word	14
 5190 0010 18000000 		.word	24
 5191              		.section	.data.__compound_literal.182,"aw"
 5192              		.align	1
 5195              	__compound_literal.182:
 5196 0000 0D00     		.short	13
 5197              		.section	.data.__compound_literal.181,"aw"
 5198              		.align	2
 5201              	__compound_literal.181:
 5202 0000 6A6AEE3D 		.word	1039034986
 5203              		.section	.data.__compound_literal.180,"aw"
 5204              		.align	2
 5207              	__compound_literal.180:
 5208 0000 01000000 		.word	1
 5209 0004 0E000000 		.word	14
 5210 0008 0E000000 		.word	14
 5211 000c 70000000 		.word	112
 5212              		.section	.bss.__compound_literal.179,"aw",%nobits
 5213              		.align	1
 5216              	__compound_literal.179:
 5217 0000 0000     		.space	2
 5218              		.section	.data.__compound_literal.178,"aw"
 5219              		.align	2
 5222              	__compound_literal.178:
 5223 0000 C1C0C03C 		.word	1019265217
 5224              		.section	.data.__compound_literal.177,"aw"
 5225              		.align	2
 5228              	__compound_literal.177:
 5229 0000 01000000 		.word	1
 5230 0004 0E000000 		.word	14
 5231 0008 0E000000 		.word	14
ARM GAS  C:\Users\DJESSOU\AppData\Local\Temp\ccfF5lhd.s 			page 126


 5232 000c E0010000 		.word	480
 5233              		.section	.bss.__compound_literal.176,"aw",%nobits
 5234              		.align	1
 5237              	__compound_literal.176:
 5238 0000 0000     		.space	2
 5239              		.section	.data.__compound_literal.175,"aw"
 5240              		.align	2
 5243              	__compound_literal.175:
 5244 0000 C1C0C03C 		.word	1019265217
 5245              		.section	.data.__compound_literal.174,"aw"
 5246              		.align	2
 5249              	__compound_literal.174:
 5250 0000 01000000 		.word	1
 5251 0004 0E000000 		.word	14
 5252 0008 0E000000 		.word	14
 5253 000c E0010000 		.word	480
 5254              		.section	.data.__compound_literal.173,"aw"
 5255              		.align	1
 5258              	__compound_literal.173:
 5259 0000 F2FF     		.short	-14
 5260              		.section	.data.__compound_literal.172,"aw"
 5261              		.align	2
 5264              	__compound_literal.172:
 5265 0000 528D183E 		.word	1041796434
 5266              		.section	.data.__compound_literal.171,"aw"
 5267              		.align	2
 5270              	__compound_literal.171:
 5271 0000 01000000 		.word	1
 5272 0004 04000000 		.word	4
 5273 0008 0E000000 		.word	14
 5274 000c 0E000000 		.word	14
 5275 0010 14000000 		.word	20
 5276              		.section	.bss.__compound_literal.170,"aw",%nobits
 5277              		.align	1
 5280              	__compound_literal.170:
 5281 0000 0000     		.space	2
 5282              		.section	.data.__compound_literal.169,"aw"
 5283              		.align	2
 5286              	__compound_literal.169:
 5287 0000 C1C0C03C 		.word	1019265217
 5288              		.section	.data.__compound_literal.168,"aw"
 5289              		.align	2
 5292              	__compound_literal.168:
 5293 0000 01000000 		.word	1
 5294 0004 04000000 		.word	4
 5295 0008 0E000000 		.word	14
 5296 000c 0E000000 		.word	14
 5297 0010 78000000 		.word	120
 5298              		.section	.bss.__compound_literal.167,"aw",%nobits
 5299              		.align	1
 5302              	__compound_literal.167:
 5303 0000 0000     		.space	2
 5304              		.section	.data.__compound_literal.166,"aw"
 5305              		.align	2
 5308              	__compound_literal.166:
 5309 0000 C1C0C03C 		.word	1019265217
 5310              		.section	.data.__compound_literal.165,"aw"
ARM GAS  C:\Users\DJESSOU\AppData\Local\Temp\ccfF5lhd.s 			page 127


 5311              		.align	2
 5314              	__compound_literal.165:
 5315 0000 01000000 		.word	1
 5316 0004 02000000 		.word	2
 5317 0008 0E000000 		.word	14
 5318 000c 0E000000 		.word	14
 5319 0010 78000000 		.word	120
 5320              		.section	.bss.__compound_literal.164,"aw",%nobits
 5321              		.align	1
 5324              	__compound_literal.164:
 5325 0000 0000     		.space	2
 5326              		.section	.data.__compound_literal.163,"aw"
 5327              		.align	2
 5330              	__compound_literal.163:
 5331 0000 C1C0C03C 		.word	1019265217
 5332              		.section	.data.__compound_literal.162,"aw"
 5333              		.align	2
 5336              	__compound_literal.162:
 5337 0000 01000000 		.word	1
 5338 0004 02000000 		.word	2
 5339 0008 0E000000 		.word	14
 5340 000c 0E000000 		.word	14
 5341 0010 78000000 		.word	120
 5342              		.section	.bss.__compound_literal.161,"aw",%nobits
 5343              		.align	1
 5346              	__compound_literal.161:
 5347 0000 0000     		.space	2
 5348              		.section	.data.__compound_literal.160,"aw"
 5349              		.align	2
 5352              	__compound_literal.160:
 5353 0000 C1C0C03C 		.word	1019265217
 5354              		.section	.data.__compound_literal.159,"aw"
 5355              		.align	2
 5358              	__compound_literal.159:
 5359 0000 01000000 		.word	1
 5360 0004 0E000000 		.word	14
 5361 0008 0E000000 		.word	14
 5362 000c F0000000 		.word	240
 5363              		.section	.bss.__compound_literal.158,"aw",%nobits
 5364              		.align	1
 5367              	__compound_literal.158:
 5368 0000 0000     		.space	2
 5369              		.section	.data.__compound_literal.157,"aw"
 5370              		.align	2
 5373              	__compound_literal.157:
 5374 0000 C1C0C03C 		.word	1019265217
 5375              		.section	.data.__compound_literal.156,"aw"
 5376              		.align	2
 5379              	__compound_literal.156:
 5380 0000 01000000 		.word	1
 5381 0004 0E000000 		.word	14
 5382 0008 0E000000 		.word	14
 5383 000c F0000000 		.word	240
 5384              		.section	.bss.__compound_literal.155,"aw",%nobits
 5385              		.align	1
 5388              	__compound_literal.155:
 5389 0000 0000     		.space	2
ARM GAS  C:\Users\DJESSOU\AppData\Local\Temp\ccfF5lhd.s 			page 128


 5390              		.section	.data.__compound_literal.154,"aw"
 5391              		.align	2
 5394              	__compound_literal.154:
 5395 0000 C1C0C03C 		.word	1019265217
 5396              		.section	.data.__compound_literal.153,"aw"
 5397              		.align	2
 5400              	__compound_literal.153:
 5401 0000 01000000 		.word	1
 5402 0004 0A000000 		.word	10
 5403 0008 0E000000 		.word	14
 5404 000c 0E000000 		.word	14
 5405 0010 18000000 		.word	24
 5406              		.section	.bss.__compound_literal.152,"aw",%nobits
 5407              		.align	1
 5410              	__compound_literal.152:
 5411 0000 0000     		.space	2
 5412              		.section	.data.__compound_literal.151,"aw"
 5413              		.align	2
 5416              	__compound_literal.151:
 5417 0000 C1C0C03C 		.word	1019265217
 5418              		.section	.data.__compound_literal.150,"aw"
 5419              		.align	2
 5422              	__compound_literal.150:
 5423 0000 01000000 		.word	1
 5424 0004 0A000000 		.word	10
 5425 0008 0E000000 		.word	14
 5426 000c 0E000000 		.word	14
 5427 0010 18000000 		.word	24
 5428              		.section	.bss.__compound_literal.149,"aw",%nobits
 5429              		.align	1
 5432              	__compound_literal.149:
 5433 0000 0000     		.space	2
 5434              		.section	.data.__compound_literal.148,"aw"
 5435              		.align	2
 5438              	__compound_literal.148:
 5439 0000 C1C0C03C 		.word	1019265217
 5440              		.section	.data.__compound_literal.147,"aw"
 5441              		.align	2
 5444              	__compound_literal.147:
 5445 0000 01000000 		.word	1
 5446 0004 14000000 		.word	20
 5447 0008 0E000000 		.word	14
 5448 000c 0E000000 		.word	14
 5449 0010 18000000 		.word	24
 5450              		.section	.data.__compound_literal.146,"aw"
 5451              		.align	1
 5454              	__compound_literal.146:
 5455 0000 0E00     		.short	14
 5456              		.section	.data.__compound_literal.145,"aw"
 5457              		.align	2
 5460              	__compound_literal.145:
 5461 0000 A60FE23D 		.word	1038225318
 5462              		.section	.data.__compound_literal.144,"aw"
 5463              		.align	2
 5466              	__compound_literal.144:
 5467 0000 01000000 		.word	1
 5468 0004 04000000 		.word	4
ARM GAS  C:\Users\DJESSOU\AppData\Local\Temp\ccfF5lhd.s 			page 129


 5469 0008 0E000000 		.word	14
 5470 000c 0E000000 		.word	14
 5471 0010 14000000 		.word	20
 5472              		.section	.bss.__compound_literal.143,"aw",%nobits
 5473              		.align	1
 5476              	__compound_literal.143:
 5477 0000 0000     		.space	2
 5478              		.section	.data.__compound_literal.142,"aw"
 5479              		.align	2
 5482              	__compound_literal.142:
 5483 0000 C1C0C03C 		.word	1019265217
 5484              		.section	.data.__compound_literal.141,"aw"
 5485              		.align	2
 5488              	__compound_literal.141:
 5489 0000 01000000 		.word	1
 5490 0004 04000000 		.word	4
 5491 0008 0E000000 		.word	14
 5492 000c 0E000000 		.word	14
 5493 0010 78000000 		.word	120
 5494              		.section	.bss.__compound_literal.140,"aw",%nobits
 5495              		.align	1
 5498              	__compound_literal.140:
 5499 0000 0000     		.space	2
 5500              		.section	.data.__compound_literal.139,"aw"
 5501              		.align	2
 5504              	__compound_literal.139:
 5505 0000 C1C0C03C 		.word	1019265217
 5506              		.section	.data.__compound_literal.138,"aw"
 5507              		.align	2
 5510              	__compound_literal.138:
 5511 0000 01000000 		.word	1
 5512 0004 02000000 		.word	2
 5513 0008 0E000000 		.word	14
 5514 000c 0E000000 		.word	14
 5515 0010 78000000 		.word	120
 5516              		.section	.bss.__compound_literal.137,"aw",%nobits
 5517              		.align	1
 5520              	__compound_literal.137:
 5521 0000 0000     		.space	2
 5522              		.section	.data.__compound_literal.136,"aw"
 5523              		.align	2
 5526              	__compound_literal.136:
 5527 0000 C1C0C03C 		.word	1019265217
 5528              		.section	.data.__compound_literal.135,"aw"
 5529              		.align	2
 5532              	__compound_literal.135:
 5533 0000 01000000 		.word	1
 5534 0004 02000000 		.word	2
 5535 0008 0E000000 		.word	14
 5536 000c 0E000000 		.word	14
 5537 0010 78000000 		.word	120
 5538              		.section	.bss.__compound_literal.134,"aw",%nobits
 5539              		.align	1
 5542              	__compound_literal.134:
 5543 0000 0000     		.space	2
 5544              		.section	.data.__compound_literal.133,"aw"
 5545              		.align	2
ARM GAS  C:\Users\DJESSOU\AppData\Local\Temp\ccfF5lhd.s 			page 130


 5548              	__compound_literal.133:
 5549 0000 C1C0C03C 		.word	1019265217
 5550              		.section	.data.__compound_literal.132,"aw"
 5551              		.align	2
 5554              	__compound_literal.132:
 5555 0000 01000000 		.word	1
 5556 0004 0E000000 		.word	14
 5557 0008 0E000000 		.word	14
 5558 000c F0000000 		.word	240
 5559              		.section	.bss.__compound_literal.131,"aw",%nobits
 5560              		.align	1
 5563              	__compound_literal.131:
 5564 0000 0000     		.space	2
 5565              		.section	.data.__compound_literal.130,"aw"
 5566              		.align	2
 5569              	__compound_literal.130:
 5570 0000 C1C0C03C 		.word	1019265217
 5571              		.section	.data.__compound_literal.129,"aw"
 5572              		.align	2
 5575              	__compound_literal.129:
 5576 0000 01000000 		.word	1
 5577 0004 0E000000 		.word	14
 5578 0008 0E000000 		.word	14
 5579 000c F0000000 		.word	240
 5580              		.section	.bss.__compound_literal.128,"aw",%nobits
 5581              		.align	1
 5584              	__compound_literal.128:
 5585 0000 0000     		.space	2
 5586              		.section	.data.__compound_literal.127,"aw"
 5587              		.align	2
 5590              	__compound_literal.127:
 5591 0000 C1C0C03C 		.word	1019265217
 5592              		.section	.data.__compound_literal.126,"aw"
 5593              		.align	2
 5596              	__compound_literal.126:
 5597 0000 01000000 		.word	1
 5598 0004 0A000000 		.word	10
 5599 0008 0E000000 		.word	14
 5600 000c 0E000000 		.word	14
 5601 0010 18000000 		.word	24
 5602              		.section	.bss.__compound_literal.125,"aw",%nobits
 5603              		.align	1
 5606              	__compound_literal.125:
 5607 0000 0000     		.space	2
 5608              		.section	.data.__compound_literal.124,"aw"
 5609              		.align	2
 5612              	__compound_literal.124:
 5613 0000 C1C0C03C 		.word	1019265217
 5614              		.section	.data.__compound_literal.123,"aw"
 5615              		.align	2
 5618              	__compound_literal.123:
 5619 0000 01000000 		.word	1
 5620 0004 0A000000 		.word	10
 5621 0008 0E000000 		.word	14
 5622 000c 0E000000 		.word	14
 5623 0010 18000000 		.word	24
 5624              		.section	.bss.__compound_literal.122,"aw",%nobits
ARM GAS  C:\Users\DJESSOU\AppData\Local\Temp\ccfF5lhd.s 			page 131


 5625              		.align	1
 5628              	__compound_literal.122:
 5629 0000 0000     		.space	2
 5630              		.section	.data.__compound_literal.121,"aw"
 5631              		.align	2
 5634              	__compound_literal.121:
 5635 0000 C1C0C03C 		.word	1019265217
 5636              		.section	.data.__compound_literal.120,"aw"
 5637              		.align	2
 5640              	__compound_literal.120:
 5641 0000 01000000 		.word	1
 5642 0004 14000000 		.word	20
 5643 0008 0E000000 		.word	14
 5644 000c 0E000000 		.word	14
 5645 0010 18000000 		.word	24
 5646              		.section	.data.__compound_literal.119,"aw"
 5647              		.align	1
 5650              	__compound_literal.119:
 5651 0000 1500     		.short	21
 5652              		.section	.data.__compound_literal.118,"aw"
 5653              		.align	2
 5656              	__compound_literal.118:
 5657 0000 D8CACB3D 		.word	1036765912
 5658              		.section	.data.__compound_literal.117,"aw"
 5659              		.align	2
 5662              	__compound_literal.117:
 5663 0000 01000000 		.word	1
 5664 0004 04000000 		.word	4
 5665 0008 0E000000 		.word	14
 5666 000c 0E000000 		.word	14
 5667 0010 14000000 		.word	20
 5668              		.section	.bss.__compound_literal.116,"aw",%nobits
 5669              		.align	1
 5672              	__compound_literal.116:
 5673 0000 0000     		.space	2
 5674              		.section	.data.__compound_literal.115,"aw"
 5675              		.align	2
 5678              	__compound_literal.115:
 5679 0000 C1C0C03C 		.word	1019265217
 5680              		.section	.data.__compound_literal.114,"aw"
 5681              		.align	2
 5684              	__compound_literal.114:
 5685 0000 01000000 		.word	1
 5686 0004 02000000 		.word	2
 5687 0008 0E000000 		.word	14
 5688 000c 0E000000 		.word	14
 5689 0010 78000000 		.word	120
 5690              		.section	.bss.__compound_literal.113,"aw",%nobits
 5691              		.align	1
 5694              	__compound_literal.113:
 5695 0000 0000     		.space	2
 5696              		.section	.data.__compound_literal.112,"aw"
 5697              		.align	2
 5700              	__compound_literal.112:
 5701 0000 C1C0C03C 		.word	1019265217
 5702              		.section	.data.__compound_literal.111,"aw"
 5703              		.align	2
ARM GAS  C:\Users\DJESSOU\AppData\Local\Temp\ccfF5lhd.s 			page 132


 5706              	__compound_literal.111:
 5707 0000 01000000 		.word	1
 5708 0004 0E000000 		.word	14
 5709 0008 0E000000 		.word	14
 5710 000c 78000000 		.word	120
 5711              		.section	.bss.__compound_literal.110,"aw",%nobits
 5712              		.align	1
 5715              	__compound_literal.110:
 5716 0000 0000     		.space	2
 5717              		.section	.data.__compound_literal.109,"aw"
 5718              		.align	2
 5721              	__compound_literal.109:
 5722 0000 C1C0C03C 		.word	1019265217
 5723              		.section	.data.__compound_literal.108,"aw"
 5724              		.align	2
 5727              	__compound_literal.108:
 5728 0000 01000000 		.word	1
 5729 0004 0E000000 		.word	14
 5730 0008 0E000000 		.word	14
 5731 000c 78000000 		.word	120
 5732              		.section	.bss.__compound_literal.107,"aw",%nobits
 5733              		.align	1
 5736              	__compound_literal.107:
 5737 0000 0000     		.space	2
 5738              		.section	.data.__compound_literal.106,"aw"
 5739              		.align	2
 5742              	__compound_literal.106:
 5743 0000 C1C0C03C 		.word	1019265217
 5744              		.section	.data.__compound_literal.105,"aw"
 5745              		.align	2
 5748              	__compound_literal.105:
 5749 0000 01000000 		.word	1
 5750 0004 1C000000 		.word	28
 5751 0008 1C000000 		.word	28
 5752 000c 78000000 		.word	120
 5753              		.section	.bss.__compound_literal.104,"aw",%nobits
 5754              		.align	1
 5757              	__compound_literal.104:
 5758 0000 0000     		.space	2
 5759              		.section	.data.__compound_literal.103,"aw"
 5760              		.align	2
 5763              	__compound_literal.103:
 5764 0000 C1C0C03C 		.word	1019265217
 5765              		.section	.data.__compound_literal.102,"aw"
 5766              		.align	2
 5769              	__compound_literal.102:
 5770 0000 01000000 		.word	1
 5771 0004 1C000000 		.word	28
 5772 0008 1C000000 		.word	28
 5773 000c 78000000 		.word	120
 5774              		.section	.bss.__compound_literal.101,"aw",%nobits
 5775              		.align	1
 5778              	__compound_literal.101:
 5779 0000 0000     		.space	2
 5780              		.section	.data.__compound_literal.100,"aw"
 5781              		.align	2
 5784              	__compound_literal.100:
ARM GAS  C:\Users\DJESSOU\AppData\Local\Temp\ccfF5lhd.s 			page 133


 5785 0000 C1C0C03C 		.word	1019265217
 5786              		.section	.data.__compound_literal.99,"aw"
 5787              		.align	2
 5790              	__compound_literal.99:
 5791 0000 01000000 		.word	1
 5792 0004 05000000 		.word	5
 5793 0008 1C000000 		.word	28
 5794 000c 1C000000 		.word	28
 5795 0010 18000000 		.word	24
 5796              		.section	.bss.__compound_literal.98,"aw",%nobits
 5797              		.align	1
 5800              	__compound_literal.98:
 5801 0000 0000     		.space	2
 5802              		.section	.data.__compound_literal.97,"aw"
 5803              		.align	2
 5806              	__compound_literal.97:
 5807 0000 C1C0C03C 		.word	1019265217
 5808              		.section	.data.__compound_literal.96,"aw"
 5809              		.align	2
 5812              	__compound_literal.96:
 5813 0000 01000000 		.word	1
 5814 0004 05000000 		.word	5
 5815 0008 1C000000 		.word	28
 5816 000c 1C000000 		.word	28
 5817 0010 18000000 		.word	24
 5818              		.section	.bss.__compound_literal.95,"aw",%nobits
 5819              		.align	1
 5822              	__compound_literal.95:
 5823 0000 0000     		.space	2
 5824              		.section	.data.__compound_literal.94,"aw"
 5825              		.align	2
 5828              	__compound_literal.94:
 5829 0000 C1C0C03C 		.word	1019265217
 5830              		.section	.data.__compound_literal.93,"aw"
 5831              		.align	2
 5834              	__compound_literal.93:
 5835 0000 01000000 		.word	1
 5836 0004 0A000000 		.word	10
 5837 0008 1C000000 		.word	28
 5838 000c 1C000000 		.word	28
 5839 0010 18000000 		.word	24
 5840              		.section	.data.__compound_literal.92,"aw"
 5841              		.align	1
 5844              	__compound_literal.92:
 5845 0000 0100     		.short	1
 5846              		.section	.data.__compound_literal.91,"aw"
 5847              		.align	2
 5850              	__compound_literal.91:
 5851 0000 6CCFB13D 		.word	1035063148
 5852              		.section	.data.__compound_literal.90,"aw"
 5853              		.align	2
 5856              	__compound_literal.90:
 5857 0000 01000000 		.word	1
 5858 0004 02000000 		.word	2
 5859 0008 1C000000 		.word	28
 5860 000c 1C000000 		.word	28
 5861 0010 14000000 		.word	20
ARM GAS  C:\Users\DJESSOU\AppData\Local\Temp\ccfF5lhd.s 			page 134


 5862              		.section	.bss.__compound_literal.89,"aw",%nobits
 5863              		.align	1
 5866              	__compound_literal.89:
 5867 0000 0000     		.space	2
 5868              		.section	.data.__compound_literal.88,"aw"
 5869              		.align	2
 5872              	__compound_literal.88:
 5873 0000 C1C0C03C 		.word	1019265217
 5874              		.section	.data.__compound_literal.87,"aw"
 5875              		.align	2
 5878              	__compound_literal.87:
 5879 0000 01000000 		.word	1
 5880 0004 1C000000 		.word	28
 5881 0008 1C000000 		.word	28
 5882 000c F0000000 		.word	240
 5883              		.section	.bss.__compound_literal.86,"aw",%nobits
 5884              		.align	1
 5887              	__compound_literal.86:
 5888 0000 0000     		.space	2
 5889              		.section	.data.__compound_literal.85,"aw"
 5890              		.align	2
 5893              	__compound_literal.85:
 5894 0000 C1C0C03C 		.word	1019265217
 5895              		.section	.data.__compound_literal.84,"aw"
 5896              		.align	2
 5899              	__compound_literal.84:
 5900 0000 01000000 		.word	1
 5901 0004 1C000000 		.word	28
 5902 0008 1C000000 		.word	28
 5903 000c F0000000 		.word	240
 5904              		.section	.data.__compound_literal.83,"aw"
 5905              		.align	1
 5908              	__compound_literal.83:
 5909 0000 FBFF     		.short	-5
 5910              		.section	.data.__compound_literal.82,"aw"
 5911              		.align	2
 5914              	__compound_literal.82:
 5915 0000 90AC8A3D 		.word	1032498320
 5916              		.section	.data.__compound_literal.81,"aw"
 5917              		.align	2
 5920              	__compound_literal.81:
 5921 0000 01000000 		.word	1
 5922 0004 02000000 		.word	2
 5923 0008 1C000000 		.word	28
 5924 000c 1C000000 		.word	28
 5925 0010 14000000 		.word	20
 5926              		.section	.bss.__compound_literal.80,"aw",%nobits
 5927              		.align	1
 5930              	__compound_literal.80:
 5931 0000 0000     		.space	2
 5932              		.section	.data.__compound_literal.79,"aw"
 5933              		.align	2
 5936              	__compound_literal.79:
 5937 0000 C1C0C03C 		.word	1019265217
 5938              		.section	.data.__compound_literal.78,"aw"
 5939              		.align	2
 5942              	__compound_literal.78:
ARM GAS  C:\Users\DJESSOU\AppData\Local\Temp\ccfF5lhd.s 			page 135


 5943 0000 01000000 		.word	1
 5944 0004 1C000000 		.word	28
 5945 0008 1C000000 		.word	28
 5946 000c 90000000 		.word	144
 5947              		.section	.bss.__compound_literal.77,"aw",%nobits
 5948              		.align	1
 5951              	__compound_literal.77:
 5952 0000 0000     		.space	2
 5953              		.section	.data.__compound_literal.76,"aw"
 5954              		.align	2
 5957              	__compound_literal.76:
 5958 0000 C1C0C03C 		.word	1019265217
 5959              		.section	.data.__compound_literal.75,"aw"
 5960              		.align	2
 5963              	__compound_literal.75:
 5964 0000 01000000 		.word	1
 5965 0004 38000000 		.word	56
 5966 0008 38000000 		.word	56
 5967 000c 90000000 		.word	144
 5968              		.section	.bss.__compound_literal.74,"aw",%nobits
 5969              		.align	1
 5972              	__compound_literal.74:
 5973 0000 0000     		.space	2
 5974              		.section	.data.__compound_literal.73,"aw"
 5975              		.align	2
 5978              	__compound_literal.73:
 5979 0000 C1C0C03C 		.word	1019265217
 5980              		.section	.data.__compound_literal.72,"aw"
 5981              		.align	2
 5984              	__compound_literal.72:
 5985 0000 01000000 		.word	1
 5986 0004 48000000 		.word	72
 5987 0008 38000000 		.word	56
 5988 000c 38000000 		.word	56
 5989 0010 90000000 		.word	144
 5990              		.section	.bss.__compound_literal.71,"aw",%nobits
 5991              		.align	1
 5994              	__compound_literal.71:
 5995 0000 0000     		.space	2
 5996              		.section	.data.__compound_literal.70,"aw"
 5997              		.align	2
 6000              	__compound_literal.70:
 6001 0000 C1C0C03C 		.word	1019265217
 6002              		.section	.data.__compound_literal.69,"aw"
 6003              		.align	2
 6006              	__compound_literal.69:
 6007 0000 01000000 		.word	1
 6008 0004 48000000 		.word	72
 6009 0008 38000000 		.word	56
 6010 000c 38000000 		.word	56
 6011 0010 90000000 		.word	144
 6012              		.section	.data.__compound_literal.68,"aw"
 6013              		.align	1
 6016              	__compound_literal.68:
 6017 0000 FCFF     		.short	-4
 6018              		.section	.data.__compound_literal.67,"aw"
 6019              		.align	2
ARM GAS  C:\Users\DJESSOU\AppData\Local\Temp\ccfF5lhd.s 			page 136


 6022              	__compound_literal.67:
 6023 0000 A8BCC93D 		.word	1036631208
 6024              		.section	.data.__compound_literal.66,"aw"
 6025              		.align	2
 6028              	__compound_literal.66:
 6029 0000 01000000 		.word	1
 6030 0004 38000000 		.word	56
 6031 0008 38000000 		.word	56
 6032 000c 18000000 		.word	24
 6033              		.section	.bss.__compound_literal.65,"aw",%nobits
 6034              		.align	1
 6037              	__compound_literal.65:
 6038 0000 0000     		.space	2
 6039              		.section	.data.__compound_literal.64,"aw"
 6040              		.align	2
 6043              	__compound_literal.64:
 6044 0000 C1C0C03C 		.word	1019265217
 6045              		.section	.data.__compound_literal.63,"aw"
 6046              		.align	2
 6049              	__compound_literal.63:
 6050 0000 01000000 		.word	1
 6051 0004 02000000 		.word	2
 6052 0008 38000000 		.word	56
 6053 000c 38000000 		.word	56
 6054 0010 48000000 		.word	72
 6055              		.section	.bss.__compound_literal.62,"aw",%nobits
 6056              		.align	1
 6059              	__compound_literal.62:
 6060 0000 0000     		.space	2
 6061              		.section	.data.__compound_literal.61,"aw"
 6062              		.align	2
 6065              	__compound_literal.61:
 6066 0000 C1C0C03C 		.word	1019265217
 6067              		.section	.data.__compound_literal.60,"aw"
 6068              		.align	2
 6071              	__compound_literal.60:
 6072 0000 01000000 		.word	1
 6073 0004 38000000 		.word	56
 6074 0008 38000000 		.word	56
 6075 000c 48000000 		.word	72
 6076              		.section	.bss.__compound_literal.59,"aw",%nobits
 6077              		.align	1
 6080              	__compound_literal.59:
 6081 0000 0000     		.space	2
 6082              		.section	.data.__compound_literal.58,"aw"
 6083              		.align	2
 6086              	__compound_literal.58:
 6087 0000 C1C0C03C 		.word	1019265217
 6088              		.section	.data.__compound_literal.57,"aw"
 6089              		.align	2
 6092              	__compound_literal.57:
 6093 0000 01000000 		.word	1
 6094 0004 38000000 		.word	56
 6095 0008 38000000 		.word	56
 6096 000c 48000000 		.word	72
 6097              		.section	.bss.__compound_literal.56,"aw",%nobits
 6098              		.align	1
ARM GAS  C:\Users\DJESSOU\AppData\Local\Temp\ccfF5lhd.s 			page 137


 6101              	__compound_literal.56:
 6102 0000 0000     		.space	2
 6103              		.section	.data.__compound_literal.55,"aw"
 6104              		.align	2
 6107              	__compound_literal.55:
 6108 0000 C1C0C03C 		.word	1019265217
 6109              		.section	.data.__compound_literal.54,"aw"
 6110              		.align	2
 6113              	__compound_literal.54:
 6114 0000 01000000 		.word	1
 6115 0004 38000000 		.word	56
 6116 0008 38000000 		.word	56
 6117 000c 48000000 		.word	72
 6118              		.section	.bss.__compound_literal.53,"aw",%nobits
 6119              		.align	1
 6122              	__compound_literal.53:
 6123 0000 0000     		.space	2
 6124              		.section	.data.__compound_literal.52,"aw"
 6125              		.align	2
 6128              	__compound_literal.52:
 6129 0000 C1C0C03C 		.word	1019265217
 6130              		.section	.data.__compound_literal.51,"aw"
 6131              		.align	2
 6134              	__compound_literal.51:
 6135 0000 01000000 		.word	1
 6136 0004 38000000 		.word	56
 6137 0008 38000000 		.word	56
 6138 000c 48000000 		.word	72
 6139              		.section	.data.__compound_literal.50,"aw"
 6140              		.align	1
 6143              	__compound_literal.50:
 6144 0000 0600     		.short	6
 6145              		.section	.data.__compound_literal.49,"aw"
 6146              		.align	2
 6149              	__compound_literal.49:
 6150 0000 0C16943D 		.word	1033115148
 6151              		.section	.data.__compound_literal.48,"aw"
 6152              		.align	2
 6155              	__compound_literal.48:
 6156 0000 01000000 		.word	1
 6157 0004 38000000 		.word	56
 6158 0008 38000000 		.word	56
 6159 000c 18000000 		.word	24
 6160              		.section	.bss.__compound_literal.47,"aw",%nobits
 6161              		.align	1
 6164              	__compound_literal.47:
 6165 0000 0000     		.space	2
 6166              		.section	.data.__compound_literal.46,"aw"
 6167              		.align	2
 6170              	__compound_literal.46:
 6171 0000 C1C0C03C 		.word	1019265217
 6172              		.section	.data.__compound_literal.45,"aw"
 6173              		.align	2
 6176              	__compound_literal.45:
 6177 0000 01000000 		.word	1
 6178 0004 38000000 		.word	56
 6179 0008 38000000 		.word	56
ARM GAS  C:\Users\DJESSOU\AppData\Local\Temp\ccfF5lhd.s 			page 138


 6180 000c 40000000 		.word	64
 6181              		.section	.bss.__compound_literal.44,"aw",%nobits
 6182              		.align	1
 6185              	__compound_literal.44:
 6186 0000 0000     		.space	2
 6187              		.section	.data.__compound_literal.43,"aw"
 6188              		.align	2
 6191              	__compound_literal.43:
 6192 0000 C1C0C03C 		.word	1019265217
 6193              		.section	.data.__compound_literal.42,"aw"
 6194              		.align	2
 6197              	__compound_literal.42:
 6198 0000 01000000 		.word	1
 6199 0004 20000000 		.word	32
 6200 0008 38000000 		.word	56
 6201 000c 38000000 		.word	56
 6202 0010 40000000 		.word	64
 6203              		.section	.bss.__compound_literal.41,"aw",%nobits
 6204              		.align	1
 6207              	__compound_literal.41:
 6208 0000 0000     		.space	2
 6209              		.section	.data.__compound_literal.40,"aw"
 6210              		.align	2
 6213              	__compound_literal.40:
 6214 0000 C1C0C03C 		.word	1019265217
 6215              		.section	.data.__compound_literal.39,"aw"
 6216              		.align	2
 6219              	__compound_literal.39:
 6220 0000 01000000 		.word	1
 6221 0004 20000000 		.word	32
 6222 0008 38000000 		.word	56
 6223 000c 38000000 		.word	56
 6224 0010 40000000 		.word	64
 6225              		.section	.bss.__compound_literal.38,"aw",%nobits
 6226              		.align	1
 6229              	__compound_literal.38:
 6230 0000 0000     		.space	2
 6231              		.section	.data.__compound_literal.37,"aw"
 6232              		.align	2
 6235              	__compound_literal.37:
 6236 0000 C1C0C03C 		.word	1019265217
 6237              		.section	.data.__compound_literal.36,"aw"
 6238              		.align	2
 6241              	__compound_literal.36:
 6242 0000 01000000 		.word	1
 6243 0004 70000000 		.word	112
 6244 0008 70000000 		.word	112
 6245 000c 20000000 		.word	32
 6246              		.section	.bss.__compound_literal.35,"aw",%nobits
 6247              		.align	1
 6250              	__compound_literal.35:
 6251 0000 0000     		.space	2
 6252              		.section	.data.__compound_literal.34,"aw"
 6253              		.align	2
 6256              	__compound_literal.34:
 6257 0000 C1C0C03C 		.word	1019265217
 6258              		.section	.data.__compound_literal.33,"aw"
ARM GAS  C:\Users\DJESSOU\AppData\Local\Temp\ccfF5lhd.s 			page 139


 6259              		.align	2
 6262              	__compound_literal.33:
 6263 0000 01000000 		.word	1
 6264 0004 70000000 		.word	112
 6265 0008 70000000 		.word	112
 6266 000c 20000000 		.word	32
 6267              		.section	.data.__compound_literal.32,"aw"
 6268              		.align	1
 6271              	__compound_literal.32:
 6272 0000 F6FF     		.short	-10
 6273              		.section	.data.__compound_literal.31,"aw"
 6274              		.align	2
 6277              	__compound_literal.31:
 6278 0000 D68AAA3D 		.word	1034586838
 6279              		.section	.data.__compound_literal.30,"aw"
 6280              		.align	2
 6283              	__compound_literal.30:
 6284 0000 01000000 		.word	1
 6285 0004 70000000 		.word	112
 6286 0008 70000000 		.word	112
 6287 000c 10000000 		.word	16
 6288              		.section	.bss.__compound_literal.29,"aw",%nobits
 6289              		.align	1
 6292              	__compound_literal.29:
 6293 0000 0000     		.space	2
 6294              		.section	.data.__compound_literal.28,"aw"
 6295              		.align	2
 6298              	__compound_literal.28:
 6299 0000 C1C0C03C 		.word	1019265217
 6300              		.section	.data.__compound_literal.27,"aw"
 6301              		.align	2
 6304              	__compound_literal.27:
 6305 0000 01000000 		.word	1
 6306 0004 70000000 		.word	112
 6307 0008 70000000 		.word	112
 6308 000c 18000000 		.word	24
 6309              		.section	.bss.__compound_literal.26,"aw",%nobits
 6310              		.align	1
 6313              	__compound_literal.26:
 6314 0000 0000     		.space	2
 6315              		.section	.data.__compound_literal.25,"aw"
 6316              		.align	2
 6319              	__compound_literal.25:
 6320 0000 C1C0C03C 		.word	1019265217
 6321              		.section	.data.__compound_literal.24,"aw"
 6322              		.align	2
 6325              	__compound_literal.24:
 6326 0000 01000000 		.word	1
 6327 0004 0C000000 		.word	12
 6328 0008 70000000 		.word	112
 6329 000c 70000000 		.word	112
 6330 0010 18000000 		.word	24
 6331              		.section	.bss.__compound_literal.23,"aw",%nobits
 6332              		.align	1
 6335              	__compound_literal.23:
 6336 0000 0000     		.space	2
 6337              		.section	.data.__compound_literal.22,"aw"
ARM GAS  C:\Users\DJESSOU\AppData\Local\Temp\ccfF5lhd.s 			page 140


 6338              		.align	2
 6341              	__compound_literal.22:
 6342 0000 C1C0C03C 		.word	1019265217
 6343              		.section	.data.__compound_literal.21,"aw"
 6344              		.align	2
 6347              	__compound_literal.21:
 6348 0000 01000000 		.word	1
 6349 0004 0C000000 		.word	12
 6350 0008 70000000 		.word	112
 6351 000c 70000000 		.word	112
 6352 0010 18000000 		.word	24
 6353              		.section	.bss.__compound_literal.20,"aw",%nobits
 6354              		.align	1
 6357              	__compound_literal.20:
 6358 0000 0000     		.space	2
 6359              		.section	.data.__compound_literal.19,"aw"
 6360              		.align	2
 6363              	__compound_literal.19:
 6364 0000 C1C0C03C 		.word	1019265217
 6365              		.section	.data.__compound_literal.18,"aw"
 6366              		.align	2
 6369              	__compound_literal.18:
 6370 0000 01000000 		.word	1
 6371 0004 70000000 		.word	112
 6372 0008 70000000 		.word	112
 6373 000c 0C000000 		.word	12
 6374              		.section	.bss.__compound_literal.17,"aw",%nobits
 6375              		.align	1
 6378              	__compound_literal.17:
 6379 0000 0000     		.space	2
 6380              		.section	.data.__compound_literal.16,"aw"
 6381              		.align	2
 6384              	__compound_literal.16:
 6385 0000 C1C0C03C 		.word	1019265217
 6386              		.section	.data.__compound_literal.15,"aw"
 6387              		.align	2
 6390              	__compound_literal.15:
 6391 0000 01000000 		.word	1
 6392 0004 70000000 		.word	112
 6393 0008 70000000 		.word	112
 6394 000c 0C000000 		.word	12
 6395              		.section	.bss.__compound_literal.14,"aw",%nobits
 6396              		.align	1
 6399              	__compound_literal.14:
 6400 0000 0000     		.space	2
 6401              		.section	.data.__compound_literal.13,"aw"
 6402              		.align	2
 6405              	__compound_literal.13:
 6406 0000 8180803B 		.word	998277249
 6407              		.section	.data.__compound_literal.12,"aw"
 6408              		.align	2
 6411              	__compound_literal.12:
 6412 0000 01000000 		.word	1
 6413 0004 E0000000 		.word	224
 6414 0008 E0000000 		.word	224
 6415 000c 03000000 		.word	3
 6416              		.section	.bss.__compound_literal.11,"aw",%nobits
ARM GAS  C:\Users\DJESSOU\AppData\Local\Temp\ccfF5lhd.s 			page 141


 6417              		.align	1
 6420              	__compound_literal.11:
 6421 0000 0000     		.space	2
 6422              		.section	.data.__compound_literal.10,"aw"
 6423              		.align	2
 6426              	__compound_literal.10:
 6427 0000 8080803B 		.word	998277248
 6428              		.section	.data.__compound_literal.9,"aw"
 6429              		.align	2
 6432              	__compound_literal.9:
 6433 0000 01000000 		.word	1
 6434 0004 E0000000 		.word	224
 6435 0008 E0000000 		.word	224
 6436 000c 03000000 		.word	3
 6437              		.section	.rodata.str1.1
 6438              	.LC126:
 6439 0c3f 44657175 		.ascii	"Dequantize_227_out_0\000"
 6439      616E7469 
 6439      7A655F32 
 6439      32375F6F 
 6439      75745F30 
 6440              	.LC127:
 6441 0c54 44657175 		.ascii	"Dequantize_233_out_0\000"
 6441      616E7469 
 6441      7A655F32 
 6441      33335F6F 
 6441      75745F30 
 6442              	.LC128:
 6443 0c69 44657175 		.ascii	"Dequantize_221_out_0\000"
 6443      616E7469 
 6443      7A655F32 
 6443      32315F6F 
 6443      75745F30 
 6444              	.LC129:
 6445 0c7e 44657175 		.ascii	"Dequantize_230_out_0\000"
 6445      616E7469 
 6445      7A655F32 
 6445      33305F6F 
 6445      75745F30 
 6446              		.section	.data.__compound_literal.8,"aw"
 6447              		.align	2
 6450              	__compound_literal.8:
 6451 0000 04000000 		.word	4
 6452 0004 09000000 		.word	9
 6453 0008 40108200 		.word	8523840
 6454 000c 02000000 		.word	2
 6455 0010 00000000 		.word	__compound_literal.4
 6456 0014 00000000 		.word	0
 6457 0018 00000000 		.word	0
 6458 001c 00000000 		.word	0
 6459 0020 00000000 		.word	0
 6460 0024 3F0C0000 		.word	.LC126
 6461 0028 FC000000 		.word	252
 6462 002c 09000000 		.word	9
 6463 0030 40108200 		.word	8523840
 6464 0034 02000000 		.word	2
 6465 0038 00000000 		.word	__compound_literal.5
ARM GAS  C:\Users\DJESSOU\AppData\Local\Temp\ccfF5lhd.s 			page 142


 6466 003c 00000000 		.word	0
 6467 0040 00000000 		.word	0
 6468 0044 00000000 		.word	0
 6469 0048 00000000 		.word	0
 6470 004c 540C0000 		.word	.LC127
 6471 0050 04000000 		.word	4
 6472 0054 09000000 		.word	9
 6473 0058 40108200 		.word	8523840
 6474 005c 02000000 		.word	2
 6475 0060 00000000 		.word	__compound_literal.6
 6476 0064 00000000 		.word	0
 6477 0068 00000000 		.word	0
 6478 006c 00000000 		.word	0
 6479 0070 00000000 		.word	0
 6480 0074 690C0000 		.word	.LC128
 6481 0078 FC000000 		.word	252
 6482 007c 09000000 		.word	9
 6483 0080 40108200 		.word	8523840
 6484 0084 02000000 		.word	2
 6485 0088 00000000 		.word	__compound_literal.7
 6486 008c 00000000 		.word	0
 6487 0090 00000000 		.word	0
 6488 0094 00000000 		.word	0
 6489 0098 00000000 		.word	0
 6490 009c 7E0C0000 		.word	.LC129
 6491              		.section	.data.__compound_literal.7,"aw"
 6492              		.align	2
 6495              	__compound_literal.7:
 6496 0000 01000000 		.word	1
 6497 0004 3F000000 		.word	63
 6498              		.section	.data.__compound_literal.6,"aw"
 6499              		.align	2
 6502              	__compound_literal.6:
 6503 0000 01000000 		.word	1
 6504 0004 01000000 		.word	1
 6505              		.section	.data.__compound_literal.5,"aw"
 6506              		.align	2
 6509              	__compound_literal.5:
 6510 0000 01000000 		.word	1
 6511 0004 3F000000 		.word	63
 6512              		.section	.data.__compound_literal.4,"aw"
 6513              		.align	2
 6516              	__compound_literal.4:
 6517 0000 01000000 		.word	1
 6518 0004 01000000 		.word	1
 6519              		.section	.rodata.str1.1
 6520              	.LC130:
 6521 0c93 496E7075 		.ascii	"Input_0_out_0\000"
 6521      745F305F 
 6521      6F75745F 
 6521      3000
 6522              		.section	.data.__compound_literal.3,"aw"
 6523              		.align	2
 6526              	__compound_literal.3:
 6527 0000 004C0200 		.word	150528
 6528 0004 81000000 		.word	129
 6529 0008 40040400 		.word	263232
ARM GAS  C:\Users\DJESSOU\AppData\Local\Temp\ccfF5lhd.s 			page 143


 6530 000c 04000000 		.word	4
 6531 0010 00000000 		.word	__compound_literal.0
 6532 0014 01000000 		.word	1
 6533 0018 00000000 		.word	__compound_literal.1
 6534 001c 01000000 		.word	1
 6535 0020 00000000 		.word	__compound_literal.2
 6536 0024 930C0000 		.word	.LC130
 6537              		.section	.bss.__compound_literal.2,"aw",%nobits
 6538              		.align	1
 6541              	__compound_literal.2:
 6542 0000 0000     		.space	2
 6543              		.section	.data.__compound_literal.1,"aw"
 6544              		.align	2
 6547              	__compound_literal.1:
 6548 0000 8080803B 		.word	998277248
 6549              		.section	.data.__compound_literal.0,"aw"
 6550              		.align	2
 6553              	__compound_literal.0:
 6554 0000 01000000 		.word	1
 6555 0004 E0000000 		.word	224
 6556 0008 E0000000 		.word	224
 6557 000c 03000000 		.word	3
 6558              		.section	.rodata.NN_Interface_hand_landmark,"a"
 6559              		.align	2
 6562              	NN_Interface_hand_landmark:
 6563 0000 15000000 		.word	.LC6
 6564 0004 00000000 		.word	LL_ATON_EC_Network_Init_hand_landmark
 6565 0008 00000000 		.word	LL_ATON_EC_Inference_Init_hand_landmark
 6566 000c 00000000 		.word	LL_ATON_Set_User_Input_Buffer_hand_landmark
 6567 0010 00000000 		.word	LL_ATON_Get_User_Input_Buffer_hand_landmark
 6568 0014 00000000 		.word	LL_ATON_Set_User_Output_Buffer_hand_landmark
 6569 0018 00000000 		.word	LL_ATON_Get_User_Output_Buffer_hand_landmark
 6570 001c 00000000 		.word	LL_ATON_EpochBlockItems_hand_landmark
 6571 0020 00000000 		.word	LL_ATON_Output_Buffers_Info_hand_landmark
 6572 0024 00000000 		.word	LL_ATON_Input_Buffers_Info_hand_landmark
 6573 0028 00000000 		.word	LL_ATON_BlobEncryption_Info_hand_landmark
 6574 002c 00000000 		.word	LL_ATON_WeightEncryption_Info_hand_landmark
 6575 0030 00000000 		.word	LL_ATON_Internal_Buffers_Info_hand_landmark
 6576              		.text
 6577              	.Letext0:
 6578              		.file 4 "C:\\ST\\STM32CubeIDE_1.18.1\\STM32CubeIDE\\plugins\\com.st.stm32cube.ide.mcu.externaltool
 6579              		.file 5 "C:\\ST\\STM32CubeIDE_1.18.1\\STM32CubeIDE\\plugins\\com.st.stm32cube.ide.mcu.externaltool
 6580              		.file 6 "Lib/AI_Runtime/Npu/ll_aton/ll_aton_cipher.h"
 6581              		.file 7 "Lib/AI_Runtime/Npu/ll_aton/ll_aton_rt_user_api.h"
 6582              		.file 8 "Lib/AI_Runtime/Inc/stai.h"
 6583              		.file 9 "Lib/AI_Runtime/Npu/ll_aton/stai_aton_common.h"
 6584              		.file 10 "C:\\ST\\STM32CubeIDE_1.18.1\\STM32CubeIDE\\plugins\\com.st.stm32cube.ide.mcu.externaltoo
 6585              		.file 11 "<built-in>"
ARM GAS  C:\Users\DJESSOU\AppData\Local\Temp\ccfF5lhd.s 			page 144


DEFINED SYMBOLS
                            *ABS*:00000000 stai_hand_landmark.c
C:\Users\DJESSOU\AppData\Local\Temp\ccfF5lhd.s:26     .text.LL_Buffer_addr_start:00000000 $t
C:\Users\DJESSOU\AppData\Local\Temp\ccfF5lhd.s:31     .text.LL_Buffer_addr_start:00000000 LL_Buffer_addr_start
C:\Users\DJESSOU\AppData\Local\Temp\ccfF5lhd.s:76     .text.__ll_aton_stai_check_context_network_handle.constprop.0:00000000 $t
C:\Users\DJESSOU\AppData\Local\Temp\ccfF5lhd.s:81     .text.__ll_aton_stai_check_context_network_handle.constprop.0:00000000 __ll_aton_stai_check_context_network_handle.constprop.0
C:\Users\DJESSOU\AppData\Local\Temp\ccfF5lhd.s:143    .text.__ll_aton_stai_hand_landmark_set_outputs_or_activations:00000000 $t
C:\Users\DJESSOU\AppData\Local\Temp\ccfF5lhd.s:148    .text.__ll_aton_stai_hand_landmark_set_outputs_or_activations:00000000 __ll_aton_stai_hand_landmark_set_outputs_or_activations
C:\Users\DJESSOU\AppData\Local\Temp\ccfF5lhd.s:459    .text.__ll_aton_stai_hand_landmark_set_outputs_or_activations:0000010c $d
C:\Users\DJESSOU\AppData\Local\Temp\ccfF5lhd.s:6562   .rodata.NN_Interface_hand_landmark:00000000 NN_Interface_hand_landmark
C:\Users\DJESSOU\AppData\Local\Temp\ccfF5lhd.s:2651   .rodata.__func__.0:00000000 __func__.0
C:\Users\DJESSOU\AppData\Local\Temp\ccfF5lhd.s:475    .text.__ll_aton_stai_hand_landmark_set_inputs_or_weights:00000000 $t
C:\Users\DJESSOU\AppData\Local\Temp\ccfF5lhd.s:480    .text.__ll_aton_stai_hand_landmark_set_inputs_or_weights:00000000 __ll_aton_stai_hand_landmark_set_inputs_or_weights
C:\Users\DJESSOU\AppData\Local\Temp\ccfF5lhd.s:791    .text.__ll_aton_stai_hand_landmark_set_inputs_or_weights:00000118 $d
C:\Users\DJESSOU\AppData\Local\Temp\ccfF5lhd.s:2657   .rodata.__func__.1:00000000 __func__.1
C:\Users\DJESSOU\AppData\Local\Temp\ccfF5lhd.s:811    .text.__ll_aton_stai_hand_landmark_get_outputs_or_activations:00000000 $t
C:\Users\DJESSOU\AppData\Local\Temp\ccfF5lhd.s:816    .text.__ll_aton_stai_hand_landmark_get_outputs_or_activations:00000000 __ll_aton_stai_hand_landmark_get_outputs_or_activations
C:\Users\DJESSOU\AppData\Local\Temp\ccfF5lhd.s:1080   .text.__ll_aton_stai_hand_landmark_get_outputs_or_activations:000000b0 $d
C:\Users\DJESSOU\AppData\Local\Temp\ccfF5lhd.s:2662   .rodata.__func__.2:00000000 __func__.2
C:\Users\DJESSOU\AppData\Local\Temp\ccfF5lhd.s:1091   .text.__ll_aton_stai_hand_landmark_get_inputs_or_weights:00000000 $t
C:\Users\DJESSOU\AppData\Local\Temp\ccfF5lhd.s:1096   .text.__ll_aton_stai_hand_landmark_get_inputs_or_weights:00000000 __ll_aton_stai_hand_landmark_get_inputs_or_weights
C:\Users\DJESSOU\AppData\Local\Temp\ccfF5lhd.s:1330   .text.__ll_aton_stai_hand_landmark_get_inputs_or_weights:000000bc $d
C:\Users\DJESSOU\AppData\Local\Temp\ccfF5lhd.s:2668   .rodata.__func__.3:00000000 __func__.3
C:\Users\DJESSOU\AppData\Local\Temp\ccfF5lhd.s:1344   .text.stai_hand_landmark_init:00000000 $t
C:\Users\DJESSOU\AppData\Local\Temp\ccfF5lhd.s:1350   .text.stai_hand_landmark_init:00000000 stai_hand_landmark_init
C:\Users\DJESSOU\AppData\Local\Temp\ccfF5lhd.s:1409   .text.stai_hand_landmark_init:0000002c $d
C:\Users\DJESSOU\AppData\Local\Temp\ccfF5lhd.s:1414   .text.stai_hand_landmark_deinit:00000000 $t
C:\Users\DJESSOU\AppData\Local\Temp\ccfF5lhd.s:1420   .text.stai_hand_landmark_deinit:00000000 stai_hand_landmark_deinit
C:\Users\DJESSOU\AppData\Local\Temp\ccfF5lhd.s:1538   .text.stai_hand_landmark_deinit:00000070 $d
C:\Users\DJESSOU\AppData\Local\Temp\ccfF5lhd.s:1543   .text.stai_hand_landmark_run:00000000 $t
C:\Users\DJESSOU\AppData\Local\Temp\ccfF5lhd.s:1549   .text.stai_hand_landmark_run:00000000 stai_hand_landmark_run
C:\Users\DJESSOU\AppData\Local\Temp\ccfF5lhd.s:1631   .text.stai_hand_landmark_run:00000044 $d
C:\Users\DJESSOU\AppData\Local\Temp\ccfF5lhd.s:1636   .text.stai_hand_landmark_train:00000000 $t
C:\Users\DJESSOU\AppData\Local\Temp\ccfF5lhd.s:1642   .text.stai_hand_landmark_train:00000000 stai_hand_landmark_train
C:\Users\DJESSOU\AppData\Local\Temp\ccfF5lhd.s:1725   .text.stai_hand_landmark_train:0000004c $d
C:\Users\DJESSOU\AppData\Local\Temp\ccfF5lhd.s:1731   .text.stai_hand_landmark_get_inputs:00000000 $t
C:\Users\DJESSOU\AppData\Local\Temp\ccfF5lhd.s:1737   .text.stai_hand_landmark_get_inputs:00000000 stai_hand_landmark_get_inputs
C:\Users\DJESSOU\AppData\Local\Temp\ccfF5lhd.s:1755   .text.stai_hand_landmark_get_weights:00000000 $t
C:\Users\DJESSOU\AppData\Local\Temp\ccfF5lhd.s:1761   .text.stai_hand_landmark_get_weights:00000000 stai_hand_landmark_get_weights
C:\Users\DJESSOU\AppData\Local\Temp\ccfF5lhd.s:1779   .text.stai_hand_landmark_get_outputs:00000000 $t
C:\Users\DJESSOU\AppData\Local\Temp\ccfF5lhd.s:1785   .text.stai_hand_landmark_get_outputs:00000000 stai_hand_landmark_get_outputs
C:\Users\DJESSOU\AppData\Local\Temp\ccfF5lhd.s:1803   .text.stai_hand_landmark_get_activations:00000000 $t
C:\Users\DJESSOU\AppData\Local\Temp\ccfF5lhd.s:1809   .text.stai_hand_landmark_get_activations:00000000 stai_hand_landmark_get_activations
C:\Users\DJESSOU\AppData\Local\Temp\ccfF5lhd.s:1834   .text.stai_hand_landmark_get_info:00000000 $t
C:\Users\DJESSOU\AppData\Local\Temp\ccfF5lhd.s:1840   .text.stai_hand_landmark_get_info:00000000 stai_hand_landmark_get_info
C:\Users\DJESSOU\AppData\Local\Temp\ccfF5lhd.s:1950   .text.stai_hand_landmark_get_info:00000080 $d
C:\Users\DJESSOU\AppData\Local\Temp\ccfF5lhd.s:6526   .data.__compound_literal.3:00000000 __compound_literal.3
C:\Users\DJESSOU\AppData\Local\Temp\ccfF5lhd.s:6450   .data.__compound_literal.8:00000000 __compound_literal.8
C:\Users\DJESSOU\AppData\Local\Temp\ccfF5lhd.s:2919   .data.__compound_literal.331:00000000 __compound_literal.331
C:\Users\DJESSOU\AppData\Local\Temp\ccfF5lhd.s:1962   .text.stai_hand_landmark_get_states:00000000 $t
C:\Users\DJESSOU\AppData\Local\Temp\ccfF5lhd.s:1968   .text.stai_hand_landmark_get_states:00000000 stai_hand_landmark_get_states
C:\Users\DJESSOU\AppData\Local\Temp\ccfF5lhd.s:2042   .text.stai_hand_landmark_get_states:0000003c $d
C:\Users\DJESSOU\AppData\Local\Temp\ccfF5lhd.s:2047   .text.stai_hand_landmark_get_error:00000000 $t
C:\Users\DJESSOU\AppData\Local\Temp\ccfF5lhd.s:2053   .text.stai_hand_landmark_get_error:00000000 stai_hand_landmark_get_error
C:\Users\DJESSOU\AppData\Local\Temp\ccfF5lhd.s:2121   .text.stai_hand_landmark_get_error:0000003c $d
C:\Users\DJESSOU\AppData\Local\Temp\ccfF5lhd.s:2126   .text.stai_hand_landmark_set_inputs:00000000 $t
C:\Users\DJESSOU\AppData\Local\Temp\ccfF5lhd.s:2132   .text.stai_hand_landmark_set_inputs:00000000 stai_hand_landmark_set_inputs
ARM GAS  C:\Users\DJESSOU\AppData\Local\Temp\ccfF5lhd.s 			page 145


C:\Users\DJESSOU\AppData\Local\Temp\ccfF5lhd.s:2150   .text.stai_hand_landmark_set_weights:00000000 $t
C:\Users\DJESSOU\AppData\Local\Temp\ccfF5lhd.s:2156   .text.stai_hand_landmark_set_weights:00000000 stai_hand_landmark_set_weights
C:\Users\DJESSOU\AppData\Local\Temp\ccfF5lhd.s:2174   .text.stai_hand_landmark_set_outputs:00000000 $t
C:\Users\DJESSOU\AppData\Local\Temp\ccfF5lhd.s:2180   .text.stai_hand_landmark_set_outputs:00000000 stai_hand_landmark_set_outputs
C:\Users\DJESSOU\AppData\Local\Temp\ccfF5lhd.s:2198   .text.stai_hand_landmark_set_activations:00000000 $t
C:\Users\DJESSOU\AppData\Local\Temp\ccfF5lhd.s:2204   .text.stai_hand_landmark_set_activations:00000000 stai_hand_landmark_set_activations
C:\Users\DJESSOU\AppData\Local\Temp\ccfF5lhd.s:2222   .text.stai_hand_landmark_set_states:00000000 $t
C:\Users\DJESSOU\AppData\Local\Temp\ccfF5lhd.s:2228   .text.stai_hand_landmark_set_states:00000000 stai_hand_landmark_set_states
C:\Users\DJESSOU\AppData\Local\Temp\ccfF5lhd.s:2316   .text.stai_hand_landmark_set_states:00000050 $d
C:\Users\DJESSOU\AppData\Local\Temp\ccfF5lhd.s:2322   .text.stai_hand_landmark_set_callback:00000000 $t
C:\Users\DJESSOU\AppData\Local\Temp\ccfF5lhd.s:2328   .text.stai_hand_landmark_set_callback:00000000 stai_hand_landmark_set_callback
C:\Users\DJESSOU\AppData\Local\Temp\ccfF5lhd.s:2396   .text.stai_hand_landmark_set_callback:00000038 $d
C:\Users\DJESSOU\AppData\Local\Temp\ccfF5lhd.s:2402   .text.stai_ext_hand_landmark_run_continue:00000000 $t
C:\Users\DJESSOU\AppData\Local\Temp\ccfF5lhd.s:2408   .text.stai_ext_hand_landmark_run_continue:00000000 stai_ext_hand_landmark_run_continue
C:\Users\DJESSOU\AppData\Local\Temp\ccfF5lhd.s:2527   .text.stai_ext_hand_landmark_run_continue:00000060 $d
C:\Users\DJESSOU\AppData\Local\Temp\ccfF5lhd.s:2534   .text.stai_ext_hand_landmark_get_nn_run_status:00000000 $t
C:\Users\DJESSOU\AppData\Local\Temp\ccfF5lhd.s:2540   .text.stai_ext_hand_landmark_get_nn_run_status:00000000 stai_ext_hand_landmark_get_nn_run_status
C:\Users\DJESSOU\AppData\Local\Temp\ccfF5lhd.s:2621   .text.stai_ext_hand_landmark_get_nn_run_status:00000044 $d
C:\Users\DJESSOU\AppData\Local\Temp\ccfF5lhd.s:2626   .text.stai_ext_hand_landmark_new_inference:00000000 $t
C:\Users\DJESSOU\AppData\Local\Temp\ccfF5lhd.s:2632   .text.stai_ext_hand_landmark_new_inference:00000000 stai_ext_hand_landmark_new_inference
C:\Users\DJESSOU\AppData\Local\Temp\ccfF5lhd.s:2916   .data.__compound_literal.331:00000000 $d
C:\Users\DJESSOU\AppData\Local\Temp\ccfF5lhd.s:6432   .data.__compound_literal.9:00000000 __compound_literal.9
C:\Users\DJESSOU\AppData\Local\Temp\ccfF5lhd.s:6426   .data.__compound_literal.10:00000000 __compound_literal.10
C:\Users\DJESSOU\AppData\Local\Temp\ccfF5lhd.s:6420   .bss.__compound_literal.11:00000000 __compound_literal.11
C:\Users\DJESSOU\AppData\Local\Temp\ccfF5lhd.s:6411   .data.__compound_literal.12:00000000 __compound_literal.12
C:\Users\DJESSOU\AppData\Local\Temp\ccfF5lhd.s:6405   .data.__compound_literal.13:00000000 __compound_literal.13
C:\Users\DJESSOU\AppData\Local\Temp\ccfF5lhd.s:6399   .bss.__compound_literal.14:00000000 __compound_literal.14
C:\Users\DJESSOU\AppData\Local\Temp\ccfF5lhd.s:6390   .data.__compound_literal.15:00000000 __compound_literal.15
C:\Users\DJESSOU\AppData\Local\Temp\ccfF5lhd.s:6384   .data.__compound_literal.16:00000000 __compound_literal.16
C:\Users\DJESSOU\AppData\Local\Temp\ccfF5lhd.s:6378   .bss.__compound_literal.17:00000000 __compound_literal.17
C:\Users\DJESSOU\AppData\Local\Temp\ccfF5lhd.s:6369   .data.__compound_literal.18:00000000 __compound_literal.18
C:\Users\DJESSOU\AppData\Local\Temp\ccfF5lhd.s:6363   .data.__compound_literal.19:00000000 __compound_literal.19
C:\Users\DJESSOU\AppData\Local\Temp\ccfF5lhd.s:6357   .bss.__compound_literal.20:00000000 __compound_literal.20
C:\Users\DJESSOU\AppData\Local\Temp\ccfF5lhd.s:6347   .data.__compound_literal.21:00000000 __compound_literal.21
C:\Users\DJESSOU\AppData\Local\Temp\ccfF5lhd.s:6341   .data.__compound_literal.22:00000000 __compound_literal.22
C:\Users\DJESSOU\AppData\Local\Temp\ccfF5lhd.s:6335   .bss.__compound_literal.23:00000000 __compound_literal.23
C:\Users\DJESSOU\AppData\Local\Temp\ccfF5lhd.s:6325   .data.__compound_literal.24:00000000 __compound_literal.24
C:\Users\DJESSOU\AppData\Local\Temp\ccfF5lhd.s:6319   .data.__compound_literal.25:00000000 __compound_literal.25
C:\Users\DJESSOU\AppData\Local\Temp\ccfF5lhd.s:6313   .bss.__compound_literal.26:00000000 __compound_literal.26
C:\Users\DJESSOU\AppData\Local\Temp\ccfF5lhd.s:6304   .data.__compound_literal.27:00000000 __compound_literal.27
C:\Users\DJESSOU\AppData\Local\Temp\ccfF5lhd.s:6298   .data.__compound_literal.28:00000000 __compound_literal.28
C:\Users\DJESSOU\AppData\Local\Temp\ccfF5lhd.s:6292   .bss.__compound_literal.29:00000000 __compound_literal.29
C:\Users\DJESSOU\AppData\Local\Temp\ccfF5lhd.s:6283   .data.__compound_literal.30:00000000 __compound_literal.30
C:\Users\DJESSOU\AppData\Local\Temp\ccfF5lhd.s:6277   .data.__compound_literal.31:00000000 __compound_literal.31
C:\Users\DJESSOU\AppData\Local\Temp\ccfF5lhd.s:6271   .data.__compound_literal.32:00000000 __compound_literal.32
C:\Users\DJESSOU\AppData\Local\Temp\ccfF5lhd.s:6262   .data.__compound_literal.33:00000000 __compound_literal.33
C:\Users\DJESSOU\AppData\Local\Temp\ccfF5lhd.s:6256   .data.__compound_literal.34:00000000 __compound_literal.34
C:\Users\DJESSOU\AppData\Local\Temp\ccfF5lhd.s:6250   .bss.__compound_literal.35:00000000 __compound_literal.35
C:\Users\DJESSOU\AppData\Local\Temp\ccfF5lhd.s:6241   .data.__compound_literal.36:00000000 __compound_literal.36
C:\Users\DJESSOU\AppData\Local\Temp\ccfF5lhd.s:6235   .data.__compound_literal.37:00000000 __compound_literal.37
C:\Users\DJESSOU\AppData\Local\Temp\ccfF5lhd.s:6229   .bss.__compound_literal.38:00000000 __compound_literal.38
C:\Users\DJESSOU\AppData\Local\Temp\ccfF5lhd.s:6219   .data.__compound_literal.39:00000000 __compound_literal.39
C:\Users\DJESSOU\AppData\Local\Temp\ccfF5lhd.s:6213   .data.__compound_literal.40:00000000 __compound_literal.40
C:\Users\DJESSOU\AppData\Local\Temp\ccfF5lhd.s:6207   .bss.__compound_literal.41:00000000 __compound_literal.41
C:\Users\DJESSOU\AppData\Local\Temp\ccfF5lhd.s:6197   .data.__compound_literal.42:00000000 __compound_literal.42
C:\Users\DJESSOU\AppData\Local\Temp\ccfF5lhd.s:6191   .data.__compound_literal.43:00000000 __compound_literal.43
C:\Users\DJESSOU\AppData\Local\Temp\ccfF5lhd.s:6185   .bss.__compound_literal.44:00000000 __compound_literal.44
ARM GAS  C:\Users\DJESSOU\AppData\Local\Temp\ccfF5lhd.s 			page 146


C:\Users\DJESSOU\AppData\Local\Temp\ccfF5lhd.s:6176   .data.__compound_literal.45:00000000 __compound_literal.45
C:\Users\DJESSOU\AppData\Local\Temp\ccfF5lhd.s:6170   .data.__compound_literal.46:00000000 __compound_literal.46
C:\Users\DJESSOU\AppData\Local\Temp\ccfF5lhd.s:6164   .bss.__compound_literal.47:00000000 __compound_literal.47
C:\Users\DJESSOU\AppData\Local\Temp\ccfF5lhd.s:6155   .data.__compound_literal.48:00000000 __compound_literal.48
C:\Users\DJESSOU\AppData\Local\Temp\ccfF5lhd.s:6149   .data.__compound_literal.49:00000000 __compound_literal.49
C:\Users\DJESSOU\AppData\Local\Temp\ccfF5lhd.s:6143   .data.__compound_literal.50:00000000 __compound_literal.50
C:\Users\DJESSOU\AppData\Local\Temp\ccfF5lhd.s:6134   .data.__compound_literal.51:00000000 __compound_literal.51
C:\Users\DJESSOU\AppData\Local\Temp\ccfF5lhd.s:6128   .data.__compound_literal.52:00000000 __compound_literal.52
C:\Users\DJESSOU\AppData\Local\Temp\ccfF5lhd.s:6122   .bss.__compound_literal.53:00000000 __compound_literal.53
C:\Users\DJESSOU\AppData\Local\Temp\ccfF5lhd.s:6113   .data.__compound_literal.54:00000000 __compound_literal.54
C:\Users\DJESSOU\AppData\Local\Temp\ccfF5lhd.s:6107   .data.__compound_literal.55:00000000 __compound_literal.55
C:\Users\DJESSOU\AppData\Local\Temp\ccfF5lhd.s:6101   .bss.__compound_literal.56:00000000 __compound_literal.56
C:\Users\DJESSOU\AppData\Local\Temp\ccfF5lhd.s:6092   .data.__compound_literal.57:00000000 __compound_literal.57
C:\Users\DJESSOU\AppData\Local\Temp\ccfF5lhd.s:6086   .data.__compound_literal.58:00000000 __compound_literal.58
C:\Users\DJESSOU\AppData\Local\Temp\ccfF5lhd.s:6080   .bss.__compound_literal.59:00000000 __compound_literal.59
C:\Users\DJESSOU\AppData\Local\Temp\ccfF5lhd.s:6071   .data.__compound_literal.60:00000000 __compound_literal.60
C:\Users\DJESSOU\AppData\Local\Temp\ccfF5lhd.s:6065   .data.__compound_literal.61:00000000 __compound_literal.61
C:\Users\DJESSOU\AppData\Local\Temp\ccfF5lhd.s:6059   .bss.__compound_literal.62:00000000 __compound_literal.62
C:\Users\DJESSOU\AppData\Local\Temp\ccfF5lhd.s:6049   .data.__compound_literal.63:00000000 __compound_literal.63
C:\Users\DJESSOU\AppData\Local\Temp\ccfF5lhd.s:6043   .data.__compound_literal.64:00000000 __compound_literal.64
C:\Users\DJESSOU\AppData\Local\Temp\ccfF5lhd.s:6037   .bss.__compound_literal.65:00000000 __compound_literal.65
C:\Users\DJESSOU\AppData\Local\Temp\ccfF5lhd.s:6028   .data.__compound_literal.66:00000000 __compound_literal.66
C:\Users\DJESSOU\AppData\Local\Temp\ccfF5lhd.s:6022   .data.__compound_literal.67:00000000 __compound_literal.67
C:\Users\DJESSOU\AppData\Local\Temp\ccfF5lhd.s:6016   .data.__compound_literal.68:00000000 __compound_literal.68
C:\Users\DJESSOU\AppData\Local\Temp\ccfF5lhd.s:6006   .data.__compound_literal.69:00000000 __compound_literal.69
C:\Users\DJESSOU\AppData\Local\Temp\ccfF5lhd.s:6000   .data.__compound_literal.70:00000000 __compound_literal.70
C:\Users\DJESSOU\AppData\Local\Temp\ccfF5lhd.s:5994   .bss.__compound_literal.71:00000000 __compound_literal.71
C:\Users\DJESSOU\AppData\Local\Temp\ccfF5lhd.s:5984   .data.__compound_literal.72:00000000 __compound_literal.72
C:\Users\DJESSOU\AppData\Local\Temp\ccfF5lhd.s:5978   .data.__compound_literal.73:00000000 __compound_literal.73
C:\Users\DJESSOU\AppData\Local\Temp\ccfF5lhd.s:5972   .bss.__compound_literal.74:00000000 __compound_literal.74
C:\Users\DJESSOU\AppData\Local\Temp\ccfF5lhd.s:5963   .data.__compound_literal.75:00000000 __compound_literal.75
C:\Users\DJESSOU\AppData\Local\Temp\ccfF5lhd.s:5957   .data.__compound_literal.76:00000000 __compound_literal.76
C:\Users\DJESSOU\AppData\Local\Temp\ccfF5lhd.s:5951   .bss.__compound_literal.77:00000000 __compound_literal.77
C:\Users\DJESSOU\AppData\Local\Temp\ccfF5lhd.s:5942   .data.__compound_literal.78:00000000 __compound_literal.78
C:\Users\DJESSOU\AppData\Local\Temp\ccfF5lhd.s:5936   .data.__compound_literal.79:00000000 __compound_literal.79
C:\Users\DJESSOU\AppData\Local\Temp\ccfF5lhd.s:5930   .bss.__compound_literal.80:00000000 __compound_literal.80
C:\Users\DJESSOU\AppData\Local\Temp\ccfF5lhd.s:5920   .data.__compound_literal.81:00000000 __compound_literal.81
C:\Users\DJESSOU\AppData\Local\Temp\ccfF5lhd.s:5914   .data.__compound_literal.82:00000000 __compound_literal.82
C:\Users\DJESSOU\AppData\Local\Temp\ccfF5lhd.s:5908   .data.__compound_literal.83:00000000 __compound_literal.83
C:\Users\DJESSOU\AppData\Local\Temp\ccfF5lhd.s:5899   .data.__compound_literal.84:00000000 __compound_literal.84
C:\Users\DJESSOU\AppData\Local\Temp\ccfF5lhd.s:5893   .data.__compound_literal.85:00000000 __compound_literal.85
C:\Users\DJESSOU\AppData\Local\Temp\ccfF5lhd.s:5887   .bss.__compound_literal.86:00000000 __compound_literal.86
C:\Users\DJESSOU\AppData\Local\Temp\ccfF5lhd.s:5878   .data.__compound_literal.87:00000000 __compound_literal.87
C:\Users\DJESSOU\AppData\Local\Temp\ccfF5lhd.s:5872   .data.__compound_literal.88:00000000 __compound_literal.88
C:\Users\DJESSOU\AppData\Local\Temp\ccfF5lhd.s:5866   .bss.__compound_literal.89:00000000 __compound_literal.89
C:\Users\DJESSOU\AppData\Local\Temp\ccfF5lhd.s:5856   .data.__compound_literal.90:00000000 __compound_literal.90
C:\Users\DJESSOU\AppData\Local\Temp\ccfF5lhd.s:5850   .data.__compound_literal.91:00000000 __compound_literal.91
C:\Users\DJESSOU\AppData\Local\Temp\ccfF5lhd.s:5844   .data.__compound_literal.92:00000000 __compound_literal.92
C:\Users\DJESSOU\AppData\Local\Temp\ccfF5lhd.s:5834   .data.__compound_literal.93:00000000 __compound_literal.93
C:\Users\DJESSOU\AppData\Local\Temp\ccfF5lhd.s:5828   .data.__compound_literal.94:00000000 __compound_literal.94
C:\Users\DJESSOU\AppData\Local\Temp\ccfF5lhd.s:5822   .bss.__compound_literal.95:00000000 __compound_literal.95
C:\Users\DJESSOU\AppData\Local\Temp\ccfF5lhd.s:5812   .data.__compound_literal.96:00000000 __compound_literal.96
C:\Users\DJESSOU\AppData\Local\Temp\ccfF5lhd.s:5806   .data.__compound_literal.97:00000000 __compound_literal.97
C:\Users\DJESSOU\AppData\Local\Temp\ccfF5lhd.s:5800   .bss.__compound_literal.98:00000000 __compound_literal.98
C:\Users\DJESSOU\AppData\Local\Temp\ccfF5lhd.s:5790   .data.__compound_literal.99:00000000 __compound_literal.99
C:\Users\DJESSOU\AppData\Local\Temp\ccfF5lhd.s:5784   .data.__compound_literal.100:00000000 __compound_literal.100
C:\Users\DJESSOU\AppData\Local\Temp\ccfF5lhd.s:5778   .bss.__compound_literal.101:00000000 __compound_literal.101
ARM GAS  C:\Users\DJESSOU\AppData\Local\Temp\ccfF5lhd.s 			page 147


C:\Users\DJESSOU\AppData\Local\Temp\ccfF5lhd.s:5769   .data.__compound_literal.102:00000000 __compound_literal.102
C:\Users\DJESSOU\AppData\Local\Temp\ccfF5lhd.s:5763   .data.__compound_literal.103:00000000 __compound_literal.103
C:\Users\DJESSOU\AppData\Local\Temp\ccfF5lhd.s:5757   .bss.__compound_literal.104:00000000 __compound_literal.104
C:\Users\DJESSOU\AppData\Local\Temp\ccfF5lhd.s:5748   .data.__compound_literal.105:00000000 __compound_literal.105
C:\Users\DJESSOU\AppData\Local\Temp\ccfF5lhd.s:5742   .data.__compound_literal.106:00000000 __compound_literal.106
C:\Users\DJESSOU\AppData\Local\Temp\ccfF5lhd.s:5736   .bss.__compound_literal.107:00000000 __compound_literal.107
C:\Users\DJESSOU\AppData\Local\Temp\ccfF5lhd.s:5727   .data.__compound_literal.108:00000000 __compound_literal.108
C:\Users\DJESSOU\AppData\Local\Temp\ccfF5lhd.s:5721   .data.__compound_literal.109:00000000 __compound_literal.109
C:\Users\DJESSOU\AppData\Local\Temp\ccfF5lhd.s:5715   .bss.__compound_literal.110:00000000 __compound_literal.110
C:\Users\DJESSOU\AppData\Local\Temp\ccfF5lhd.s:5706   .data.__compound_literal.111:00000000 __compound_literal.111
C:\Users\DJESSOU\AppData\Local\Temp\ccfF5lhd.s:5700   .data.__compound_literal.112:00000000 __compound_literal.112
C:\Users\DJESSOU\AppData\Local\Temp\ccfF5lhd.s:5694   .bss.__compound_literal.113:00000000 __compound_literal.113
C:\Users\DJESSOU\AppData\Local\Temp\ccfF5lhd.s:5684   .data.__compound_literal.114:00000000 __compound_literal.114
C:\Users\DJESSOU\AppData\Local\Temp\ccfF5lhd.s:5678   .data.__compound_literal.115:00000000 __compound_literal.115
C:\Users\DJESSOU\AppData\Local\Temp\ccfF5lhd.s:5672   .bss.__compound_literal.116:00000000 __compound_literal.116
C:\Users\DJESSOU\AppData\Local\Temp\ccfF5lhd.s:5662   .data.__compound_literal.117:00000000 __compound_literal.117
C:\Users\DJESSOU\AppData\Local\Temp\ccfF5lhd.s:5656   .data.__compound_literal.118:00000000 __compound_literal.118
C:\Users\DJESSOU\AppData\Local\Temp\ccfF5lhd.s:5650   .data.__compound_literal.119:00000000 __compound_literal.119
C:\Users\DJESSOU\AppData\Local\Temp\ccfF5lhd.s:5640   .data.__compound_literal.120:00000000 __compound_literal.120
C:\Users\DJESSOU\AppData\Local\Temp\ccfF5lhd.s:5634   .data.__compound_literal.121:00000000 __compound_literal.121
C:\Users\DJESSOU\AppData\Local\Temp\ccfF5lhd.s:5628   .bss.__compound_literal.122:00000000 __compound_literal.122
C:\Users\DJESSOU\AppData\Local\Temp\ccfF5lhd.s:5618   .data.__compound_literal.123:00000000 __compound_literal.123
C:\Users\DJESSOU\AppData\Local\Temp\ccfF5lhd.s:5612   .data.__compound_literal.124:00000000 __compound_literal.124
C:\Users\DJESSOU\AppData\Local\Temp\ccfF5lhd.s:5606   .bss.__compound_literal.125:00000000 __compound_literal.125
C:\Users\DJESSOU\AppData\Local\Temp\ccfF5lhd.s:5596   .data.__compound_literal.126:00000000 __compound_literal.126
C:\Users\DJESSOU\AppData\Local\Temp\ccfF5lhd.s:5590   .data.__compound_literal.127:00000000 __compound_literal.127
C:\Users\DJESSOU\AppData\Local\Temp\ccfF5lhd.s:5584   .bss.__compound_literal.128:00000000 __compound_literal.128
C:\Users\DJESSOU\AppData\Local\Temp\ccfF5lhd.s:5575   .data.__compound_literal.129:00000000 __compound_literal.129
C:\Users\DJESSOU\AppData\Local\Temp\ccfF5lhd.s:5569   .data.__compound_literal.130:00000000 __compound_literal.130
C:\Users\DJESSOU\AppData\Local\Temp\ccfF5lhd.s:5563   .bss.__compound_literal.131:00000000 __compound_literal.131
C:\Users\DJESSOU\AppData\Local\Temp\ccfF5lhd.s:5554   .data.__compound_literal.132:00000000 __compound_literal.132
C:\Users\DJESSOU\AppData\Local\Temp\ccfF5lhd.s:5548   .data.__compound_literal.133:00000000 __compound_literal.133
C:\Users\DJESSOU\AppData\Local\Temp\ccfF5lhd.s:5542   .bss.__compound_literal.134:00000000 __compound_literal.134
C:\Users\DJESSOU\AppData\Local\Temp\ccfF5lhd.s:5532   .data.__compound_literal.135:00000000 __compound_literal.135
C:\Users\DJESSOU\AppData\Local\Temp\ccfF5lhd.s:5526   .data.__compound_literal.136:00000000 __compound_literal.136
C:\Users\DJESSOU\AppData\Local\Temp\ccfF5lhd.s:5520   .bss.__compound_literal.137:00000000 __compound_literal.137
C:\Users\DJESSOU\AppData\Local\Temp\ccfF5lhd.s:5510   .data.__compound_literal.138:00000000 __compound_literal.138
C:\Users\DJESSOU\AppData\Local\Temp\ccfF5lhd.s:5504   .data.__compound_literal.139:00000000 __compound_literal.139
C:\Users\DJESSOU\AppData\Local\Temp\ccfF5lhd.s:5498   .bss.__compound_literal.140:00000000 __compound_literal.140
C:\Users\DJESSOU\AppData\Local\Temp\ccfF5lhd.s:5488   .data.__compound_literal.141:00000000 __compound_literal.141
C:\Users\DJESSOU\AppData\Local\Temp\ccfF5lhd.s:5482   .data.__compound_literal.142:00000000 __compound_literal.142
C:\Users\DJESSOU\AppData\Local\Temp\ccfF5lhd.s:5476   .bss.__compound_literal.143:00000000 __compound_literal.143
C:\Users\DJESSOU\AppData\Local\Temp\ccfF5lhd.s:5466   .data.__compound_literal.144:00000000 __compound_literal.144
C:\Users\DJESSOU\AppData\Local\Temp\ccfF5lhd.s:5460   .data.__compound_literal.145:00000000 __compound_literal.145
C:\Users\DJESSOU\AppData\Local\Temp\ccfF5lhd.s:5454   .data.__compound_literal.146:00000000 __compound_literal.146
C:\Users\DJESSOU\AppData\Local\Temp\ccfF5lhd.s:5444   .data.__compound_literal.147:00000000 __compound_literal.147
C:\Users\DJESSOU\AppData\Local\Temp\ccfF5lhd.s:5438   .data.__compound_literal.148:00000000 __compound_literal.148
C:\Users\DJESSOU\AppData\Local\Temp\ccfF5lhd.s:5432   .bss.__compound_literal.149:00000000 __compound_literal.149
C:\Users\DJESSOU\AppData\Local\Temp\ccfF5lhd.s:5422   .data.__compound_literal.150:00000000 __compound_literal.150
C:\Users\DJESSOU\AppData\Local\Temp\ccfF5lhd.s:5416   .data.__compound_literal.151:00000000 __compound_literal.151
C:\Users\DJESSOU\AppData\Local\Temp\ccfF5lhd.s:5410   .bss.__compound_literal.152:00000000 __compound_literal.152
C:\Users\DJESSOU\AppData\Local\Temp\ccfF5lhd.s:5400   .data.__compound_literal.153:00000000 __compound_literal.153
C:\Users\DJESSOU\AppData\Local\Temp\ccfF5lhd.s:5394   .data.__compound_literal.154:00000000 __compound_literal.154
C:\Users\DJESSOU\AppData\Local\Temp\ccfF5lhd.s:5388   .bss.__compound_literal.155:00000000 __compound_literal.155
C:\Users\DJESSOU\AppData\Local\Temp\ccfF5lhd.s:5379   .data.__compound_literal.156:00000000 __compound_literal.156
C:\Users\DJESSOU\AppData\Local\Temp\ccfF5lhd.s:5373   .data.__compound_literal.157:00000000 __compound_literal.157
C:\Users\DJESSOU\AppData\Local\Temp\ccfF5lhd.s:5367   .bss.__compound_literal.158:00000000 __compound_literal.158
ARM GAS  C:\Users\DJESSOU\AppData\Local\Temp\ccfF5lhd.s 			page 148


C:\Users\DJESSOU\AppData\Local\Temp\ccfF5lhd.s:5358   .data.__compound_literal.159:00000000 __compound_literal.159
C:\Users\DJESSOU\AppData\Local\Temp\ccfF5lhd.s:5352   .data.__compound_literal.160:00000000 __compound_literal.160
C:\Users\DJESSOU\AppData\Local\Temp\ccfF5lhd.s:5346   .bss.__compound_literal.161:00000000 __compound_literal.161
C:\Users\DJESSOU\AppData\Local\Temp\ccfF5lhd.s:5336   .data.__compound_literal.162:00000000 __compound_literal.162
C:\Users\DJESSOU\AppData\Local\Temp\ccfF5lhd.s:5330   .data.__compound_literal.163:00000000 __compound_literal.163
C:\Users\DJESSOU\AppData\Local\Temp\ccfF5lhd.s:5324   .bss.__compound_literal.164:00000000 __compound_literal.164
C:\Users\DJESSOU\AppData\Local\Temp\ccfF5lhd.s:5314   .data.__compound_literal.165:00000000 __compound_literal.165
C:\Users\DJESSOU\AppData\Local\Temp\ccfF5lhd.s:5308   .data.__compound_literal.166:00000000 __compound_literal.166
C:\Users\DJESSOU\AppData\Local\Temp\ccfF5lhd.s:5302   .bss.__compound_literal.167:00000000 __compound_literal.167
C:\Users\DJESSOU\AppData\Local\Temp\ccfF5lhd.s:5292   .data.__compound_literal.168:00000000 __compound_literal.168
C:\Users\DJESSOU\AppData\Local\Temp\ccfF5lhd.s:5286   .data.__compound_literal.169:00000000 __compound_literal.169
C:\Users\DJESSOU\AppData\Local\Temp\ccfF5lhd.s:5280   .bss.__compound_literal.170:00000000 __compound_literal.170
C:\Users\DJESSOU\AppData\Local\Temp\ccfF5lhd.s:5270   .data.__compound_literal.171:00000000 __compound_literal.171
C:\Users\DJESSOU\AppData\Local\Temp\ccfF5lhd.s:5264   .data.__compound_literal.172:00000000 __compound_literal.172
C:\Users\DJESSOU\AppData\Local\Temp\ccfF5lhd.s:5258   .data.__compound_literal.173:00000000 __compound_literal.173
C:\Users\DJESSOU\AppData\Local\Temp\ccfF5lhd.s:5249   .data.__compound_literal.174:00000000 __compound_literal.174
C:\Users\DJESSOU\AppData\Local\Temp\ccfF5lhd.s:5243   .data.__compound_literal.175:00000000 __compound_literal.175
C:\Users\DJESSOU\AppData\Local\Temp\ccfF5lhd.s:5237   .bss.__compound_literal.176:00000000 __compound_literal.176
C:\Users\DJESSOU\AppData\Local\Temp\ccfF5lhd.s:5228   .data.__compound_literal.177:00000000 __compound_literal.177
C:\Users\DJESSOU\AppData\Local\Temp\ccfF5lhd.s:5222   .data.__compound_literal.178:00000000 __compound_literal.178
C:\Users\DJESSOU\AppData\Local\Temp\ccfF5lhd.s:5216   .bss.__compound_literal.179:00000000 __compound_literal.179
C:\Users\DJESSOU\AppData\Local\Temp\ccfF5lhd.s:5207   .data.__compound_literal.180:00000000 __compound_literal.180
C:\Users\DJESSOU\AppData\Local\Temp\ccfF5lhd.s:5201   .data.__compound_literal.181:00000000 __compound_literal.181
C:\Users\DJESSOU\AppData\Local\Temp\ccfF5lhd.s:5195   .data.__compound_literal.182:00000000 __compound_literal.182
C:\Users\DJESSOU\AppData\Local\Temp\ccfF5lhd.s:5185   .data.__compound_literal.183:00000000 __compound_literal.183
C:\Users\DJESSOU\AppData\Local\Temp\ccfF5lhd.s:5176   .data.__compound_literal.184:00000000 __compound_literal.184
C:\Users\DJESSOU\AppData\Local\Temp\ccfF5lhd.s:5170   .data.__compound_literal.185:00000000 __compound_literal.185
C:\Users\DJESSOU\AppData\Local\Temp\ccfF5lhd.s:5164   .bss.__compound_literal.186:00000000 __compound_literal.186
C:\Users\DJESSOU\AppData\Local\Temp\ccfF5lhd.s:5155   .data.__compound_literal.187:00000000 __compound_literal.187
C:\Users\DJESSOU\AppData\Local\Temp\ccfF5lhd.s:5149   .data.__compound_literal.188:00000000 __compound_literal.188
C:\Users\DJESSOU\AppData\Local\Temp\ccfF5lhd.s:5143   .bss.__compound_literal.189:00000000 __compound_literal.189
C:\Users\DJESSOU\AppData\Local\Temp\ccfF5lhd.s:5133   .data.__compound_literal.190:00000000 __compound_literal.190
C:\Users\DJESSOU\AppData\Local\Temp\ccfF5lhd.s:5124   .data.__compound_literal.191:00000000 __compound_literal.191
C:\Users\DJESSOU\AppData\Local\Temp\ccfF5lhd.s:5118   .data.__compound_literal.192:00000000 __compound_literal.192
C:\Users\DJESSOU\AppData\Local\Temp\ccfF5lhd.s:5112   .data.__compound_literal.193:00000000 __compound_literal.193
C:\Users\DJESSOU\AppData\Local\Temp\ccfF5lhd.s:5102   .data.__compound_literal.194:00000000 __compound_literal.194
C:\Users\DJESSOU\AppData\Local\Temp\ccfF5lhd.s:5093   .data.__compound_literal.195:00000000 __compound_literal.195
C:\Users\DJESSOU\AppData\Local\Temp\ccfF5lhd.s:5087   .data.__compound_literal.196:00000000 __compound_literal.196
C:\Users\DJESSOU\AppData\Local\Temp\ccfF5lhd.s:5081   .bss.__compound_literal.197:00000000 __compound_literal.197
C:\Users\DJESSOU\AppData\Local\Temp\ccfF5lhd.s:5072   .data.__compound_literal.198:00000000 __compound_literal.198
C:\Users\DJESSOU\AppData\Local\Temp\ccfF5lhd.s:5066   .data.__compound_literal.199:00000000 __compound_literal.199
C:\Users\DJESSOU\AppData\Local\Temp\ccfF5lhd.s:5060   .bss.__compound_literal.200:00000000 __compound_literal.200
C:\Users\DJESSOU\AppData\Local\Temp\ccfF5lhd.s:5050   .data.__compound_literal.201:00000000 __compound_literal.201
C:\Users\DJESSOU\AppData\Local\Temp\ccfF5lhd.s:5041   .data.__compound_literal.202:00000000 __compound_literal.202
C:\Users\DJESSOU\AppData\Local\Temp\ccfF5lhd.s:5035   .data.__compound_literal.203:00000000 __compound_literal.203
C:\Users\DJESSOU\AppData\Local\Temp\ccfF5lhd.s:5029   .data.__compound_literal.204:00000000 __compound_literal.204
C:\Users\DJESSOU\AppData\Local\Temp\ccfF5lhd.s:5019   .data.__compound_literal.205:00000000 __compound_literal.205
C:\Users\DJESSOU\AppData\Local\Temp\ccfF5lhd.s:5010   .data.__compound_literal.206:00000000 __compound_literal.206
C:\Users\DJESSOU\AppData\Local\Temp\ccfF5lhd.s:5004   .data.__compound_literal.207:00000000 __compound_literal.207
C:\Users\DJESSOU\AppData\Local\Temp\ccfF5lhd.s:4998   .bss.__compound_literal.208:00000000 __compound_literal.208
C:\Users\DJESSOU\AppData\Local\Temp\ccfF5lhd.s:4989   .data.__compound_literal.209:00000000 __compound_literal.209
C:\Users\DJESSOU\AppData\Local\Temp\ccfF5lhd.s:4983   .data.__compound_literal.210:00000000 __compound_literal.210
C:\Users\DJESSOU\AppData\Local\Temp\ccfF5lhd.s:4977   .bss.__compound_literal.211:00000000 __compound_literal.211
C:\Users\DJESSOU\AppData\Local\Temp\ccfF5lhd.s:4967   .data.__compound_literal.212:00000000 __compound_literal.212
C:\Users\DJESSOU\AppData\Local\Temp\ccfF5lhd.s:4957   .data.__compound_literal.213:00000000 __compound_literal.213
C:\Users\DJESSOU\AppData\Local\Temp\ccfF5lhd.s:4951   .data.__compound_literal.214:00000000 __compound_literal.214
C:\Users\DJESSOU\AppData\Local\Temp\ccfF5lhd.s:4945   .data.__compound_literal.215:00000000 __compound_literal.215
ARM GAS  C:\Users\DJESSOU\AppData\Local\Temp\ccfF5lhd.s 			page 149


C:\Users\DJESSOU\AppData\Local\Temp\ccfF5lhd.s:4935   .data.__compound_literal.216:00000000 __compound_literal.216
C:\Users\DJESSOU\AppData\Local\Temp\ccfF5lhd.s:4926   .data.__compound_literal.217:00000000 __compound_literal.217
C:\Users\DJESSOU\AppData\Local\Temp\ccfF5lhd.s:4920   .data.__compound_literal.218:00000000 __compound_literal.218
C:\Users\DJESSOU\AppData\Local\Temp\ccfF5lhd.s:4914   .bss.__compound_literal.219:00000000 __compound_literal.219
C:\Users\DJESSOU\AppData\Local\Temp\ccfF5lhd.s:4905   .data.__compound_literal.220:00000000 __compound_literal.220
C:\Users\DJESSOU\AppData\Local\Temp\ccfF5lhd.s:4899   .data.__compound_literal.221:00000000 __compound_literal.221
C:\Users\DJESSOU\AppData\Local\Temp\ccfF5lhd.s:4893   .bss.__compound_literal.222:00000000 __compound_literal.222
C:\Users\DJESSOU\AppData\Local\Temp\ccfF5lhd.s:4883   .data.__compound_literal.223:00000000 __compound_literal.223
C:\Users\DJESSOU\AppData\Local\Temp\ccfF5lhd.s:4873   .data.__compound_literal.224:00000000 __compound_literal.224
C:\Users\DJESSOU\AppData\Local\Temp\ccfF5lhd.s:4867   .data.__compound_literal.225:00000000 __compound_literal.225
C:\Users\DJESSOU\AppData\Local\Temp\ccfF5lhd.s:4861   .data.__compound_literal.226:00000000 __compound_literal.226
C:\Users\DJESSOU\AppData\Local\Temp\ccfF5lhd.s:4851   .data.__compound_literal.227:00000000 __compound_literal.227
C:\Users\DJESSOU\AppData\Local\Temp\ccfF5lhd.s:4841   .data.__compound_literal.228:00000000 __compound_literal.228
C:\Users\DJESSOU\AppData\Local\Temp\ccfF5lhd.s:4835   .data.__compound_literal.229:00000000 __compound_literal.229
C:\Users\DJESSOU\AppData\Local\Temp\ccfF5lhd.s:4829   .data.__compound_literal.230:00000000 __compound_literal.230
C:\Users\DJESSOU\AppData\Local\Temp\ccfF5lhd.s:4819   .data.__compound_literal.231:00000000 __compound_literal.231
C:\Users\DJESSOU\AppData\Local\Temp\ccfF5lhd.s:4813   .data.__compound_literal.232:00000000 __compound_literal.232
C:\Users\DJESSOU\AppData\Local\Temp\ccfF5lhd.s:4807   .data.__compound_literal.233:00000000 __compound_literal.233
C:\Users\DJESSOU\AppData\Local\Temp\ccfF5lhd.s:4797   .data.__compound_literal.234:00000000 __compound_literal.234
C:\Users\DJESSOU\AppData\Local\Temp\ccfF5lhd.s:4791   .data.__compound_literal.235:00000000 __compound_literal.235
C:\Users\DJESSOU\AppData\Local\Temp\ccfF5lhd.s:4785   .data.__compound_literal.236:00000000 __compound_literal.236
C:\Users\DJESSOU\AppData\Local\Temp\ccfF5lhd.s:4775   .data.__compound_literal.237:00000000 __compound_literal.237
C:\Users\DJESSOU\AppData\Local\Temp\ccfF5lhd.s:4766   .data.__compound_literal.238:00000000 __compound_literal.238
C:\Users\DJESSOU\AppData\Local\Temp\ccfF5lhd.s:4760   .data.__compound_literal.239:00000000 __compound_literal.239
C:\Users\DJESSOU\AppData\Local\Temp\ccfF5lhd.s:4754   .bss.__compound_literal.240:00000000 __compound_literal.240
C:\Users\DJESSOU\AppData\Local\Temp\ccfF5lhd.s:4745   .data.__compound_literal.241:00000000 __compound_literal.241
C:\Users\DJESSOU\AppData\Local\Temp\ccfF5lhd.s:4739   .data.__compound_literal.242:00000000 __compound_literal.242
C:\Users\DJESSOU\AppData\Local\Temp\ccfF5lhd.s:4733   .bss.__compound_literal.243:00000000 __compound_literal.243
C:\Users\DJESSOU\AppData\Local\Temp\ccfF5lhd.s:4723   .data.__compound_literal.244:00000000 __compound_literal.244
C:\Users\DJESSOU\AppData\Local\Temp\ccfF5lhd.s:4713   .data.__compound_literal.245:00000000 __compound_literal.245
C:\Users\DJESSOU\AppData\Local\Temp\ccfF5lhd.s:4707   .data.__compound_literal.246:00000000 __compound_literal.246
C:\Users\DJESSOU\AppData\Local\Temp\ccfF5lhd.s:4701   .data.__compound_literal.247:00000000 __compound_literal.247
C:\Users\DJESSOU\AppData\Local\Temp\ccfF5lhd.s:4691   .data.__compound_literal.248:00000000 __compound_literal.248
C:\Users\DJESSOU\AppData\Local\Temp\ccfF5lhd.s:4681   .data.__compound_literal.249:00000000 __compound_literal.249
C:\Users\DJESSOU\AppData\Local\Temp\ccfF5lhd.s:4675   .data.__compound_literal.250:00000000 __compound_literal.250
C:\Users\DJESSOU\AppData\Local\Temp\ccfF5lhd.s:4669   .data.__compound_literal.251:00000000 __compound_literal.251
C:\Users\DJESSOU\AppData\Local\Temp\ccfF5lhd.s:4659   .data.__compound_literal.252:00000000 __compound_literal.252
C:\Users\DJESSOU\AppData\Local\Temp\ccfF5lhd.s:4653   .data.__compound_literal.253:00000000 __compound_literal.253
C:\Users\DJESSOU\AppData\Local\Temp\ccfF5lhd.s:4647   .data.__compound_literal.254:00000000 __compound_literal.254
C:\Users\DJESSOU\AppData\Local\Temp\ccfF5lhd.s:4637   .data.__compound_literal.255:00000000 __compound_literal.255
C:\Users\DJESSOU\AppData\Local\Temp\ccfF5lhd.s:4631   .data.__compound_literal.256:00000000 __compound_literal.256
C:\Users\DJESSOU\AppData\Local\Temp\ccfF5lhd.s:4625   .data.__compound_literal.257:00000000 __compound_literal.257
C:\Users\DJESSOU\AppData\Local\Temp\ccfF5lhd.s:4615   .data.__compound_literal.258:00000000 __compound_literal.258
C:\Users\DJESSOU\AppData\Local\Temp\ccfF5lhd.s:4606   .data.__compound_literal.259:00000000 __compound_literal.259
C:\Users\DJESSOU\AppData\Local\Temp\ccfF5lhd.s:4600   .data.__compound_literal.260:00000000 __compound_literal.260
C:\Users\DJESSOU\AppData\Local\Temp\ccfF5lhd.s:4594   .bss.__compound_literal.261:00000000 __compound_literal.261
C:\Users\DJESSOU\AppData\Local\Temp\ccfF5lhd.s:4585   .data.__compound_literal.262:00000000 __compound_literal.262
C:\Users\DJESSOU\AppData\Local\Temp\ccfF5lhd.s:4579   .data.__compound_literal.263:00000000 __compound_literal.263
C:\Users\DJESSOU\AppData\Local\Temp\ccfF5lhd.s:4573   .bss.__compound_literal.264:00000000 __compound_literal.264
C:\Users\DJESSOU\AppData\Local\Temp\ccfF5lhd.s:4563   .data.__compound_literal.265:00000000 __compound_literal.265
C:\Users\DJESSOU\AppData\Local\Temp\ccfF5lhd.s:4553   .data.__compound_literal.266:00000000 __compound_literal.266
C:\Users\DJESSOU\AppData\Local\Temp\ccfF5lhd.s:4547   .data.__compound_literal.267:00000000 __compound_literal.267
C:\Users\DJESSOU\AppData\Local\Temp\ccfF5lhd.s:4541   .data.__compound_literal.268:00000000 __compound_literal.268
C:\Users\DJESSOU\AppData\Local\Temp\ccfF5lhd.s:4531   .data.__compound_literal.269:00000000 __compound_literal.269
C:\Users\DJESSOU\AppData\Local\Temp\ccfF5lhd.s:4521   .data.__compound_literal.270:00000000 __compound_literal.270
C:\Users\DJESSOU\AppData\Local\Temp\ccfF5lhd.s:4515   .data.__compound_literal.271:00000000 __compound_literal.271
C:\Users\DJESSOU\AppData\Local\Temp\ccfF5lhd.s:4509   .data.__compound_literal.272:00000000 __compound_literal.272
ARM GAS  C:\Users\DJESSOU\AppData\Local\Temp\ccfF5lhd.s 			page 150


C:\Users\DJESSOU\AppData\Local\Temp\ccfF5lhd.s:4499   .data.__compound_literal.273:00000000 __compound_literal.273
C:\Users\DJESSOU\AppData\Local\Temp\ccfF5lhd.s:4493   .data.__compound_literal.274:00000000 __compound_literal.274
C:\Users\DJESSOU\AppData\Local\Temp\ccfF5lhd.s:4487   .data.__compound_literal.275:00000000 __compound_literal.275
C:\Users\DJESSOU\AppData\Local\Temp\ccfF5lhd.s:4477   .data.__compound_literal.276:00000000 __compound_literal.276
C:\Users\DJESSOU\AppData\Local\Temp\ccfF5lhd.s:4471   .data.__compound_literal.277:00000000 __compound_literal.277
C:\Users\DJESSOU\AppData\Local\Temp\ccfF5lhd.s:4465   .data.__compound_literal.278:00000000 __compound_literal.278
C:\Users\DJESSOU\AppData\Local\Temp\ccfF5lhd.s:4455   .data.__compound_literal.279:00000000 __compound_literal.279
C:\Users\DJESSOU\AppData\Local\Temp\ccfF5lhd.s:4446   .data.__compound_literal.280:00000000 __compound_literal.280
C:\Users\DJESSOU\AppData\Local\Temp\ccfF5lhd.s:4440   .data.__compound_literal.281:00000000 __compound_literal.281
C:\Users\DJESSOU\AppData\Local\Temp\ccfF5lhd.s:4434   .bss.__compound_literal.282:00000000 __compound_literal.282
C:\Users\DJESSOU\AppData\Local\Temp\ccfF5lhd.s:4425   .data.__compound_literal.283:00000000 __compound_literal.283
C:\Users\DJESSOU\AppData\Local\Temp\ccfF5lhd.s:4419   .data.__compound_literal.284:00000000 __compound_literal.284
C:\Users\DJESSOU\AppData\Local\Temp\ccfF5lhd.s:4413   .data.__compound_literal.285:00000000 __compound_literal.285
C:\Users\DJESSOU\AppData\Local\Temp\ccfF5lhd.s:4406   .data.__compound_literal.286:00000000 __compound_literal.286
C:\Users\DJESSOU\AppData\Local\Temp\ccfF5lhd.s:4400   .data.__compound_literal.287:00000000 __compound_literal.287
C:\Users\DJESSOU\AppData\Local\Temp\ccfF5lhd.s:4394   .data.__compound_literal.288:00000000 __compound_literal.288
C:\Users\DJESSOU\AppData\Local\Temp\ccfF5lhd.s:4385   .data.__compound_literal.289:00000000 __compound_literal.289
C:\Users\DJESSOU\AppData\Local\Temp\ccfF5lhd.s:4379   .data.__compound_literal.290:00000000 __compound_literal.290
C:\Users\DJESSOU\AppData\Local\Temp\ccfF5lhd.s:4373   .data.__compound_literal.291:00000000 __compound_literal.291
C:\Users\DJESSOU\AppData\Local\Temp\ccfF5lhd.s:4364   .data.__compound_literal.292:00000000 __compound_literal.292
C:\Users\DJESSOU\AppData\Local\Temp\ccfF5lhd.s:4358   .data.__compound_literal.293:00000000 __compound_literal.293
C:\Users\DJESSOU\AppData\Local\Temp\ccfF5lhd.s:4352   .data.__compound_literal.294:00000000 __compound_literal.294
C:\Users\DJESSOU\AppData\Local\Temp\ccfF5lhd.s:4343   .data.__compound_literal.295:00000000 __compound_literal.295
C:\Users\DJESSOU\AppData\Local\Temp\ccfF5lhd.s:4337   .data.__compound_literal.296:00000000 __compound_literal.296
C:\Users\DJESSOU\AppData\Local\Temp\ccfF5lhd.s:4331   .data.__compound_literal.297:00000000 __compound_literal.297
C:\Users\DJESSOU\AppData\Local\Temp\ccfF5lhd.s:4322   .data.__compound_literal.298:00000000 __compound_literal.298
C:\Users\DJESSOU\AppData\Local\Temp\ccfF5lhd.s:4316   .data.__compound_literal.299:00000000 __compound_literal.299
C:\Users\DJESSOU\AppData\Local\Temp\ccfF5lhd.s:4310   .data.__compound_literal.300:00000000 __compound_literal.300
C:\Users\DJESSOU\AppData\Local\Temp\ccfF5lhd.s:4300   .data.__compound_literal.301:00000000 __compound_literal.301
C:\Users\DJESSOU\AppData\Local\Temp\ccfF5lhd.s:4294   .data.__compound_literal.302:00000000 __compound_literal.302
C:\Users\DJESSOU\AppData\Local\Temp\ccfF5lhd.s:4288   .bss.__compound_literal.303:00000000 __compound_literal.303
C:\Users\DJESSOU\AppData\Local\Temp\ccfF5lhd.s:4278   .data.__compound_literal.304:00000000 __compound_literal.304
C:\Users\DJESSOU\AppData\Local\Temp\ccfF5lhd.s:4272   .data.__compound_literal.305:00000000 __compound_literal.305
C:\Users\DJESSOU\AppData\Local\Temp\ccfF5lhd.s:4266   .bss.__compound_literal.306:00000000 __compound_literal.306
C:\Users\DJESSOU\AppData\Local\Temp\ccfF5lhd.s:4256   .data.__compound_literal.307:00000000 __compound_literal.307
C:\Users\DJESSOU\AppData\Local\Temp\ccfF5lhd.s:4250   .data.__compound_literal.308:00000000 __compound_literal.308
C:\Users\DJESSOU\AppData\Local\Temp\ccfF5lhd.s:4244   .bss.__compound_literal.309:00000000 __compound_literal.309
C:\Users\DJESSOU\AppData\Local\Temp\ccfF5lhd.s:4234   .data.__compound_literal.310:00000000 __compound_literal.310
C:\Users\DJESSOU\AppData\Local\Temp\ccfF5lhd.s:4228   .data.__compound_literal.311:00000000 __compound_literal.311
C:\Users\DJESSOU\AppData\Local\Temp\ccfF5lhd.s:4222   .bss.__compound_literal.312:00000000 __compound_literal.312
C:\Users\DJESSOU\AppData\Local\Temp\ccfF5lhd.s:4213   .data.__compound_literal.313:00000000 __compound_literal.313
C:\Users\DJESSOU\AppData\Local\Temp\ccfF5lhd.s:4207   .data.__compound_literal.314:00000000 __compound_literal.314
C:\Users\DJESSOU\AppData\Local\Temp\ccfF5lhd.s:4201   .data.__compound_literal.315:00000000 __compound_literal.315
C:\Users\DJESSOU\AppData\Local\Temp\ccfF5lhd.s:4194   .data.__compound_literal.316:00000000 __compound_literal.316
C:\Users\DJESSOU\AppData\Local\Temp\ccfF5lhd.s:4188   .data.__compound_literal.317:00000000 __compound_literal.317
C:\Users\DJESSOU\AppData\Local\Temp\ccfF5lhd.s:4182   .data.__compound_literal.318:00000000 __compound_literal.318
C:\Users\DJESSOU\AppData\Local\Temp\ccfF5lhd.s:4175   .data.__compound_literal.319:00000000 __compound_literal.319
C:\Users\DJESSOU\AppData\Local\Temp\ccfF5lhd.s:4169   .data.__compound_literal.320:00000000 __compound_literal.320
C:\Users\DJESSOU\AppData\Local\Temp\ccfF5lhd.s:4163   .data.__compound_literal.321:00000000 __compound_literal.321
C:\Users\DJESSOU\AppData\Local\Temp\ccfF5lhd.s:4156   .data.__compound_literal.322:00000000 __compound_literal.322
C:\Users\DJESSOU\AppData\Local\Temp\ccfF5lhd.s:4150   .data.__compound_literal.323:00000000 __compound_literal.323
C:\Users\DJESSOU\AppData\Local\Temp\ccfF5lhd.s:4144   .data.__compound_literal.324:00000000 __compound_literal.324
C:\Users\DJESSOU\AppData\Local\Temp\ccfF5lhd.s:4135   .data.__compound_literal.325:00000000 __compound_literal.325
C:\Users\DJESSOU\AppData\Local\Temp\ccfF5lhd.s:4129   .data.__compound_literal.326:00000000 __compound_literal.326
C:\Users\DJESSOU\AppData\Local\Temp\ccfF5lhd.s:4123   .data.__compound_literal.327:00000000 __compound_literal.327
C:\Users\DJESSOU\AppData\Local\Temp\ccfF5lhd.s:4116   .data.__compound_literal.328:00000000 __compound_literal.328
C:\Users\DJESSOU\AppData\Local\Temp\ccfF5lhd.s:4110   .data.__compound_literal.329:00000000 __compound_literal.329
ARM GAS  C:\Users\DJESSOU\AppData\Local\Temp\ccfF5lhd.s 			page 151


C:\Users\DJESSOU\AppData\Local\Temp\ccfF5lhd.s:4104   .data.__compound_literal.330:00000000 __compound_literal.330
C:\Users\DJESSOU\AppData\Local\Temp\ccfF5lhd.s:4101   .data.__compound_literal.330:00000000 $d
C:\Users\DJESSOU\AppData\Local\Temp\ccfF5lhd.s:4107   .data.__compound_literal.329:00000000 $d
C:\Users\DJESSOU\AppData\Local\Temp\ccfF5lhd.s:4113   .data.__compound_literal.328:00000000 $d
C:\Users\DJESSOU\AppData\Local\Temp\ccfF5lhd.s:4120   .data.__compound_literal.327:00000000 $d
C:\Users\DJESSOU\AppData\Local\Temp\ccfF5lhd.s:4126   .data.__compound_literal.326:00000000 $d
C:\Users\DJESSOU\AppData\Local\Temp\ccfF5lhd.s:4132   .data.__compound_literal.325:00000000 $d
C:\Users\DJESSOU\AppData\Local\Temp\ccfF5lhd.s:4141   .data.__compound_literal.324:00000000 $d
C:\Users\DJESSOU\AppData\Local\Temp\ccfF5lhd.s:4147   .data.__compound_literal.323:00000000 $d
C:\Users\DJESSOU\AppData\Local\Temp\ccfF5lhd.s:4153   .data.__compound_literal.322:00000000 $d
C:\Users\DJESSOU\AppData\Local\Temp\ccfF5lhd.s:4160   .data.__compound_literal.321:00000000 $d
C:\Users\DJESSOU\AppData\Local\Temp\ccfF5lhd.s:4166   .data.__compound_literal.320:00000000 $d
C:\Users\DJESSOU\AppData\Local\Temp\ccfF5lhd.s:4172   .data.__compound_literal.319:00000000 $d
C:\Users\DJESSOU\AppData\Local\Temp\ccfF5lhd.s:4179   .data.__compound_literal.318:00000000 $d
C:\Users\DJESSOU\AppData\Local\Temp\ccfF5lhd.s:4185   .data.__compound_literal.317:00000000 $d
C:\Users\DJESSOU\AppData\Local\Temp\ccfF5lhd.s:4191   .data.__compound_literal.316:00000000 $d
C:\Users\DJESSOU\AppData\Local\Temp\ccfF5lhd.s:4198   .data.__compound_literal.315:00000000 $d
C:\Users\DJESSOU\AppData\Local\Temp\ccfF5lhd.s:4204   .data.__compound_literal.314:00000000 $d
C:\Users\DJESSOU\AppData\Local\Temp\ccfF5lhd.s:4210   .data.__compound_literal.313:00000000 $d
C:\Users\DJESSOU\AppData\Local\Temp\ccfF5lhd.s:4219   .bss.__compound_literal.312:00000000 $d
C:\Users\DJESSOU\AppData\Local\Temp\ccfF5lhd.s:4225   .data.__compound_literal.311:00000000 $d
C:\Users\DJESSOU\AppData\Local\Temp\ccfF5lhd.s:4231   .data.__compound_literal.310:00000000 $d
C:\Users\DJESSOU\AppData\Local\Temp\ccfF5lhd.s:4241   .bss.__compound_literal.309:00000000 $d
C:\Users\DJESSOU\AppData\Local\Temp\ccfF5lhd.s:4247   .data.__compound_literal.308:00000000 $d
C:\Users\DJESSOU\AppData\Local\Temp\ccfF5lhd.s:4253   .data.__compound_literal.307:00000000 $d
C:\Users\DJESSOU\AppData\Local\Temp\ccfF5lhd.s:4263   .bss.__compound_literal.306:00000000 $d
C:\Users\DJESSOU\AppData\Local\Temp\ccfF5lhd.s:4269   .data.__compound_literal.305:00000000 $d
C:\Users\DJESSOU\AppData\Local\Temp\ccfF5lhd.s:4275   .data.__compound_literal.304:00000000 $d
C:\Users\DJESSOU\AppData\Local\Temp\ccfF5lhd.s:4285   .bss.__compound_literal.303:00000000 $d
C:\Users\DJESSOU\AppData\Local\Temp\ccfF5lhd.s:4291   .data.__compound_literal.302:00000000 $d
C:\Users\DJESSOU\AppData\Local\Temp\ccfF5lhd.s:4297   .data.__compound_literal.301:00000000 $d
C:\Users\DJESSOU\AppData\Local\Temp\ccfF5lhd.s:4307   .data.__compound_literal.300:00000000 $d
C:\Users\DJESSOU\AppData\Local\Temp\ccfF5lhd.s:4313   .data.__compound_literal.299:00000000 $d
C:\Users\DJESSOU\AppData\Local\Temp\ccfF5lhd.s:4319   .data.__compound_literal.298:00000000 $d
C:\Users\DJESSOU\AppData\Local\Temp\ccfF5lhd.s:4328   .data.__compound_literal.297:00000000 $d
C:\Users\DJESSOU\AppData\Local\Temp\ccfF5lhd.s:4334   .data.__compound_literal.296:00000000 $d
C:\Users\DJESSOU\AppData\Local\Temp\ccfF5lhd.s:4340   .data.__compound_literal.295:00000000 $d
C:\Users\DJESSOU\AppData\Local\Temp\ccfF5lhd.s:4349   .data.__compound_literal.294:00000000 $d
C:\Users\DJESSOU\AppData\Local\Temp\ccfF5lhd.s:4355   .data.__compound_literal.293:00000000 $d
C:\Users\DJESSOU\AppData\Local\Temp\ccfF5lhd.s:4361   .data.__compound_literal.292:00000000 $d
C:\Users\DJESSOU\AppData\Local\Temp\ccfF5lhd.s:4370   .data.__compound_literal.291:00000000 $d
C:\Users\DJESSOU\AppData\Local\Temp\ccfF5lhd.s:4376   .data.__compound_literal.290:00000000 $d
C:\Users\DJESSOU\AppData\Local\Temp\ccfF5lhd.s:4382   .data.__compound_literal.289:00000000 $d
C:\Users\DJESSOU\AppData\Local\Temp\ccfF5lhd.s:4391   .data.__compound_literal.288:00000000 $d
C:\Users\DJESSOU\AppData\Local\Temp\ccfF5lhd.s:4397   .data.__compound_literal.287:00000000 $d
C:\Users\DJESSOU\AppData\Local\Temp\ccfF5lhd.s:4403   .data.__compound_literal.286:00000000 $d
C:\Users\DJESSOU\AppData\Local\Temp\ccfF5lhd.s:4410   .data.__compound_literal.285:00000000 $d
C:\Users\DJESSOU\AppData\Local\Temp\ccfF5lhd.s:4416   .data.__compound_literal.284:00000000 $d
C:\Users\DJESSOU\AppData\Local\Temp\ccfF5lhd.s:4422   .data.__compound_literal.283:00000000 $d
C:\Users\DJESSOU\AppData\Local\Temp\ccfF5lhd.s:4431   .bss.__compound_literal.282:00000000 $d
C:\Users\DJESSOU\AppData\Local\Temp\ccfF5lhd.s:4437   .data.__compound_literal.281:00000000 $d
C:\Users\DJESSOU\AppData\Local\Temp\ccfF5lhd.s:4443   .data.__compound_literal.280:00000000 $d
C:\Users\DJESSOU\AppData\Local\Temp\ccfF5lhd.s:4452   .data.__compound_literal.279:00000000 $d
C:\Users\DJESSOU\AppData\Local\Temp\ccfF5lhd.s:4462   .data.__compound_literal.278:00000000 $d
C:\Users\DJESSOU\AppData\Local\Temp\ccfF5lhd.s:4468   .data.__compound_literal.277:00000000 $d
C:\Users\DJESSOU\AppData\Local\Temp\ccfF5lhd.s:4474   .data.__compound_literal.276:00000000 $d
C:\Users\DJESSOU\AppData\Local\Temp\ccfF5lhd.s:4484   .data.__compound_literal.275:00000000 $d
ARM GAS  C:\Users\DJESSOU\AppData\Local\Temp\ccfF5lhd.s 			page 152


C:\Users\DJESSOU\AppData\Local\Temp\ccfF5lhd.s:4490   .data.__compound_literal.274:00000000 $d
C:\Users\DJESSOU\AppData\Local\Temp\ccfF5lhd.s:4496   .data.__compound_literal.273:00000000 $d
C:\Users\DJESSOU\AppData\Local\Temp\ccfF5lhd.s:4506   .data.__compound_literal.272:00000000 $d
C:\Users\DJESSOU\AppData\Local\Temp\ccfF5lhd.s:4512   .data.__compound_literal.271:00000000 $d
C:\Users\DJESSOU\AppData\Local\Temp\ccfF5lhd.s:4518   .data.__compound_literal.270:00000000 $d
C:\Users\DJESSOU\AppData\Local\Temp\ccfF5lhd.s:4528   .data.__compound_literal.269:00000000 $d
C:\Users\DJESSOU\AppData\Local\Temp\ccfF5lhd.s:4538   .data.__compound_literal.268:00000000 $d
C:\Users\DJESSOU\AppData\Local\Temp\ccfF5lhd.s:4544   .data.__compound_literal.267:00000000 $d
C:\Users\DJESSOU\AppData\Local\Temp\ccfF5lhd.s:4550   .data.__compound_literal.266:00000000 $d
C:\Users\DJESSOU\AppData\Local\Temp\ccfF5lhd.s:4560   .data.__compound_literal.265:00000000 $d
C:\Users\DJESSOU\AppData\Local\Temp\ccfF5lhd.s:4570   .bss.__compound_literal.264:00000000 $d
C:\Users\DJESSOU\AppData\Local\Temp\ccfF5lhd.s:4576   .data.__compound_literal.263:00000000 $d
C:\Users\DJESSOU\AppData\Local\Temp\ccfF5lhd.s:4582   .data.__compound_literal.262:00000000 $d
C:\Users\DJESSOU\AppData\Local\Temp\ccfF5lhd.s:4591   .bss.__compound_literal.261:00000000 $d
C:\Users\DJESSOU\AppData\Local\Temp\ccfF5lhd.s:4597   .data.__compound_literal.260:00000000 $d
C:\Users\DJESSOU\AppData\Local\Temp\ccfF5lhd.s:4603   .data.__compound_literal.259:00000000 $d
C:\Users\DJESSOU\AppData\Local\Temp\ccfF5lhd.s:4612   .data.__compound_literal.258:00000000 $d
C:\Users\DJESSOU\AppData\Local\Temp\ccfF5lhd.s:4622   .data.__compound_literal.257:00000000 $d
C:\Users\DJESSOU\AppData\Local\Temp\ccfF5lhd.s:4628   .data.__compound_literal.256:00000000 $d
C:\Users\DJESSOU\AppData\Local\Temp\ccfF5lhd.s:4634   .data.__compound_literal.255:00000000 $d
C:\Users\DJESSOU\AppData\Local\Temp\ccfF5lhd.s:4644   .data.__compound_literal.254:00000000 $d
C:\Users\DJESSOU\AppData\Local\Temp\ccfF5lhd.s:4650   .data.__compound_literal.253:00000000 $d
C:\Users\DJESSOU\AppData\Local\Temp\ccfF5lhd.s:4656   .data.__compound_literal.252:00000000 $d
C:\Users\DJESSOU\AppData\Local\Temp\ccfF5lhd.s:4666   .data.__compound_literal.251:00000000 $d
C:\Users\DJESSOU\AppData\Local\Temp\ccfF5lhd.s:4672   .data.__compound_literal.250:00000000 $d
C:\Users\DJESSOU\AppData\Local\Temp\ccfF5lhd.s:4678   .data.__compound_literal.249:00000000 $d
C:\Users\DJESSOU\AppData\Local\Temp\ccfF5lhd.s:4688   .data.__compound_literal.248:00000000 $d
C:\Users\DJESSOU\AppData\Local\Temp\ccfF5lhd.s:4698   .data.__compound_literal.247:00000000 $d
C:\Users\DJESSOU\AppData\Local\Temp\ccfF5lhd.s:4704   .data.__compound_literal.246:00000000 $d
C:\Users\DJESSOU\AppData\Local\Temp\ccfF5lhd.s:4710   .data.__compound_literal.245:00000000 $d
C:\Users\DJESSOU\AppData\Local\Temp\ccfF5lhd.s:4720   .data.__compound_literal.244:00000000 $d
C:\Users\DJESSOU\AppData\Local\Temp\ccfF5lhd.s:4730   .bss.__compound_literal.243:00000000 $d
C:\Users\DJESSOU\AppData\Local\Temp\ccfF5lhd.s:4736   .data.__compound_literal.242:00000000 $d
C:\Users\DJESSOU\AppData\Local\Temp\ccfF5lhd.s:4742   .data.__compound_literal.241:00000000 $d
C:\Users\DJESSOU\AppData\Local\Temp\ccfF5lhd.s:4751   .bss.__compound_literal.240:00000000 $d
C:\Users\DJESSOU\AppData\Local\Temp\ccfF5lhd.s:4757   .data.__compound_literal.239:00000000 $d
C:\Users\DJESSOU\AppData\Local\Temp\ccfF5lhd.s:4763   .data.__compound_literal.238:00000000 $d
C:\Users\DJESSOU\AppData\Local\Temp\ccfF5lhd.s:4772   .data.__compound_literal.237:00000000 $d
C:\Users\DJESSOU\AppData\Local\Temp\ccfF5lhd.s:4782   .data.__compound_literal.236:00000000 $d
C:\Users\DJESSOU\AppData\Local\Temp\ccfF5lhd.s:4788   .data.__compound_literal.235:00000000 $d
C:\Users\DJESSOU\AppData\Local\Temp\ccfF5lhd.s:4794   .data.__compound_literal.234:00000000 $d
C:\Users\DJESSOU\AppData\Local\Temp\ccfF5lhd.s:4804   .data.__compound_literal.233:00000000 $d
C:\Users\DJESSOU\AppData\Local\Temp\ccfF5lhd.s:4810   .data.__compound_literal.232:00000000 $d
C:\Users\DJESSOU\AppData\Local\Temp\ccfF5lhd.s:4816   .data.__compound_literal.231:00000000 $d
C:\Users\DJESSOU\AppData\Local\Temp\ccfF5lhd.s:4826   .data.__compound_literal.230:00000000 $d
C:\Users\DJESSOU\AppData\Local\Temp\ccfF5lhd.s:4832   .data.__compound_literal.229:00000000 $d
C:\Users\DJESSOU\AppData\Local\Temp\ccfF5lhd.s:4838   .data.__compound_literal.228:00000000 $d
C:\Users\DJESSOU\AppData\Local\Temp\ccfF5lhd.s:4848   .data.__compound_literal.227:00000000 $d
C:\Users\DJESSOU\AppData\Local\Temp\ccfF5lhd.s:4858   .data.__compound_literal.226:00000000 $d
C:\Users\DJESSOU\AppData\Local\Temp\ccfF5lhd.s:4864   .data.__compound_literal.225:00000000 $d
C:\Users\DJESSOU\AppData\Local\Temp\ccfF5lhd.s:4870   .data.__compound_literal.224:00000000 $d
C:\Users\DJESSOU\AppData\Local\Temp\ccfF5lhd.s:4880   .data.__compound_literal.223:00000000 $d
C:\Users\DJESSOU\AppData\Local\Temp\ccfF5lhd.s:4890   .bss.__compound_literal.222:00000000 $d
C:\Users\DJESSOU\AppData\Local\Temp\ccfF5lhd.s:4896   .data.__compound_literal.221:00000000 $d
C:\Users\DJESSOU\AppData\Local\Temp\ccfF5lhd.s:4902   .data.__compound_literal.220:00000000 $d
C:\Users\DJESSOU\AppData\Local\Temp\ccfF5lhd.s:4911   .bss.__compound_literal.219:00000000 $d
C:\Users\DJESSOU\AppData\Local\Temp\ccfF5lhd.s:4917   .data.__compound_literal.218:00000000 $d
ARM GAS  C:\Users\DJESSOU\AppData\Local\Temp\ccfF5lhd.s 			page 153


C:\Users\DJESSOU\AppData\Local\Temp\ccfF5lhd.s:4923   .data.__compound_literal.217:00000000 $d
C:\Users\DJESSOU\AppData\Local\Temp\ccfF5lhd.s:4932   .data.__compound_literal.216:00000000 $d
C:\Users\DJESSOU\AppData\Local\Temp\ccfF5lhd.s:4942   .data.__compound_literal.215:00000000 $d
C:\Users\DJESSOU\AppData\Local\Temp\ccfF5lhd.s:4948   .data.__compound_literal.214:00000000 $d
C:\Users\DJESSOU\AppData\Local\Temp\ccfF5lhd.s:4954   .data.__compound_literal.213:00000000 $d
C:\Users\DJESSOU\AppData\Local\Temp\ccfF5lhd.s:4964   .data.__compound_literal.212:00000000 $d
C:\Users\DJESSOU\AppData\Local\Temp\ccfF5lhd.s:4974   .bss.__compound_literal.211:00000000 $d
C:\Users\DJESSOU\AppData\Local\Temp\ccfF5lhd.s:4980   .data.__compound_literal.210:00000000 $d
C:\Users\DJESSOU\AppData\Local\Temp\ccfF5lhd.s:4986   .data.__compound_literal.209:00000000 $d
C:\Users\DJESSOU\AppData\Local\Temp\ccfF5lhd.s:4995   .bss.__compound_literal.208:00000000 $d
C:\Users\DJESSOU\AppData\Local\Temp\ccfF5lhd.s:5001   .data.__compound_literal.207:00000000 $d
C:\Users\DJESSOU\AppData\Local\Temp\ccfF5lhd.s:5007   .data.__compound_literal.206:00000000 $d
C:\Users\DJESSOU\AppData\Local\Temp\ccfF5lhd.s:5016   .data.__compound_literal.205:00000000 $d
C:\Users\DJESSOU\AppData\Local\Temp\ccfF5lhd.s:5026   .data.__compound_literal.204:00000000 $d
C:\Users\DJESSOU\AppData\Local\Temp\ccfF5lhd.s:5032   .data.__compound_literal.203:00000000 $d
C:\Users\DJESSOU\AppData\Local\Temp\ccfF5lhd.s:5038   .data.__compound_literal.202:00000000 $d
C:\Users\DJESSOU\AppData\Local\Temp\ccfF5lhd.s:5047   .data.__compound_literal.201:00000000 $d
C:\Users\DJESSOU\AppData\Local\Temp\ccfF5lhd.s:5057   .bss.__compound_literal.200:00000000 $d
C:\Users\DJESSOU\AppData\Local\Temp\ccfF5lhd.s:5063   .data.__compound_literal.199:00000000 $d
C:\Users\DJESSOU\AppData\Local\Temp\ccfF5lhd.s:5069   .data.__compound_literal.198:00000000 $d
C:\Users\DJESSOU\AppData\Local\Temp\ccfF5lhd.s:5078   .bss.__compound_literal.197:00000000 $d
C:\Users\DJESSOU\AppData\Local\Temp\ccfF5lhd.s:5084   .data.__compound_literal.196:00000000 $d
C:\Users\DJESSOU\AppData\Local\Temp\ccfF5lhd.s:5090   .data.__compound_literal.195:00000000 $d
C:\Users\DJESSOU\AppData\Local\Temp\ccfF5lhd.s:5099   .data.__compound_literal.194:00000000 $d
C:\Users\DJESSOU\AppData\Local\Temp\ccfF5lhd.s:5109   .data.__compound_literal.193:00000000 $d
C:\Users\DJESSOU\AppData\Local\Temp\ccfF5lhd.s:5115   .data.__compound_literal.192:00000000 $d
C:\Users\DJESSOU\AppData\Local\Temp\ccfF5lhd.s:5121   .data.__compound_literal.191:00000000 $d
C:\Users\DJESSOU\AppData\Local\Temp\ccfF5lhd.s:5130   .data.__compound_literal.190:00000000 $d
C:\Users\DJESSOU\AppData\Local\Temp\ccfF5lhd.s:5140   .bss.__compound_literal.189:00000000 $d
C:\Users\DJESSOU\AppData\Local\Temp\ccfF5lhd.s:5146   .data.__compound_literal.188:00000000 $d
C:\Users\DJESSOU\AppData\Local\Temp\ccfF5lhd.s:5152   .data.__compound_literal.187:00000000 $d
C:\Users\DJESSOU\AppData\Local\Temp\ccfF5lhd.s:5161   .bss.__compound_literal.186:00000000 $d
C:\Users\DJESSOU\AppData\Local\Temp\ccfF5lhd.s:5167   .data.__compound_literal.185:00000000 $d
C:\Users\DJESSOU\AppData\Local\Temp\ccfF5lhd.s:5173   .data.__compound_literal.184:00000000 $d
C:\Users\DJESSOU\AppData\Local\Temp\ccfF5lhd.s:5182   .data.__compound_literal.183:00000000 $d
C:\Users\DJESSOU\AppData\Local\Temp\ccfF5lhd.s:5192   .data.__compound_literal.182:00000000 $d
C:\Users\DJESSOU\AppData\Local\Temp\ccfF5lhd.s:5198   .data.__compound_literal.181:00000000 $d
C:\Users\DJESSOU\AppData\Local\Temp\ccfF5lhd.s:5204   .data.__compound_literal.180:00000000 $d
C:\Users\DJESSOU\AppData\Local\Temp\ccfF5lhd.s:5213   .bss.__compound_literal.179:00000000 $d
C:\Users\DJESSOU\AppData\Local\Temp\ccfF5lhd.s:5219   .data.__compound_literal.178:00000000 $d
C:\Users\DJESSOU\AppData\Local\Temp\ccfF5lhd.s:5225   .data.__compound_literal.177:00000000 $d
C:\Users\DJESSOU\AppData\Local\Temp\ccfF5lhd.s:5234   .bss.__compound_literal.176:00000000 $d
C:\Users\DJESSOU\AppData\Local\Temp\ccfF5lhd.s:5240   .data.__compound_literal.175:00000000 $d
C:\Users\DJESSOU\AppData\Local\Temp\ccfF5lhd.s:5246   .data.__compound_literal.174:00000000 $d
C:\Users\DJESSOU\AppData\Local\Temp\ccfF5lhd.s:5255   .data.__compound_literal.173:00000000 $d
C:\Users\DJESSOU\AppData\Local\Temp\ccfF5lhd.s:5261   .data.__compound_literal.172:00000000 $d
C:\Users\DJESSOU\AppData\Local\Temp\ccfF5lhd.s:5267   .data.__compound_literal.171:00000000 $d
C:\Users\DJESSOU\AppData\Local\Temp\ccfF5lhd.s:5277   .bss.__compound_literal.170:00000000 $d
C:\Users\DJESSOU\AppData\Local\Temp\ccfF5lhd.s:5283   .data.__compound_literal.169:00000000 $d
C:\Users\DJESSOU\AppData\Local\Temp\ccfF5lhd.s:5289   .data.__compound_literal.168:00000000 $d
C:\Users\DJESSOU\AppData\Local\Temp\ccfF5lhd.s:5299   .bss.__compound_literal.167:00000000 $d
C:\Users\DJESSOU\AppData\Local\Temp\ccfF5lhd.s:5305   .data.__compound_literal.166:00000000 $d
C:\Users\DJESSOU\AppData\Local\Temp\ccfF5lhd.s:5311   .data.__compound_literal.165:00000000 $d
C:\Users\DJESSOU\AppData\Local\Temp\ccfF5lhd.s:5321   .bss.__compound_literal.164:00000000 $d
C:\Users\DJESSOU\AppData\Local\Temp\ccfF5lhd.s:5327   .data.__compound_literal.163:00000000 $d
C:\Users\DJESSOU\AppData\Local\Temp\ccfF5lhd.s:5333   .data.__compound_literal.162:00000000 $d
C:\Users\DJESSOU\AppData\Local\Temp\ccfF5lhd.s:5343   .bss.__compound_literal.161:00000000 $d
ARM GAS  C:\Users\DJESSOU\AppData\Local\Temp\ccfF5lhd.s 			page 154


C:\Users\DJESSOU\AppData\Local\Temp\ccfF5lhd.s:5349   .data.__compound_literal.160:00000000 $d
C:\Users\DJESSOU\AppData\Local\Temp\ccfF5lhd.s:5355   .data.__compound_literal.159:00000000 $d
C:\Users\DJESSOU\AppData\Local\Temp\ccfF5lhd.s:5364   .bss.__compound_literal.158:00000000 $d
C:\Users\DJESSOU\AppData\Local\Temp\ccfF5lhd.s:5370   .data.__compound_literal.157:00000000 $d
C:\Users\DJESSOU\AppData\Local\Temp\ccfF5lhd.s:5376   .data.__compound_literal.156:00000000 $d
C:\Users\DJESSOU\AppData\Local\Temp\ccfF5lhd.s:5385   .bss.__compound_literal.155:00000000 $d
C:\Users\DJESSOU\AppData\Local\Temp\ccfF5lhd.s:5391   .data.__compound_literal.154:00000000 $d
C:\Users\DJESSOU\AppData\Local\Temp\ccfF5lhd.s:5397   .data.__compound_literal.153:00000000 $d
C:\Users\DJESSOU\AppData\Local\Temp\ccfF5lhd.s:5407   .bss.__compound_literal.152:00000000 $d
C:\Users\DJESSOU\AppData\Local\Temp\ccfF5lhd.s:5413   .data.__compound_literal.151:00000000 $d
C:\Users\DJESSOU\AppData\Local\Temp\ccfF5lhd.s:5419   .data.__compound_literal.150:00000000 $d
C:\Users\DJESSOU\AppData\Local\Temp\ccfF5lhd.s:5429   .bss.__compound_literal.149:00000000 $d
C:\Users\DJESSOU\AppData\Local\Temp\ccfF5lhd.s:5435   .data.__compound_literal.148:00000000 $d
C:\Users\DJESSOU\AppData\Local\Temp\ccfF5lhd.s:5441   .data.__compound_literal.147:00000000 $d
C:\Users\DJESSOU\AppData\Local\Temp\ccfF5lhd.s:5451   .data.__compound_literal.146:00000000 $d
C:\Users\DJESSOU\AppData\Local\Temp\ccfF5lhd.s:5457   .data.__compound_literal.145:00000000 $d
C:\Users\DJESSOU\AppData\Local\Temp\ccfF5lhd.s:5463   .data.__compound_literal.144:00000000 $d
C:\Users\DJESSOU\AppData\Local\Temp\ccfF5lhd.s:5473   .bss.__compound_literal.143:00000000 $d
C:\Users\DJESSOU\AppData\Local\Temp\ccfF5lhd.s:5479   .data.__compound_literal.142:00000000 $d
C:\Users\DJESSOU\AppData\Local\Temp\ccfF5lhd.s:5485   .data.__compound_literal.141:00000000 $d
C:\Users\DJESSOU\AppData\Local\Temp\ccfF5lhd.s:5495   .bss.__compound_literal.140:00000000 $d
C:\Users\DJESSOU\AppData\Local\Temp\ccfF5lhd.s:5501   .data.__compound_literal.139:00000000 $d
C:\Users\DJESSOU\AppData\Local\Temp\ccfF5lhd.s:5507   .data.__compound_literal.138:00000000 $d
C:\Users\DJESSOU\AppData\Local\Temp\ccfF5lhd.s:5517   .bss.__compound_literal.137:00000000 $d
C:\Users\DJESSOU\AppData\Local\Temp\ccfF5lhd.s:5523   .data.__compound_literal.136:00000000 $d
C:\Users\DJESSOU\AppData\Local\Temp\ccfF5lhd.s:5529   .data.__compound_literal.135:00000000 $d
C:\Users\DJESSOU\AppData\Local\Temp\ccfF5lhd.s:5539   .bss.__compound_literal.134:00000000 $d
C:\Users\DJESSOU\AppData\Local\Temp\ccfF5lhd.s:5545   .data.__compound_literal.133:00000000 $d
C:\Users\DJESSOU\AppData\Local\Temp\ccfF5lhd.s:5551   .data.__compound_literal.132:00000000 $d
C:\Users\DJESSOU\AppData\Local\Temp\ccfF5lhd.s:5560   .bss.__compound_literal.131:00000000 $d
C:\Users\DJESSOU\AppData\Local\Temp\ccfF5lhd.s:5566   .data.__compound_literal.130:00000000 $d
C:\Users\DJESSOU\AppData\Local\Temp\ccfF5lhd.s:5572   .data.__compound_literal.129:00000000 $d
C:\Users\DJESSOU\AppData\Local\Temp\ccfF5lhd.s:5581   .bss.__compound_literal.128:00000000 $d
C:\Users\DJESSOU\AppData\Local\Temp\ccfF5lhd.s:5587   .data.__compound_literal.127:00000000 $d
C:\Users\DJESSOU\AppData\Local\Temp\ccfF5lhd.s:5593   .data.__compound_literal.126:00000000 $d
C:\Users\DJESSOU\AppData\Local\Temp\ccfF5lhd.s:5603   .bss.__compound_literal.125:00000000 $d
C:\Users\DJESSOU\AppData\Local\Temp\ccfF5lhd.s:5609   .data.__compound_literal.124:00000000 $d
C:\Users\DJESSOU\AppData\Local\Temp\ccfF5lhd.s:5615   .data.__compound_literal.123:00000000 $d
C:\Users\DJESSOU\AppData\Local\Temp\ccfF5lhd.s:5625   .bss.__compound_literal.122:00000000 $d
C:\Users\DJESSOU\AppData\Local\Temp\ccfF5lhd.s:5631   .data.__compound_literal.121:00000000 $d
C:\Users\DJESSOU\AppData\Local\Temp\ccfF5lhd.s:5637   .data.__compound_literal.120:00000000 $d
C:\Users\DJESSOU\AppData\Local\Temp\ccfF5lhd.s:5647   .data.__compound_literal.119:00000000 $d
C:\Users\DJESSOU\AppData\Local\Temp\ccfF5lhd.s:5653   .data.__compound_literal.118:00000000 $d
C:\Users\DJESSOU\AppData\Local\Temp\ccfF5lhd.s:5659   .data.__compound_literal.117:00000000 $d
C:\Users\DJESSOU\AppData\Local\Temp\ccfF5lhd.s:5669   .bss.__compound_literal.116:00000000 $d
C:\Users\DJESSOU\AppData\Local\Temp\ccfF5lhd.s:5675   .data.__compound_literal.115:00000000 $d
C:\Users\DJESSOU\AppData\Local\Temp\ccfF5lhd.s:5681   .data.__compound_literal.114:00000000 $d
C:\Users\DJESSOU\AppData\Local\Temp\ccfF5lhd.s:5691   .bss.__compound_literal.113:00000000 $d
C:\Users\DJESSOU\AppData\Local\Temp\ccfF5lhd.s:5697   .data.__compound_literal.112:00000000 $d
C:\Users\DJESSOU\AppData\Local\Temp\ccfF5lhd.s:5703   .data.__compound_literal.111:00000000 $d
C:\Users\DJESSOU\AppData\Local\Temp\ccfF5lhd.s:5712   .bss.__compound_literal.110:00000000 $d
C:\Users\DJESSOU\AppData\Local\Temp\ccfF5lhd.s:5718   .data.__compound_literal.109:00000000 $d
C:\Users\DJESSOU\AppData\Local\Temp\ccfF5lhd.s:5724   .data.__compound_literal.108:00000000 $d
C:\Users\DJESSOU\AppData\Local\Temp\ccfF5lhd.s:5733   .bss.__compound_literal.107:00000000 $d
C:\Users\DJESSOU\AppData\Local\Temp\ccfF5lhd.s:5739   .data.__compound_literal.106:00000000 $d
C:\Users\DJESSOU\AppData\Local\Temp\ccfF5lhd.s:5745   .data.__compound_literal.105:00000000 $d
C:\Users\DJESSOU\AppData\Local\Temp\ccfF5lhd.s:5754   .bss.__compound_literal.104:00000000 $d
ARM GAS  C:\Users\DJESSOU\AppData\Local\Temp\ccfF5lhd.s 			page 155


C:\Users\DJESSOU\AppData\Local\Temp\ccfF5lhd.s:5760   .data.__compound_literal.103:00000000 $d
C:\Users\DJESSOU\AppData\Local\Temp\ccfF5lhd.s:5766   .data.__compound_literal.102:00000000 $d
C:\Users\DJESSOU\AppData\Local\Temp\ccfF5lhd.s:5775   .bss.__compound_literal.101:00000000 $d
C:\Users\DJESSOU\AppData\Local\Temp\ccfF5lhd.s:5781   .data.__compound_literal.100:00000000 $d
C:\Users\DJESSOU\AppData\Local\Temp\ccfF5lhd.s:5787   .data.__compound_literal.99:00000000 $d
C:\Users\DJESSOU\AppData\Local\Temp\ccfF5lhd.s:5797   .bss.__compound_literal.98:00000000 $d
C:\Users\DJESSOU\AppData\Local\Temp\ccfF5lhd.s:5803   .data.__compound_literal.97:00000000 $d
C:\Users\DJESSOU\AppData\Local\Temp\ccfF5lhd.s:5809   .data.__compound_literal.96:00000000 $d
C:\Users\DJESSOU\AppData\Local\Temp\ccfF5lhd.s:5819   .bss.__compound_literal.95:00000000 $d
C:\Users\DJESSOU\AppData\Local\Temp\ccfF5lhd.s:5825   .data.__compound_literal.94:00000000 $d
C:\Users\DJESSOU\AppData\Local\Temp\ccfF5lhd.s:5831   .data.__compound_literal.93:00000000 $d
C:\Users\DJESSOU\AppData\Local\Temp\ccfF5lhd.s:5841   .data.__compound_literal.92:00000000 $d
C:\Users\DJESSOU\AppData\Local\Temp\ccfF5lhd.s:5847   .data.__compound_literal.91:00000000 $d
C:\Users\DJESSOU\AppData\Local\Temp\ccfF5lhd.s:5853   .data.__compound_literal.90:00000000 $d
C:\Users\DJESSOU\AppData\Local\Temp\ccfF5lhd.s:5863   .bss.__compound_literal.89:00000000 $d
C:\Users\DJESSOU\AppData\Local\Temp\ccfF5lhd.s:5869   .data.__compound_literal.88:00000000 $d
C:\Users\DJESSOU\AppData\Local\Temp\ccfF5lhd.s:5875   .data.__compound_literal.87:00000000 $d
C:\Users\DJESSOU\AppData\Local\Temp\ccfF5lhd.s:5884   .bss.__compound_literal.86:00000000 $d
C:\Users\DJESSOU\AppData\Local\Temp\ccfF5lhd.s:5890   .data.__compound_literal.85:00000000 $d
C:\Users\DJESSOU\AppData\Local\Temp\ccfF5lhd.s:5896   .data.__compound_literal.84:00000000 $d
C:\Users\DJESSOU\AppData\Local\Temp\ccfF5lhd.s:5905   .data.__compound_literal.83:00000000 $d
C:\Users\DJESSOU\AppData\Local\Temp\ccfF5lhd.s:5911   .data.__compound_literal.82:00000000 $d
C:\Users\DJESSOU\AppData\Local\Temp\ccfF5lhd.s:5917   .data.__compound_literal.81:00000000 $d
C:\Users\DJESSOU\AppData\Local\Temp\ccfF5lhd.s:5927   .bss.__compound_literal.80:00000000 $d
C:\Users\DJESSOU\AppData\Local\Temp\ccfF5lhd.s:5933   .data.__compound_literal.79:00000000 $d
C:\Users\DJESSOU\AppData\Local\Temp\ccfF5lhd.s:5939   .data.__compound_literal.78:00000000 $d
C:\Users\DJESSOU\AppData\Local\Temp\ccfF5lhd.s:5948   .bss.__compound_literal.77:00000000 $d
C:\Users\DJESSOU\AppData\Local\Temp\ccfF5lhd.s:5954   .data.__compound_literal.76:00000000 $d
C:\Users\DJESSOU\AppData\Local\Temp\ccfF5lhd.s:5960   .data.__compound_literal.75:00000000 $d
C:\Users\DJESSOU\AppData\Local\Temp\ccfF5lhd.s:5969   .bss.__compound_literal.74:00000000 $d
C:\Users\DJESSOU\AppData\Local\Temp\ccfF5lhd.s:5975   .data.__compound_literal.73:00000000 $d
C:\Users\DJESSOU\AppData\Local\Temp\ccfF5lhd.s:5981   .data.__compound_literal.72:00000000 $d
C:\Users\DJESSOU\AppData\Local\Temp\ccfF5lhd.s:5991   .bss.__compound_literal.71:00000000 $d
C:\Users\DJESSOU\AppData\Local\Temp\ccfF5lhd.s:5997   .data.__compound_literal.70:00000000 $d
C:\Users\DJESSOU\AppData\Local\Temp\ccfF5lhd.s:6003   .data.__compound_literal.69:00000000 $d
C:\Users\DJESSOU\AppData\Local\Temp\ccfF5lhd.s:6013   .data.__compound_literal.68:00000000 $d
C:\Users\DJESSOU\AppData\Local\Temp\ccfF5lhd.s:6019   .data.__compound_literal.67:00000000 $d
C:\Users\DJESSOU\AppData\Local\Temp\ccfF5lhd.s:6025   .data.__compound_literal.66:00000000 $d
C:\Users\DJESSOU\AppData\Local\Temp\ccfF5lhd.s:6034   .bss.__compound_literal.65:00000000 $d
C:\Users\DJESSOU\AppData\Local\Temp\ccfF5lhd.s:6040   .data.__compound_literal.64:00000000 $d
C:\Users\DJESSOU\AppData\Local\Temp\ccfF5lhd.s:6046   .data.__compound_literal.63:00000000 $d
C:\Users\DJESSOU\AppData\Local\Temp\ccfF5lhd.s:6056   .bss.__compound_literal.62:00000000 $d
C:\Users\DJESSOU\AppData\Local\Temp\ccfF5lhd.s:6062   .data.__compound_literal.61:00000000 $d
C:\Users\DJESSOU\AppData\Local\Temp\ccfF5lhd.s:6068   .data.__compound_literal.60:00000000 $d
C:\Users\DJESSOU\AppData\Local\Temp\ccfF5lhd.s:6077   .bss.__compound_literal.59:00000000 $d
C:\Users\DJESSOU\AppData\Local\Temp\ccfF5lhd.s:6083   .data.__compound_literal.58:00000000 $d
C:\Users\DJESSOU\AppData\Local\Temp\ccfF5lhd.s:6089   .data.__compound_literal.57:00000000 $d
C:\Users\DJESSOU\AppData\Local\Temp\ccfF5lhd.s:6098   .bss.__compound_literal.56:00000000 $d
C:\Users\DJESSOU\AppData\Local\Temp\ccfF5lhd.s:6104   .data.__compound_literal.55:00000000 $d
C:\Users\DJESSOU\AppData\Local\Temp\ccfF5lhd.s:6110   .data.__compound_literal.54:00000000 $d
C:\Users\DJESSOU\AppData\Local\Temp\ccfF5lhd.s:6119   .bss.__compound_literal.53:00000000 $d
C:\Users\DJESSOU\AppData\Local\Temp\ccfF5lhd.s:6125   .data.__compound_literal.52:00000000 $d
C:\Users\DJESSOU\AppData\Local\Temp\ccfF5lhd.s:6131   .data.__compound_literal.51:00000000 $d
C:\Users\DJESSOU\AppData\Local\Temp\ccfF5lhd.s:6140   .data.__compound_literal.50:00000000 $d
C:\Users\DJESSOU\AppData\Local\Temp\ccfF5lhd.s:6146   .data.__compound_literal.49:00000000 $d
C:\Users\DJESSOU\AppData\Local\Temp\ccfF5lhd.s:6152   .data.__compound_literal.48:00000000 $d
C:\Users\DJESSOU\AppData\Local\Temp\ccfF5lhd.s:6161   .bss.__compound_literal.47:00000000 $d
ARM GAS  C:\Users\DJESSOU\AppData\Local\Temp\ccfF5lhd.s 			page 156


C:\Users\DJESSOU\AppData\Local\Temp\ccfF5lhd.s:6167   .data.__compound_literal.46:00000000 $d
C:\Users\DJESSOU\AppData\Local\Temp\ccfF5lhd.s:6173   .data.__compound_literal.45:00000000 $d
C:\Users\DJESSOU\AppData\Local\Temp\ccfF5lhd.s:6182   .bss.__compound_literal.44:00000000 $d
C:\Users\DJESSOU\AppData\Local\Temp\ccfF5lhd.s:6188   .data.__compound_literal.43:00000000 $d
C:\Users\DJESSOU\AppData\Local\Temp\ccfF5lhd.s:6194   .data.__compound_literal.42:00000000 $d
C:\Users\DJESSOU\AppData\Local\Temp\ccfF5lhd.s:6204   .bss.__compound_literal.41:00000000 $d
C:\Users\DJESSOU\AppData\Local\Temp\ccfF5lhd.s:6210   .data.__compound_literal.40:00000000 $d
C:\Users\DJESSOU\AppData\Local\Temp\ccfF5lhd.s:6216   .data.__compound_literal.39:00000000 $d
C:\Users\DJESSOU\AppData\Local\Temp\ccfF5lhd.s:6226   .bss.__compound_literal.38:00000000 $d
C:\Users\DJESSOU\AppData\Local\Temp\ccfF5lhd.s:6232   .data.__compound_literal.37:00000000 $d
C:\Users\DJESSOU\AppData\Local\Temp\ccfF5lhd.s:6238   .data.__compound_literal.36:00000000 $d
C:\Users\DJESSOU\AppData\Local\Temp\ccfF5lhd.s:6247   .bss.__compound_literal.35:00000000 $d
C:\Users\DJESSOU\AppData\Local\Temp\ccfF5lhd.s:6253   .data.__compound_literal.34:00000000 $d
C:\Users\DJESSOU\AppData\Local\Temp\ccfF5lhd.s:6259   .data.__compound_literal.33:00000000 $d
C:\Users\DJESSOU\AppData\Local\Temp\ccfF5lhd.s:6268   .data.__compound_literal.32:00000000 $d
C:\Users\DJESSOU\AppData\Local\Temp\ccfF5lhd.s:6274   .data.__compound_literal.31:00000000 $d
C:\Users\DJESSOU\AppData\Local\Temp\ccfF5lhd.s:6280   .data.__compound_literal.30:00000000 $d
C:\Users\DJESSOU\AppData\Local\Temp\ccfF5lhd.s:6289   .bss.__compound_literal.29:00000000 $d
C:\Users\DJESSOU\AppData\Local\Temp\ccfF5lhd.s:6295   .data.__compound_literal.28:00000000 $d
C:\Users\DJESSOU\AppData\Local\Temp\ccfF5lhd.s:6301   .data.__compound_literal.27:00000000 $d
C:\Users\DJESSOU\AppData\Local\Temp\ccfF5lhd.s:6310   .bss.__compound_literal.26:00000000 $d
C:\Users\DJESSOU\AppData\Local\Temp\ccfF5lhd.s:6316   .data.__compound_literal.25:00000000 $d
C:\Users\DJESSOU\AppData\Local\Temp\ccfF5lhd.s:6322   .data.__compound_literal.24:00000000 $d
C:\Users\DJESSOU\AppData\Local\Temp\ccfF5lhd.s:6332   .bss.__compound_literal.23:00000000 $d
C:\Users\DJESSOU\AppData\Local\Temp\ccfF5lhd.s:6338   .data.__compound_literal.22:00000000 $d
C:\Users\DJESSOU\AppData\Local\Temp\ccfF5lhd.s:6344   .data.__compound_literal.21:00000000 $d
C:\Users\DJESSOU\AppData\Local\Temp\ccfF5lhd.s:6354   .bss.__compound_literal.20:00000000 $d
C:\Users\DJESSOU\AppData\Local\Temp\ccfF5lhd.s:6360   .data.__compound_literal.19:00000000 $d
C:\Users\DJESSOU\AppData\Local\Temp\ccfF5lhd.s:6366   .data.__compound_literal.18:00000000 $d
C:\Users\DJESSOU\AppData\Local\Temp\ccfF5lhd.s:6375   .bss.__compound_literal.17:00000000 $d
C:\Users\DJESSOU\AppData\Local\Temp\ccfF5lhd.s:6381   .data.__compound_literal.16:00000000 $d
C:\Users\DJESSOU\AppData\Local\Temp\ccfF5lhd.s:6387   .data.__compound_literal.15:00000000 $d
C:\Users\DJESSOU\AppData\Local\Temp\ccfF5lhd.s:6396   .bss.__compound_literal.14:00000000 $d
C:\Users\DJESSOU\AppData\Local\Temp\ccfF5lhd.s:6402   .data.__compound_literal.13:00000000 $d
C:\Users\DJESSOU\AppData\Local\Temp\ccfF5lhd.s:6408   .data.__compound_literal.12:00000000 $d
C:\Users\DJESSOU\AppData\Local\Temp\ccfF5lhd.s:6417   .bss.__compound_literal.11:00000000 $d
C:\Users\DJESSOU\AppData\Local\Temp\ccfF5lhd.s:6423   .data.__compound_literal.10:00000000 $d
C:\Users\DJESSOU\AppData\Local\Temp\ccfF5lhd.s:6429   .data.__compound_literal.9:00000000 $d
C:\Users\DJESSOU\AppData\Local\Temp\ccfF5lhd.s:6447   .data.__compound_literal.8:00000000 $d
C:\Users\DJESSOU\AppData\Local\Temp\ccfF5lhd.s:6516   .data.__compound_literal.4:00000000 __compound_literal.4
C:\Users\DJESSOU\AppData\Local\Temp\ccfF5lhd.s:6509   .data.__compound_literal.5:00000000 __compound_literal.5
C:\Users\DJESSOU\AppData\Local\Temp\ccfF5lhd.s:6502   .data.__compound_literal.6:00000000 __compound_literal.6
C:\Users\DJESSOU\AppData\Local\Temp\ccfF5lhd.s:6495   .data.__compound_literal.7:00000000 __compound_literal.7
C:\Users\DJESSOU\AppData\Local\Temp\ccfF5lhd.s:6492   .data.__compound_literal.7:00000000 $d
C:\Users\DJESSOU\AppData\Local\Temp\ccfF5lhd.s:6499   .data.__compound_literal.6:00000000 $d
C:\Users\DJESSOU\AppData\Local\Temp\ccfF5lhd.s:6506   .data.__compound_literal.5:00000000 $d
C:\Users\DJESSOU\AppData\Local\Temp\ccfF5lhd.s:6513   .data.__compound_literal.4:00000000 $d
C:\Users\DJESSOU\AppData\Local\Temp\ccfF5lhd.s:6523   .data.__compound_literal.3:00000000 $d
C:\Users\DJESSOU\AppData\Local\Temp\ccfF5lhd.s:6553   .data.__compound_literal.0:00000000 __compound_literal.0
C:\Users\DJESSOU\AppData\Local\Temp\ccfF5lhd.s:6547   .data.__compound_literal.1:00000000 __compound_literal.1
C:\Users\DJESSOU\AppData\Local\Temp\ccfF5lhd.s:6541   .bss.__compound_literal.2:00000000 __compound_literal.2
C:\Users\DJESSOU\AppData\Local\Temp\ccfF5lhd.s:6538   .bss.__compound_literal.2:00000000 $d
C:\Users\DJESSOU\AppData\Local\Temp\ccfF5lhd.s:6544   .data.__compound_literal.1:00000000 $d
C:\Users\DJESSOU\AppData\Local\Temp\ccfF5lhd.s:6550   .data.__compound_literal.0:00000000 $d
C:\Users\DJESSOU\AppData\Local\Temp\ccfF5lhd.s:6559   .rodata.NN_Interface_hand_landmark:00000000 $d
                           .group:00000000 wm4.0.c530a555507323ed657a04d5a22acbf4
                           .group:00000000 wm4.ll_aton_config.h.20.27cfa9f6f5afc4105991355367358a39
ARM GAS  C:\Users\DJESSOU\AppData\Local\Temp\ccfF5lhd.s 			page 157


                           .group:00000000 wm4.stdbool.h.29.c08aa3eec75cf5b9b5003883f43253f0
                           .group:00000000 wm4.stddef.h.39.0dc9006b34572d4d9cae4c8b422c4971
                           .group:00000000 wm4._newlib_version.h.4.411db44ea2338a62eca2f0777f81481b
                           .group:00000000 wm4.features.h.33.e0c9f337c65cb9f22ed5f23d082bc78b
                           .group:00000000 wm4._default_types.h.15.247e5cd201eca3442cbf5404108c4935
                           .group:00000000 wm4._intsup.h.10.48bafbb683905c4daa4565a85aeeb264
                           .group:00000000 wm4._stdint.h.10.c24fa3af3bc1706662bb5593a907e841
                           .group:00000000 wm4.stdint.h.23.d53047a68f4a85177f80b422d52785ed
                           .group:00000000 wm4.ll_aton_attributes.h.20.26d469460cb32db5740effdc8cc403f3
                           .group:00000000 wm4.ll_aton_cipher.h.20.e98fdae11c912f4036a83cedb835e14e
                           .group:00000000 wm4.newlib.h.7.a37ffbe9e5aff74303f4e60b1cc1c01b
                           .group:00000000 wm4.ieeefp.h.77.bd5feb87d9990dd328793ced294f6a87
                           .group:00000000 wm4.config.h.224.10ee1ad185d877c6e334e6581faab44d
                           .group:00000000 wm4._ansi.h.31.de524f58584151836e90d8620a16f8e8
                           .group:00000000 wm4.assert.h.11.db24e541f16414db224bf986d21017e2
                           .group:00000000 wm4.errno.h.2.ba016d646105af6cad23be83630b6a3f
                           .group:00000000 wm4.cdefs.h.49.70fc7af612f78ddcace70fdd90b5623b
                           .group:00000000 wm4._types.h.20.dd0d04dca3800a0d2a6129b87f3adbb2
                           .group:00000000 wm4.stddef.h.158.6f8e08a347b1cff664332fa350bfceb3
                           .group:00000000 wm4._types.h.127.3bdfe3ff8ea2d0985b03d9cbe93480e3
                           .group:00000000 wm4.reent.h.18.25503cdc8b7e55dd0d6ea7b3e5af7a03
                           .group:00000000 wm4.lock.h.2.1461d1fff82dffe8bfddc23307f6484f
                           .group:00000000 wm4.reent.h.78.6b87466b04591b1f1cb88c14fdf2ba9e
                           .group:00000000 wm4.errno.h.18.87873c1c5b242e8a4fdc43daa9aad824
                           .group:00000000 wm4.stdio.h.27.3fc80220048df77954e38daec3bb9670
                           .group:00000000 wm4.stddef.h.158.eec8bf00b5213f43d095cb984c5f22e3
                           .group:00000000 wm4.stdarg.h.34.3a23a216c0c293b3d2ea2e89281481e6
                           .group:00000000 wm4.stdio.h.47.dc31ec4674d7bcb103c9f08809549f45
                           .group:00000000 wm4.stdio.h.2.4aa87247282eca6c8f36f9de33d8df1a
                           .group:00000000 wm4.stdio.h.87.a1e20d2651f9bfb66e51bfbe849db00a
                           .group:00000000 wm4.ll_aton_util.h.34.9098eaa90d3d72b819973556e3e5fe44
                           .group:00000000 wm4.FreeRTOS.h.59.647b1b0da38e4e98108aae13c8abe9ee
                           .group:00000000 wm4.assert.h.11.d99a111e320bc5106fc4046225782672
                           .group:00000000 wm4.FreeRTOSConfig.h.59.2629c72cff9e6dbe880a2dc225eae516
                           .group:00000000 wm4.FreeRTOS.h.80.7742fabaf5accf3762dc12f7f259a8a0
                           .group:00000000 wm4.projdefs.h.30.55a824156f299c075c33148a9fdadb99
                           .group:00000000 wm4.portmacro.h.30.cbb4b2da41f551c2a9904f0d03a1ce3e
                           .group:00000000 wm4.portmacrocommon.h.30.d5cb67896ab50a95311be7e023da5c4f
                           .group:00000000 wm4.portmacro.h.68.4051ecf710d074fb55b16d91dfebeeaa
                           .group:00000000 wm4.portable.h.61.d557c57974d490f056246a26cdcddd6c
                           .group:00000000 wm4.mpu_wrappers.h.30.ccc5f1a6903f941a88c268f5f62af3fe
                           .group:00000000 wm4.portable.h.189.522b8bd52a171d3fd1432ef06d0caa63
                           .group:00000000 wm4.FreeRTOS.h.102.fb871f3e464d99c5a57b3115545a02ad
                           .group:00000000 wm4.list.h.59.bce6419520cd4f5f98779a1530bf2118
                           .group:00000000 wm4.task.h.56.84290139c73b47f5b9aac361361a2a31
                           .group:00000000 wm4.queue.h.68.219f47fba8b59640449b84d04c5bd6d8
                           .group:00000000 wm4.semphr.h.40.c1a9c6f5bf0feb4da0b6a45d234a79d0
                           .group:00000000 wm4.ll_aton_platform.h.20.8f1d4e7781c282794886ffdd00ccd30b
                           .group:00000000 wm4.stm32n6xx.h.34.c523a1ffdf274a69e8802892c6776332
                           .group:00000000 wm4.stm32n657xx.h.26.acd272cb67318cc1a4791ce2f0720ca6
                           .group:00000000 wm4.cmsis_version.h.30.d128735bf87720f7436b74fefeb5043c
                           .group:00000000 wm4.core_cm55.h.67.25006a3ce7048d64bcddd2996d5fac93
                           .group:00000000 wm4.arm_acle.h.28.ce8f475a5cc50333e54ae4adeb8c0298
                           .group:00000000 wm4.cmsis_gcc.h.39.eba7438bc45fd1a6e6376b63ffe44436
                           .group:00000000 wm4.cmsis_gcc_m.h.24.e590ec51aeda3a1242400351d73f5dce
                           .group:00000000 wm4.core_cm55.h.213.0528f46a674315ef8d35c4477e230358
                           .group:00000000 wm4.armv8m_mpu.h.24.bf28cc25bee30a7ff9d2f7a44a5e2230
ARM GAS  C:\Users\DJESSOU\AppData\Local\Temp\ccfF5lhd.s 			page 158


                           .group:00000000 wm4.armv8m_pmu.h.24.6ded195d2625055391fd378c0e1d2519
                           .group:00000000 wm4.core_cm55.h.4477.396e822ef855bcfb932819ad48de1c4c
                           .group:00000000 wm4.armv7m_cachel1.h.24.936dd92d6e204a8d0b17d5e4ea4a356e
                           .group:00000000 wm4.stm32n657xx.h.575.78d331c417ec710388ced647138f735f
                           .group:00000000 wm4.stm32n6xx.h.116.b4247d9785590e7c5ec9234ffb2153bf
                           .group:00000000 wm4.ll_aton_platform.h.205.098bebcb126012e5dfc0544db0a7d4c8
                           .group:00000000 wm4.inttypes.h.14.b28deb26920e51e0da310220ef0f9003
                           .group:00000000 wm4.inttypes.h.28.684aa7736e7ecc9a6ffc44acc61c7a90
                           .group:00000000 wm4.syslimits.h.34.de5cbd310098bc5895998b6bde577ed2
                           .group:00000000 wm4.limits.h.9.70fb0ada6f71b16202a66baaa6d8ea70
                           .group:00000000 wm4.limits.h.60.56a1ae353e2028a24298ec6463b8b593
                           .group:00000000 wm4.string.h.8.c4b8571ce60dff2817f43fec8b86aecd
                           .group:00000000 wm4.string.h.177.59a005921fa78485abc80a0267de5752
                           .group:00000000 wm4.ATONidxs.h.16.969ebf3fd32e13543179e6907b3869c9
                           .group:00000000 wm4.ATON.h.19.0bce86f27eb7ac354272c44c1804cd24
                           .group:00000000 wm4.ll_aton_rcompat.h.22.4788366561a5f8dfb37661f794bdd403
                           .group:00000000 wm4.ll_aton_platform.h.279.2fa1ab569e6816db5b603cc3ef09d875
                           .group:00000000 wm4.ll_aton_osal_freertos.h.63.1e66f105894f6ee9e5e9ee361a3df896
                           .group:00000000 wm4.ll_aton_osal.h.117.70ff644e90427fadc04622c387869938
                           .group:00000000 wm4.ll_aton_rt_user_api.h.71.52957347efa02883c6e8b1a7f756d297
                           .group:00000000 wm4.stai.h.24.a274645e79490de4e05332b397550d1f
                           .group:00000000 wm4.stai_debug.h.37.4be079c70c66033549ba26b63a31db94
                           .group:00000000 wm4.ll_aton_stai_internal.h.35.4ede4d59178f196dca4b635c5600498b
                           .group:00000000 wm4.stai_hand_landmark.h.57.a57e8c36c3a4efdadd8ccc86aa5dd16f
                           .group:00000000 wm4.ll_aton_version.h.20.4fe5a5919aaeaa0d3ac9d2820d4f14d4

UNDEFINED SYMBOLS
LL_ATON_Output_Buffers_Info_hand_landmark
__assert_func
LL_ATON_Input_Buffers_Info_hand_landmark
LL_ATON_Internal_Buffers_Info_hand_landmark
__ll_aton_stai_init_network_instance
__ll_aton_stai_deinit_network_instance
LL_ATON_RT_SetNetworkCallback
__ll_aton_stai_run
memset
_stai_aton_internal_epoch_block_callback
LL_ATON_RT_RunEpochBlock
__ll_aton_stai_set_execution_status
__ll_aton_stai_get_execution_status
__ll_aton_stai_reset
LL_ATON_EC_Network_Init_hand_landmark
LL_ATON_EC_Inference_Init_hand_landmark
LL_ATON_Set_User_Input_Buffer_hand_landmark
LL_ATON_Get_User_Input_Buffer_hand_landmark
LL_ATON_Set_User_Output_Buffer_hand_landmark
LL_ATON_Get_User_Output_Buffer_hand_landmark
LL_ATON_EpochBlockItems_hand_landmark
LL_ATON_BlobEncryption_Info_hand_landmark
LL_ATON_WeightEncryption_Info_hand_landmark
