ARM GAS  C:\Users\DJESSOU\AppData\Local\Temp\ccruImXQ.s 			page 1


   1              		.arch armv8.1-m.main
   2              		.fpu fpv5-d16
   3              		.arch_extension dsp
   4              		.arch_extension fp
   5              		.arch_extension fp.dp
   6              		.arch_extension mve
   7              		.arch_extension mve.fp
   8              		.eabi_attribute 5, "cortex-m55"
   9              		.eabi_attribute 28, 1
  10              		.eabi_attribute 20, 1
  11              		.eabi_attribute 21, 1
  12              		.eabi_attribute 23, 3
  13              		.eabi_attribute 24, 1
  14              		.eabi_attribute 25, 1
  15              		.eabi_attribute 26, 1
  16              		.eabi_attribute 30, 4
  17              		.eabi_attribute 34, 1
  18              		.eabi_attribute 38, 1
  19              		.eabi_attribute 18, 4
  20              		.file	"stai_palm_detector.c"
  21              		.text
  22              	.Ltext0:
  23              		.cfi_sections	.debug_frame
  24              		.file 1 "Model/stai_palm_detector.c"
  25              		.section	.text.LL_Buffer_addr_start,"ax",%progbits
  26              		.align	1
  27              		.syntax unified
  28              		.thumb
  29              		.thumb_func
  31              	LL_Buffer_addr_start:
  32              	.LVL0:
  33              	.LFB15:
  34              		.file 2 "Lib/AI_Runtime/Npu/ll_aton/ll_aton_NN_interface.h"
   1:Lib/AI_Runtime/Npu/ll_aton/ll_aton_NN_interface.h **** /**
   2:Lib/AI_Runtime/Npu/ll_aton/ll_aton_NN_interface.h ****  ******************************************************************************
   3:Lib/AI_Runtime/Npu/ll_aton/ll_aton_NN_interface.h ****  * @file    ll_aton_NN_interface.h
   4:Lib/AI_Runtime/Npu/ll_aton/ll_aton_NN_interface.h ****  * @author  SRA Artificial Intelligence & Embedded Architectures
   5:Lib/AI_Runtime/Npu/ll_aton/ll_aton_NN_interface.h ****  * @brief   Interface that defines a NN generated by the AtoNN Compiler.
   6:Lib/AI_Runtime/Npu/ll_aton/ll_aton_NN_interface.h ****  ******************************************************************************
   7:Lib/AI_Runtime/Npu/ll_aton/ll_aton_NN_interface.h ****  * @attention
   8:Lib/AI_Runtime/Npu/ll_aton/ll_aton_NN_interface.h ****  *
   9:Lib/AI_Runtime/Npu/ll_aton/ll_aton_NN_interface.h ****  * Copyright (c) 2024 STMicroelectronics.
  10:Lib/AI_Runtime/Npu/ll_aton/ll_aton_NN_interface.h ****  * All rights reserved.
  11:Lib/AI_Runtime/Npu/ll_aton/ll_aton_NN_interface.h ****  *
  12:Lib/AI_Runtime/Npu/ll_aton/ll_aton_NN_interface.h ****  * This software is licensed under terms that can be found in the LICENSE file
  13:Lib/AI_Runtime/Npu/ll_aton/ll_aton_NN_interface.h ****  * in the root directory of this software component.
  14:Lib/AI_Runtime/Npu/ll_aton/ll_aton_NN_interface.h ****  * If no LICENSE file comes with this software, it is provided AS-IS.
  15:Lib/AI_Runtime/Npu/ll_aton/ll_aton_NN_interface.h ****  *
  16:Lib/AI_Runtime/Npu/ll_aton/ll_aton_NN_interface.h ****  ******************************************************************************
  17:Lib/AI_Runtime/Npu/ll_aton/ll_aton_NN_interface.h ****  */
  18:Lib/AI_Runtime/Npu/ll_aton/ll_aton_NN_interface.h **** 
  19:Lib/AI_Runtime/Npu/ll_aton/ll_aton_NN_interface.h **** #ifndef __LL_ATON_NN_INTERFACE_H
  20:Lib/AI_Runtime/Npu/ll_aton/ll_aton_NN_interface.h **** #define __LL_ATON_NN_INTERFACE_H
  21:Lib/AI_Runtime/Npu/ll_aton/ll_aton_NN_interface.h **** 
  22:Lib/AI_Runtime/Npu/ll_aton/ll_aton_NN_interface.h **** #ifdef __cplusplus
  23:Lib/AI_Runtime/Npu/ll_aton/ll_aton_NN_interface.h **** extern "C"
  24:Lib/AI_Runtime/Npu/ll_aton/ll_aton_NN_interface.h **** {
ARM GAS  C:\Users\DJESSOU\AppData\Local\Temp\ccruImXQ.s 			page 2


  25:Lib/AI_Runtime/Npu/ll_aton/ll_aton_NN_interface.h **** #endif
  26:Lib/AI_Runtime/Npu/ll_aton/ll_aton_NN_interface.h **** 
  27:Lib/AI_Runtime/Npu/ll_aton/ll_aton_NN_interface.h **** #include <stdbool.h>
  28:Lib/AI_Runtime/Npu/ll_aton/ll_aton_NN_interface.h **** #include <stddef.h>
  29:Lib/AI_Runtime/Npu/ll_aton/ll_aton_NN_interface.h **** #include <stdint.h>
  30:Lib/AI_Runtime/Npu/ll_aton/ll_aton_NN_interface.h **** 
  31:Lib/AI_Runtime/Npu/ll_aton/ll_aton_NN_interface.h **** #include "ll_aton_config.h"
  32:Lib/AI_Runtime/Npu/ll_aton/ll_aton_NN_interface.h **** 
  33:Lib/AI_Runtime/Npu/ll_aton/ll_aton_NN_interface.h **** #include "ll_aton_attributes.h"
  34:Lib/AI_Runtime/Npu/ll_aton/ll_aton_NN_interface.h **** #include "ll_aton_cipher.h"
  35:Lib/AI_Runtime/Npu/ll_aton/ll_aton_NN_interface.h **** #include "ll_aton_util.h"
  36:Lib/AI_Runtime/Npu/ll_aton/ll_aton_NN_interface.h **** 
  37:Lib/AI_Runtime/Npu/ll_aton/ll_aton_NN_interface.h ****   /** @defgroup User I/O Return Values & Callback Event Types
  38:Lib/AI_Runtime/Npu/ll_aton/ll_aton_NN_interface.h ****    * @{
  39:Lib/AI_Runtime/Npu/ll_aton/ll_aton_NN_interface.h ****    */
  40:Lib/AI_Runtime/Npu/ll_aton/ll_aton_NN_interface.h **** 
  41:Lib/AI_Runtime/Npu/ll_aton/ll_aton_NN_interface.h ****   typedef enum LL_ATON_User_IO_Result
  42:Lib/AI_Runtime/Npu/ll_aton/ll_aton_NN_interface.h ****   {
  43:Lib/AI_Runtime/Npu/ll_aton/ll_aton_NN_interface.h ****     LL_ATON_User_IO_NOERROR,     /**< */
  44:Lib/AI_Runtime/Npu/ll_aton/ll_aton_NN_interface.h ****     LL_ATON_User_IO_WRONG_ALIGN, /**< */
  45:Lib/AI_Runtime/Npu/ll_aton/ll_aton_NN_interface.h ****     LL_ATON_User_IO_WRONG_SIZE,  /**< */
  46:Lib/AI_Runtime/Npu/ll_aton/ll_aton_NN_interface.h ****     LL_ATON_User_IO_WRONG_INDEX, /**< */
  47:Lib/AI_Runtime/Npu/ll_aton/ll_aton_NN_interface.h ****   } LL_ATON_User_IO_Result_t;
  48:Lib/AI_Runtime/Npu/ll_aton/ll_aton_NN_interface.h **** 
  49:Lib/AI_Runtime/Npu/ll_aton/ll_aton_NN_interface.h ****   typedef enum LL_ATON_RT_Callbacktype
  50:Lib/AI_Runtime/Npu/ll_aton/ll_aton_NN_interface.h ****   {
  51:Lib/AI_Runtime/Npu/ll_aton/ll_aton_NN_interface.h ****     LL_ATON_RT_Callbacktype_PRE_START,  /**< Callback called before start_epoch_block */
  52:Lib/AI_Runtime/Npu/ll_aton/ll_aton_NN_interface.h ****     LL_ATON_RT_Callbacktype_POST_START, /**< Callback called after start_epoch_block */
  53:Lib/AI_Runtime/Npu/ll_aton/ll_aton_NN_interface.h ****     LL_ATON_RT_Callbacktype_PRE_END,    /**< Callback called before end_epoch_block */
  54:Lib/AI_Runtime/Npu/ll_aton/ll_aton_NN_interface.h ****     LL_ATON_RT_Callbacktype_POST_END,   /**< Callback called after end_epoch_block */
  55:Lib/AI_Runtime/Npu/ll_aton/ll_aton_NN_interface.h ****     LL_ATON_RT_Callbacktype_NN_Init,    /**< Callback called after `LL_ATON_RT_Init_Network`,
  56:Lib/AI_Runtime/Npu/ll_aton/ll_aton_NN_interface.h ****                                          *     NOTE: 3rd parameter passed is `NULL` */
  57:Lib/AI_Runtime/Npu/ll_aton/ll_aton_NN_interface.h ****     LL_ATON_RT_Callbacktype_NN_DeInit,  /**< Callback called after `LL_ATON_RT_DeInit_Network`,
  58:Lib/AI_Runtime/Npu/ll_aton/ll_aton_NN_interface.h ****                                          *     NOTE: 3rd parameter passed is `NULL` */
  59:Lib/AI_Runtime/Npu/ll_aton/ll_aton_NN_interface.h ****     LL_ATON_RT_Callbacktype_RT_Init,    /**< Callback called after `LL_ATON_RT_RuntimeInit` */
  60:Lib/AI_Runtime/Npu/ll_aton/ll_aton_NN_interface.h ****     LL_ATON_RT_Callbacktype_RT_Deinit,  /**< Callback called before `LL_ATON_RT_RuntimeDeInit` */
  61:Lib/AI_Runtime/Npu/ll_aton/ll_aton_NN_interface.h ****   } LL_ATON_RT_Callbacktype_t;
  62:Lib/AI_Runtime/Npu/ll_aton/ll_aton_NN_interface.h **** 
  63:Lib/AI_Runtime/Npu/ll_aton/ll_aton_NN_interface.h ****   /**
  64:Lib/AI_Runtime/Npu/ll_aton/ll_aton_NN_interface.h ****    * @}
  65:Lib/AI_Runtime/Npu/ll_aton/ll_aton_NN_interface.h ****    */
  66:Lib/AI_Runtime/Npu/ll_aton/ll_aton_NN_interface.h **** 
  67:Lib/AI_Runtime/Npu/ll_aton/ll_aton_NN_interface.h ****   /** @defgroup Handle-style Data Types for Epoch Blocks
  68:Lib/AI_Runtime/Npu/ll_aton/ll_aton_NN_interface.h ****    * @{
  69:Lib/AI_Runtime/Npu/ll_aton/ll_aton_NN_interface.h ****    */
  70:Lib/AI_Runtime/Npu/ll_aton/ll_aton_NN_interface.h **** 
  71:Lib/AI_Runtime/Npu/ll_aton/ll_aton_NN_interface.h ****   /* this is needed to avoid some compilers (e.g. KEIL) that observe a strict semantic about conver
  72:Lib/AI_Runtime/Npu/ll_aton/ll_aton_NN_interface.h ****    * pointers to integers in cost initializers
  73:Lib/AI_Runtime/Npu/ll_aton/ll_aton_NN_interface.h ****    */
  74:Lib/AI_Runtime/Npu/ll_aton/ll_aton_NN_interface.h ****   typedef union
  75:Lib/AI_Runtime/Npu/ll_aton/ll_aton_NN_interface.h ****   {
  76:Lib/AI_Runtime/Npu/ll_aton/ll_aton_NN_interface.h ****     unsigned char *p;
  77:Lib/AI_Runtime/Npu/ll_aton/ll_aton_NN_interface.h ****     uintptr_t i;
  78:Lib/AI_Runtime/Npu/ll_aton/ll_aton_NN_interface.h ****   } __LL_address_t;
  79:Lib/AI_Runtime/Npu/ll_aton/ll_aton_NN_interface.h **** 
  80:Lib/AI_Runtime/Npu/ll_aton/ll_aton_NN_interface.h ****   typedef void (*EpochBlock_FuncPtr_t)(const void *epoch_block);
  81:Lib/AI_Runtime/Npu/ll_aton/ll_aton_NN_interface.h **** 
ARM GAS  C:\Users\DJESSOU\AppData\Local\Temp\ccruImXQ.s 			page 3


  82:Lib/AI_Runtime/Npu/ll_aton/ll_aton_NN_interface.h ****   typedef enum
  83:Lib/AI_Runtime/Npu/ll_aton/ll_aton_NN_interface.h ****   {
  84:Lib/AI_Runtime/Npu/ll_aton/ll_aton_NN_interface.h ****     EpochBlock_Flags_NONE = 0x0,                 /**< */
  85:Lib/AI_Runtime/Npu/ll_aton/ll_aton_NN_interface.h ****     EpochBlock_Flags_epoch_start = (0x1 << 0),   /**< First EpochBlock of an Epoch */
  86:Lib/AI_Runtime/Npu/ll_aton/ll_aton_NN_interface.h ****     EpochBlock_Flags_epoch_end = (0x1 << 1),     /**< Last EpochBlock of an Epoch */
  87:Lib/AI_Runtime/Npu/ll_aton/ll_aton_NN_interface.h ****     EpochBlock_Flags_blob = (0x1 << 2),          /**< Item is an Epoch Blob */
  88:Lib/AI_Runtime/Npu/ll_aton/ll_aton_NN_interface.h ****     EpochBlock_Flags_last_eb = (0x1 << 3),       /**< Last EpochBlock */
  89:Lib/AI_Runtime/Npu/ll_aton/ll_aton_NN_interface.h ****     EpochBlock_Flags_pure_hw = (0x1 << 4),       /**< Pure HW EpochBlock */
  90:Lib/AI_Runtime/Npu/ll_aton/ll_aton_NN_interface.h ****     EpochBlock_Flags_pure_sw = (0x1 << 5),       /**< Pure SW EpochBlock */
  91:Lib/AI_Runtime/Npu/ll_aton/ll_aton_NN_interface.h ****     EpochBlock_Flags_hybrid = (0x1 << 6),        /**< Hybrid EpochBlock (i.e. mixed HW/SW) */
  92:Lib/AI_Runtime/Npu/ll_aton/ll_aton_NN_interface.h ****     EpochBlock_Flags_internal = (0x1 << 7),      /**< ATON lib internal EpochBlock (used to impleme
  93:Lib/AI_Runtime/Npu/ll_aton/ll_aton_NN_interface.h ****     EpochBlock_Flags_blob_encrypted = (0x1 << 8) /**< The blob is encrypted and must be decrypted o
  94:Lib/AI_Runtime/Npu/ll_aton/ll_aton_NN_interface.h ****   } EpochBlock_Flags_t;
  95:Lib/AI_Runtime/Npu/ll_aton/ll_aton_NN_interface.h **** 
  96:Lib/AI_Runtime/Npu/ll_aton/ll_aton_NN_interface.h ****   typedef struct
  97:Lib/AI_Runtime/Npu/ll_aton/ll_aton_NN_interface.h ****   {
  98:Lib/AI_Runtime/Npu/ll_aton/ll_aton_NN_interface.h ****     EpochBlock_FuncPtr_t start_epoch_block; /**< Method to execute the EpochBlock */
  99:Lib/AI_Runtime/Npu/ll_aton/ll_aton_NN_interface.h ****     EpochBlock_FuncPtr_t end_epoch_block;   /**< Method to be executed when the EpochBlock ends */
 100:Lib/AI_Runtime/Npu/ll_aton/ll_aton_NN_interface.h ****     uintptr_t blob_address;                 /**< Blob address (in case this EpochBlock represents a
 101:Lib/AI_Runtime/Npu/ll_aton/ll_aton_NN_interface.h ****     uint32_t wait_mask;                     /**< Mask needed to check when an EpochBlock ends
 102:Lib/AI_Runtime/Npu/ll_aton/ll_aton_NN_interface.h ****                                              *    - if epoch blob: number (not bitmask) of epoch co
 103:Lib/AI_Runtime/Npu/ll_aton/ll_aton_NN_interface.h ****                                              *    - otherwise: bitmask with all output streaming en
 104:Lib/AI_Runtime/Npu/ll_aton/ll_aton_NN_interface.h ****     uint16_t flags;                         /**< EpochBlock flags */
 105:Lib/AI_Runtime/Npu/ll_aton/ll_aton_NN_interface.h **** #ifdef LL_ATON_EB_DBG_INFO
 106:Lib/AI_Runtime/Npu/ll_aton/ll_aton_NN_interface.h ****     int16_t epoch_num;             /**< Epoch number / First epoch number within blob */
 107:Lib/AI_Runtime/Npu/ll_aton/ll_aton_NN_interface.h ****     int16_t last_epoch_num;        /**< Epoch number / Last epoch number within blob */
 108:Lib/AI_Runtime/Npu/ll_aton/ll_aton_NN_interface.h ****     uint32_t in_streng_mask;       /**< Debug information about input streaming engines used in epo
 109:Lib/AI_Runtime/Npu/ll_aton/ll_aton_NN_interface.h ****     uint32_t out_streng_mask;      /**< Debug information about output streaming engines used in ep
 110:Lib/AI_Runtime/Npu/ll_aton/ll_aton_NN_interface.h ****     uint64_t estimated_npu_cycles; /**< Debug information estimates for NPU cycles in epoch w/o mem
 111:Lib/AI_Runtime/Npu/ll_aton/ll_aton_NN_interface.h ****     uint64_t estimated_tot_cycles; /**< Debug information estimates for NPU cycles in epoch w/ memo
 112:Lib/AI_Runtime/Npu/ll_aton/ll_aton_NN_interface.h **** #endif                             // LL_ATON_EB_DBG_INFO
 113:Lib/AI_Runtime/Npu/ll_aton/ll_aton_NN_interface.h ****   } EpochBlock_ItemTypeDef;
 114:Lib/AI_Runtime/Npu/ll_aton/ll_aton_NN_interface.h ****   typedef EpochBlock_ItemTypeDef LL_ATON_RT_EpochBlockItem_t;
 115:Lib/AI_Runtime/Npu/ll_aton/ll_aton_NN_interface.h **** 
 116:Lib/AI_Runtime/Npu/ll_aton/ll_aton_NN_interface.h ****   /**
 117:Lib/AI_Runtime/Npu/ll_aton/ll_aton_NN_interface.h ****    * @}
 118:Lib/AI_Runtime/Npu/ll_aton/ll_aton_NN_interface.h ****    */
 119:Lib/AI_Runtime/Npu/ll_aton/ll_aton_NN_interface.h **** 
 120:Lib/AI_Runtime/Npu/ll_aton/ll_aton_NN_interface.h ****   /** @defgroup Helper Function Declarations for User Callbacks
 121:Lib/AI_Runtime/Npu/ll_aton/ll_aton_NN_interface.h ****    * @{
 122:Lib/AI_Runtime/Npu/ll_aton/ll_aton_NN_interface.h ****    */
 123:Lib/AI_Runtime/Npu/ll_aton/ll_aton_NN_interface.h **** 
 124:Lib/AI_Runtime/Npu/ll_aton/ll_aton_NN_interface.h ****   /**
 125:Lib/AI_Runtime/Npu/ll_aton/ll_aton_NN_interface.h ****    * @brief Checks if the pointed element is the last one of an array of `const EpochBlock_ItemType
 126:Lib/AI_Runtime/Npu/ll_aton/ll_aton_NN_interface.h ****    *
 127:Lib/AI_Runtime/Npu/ll_aton/ll_aton_NN_interface.h ****    */
 128:Lib/AI_Runtime/Npu/ll_aton/ll_aton_NN_interface.h ****   static inline bool EpochBlock_IsLastEpochBlock(const EpochBlock_ItemTypeDef *eb);
 129:Lib/AI_Runtime/Npu/ll_aton/ll_aton_NN_interface.h **** 
 130:Lib/AI_Runtime/Npu/ll_aton/ll_aton_NN_interface.h ****   /**
 131:Lib/AI_Runtime/Npu/ll_aton/ll_aton_NN_interface.h ****    * @brief Checks if the pointed element is the first EpochBlock of an Epoch
 132:Lib/AI_Runtime/Npu/ll_aton/ll_aton_NN_interface.h ****    *
 133:Lib/AI_Runtime/Npu/ll_aton/ll_aton_NN_interface.h ****    */
 134:Lib/AI_Runtime/Npu/ll_aton/ll_aton_NN_interface.h ****   static inline bool EpochBlock_IsEpochStart(const EpochBlock_ItemTypeDef *eb);
 135:Lib/AI_Runtime/Npu/ll_aton/ll_aton_NN_interface.h **** 
 136:Lib/AI_Runtime/Npu/ll_aton/ll_aton_NN_interface.h ****   /**
 137:Lib/AI_Runtime/Npu/ll_aton/ll_aton_NN_interface.h ****    * @brief Checks if the pointed element is the last EpochBlock of an Epoch
 138:Lib/AI_Runtime/Npu/ll_aton/ll_aton_NN_interface.h ****    *
ARM GAS  C:\Users\DJESSOU\AppData\Local\Temp\ccruImXQ.s 			page 4


 139:Lib/AI_Runtime/Npu/ll_aton/ll_aton_NN_interface.h ****    */
 140:Lib/AI_Runtime/Npu/ll_aton/ll_aton_NN_interface.h ****   static inline bool EpochBlock_IsEpochEnd(const EpochBlock_ItemTypeDef *eb);
 141:Lib/AI_Runtime/Npu/ll_aton/ll_aton_NN_interface.h **** 
 142:Lib/AI_Runtime/Npu/ll_aton/ll_aton_NN_interface.h ****   /**
 143:Lib/AI_Runtime/Npu/ll_aton/ll_aton_NN_interface.h ****    * @brief Checks if the pointed element is the an Epoch Blob
 144:Lib/AI_Runtime/Npu/ll_aton/ll_aton_NN_interface.h ****    *
 145:Lib/AI_Runtime/Npu/ll_aton/ll_aton_NN_interface.h ****    */
 146:Lib/AI_Runtime/Npu/ll_aton/ll_aton_NN_interface.h ****   static inline bool EpochBlock_IsEpochBlob(const EpochBlock_ItemTypeDef *eb);
 147:Lib/AI_Runtime/Npu/ll_aton/ll_aton_NN_interface.h **** 
 148:Lib/AI_Runtime/Npu/ll_aton/ll_aton_NN_interface.h ****   /**
 149:Lib/AI_Runtime/Npu/ll_aton/ll_aton_NN_interface.h ****    * @brief Checks if - in case this epoch is a blob (see above) - the blob is encrypted
 150:Lib/AI_Runtime/Npu/ll_aton/ll_aton_NN_interface.h ****    *
 151:Lib/AI_Runtime/Npu/ll_aton/ll_aton_NN_interface.h ****    */
 152:Lib/AI_Runtime/Npu/ll_aton/ll_aton_NN_interface.h ****   static inline bool EpochBlock_IsBlobEncrypted(const EpochBlock_ItemTypeDef *eb);
 153:Lib/AI_Runtime/Npu/ll_aton/ll_aton_NN_interface.h **** 
 154:Lib/AI_Runtime/Npu/ll_aton/ll_aton_NN_interface.h ****   /**
 155:Lib/AI_Runtime/Npu/ll_aton/ll_aton_NN_interface.h ****    * @brief Checks if the pointed element is pure SW epoch
 156:Lib/AI_Runtime/Npu/ll_aton/ll_aton_NN_interface.h ****    *
 157:Lib/AI_Runtime/Npu/ll_aton/ll_aton_NN_interface.h ****    */
 158:Lib/AI_Runtime/Npu/ll_aton/ll_aton_NN_interface.h ****   static inline bool EpochBlock_IsEpochPureSW(const EpochBlock_ItemTypeDef *eb);
 159:Lib/AI_Runtime/Npu/ll_aton/ll_aton_NN_interface.h **** 
 160:Lib/AI_Runtime/Npu/ll_aton/ll_aton_NN_interface.h ****   /**
 161:Lib/AI_Runtime/Npu/ll_aton/ll_aton_NN_interface.h ****    * @brief Checks if the pointed element is a pure HW or mixed SW/HW epoch
 162:Lib/AI_Runtime/Npu/ll_aton/ll_aton_NN_interface.h ****    *
 163:Lib/AI_Runtime/Npu/ll_aton/ll_aton_NN_interface.h ****    */
 164:Lib/AI_Runtime/Npu/ll_aton/ll_aton_NN_interface.h ****   static inline bool EpochBlock_IsEpochPureHW(const EpochBlock_ItemTypeDef *eb);
 165:Lib/AI_Runtime/Npu/ll_aton/ll_aton_NN_interface.h **** 
 166:Lib/AI_Runtime/Npu/ll_aton/ll_aton_NN_interface.h ****   /**
 167:Lib/AI_Runtime/Npu/ll_aton/ll_aton_NN_interface.h ****    * @brief Checks if the pointed element is a hybrid epoch
 168:Lib/AI_Runtime/Npu/ll_aton/ll_aton_NN_interface.h ****    *
 169:Lib/AI_Runtime/Npu/ll_aton/ll_aton_NN_interface.h ****    */
 170:Lib/AI_Runtime/Npu/ll_aton/ll_aton_NN_interface.h ****   static inline bool EpochBlock_IsEpochHybrid(const EpochBlock_ItemTypeDef *eb);
 171:Lib/AI_Runtime/Npu/ll_aton/ll_aton_NN_interface.h **** 
 172:Lib/AI_Runtime/Npu/ll_aton/ll_aton_NN_interface.h ****   /**
 173:Lib/AI_Runtime/Npu/ll_aton/ll_aton_NN_interface.h ****    * @brief Checks if the pointed element is an internal epoch
 174:Lib/AI_Runtime/Npu/ll_aton/ll_aton_NN_interface.h ****    *
 175:Lib/AI_Runtime/Npu/ll_aton/ll_aton_NN_interface.h ****    */
 176:Lib/AI_Runtime/Npu/ll_aton/ll_aton_NN_interface.h ****   static inline bool EpochBlock_IsEpochInternal(const EpochBlock_ItemTypeDef *eb);
 177:Lib/AI_Runtime/Npu/ll_aton/ll_aton_NN_interface.h **** 
 178:Lib/AI_Runtime/Npu/ll_aton/ll_aton_NN_interface.h ****   /**
 179:Lib/AI_Runtime/Npu/ll_aton/ll_aton_NN_interface.h ****    * @brief Returns the Epoch controller id to use
 180:Lib/AI_Runtime/Npu/ll_aton/ll_aton_NN_interface.h ****    *
 181:Lib/AI_Runtime/Npu/ll_aton/ll_aton_NN_interface.h ****    */
 182:Lib/AI_Runtime/Npu/ll_aton/ll_aton_NN_interface.h ****   static inline uint32_t EpochBlock_EpochControllerUnit(const EpochBlock_ItemTypeDef *eb);
 183:Lib/AI_Runtime/Npu/ll_aton/ll_aton_NN_interface.h **** 
 184:Lib/AI_Runtime/Npu/ll_aton/ll_aton_NN_interface.h ****   /**
 185:Lib/AI_Runtime/Npu/ll_aton/ll_aton_NN_interface.h ****    * @brief Returns the address of the configuration of the epoch controller (the blob address)
 186:Lib/AI_Runtime/Npu/ll_aton/ll_aton_NN_interface.h ****    *
 187:Lib/AI_Runtime/Npu/ll_aton/ll_aton_NN_interface.h ****    */
 188:Lib/AI_Runtime/Npu/ll_aton/ll_aton_NN_interface.h ****   static inline uintptr_t EpochBlock_EpochBlobAddr(const EpochBlock_ItemTypeDef *eb);
 189:Lib/AI_Runtime/Npu/ll_aton/ll_aton_NN_interface.h **** 
 190:Lib/AI_Runtime/Npu/ll_aton/ll_aton_NN_interface.h ****   /**
 191:Lib/AI_Runtime/Npu/ll_aton/ll_aton_NN_interface.h ****    * @brief ATON buffer types definition
 192:Lib/AI_Runtime/Npu/ll_aton/ll_aton_NN_interface.h ****    */
 193:Lib/AI_Runtime/Npu/ll_aton/ll_aton_NN_interface.h **** 
 194:Lib/AI_Runtime/Npu/ll_aton/ll_aton_NN_interface.h ****   /**
 195:Lib/AI_Runtime/Npu/ll_aton/ll_aton_NN_interface.h ****    * @}
ARM GAS  C:\Users\DJESSOU\AppData\Local\Temp\ccruImXQ.s 			page 5


 196:Lib/AI_Runtime/Npu/ll_aton/ll_aton_NN_interface.h ****    */
 197:Lib/AI_Runtime/Npu/ll_aton/ll_aton_NN_interface.h **** 
 198:Lib/AI_Runtime/Npu/ll_aton/ll_aton_NN_interface.h ****   /** @defgroup Handle-style Data Types for Input, Output, and Internal Buffers
 199:Lib/AI_Runtime/Npu/ll_aton/ll_aton_NN_interface.h ****    * @{
 200:Lib/AI_Runtime/Npu/ll_aton/ll_aton_NN_interface.h ****    */
 201:Lib/AI_Runtime/Npu/ll_aton/ll_aton_NN_interface.h **** 
 202:Lib/AI_Runtime/Npu/ll_aton/ll_aton_NN_interface.h ****   typedef enum
 203:Lib/AI_Runtime/Npu/ll_aton/ll_aton_NN_interface.h ****   {
 204:Lib/AI_Runtime/Npu/ll_aton/ll_aton_NN_interface.h ****     DataType_UNDEFINED = 0,
 205:Lib/AI_Runtime/Npu/ll_aton/ll_aton_NN_interface.h ****     DataType_FLOAT = 1,
 206:Lib/AI_Runtime/Npu/ll_aton/ll_aton_NN_interface.h ****     DataType_UINT2 = 2,
 207:Lib/AI_Runtime/Npu/ll_aton/ll_aton_NN_interface.h ****     DataType_INT2 = 3,
 208:Lib/AI_Runtime/Npu/ll_aton/ll_aton_NN_interface.h ****     DataType_UINT4 = 4,
 209:Lib/AI_Runtime/Npu/ll_aton/ll_aton_NN_interface.h ****     DataType_INT4 = 5,
 210:Lib/AI_Runtime/Npu/ll_aton/ll_aton_NN_interface.h ****     DataType_UINT8 = 6,
 211:Lib/AI_Runtime/Npu/ll_aton/ll_aton_NN_interface.h ****     DataType_INT8 = 7,
 212:Lib/AI_Runtime/Npu/ll_aton/ll_aton_NN_interface.h ****     DataType_UINT16 = 8,
 213:Lib/AI_Runtime/Npu/ll_aton/ll_aton_NN_interface.h ****     DataType_INT16 = 9,
 214:Lib/AI_Runtime/Npu/ll_aton/ll_aton_NN_interface.h ****     DataType_INT32 = 10,
 215:Lib/AI_Runtime/Npu/ll_aton/ll_aton_NN_interface.h ****     DataType_INT64 = 11,
 216:Lib/AI_Runtime/Npu/ll_aton/ll_aton_NN_interface.h ****     DataType_STRING = 12,
 217:Lib/AI_Runtime/Npu/ll_aton/ll_aton_NN_interface.h ****     DataType_BOOL = 13,
 218:Lib/AI_Runtime/Npu/ll_aton/ll_aton_NN_interface.h ****     DataType_FLOAT16 = 14,
 219:Lib/AI_Runtime/Npu/ll_aton/ll_aton_NN_interface.h ****     DataType_DOUBLE = 15,
 220:Lib/AI_Runtime/Npu/ll_aton/ll_aton_NN_interface.h ****     DataType_UINT32 = 16,
 221:Lib/AI_Runtime/Npu/ll_aton/ll_aton_NN_interface.h ****     DataType_UINT64 = 17,
 222:Lib/AI_Runtime/Npu/ll_aton/ll_aton_NN_interface.h ****     DataType_COMPLEX64 = 18,
 223:Lib/AI_Runtime/Npu/ll_aton/ll_aton_NN_interface.h ****     DataType_COMPLEX128 = 19,
 224:Lib/AI_Runtime/Npu/ll_aton/ll_aton_NN_interface.h ****     DataType_BFLOAT16 = 20,
 225:Lib/AI_Runtime/Npu/ll_aton/ll_aton_NN_interface.h ****     DataType_FXP = 100 // AtoNN specific
 226:Lib/AI_Runtime/Npu/ll_aton/ll_aton_NN_interface.h ****   } Buffer_DataType_TypeDef;
 227:Lib/AI_Runtime/Npu/ll_aton/ll_aton_NN_interface.h **** 
 228:Lib/AI_Runtime/Npu/ll_aton/ll_aton_NN_interface.h ****   /**
 229:Lib/AI_Runtime/Npu/ll_aton/ll_aton_NN_interface.h ****    * @brief ATON buffer Channel position
 230:Lib/AI_Runtime/Npu/ll_aton/ll_aton_NN_interface.h ****    */
 231:Lib/AI_Runtime/Npu/ll_aton/ll_aton_NN_interface.h **** 
 232:Lib/AI_Runtime/Npu/ll_aton/ll_aton_NN_interface.h ****   typedef enum
 233:Lib/AI_Runtime/Npu/ll_aton/ll_aton_NN_interface.h ****   {
 234:Lib/AI_Runtime/Npu/ll_aton/ll_aton_NN_interface.h ****     CHPos_UNDEFINED = 0, /**< No channel present */
 235:Lib/AI_Runtime/Npu/ll_aton/ll_aton_NN_interface.h ****     CHPos_First = 1,     /**< Channel First         ( ...B C H W )*/
 236:Lib/AI_Runtime/Npu/ll_aton/ll_aton_NN_interface.h ****     CHPos_Last = 2,      /**< Channel Last          ( ...B H W C ) */
 237:Lib/AI_Runtime/Npu/ll_aton/ll_aton_NN_interface.h ****     CHPos_Mixed = 3,     /**< Channel with Batch(b) ( ...B C/b H W b ) */
 238:Lib/AI_Runtime/Npu/ll_aton/ll_aton_NN_interface.h ****   } Buffer_CHPos_TypeDef;
 239:Lib/AI_Runtime/Npu/ll_aton/ll_aton_NN_interface.h **** 
 240:Lib/AI_Runtime/Npu/ll_aton/ll_aton_NN_interface.h ****   /**
 241:Lib/AI_Runtime/Npu/ll_aton/ll_aton_NN_interface.h ****    * @brief ATON buffer definition
 242:Lib/AI_Runtime/Npu/ll_aton/ll_aton_NN_interface.h ****    */
 243:Lib/AI_Runtime/Npu/ll_aton/ll_aton_NN_interface.h ****   typedef struct
 244:Lib/AI_Runtime/Npu/ll_aton/ll_aton_NN_interface.h ****   {
 245:Lib/AI_Runtime/Npu/ll_aton/ll_aton_NN_interface.h ****     const char *name;             /**< Buffer name. NULL if end of list */
 246:Lib/AI_Runtime/Npu/ll_aton/ll_aton_NN_interface.h ****     __LL_address_t addr_base;     /**< Buffer base address */
 247:Lib/AI_Runtime/Npu/ll_aton/ll_aton_NN_interface.h ****     uint32_t offset_start;        /**< Offset of the buffer start address from the base address */
 248:Lib/AI_Runtime/Npu/ll_aton/ll_aton_NN_interface.h ****     uint32_t offset_end;          /**< Offset of the buffer end address from the base address
 249:Lib/AI_Runtime/Npu/ll_aton/ll_aton_NN_interface.h ****                                    *   (first bytes address beyond buffer length) */
 250:Lib/AI_Runtime/Npu/ll_aton/ll_aton_NN_interface.h ****     uint32_t offset_limit;        /**< Offset of the limiter address from the base address,
 251:Lib/AI_Runtime/Npu/ll_aton/ll_aton_NN_interface.h ****                                    *   (needed for configuring streaming engines) */
 252:Lib/AI_Runtime/Npu/ll_aton/ll_aton_NN_interface.h ****     uint8_t is_user_allocated;    /**< */
ARM GAS  C:\Users\DJESSOU\AppData\Local\Temp\ccruImXQ.s 			page 6


 253:Lib/AI_Runtime/Npu/ll_aton/ll_aton_NN_interface.h ****     uint8_t is_param;             /**< */
 254:Lib/AI_Runtime/Npu/ll_aton/ll_aton_NN_interface.h ****     uint16_t epoch;               /**< */
 255:Lib/AI_Runtime/Npu/ll_aton/ll_aton_NN_interface.h ****     uint32_t batch;               /**< */
 256:Lib/AI_Runtime/Npu/ll_aton/ll_aton_NN_interface.h ****     const uint32_t *mem_shape;    /**< shape as seen by the user in memory (only valid for input/ou
 257:Lib/AI_Runtime/Npu/ll_aton/ll_aton_NN_interface.h ****     uint16_t mem_ndims;           /**< Number of dimensions of mem_shape (Length of mem_shape) */
 258:Lib/AI_Runtime/Npu/ll_aton/ll_aton_NN_interface.h ****     Buffer_CHPos_TypeDef chpos;   /**< Position  of channels dimension in mem shape */
 259:Lib/AI_Runtime/Npu/ll_aton/ll_aton_NN_interface.h ****     Buffer_DataType_TypeDef type; /**< */
 260:Lib/AI_Runtime/Npu/ll_aton/ll_aton_NN_interface.h ****     int8_t Qm;                    /**< */
 261:Lib/AI_Runtime/Npu/ll_aton/ll_aton_NN_interface.h ****     int8_t Qn;                    /**< */
 262:Lib/AI_Runtime/Npu/ll_aton/ll_aton_NN_interface.h ****     uint8_t Qunsigned;            /**< */
 263:Lib/AI_Runtime/Npu/ll_aton/ll_aton_NN_interface.h ****     uint8_t ndims;                /**< */
 264:Lib/AI_Runtime/Npu/ll_aton/ll_aton_NN_interface.h ****     uint8_t nbits;                /**< */
 265:Lib/AI_Runtime/Npu/ll_aton/ll_aton_NN_interface.h ****     uint8_t per_channel;          /**< */
 266:Lib/AI_Runtime/Npu/ll_aton/ll_aton_NN_interface.h ****     const uint32_t *shape;        /**< */
 267:Lib/AI_Runtime/Npu/ll_aton/ll_aton_NN_interface.h ****     const float *scale;           /**< */
 268:Lib/AI_Runtime/Npu/ll_aton/ll_aton_NN_interface.h ****     const int16_t *offset;        /**< This can become int8 or uint8 based on the Qunsigned field.
 269:Lib/AI_Runtime/Npu/ll_aton/ll_aton_NN_interface.h ****                                    *   (This field Must have the same format of the quantized value
 270:Lib/AI_Runtime/Npu/ll_aton/ll_aton_NN_interface.h ****   } LL_Buffer_InfoTypeDef;
 271:Lib/AI_Runtime/Npu/ll_aton/ll_aton_NN_interface.h **** 
 272:Lib/AI_Runtime/Npu/ll_aton/ll_aton_NN_interface.h ****   /**
 273:Lib/AI_Runtime/Npu/ll_aton/ll_aton_NN_interface.h ****    * @}
 274:Lib/AI_Runtime/Npu/ll_aton/ll_aton_NN_interface.h ****    */
 275:Lib/AI_Runtime/Npu/ll_aton/ll_aton_NN_interface.h **** 
 276:Lib/AI_Runtime/Npu/ll_aton/ll_aton_NN_interface.h ****   /** @defgroup Helper Function Declarations for Buffer Analysis
 277:Lib/AI_Runtime/Npu/ll_aton/ll_aton_NN_interface.h ****    * @{
 278:Lib/AI_Runtime/Npu/ll_aton/ll_aton_NN_interface.h ****    */
 279:Lib/AI_Runtime/Npu/ll_aton/ll_aton_NN_interface.h **** 
 280:Lib/AI_Runtime/Npu/ll_aton/ll_aton_NN_interface.h ****   /**
 281:Lib/AI_Runtime/Npu/ll_aton/ll_aton_NN_interface.h ****    * @brief returns the base address of the mem pool the buffer is allocated in
 282:Lib/AI_Runtime/Npu/ll_aton/ll_aton_NN_interface.h ****    *
 283:Lib/AI_Runtime/Npu/ll_aton/ll_aton_NN_interface.h ****    */
 284:Lib/AI_Runtime/Npu/ll_aton/ll_aton_NN_interface.h ****   static inline unsigned char *LL_Buffer_addr_base(const LL_Buffer_InfoTypeDef *buf);
 285:Lib/AI_Runtime/Npu/ll_aton/ll_aton_NN_interface.h **** 
 286:Lib/AI_Runtime/Npu/ll_aton/ll_aton_NN_interface.h ****   /**
 287:Lib/AI_Runtime/Npu/ll_aton/ll_aton_NN_interface.h ****    * @brief returns the start address of the buffer
 288:Lib/AI_Runtime/Npu/ll_aton/ll_aton_NN_interface.h ****    *
 289:Lib/AI_Runtime/Npu/ll_aton/ll_aton_NN_interface.h ****    */
 290:Lib/AI_Runtime/Npu/ll_aton/ll_aton_NN_interface.h ****   static inline unsigned char *LL_Buffer_addr_start(const LL_Buffer_InfoTypeDef *buf);
 291:Lib/AI_Runtime/Npu/ll_aton/ll_aton_NN_interface.h **** 
 292:Lib/AI_Runtime/Npu/ll_aton/ll_aton_NN_interface.h ****   /**
 293:Lib/AI_Runtime/Npu/ll_aton/ll_aton_NN_interface.h ****    * @brief returns the end address of the buffer
 294:Lib/AI_Runtime/Npu/ll_aton/ll_aton_NN_interface.h ****    *
 295:Lib/AI_Runtime/Npu/ll_aton/ll_aton_NN_interface.h ****    */
 296:Lib/AI_Runtime/Npu/ll_aton/ll_aton_NN_interface.h ****   static inline unsigned char *LL_Buffer_addr_end(const LL_Buffer_InfoTypeDef *buf);
 297:Lib/AI_Runtime/Npu/ll_aton/ll_aton_NN_interface.h **** 
 298:Lib/AI_Runtime/Npu/ll_aton/ll_aton_NN_interface.h ****   /**
 299:Lib/AI_Runtime/Npu/ll_aton/ll_aton_NN_interface.h ****    * @brief returns the limit address of the buffer
 300:Lib/AI_Runtime/Npu/ll_aton/ll_aton_NN_interface.h ****    *
 301:Lib/AI_Runtime/Npu/ll_aton/ll_aton_NN_interface.h ****    */
 302:Lib/AI_Runtime/Npu/ll_aton/ll_aton_NN_interface.h ****   static inline unsigned char *LL_Buffer_addr_limit(const LL_Buffer_InfoTypeDef *buf);
 303:Lib/AI_Runtime/Npu/ll_aton/ll_aton_NN_interface.h **** 
 304:Lib/AI_Runtime/Npu/ll_aton/ll_aton_NN_interface.h ****   /**
 305:Lib/AI_Runtime/Npu/ll_aton/ll_aton_NN_interface.h ****    * @brief returns the length of the buffer
 306:Lib/AI_Runtime/Npu/ll_aton/ll_aton_NN_interface.h ****    *
 307:Lib/AI_Runtime/Npu/ll_aton/ll_aton_NN_interface.h ****    */
 308:Lib/AI_Runtime/Npu/ll_aton/ll_aton_NN_interface.h ****   static inline uint32_t LL_Buffer_len(const LL_Buffer_InfoTypeDef *buf);
 309:Lib/AI_Runtime/Npu/ll_aton/ll_aton_NN_interface.h **** 
ARM GAS  C:\Users\DJESSOU\AppData\Local\Temp\ccruImXQ.s 			page 7


 310:Lib/AI_Runtime/Npu/ll_aton/ll_aton_NN_interface.h ****   /**
 311:Lib/AI_Runtime/Npu/ll_aton/ll_aton_NN_interface.h ****    * @brief returns the buffer elements number of bits
 312:Lib/AI_Runtime/Npu/ll_aton/ll_aton_NN_interface.h ****    *
 313:Lib/AI_Runtime/Npu/ll_aton/ll_aton_NN_interface.h ****    */
 314:Lib/AI_Runtime/Npu/ll_aton/ll_aton_NN_interface.h ****   static inline uint32_t LL_Buffer_bits(const LL_Buffer_InfoTypeDef *buf);
 315:Lib/AI_Runtime/Npu/ll_aton/ll_aton_NN_interface.h **** 
 316:Lib/AI_Runtime/Npu/ll_aton/ll_aton_NN_interface.h ****   /**
 317:Lib/AI_Runtime/Npu/ll_aton/ll_aton_NN_interface.h ****    * @}
 318:Lib/AI_Runtime/Npu/ll_aton/ll_aton_NN_interface.h ****    */
 319:Lib/AI_Runtime/Npu/ll_aton/ll_aton_NN_interface.h **** 
 320:Lib/AI_Runtime/Npu/ll_aton/ll_aton_NN_interface.h ****   /** @defgroup Handle-style Data Types and Declaration Macros for ATON Runtime Execution & User AP
 321:Lib/AI_Runtime/Npu/ll_aton/ll_aton_NN_interface.h ****    * @{
 322:Lib/AI_Runtime/Npu/ll_aton/ll_aton_NN_interface.h ****    */
 323:Lib/AI_Runtime/Npu/ll_aton/ll_aton_NN_interface.h **** 
 324:Lib/AI_Runtime/Npu/ll_aton/ll_aton_NN_interface.h ****   struct __nn_instance_struct; // forward declaration
 325:Lib/AI_Runtime/Npu/ll_aton/ll_aton_NN_interface.h ****   typedef struct __nn_instance_struct NN_Instance_TypeDef;
 326:Lib/AI_Runtime/Npu/ll_aton/ll_aton_NN_interface.h **** 
 327:Lib/AI_Runtime/Npu/ll_aton/ll_aton_NN_interface.h **** /**
 328:Lib/AI_Runtime/Npu/ll_aton/ll_aton_NN_interface.h ****  * @brief Declare the function prototypes for named NN interface functions generated by the AtoNN c
 329:Lib/AI_Runtime/Npu/ll_aton/ll_aton_NN_interface.h ****  * @param network_name name of the network as provided by option `--network-name`
 330:Lib/AI_Runtime/Npu/ll_aton/ll_aton_NN_interface.h ****  */
 331:Lib/AI_Runtime/Npu/ll_aton/ll_aton_NN_interface.h **** #define LL_ATON_DECLARE_NAMED_NN_PROTOS(network_name)                                              
 332:Lib/AI_Runtime/Npu/ll_aton/ll_aton_NN_interface.h ****   extern bool LL_ATON_EC_Network_Init_##network_name(void);                                        
 333:Lib/AI_Runtime/Npu/ll_aton/ll_aton_NN_interface.h ****   extern bool LL_ATON_EC_Inference_Init_##network_name(void);                                      
 334:Lib/AI_Runtime/Npu/ll_aton/ll_aton_NN_interface.h ****   extern LL_ATON_User_IO_Result_t LL_ATON_Set_User_Input_Buffer_##network_name(uint32_t num, void *
 335:Lib/AI_Runtime/Npu/ll_aton/ll_aton_NN_interface.h ****                                                                                uint32_t size);     
 336:Lib/AI_Runtime/Npu/ll_aton/ll_aton_NN_interface.h ****   extern void *LL_ATON_Get_User_Input_Buffer_##network_name(uint32_t num);                         
 337:Lib/AI_Runtime/Npu/ll_aton/ll_aton_NN_interface.h ****   extern LL_ATON_User_IO_Result_t LL_ATON_Set_User_Output_Buffer_##network_name(uint32_t num, void 
 338:Lib/AI_Runtime/Npu/ll_aton/ll_aton_NN_interface.h ****                                                                                 uint32_t size);    
 339:Lib/AI_Runtime/Npu/ll_aton/ll_aton_NN_interface.h ****   extern void *LL_ATON_Get_User_Output_Buffer_##network_name(uint32_t num);                        
 340:Lib/AI_Runtime/Npu/ll_aton/ll_aton_NN_interface.h ****   extern const EpochBlock_ItemTypeDef *LL_ATON_EpochBlockItems_##network_name(void);               
 341:Lib/AI_Runtime/Npu/ll_aton/ll_aton_NN_interface.h ****   extern const LL_Buffer_InfoTypeDef *LL_ATON_Output_Buffers_Info_##network_name(void);            
 342:Lib/AI_Runtime/Npu/ll_aton/ll_aton_NN_interface.h ****   extern const LL_Buffer_InfoTypeDef *LL_ATON_Input_Buffers_Info_##network_name(void);             
 343:Lib/AI_Runtime/Npu/ll_aton/ll_aton_NN_interface.h ****   extern const LL_Streng_EncryptionTypedef *LL_ATON_WeightEncryption_Info_##network_name(void);    
 344:Lib/AI_Runtime/Npu/ll_aton/ll_aton_NN_interface.h ****   extern const LL_Streng_EncryptionTypedef *LL_ATON_BlobEncryption_Info_##network_name(void);      
 345:Lib/AI_Runtime/Npu/ll_aton/ll_aton_NN_interface.h ****   extern const LL_Buffer_InfoTypeDef *LL_ATON_Internal_Buffers_Info_##network_name(void);
 346:Lib/AI_Runtime/Npu/ll_aton/ll_aton_NN_interface.h **** 
 347:Lib/AI_Runtime/Npu/ll_aton/ll_aton_NN_interface.h ****   /**
 348:Lib/AI_Runtime/Npu/ll_aton/ll_aton_NN_interface.h ****    * @brief  Type definitions for NN interface functions
 349:Lib/AI_Runtime/Npu/ll_aton/ll_aton_NN_interface.h ****    */
 350:Lib/AI_Runtime/Npu/ll_aton/ll_aton_NN_interface.h ****   typedef bool (*NN_EC_Hook_TypeDef)(void);
 351:Lib/AI_Runtime/Npu/ll_aton/ll_aton_NN_interface.h ****   typedef LL_ATON_User_IO_Result_t (*NN_InputSetter_TypeDef)(uint32_t num, void *buffer, uint32_t s
 352:Lib/AI_Runtime/Npu/ll_aton/ll_aton_NN_interface.h ****   typedef void *(*NN_InputGetter_TypeDef)(uint32_t num);
 353:Lib/AI_Runtime/Npu/ll_aton/ll_aton_NN_interface.h ****   typedef LL_ATON_User_IO_Result_t (*NN_OutputSetter_TypeDef)(uint32_t num, void *buffer, uint32_t 
 354:Lib/AI_Runtime/Npu/ll_aton/ll_aton_NN_interface.h ****   typedef void *(*NN_OutputGetter_TypeDef)(uint32_t num);
 355:Lib/AI_Runtime/Npu/ll_aton/ll_aton_NN_interface.h ****   typedef const EpochBlock_ItemTypeDef *(*NN_EpochBlockItems_TypeDef)(void);
 356:Lib/AI_Runtime/Npu/ll_aton/ll_aton_NN_interface.h ****   typedef const LL_Streng_EncryptionTypedef *(*NN_Encryption_Info_TypeDef)(void);
 357:Lib/AI_Runtime/Npu/ll_aton/ll_aton_NN_interface.h ****   typedef const LL_Buffer_InfoTypeDef *(*NN_Buffers_Info_TypeDef)(void);
 358:Lib/AI_Runtime/Npu/ll_aton/ll_aton_NN_interface.h **** 
 359:Lib/AI_Runtime/Npu/ll_aton/ll_aton_NN_interface.h ****   typedef void (*TraceRuntime_FuncPtr_t)(LL_ATON_RT_Callbacktype_t ctype);
 360:Lib/AI_Runtime/Npu/ll_aton/ll_aton_NN_interface.h **** 
 361:Lib/AI_Runtime/Npu/ll_aton/ll_aton_NN_interface.h ****   typedef void (*TraceEpochBlock_FuncPtr_t)(LL_ATON_RT_Callbacktype_t ctype, const NN_Instance_Type
 362:Lib/AI_Runtime/Npu/ll_aton/ll_aton_NN_interface.h ****                                             const EpochBlock_ItemTypeDef *epoch_block);
 363:Lib/AI_Runtime/Npu/ll_aton/ll_aton_NN_interface.h **** 
 364:Lib/AI_Runtime/Npu/ll_aton/ll_aton_NN_interface.h ****   typedef struct
 365:Lib/AI_Runtime/Npu/ll_aton/ll_aton_NN_interface.h ****   {
 366:Lib/AI_Runtime/Npu/ll_aton/ll_aton_NN_interface.h ****     const char *network_name;
ARM GAS  C:\Users\DJESSOU\AppData\Local\Temp\ccruImXQ.s 			page 8


 367:Lib/AI_Runtime/Npu/ll_aton/ll_aton_NN_interface.h ****     NN_EC_Hook_TypeDef ec_network_init;
 368:Lib/AI_Runtime/Npu/ll_aton/ll_aton_NN_interface.h ****     NN_EC_Hook_TypeDef ec_inference_init;
 369:Lib/AI_Runtime/Npu/ll_aton/ll_aton_NN_interface.h ****     NN_InputSetter_TypeDef input_setter;
 370:Lib/AI_Runtime/Npu/ll_aton/ll_aton_NN_interface.h ****     NN_InputGetter_TypeDef input_getter;
 371:Lib/AI_Runtime/Npu/ll_aton/ll_aton_NN_interface.h ****     NN_OutputSetter_TypeDef output_setter;
 372:Lib/AI_Runtime/Npu/ll_aton/ll_aton_NN_interface.h ****     NN_OutputGetter_TypeDef output_getter;
 373:Lib/AI_Runtime/Npu/ll_aton/ll_aton_NN_interface.h ****     NN_EpochBlockItems_TypeDef epoch_block_items;
 374:Lib/AI_Runtime/Npu/ll_aton/ll_aton_NN_interface.h ****     NN_Buffers_Info_TypeDef output_buffers_info;
 375:Lib/AI_Runtime/Npu/ll_aton/ll_aton_NN_interface.h ****     NN_Buffers_Info_TypeDef input_buffers_info;
 376:Lib/AI_Runtime/Npu/ll_aton/ll_aton_NN_interface.h ****     NN_Encryption_Info_TypeDef blob_encryption_info;
 377:Lib/AI_Runtime/Npu/ll_aton/ll_aton_NN_interface.h ****     NN_Encryption_Info_TypeDef weight_encryption_info;
 378:Lib/AI_Runtime/Npu/ll_aton/ll_aton_NN_interface.h ****     NN_Buffers_Info_TypeDef internal_buffers_info;
 379:Lib/AI_Runtime/Npu/ll_aton/ll_aton_NN_interface.h ****   } NN_Interface_TypeDef;
 380:Lib/AI_Runtime/Npu/ll_aton/ll_aton_NN_interface.h **** 
 381:Lib/AI_Runtime/Npu/ll_aton/ll_aton_NN_interface.h ****   typedef struct
 382:Lib/AI_Runtime/Npu/ll_aton/ll_aton_NN_interface.h ****   {
 383:Lib/AI_Runtime/Npu/ll_aton/ll_aton_NN_interface.h ****     const EpochBlock_ItemTypeDef *volatile current_epoch_block; // pointer to current epoch block
 384:Lib/AI_Runtime/Npu/ll_aton/ll_aton_NN_interface.h ****     const EpochBlock_ItemTypeDef *volatile first_epoch_block;   // pointer to first epoch block in 
 385:Lib/AI_Runtime/Npu/ll_aton/ll_aton_NN_interface.h ****     const EpochBlock_ItemTypeDef *volatile next_epoch_block;    // pointer to epoch block to be ins
 386:Lib/AI_Runtime/Npu/ll_aton/ll_aton_NN_interface.h **** 
 387:Lib/AI_Runtime/Npu/ll_aton/ll_aton_NN_interface.h ****     const EpochBlock_ItemTypeDef *volatile saved_current_epoch_block; // pointer to saved current e
 388:Lib/AI_Runtime/Npu/ll_aton/ll_aton_NN_interface.h ****     const EpochBlock_ItemTypeDef
 389:Lib/AI_Runtime/Npu/ll_aton/ll_aton_NN_interface.h ****         *volatile saved_first_epoch_block; // pointer to saved first epoch block in current epoch l
 390:Lib/AI_Runtime/Npu/ll_aton/ll_aton_NN_interface.h **** 
 391:Lib/AI_Runtime/Npu/ll_aton/ll_aton_NN_interface.h ****     bool inference_started; // inference has been started
 392:Lib/AI_Runtime/Npu/ll_aton/ll_aton_NN_interface.h **** 
 393:Lib/AI_Runtime/Npu/ll_aton/ll_aton_NN_interface.h **** #if (LL_ATON_RT_MODE == LL_ATON_RT_ASYNC)
 394:Lib/AI_Runtime/Npu/ll_aton/ll_aton_NN_interface.h ****     volatile uint32_t triggered_events;        // currently triggered events/IRQs in current epoch
 395:Lib/AI_Runtime/Npu/ll_aton/ll_aton_NN_interface.h ****     volatile bool current_epoch_block_started; // has current epoch block already been started
 396:Lib/AI_Runtime/Npu/ll_aton/ll_aton_NN_interface.h **** #endif                                         // (LL_ATON_RT_MODE == LL_ATON_RT_ASYNC)
 397:Lib/AI_Runtime/Npu/ll_aton/ll_aton_NN_interface.h **** 
 398:Lib/AI_Runtime/Npu/ll_aton/ll_aton_NN_interface.h **** #ifndef NDEBUG
 399:Lib/AI_Runtime/Npu/ll_aton/ll_aton_NN_interface.h ****     volatile uint32_t
 400:Lib/AI_Runtime/Npu/ll_aton/ll_aton_NN_interface.h ****         nr_of_epoch_blocks; // number of epoch blocks in network (includes also terminating empty e
 401:Lib/AI_Runtime/Npu/ll_aton/ll_aton_NN_interface.h ****     volatile uint32_t saved_nr_of_epoch_blocks; // number of epoch blocks in saved network (include
 402:Lib/AI_Runtime/Npu/ll_aton/ll_aton_NN_interface.h ****                                                 // empty epoch block)
 403:Lib/AI_Runtime/Npu/ll_aton/ll_aton_NN_interface.h **** #endif                                          // !NDEBUG
 404:Lib/AI_Runtime/Npu/ll_aton/ll_aton_NN_interface.h **** 
 405:Lib/AI_Runtime/Npu/ll_aton/ll_aton_NN_interface.h ****     TraceEpochBlock_FuncPtr_t epoch_callback_function; // epoch callback function
 406:Lib/AI_Runtime/Npu/ll_aton/ll_aton_NN_interface.h **** 
 407:Lib/AI_Runtime/Npu/ll_aton/ll_aton_NN_interface.h **** #if defined(LL_ATON_RT_RELOC)
 408:Lib/AI_Runtime/Npu/ll_aton/ll_aton_NN_interface.h ****     uint32_t inst_reloc;
 409:Lib/AI_Runtime/Npu/ll_aton/ll_aton_NN_interface.h **** #endif
 410:Lib/AI_Runtime/Npu/ll_aton/ll_aton_NN_interface.h **** 
 411:Lib/AI_Runtime/Npu/ll_aton/ll_aton_NN_interface.h ****   } NN_Execution_State_TypeDef;
 412:Lib/AI_Runtime/Npu/ll_aton/ll_aton_NN_interface.h **** 
 413:Lib/AI_Runtime/Npu/ll_aton/ll_aton_NN_interface.h ****   struct __nn_instance_struct
 414:Lib/AI_Runtime/Npu/ll_aton/ll_aton_NN_interface.h ****   {
 415:Lib/AI_Runtime/Npu/ll_aton/ll_aton_NN_interface.h ****     const NN_Interface_TypeDef *network;
 416:Lib/AI_Runtime/Npu/ll_aton/ll_aton_NN_interface.h ****     NN_Execution_State_TypeDef exec_state;
 417:Lib/AI_Runtime/Npu/ll_aton/ll_aton_NN_interface.h ****   };
 418:Lib/AI_Runtime/Npu/ll_aton/ll_aton_NN_interface.h **** 
 419:Lib/AI_Runtime/Npu/ll_aton/ll_aton_NN_interface.h ****   /**
 420:Lib/AI_Runtime/Npu/ll_aton/ll_aton_NN_interface.h ****    * @}
 421:Lib/AI_Runtime/Npu/ll_aton/ll_aton_NN_interface.h ****    */
 422:Lib/AI_Runtime/Npu/ll_aton/ll_aton_NN_interface.h **** 
 423:Lib/AI_Runtime/Npu/ll_aton/ll_aton_NN_interface.h ****   /** @defgroup Helper Function Inline Implementations
ARM GAS  C:\Users\DJESSOU\AppData\Local\Temp\ccruImXQ.s 			page 9


 424:Lib/AI_Runtime/Npu/ll_aton/ll_aton_NN_interface.h ****    * @{
 425:Lib/AI_Runtime/Npu/ll_aton/ll_aton_NN_interface.h ****    */
 426:Lib/AI_Runtime/Npu/ll_aton/ll_aton_NN_interface.h **** 
 427:Lib/AI_Runtime/Npu/ll_aton/ll_aton_NN_interface.h ****   static inline bool EpochBlock_IsLastEpochBlock(const EpochBlock_ItemTypeDef *eb)
 428:Lib/AI_Runtime/Npu/ll_aton/ll_aton_NN_interface.h ****   {
 429:Lib/AI_Runtime/Npu/ll_aton/ll_aton_NN_interface.h ****     return ((eb->flags & EpochBlock_Flags_last_eb) != 0);
 430:Lib/AI_Runtime/Npu/ll_aton/ll_aton_NN_interface.h ****   }
 431:Lib/AI_Runtime/Npu/ll_aton/ll_aton_NN_interface.h **** 
 432:Lib/AI_Runtime/Npu/ll_aton/ll_aton_NN_interface.h ****   static inline bool EpochBlock_IsEpochStart(const EpochBlock_ItemTypeDef *eb)
 433:Lib/AI_Runtime/Npu/ll_aton/ll_aton_NN_interface.h ****   {
 434:Lib/AI_Runtime/Npu/ll_aton/ll_aton_NN_interface.h ****     return ((eb->flags & EpochBlock_Flags_epoch_start) != 0);
 435:Lib/AI_Runtime/Npu/ll_aton/ll_aton_NN_interface.h ****   }
 436:Lib/AI_Runtime/Npu/ll_aton/ll_aton_NN_interface.h **** 
 437:Lib/AI_Runtime/Npu/ll_aton/ll_aton_NN_interface.h ****   static inline bool EpochBlock_IsEpochEnd(const EpochBlock_ItemTypeDef *eb)
 438:Lib/AI_Runtime/Npu/ll_aton/ll_aton_NN_interface.h ****   {
 439:Lib/AI_Runtime/Npu/ll_aton/ll_aton_NN_interface.h ****     return ((eb->flags & EpochBlock_Flags_epoch_end) != 0);
 440:Lib/AI_Runtime/Npu/ll_aton/ll_aton_NN_interface.h ****   }
 441:Lib/AI_Runtime/Npu/ll_aton/ll_aton_NN_interface.h **** 
 442:Lib/AI_Runtime/Npu/ll_aton/ll_aton_NN_interface.h ****   static inline bool EpochBlock_IsEpochBlob(const EpochBlock_ItemTypeDef *eb)
 443:Lib/AI_Runtime/Npu/ll_aton/ll_aton_NN_interface.h ****   {
 444:Lib/AI_Runtime/Npu/ll_aton/ll_aton_NN_interface.h ****     return ((eb->flags & EpochBlock_Flags_blob) != 0);
 445:Lib/AI_Runtime/Npu/ll_aton/ll_aton_NN_interface.h ****   }
 446:Lib/AI_Runtime/Npu/ll_aton/ll_aton_NN_interface.h **** 
 447:Lib/AI_Runtime/Npu/ll_aton/ll_aton_NN_interface.h ****   static inline bool EpochBlock_IsBlobEncrypted(const EpochBlock_ItemTypeDef *eb)
 448:Lib/AI_Runtime/Npu/ll_aton/ll_aton_NN_interface.h ****   {
 449:Lib/AI_Runtime/Npu/ll_aton/ll_aton_NN_interface.h ****     return ((eb->flags & EpochBlock_Flags_blob_encrypted) != 0);
 450:Lib/AI_Runtime/Npu/ll_aton/ll_aton_NN_interface.h ****   }
 451:Lib/AI_Runtime/Npu/ll_aton/ll_aton_NN_interface.h **** 
 452:Lib/AI_Runtime/Npu/ll_aton/ll_aton_NN_interface.h ****   static inline bool EpochBlock_IsEpochPureSW(const EpochBlock_ItemTypeDef *eb)
 453:Lib/AI_Runtime/Npu/ll_aton/ll_aton_NN_interface.h ****   {
 454:Lib/AI_Runtime/Npu/ll_aton/ll_aton_NN_interface.h ****     return ((eb->flags & EpochBlock_Flags_pure_sw) != 0);
 455:Lib/AI_Runtime/Npu/ll_aton/ll_aton_NN_interface.h ****   }
 456:Lib/AI_Runtime/Npu/ll_aton/ll_aton_NN_interface.h **** 
 457:Lib/AI_Runtime/Npu/ll_aton/ll_aton_NN_interface.h ****   static inline bool EpochBlock_IsEpochPureHW(const EpochBlock_ItemTypeDef *eb)
 458:Lib/AI_Runtime/Npu/ll_aton/ll_aton_NN_interface.h ****   {
 459:Lib/AI_Runtime/Npu/ll_aton/ll_aton_NN_interface.h ****     return ((eb->flags & EpochBlock_Flags_pure_hw) != 0);
 460:Lib/AI_Runtime/Npu/ll_aton/ll_aton_NN_interface.h ****   }
 461:Lib/AI_Runtime/Npu/ll_aton/ll_aton_NN_interface.h **** 
 462:Lib/AI_Runtime/Npu/ll_aton/ll_aton_NN_interface.h ****   static inline bool EpochBlock_IsEpochHybrid(const EpochBlock_ItemTypeDef *eb)
 463:Lib/AI_Runtime/Npu/ll_aton/ll_aton_NN_interface.h ****   {
 464:Lib/AI_Runtime/Npu/ll_aton/ll_aton_NN_interface.h ****     return ((eb->flags & EpochBlock_Flags_hybrid) != 0);
 465:Lib/AI_Runtime/Npu/ll_aton/ll_aton_NN_interface.h ****   }
 466:Lib/AI_Runtime/Npu/ll_aton/ll_aton_NN_interface.h **** 
 467:Lib/AI_Runtime/Npu/ll_aton/ll_aton_NN_interface.h ****   static inline bool EpochBlock_IsEpochInternal(const EpochBlock_ItemTypeDef *eb)
 468:Lib/AI_Runtime/Npu/ll_aton/ll_aton_NN_interface.h ****   {
 469:Lib/AI_Runtime/Npu/ll_aton/ll_aton_NN_interface.h ****     return ((eb->flags & EpochBlock_Flags_internal) != 0);
 470:Lib/AI_Runtime/Npu/ll_aton/ll_aton_NN_interface.h ****   }
 471:Lib/AI_Runtime/Npu/ll_aton/ll_aton_NN_interface.h **** 
 472:Lib/AI_Runtime/Npu/ll_aton/ll_aton_NN_interface.h ****   static inline uint32_t EpochBlock_EpochControllerUnit(const EpochBlock_ItemTypeDef *eb)
 473:Lib/AI_Runtime/Npu/ll_aton/ll_aton_NN_interface.h ****   {
 474:Lib/AI_Runtime/Npu/ll_aton/ll_aton_NN_interface.h ****     LL_ATON_ASSERT(EpochBlock_IsEpochBlob(eb));
 475:Lib/AI_Runtime/Npu/ll_aton/ll_aton_NN_interface.h ****     return eb->wait_mask;
 476:Lib/AI_Runtime/Npu/ll_aton/ll_aton_NN_interface.h ****   }
 477:Lib/AI_Runtime/Npu/ll_aton/ll_aton_NN_interface.h **** 
 478:Lib/AI_Runtime/Npu/ll_aton/ll_aton_NN_interface.h ****   static inline uintptr_t EpochBlock_EpochBlobAddr(const EpochBlock_ItemTypeDef *eb)
 479:Lib/AI_Runtime/Npu/ll_aton/ll_aton_NN_interface.h ****   {
 480:Lib/AI_Runtime/Npu/ll_aton/ll_aton_NN_interface.h ****     LL_ATON_ASSERT(EpochBlock_IsEpochBlob(eb));
ARM GAS  C:\Users\DJESSOU\AppData\Local\Temp\ccruImXQ.s 			page 10


 481:Lib/AI_Runtime/Npu/ll_aton/ll_aton_NN_interface.h ****     return eb->blob_address;
 482:Lib/AI_Runtime/Npu/ll_aton/ll_aton_NN_interface.h ****   }
 483:Lib/AI_Runtime/Npu/ll_aton/ll_aton_NN_interface.h **** 
 484:Lib/AI_Runtime/Npu/ll_aton/ll_aton_NN_interface.h ****   static inline unsigned char *LL_Buffer_addr_base(const LL_Buffer_InfoTypeDef *buf)
 485:Lib/AI_Runtime/Npu/ll_aton/ll_aton_NN_interface.h ****   {
 486:Lib/AI_Runtime/Npu/ll_aton/ll_aton_NN_interface.h ****     if (buf->is_user_allocated)
 487:Lib/AI_Runtime/Npu/ll_aton/ll_aton_NN_interface.h ****     {
 488:Lib/AI_Runtime/Npu/ll_aton/ll_aton_NN_interface.h ****       unsigned char **tmp = (unsigned char **)buf->addr_base.p;
 489:Lib/AI_Runtime/Npu/ll_aton/ll_aton_NN_interface.h ****       return *tmp;
 490:Lib/AI_Runtime/Npu/ll_aton/ll_aton_NN_interface.h ****     }
 491:Lib/AI_Runtime/Npu/ll_aton/ll_aton_NN_interface.h ****     return buf->addr_base.p;
 492:Lib/AI_Runtime/Npu/ll_aton/ll_aton_NN_interface.h ****   }
 493:Lib/AI_Runtime/Npu/ll_aton/ll_aton_NN_interface.h **** 
 494:Lib/AI_Runtime/Npu/ll_aton/ll_aton_NN_interface.h ****   static inline unsigned char *LL_Buffer_addr_start(const LL_Buffer_InfoTypeDef *buf)
 495:Lib/AI_Runtime/Npu/ll_aton/ll_aton_NN_interface.h ****   {
  35              		.loc 2 495 3 view -0
  36              		.cfi_startproc
  37              		@ args = 0, pretend = 0, frame = 0
  38              		@ frame_needed = 0, uses_anonymous_args = 0
  39              		@ link register save eliminated.
 496:Lib/AI_Runtime/Npu/ll_aton/ll_aton_NN_interface.h ****     return LL_Buffer_addr_base(buf) + buf->offset_start;
  40              		.loc 2 496 5 view .LVU1
  41              	.LBB9:
  42              	.LBI9:
 484:Lib/AI_Runtime/Npu/ll_aton/ll_aton_NN_interface.h ****   {
  43              		.loc 2 484 32 view .LVU2
  44              	.LBB10:
 486:Lib/AI_Runtime/Npu/ll_aton/ll_aton_NN_interface.h ****     {
  45              		.loc 2 486 5 view .LVU3
 486:Lib/AI_Runtime/Npu/ll_aton/ll_aton_NN_interface.h ****     {
  46              		.loc 2 486 8 is_stmt 0 view .LVU4
  47 0000 027D     		ldrb	r2, [r0, #20]	@ zero_extendqisi2
  48              	.LBB11:
 488:Lib/AI_Runtime/Npu/ll_aton/ll_aton_NN_interface.h ****       return *tmp;
  49              		.loc 2 488 23 view .LVU5
  50 0002 4368     		ldr	r3, [r0, #4]
  51              	.LBE11:
 486:Lib/AI_Runtime/Npu/ll_aton/ll_aton_NN_interface.h ****     {
  52              		.loc 2 486 8 view .LVU6
  53 0004 02B1     		cbz	r2, .L2
  54              	.LBB12:
 488:Lib/AI_Runtime/Npu/ll_aton/ll_aton_NN_interface.h ****       return *tmp;
  55              		.loc 2 488 7 is_stmt 1 view .LVU7
  56              	.LVL1:
 489:Lib/AI_Runtime/Npu/ll_aton/ll_aton_NN_interface.h ****     }
  57              		.loc 2 489 7 view .LVU8
 489:Lib/AI_Runtime/Npu/ll_aton/ll_aton_NN_interface.h ****     }
  58              		.loc 2 489 14 is_stmt 0 view .LVU9
  59 0006 1B68     		ldr	r3, [r3]
  60              	.LVL2:
  61              	.L2:
 489:Lib/AI_Runtime/Npu/ll_aton/ll_aton_NN_interface.h ****     }
  62              		.loc 2 489 14 view .LVU10
  63              	.LBE12:
  64              	.LBE10:
  65              	.LBE9:
  66              		.loc 2 496 37 discriminator 1 view .LVU11
ARM GAS  C:\Users\DJESSOU\AppData\Local\Temp\ccruImXQ.s 			page 11


  67 0008 8068     		ldr	r0, [r0, #8]
  68              	.LVL3:
 497:Lib/AI_Runtime/Npu/ll_aton/ll_aton_NN_interface.h ****   }
  69              		.loc 2 497 3 view .LVU12
  70 000a 1844     		add	r0, r0, r3
  71 000c 7047     		bx	lr
  72              		.cfi_endproc
  73              	.LFE15:
  75              		.section	.text.__ll_aton_stai_check_context_network_handle.constprop.0,"ax",%progbits
  76              		.align	1
  77              		.syntax unified
  78              		.thumb
  79              		.thumb_func
  81              	__ll_aton_stai_check_context_network_handle.constprop.0:
  82              	.LVL4:
  83              	.LFB329:
  84              		.file 3 "Lib/AI_Runtime/Npu/ll_aton/ll_aton_stai_internal.h"
   1:Lib/AI_Runtime/Npu/ll_aton/ll_aton_stai_internal.h **** /**
   2:Lib/AI_Runtime/Npu/ll_aton/ll_aton_stai_internal.h ****  ******************************************************************************
   3:Lib/AI_Runtime/Npu/ll_aton/ll_aton_stai_internal.h ****  * @file    ll_aton_stai_internal.h
   4:Lib/AI_Runtime/Npu/ll_aton/ll_aton_stai_internal.h ****  * @author  SRA Artificial Intelligence & Embedded Architectures
   5:Lib/AI_Runtime/Npu/ll_aton/ll_aton_stai_internal.h ****  * @brief   Implementation of ST.AI public & internal APIs for ATON
   6:Lib/AI_Runtime/Npu/ll_aton/ll_aton_stai_internal.h ****  ******************************************************************************
   7:Lib/AI_Runtime/Npu/ll_aton/ll_aton_stai_internal.h ****  * @attention
   8:Lib/AI_Runtime/Npu/ll_aton/ll_aton_stai_internal.h ****  *
   9:Lib/AI_Runtime/Npu/ll_aton/ll_aton_stai_internal.h ****  * Copyright (c) 2024 STMicroelectronics.
  10:Lib/AI_Runtime/Npu/ll_aton/ll_aton_stai_internal.h ****  * All rights reserved.
  11:Lib/AI_Runtime/Npu/ll_aton/ll_aton_stai_internal.h ****  *
  12:Lib/AI_Runtime/Npu/ll_aton/ll_aton_stai_internal.h ****  * This software is licensed under terms that can be found in the LICENSE file
  13:Lib/AI_Runtime/Npu/ll_aton/ll_aton_stai_internal.h ****  * in the root directory of this software component.
  14:Lib/AI_Runtime/Npu/ll_aton/ll_aton_stai_internal.h ****  * If no LICENSE file comes with this software, it is provided AS-IS.
  15:Lib/AI_Runtime/Npu/ll_aton/ll_aton_stai_internal.h ****  *
  16:Lib/AI_Runtime/Npu/ll_aton/ll_aton_stai_internal.h ****  ******************************************************************************
  17:Lib/AI_Runtime/Npu/ll_aton/ll_aton_stai_internal.h ****  */
  18:Lib/AI_Runtime/Npu/ll_aton/ll_aton_stai_internal.h **** 
  19:Lib/AI_Runtime/Npu/ll_aton/ll_aton_stai_internal.h **** #ifndef __LL_ATON_STAI_INTERNAL_H
  20:Lib/AI_Runtime/Npu/ll_aton/ll_aton_stai_internal.h **** #define __LL_ATON_STAI_INTERNAL_H
  21:Lib/AI_Runtime/Npu/ll_aton/ll_aton_stai_internal.h **** 
  22:Lib/AI_Runtime/Npu/ll_aton/ll_aton_stai_internal.h **** // ATON headers
  23:Lib/AI_Runtime/Npu/ll_aton/ll_aton_stai_internal.h **** #include "ll_aton_rt_user_api.h"
  24:Lib/AI_Runtime/Npu/ll_aton/ll_aton_stai_internal.h **** #include "ll_aton_util.h"
  25:Lib/AI_Runtime/Npu/ll_aton/ll_aton_stai_internal.h **** 
  26:Lib/AI_Runtime/Npu/ll_aton/ll_aton_stai_internal.h **** // ST.AI headers
  27:Lib/AI_Runtime/Npu/ll_aton/ll_aton_stai_internal.h **** #include "stai_aton_common.h"
  28:Lib/AI_Runtime/Npu/ll_aton/ll_aton_stai_internal.h **** 
  29:Lib/AI_Runtime/Npu/ll_aton/ll_aton_stai_internal.h **** #ifdef __cplusplus
  30:Lib/AI_Runtime/Npu/ll_aton/ll_aton_stai_internal.h **** extern "C"
  31:Lib/AI_Runtime/Npu/ll_aton/ll_aton_stai_internal.h **** {
  32:Lib/AI_Runtime/Npu/ll_aton/ll_aton_stai_internal.h **** #endif
  33:Lib/AI_Runtime/Npu/ll_aton/ll_aton_stai_internal.h **** 
  34:Lib/AI_Runtime/Npu/ll_aton/ll_aton_stai_internal.h **** /*****************************************************************************/
  35:Lib/AI_Runtime/Npu/ll_aton/ll_aton_stai_internal.h **** #define STAI_INTERNAL_ENTRY /* STAI_INTERNAL_ENTRY */
  36:Lib/AI_Runtime/Npu/ll_aton/ll_aton_stai_internal.h **** #define STAI_SIZE(_size)    ((stai_size)(_size))
  37:Lib/AI_Runtime/Npu/ll_aton/ll_aton_stai_internal.h **** 
  38:Lib/AI_Runtime/Npu/ll_aton/ll_aton_stai_internal.h **** /*****************************************************************************/
  39:Lib/AI_Runtime/Npu/ll_aton/ll_aton_stai_internal.h **** #define STAI_INIT_BUFFER(_flags, _size, _address)                                                  
  40:Lib/AI_Runtime/Npu/ll_aton/ll_aton_stai_internal.h ****   {                                                                                                
ARM GAS  C:\Users\DJESSOU\AppData\Local\Temp\ccruImXQ.s 			page 12


  41:Lib/AI_Runtime/Npu/ll_aton/ll_aton_stai_internal.h ****     .size = (_size), .address = (uintptr_t)(_address), .flags = (_flags),                          
  42:Lib/AI_Runtime/Npu/ll_aton/ll_aton_stai_internal.h ****   }
  43:Lib/AI_Runtime/Npu/ll_aton/ll_aton_stai_internal.h **** 
  44:Lib/AI_Runtime/Npu/ll_aton/ll_aton_stai_internal.h **** #define STAI_INIT_TENSOR(_name, _flags, _fmt, _size_bytes, _shape, _scale, _zeropoint)             
  45:Lib/AI_Runtime/Npu/ll_aton/ll_aton_stai_internal.h ****   {                                                                                                
  46:Lib/AI_Runtime/Npu/ll_aton/ll_aton_stai_internal.h ****     .size_bytes = (_size_bytes), .flags = (_flags), .format = (stai_format)(_fmt), .shape = STAI_PA
  47:Lib/AI_Runtime/Npu/ll_aton/ll_aton_stai_internal.h ****     .scale = STAI_PACK(_scale), .zeropoint = STAI_PACK(_zeropoint), .name = (_name)                
  48:Lib/AI_Runtime/Npu/ll_aton/ll_aton_stai_internal.h ****   }
  49:Lib/AI_Runtime/Npu/ll_aton/ll_aton_stai_internal.h **** 
  50:Lib/AI_Runtime/Npu/ll_aton/ll_aton_stai_internal.h **** #define STAI_INIT_ARRAY(_size, _ptr)                                                               
  51:Lib/AI_Runtime/Npu/ll_aton/ll_aton_stai_internal.h ****   {                                                                                                
  52:Lib/AI_Runtime/Npu/ll_aton/ll_aton_stai_internal.h ****     .size = STAI_SIZE(_size), .data = STAI_PACK(_ptr)                                              
  53:Lib/AI_Runtime/Npu/ll_aton/ll_aton_stai_internal.h ****   }
  54:Lib/AI_Runtime/Npu/ll_aton/ll_aton_stai_internal.h **** 
  55:Lib/AI_Runtime/Npu/ll_aton/ll_aton_stai_internal.h **** #define STAI_CAST_ARRAY(_type, _size, _ptr)                                                        
  56:Lib/AI_Runtime/Npu/ll_aton/ll_aton_stai_internal.h ****   {                                                                                                
  57:Lib/AI_Runtime/Npu/ll_aton/ll_aton_stai_internal.h ****     .size = STAI_SIZE(_size), .data = (_type)STAI_PACK(_ptr)                                       
  58:Lib/AI_Runtime/Npu/ll_aton/ll_aton_stai_internal.h ****   }
  59:Lib/AI_Runtime/Npu/ll_aton/ll_aton_stai_internal.h **** 
  60:Lib/AI_Runtime/Npu/ll_aton/ll_aton_stai_internal.h **** #define STAI_DECLARE_ARRAY(_type, _size, _array_initializer)                                       
  61:Lib/AI_Runtime/Npu/ll_aton/ll_aton_stai_internal.h ****   {                                                                                                
  62:Lib/AI_Runtime/Npu/ll_aton/ll_aton_stai_internal.h ****     .size = STAI_SIZE(_size), .data = (_type[_size])STAI_PACK(_array_initializer)                  
  63:Lib/AI_Runtime/Npu/ll_aton/ll_aton_stai_internal.h ****   }
  64:Lib/AI_Runtime/Npu/ll_aton/ll_aton_stai_internal.h **** 
  65:Lib/AI_Runtime/Npu/ll_aton/ll_aton_stai_internal.h **** #define STAI_EMPTY_ARRAY()                                                                         
  66:Lib/AI_Runtime/Npu/ll_aton/ll_aton_stai_internal.h ****   {                                                                                                
  67:Lib/AI_Runtime/Npu/ll_aton/ll_aton_stai_internal.h ****     .size = 0, .data = NULL                                                                        
  68:Lib/AI_Runtime/Npu/ll_aton/ll_aton_stai_internal.h ****   }
  69:Lib/AI_Runtime/Npu/ll_aton/ll_aton_stai_internal.h **** 
  70:Lib/AI_Runtime/Npu/ll_aton/ll_aton_stai_internal.h **** #define STAI_INIT_VERSION(_major, _minor, _micro)                                                  
  71:Lib/AI_Runtime/Npu/ll_aton/ll_aton_stai_internal.h ****   {                                                                                                
  72:Lib/AI_Runtime/Npu/ll_aton/ll_aton_stai_internal.h ****     .major = (_major), .minor = (_minor), .micro = (_micro), .reserved = 0x0                       
  73:Lib/AI_Runtime/Npu/ll_aton/ll_aton_stai_internal.h ****   }
  74:Lib/AI_Runtime/Npu/ll_aton/ll_aton_stai_internal.h **** 
  75:Lib/AI_Runtime/Npu/ll_aton/ll_aton_stai_internal.h **** /*****************************************************************************/
  76:Lib/AI_Runtime/Npu/ll_aton/ll_aton_stai_internal.h **** /**  Internal ATON ST.AI APIs                                               **/
  77:Lib/AI_Runtime/Npu/ll_aton/ll_aton_stai_internal.h **** /*****************************************************************************/
  78:Lib/AI_Runtime/Npu/ll_aton/ll_aton_stai_internal.h **** 
  79:Lib/AI_Runtime/Npu/ll_aton/ll_aton_stai_internal.h **** /*****************************************************************************/
  80:Lib/AI_Runtime/Npu/ll_aton/ll_aton_stai_internal.h **** /**Macros **/
  81:Lib/AI_Runtime/Npu/ll_aton/ll_aton_stai_internal.h **** /* Set context error */
  82:Lib/AI_Runtime/Npu/ll_aton/ll_aton_stai_internal.h **** #define __LL_ATON_STAI_SET_1ST_CTX_ERROR_AND_RETURN(ctx, err)                                      
  83:Lib/AI_Runtime/Npu/ll_aton/ll_aton_stai_internal.h ****   do                                                                                               
  84:Lib/AI_Runtime/Npu/ll_aton/ll_aton_stai_internal.h ****   {                                                                                                
  85:Lib/AI_Runtime/Npu/ll_aton/ll_aton_stai_internal.h ****     /* check context handle */                                                                     
  86:Lib/AI_Runtime/Npu/ll_aton/ll_aton_stai_internal.h ****     if (!(ctx))                                                                                    
  87:Lib/AI_Runtime/Npu/ll_aton/ll_aton_stai_internal.h ****       return STAI_ERROR_NETWORK_INVALID_CONTEXT_HANDLE;                                            
  88:Lib/AI_Runtime/Npu/ll_aton/ll_aton_stai_internal.h ****                                                                                                    
  89:Lib/AI_Runtime/Npu/ll_aton/ll_aton_stai_internal.h ****     if (((ctx)->first_error) < STAI_ERROR_GENERIC)                                                 
  90:Lib/AI_Runtime/Npu/ll_aton/ll_aton_stai_internal.h ****       (ctx)->first_error = (err);                                                                  
  91:Lib/AI_Runtime/Npu/ll_aton/ll_aton_stai_internal.h ****     return (err);                                                                                  
  92:Lib/AI_Runtime/Npu/ll_aton/ll_aton_stai_internal.h ****   } while (0)
  93:Lib/AI_Runtime/Npu/ll_aton/ll_aton_stai_internal.h **** 
  94:Lib/AI_Runtime/Npu/ll_aton/ll_aton_stai_internal.h **** /* check context & network interface handle */
  95:Lib/AI_Runtime/Npu/ll_aton/ll_aton_stai_internal.h **** #define __LL_ATON_STAI_ACQUIRE_INTERFACE(_net_interface, _network)                                 
  96:Lib/AI_Runtime/Npu/ll_aton/ll_aton_stai_internal.h ****   const NN_Interface_TypeDef *_net_interface = NULL;                                               
  97:Lib/AI_Runtime/Npu/ll_aton/ll_aton_stai_internal.h ****   stai_return_code _ret = __ll_aton_stai_check_context_network_handle(_network, &_net_interface);  
ARM GAS  C:\Users\DJESSOU\AppData\Local\Temp\ccruImXQ.s 			page 13


  98:Lib/AI_Runtime/Npu/ll_aton/ll_aton_stai_internal.h ****   if (_ret >= STAI_ERROR_GENERIC)                                                                  
  99:Lib/AI_Runtime/Npu/ll_aton/ll_aton_stai_internal.h ****     return _ret;
 100:Lib/AI_Runtime/Npu/ll_aton/ll_aton_stai_internal.h **** 
 101:Lib/AI_Runtime/Npu/ll_aton/ll_aton_stai_internal.h **** #define __LL_ATON_START_CONT_EXEC(_nn_instance)                                                    
 102:Lib/AI_Runtime/Npu/ll_aton/ll_aton_stai_internal.h ****   do                                                                                               
 103:Lib/AI_Runtime/Npu/ll_aton/ll_aton_stai_internal.h ****   {                                                                                                
 104:Lib/AI_Runtime/Npu/ll_aton/ll_aton_stai_internal.h ****     STAI_ASSERT((_nn_instance) != NULL);                                                           
 105:Lib/AI_Runtime/Npu/ll_aton/ll_aton_stai_internal.h ****     _stai_aton_context *_stai_nn_ctx =                                                             
 106:Lib/AI_Runtime/Npu/ll_aton/ll_aton_stai_internal.h ****         (_stai_aton_context *)((void *)(_nn_instance)) - offsetof(_stai_aton_context, network_insta
 107:Lib/AI_Runtime/Npu/ll_aton/ll_aton_stai_internal.h ****                                                                                                    
 108:Lib/AI_Runtime/Npu/ll_aton/ll_aton_stai_internal.h ****     /* start/continue execution */                                                                 
 109:Lib/AI_Runtime/Npu/ll_aton/ll_aton_stai_internal.h ****     __ll_aton_stai_set_execution_status(LL_ATON_RT_RunEpochBlock((_nn_instance)), _stai_nn_ctx);   
 110:Lib/AI_Runtime/Npu/ll_aton/ll_aton_stai_internal.h ****                                                                                                    
 111:Lib/AI_Runtime/Npu/ll_aton/ll_aton_stai_internal.h ****     /* get current execution status */                                                             
 112:Lib/AI_Runtime/Npu/ll_aton/ll_aton_stai_internal.h ****     stai_return_code current_exec_status = __ll_aton_stai_get_execution_status(_stai_nn_ctx);      
 113:Lib/AI_Runtime/Npu/ll_aton/ll_aton_stai_internal.h ****     return current_exec_status;                                                                    
 114:Lib/AI_Runtime/Npu/ll_aton/ll_aton_stai_internal.h ****   } while (0)
 115:Lib/AI_Runtime/Npu/ll_aton/ll_aton_stai_internal.h **** 
 116:Lib/AI_Runtime/Npu/ll_aton/ll_aton_stai_internal.h ****   /** Functions **/
 117:Lib/AI_Runtime/Npu/ll_aton/ll_aton_stai_internal.h ****   STAI_API_DECLARE_BEGIN
 118:Lib/AI_Runtime/Npu/ll_aton/ll_aton_stai_internal.h **** 
 119:Lib/AI_Runtime/Npu/ll_aton/ll_aton_stai_internal.h ****   STAI_INTERNAL_ENTRY
 120:Lib/AI_Runtime/Npu/ll_aton/ll_aton_stai_internal.h ****   static inline stai_return_code __ll_aton_stai_check_context_network_handle(stai_network *network,
  85              		.loc 3 120 34 is_stmt 1 view -0
  86              		.cfi_startproc
  87              		@ args = 0, pretend = 0, frame = 0
  88              		@ frame_needed = 0, uses_anonymous_args = 0
  89              		@ link register save eliminated.
 121:Lib/AI_Runtime/Npu/ll_aton/ll_aton_stai_internal.h ****                                                                              const NN_Interface_Typ
 122:Lib/AI_Runtime/Npu/ll_aton/ll_aton_stai_internal.h ****   {
 123:Lib/AI_Runtime/Npu/ll_aton/ll_aton_stai_internal.h ****     /* check context handle */
 124:Lib/AI_Runtime/Npu/ll_aton/ll_aton_stai_internal.h ****     if (!network)
  90              		.loc 3 124 5 view .LVU14
  91              		.loc 3 124 8 is_stmt 0 view .LVU15
  92 0000 40B1     		cbz	r0, .L7
 125:Lib/AI_Runtime/Npu/ll_aton/ll_aton_stai_internal.h ****       return STAI_ERROR_NETWORK_INVALID_CONTEXT_HANDLE;
 126:Lib/AI_Runtime/Npu/ll_aton/ll_aton_stai_internal.h **** 
 127:Lib/AI_Runtime/Npu/ll_aton/ll_aton_stai_internal.h ****     /* check network handle */
 128:Lib/AI_Runtime/Npu/ll_aton/ll_aton_stai_internal.h ****     _stai_aton_context *context_ptr = (_stai_aton_context *)network;
  93              		.loc 3 128 5 is_stmt 1 view .LVU16
  94              	.LVL5:
 129:Lib/AI_Runtime/Npu/ll_aton/ll_aton_stai_internal.h ****     const NN_Interface_TypeDef *nn_i_ptr = context_ptr->network_instance.network;
  95              		.loc 3 129 5 view .LVU17
  96              		.loc 3 129 33 is_stmt 0 view .LVU18
  97 0002 0368     		ldr	r3, [r0]
  98              	.LVL6:
 130:Lib/AI_Runtime/Npu/ll_aton/ll_aton_stai_internal.h ****     if (!nn_i_ptr)
  99              		.loc 3 130 5 is_stmt 1 view .LVU19
 100              		.loc 3 130 8 is_stmt 0 view .LVU20
 101 0004 4BB9     		cbnz	r3, .L8
 131:Lib/AI_Runtime/Npu/ll_aton/ll_aton_stai_internal.h ****     {
 132:Lib/AI_Runtime/Npu/ll_aton/ll_aton_stai_internal.h ****       __LL_ATON_STAI_SET_1ST_CTX_ERROR_AND_RETURN(context_ptr, STAI_ERROR_NETWORK_INVALID_CONTEXT_H
 102              		.loc 3 132 7 is_stmt 1 view .LVU21
 103              		.loc 3 132 7 view .LVU22
 104              		.loc 3 132 7 discriminator 2 view .LVU23
 105 0006 C36B     		ldr	r3, [r0, #60]
 106              	.LVL7:
ARM GAS  C:\Users\DJESSOU\AppData\Local\Temp\ccruImXQ.s 			page 14


 107              		.loc 3 132 7 is_stmt 0 discriminator 2 view .LVU24
 108 0008 B3F5003F 		cmp	r3, #131072
 109              		.loc 3 132 7 is_stmt 1 discriminator 3 view .LVU25
 110 000c 3CBF     		itt	cc
 111 000e 4FF44033 		movcc	r3, #196608
 112 0012 C363     		strcc	r3, [r0, #60]
 113              	.LVL8:
 114              	.L7:
 125:Lib/AI_Runtime/Npu/ll_aton/ll_aton_stai_internal.h **** 
 115              		.loc 3 125 14 is_stmt 0 view .LVU26
 116 0014 4FF44030 		mov	r0, #196608
 117              	.LVL9:
 125:Lib/AI_Runtime/Npu/ll_aton/ll_aton_stai_internal.h **** 
 118              		.loc 3 125 14 view .LVU27
 119 0018 7047     		bx	lr
 120              	.LVL10:
 121              	.L8:
 122              		.loc 3 132 7 is_stmt 1 view .LVU28
 133:Lib/AI_Runtime/Npu/ll_aton/ll_aton_stai_internal.h ****     }
 134:Lib/AI_Runtime/Npu/ll_aton/ll_aton_stai_internal.h **** 
 135:Lib/AI_Runtime/Npu/ll_aton/ll_aton_stai_internal.h ****     /* save network pointer */
 136:Lib/AI_Runtime/Npu/ll_aton/ll_aton_stai_internal.h ****     *nn_i_ptr_ptr = nn_i_ptr;
 123              		.loc 3 136 5 view .LVU29
 137:Lib/AI_Runtime/Npu/ll_aton/ll_aton_stai_internal.h ****     return STAI_SUCCESS;
 124              		.loc 3 137 12 is_stmt 0 view .LVU30
 125 001a 0020     		movs	r0, #0
 126              	.LVL11:
 136:Lib/AI_Runtime/Npu/ll_aton/ll_aton_stai_internal.h ****     return STAI_SUCCESS;
 127              		.loc 3 136 19 view .LVU31
 128 001c 0B60     		str	r3, [r1]
 129              		.loc 3 137 5 is_stmt 1 view .LVU32
 138:Lib/AI_Runtime/Npu/ll_aton/ll_aton_stai_internal.h ****   }
 130              		.loc 3 138 3 is_stmt 0 view .LVU33
 131 001e 7047     		bx	lr
 132              		.cfi_endproc
 133              	.LFE329:
 135              		.section	.rodata.__ll_aton_stai_palm_detector_set_outputs_or_activations.str1.1,"aMS",%progbits,1
 136              	.LC0:
 137 0000 62756666 		.ascii	"buffer_info->offset_start == 0\000"
 137      65725F69 
 137      6E666F2D 
 137      3E6F6666 
 137      7365745F 
 138              	.LC1:
 139 001f 4D6F6465 		.ascii	"Model/stai_palm_detector.c\000"
 139      6C2F7374 
 139      61695F70 
 139      616C6D5F 
 139      64657465 
 140              	.LC2:
 141 003a 61646472 		.ascii	"address_location != ((void *)0)\000"
 141      6573735F 
 141      6C6F6361 
 141      74696F6E 
 141      20213D20 
 142              		.section	.text.__ll_aton_stai_palm_detector_set_outputs_or_activations,"ax",%progbits
 143              		.align	1
ARM GAS  C:\Users\DJESSOU\AppData\Local\Temp\ccruImXQ.s 			page 15


 144              		.syntax unified
 145              		.thumb
 146              		.thumb_func
 148              	__ll_aton_stai_palm_detector_set_outputs_or_activations:
 149              	.LVL12:
 150              	.LFB306:
   1:Model/stai_palm_detector.c **** 
   2:Model/stai_palm_detector.c **** /* AUTOGENERATED DO NOT MODIFY */
   3:Model/stai_palm_detector.c **** 
   4:Model/stai_palm_detector.c **** /**
   5:Model/stai_palm_detector.c ****  ******************************************************************************
   6:Model/stai_palm_detector.c ****  * @file    stai_palm_detector.c
   7:Model/stai_palm_detector.c ****  * @author  SRA Artificial Intelligence & Embedded Architectures
   8:Model/stai_palm_detector.c ****  * @brief   Implementation of ST.AI platform public APIs for ATON
   9:Model/stai_palm_detector.c ****  ******************************************************************************
  10:Model/stai_palm_detector.c ****  * @attention
  11:Model/stai_palm_detector.c ****  *
  12:Model/stai_palm_detector.c ****  * Copyright (c) 2024 STMicroelectronics.
  13:Model/stai_palm_detector.c ****  * All rights reserved.
  14:Model/stai_palm_detector.c ****  *
  15:Model/stai_palm_detector.c ****  * This software is licensed under terms that can be found in the LICENSE file
  16:Model/stai_palm_detector.c ****  * in the root directory of this software component.
  17:Model/stai_palm_detector.c ****  * If no LICENSE file comes with this software, it is provided AS-IS.
  18:Model/stai_palm_detector.c ****  *
  19:Model/stai_palm_detector.c ****  ******************************************************************************
  20:Model/stai_palm_detector.c ****  */
  21:Model/stai_palm_detector.c **** 
  22:Model/stai_palm_detector.c **** #include "stai_palm_detector.h"
  23:Model/stai_palm_detector.c **** #include "ll_aton_rt_user_api.h"
  24:Model/stai_palm_detector.c **** #include "ll_aton_util.h"
  25:Model/stai_palm_detector.c **** #include "ll_aton_version.h"
  26:Model/stai_palm_detector.c **** 
  27:Model/stai_palm_detector.c **** /* Status variables */
  28:Model/stai_palm_detector.c **** LL_ATON_DECLARE_NAMED_NN_INTERFACE(palm_detector);
  29:Model/stai_palm_detector.c **** 
  30:Model/stai_palm_detector.c **** /* Helper macros & functions */
  31:Model/stai_palm_detector.c **** #define __LL_ATON_STAI_CHECK_NETWORK_INTERFACE(nn_interface_ptr, ctx)                              
  32:Model/stai_palm_detector.c ****   do                                                                                               
  33:Model/stai_palm_detector.c ****   {                                                                                                
  34:Model/stai_palm_detector.c ****     if ((nn_interface_ptr) != &NN_Interface_palm_detector)                                         
  35:Model/stai_palm_detector.c ****       __LL_ATON_STAI_SET_1ST_CTX_ERROR_AND_RETURN((ctx), STAI_ERROR_NETWORK_INVALID_CONTEXT_HANDLE)
  36:Model/stai_palm_detector.c ****   } while (0)
  37:Model/stai_palm_detector.c **** 
  38:Model/stai_palm_detector.c **** static inline stai_return_code __ll_aton_stai_palm_detector_get_inputs_or_weights(stai_network *net
  39:Model/stai_palm_detector.c ****                                                                                           stai_ptr 
  40:Model/stai_palm_detector.c ****                                                                                           stai_size
  41:Model/stai_palm_detector.c ****                                                                                           bool inpu
  42:Model/stai_palm_detector.c **** {
  43:Model/stai_palm_detector.c ****   __LL_ATON_STAI_ACQUIRE_INTERFACE(nn_i_ptr, network);
  44:Model/stai_palm_detector.c ****   __LL_ATON_STAI_CHECK_NETWORK_INTERFACE(nn_i_ptr, (_stai_aton_context *)network);
  45:Model/stai_palm_detector.c **** 
  46:Model/stai_palm_detector.c ****   /* check parameters */
  47:Model/stai_palm_detector.c ****   if (!n_ptrs)
  48:Model/stai_palm_detector.c ****     __LL_ATON_STAI_SET_1ST_CTX_ERROR_AND_RETURN((_stai_aton_context *)network,
  49:Model/stai_palm_detector.c ****                                                 STAI_ERROR_NETWORK_INVALID_API_ARGUMENTS);
  50:Model/stai_palm_detector.c **** 
  51:Model/stai_palm_detector.c ****   /* get input buffers */
ARM GAS  C:\Users\DJESSOU\AppData\Local\Temp\ccruImXQ.s 			page 16


  52:Model/stai_palm_detector.c ****   const LL_Buffer_InfoTypeDef *input_buffers = nn_i_ptr->input_buffers_info();
  53:Model/stai_palm_detector.c **** 
  54:Model/stai_palm_detector.c ****   /* copy buffer addresses */
  55:Model/stai_palm_detector.c ****   unsigned cnt = 0;
  56:Model/stai_palm_detector.c ****   if (input_buffers != NULL)
  57:Model/stai_palm_detector.c ****   {
  58:Model/stai_palm_detector.c ****     for (unsigned idx = 0; input_buffers[idx].name != NULL; idx++)
  59:Model/stai_palm_detector.c ****     {
  60:Model/stai_palm_detector.c ****       const LL_Buffer_InfoTypeDef *buffer_info = &input_buffers[idx];
  61:Model/stai_palm_detector.c ****       if (inputs == !buffer_info->is_param)
  62:Model/stai_palm_detector.c ****       {
  63:Model/stai_palm_detector.c ****         if (pointers)
  64:Model/stai_palm_detector.c ****         {
  65:Model/stai_palm_detector.c ****           if (buffer_info->is_user_allocated) // is it an user allocatable buffer
  66:Model/stai_palm_detector.c ****           {
  67:Model/stai_palm_detector.c ****             LL_ATON_ASSERT(buffer_info->offset_start ==
  68:Model/stai_palm_detector.c ****                            0); // user allocated buffers always have an offset equal to zero
  69:Model/stai_palm_detector.c ****             pointers[cnt] = LL_Buffer_addr_start(buffer_info); // user allocated buffers are saved 
  70:Model/stai_palm_detector.c ****             LL_ATON_ASSERT(((uintptr_t)pointers[cnt] % STAI_CACHE_USER_BUFFER_ALIGNMENT) == 0);
  71:Model/stai_palm_detector.c ****           }
  72:Model/stai_palm_detector.c ****           else // buffer is not user allocatable
  73:Model/stai_palm_detector.c ****           {
  74:Model/stai_palm_detector.c ****             pointers[cnt] = ATON_LIB_PHYSICAL_TO_VIRTUAL_ADDR(LL_Buffer_addr_start(buffer_info));
  75:Model/stai_palm_detector.c ****           }
  76:Model/stai_palm_detector.c ****         }
  77:Model/stai_palm_detector.c ****         cnt++;
  78:Model/stai_palm_detector.c ****       }
  79:Model/stai_palm_detector.c ****     }
  80:Model/stai_palm_detector.c ****   }
  81:Model/stai_palm_detector.c ****   else
  82:Model/stai_palm_detector.c ****   {
  83:Model/stai_palm_detector.c ****     STAI_ASSERT((inputs ? STAI_PALM_DETECTOR_IN_NUM : STAI_PALM_DETECTOR_WEIGHTS_NUM) == 0);
  84:Model/stai_palm_detector.c ****   }
  85:Model/stai_palm_detector.c **** #ifndef NDEBUG
  86:Model/stai_palm_detector.c ****   if (inputs)
  87:Model/stai_palm_detector.c ****   {
  88:Model/stai_palm_detector.c ****     STAI_ASSERT(cnt == STAI_PALM_DETECTOR_IN_NUM);
  89:Model/stai_palm_detector.c ****   }
  90:Model/stai_palm_detector.c ****   else
  91:Model/stai_palm_detector.c ****   {
  92:Model/stai_palm_detector.c ****     STAI_ASSERT(cnt == STAI_PALM_DETECTOR_WEIGHTS_NUM);
  93:Model/stai_palm_detector.c ****   }
  94:Model/stai_palm_detector.c **** #endif // !NDEBUG
  95:Model/stai_palm_detector.c **** 
  96:Model/stai_palm_detector.c ****   /* save number of elements return value */
  97:Model/stai_palm_detector.c ****   if (inputs)
  98:Model/stai_palm_detector.c ****   {
  99:Model/stai_palm_detector.c ****     *n_ptrs = STAI_PALM_DETECTOR_IN_NUM;
 100:Model/stai_palm_detector.c ****   }
 101:Model/stai_palm_detector.c ****   else
 102:Model/stai_palm_detector.c ****   {
 103:Model/stai_palm_detector.c ****     *n_ptrs = STAI_PALM_DETECTOR_WEIGHTS_NUM;
 104:Model/stai_palm_detector.c ****   }
 105:Model/stai_palm_detector.c **** 
 106:Model/stai_palm_detector.c ****   return STAI_SUCCESS;
 107:Model/stai_palm_detector.c **** }
 108:Model/stai_palm_detector.c **** 
ARM GAS  C:\Users\DJESSOU\AppData\Local\Temp\ccruImXQ.s 			page 17


 109:Model/stai_palm_detector.c **** static inline stai_return_code __ll_aton_stai_palm_detector_get_outputs_or_activations(stai_network
 110:Model/stai_palm_detector.c ****                                                                                                stai
 111:Model/stai_palm_detector.c ****                                                                                                stai
 112:Model/stai_palm_detector.c ****                                                                                                bool
 113:Model/stai_palm_detector.c **** {
 114:Model/stai_palm_detector.c ****   /* check context & network interface handle */
 115:Model/stai_palm_detector.c ****   __LL_ATON_STAI_ACQUIRE_INTERFACE(nn_i_ptr, network);
 116:Model/stai_palm_detector.c ****   __LL_ATON_STAI_CHECK_NETWORK_INTERFACE(nn_i_ptr, (_stai_aton_context *)network);
 117:Model/stai_palm_detector.c **** 
 118:Model/stai_palm_detector.c ****   /* check parameters */
 119:Model/stai_palm_detector.c ****   if (!n_ptrs)
 120:Model/stai_palm_detector.c ****     __LL_ATON_STAI_SET_1ST_CTX_ERROR_AND_RETURN((_stai_aton_context *)network,
 121:Model/stai_palm_detector.c ****                                                 STAI_ERROR_NETWORK_INVALID_API_ARGUMENTS);
 122:Model/stai_palm_detector.c **** 
 123:Model/stai_palm_detector.c ****   /* get output buffers */
 124:Model/stai_palm_detector.c ****   const LL_Buffer_InfoTypeDef *out_activ_buffers;
 125:Model/stai_palm_detector.c ****   if (outputs)
 126:Model/stai_palm_detector.c ****   {
 127:Model/stai_palm_detector.c ****     out_activ_buffers = nn_i_ptr->output_buffers_info();
 128:Model/stai_palm_detector.c ****   }
 129:Model/stai_palm_detector.c ****   else
 130:Model/stai_palm_detector.c ****   {
 131:Model/stai_palm_detector.c ****     out_activ_buffers = nn_i_ptr->internal_buffers_info();
 132:Model/stai_palm_detector.c ****   }
 133:Model/stai_palm_detector.c **** 
 134:Model/stai_palm_detector.c ****   /* copy buffer addresses */
 135:Model/stai_palm_detector.c ****   unsigned cnt = 0;
 136:Model/stai_palm_detector.c ****   if (out_activ_buffers != NULL)
 137:Model/stai_palm_detector.c ****   {
 138:Model/stai_palm_detector.c ****     for (unsigned idx = 0; out_activ_buffers[idx].name != NULL; idx++)
 139:Model/stai_palm_detector.c ****     {
 140:Model/stai_palm_detector.c ****       const LL_Buffer_InfoTypeDef *buffer_info = &out_activ_buffers[idx];
 141:Model/stai_palm_detector.c ****       STAI_ASSERT(!buffer_info->is_param); // may never happen
 142:Model/stai_palm_detector.c ****       if (pointers)
 143:Model/stai_palm_detector.c ****       {
 144:Model/stai_palm_detector.c ****         if (buffer_info->is_user_allocated) // is it a user allocatable buffer
 145:Model/stai_palm_detector.c ****         {
 146:Model/stai_palm_detector.c ****           LL_ATON_ASSERT(buffer_info->offset_start == 0); // user allocated buffers always have an 
 147:Model/stai_palm_detector.c ****           pointers[cnt] = LL_Buffer_addr_start(buffer_info); // user allocated buffers are saved wi
 148:Model/stai_palm_detector.c ****           LL_ATON_ASSERT(((uintptr_t)pointers[cnt] % STAI_CACHE_USER_BUFFER_ALIGNMENT) == 0);
 149:Model/stai_palm_detector.c ****         }
 150:Model/stai_palm_detector.c ****         else // buffer is not user allocatable
 151:Model/stai_palm_detector.c ****         {
 152:Model/stai_palm_detector.c ****           pointers[cnt] = ATON_LIB_PHYSICAL_TO_VIRTUAL_ADDR(LL_Buffer_addr_start(buffer_info));
 153:Model/stai_palm_detector.c ****         }
 154:Model/stai_palm_detector.c ****       }
 155:Model/stai_palm_detector.c ****       cnt++;
 156:Model/stai_palm_detector.c ****     }
 157:Model/stai_palm_detector.c ****   }
 158:Model/stai_palm_detector.c ****   else
 159:Model/stai_palm_detector.c ****   {
 160:Model/stai_palm_detector.c ****     STAI_ASSERT((outputs ? STAI_PALM_DETECTOR_OUT_NUM : STAI_PALM_DETECTOR_ACTIVATIONS_NUM) == 0);
 161:Model/stai_palm_detector.c ****   }
 162:Model/stai_palm_detector.c **** #ifndef NDEBUG
 163:Model/stai_palm_detector.c ****   if (outputs)
 164:Model/stai_palm_detector.c ****   {
 165:Model/stai_palm_detector.c ****     STAI_ASSERT(cnt == STAI_PALM_DETECTOR_OUT_NUM);
ARM GAS  C:\Users\DJESSOU\AppData\Local\Temp\ccruImXQ.s 			page 18


 166:Model/stai_palm_detector.c ****   }
 167:Model/stai_palm_detector.c ****   else
 168:Model/stai_palm_detector.c ****   {
 169:Model/stai_palm_detector.c ****     STAI_ASSERT(cnt == STAI_PALM_DETECTOR_ACTIVATIONS_NUM);
 170:Model/stai_palm_detector.c ****   }
 171:Model/stai_palm_detector.c **** #endif // !NDEBUG
 172:Model/stai_palm_detector.c **** 
 173:Model/stai_palm_detector.c ****   /* save number of elements return value */
 174:Model/stai_palm_detector.c ****   if (outputs)
 175:Model/stai_palm_detector.c ****   {
 176:Model/stai_palm_detector.c ****     *n_ptrs = STAI_PALM_DETECTOR_OUT_NUM;
 177:Model/stai_palm_detector.c ****   }
 178:Model/stai_palm_detector.c ****   else
 179:Model/stai_palm_detector.c ****   {
 180:Model/stai_palm_detector.c ****     *n_ptrs = STAI_PALM_DETECTOR_ACTIVATIONS_NUM;
 181:Model/stai_palm_detector.c ****   }
 182:Model/stai_palm_detector.c **** 
 183:Model/stai_palm_detector.c ****   return STAI_SUCCESS;
 184:Model/stai_palm_detector.c **** }
 185:Model/stai_palm_detector.c **** 
 186:Model/stai_palm_detector.c **** static inline stai_return_code __ll_aton_stai_palm_detector_set_inputs_or_weights(stai_network *net
 187:Model/stai_palm_detector.c ****                                                                                           const sta
 188:Model/stai_palm_detector.c ****                                                                                           const sta
 189:Model/stai_palm_detector.c ****                                                                                           bool inpu
 190:Model/stai_palm_detector.c **** {
 191:Model/stai_palm_detector.c ****   /* check context & network interface handle */
 192:Model/stai_palm_detector.c ****   __LL_ATON_STAI_ACQUIRE_INTERFACE(nn_i_ptr, network);
 193:Model/stai_palm_detector.c ****   __LL_ATON_STAI_CHECK_NETWORK_INTERFACE(nn_i_ptr, (_stai_aton_context *)network);
 194:Model/stai_palm_detector.c **** 
 195:Model/stai_palm_detector.c ****   /* get input buffers */
 196:Model/stai_palm_detector.c ****   const LL_Buffer_InfoTypeDef *input_buffers = nn_i_ptr->input_buffers_info();
 197:Model/stai_palm_detector.c **** 
 198:Model/stai_palm_detector.c ****   /* check values & addresses */
 199:Model/stai_palm_detector.c ****   LL_ATON_ASSERT(input_buffers != NULL);
 200:Model/stai_palm_detector.c ****   if (input_buffers && !pointers)
 201:Model/stai_palm_detector.c ****     __LL_ATON_STAI_SET_1ST_CTX_ERROR_AND_RETURN((_stai_aton_context *)network,
 202:Model/stai_palm_detector.c ****                                                 STAI_ERROR_NETWORK_INVALID_API_ARGUMENTS);
 203:Model/stai_palm_detector.c **** 
 204:Model/stai_palm_detector.c ****   if (inputs)
 205:Model/stai_palm_detector.c ****   {
 206:Model/stai_palm_detector.c ****     if (n_ptrs != STAI_PALM_DETECTOR_IN_NUM)
 207:Model/stai_palm_detector.c ****       __LL_ATON_STAI_SET_1ST_CTX_ERROR_AND_RETURN((_stai_aton_context *)network, STAI_ERROR_NETWORK
 208:Model/stai_palm_detector.c ****   }
 209:Model/stai_palm_detector.c ****   else
 210:Model/stai_palm_detector.c ****   {
 211:Model/stai_palm_detector.c ****     if (n_ptrs != STAI_PALM_DETECTOR_WEIGHTS_NUM)
 212:Model/stai_palm_detector.c ****       __LL_ATON_STAI_SET_1ST_CTX_ERROR_AND_RETURN((_stai_aton_context *)network,
 213:Model/stai_palm_detector.c ****                                                   STAI_ERROR_NETWORK_INVALID_WEIGHTS_NUM);
 214:Model/stai_palm_detector.c ****   }
 215:Model/stai_palm_detector.c **** 
 216:Model/stai_palm_detector.c ****   unsigned cnt = 0;
 217:Model/stai_palm_detector.c ****   if (input_buffers != NULL)
 218:Model/stai_palm_detector.c ****   {
 219:Model/stai_palm_detector.c ****     for (unsigned idx = 0; input_buffers[idx].name != NULL; idx++)
 220:Model/stai_palm_detector.c ****     {
 221:Model/stai_palm_detector.c ****       const LL_Buffer_InfoTypeDef *buffer_info = &input_buffers[idx];
 222:Model/stai_palm_detector.c ****       if (inputs == !buffer_info->is_param)
ARM GAS  C:\Users\DJESSOU\AppData\Local\Temp\ccruImXQ.s 			page 19


 223:Model/stai_palm_detector.c ****       {
 224:Model/stai_palm_detector.c ****         if (buffer_info->is_user_allocated) // is it an user allocatable buffer
 225:Model/stai_palm_detector.c ****         {
 226:Model/stai_palm_detector.c ****           LL_ATON_ASSERT(buffer_info->offset_start == 0); // user allocated buffers always have an 
 227:Model/stai_palm_detector.c ****           unsigned char **address_location = (unsigned char **)buffer_info->addr_base.p;
 228:Model/stai_palm_detector.c ****           unsigned char *new_address = pointers[cnt];
 229:Model/stai_palm_detector.c **** 
 230:Model/stai_palm_detector.c ****           if (((uintptr_t)new_address % STAI_CACHE_USER_BUFFER_ALIGNMENT) != 0) // check new addres
 231:Model/stai_palm_detector.c ****           {                                                                     // new address is n
 232:Model/stai_palm_detector.c ****             __LL_ATON_STAI_SET_1ST_CTX_ERROR_AND_RETURN((_stai_aton_context *)network,
 233:Model/stai_palm_detector.c ****                                                         STAI_ERROR_INVALID_BUFFER_ALIGNMENT);
 234:Model/stai_palm_detector.c ****           }
 235:Model/stai_palm_detector.c ****           else // new address is aligned
 236:Model/stai_palm_detector.c ****           {
 237:Model/stai_palm_detector.c ****             LL_ATON_ASSERT(address_location != NULL);
 238:Model/stai_palm_detector.c ****             *address_location = new_address;
 239:Model/stai_palm_detector.c ****           }
 240:Model/stai_palm_detector.c ****         }
 241:Model/stai_palm_detector.c ****         else // buffer is not user allocatable
 242:Model/stai_palm_detector.c ****         {
 243:Model/stai_palm_detector.c ****           if (ATON_LIB_VIRTUAL_TO_PHYSICAL_ADDR(pointers[cnt]) != LL_Buffer_addr_start(buffer_info)
 244:Model/stai_palm_detector.c ****             __LL_ATON_STAI_SET_1ST_CTX_ERROR_AND_RETURN((_stai_aton_context *)network,
 245:Model/stai_palm_detector.c ****                                                         STAI_ERROR_NETWORK_INVALID_IN_PTR);
 246:Model/stai_palm_detector.c ****         }
 247:Model/stai_palm_detector.c ****         cnt++;
 248:Model/stai_palm_detector.c ****       }
 249:Model/stai_palm_detector.c ****     }
 250:Model/stai_palm_detector.c ****   }
 251:Model/stai_palm_detector.c ****   else
 252:Model/stai_palm_detector.c ****   {
 253:Model/stai_palm_detector.c ****     STAI_ASSERT((inputs ? STAI_PALM_DETECTOR_IN_NUM : STAI_PALM_DETECTOR_WEIGHTS_NUM) == 0);
 254:Model/stai_palm_detector.c ****   }
 255:Model/stai_palm_detector.c **** #ifndef NDEBUG
 256:Model/stai_palm_detector.c ****   if (inputs)
 257:Model/stai_palm_detector.c ****   {
 258:Model/stai_palm_detector.c ****     STAI_ASSERT(cnt == STAI_PALM_DETECTOR_IN_NUM);
 259:Model/stai_palm_detector.c ****   }
 260:Model/stai_palm_detector.c ****   else
 261:Model/stai_palm_detector.c ****   {
 262:Model/stai_palm_detector.c ****     STAI_ASSERT(cnt == STAI_PALM_DETECTOR_WEIGHTS_NUM);
 263:Model/stai_palm_detector.c ****   }
 264:Model/stai_palm_detector.c **** #endif // !NDEBUG
 265:Model/stai_palm_detector.c **** 
 266:Model/stai_palm_detector.c ****   return STAI_SUCCESS;
 267:Model/stai_palm_detector.c **** }
 268:Model/stai_palm_detector.c **** 
 269:Model/stai_palm_detector.c **** static inline stai_return_code __ll_aton_stai_palm_detector_set_outputs_or_activations(stai_network
 270:Model/stai_palm_detector.c ****                                                                                                cons
 271:Model/stai_palm_detector.c ****                                                                                                cons
 272:Model/stai_palm_detector.c ****                                                                                                bool
 273:Model/stai_palm_detector.c **** {
 151              		.loc 1 273 1 is_stmt 1 view -0
 152              		.cfi_startproc
 153              		@ args = 0, pretend = 0, frame = 8
 154              		@ frame_needed = 0, uses_anonymous_args = 0
 274:Model/stai_palm_detector.c ****   /* check context & network interface handle */
 275:Model/stai_palm_detector.c ****   __LL_ATON_STAI_ACQUIRE_INTERFACE(nn_i_ptr, network);
ARM GAS  C:\Users\DJESSOU\AppData\Local\Temp\ccruImXQ.s 			page 20


 155              		.loc 1 275 3 view .LVU35
 273:Model/stai_palm_detector.c ****   /* check context & network interface handle */
 156              		.loc 1 273 1 is_stmt 0 view .LVU36
 157 0000 2DE9F341 		push	{r0, r1, r4, r5, r6, r7, r8, lr}
 158              		.cfi_def_cfa_offset 32
 159              		.cfi_offset 4, -24
 160              		.cfi_offset 5, -20
 161              		.cfi_offset 6, -16
 162              		.cfi_offset 7, -12
 163              		.cfi_offset 8, -8
 164              		.cfi_offset 14, -4
 273:Model/stai_palm_detector.c ****   /* check context & network interface handle */
 165              		.loc 1 273 1 view .LVU37
 166 0004 9846     		mov	r8, r3
 167              		.loc 1 275 3 view .LVU38
 168 0006 0023     		movs	r3, #0
 169              	.LVL13:
 273:Model/stai_palm_detector.c ****   /* check context & network interface handle */
 170              		.loc 1 273 1 view .LVU39
 171 0008 0F46     		mov	r7, r1
 172              		.loc 1 275 3 view .LVU40
 173 000a 01A9     		add	r1, sp, #4
 174              	.LVL14:
 273:Model/stai_palm_detector.c ****   /* check context & network interface handle */
 175              		.loc 1 273 1 view .LVU41
 176 000c 0446     		mov	r4, r0
 177              		.loc 1 275 3 view .LVU42
 178 000e 0193     		str	r3, [sp, #4]
 179              		.loc 1 275 3 is_stmt 1 view .LVU43
 180 0010 FFF7FEFF 		bl	__ll_aton_stai_check_context_network_handle.constprop.0
 181              	.LVL15:
 182              		.loc 1 275 3 discriminator 1 view .LVU44
 183 0014 B0F5003F 		cmp	r0, #131072
 273:Model/stai_palm_detector.c ****   /* check context & network interface handle */
 184              		.loc 1 273 1 is_stmt 0 view .LVU45
 185 0018 1646     		mov	r6, r2
 186              		.loc 1 275 3 discriminator 1 view .LVU46
 187 001a 0DD2     		bcs	.L13
 188              		.loc 1 275 54 is_stmt 1 discriminator 2 view .LVU47
 276:Model/stai_palm_detector.c ****   __LL_ATON_STAI_CHECK_NETWORK_INTERFACE(nn_i_ptr, (_stai_aton_context *)network);
 189              		.loc 1 276 3 view .LVU48
 190              		.loc 1 276 3 view .LVU49
 191 001c 3B4B     		ldr	r3, .L66
 192 001e 019A     		ldr	r2, [sp, #4]
 193              	.LVL16:
 194              		.loc 1 276 3 is_stmt 0 view .LVU50
 195 0020 9A42     		cmp	r2, r3
 196 0022 0CD0     		beq	.L15
 197              		.loc 1 276 3 is_stmt 1 discriminator 1 view .LVU51
 198              		.loc 1 276 3 discriminator 1 view .LVU52
 199 0024 34B1     		cbz	r4, .L17
 200              		.loc 1 276 3 discriminator 4 view .LVU53
 201 0026 E36B     		ldr	r3, [r4, #60]
 202 0028 B3F5003F 		cmp	r3, #131072
 203              		.loc 1 276 3 discriminator 5 view .LVU54
 204 002c 3CBF     		itt	cc
 205 002e 4FF44033 		movcc	r3, #196608
ARM GAS  C:\Users\DJESSOU\AppData\Local\Temp\ccruImXQ.s 			page 21


 206 0032 E363     		strcc	r3, [r4, #60]
 207              	.LVL17:
 208              	.L17:
 209              		.loc 1 276 3 is_stmt 0 discriminator 3 view .LVU55
 210 0034 4FF44030 		mov	r0, #196608
 211              	.L13:
 277:Model/stai_palm_detector.c **** 
 278:Model/stai_palm_detector.c ****   /* get output buffers */
 279:Model/stai_palm_detector.c ****   const LL_Buffer_InfoTypeDef *out_activ_buffers;
 280:Model/stai_palm_detector.c ****   if (outputs)
 281:Model/stai_palm_detector.c ****   {
 282:Model/stai_palm_detector.c ****     out_activ_buffers = nn_i_ptr->output_buffers_info();
 283:Model/stai_palm_detector.c ****   }
 284:Model/stai_palm_detector.c ****   else
 285:Model/stai_palm_detector.c ****   {
 286:Model/stai_palm_detector.c ****     out_activ_buffers = nn_i_ptr->output_buffers_info();
 287:Model/stai_palm_detector.c ****   }
 288:Model/stai_palm_detector.c **** 
 289:Model/stai_palm_detector.c ****   /* check values & addresses */
 290:Model/stai_palm_detector.c ****   if (out_activ_buffers && !pointers)
 291:Model/stai_palm_detector.c ****     __LL_ATON_STAI_SET_1ST_CTX_ERROR_AND_RETURN((_stai_aton_context *)network,
 292:Model/stai_palm_detector.c ****                                                 STAI_ERROR_NETWORK_INVALID_API_ARGUMENTS);
 293:Model/stai_palm_detector.c **** 
 294:Model/stai_palm_detector.c ****   if (outputs)
 295:Model/stai_palm_detector.c ****   {
 296:Model/stai_palm_detector.c ****     if (n_ptrs != STAI_PALM_DETECTOR_OUT_NUM)
 297:Model/stai_palm_detector.c ****       __LL_ATON_STAI_SET_1ST_CTX_ERROR_AND_RETURN((_stai_aton_context *)network, STAI_ERROR_NETWORK
 298:Model/stai_palm_detector.c ****   }
 299:Model/stai_palm_detector.c ****   else
 300:Model/stai_palm_detector.c ****   {
 301:Model/stai_palm_detector.c ****     if (n_ptrs != STAI_PALM_DETECTOR_ACTIVATIONS_NUM)
 302:Model/stai_palm_detector.c ****       __LL_ATON_STAI_SET_1ST_CTX_ERROR_AND_RETURN((_stai_aton_context *)network, STAI_ERROR_NETWORK
 303:Model/stai_palm_detector.c ****   }
 304:Model/stai_palm_detector.c **** 
 305:Model/stai_palm_detector.c ****   unsigned cnt = 0;
 306:Model/stai_palm_detector.c ****   if (out_activ_buffers != NULL)
 307:Model/stai_palm_detector.c ****   {
 308:Model/stai_palm_detector.c ****     for (unsigned idx = 0; out_activ_buffers[idx].name != NULL; idx++)
 309:Model/stai_palm_detector.c ****     {
 310:Model/stai_palm_detector.c ****       const LL_Buffer_InfoTypeDef *buffer_info = &out_activ_buffers[idx];
 311:Model/stai_palm_detector.c ****       if (buffer_info->is_user_allocated) // is it an user allocatable buffer
 312:Model/stai_palm_detector.c ****       {
 313:Model/stai_palm_detector.c ****         LL_ATON_ASSERT(buffer_info->offset_start == 0); // user allocated buffers always have an of
 314:Model/stai_palm_detector.c ****         unsigned char **address_location = (unsigned char **)buffer_info->addr_base.p;
 315:Model/stai_palm_detector.c ****         unsigned char *new_address = pointers[cnt];
 316:Model/stai_palm_detector.c **** 
 317:Model/stai_palm_detector.c ****         if (((uintptr_t)new_address % STAI_CACHE_USER_BUFFER_ALIGNMENT) != 0) // check new address 
 318:Model/stai_palm_detector.c ****         {                                                                     // new address is not
 319:Model/stai_palm_detector.c ****           __LL_ATON_STAI_SET_1ST_CTX_ERROR_AND_RETURN((_stai_aton_context *)network,
 320:Model/stai_palm_detector.c ****                                                       STAI_ERROR_INVALID_BUFFER_ALIGNMENT);
 321:Model/stai_palm_detector.c ****         }
 322:Model/stai_palm_detector.c ****         else // new address is aligned
 323:Model/stai_palm_detector.c ****         {
 324:Model/stai_palm_detector.c ****           LL_ATON_ASSERT(address_location != NULL);
 325:Model/stai_palm_detector.c ****           *address_location = new_address;
 326:Model/stai_palm_detector.c ****         }
 327:Model/stai_palm_detector.c ****       }
ARM GAS  C:\Users\DJESSOU\AppData\Local\Temp\ccruImXQ.s 			page 22


 328:Model/stai_palm_detector.c ****       else // buffer is not user allocatable
 329:Model/stai_palm_detector.c ****       {
 330:Model/stai_palm_detector.c ****         STAI_ASSERT(!buffer_info->is_param);
 331:Model/stai_palm_detector.c ****         if (ATON_LIB_VIRTUAL_TO_PHYSICAL_ADDR(pointers[cnt]) != LL_Buffer_addr_start(out_activ_buff
 332:Model/stai_palm_detector.c ****           __LL_ATON_STAI_SET_1ST_CTX_ERROR_AND_RETURN((_stai_aton_context *)network,
 333:Model/stai_palm_detector.c ****                                                       STAI_ERROR_NETWORK_INVALID_OUT_PTR);
 334:Model/stai_palm_detector.c ****       }
 335:Model/stai_palm_detector.c ****       cnt++;
 336:Model/stai_palm_detector.c ****     }
 337:Model/stai_palm_detector.c ****   }
 338:Model/stai_palm_detector.c ****   else
 339:Model/stai_palm_detector.c ****   {
 340:Model/stai_palm_detector.c ****     STAI_ASSERT((outputs ? STAI_PALM_DETECTOR_OUT_NUM : STAI_PALM_DETECTOR_ACTIVATIONS_NUM) == 0);
 341:Model/stai_palm_detector.c ****   }
 342:Model/stai_palm_detector.c **** #ifndef NDEBUG
 343:Model/stai_palm_detector.c ****   if (outputs)
 344:Model/stai_palm_detector.c ****   {
 345:Model/stai_palm_detector.c ****     STAI_ASSERT(cnt == STAI_PALM_DETECTOR_OUT_NUM);
 346:Model/stai_palm_detector.c ****   }
 347:Model/stai_palm_detector.c ****   else
 348:Model/stai_palm_detector.c ****   {
 349:Model/stai_palm_detector.c ****     STAI_ASSERT(cnt == STAI_PALM_DETECTOR_ACTIVATIONS_NUM);
 350:Model/stai_palm_detector.c ****   }
 351:Model/stai_palm_detector.c **** #endif // !NDEBUG
 352:Model/stai_palm_detector.c **** 
 353:Model/stai_palm_detector.c ****   return STAI_SUCCESS;
 354:Model/stai_palm_detector.c **** }
 212              		.loc 1 354 1 view .LVU56
 213 0038 02B0     		add	sp, sp, #8
 214              		.cfi_remember_state
 215              		.cfi_def_cfa_offset 24
 216              		@ sp needed
 217 003a BDE8F081 		pop	{r4, r5, r6, r7, r8, pc}
 218              	.LVL18:
 219              	.L15:
 220              		.cfi_restore_state
 276:Model/stai_palm_detector.c ****   __LL_ATON_STAI_CHECK_NETWORK_INTERFACE(nn_i_ptr, (_stai_aton_context *)network);
 221              		.loc 1 276 3 is_stmt 1 discriminator 2 view .LVU57
 276:Model/stai_palm_detector.c ****   __LL_ATON_STAI_CHECK_NETWORK_INTERFACE(nn_i_ptr, (_stai_aton_context *)network);
 222              		.loc 1 276 3 discriminator 2 view .LVU58
 279:Model/stai_palm_detector.c ****   if (outputs)
 223              		.loc 1 279 3 view .LVU59
 280:Model/stai_palm_detector.c ****   {
 224              		.loc 1 280 3 view .LVU60
 280:Model/stai_palm_detector.c ****   {
 225              		.loc 1 280 6 is_stmt 0 view .LVU61
 226 003e B8F1000F 		cmp	r8, #0
 227 0042 0DD0     		beq	.L19
 282:Model/stai_palm_detector.c ****   }
 228              		.loc 1 282 5 is_stmt 1 view .LVU62
 282:Model/stai_palm_detector.c ****   }
 229              		.loc 1 282 25 is_stmt 0 view .LVU63
 230 0044 FFF7FEFF 		bl	LL_ATON_Output_Buffers_Info_palm_detector
 231              	.LVL19:
 290:Model/stai_palm_detector.c ****     __LL_ATON_STAI_SET_1ST_CTX_ERROR_AND_RETURN((_stai_aton_context *)network,
 232              		.loc 1 290 3 is_stmt 1 view .LVU64
 290:Model/stai_palm_detector.c ****     __LL_ATON_STAI_SET_1ST_CTX_ERROR_AND_RETURN((_stai_aton_context *)network,
ARM GAS  C:\Users\DJESSOU\AppData\Local\Temp\ccruImXQ.s 			page 23


 233              		.loc 1 290 6 is_stmt 0 view .LVU65
 234 0048 0546     		mov	r5, r0
 235 004a 70B9     		cbnz	r0, .L20
 296:Model/stai_palm_detector.c ****       __LL_ATON_STAI_SET_1ST_CTX_ERROR_AND_RETURN((_stai_aton_context *)network, STAI_ERROR_NETWORK
 236              		.loc 1 296 5 is_stmt 1 view .LVU66
 296:Model/stai_palm_detector.c ****       __LL_ATON_STAI_SET_1ST_CTX_ERROR_AND_RETURN((_stai_aton_context *)network, STAI_ERROR_NETWORK
 237              		.loc 1 296 8 is_stmt 0 view .LVU67
 238 004c 022E     		cmp	r6, #2
 239              	.L64:
 301:Model/stai_palm_detector.c ****       __LL_ATON_STAI_SET_1ST_CTX_ERROR_AND_RETURN((_stai_aton_context *)network, STAI_ERROR_NETWORK
 240              		.loc 1 301 8 view .LVU68
 241 004e 59D0     		beq	.L39
 242              	.L40:
 297:Model/stai_palm_detector.c ****   }
 243              		.loc 1 297 7 is_stmt 1 view .LVU69
 297:Model/stai_palm_detector.c ****   }
 244              		.loc 1 297 7 view .LVU70
 245 0050 002C     		cmp	r4, #0
 246 0052 EFD0     		beq	.L17
 297:Model/stai_palm_detector.c ****   }
 247              		.loc 1 297 7 discriminator 2 view .LVU71
 248 0054 E36B     		ldr	r3, [r4, #60]
 249 0056 B3F5003F 		cmp	r3, #131072
 250 005a 16D3     		bcc	.L27
 251              	.L28:
 297:Model/stai_palm_detector.c ****   }
 252              		.loc 1 297 7 is_stmt 0 discriminator 5 view .LVU72
 253 005c 2C48     		ldr	r0, .L66+4
 254              	.LVL20:
 297:Model/stai_palm_detector.c ****   }
 255              		.loc 1 297 7 discriminator 5 view .LVU73
 256 005e EBE7     		b	.L13
 257              	.LVL21:
 258              	.L19:
 286:Model/stai_palm_detector.c ****   }
 259              		.loc 1 286 5 is_stmt 1 view .LVU74
 286:Model/stai_palm_detector.c ****   }
 260              		.loc 1 286 25 is_stmt 0 view .LVU75
 261 0060 FFF7FEFF 		bl	LL_ATON_Output_Buffers_Info_palm_detector
 262              	.LVL22:
 290:Model/stai_palm_detector.c ****     __LL_ATON_STAI_SET_1ST_CTX_ERROR_AND_RETURN((_stai_aton_context *)network,
 263              		.loc 1 290 3 is_stmt 1 view .LVU76
 290:Model/stai_palm_detector.c ****     __LL_ATON_STAI_SET_1ST_CTX_ERROR_AND_RETURN((_stai_aton_context *)network,
 264              		.loc 1 290 6 is_stmt 0 view .LVU77
 265 0064 0546     		mov	r5, r0
 266 0066 0028     		cmp	r0, #0
 267 0068 4ED0     		beq	.L22
 268              	.L20:
 290:Model/stai_palm_detector.c ****     __LL_ATON_STAI_SET_1ST_CTX_ERROR_AND_RETURN((_stai_aton_context *)network,
 269              		.loc 1 290 25 discriminator 1 view .LVU78
 270 006a 4FB9     		cbnz	r7, .L23
 291:Model/stai_palm_detector.c ****                                                 STAI_ERROR_NETWORK_INVALID_API_ARGUMENTS);
 271              		.loc 1 291 5 is_stmt 1 view .LVU79
 291:Model/stai_palm_detector.c ****                                                 STAI_ERROR_NETWORK_INVALID_API_ARGUMENTS);
 272              		.loc 1 291 5 view .LVU80
 273 006c 002C     		cmp	r4, #0
 274 006e E1D0     		beq	.L17
ARM GAS  C:\Users\DJESSOU\AppData\Local\Temp\ccruImXQ.s 			page 24


 291:Model/stai_palm_detector.c ****                                                 STAI_ERROR_NETWORK_INVALID_API_ARGUMENTS);
 275              		.loc 1 291 5 discriminator 2 view .LVU81
 276 0070 E36B     		ldr	r3, [r4, #60]
 277 0072 B3F5003F 		cmp	r3, #131072
 278 0076 01D2     		bcs	.L24
 291:Model/stai_palm_detector.c ****                                                 STAI_ERROR_NETWORK_INVALID_API_ARGUMENTS);
 279              		.loc 1 291 5 discriminator 3 view .LVU82
 280 0078 264B     		ldr	r3, .L66+8
 281 007a E363     		str	r3, [r4, #60]
 282              	.L24:
 291:Model/stai_palm_detector.c ****                                                 STAI_ERROR_NETWORK_INVALID_API_ARGUMENTS);
 283              		.loc 1 291 5 is_stmt 0 discriminator 5 view .LVU83
 284 007c 2548     		ldr	r0, .L66+8
 285              	.LVL23:
 291:Model/stai_palm_detector.c ****                                                 STAI_ERROR_NETWORK_INVALID_API_ARGUMENTS);
 286              		.loc 1 291 5 discriminator 5 view .LVU84
 287 007e DBE7     		b	.L13
 288              	.LVL24:
 289              	.L23:
 291:Model/stai_palm_detector.c ****                                                 STAI_ERROR_NETWORK_INVALID_API_ARGUMENTS);
 290              		.loc 1 291 5 is_stmt 1 view .LVU85
 294:Model/stai_palm_detector.c ****   {
 291              		.loc 1 294 3 view .LVU86
 294:Model/stai_palm_detector.c ****   {
 292              		.loc 1 294 6 is_stmt 0 view .LVU87
 293 0080 B8F1000F 		cmp	r8, #0
 294 0084 37D1     		bne	.L25
 301:Model/stai_palm_detector.c ****       __LL_ATON_STAI_SET_1ST_CTX_ERROR_AND_RETURN((_stai_aton_context *)network, STAI_ERROR_NETWORK
 295              		.loc 1 301 5 is_stmt 1 view .LVU88
 301:Model/stai_palm_detector.c ****       __LL_ATON_STAI_SET_1ST_CTX_ERROR_AND_RETURN((_stai_aton_context *)network, STAI_ERROR_NETWORK
 296              		.loc 1 301 8 is_stmt 0 view .LVU89
 297 0086 EF2E     		cmp	r6, #239
 298 0088 36E0     		b	.L65
 299              	.L27:
 297:Model/stai_palm_detector.c ****   }
 300              		.loc 1 297 7 is_stmt 1 discriminator 3 view .LVU90
 301 008a 214B     		ldr	r3, .L66+4
 302 008c E363     		str	r3, [r4, #60]
 303 008e E5E7     		b	.L28
 304              	.LVL25:
 305              	.L38:
 306              	.LBB13:
 307              	.LBB14:
 310:Model/stai_palm_detector.c ****       if (buffer_info->is_user_allocated) // is it an user allocatable buffer
 308              		.loc 1 310 7 view .LVU91
 311:Model/stai_palm_detector.c ****       {
 309              		.loc 1 311 7 view .LVU92
 311:Model/stai_palm_detector.c ****       {
 310              		.loc 1 311 10 is_stmt 0 view .LVU93
 311 0090 337D     		ldrb	r3, [r6, #20]	@ zero_extendqisi2
 312 0092 03B3     		cbz	r3, .L31
 313              	.LBB15:
 313:Model/stai_palm_detector.c ****         unsigned char **address_location = (unsigned char **)buffer_info->addr_base.p;
 314              		.loc 1 313 9 is_stmt 1 view .LVU94
 315 0094 B368     		ldr	r3, [r6, #8]
 316 0096 33B1     		cbz	r3, .L32
 313:Model/stai_palm_detector.c ****         unsigned char **address_location = (unsigned char **)buffer_info->addr_base.p;
ARM GAS  C:\Users\DJESSOU\AppData\Local\Temp\ccruImXQ.s 			page 25


 317              		.loc 1 313 9 is_stmt 0 discriminator 1 view .LVU95
 318 0098 40F23911 		movw	r1, #313
 319 009c 1E4B     		ldr	r3, .L66+12
 320 009e 1F4A     		ldr	r2, .L66+16
 321              	.L62:
 324:Model/stai_palm_detector.c ****           *address_location = new_address;
 322              		.loc 1 324 11 discriminator 1 view .LVU96
 323 00a0 1F48     		ldr	r0, .L66+20
 324 00a2 FFF7FEFF 		bl	__assert_func
 325              	.LVL26:
 326              	.L32:
 314:Model/stai_palm_detector.c ****         unsigned char *new_address = pointers[cnt];
 327              		.loc 1 314 9 is_stmt 1 view .LVU97
 315:Model/stai_palm_detector.c **** 
 328              		.loc 1 315 24 is_stmt 0 view .LVU98
 329 00a6 0A68     		ldr	r2, [r1]
 314:Model/stai_palm_detector.c ****         unsigned char *new_address = pointers[cnt];
 330              		.loc 1 314 25 view .LVU99
 331 00a8 7368     		ldr	r3, [r6, #4]
 332              	.LVL27:
 315:Model/stai_palm_detector.c **** 
 333              		.loc 1 315 9 is_stmt 1 view .LVU100
 317:Model/stai_palm_detector.c ****         {                                                                     // new address is not
 334              		.loc 1 317 9 view .LVU101
 317:Model/stai_palm_detector.c ****         {                                                                     // new address is not
 335              		.loc 1 317 12 is_stmt 0 view .LVU102
 336 00aa D006     		lsls	r0, r2, #27
 337 00ac 09D0     		beq	.L33
 319:Model/stai_palm_detector.c ****                                                       STAI_ERROR_INVALID_BUFFER_ALIGNMENT);
 338              		.loc 1 319 11 is_stmt 1 view .LVU103
 319:Model/stai_palm_detector.c ****                                                       STAI_ERROR_INVALID_BUFFER_ALIGNMENT);
 339              		.loc 1 319 11 view .LVU104
 340 00ae 002C     		cmp	r4, #0
 341 00b0 C0D0     		beq	.L17
 319:Model/stai_palm_detector.c ****                                                       STAI_ERROR_INVALID_BUFFER_ALIGNMENT);
 342              		.loc 1 319 11 discriminator 2 view .LVU105
 343 00b2 E36B     		ldr	r3, [r4, #60]
 344              	.LVL28:
 319:Model/stai_palm_detector.c ****                                                       STAI_ERROR_INVALID_BUFFER_ALIGNMENT);
 345              		.loc 1 319 11 is_stmt 0 discriminator 5 view .LVU106
 346 00b4 1B48     		ldr	r0, .L66+24
 319:Model/stai_palm_detector.c ****                                                       STAI_ERROR_INVALID_BUFFER_ALIGNMENT);
 347              		.loc 1 319 11 discriminator 2 view .LVU107
 348 00b6 B3F5003F 		cmp	r3, #131072
 319:Model/stai_palm_detector.c ****                                                       STAI_ERROR_INVALID_BUFFER_ALIGNMENT);
 349              		.loc 1 319 11 is_stmt 1 discriminator 3 view .LVU108
 350 00ba 3CBF     		itt	cc
 351 00bc 194B     		ldrcc	r3, .L66+24
 352 00be E363     		strcc	r3, [r4, #60]
 353 00c0 BAE7     		b	.L13
 354              	.LVL29:
 355              	.L33:
 319:Model/stai_palm_detector.c ****                                                       STAI_ERROR_INVALID_BUFFER_ALIGNMENT);
 356              		.loc 1 319 11 view .LVU109
 324:Model/stai_palm_detector.c ****           *address_location = new_address;
 357              		.loc 1 324 11 view .LVU110
 358 00c2 23B9     		cbnz	r3, .L35
ARM GAS  C:\Users\DJESSOU\AppData\Local\Temp\ccruImXQ.s 			page 26


 324:Model/stai_palm_detector.c ****           *address_location = new_address;
 359              		.loc 1 324 11 is_stmt 0 discriminator 1 view .LVU111
 360 00c4 4FF4A271 		mov	r1, #324
 361 00c8 174B     		ldr	r3, .L66+28
 362              	.LVL30:
 324:Model/stai_palm_detector.c ****           *address_location = new_address;
 363              		.loc 1 324 11 discriminator 1 view .LVU112
 364 00ca 144A     		ldr	r2, .L66+16
 365              	.LVL31:
 324:Model/stai_palm_detector.c ****           *address_location = new_address;
 366              		.loc 1 324 11 discriminator 1 view .LVU113
 367 00cc E8E7     		b	.L62
 368              	.LVL32:
 369              	.L35:
 325:Model/stai_palm_detector.c ****         }
 370              		.loc 1 325 11 is_stmt 1 view .LVU114
 325:Model/stai_palm_detector.c ****         }
 371              		.loc 1 325 29 is_stmt 0 view .LVU115
 372 00ce 1A60     		str	r2, [r3]
 373              	.LVL33:
 374              	.L36:
 325:Model/stai_palm_detector.c ****         }
 375              		.loc 1 325 29 view .LVU116
 376              	.LBE15:
 332:Model/stai_palm_detector.c ****                                                       STAI_ERROR_NETWORK_INVALID_OUT_PTR);
 377              		.loc 1 332 11 is_stmt 1 view .LVU117
 335:Model/stai_palm_detector.c ****     }
 378              		.loc 1 335 7 view .LVU118
 335:Model/stai_palm_detector.c ****     }
 379              		.loc 1 335 7 is_stmt 0 view .LVU119
 380              	.LBE14:
 308:Model/stai_palm_detector.c ****     {
 381              		.loc 1 308 68 is_stmt 1 discriminator 2 view .LVU120
 308:Model/stai_palm_detector.c ****     {
 382              		.loc 1 308 68 is_stmt 0 discriminator 2 view .LVU121
 383 00d0 3836     		adds	r6, r6, #56
 384              	.LVL34:
 308:Model/stai_palm_detector.c ****     {
 385              		.loc 1 308 68 discriminator 2 view .LVU122
 386 00d2 0431     		adds	r1, r1, #4
 387 00d4 13E0     		b	.L30
 388              	.LVL35:
 389              	.L31:
 390              	.LBB16:
 330:Model/stai_palm_detector.c ****         if (ATON_LIB_VIRTUAL_TO_PHYSICAL_ADDR(pointers[cnt]) != LL_Buffer_addr_start(out_activ_buff
 391              		.loc 1 330 9 is_stmt 1 view .LVU123
 330:Model/stai_palm_detector.c ****         if (ATON_LIB_VIRTUAL_TO_PHYSICAL_ADDR(pointers[cnt]) != LL_Buffer_addr_start(out_activ_buff
 392              		.loc 1 330 9 view .LVU124
 330:Model/stai_palm_detector.c ****         if (ATON_LIB_VIRTUAL_TO_PHYSICAL_ADDR(pointers[cnt]) != LL_Buffer_addr_start(out_activ_buff
 393              		.loc 1 330 9 view .LVU125
 330:Model/stai_palm_detector.c ****         if (ATON_LIB_VIRTUAL_TO_PHYSICAL_ADDR(pointers[cnt]) != LL_Buffer_addr_start(out_activ_buff
 394              		.loc 1 330 44 view .LVU126
 331:Model/stai_palm_detector.c ****           __LL_ATON_STAI_SET_1ST_CTX_ERROR_AND_RETURN((_stai_aton_context *)network,
 395              		.loc 1 331 9 view .LVU127
 331:Model/stai_palm_detector.c ****           __LL_ATON_STAI_SET_1ST_CTX_ERROR_AND_RETURN((_stai_aton_context *)network,
 396              		.loc 1 331 65 is_stmt 0 view .LVU128
 397 00d6 2846     		mov	r0, r5
ARM GAS  C:\Users\DJESSOU\AppData\Local\Temp\ccruImXQ.s 			page 27


 398 00d8 FFF7FEFF 		bl	LL_Buffer_addr_start
 399              	.LVL36:
 331:Model/stai_palm_detector.c ****           __LL_ATON_STAI_SET_1ST_CTX_ERROR_AND_RETURN((_stai_aton_context *)network,
 400              		.loc 1 331 13 view .LVU129
 401 00dc 0F68     		ldr	r7, [r1]
 331:Model/stai_palm_detector.c ****           __LL_ATON_STAI_SET_1ST_CTX_ERROR_AND_RETURN((_stai_aton_context *)network,
 402              		.loc 1 331 12 discriminator 1 view .LVU130
 403 00de 8742     		cmp	r7, r0
 404 00e0 F6D0     		beq	.L36
 332:Model/stai_palm_detector.c ****                                                       STAI_ERROR_NETWORK_INVALID_OUT_PTR);
 405              		.loc 1 332 11 is_stmt 1 view .LVU131
 332:Model/stai_palm_detector.c ****                                                       STAI_ERROR_NETWORK_INVALID_OUT_PTR);
 406              		.loc 1 332 11 view .LVU132
 407 00e2 002C     		cmp	r4, #0
 408 00e4 A6D0     		beq	.L17
 332:Model/stai_palm_detector.c ****                                                       STAI_ERROR_NETWORK_INVALID_OUT_PTR);
 409              		.loc 1 332 11 discriminator 2 view .LVU133
 410 00e6 E36B     		ldr	r3, [r4, #60]
 332:Model/stai_palm_detector.c ****                                                       STAI_ERROR_NETWORK_INVALID_OUT_PTR);
 411              		.loc 1 332 11 is_stmt 0 discriminator 5 view .LVU134
 412 00e8 1048     		ldr	r0, .L66+32
 332:Model/stai_palm_detector.c ****                                                       STAI_ERROR_NETWORK_INVALID_OUT_PTR);
 413              		.loc 1 332 11 discriminator 2 view .LVU135
 414 00ea B3F5003F 		cmp	r3, #131072
 332:Model/stai_palm_detector.c ****                                                       STAI_ERROR_NETWORK_INVALID_OUT_PTR);
 415              		.loc 1 332 11 is_stmt 1 discriminator 3 view .LVU136
 416 00ee 3CBF     		itt	cc
 417 00f0 0E4B     		ldrcc	r3, .L66+32
 418 00f2 E363     		strcc	r3, [r4, #60]
 419 00f4 A0E7     		b	.L13
 420              	.LVL37:
 421              	.L25:
 332:Model/stai_palm_detector.c ****                                                       STAI_ERROR_NETWORK_INVALID_OUT_PTR);
 422              		.loc 1 332 11 is_stmt 0 discriminator 3 view .LVU137
 423              	.LBE16:
 424              	.LBE13:
 296:Model/stai_palm_detector.c ****       __LL_ATON_STAI_SET_1ST_CTX_ERROR_AND_RETURN((_stai_aton_context *)network, STAI_ERROR_NETWORK
 425              		.loc 1 296 5 is_stmt 1 view .LVU138
 296:Model/stai_palm_detector.c ****       __LL_ATON_STAI_SET_1ST_CTX_ERROR_AND_RETURN((_stai_aton_context *)network, STAI_ERROR_NETWORK
 426              		.loc 1 296 8 is_stmt 0 view .LVU139
 427 00f6 022E     		cmp	r6, #2
 428              	.L65:
 301:Model/stai_palm_detector.c ****       __LL_ATON_STAI_SET_1ST_CTX_ERROR_AND_RETURN((_stai_aton_context *)network, STAI_ERROR_NETWORK
 429              		.loc 1 301 8 view .LVU140
 430 00f8 AAD1     		bne	.L40
 431              	.LVL38:
 301:Model/stai_palm_detector.c ****       __LL_ATON_STAI_SET_1ST_CTX_ERROR_AND_RETURN((_stai_aton_context *)network, STAI_ERROR_NETWORK
 432              		.loc 1 301 8 view .LVU141
 433 00fa 2E46     		mov	r6, r5
 434              	.LVL39:
 301:Model/stai_palm_detector.c ****       __LL_ATON_STAI_SET_1ST_CTX_ERROR_AND_RETURN((_stai_aton_context *)network, STAI_ERROR_NETWORK
 435              		.loc 1 301 8 view .LVU142
 436 00fc 3946     		mov	r1, r7
 437              	.LVL40:
 438              	.L30:
 439              	.LBB17:
 308:Model/stai_palm_detector.c ****     {
ARM GAS  C:\Users\DJESSOU\AppData\Local\Temp\ccruImXQ.s 			page 28


 440              		.loc 1 308 56 is_stmt 1 discriminator 1 view .LVU143
 441 00fe 3368     		ldr	r3, [r6]
 442 0100 002B     		cmp	r3, #0
 443 0102 C5D1     		bne	.L38
 444              	.L39:
 308:Model/stai_palm_detector.c ****     {
 445              		.loc 1 308 56 is_stmt 0 discriminator 1 view .LVU144
 446              	.LBE17:
 353:Model/stai_palm_detector.c **** }
 447              		.loc 1 353 10 view .LVU145
 448 0104 0020     		movs	r0, #0
 449 0106 97E7     		b	.L13
 450              	.LVL41:
 451              	.L22:
 301:Model/stai_palm_detector.c ****       __LL_ATON_STAI_SET_1ST_CTX_ERROR_AND_RETURN((_stai_aton_context *)network, STAI_ERROR_NETWORK
 452              		.loc 1 301 5 is_stmt 1 view .LVU146
 301:Model/stai_palm_detector.c ****       __LL_ATON_STAI_SET_1ST_CTX_ERROR_AND_RETURN((_stai_aton_context *)network, STAI_ERROR_NETWORK
 453              		.loc 1 301 8 is_stmt 0 view .LVU147
 454 0108 EF2E     		cmp	r6, #239
 455 010a A0E7     		b	.L64
 456              	.L67:
 457              		.align	2
 458              	.L66:
 459 010c 00000000 		.word	NN_Interface_palm_detector
 460 0110 21000400 		.word	262177
 461 0114 01000200 		.word	131073
 462 0118 00000000 		.word	.LC0
 463 011c 00000000 		.word	__func__.0
 464 0120 1F000000 		.word	.LC1
 465 0124 70000400 		.word	262256
 466 0128 3A000000 		.word	.LC2
 467 012c 20000400 		.word	262176
 468              		.cfi_endproc
 469              	.LFE306:
 471              		.section	.rodata.__ll_aton_stai_palm_detector_set_inputs_or_weights.str1.1,"aMS",%progbits,1
 472              	.LC3:
 473 0000 696E7075 		.ascii	"input_buffers != ((void *)0)\000"
 473      745F6275 
 473      66666572 
 473      7320213D 
 473      20282876 
 474              		.section	.text.__ll_aton_stai_palm_detector_set_inputs_or_weights,"ax",%progbits
 475              		.align	1
 476              		.syntax unified
 477              		.thumb
 478              		.thumb_func
 480              	__ll_aton_stai_palm_detector_set_inputs_or_weights:
 481              	.LVL42:
 482              	.LFB305:
 190:Model/stai_palm_detector.c ****   /* check context & network interface handle */
 483              		.loc 1 190 1 is_stmt 1 view -0
 484              		.cfi_startproc
 485              		@ args = 0, pretend = 0, frame = 8
 486              		@ frame_needed = 0, uses_anonymous_args = 0
 192:Model/stai_palm_detector.c ****   __LL_ATON_STAI_CHECK_NETWORK_INTERFACE(nn_i_ptr, (_stai_aton_context *)network);
 487              		.loc 1 192 3 view .LVU149
 190:Model/stai_palm_detector.c ****   /* check context & network interface handle */
ARM GAS  C:\Users\DJESSOU\AppData\Local\Temp\ccruImXQ.s 			page 29


 488              		.loc 1 190 1 is_stmt 0 view .LVU150
 489 0000 2DE9F341 		push	{r0, r1, r4, r5, r6, r7, r8, lr}
 490              		.cfi_def_cfa_offset 32
 491              		.cfi_offset 4, -24
 492              		.cfi_offset 5, -20
 493              		.cfi_offset 6, -16
 494              		.cfi_offset 7, -12
 495              		.cfi_offset 8, -8
 496              		.cfi_offset 14, -4
 190:Model/stai_palm_detector.c ****   /* check context & network interface handle */
 497              		.loc 1 190 1 view .LVU151
 498 0004 1F46     		mov	r7, r3
 192:Model/stai_palm_detector.c ****   __LL_ATON_STAI_CHECK_NETWORK_INTERFACE(nn_i_ptr, (_stai_aton_context *)network);
 499              		.loc 1 192 3 view .LVU152
 500 0006 0023     		movs	r3, #0
 501              	.LVL43:
 190:Model/stai_palm_detector.c ****   /* check context & network interface handle */
 502              		.loc 1 190 1 view .LVU153
 503 0008 0E46     		mov	r6, r1
 192:Model/stai_palm_detector.c ****   __LL_ATON_STAI_CHECK_NETWORK_INTERFACE(nn_i_ptr, (_stai_aton_context *)network);
 504              		.loc 1 192 3 view .LVU154
 505 000a 01A9     		add	r1, sp, #4
 506              	.LVL44:
 190:Model/stai_palm_detector.c ****   /* check context & network interface handle */
 507              		.loc 1 190 1 view .LVU155
 508 000c 0446     		mov	r4, r0
 192:Model/stai_palm_detector.c ****   __LL_ATON_STAI_CHECK_NETWORK_INTERFACE(nn_i_ptr, (_stai_aton_context *)network);
 509              		.loc 1 192 3 view .LVU156
 510 000e 0193     		str	r3, [sp, #4]
 192:Model/stai_palm_detector.c ****   __LL_ATON_STAI_CHECK_NETWORK_INTERFACE(nn_i_ptr, (_stai_aton_context *)network);
 511              		.loc 1 192 3 is_stmt 1 view .LVU157
 512 0010 FFF7FEFF 		bl	__ll_aton_stai_check_context_network_handle.constprop.0
 513              	.LVL45:
 192:Model/stai_palm_detector.c ****   __LL_ATON_STAI_CHECK_NETWORK_INTERFACE(nn_i_ptr, (_stai_aton_context *)network);
 514              		.loc 1 192 3 discriminator 1 view .LVU158
 515 0014 B0F5003F 		cmp	r0, #131072
 190:Model/stai_palm_detector.c ****   /* check context & network interface handle */
 516              		.loc 1 190 1 is_stmt 0 view .LVU159
 517 0018 9046     		mov	r8, r2
 192:Model/stai_palm_detector.c ****   __LL_ATON_STAI_CHECK_NETWORK_INTERFACE(nn_i_ptr, (_stai_aton_context *)network);
 518              		.loc 1 192 3 discriminator 1 view .LVU160
 519 001a 0DD2     		bcs	.L68
 192:Model/stai_palm_detector.c ****   __LL_ATON_STAI_CHECK_NETWORK_INTERFACE(nn_i_ptr, (_stai_aton_context *)network);
 520              		.loc 1 192 54 is_stmt 1 discriminator 2 view .LVU161
 193:Model/stai_palm_detector.c **** 
 521              		.loc 1 193 3 view .LVU162
 193:Model/stai_palm_detector.c **** 
 522              		.loc 1 193 3 view .LVU163
 523 001c 3E4B     		ldr	r3, .L111
 524 001e 019A     		ldr	r2, [sp, #4]
 525              	.LVL46:
 193:Model/stai_palm_detector.c **** 
 526              		.loc 1 193 3 is_stmt 0 view .LVU164
 527 0020 9A42     		cmp	r2, r3
 528 0022 0CD0     		beq	.L70
 193:Model/stai_palm_detector.c **** 
 529              		.loc 1 193 3 is_stmt 1 discriminator 1 view .LVU165
ARM GAS  C:\Users\DJESSOU\AppData\Local\Temp\ccruImXQ.s 			page 30


 193:Model/stai_palm_detector.c **** 
 530              		.loc 1 193 3 discriminator 1 view .LVU166
 531 0024 34B1     		cbz	r4, .L72
 193:Model/stai_palm_detector.c **** 
 532              		.loc 1 193 3 discriminator 4 view .LVU167
 533 0026 E36B     		ldr	r3, [r4, #60]
 534 0028 B3F5003F 		cmp	r3, #131072
 193:Model/stai_palm_detector.c **** 
 535              		.loc 1 193 3 discriminator 5 view .LVU168
 536 002c 3CBF     		itt	cc
 537 002e 4FF44033 		movcc	r3, #196608
 538 0032 E363     		strcc	r3, [r4, #60]
 539              	.LVL47:
 540              	.L72:
 193:Model/stai_palm_detector.c **** 
 541              		.loc 1 193 3 is_stmt 0 discriminator 3 view .LVU169
 542 0034 4FF44030 		mov	r0, #196608
 543              	.L68:
 267:Model/stai_palm_detector.c **** 
 544              		.loc 1 267 1 view .LVU170
 545 0038 02B0     		add	sp, sp, #8
 546              		.cfi_remember_state
 547              		.cfi_def_cfa_offset 24
 548              		@ sp needed
 549 003a BDE8F081 		pop	{r4, r5, r6, r7, r8, pc}
 550              	.LVL48:
 551              	.L70:
 552              		.cfi_restore_state
 193:Model/stai_palm_detector.c **** 
 553              		.loc 1 193 3 is_stmt 1 discriminator 2 view .LVU171
 193:Model/stai_palm_detector.c **** 
 554              		.loc 1 193 3 discriminator 2 view .LVU172
 196:Model/stai_palm_detector.c **** 
 555              		.loc 1 196 3 view .LVU173
 196:Model/stai_palm_detector.c **** 
 556              		.loc 1 196 48 is_stmt 0 view .LVU174
 557 003e FFF7FEFF 		bl	LL_ATON_Input_Buffers_Info_palm_detector
 558              	.LVL49:
 199:Model/stai_palm_detector.c ****   if (input_buffers && !pointers)
 559              		.loc 1 199 3 is_stmt 1 view .LVU175
 560 0042 0546     		mov	r5, r0
 561 0044 28B9     		cbnz	r0, .L74
 199:Model/stai_palm_detector.c ****   if (input_buffers && !pointers)
 562              		.loc 1 199 3 is_stmt 0 discriminator 1 view .LVU176
 563 0046 C721     		movs	r1, #199
 564 0048 344B     		ldr	r3, .L111+4
 565 004a 354A     		ldr	r2, .L111+8
 566              	.LVL50:
 567              	.L110:
 568              	.LBB18:
 569              	.LBB19:
 570              	.LBB20:
 226:Model/stai_palm_detector.c ****           unsigned char **address_location = (unsigned char **)buffer_info->addr_base.p;
 571              		.loc 1 226 11 discriminator 1 view .LVU177
 572 004c 3548     		ldr	r0, .L111+12
 573 004e FFF7FEFF 		bl	__assert_func
 574              	.LVL51:
ARM GAS  C:\Users\DJESSOU\AppData\Local\Temp\ccruImXQ.s 			page 31


 575              	.L74:
 226:Model/stai_palm_detector.c ****           unsigned char **address_location = (unsigned char **)buffer_info->addr_base.p;
 576              		.loc 1 226 11 discriminator 1 view .LVU178
 577              	.LBE20:
 578              	.LBE19:
 579              	.LBE18:
 200:Model/stai_palm_detector.c ****     __LL_ATON_STAI_SET_1ST_CTX_ERROR_AND_RETURN((_stai_aton_context *)network,
 580              		.loc 1 200 3 is_stmt 1 view .LVU179
 200:Model/stai_palm_detector.c ****     __LL_ATON_STAI_SET_1ST_CTX_ERROR_AND_RETURN((_stai_aton_context *)network,
 581              		.loc 1 200 21 is_stmt 0 discriminator 1 view .LVU180
 582 0052 4EB9     		cbnz	r6, .L75
 201:Model/stai_palm_detector.c ****                                                 STAI_ERROR_NETWORK_INVALID_API_ARGUMENTS);
 583              		.loc 1 201 5 is_stmt 1 view .LVU181
 201:Model/stai_palm_detector.c ****                                                 STAI_ERROR_NETWORK_INVALID_API_ARGUMENTS);
 584              		.loc 1 201 5 view .LVU182
 585 0054 002C     		cmp	r4, #0
 586 0056 EDD0     		beq	.L72
 201:Model/stai_palm_detector.c ****                                                 STAI_ERROR_NETWORK_INVALID_API_ARGUMENTS);
 587              		.loc 1 201 5 discriminator 2 view .LVU183
 588 0058 E36B     		ldr	r3, [r4, #60]
 201:Model/stai_palm_detector.c ****                                                 STAI_ERROR_NETWORK_INVALID_API_ARGUMENTS);
 589              		.loc 1 201 5 is_stmt 0 discriminator 5 view .LVU184
 590 005a 3348     		ldr	r0, .L111+16
 591              	.LVL52:
 201:Model/stai_palm_detector.c ****                                                 STAI_ERROR_NETWORK_INVALID_API_ARGUMENTS);
 592              		.loc 1 201 5 discriminator 2 view .LVU185
 593 005c B3F5003F 		cmp	r3, #131072
 201:Model/stai_palm_detector.c ****                                                 STAI_ERROR_NETWORK_INVALID_API_ARGUMENTS);
 594              		.loc 1 201 5 is_stmt 1 discriminator 3 view .LVU186
 595 0060 3CBF     		itt	cc
 596 0062 314B     		ldrcc	r3, .L111+16
 597 0064 E363     		strcc	r3, [r4, #60]
 598 0066 E7E7     		b	.L68
 599              	.LVL53:
 600              	.L75:
 201:Model/stai_palm_detector.c ****                                                 STAI_ERROR_NETWORK_INVALID_API_ARGUMENTS);
 601              		.loc 1 201 5 view .LVU187
 204:Model/stai_palm_detector.c ****   {
 602              		.loc 1 204 3 view .LVU188
 204:Model/stai_palm_detector.c ****   {
 603              		.loc 1 204 6 is_stmt 0 view .LVU189
 604 0068 FFB1     		cbz	r7, .L77
 206:Model/stai_palm_detector.c ****       __LL_ATON_STAI_SET_1ST_CTX_ERROR_AND_RETURN((_stai_aton_context *)network, STAI_ERROR_NETWORK
 605              		.loc 1 206 5 is_stmt 1 view .LVU190
 206:Model/stai_palm_detector.c ****       __LL_ATON_STAI_SET_1ST_CTX_ERROR_AND_RETURN((_stai_aton_context *)network, STAI_ERROR_NETWORK
 606              		.loc 1 206 8 is_stmt 0 view .LVU191
 607 006a B8F1010F 		cmp	r8, #1
 608 006e 12D1     		bne	.L78
 609              	.L81:
 190:Model/stai_palm_detector.c ****   /* check context & network interface handle */
 610              		.loc 1 190 1 view .LVU192
 611 0070 0021     		movs	r1, #0
 612              	.LVL54:
 613              	.L79:
 614              	.LBB26:
 219:Model/stai_palm_detector.c ****     {
 615              		.loc 1 219 52 is_stmt 1 discriminator 1 view .LVU193
ARM GAS  C:\Users\DJESSOU\AppData\Local\Temp\ccruImXQ.s 			page 32


 616 0072 2868     		ldr	r0, [r5]
 617 0074 0028     		cmp	r0, #0
 618 0076 DFD0     		beq	.L68
 619              	.LBB23:
 221:Model/stai_palm_detector.c ****       if (inputs == !buffer_info->is_param)
 620              		.loc 1 221 7 view .LVU194
 621              	.LVL55:
 222:Model/stai_palm_detector.c ****       {
 622              		.loc 1 222 7 view .LVU195
 222:Model/stai_palm_detector.c ****       {
 623              		.loc 1 222 21 is_stmt 0 view .LVU196
 624 0078 6A7D     		ldrb	r2, [r5, #21]	@ zero_extendqisi2
 222:Model/stai_palm_detector.c ****       {
 625              		.loc 1 222 10 view .LVU197
 626 007a B2FA82F2 		clz	r2, r2
 627 007e 5209     		lsrs	r2, r2, #5
 628 0080 BA42     		cmp	r2, r7
 629 0082 35D1     		bne	.L83
 224:Model/stai_palm_detector.c ****         {
 630              		.loc 1 224 9 is_stmt 1 view .LVU198
 224:Model/stai_palm_detector.c ****         {
 631              		.loc 1 224 12 is_stmt 0 view .LVU199
 632 0084 2B7D     		ldrb	r3, [r5, #20]	@ zero_extendqisi2
 633 0086 002B     		cmp	r3, #0
 634 0088 34D0     		beq	.L84
 635              	.LBB21:
 226:Model/stai_palm_detector.c ****           unsigned char **address_location = (unsigned char **)buffer_info->addr_base.p;
 636              		.loc 1 226 11 is_stmt 1 view .LVU200
 637 008a AB68     		ldr	r3, [r5, #8]
 638 008c D3B1     		cbz	r3, .L85
 226:Model/stai_palm_detector.c ****           unsigned char **address_location = (unsigned char **)buffer_info->addr_base.p;
 639              		.loc 1 226 11 is_stmt 0 discriminator 1 view .LVU201
 640 008e E221     		movs	r1, #226
 641              	.LVL56:
 226:Model/stai_palm_detector.c ****           unsigned char **address_location = (unsigned char **)buffer_info->addr_base.p;
 642              		.loc 1 226 11 discriminator 1 view .LVU202
 643 0090 264B     		ldr	r3, .L111+20
 644 0092 234A     		ldr	r2, .L111+8
 645 0094 DAE7     		b	.L110
 646              	.LVL57:
 647              	.L78:
 226:Model/stai_palm_detector.c ****           unsigned char **address_location = (unsigned char **)buffer_info->addr_base.p;
 648              		.loc 1 226 11 discriminator 1 view .LVU203
 649              	.LBE21:
 650              	.LBE23:
 651              	.LBE26:
 207:Model/stai_palm_detector.c ****   }
 652              		.loc 1 207 7 is_stmt 1 view .LVU204
 207:Model/stai_palm_detector.c ****   }
 653              		.loc 1 207 7 view .LVU205
 654 0096 002C     		cmp	r4, #0
 655 0098 CCD0     		beq	.L72
 207:Model/stai_palm_detector.c ****   }
 656              		.loc 1 207 7 discriminator 2 view .LVU206
 657 009a E36B     		ldr	r3, [r4, #60]
 207:Model/stai_palm_detector.c ****   }
 658              		.loc 1 207 7 is_stmt 0 discriminator 5 view .LVU207
ARM GAS  C:\Users\DJESSOU\AppData\Local\Temp\ccruImXQ.s 			page 33


 659 009c 2448     		ldr	r0, .L111+24
 660              	.LVL58:
 207:Model/stai_palm_detector.c ****   }
 661              		.loc 1 207 7 discriminator 2 view .LVU208
 662 009e B3F5003F 		cmp	r3, #131072
 207:Model/stai_palm_detector.c ****   }
 663              		.loc 1 207 7 is_stmt 1 discriminator 3 view .LVU209
 664 00a2 3CBF     		itt	cc
 665 00a4 224B     		ldrcc	r3, .L111+24
 666 00a6 E363     		strcc	r3, [r4, #60]
 667 00a8 C6E7     		b	.L68
 668              	.LVL59:
 669              	.L77:
 211:Model/stai_palm_detector.c ****       __LL_ATON_STAI_SET_1ST_CTX_ERROR_AND_RETURN((_stai_aton_context *)network,
 670              		.loc 1 211 5 view .LVU210
 211:Model/stai_palm_detector.c ****       __LL_ATON_STAI_SET_1ST_CTX_ERROR_AND_RETURN((_stai_aton_context *)network,
 671              		.loc 1 211 8 is_stmt 0 view .LVU211
 672 00aa B8F1000F 		cmp	r8, #0
 673 00ae DFD0     		beq	.L81
 212:Model/stai_palm_detector.c ****                                                   STAI_ERROR_NETWORK_INVALID_WEIGHTS_NUM);
 674              		.loc 1 212 7 is_stmt 1 view .LVU212
 212:Model/stai_palm_detector.c ****                                                   STAI_ERROR_NETWORK_INVALID_WEIGHTS_NUM);
 675              		.loc 1 212 7 view .LVU213
 676 00b0 002C     		cmp	r4, #0
 677 00b2 BFD0     		beq	.L72
 212:Model/stai_palm_detector.c ****                                                   STAI_ERROR_NETWORK_INVALID_WEIGHTS_NUM);
 678              		.loc 1 212 7 discriminator 2 view .LVU214
 679 00b4 E36B     		ldr	r3, [r4, #60]
 212:Model/stai_palm_detector.c ****                                                   STAI_ERROR_NETWORK_INVALID_WEIGHTS_NUM);
 680              		.loc 1 212 7 is_stmt 0 discriminator 5 view .LVU215
 681 00b6 1F48     		ldr	r0, .L111+28
 682              	.LVL60:
 212:Model/stai_palm_detector.c ****                                                   STAI_ERROR_NETWORK_INVALID_WEIGHTS_NUM);
 683              		.loc 1 212 7 discriminator 2 view .LVU216
 684 00b8 B3F5003F 		cmp	r3, #131072
 212:Model/stai_palm_detector.c ****                                                   STAI_ERROR_NETWORK_INVALID_WEIGHTS_NUM);
 685              		.loc 1 212 7 is_stmt 1 discriminator 3 view .LVU217
 686 00bc 3CBF     		itt	cc
 687 00be 1D4B     		ldrcc	r3, .L111+28
 688 00c0 E363     		strcc	r3, [r4, #60]
 689 00c2 B9E7     		b	.L68
 690              	.LVL61:
 691              	.L85:
 692              	.LBB27:
 693              	.LBB24:
 694              	.LBB22:
 227:Model/stai_palm_detector.c ****           unsigned char *new_address = pointers[cnt];
 695              		.loc 1 227 11 view .LVU218
 228:Model/stai_palm_detector.c **** 
 696              		.loc 1 228 26 is_stmt 0 view .LVU219
 697 00c4 56F82120 		ldr	r2, [r6, r1, lsl #2]
 227:Model/stai_palm_detector.c ****           unsigned char *new_address = pointers[cnt];
 698              		.loc 1 227 27 view .LVU220
 699 00c8 6B68     		ldr	r3, [r5, #4]
 700              	.LVL62:
 228:Model/stai_palm_detector.c **** 
 701              		.loc 1 228 11 is_stmt 1 view .LVU221
ARM GAS  C:\Users\DJESSOU\AppData\Local\Temp\ccruImXQ.s 			page 34


 230:Model/stai_palm_detector.c ****           {                                                                     // new address is n
 702              		.loc 1 230 11 view .LVU222
 230:Model/stai_palm_detector.c ****           {                                                                     // new address is n
 703              		.loc 1 230 14 is_stmt 0 view .LVU223
 704 00ca D006     		lsls	r0, r2, #27
 705 00cc 09D0     		beq	.L86
 232:Model/stai_palm_detector.c ****                                                         STAI_ERROR_INVALID_BUFFER_ALIGNMENT);
 706              		.loc 1 232 13 is_stmt 1 view .LVU224
 232:Model/stai_palm_detector.c ****                                                         STAI_ERROR_INVALID_BUFFER_ALIGNMENT);
 707              		.loc 1 232 13 view .LVU225
 708 00ce 002C     		cmp	r4, #0
 709 00d0 B0D0     		beq	.L72
 232:Model/stai_palm_detector.c ****                                                         STAI_ERROR_INVALID_BUFFER_ALIGNMENT);
 710              		.loc 1 232 13 discriminator 2 view .LVU226
 711 00d2 E36B     		ldr	r3, [r4, #60]
 712              	.LVL63:
 232:Model/stai_palm_detector.c ****                                                         STAI_ERROR_INVALID_BUFFER_ALIGNMENT);
 713              		.loc 1 232 13 is_stmt 0 discriminator 5 view .LVU227
 714 00d4 1848     		ldr	r0, .L111+32
 232:Model/stai_palm_detector.c ****                                                         STAI_ERROR_INVALID_BUFFER_ALIGNMENT);
 715              		.loc 1 232 13 discriminator 2 view .LVU228
 716 00d6 B3F5003F 		cmp	r3, #131072
 232:Model/stai_palm_detector.c ****                                                         STAI_ERROR_INVALID_BUFFER_ALIGNMENT);
 717              		.loc 1 232 13 is_stmt 1 discriminator 3 view .LVU229
 718 00da 3CBF     		itt	cc
 719 00dc 164B     		ldrcc	r3, .L111+32
 720 00de E363     		strcc	r3, [r4, #60]
 721 00e0 AAE7     		b	.L68
 722              	.LVL64:
 723              	.L86:
 232:Model/stai_palm_detector.c ****                                                         STAI_ERROR_INVALID_BUFFER_ALIGNMENT);
 724              		.loc 1 232 13 view .LVU230
 237:Model/stai_palm_detector.c ****             *address_location = new_address;
 725              		.loc 1 237 13 view .LVU231
 726 00e2 1BB9     		cbnz	r3, .L88
 237:Model/stai_palm_detector.c ****             *address_location = new_address;
 727              		.loc 1 237 13 is_stmt 0 discriminator 1 view .LVU232
 728 00e4 ED21     		movs	r1, #237
 729              	.LVL65:
 237:Model/stai_palm_detector.c ****             *address_location = new_address;
 730              		.loc 1 237 13 discriminator 1 view .LVU233
 731 00e6 154B     		ldr	r3, .L111+36
 732              	.LVL66:
 237:Model/stai_palm_detector.c ****             *address_location = new_address;
 733              		.loc 1 237 13 discriminator 1 view .LVU234
 734 00e8 0D4A     		ldr	r2, .L111+8
 735              	.LVL67:
 237:Model/stai_palm_detector.c ****             *address_location = new_address;
 736              		.loc 1 237 13 discriminator 1 view .LVU235
 737 00ea AFE7     		b	.L110
 738              	.LVL68:
 739              	.L88:
 238:Model/stai_palm_detector.c ****           }
 740              		.loc 1 238 13 is_stmt 1 view .LVU236
 238:Model/stai_palm_detector.c ****           }
 741              		.loc 1 238 31 is_stmt 0 view .LVU237
 742 00ec 1A60     		str	r2, [r3]
ARM GAS  C:\Users\DJESSOU\AppData\Local\Temp\ccruImXQ.s 			page 35


 743              	.LVL69:
 744              	.L89:
 238:Model/stai_palm_detector.c ****           }
 745              		.loc 1 238 31 view .LVU238
 746              	.LBE22:
 244:Model/stai_palm_detector.c ****                                                         STAI_ERROR_NETWORK_INVALID_IN_PTR);
 747              		.loc 1 244 13 is_stmt 1 view .LVU239
 247:Model/stai_palm_detector.c ****       }
 748              		.loc 1 247 9 view .LVU240
 247:Model/stai_palm_detector.c ****       }
 749              		.loc 1 247 12 is_stmt 0 view .LVU241
 750 00ee 0131     		adds	r1, r1, #1
 751              	.LVL70:
 752              	.L83:
 247:Model/stai_palm_detector.c ****       }
 753              		.loc 1 247 12 view .LVU242
 754              	.LBE24:
 219:Model/stai_palm_detector.c ****     {
 755              		.loc 1 219 64 is_stmt 1 discriminator 2 view .LVU243
 756 00f0 3835     		adds	r5, r5, #56
 757              	.LVL71:
 219:Model/stai_palm_detector.c ****     {
 758              		.loc 1 219 64 is_stmt 0 discriminator 2 view .LVU244
 759 00f2 BEE7     		b	.L79
 760              	.LVL72:
 761              	.L84:
 762              	.LBB25:
 243:Model/stai_palm_detector.c ****             __LL_ATON_STAI_SET_1ST_CTX_ERROR_AND_RETURN((_stai_aton_context *)network,
 763              		.loc 1 243 11 is_stmt 1 view .LVU245
 243:Model/stai_palm_detector.c ****             __LL_ATON_STAI_SET_1ST_CTX_ERROR_AND_RETURN((_stai_aton_context *)network,
 764              		.loc 1 243 67 is_stmt 0 view .LVU246
 765 00f4 2846     		mov	r0, r5
 766 00f6 FFF7FEFF 		bl	LL_Buffer_addr_start
 767              	.LVL73:
 243:Model/stai_palm_detector.c ****             __LL_ATON_STAI_SET_1ST_CTX_ERROR_AND_RETURN((_stai_aton_context *)network,
 768              		.loc 1 243 15 view .LVU247
 769 00fa 56F82180 		ldr	r8, [r6, r1, lsl #2]
 243:Model/stai_palm_detector.c ****             __LL_ATON_STAI_SET_1ST_CTX_ERROR_AND_RETURN((_stai_aton_context *)network,
 770              		.loc 1 243 14 discriminator 1 view .LVU248
 771 00fe 8045     		cmp	r8, r0
 772 0100 F5D0     		beq	.L89
 244:Model/stai_palm_detector.c ****                                                         STAI_ERROR_NETWORK_INVALID_IN_PTR);
 773              		.loc 1 244 13 is_stmt 1 view .LVU249
 244:Model/stai_palm_detector.c ****                                                         STAI_ERROR_NETWORK_INVALID_IN_PTR);
 774              		.loc 1 244 13 view .LVU250
 775 0102 002C     		cmp	r4, #0
 776 0104 96D0     		beq	.L72
 244:Model/stai_palm_detector.c ****                                                         STAI_ERROR_NETWORK_INVALID_IN_PTR);
 777              		.loc 1 244 13 discriminator 2 view .LVU251
 778 0106 E36B     		ldr	r3, [r4, #60]
 244:Model/stai_palm_detector.c ****                                                         STAI_ERROR_NETWORK_INVALID_IN_PTR);
 779              		.loc 1 244 13 is_stmt 0 discriminator 5 view .LVU252
 780 0108 0D48     		ldr	r0, .L111+40
 244:Model/stai_palm_detector.c ****                                                         STAI_ERROR_NETWORK_INVALID_IN_PTR);
 781              		.loc 1 244 13 discriminator 2 view .LVU253
 782 010a B3F5003F 		cmp	r3, #131072
 244:Model/stai_palm_detector.c ****                                                         STAI_ERROR_NETWORK_INVALID_IN_PTR);
ARM GAS  C:\Users\DJESSOU\AppData\Local\Temp\ccruImXQ.s 			page 36


 783              		.loc 1 244 13 is_stmt 1 discriminator 3 view .LVU254
 784 010e 3CBF     		itt	cc
 785 0110 0B4B     		ldrcc	r3, .L111+40
 786 0112 E363     		strcc	r3, [r4, #60]
 787 0114 90E7     		b	.L68
 788              	.L112:
 789 0116 00BF     		.align	2
 790              	.L111:
 791 0118 00000000 		.word	NN_Interface_palm_detector
 792 011c 00000000 		.word	.LC3
 793 0120 00000000 		.word	__func__.1
 794 0124 1F000000 		.word	.LC1
 795 0128 01000200 		.word	131073
 796 012c 00000000 		.word	.LC0
 797 0130 11000400 		.word	262161
 798 0134 41000400 		.word	262209
 799 0138 70000400 		.word	262256
 800 013c 3A000000 		.word	.LC2
 801 0140 10000400 		.word	262160
 802              	.LBE25:
 803              	.LBE27:
 804              		.cfi_endproc
 805              	.LFE305:
 807              		.section	.rodata.__ll_aton_stai_palm_detector_get_outputs_or_activations.str1.1,"aMS",%progbits,1
 808              	.LC4:
 809 0000 28287569 		.ascii	"((uintptr_t)pointers[cnt] % (32)) == 0\000"
 809      6E747074 
 809      725F7429 
 809      706F696E 
 809      74657273 
 810              		.section	.text.__ll_aton_stai_palm_detector_get_outputs_or_activations,"ax",%progbits
 811              		.align	1
 812              		.syntax unified
 813              		.thumb
 814              		.thumb_func
 816              	__ll_aton_stai_palm_detector_get_outputs_or_activations:
 817              	.LVL74:
 818              	.LFB304:
 113:Model/stai_palm_detector.c ****   /* check context & network interface handle */
 819              		.loc 1 113 1 view -0
 820              		.cfi_startproc
 821              		@ args = 0, pretend = 0, frame = 8
 822              		@ frame_needed = 0, uses_anonymous_args = 0
 113:Model/stai_palm_detector.c ****   /* check context & network interface handle */
 823              		.loc 1 113 1 is_stmt 0 view .LVU256
 824 0000 F7B5     		push	{r0, r1, r2, r4, r5, r6, r7, lr}
 825              		.cfi_def_cfa_offset 32
 826              		.cfi_offset 4, -20
 827              		.cfi_offset 5, -16
 828              		.cfi_offset 6, -12
 829              		.cfi_offset 7, -8
 830              		.cfi_offset 14, -4
 113:Model/stai_palm_detector.c ****   /* check context & network interface handle */
 831              		.loc 1 113 1 view .LVU257
 832 0002 1E46     		mov	r6, r3
 115:Model/stai_palm_detector.c ****   __LL_ATON_STAI_CHECK_NETWORK_INTERFACE(nn_i_ptr, (_stai_aton_context *)network);
 833              		.loc 1 115 3 view .LVU258
ARM GAS  C:\Users\DJESSOU\AppData\Local\Temp\ccruImXQ.s 			page 37


 834 0004 0023     		movs	r3, #0
 835              	.LVL75:
 113:Model/stai_palm_detector.c ****   /* check context & network interface handle */
 836              		.loc 1 113 1 view .LVU259
 837 0006 0F46     		mov	r7, r1
 115:Model/stai_palm_detector.c ****   __LL_ATON_STAI_CHECK_NETWORK_INTERFACE(nn_i_ptr, (_stai_aton_context *)network);
 838              		.loc 1 115 3 view .LVU260
 839 0008 01A9     		add	r1, sp, #4
 840              	.LVL76:
 113:Model/stai_palm_detector.c ****   /* check context & network interface handle */
 841              		.loc 1 113 1 view .LVU261
 842 000a 0446     		mov	r4, r0
 115:Model/stai_palm_detector.c ****   __LL_ATON_STAI_CHECK_NETWORK_INTERFACE(nn_i_ptr, (_stai_aton_context *)network);
 843              		.loc 1 115 3 view .LVU262
 844 000c 0193     		str	r3, [sp, #4]
 845 000e FFF7FEFF 		bl	__ll_aton_stai_check_context_network_handle.constprop.0
 846              	.LVL77:
 115:Model/stai_palm_detector.c ****   __LL_ATON_STAI_CHECK_NETWORK_INTERFACE(nn_i_ptr, (_stai_aton_context *)network);
 847              		.loc 1 115 3 discriminator 1 view .LVU263
 848 0012 B0F5003F 		cmp	r0, #131072
 113:Model/stai_palm_detector.c ****   /* check context & network interface handle */
 849              		.loc 1 113 1 view .LVU264
 850 0016 1546     		mov	r5, r2
 115:Model/stai_palm_detector.c ****   __LL_ATON_STAI_CHECK_NETWORK_INTERFACE(nn_i_ptr, (_stai_aton_context *)network);
 851              		.loc 1 115 3 is_stmt 1 view .LVU265
 115:Model/stai_palm_detector.c ****   __LL_ATON_STAI_CHECK_NETWORK_INTERFACE(nn_i_ptr, (_stai_aton_context *)network);
 852              		.loc 1 115 3 view .LVU266
 853              	.LVL78:
 115:Model/stai_palm_detector.c ****   __LL_ATON_STAI_CHECK_NETWORK_INTERFACE(nn_i_ptr, (_stai_aton_context *)network);
 854              		.loc 1 115 3 discriminator 1 view .LVU267
 855 0018 0DD2     		bcs	.L113
 115:Model/stai_palm_detector.c ****   __LL_ATON_STAI_CHECK_NETWORK_INTERFACE(nn_i_ptr, (_stai_aton_context *)network);
 856              		.loc 1 115 54 discriminator 2 view .LVU268
 116:Model/stai_palm_detector.c **** 
 857              		.loc 1 116 3 view .LVU269
 116:Model/stai_palm_detector.c **** 
 858              		.loc 1 116 3 view .LVU270
 859 001a 254B     		ldr	r3, .L144
 860 001c 019A     		ldr	r2, [sp, #4]
 861              	.LVL79:
 116:Model/stai_palm_detector.c **** 
 862              		.loc 1 116 3 is_stmt 0 view .LVU271
 863 001e 9A42     		cmp	r2, r3
 864 0020 0BD0     		beq	.L115
 116:Model/stai_palm_detector.c **** 
 865              		.loc 1 116 3 is_stmt 1 discriminator 1 view .LVU272
 116:Model/stai_palm_detector.c **** 
 866              		.loc 1 116 3 discriminator 1 view .LVU273
 867 0022 34B1     		cbz	r4, .L116
 116:Model/stai_palm_detector.c **** 
 868              		.loc 1 116 3 discriminator 4 view .LVU274
 869 0024 E36B     		ldr	r3, [r4, #60]
 870 0026 B3F5003F 		cmp	r3, #131072
 116:Model/stai_palm_detector.c **** 
 871              		.loc 1 116 3 discriminator 5 view .LVU275
 872 002a 3CBF     		itt	cc
 873 002c 4FF44033 		movcc	r3, #196608
ARM GAS  C:\Users\DJESSOU\AppData\Local\Temp\ccruImXQ.s 			page 38


 874 0030 E363     		strcc	r3, [r4, #60]
 875              	.L116:
 116:Model/stai_palm_detector.c **** 
 876              		.loc 1 116 3 is_stmt 0 discriminator 3 view .LVU276
 877 0032 4FF44030 		mov	r0, #196608
 878              	.LVL80:
 879              	.L113:
 184:Model/stai_palm_detector.c **** 
 880              		.loc 1 184 1 view .LVU277
 881 0036 03B0     		add	sp, sp, #12
 882              		.cfi_remember_state
 883              		.cfi_def_cfa_offset 20
 884              		@ sp needed
 885 0038 F0BD     		pop	{r4, r5, r6, r7, pc}
 886              	.LVL81:
 887              	.L115:
 888              		.cfi_restore_state
 116:Model/stai_palm_detector.c **** 
 889              		.loc 1 116 3 is_stmt 1 discriminator 2 view .LVU278
 116:Model/stai_palm_detector.c **** 
 890              		.loc 1 116 3 discriminator 2 view .LVU279
 119:Model/stai_palm_detector.c ****     __LL_ATON_STAI_SET_1ST_CTX_ERROR_AND_RETURN((_stai_aton_context *)network,
 891              		.loc 1 119 3 view .LVU280
 119:Model/stai_palm_detector.c ****     __LL_ATON_STAI_SET_1ST_CTX_ERROR_AND_RETURN((_stai_aton_context *)network,
 892              		.loc 1 119 6 is_stmt 0 view .LVU281
 893 003a 4DB9     		cbnz	r5, .L117
 120:Model/stai_palm_detector.c ****                                                 STAI_ERROR_NETWORK_INVALID_API_ARGUMENTS);
 894              		.loc 1 120 5 is_stmt 1 view .LVU282
 120:Model/stai_palm_detector.c ****                                                 STAI_ERROR_NETWORK_INVALID_API_ARGUMENTS);
 895              		.loc 1 120 5 view .LVU283
 896 003c 002C     		cmp	r4, #0
 897 003e F8D0     		beq	.L116
 120:Model/stai_palm_detector.c ****                                                 STAI_ERROR_NETWORK_INVALID_API_ARGUMENTS);
 898              		.loc 1 120 5 discriminator 2 view .LVU284
 899 0040 E36B     		ldr	r3, [r4, #60]
 900 0042 B3F5003F 		cmp	r3, #131072
 901 0046 01D2     		bcs	.L118
 120:Model/stai_palm_detector.c ****                                                 STAI_ERROR_NETWORK_INVALID_API_ARGUMENTS);
 902              		.loc 1 120 5 discriminator 3 view .LVU285
 903 0048 1A4B     		ldr	r3, .L144+4
 904 004a E363     		str	r3, [r4, #60]
 905              	.L118:
 120:Model/stai_palm_detector.c ****                                                 STAI_ERROR_NETWORK_INVALID_API_ARGUMENTS);
 906              		.loc 1 120 5 is_stmt 0 discriminator 5 view .LVU286
 907 004c 1948     		ldr	r0, .L144+4
 908              	.LVL82:
 120:Model/stai_palm_detector.c ****                                                 STAI_ERROR_NETWORK_INVALID_API_ARGUMENTS);
 909              		.loc 1 120 5 discriminator 5 view .LVU287
 910 004e F2E7     		b	.L113
 911              	.LVL83:
 912              	.L117:
 120:Model/stai_palm_detector.c ****                                                 STAI_ERROR_NETWORK_INVALID_API_ARGUMENTS);
 913              		.loc 1 120 5 is_stmt 1 view .LVU288
 124:Model/stai_palm_detector.c ****   if (outputs)
 914              		.loc 1 124 3 view .LVU289
 125:Model/stai_palm_detector.c ****   {
 915              		.loc 1 125 3 view .LVU290
ARM GAS  C:\Users\DJESSOU\AppData\Local\Temp\ccruImXQ.s 			page 39


 125:Model/stai_palm_detector.c ****   {
 916              		.loc 1 125 6 is_stmt 0 view .LVU291
 917 0050 36B1     		cbz	r6, .L119
 127:Model/stai_palm_detector.c ****   }
 918              		.loc 1 127 5 is_stmt 1 view .LVU292
 127:Model/stai_palm_detector.c ****   }
 919              		.loc 1 127 25 is_stmt 0 view .LVU293
 920 0052 FFF7FEFF 		bl	LL_ATON_Output_Buffers_Info_palm_detector
 921              	.LVL84:
 135:Model/stai_palm_detector.c ****   if (out_activ_buffers != NULL)
 922              		.loc 1 135 3 is_stmt 1 view .LVU294
 136:Model/stai_palm_detector.c ****   {
 923              		.loc 1 136 3 view .LVU295
 136:Model/stai_palm_detector.c ****   {
 924              		.loc 1 136 6 is_stmt 0 view .LVU296
 925 0056 30B9     		cbnz	r0, .L120
 926              	.LVL85:
 927              	.L129:
 176:Model/stai_palm_detector.c ****   }
 928              		.loc 1 176 5 is_stmt 1 view .LVU297
 929 0058 0223     		movs	r3, #2
 930              	.L130:
 183:Model/stai_palm_detector.c **** }
 931              		.loc 1 183 10 is_stmt 0 view .LVU298
 932 005a 0020     		movs	r0, #0
 176:Model/stai_palm_detector.c ****   }
 933              		.loc 1 176 13 view .LVU299
 934 005c 2B60     		str	r3, [r5]
 935 005e EAE7     		b	.L113
 936              	.LVL86:
 937              	.L119:
 131:Model/stai_palm_detector.c ****   }
 938              		.loc 1 131 5 is_stmt 1 view .LVU300
 131:Model/stai_palm_detector.c ****   }
 939              		.loc 1 131 25 is_stmt 0 view .LVU301
 940 0060 FFF7FEFF 		bl	LL_ATON_Internal_Buffers_Info_palm_detector
 941              	.LVL87:
 135:Model/stai_palm_detector.c ****   if (out_activ_buffers != NULL)
 942              		.loc 1 135 3 is_stmt 1 view .LVU302
 136:Model/stai_palm_detector.c ****   {
 943              		.loc 1 136 3 view .LVU303
 136:Model/stai_palm_detector.c ****   {
 944              		.loc 1 136 6 is_stmt 0 view .LVU304
 945 0064 28B1     		cbz	r0, .L121
 946              	.L120:
 136:Model/stai_palm_detector.c ****   {
 947              		.loc 1 136 6 view .LVU305
 948 0066 0446     		mov	r4, r0
 949              	.LVL88:
 136:Model/stai_palm_detector.c ****   {
 950              		.loc 1 136 6 view .LVU306
 951 0068 3946     		mov	r1, r7
 952              	.LVL89:
 953              	.L122:
 954              	.LBB34:
 138:Model/stai_palm_detector.c ****     {
 955              		.loc 1 138 56 is_stmt 1 discriminator 1 view .LVU307
ARM GAS  C:\Users\DJESSOU\AppData\Local\Temp\ccruImXQ.s 			page 40


 956 006a 2368     		ldr	r3, [r4]
 957 006c 1BB9     		cbnz	r3, .L128
 958              	.LBE34:
 160:Model/stai_palm_detector.c ****   }
 959              		.loc 1 160 5 view .LVU308
 160:Model/stai_palm_detector.c ****   }
 960              		.loc 1 160 5 view .LVU309
 160:Model/stai_palm_detector.c ****   }
 961              		.loc 1 160 5 view .LVU310
 160:Model/stai_palm_detector.c ****   }
 962              		.loc 1 160 98 view .LVU311
 163:Model/stai_palm_detector.c ****   {
 963              		.loc 1 163 3 view .LVU312
 165:Model/stai_palm_detector.c ****   }
 964              		.loc 1 165 5 view .LVU313
 165:Model/stai_palm_detector.c ****   }
 965              		.loc 1 165 5 view .LVU314
 165:Model/stai_palm_detector.c ****   }
 966              		.loc 1 165 5 view .LVU315
 165:Model/stai_palm_detector.c ****   }
 967              		.loc 1 165 51 view .LVU316
 169:Model/stai_palm_detector.c ****   }
 968              		.loc 1 169 5 view .LVU317
 169:Model/stai_palm_detector.c ****   }
 969              		.loc 1 169 5 view .LVU318
 169:Model/stai_palm_detector.c ****   }
 970              		.loc 1 169 5 view .LVU319
 169:Model/stai_palm_detector.c ****   }
 971              		.loc 1 169 59 view .LVU320
 174:Model/stai_palm_detector.c ****   {
 972              		.loc 1 174 3 view .LVU321
 174:Model/stai_palm_detector.c ****   {
 973              		.loc 1 174 6 is_stmt 0 view .LVU322
 974 006e 002E     		cmp	r6, #0
 975 0070 F2D1     		bne	.L129
 976              	.LVL90:
 977              	.L121:
 180:Model/stai_palm_detector.c ****   }
 978              		.loc 1 180 5 is_stmt 1 view .LVU323
 979 0072 EF23     		movs	r3, #239
 980 0074 F1E7     		b	.L130
 981              	.LVL91:
 982              	.L128:
 983              	.LBB38:
 984              	.LBB35:
 140:Model/stai_palm_detector.c ****       STAI_ASSERT(!buffer_info->is_param); // may never happen
 985              		.loc 1 140 7 view .LVU324
 141:Model/stai_palm_detector.c ****       if (pointers)
 986              		.loc 1 141 7 view .LVU325
 141:Model/stai_palm_detector.c ****       if (pointers)
 987              		.loc 1 141 7 view .LVU326
 141:Model/stai_palm_detector.c ****       if (pointers)
 988              		.loc 1 141 7 view .LVU327
 141:Model/stai_palm_detector.c ****       if (pointers)
 989              		.loc 1 141 42 view .LVU328
 142:Model/stai_palm_detector.c ****       {
 990              		.loc 1 142 7 view .LVU329
ARM GAS  C:\Users\DJESSOU\AppData\Local\Temp\ccruImXQ.s 			page 41


 142:Model/stai_palm_detector.c ****       {
 991              		.loc 1 142 10 is_stmt 0 view .LVU330
 992 0076 BFB1     		cbz	r7, .L124
 144:Model/stai_palm_detector.c ****         {
 993              		.loc 1 144 9 is_stmt 1 view .LVU331
 144:Model/stai_palm_detector.c ****         {
 994              		.loc 1 144 12 is_stmt 0 view .LVU332
 995 0078 237D     		ldrb	r3, [r4, #20]	@ zero_extendqisi2
 996 007a 8BB1     		cbz	r3, .L125
 146:Model/stai_palm_detector.c ****           pointers[cnt] = LL_Buffer_addr_start(buffer_info); // user allocated buffers are saved wi
 997              		.loc 1 146 11 is_stmt 1 view .LVU333
 998 007c A368     		ldr	r3, [r4, #8]
 999 007e 2BB1     		cbz	r3, .L126
 146:Model/stai_palm_detector.c ****           pointers[cnt] = LL_Buffer_addr_start(buffer_info); // user allocated buffers are saved wi
 1000              		.loc 1 146 11 is_stmt 0 discriminator 1 view .LVU334
 1001 0080 9221     		movs	r1, #146
 1002 0082 0D4B     		ldr	r3, .L144+8
 1003 0084 0D4A     		ldr	r2, .L144+12
 1004              	.L143:
 146:Model/stai_palm_detector.c ****           pointers[cnt] = LL_Buffer_addr_start(buffer_info); // user allocated buffers are saved wi
 1005              		.loc 1 146 11 discriminator 1 view .LVU335
 1006              	.LBE35:
 1007              	.LBE38:
 1008              	.LBB39:
 1009              	.LBB40:
 1010              	.LBB41:
 1011              	.LBB42:
 148:Model/stai_palm_detector.c ****         }
 1012              		.loc 1 148 11 discriminator 1 view .LVU336
 1013 0086 0E48     		ldr	r0, .L144+16
 1014 0088 FFF7FEFF 		bl	__assert_func
 1015              	.LVL92:
 1016              	.L126:
 148:Model/stai_palm_detector.c ****         }
 1017              		.loc 1 148 11 discriminator 1 view .LVU337
 1018              	.LBE42:
 1019              	.LBE41:
 1020              	.LBE40:
 1021              	.LBE39:
 1022              	.LBB46:
 1023              	.LBB36:
 147:Model/stai_palm_detector.c ****           LL_ATON_ASSERT(((uintptr_t)pointers[cnt] % STAI_CACHE_USER_BUFFER_ALIGNMENT) == 0);
 1024              		.loc 1 147 11 is_stmt 1 view .LVU338
 147:Model/stai_palm_detector.c ****           LL_ATON_ASSERT(((uintptr_t)pointers[cnt] % STAI_CACHE_USER_BUFFER_ALIGNMENT) == 0);
 1025              		.loc 1 147 27 is_stmt 0 view .LVU339
 1026 008c 2046     		mov	r0, r4
 1027 008e FFF7FEFF 		bl	LL_Buffer_addr_start
 1028              	.LVL93:
 148:Model/stai_palm_detector.c ****         }
 1029              		.loc 1 148 11 view .LVU340
 1030 0092 C306     		lsls	r3, r0, #27
 147:Model/stai_palm_detector.c ****           LL_ATON_ASSERT(((uintptr_t)pointers[cnt] % STAI_CACHE_USER_BUFFER_ALIGNMENT) == 0);
 1031              		.loc 1 147 25 discriminator 1 view .LVU341
 1032 0094 0860     		str	r0, [r1]
 148:Model/stai_palm_detector.c ****         }
 1033              		.loc 1 148 11 is_stmt 1 view .LVU342
 1034 0096 07D0     		beq	.L124
ARM GAS  C:\Users\DJESSOU\AppData\Local\Temp\ccruImXQ.s 			page 42


 1035              	.LBE36:
 1036              	.LBE46:
 1037              	.LBB47:
 1038              	.LBI39:
 109:Model/stai_palm_detector.c ****                                                                                                stai
 1039              		.loc 1 109 32 view .LVU343
 1040              	.LVL94:
 1041              	.LBB45:
 1042              	.LBB44:
 1043              	.LBB43:
 148:Model/stai_palm_detector.c ****         }
 1044              		.loc 1 148 11 is_stmt 0 discriminator 1 view .LVU344
 1045 0098 9421     		movs	r1, #148
 1046 009a 0A4B     		ldr	r3, .L144+20
 1047 009c 074A     		ldr	r2, .L144+12
 1048 009e F2E7     		b	.L143
 1049              	.LVL95:
 1050              	.L125:
 148:Model/stai_palm_detector.c ****         }
 1051              		.loc 1 148 11 discriminator 1 view .LVU345
 1052              	.LBE43:
 1053              	.LBE44:
 1054              	.LBE45:
 1055              	.LBE47:
 1056              	.LBB48:
 1057              	.LBB37:
 152:Model/stai_palm_detector.c ****         }
 1058              		.loc 1 152 11 is_stmt 1 view .LVU346
 152:Model/stai_palm_detector.c ****         }
 1059              		.loc 1 152 27 is_stmt 0 view .LVU347
 1060 00a0 2046     		mov	r0, r4
 1061 00a2 FFF7FEFF 		bl	LL_Buffer_addr_start
 1062              	.LVL96:
 152:Model/stai_palm_detector.c ****         }
 1063              		.loc 1 152 25 discriminator 1 view .LVU348
 1064 00a6 0860     		str	r0, [r1]
 1065              	.L124:
 155:Model/stai_palm_detector.c ****     }
 1066              		.loc 1 155 7 is_stmt 1 view .LVU349
 1067              	.LVL97:
 155:Model/stai_palm_detector.c ****     }
 1068              		.loc 1 155 7 is_stmt 0 view .LVU350
 1069              	.LBE37:
 138:Model/stai_palm_detector.c ****     {
 1070              		.loc 1 138 68 is_stmt 1 discriminator 2 view .LVU351
 138:Model/stai_palm_detector.c ****     {
 1071              		.loc 1 138 68 is_stmt 0 discriminator 2 view .LVU352
 1072 00a8 3834     		adds	r4, r4, #56
 1073              	.LVL98:
 138:Model/stai_palm_detector.c ****     {
 1074              		.loc 1 138 68 discriminator 2 view .LVU353
 1075 00aa 0431     		adds	r1, r1, #4
 1076 00ac DDE7     		b	.L122
 1077              	.L145:
 1078 00ae 00BF     		.align	2
 1079              	.L144:
 1080 00b0 00000000 		.word	NN_Interface_palm_detector
ARM GAS  C:\Users\DJESSOU\AppData\Local\Temp\ccruImXQ.s 			page 43


 1081 00b4 01000200 		.word	131073
 1082 00b8 00000000 		.word	.LC0
 1083 00bc 00000000 		.word	__func__.2
 1084 00c0 1F000000 		.word	.LC1
 1085 00c4 00000000 		.word	.LC4
 1086              	.LBE48:
 1087              		.cfi_endproc
 1088              	.LFE304:
 1090              		.section	.text.__ll_aton_stai_palm_detector_get_inputs_or_weights,"ax",%progbits
 1091              		.align	1
 1092              		.syntax unified
 1093              		.thumb
 1094              		.thumb_func
 1096              	__ll_aton_stai_palm_detector_get_inputs_or_weights:
 1097              	.LVL99:
 1098              	.LFB303:
  42:Model/stai_palm_detector.c ****   __LL_ATON_STAI_ACQUIRE_INTERFACE(nn_i_ptr, network);
 1099              		.loc 1 42 1 is_stmt 1 view -0
 1100              		.cfi_startproc
 1101              		@ args = 0, pretend = 0, frame = 8
 1102              		@ frame_needed = 0, uses_anonymous_args = 0
  42:Model/stai_palm_detector.c ****   __LL_ATON_STAI_ACQUIRE_INTERFACE(nn_i_ptr, network);
 1103              		.loc 1 42 1 is_stmt 0 view .LVU355
 1104 0000 2DE9F341 		push	{r0, r1, r4, r5, r6, r7, r8, lr}
 1105              		.cfi_def_cfa_offset 32
 1106              		.cfi_offset 4, -24
 1107              		.cfi_offset 5, -20
 1108              		.cfi_offset 6, -16
 1109              		.cfi_offset 7, -12
 1110              		.cfi_offset 8, -8
 1111              		.cfi_offset 14, -4
  43:Model/stai_palm_detector.c ****   __LL_ATON_STAI_CHECK_NETWORK_INTERFACE(nn_i_ptr, (_stai_aton_context *)network);
 1112              		.loc 1 43 3 view .LVU356
 1113 0004 4FF00008 		mov	r8, #0
  42:Model/stai_palm_detector.c ****   __LL_ATON_STAI_ACQUIRE_INTERFACE(nn_i_ptr, network);
 1114              		.loc 1 42 1 view .LVU357
 1115 0008 0D46     		mov	r5, r1
  43:Model/stai_palm_detector.c ****   __LL_ATON_STAI_CHECK_NETWORK_INTERFACE(nn_i_ptr, (_stai_aton_context *)network);
 1116              		.loc 1 43 3 view .LVU358
 1117 000a 01A9     		add	r1, sp, #4
 1118              	.LVL100:
  42:Model/stai_palm_detector.c ****   __LL_ATON_STAI_ACQUIRE_INTERFACE(nn_i_ptr, network);
 1119              		.loc 1 42 1 view .LVU359
 1120 000c 0446     		mov	r4, r0
 1121 000e 1F46     		mov	r7, r3
  43:Model/stai_palm_detector.c ****   __LL_ATON_STAI_CHECK_NETWORK_INTERFACE(nn_i_ptr, (_stai_aton_context *)network);
 1122              		.loc 1 43 3 view .LVU360
 1123 0010 CDF80480 		str	r8, [sp, #4]
 1124 0014 FFF7FEFF 		bl	__ll_aton_stai_check_context_network_handle.constprop.0
 1125              	.LVL101:
  43:Model/stai_palm_detector.c ****   __LL_ATON_STAI_CHECK_NETWORK_INTERFACE(nn_i_ptr, (_stai_aton_context *)network);
 1126              		.loc 1 43 3 discriminator 1 view .LVU361
 1127 0018 B0F5003F 		cmp	r0, #131072
  42:Model/stai_palm_detector.c ****   __LL_ATON_STAI_ACQUIRE_INTERFACE(nn_i_ptr, network);
 1128              		.loc 1 42 1 view .LVU362
 1129 001c 1646     		mov	r6, r2
  43:Model/stai_palm_detector.c ****   __LL_ATON_STAI_CHECK_NETWORK_INTERFACE(nn_i_ptr, (_stai_aton_context *)network);
ARM GAS  C:\Users\DJESSOU\AppData\Local\Temp\ccruImXQ.s 			page 44


 1130              		.loc 1 43 3 is_stmt 1 view .LVU363
  43:Model/stai_palm_detector.c ****   __LL_ATON_STAI_CHECK_NETWORK_INTERFACE(nn_i_ptr, (_stai_aton_context *)network);
 1131              		.loc 1 43 3 view .LVU364
 1132              	.LVL102:
  43:Model/stai_palm_detector.c ****   __LL_ATON_STAI_CHECK_NETWORK_INTERFACE(nn_i_ptr, (_stai_aton_context *)network);
 1133              		.loc 1 43 3 discriminator 1 view .LVU365
 1134 001e 0DD2     		bcs	.L146
  43:Model/stai_palm_detector.c ****   __LL_ATON_STAI_CHECK_NETWORK_INTERFACE(nn_i_ptr, (_stai_aton_context *)network);
 1135              		.loc 1 43 54 discriminator 2 view .LVU366
  44:Model/stai_palm_detector.c **** 
 1136              		.loc 1 44 3 view .LVU367
  44:Model/stai_palm_detector.c **** 
 1137              		.loc 1 44 3 view .LVU368
 1138 0020 264B     		ldr	r3, .L174
 1139 0022 019A     		ldr	r2, [sp, #4]
 1140              	.LVL103:
  44:Model/stai_palm_detector.c **** 
 1141              		.loc 1 44 3 is_stmt 0 view .LVU369
 1142 0024 9A42     		cmp	r2, r3
 1143 0026 0CD0     		beq	.L148
  44:Model/stai_palm_detector.c **** 
 1144              		.loc 1 44 3 is_stmt 1 discriminator 1 view .LVU370
  44:Model/stai_palm_detector.c **** 
 1145              		.loc 1 44 3 discriminator 1 view .LVU371
 1146 0028 34B1     		cbz	r4, .L149
  44:Model/stai_palm_detector.c **** 
 1147              		.loc 1 44 3 discriminator 4 view .LVU372
 1148 002a E36B     		ldr	r3, [r4, #60]
 1149 002c B3F5003F 		cmp	r3, #131072
  44:Model/stai_palm_detector.c **** 
 1150              		.loc 1 44 3 discriminator 5 view .LVU373
 1151 0030 3CBF     		itt	cc
 1152 0032 4FF44033 		movcc	r3, #196608
 1153 0036 E363     		strcc	r3, [r4, #60]
 1154              	.L149:
  44:Model/stai_palm_detector.c **** 
 1155              		.loc 1 44 3 is_stmt 0 discriminator 3 view .LVU374
 1156 0038 4FF44030 		mov	r0, #196608
 1157              	.LVL104:
 1158              	.L146:
 107:Model/stai_palm_detector.c **** 
 1159              		.loc 1 107 1 view .LVU375
 1160 003c 02B0     		add	sp, sp, #8
 1161              		.cfi_remember_state
 1162              		.cfi_def_cfa_offset 24
 1163              		@ sp needed
 1164 003e BDE8F081 		pop	{r4, r5, r6, r7, r8, pc}
 1165              	.LVL105:
 1166              	.L148:
 1167              		.cfi_restore_state
  44:Model/stai_palm_detector.c **** 
 1168              		.loc 1 44 3 is_stmt 1 discriminator 2 view .LVU376
  44:Model/stai_palm_detector.c **** 
 1169              		.loc 1 44 3 discriminator 2 view .LVU377
  47:Model/stai_palm_detector.c ****     __LL_ATON_STAI_SET_1ST_CTX_ERROR_AND_RETURN((_stai_aton_context *)network,
 1170              		.loc 1 47 3 view .LVU378
  47:Model/stai_palm_detector.c ****     __LL_ATON_STAI_SET_1ST_CTX_ERROR_AND_RETURN((_stai_aton_context *)network,
ARM GAS  C:\Users\DJESSOU\AppData\Local\Temp\ccruImXQ.s 			page 45


 1171              		.loc 1 47 6 is_stmt 0 view .LVU379
 1172 0042 4EB9     		cbnz	r6, .L150
  48:Model/stai_palm_detector.c ****                                                 STAI_ERROR_NETWORK_INVALID_API_ARGUMENTS);
 1173              		.loc 1 48 5 is_stmt 1 view .LVU380
  48:Model/stai_palm_detector.c ****                                                 STAI_ERROR_NETWORK_INVALID_API_ARGUMENTS);
 1174              		.loc 1 48 5 view .LVU381
 1175 0044 002C     		cmp	r4, #0
 1176 0046 F7D0     		beq	.L149
  48:Model/stai_palm_detector.c ****                                                 STAI_ERROR_NETWORK_INVALID_API_ARGUMENTS);
 1177              		.loc 1 48 5 discriminator 2 view .LVU382
 1178 0048 E36B     		ldr	r3, [r4, #60]
 1179 004a B3F5003F 		cmp	r3, #131072
 1180 004e 01D2     		bcs	.L151
  48:Model/stai_palm_detector.c ****                                                 STAI_ERROR_NETWORK_INVALID_API_ARGUMENTS);
 1181              		.loc 1 48 5 discriminator 3 view .LVU383
 1182 0050 1B4B     		ldr	r3, .L174+4
 1183 0052 E363     		str	r3, [r4, #60]
 1184              	.L151:
  48:Model/stai_palm_detector.c ****                                                 STAI_ERROR_NETWORK_INVALID_API_ARGUMENTS);
 1185              		.loc 1 48 5 is_stmt 0 discriminator 5 view .LVU384
 1186 0054 1A48     		ldr	r0, .L174+4
 1187              	.LVL106:
  48:Model/stai_palm_detector.c ****                                                 STAI_ERROR_NETWORK_INVALID_API_ARGUMENTS);
 1188              		.loc 1 48 5 discriminator 5 view .LVU385
 1189 0056 F1E7     		b	.L146
 1190              	.LVL107:
 1191              	.L150:
  48:Model/stai_palm_detector.c ****                                                 STAI_ERROR_NETWORK_INVALID_API_ARGUMENTS);
 1192              		.loc 1 48 5 is_stmt 1 view .LVU386
  52:Model/stai_palm_detector.c **** 
 1193              		.loc 1 52 3 view .LVU387
  52:Model/stai_palm_detector.c **** 
 1194              		.loc 1 52 48 is_stmt 0 view .LVU388
 1195 0058 FFF7FEFF 		bl	LL_ATON_Input_Buffers_Info_palm_detector
 1196              	.LVL108:
  55:Model/stai_palm_detector.c ****   if (input_buffers != NULL)
 1197              		.loc 1 55 3 is_stmt 1 view .LVU389
  56:Model/stai_palm_detector.c ****   {
 1198              		.loc 1 56 3 view .LVU390
  56:Model/stai_palm_detector.c ****   {
 1199              		.loc 1 56 6 is_stmt 0 view .LVU391
 1200 005c 0446     		mov	r4, r0
 1201              	.LVL109:
  56:Model/stai_palm_detector.c ****   {
 1202              		.loc 1 56 6 view .LVU392
 1203 005e A0B9     		cbnz	r0, .L153
 1204              	.LVL110:
 1205              	.L152:
  83:Model/stai_palm_detector.c ****   }
 1206              		.loc 1 83 5 is_stmt 1 view .LVU393
  83:Model/stai_palm_detector.c ****   }
 1207              		.loc 1 83 5 view .LVU394
  83:Model/stai_palm_detector.c ****   }
 1208              		.loc 1 83 5 view .LVU395
  83:Model/stai_palm_detector.c ****   }
 1209              		.loc 1 83 92 view .LVU396
  86:Model/stai_palm_detector.c ****   {
ARM GAS  C:\Users\DJESSOU\AppData\Local\Temp\ccruImXQ.s 			page 46


 1210              		.loc 1 86 3 view .LVU397
  88:Model/stai_palm_detector.c ****   }
 1211              		.loc 1 88 5 view .LVU398
  88:Model/stai_palm_detector.c ****   }
 1212              		.loc 1 88 5 view .LVU399
  88:Model/stai_palm_detector.c ****   }
 1213              		.loc 1 88 5 view .LVU400
  88:Model/stai_palm_detector.c ****   }
 1214              		.loc 1 88 50 view .LVU401
  92:Model/stai_palm_detector.c ****   }
 1215              		.loc 1 92 5 view .LVU402
  92:Model/stai_palm_detector.c ****   }
 1216              		.loc 1 92 5 view .LVU403
  92:Model/stai_palm_detector.c ****   }
 1217              		.loc 1 92 5 view .LVU404
  92:Model/stai_palm_detector.c ****   }
 1218              		.loc 1 92 55 view .LVU405
  97:Model/stai_palm_detector.c ****   {
 1219              		.loc 1 97 3 view .LVU406
 106:Model/stai_palm_detector.c **** }
 1220              		.loc 1 106 10 is_stmt 0 view .LVU407
 1221 0060 0020     		movs	r0, #0
  97:Model/stai_palm_detector.c ****   {
 1222              		.loc 1 97 6 view .LVU408
 1223 0062 3760     		str	r7, [r6]
 1224 0064 EAE7     		b	.L146
 1225              	.LVL111:
 1226              	.L158:
 1227              	.LBB55:
 1228              	.LBB56:
  69:Model/stai_palm_detector.c ****             LL_ATON_ASSERT(((uintptr_t)pointers[cnt] % STAI_CACHE_USER_BUFFER_ALIGNMENT) == 0);
 1229              		.loc 1 69 13 is_stmt 1 view .LVU409
  69:Model/stai_palm_detector.c ****             LL_ATON_ASSERT(((uintptr_t)pointers[cnt] % STAI_CACHE_USER_BUFFER_ALIGNMENT) == 0);
 1230              		.loc 1 69 29 is_stmt 0 view .LVU410
 1231 0066 2046     		mov	r0, r4
 1232 0068 FFF7FEFF 		bl	LL_Buffer_addr_start
 1233              	.LVL112:
  70:Model/stai_palm_detector.c ****           }
 1234              		.loc 1 70 13 view .LVU411
 1235 006c C306     		lsls	r3, r0, #27
  69:Model/stai_palm_detector.c ****             LL_ATON_ASSERT(((uintptr_t)pointers[cnt] % STAI_CACHE_USER_BUFFER_ALIGNMENT) == 0);
 1236              		.loc 1 69 27 discriminator 1 view .LVU412
 1237 006e 6850     		str	r0, [r5, r1]
  70:Model/stai_palm_detector.c ****           }
 1238              		.loc 1 70 13 is_stmt 1 view .LVU413
 1239 0070 08D0     		beq	.L156
  70:Model/stai_palm_detector.c ****           }
 1240              		.loc 1 70 13 is_stmt 0 view .LVU414
 1241              	.LBE56:
 1242              	.LBE55:
 1243              	.LBB59:
 1244              	.LBI59:
  38:Model/stai_palm_detector.c ****                                                                                           stai_ptr 
 1245              		.loc 1 38 32 is_stmt 1 view .LVU415
 1246              	.LVL113:
 1247              	.LBB60:
 1248              	.LBB61:
ARM GAS  C:\Users\DJESSOU\AppData\Local\Temp\ccruImXQ.s 			page 47


 1249              	.LBB62:
  70:Model/stai_palm_detector.c ****           }
 1250              		.loc 1 70 13 is_stmt 0 discriminator 1 view .LVU416
 1251 0072 4621     		movs	r1, #70
 1252 0074 134B     		ldr	r3, .L174+8
 1253 0076 144A     		ldr	r2, .L174+12
 1254 0078 1DE0     		b	.L173
 1255              	.LVL114:
 1256              	.L157:
  70:Model/stai_palm_detector.c ****           }
 1257              		.loc 1 70 13 discriminator 1 view .LVU417
 1258              	.LBE62:
 1259              	.LBE61:
 1260              	.LBE60:
 1261              	.LBE59:
 1262              	.LBB66:
 1263              	.LBB57:
  74:Model/stai_palm_detector.c ****           }
 1264              		.loc 1 74 13 is_stmt 1 view .LVU418
  74:Model/stai_palm_detector.c ****           }
 1265              		.loc 1 74 29 is_stmt 0 view .LVU419
 1266 007a 2046     		mov	r0, r4
 1267 007c FFF7FEFF 		bl	LL_Buffer_addr_start
 1268              	.LVL115:
  74:Model/stai_palm_detector.c ****           }
 1269              		.loc 1 74 27 discriminator 1 view .LVU420
 1270 0080 45F82800 		str	r0, [r5, r8, lsl #2]
 1271              	.L156:
  77:Model/stai_palm_detector.c ****       }
 1272              		.loc 1 77 9 is_stmt 1 view .LVU421
  77:Model/stai_palm_detector.c ****       }
 1273              		.loc 1 77 12 is_stmt 0 view .LVU422
 1274 0084 08F10108 		add	r8, r8, #1
 1275              	.LVL116:
 1276              	.L154:
  77:Model/stai_palm_detector.c ****       }
 1277              		.loc 1 77 12 view .LVU423
 1278              	.LBE57:
  58:Model/stai_palm_detector.c ****     {
 1279              		.loc 1 58 64 is_stmt 1 discriminator 2 view .LVU424
 1280 0088 3834     		adds	r4, r4, #56
 1281              	.LVL117:
 1282              	.L153:
  58:Model/stai_palm_detector.c ****     {
 1283              		.loc 1 58 52 discriminator 1 view .LVU425
 1284 008a 2368     		ldr	r3, [r4]
 1285 008c 002B     		cmp	r3, #0
 1286 008e E7D0     		beq	.L152
 1287              	.LBB58:
  60:Model/stai_palm_detector.c ****       if (inputs == !buffer_info->is_param)
 1288              		.loc 1 60 7 view .LVU426
 1289              	.LVL118:
  61:Model/stai_palm_detector.c ****       {
 1290              		.loc 1 61 7 view .LVU427
  61:Model/stai_palm_detector.c ****       {
 1291              		.loc 1 61 21 is_stmt 0 view .LVU428
 1292 0090 617D     		ldrb	r1, [r4, #21]	@ zero_extendqisi2
ARM GAS  C:\Users\DJESSOU\AppData\Local\Temp\ccruImXQ.s 			page 48


  61:Model/stai_palm_detector.c ****       {
 1293              		.loc 1 61 10 view .LVU429
 1294 0092 B1FA81F1 		clz	r1, r1
 1295 0096 4909     		lsrs	r1, r1, #5
 1296 0098 B942     		cmp	r1, r7
 1297 009a F5D1     		bne	.L154
  63:Model/stai_palm_detector.c ****         {
 1298              		.loc 1 63 9 is_stmt 1 view .LVU430
  63:Model/stai_palm_detector.c ****         {
 1299              		.loc 1 63 12 is_stmt 0 view .LVU431
 1300 009c 002D     		cmp	r5, #0
 1301 009e F1D0     		beq	.L156
  65:Model/stai_palm_detector.c ****           {
 1302              		.loc 1 65 11 is_stmt 1 view .LVU432
  65:Model/stai_palm_detector.c ****           {
 1303              		.loc 1 65 14 is_stmt 0 view .LVU433
 1304 00a0 237D     		ldrb	r3, [r4, #20]	@ zero_extendqisi2
 1305 00a2 4FEA8801 		lsl	r1, r8, #2
 1306 00a6 002B     		cmp	r3, #0
 1307 00a8 E7D0     		beq	.L157
  67:Model/stai_palm_detector.c ****                            0); // user allocated buffers always have an offset equal to zero
 1308              		.loc 1 67 13 is_stmt 1 view .LVU434
 1309 00aa A368     		ldr	r3, [r4, #8]
 1310 00ac 002B     		cmp	r3, #0
 1311 00ae DAD0     		beq	.L158
  67:Model/stai_palm_detector.c ****                            0); // user allocated buffers always have an offset equal to zero
 1312              		.loc 1 67 13 is_stmt 0 discriminator 1 view .LVU435
 1313 00b0 4321     		movs	r1, #67
 1314 00b2 064B     		ldr	r3, .L174+16
 1315 00b4 044A     		ldr	r2, .L174+12
 1316              	.L173:
 1317              	.LBE58:
 1318              	.LBE66:
 1319              	.LBB67:
 1320              	.LBB65:
 1321              	.LBB64:
 1322              	.LBB63:
  70:Model/stai_palm_detector.c ****           }
 1323              		.loc 1 70 13 discriminator 1 view .LVU436
 1324 00b6 0648     		ldr	r0, .L174+20
 1325 00b8 FFF7FEFF 		bl	__assert_func
 1326              	.LVL119:
 1327              	.L175:
 1328              		.align	2
 1329              	.L174:
 1330 00bc 00000000 		.word	NN_Interface_palm_detector
 1331 00c0 01000200 		.word	131073
 1332 00c4 00000000 		.word	.LC4
 1333 00c8 00000000 		.word	__func__.3
 1334 00cc 00000000 		.word	.LC0
 1335 00d0 1F000000 		.word	.LC1
 1336              	.LBE63:
 1337              	.LBE64:
 1338              	.LBE65:
 1339              	.LBE67:
 1340              		.cfi_endproc
 1341              	.LFE303:
ARM GAS  C:\Users\DJESSOU\AppData\Local\Temp\ccruImXQ.s 			page 49


 1343              		.section	.text.stai_palm_detector_init,"ax",%progbits
 1344              		.align	1
 1345              		.global	stai_palm_detector_init
 1346              		.syntax unified
 1347              		.thumb
 1348              		.thumb_func
 1350              	stai_palm_detector_init:
 1351              	.LVL120:
 1352              	.LFB307:
 355:Model/stai_palm_detector.c **** 
 356:Model/stai_palm_detector.c **** /*****************************************************************************/
 357:Model/stai_palm_detector.c **** /*  Network management APIs  */
 358:Model/stai_palm_detector.c **** STAI_API_ENTRY
 359:Model/stai_palm_detector.c **** stai_return_code stai_palm_detector_init(stai_network *network)
 360:Model/stai_palm_detector.c **** {
 1353              		.loc 1 360 1 is_stmt 1 view -0
 1354              		.cfi_startproc
 1355              		@ args = 0, pretend = 0, frame = 0
 1356              		@ frame_needed = 0, uses_anonymous_args = 0
 361:Model/stai_palm_detector.c ****   /* check context handle */
 362:Model/stai_palm_detector.c ****   if (!network)
 1357              		.loc 1 362 3 view .LVU438
 360:Model/stai_palm_detector.c ****   /* check context handle */
 1358              		.loc 1 360 1 is_stmt 0 view .LVU439
 1359 0000 10B5     		push	{r4, lr}
 1360              		.cfi_def_cfa_offset 8
 1361              		.cfi_offset 4, -8
 1362              		.cfi_offset 14, -4
 1363              		.loc 1 362 6 view .LVU440
 1364 0002 40B1     		cbz	r0, .L177
 363:Model/stai_palm_detector.c ****     return STAI_ERROR_NETWORK_INVALID_CONTEXT_HANDLE;
 364:Model/stai_palm_detector.c **** 
 365:Model/stai_palm_detector.c ****   _stai_aton_context *ctx = (_stai_aton_context *)network;
 1365              		.loc 1 365 3 is_stmt 1 view .LVU441
 1366              	.LVL121:
 366:Model/stai_palm_detector.c ****   if (ctx->network_instance.network != NULL) // already initialized
 1367              		.loc 1 366 3 view .LVU442
 1368              		.loc 1 366 6 is_stmt 0 view .LVU443
 1369 0004 0468     		ldr	r4, [r0]
 1370 0006 4CB1     		cbz	r4, .L178
 367:Model/stai_palm_detector.c ****     __LL_ATON_STAI_SET_1ST_CTX_ERROR_AND_RETURN(ctx, STAI_ERROR_NETWORK_INVALID_CONTEXT_HANDLE);
 1371              		.loc 1 367 5 is_stmt 1 view .LVU444
 1372              		.loc 1 367 5 view .LVU445
 1373              		.loc 1 367 5 discriminator 2 view .LVU446
 1374 0008 C26B     		ldr	r2, [r0, #60]
 1375 000a B2F5003F 		cmp	r2, #131072
 1376              		.loc 1 367 5 discriminator 3 view .LVU447
 1377 000e 3CBF     		itt	cc
 1378 0010 4FF44032 		movcc	r2, #196608
 1379 0014 C263     		strcc	r2, [r0, #60]
 1380              	.LVL122:
 1381              	.L177:
 363:Model/stai_palm_detector.c ****     return STAI_ERROR_NETWORK_INVALID_CONTEXT_HANDLE;
 1382              		.loc 1 363 12 is_stmt 0 view .LVU448
 1383 0016 4FF44030 		mov	r0, #196608
 1384              	.LVL123:
 1385              	.L176:
ARM GAS  C:\Users\DJESSOU\AppData\Local\Temp\ccruImXQ.s 			page 50


 368:Model/stai_palm_detector.c **** 
 369:Model/stai_palm_detector.c ****   ctx->network_instance.network = (const NN_Interface_TypeDef *)&NN_Interface_palm_detector;
 370:Model/stai_palm_detector.c ****   ctx->exec_status = STAI_SUCCESS;
 371:Model/stai_palm_detector.c ****   ctx->first_error = STAI_SUCCESS;
 372:Model/stai_palm_detector.c **** 
 373:Model/stai_palm_detector.c ****   __ll_aton_stai_init_network_instance(ctx);
 374:Model/stai_palm_detector.c **** 
 375:Model/stai_palm_detector.c ****   return STAI_SUCCESS;
 376:Model/stai_palm_detector.c **** }
 1386              		.loc 1 376 1 view .LVU449
 1387 001a 10BD     		pop	{r4, pc}
 1388              	.LVL124:
 1389              	.L178:
 367:Model/stai_palm_detector.c ****     __LL_ATON_STAI_SET_1ST_CTX_ERROR_AND_RETURN(ctx, STAI_ERROR_NETWORK_INVALID_CONTEXT_HANDLE);
 1390              		.loc 1 367 5 is_stmt 1 view .LVU450
 369:Model/stai_palm_detector.c ****   ctx->exec_status = STAI_SUCCESS;
 1391              		.loc 1 369 3 view .LVU451
 369:Model/stai_palm_detector.c ****   ctx->exec_status = STAI_SUCCESS;
 1392              		.loc 1 369 33 is_stmt 0 view .LVU452
 1393 001c 034A     		ldr	r2, .L183
 371:Model/stai_palm_detector.c **** 
 1394              		.loc 1 371 20 view .LVU453
 1395 001e C0E90E44 		strd	r4, r4, [r0, #56]
 369:Model/stai_palm_detector.c ****   ctx->exec_status = STAI_SUCCESS;
 1396              		.loc 1 369 33 view .LVU454
 1397 0022 0260     		str	r2, [r0]
 370:Model/stai_palm_detector.c ****   ctx->first_error = STAI_SUCCESS;
 1398              		.loc 1 370 3 is_stmt 1 view .LVU455
 373:Model/stai_palm_detector.c **** 
 1399              		.loc 1 373 3 view .LVU456
 1400 0024 FFF7FEFF 		bl	__ll_aton_stai_init_network_instance
 1401              	.LVL125:
 375:Model/stai_palm_detector.c **** }
 1402              		.loc 1 375 3 view .LVU457
 375:Model/stai_palm_detector.c **** }
 1403              		.loc 1 375 10 is_stmt 0 view .LVU458
 1404 0028 2046     		mov	r0, r4
 1405 002a F6E7     		b	.L176
 1406              	.L184:
 1407              		.align	2
 1408              	.L183:
 1409 002c 00000000 		.word	NN_Interface_palm_detector
 1410              		.cfi_endproc
 1411              	.LFE307:
 1413              		.section	.text.stai_palm_detector_deinit,"ax",%progbits
 1414              		.align	1
 1415              		.global	stai_palm_detector_deinit
 1416              		.syntax unified
 1417              		.thumb
 1418              		.thumb_func
 1420              	stai_palm_detector_deinit:
 1421              	.LVL126:
 1422              	.LFB308:
 377:Model/stai_palm_detector.c **** 
 378:Model/stai_palm_detector.c **** STAI_API_ENTRY
 379:Model/stai_palm_detector.c **** stai_return_code stai_palm_detector_deinit(stai_network *network)
 380:Model/stai_palm_detector.c **** {
ARM GAS  C:\Users\DJESSOU\AppData\Local\Temp\ccruImXQ.s 			page 51


 1423              		.loc 1 380 1 is_stmt 1 view -0
 1424              		.cfi_startproc
 1425              		@ args = 0, pretend = 0, frame = 8
 1426              		@ frame_needed = 0, uses_anonymous_args = 0
 381:Model/stai_palm_detector.c ****   __LL_ATON_STAI_ACQUIRE_INTERFACE(nn_i_ptr, network);
 1427              		.loc 1 381 3 view .LVU460
 1428 0000 0023     		movs	r3, #0
 380:Model/stai_palm_detector.c ****   __LL_ATON_STAI_ACQUIRE_INTERFACE(nn_i_ptr, network);
 1429              		.loc 1 380 1 is_stmt 0 view .LVU461
 1430 0002 37B5     		push	{r0, r1, r2, r4, r5, lr}
 1431              		.cfi_def_cfa_offset 24
 1432              		.cfi_offset 4, -12
 1433              		.cfi_offset 5, -8
 1434              		.cfi_offset 14, -4
 1435              		.loc 1 381 3 view .LVU462
 1436 0004 01A9     		add	r1, sp, #4
 380:Model/stai_palm_detector.c ****   __LL_ATON_STAI_ACQUIRE_INTERFACE(nn_i_ptr, network);
 1437              		.loc 1 380 1 view .LVU463
 1438 0006 0546     		mov	r5, r0
 1439              		.loc 1 381 3 view .LVU464
 1440 0008 0193     		str	r3, [sp, #4]
 1441              		.loc 1 381 3 is_stmt 1 view .LVU465
 1442 000a FFF7FEFF 		bl	__ll_aton_stai_check_context_network_handle.constprop.0
 1443              	.LVL127:
 1444              		.loc 1 381 3 discriminator 1 view .LVU466
 1445 000e B0F5003F 		cmp	r0, #131072
 1446 0012 0DD2     		bcs	.L185
 1447              		.loc 1 381 54 discriminator 2 view .LVU467
 382:Model/stai_palm_detector.c ****   __LL_ATON_STAI_CHECK_NETWORK_INTERFACE(nn_i_ptr, (_stai_aton_context *)network);
 1448              		.loc 1 382 3 view .LVU468
 1449              		.loc 1 382 3 view .LVU469
 1450 0014 164B     		ldr	r3, .L200
 1451 0016 019A     		ldr	r2, [sp, #4]
 1452 0018 9A42     		cmp	r2, r3
 1453 001a 0BD0     		beq	.L187
 1454              		.loc 1 382 3 discriminator 1 view .LVU470
 1455              		.loc 1 382 3 discriminator 1 view .LVU471
 1456 001c 35B1     		cbz	r5, .L188
 1457              		.loc 1 382 3 discriminator 4 view .LVU472
 1458 001e EB6B     		ldr	r3, [r5, #60]
 1459 0020 B3F5003F 		cmp	r3, #131072
 1460              		.loc 1 382 3 discriminator 5 view .LVU473
 1461 0024 3CBF     		itt	cc
 1462 0026 4FF44033 		movcc	r3, #196608
 1463 002a EB63     		strcc	r3, [r5, #60]
 1464              	.L188:
 1465              		.loc 1 382 3 is_stmt 0 discriminator 3 view .LVU474
 1466 002c 4FF44030 		mov	r0, #196608
 1467              	.LVL128:
 1468              	.L185:
 383:Model/stai_palm_detector.c ****   _stai_aton_context *ctx = (_stai_aton_context *)network;
 384:Model/stai_palm_detector.c **** 
 385:Model/stai_palm_detector.c ****   if (ctx->exec_status != STAI_DONE && ctx->exec_status != STAI_SUCCESS)
 386:Model/stai_palm_detector.c ****   {
 387:Model/stai_palm_detector.c ****     __LL_ATON_STAI_SET_1ST_CTX_ERROR_AND_RETURN(ctx, STAI_ERROR_NETWORK_STILL_RUNNING);
 388:Model/stai_palm_detector.c ****   }
 389:Model/stai_palm_detector.c **** 
ARM GAS  C:\Users\DJESSOU\AppData\Local\Temp\ccruImXQ.s 			page 52


 390:Model/stai_palm_detector.c ****   __ll_aton_stai_deinit_network_instance(ctx);
 391:Model/stai_palm_detector.c **** 
 392:Model/stai_palm_detector.c ****   ctx->network_instance.network = NULL;
 393:Model/stai_palm_detector.c **** 
 394:Model/stai_palm_detector.c ****   ctx->callback = NULL;
 395:Model/stai_palm_detector.c ****   ctx->callback_cookie = NULL;
 396:Model/stai_palm_detector.c ****   LL_ATON_RT_SetNetworkCallback(&ctx->network_instance, NULL);
 397:Model/stai_palm_detector.c **** 
 398:Model/stai_palm_detector.c ****   ctx->exec_status = STAI_SUCCESS;
 399:Model/stai_palm_detector.c ****   ctx->first_error = STAI_SUCCESS;
 400:Model/stai_palm_detector.c **** 
 401:Model/stai_palm_detector.c ****   return STAI_SUCCESS;
 402:Model/stai_palm_detector.c **** }
 1469              		.loc 1 402 1 view .LVU475
 1470 0030 03B0     		add	sp, sp, #12
 1471              		.cfi_remember_state
 1472              		.cfi_def_cfa_offset 12
 1473              		@ sp needed
 1474 0032 30BD     		pop	{r4, r5, pc}
 1475              	.LVL129:
 1476              	.L187:
 1477              		.cfi_restore_state
 382:Model/stai_palm_detector.c ****   __LL_ATON_STAI_CHECK_NETWORK_INTERFACE(nn_i_ptr, (_stai_aton_context *)network);
 1478              		.loc 1 382 3 is_stmt 1 discriminator 2 view .LVU476
 382:Model/stai_palm_detector.c ****   __LL_ATON_STAI_CHECK_NETWORK_INTERFACE(nn_i_ptr, (_stai_aton_context *)network);
 1479              		.loc 1 382 3 discriminator 2 view .LVU477
 383:Model/stai_palm_detector.c ****   _stai_aton_context *ctx = (_stai_aton_context *)network;
 1480              		.loc 1 383 3 view .LVU478
 385:Model/stai_palm_detector.c ****   {
 1481              		.loc 1 385 3 view .LVU479
 385:Model/stai_palm_detector.c ****   {
 1482              		.loc 1 385 10 is_stmt 0 view .LVU480
 1483 0034 AB6B     		ldr	r3, [r5, #56]
 385:Model/stai_palm_detector.c ****   {
 1484              		.loc 1 385 6 view .LVU481
 1485 0036 122B     		cmp	r3, #18
 1486 0038 0AD0     		beq	.L189
 385:Model/stai_palm_detector.c ****   {
 1487              		.loc 1 385 37 discriminator 1 view .LVU482
 1488 003a 4BB1     		cbz	r3, .L189
 387:Model/stai_palm_detector.c ****   }
 1489              		.loc 1 387 5 is_stmt 1 view .LVU483
 387:Model/stai_palm_detector.c ****   }
 1490              		.loc 1 387 5 view .LVU484
 387:Model/stai_palm_detector.c ****   }
 1491              		.loc 1 387 5 discriminator 2 view .LVU485
 1492 003c EB6B     		ldr	r3, [r5, #60]
 387:Model/stai_palm_detector.c ****   }
 1493              		.loc 1 387 5 is_stmt 0 discriminator 5 view .LVU486
 1494 003e 4FF4A020 		mov	r0, #327680
 1495              	.LVL130:
 387:Model/stai_palm_detector.c ****   }
 1496              		.loc 1 387 5 discriminator 2 view .LVU487
 1497 0042 B3F5003F 		cmp	r3, #131072
 387:Model/stai_palm_detector.c ****   }
 1498              		.loc 1 387 5 is_stmt 1 discriminator 3 view .LVU488
 1499 0046 3CBF     		itt	cc
ARM GAS  C:\Users\DJESSOU\AppData\Local\Temp\ccruImXQ.s 			page 53


 1500 0048 4FF4A023 		movcc	r3, #327680
 1501 004c EB63     		strcc	r3, [r5, #60]
 1502 004e EFE7     		b	.L185
 1503              	.LVL131:
 1504              	.L189:
 387:Model/stai_palm_detector.c ****   }
 1505              		.loc 1 387 5 view .LVU489
 390:Model/stai_palm_detector.c **** 
 1506              		.loc 1 390 3 view .LVU490
 392:Model/stai_palm_detector.c **** 
 1507              		.loc 1 392 33 is_stmt 0 view .LVU491
 1508 0050 0024     		movs	r4, #0
 390:Model/stai_palm_detector.c **** 
 1509              		.loc 1 390 3 view .LVU492
 1510 0052 2846     		mov	r0, r5
 1511              	.LVL132:
 390:Model/stai_palm_detector.c **** 
 1512              		.loc 1 390 3 view .LVU493
 1513 0054 FFF7FEFF 		bl	__ll_aton_stai_deinit_network_instance
 1514              	.LVL133:
 392:Model/stai_palm_detector.c **** 
 1515              		.loc 1 392 3 is_stmt 1 view .LVU494
 396:Model/stai_palm_detector.c **** 
 1516              		.loc 1 396 3 is_stmt 0 view .LVU495
 1517 0058 2846     		mov	r0, r5
 1518 005a 2146     		mov	r1, r4
 395:Model/stai_palm_detector.c ****   LL_ATON_RT_SetNetworkCallback(&ctx->network_instance, NULL);
 1519              		.loc 1 395 24 view .LVU496
 1520 005c C5E90C44 		strd	r4, r4, [r5, #48]
 392:Model/stai_palm_detector.c **** 
 1521              		.loc 1 392 33 view .LVU497
 1522 0060 2C60     		str	r4, [r5]
 394:Model/stai_palm_detector.c ****   ctx->callback_cookie = NULL;
 1523              		.loc 1 394 3 is_stmt 1 view .LVU498
 396:Model/stai_palm_detector.c **** 
 1524              		.loc 1 396 3 view .LVU499
 1525 0062 FFF7FEFF 		bl	LL_ATON_RT_SetNetworkCallback
 1526              	.LVL134:
 398:Model/stai_palm_detector.c ****   ctx->first_error = STAI_SUCCESS;
 1527              		.loc 1 398 3 view .LVU500
 401:Model/stai_palm_detector.c **** }
 1528              		.loc 1 401 10 is_stmt 0 view .LVU501
 1529 0066 2046     		mov	r0, r4
 399:Model/stai_palm_detector.c **** 
 1530              		.loc 1 399 20 view .LVU502
 1531 0068 C5E90E44 		strd	r4, r4, [r5, #56]
 401:Model/stai_palm_detector.c **** }
 1532              		.loc 1 401 3 is_stmt 1 view .LVU503
 401:Model/stai_palm_detector.c **** }
 1533              		.loc 1 401 10 is_stmt 0 view .LVU504
 1534 006c E0E7     		b	.L185
 1535              	.L201:
 1536 006e 00BF     		.align	2
 1537              	.L200:
 1538 0070 00000000 		.word	NN_Interface_palm_detector
 1539              		.cfi_endproc
 1540              	.LFE308:
ARM GAS  C:\Users\DJESSOU\AppData\Local\Temp\ccruImXQ.s 			page 54


 1542              		.section	.text.stai_palm_detector_run,"ax",%progbits
 1543              		.align	1
 1544              		.global	stai_palm_detector_run
 1545              		.syntax unified
 1546              		.thumb
 1547              		.thumb_func
 1549              	stai_palm_detector_run:
 1550              	.LVL135:
 1551              	.LFB309:
 403:Model/stai_palm_detector.c **** 
 404:Model/stai_palm_detector.c **** STAI_API_ENTRY
 405:Model/stai_palm_detector.c **** stai_return_code stai_palm_detector_run(stai_network *network, const stai_run_mode mode)
 406:Model/stai_palm_detector.c **** {
 1552              		.loc 1 406 1 is_stmt 1 view -0
 1553              		.cfi_startproc
 1554              		@ args = 0, pretend = 0, frame = 8
 1555              		@ frame_needed = 0, uses_anonymous_args = 0
 407:Model/stai_palm_detector.c ****   /* check context & network interface handle */
 408:Model/stai_palm_detector.c ****   __LL_ATON_STAI_ACQUIRE_INTERFACE(nn_i_ptr, network);
 1556              		.loc 1 408 3 view .LVU506
 1557 0000 0023     		movs	r3, #0
 406:Model/stai_palm_detector.c ****   /* check context & network interface handle */
 1558              		.loc 1 406 1 is_stmt 0 view .LVU507
 1559 0002 13B5     		push	{r0, r1, r4, lr}
 1560              		.cfi_def_cfa_offset 16
 1561              		.cfi_offset 4, -8
 1562              		.cfi_offset 14, -4
 406:Model/stai_palm_detector.c ****   /* check context & network interface handle */
 1563              		.loc 1 406 1 view .LVU508
 1564 0004 0C46     		mov	r4, r1
 1565              		.loc 1 408 3 view .LVU509
 1566 0006 01A9     		add	r1, sp, #4
 1567              	.LVL136:
 406:Model/stai_palm_detector.c ****   /* check context & network interface handle */
 1568              		.loc 1 406 1 view .LVU510
 1569 0008 0246     		mov	r2, r0
 1570              		.loc 1 408 3 view .LVU511
 1571 000a 0193     		str	r3, [sp, #4]
 1572              		.loc 1 408 3 is_stmt 1 view .LVU512
 1573 000c FFF7FEFF 		bl	__ll_aton_stai_check_context_network_handle.constprop.0
 1574              	.LVL137:
 1575              		.loc 1 408 3 discriminator 1 view .LVU513
 1576 0010 B0F5003F 		cmp	r0, #131072
 1577 0014 0DD2     		bcs	.L202
 1578              		.loc 1 408 54 discriminator 2 view .LVU514
 409:Model/stai_palm_detector.c ****   __LL_ATON_STAI_CHECK_NETWORK_INTERFACE(nn_i_ptr, (_stai_aton_context *)network);
 1579              		.loc 1 409 3 view .LVU515
 1580              		.loc 1 409 3 view .LVU516
 1581 0016 0B4B     		ldr	r3, .L209
 1582 0018 0199     		ldr	r1, [sp, #4]
 1583 001a 9942     		cmp	r1, r3
 1584 001c 0BD0     		beq	.L204
 1585              		.loc 1 409 3 discriminator 1 view .LVU517
 1586              		.loc 1 409 3 discriminator 1 view .LVU518
 1587 001e 32B1     		cbz	r2, .L205
 1588              		.loc 1 409 3 discriminator 4 view .LVU519
 1589 0020 D36B     		ldr	r3, [r2, #60]
ARM GAS  C:\Users\DJESSOU\AppData\Local\Temp\ccruImXQ.s 			page 55


 1590 0022 B3F5003F 		cmp	r3, #131072
 1591              		.loc 1 409 3 discriminator 5 view .LVU520
 1592 0026 3CBF     		itt	cc
 1593 0028 4FF44033 		movcc	r3, #196608
 1594 002c D363     		strcc	r3, [r2, #60]
 1595              	.L205:
 1596              		.loc 1 409 3 is_stmt 0 discriminator 3 view .LVU521
 1597 002e 4FF44030 		mov	r0, #196608
 1598              	.LVL138:
 1599              	.L202:
 410:Model/stai_palm_detector.c **** 
 411:Model/stai_palm_detector.c ****   return __ll_aton_stai_run(network, mode);
 412:Model/stai_palm_detector.c **** }
 1600              		.loc 1 412 1 view .LVU522
 1601 0032 02B0     		add	sp, sp, #8
 1602              		.cfi_remember_state
 1603              		.cfi_def_cfa_offset 8
 1604              		@ sp needed
 1605 0034 10BD     		pop	{r4, pc}
 1606              	.LVL139:
 1607              	.L204:
 1608              		.cfi_restore_state
 409:Model/stai_palm_detector.c ****   __LL_ATON_STAI_CHECK_NETWORK_INTERFACE(nn_i_ptr, (_stai_aton_context *)network);
 1609              		.loc 1 409 3 is_stmt 1 discriminator 2 view .LVU523
 409:Model/stai_palm_detector.c ****   __LL_ATON_STAI_CHECK_NETWORK_INTERFACE(nn_i_ptr, (_stai_aton_context *)network);
 1610              		.loc 1 409 3 discriminator 2 view .LVU524
 411:Model/stai_palm_detector.c **** }
 1611              		.loc 1 411 3 view .LVU525
 411:Model/stai_palm_detector.c **** }
 1612              		.loc 1 411 10 is_stmt 0 view .LVU526
 1613 0036 2146     		mov	r1, r4
 1614 0038 1046     		mov	r0, r2
 1615              	.LVL140:
 1616              		.loc 1 412 1 view .LVU527
 1617 003a 02B0     		add	sp, sp, #8
 1618              		.cfi_def_cfa_offset 8
 1619              		@ sp needed
 1620 003c BDE81040 		pop	{r4, lr}
 1621              		.cfi_restore 14
 1622              		.cfi_restore 4
 1623              		.cfi_def_cfa_offset 0
 411:Model/stai_palm_detector.c **** }
 1624              		.loc 1 411 10 view .LVU528
 1625 0040 FFF7FEBF 		b	__ll_aton_stai_run
 1626              	.LVL141:
 1627              	.L210:
 411:Model/stai_palm_detector.c **** }
 1628              		.loc 1 411 10 view .LVU529
 1629              		.align	2
 1630              	.L209:
 1631 0044 00000000 		.word	NN_Interface_palm_detector
 1632              		.cfi_endproc
 1633              	.LFE309:
 1635              		.section	.text.stai_palm_detector_train,"ax",%progbits
 1636              		.align	1
 1637              		.global	stai_palm_detector_train
 1638              		.syntax unified
ARM GAS  C:\Users\DJESSOU\AppData\Local\Temp\ccruImXQ.s 			page 56


 1639              		.thumb
 1640              		.thumb_func
 1642              	stai_palm_detector_train:
 1643              	.LVL142:
 1644              	.LFB310:
 413:Model/stai_palm_detector.c **** 
 414:Model/stai_palm_detector.c **** STAI_API_ENTRY
 415:Model/stai_palm_detector.c **** stai_return_code stai_palm_detector_train(stai_network *network, const stai_run_mode mode)
 416:Model/stai_palm_detector.c **** {
 1645              		.loc 1 416 1 is_stmt 1 view -0
 1646              		.cfi_startproc
 1647              		@ args = 0, pretend = 0, frame = 8
 1648              		@ frame_needed = 0, uses_anonymous_args = 0
 417:Model/stai_palm_detector.c ****   LL_ATON_LIB_UNUSED(mode);
 1649              		.loc 1 417 3 view .LVU531
 418:Model/stai_palm_detector.c **** 
 419:Model/stai_palm_detector.c ****   /* check context & network interface handle */
 420:Model/stai_palm_detector.c ****   __LL_ATON_STAI_ACQUIRE_INTERFACE(nn_i_ptr, network);
 1650              		.loc 1 420 3 view .LVU532
 1651 0000 0023     		movs	r3, #0
 416:Model/stai_palm_detector.c ****   LL_ATON_LIB_UNUSED(mode);
 1652              		.loc 1 416 1 is_stmt 0 view .LVU533
 1653 0002 07B5     		push	{r0, r1, r2, lr}
 1654              		.cfi_def_cfa_offset 16
 1655              		.cfi_offset 14, -4
 1656              		.loc 1 420 3 view .LVU534
 1657 0004 01A9     		add	r1, sp, #4
 1658              	.LVL143:
 416:Model/stai_palm_detector.c ****   LL_ATON_LIB_UNUSED(mode);
 1659              		.loc 1 416 1 view .LVU535
 1660 0006 0246     		mov	r2, r0
 1661              		.loc 1 420 3 view .LVU536
 1662 0008 0193     		str	r3, [sp, #4]
 1663              		.loc 1 420 3 is_stmt 1 view .LVU537
 1664 000a FFF7FEFF 		bl	__ll_aton_stai_check_context_network_handle.constprop.0
 1665              	.LVL144:
 1666              		.loc 1 420 3 discriminator 1 view .LVU538
 1667 000e B0F5003F 		cmp	r0, #131072
 1668 0012 15D2     		bcs	.L211
 1669              		.loc 1 420 54 discriminator 2 view .LVU539
 421:Model/stai_palm_detector.c ****   __LL_ATON_STAI_CHECK_NETWORK_INTERFACE(nn_i_ptr, (_stai_aton_context *)network);
 1670              		.loc 1 421 3 view .LVU540
 1671              		.loc 1 421 3 view .LVU541
 1672 0014 0D4B     		ldr	r3, .L223
 1673 0016 0199     		ldr	r1, [sp, #4]
 1674 0018 9942     		cmp	r1, r3
 1675 001a 0AD0     		beq	.L213
 1676              		.loc 1 421 3 discriminator 1 view .LVU542
 1677              		.loc 1 421 3 discriminator 1 view .LVU543
 1678 001c 32B1     		cbz	r2, .L214
 1679              		.loc 1 421 3 discriminator 4 view .LVU544
 1680 001e D36B     		ldr	r3, [r2, #60]
 1681 0020 B3F5003F 		cmp	r3, #131072
 1682 0024 02D2     		bcs	.L214
 1683              		.loc 1 421 3 discriminator 5 view .LVU545
 1684 0026 4FF44033 		mov	r3, #196608
 1685 002a D363     		str	r3, [r2, #60]
ARM GAS  C:\Users\DJESSOU\AppData\Local\Temp\ccruImXQ.s 			page 57


 1686              	.L214:
 1687              		.loc 1 421 3 is_stmt 0 discriminator 3 view .LVU546
 1688 002c 4FF44030 		mov	r0, #196608
 1689              	.LVL145:
 422:Model/stai_palm_detector.c **** 
 423:Model/stai_palm_detector.c ****   __LL_ATON_STAI_SET_1ST_CTX_ERROR_AND_RETURN((_stai_aton_context *)network, STAI_ERROR_NOT_IMPLEME
 1690              		.loc 1 423 3 is_stmt 1 discriminator 7 view .LVU547
 1691 0030 06E0     		b	.L211
 1692              	.LVL146:
 1693              	.L213:
 421:Model/stai_palm_detector.c ****   __LL_ATON_STAI_CHECK_NETWORK_INTERFACE(nn_i_ptr, (_stai_aton_context *)network);
 1694              		.loc 1 421 3 discriminator 2 view .LVU548
 421:Model/stai_palm_detector.c ****   __LL_ATON_STAI_CHECK_NETWORK_INTERFACE(nn_i_ptr, (_stai_aton_context *)network);
 1695              		.loc 1 421 3 discriminator 2 view .LVU549
 1696              		.loc 1 423 3 view .LVU550
 1697              		.loc 1 423 3 view .LVU551
 1698 0032 002A     		cmp	r2, #0
 1699 0034 FAD0     		beq	.L214
 1700              		.loc 1 423 3 discriminator 2 view .LVU552
 1701 0036 D36B     		ldr	r3, [r2, #60]
 1702 0038 B3F5003F 		cmp	r3, #131072
 1703 003c 03D3     		bcc	.L215
 1704              	.L216:
 1705              		.loc 1 423 3 is_stmt 0 discriminator 6 view .LVU553
 1706 003e 0448     		ldr	r0, .L223+4
 1707              	.LVL147:
 1708              	.L211:
 424:Model/stai_palm_detector.c **** }
 1709              		.loc 1 424 1 view .LVU554
 1710 0040 03B0     		add	sp, sp, #12
 1711              		.cfi_remember_state
 1712              		.cfi_def_cfa_offset 4
 1713              		@ sp needed
 1714 0042 5DF804FB 		ldr	pc, [sp], #4
 1715              	.LVL148:
 1716              	.L215:
 1717              		.cfi_restore_state
 423:Model/stai_palm_detector.c **** }
 1718              		.loc 1 423 3 is_stmt 1 discriminator 4 view .LVU555
 1719 0046 024B     		ldr	r3, .L223+4
 1720 0048 D363     		str	r3, [r2, #60]
 1721 004a F8E7     		b	.L216
 1722              	.L224:
 1723              		.align	2
 1724              	.L223:
 1725 004c 00000000 		.word	NN_Interface_palm_detector
 1726 0050 60000400 		.word	262240
 1727              		.cfi_endproc
 1728              	.LFE310:
 1730              		.section	.text.stai_palm_detector_get_inputs,"ax",%progbits
 1731              		.align	1
 1732              		.global	stai_palm_detector_get_inputs
 1733              		.syntax unified
 1734              		.thumb
 1735              		.thumb_func
 1737              	stai_palm_detector_get_inputs:
 1738              	.LVL149:
ARM GAS  C:\Users\DJESSOU\AppData\Local\Temp\ccruImXQ.s 			page 58


 1739              	.LFB311:
 425:Model/stai_palm_detector.c **** 
 426:Model/stai_palm_detector.c **** /*****************************************************************************/
 427:Model/stai_palm_detector.c **** /*  Getters APIs  */
 428:Model/stai_palm_detector.c **** STAI_API_ENTRY
 429:Model/stai_palm_detector.c **** stai_return_code stai_palm_detector_get_inputs(stai_network *network, stai_ptr *inputs, stai_size *
 430:Model/stai_palm_detector.c **** {
 1740              		.loc 1 430 1 view -0
 1741              		.cfi_startproc
 1742              		@ args = 0, pretend = 0, frame = 0
 1743              		@ frame_needed = 0, uses_anonymous_args = 0
 1744              		@ link register save eliminated.
 431:Model/stai_palm_detector.c ****   return __ll_aton_stai_palm_detector_get_inputs_or_weights(network, inputs, n_inputs, true);
 1745              		.loc 1 431 3 view .LVU557
 1746              		.loc 1 431 10 is_stmt 0 view .LVU558
 1747 0000 0123     		movs	r3, #1
 1748 0002 FFF7FEBF 		b	__ll_aton_stai_palm_detector_get_inputs_or_weights
 1749              	.LVL150:
 1750              		.loc 1 431 10 view .LVU559
 1751              		.cfi_endproc
 1752              	.LFE311:
 1754              		.section	.text.stai_palm_detector_get_weights,"ax",%progbits
 1755              		.align	1
 1756              		.global	stai_palm_detector_get_weights
 1757              		.syntax unified
 1758              		.thumb
 1759              		.thumb_func
 1761              	stai_palm_detector_get_weights:
 1762              	.LVL151:
 1763              	.LFB312:
 432:Model/stai_palm_detector.c **** }
 433:Model/stai_palm_detector.c **** 
 434:Model/stai_palm_detector.c **** STAI_API_ENTRY
 435:Model/stai_palm_detector.c **** stai_return_code stai_palm_detector_get_weights(stai_network *network, stai_ptr *weights, stai_size
 436:Model/stai_palm_detector.c **** {
 1764              		.loc 1 436 1 is_stmt 1 view -0
 1765              		.cfi_startproc
 1766              		@ args = 0, pretend = 0, frame = 0
 1767              		@ frame_needed = 0, uses_anonymous_args = 0
 1768              		@ link register save eliminated.
 437:Model/stai_palm_detector.c ****   return __ll_aton_stai_palm_detector_get_inputs_or_weights(network, weights, n_weights, false);
 1769              		.loc 1 437 3 view .LVU561
 1770              		.loc 1 437 10 is_stmt 0 view .LVU562
 1771 0000 0023     		movs	r3, #0
 1772 0002 FFF7FEBF 		b	__ll_aton_stai_palm_detector_get_inputs_or_weights
 1773              	.LVL152:
 1774              		.loc 1 437 10 view .LVU563
 1775              		.cfi_endproc
 1776              	.LFE312:
 1778              		.section	.text.stai_palm_detector_get_outputs,"ax",%progbits
 1779              		.align	1
 1780              		.global	stai_palm_detector_get_outputs
 1781              		.syntax unified
 1782              		.thumb
 1783              		.thumb_func
 1785              	stai_palm_detector_get_outputs:
 1786              	.LVL153:
ARM GAS  C:\Users\DJESSOU\AppData\Local\Temp\ccruImXQ.s 			page 59


 1787              	.LFB313:
 438:Model/stai_palm_detector.c **** }
 439:Model/stai_palm_detector.c **** 
 440:Model/stai_palm_detector.c **** STAI_API_ENTRY
 441:Model/stai_palm_detector.c **** stai_return_code stai_palm_detector_get_outputs(stai_network *network, stai_ptr *outputs, stai_size
 442:Model/stai_palm_detector.c **** {
 1788              		.loc 1 442 1 is_stmt 1 view -0
 1789              		.cfi_startproc
 1790              		@ args = 0, pretend = 0, frame = 0
 1791              		@ frame_needed = 0, uses_anonymous_args = 0
 1792              		@ link register save eliminated.
 443:Model/stai_palm_detector.c ****   return __ll_aton_stai_palm_detector_get_outputs_or_activations(network, outputs, n_outputs, true)
 1793              		.loc 1 443 3 view .LVU565
 1794              		.loc 1 443 10 is_stmt 0 view .LVU566
 1795 0000 0123     		movs	r3, #1
 1796 0002 FFF7FEBF 		b	__ll_aton_stai_palm_detector_get_outputs_or_activations
 1797              	.LVL154:
 1798              		.loc 1 443 10 view .LVU567
 1799              		.cfi_endproc
 1800              	.LFE313:
 1802              		.section	.text.stai_palm_detector_get_activations,"ax",%progbits
 1803              		.align	1
 1804              		.global	stai_palm_detector_get_activations
 1805              		.syntax unified
 1806              		.thumb
 1807              		.thumb_func
 1809              	stai_palm_detector_get_activations:
 1810              	.LVL155:
 1811              	.LFB314:
 444:Model/stai_palm_detector.c **** }
 445:Model/stai_palm_detector.c **** 
 446:Model/stai_palm_detector.c **** STAI_API_ENTRY
 447:Model/stai_palm_detector.c **** stai_return_code stai_palm_detector_get_activations(stai_network *network, stai_ptr *activations,
 448:Model/stai_palm_detector.c ****                                                             stai_size *n_activations)
 449:Model/stai_palm_detector.c **** {
 1812              		.loc 1 449 1 is_stmt 1 view -0
 1813              		.cfi_startproc
 1814              		@ args = 0, pretend = 0, frame = 0
 1815              		@ frame_needed = 0, uses_anonymous_args = 0
 1816              		@ link register save eliminated.
 450:Model/stai_palm_detector.c ****   return __ll_aton_stai_palm_detector_get_outputs_or_activations(network, activations, n_activation
 1817              		.loc 1 450 3 view .LVU569
 1818              		.loc 1 450 10 is_stmt 0 view .LVU570
 1819 0000 0023     		movs	r3, #0
 1820 0002 FFF7FEBF 		b	__ll_aton_stai_palm_detector_get_outputs_or_activations
 1821              	.LVL156:
 1822              		.loc 1 450 10 view .LVU571
 1823              		.cfi_endproc
 1824              	.LFE314:
 1826              		.section	.rodata.stai_palm_detector_get_info.str1.1,"aMS",%progbits,1
 1827              	.LC5:
 1828 0000 46656220 		.ascii	"Feb 10 2026 15:18:26\000"
 1828      31302032 
 1828      30323620 
 1828      31353A31 
 1828      383A3236 
 1829              	.LC6:
ARM GAS  C:\Users\DJESSOU\AppData\Local\Temp\ccruImXQ.s 			page 60


 1830 0015 70616C6D 		.ascii	"palm_detector\000"
 1830      5F646574 
 1830      6563746F 
 1830      7200
 1831              	.LC7:
 1832 0023 32303235 		.ascii	"2025-12-12 11:14:53\000"
 1832      2D31322D 
 1832      31322031 
 1832      313A3134 
 1832      3A353300 
 1833              		.section	.text.stai_palm_detector_get_info,"ax",%progbits
 1834              		.align	1
 1835              		.global	stai_palm_detector_get_info
 1836              		.syntax unified
 1837              		.thumb
 1838              		.thumb_func
 1840              	stai_palm_detector_get_info:
 1841              	.LVL157:
 1842              	.LFB315:
 451:Model/stai_palm_detector.c **** }
 452:Model/stai_palm_detector.c **** 
 453:Model/stai_palm_detector.c **** static const stai_network_info __stai_palm_detector_network_info;
 454:Model/stai_palm_detector.c **** STAI_API_ENTRY
 455:Model/stai_palm_detector.c **** stai_return_code stai_palm_detector_get_info(stai_network *network, stai_network_info *info)
 456:Model/stai_palm_detector.c **** {
 1843              		.loc 1 456 1 is_stmt 1 view -0
 1844              		.cfi_startproc
 1845              		@ args = 0, pretend = 0, frame = 8
 1846              		@ frame_needed = 0, uses_anonymous_args = 0
 457:Model/stai_palm_detector.c ****   /* check context & network interface handle */
 458:Model/stai_palm_detector.c ****   __LL_ATON_STAI_ACQUIRE_INTERFACE(nn_i_ptr, network);
 1847              		.loc 1 458 3 view .LVU573
 456:Model/stai_palm_detector.c ****   /* check context & network interface handle */
 1848              		.loc 1 456 1 is_stmt 0 view .LVU574
 1849 0000 37B5     		push	{r0, r1, r2, r4, r5, lr}
 1850              		.cfi_def_cfa_offset 24
 1851              		.cfi_offset 4, -12
 1852              		.cfi_offset 5, -8
 1853              		.cfi_offset 14, -4
 1854              		.loc 1 458 3 view .LVU575
 1855 0002 0025     		movs	r5, #0
 456:Model/stai_palm_detector.c ****   /* check context & network interface handle */
 1856              		.loc 1 456 1 view .LVU576
 1857 0004 0C46     		mov	r4, r1
 1858              		.loc 1 458 3 view .LVU577
 1859 0006 01A9     		add	r1, sp, #4
 1860              	.LVL158:
 456:Model/stai_palm_detector.c ****   /* check context & network interface handle */
 1861              		.loc 1 456 1 view .LVU578
 1862 0008 0246     		mov	r2, r0
 1863              		.loc 1 458 3 view .LVU579
 1864 000a 0195     		str	r5, [sp, #4]
 1865              		.loc 1 458 3 is_stmt 1 view .LVU580
 1866 000c FFF7FEFF 		bl	__ll_aton_stai_check_context_network_handle.constprop.0
 1867              	.LVL159:
 1868              		.loc 1 458 3 discriminator 1 view .LVU581
 1869 0010 B0F5003F 		cmp	r0, #131072
ARM GAS  C:\Users\DJESSOU\AppData\Local\Temp\ccruImXQ.s 			page 61


 1870 0014 0DD2     		bcs	.L229
 1871              		.loc 1 458 54 discriminator 2 view .LVU582
 459:Model/stai_palm_detector.c ****   __LL_ATON_STAI_CHECK_NETWORK_INTERFACE(nn_i_ptr, (_stai_aton_context *)network);
 1872              		.loc 1 459 3 view .LVU583
 1873              		.loc 1 459 3 view .LVU584
 1874 0016 1A4B     		ldr	r3, .L236
 1875 0018 0199     		ldr	r1, [sp, #4]
 1876 001a 9942     		cmp	r1, r3
 1877 001c 0BD0     		beq	.L231
 1878              		.loc 1 459 3 discriminator 1 view .LVU585
 1879              		.loc 1 459 3 discriminator 1 view .LVU586
 1880 001e 32B1     		cbz	r2, .L232
 1881              		.loc 1 459 3 discriminator 4 view .LVU587
 1882 0020 D36B     		ldr	r3, [r2, #60]
 1883 0022 B3F5003F 		cmp	r3, #131072
 1884              		.loc 1 459 3 discriminator 5 view .LVU588
 1885 0026 3CBF     		itt	cc
 1886 0028 4FF44033 		movcc	r3, #196608
 1887 002c D363     		strcc	r3, [r2, #60]
 1888              	.L232:
 1889              		.loc 1 459 3 is_stmt 0 discriminator 3 view .LVU589
 1890 002e 4FF44030 		mov	r0, #196608
 1891              	.LVL160:
 1892              	.L229:
 460:Model/stai_palm_detector.c **** 
 461:Model/stai_palm_detector.c ****   // Copy of network info struct
 462:Model/stai_palm_detector.c ****   *info = __stai_palm_detector_network_info;
 463:Model/stai_palm_detector.c **** 
 464:Model/stai_palm_detector.c ****   return STAI_SUCCESS;
 465:Model/stai_palm_detector.c **** }
 1893              		.loc 1 465 1 view .LVU590
 1894 0032 03B0     		add	sp, sp, #12
 1895              		.cfi_remember_state
 1896              		.cfi_def_cfa_offset 12
 1897              		@ sp needed
 1898 0034 30BD     		pop	{r4, r5, pc}
 1899              	.LVL161:
 1900              	.L231:
 1901              		.cfi_restore_state
 459:Model/stai_palm_detector.c ****   __LL_ATON_STAI_CHECK_NETWORK_INTERFACE(nn_i_ptr, (_stai_aton_context *)network);
 1902              		.loc 1 459 3 is_stmt 1 discriminator 2 view .LVU591
 459:Model/stai_palm_detector.c ****   __LL_ATON_STAI_CHECK_NETWORK_INTERFACE(nn_i_ptr, (_stai_aton_context *)network);
 1903              		.loc 1 459 3 discriminator 2 view .LVU592
 462:Model/stai_palm_detector.c **** 
 1904              		.loc 1 462 3 view .LVU593
 462:Model/stai_palm_detector.c **** 
 1905              		.loc 1 462 9 is_stmt 0 view .LVU594
 1906 0036 5022     		movs	r2, #80
 1907              	.LVL162:
 462:Model/stai_palm_detector.c **** 
 1908              		.loc 1 462 9 view .LVU595
 1909 0038 2946     		mov	r1, r5
 1910 003a 2046     		mov	r0, r4
 1911              	.LVL163:
 462:Model/stai_palm_detector.c **** 
 1912              		.loc 1 462 9 view .LVU596
 1913 003c FFF7FEFF 		bl	memset
ARM GAS  C:\Users\DJESSOU\AppData\Local\Temp\ccruImXQ.s 			page 62


 1914              	.LVL164:
 1915 0040 104B     		ldr	r3, .L236+4
 1916 0042 40F2E112 		movw	r2, #481
 1917 0046 6360     		str	r3, [r4, #4]
 1918 0048 0F4B     		ldr	r3, .L236+8
 464:Model/stai_palm_detector.c **** }
 1919              		.loc 1 464 10 view .LVU597
 1920 004a 2846     		mov	r0, r5
 462:Model/stai_palm_detector.c **** 
 1921              		.loc 1 462 9 view .LVU598
 1922 004c A360     		str	r3, [r4, #8]
 1923 004e 0F4B     		ldr	r3, .L236+12
 1924 0050 E360     		str	r3, [r4, #12]
 1925 0052 40F20113 		movw	r3, #257
 1926 0056 A382     		strh	r3, [r4, #20]	@ movhi
 1927 0058 0323     		movs	r3, #3
 1928 005a A375     		strb	r3, [r4, #22]
 1929 005c 2376     		strb	r3, [r4, #24]
 1930 005e 0123     		movs	r3, #1
 1931 0060 2377     		strb	r3, [r4, #28]
 1932 0062 4FF0E053 		mov	r3, #469762048
 1933 0066 C4E90A23 		strd	r2, r3, [r4, #40]
 1934 006a 094B     		ldr	r3, .L236+16
 1935 006c 2363     		str	r3, [r4, #48]
 1936 006e EF23     		movs	r3, #239
 1937 0070 A386     		strh	r3, [r4, #52]	@ movhi
 1938 0072 084B     		ldr	r3, .L236+20
 1939 0074 E363     		str	r3, [r4, #60]
 1940 0076 084B     		ldr	r3, .L236+24
 1941 0078 2364     		str	r3, [r4, #64]
 1942 007a 084B     		ldr	r3, .L236+28
 1943 007c 6364     		str	r3, [r4, #68]
 464:Model/stai_palm_detector.c **** }
 1944              		.loc 1 464 3 is_stmt 1 view .LVU599
 464:Model/stai_palm_detector.c **** }
 1945              		.loc 1 464 10 is_stmt 0 view .LVU600
 1946 007e D8E7     		b	.L229
 1947              	.L237:
 1948              		.align	2
 1949              	.L236:
 1950 0080 00000000 		.word	NN_Interface_palm_detector
 1951 0084 00000000 		.word	.LC5
 1952 0088 15000000 		.word	.LC6
 1953 008c 23000000 		.word	.LC7
 1954 0090 01000200 		.word	131073
 1955 0094 00000000 		.word	__compound_literal.3
 1956 0098 00000000 		.word	__compound_literal.6
 1957 009c 00000000 		.word	__compound_literal.616
 1958              		.cfi_endproc
 1959              	.LFE315:
 1961              		.section	.text.stai_palm_detector_get_states,"ax",%progbits
 1962              		.align	1
 1963              		.global	stai_palm_detector_get_states
 1964              		.syntax unified
 1965              		.thumb
 1966              		.thumb_func
 1968              	stai_palm_detector_get_states:
ARM GAS  C:\Users\DJESSOU\AppData\Local\Temp\ccruImXQ.s 			page 63


 1969              	.LVL165:
 1970              	.LFB316:
 466:Model/stai_palm_detector.c **** 
 467:Model/stai_palm_detector.c **** STAI_API_ENTRY
 468:Model/stai_palm_detector.c **** stai_return_code stai_palm_detector_get_states(stai_network *network, stai_ptr *states, stai_size *
 469:Model/stai_palm_detector.c **** {
 1971              		.loc 1 469 1 is_stmt 1 view -0
 1972              		.cfi_startproc
 1973              		@ args = 0, pretend = 0, frame = 8
 1974              		@ frame_needed = 0, uses_anonymous_args = 0
 470:Model/stai_palm_detector.c ****   LL_ATON_LIB_UNUSED(states);
 1975              		.loc 1 470 3 view .LVU602
 471:Model/stai_palm_detector.c **** 
 472:Model/stai_palm_detector.c ****   /* check context & network interface handle */
 473:Model/stai_palm_detector.c ****   __LL_ATON_STAI_ACQUIRE_INTERFACE(nn_i_ptr, network);
 1976              		.loc 1 473 3 view .LVU603
 469:Model/stai_palm_detector.c ****   LL_ATON_LIB_UNUSED(states);
 1977              		.loc 1 469 1 is_stmt 0 view .LVU604
 1978 0000 37B5     		push	{r0, r1, r2, r4, r5, lr}
 1979              		.cfi_def_cfa_offset 24
 1980              		.cfi_offset 4, -12
 1981              		.cfi_offset 5, -8
 1982              		.cfi_offset 14, -4
 1983              		.loc 1 473 3 view .LVU605
 1984 0002 0025     		movs	r5, #0
 1985 0004 01A9     		add	r1, sp, #4
 1986              	.LVL166:
 469:Model/stai_palm_detector.c ****   LL_ATON_LIB_UNUSED(states);
 1987              		.loc 1 469 1 view .LVU606
 1988 0006 0446     		mov	r4, r0
 1989              		.loc 1 473 3 view .LVU607
 1990 0008 0195     		str	r5, [sp, #4]
 1991              		.loc 1 473 3 is_stmt 1 view .LVU608
 1992 000a FFF7FEFF 		bl	__ll_aton_stai_check_context_network_handle.constprop.0
 1993              	.LVL167:
 1994              		.loc 1 473 3 discriminator 1 view .LVU609
 1995 000e B0F5003F 		cmp	r0, #131072
 1996 0012 0DD2     		bcs	.L238
 1997              		.loc 1 473 54 discriminator 2 view .LVU610
 474:Model/stai_palm_detector.c ****   __LL_ATON_STAI_CHECK_NETWORK_INTERFACE(nn_i_ptr, (_stai_aton_context *)network);
 1998              		.loc 1 474 3 view .LVU611
 1999              		.loc 1 474 3 view .LVU612
 2000 0014 094B     		ldr	r3, .L245
 2001 0016 0199     		ldr	r1, [sp, #4]
 2002 0018 9942     		cmp	r1, r3
 2003 001a 0BD0     		beq	.L240
 2004              		.loc 1 474 3 discriminator 1 view .LVU613
 2005              		.loc 1 474 3 discriminator 1 view .LVU614
 2006 001c 34B1     		cbz	r4, .L241
 2007              		.loc 1 474 3 discriminator 4 view .LVU615
 2008 001e E36B     		ldr	r3, [r4, #60]
 2009 0020 B3F5003F 		cmp	r3, #131072
 2010              		.loc 1 474 3 discriminator 5 view .LVU616
 2011 0024 3CBF     		itt	cc
 2012 0026 4FF44033 		movcc	r3, #196608
 2013 002a E363     		strcc	r3, [r4, #60]
 2014              	.L241:
ARM GAS  C:\Users\DJESSOU\AppData\Local\Temp\ccruImXQ.s 			page 64


 2015              		.loc 1 474 3 is_stmt 0 discriminator 3 view .LVU617
 2016 002c 4FF44030 		mov	r0, #196608
 2017              	.LVL168:
 2018              	.L238:
 475:Model/stai_palm_detector.c **** 
 476:Model/stai_palm_detector.c ****   *n_states = 0;
 477:Model/stai_palm_detector.c ****   return STAI_SUCCESS;
 478:Model/stai_palm_detector.c **** }
 2019              		.loc 1 478 1 view .LVU618
 2020 0030 03B0     		add	sp, sp, #12
 2021              		.cfi_remember_state
 2022              		.cfi_def_cfa_offset 12
 2023              		@ sp needed
 2024 0032 30BD     		pop	{r4, r5, pc}
 2025              	.LVL169:
 2026              	.L240:
 2027              		.cfi_restore_state
 474:Model/stai_palm_detector.c ****   __LL_ATON_STAI_CHECK_NETWORK_INTERFACE(nn_i_ptr, (_stai_aton_context *)network);
 2028              		.loc 1 474 3 is_stmt 1 discriminator 2 view .LVU619
 474:Model/stai_palm_detector.c ****   __LL_ATON_STAI_CHECK_NETWORK_INTERFACE(nn_i_ptr, (_stai_aton_context *)network);
 2029              		.loc 1 474 3 discriminator 2 view .LVU620
 476:Model/stai_palm_detector.c ****   return STAI_SUCCESS;
 2030              		.loc 1 476 3 view .LVU621
 477:Model/stai_palm_detector.c **** }
 2031              		.loc 1 477 10 is_stmt 0 view .LVU622
 2032 0034 2846     		mov	r0, r5
 2033              	.LVL170:
 476:Model/stai_palm_detector.c ****   return STAI_SUCCESS;
 2034              		.loc 1 476 13 view .LVU623
 2035 0036 1560     		str	r5, [r2]
 477:Model/stai_palm_detector.c **** }
 2036              		.loc 1 477 3 is_stmt 1 view .LVU624
 477:Model/stai_palm_detector.c **** }
 2037              		.loc 1 477 10 is_stmt 0 view .LVU625
 2038 0038 FAE7     		b	.L238
 2039              	.L246:
 2040 003a 00BF     		.align	2
 2041              	.L245:
 2042 003c 00000000 		.word	NN_Interface_palm_detector
 2043              		.cfi_endproc
 2044              	.LFE316:
 2046              		.section	.text.stai_palm_detector_get_error,"ax",%progbits
 2047              		.align	1
 2048              		.global	stai_palm_detector_get_error
 2049              		.syntax unified
 2050              		.thumb
 2051              		.thumb_func
 2053              	stai_palm_detector_get_error:
 2054              	.LVL171:
 2055              	.LFB317:
 479:Model/stai_palm_detector.c **** 
 480:Model/stai_palm_detector.c **** STAI_API_ENTRY
 481:Model/stai_palm_detector.c **** stai_return_code stai_palm_detector_get_error(stai_network *network)
 482:Model/stai_palm_detector.c **** {
 2056              		.loc 1 482 1 is_stmt 1 view -0
 2057              		.cfi_startproc
 2058              		@ args = 0, pretend = 0, frame = 8
ARM GAS  C:\Users\DJESSOU\AppData\Local\Temp\ccruImXQ.s 			page 65


 2059              		@ frame_needed = 0, uses_anonymous_args = 0
 483:Model/stai_palm_detector.c ****   __LL_ATON_STAI_ACQUIRE_INTERFACE(nn_i_ptr, network);
 2060              		.loc 1 483 3 view .LVU627
 2061 0000 0023     		movs	r3, #0
 482:Model/stai_palm_detector.c ****   __LL_ATON_STAI_ACQUIRE_INTERFACE(nn_i_ptr, network);
 2062              		.loc 1 482 1 is_stmt 0 view .LVU628
 2063 0002 07B5     		push	{r0, r1, r2, lr}
 2064              		.cfi_def_cfa_offset 16
 2065              		.cfi_offset 14, -4
 2066              		.loc 1 483 3 view .LVU629
 2067 0004 01A9     		add	r1, sp, #4
 482:Model/stai_palm_detector.c ****   __LL_ATON_STAI_ACQUIRE_INTERFACE(nn_i_ptr, network);
 2068              		.loc 1 482 1 view .LVU630
 2069 0006 0246     		mov	r2, r0
 2070              		.loc 1 483 3 view .LVU631
 2071 0008 0193     		str	r3, [sp, #4]
 2072              		.loc 1 483 3 is_stmt 1 view .LVU632
 2073 000a FFF7FEFF 		bl	__ll_aton_stai_check_context_network_handle.constprop.0
 2074              	.LVL172:
 2075              		.loc 1 483 3 discriminator 1 view .LVU633
 2076 000e B0F5003F 		cmp	r0, #131072
 2077 0012 0DD2     		bcs	.L247
 2078              		.loc 1 483 54 discriminator 2 view .LVU634
 484:Model/stai_palm_detector.c ****   __LL_ATON_STAI_CHECK_NETWORK_INTERFACE(nn_i_ptr, (_stai_aton_context *)network);
 2079              		.loc 1 484 3 view .LVU635
 2080              		.loc 1 484 3 view .LVU636
 2081 0014 094B     		ldr	r3, .L254
 2082 0016 0199     		ldr	r1, [sp, #4]
 2083 0018 9942     		cmp	r1, r3
 2084 001a 0CD0     		beq	.L249
 2085              		.loc 1 484 3 discriminator 1 view .LVU637
 2086              		.loc 1 484 3 discriminator 1 view .LVU638
 2087 001c 32B1     		cbz	r2, .L250
 2088              		.loc 1 484 3 discriminator 4 view .LVU639
 2089 001e D36B     		ldr	r3, [r2, #60]
 2090 0020 B3F5003F 		cmp	r3, #131072
 2091              		.loc 1 484 3 discriminator 5 view .LVU640
 2092 0024 3CBF     		itt	cc
 2093 0026 4FF44033 		movcc	r3, #196608
 2094 002a D363     		strcc	r3, [r2, #60]
 2095              	.L250:
 2096              		.loc 1 484 3 is_stmt 0 discriminator 3 view .LVU641
 2097 002c 4FF44030 		mov	r0, #196608
 2098              	.LVL173:
 2099              	.L247:
 485:Model/stai_palm_detector.c ****   _stai_aton_context *ctx = (_stai_aton_context *)network;
 486:Model/stai_palm_detector.c **** 
 487:Model/stai_palm_detector.c ****   // return 1st generated error or STAI_SUCCESS if no errors so far
 488:Model/stai_palm_detector.c ****   return ctx->first_error;
 489:Model/stai_palm_detector.c **** }
 2100              		.loc 1 489 1 view .LVU642
 2101 0030 03B0     		add	sp, sp, #12
 2102              		.cfi_remember_state
 2103              		.cfi_def_cfa_offset 4
 2104              		@ sp needed
 2105 0032 5DF804FB 		ldr	pc, [sp], #4
 2106              	.LVL174:
ARM GAS  C:\Users\DJESSOU\AppData\Local\Temp\ccruImXQ.s 			page 66


 2107              	.L249:
 2108              		.cfi_restore_state
 484:Model/stai_palm_detector.c ****   __LL_ATON_STAI_CHECK_NETWORK_INTERFACE(nn_i_ptr, (_stai_aton_context *)network);
 2109              		.loc 1 484 3 is_stmt 1 discriminator 2 view .LVU643
 484:Model/stai_palm_detector.c ****   __LL_ATON_STAI_CHECK_NETWORK_INTERFACE(nn_i_ptr, (_stai_aton_context *)network);
 2110              		.loc 1 484 3 discriminator 2 view .LVU644
 485:Model/stai_palm_detector.c ****   _stai_aton_context *ctx = (_stai_aton_context *)network;
 2111              		.loc 1 485 3 view .LVU645
 488:Model/stai_palm_detector.c **** }
 2112              		.loc 1 488 3 view .LVU646
 488:Model/stai_palm_detector.c **** }
 2113              		.loc 1 488 13 is_stmt 0 view .LVU647
 2114 0036 D06B     		ldr	r0, [r2, #60]
 2115              	.LVL175:
 488:Model/stai_palm_detector.c **** }
 2116              		.loc 1 488 13 view .LVU648
 2117 0038 FAE7     		b	.L247
 2118              	.L255:
 2119 003a 00BF     		.align	2
 2120              	.L254:
 2121 003c 00000000 		.word	NN_Interface_palm_detector
 2122              		.cfi_endproc
 2123              	.LFE317:
 2125              		.section	.text.stai_palm_detector_set_inputs,"ax",%progbits
 2126              		.align	1
 2127              		.global	stai_palm_detector_set_inputs
 2128              		.syntax unified
 2129              		.thumb
 2130              		.thumb_func
 2132              	stai_palm_detector_set_inputs:
 2133              	.LVL176:
 2134              	.LFB318:
 490:Model/stai_palm_detector.c **** 
 491:Model/stai_palm_detector.c **** /*****************************************************************************/
 492:Model/stai_palm_detector.c **** /*  Setters APIs  */
 493:Model/stai_palm_detector.c **** STAI_API_ENTRY
 494:Model/stai_palm_detector.c **** stai_return_code stai_palm_detector_set_inputs(stai_network *network, const stai_ptr *inputs,
 495:Model/stai_palm_detector.c ****                                                        const stai_size n_inputs)
 496:Model/stai_palm_detector.c **** {
 2135              		.loc 1 496 1 is_stmt 1 view -0
 2136              		.cfi_startproc
 2137              		@ args = 0, pretend = 0, frame = 0
 2138              		@ frame_needed = 0, uses_anonymous_args = 0
 2139              		@ link register save eliminated.
 497:Model/stai_palm_detector.c ****   return __ll_aton_stai_palm_detector_set_inputs_or_weights(network, inputs, n_inputs, true);
 2140              		.loc 1 497 3 view .LVU650
 2141              		.loc 1 497 10 is_stmt 0 view .LVU651
 2142 0000 0123     		movs	r3, #1
 2143 0002 FFF7FEBF 		b	__ll_aton_stai_palm_detector_set_inputs_or_weights
 2144              	.LVL177:
 2145              		.loc 1 497 10 view .LVU652
 2146              		.cfi_endproc
 2147              	.LFE318:
 2149              		.section	.text.stai_palm_detector_set_weights,"ax",%progbits
 2150              		.align	1
 2151              		.global	stai_palm_detector_set_weights
 2152              		.syntax unified
ARM GAS  C:\Users\DJESSOU\AppData\Local\Temp\ccruImXQ.s 			page 67


 2153              		.thumb
 2154              		.thumb_func
 2156              	stai_palm_detector_set_weights:
 2157              	.LVL178:
 2158              	.LFB319:
 498:Model/stai_palm_detector.c **** }
 499:Model/stai_palm_detector.c **** 
 500:Model/stai_palm_detector.c **** STAI_API_ENTRY
 501:Model/stai_palm_detector.c **** stai_return_code stai_palm_detector_set_weights(stai_network *network, const stai_ptr *weights,
 502:Model/stai_palm_detector.c ****                                                         const stai_size n_weights)
 503:Model/stai_palm_detector.c **** {
 2159              		.loc 1 503 1 is_stmt 1 view -0
 2160              		.cfi_startproc
 2161              		@ args = 0, pretend = 0, frame = 0
 2162              		@ frame_needed = 0, uses_anonymous_args = 0
 2163              		@ link register save eliminated.
 504:Model/stai_palm_detector.c ****   return __ll_aton_stai_palm_detector_set_inputs_or_weights(network, weights, n_weights, false);
 2164              		.loc 1 504 3 view .LVU654
 2165              		.loc 1 504 10 is_stmt 0 view .LVU655
 2166 0000 0023     		movs	r3, #0
 2167 0002 FFF7FEBF 		b	__ll_aton_stai_palm_detector_set_inputs_or_weights
 2168              	.LVL179:
 2169              		.loc 1 504 10 view .LVU656
 2170              		.cfi_endproc
 2171              	.LFE319:
 2173              		.section	.text.stai_palm_detector_set_outputs,"ax",%progbits
 2174              		.align	1
 2175              		.global	stai_palm_detector_set_outputs
 2176              		.syntax unified
 2177              		.thumb
 2178              		.thumb_func
 2180              	stai_palm_detector_set_outputs:
 2181              	.LVL180:
 2182              	.LFB320:
 505:Model/stai_palm_detector.c **** }
 506:Model/stai_palm_detector.c **** 
 507:Model/stai_palm_detector.c **** STAI_API_ENTRY
 508:Model/stai_palm_detector.c **** stai_return_code stai_palm_detector_set_outputs(stai_network *network, const stai_ptr *outputs,
 509:Model/stai_palm_detector.c ****                                                         const stai_size n_outputs)
 510:Model/stai_palm_detector.c **** {
 2183              		.loc 1 510 1 is_stmt 1 view -0
 2184              		.cfi_startproc
 2185              		@ args = 0, pretend = 0, frame = 0
 2186              		@ frame_needed = 0, uses_anonymous_args = 0
 2187              		@ link register save eliminated.
 511:Model/stai_palm_detector.c ****   return __ll_aton_stai_palm_detector_set_outputs_or_activations(network, outputs, n_outputs, true)
 2188              		.loc 1 511 3 view .LVU658
 2189              		.loc 1 511 10 is_stmt 0 view .LVU659
 2190 0000 0123     		movs	r3, #1
 2191 0002 FFF7FEBF 		b	__ll_aton_stai_palm_detector_set_outputs_or_activations
 2192              	.LVL181:
 2193              		.loc 1 511 10 view .LVU660
 2194              		.cfi_endproc
 2195              	.LFE320:
 2197              		.section	.text.stai_palm_detector_set_activations,"ax",%progbits
 2198              		.align	1
 2199              		.global	stai_palm_detector_set_activations
ARM GAS  C:\Users\DJESSOU\AppData\Local\Temp\ccruImXQ.s 			page 68


 2200              		.syntax unified
 2201              		.thumb
 2202              		.thumb_func
 2204              	stai_palm_detector_set_activations:
 2205              	.LVL182:
 2206              	.LFB321:
 512:Model/stai_palm_detector.c **** }
 513:Model/stai_palm_detector.c **** 
 514:Model/stai_palm_detector.c **** STAI_API_ENTRY
 515:Model/stai_palm_detector.c **** stai_return_code stai_palm_detector_set_activations(stai_network *network, const stai_ptr *activati
 516:Model/stai_palm_detector.c ****                                                             const stai_size n_activations)
 517:Model/stai_palm_detector.c **** {
 2207              		.loc 1 517 1 is_stmt 1 view -0
 2208              		.cfi_startproc
 2209              		@ args = 0, pretend = 0, frame = 0
 2210              		@ frame_needed = 0, uses_anonymous_args = 0
 2211              		@ link register save eliminated.
 518:Model/stai_palm_detector.c ****   return __ll_aton_stai_palm_detector_set_outputs_or_activations(network, activations, n_activation
 2212              		.loc 1 518 3 view .LVU662
 2213              		.loc 1 518 10 is_stmt 0 view .LVU663
 2214 0000 0023     		movs	r3, #0
 2215 0002 FFF7FEBF 		b	__ll_aton_stai_palm_detector_set_outputs_or_activations
 2216              	.LVL183:
 2217              		.loc 1 518 10 view .LVU664
 2218              		.cfi_endproc
 2219              	.LFE321:
 2221              		.section	.text.stai_palm_detector_set_states,"ax",%progbits
 2222              		.align	1
 2223              		.global	stai_palm_detector_set_states
 2224              		.syntax unified
 2225              		.thumb
 2226              		.thumb_func
 2228              	stai_palm_detector_set_states:
 2229              	.LVL184:
 2230              	.LFB322:
 519:Model/stai_palm_detector.c **** }
 520:Model/stai_palm_detector.c **** 
 521:Model/stai_palm_detector.c **** STAI_API_ENTRY
 522:Model/stai_palm_detector.c **** stai_return_code stai_palm_detector_set_states(stai_network *network, const stai_ptr *states,
 523:Model/stai_palm_detector.c ****                                                        const stai_size n_states)
 524:Model/stai_palm_detector.c **** {
 2231              		.loc 1 524 1 is_stmt 1 view -0
 2232              		.cfi_startproc
 2233              		@ args = 0, pretend = 0, frame = 8
 2234              		@ frame_needed = 0, uses_anonymous_args = 0
 525:Model/stai_palm_detector.c ****   LL_ATON_LIB_UNUSED(states);
 2235              		.loc 1 525 3 view .LVU666
 526:Model/stai_palm_detector.c **** 
 527:Model/stai_palm_detector.c ****   /* check context & network interface handle */
 528:Model/stai_palm_detector.c ****   __LL_ATON_STAI_ACQUIRE_INTERFACE(nn_i_ptr, network);
 2236              		.loc 1 528 3 view .LVU667
 2237 0000 0023     		movs	r3, #0
 524:Model/stai_palm_detector.c ****   LL_ATON_LIB_UNUSED(states);
 2238              		.loc 1 524 1 is_stmt 0 view .LVU668
 2239 0002 13B5     		push	{r0, r1, r4, lr}
 2240              		.cfi_def_cfa_offset 16
 2241              		.cfi_offset 4, -8
ARM GAS  C:\Users\DJESSOU\AppData\Local\Temp\ccruImXQ.s 			page 69


 2242              		.cfi_offset 14, -4
 2243              		.loc 1 528 3 view .LVU669
 2244 0004 01A9     		add	r1, sp, #4
 2245              	.LVL185:
 524:Model/stai_palm_detector.c ****   LL_ATON_LIB_UNUSED(states);
 2246              		.loc 1 524 1 view .LVU670
 2247 0006 0446     		mov	r4, r0
 2248              		.loc 1 528 3 view .LVU671
 2249 0008 0193     		str	r3, [sp, #4]
 2250              		.loc 1 528 3 is_stmt 1 view .LVU672
 2251 000a FFF7FEFF 		bl	__ll_aton_stai_check_context_network_handle.constprop.0
 2252              	.LVL186:
 2253              		.loc 1 528 3 discriminator 1 view .LVU673
 2254 000e B0F5003F 		cmp	r0, #131072
 2255 0012 0DD2     		bcs	.L260
 2256              		.loc 1 528 54 discriminator 2 view .LVU674
 529:Model/stai_palm_detector.c ****   __LL_ATON_STAI_CHECK_NETWORK_INTERFACE(nn_i_ptr, (_stai_aton_context *)network);
 2257              		.loc 1 529 3 view .LVU675
 2258              		.loc 1 529 3 view .LVU676
 2259 0014 0E4B     		ldr	r3, .L272
 2260 0016 0199     		ldr	r1, [sp, #4]
 2261 0018 9942     		cmp	r1, r3
 2262 001a 0BD0     		beq	.L262
 2263              		.loc 1 529 3 discriminator 1 view .LVU677
 2264              		.loc 1 529 3 discriminator 1 view .LVU678
 2265 001c 34B1     		cbz	r4, .L263
 2266              		.loc 1 529 3 discriminator 4 view .LVU679
 2267 001e E36B     		ldr	r3, [r4, #60]
 2268 0020 B3F5003F 		cmp	r3, #131072
 2269              		.loc 1 529 3 discriminator 5 view .LVU680
 2270 0024 3CBF     		itt	cc
 2271 0026 4FF44033 		movcc	r3, #196608
 2272 002a E363     		strcc	r3, [r4, #60]
 2273              	.LVL187:
 2274              	.L263:
 2275              		.loc 1 529 3 is_stmt 0 discriminator 3 view .LVU681
 2276 002c 4FF44030 		mov	r0, #196608
 2277              	.L260:
 530:Model/stai_palm_detector.c **** 
 531:Model/stai_palm_detector.c ****   if (n_states != 0)
 532:Model/stai_palm_detector.c ****     __LL_ATON_STAI_SET_1ST_CTX_ERROR_AND_RETURN((_stai_aton_context *)network, STAI_ERROR_NETWORK_I
 533:Model/stai_palm_detector.c ****   else
 534:Model/stai_palm_detector.c ****     return STAI_SUCCESS;
 535:Model/stai_palm_detector.c **** }
 2278              		.loc 1 535 1 view .LVU682
 2279 0030 02B0     		add	sp, sp, #8
 2280              		.cfi_remember_state
 2281              		.cfi_def_cfa_offset 8
 2282              		@ sp needed
 2283 0032 10BD     		pop	{r4, pc}
 2284              	.LVL188:
 2285              	.L262:
 2286              		.cfi_restore_state
 529:Model/stai_palm_detector.c ****   __LL_ATON_STAI_CHECK_NETWORK_INTERFACE(nn_i_ptr, (_stai_aton_context *)network);
 2287              		.loc 1 529 3 is_stmt 1 discriminator 2 view .LVU683
 529:Model/stai_palm_detector.c ****   __LL_ATON_STAI_CHECK_NETWORK_INTERFACE(nn_i_ptr, (_stai_aton_context *)network);
 2288              		.loc 1 529 3 discriminator 2 view .LVU684
ARM GAS  C:\Users\DJESSOU\AppData\Local\Temp\ccruImXQ.s 			page 70


 531:Model/stai_palm_detector.c ****     __LL_ATON_STAI_SET_1ST_CTX_ERROR_AND_RETURN((_stai_aton_context *)network, STAI_ERROR_NETWORK_I
 2289              		.loc 1 531 3 view .LVU685
 534:Model/stai_palm_detector.c **** }
 2290              		.loc 1 534 12 is_stmt 0 view .LVU686
 2291 0034 1046     		mov	r0, r2
 2292              	.LVL189:
 531:Model/stai_palm_detector.c ****     __LL_ATON_STAI_SET_1ST_CTX_ERROR_AND_RETURN((_stai_aton_context *)network, STAI_ERROR_NETWORK_I
 2293              		.loc 1 531 6 view .LVU687
 2294 0036 002A     		cmp	r2, #0
 2295 0038 FAD0     		beq	.L260
 2296              	.LVL190:
 532:Model/stai_palm_detector.c ****   else
 2297              		.loc 1 532 5 is_stmt 1 view .LVU688
 532:Model/stai_palm_detector.c ****   else
 2298              		.loc 1 532 5 view .LVU689
 2299 003a 002C     		cmp	r4, #0
 2300 003c F6D0     		beq	.L263
 532:Model/stai_palm_detector.c ****   else
 2301              		.loc 1 532 5 discriminator 2 view .LVU690
 2302 003e E36B     		ldr	r3, [r4, #60]
 532:Model/stai_palm_detector.c ****   else
 2303              		.loc 1 532 5 is_stmt 0 discriminator 5 view .LVU691
 2304 0040 0448     		ldr	r0, .L272+4
 2305              	.LVL191:
 532:Model/stai_palm_detector.c ****   else
 2306              		.loc 1 532 5 discriminator 2 view .LVU692
 2307 0042 B3F5003F 		cmp	r3, #131072
 532:Model/stai_palm_detector.c ****   else
 2308              		.loc 1 532 5 is_stmt 1 discriminator 3 view .LVU693
 2309 0046 3CBF     		itt	cc
 2310 0048 024B     		ldrcc	r3, .L272+4
 2311 004a E363     		strcc	r3, [r4, #60]
 2312 004c F0E7     		b	.L260
 2313              	.L273:
 2314 004e 00BF     		.align	2
 2315              	.L272:
 2316 0050 00000000 		.word	NN_Interface_palm_detector
 2317 0054 31000400 		.word	262193
 2318              		.cfi_endproc
 2319              	.LFE322:
 2321              		.section	.text.stai_palm_detector_set_callback,"ax",%progbits
 2322              		.align	1
 2323              		.global	stai_palm_detector_set_callback
 2324              		.syntax unified
 2325              		.thumb
 2326              		.thumb_func
 2328              	stai_palm_detector_set_callback:
 2329              	.LVL192:
 2330              	.LFB323:
 536:Model/stai_palm_detector.c **** 
 537:Model/stai_palm_detector.c **** STAI_API_ENTRY
 538:Model/stai_palm_detector.c **** stai_return_code stai_palm_detector_set_callback(stai_network *network, const stai_event_cb cb, voi
 539:Model/stai_palm_detector.c **** {
 2331              		.loc 1 539 1 view -0
 2332              		.cfi_startproc
 2333              		@ args = 0, pretend = 0, frame = 0
 2334              		@ frame_needed = 0, uses_anonymous_args = 0
ARM GAS  C:\Users\DJESSOU\AppData\Local\Temp\ccruImXQ.s 			page 71


 540:Model/stai_palm_detector.c ****   if (network == NULL)
 2335              		.loc 1 540 3 view .LVU695
 539:Model/stai_palm_detector.c ****   if (network == NULL)
 2336              		.loc 1 539 1 is_stmt 0 view .LVU696
 2337 0000 10B5     		push	{r4, lr}
 2338              		.cfi_def_cfa_offset 8
 2339              		.cfi_offset 4, -8
 2340              		.cfi_offset 14, -4
 2341              		.loc 1 540 6 view .LVU697
 2342 0002 58B1     		cbz	r0, .L275
 541:Model/stai_palm_detector.c ****   {
 542:Model/stai_palm_detector.c ****     return STAI_ERROR_NETWORK_INVALID_CONTEXT_HANDLE;
 543:Model/stai_palm_detector.c ****   }
 544:Model/stai_palm_detector.c **** 
 545:Model/stai_palm_detector.c ****   _stai_aton_context *nn_ctx = (_stai_aton_context *)network;
 2343              		.loc 1 545 3 is_stmt 1 view .LVU698
 2344              	.LVL193:
 546:Model/stai_palm_detector.c **** 
 547:Model/stai_palm_detector.c ****   if ((nn_ctx->network_instance.network != NULL) &&
 2345              		.loc 1 547 3 view .LVU699
 2346              		.loc 1 547 32 is_stmt 0 view .LVU700
 2347 0004 0368     		ldr	r3, [r0]
 2348              		.loc 1 547 6 view .LVU701
 2349 0006 63B1     		cbz	r3, .L276
 2350              		.loc 1 547 50 discriminator 1 view .LVU702
 2351 0008 0B4C     		ldr	r4, .L287
 2352 000a A342     		cmp	r3, r4
 2353 000c 09D0     		beq	.L276
 548:Model/stai_palm_detector.c ****       (nn_ctx->network_instance.network != &NN_Interface_palm_detector))
 549:Model/stai_palm_detector.c ****   {
 550:Model/stai_palm_detector.c ****     __LL_ATON_STAI_SET_1ST_CTX_ERROR_AND_RETURN(nn_ctx, STAI_ERROR_NETWORK_INVALID_CONTEXT_HANDLE);
 2354              		.loc 1 550 5 is_stmt 1 view .LVU703
 2355              		.loc 1 550 5 view .LVU704
 2356              		.loc 1 550 5 discriminator 2 view .LVU705
 2357 000e C36B     		ldr	r3, [r0, #60]
 2358 0010 B3F5003F 		cmp	r3, #131072
 2359              		.loc 1 550 5 discriminator 3 view .LVU706
 2360 0014 3CBF     		itt	cc
 2361 0016 4FF44033 		movcc	r3, #196608
 2362 001a C363     		strcc	r3, [r0, #60]
 2363              	.LVL194:
 2364              	.L275:
 542:Model/stai_palm_detector.c ****   }
 2365              		.loc 1 542 12 is_stmt 0 view .LVU707
 2366 001c 4FF44030 		mov	r0, #196608
 2367              	.LVL195:
 2368              	.L274:
 551:Model/stai_palm_detector.c ****   }
 552:Model/stai_palm_detector.c **** 
 553:Model/stai_palm_detector.c ****   nn_ctx->callback = cb;
 554:Model/stai_palm_detector.c ****   nn_ctx->callback_cookie = cb_cookie;
 555:Model/stai_palm_detector.c **** 
 556:Model/stai_palm_detector.c ****   LL_ATON_RT_SetNetworkCallback(&nn_ctx->network_instance,
 557:Model/stai_palm_detector.c ****                                 (cb != NULL) ? _stai_aton_internal_epoch_block_callback : NULL);
 558:Model/stai_palm_detector.c **** 
 559:Model/stai_palm_detector.c ****   return STAI_SUCCESS;
 560:Model/stai_palm_detector.c **** }
ARM GAS  C:\Users\DJESSOU\AppData\Local\Temp\ccruImXQ.s 			page 72


 2369              		.loc 1 560 1 view .LVU708
 2370 0020 10BD     		pop	{r4, pc}
 2371              	.LVL196:
 2372              	.L276:
 550:Model/stai_palm_detector.c ****   }
 2373              		.loc 1 550 5 is_stmt 1 view .LVU709
 553:Model/stai_palm_detector.c ****   nn_ctx->callback_cookie = cb_cookie;
 2374              		.loc 1 553 3 view .LVU710
 556:Model/stai_palm_detector.c ****                                 (cb != NULL) ? _stai_aton_internal_epoch_block_callback : NULL);
 2375              		.loc 1 556 3 is_stmt 0 discriminator 4 view .LVU711
 2376 0022 064B     		ldr	r3, .L287+4
 556:Model/stai_palm_detector.c ****                                 (cb != NULL) ? _stai_aton_internal_epoch_block_callback : NULL);
 2377              		.loc 1 556 3 discriminator 1 view .LVU712
 2378 0024 0029     		cmp	r1, #0
 554:Model/stai_palm_detector.c **** 
 2379              		.loc 1 554 27 view .LVU713
 2380 0026 C0E90C12 		strd	r1, r2, [r0, #48]
 556:Model/stai_palm_detector.c ****                                 (cb != NULL) ? _stai_aton_internal_epoch_block_callback : NULL);
 2381              		.loc 1 556 3 is_stmt 1 view .LVU714
 556:Model/stai_palm_detector.c ****                                 (cb != NULL) ? _stai_aton_internal_epoch_block_callback : NULL);
 2382              		.loc 1 556 3 is_stmt 0 discriminator 4 view .LVU715
 2383 002a 18BF     		it	ne
 2384 002c 1946     		movne	r1, r3
 2385              	.LVL197:
 556:Model/stai_palm_detector.c ****                                 (cb != NULL) ? _stai_aton_internal_epoch_block_callback : NULL);
 2386              		.loc 1 556 3 discriminator 4 view .LVU716
 2387 002e FFF7FEFF 		bl	LL_ATON_RT_SetNetworkCallback
 2388              	.LVL198:
 559:Model/stai_palm_detector.c **** }
 2389              		.loc 1 559 3 is_stmt 1 view .LVU717
 559:Model/stai_palm_detector.c **** }
 2390              		.loc 1 559 10 is_stmt 0 view .LVU718
 2391 0032 0020     		movs	r0, #0
 2392 0034 F4E7     		b	.L274
 2393              	.L288:
 2394 0036 00BF     		.align	2
 2395              	.L287:
 2396 0038 00000000 		.word	NN_Interface_palm_detector
 2397 003c 00000000 		.word	_stai_aton_internal_epoch_block_callback
 2398              		.cfi_endproc
 2399              	.LFE323:
 2401              		.section	.text.stai_ext_palm_detector_run_continue,"ax",%progbits
 2402              		.align	1
 2403              		.global	stai_ext_palm_detector_run_continue
 2404              		.syntax unified
 2405              		.thumb
 2406              		.thumb_func
 2408              	stai_ext_palm_detector_run_continue:
 2409              	.LVL199:
 2410              	.LFB324:
 561:Model/stai_palm_detector.c **** 
 562:Model/stai_palm_detector.c **** /***************************************************************************/
