ARM GAS  C:\Users\DJESSOU\AppData\Local\Temp\ccqAzEsX.s 			page 1


   1              		.arch armv8.1-m.main
   2              		.fpu fpv5-d16
   3              		.arch_extension dsp
   4              		.arch_extension fp
   5              		.arch_extension fp.dp
   6              		.arch_extension mve
   7              		.arch_extension mve.fp
   8              		.eabi_attribute 5, "cortex-m55"
   9              		.eabi_attribute 28, 1
  10              		.eabi_attribute 20, 1
  11              		.eabi_attribute 21, 1
  12              		.eabi_attribute 23, 3
  13              		.eabi_attribute 24, 1
  14              		.eabi_attribute 25, 1
  15              		.eabi_attribute 26, 1
  16              		.eabi_attribute 30, 4
  17              		.eabi_attribute 34, 1
  18              		.eabi_attribute 38, 1
  19              		.eabi_attribute 18, 4
  20              		.file	"stm32n6xx_hal_bsec.c"
  21              		.text
  22              	.Ltext0:
  23              		.cfi_sections	.debug_frame
  24              		.file 1 "STM32Cube_FW_N6/Drivers/STM32N6xx_HAL_Driver/Src/stm32n6xx_hal_bsec.c"
  25              		.section	.text.HAL_BSEC_GetStatus,"ax",%progbits
  26              		.align	1
  27              		.global	HAL_BSEC_GetStatus
  28              		.syntax unified
  29              		.thumb
  30              		.thumb_func
  32              	HAL_BSEC_GetStatus:
  33              	.LVL0:
  34              	.LFB862:
   1:STM32Cube_FW_N6/Drivers/STM32N6xx_HAL_Driver/Src/stm32n6xx_hal_bsec.c **** /**
   2:STM32Cube_FW_N6/Drivers/STM32N6xx_HAL_Driver/Src/stm32n6xx_hal_bsec.c ****   ******************************************************************************
   3:STM32Cube_FW_N6/Drivers/STM32N6xx_HAL_Driver/Src/stm32n6xx_hal_bsec.c ****   * @file    stm32n6xx_hal_bsec.c
   4:STM32Cube_FW_N6/Drivers/STM32N6xx_HAL_Driver/Src/stm32n6xx_hal_bsec.c ****   * @author  MCD Application Team
   5:STM32Cube_FW_N6/Drivers/STM32N6xx_HAL_Driver/Src/stm32n6xx_hal_bsec.c ****   * @brief   BSEC HAL module driver.
   6:STM32Cube_FW_N6/Drivers/STM32N6xx_HAL_Driver/Src/stm32n6xx_hal_bsec.c ****   *          This file provides firmware functions to manage the following
   7:STM32Cube_FW_N6/Drivers/STM32N6xx_HAL_Driver/Src/stm32n6xx_hal_bsec.c ****   *          functionalities of Boot and SECurity (BSEC):
   8:STM32Cube_FW_N6/Drivers/STM32N6xx_HAL_Driver/Src/stm32n6xx_hal_bsec.c ****   *           + Initialization and de-initialization functions
   9:STM32Cube_FW_N6/Drivers/STM32N6xx_HAL_Driver/Src/stm32n6xx_hal_bsec.c ****   *
  10:STM32Cube_FW_N6/Drivers/STM32N6xx_HAL_Driver/Src/stm32n6xx_hal_bsec.c ****   *
  11:STM32Cube_FW_N6/Drivers/STM32N6xx_HAL_Driver/Src/stm32n6xx_hal_bsec.c ****   ******************************************************************************
  12:STM32Cube_FW_N6/Drivers/STM32N6xx_HAL_Driver/Src/stm32n6xx_hal_bsec.c ****   * @attention
  13:STM32Cube_FW_N6/Drivers/STM32N6xx_HAL_Driver/Src/stm32n6xx_hal_bsec.c ****   *
  14:STM32Cube_FW_N6/Drivers/STM32N6xx_HAL_Driver/Src/stm32n6xx_hal_bsec.c ****   * Copyright (c) 2023 STMicroelectronics.
  15:STM32Cube_FW_N6/Drivers/STM32N6xx_HAL_Driver/Src/stm32n6xx_hal_bsec.c ****   * All rights reserved.
  16:STM32Cube_FW_N6/Drivers/STM32N6xx_HAL_Driver/Src/stm32n6xx_hal_bsec.c ****   *
  17:STM32Cube_FW_N6/Drivers/STM32N6xx_HAL_Driver/Src/stm32n6xx_hal_bsec.c ****   * This software is licensed under terms that can be found in the LICENSE file
  18:STM32Cube_FW_N6/Drivers/STM32N6xx_HAL_Driver/Src/stm32n6xx_hal_bsec.c ****   * in the root directory of this software component.
  19:STM32Cube_FW_N6/Drivers/STM32N6xx_HAL_Driver/Src/stm32n6xx_hal_bsec.c ****   * If no LICENSE file comes with this software, it is provided AS-IS.
  20:STM32Cube_FW_N6/Drivers/STM32N6xx_HAL_Driver/Src/stm32n6xx_hal_bsec.c ****   *
  21:STM32Cube_FW_N6/Drivers/STM32N6xx_HAL_Driver/Src/stm32n6xx_hal_bsec.c ****   ******************************************************************************
  22:STM32Cube_FW_N6/Drivers/STM32N6xx_HAL_Driver/Src/stm32n6xx_hal_bsec.c ****   @verbatim
  23:STM32Cube_FW_N6/Drivers/STM32N6xx_HAL_Driver/Src/stm32n6xx_hal_bsec.c ****   ==============================================================================
  24:STM32Cube_FW_N6/Drivers/STM32N6xx_HAL_Driver/Src/stm32n6xx_hal_bsec.c ****                         ##### How to use this driver #####
ARM GAS  C:\Users\DJESSOU\AppData\Local\Temp\ccqAzEsX.s 			page 2


  25:STM32Cube_FW_N6/Drivers/STM32N6xx_HAL_Driver/Src/stm32n6xx_hal_bsec.c ****   ==============================================================================
  26:STM32Cube_FW_N6/Drivers/STM32N6xx_HAL_Driver/Src/stm32n6xx_hal_bsec.c ****   [..]
  27:STM32Cube_FW_N6/Drivers/STM32N6xx_HAL_Driver/Src/stm32n6xx_hal_bsec.c **** 
  28:STM32Cube_FW_N6/Drivers/STM32N6xx_HAL_Driver/Src/stm32n6xx_hal_bsec.c ****      *** General Configuration ***
  29:STM32Cube_FW_N6/Drivers/STM32N6xx_HAL_Driver/Src/stm32n6xx_hal_bsec.c ****     ============================================================
  30:STM32Cube_FW_N6/Drivers/STM32N6xx_HAL_Driver/Src/stm32n6xx_hal_bsec.c ****     [..]
  31:STM32Cube_FW_N6/Drivers/STM32N6xx_HAL_Driver/Src/stm32n6xx_hal_bsec.c **** 
  32:STM32Cube_FW_N6/Drivers/STM32N6xx_HAL_Driver/Src/stm32n6xx_hal_bsec.c ****       (+) Call the function HAL_BSEC_GetStatus() to get the status of BSEC
  33:STM32Cube_FW_N6/Drivers/STM32N6xx_HAL_Driver/Src/stm32n6xx_hal_bsec.c ****     peripheral.
  34:STM32Cube_FW_N6/Drivers/STM32N6xx_HAL_Driver/Src/stm32n6xx_hal_bsec.c **** 
  35:STM32Cube_FW_N6/Drivers/STM32N6xx_HAL_Driver/Src/stm32n6xx_hal_bsec.c ****       (+) Call the function HAL_BSEC_GlobalLock() to lock the write to BSEC
  36:STM32Cube_FW_N6/Drivers/STM32N6xx_HAL_Driver/Src/stm32n6xx_hal_bsec.c ****     registers.
  37:STM32Cube_FW_N6/Drivers/STM32N6xx_HAL_Driver/Src/stm32n6xx_hal_bsec.c **** 
  38:STM32Cube_FW_N6/Drivers/STM32N6xx_HAL_Driver/Src/stm32n6xx_hal_bsec.c ****       (+) Call the function HAL_BSEC_GetGlobalLockStatus() to get the global
  39:STM32Cube_FW_N6/Drivers/STM32N6xx_HAL_Driver/Src/stm32n6xx_hal_bsec.c ****     write registers lock status.
  40:STM32Cube_FW_N6/Drivers/STM32N6xx_HAL_Driver/Src/stm32n6xx_hal_bsec.c **** 
  41:STM32Cube_FW_N6/Drivers/STM32N6xx_HAL_Driver/Src/stm32n6xx_hal_bsec.c ****       (+) Call the function HAL_BSEC_GetErrorCode() to get the error code
  42:STM32Cube_FW_N6/Drivers/STM32N6xx_HAL_Driver/Src/stm32n6xx_hal_bsec.c ****     raised when API return HAL_ERROR.
  43:STM32Cube_FW_N6/Drivers/STM32N6xx_HAL_Driver/Src/stm32n6xx_hal_bsec.c **** 
  44:STM32Cube_FW_N6/Drivers/STM32N6xx_HAL_Driver/Src/stm32n6xx_hal_bsec.c ****      *** OTP Management ***
  45:STM32Cube_FW_N6/Drivers/STM32N6xx_HAL_Driver/Src/stm32n6xx_hal_bsec.c ****     ============================================================
  46:STM32Cube_FW_N6/Drivers/STM32N6xx_HAL_Driver/Src/stm32n6xx_hal_bsec.c ****     [..]
  47:STM32Cube_FW_N6/Drivers/STM32N6xx_HAL_Driver/Src/stm32n6xx_hal_bsec.c **** 
  48:STM32Cube_FW_N6/Drivers/STM32N6xx_HAL_Driver/Src/stm32n6xx_hal_bsec.c ****       (+) Call the function HAL_BSEC_OTP_Read() to read the value of
  49:STM32Cube_FW_N6/Drivers/STM32N6xx_HAL_Driver/Src/stm32n6xx_hal_bsec.c ****     an OTP fuse.
  50:STM32Cube_FW_N6/Drivers/STM32N6xx_HAL_Driver/Src/stm32n6xx_hal_bsec.c **** 
  51:STM32Cube_FW_N6/Drivers/STM32N6xx_HAL_Driver/Src/stm32n6xx_hal_bsec.c ****       (+) Call the function HAL_BSEC_OTP_Program() to program an OTP
  52:STM32Cube_FW_N6/Drivers/STM32N6xx_HAL_Driver/Src/stm32n6xx_hal_bsec.c ****     fuse with or without permanent lock.
  53:STM32Cube_FW_N6/Drivers/STM32N6xx_HAL_Driver/Src/stm32n6xx_hal_bsec.c **** 
  54:STM32Cube_FW_N6/Drivers/STM32N6xx_HAL_Driver/Src/stm32n6xx_hal_bsec.c ****       (+) Call the function HAL_BSEC_OTP_Reload() to reload an OTP
  55:STM32Cube_FW_N6/Drivers/STM32N6xx_HAL_Driver/Src/stm32n6xx_hal_bsec.c ****     fuse value.
  56:STM32Cube_FW_N6/Drivers/STM32N6xx_HAL_Driver/Src/stm32n6xx_hal_bsec.c **** 
  57:STM32Cube_FW_N6/Drivers/STM32N6xx_HAL_Driver/Src/stm32n6xx_hal_bsec.c ****       (+) Call the function HAL_BSEC_OTP_Lock() to sticky lock
  58:STM32Cube_FW_N6/Drivers/STM32N6xx_HAL_Driver/Src/stm32n6xx_hal_bsec.c ****     an OTP fuse programming, writing shadowed register or reload.
  59:STM32Cube_FW_N6/Drivers/STM32N6xx_HAL_Driver/Src/stm32n6xx_hal_bsec.c **** 
  60:STM32Cube_FW_N6/Drivers/STM32N6xx_HAL_Driver/Src/stm32n6xx_hal_bsec.c ****       (+) Call the function HAL_BSEC_OTP_GetState() to get the sticky lock
  61:STM32Cube_FW_N6/Drivers/STM32N6xx_HAL_Driver/Src/stm32n6xx_hal_bsec.c ****     status (programming, writing shadowed register or reload), the permanent
  62:STM32Cube_FW_N6/Drivers/STM32N6xx_HAL_Driver/Src/stm32n6xx_hal_bsec.c ****     lock status, the shadow configuration, the ECC or hidden status of an
  63:STM32Cube_FW_N6/Drivers/STM32N6xx_HAL_Driver/Src/stm32n6xx_hal_bsec.c ****     OTP fuse.
  64:STM32Cube_FW_N6/Drivers/STM32N6xx_HAL_Driver/Src/stm32n6xx_hal_bsec.c **** 
  65:STM32Cube_FW_N6/Drivers/STM32N6xx_HAL_Driver/Src/stm32n6xx_hal_bsec.c **** 
  66:STM32Cube_FW_N6/Drivers/STM32N6xx_HAL_Driver/Src/stm32n6xx_hal_bsec.c ****      *** Shadow fuse register management ***
  67:STM32Cube_FW_N6/Drivers/STM32N6xx_HAL_Driver/Src/stm32n6xx_hal_bsec.c ****     [..]
  68:STM32Cube_FW_N6/Drivers/STM32N6xx_HAL_Driver/Src/stm32n6xx_hal_bsec.c **** 
  69:STM32Cube_FW_N6/Drivers/STM32N6xx_HAL_Driver/Src/stm32n6xx_hal_bsec.c ****       (+) Call the function HAL_BSEC_OTP_ReadShadow() to read the value of
  70:STM32Cube_FW_N6/Drivers/STM32N6xx_HAL_Driver/Src/stm32n6xx_hal_bsec.c ****     a shadow fuse register.
  71:STM32Cube_FW_N6/Drivers/STM32N6xx_HAL_Driver/Src/stm32n6xx_hal_bsec.c **** 
  72:STM32Cube_FW_N6/Drivers/STM32N6xx_HAL_Driver/Src/stm32n6xx_hal_bsec.c ****       (+) Call the function HAL_BSEC_OTP_WriteShadow() to write in a shadow
  73:STM32Cube_FW_N6/Drivers/STM32N6xx_HAL_Driver/Src/stm32n6xx_hal_bsec.c ****     fuse register.
  74:STM32Cube_FW_N6/Drivers/STM32N6xx_HAL_Driver/Src/stm32n6xx_hal_bsec.c **** 
  75:STM32Cube_FW_N6/Drivers/STM32N6xx_HAL_Driver/Src/stm32n6xx_hal_bsec.c ****       (+) Call the function HAL_BSEC_OTP_GetShadowState() to
  76:STM32Cube_FW_N6/Drivers/STM32N6xx_HAL_Driver/Src/stm32n6xx_hal_bsec.c ****     get the validity status of a shadow fuse register.
  77:STM32Cube_FW_N6/Drivers/STM32N6xx_HAL_Driver/Src/stm32n6xx_hal_bsec.c **** 
  78:STM32Cube_FW_N6/Drivers/STM32N6xx_HAL_Driver/Src/stm32n6xx_hal_bsec.c ****      *** Device lifecycle management ***
  79:STM32Cube_FW_N6/Drivers/STM32N6xx_HAL_Driver/Src/stm32n6xx_hal_bsec.c ****     ============================================================
  80:STM32Cube_FW_N6/Drivers/STM32N6xx_HAL_Driver/Src/stm32n6xx_hal_bsec.c ****     [..]
  81:STM32Cube_FW_N6/Drivers/STM32N6xx_HAL_Driver/Src/stm32n6xx_hal_bsec.c **** 
ARM GAS  C:\Users\DJESSOU\AppData\Local\Temp\ccqAzEsX.s 			page 3


  82:STM32Cube_FW_N6/Drivers/STM32N6xx_HAL_Driver/Src/stm32n6xx_hal_bsec.c ****       (+) Call the function HAL_BSEC_GetDeviceLifeCycleState() to get the
  83:STM32Cube_FW_N6/Drivers/STM32N6xx_HAL_Driver/Src/stm32n6xx_hal_bsec.c ****     BSEC device lifecycle state.
  84:STM32Cube_FW_N6/Drivers/STM32N6xx_HAL_Driver/Src/stm32n6xx_hal_bsec.c **** 
  85:STM32Cube_FW_N6/Drivers/STM32N6xx_HAL_Driver/Src/stm32n6xx_hal_bsec.c ****       (+) Call the function HAL_BSEC_ReadEpochCounter() to read the value
  86:STM32Cube_FW_N6/Drivers/STM32N6xx_HAL_Driver/Src/stm32n6xx_hal_bsec.c ****     of epoch counter.
  87:STM32Cube_FW_N6/Drivers/STM32N6xx_HAL_Driver/Src/stm32n6xx_hal_bsec.c **** 
  88:STM32Cube_FW_N6/Drivers/STM32N6xx_HAL_Driver/Src/stm32n6xx_hal_bsec.c ****       (+) Call the function HAL_BSEC_SelectEpochCounter() to select the
  89:STM32Cube_FW_N6/Drivers/STM32N6xx_HAL_Driver/Src/stm32n6xx_hal_bsec.c ****     epoch counter used by SAES.
  90:STM32Cube_FW_N6/Drivers/STM32N6xx_HAL_Driver/Src/stm32n6xx_hal_bsec.c **** 
  91:STM32Cube_FW_N6/Drivers/STM32N6xx_HAL_Driver/Src/stm32n6xx_hal_bsec.c ****       (+) Call the function HAL_BSEC_GetEpochCounterSelection() to get
  92:STM32Cube_FW_N6/Drivers/STM32N6xx_HAL_Driver/Src/stm32n6xx_hal_bsec.c ****     the epoch counter selection for SAES.
  93:STM32Cube_FW_N6/Drivers/STM32N6xx_HAL_Driver/Src/stm32n6xx_hal_bsec.c **** 
  94:STM32Cube_FW_N6/Drivers/STM32N6xx_HAL_Driver/Src/stm32n6xx_hal_bsec.c ****      *** HDPL management ***
  95:STM32Cube_FW_N6/Drivers/STM32N6xx_HAL_Driver/Src/stm32n6xx_hal_bsec.c ****     ============================================================
  96:STM32Cube_FW_N6/Drivers/STM32N6xx_HAL_Driver/Src/stm32n6xx_hal_bsec.c ****         [..]
  97:STM32Cube_FW_N6/Drivers/STM32N6xx_HAL_Driver/Src/stm32n6xx_hal_bsec.c **** 
  98:STM32Cube_FW_N6/Drivers/STM32N6xx_HAL_Driver/Src/stm32n6xx_hal_bsec.c ****       (+) Call the function HAL_BSEC_GetHDPLValue() to get the current HDPL.
  99:STM32Cube_FW_N6/Drivers/STM32N6xx_HAL_Driver/Src/stm32n6xx_hal_bsec.c **** 
 100:STM32Cube_FW_N6/Drivers/STM32N6xx_HAL_Driver/Src/stm32n6xx_hal_bsec.c ****       (+) Call the function HAL_BSEC_IncrementHDPLValue() to increment the HDPL.
 101:STM32Cube_FW_N6/Drivers/STM32N6xx_HAL_Driver/Src/stm32n6xx_hal_bsec.c **** 
 102:STM32Cube_FW_N6/Drivers/STM32N6xx_HAL_Driver/Src/stm32n6xx_hal_bsec.c ****       (+) Call the function HAL_BSEC_ConfigSAESHDPLIncrementValue() to configure
 103:STM32Cube_FW_N6/Drivers/STM32N6xx_HAL_Driver/Src/stm32n6xx_hal_bsec.c ****     the increment of HDPL sent to SAES.
 104:STM32Cube_FW_N6/Drivers/STM32N6xx_HAL_Driver/Src/stm32n6xx_hal_bsec.c **** 
 105:STM32Cube_FW_N6/Drivers/STM32N6xx_HAL_Driver/Src/stm32n6xx_hal_bsec.c ****       (+) Call the function HAL_BSEC_GetSAESHDPLIncrementValue() to get the SAES
 106:STM32Cube_FW_N6/Drivers/STM32N6xx_HAL_Driver/Src/stm32n6xx_hal_bsec.c ****     increment to HDPL.
 107:STM32Cube_FW_N6/Drivers/STM32N6xx_HAL_Driver/Src/stm32n6xx_hal_bsec.c **** 
 108:STM32Cube_FW_N6/Drivers/STM32N6xx_HAL_Driver/Src/stm32n6xx_hal_bsec.c ****          *** Scratch register management ***
 109:STM32Cube_FW_N6/Drivers/STM32N6xx_HAL_Driver/Src/stm32n6xx_hal_bsec.c ****     ============================================================
 110:STM32Cube_FW_N6/Drivers/STM32N6xx_HAL_Driver/Src/stm32n6xx_hal_bsec.c ****     [..]
 111:STM32Cube_FW_N6/Drivers/STM32N6xx_HAL_Driver/Src/stm32n6xx_hal_bsec.c **** 
 112:STM32Cube_FW_N6/Drivers/STM32N6xx_HAL_Driver/Src/stm32n6xx_hal_bsec.c ****       (+) Call the function HAL_BSEC_WriteScratchValue() to write a value in
 113:STM32Cube_FW_N6/Drivers/STM32N6xx_HAL_Driver/Src/stm32n6xx_hal_bsec.c ****     write once scratch or scratch register.
 114:STM32Cube_FW_N6/Drivers/STM32N6xx_HAL_Driver/Src/stm32n6xx_hal_bsec.c **** 
 115:STM32Cube_FW_N6/Drivers/STM32N6xx_HAL_Driver/Src/stm32n6xx_hal_bsec.c ****       (+) Call the function HAL_BSEC_ReadScratchValue() to read a value from
 116:STM32Cube_FW_N6/Drivers/STM32N6xx_HAL_Driver/Src/stm32n6xx_hal_bsec.c ****     write once scratch or scratch register.
 117:STM32Cube_FW_N6/Drivers/STM32N6xx_HAL_Driver/Src/stm32n6xx_hal_bsec.c **** 
 118:STM32Cube_FW_N6/Drivers/STM32N6xx_HAL_Driver/Src/stm32n6xx_hal_bsec.c **** 
 119:STM32Cube_FW_N6/Drivers/STM32N6xx_HAL_Driver/Src/stm32n6xx_hal_bsec.c ****          *** Debug management ***
 120:STM32Cube_FW_N6/Drivers/STM32N6xx_HAL_Driver/Src/stm32n6xx_hal_bsec.c ****     ============================================================
 121:STM32Cube_FW_N6/Drivers/STM32N6xx_HAL_Driver/Src/stm32n6xx_hal_bsec.c ****     [..]
 122:STM32Cube_FW_N6/Drivers/STM32N6xx_HAL_Driver/Src/stm32n6xx_hal_bsec.c **** 
 123:STM32Cube_FW_N6/Drivers/STM32N6xx_HAL_Driver/Src/stm32n6xx_hal_bsec.c ****       (+) Call the function HAL_BSEC_GetDebugRequest() to get the debug
 124:STM32Cube_FW_N6/Drivers/STM32N6xx_HAL_Driver/Src/stm32n6xx_hal_bsec.c ****     request of host debugger.
 125:STM32Cube_FW_N6/Drivers/STM32N6xx_HAL_Driver/Src/stm32n6xx_hal_bsec.c **** 
 126:STM32Cube_FW_N6/Drivers/STM32N6xx_HAL_Driver/Src/stm32n6xx_hal_bsec.c ****       (+) Call the function HAL_BSEC_SendJTAGData() to send data via JTAG.
 127:STM32Cube_FW_N6/Drivers/STM32N6xx_HAL_Driver/Src/stm32n6xx_hal_bsec.c **** 
 128:STM32Cube_FW_N6/Drivers/STM32N6xx_HAL_Driver/Src/stm32n6xx_hal_bsec.c ****       (+) Call the function HAL_BSEC_ReceiveJTAGData() to receive data
 129:STM32Cube_FW_N6/Drivers/STM32N6xx_HAL_Driver/Src/stm32n6xx_hal_bsec.c ****     via JTAG.
 130:STM32Cube_FW_N6/Drivers/STM32N6xx_HAL_Driver/Src/stm32n6xx_hal_bsec.c **** 
 131:STM32Cube_FW_N6/Drivers/STM32N6xx_HAL_Driver/Src/stm32n6xx_hal_bsec.c ****       (+) Call the function HAL_BSEC_ConfigDebug() to configure the HDPL,
 132:STM32Cube_FW_N6/Drivers/STM32N6xx_HAL_Driver/Src/stm32n6xx_hal_bsec.c ****     secure and non-secure authorization for debugger.
 133:STM32Cube_FW_N6/Drivers/STM32N6xx_HAL_Driver/Src/stm32n6xx_hal_bsec.c **** 
 134:STM32Cube_FW_N6/Drivers/STM32N6xx_HAL_Driver/Src/stm32n6xx_hal_bsec.c ****       (+) Call the function HAL_BSEC_GetDebugConfig() to get the HDPL,
 135:STM32Cube_FW_N6/Drivers/STM32N6xx_HAL_Driver/Src/stm32n6xx_hal_bsec.c ****     secure and non-secure authorization of debug.
 136:STM32Cube_FW_N6/Drivers/STM32N6xx_HAL_Driver/Src/stm32n6xx_hal_bsec.c **** 
 137:STM32Cube_FW_N6/Drivers/STM32N6xx_HAL_Driver/Src/stm32n6xx_hal_bsec.c ****       (+) Call the function HAL_BSEC_LockDebug() to lock the debug.
 138:STM32Cube_FW_N6/Drivers/STM32N6xx_HAL_Driver/Src/stm32n6xx_hal_bsec.c **** 
ARM GAS  C:\Users\DJESSOU\AppData\Local\Temp\ccqAzEsX.s 			page 4


 139:STM32Cube_FW_N6/Drivers/STM32N6xx_HAL_Driver/Src/stm32n6xx_hal_bsec.c ****       (+) Call the function HAL_BSEC_UnlockDebug() to unlock the debug.
 140:STM32Cube_FW_N6/Drivers/STM32N6xx_HAL_Driver/Src/stm32n6xx_hal_bsec.c **** 
 141:STM32Cube_FW_N6/Drivers/STM32N6xx_HAL_Driver/Src/stm32n6xx_hal_bsec.c ****       (+) Call the function HAL_BSEC_GetDebugLockState() to get the debug
 142:STM32Cube_FW_N6/Drivers/STM32N6xx_HAL_Driver/Src/stm32n6xx_hal_bsec.c ****     lock status.
 143:STM32Cube_FW_N6/Drivers/STM32N6xx_HAL_Driver/Src/stm32n6xx_hal_bsec.c **** 
 144:STM32Cube_FW_N6/Drivers/STM32N6xx_HAL_Driver/Src/stm32n6xx_hal_bsec.c ****          *** DHUK management ***
 145:STM32Cube_FW_N6/Drivers/STM32N6xx_HAL_Driver/Src/stm32n6xx_hal_bsec.c ****     ============================================================
 146:STM32Cube_FW_N6/Drivers/STM32N6xx_HAL_Driver/Src/stm32n6xx_hal_bsec.c ****         [..]
 147:STM32Cube_FW_N6/Drivers/STM32N6xx_HAL_Driver/Src/stm32n6xx_hal_bsec.c **** 
 148:STM32Cube_FW_N6/Drivers/STM32N6xx_HAL_Driver/Src/stm32n6xx_hal_bsec.c ****       (+) Call the function HAL_BSEC_GetDHUKValidity() to get the validity
 149:STM32Cube_FW_N6/Drivers/STM32N6xx_HAL_Driver/Src/stm32n6xx_hal_bsec.c ****     of DHUK.
 150:STM32Cube_FW_N6/Drivers/STM32N6xx_HAL_Driver/Src/stm32n6xx_hal_bsec.c **** 
 151:STM32Cube_FW_N6/Drivers/STM32N6xx_HAL_Driver/Src/stm32n6xx_hal_bsec.c ****       (+) Call the function HAL_BSEC_LockDHUKUse() to lock the DHUK use.
 152:STM32Cube_FW_N6/Drivers/STM32N6xx_HAL_Driver/Src/stm32n6xx_hal_bsec.c **** 
 153:STM32Cube_FW_N6/Drivers/STM32N6xx_HAL_Driver/Src/stm32n6xx_hal_bsec.c ****       (+) Call the function HAL_BSEC_GetDHUKLockStatus() to get the DHUK
 154:STM32Cube_FW_N6/Drivers/STM32N6xx_HAL_Driver/Src/stm32n6xx_hal_bsec.c ****     lock status.
 155:STM32Cube_FW_N6/Drivers/STM32N6xx_HAL_Driver/Src/stm32n6xx_hal_bsec.c **** 
 156:STM32Cube_FW_N6/Drivers/STM32N6xx_HAL_Driver/Src/stm32n6xx_hal_bsec.c ****          *** Reset counter ***
 157:STM32Cube_FW_N6/Drivers/STM32N6xx_HAL_Driver/Src/stm32n6xx_hal_bsec.c ****     ============================================================
 158:STM32Cube_FW_N6/Drivers/STM32N6xx_HAL_Driver/Src/stm32n6xx_hal_bsec.c ****         [..]
 159:STM32Cube_FW_N6/Drivers/STM32N6xx_HAL_Driver/Src/stm32n6xx_hal_bsec.c **** 
 160:STM32Cube_FW_N6/Drivers/STM32N6xx_HAL_Driver/Src/stm32n6xx_hal_bsec.c ****       (+) Call the function HAL_BSEC_GetNumberOfResets() to get the number
 161:STM32Cube_FW_N6/Drivers/STM32N6xx_HAL_Driver/Src/stm32n6xx_hal_bsec.c ****     of hot or warm resets.
 162:STM32Cube_FW_N6/Drivers/STM32N6xx_HAL_Driver/Src/stm32n6xx_hal_bsec.c ****   @endverbatim
 163:STM32Cube_FW_N6/Drivers/STM32N6xx_HAL_Driver/Src/stm32n6xx_hal_bsec.c **** 
 164:STM32Cube_FW_N6/Drivers/STM32N6xx_HAL_Driver/Src/stm32n6xx_hal_bsec.c ****   */
 165:STM32Cube_FW_N6/Drivers/STM32N6xx_HAL_Driver/Src/stm32n6xx_hal_bsec.c **** 
 166:STM32Cube_FW_N6/Drivers/STM32N6xx_HAL_Driver/Src/stm32n6xx_hal_bsec.c **** /* Includes ------------------------------------------------------------------*/
 167:STM32Cube_FW_N6/Drivers/STM32N6xx_HAL_Driver/Src/stm32n6xx_hal_bsec.c **** #include "stm32n6xx_hal.h"
 168:STM32Cube_FW_N6/Drivers/STM32N6xx_HAL_Driver/Src/stm32n6xx_hal_bsec.c **** 
 169:STM32Cube_FW_N6/Drivers/STM32N6xx_HAL_Driver/Src/stm32n6xx_hal_bsec.c **** /** @addtogroup STM32N6xx_HAL_Driver
 170:STM32Cube_FW_N6/Drivers/STM32N6xx_HAL_Driver/Src/stm32n6xx_hal_bsec.c ****   * @{
 171:STM32Cube_FW_N6/Drivers/STM32N6xx_HAL_Driver/Src/stm32n6xx_hal_bsec.c ****   */
 172:STM32Cube_FW_N6/Drivers/STM32N6xx_HAL_Driver/Src/stm32n6xx_hal_bsec.c **** 
 173:STM32Cube_FW_N6/Drivers/STM32N6xx_HAL_Driver/Src/stm32n6xx_hal_bsec.c **** #if defined(HAL_BSEC_MODULE_ENABLED)
 174:STM32Cube_FW_N6/Drivers/STM32N6xx_HAL_Driver/Src/stm32n6xx_hal_bsec.c **** 
 175:STM32Cube_FW_N6/Drivers/STM32N6xx_HAL_Driver/Src/stm32n6xx_hal_bsec.c **** /** @defgroup BSEC BSEC
 176:STM32Cube_FW_N6/Drivers/STM32N6xx_HAL_Driver/Src/stm32n6xx_hal_bsec.c ****   * @brief BSEC HAL module driver.
 177:STM32Cube_FW_N6/Drivers/STM32N6xx_HAL_Driver/Src/stm32n6xx_hal_bsec.c ****   * @{
 178:STM32Cube_FW_N6/Drivers/STM32N6xx_HAL_Driver/Src/stm32n6xx_hal_bsec.c ****   */
 179:STM32Cube_FW_N6/Drivers/STM32N6xx_HAL_Driver/Src/stm32n6xx_hal_bsec.c **** 
 180:STM32Cube_FW_N6/Drivers/STM32N6xx_HAL_Driver/Src/stm32n6xx_hal_bsec.c **** /* Private typedef -----------------------------------------------------------*/
 181:STM32Cube_FW_N6/Drivers/STM32N6xx_HAL_Driver/Src/stm32n6xx_hal_bsec.c **** /* Private define ------------------------------------------------------------*/
 182:STM32Cube_FW_N6/Drivers/STM32N6xx_HAL_Driver/Src/stm32n6xx_hal_bsec.c **** /** @defgroup BSEC_Private_Constants BSEC Private Constants
 183:STM32Cube_FW_N6/Drivers/STM32N6xx_HAL_Driver/Src/stm32n6xx_hal_bsec.c ****   * @{
 184:STM32Cube_FW_N6/Drivers/STM32N6xx_HAL_Driver/Src/stm32n6xx_hal_bsec.c ****   */
 185:STM32Cube_FW_N6/Drivers/STM32N6xx_HAL_Driver/Src/stm32n6xx_hal_bsec.c **** #define BSEC_HDPL_INCREMENT_CODE     0x60B166E7U
 186:STM32Cube_FW_N6/Drivers/STM32N6xx_HAL_Driver/Src/stm32n6xx_hal_bsec.c **** #define BSEC_NB_FUSES                376U
 187:STM32Cube_FW_N6/Drivers/STM32N6xx_HAL_Driver/Src/stm32n6xx_hal_bsec.c **** #define BSEC_LIMIT_UPPER_FUSES       256U
 188:STM32Cube_FW_N6/Drivers/STM32N6xx_HAL_Driver/Src/stm32n6xx_hal_bsec.c **** #define BSEC_NB_SHADOW_REG           BSEC_NB_FUSES
 189:STM32Cube_FW_N6/Drivers/STM32N6xx_HAL_Driver/Src/stm32n6xx_hal_bsec.c **** #define BSEC_NB_EPOCH_COUNTER        2U
 190:STM32Cube_FW_N6/Drivers/STM32N6xx_HAL_Driver/Src/stm32n6xx_hal_bsec.c **** #define BSEC_NB_SCRATCH_REG          4U
 191:STM32Cube_FW_N6/Drivers/STM32N6xx_HAL_Driver/Src/stm32n6xx_hal_bsec.c **** #define BSEC_NB_WOSCR_REG            8U
 192:STM32Cube_FW_N6/Drivers/STM32N6xx_HAL_Driver/Src/stm32n6xx_hal_bsec.c **** #define BSEC_OTPSR_RELOAD_ERRORS     (BSEC_OTPSR_DISTURBF | BSEC_OTPSR_DEDF | BSEC_OTPSR_AMEF)
 193:STM32Cube_FW_N6/Drivers/STM32N6xx_HAL_Driver/Src/stm32n6xx_hal_bsec.c **** #define BSEC_SHADOW_REG_WRITE_LIMIT  9U
 194:STM32Cube_FW_N6/Drivers/STM32N6xx_HAL_Driver/Src/stm32n6xx_hal_bsec.c **** #define BSEC_TIMEOUT                 1000U
 195:STM32Cube_FW_N6/Drivers/STM32N6xx_HAL_Driver/Src/stm32n6xx_hal_bsec.c **** /**
ARM GAS  C:\Users\DJESSOU\AppData\Local\Temp\ccqAzEsX.s 			page 5


 196:STM32Cube_FW_N6/Drivers/STM32N6xx_HAL_Driver/Src/stm32n6xx_hal_bsec.c ****   * @}
 197:STM32Cube_FW_N6/Drivers/STM32N6xx_HAL_Driver/Src/stm32n6xx_hal_bsec.c ****   */
 198:STM32Cube_FW_N6/Drivers/STM32N6xx_HAL_Driver/Src/stm32n6xx_hal_bsec.c **** /* Private macro -------------------------------------------------------------*/
 199:STM32Cube_FW_N6/Drivers/STM32N6xx_HAL_Driver/Src/stm32n6xx_hal_bsec.c **** 
 200:STM32Cube_FW_N6/Drivers/STM32N6xx_HAL_Driver/Src/stm32n6xx_hal_bsec.c **** 
 201:STM32Cube_FW_N6/Drivers/STM32N6xx_HAL_Driver/Src/stm32n6xx_hal_bsec.c **** /* Private variables ---------------------------------------------------------*/
 202:STM32Cube_FW_N6/Drivers/STM32N6xx_HAL_Driver/Src/stm32n6xx_hal_bsec.c **** /* Private function prototypes -----------------------------------------------*/
 203:STM32Cube_FW_N6/Drivers/STM32N6xx_HAL_Driver/Src/stm32n6xx_hal_bsec.c **** /** @defgroup BSEC_Private_Functions BSEC Private Functions
 204:STM32Cube_FW_N6/Drivers/STM32N6xx_HAL_Driver/Src/stm32n6xx_hal_bsec.c ****   * @{
 205:STM32Cube_FW_N6/Drivers/STM32N6xx_HAL_Driver/Src/stm32n6xx_hal_bsec.c ****   */
 206:STM32Cube_FW_N6/Drivers/STM32N6xx_HAL_Driver/Src/stm32n6xx_hal_bsec.c **** 
 207:STM32Cube_FW_N6/Drivers/STM32N6xx_HAL_Driver/Src/stm32n6xx_hal_bsec.c **** /**
 208:STM32Cube_FW_N6/Drivers/STM32N6xx_HAL_Driver/Src/stm32n6xx_hal_bsec.c ****   * @}
 209:STM32Cube_FW_N6/Drivers/STM32N6xx_HAL_Driver/Src/stm32n6xx_hal_bsec.c ****   */
 210:STM32Cube_FW_N6/Drivers/STM32N6xx_HAL_Driver/Src/stm32n6xx_hal_bsec.c **** 
 211:STM32Cube_FW_N6/Drivers/STM32N6xx_HAL_Driver/Src/stm32n6xx_hal_bsec.c **** /* Exported functions --------------------------------------------------------*/
 212:STM32Cube_FW_N6/Drivers/STM32N6xx_HAL_Driver/Src/stm32n6xx_hal_bsec.c **** 
 213:STM32Cube_FW_N6/Drivers/STM32N6xx_HAL_Driver/Src/stm32n6xx_hal_bsec.c **** /** @defgroup BSEC_Exported_Functions BSEC Exported Functions
 214:STM32Cube_FW_N6/Drivers/STM32N6xx_HAL_Driver/Src/stm32n6xx_hal_bsec.c ****   * @{
 215:STM32Cube_FW_N6/Drivers/STM32N6xx_HAL_Driver/Src/stm32n6xx_hal_bsec.c ****   */
 216:STM32Cube_FW_N6/Drivers/STM32N6xx_HAL_Driver/Src/stm32n6xx_hal_bsec.c **** 
 217:STM32Cube_FW_N6/Drivers/STM32N6xx_HAL_Driver/Src/stm32n6xx_hal_bsec.c **** /** @defgroup BSEC_Exported_Functions_Group1 General configuration functions
 218:STM32Cube_FW_N6/Drivers/STM32N6xx_HAL_Driver/Src/stm32n6xx_hal_bsec.c ****  *  @brief   General configuration functions
 219:STM32Cube_FW_N6/Drivers/STM32N6xx_HAL_Driver/Src/stm32n6xx_hal_bsec.c ****  *
 220:STM32Cube_FW_N6/Drivers/STM32N6xx_HAL_Driver/Src/stm32n6xx_hal_bsec.c **** @verbatim
 221:STM32Cube_FW_N6/Drivers/STM32N6xx_HAL_Driver/Src/stm32n6xx_hal_bsec.c ****  ===============================================================================
 222:STM32Cube_FW_N6/Drivers/STM32N6xx_HAL_Driver/Src/stm32n6xx_hal_bsec.c ****                 ##### General configuration functions #####
 223:STM32Cube_FW_N6/Drivers/STM32N6xx_HAL_Driver/Src/stm32n6xx_hal_bsec.c ****  ===============================================================================
 224:STM32Cube_FW_N6/Drivers/STM32N6xx_HAL_Driver/Src/stm32n6xx_hal_bsec.c ****     [..]
 225:STM32Cube_FW_N6/Drivers/STM32N6xx_HAL_Driver/Src/stm32n6xx_hal_bsec.c ****   This subsection provides a set of functions allowing to perform global
 226:STM32Cube_FW_N6/Drivers/STM32N6xx_HAL_Driver/Src/stm32n6xx_hal_bsec.c ****   configuration of BSEC.
 227:STM32Cube_FW_N6/Drivers/STM32N6xx_HAL_Driver/Src/stm32n6xx_hal_bsec.c **** 
 228:STM32Cube_FW_N6/Drivers/STM32N6xx_HAL_Driver/Src/stm32n6xx_hal_bsec.c **** @endverbatim
 229:STM32Cube_FW_N6/Drivers/STM32N6xx_HAL_Driver/Src/stm32n6xx_hal_bsec.c ****   * @{
 230:STM32Cube_FW_N6/Drivers/STM32N6xx_HAL_Driver/Src/stm32n6xx_hal_bsec.c ****   */
 231:STM32Cube_FW_N6/Drivers/STM32N6xx_HAL_Driver/Src/stm32n6xx_hal_bsec.c **** 
 232:STM32Cube_FW_N6/Drivers/STM32N6xx_HAL_Driver/Src/stm32n6xx_hal_bsec.c **** /**
 233:STM32Cube_FW_N6/Drivers/STM32N6xx_HAL_Driver/Src/stm32n6xx_hal_bsec.c ****   * @brief  Get the status of BSEC peripheral.
 234:STM32Cube_FW_N6/Drivers/STM32N6xx_HAL_Driver/Src/stm32n6xx_hal_bsec.c ****   *
 235:STM32Cube_FW_N6/Drivers/STM32N6xx_HAL_Driver/Src/stm32n6xx_hal_bsec.c ****   * @param  hbsec   BSEC handle
 236:STM32Cube_FW_N6/Drivers/STM32N6xx_HAL_Driver/Src/stm32n6xx_hal_bsec.c ****   * @param  pStatus  Returned value of BSEC status. The returned value is @ref BSEC_Status
 237:STM32Cube_FW_N6/Drivers/STM32N6xx_HAL_Driver/Src/stm32n6xx_hal_bsec.c ****   *
 238:STM32Cube_FW_N6/Drivers/STM32N6xx_HAL_Driver/Src/stm32n6xx_hal_bsec.c ****   * @retval HAL_StatusTypeDef HAL Status
 239:STM32Cube_FW_N6/Drivers/STM32N6xx_HAL_Driver/Src/stm32n6xx_hal_bsec.c ****   */
 240:STM32Cube_FW_N6/Drivers/STM32N6xx_HAL_Driver/Src/stm32n6xx_hal_bsec.c **** HAL_StatusTypeDef HAL_BSEC_GetStatus(BSEC_HandleTypeDef * hbsec, uint32_t *pStatus)
 241:STM32Cube_FW_N6/Drivers/STM32N6xx_HAL_Driver/Src/stm32n6xx_hal_bsec.c **** {
  35              		.loc 1 241 1 view -0
  36              		.cfi_startproc
  37              		@ args = 0, pretend = 0, frame = 0
  38              		@ frame_needed = 0, uses_anonymous_args = 0
  39              		@ link register save eliminated.
 242:STM32Cube_FW_N6/Drivers/STM32N6xx_HAL_Driver/Src/stm32n6xx_hal_bsec.c ****   /* Check the handle pointer */
 243:STM32Cube_FW_N6/Drivers/STM32N6xx_HAL_Driver/Src/stm32n6xx_hal_bsec.c ****   if (hbsec == NULL)
  40              		.loc 1 243 3 view .LVU1
  41              		.loc 1 243 6 is_stmt 0 view .LVU2
  42 0000 30B1     		cbz	r0, .L2
 244:STM32Cube_FW_N6/Drivers/STM32N6xx_HAL_Driver/Src/stm32n6xx_hal_bsec.c ****   {
ARM GAS  C:\Users\DJESSOU\AppData\Local\Temp\ccqAzEsX.s 			page 6


 245:STM32Cube_FW_N6/Drivers/STM32N6xx_HAL_Driver/Src/stm32n6xx_hal_bsec.c ****     return HAL_ERROR;
 246:STM32Cube_FW_N6/Drivers/STM32N6xx_HAL_Driver/Src/stm32n6xx_hal_bsec.c ****   }
 247:STM32Cube_FW_N6/Drivers/STM32N6xx_HAL_Driver/Src/stm32n6xx_hal_bsec.c **** 
 248:STM32Cube_FW_N6/Drivers/STM32N6xx_HAL_Driver/Src/stm32n6xx_hal_bsec.c ****   /* Check the address of returned value and instance */
 249:STM32Cube_FW_N6/Drivers/STM32N6xx_HAL_Driver/Src/stm32n6xx_hal_bsec.c ****  if ((pStatus == NULL) || (hbsec->Instance != BSEC))
  43              		.loc 1 249 2 is_stmt 1 view .LVU3
  44              		.loc 1 249 5 is_stmt 0 view .LVU4
  45 0002 19B1     		cbz	r1, .L3
  46              		.loc 1 249 24 discriminator 1 view .LVU5
  47 0004 0368     		ldr	r3, [r0]
  48 0006 074A     		ldr	r2, .L12
  49 0008 9342     		cmp	r3, r2
  50 000a 03D0     		beq	.L4
  51              	.L3:
 250:STM32Cube_FW_N6/Drivers/STM32N6xx_HAL_Driver/Src/stm32n6xx_hal_bsec.c ****   {
 251:STM32Cube_FW_N6/Drivers/STM32N6xx_HAL_Driver/Src/stm32n6xx_hal_bsec.c ****     hbsec->ErrorCode = HAL_BSEC_ERROR_INVALID_PARAM;
  52              		.loc 1 251 5 is_stmt 1 view .LVU6
  53              		.loc 1 251 22 is_stmt 0 view .LVU7
  54 000c 0123     		movs	r3, #1
  55 000e 4360     		str	r3, [r0, #4]
 252:STM32Cube_FW_N6/Drivers/STM32N6xx_HAL_Driver/Src/stm32n6xx_hal_bsec.c ****     return HAL_ERROR;
  56              		.loc 1 252 5 is_stmt 1 view .LVU8
  57              	.L2:
 245:STM32Cube_FW_N6/Drivers/STM32N6xx_HAL_Driver/Src/stm32n6xx_hal_bsec.c ****   }
  58              		.loc 1 245 12 is_stmt 0 view .LVU9
  59 0010 0120     		movs	r0, #1
  60              	.LVL1:
 245:STM32Cube_FW_N6/Drivers/STM32N6xx_HAL_Driver/Src/stm32n6xx_hal_bsec.c ****   }
  61              		.loc 1 245 12 view .LVU10
  62 0012 7047     		bx	lr
  63              	.LVL2:
  64              	.L4:
 253:STM32Cube_FW_N6/Drivers/STM32N6xx_HAL_Driver/Src/stm32n6xx_hal_bsec.c ****   }
 254:STM32Cube_FW_N6/Drivers/STM32N6xx_HAL_Driver/Src/stm32n6xx_hal_bsec.c **** 
 255:STM32Cube_FW_N6/Drivers/STM32N6xx_HAL_Driver/Src/stm32n6xx_hal_bsec.c ****   *pStatus = (hbsec->Instance->OTPSR & (BSEC_OTPSR_INIT_DONE | BSEC_OTPSR_HIDEUP | BSEC_OTPSR_OTPNV
  65              		.loc 1 255 3 is_stmt 1 view .LVU11
  66              		.loc 1 255 30 is_stmt 0 view .LVU12
  67 0014 D3F8443E 		ldr	r3, [r3, #3652]
 256:STM32Cube_FW_N6/Drivers/STM32N6xx_HAL_Driver/Src/stm32n6xx_hal_bsec.c **** 
 257:STM32Cube_FW_N6/Drivers/STM32N6xx_HAL_Driver/Src/stm32n6xx_hal_bsec.c ****   return HAL_OK;
  68              		.loc 1 257 10 view .LVU13
  69 0018 0020     		movs	r0, #0
  70              	.LVL3:
 255:STM32Cube_FW_N6/Drivers/STM32N6xx_HAL_Driver/Src/stm32n6xx_hal_bsec.c **** 
  71              		.loc 1 255 38 view .LVU14
  72 001a 03F01603 		and	r3, r3, #22
 255:STM32Cube_FW_N6/Drivers/STM32N6xx_HAL_Driver/Src/stm32n6xx_hal_bsec.c **** 
  73              		.loc 1 255 12 view .LVU15
  74 001e 0B60     		str	r3, [r1]
  75              		.loc 1 257 3 is_stmt 1 view .LVU16
 258:STM32Cube_FW_N6/Drivers/STM32N6xx_HAL_Driver/Src/stm32n6xx_hal_bsec.c **** }
  76              		.loc 1 258 1 is_stmt 0 view .LVU17
  77 0020 7047     		bx	lr
  78              	.L13:
  79 0022 00BF     		.align	2
  80              	.L12:
  81 0024 00900056 		.word	1442877440
ARM GAS  C:\Users\DJESSOU\AppData\Local\Temp\ccqAzEsX.s 			page 7


  82              		.cfi_endproc
  83              	.LFE862:
  85              		.section	.text.HAL_BSEC_GlobalLock,"ax",%progbits
  86              		.align	1
  87              		.global	HAL_BSEC_GlobalLock
  88              		.syntax unified
  89              		.thumb
  90              		.thumb_func
  92              	HAL_BSEC_GlobalLock:
  93              	.LVL4:
  94              	.LFB863:
 259:STM32Cube_FW_N6/Drivers/STM32N6xx_HAL_Driver/Src/stm32n6xx_hal_bsec.c **** 
 260:STM32Cube_FW_N6/Drivers/STM32N6xx_HAL_Driver/Src/stm32n6xx_hal_bsec.c **** /**
 261:STM32Cube_FW_N6/Drivers/STM32N6xx_HAL_Driver/Src/stm32n6xx_hal_bsec.c ****   * @brief  Lock the write to BSEC registers.
 262:STM32Cube_FW_N6/Drivers/STM32N6xx_HAL_Driver/Src/stm32n6xx_hal_bsec.c ****   *
 263:STM32Cube_FW_N6/Drivers/STM32N6xx_HAL_Driver/Src/stm32n6xx_hal_bsec.c ****   * @param  hbsec  BSEC handle
 264:STM32Cube_FW_N6/Drivers/STM32N6xx_HAL_Driver/Src/stm32n6xx_hal_bsec.c ****   *
 265:STM32Cube_FW_N6/Drivers/STM32N6xx_HAL_Driver/Src/stm32n6xx_hal_bsec.c ****   * @retval HAL_StatusTypeDef HAL Status
 266:STM32Cube_FW_N6/Drivers/STM32N6xx_HAL_Driver/Src/stm32n6xx_hal_bsec.c ****   */
 267:STM32Cube_FW_N6/Drivers/STM32N6xx_HAL_Driver/Src/stm32n6xx_hal_bsec.c **** HAL_StatusTypeDef HAL_BSEC_GlobalLock(BSEC_HandleTypeDef *hbsec)
 268:STM32Cube_FW_N6/Drivers/STM32N6xx_HAL_Driver/Src/stm32n6xx_hal_bsec.c **** {
  95              		.loc 1 268 1 is_stmt 1 view -0
  96              		.cfi_startproc
  97              		@ args = 0, pretend = 0, frame = 0
  98              		@ frame_needed = 0, uses_anonymous_args = 0
  99              		@ link register save eliminated.
 269:STM32Cube_FW_N6/Drivers/STM32N6xx_HAL_Driver/Src/stm32n6xx_hal_bsec.c ****   /* Check the handle pointer */
 270:STM32Cube_FW_N6/Drivers/STM32N6xx_HAL_Driver/Src/stm32n6xx_hal_bsec.c ****   if (hbsec == NULL)
 100              		.loc 1 270 3 view .LVU19
 101              		.loc 1 270 6 is_stmt 0 view .LVU20
 102 0000 28B1     		cbz	r0, .L15
 271:STM32Cube_FW_N6/Drivers/STM32N6xx_HAL_Driver/Src/stm32n6xx_hal_bsec.c ****   {
 272:STM32Cube_FW_N6/Drivers/STM32N6xx_HAL_Driver/Src/stm32n6xx_hal_bsec.c ****     return HAL_ERROR;
 273:STM32Cube_FW_N6/Drivers/STM32N6xx_HAL_Driver/Src/stm32n6xx_hal_bsec.c ****   }
 274:STM32Cube_FW_N6/Drivers/STM32N6xx_HAL_Driver/Src/stm32n6xx_hal_bsec.c **** 
 275:STM32Cube_FW_N6/Drivers/STM32N6xx_HAL_Driver/Src/stm32n6xx_hal_bsec.c ****   /* Check the instance */
 276:STM32Cube_FW_N6/Drivers/STM32N6xx_HAL_Driver/Src/stm32n6xx_hal_bsec.c ****   if (hbsec->Instance != BSEC)
 103              		.loc 1 276 3 is_stmt 1 view .LVU21
 104              		.loc 1 276 6 is_stmt 0 view .LVU22
 105 0002 0368     		ldr	r3, [r0]
 106 0004 074A     		ldr	r2, .L21
 107 0006 9342     		cmp	r3, r2
 108 0008 03D0     		beq	.L16
 277:STM32Cube_FW_N6/Drivers/STM32N6xx_HAL_Driver/Src/stm32n6xx_hal_bsec.c ****   {
 278:STM32Cube_FW_N6/Drivers/STM32N6xx_HAL_Driver/Src/stm32n6xx_hal_bsec.c ****     hbsec->ErrorCode = HAL_BSEC_ERROR_INVALID_PARAM;
 109              		.loc 1 278 5 is_stmt 1 view .LVU23
 110              		.loc 1 278 22 is_stmt 0 view .LVU24
 111 000a 0123     		movs	r3, #1
 112 000c 4360     		str	r3, [r0, #4]
 279:STM32Cube_FW_N6/Drivers/STM32N6xx_HAL_Driver/Src/stm32n6xx_hal_bsec.c ****     return HAL_ERROR;
 113              		.loc 1 279 5 is_stmt 1 view .LVU25
 114              	.L15:
 272:STM32Cube_FW_N6/Drivers/STM32N6xx_HAL_Driver/Src/stm32n6xx_hal_bsec.c ****   }
 115              		.loc 1 272 12 is_stmt 0 view .LVU26
 116 000e 0120     		movs	r0, #1
 117              	.LVL5:
 272:STM32Cube_FW_N6/Drivers/STM32N6xx_HAL_Driver/Src/stm32n6xx_hal_bsec.c ****   }
ARM GAS  C:\Users\DJESSOU\AppData\Local\Temp\ccqAzEsX.s 			page 8


 118              		.loc 1 272 12 view .LVU27
 119 0010 7047     		bx	lr
 120              	.LVL6:
 121              	.L16:
 280:STM32Cube_FW_N6/Drivers/STM32N6xx_HAL_Driver/Src/stm32n6xx_hal_bsec.c ****   }
 281:STM32Cube_FW_N6/Drivers/STM32N6xx_HAL_Driver/Src/stm32n6xx_hal_bsec.c **** 
 282:STM32Cube_FW_N6/Drivers/STM32N6xx_HAL_Driver/Src/stm32n6xx_hal_bsec.c ****   /* Set the value of global lock */
 283:STM32Cube_FW_N6/Drivers/STM32N6xx_HAL_Driver/Src/stm32n6xx_hal_bsec.c ****   SET_BIT(hbsec->Instance->LOCKR, BSEC_LOCKR_GWLOCK);
 122              		.loc 1 283 3 is_stmt 1 view .LVU28
 123 0012 D3F8102E 		ldr	r2, [r3, #3600]
 284:STM32Cube_FW_N6/Drivers/STM32N6xx_HAL_Driver/Src/stm32n6xx_hal_bsec.c **** 
 285:STM32Cube_FW_N6/Drivers/STM32N6xx_HAL_Driver/Src/stm32n6xx_hal_bsec.c ****   return HAL_OK;
 124              		.loc 1 285 10 is_stmt 0 view .LVU29
 125 0016 0020     		movs	r0, #0
 126              	.LVL7:
 283:STM32Cube_FW_N6/Drivers/STM32N6xx_HAL_Driver/Src/stm32n6xx_hal_bsec.c **** 
 127              		.loc 1 283 3 view .LVU30
 128 0018 42F00102 		orr	r2, r2, #1
 129 001c C3F8102E 		str	r2, [r3, #3600]
 130              		.loc 1 285 3 is_stmt 1 view .LVU31
 286:STM32Cube_FW_N6/Drivers/STM32N6xx_HAL_Driver/Src/stm32n6xx_hal_bsec.c **** }
 131              		.loc 1 286 1 is_stmt 0 view .LVU32
 132 0020 7047     		bx	lr
 133              	.L22:
 134 0022 00BF     		.align	2
 135              	.L21:
 136 0024 00900056 		.word	1442877440
 137              		.cfi_endproc
 138              	.LFE863:
 140              		.section	.text.HAL_BSEC_GetGlobalLockStatus,"ax",%progbits
 141              		.align	1
 142              		.global	HAL_BSEC_GetGlobalLockStatus
 143              		.syntax unified
 144              		.thumb
 145              		.thumb_func
 147              	HAL_BSEC_GetGlobalLockStatus:
 148              	.LVL8:
 149              	.LFB864:
 287:STM32Cube_FW_N6/Drivers/STM32N6xx_HAL_Driver/Src/stm32n6xx_hal_bsec.c **** 
 288:STM32Cube_FW_N6/Drivers/STM32N6xx_HAL_Driver/Src/stm32n6xx_hal_bsec.c **** /**
 289:STM32Cube_FW_N6/Drivers/STM32N6xx_HAL_Driver/Src/stm32n6xx_hal_bsec.c ****   * @brief  Get the global write registers lock status.
 290:STM32Cube_FW_N6/Drivers/STM32N6xx_HAL_Driver/Src/stm32n6xx_hal_bsec.c ****   *
 291:STM32Cube_FW_N6/Drivers/STM32N6xx_HAL_Driver/Src/stm32n6xx_hal_bsec.c ****   * @param  hbsec  BSEC handle
 292:STM32Cube_FW_N6/Drivers/STM32N6xx_HAL_Driver/Src/stm32n6xx_hal_bsec.c ****   * @param  pStatus  Returned value of global lock status. The returned value is @ref BSEC_Global_L
 293:STM32Cube_FW_N6/Drivers/STM32N6xx_HAL_Driver/Src/stm32n6xx_hal_bsec.c ****   *
 294:STM32Cube_FW_N6/Drivers/STM32N6xx_HAL_Driver/Src/stm32n6xx_hal_bsec.c ****   * @retval HAL_StatusTypeDef HAL Status
 295:STM32Cube_FW_N6/Drivers/STM32N6xx_HAL_Driver/Src/stm32n6xx_hal_bsec.c ****   */
 296:STM32Cube_FW_N6/Drivers/STM32N6xx_HAL_Driver/Src/stm32n6xx_hal_bsec.c **** HAL_StatusTypeDef HAL_BSEC_GetGlobalLockStatus(BSEC_HandleTypeDef * hbsec, uint32_t *pStatus)
 297:STM32Cube_FW_N6/Drivers/STM32N6xx_HAL_Driver/Src/stm32n6xx_hal_bsec.c **** {
 150              		.loc 1 297 1 is_stmt 1 view -0
 151              		.cfi_startproc
 152              		@ args = 0, pretend = 0, frame = 0
 153              		@ frame_needed = 0, uses_anonymous_args = 0
 154              		@ link register save eliminated.
 298:STM32Cube_FW_N6/Drivers/STM32N6xx_HAL_Driver/Src/stm32n6xx_hal_bsec.c ****   /* Check the handle pointer */
 299:STM32Cube_FW_N6/Drivers/STM32N6xx_HAL_Driver/Src/stm32n6xx_hal_bsec.c ****   if (hbsec == NULL)
 155              		.loc 1 299 3 view .LVU34
ARM GAS  C:\Users\DJESSOU\AppData\Local\Temp\ccqAzEsX.s 			page 9


 156              		.loc 1 299 6 is_stmt 0 view .LVU35
 157 0000 30B1     		cbz	r0, .L24
 300:STM32Cube_FW_N6/Drivers/STM32N6xx_HAL_Driver/Src/stm32n6xx_hal_bsec.c ****   {
 301:STM32Cube_FW_N6/Drivers/STM32N6xx_HAL_Driver/Src/stm32n6xx_hal_bsec.c ****     return HAL_ERROR;
 302:STM32Cube_FW_N6/Drivers/STM32N6xx_HAL_Driver/Src/stm32n6xx_hal_bsec.c ****   }
 303:STM32Cube_FW_N6/Drivers/STM32N6xx_HAL_Driver/Src/stm32n6xx_hal_bsec.c **** 
 304:STM32Cube_FW_N6/Drivers/STM32N6xx_HAL_Driver/Src/stm32n6xx_hal_bsec.c ****   /* Check the address of returned value and instance */
 305:STM32Cube_FW_N6/Drivers/STM32N6xx_HAL_Driver/Src/stm32n6xx_hal_bsec.c ****   if ((pStatus == NULL) || (hbsec->Instance != BSEC))
 158              		.loc 1 305 3 is_stmt 1 view .LVU36
 159              		.loc 1 305 6 is_stmt 0 view .LVU37
 160 0002 19B1     		cbz	r1, .L25
 161              		.loc 1 305 25 discriminator 1 view .LVU38
 162 0004 0368     		ldr	r3, [r0]
 163 0006 074A     		ldr	r2, .L34
 164 0008 9342     		cmp	r3, r2
 165 000a 03D0     		beq	.L26
 166              	.L25:
 306:STM32Cube_FW_N6/Drivers/STM32N6xx_HAL_Driver/Src/stm32n6xx_hal_bsec.c ****   {
 307:STM32Cube_FW_N6/Drivers/STM32N6xx_HAL_Driver/Src/stm32n6xx_hal_bsec.c ****     hbsec->ErrorCode = HAL_BSEC_ERROR_INVALID_PARAM;
 167              		.loc 1 307 5 is_stmt 1 view .LVU39
 168              		.loc 1 307 22 is_stmt 0 view .LVU40
 169 000c 0123     		movs	r3, #1
 170 000e 4360     		str	r3, [r0, #4]
 308:STM32Cube_FW_N6/Drivers/STM32N6xx_HAL_Driver/Src/stm32n6xx_hal_bsec.c ****     return HAL_ERROR;
 171              		.loc 1 308 5 is_stmt 1 view .LVU41
 172              	.L24:
 301:STM32Cube_FW_N6/Drivers/STM32N6xx_HAL_Driver/Src/stm32n6xx_hal_bsec.c ****   }
 173              		.loc 1 301 12 is_stmt 0 view .LVU42
 174 0010 0120     		movs	r0, #1
 175              	.LVL9:
 301:STM32Cube_FW_N6/Drivers/STM32N6xx_HAL_Driver/Src/stm32n6xx_hal_bsec.c ****   }
 176              		.loc 1 301 12 view .LVU43
 177 0012 7047     		bx	lr
 178              	.LVL10:
 179              	.L26:
 309:STM32Cube_FW_N6/Drivers/STM32N6xx_HAL_Driver/Src/stm32n6xx_hal_bsec.c ****   }
 310:STM32Cube_FW_N6/Drivers/STM32N6xx_HAL_Driver/Src/stm32n6xx_hal_bsec.c **** 
 311:STM32Cube_FW_N6/Drivers/STM32N6xx_HAL_Driver/Src/stm32n6xx_hal_bsec.c ****   /* Get the global lock status */
 312:STM32Cube_FW_N6/Drivers/STM32N6xx_HAL_Driver/Src/stm32n6xx_hal_bsec.c ****   *pStatus = (hbsec->Instance->LOCKR & BSEC_LOCKR_GWLOCK);
 180              		.loc 1 312 3 is_stmt 1 view .LVU44
 181              		.loc 1 312 30 is_stmt 0 view .LVU45
 182 0014 D3F8103E 		ldr	r3, [r3, #3600]
 313:STM32Cube_FW_N6/Drivers/STM32N6xx_HAL_Driver/Src/stm32n6xx_hal_bsec.c **** 
 314:STM32Cube_FW_N6/Drivers/STM32N6xx_HAL_Driver/Src/stm32n6xx_hal_bsec.c ****   return HAL_OK;
 183              		.loc 1 314 10 view .LVU46
 184 0018 0020     		movs	r0, #0
 185              	.LVL11:
 312:STM32Cube_FW_N6/Drivers/STM32N6xx_HAL_Driver/Src/stm32n6xx_hal_bsec.c **** 
 186              		.loc 1 312 38 view .LVU47
 187 001a 03F00103 		and	r3, r3, #1
 312:STM32Cube_FW_N6/Drivers/STM32N6xx_HAL_Driver/Src/stm32n6xx_hal_bsec.c **** 
 188              		.loc 1 312 12 view .LVU48
 189 001e 0B60     		str	r3, [r1]
 190              		.loc 1 314 3 is_stmt 1 view .LVU49
 315:STM32Cube_FW_N6/Drivers/STM32N6xx_HAL_Driver/Src/stm32n6xx_hal_bsec.c **** }
 191              		.loc 1 315 1 is_stmt 0 view .LVU50
 192 0020 7047     		bx	lr
ARM GAS  C:\Users\DJESSOU\AppData\Local\Temp\ccqAzEsX.s 			page 10


 193              	.L35:
 194 0022 00BF     		.align	2
 195              	.L34:
 196 0024 00900056 		.word	1442877440
 197              		.cfi_endproc
 198              	.LFE864:
 200              		.section	.text.HAL_BSEC_GetErrorCode,"ax",%progbits
 201              		.align	1
 202              		.global	HAL_BSEC_GetErrorCode
 203              		.syntax unified
 204              		.thumb
 205              		.thumb_func
 207              	HAL_BSEC_GetErrorCode:
 208              	.LVL12:
 209              	.LFB865:
 316:STM32Cube_FW_N6/Drivers/STM32N6xx_HAL_Driver/Src/stm32n6xx_hal_bsec.c **** 
 317:STM32Cube_FW_N6/Drivers/STM32N6xx_HAL_Driver/Src/stm32n6xx_hal_bsec.c **** /**
 318:STM32Cube_FW_N6/Drivers/STM32N6xx_HAL_Driver/Src/stm32n6xx_hal_bsec.c ****   * @brief  Get the error code of BSEC driver.
 319:STM32Cube_FW_N6/Drivers/STM32N6xx_HAL_Driver/Src/stm32n6xx_hal_bsec.c ****   *
 320:STM32Cube_FW_N6/Drivers/STM32N6xx_HAL_Driver/Src/stm32n6xx_hal_bsec.c ****   * @param  hbsec  BSEC handle
 321:STM32Cube_FW_N6/Drivers/STM32N6xx_HAL_Driver/Src/stm32n6xx_hal_bsec.c ****   * @param  pError  Returned value of error code. The returned value is @ref BSEC_Error_Code
 322:STM32Cube_FW_N6/Drivers/STM32N6xx_HAL_Driver/Src/stm32n6xx_hal_bsec.c ****   *
 323:STM32Cube_FW_N6/Drivers/STM32N6xx_HAL_Driver/Src/stm32n6xx_hal_bsec.c ****   * @retval HAL_StatusTypeDef HAL Status
 324:STM32Cube_FW_N6/Drivers/STM32N6xx_HAL_Driver/Src/stm32n6xx_hal_bsec.c ****   */
 325:STM32Cube_FW_N6/Drivers/STM32N6xx_HAL_Driver/Src/stm32n6xx_hal_bsec.c **** HAL_StatusTypeDef HAL_BSEC_GetErrorCode(BSEC_HandleTypeDef * hbsec, uint32_t *pError)
 326:STM32Cube_FW_N6/Drivers/STM32N6xx_HAL_Driver/Src/stm32n6xx_hal_bsec.c **** {
 210              		.loc 1 326 1 is_stmt 1 view -0
 211              		.cfi_startproc
 212              		@ args = 0, pretend = 0, frame = 0
 213              		@ frame_needed = 0, uses_anonymous_args = 0
 214              		@ link register save eliminated.
 327:STM32Cube_FW_N6/Drivers/STM32N6xx_HAL_Driver/Src/stm32n6xx_hal_bsec.c ****   /* Check the handle pointer */
 328:STM32Cube_FW_N6/Drivers/STM32N6xx_HAL_Driver/Src/stm32n6xx_hal_bsec.c ****   if (hbsec == NULL)
 215              		.loc 1 328 3 view .LVU52
 216              		.loc 1 328 6 is_stmt 0 view .LVU53
 217 0000 10B1     		cbz	r0, .L37
 329:STM32Cube_FW_N6/Drivers/STM32N6xx_HAL_Driver/Src/stm32n6xx_hal_bsec.c ****   {
 330:STM32Cube_FW_N6/Drivers/STM32N6xx_HAL_Driver/Src/stm32n6xx_hal_bsec.c ****     return HAL_ERROR;
 331:STM32Cube_FW_N6/Drivers/STM32N6xx_HAL_Driver/Src/stm32n6xx_hal_bsec.c ****   }
 332:STM32Cube_FW_N6/Drivers/STM32N6xx_HAL_Driver/Src/stm32n6xx_hal_bsec.c **** 
 333:STM32Cube_FW_N6/Drivers/STM32N6xx_HAL_Driver/Src/stm32n6xx_hal_bsec.c ****   /* Check the address of returned value */
 334:STM32Cube_FW_N6/Drivers/STM32N6xx_HAL_Driver/Src/stm32n6xx_hal_bsec.c ****  if (pError == NULL)
 218              		.loc 1 334 2 is_stmt 1 view .LVU54
 219              		.loc 1 334 5 is_stmt 0 view .LVU55
 220 0002 19B9     		cbnz	r1, .L38
 335:STM32Cube_FW_N6/Drivers/STM32N6xx_HAL_Driver/Src/stm32n6xx_hal_bsec.c ****   {
 336:STM32Cube_FW_N6/Drivers/STM32N6xx_HAL_Driver/Src/stm32n6xx_hal_bsec.c ****     hbsec->ErrorCode = HAL_BSEC_ERROR_INVALID_PARAM;
 221              		.loc 1 336 5 is_stmt 1 view .LVU56
 222              		.loc 1 336 22 is_stmt 0 view .LVU57
 223 0004 0123     		movs	r3, #1
 224 0006 4360     		str	r3, [r0, #4]
 337:STM32Cube_FW_N6/Drivers/STM32N6xx_HAL_Driver/Src/stm32n6xx_hal_bsec.c ****     return HAL_ERROR;
 225              		.loc 1 337 5 is_stmt 1 view .LVU58
 226              	.L37:
 330:STM32Cube_FW_N6/Drivers/STM32N6xx_HAL_Driver/Src/stm32n6xx_hal_bsec.c ****   }
 227              		.loc 1 330 12 is_stmt 0 view .LVU59
 228 0008 0120     		movs	r0, #1
ARM GAS  C:\Users\DJESSOU\AppData\Local\Temp\ccqAzEsX.s 			page 11


 229              	.LVL13:
 330:STM32Cube_FW_N6/Drivers/STM32N6xx_HAL_Driver/Src/stm32n6xx_hal_bsec.c ****   }
 230              		.loc 1 330 12 view .LVU60
 231 000a 7047     		bx	lr
 232              	.LVL14:
 233              	.L38:
 338:STM32Cube_FW_N6/Drivers/STM32N6xx_HAL_Driver/Src/stm32n6xx_hal_bsec.c ****   }
 339:STM32Cube_FW_N6/Drivers/STM32N6xx_HAL_Driver/Src/stm32n6xx_hal_bsec.c **** 
 340:STM32Cube_FW_N6/Drivers/STM32N6xx_HAL_Driver/Src/stm32n6xx_hal_bsec.c ****   *pError = hbsec->ErrorCode;
 234              		.loc 1 340 3 is_stmt 1 view .LVU61
 235              		.loc 1 340 18 is_stmt 0 view .LVU62
 236 000c 4368     		ldr	r3, [r0, #4]
 341:STM32Cube_FW_N6/Drivers/STM32N6xx_HAL_Driver/Src/stm32n6xx_hal_bsec.c **** 
 342:STM32Cube_FW_N6/Drivers/STM32N6xx_HAL_Driver/Src/stm32n6xx_hal_bsec.c ****   return HAL_OK;
 237              		.loc 1 342 10 view .LVU63
 238 000e 0020     		movs	r0, #0
 239              	.LVL15:
 340:STM32Cube_FW_N6/Drivers/STM32N6xx_HAL_Driver/Src/stm32n6xx_hal_bsec.c **** 
 240              		.loc 1 340 11 view .LVU64
 241 0010 0B60     		str	r3, [r1]
 242              		.loc 1 342 3 is_stmt 1 view .LVU65
 343:STM32Cube_FW_N6/Drivers/STM32N6xx_HAL_Driver/Src/stm32n6xx_hal_bsec.c **** }
 243              		.loc 1 343 1 is_stmt 0 view .LVU66
 244 0012 7047     		bx	lr
 245              		.cfi_endproc
 246              	.LFE865:
 248              		.section	.text.HAL_BSEC_OTP_Reload,"ax",%progbits
 249              		.align	1
 250              		.global	HAL_BSEC_OTP_Reload
 251              		.syntax unified
 252              		.thumb
 253              		.thumb_func
 255              	HAL_BSEC_OTP_Reload:
 256              	.LVL16:
 257              	.LFB868:
 344:STM32Cube_FW_N6/Drivers/STM32N6xx_HAL_Driver/Src/stm32n6xx_hal_bsec.c **** 
 345:STM32Cube_FW_N6/Drivers/STM32N6xx_HAL_Driver/Src/stm32n6xx_hal_bsec.c **** /**
 346:STM32Cube_FW_N6/Drivers/STM32N6xx_HAL_Driver/Src/stm32n6xx_hal_bsec.c ****   * @}
 347:STM32Cube_FW_N6/Drivers/STM32N6xx_HAL_Driver/Src/stm32n6xx_hal_bsec.c ****   */
 348:STM32Cube_FW_N6/Drivers/STM32N6xx_HAL_Driver/Src/stm32n6xx_hal_bsec.c **** 
 349:STM32Cube_FW_N6/Drivers/STM32N6xx_HAL_Driver/Src/stm32n6xx_hal_bsec.c **** /** @defgroup BSEC_Exported_Functions_Group2 OTP fuse management functions
 350:STM32Cube_FW_N6/Drivers/STM32N6xx_HAL_Driver/Src/stm32n6xx_hal_bsec.c ****  *  @brief   OTP fuse management functions
 351:STM32Cube_FW_N6/Drivers/STM32N6xx_HAL_Driver/Src/stm32n6xx_hal_bsec.c ****  *
 352:STM32Cube_FW_N6/Drivers/STM32N6xx_HAL_Driver/Src/stm32n6xx_hal_bsec.c **** @verbatim
 353:STM32Cube_FW_N6/Drivers/STM32N6xx_HAL_Driver/Src/stm32n6xx_hal_bsec.c ****  ===============================================================================
 354:STM32Cube_FW_N6/Drivers/STM32N6xx_HAL_Driver/Src/stm32n6xx_hal_bsec.c ****                   ##### OTP fuse management functions #####
 355:STM32Cube_FW_N6/Drivers/STM32N6xx_HAL_Driver/Src/stm32n6xx_hal_bsec.c ****  ===============================================================================
 356:STM32Cube_FW_N6/Drivers/STM32N6xx_HAL_Driver/Src/stm32n6xx_hal_bsec.c ****     [..]
 357:STM32Cube_FW_N6/Drivers/STM32N6xx_HAL_Driver/Src/stm32n6xx_hal_bsec.c ****   This subsection provides a set of functions allowing to manage the OTP fuses.
 358:STM32Cube_FW_N6/Drivers/STM32N6xx_HAL_Driver/Src/stm32n6xx_hal_bsec.c **** 
 359:STM32Cube_FW_N6/Drivers/STM32N6xx_HAL_Driver/Src/stm32n6xx_hal_bsec.c **** @endverbatim
 360:STM32Cube_FW_N6/Drivers/STM32N6xx_HAL_Driver/Src/stm32n6xx_hal_bsec.c ****   * @{
 361:STM32Cube_FW_N6/Drivers/STM32N6xx_HAL_Driver/Src/stm32n6xx_hal_bsec.c ****   */
 362:STM32Cube_FW_N6/Drivers/STM32N6xx_HAL_Driver/Src/stm32n6xx_hal_bsec.c **** 
 363:STM32Cube_FW_N6/Drivers/STM32N6xx_HAL_Driver/Src/stm32n6xx_hal_bsec.c **** /**
 364:STM32Cube_FW_N6/Drivers/STM32N6xx_HAL_Driver/Src/stm32n6xx_hal_bsec.c ****   * @brief  Read OTP fuse value.
 365:STM32Cube_FW_N6/Drivers/STM32N6xx_HAL_Driver/Src/stm32n6xx_hal_bsec.c ****   *
ARM GAS  C:\Users\DJESSOU\AppData\Local\Temp\ccqAzEsX.s 			page 12


 366:STM32Cube_FW_N6/Drivers/STM32N6xx_HAL_Driver/Src/stm32n6xx_hal_bsec.c ****   * @param  hbsec     BSEC handle
 367:STM32Cube_FW_N6/Drivers/STM32N6xx_HAL_Driver/Src/stm32n6xx_hal_bsec.c ****   * @param  FuseId     Fuse to be read, this parameter value is between 0 and BSEC_NB_FUSES-1
 368:STM32Cube_FW_N6/Drivers/STM32N6xx_HAL_Driver/Src/stm32n6xx_hal_bsec.c ****   * @param  pFuseData  Returned value of fuse. The returned value is between 0 and 0xFFFFFFFFU
 369:STM32Cube_FW_N6/Drivers/STM32N6xx_HAL_Driver/Src/stm32n6xx_hal_bsec.c ****   *
 370:STM32Cube_FW_N6/Drivers/STM32N6xx_HAL_Driver/Src/stm32n6xx_hal_bsec.c ****   * @retval HAL_StatusTypeDef HAL Status
 371:STM32Cube_FW_N6/Drivers/STM32N6xx_HAL_Driver/Src/stm32n6xx_hal_bsec.c ****   */
 372:STM32Cube_FW_N6/Drivers/STM32N6xx_HAL_Driver/Src/stm32n6xx_hal_bsec.c **** HAL_StatusTypeDef HAL_BSEC_OTP_Read(BSEC_HandleTypeDef * hbsec, uint32_t FuseId, uint32_t *pFuseDat
 373:STM32Cube_FW_N6/Drivers/STM32N6xx_HAL_Driver/Src/stm32n6xx_hal_bsec.c **** {
 374:STM32Cube_FW_N6/Drivers/STM32N6xx_HAL_Driver/Src/stm32n6xx_hal_bsec.c ****   /* Check the handle pointer */
 375:STM32Cube_FW_N6/Drivers/STM32N6xx_HAL_Driver/Src/stm32n6xx_hal_bsec.c ****   if (hbsec == NULL)
 376:STM32Cube_FW_N6/Drivers/STM32N6xx_HAL_Driver/Src/stm32n6xx_hal_bsec.c ****   {
 377:STM32Cube_FW_N6/Drivers/STM32N6xx_HAL_Driver/Src/stm32n6xx_hal_bsec.c ****     return HAL_ERROR;
 378:STM32Cube_FW_N6/Drivers/STM32N6xx_HAL_Driver/Src/stm32n6xx_hal_bsec.c ****   }
 379:STM32Cube_FW_N6/Drivers/STM32N6xx_HAL_Driver/Src/stm32n6xx_hal_bsec.c **** 
 380:STM32Cube_FW_N6/Drivers/STM32N6xx_HAL_Driver/Src/stm32n6xx_hal_bsec.c ****   /* Check the address of returned value and instance */
 381:STM32Cube_FW_N6/Drivers/STM32N6xx_HAL_Driver/Src/stm32n6xx_hal_bsec.c ****  if ((pFuseData == NULL) || (hbsec->Instance != BSEC))
 382:STM32Cube_FW_N6/Drivers/STM32N6xx_HAL_Driver/Src/stm32n6xx_hal_bsec.c ****   {
 383:STM32Cube_FW_N6/Drivers/STM32N6xx_HAL_Driver/Src/stm32n6xx_hal_bsec.c ****     hbsec->ErrorCode = HAL_BSEC_ERROR_INVALID_PARAM;
 384:STM32Cube_FW_N6/Drivers/STM32N6xx_HAL_Driver/Src/stm32n6xx_hal_bsec.c ****     return HAL_ERROR;
 385:STM32Cube_FW_N6/Drivers/STM32N6xx_HAL_Driver/Src/stm32n6xx_hal_bsec.c ****   }
 386:STM32Cube_FW_N6/Drivers/STM32N6xx_HAL_Driver/Src/stm32n6xx_hal_bsec.c **** 
 387:STM32Cube_FW_N6/Drivers/STM32N6xx_HAL_Driver/Src/stm32n6xx_hal_bsec.c ****   if (FuseId < BSEC_NB_FUSES)
 388:STM32Cube_FW_N6/Drivers/STM32N6xx_HAL_Driver/Src/stm32n6xx_hal_bsec.c ****   {
 389:STM32Cube_FW_N6/Drivers/STM32N6xx_HAL_Driver/Src/stm32n6xx_hal_bsec.c ****     /* Reload the data :
 390:STM32Cube_FW_N6/Drivers/STM32N6xx_HAL_Driver/Src/stm32n6xx_hal_bsec.c ****        - Unshadowed fuse are not automatically reload and data no more available after register rea
 391:STM32Cube_FW_N6/Drivers/STM32N6xx_HAL_Driver/Src/stm32n6xx_hal_bsec.c ****        - Shadowed fuse contains by default the shadow value in the register */
 392:STM32Cube_FW_N6/Drivers/STM32N6xx_HAL_Driver/Src/stm32n6xx_hal_bsec.c ****     if (HAL_BSEC_OTP_Reload(hbsec, FuseId) == HAL_OK)
 393:STM32Cube_FW_N6/Drivers/STM32N6xx_HAL_Driver/Src/stm32n6xx_hal_bsec.c ****     {
 394:STM32Cube_FW_N6/Drivers/STM32N6xx_HAL_Driver/Src/stm32n6xx_hal_bsec.c ****       /* Read data from shadow register */
 395:STM32Cube_FW_N6/Drivers/STM32N6xx_HAL_Driver/Src/stm32n6xx_hal_bsec.c ****       *pFuseData = hbsec->Instance->FVRw[FuseId];
 396:STM32Cube_FW_N6/Drivers/STM32N6xx_HAL_Driver/Src/stm32n6xx_hal_bsec.c ****     }
 397:STM32Cube_FW_N6/Drivers/STM32N6xx_HAL_Driver/Src/stm32n6xx_hal_bsec.c ****     else
 398:STM32Cube_FW_N6/Drivers/STM32N6xx_HAL_Driver/Src/stm32n6xx_hal_bsec.c ****     {
 399:STM32Cube_FW_N6/Drivers/STM32N6xx_HAL_Driver/Src/stm32n6xx_hal_bsec.c ****       return HAL_ERROR;
 400:STM32Cube_FW_N6/Drivers/STM32N6xx_HAL_Driver/Src/stm32n6xx_hal_bsec.c ****     }
 401:STM32Cube_FW_N6/Drivers/STM32N6xx_HAL_Driver/Src/stm32n6xx_hal_bsec.c ****   }
 402:STM32Cube_FW_N6/Drivers/STM32N6xx_HAL_Driver/Src/stm32n6xx_hal_bsec.c ****   else
 403:STM32Cube_FW_N6/Drivers/STM32N6xx_HAL_Driver/Src/stm32n6xx_hal_bsec.c ****   {
 404:STM32Cube_FW_N6/Drivers/STM32N6xx_HAL_Driver/Src/stm32n6xx_hal_bsec.c ****     hbsec->ErrorCode = HAL_BSEC_ERROR_INVALID_PARAM;
 405:STM32Cube_FW_N6/Drivers/STM32N6xx_HAL_Driver/Src/stm32n6xx_hal_bsec.c ****     return HAL_ERROR;
 406:STM32Cube_FW_N6/Drivers/STM32N6xx_HAL_Driver/Src/stm32n6xx_hal_bsec.c ****   }
 407:STM32Cube_FW_N6/Drivers/STM32N6xx_HAL_Driver/Src/stm32n6xx_hal_bsec.c **** 
 408:STM32Cube_FW_N6/Drivers/STM32N6xx_HAL_Driver/Src/stm32n6xx_hal_bsec.c ****   return HAL_OK;
 409:STM32Cube_FW_N6/Drivers/STM32N6xx_HAL_Driver/Src/stm32n6xx_hal_bsec.c **** }
 410:STM32Cube_FW_N6/Drivers/STM32N6xx_HAL_Driver/Src/stm32n6xx_hal_bsec.c **** 
 411:STM32Cube_FW_N6/Drivers/STM32N6xx_HAL_Driver/Src/stm32n6xx_hal_bsec.c **** /**
 412:STM32Cube_FW_N6/Drivers/STM32N6xx_HAL_Driver/Src/stm32n6xx_hal_bsec.c ****   * @brief  Program an OTP fuse with or without permanent lock.
 413:STM32Cube_FW_N6/Drivers/STM32N6xx_HAL_Driver/Src/stm32n6xx_hal_bsec.c ****   *
 414:STM32Cube_FW_N6/Drivers/STM32N6xx_HAL_Driver/Src/stm32n6xx_hal_bsec.c ****   * @param  hbsec    BSEC handle
 415:STM32Cube_FW_N6/Drivers/STM32N6xx_HAL_Driver/Src/stm32n6xx_hal_bsec.c ****   * @param  FuseId    Fuse to be written, this parameter value is between 0 and BSEC_NB_FUSES-1
 416:STM32Cube_FW_N6/Drivers/STM32N6xx_HAL_Driver/Src/stm32n6xx_hal_bsec.c ****   * @param  FuseData  Data to be written in fuse, this parameter value is between 0 and 0xFFFFFFFFU
 417:STM32Cube_FW_N6/Drivers/STM32N6xx_HAL_Driver/Src/stm32n6xx_hal_bsec.c ****   * @param  Lock      Permanent lock value, this parameter is @ref BSEC_Permanent_Lock
 418:STM32Cube_FW_N6/Drivers/STM32N6xx_HAL_Driver/Src/stm32n6xx_hal_bsec.c ****   *
 419:STM32Cube_FW_N6/Drivers/STM32N6xx_HAL_Driver/Src/stm32n6xx_hal_bsec.c ****   * @retval HAL_StatusTypeDef HAL Status
 420:STM32Cube_FW_N6/Drivers/STM32N6xx_HAL_Driver/Src/stm32n6xx_hal_bsec.c ****   */
 421:STM32Cube_FW_N6/Drivers/STM32N6xx_HAL_Driver/Src/stm32n6xx_hal_bsec.c **** HAL_StatusTypeDef HAL_BSEC_OTP_Program(BSEC_HandleTypeDef *hbsec, uint32_t FuseId, uint32_t FuseDat
 422:STM32Cube_FW_N6/Drivers/STM32N6xx_HAL_Driver/Src/stm32n6xx_hal_bsec.c **** {
ARM GAS  C:\Users\DJESSOU\AppData\Local\Temp\ccqAzEsX.s 			page 13


 423:STM32Cube_FW_N6/Drivers/STM32N6xx_HAL_Driver/Src/stm32n6xx_hal_bsec.c ****   uint32_t status_reg;
 424:STM32Cube_FW_N6/Drivers/STM32N6xx_HAL_Driver/Src/stm32n6xx_hal_bsec.c ****   uint32_t status_bit;
 425:STM32Cube_FW_N6/Drivers/STM32N6xx_HAL_Driver/Src/stm32n6xx_hal_bsec.c ****   uint32_t read_data;
 426:STM32Cube_FW_N6/Drivers/STM32N6xx_HAL_Driver/Src/stm32n6xx_hal_bsec.c ****   uint32_t tick_start = HAL_GetTick();
 427:STM32Cube_FW_N6/Drivers/STM32N6xx_HAL_Driver/Src/stm32n6xx_hal_bsec.c **** 
 428:STM32Cube_FW_N6/Drivers/STM32N6xx_HAL_Driver/Src/stm32n6xx_hal_bsec.c ****   /* Check the handle pointer */
 429:STM32Cube_FW_N6/Drivers/STM32N6xx_HAL_Driver/Src/stm32n6xx_hal_bsec.c ****   if (hbsec == NULL)
 430:STM32Cube_FW_N6/Drivers/STM32N6xx_HAL_Driver/Src/stm32n6xx_hal_bsec.c ****   {
 431:STM32Cube_FW_N6/Drivers/STM32N6xx_HAL_Driver/Src/stm32n6xx_hal_bsec.c ****     return HAL_ERROR;
 432:STM32Cube_FW_N6/Drivers/STM32N6xx_HAL_Driver/Src/stm32n6xx_hal_bsec.c ****   }
 433:STM32Cube_FW_N6/Drivers/STM32N6xx_HAL_Driver/Src/stm32n6xx_hal_bsec.c **** 
 434:STM32Cube_FW_N6/Drivers/STM32N6xx_HAL_Driver/Src/stm32n6xx_hal_bsec.c ****   /* Check the instance */
 435:STM32Cube_FW_N6/Drivers/STM32N6xx_HAL_Driver/Src/stm32n6xx_hal_bsec.c ****  if (hbsec->Instance != BSEC)
 436:STM32Cube_FW_N6/Drivers/STM32N6xx_HAL_Driver/Src/stm32n6xx_hal_bsec.c ****   {
 437:STM32Cube_FW_N6/Drivers/STM32N6xx_HAL_Driver/Src/stm32n6xx_hal_bsec.c ****     hbsec->ErrorCode = HAL_BSEC_ERROR_INVALID_PARAM;
 438:STM32Cube_FW_N6/Drivers/STM32N6xx_HAL_Driver/Src/stm32n6xx_hal_bsec.c ****     return HAL_ERROR;
 439:STM32Cube_FW_N6/Drivers/STM32N6xx_HAL_Driver/Src/stm32n6xx_hal_bsec.c ****   }
 440:STM32Cube_FW_N6/Drivers/STM32N6xx_HAL_Driver/Src/stm32n6xx_hal_bsec.c **** 
 441:STM32Cube_FW_N6/Drivers/STM32N6xx_HAL_Driver/Src/stm32n6xx_hal_bsec.c ****   /* Check the permanent lock */
 442:STM32Cube_FW_N6/Drivers/STM32N6xx_HAL_Driver/Src/stm32n6xx_hal_bsec.c ****   assert_param(IS_BSEC_PERMANENT_LOCK(Lock));
 443:STM32Cube_FW_N6/Drivers/STM32N6xx_HAL_Driver/Src/stm32n6xx_hal_bsec.c **** 
 444:STM32Cube_FW_N6/Drivers/STM32N6xx_HAL_Driver/Src/stm32n6xx_hal_bsec.c ****   /* Get the correct register value */
 445:STM32Cube_FW_N6/Drivers/STM32N6xx_HAL_Driver/Src/stm32n6xx_hal_bsec.c ****   if (FuseId < BSEC_NB_FUSES)
 446:STM32Cube_FW_N6/Drivers/STM32N6xx_HAL_Driver/Src/stm32n6xx_hal_bsec.c ****   {
 447:STM32Cube_FW_N6/Drivers/STM32N6xx_HAL_Driver/Src/stm32n6xx_hal_bsec.c ****     status_reg = FuseId / 32U;
 448:STM32Cube_FW_N6/Drivers/STM32N6xx_HAL_Driver/Src/stm32n6xx_hal_bsec.c ****     status_bit = (uint32_t)(1UL << (FuseId % 32U));
 449:STM32Cube_FW_N6/Drivers/STM32N6xx_HAL_Driver/Src/stm32n6xx_hal_bsec.c **** 
 450:STM32Cube_FW_N6/Drivers/STM32N6xx_HAL_Driver/Src/stm32n6xx_hal_bsec.c ****     if ((hbsec->Instance->SPLOCKx[status_reg] & status_bit) == 0U)
 451:STM32Cube_FW_N6/Drivers/STM32N6xx_HAL_Driver/Src/stm32n6xx_hal_bsec.c ****     {
 452:STM32Cube_FW_N6/Drivers/STM32N6xx_HAL_Driver/Src/stm32n6xx_hal_bsec.c ****       /* Write data in register */
 453:STM32Cube_FW_N6/Drivers/STM32N6xx_HAL_Driver/Src/stm32n6xx_hal_bsec.c ****       hbsec->Instance->WDR = FuseData;
 454:STM32Cube_FW_N6/Drivers/STM32N6xx_HAL_Driver/Src/stm32n6xx_hal_bsec.c **** 
 455:STM32Cube_FW_N6/Drivers/STM32N6xx_HAL_Driver/Src/stm32n6xx_hal_bsec.c ****       /* Perform a program of the fuse register */
 456:STM32Cube_FW_N6/Drivers/STM32N6xx_HAL_Driver/Src/stm32n6xx_hal_bsec.c ****       MODIFY_REG(hbsec->Instance->OTPCR, (BSEC_OTPCR_PPLOCK | BSEC_OTPCR_PROG | BSEC_OTPCR_ADDR),
 457:STM32Cube_FW_N6/Drivers/STM32N6xx_HAL_Driver/Src/stm32n6xx_hal_bsec.c ****                                          (FuseId | BSEC_OTPCR_PROG | Lock));
 458:STM32Cube_FW_N6/Drivers/STM32N6xx_HAL_Driver/Src/stm32n6xx_hal_bsec.c **** 
 459:STM32Cube_FW_N6/Drivers/STM32N6xx_HAL_Driver/Src/stm32n6xx_hal_bsec.c ****       /* Wait the operation is finished */
 460:STM32Cube_FW_N6/Drivers/STM32N6xx_HAL_Driver/Src/stm32n6xx_hal_bsec.c ****       while ((hbsec->Instance->OTPSR & BSEC_OTPSR_BUSY) != 0U)
 461:STM32Cube_FW_N6/Drivers/STM32N6xx_HAL_Driver/Src/stm32n6xx_hal_bsec.c ****       {
 462:STM32Cube_FW_N6/Drivers/STM32N6xx_HAL_Driver/Src/stm32n6xx_hal_bsec.c ****         if ((HAL_GetTick() - tick_start) > BSEC_TIMEOUT)
 463:STM32Cube_FW_N6/Drivers/STM32N6xx_HAL_Driver/Src/stm32n6xx_hal_bsec.c ****         {
 464:STM32Cube_FW_N6/Drivers/STM32N6xx_HAL_Driver/Src/stm32n6xx_hal_bsec.c ****           hbsec->ErrorCode = HAL_BSEC_ERROR_TIMEOUT;
 465:STM32Cube_FW_N6/Drivers/STM32N6xx_HAL_Driver/Src/stm32n6xx_hal_bsec.c ****           return HAL_ERROR;
 466:STM32Cube_FW_N6/Drivers/STM32N6xx_HAL_Driver/Src/stm32n6xx_hal_bsec.c ****         }
 467:STM32Cube_FW_N6/Drivers/STM32N6xx_HAL_Driver/Src/stm32n6xx_hal_bsec.c ****       }
 468:STM32Cube_FW_N6/Drivers/STM32N6xx_HAL_Driver/Src/stm32n6xx_hal_bsec.c **** 
 469:STM32Cube_FW_N6/Drivers/STM32N6xx_HAL_Driver/Src/stm32n6xx_hal_bsec.c ****       /* Check programming errors */
 470:STM32Cube_FW_N6/Drivers/STM32N6xx_HAL_Driver/Src/stm32n6xx_hal_bsec.c ****       if ((hbsec->Instance->OTPSR & BSEC_OTPSR_PROGFAIL) != 0U)
 471:STM32Cube_FW_N6/Drivers/STM32N6xx_HAL_Driver/Src/stm32n6xx_hal_bsec.c ****       {
 472:STM32Cube_FW_N6/Drivers/STM32N6xx_HAL_Driver/Src/stm32n6xx_hal_bsec.c ****         hbsec->ErrorCode = HAL_BSEC_ERROR_PROGFAIL;
 473:STM32Cube_FW_N6/Drivers/STM32N6xx_HAL_Driver/Src/stm32n6xx_hal_bsec.c ****         return HAL_ERROR;
 474:STM32Cube_FW_N6/Drivers/STM32N6xx_HAL_Driver/Src/stm32n6xx_hal_bsec.c ****       }
 475:STM32Cube_FW_N6/Drivers/STM32N6xx_HAL_Driver/Src/stm32n6xx_hal_bsec.c **** 
 476:STM32Cube_FW_N6/Drivers/STM32N6xx_HAL_Driver/Src/stm32n6xx_hal_bsec.c ****       /* Read back programmed data */
 477:STM32Cube_FW_N6/Drivers/STM32N6xx_HAL_Driver/Src/stm32n6xx_hal_bsec.c ****       if (HAL_BSEC_OTP_Read(hbsec, FuseId, &read_data) == HAL_OK)
 478:STM32Cube_FW_N6/Drivers/STM32N6xx_HAL_Driver/Src/stm32n6xx_hal_bsec.c ****       {
 479:STM32Cube_FW_N6/Drivers/STM32N6xx_HAL_Driver/Src/stm32n6xx_hal_bsec.c ****         /* Verify programmed data */
ARM GAS  C:\Users\DJESSOU\AppData\Local\Temp\ccqAzEsX.s 			page 14


 480:STM32Cube_FW_N6/Drivers/STM32N6xx_HAL_Driver/Src/stm32n6xx_hal_bsec.c ****         if (read_data != FuseData)
 481:STM32Cube_FW_N6/Drivers/STM32N6xx_HAL_Driver/Src/stm32n6xx_hal_bsec.c ****         {
 482:STM32Cube_FW_N6/Drivers/STM32N6xx_HAL_Driver/Src/stm32n6xx_hal_bsec.c ****           hbsec->ErrorCode = HAL_BSEC_ERROR_PROGFAIL;
 483:STM32Cube_FW_N6/Drivers/STM32N6xx_HAL_Driver/Src/stm32n6xx_hal_bsec.c ****           return HAL_ERROR;
 484:STM32Cube_FW_N6/Drivers/STM32N6xx_HAL_Driver/Src/stm32n6xx_hal_bsec.c ****         }
 485:STM32Cube_FW_N6/Drivers/STM32N6xx_HAL_Driver/Src/stm32n6xx_hal_bsec.c ****       }
 486:STM32Cube_FW_N6/Drivers/STM32N6xx_HAL_Driver/Src/stm32n6xx_hal_bsec.c ****       else
 487:STM32Cube_FW_N6/Drivers/STM32N6xx_HAL_Driver/Src/stm32n6xx_hal_bsec.c ****       {
 488:STM32Cube_FW_N6/Drivers/STM32N6xx_HAL_Driver/Src/stm32n6xx_hal_bsec.c ****         return HAL_ERROR;
 489:STM32Cube_FW_N6/Drivers/STM32N6xx_HAL_Driver/Src/stm32n6xx_hal_bsec.c ****       }
 490:STM32Cube_FW_N6/Drivers/STM32N6xx_HAL_Driver/Src/stm32n6xx_hal_bsec.c ****     }
 491:STM32Cube_FW_N6/Drivers/STM32N6xx_HAL_Driver/Src/stm32n6xx_hal_bsec.c ****     else
 492:STM32Cube_FW_N6/Drivers/STM32N6xx_HAL_Driver/Src/stm32n6xx_hal_bsec.c ****     {
 493:STM32Cube_FW_N6/Drivers/STM32N6xx_HAL_Driver/Src/stm32n6xx_hal_bsec.c ****       /* Fuse is sticky programming locked */
 494:STM32Cube_FW_N6/Drivers/STM32N6xx_HAL_Driver/Src/stm32n6xx_hal_bsec.c ****       hbsec->ErrorCode = HAL_BSEC_ERROR_LOCK;
 495:STM32Cube_FW_N6/Drivers/STM32N6xx_HAL_Driver/Src/stm32n6xx_hal_bsec.c ****       return HAL_ERROR;
 496:STM32Cube_FW_N6/Drivers/STM32N6xx_HAL_Driver/Src/stm32n6xx_hal_bsec.c ****     }
 497:STM32Cube_FW_N6/Drivers/STM32N6xx_HAL_Driver/Src/stm32n6xx_hal_bsec.c ****   }
 498:STM32Cube_FW_N6/Drivers/STM32N6xx_HAL_Driver/Src/stm32n6xx_hal_bsec.c ****   else
 499:STM32Cube_FW_N6/Drivers/STM32N6xx_HAL_Driver/Src/stm32n6xx_hal_bsec.c ****   {
 500:STM32Cube_FW_N6/Drivers/STM32N6xx_HAL_Driver/Src/stm32n6xx_hal_bsec.c ****     hbsec->ErrorCode = HAL_BSEC_ERROR_INVALID_PARAM;
 501:STM32Cube_FW_N6/Drivers/STM32N6xx_HAL_Driver/Src/stm32n6xx_hal_bsec.c ****     return HAL_ERROR;
 502:STM32Cube_FW_N6/Drivers/STM32N6xx_HAL_Driver/Src/stm32n6xx_hal_bsec.c ****   }
 503:STM32Cube_FW_N6/Drivers/STM32N6xx_HAL_Driver/Src/stm32n6xx_hal_bsec.c **** 
 504:STM32Cube_FW_N6/Drivers/STM32N6xx_HAL_Driver/Src/stm32n6xx_hal_bsec.c ****   return HAL_OK;
 505:STM32Cube_FW_N6/Drivers/STM32N6xx_HAL_Driver/Src/stm32n6xx_hal_bsec.c **** }
 506:STM32Cube_FW_N6/Drivers/STM32N6xx_HAL_Driver/Src/stm32n6xx_hal_bsec.c **** 
 507:STM32Cube_FW_N6/Drivers/STM32N6xx_HAL_Driver/Src/stm32n6xx_hal_bsec.c **** /**
 508:STM32Cube_FW_N6/Drivers/STM32N6xx_HAL_Driver/Src/stm32n6xx_hal_bsec.c ****   * @brief  Reload a OTP fuse value.
 509:STM32Cube_FW_N6/Drivers/STM32N6xx_HAL_Driver/Src/stm32n6xx_hal_bsec.c ****   *
 510:STM32Cube_FW_N6/Drivers/STM32N6xx_HAL_Driver/Src/stm32n6xx_hal_bsec.c ****   * @param  hbsec  BSEC handle
 511:STM32Cube_FW_N6/Drivers/STM32N6xx_HAL_Driver/Src/stm32n6xx_hal_bsec.c ****   * @param  FuseId  Fuse to be reload, this parameter value is between 0 and BSEC_NB_FUSES-1
 512:STM32Cube_FW_N6/Drivers/STM32N6xx_HAL_Driver/Src/stm32n6xx_hal_bsec.c ****   *
 513:STM32Cube_FW_N6/Drivers/STM32N6xx_HAL_Driver/Src/stm32n6xx_hal_bsec.c ****   * @retval HAL_StatusTypeDef HAL Status
 514:STM32Cube_FW_N6/Drivers/STM32N6xx_HAL_Driver/Src/stm32n6xx_hal_bsec.c ****   */
 515:STM32Cube_FW_N6/Drivers/STM32N6xx_HAL_Driver/Src/stm32n6xx_hal_bsec.c **** HAL_StatusTypeDef HAL_BSEC_OTP_Reload(BSEC_HandleTypeDef *hbsec, uint32_t FuseId)
 516:STM32Cube_FW_N6/Drivers/STM32N6xx_HAL_Driver/Src/stm32n6xx_hal_bsec.c **** {
 258              		.loc 1 516 1 is_stmt 1 view -0
 259              		.cfi_startproc
 260              		@ args = 0, pretend = 0, frame = 0
 261              		@ frame_needed = 0, uses_anonymous_args = 0
 517:STM32Cube_FW_N6/Drivers/STM32N6xx_HAL_Driver/Src/stm32n6xx_hal_bsec.c ****   uint32_t status_reg;
 262              		.loc 1 517 3 view .LVU68
 518:STM32Cube_FW_N6/Drivers/STM32N6xx_HAL_Driver/Src/stm32n6xx_hal_bsec.c ****   uint32_t status_bit;
 263              		.loc 1 518 3 view .LVU69
 519:STM32Cube_FW_N6/Drivers/STM32N6xx_HAL_Driver/Src/stm32n6xx_hal_bsec.c ****   uint32_t tick_start = HAL_GetTick();
 264              		.loc 1 519 3 view .LVU70
 516:STM32Cube_FW_N6/Drivers/STM32N6xx_HAL_Driver/Src/stm32n6xx_hal_bsec.c ****   uint32_t status_reg;
 265              		.loc 1 516 1 is_stmt 0 view .LVU71
 266 0000 70B5     		push	{r4, r5, r6, lr}
 267              		.cfi_def_cfa_offset 16
 268              		.cfi_offset 4, -16
 269              		.cfi_offset 5, -12
 270              		.cfi_offset 6, -8
 271              		.cfi_offset 14, -4
 516:STM32Cube_FW_N6/Drivers/STM32N6xx_HAL_Driver/Src/stm32n6xx_hal_bsec.c ****   uint32_t status_reg;
 272              		.loc 1 516 1 view .LVU72
ARM GAS  C:\Users\DJESSOU\AppData\Local\Temp\ccqAzEsX.s 			page 15


 273 0002 0446     		mov	r4, r0
 274 0004 0D46     		mov	r5, r1
 275              		.loc 1 519 25 view .LVU73
 276 0006 FFF7FEFF 		bl	HAL_GetTick
 277              	.LVL17:
 278              		.loc 1 519 25 view .LVU74
 279 000a 0646     		mov	r6, r0
 280              	.LVL18:
 520:STM32Cube_FW_N6/Drivers/STM32N6xx_HAL_Driver/Src/stm32n6xx_hal_bsec.c **** 
 521:STM32Cube_FW_N6/Drivers/STM32N6xx_HAL_Driver/Src/stm32n6xx_hal_bsec.c ****   /* Check the handle pointer */
 522:STM32Cube_FW_N6/Drivers/STM32N6xx_HAL_Driver/Src/stm32n6xx_hal_bsec.c ****   if (hbsec == NULL)
 281              		.loc 1 522 3 is_stmt 1 view .LVU75
 282              		.loc 1 522 6 is_stmt 0 view .LVU76
 283 000c 2CB1     		cbz	r4, .L44
 523:STM32Cube_FW_N6/Drivers/STM32N6xx_HAL_Driver/Src/stm32n6xx_hal_bsec.c ****   {
 524:STM32Cube_FW_N6/Drivers/STM32N6xx_HAL_Driver/Src/stm32n6xx_hal_bsec.c ****     return HAL_ERROR;
 525:STM32Cube_FW_N6/Drivers/STM32N6xx_HAL_Driver/Src/stm32n6xx_hal_bsec.c ****   }
 526:STM32Cube_FW_N6/Drivers/STM32N6xx_HAL_Driver/Src/stm32n6xx_hal_bsec.c **** 
 527:STM32Cube_FW_N6/Drivers/STM32N6xx_HAL_Driver/Src/stm32n6xx_hal_bsec.c ****   /* Check the instance */
 528:STM32Cube_FW_N6/Drivers/STM32N6xx_HAL_Driver/Src/stm32n6xx_hal_bsec.c ****  if (hbsec->Instance != BSEC)
 284              		.loc 1 528 2 is_stmt 1 view .LVU77
 285              		.loc 1 528 5 is_stmt 0 view .LVU78
 286 000e 2268     		ldr	r2, [r4]
 287 0010 1B4B     		ldr	r3, .L57
 288 0012 9A42     		cmp	r2, r3
 289 0014 03D0     		beq	.L45
 290              	.L47:
 529:STM32Cube_FW_N6/Drivers/STM32N6xx_HAL_Driver/Src/stm32n6xx_hal_bsec.c ****   {
 530:STM32Cube_FW_N6/Drivers/STM32N6xx_HAL_Driver/Src/stm32n6xx_hal_bsec.c ****     hbsec->ErrorCode = HAL_BSEC_ERROR_INVALID_PARAM;
 291              		.loc 1 530 5 is_stmt 1 view .LVU79
 292              		.loc 1 530 22 is_stmt 0 view .LVU80
 293 0016 0123     		movs	r3, #1
 294              	.LVL19:
 295              	.L56:
 296              		.loc 1 530 22 view .LVU81
 297 0018 6360     		str	r3, [r4, #4]
 531:STM32Cube_FW_N6/Drivers/STM32N6xx_HAL_Driver/Src/stm32n6xx_hal_bsec.c ****     return HAL_ERROR;
 298              		.loc 1 531 5 is_stmt 1 view .LVU82
 299              	.L44:
 524:STM32Cube_FW_N6/Drivers/STM32N6xx_HAL_Driver/Src/stm32n6xx_hal_bsec.c ****   }
 300              		.loc 1 524 12 is_stmt 0 view .LVU83
 301 001a 0120     		movs	r0, #1
 302              	.L46:
 532:STM32Cube_FW_N6/Drivers/STM32N6xx_HAL_Driver/Src/stm32n6xx_hal_bsec.c ****   }
 533:STM32Cube_FW_N6/Drivers/STM32N6xx_HAL_Driver/Src/stm32n6xx_hal_bsec.c **** 
 534:STM32Cube_FW_N6/Drivers/STM32N6xx_HAL_Driver/Src/stm32n6xx_hal_bsec.c ****   if (FuseId < BSEC_NB_FUSES)
 535:STM32Cube_FW_N6/Drivers/STM32N6xx_HAL_Driver/Src/stm32n6xx_hal_bsec.c ****   {
 536:STM32Cube_FW_N6/Drivers/STM32N6xx_HAL_Driver/Src/stm32n6xx_hal_bsec.c ****     status_reg = FuseId / 32U;
 537:STM32Cube_FW_N6/Drivers/STM32N6xx_HAL_Driver/Src/stm32n6xx_hal_bsec.c ****     status_bit = (uint32_t)(1UL << (FuseId % 32U));
 538:STM32Cube_FW_N6/Drivers/STM32N6xx_HAL_Driver/Src/stm32n6xx_hal_bsec.c **** 
 539:STM32Cube_FW_N6/Drivers/STM32N6xx_HAL_Driver/Src/stm32n6xx_hal_bsec.c ****     if ((hbsec->Instance->SRLOCKx[status_reg] & status_bit) == 0U)
 540:STM32Cube_FW_N6/Drivers/STM32N6xx_HAL_Driver/Src/stm32n6xx_hal_bsec.c ****     {
 541:STM32Cube_FW_N6/Drivers/STM32N6xx_HAL_Driver/Src/stm32n6xx_hal_bsec.c ****       /* Perform a reload of the fuse register */
 542:STM32Cube_FW_N6/Drivers/STM32N6xx_HAL_Driver/Src/stm32n6xx_hal_bsec.c ****       MODIFY_REG(hbsec->Instance->OTPCR, (BSEC_OTPCR_PPLOCK | BSEC_OTPCR_PROG | BSEC_OTPCR_ADDR), F
 543:STM32Cube_FW_N6/Drivers/STM32N6xx_HAL_Driver/Src/stm32n6xx_hal_bsec.c **** 
 544:STM32Cube_FW_N6/Drivers/STM32N6xx_HAL_Driver/Src/stm32n6xx_hal_bsec.c ****       /* Wait the operation is finished */
 545:STM32Cube_FW_N6/Drivers/STM32N6xx_HAL_Driver/Src/stm32n6xx_hal_bsec.c ****       while ((hbsec->Instance->OTPSR & BSEC_OTPSR_BUSY) != 0U)
ARM GAS  C:\Users\DJESSOU\AppData\Local\Temp\ccqAzEsX.s 			page 16


 546:STM32Cube_FW_N6/Drivers/STM32N6xx_HAL_Driver/Src/stm32n6xx_hal_bsec.c ****       {
 547:STM32Cube_FW_N6/Drivers/STM32N6xx_HAL_Driver/Src/stm32n6xx_hal_bsec.c ****         if ((HAL_GetTick() - tick_start) > BSEC_TIMEOUT)
 548:STM32Cube_FW_N6/Drivers/STM32N6xx_HAL_Driver/Src/stm32n6xx_hal_bsec.c ****         {
 549:STM32Cube_FW_N6/Drivers/STM32N6xx_HAL_Driver/Src/stm32n6xx_hal_bsec.c ****           hbsec->ErrorCode = HAL_BSEC_ERROR_TIMEOUT;
 550:STM32Cube_FW_N6/Drivers/STM32N6xx_HAL_Driver/Src/stm32n6xx_hal_bsec.c ****           return HAL_ERROR;
 551:STM32Cube_FW_N6/Drivers/STM32N6xx_HAL_Driver/Src/stm32n6xx_hal_bsec.c ****         }
 552:STM32Cube_FW_N6/Drivers/STM32N6xx_HAL_Driver/Src/stm32n6xx_hal_bsec.c ****       }
 553:STM32Cube_FW_N6/Drivers/STM32N6xx_HAL_Driver/Src/stm32n6xx_hal_bsec.c **** 
 554:STM32Cube_FW_N6/Drivers/STM32N6xx_HAL_Driver/Src/stm32n6xx_hal_bsec.c ****       if ((hbsec->Instance->OTPSR & BSEC_OTPSR_RELOAD_ERRORS) != 0U)
 555:STM32Cube_FW_N6/Drivers/STM32N6xx_HAL_Driver/Src/stm32n6xx_hal_bsec.c ****       {
 556:STM32Cube_FW_N6/Drivers/STM32N6xx_HAL_Driver/Src/stm32n6xx_hal_bsec.c ****         /* An error occurred during reloading, value can't be relied on */
 557:STM32Cube_FW_N6/Drivers/STM32N6xx_HAL_Driver/Src/stm32n6xx_hal_bsec.c ****         hbsec->ErrorCode = (hbsec->Instance->OTPSR & BSEC_OTPSR_RELOAD_ERRORS);
 558:STM32Cube_FW_N6/Drivers/STM32N6xx_HAL_Driver/Src/stm32n6xx_hal_bsec.c ****         return HAL_ERROR;
 559:STM32Cube_FW_N6/Drivers/STM32N6xx_HAL_Driver/Src/stm32n6xx_hal_bsec.c ****       }
 560:STM32Cube_FW_N6/Drivers/STM32N6xx_HAL_Driver/Src/stm32n6xx_hal_bsec.c ****     }
 561:STM32Cube_FW_N6/Drivers/STM32N6xx_HAL_Driver/Src/stm32n6xx_hal_bsec.c ****     else
 562:STM32Cube_FW_N6/Drivers/STM32N6xx_HAL_Driver/Src/stm32n6xx_hal_bsec.c ****     {
 563:STM32Cube_FW_N6/Drivers/STM32N6xx_HAL_Driver/Src/stm32n6xx_hal_bsec.c ****       /* Shadow register is sticky reload locked */
 564:STM32Cube_FW_N6/Drivers/STM32N6xx_HAL_Driver/Src/stm32n6xx_hal_bsec.c ****       hbsec->ErrorCode = HAL_BSEC_ERROR_LOCK;
 565:STM32Cube_FW_N6/Drivers/STM32N6xx_HAL_Driver/Src/stm32n6xx_hal_bsec.c ****       return HAL_ERROR;
 566:STM32Cube_FW_N6/Drivers/STM32N6xx_HAL_Driver/Src/stm32n6xx_hal_bsec.c ****     }
 567:STM32Cube_FW_N6/Drivers/STM32N6xx_HAL_Driver/Src/stm32n6xx_hal_bsec.c ****   }
 568:STM32Cube_FW_N6/Drivers/STM32N6xx_HAL_Driver/Src/stm32n6xx_hal_bsec.c ****   else
 569:STM32Cube_FW_N6/Drivers/STM32N6xx_HAL_Driver/Src/stm32n6xx_hal_bsec.c ****   {
 570:STM32Cube_FW_N6/Drivers/STM32N6xx_HAL_Driver/Src/stm32n6xx_hal_bsec.c ****     hbsec->ErrorCode = HAL_BSEC_ERROR_INVALID_PARAM;
 571:STM32Cube_FW_N6/Drivers/STM32N6xx_HAL_Driver/Src/stm32n6xx_hal_bsec.c ****     return HAL_ERROR;
 572:STM32Cube_FW_N6/Drivers/STM32N6xx_HAL_Driver/Src/stm32n6xx_hal_bsec.c ****   }
 573:STM32Cube_FW_N6/Drivers/STM32N6xx_HAL_Driver/Src/stm32n6xx_hal_bsec.c **** 
 574:STM32Cube_FW_N6/Drivers/STM32N6xx_HAL_Driver/Src/stm32n6xx_hal_bsec.c ****   return HAL_OK;
 575:STM32Cube_FW_N6/Drivers/STM32N6xx_HAL_Driver/Src/stm32n6xx_hal_bsec.c **** }
 303              		.loc 1 575 1 view .LVU84
 304 001c 70BD     		pop	{r4, r5, r6, pc}
 305              	.LVL20:
 306              	.L45:
 534:STM32Cube_FW_N6/Drivers/STM32N6xx_HAL_Driver/Src/stm32n6xx_hal_bsec.c ****   {
 307              		.loc 1 534 3 is_stmt 1 view .LVU85
 534:STM32Cube_FW_N6/Drivers/STM32N6xx_HAL_Driver/Src/stm32n6xx_hal_bsec.c ****   {
 308              		.loc 1 534 6 is_stmt 0 view .LVU86
 309 001e B5F5BC7F 		cmp	r5, #376
 310 0022 F8D2     		bcs	.L47
 536:STM32Cube_FW_N6/Drivers/STM32N6xx_HAL_Driver/Src/stm32n6xx_hal_bsec.c ****     status_bit = (uint32_t)(1UL << (FuseId % 32U));
 311              		.loc 1 536 5 is_stmt 1 view .LVU87
 536:STM32Cube_FW_N6/Drivers/STM32N6xx_HAL_Driver/Src/stm32n6xx_hal_bsec.c ****     status_bit = (uint32_t)(1UL << (FuseId % 32U));
 312              		.loc 1 536 16 is_stmt 0 view .LVU88
 313 0024 6B09     		lsrs	r3, r5, #5
 314              	.LVL21:
 537:STM32Cube_FW_N6/Drivers/STM32N6xx_HAL_Driver/Src/stm32n6xx_hal_bsec.c **** 
 315              		.loc 1 537 5 is_stmt 1 view .LVU89
 539:STM32Cube_FW_N6/Drivers/STM32N6xx_HAL_Driver/Src/stm32n6xx_hal_bsec.c ****     {
 316              		.loc 1 539 5 view .LVU90
 539:STM32Cube_FW_N6/Drivers/STM32N6xx_HAL_Driver/Src/stm32n6xx_hal_bsec.c ****     {
 317              		.loc 1 539 34 is_stmt 0 view .LVU91
 318 0026 03F50873 		add	r3, r3, #544
 319              	.LVL22:
 539:STM32Cube_FW_N6/Drivers/STM32N6xx_HAL_Driver/Src/stm32n6xx_hal_bsec.c ****     {
 320              		.loc 1 539 34 view .LVU92
 321 002a 52F82310 		ldr	r1, [r2, r3, lsl #2]
ARM GAS  C:\Users\DJESSOU\AppData\Local\Temp\ccqAzEsX.s 			page 17


 537:STM32Cube_FW_N6/Drivers/STM32N6xx_HAL_Driver/Src/stm32n6xx_hal_bsec.c **** 
 322              		.loc 1 537 16 view .LVU93
 323 002e 0123     		movs	r3, #1
 324              	.LVL23:
 537:STM32Cube_FW_N6/Drivers/STM32N6xx_HAL_Driver/Src/stm32n6xx_hal_bsec.c **** 
 325              		.loc 1 537 44 view .LVU94
 326 0030 05F01F00 		and	r0, r5, #31
 327              	.LVL24:
 537:STM32Cube_FW_N6/Drivers/STM32N6xx_HAL_Driver/Src/stm32n6xx_hal_bsec.c **** 
 328              		.loc 1 537 16 view .LVU95
 329 0034 8340     		lsls	r3, r3, r0
 330              	.LVL25:
 539:STM32Cube_FW_N6/Drivers/STM32N6xx_HAL_Driver/Src/stm32n6xx_hal_bsec.c ****     {
 331              		.loc 1 539 8 view .LVU96
 332 0036 0B42     		tst	r3, r1
 333 0038 1FD1     		bne	.L48
 542:STM32Cube_FW_N6/Drivers/STM32N6xx_HAL_Driver/Src/stm32n6xx_hal_bsec.c **** 
 334              		.loc 1 542 7 is_stmt 1 view .LVU97
 335 003a D2F8043C 		ldr	r3, [r2, #3076]
 336              	.LVL26:
 542:STM32Cube_FW_N6/Drivers/STM32N6xx_HAL_Driver/Src/stm32n6xx_hal_bsec.c **** 
 337              		.loc 1 542 7 is_stmt 0 view .LVU98
 338 003e 23F4C343 		bic	r3, r3, #24960
 339 0042 23F07F03 		bic	r3, r3, #127
 340 0046 2B43     		orrs	r3, r3, r5
 341 0048 C2F8043C 		str	r3, [r2, #3076]
 545:STM32Cube_FW_N6/Drivers/STM32N6xx_HAL_Driver/Src/stm32n6xx_hal_bsec.c ****       {
 342              		.loc 1 545 7 is_stmt 1 view .LVU99
 343              	.L49:
 545:STM32Cube_FW_N6/Drivers/STM32N6xx_HAL_Driver/Src/stm32n6xx_hal_bsec.c ****       {
 344              		.loc 1 545 57 view .LVU100
 545:STM32Cube_FW_N6/Drivers/STM32N6xx_HAL_Driver/Src/stm32n6xx_hal_bsec.c ****       {
 345              		.loc 1 545 20 is_stmt 0 view .LVU101
 346 004c 2368     		ldr	r3, [r4]
 545:STM32Cube_FW_N6/Drivers/STM32N6xx_HAL_Driver/Src/stm32n6xx_hal_bsec.c ****       {
 347              		.loc 1 545 30 view .LVU102
 348 004e D3F8442E 		ldr	r2, [r3, #3652]
 545:STM32Cube_FW_N6/Drivers/STM32N6xx_HAL_Driver/Src/stm32n6xx_hal_bsec.c ****       {
 349              		.loc 1 545 57 view .LVU103
 350 0052 D207     		lsls	r2, r2, #31
 351 0054 09D4     		bmi	.L50
 554:STM32Cube_FW_N6/Drivers/STM32N6xx_HAL_Driver/Src/stm32n6xx_hal_bsec.c ****       {
 352              		.loc 1 554 7 is_stmt 1 view .LVU104
 554:STM32Cube_FW_N6/Drivers/STM32N6xx_HAL_Driver/Src/stm32n6xx_hal_bsec.c ****       {
 353              		.loc 1 554 27 is_stmt 0 view .LVU105
 354 0056 D3F8440E 		ldr	r0, [r3, #3652]
 554:STM32Cube_FW_N6/Drivers/STM32N6xx_HAL_Driver/Src/stm32n6xx_hal_bsec.c ****       {
 355              		.loc 1 554 10 view .LVU106
 356 005a 10F48C00 		ands	r0, r0, #4587520
 357 005e DDD0     		beq	.L46
 557:STM32Cube_FW_N6/Drivers/STM32N6xx_HAL_Driver/Src/stm32n6xx_hal_bsec.c ****         return HAL_ERROR;
 358              		.loc 1 557 9 is_stmt 1 view .LVU107
 557:STM32Cube_FW_N6/Drivers/STM32N6xx_HAL_Driver/Src/stm32n6xx_hal_bsec.c ****         return HAL_ERROR;
 359              		.loc 1 557 44 is_stmt 0 view .LVU108
 360 0060 D3F8443E 		ldr	r3, [r3, #3652]
 557:STM32Cube_FW_N6/Drivers/STM32N6xx_HAL_Driver/Src/stm32n6xx_hal_bsec.c ****         return HAL_ERROR;
 361              		.loc 1 557 52 view .LVU109
ARM GAS  C:\Users\DJESSOU\AppData\Local\Temp\ccqAzEsX.s 			page 18


 362 0064 03F48C03 		and	r3, r3, #4587520
 363 0068 D6E7     		b	.L56
 364              	.L50:
 547:STM32Cube_FW_N6/Drivers/STM32N6xx_HAL_Driver/Src/stm32n6xx_hal_bsec.c ****         {
 365              		.loc 1 547 9 is_stmt 1 view .LVU110
 547:STM32Cube_FW_N6/Drivers/STM32N6xx_HAL_Driver/Src/stm32n6xx_hal_bsec.c ****         {
 366              		.loc 1 547 14 is_stmt 0 view .LVU111
 367 006a FFF7FEFF 		bl	HAL_GetTick
 368              	.LVL27:
 547:STM32Cube_FW_N6/Drivers/STM32N6xx_HAL_Driver/Src/stm32n6xx_hal_bsec.c ****         {
 369              		.loc 1 547 28 discriminator 1 view .LVU112
 370 006e 801B     		subs	r0, r0, r6
 547:STM32Cube_FW_N6/Drivers/STM32N6xx_HAL_Driver/Src/stm32n6xx_hal_bsec.c ****         {
 371              		.loc 1 547 12 discriminator 1 view .LVU113
 372 0070 B0F57A7F 		cmp	r0, #1000
 373 0074 EAD9     		bls	.L49
 549:STM32Cube_FW_N6/Drivers/STM32N6xx_HAL_Driver/Src/stm32n6xx_hal_bsec.c ****           return HAL_ERROR;
 374              		.loc 1 549 11 is_stmt 1 view .LVU114
 549:STM32Cube_FW_N6/Drivers/STM32N6xx_HAL_Driver/Src/stm32n6xx_hal_bsec.c ****           return HAL_ERROR;
 375              		.loc 1 549 28 is_stmt 0 view .LVU115
 376 0076 0A23     		movs	r3, #10
 377 0078 CEE7     		b	.L56
 378              	.LVL28:
 379              	.L48:
 564:STM32Cube_FW_N6/Drivers/STM32N6xx_HAL_Driver/Src/stm32n6xx_hal_bsec.c ****       return HAL_ERROR;
 380              		.loc 1 564 7 is_stmt 1 view .LVU116
 564:STM32Cube_FW_N6/Drivers/STM32N6xx_HAL_Driver/Src/stm32n6xx_hal_bsec.c ****       return HAL_ERROR;
 381              		.loc 1 564 24 is_stmt 0 view .LVU117
 382 007a 0423     		movs	r3, #4
 383              	.LVL29:
 564:STM32Cube_FW_N6/Drivers/STM32N6xx_HAL_Driver/Src/stm32n6xx_hal_bsec.c ****       return HAL_ERROR;
 384              		.loc 1 564 24 view .LVU118
 385 007c CCE7     		b	.L56
 386              	.L58:
 387 007e 00BF     		.align	2
 388              	.L57:
 389 0080 00900056 		.word	1442877440
 390              		.cfi_endproc
 391              	.LFE868:
 393              		.section	.text.HAL_BSEC_OTP_Read,"ax",%progbits
 394              		.align	1
 395              		.global	HAL_BSEC_OTP_Read
 396              		.syntax unified
 397              		.thumb
 398              		.thumb_func
 400              	HAL_BSEC_OTP_Read:
 401              	.LVL30:
 402              	.LFB866:
 373:STM32Cube_FW_N6/Drivers/STM32N6xx_HAL_Driver/Src/stm32n6xx_hal_bsec.c ****   /* Check the handle pointer */
 403              		.loc 1 373 1 is_stmt 1 view -0
 404              		.cfi_startproc
 405              		@ args = 0, pretend = 0, frame = 0
 406              		@ frame_needed = 0, uses_anonymous_args = 0
 375:STM32Cube_FW_N6/Drivers/STM32N6xx_HAL_Driver/Src/stm32n6xx_hal_bsec.c ****   {
 407              		.loc 1 375 3 view .LVU120
 373:STM32Cube_FW_N6/Drivers/STM32N6xx_HAL_Driver/Src/stm32n6xx_hal_bsec.c ****   /* Check the handle pointer */
 408              		.loc 1 373 1 is_stmt 0 view .LVU121
ARM GAS  C:\Users\DJESSOU\AppData\Local\Temp\ccqAzEsX.s 			page 19


 409 0000 70B5     		push	{r4, r5, r6, lr}
 410              		.cfi_def_cfa_offset 16
 411              		.cfi_offset 4, -16
 412              		.cfi_offset 5, -12
 413              		.cfi_offset 6, -8
 414              		.cfi_offset 14, -4
 373:STM32Cube_FW_N6/Drivers/STM32N6xx_HAL_Driver/Src/stm32n6xx_hal_bsec.c ****   /* Check the handle pointer */
 415              		.loc 1 373 1 view .LVU122
 416 0002 0E46     		mov	r6, r1
 417 0004 1546     		mov	r5, r2
 375:STM32Cube_FW_N6/Drivers/STM32N6xx_HAL_Driver/Src/stm32n6xx_hal_bsec.c ****   {
 418              		.loc 1 375 6 view .LVU123
 419 0006 0446     		mov	r4, r0
 420 0008 30B1     		cbz	r0, .L61
 381:STM32Cube_FW_N6/Drivers/STM32N6xx_HAL_Driver/Src/stm32n6xx_hal_bsec.c ****   {
 421              		.loc 1 381 2 is_stmt 1 view .LVU124
 381:STM32Cube_FW_N6/Drivers/STM32N6xx_HAL_Driver/Src/stm32n6xx_hal_bsec.c ****   {
 422              		.loc 1 381 5 is_stmt 0 view .LVU125
 423 000a 1AB1     		cbz	r2, .L62
 381:STM32Cube_FW_N6/Drivers/STM32N6xx_HAL_Driver/Src/stm32n6xx_hal_bsec.c ****   {
 424              		.loc 1 381 26 discriminator 1 view .LVU126
 425 000c 0268     		ldr	r2, [r0]
 426              	.LVL31:
 381:STM32Cube_FW_N6/Drivers/STM32N6xx_HAL_Driver/Src/stm32n6xx_hal_bsec.c ****   {
 427              		.loc 1 381 26 discriminator 1 view .LVU127
 428 000e 094B     		ldr	r3, .L69
 429 0010 9A42     		cmp	r2, r3
 430 0012 03D0     		beq	.L63
 431              	.L62:
 383:STM32Cube_FW_N6/Drivers/STM32N6xx_HAL_Driver/Src/stm32n6xx_hal_bsec.c ****     return HAL_ERROR;
 432              		.loc 1 383 5 is_stmt 1 view .LVU128
 383:STM32Cube_FW_N6/Drivers/STM32N6xx_HAL_Driver/Src/stm32n6xx_hal_bsec.c ****     return HAL_ERROR;
 433              		.loc 1 383 22 is_stmt 0 view .LVU129
 434 0014 0123     		movs	r3, #1
 435 0016 6360     		str	r3, [r4, #4]
 384:STM32Cube_FW_N6/Drivers/STM32N6xx_HAL_Driver/Src/stm32n6xx_hal_bsec.c ****   }
 436              		.loc 1 384 5 is_stmt 1 view .LVU130
 437              	.LVL32:
 438              	.L61:
 377:STM32Cube_FW_N6/Drivers/STM32N6xx_HAL_Driver/Src/stm32n6xx_hal_bsec.c ****   }
 439              		.loc 1 377 12 is_stmt 0 view .LVU131
 440 0018 0120     		movs	r0, #1
 441              	.L64:
 409:STM32Cube_FW_N6/Drivers/STM32N6xx_HAL_Driver/Src/stm32n6xx_hal_bsec.c **** 
 442              		.loc 1 409 1 view .LVU132
 443 001a 70BD     		pop	{r4, r5, r6, pc}
 444              	.LVL33:
 445              	.L63:
 387:STM32Cube_FW_N6/Drivers/STM32N6xx_HAL_Driver/Src/stm32n6xx_hal_bsec.c ****   {
 446              		.loc 1 387 3 is_stmt 1 view .LVU133
 387:STM32Cube_FW_N6/Drivers/STM32N6xx_HAL_Driver/Src/stm32n6xx_hal_bsec.c ****   {
 447              		.loc 1 387 6 is_stmt 0 view .LVU134
 448 001c B1F5BC7F 		cmp	r1, #376
 449 0020 F8D2     		bcs	.L62
 392:STM32Cube_FW_N6/Drivers/STM32N6xx_HAL_Driver/Src/stm32n6xx_hal_bsec.c ****     {
 450              		.loc 1 392 5 is_stmt 1 view .LVU135
 392:STM32Cube_FW_N6/Drivers/STM32N6xx_HAL_Driver/Src/stm32n6xx_hal_bsec.c ****     {
ARM GAS  C:\Users\DJESSOU\AppData\Local\Temp\ccqAzEsX.s 			page 20


 451              		.loc 1 392 9 is_stmt 0 view .LVU136
 452 0022 FFF7FEFF 		bl	HAL_BSEC_OTP_Reload
 453              	.LVL34:
 392:STM32Cube_FW_N6/Drivers/STM32N6xx_HAL_Driver/Src/stm32n6xx_hal_bsec.c ****     {
 454              		.loc 1 392 8 discriminator 1 view .LVU137
 455 0026 0028     		cmp	r0, #0
 456 0028 F6D1     		bne	.L61
 395:STM32Cube_FW_N6/Drivers/STM32N6xx_HAL_Driver/Src/stm32n6xx_hal_bsec.c ****     }
 457              		.loc 1 395 7 is_stmt 1 view .LVU138
 395:STM32Cube_FW_N6/Drivers/STM32N6xx_HAL_Driver/Src/stm32n6xx_hal_bsec.c ****     }
 458              		.loc 1 395 25 is_stmt 0 view .LVU139
 459 002a 2368     		ldr	r3, [r4]
 395:STM32Cube_FW_N6/Drivers/STM32N6xx_HAL_Driver/Src/stm32n6xx_hal_bsec.c ****     }
 460              		.loc 1 395 41 view .LVU140
 461 002c 53F82630 		ldr	r3, [r3, r6, lsl #2]
 395:STM32Cube_FW_N6/Drivers/STM32N6xx_HAL_Driver/Src/stm32n6xx_hal_bsec.c ****     }
 462              		.loc 1 395 18 view .LVU141
 463 0030 2B60     		str	r3, [r5]
 408:STM32Cube_FW_N6/Drivers/STM32N6xx_HAL_Driver/Src/stm32n6xx_hal_bsec.c **** }
 464              		.loc 1 408 3 is_stmt 1 view .LVU142
 408:STM32Cube_FW_N6/Drivers/STM32N6xx_HAL_Driver/Src/stm32n6xx_hal_bsec.c **** }
 465              		.loc 1 408 10 is_stmt 0 view .LVU143
 466 0032 F2E7     		b	.L64
 467              	.L70:
 468              		.align	2
 469              	.L69:
 470 0034 00900056 		.word	1442877440
 471              		.cfi_endproc
 472              	.LFE866:
 474              		.section	.rodata.HAL_BSEC_OTP_Program.str1.1,"aMS",%progbits,1
 475              	.LC0:
 476 0000 53544D33 		.ascii	"STM32Cube_FW_N6/Drivers/STM32N6xx_HAL_Driver/Src/st"
 476      32437562 
 476      655F4657 
 476      5F4E362F 
 476      44726976 
 477 0033 6D33326E 		.ascii	"m32n6xx_hal_bsec.c\000"
 477      3678785F 
 477      68616C5F 
 477      62736563 
 477      2E6300
 478              		.section	.text.HAL_BSEC_OTP_Program,"ax",%progbits
 479              		.align	1
 480              		.global	HAL_BSEC_OTP_Program
 481              		.syntax unified
 482              		.thumb
 483              		.thumb_func
 485              	HAL_BSEC_OTP_Program:
 486              	.LVL35:
 487              	.LFB867:
 422:STM32Cube_FW_N6/Drivers/STM32N6xx_HAL_Driver/Src/stm32n6xx_hal_bsec.c ****   uint32_t status_reg;
 488              		.loc 1 422 1 is_stmt 1 view -0
 489              		.cfi_startproc
 490              		@ args = 0, pretend = 0, frame = 8
 491              		@ frame_needed = 0, uses_anonymous_args = 0
 423:STM32Cube_FW_N6/Drivers/STM32N6xx_HAL_Driver/Src/stm32n6xx_hal_bsec.c ****   uint32_t status_bit;
 492              		.loc 1 423 3 view .LVU145
ARM GAS  C:\Users\DJESSOU\AppData\Local\Temp\ccqAzEsX.s 			page 21


 424:STM32Cube_FW_N6/Drivers/STM32N6xx_HAL_Driver/Src/stm32n6xx_hal_bsec.c ****   uint32_t read_data;
 493              		.loc 1 424 3 view .LVU146
 425:STM32Cube_FW_N6/Drivers/STM32N6xx_HAL_Driver/Src/stm32n6xx_hal_bsec.c ****   uint32_t tick_start = HAL_GetTick();
 494              		.loc 1 425 3 view .LVU147
 426:STM32Cube_FW_N6/Drivers/STM32N6xx_HAL_Driver/Src/stm32n6xx_hal_bsec.c **** 
 495              		.loc 1 426 3 view .LVU148
 422:STM32Cube_FW_N6/Drivers/STM32N6xx_HAL_Driver/Src/stm32n6xx_hal_bsec.c ****   uint32_t status_reg;
 496              		.loc 1 422 1 is_stmt 0 view .LVU149
 497 0000 2DE9F743 		push	{r0, r1, r2, r4, r5, r6, r7, r8, r9, lr}
 498              		.cfi_def_cfa_offset 40
 499              		.cfi_offset 4, -28
 500              		.cfi_offset 5, -24
 501              		.cfi_offset 6, -20
 502              		.cfi_offset 7, -16
 503              		.cfi_offset 8, -12
 504              		.cfi_offset 9, -8
 505              		.cfi_offset 14, -4
 422:STM32Cube_FW_N6/Drivers/STM32N6xx_HAL_Driver/Src/stm32n6xx_hal_bsec.c ****   uint32_t status_reg;
 506              		.loc 1 422 1 view .LVU150
 507 0004 0446     		mov	r4, r0
 508 0006 0E46     		mov	r6, r1
 509 0008 1746     		mov	r7, r2
 510 000a 9946     		mov	r9, r3
 426:STM32Cube_FW_N6/Drivers/STM32N6xx_HAL_Driver/Src/stm32n6xx_hal_bsec.c **** 
 511              		.loc 1 426 25 view .LVU151
 512 000c FFF7FEFF 		bl	HAL_GetTick
 513              	.LVL36:
 426:STM32Cube_FW_N6/Drivers/STM32N6xx_HAL_Driver/Src/stm32n6xx_hal_bsec.c **** 
 514              		.loc 1 426 25 view .LVU152
 515 0010 8046     		mov	r8, r0
 516              	.LVL37:
 429:STM32Cube_FW_N6/Drivers/STM32N6xx_HAL_Driver/Src/stm32n6xx_hal_bsec.c ****   {
 517              		.loc 1 429 3 is_stmt 1 view .LVU153
 429:STM32Cube_FW_N6/Drivers/STM32N6xx_HAL_Driver/Src/stm32n6xx_hal_bsec.c ****   {
 518              		.loc 1 429 6 is_stmt 0 view .LVU154
 519 0012 2CB1     		cbz	r4, .L73
 435:STM32Cube_FW_N6/Drivers/STM32N6xx_HAL_Driver/Src/stm32n6xx_hal_bsec.c ****   {
 520              		.loc 1 435 2 is_stmt 1 view .LVU155
 435:STM32Cube_FW_N6/Drivers/STM32N6xx_HAL_Driver/Src/stm32n6xx_hal_bsec.c ****   {
 521              		.loc 1 435 5 is_stmt 0 view .LVU156
 522 0014 2268     		ldr	r2, [r4]
 523 0016 284B     		ldr	r3, .L89
 524 0018 9A42     		cmp	r2, r3
 525 001a 05D0     		beq	.L74
 526              	.LVL38:
 527              	.L77:
 437:STM32Cube_FW_N6/Drivers/STM32N6xx_HAL_Driver/Src/stm32n6xx_hal_bsec.c ****     return HAL_ERROR;
 528              		.loc 1 437 5 is_stmt 1 view .LVU157
 437:STM32Cube_FW_N6/Drivers/STM32N6xx_HAL_Driver/Src/stm32n6xx_hal_bsec.c ****     return HAL_ERROR;
 529              		.loc 1 437 22 is_stmt 0 view .LVU158
 530 001c 0123     		movs	r3, #1
 531              	.L88:
 532 001e 6360     		str	r3, [r4, #4]
 438:STM32Cube_FW_N6/Drivers/STM32N6xx_HAL_Driver/Src/stm32n6xx_hal_bsec.c ****   }
 533              		.loc 1 438 5 is_stmt 1 view .LVU159
 534              	.L73:
 431:STM32Cube_FW_N6/Drivers/STM32N6xx_HAL_Driver/Src/stm32n6xx_hal_bsec.c ****   }
ARM GAS  C:\Users\DJESSOU\AppData\Local\Temp\ccqAzEsX.s 			page 22


 535              		.loc 1 431 12 is_stmt 0 view .LVU160
 536 0020 0120     		movs	r0, #1
 537              	.L75:
 505:STM32Cube_FW_N6/Drivers/STM32N6xx_HAL_Driver/Src/stm32n6xx_hal_bsec.c **** 
 538              		.loc 1 505 1 view .LVU161
 539 0022 03B0     		add	sp, sp, #12
 540              		.cfi_remember_state
 541              		.cfi_def_cfa_offset 28
 542              		@ sp needed
 543 0024 BDE8F083 		pop	{r4, r5, r6, r7, r8, r9, pc}
 544              	.LVL39:
 545              	.L74:
 546              		.cfi_restore_state
 442:STM32Cube_FW_N6/Drivers/STM32N6xx_HAL_Driver/Src/stm32n6xx_hal_bsec.c **** 
 547              		.loc 1 442 3 is_stmt 1 view .LVU162
 548 0028 39F48043 		bics	r3, r9, #16384
 549 002c 04D0     		beq	.L76
 442:STM32Cube_FW_N6/Drivers/STM32N6xx_HAL_Driver/Src/stm32n6xx_hal_bsec.c **** 
 550              		.loc 1 442 3 is_stmt 0 discriminator 2 view .LVU163
 551 002e 4FF4DD71 		mov	r1, #442
 552 0032 2248     		ldr	r0, .L89+4
 553              	.LVL40:
 442:STM32Cube_FW_N6/Drivers/STM32N6xx_HAL_Driver/Src/stm32n6xx_hal_bsec.c **** 
 554              		.loc 1 442 3 discriminator 2 view .LVU164
 555 0034 FFF7FEFF 		bl	assert_failed
 556              	.LVL41:
 557              	.L76:
 445:STM32Cube_FW_N6/Drivers/STM32N6xx_HAL_Driver/Src/stm32n6xx_hal_bsec.c ****   {
 558              		.loc 1 445 3 is_stmt 1 view .LVU165
 445:STM32Cube_FW_N6/Drivers/STM32N6xx_HAL_Driver/Src/stm32n6xx_hal_bsec.c ****   {
 559              		.loc 1 445 6 is_stmt 0 view .LVU166
 560 0038 B6F5BC7F 		cmp	r6, #376
 561 003c EED2     		bcs	.L77
 447:STM32Cube_FW_N6/Drivers/STM32N6xx_HAL_Driver/Src/stm32n6xx_hal_bsec.c ****     status_bit = (uint32_t)(1UL << (FuseId % 32U));
 562              		.loc 1 447 5 is_stmt 1 view .LVU167
 450:STM32Cube_FW_N6/Drivers/STM32N6xx_HAL_Driver/Src/stm32n6xx_hal_bsec.c ****     {
 563              		.loc 1 450 15 is_stmt 0 view .LVU168
 564 003e 2268     		ldr	r2, [r4]
 447:STM32Cube_FW_N6/Drivers/STM32N6xx_HAL_Driver/Src/stm32n6xx_hal_bsec.c ****     status_bit = (uint32_t)(1UL << (FuseId % 32U));
 565              		.loc 1 447 16 view .LVU169
 566 0040 7309     		lsrs	r3, r6, #5
 448:STM32Cube_FW_N6/Drivers/STM32N6xx_HAL_Driver/Src/stm32n6xx_hal_bsec.c **** 
 567              		.loc 1 448 5 is_stmt 1 view .LVU170
 568              	.LVL42:
 450:STM32Cube_FW_N6/Drivers/STM32N6xx_HAL_Driver/Src/stm32n6xx_hal_bsec.c ****     {
 569              		.loc 1 450 5 view .LVU171
 450:STM32Cube_FW_N6/Drivers/STM32N6xx_HAL_Driver/Src/stm32n6xx_hal_bsec.c ****     {
 570              		.loc 1 450 34 is_stmt 0 view .LVU172
 571 0042 03F50073 		add	r3, r3, #512
 572 0046 52F82310 		ldr	r1, [r2, r3, lsl #2]
 448:STM32Cube_FW_N6/Drivers/STM32N6xx_HAL_Driver/Src/stm32n6xx_hal_bsec.c **** 
 573              		.loc 1 448 16 view .LVU173
 574 004a 0123     		movs	r3, #1
 448:STM32Cube_FW_N6/Drivers/STM32N6xx_HAL_Driver/Src/stm32n6xx_hal_bsec.c **** 
 575              		.loc 1 448 44 view .LVU174
 576 004c 06F01F00 		and	r0, r6, #31
 448:STM32Cube_FW_N6/Drivers/STM32N6xx_HAL_Driver/Src/stm32n6xx_hal_bsec.c **** 
ARM GAS  C:\Users\DJESSOU\AppData\Local\Temp\ccqAzEsX.s 			page 23


 577              		.loc 1 448 16 view .LVU175
 578 0050 8340     		lsls	r3, r3, r0
 579              	.LVL43:
 450:STM32Cube_FW_N6/Drivers/STM32N6xx_HAL_Driver/Src/stm32n6xx_hal_bsec.c ****     {
 580              		.loc 1 450 8 view .LVU176
 581 0052 0B42     		tst	r3, r1
 582 0054 2ED1     		bne	.L78
 453:STM32Cube_FW_N6/Drivers/STM32N6xx_HAL_Driver/Src/stm32n6xx_hal_bsec.c **** 
 583              		.loc 1 453 7 is_stmt 1 view .LVU177
 453:STM32Cube_FW_N6/Drivers/STM32N6xx_HAL_Driver/Src/stm32n6xx_hal_bsec.c **** 
 584              		.loc 1 453 28 is_stmt 0 view .LVU178
 585 0056 C2F8087C 		str	r7, [r2, #3080]
 456:STM32Cube_FW_N6/Drivers/STM32N6xx_HAL_Driver/Src/stm32n6xx_hal_bsec.c ****                                          (FuseId | BSEC_OTPCR_PROG | Lock));
 586              		.loc 1 456 7 is_stmt 1 view .LVU179
 587 005a D2F8045C 		ldr	r5, [r2, #3076]
 588 005e 25F4C345 		bic	r5, r5, #24960
 589 0062 25F07F05 		bic	r5, r5, #127
 590 0066 3543     		orrs	r5, r5, r6
 591 0068 45EA0905 		orr	r5, r5, r9
 592 006c 45F40055 		orr	r5, r5, #8192
 593 0070 C2F8045C 		str	r5, [r2, #3076]
 460:STM32Cube_FW_N6/Drivers/STM32N6xx_HAL_Driver/Src/stm32n6xx_hal_bsec.c ****       {
 594              		.loc 1 460 7 view .LVU180
 595              	.LVL44:
 596              	.L79:
 460:STM32Cube_FW_N6/Drivers/STM32N6xx_HAL_Driver/Src/stm32n6xx_hal_bsec.c ****       {
 597              		.loc 1 460 57 view .LVU181
 460:STM32Cube_FW_N6/Drivers/STM32N6xx_HAL_Driver/Src/stm32n6xx_hal_bsec.c ****       {
 598              		.loc 1 460 20 is_stmt 0 view .LVU182
 599 0074 2368     		ldr	r3, [r4]
 460:STM32Cube_FW_N6/Drivers/STM32N6xx_HAL_Driver/Src/stm32n6xx_hal_bsec.c ****       {
 600              		.loc 1 460 30 view .LVU183
 601 0076 D3F8442E 		ldr	r2, [r3, #3652]
 460:STM32Cube_FW_N6/Drivers/STM32N6xx_HAL_Driver/Src/stm32n6xx_hal_bsec.c ****       {
 602              		.loc 1 460 57 view .LVU184
 603 007a D207     		lsls	r2, r2, #31
 604 007c 06D4     		bmi	.L80
 470:STM32Cube_FW_N6/Drivers/STM32N6xx_HAL_Driver/Src/stm32n6xx_hal_bsec.c ****       {
 605              		.loc 1 470 7 is_stmt 1 view .LVU185
 470:STM32Cube_FW_N6/Drivers/STM32N6xx_HAL_Driver/Src/stm32n6xx_hal_bsec.c ****       {
 606              		.loc 1 470 27 is_stmt 0 view .LVU186
 607 007e D3F8443E 		ldr	r3, [r3, #3652]
 470:STM32Cube_FW_N6/Drivers/STM32N6xx_HAL_Driver/Src/stm32n6xx_hal_bsec.c ****       {
 608              		.loc 1 470 10 view .LVU187
 609 0082 DB03     		lsls	r3, r3, #15
 610 0084 0BD5     		bpl	.L81
 611              	.L83:
 472:STM32Cube_FW_N6/Drivers/STM32N6xx_HAL_Driver/Src/stm32n6xx_hal_bsec.c ****         return HAL_ERROR;
 612              		.loc 1 472 9 is_stmt 1 view .LVU188
 472:STM32Cube_FW_N6/Drivers/STM32N6xx_HAL_Driver/Src/stm32n6xx_hal_bsec.c ****         return HAL_ERROR;
 613              		.loc 1 472 26 is_stmt 0 view .LVU189
 614 0086 4FF48033 		mov	r3, #65536
 615 008a C8E7     		b	.L88
 616              	.L80:
 462:STM32Cube_FW_N6/Drivers/STM32N6xx_HAL_Driver/Src/stm32n6xx_hal_bsec.c ****         {
 617              		.loc 1 462 9 is_stmt 1 view .LVU190
 462:STM32Cube_FW_N6/Drivers/STM32N6xx_HAL_Driver/Src/stm32n6xx_hal_bsec.c ****         {
ARM GAS  C:\Users\DJESSOU\AppData\Local\Temp\ccqAzEsX.s 			page 24


 618              		.loc 1 462 14 is_stmt 0 view .LVU191
 619 008c FFF7FEFF 		bl	HAL_GetTick
 620              	.LVL45:
 462:STM32Cube_FW_N6/Drivers/STM32N6xx_HAL_Driver/Src/stm32n6xx_hal_bsec.c ****         {
 621              		.loc 1 462 28 discriminator 1 view .LVU192
 622 0090 A0EB0800 		sub	r0, r0, r8
 462:STM32Cube_FW_N6/Drivers/STM32N6xx_HAL_Driver/Src/stm32n6xx_hal_bsec.c ****         {
 623              		.loc 1 462 12 discriminator 1 view .LVU193
 624 0094 B0F57A7F 		cmp	r0, #1000
 625 0098 ECD9     		bls	.L79
 464:STM32Cube_FW_N6/Drivers/STM32N6xx_HAL_Driver/Src/stm32n6xx_hal_bsec.c ****           return HAL_ERROR;
 626              		.loc 1 464 11 is_stmt 1 view .LVU194
 464:STM32Cube_FW_N6/Drivers/STM32N6xx_HAL_Driver/Src/stm32n6xx_hal_bsec.c ****           return HAL_ERROR;
 627              		.loc 1 464 28 is_stmt 0 view .LVU195
 628 009a 0A23     		movs	r3, #10
 629 009c BFE7     		b	.L88
 630              	.L81:
 477:STM32Cube_FW_N6/Drivers/STM32N6xx_HAL_Driver/Src/stm32n6xx_hal_bsec.c ****       {
 631              		.loc 1 477 7 is_stmt 1 view .LVU196
 477:STM32Cube_FW_N6/Drivers/STM32N6xx_HAL_Driver/Src/stm32n6xx_hal_bsec.c ****       {
 632              		.loc 1 477 11 is_stmt 0 view .LVU197
 633 009e 3146     		mov	r1, r6
 634 00a0 2046     		mov	r0, r4
 635 00a2 01AA     		add	r2, sp, #4
 636 00a4 FFF7FEFF 		bl	HAL_BSEC_OTP_Read
 637              	.LVL46:
 477:STM32Cube_FW_N6/Drivers/STM32N6xx_HAL_Driver/Src/stm32n6xx_hal_bsec.c ****       {
 638              		.loc 1 477 10 discriminator 1 view .LVU198
 639 00a8 0028     		cmp	r0, #0
 640 00aa B9D1     		bne	.L73
 480:STM32Cube_FW_N6/Drivers/STM32N6xx_HAL_Driver/Src/stm32n6xx_hal_bsec.c ****         {
 641              		.loc 1 480 9 is_stmt 1 view .LVU199
 480:STM32Cube_FW_N6/Drivers/STM32N6xx_HAL_Driver/Src/stm32n6xx_hal_bsec.c ****         {
 642              		.loc 1 480 12 is_stmt 0 view .LVU200
 643 00ac 019B     		ldr	r3, [sp, #4]
 644 00ae BB42     		cmp	r3, r7
 645 00b0 E9D1     		bne	.L83
 646 00b2 B6E7     		b	.L75
 647              	.LVL47:
 648              	.L78:
 494:STM32Cube_FW_N6/Drivers/STM32N6xx_HAL_Driver/Src/stm32n6xx_hal_bsec.c ****       return HAL_ERROR;
 649              		.loc 1 494 7 is_stmt 1 view .LVU201
 494:STM32Cube_FW_N6/Drivers/STM32N6xx_HAL_Driver/Src/stm32n6xx_hal_bsec.c ****       return HAL_ERROR;
 650              		.loc 1 494 24 is_stmt 0 view .LVU202
 651 00b4 0423     		movs	r3, #4
 652              	.LVL48:
 494:STM32Cube_FW_N6/Drivers/STM32N6xx_HAL_Driver/Src/stm32n6xx_hal_bsec.c ****       return HAL_ERROR;
 653              		.loc 1 494 24 view .LVU203
 654 00b6 B2E7     		b	.L88
 655              	.L90:
 656              		.align	2
 657              	.L89:
 658 00b8 00900056 		.word	1442877440
 659 00bc 00000000 		.word	.LC0
 660              		.cfi_endproc
 661              	.LFE867:
 663              		.section	.text.HAL_BSEC_OTP_Lock,"ax",%progbits
ARM GAS  C:\Users\DJESSOU\AppData\Local\Temp\ccqAzEsX.s 			page 25


 664              		.align	1
 665              		.global	HAL_BSEC_OTP_Lock
 666              		.syntax unified
 667              		.thumb
 668              		.thumb_func
 670              	HAL_BSEC_OTP_Lock:
 671              	.LVL49:
 672              	.LFB869:
 576:STM32Cube_FW_N6/Drivers/STM32N6xx_HAL_Driver/Src/stm32n6xx_hal_bsec.c **** 
 577:STM32Cube_FW_N6/Drivers/STM32N6xx_HAL_Driver/Src/stm32n6xx_hal_bsec.c **** /**
 578:STM32Cube_FW_N6/Drivers/STM32N6xx_HAL_Driver/Src/stm32n6xx_hal_bsec.c ****   * @brief  Sticky lock an OTP fuse programming, writing shadowed register or reload.
 579:STM32Cube_FW_N6/Drivers/STM32N6xx_HAL_Driver/Src/stm32n6xx_hal_bsec.c ****   *
 580:STM32Cube_FW_N6/Drivers/STM32N6xx_HAL_Driver/Src/stm32n6xx_hal_bsec.c ****   * @param  hbsec  BSEC handle
 581:STM32Cube_FW_N6/Drivers/STM32N6xx_HAL_Driver/Src/stm32n6xx_hal_bsec.c ****   * @param  FuseId  Fuse to lock, this parameter value is between 0 and BSEC_NB_FUSES-1
 582:STM32Cube_FW_N6/Drivers/STM32N6xx_HAL_Driver/Src/stm32n6xx_hal_bsec.c ****   * @param  Lock    Lock status of the fuse, this parameter is a combination of
 583:STM32Cube_FW_N6/Drivers/STM32N6xx_HAL_Driver/Src/stm32n6xx_hal_bsec.c ****   *                   @ref HAL_BSEC_FUSE_PROG_LOCKED,
 584:STM32Cube_FW_N6/Drivers/STM32N6xx_HAL_Driver/Src/stm32n6xx_hal_bsec.c ****   *                   @ref HAL_BSEC_FUSE_WRITE_LOCKED,
 585:STM32Cube_FW_N6/Drivers/STM32N6xx_HAL_Driver/Src/stm32n6xx_hal_bsec.c ****   *                   @ref HAL_BSEC_FUSE_RELOAD_LOCKED
 586:STM32Cube_FW_N6/Drivers/STM32N6xx_HAL_Driver/Src/stm32n6xx_hal_bsec.c ****   *
 587:STM32Cube_FW_N6/Drivers/STM32N6xx_HAL_Driver/Src/stm32n6xx_hal_bsec.c ****   * @retval HAL_StatusTypeDef HAL Status
 588:STM32Cube_FW_N6/Drivers/STM32N6xx_HAL_Driver/Src/stm32n6xx_hal_bsec.c ****   */
 589:STM32Cube_FW_N6/Drivers/STM32N6xx_HAL_Driver/Src/stm32n6xx_hal_bsec.c **** HAL_StatusTypeDef HAL_BSEC_OTP_Lock(BSEC_HandleTypeDef *hbsec, uint32_t FuseId, uint32_t Lock)
 590:STM32Cube_FW_N6/Drivers/STM32N6xx_HAL_Driver/Src/stm32n6xx_hal_bsec.c **** {
 673              		.loc 1 590 1 is_stmt 1 view -0
 674              		.cfi_startproc
 675              		@ args = 0, pretend = 0, frame = 0
 676              		@ frame_needed = 0, uses_anonymous_args = 0
 591:STM32Cube_FW_N6/Drivers/STM32N6xx_HAL_Driver/Src/stm32n6xx_hal_bsec.c ****   uint32_t status_reg;
 677              		.loc 1 591 3 view .LVU205
 592:STM32Cube_FW_N6/Drivers/STM32N6xx_HAL_Driver/Src/stm32n6xx_hal_bsec.c ****   uint32_t status_bit;
 678              		.loc 1 592 3 view .LVU206
 593:STM32Cube_FW_N6/Drivers/STM32N6xx_HAL_Driver/Src/stm32n6xx_hal_bsec.c **** 
 594:STM32Cube_FW_N6/Drivers/STM32N6xx_HAL_Driver/Src/stm32n6xx_hal_bsec.c ****   /* Check the handle pointer */
 595:STM32Cube_FW_N6/Drivers/STM32N6xx_HAL_Driver/Src/stm32n6xx_hal_bsec.c ****   if (hbsec == NULL)
 679              		.loc 1 595 3 view .LVU207
 590:STM32Cube_FW_N6/Drivers/STM32N6xx_HAL_Driver/Src/stm32n6xx_hal_bsec.c ****   uint32_t status_reg;
 680              		.loc 1 590 1 is_stmt 0 view .LVU208
 681 0000 70B5     		push	{r4, r5, r6, lr}
 682              		.cfi_def_cfa_offset 16
 683              		.cfi_offset 4, -16
 684              		.cfi_offset 5, -12
 685              		.cfi_offset 6, -8
 686              		.cfi_offset 14, -4
 590:STM32Cube_FW_N6/Drivers/STM32N6xx_HAL_Driver/Src/stm32n6xx_hal_bsec.c ****   uint32_t status_reg;
 687              		.loc 1 590 1 view .LVU209
 688 0002 0D46     		mov	r5, r1
 689 0004 1646     		mov	r6, r2
 690              		.loc 1 595 6 view .LVU210
 691 0006 0446     		mov	r4, r0
 692 0008 28B1     		cbz	r0, .L92
 596:STM32Cube_FW_N6/Drivers/STM32N6xx_HAL_Driver/Src/stm32n6xx_hal_bsec.c ****   {
 597:STM32Cube_FW_N6/Drivers/STM32N6xx_HAL_Driver/Src/stm32n6xx_hal_bsec.c ****     return HAL_ERROR;
 598:STM32Cube_FW_N6/Drivers/STM32N6xx_HAL_Driver/Src/stm32n6xx_hal_bsec.c ****   }
 599:STM32Cube_FW_N6/Drivers/STM32N6xx_HAL_Driver/Src/stm32n6xx_hal_bsec.c **** 
 600:STM32Cube_FW_N6/Drivers/STM32N6xx_HAL_Driver/Src/stm32n6xx_hal_bsec.c ****   /* Check the instance */
 601:STM32Cube_FW_N6/Drivers/STM32N6xx_HAL_Driver/Src/stm32n6xx_hal_bsec.c ****  if (hbsec->Instance != BSEC)
 693              		.loc 1 601 2 is_stmt 1 view .LVU211
ARM GAS  C:\Users\DJESSOU\AppData\Local\Temp\ccqAzEsX.s 			page 26


 694              		.loc 1 601 5 is_stmt 0 view .LVU212
 695 000a 0268     		ldr	r2, [r0]
 696              	.LVL50:
 697              		.loc 1 601 5 view .LVU213
 698 000c 1A4B     		ldr	r3, .L112
 699 000e 9A42     		cmp	r2, r3
 700 0010 03D0     		beq	.L93
 701              	.LVL51:
 702              	.L96:
 602:STM32Cube_FW_N6/Drivers/STM32N6xx_HAL_Driver/Src/stm32n6xx_hal_bsec.c ****   {
 603:STM32Cube_FW_N6/Drivers/STM32N6xx_HAL_Driver/Src/stm32n6xx_hal_bsec.c ****     hbsec->ErrorCode = HAL_BSEC_ERROR_INVALID_PARAM;
 703              		.loc 1 603 5 is_stmt 1 view .LVU214
 704              		.loc 1 603 22 is_stmt 0 view .LVU215
 705 0012 0123     		movs	r3, #1
 706 0014 6360     		str	r3, [r4, #4]
 604:STM32Cube_FW_N6/Drivers/STM32N6xx_HAL_Driver/Src/stm32n6xx_hal_bsec.c ****     return HAL_ERROR;
 707              		.loc 1 604 5 is_stmt 1 view .LVU216
 708              	.L92:
 597:STM32Cube_FW_N6/Drivers/STM32N6xx_HAL_Driver/Src/stm32n6xx_hal_bsec.c ****   }
 709              		.loc 1 597 12 is_stmt 0 view .LVU217
 710 0016 0120     		movs	r0, #1
 711              	.LVL52:
 712              	.L94:
 605:STM32Cube_FW_N6/Drivers/STM32N6xx_HAL_Driver/Src/stm32n6xx_hal_bsec.c ****   }
 606:STM32Cube_FW_N6/Drivers/STM32N6xx_HAL_Driver/Src/stm32n6xx_hal_bsec.c **** 
 607:STM32Cube_FW_N6/Drivers/STM32N6xx_HAL_Driver/Src/stm32n6xx_hal_bsec.c ****   /* Check the lock configuration */
 608:STM32Cube_FW_N6/Drivers/STM32N6xx_HAL_Driver/Src/stm32n6xx_hal_bsec.c ****   assert_param(IS_BSEC_LOCK_CFG(Lock));
 609:STM32Cube_FW_N6/Drivers/STM32N6xx_HAL_Driver/Src/stm32n6xx_hal_bsec.c **** 
 610:STM32Cube_FW_N6/Drivers/STM32N6xx_HAL_Driver/Src/stm32n6xx_hal_bsec.c ****   if (FuseId < BSEC_NB_FUSES)
 611:STM32Cube_FW_N6/Drivers/STM32N6xx_HAL_Driver/Src/stm32n6xx_hal_bsec.c ****   {
 612:STM32Cube_FW_N6/Drivers/STM32N6xx_HAL_Driver/Src/stm32n6xx_hal_bsec.c ****     status_reg = FuseId / 32U;
 613:STM32Cube_FW_N6/Drivers/STM32N6xx_HAL_Driver/Src/stm32n6xx_hal_bsec.c ****     status_bit = (uint32_t)(1UL << (FuseId % 32U));
 614:STM32Cube_FW_N6/Drivers/STM32N6xx_HAL_Driver/Src/stm32n6xx_hal_bsec.c **** 
 615:STM32Cube_FW_N6/Drivers/STM32N6xx_HAL_Driver/Src/stm32n6xx_hal_bsec.c ****     if ((Lock & HAL_BSEC_FUSE_PROG_LOCKED) != 0U)
 616:STM32Cube_FW_N6/Drivers/STM32N6xx_HAL_Driver/Src/stm32n6xx_hal_bsec.c ****     {
 617:STM32Cube_FW_N6/Drivers/STM32N6xx_HAL_Driver/Src/stm32n6xx_hal_bsec.c ****       /* Programming lock */
 618:STM32Cube_FW_N6/Drivers/STM32N6xx_HAL_Driver/Src/stm32n6xx_hal_bsec.c ****       SET_BIT(hbsec->Instance->SPLOCKx[status_reg], status_bit);
 619:STM32Cube_FW_N6/Drivers/STM32N6xx_HAL_Driver/Src/stm32n6xx_hal_bsec.c ****     }
 620:STM32Cube_FW_N6/Drivers/STM32N6xx_HAL_Driver/Src/stm32n6xx_hal_bsec.c **** 
 621:STM32Cube_FW_N6/Drivers/STM32N6xx_HAL_Driver/Src/stm32n6xx_hal_bsec.c ****     if ((Lock & HAL_BSEC_FUSE_WRITE_LOCKED) != 0U)
 622:STM32Cube_FW_N6/Drivers/STM32N6xx_HAL_Driver/Src/stm32n6xx_hal_bsec.c ****     {
 623:STM32Cube_FW_N6/Drivers/STM32N6xx_HAL_Driver/Src/stm32n6xx_hal_bsec.c ****       /* Write lock */
 624:STM32Cube_FW_N6/Drivers/STM32N6xx_HAL_Driver/Src/stm32n6xx_hal_bsec.c ****       SET_BIT(hbsec->Instance->SWLOCKx[status_reg], status_bit);
 625:STM32Cube_FW_N6/Drivers/STM32N6xx_HAL_Driver/Src/stm32n6xx_hal_bsec.c ****     }
 626:STM32Cube_FW_N6/Drivers/STM32N6xx_HAL_Driver/Src/stm32n6xx_hal_bsec.c **** 
 627:STM32Cube_FW_N6/Drivers/STM32N6xx_HAL_Driver/Src/stm32n6xx_hal_bsec.c ****     if ((Lock & HAL_BSEC_FUSE_RELOAD_LOCKED) != 0U)
 628:STM32Cube_FW_N6/Drivers/STM32N6xx_HAL_Driver/Src/stm32n6xx_hal_bsec.c ****     {
 629:STM32Cube_FW_N6/Drivers/STM32N6xx_HAL_Driver/Src/stm32n6xx_hal_bsec.c ****       /* Reload lock */
 630:STM32Cube_FW_N6/Drivers/STM32N6xx_HAL_Driver/Src/stm32n6xx_hal_bsec.c ****       SET_BIT(hbsec->Instance->SRLOCKx[status_reg], status_bit);
 631:STM32Cube_FW_N6/Drivers/STM32N6xx_HAL_Driver/Src/stm32n6xx_hal_bsec.c ****     }
 632:STM32Cube_FW_N6/Drivers/STM32N6xx_HAL_Driver/Src/stm32n6xx_hal_bsec.c ****   }
 633:STM32Cube_FW_N6/Drivers/STM32N6xx_HAL_Driver/Src/stm32n6xx_hal_bsec.c ****   else
 634:STM32Cube_FW_N6/Drivers/STM32N6xx_HAL_Driver/Src/stm32n6xx_hal_bsec.c ****   {
 635:STM32Cube_FW_N6/Drivers/STM32N6xx_HAL_Driver/Src/stm32n6xx_hal_bsec.c ****     hbsec->ErrorCode = HAL_BSEC_ERROR_INVALID_PARAM;
 636:STM32Cube_FW_N6/Drivers/STM32N6xx_HAL_Driver/Src/stm32n6xx_hal_bsec.c ****     return HAL_ERROR;
 637:STM32Cube_FW_N6/Drivers/STM32N6xx_HAL_Driver/Src/stm32n6xx_hal_bsec.c ****   }
 638:STM32Cube_FW_N6/Drivers/STM32N6xx_HAL_Driver/Src/stm32n6xx_hal_bsec.c **** 
ARM GAS  C:\Users\DJESSOU\AppData\Local\Temp\ccqAzEsX.s 			page 27


 639:STM32Cube_FW_N6/Drivers/STM32N6xx_HAL_Driver/Src/stm32n6xx_hal_bsec.c ****   return HAL_OK;
 640:STM32Cube_FW_N6/Drivers/STM32N6xx_HAL_Driver/Src/stm32n6xx_hal_bsec.c **** }
 713              		.loc 1 640 1 view .LVU218
 714 0018 70BD     		pop	{r4, r5, r6, pc}
 715              	.LVL53:
 716              	.L93:
 608:STM32Cube_FW_N6/Drivers/STM32N6xx_HAL_Driver/Src/stm32n6xx_hal_bsec.c **** 
 717              		.loc 1 608 3 is_stmt 1 view .LVU219
 718 001a 072E     		cmp	r6, #7
 719 001c 04D9     		bls	.L95
 608:STM32Cube_FW_N6/Drivers/STM32N6xx_HAL_Driver/Src/stm32n6xx_hal_bsec.c **** 
 720              		.loc 1 608 3 is_stmt 0 discriminator 1 view .LVU220
 721 001e 4FF41871 		mov	r1, #608
 722              	.LVL54:
 608:STM32Cube_FW_N6/Drivers/STM32N6xx_HAL_Driver/Src/stm32n6xx_hal_bsec.c **** 
 723              		.loc 1 608 3 discriminator 1 view .LVU221
 724 0022 1648     		ldr	r0, .L112+4
 725              	.LVL55:
 608:STM32Cube_FW_N6/Drivers/STM32N6xx_HAL_Driver/Src/stm32n6xx_hal_bsec.c **** 
 726              		.loc 1 608 3 discriminator 1 view .LVU222
 727 0024 FFF7FEFF 		bl	assert_failed
 728              	.LVL56:
 729              	.L95:
 610:STM32Cube_FW_N6/Drivers/STM32N6xx_HAL_Driver/Src/stm32n6xx_hal_bsec.c ****   {
 730              		.loc 1 610 3 is_stmt 1 view .LVU223
 610:STM32Cube_FW_N6/Drivers/STM32N6xx_HAL_Driver/Src/stm32n6xx_hal_bsec.c ****   {
 731              		.loc 1 610 6 is_stmt 0 view .LVU224
 732 0028 B5F5BC7F 		cmp	r5, #376
 733 002c F1D2     		bcs	.L96
 612:STM32Cube_FW_N6/Drivers/STM32N6xx_HAL_Driver/Src/stm32n6xx_hal_bsec.c ****     status_bit = (uint32_t)(1UL << (FuseId % 32U));
 734              		.loc 1 612 5 is_stmt 1 view .LVU225
 613:STM32Cube_FW_N6/Drivers/STM32N6xx_HAL_Driver/Src/stm32n6xx_hal_bsec.c **** 
 735              		.loc 1 613 16 is_stmt 0 view .LVU226
 736 002e 0123     		movs	r3, #1
 612:STM32Cube_FW_N6/Drivers/STM32N6xx_HAL_Driver/Src/stm32n6xx_hal_bsec.c ****     status_bit = (uint32_t)(1UL << (FuseId % 32U));
 737              		.loc 1 612 16 view .LVU227
 738 0030 6909     		lsrs	r1, r5, #5
 739              	.LVL57:
 613:STM32Cube_FW_N6/Drivers/STM32N6xx_HAL_Driver/Src/stm32n6xx_hal_bsec.c **** 
 740              		.loc 1 613 5 is_stmt 1 view .LVU228
 613:STM32Cube_FW_N6/Drivers/STM32N6xx_HAL_Driver/Src/stm32n6xx_hal_bsec.c **** 
 741              		.loc 1 613 44 is_stmt 0 view .LVU229
 742 0032 05F01F05 		and	r5, r5, #31
 743              	.LVL58:
 613:STM32Cube_FW_N6/Drivers/STM32N6xx_HAL_Driver/Src/stm32n6xx_hal_bsec.c **** 
 744              		.loc 1 613 16 view .LVU230
 745 0036 AB40     		lsls	r3, r3, r5
 746              	.LVL59:
 615:STM32Cube_FW_N6/Drivers/STM32N6xx_HAL_Driver/Src/stm32n6xx_hal_bsec.c ****     {
 747              		.loc 1 615 5 is_stmt 1 view .LVU231
 615:STM32Cube_FW_N6/Drivers/STM32N6xx_HAL_Driver/Src/stm32n6xx_hal_bsec.c ****     {
 748              		.loc 1 615 8 is_stmt 0 view .LVU232
 749 0038 F507     		lsls	r5, r6, #31
 750 003a 07D5     		bpl	.L97
 618:STM32Cube_FW_N6/Drivers/STM32N6xx_HAL_Driver/Src/stm32n6xx_hal_bsec.c ****     }
 751              		.loc 1 618 7 is_stmt 1 view .LVU233
 752 003c 2268     		ldr	r2, [r4]
ARM GAS  C:\Users\DJESSOU\AppData\Local\Temp\ccqAzEsX.s 			page 28


 753 003e 02EB8102 		add	r2, r2, r1, lsl #2
 754 0042 D2F80008 		ldr	r0, [r2, #2048]
 755 0046 1843     		orrs	r0, r0, r3
 756 0048 C2F80008 		str	r0, [r2, #2048]
 757              	.L97:
 621:STM32Cube_FW_N6/Drivers/STM32N6xx_HAL_Driver/Src/stm32n6xx_hal_bsec.c ****     {
 758              		.loc 1 621 5 view .LVU234
 621:STM32Cube_FW_N6/Drivers/STM32N6xx_HAL_Driver/Src/stm32n6xx_hal_bsec.c ****     {
 759              		.loc 1 621 8 is_stmt 0 view .LVU235
 760 004c B007     		lsls	r0, r6, #30
 761 004e 07D5     		bpl	.L98
 624:STM32Cube_FW_N6/Drivers/STM32N6xx_HAL_Driver/Src/stm32n6xx_hal_bsec.c ****     }
 762              		.loc 1 624 7 is_stmt 1 view .LVU236
 763 0050 2268     		ldr	r2, [r4]
 764 0052 02EB8102 		add	r2, r2, r1, lsl #2
 765 0056 D2F84008 		ldr	r0, [r2, #2112]
 766 005a 1843     		orrs	r0, r0, r3
 767 005c C2F84008 		str	r0, [r2, #2112]
 768              	.L98:
 627:STM32Cube_FW_N6/Drivers/STM32N6xx_HAL_Driver/Src/stm32n6xx_hal_bsec.c ****     {
 769              		.loc 1 627 5 view .LVU237
 627:STM32Cube_FW_N6/Drivers/STM32N6xx_HAL_Driver/Src/stm32n6xx_hal_bsec.c ****     {
 770              		.loc 1 627 8 is_stmt 0 view .LVU238
 771 0060 7207     		lsls	r2, r6, #29
 772 0062 07D5     		bpl	.L99
 630:STM32Cube_FW_N6/Drivers/STM32N6xx_HAL_Driver/Src/stm32n6xx_hal_bsec.c ****     }
 773              		.loc 1 630 7 is_stmt 1 view .LVU239
 774 0064 2268     		ldr	r2, [r4]
 775 0066 02EB8102 		add	r2, r2, r1, lsl #2
 776 006a D2F88018 		ldr	r1, [r2, #2176]
 777              	.LVL60:
 630:STM32Cube_FW_N6/Drivers/STM32N6xx_HAL_Driver/Src/stm32n6xx_hal_bsec.c ****     }
 778              		.loc 1 630 7 is_stmt 0 view .LVU240
 779 006e 0B43     		orrs	r3, r3, r1
 780              	.LVL61:
 630:STM32Cube_FW_N6/Drivers/STM32N6xx_HAL_Driver/Src/stm32n6xx_hal_bsec.c ****     }
 781              		.loc 1 630 7 view .LVU241
 782 0070 C2F88038 		str	r3, [r2, #2176]
 783              	.L99:
 639:STM32Cube_FW_N6/Drivers/STM32N6xx_HAL_Driver/Src/stm32n6xx_hal_bsec.c **** }
 784              		.loc 1 639 10 view .LVU242
 785 0074 0020     		movs	r0, #0
 786 0076 CFE7     		b	.L94
 787              	.L113:
 788              		.align	2
 789              	.L112:
 790 0078 00900056 		.word	1442877440
 791 007c 00000000 		.word	.LC0
 792              		.cfi_endproc
 793              	.LFE869:
 795              		.section	.text.HAL_BSEC_OTP_GetState,"ax",%progbits
 796              		.align	1
 797              		.global	HAL_BSEC_OTP_GetState
 798              		.syntax unified
 799              		.thumb
 800              		.thumb_func
 802              	HAL_BSEC_OTP_GetState:
ARM GAS  C:\Users\DJESSOU\AppData\Local\Temp\ccqAzEsX.s 			page 29


 803              	.LVL62:
 804              	.LFB870:
 641:STM32Cube_FW_N6/Drivers/STM32N6xx_HAL_Driver/Src/stm32n6xx_hal_bsec.c **** 
 642:STM32Cube_FW_N6/Drivers/STM32N6xx_HAL_Driver/Src/stm32n6xx_hal_bsec.c **** /**
 643:STM32Cube_FW_N6/Drivers/STM32N6xx_HAL_Driver/Src/stm32n6xx_hal_bsec.c ****   * @brief  Get the sticky lock status (programming, writing shadowed register
 644:STM32Cube_FW_N6/Drivers/STM32N6xx_HAL_Driver/Src/stm32n6xx_hal_bsec.c ****   *         or reload), the permanent lock status, the shadow configuration,
 645:STM32Cube_FW_N6/Drivers/STM32N6xx_HAL_Driver/Src/stm32n6xx_hal_bsec.c ****   *         the ECC or hidden status of an OTP fuse.
 646:STM32Cube_FW_N6/Drivers/STM32N6xx_HAL_Driver/Src/stm32n6xx_hal_bsec.c ****   *
 647:STM32Cube_FW_N6/Drivers/STM32N6xx_HAL_Driver/Src/stm32n6xx_hal_bsec.c ****   * @param  hbsec  BSEC handle
 648:STM32Cube_FW_N6/Drivers/STM32N6xx_HAL_Driver/Src/stm32n6xx_hal_bsec.c ****   * @param  FuseId  Fuse to get the state, this parameter value is between 0 and BSEC_NB_FUSES-1
 649:STM32Cube_FW_N6/Drivers/STM32N6xx_HAL_Driver/Src/stm32n6xx_hal_bsec.c ****   * @param  pState  Returned value of state. The returned value is a combination of @ref BSEC_State
 650:STM32Cube_FW_N6/Drivers/STM32N6xx_HAL_Driver/Src/stm32n6xx_hal_bsec.c ****   *
 651:STM32Cube_FW_N6/Drivers/STM32N6xx_HAL_Driver/Src/stm32n6xx_hal_bsec.c ****   * @retval HAL_StatusTypeDef HAL Status
 652:STM32Cube_FW_N6/Drivers/STM32N6xx_HAL_Driver/Src/stm32n6xx_hal_bsec.c ****   */
 653:STM32Cube_FW_N6/Drivers/STM32N6xx_HAL_Driver/Src/stm32n6xx_hal_bsec.c **** HAL_StatusTypeDef HAL_BSEC_OTP_GetState(BSEC_HandleTypeDef * hbsec, uint32_t FuseId, uint32_t *pSta
 654:STM32Cube_FW_N6/Drivers/STM32N6xx_HAL_Driver/Src/stm32n6xx_hal_bsec.c **** {
 805              		.loc 1 654 1 is_stmt 1 view -0
 806              		.cfi_startproc
 807              		@ args = 0, pretend = 0, frame = 0
 808              		@ frame_needed = 0, uses_anonymous_args = 0
 655:STM32Cube_FW_N6/Drivers/STM32N6xx_HAL_Driver/Src/stm32n6xx_hal_bsec.c ****   uint32_t status_reg;
 809              		.loc 1 655 3 view .LVU244
 656:STM32Cube_FW_N6/Drivers/STM32N6xx_HAL_Driver/Src/stm32n6xx_hal_bsec.c ****   uint32_t status_bit;
 810              		.loc 1 656 3 view .LVU245
 657:STM32Cube_FW_N6/Drivers/STM32N6xx_HAL_Driver/Src/stm32n6xx_hal_bsec.c ****   uint32_t otpsr_reg;
 811              		.loc 1 657 3 view .LVU246
 658:STM32Cube_FW_N6/Drivers/STM32N6xx_HAL_Driver/Src/stm32n6xx_hal_bsec.c ****   uint32_t state;
 812              		.loc 1 658 3 view .LVU247
 659:STM32Cube_FW_N6/Drivers/STM32N6xx_HAL_Driver/Src/stm32n6xx_hal_bsec.c **** 
 660:STM32Cube_FW_N6/Drivers/STM32N6xx_HAL_Driver/Src/stm32n6xx_hal_bsec.c ****   /* Check the handle pointer */
 661:STM32Cube_FW_N6/Drivers/STM32N6xx_HAL_Driver/Src/stm32n6xx_hal_bsec.c ****   if (hbsec == NULL)
 813              		.loc 1 661 3 view .LVU248
 654:STM32Cube_FW_N6/Drivers/STM32N6xx_HAL_Driver/Src/stm32n6xx_hal_bsec.c ****   uint32_t status_reg;
 814              		.loc 1 654 1 is_stmt 0 view .LVU249
 815 0000 2DE9F843 		push	{r3, r4, r5, r6, r7, r8, r9, lr}
 816              		.cfi_def_cfa_offset 32
 817              		.cfi_offset 3, -32
 818              		.cfi_offset 4, -28
 819              		.cfi_offset 5, -24
 820              		.cfi_offset 6, -20
 821              		.cfi_offset 7, -16
 822              		.cfi_offset 8, -12
 823              		.cfi_offset 9, -8
 824              		.cfi_offset 14, -4
 654:STM32Cube_FW_N6/Drivers/STM32N6xx_HAL_Driver/Src/stm32n6xx_hal_bsec.c ****   uint32_t status_reg;
 825              		.loc 1 654 1 view .LVU250
 826 0004 0E46     		mov	r6, r1
 827 0006 9046     		mov	r8, r2
 828              		.loc 1 661 6 view .LVU251
 829 0008 0546     		mov	r5, r0
 830 000a 30B1     		cbz	r0, .L115
 662:STM32Cube_FW_N6/Drivers/STM32N6xx_HAL_Driver/Src/stm32n6xx_hal_bsec.c ****   {
 663:STM32Cube_FW_N6/Drivers/STM32N6xx_HAL_Driver/Src/stm32n6xx_hal_bsec.c ****     return HAL_ERROR;
 664:STM32Cube_FW_N6/Drivers/STM32N6xx_HAL_Driver/Src/stm32n6xx_hal_bsec.c ****   }
 665:STM32Cube_FW_N6/Drivers/STM32N6xx_HAL_Driver/Src/stm32n6xx_hal_bsec.c **** 
 666:STM32Cube_FW_N6/Drivers/STM32N6xx_HAL_Driver/Src/stm32n6xx_hal_bsec.c ****   /* Check the address of returned value and instance */
 667:STM32Cube_FW_N6/Drivers/STM32N6xx_HAL_Driver/Src/stm32n6xx_hal_bsec.c ****  if ((pState == NULL) || (hbsec->Instance != BSEC))
ARM GAS  C:\Users\DJESSOU\AppData\Local\Temp\ccqAzEsX.s 			page 30


 831              		.loc 1 667 2 is_stmt 1 view .LVU252
 832              		.loc 1 667 5 is_stmt 0 view .LVU253
 833 000c 1AB1     		cbz	r2, .L116
 834              		.loc 1 667 23 discriminator 1 view .LVU254
 835 000e 0268     		ldr	r2, [r0]
 836              	.LVL63:
 837              		.loc 1 667 23 discriminator 1 view .LVU255
 838 0010 2B4B     		ldr	r3, .L142
 839 0012 9A42     		cmp	r2, r3
 840 0014 04D0     		beq	.L117
 841              	.L116:
 668:STM32Cube_FW_N6/Drivers/STM32N6xx_HAL_Driver/Src/stm32n6xx_hal_bsec.c ****   {
 669:STM32Cube_FW_N6/Drivers/STM32N6xx_HAL_Driver/Src/stm32n6xx_hal_bsec.c ****     hbsec->ErrorCode = HAL_BSEC_ERROR_INVALID_PARAM;
 842              		.loc 1 669 5 is_stmt 1 view .LVU256
 843              		.loc 1 669 22 is_stmt 0 view .LVU257
 844 0016 0123     		movs	r3, #1
 845              	.LVL64:
 846              	.L141:
 847              		.loc 1 669 22 view .LVU258
 848 0018 6B60     		str	r3, [r5, #4]
 670:STM32Cube_FW_N6/Drivers/STM32N6xx_HAL_Driver/Src/stm32n6xx_hal_bsec.c ****     return HAL_ERROR;
 849              		.loc 1 670 5 is_stmt 1 view .LVU259
 850              	.L115:
 663:STM32Cube_FW_N6/Drivers/STM32N6xx_HAL_Driver/Src/stm32n6xx_hal_bsec.c ****   }
 851              		.loc 1 663 12 is_stmt 0 view .LVU260
 852 001a 0120     		movs	r0, #1
 853              	.L118:
 671:STM32Cube_FW_N6/Drivers/STM32N6xx_HAL_Driver/Src/stm32n6xx_hal_bsec.c ****   }
 672:STM32Cube_FW_N6/Drivers/STM32N6xx_HAL_Driver/Src/stm32n6xx_hal_bsec.c **** 
 673:STM32Cube_FW_N6/Drivers/STM32N6xx_HAL_Driver/Src/stm32n6xx_hal_bsec.c ****   if (FuseId < BSEC_NB_FUSES)
 674:STM32Cube_FW_N6/Drivers/STM32N6xx_HAL_Driver/Src/stm32n6xx_hal_bsec.c ****   {
 675:STM32Cube_FW_N6/Drivers/STM32N6xx_HAL_Driver/Src/stm32n6xx_hal_bsec.c ****     status_reg = FuseId / 32U;
 676:STM32Cube_FW_N6/Drivers/STM32N6xx_HAL_Driver/Src/stm32n6xx_hal_bsec.c ****     status_bit = (uint32_t)(1UL << (FuseId % 32U));
 677:STM32Cube_FW_N6/Drivers/STM32N6xx_HAL_Driver/Src/stm32n6xx_hal_bsec.c **** 
 678:STM32Cube_FW_N6/Drivers/STM32N6xx_HAL_Driver/Src/stm32n6xx_hal_bsec.c ****     /* Initialize return value */
 679:STM32Cube_FW_N6/Drivers/STM32N6xx_HAL_Driver/Src/stm32n6xx_hal_bsec.c ****     state = 0U;
 680:STM32Cube_FW_N6/Drivers/STM32N6xx_HAL_Driver/Src/stm32n6xx_hal_bsec.c **** 
 681:STM32Cube_FW_N6/Drivers/STM32N6xx_HAL_Driver/Src/stm32n6xx_hal_bsec.c ****     /* Check sticky programming lock */
 682:STM32Cube_FW_N6/Drivers/STM32N6xx_HAL_Driver/Src/stm32n6xx_hal_bsec.c ****     if ((hbsec->Instance->SPLOCKx[status_reg] & status_bit) != 0U)
 683:STM32Cube_FW_N6/Drivers/STM32N6xx_HAL_Driver/Src/stm32n6xx_hal_bsec.c ****     {
 684:STM32Cube_FW_N6/Drivers/STM32N6xx_HAL_Driver/Src/stm32n6xx_hal_bsec.c ****       state |= HAL_BSEC_FUSE_PROG_LOCKED;
 685:STM32Cube_FW_N6/Drivers/STM32N6xx_HAL_Driver/Src/stm32n6xx_hal_bsec.c ****     }
 686:STM32Cube_FW_N6/Drivers/STM32N6xx_HAL_Driver/Src/stm32n6xx_hal_bsec.c **** 
 687:STM32Cube_FW_N6/Drivers/STM32N6xx_HAL_Driver/Src/stm32n6xx_hal_bsec.c ****     /* Check sticky write lock */
 688:STM32Cube_FW_N6/Drivers/STM32N6xx_HAL_Driver/Src/stm32n6xx_hal_bsec.c ****     if ((hbsec->Instance->SWLOCKx[status_reg] & status_bit) != 0U)
 689:STM32Cube_FW_N6/Drivers/STM32N6xx_HAL_Driver/Src/stm32n6xx_hal_bsec.c ****     {
 690:STM32Cube_FW_N6/Drivers/STM32N6xx_HAL_Driver/Src/stm32n6xx_hal_bsec.c ****       state |= HAL_BSEC_FUSE_WRITE_LOCKED;
 691:STM32Cube_FW_N6/Drivers/STM32N6xx_HAL_Driver/Src/stm32n6xx_hal_bsec.c ****     }
 692:STM32Cube_FW_N6/Drivers/STM32N6xx_HAL_Driver/Src/stm32n6xx_hal_bsec.c **** 
 693:STM32Cube_FW_N6/Drivers/STM32N6xx_HAL_Driver/Src/stm32n6xx_hal_bsec.c ****     /* Check sticky reload lock */
 694:STM32Cube_FW_N6/Drivers/STM32N6xx_HAL_Driver/Src/stm32n6xx_hal_bsec.c ****     if ((hbsec->Instance->SRLOCKx[status_reg] & status_bit) != 0U)
 695:STM32Cube_FW_N6/Drivers/STM32N6xx_HAL_Driver/Src/stm32n6xx_hal_bsec.c ****     {
 696:STM32Cube_FW_N6/Drivers/STM32N6xx_HAL_Driver/Src/stm32n6xx_hal_bsec.c ****       state |= HAL_BSEC_FUSE_RELOAD_LOCKED;
 697:STM32Cube_FW_N6/Drivers/STM32N6xx_HAL_Driver/Src/stm32n6xx_hal_bsec.c ****     }
 698:STM32Cube_FW_N6/Drivers/STM32N6xx_HAL_Driver/Src/stm32n6xx_hal_bsec.c ****     else
 699:STM32Cube_FW_N6/Drivers/STM32N6xx_HAL_Driver/Src/stm32n6xx_hal_bsec.c ****     {
 700:STM32Cube_FW_N6/Drivers/STM32N6xx_HAL_Driver/Src/stm32n6xx_hal_bsec.c ****       /* Check permanent lock : only in case of reload allowed as OTPSR reflect
ARM GAS  C:\Users\DJESSOU\AppData\Local\Temp\ccqAzEsX.s 			page 31


 701:STM32Cube_FW_N6/Drivers/STM32N6xx_HAL_Driver/Src/stm32n6xx_hal_bsec.c ****          status of most recently read word */
 702:STM32Cube_FW_N6/Drivers/STM32N6xx_HAL_Driver/Src/stm32n6xx_hal_bsec.c ****       if (HAL_BSEC_OTP_Reload(hbsec, FuseId) == HAL_OK)
 703:STM32Cube_FW_N6/Drivers/STM32N6xx_HAL_Driver/Src/stm32n6xx_hal_bsec.c ****       {
 704:STM32Cube_FW_N6/Drivers/STM32N6xx_HAL_Driver/Src/stm32n6xx_hal_bsec.c ****         otpsr_reg = hbsec->Instance->OTPSR;
 705:STM32Cube_FW_N6/Drivers/STM32N6xx_HAL_Driver/Src/stm32n6xx_hal_bsec.c **** 
 706:STM32Cube_FW_N6/Drivers/STM32N6xx_HAL_Driver/Src/stm32n6xx_hal_bsec.c ****         if ((otpsr_reg & BSEC_OTPSR_PPLF) != 0u)
 707:STM32Cube_FW_N6/Drivers/STM32N6xx_HAL_Driver/Src/stm32n6xx_hal_bsec.c ****         {
 708:STM32Cube_FW_N6/Drivers/STM32N6xx_HAL_Driver/Src/stm32n6xx_hal_bsec.c ****           /* Permanent programming lock detected */
 709:STM32Cube_FW_N6/Drivers/STM32N6xx_HAL_Driver/Src/stm32n6xx_hal_bsec.c ****           state |= HAL_BSEC_FUSE_LOCKED;
 710:STM32Cube_FW_N6/Drivers/STM32N6xx_HAL_Driver/Src/stm32n6xx_hal_bsec.c ****         }
 711:STM32Cube_FW_N6/Drivers/STM32N6xx_HAL_Driver/Src/stm32n6xx_hal_bsec.c ****         else if ((otpsr_reg & BSEC_OTPSR_PPLMF) != 0U)
 712:STM32Cube_FW_N6/Drivers/STM32N6xx_HAL_Driver/Src/stm32n6xx_hal_bsec.c ****         {
 713:STM32Cube_FW_N6/Drivers/STM32N6xx_HAL_Driver/Src/stm32n6xx_hal_bsec.c ****           /* Permanent programming lock on the two lower fuse values in the array are not identical
 714:STM32Cube_FW_N6/Drivers/STM32N6xx_HAL_Driver/Src/stm32n6xx_hal_bsec.c ****           hbsec->ErrorCode = HAL_BSEC_ERROR_PPLM;
 715:STM32Cube_FW_N6/Drivers/STM32N6xx_HAL_Driver/Src/stm32n6xx_hal_bsec.c ****           return HAL_ERROR;
 716:STM32Cube_FW_N6/Drivers/STM32N6xx_HAL_Driver/Src/stm32n6xx_hal_bsec.c ****         }
 717:STM32Cube_FW_N6/Drivers/STM32N6xx_HAL_Driver/Src/stm32n6xx_hal_bsec.c ****         else
 718:STM32Cube_FW_N6/Drivers/STM32N6xx_HAL_Driver/Src/stm32n6xx_hal_bsec.c ****         {
 719:STM32Cube_FW_N6/Drivers/STM32N6xx_HAL_Driver/Src/stm32n6xx_hal_bsec.c ****           /* No permanent programming lock detected */
 720:STM32Cube_FW_N6/Drivers/STM32N6xx_HAL_Driver/Src/stm32n6xx_hal_bsec.c ****         }
 721:STM32Cube_FW_N6/Drivers/STM32N6xx_HAL_Driver/Src/stm32n6xx_hal_bsec.c ****       }
 722:STM32Cube_FW_N6/Drivers/STM32N6xx_HAL_Driver/Src/stm32n6xx_hal_bsec.c ****     }
 723:STM32Cube_FW_N6/Drivers/STM32N6xx_HAL_Driver/Src/stm32n6xx_hal_bsec.c **** 
 724:STM32Cube_FW_N6/Drivers/STM32N6xx_HAL_Driver/Src/stm32n6xx_hal_bsec.c ****     /* Check shadow configuration */
 725:STM32Cube_FW_N6/Drivers/STM32N6xx_HAL_Driver/Src/stm32n6xx_hal_bsec.c ****     if ((hbsec->Instance->SFSRx[status_reg] & status_bit) != 0U)
 726:STM32Cube_FW_N6/Drivers/STM32N6xx_HAL_Driver/Src/stm32n6xx_hal_bsec.c ****     {
 727:STM32Cube_FW_N6/Drivers/STM32N6xx_HAL_Driver/Src/stm32n6xx_hal_bsec.c ****       state |= HAL_BSEC_FUSE_SHADOWED;
 728:STM32Cube_FW_N6/Drivers/STM32N6xx_HAL_Driver/Src/stm32n6xx_hal_bsec.c ****     }
 729:STM32Cube_FW_N6/Drivers/STM32N6xx_HAL_Driver/Src/stm32n6xx_hal_bsec.c **** 
 730:STM32Cube_FW_N6/Drivers/STM32N6xx_HAL_Driver/Src/stm32n6xx_hal_bsec.c ****     /* Check hidden status */
 731:STM32Cube_FW_N6/Drivers/STM32N6xx_HAL_Driver/Src/stm32n6xx_hal_bsec.c ****     if (((hbsec->Instance->OTPSR & BSEC_OTPSR_HIDEUP) != 0U) &&
 732:STM32Cube_FW_N6/Drivers/STM32N6xx_HAL_Driver/Src/stm32n6xx_hal_bsec.c ****         (FuseId >= BSEC_LIMIT_UPPER_FUSES))
 733:STM32Cube_FW_N6/Drivers/STM32N6xx_HAL_Driver/Src/stm32n6xx_hal_bsec.c ****     {
 734:STM32Cube_FW_N6/Drivers/STM32N6xx_HAL_Driver/Src/stm32n6xx_hal_bsec.c ****       state |= HAL_BSEC_FUSE_HIDDEN;
 735:STM32Cube_FW_N6/Drivers/STM32N6xx_HAL_Driver/Src/stm32n6xx_hal_bsec.c ****     }
 736:STM32Cube_FW_N6/Drivers/STM32N6xx_HAL_Driver/Src/stm32n6xx_hal_bsec.c **** 
 737:STM32Cube_FW_N6/Drivers/STM32N6xx_HAL_Driver/Src/stm32n6xx_hal_bsec.c ****     /* Check ECC errors on all OTP fuses */
 738:STM32Cube_FW_N6/Drivers/STM32N6xx_HAL_Driver/Src/stm32n6xx_hal_bsec.c ****     state |= (hbsec->Instance->OTPSR & (BSEC_OTPSR_OTPERR | BSEC_OTPSR_OTPSEC));
 739:STM32Cube_FW_N6/Drivers/STM32N6xx_HAL_Driver/Src/stm32n6xx_hal_bsec.c **** 
 740:STM32Cube_FW_N6/Drivers/STM32N6xx_HAL_Driver/Src/stm32n6xx_hal_bsec.c ****   }
 741:STM32Cube_FW_N6/Drivers/STM32N6xx_HAL_Driver/Src/stm32n6xx_hal_bsec.c ****   else
 742:STM32Cube_FW_N6/Drivers/STM32N6xx_HAL_Driver/Src/stm32n6xx_hal_bsec.c ****   {
 743:STM32Cube_FW_N6/Drivers/STM32N6xx_HAL_Driver/Src/stm32n6xx_hal_bsec.c ****     hbsec->ErrorCode = HAL_BSEC_ERROR_INVALID_PARAM;
 744:STM32Cube_FW_N6/Drivers/STM32N6xx_HAL_Driver/Src/stm32n6xx_hal_bsec.c ****     return HAL_ERROR;
 745:STM32Cube_FW_N6/Drivers/STM32N6xx_HAL_Driver/Src/stm32n6xx_hal_bsec.c ****   }
 746:STM32Cube_FW_N6/Drivers/STM32N6xx_HAL_Driver/Src/stm32n6xx_hal_bsec.c ****   *pState = state;
 747:STM32Cube_FW_N6/Drivers/STM32N6xx_HAL_Driver/Src/stm32n6xx_hal_bsec.c ****   return HAL_OK;
 748:STM32Cube_FW_N6/Drivers/STM32N6xx_HAL_Driver/Src/stm32n6xx_hal_bsec.c **** }
 854              		.loc 1 748 1 view .LVU261
 855 001c BDE8F883 		pop	{r3, r4, r5, r6, r7, r8, r9, pc}
 856              	.LVL65:
 857              	.L117:
 673:STM32Cube_FW_N6/Drivers/STM32N6xx_HAL_Driver/Src/stm32n6xx_hal_bsec.c ****   {
 858              		.loc 1 673 3 is_stmt 1 view .LVU262
 673:STM32Cube_FW_N6/Drivers/STM32N6xx_HAL_Driver/Src/stm32n6xx_hal_bsec.c ****   {
 859              		.loc 1 673 6 is_stmt 0 view .LVU263
 860 0020 B1F5BC7F 		cmp	r1, #376
ARM GAS  C:\Users\DJESSOU\AppData\Local\Temp\ccqAzEsX.s 			page 32


 861 0024 F7D2     		bcs	.L116
 675:STM32Cube_FW_N6/Drivers/STM32N6xx_HAL_Driver/Src/stm32n6xx_hal_bsec.c ****     status_bit = (uint32_t)(1UL << (FuseId % 32U));
 862              		.loc 1 675 5 is_stmt 1 view .LVU264
 676:STM32Cube_FW_N6/Drivers/STM32N6xx_HAL_Driver/Src/stm32n6xx_hal_bsec.c **** 
 863              		.loc 1 676 16 is_stmt 0 view .LVU265
 864 0026 0127     		movs	r7, #1
 676:STM32Cube_FW_N6/Drivers/STM32N6xx_HAL_Driver/Src/stm32n6xx_hal_bsec.c **** 
 865              		.loc 1 676 44 view .LVU266
 866 0028 01F01F03 		and	r3, r1, #31
 675:STM32Cube_FW_N6/Drivers/STM32N6xx_HAL_Driver/Src/stm32n6xx_hal_bsec.c ****     status_bit = (uint32_t)(1UL << (FuseId % 32U));
 867              		.loc 1 675 16 view .LVU267
 868 002c 4FEA5119 		lsr	r9, r1, #5
 869              	.LVL66:
 676:STM32Cube_FW_N6/Drivers/STM32N6xx_HAL_Driver/Src/stm32n6xx_hal_bsec.c **** 
 870              		.loc 1 676 5 is_stmt 1 view .LVU268
 676:STM32Cube_FW_N6/Drivers/STM32N6xx_HAL_Driver/Src/stm32n6xx_hal_bsec.c **** 
 871              		.loc 1 676 16 is_stmt 0 view .LVU269
 872 0030 9F40     		lsls	r7, r7, r3
 873              	.LVL67:
 679:STM32Cube_FW_N6/Drivers/STM32N6xx_HAL_Driver/Src/stm32n6xx_hal_bsec.c **** 
 874              		.loc 1 679 5 is_stmt 1 view .LVU270
 682:STM32Cube_FW_N6/Drivers/STM32N6xx_HAL_Driver/Src/stm32n6xx_hal_bsec.c ****     {
 875              		.loc 1 682 5 view .LVU271
 876 0032 4FEA8903 		lsl	r3, r9, #2
 877 0036 03F1AC43 		add	r3, r3, #1442840576
 878 003a 03F51043 		add	r3, r3, #36864
 682:STM32Cube_FW_N6/Drivers/STM32N6xx_HAL_Driver/Src/stm32n6xx_hal_bsec.c ****     {
 879              		.loc 1 682 34 is_stmt 0 view .LVU272
 880 003e D3F80028 		ldr	r2, [r3, #2048]
 688:STM32Cube_FW_N6/Drivers/STM32N6xx_HAL_Driver/Src/stm32n6xx_hal_bsec.c ****     {
 881              		.loc 1 688 34 view .LVU273
 882 0042 D3F840C8 		ldr	ip, [r3, #2112]
 682:STM32Cube_FW_N6/Drivers/STM32N6xx_HAL_Driver/Src/stm32n6xx_hal_bsec.c ****     {
 883              		.loc 1 682 8 view .LVU274
 884 0046 3A42     		tst	r2, r7
 885 0048 14BF     		ite	ne
 886 004a 0124     		movne	r4, #1
 887 004c 0024     		moveq	r4, #0
 888              	.LVL68:
 688:STM32Cube_FW_N6/Drivers/STM32N6xx_HAL_Driver/Src/stm32n6xx_hal_bsec.c ****     {
 889              		.loc 1 688 5 is_stmt 1 view .LVU275
 694:STM32Cube_FW_N6/Drivers/STM32N6xx_HAL_Driver/Src/stm32n6xx_hal_bsec.c ****     {
 890              		.loc 1 694 34 is_stmt 0 view .LVU276
 891 004e D3F88038 		ldr	r3, [r3, #2176]
 690:STM32Cube_FW_N6/Drivers/STM32N6xx_HAL_Driver/Src/stm32n6xx_hal_bsec.c ****     }
 892              		.loc 1 690 13 view .LVU277
 893 0052 1CEA070F 		tst	ip, r7
 894 0056 44F00202 		orr	r2, r4, #2
 895 005a 18BF     		it	ne
 896 005c 1446     		movne	r4, r2
 897              	.LVL69:
 694:STM32Cube_FW_N6/Drivers/STM32N6xx_HAL_Driver/Src/stm32n6xx_hal_bsec.c ****     {
 898              		.loc 1 694 5 is_stmt 1 view .LVU278
 694:STM32Cube_FW_N6/Drivers/STM32N6xx_HAL_Driver/Src/stm32n6xx_hal_bsec.c ****     {
 899              		.loc 1 694 8 is_stmt 0 view .LVU279
 900 005e 3B42     		tst	r3, r7
 901 0060 1DD0     		beq	.L120
ARM GAS  C:\Users\DJESSOU\AppData\Local\Temp\ccqAzEsX.s 			page 33


 696:STM32Cube_FW_N6/Drivers/STM32N6xx_HAL_Driver/Src/stm32n6xx_hal_bsec.c ****     }
 902              		.loc 1 696 7 is_stmt 1 view .LVU280
 696:STM32Cube_FW_N6/Drivers/STM32N6xx_HAL_Driver/Src/stm32n6xx_hal_bsec.c ****     }
 903              		.loc 1 696 13 is_stmt 0 view .LVU281
 904 0062 44F00404 		orr	r4, r4, #4
 905              	.LVL70:
 906              	.L121:
 720:STM32Cube_FW_N6/Drivers/STM32N6xx_HAL_Driver/Src/stm32n6xx_hal_bsec.c ****       }
 907              		.loc 1 720 9 is_stmt 1 view .LVU282
 725:STM32Cube_FW_N6/Drivers/STM32N6xx_HAL_Driver/Src/stm32n6xx_hal_bsec.c ****     {
 908              		.loc 1 725 5 view .LVU283
 725:STM32Cube_FW_N6/Drivers/STM32N6xx_HAL_Driver/Src/stm32n6xx_hal_bsec.c ****     {
 909              		.loc 1 725 15 is_stmt 0 view .LVU284
 910 0066 2B68     		ldr	r3, [r5]
 725:STM32Cube_FW_N6/Drivers/STM32N6xx_HAL_Driver/Src/stm32n6xx_hal_bsec.c ****     {
 911              		.loc 1 725 32 view .LVU285
 912 0068 09F51479 		add	r9, r9, #592
 913              	.LVL71:
 725:STM32Cube_FW_N6/Drivers/STM32N6xx_HAL_Driver/Src/stm32n6xx_hal_bsec.c ****     {
 914              		.loc 1 725 32 view .LVU286
 915 006c 53F82910 		ldr	r1, [r3, r9, lsl #2]
 727:STM32Cube_FW_N6/Drivers/STM32N6xx_HAL_Driver/Src/stm32n6xx_hal_bsec.c ****     }
 916              		.loc 1 727 13 view .LVU287
 917 0070 44F48072 		orr	r2, r4, #256
 918 0074 3942     		tst	r1, r7
 919 0076 18BF     		it	ne
 920 0078 1446     		movne	r4, r2
 921              	.LVL72:
 731:STM32Cube_FW_N6/Drivers/STM32N6xx_HAL_Driver/Src/stm32n6xx_hal_bsec.c ****         (FuseId >= BSEC_LIMIT_UPPER_FUSES))
 922              		.loc 1 731 5 is_stmt 1 view .LVU288
 731:STM32Cube_FW_N6/Drivers/STM32N6xx_HAL_Driver/Src/stm32n6xx_hal_bsec.c ****         (FuseId >= BSEC_LIMIT_UPPER_FUSES))
 923              		.loc 1 731 26 is_stmt 0 view .LVU289
 924 007a D3F8442E 		ldr	r2, [r3, #3652]
 731:STM32Cube_FW_N6/Drivers/STM32N6xx_HAL_Driver/Src/stm32n6xx_hal_bsec.c ****         (FuseId >= BSEC_LIMIT_UPPER_FUSES))
 925              		.loc 1 731 8 view .LVU290
 926 007e 5207     		lsls	r2, r2, #29
 927 0080 04D5     		bpl	.L124
 734:STM32Cube_FW_N6/Drivers/STM32N6xx_HAL_Driver/Src/stm32n6xx_hal_bsec.c ****     }
 928              		.loc 1 734 13 view .LVU291
 929 0082 44F40072 		orr	r2, r4, #512
 930 0086 FF2E     		cmp	r6, #255
 931 0088 88BF     		it	hi
 932 008a 1446     		movhi	r4, r2
 933              	.LVL73:
 934              	.L124:
 738:STM32Cube_FW_N6/Drivers/STM32N6xx_HAL_Driver/Src/stm32n6xx_hal_bsec.c **** 
 935              		.loc 1 738 5 is_stmt 1 view .LVU292
 738:STM32Cube_FW_N6/Drivers/STM32N6xx_HAL_Driver/Src/stm32n6xx_hal_bsec.c **** 
 936              		.loc 1 738 30 is_stmt 0 view .LVU293
 937 008c D3F8443E 		ldr	r3, [r3, #3652]
 938              	.LVL74:
 746:STM32Cube_FW_N6/Drivers/STM32N6xx_HAL_Driver/Src/stm32n6xx_hal_bsec.c ****   return HAL_OK;
 939              		.loc 1 746 3 is_stmt 1 view .LVU294
 747:STM32Cube_FW_N6/Drivers/STM32N6xx_HAL_Driver/Src/stm32n6xx_hal_bsec.c **** }
 940              		.loc 1 747 10 is_stmt 0 view .LVU295
 941 0090 0020     		movs	r0, #0
 738:STM32Cube_FW_N6/Drivers/STM32N6xx_HAL_Driver/Src/stm32n6xx_hal_bsec.c **** 
ARM GAS  C:\Users\DJESSOU\AppData\Local\Temp\ccqAzEsX.s 			page 34


 942              		.loc 1 738 38 view .LVU296
 943 0092 03F06003 		and	r3, r3, #96
 944              	.LVL75:
 738:STM32Cube_FW_N6/Drivers/STM32N6xx_HAL_Driver/Src/stm32n6xx_hal_bsec.c **** 
 945              		.loc 1 738 11 view .LVU297
 946 0096 2343     		orrs	r3, r3, r4
 947              	.LVL76:
 746:STM32Cube_FW_N6/Drivers/STM32N6xx_HAL_Driver/Src/stm32n6xx_hal_bsec.c ****   return HAL_OK;
 948              		.loc 1 746 11 view .LVU298
 949 0098 C8F80030 		str	r3, [r8]
 747:STM32Cube_FW_N6/Drivers/STM32N6xx_HAL_Driver/Src/stm32n6xx_hal_bsec.c **** }
 950              		.loc 1 747 3 is_stmt 1 view .LVU299
 747:STM32Cube_FW_N6/Drivers/STM32N6xx_HAL_Driver/Src/stm32n6xx_hal_bsec.c **** }
 951              		.loc 1 747 10 is_stmt 0 view .LVU300
 952 009c BEE7     		b	.L118
 953              	.LVL77:
 954              	.L120:
 702:STM32Cube_FW_N6/Drivers/STM32N6xx_HAL_Driver/Src/stm32n6xx_hal_bsec.c ****       {
 955              		.loc 1 702 7 is_stmt 1 view .LVU301
 702:STM32Cube_FW_N6/Drivers/STM32N6xx_HAL_Driver/Src/stm32n6xx_hal_bsec.c ****       {
 956              		.loc 1 702 11 is_stmt 0 view .LVU302
 957 009e FFF7FEFF 		bl	HAL_BSEC_OTP_Reload
 958              	.LVL78:
 702:STM32Cube_FW_N6/Drivers/STM32N6xx_HAL_Driver/Src/stm32n6xx_hal_bsec.c ****       {
 959              		.loc 1 702 10 discriminator 1 view .LVU303
 960 00a2 0028     		cmp	r0, #0
 961 00a4 DFD1     		bne	.L121
 704:STM32Cube_FW_N6/Drivers/STM32N6xx_HAL_Driver/Src/stm32n6xx_hal_bsec.c **** 
 962              		.loc 1 704 9 is_stmt 1 view .LVU304
 704:STM32Cube_FW_N6/Drivers/STM32N6xx_HAL_Driver/Src/stm32n6xx_hal_bsec.c **** 
 963              		.loc 1 704 26 is_stmt 0 view .LVU305
 964 00a6 2B68     		ldr	r3, [r5]
 704:STM32Cube_FW_N6/Drivers/STM32N6xx_HAL_Driver/Src/stm32n6xx_hal_bsec.c **** 
 965              		.loc 1 704 19 view .LVU306
 966 00a8 D3F8443E 		ldr	r3, [r3, #3652]
 967              	.LVL79:
 706:STM32Cube_FW_N6/Drivers/STM32N6xx_HAL_Driver/Src/stm32n6xx_hal_bsec.c ****         {
 968              		.loc 1 706 9 is_stmt 1 view .LVU307
 706:STM32Cube_FW_N6/Drivers/STM32N6xx_HAL_Driver/Src/stm32n6xx_hal_bsec.c ****         {
 969              		.loc 1 706 12 is_stmt 0 view .LVU308
 970 00ac D802     		lsls	r0, r3, #11
 971 00ae 02D5     		bpl	.L122
 709:STM32Cube_FW_N6/Drivers/STM32N6xx_HAL_Driver/Src/stm32n6xx_hal_bsec.c ****         }
 972              		.loc 1 709 11 is_stmt 1 view .LVU309
 709:STM32Cube_FW_N6/Drivers/STM32N6xx_HAL_Driver/Src/stm32n6xx_hal_bsec.c ****         }
 973              		.loc 1 709 17 is_stmt 0 view .LVU310
 974 00b0 44F00804 		orr	r4, r4, #8
 975              	.LVL80:
 709:STM32Cube_FW_N6/Drivers/STM32N6xx_HAL_Driver/Src/stm32n6xx_hal_bsec.c ****         }
 976              		.loc 1 709 17 view .LVU311
 977 00b4 D7E7     		b	.L121
 978              	.L122:
 711:STM32Cube_FW_N6/Drivers/STM32N6xx_HAL_Driver/Src/stm32n6xx_hal_bsec.c ****         {
 979              		.loc 1 711 14 is_stmt 1 view .LVU312
 711:STM32Cube_FW_N6/Drivers/STM32N6xx_HAL_Driver/Src/stm32n6xx_hal_bsec.c ****         {
 980              		.loc 1 711 17 is_stmt 0 view .LVU313
 981 00b6 9902     		lsls	r1, r3, #10
ARM GAS  C:\Users\DJESSOU\AppData\Local\Temp\ccqAzEsX.s 			page 35


 982 00b8 D5D5     		bpl	.L121
 714:STM32Cube_FW_N6/Drivers/STM32N6xx_HAL_Driver/Src/stm32n6xx_hal_bsec.c ****           return HAL_ERROR;
 983              		.loc 1 714 11 is_stmt 1 view .LVU314
 714:STM32Cube_FW_N6/Drivers/STM32N6xx_HAL_Driver/Src/stm32n6xx_hal_bsec.c ****           return HAL_ERROR;
 984              		.loc 1 714 28 is_stmt 0 view .LVU315
 985 00ba 4FF40013 		mov	r3, #2097152
 986              	.LVL81:
 714:STM32Cube_FW_N6/Drivers/STM32N6xx_HAL_Driver/Src/stm32n6xx_hal_bsec.c ****           return HAL_ERROR;
 987              		.loc 1 714 28 view .LVU316
 988 00be ABE7     		b	.L141
 989              	.L143:
 990              		.align	2
 991              	.L142:
 992 00c0 00900056 		.word	1442877440
 993              		.cfi_endproc
 994              	.LFE870:
 996              		.section	.text.HAL_BSEC_OTP_ReadShadow,"ax",%progbits
 997              		.align	1
 998              		.global	HAL_BSEC_OTP_ReadShadow
 999              		.syntax unified
 1000              		.thumb
 1001              		.thumb_func
 1003              	HAL_BSEC_OTP_ReadShadow:
 1004              	.LVL82:
 1005              	.LFB871:
 749:STM32Cube_FW_N6/Drivers/STM32N6xx_HAL_Driver/Src/stm32n6xx_hal_bsec.c **** 
 750:STM32Cube_FW_N6/Drivers/STM32N6xx_HAL_Driver/Src/stm32n6xx_hal_bsec.c **** /**
 751:STM32Cube_FW_N6/Drivers/STM32N6xx_HAL_Driver/Src/stm32n6xx_hal_bsec.c ****   * @}
 752:STM32Cube_FW_N6/Drivers/STM32N6xx_HAL_Driver/Src/stm32n6xx_hal_bsec.c ****   */
 753:STM32Cube_FW_N6/Drivers/STM32N6xx_HAL_Driver/Src/stm32n6xx_hal_bsec.c **** 
 754:STM32Cube_FW_N6/Drivers/STM32N6xx_HAL_Driver/Src/stm32n6xx_hal_bsec.c **** /** @defgroup BSEC_Exported_Functions_Group3 Shadow fuse register management functions
 755:STM32Cube_FW_N6/Drivers/STM32N6xx_HAL_Driver/Src/stm32n6xx_hal_bsec.c ****  *  @brief   Shadow fuse register management functions
 756:STM32Cube_FW_N6/Drivers/STM32N6xx_HAL_Driver/Src/stm32n6xx_hal_bsec.c ****  *
 757:STM32Cube_FW_N6/Drivers/STM32N6xx_HAL_Driver/Src/stm32n6xx_hal_bsec.c **** @verbatim
 758:STM32Cube_FW_N6/Drivers/STM32N6xx_HAL_Driver/Src/stm32n6xx_hal_bsec.c ****  ===============================================================================
 759:STM32Cube_FW_N6/Drivers/STM32N6xx_HAL_Driver/Src/stm32n6xx_hal_bsec.c ****              ##### Shadow fuse register management functions #####
 760:STM32Cube_FW_N6/Drivers/STM32N6xx_HAL_Driver/Src/stm32n6xx_hal_bsec.c ****  ===============================================================================
 761:STM32Cube_FW_N6/Drivers/STM32N6xx_HAL_Driver/Src/stm32n6xx_hal_bsec.c ****     [..]
 762:STM32Cube_FW_N6/Drivers/STM32N6xx_HAL_Driver/Src/stm32n6xx_hal_bsec.c ****   This subsection provides a set of functions allowing to manage the
 763:STM32Cube_FW_N6/Drivers/STM32N6xx_HAL_Driver/Src/stm32n6xx_hal_bsec.c ****   shadow fuse registers.
 764:STM32Cube_FW_N6/Drivers/STM32N6xx_HAL_Driver/Src/stm32n6xx_hal_bsec.c **** 
 765:STM32Cube_FW_N6/Drivers/STM32N6xx_HAL_Driver/Src/stm32n6xx_hal_bsec.c **** @endverbatim
 766:STM32Cube_FW_N6/Drivers/STM32N6xx_HAL_Driver/Src/stm32n6xx_hal_bsec.c ****   * @{
 767:STM32Cube_FW_N6/Drivers/STM32N6xx_HAL_Driver/Src/stm32n6xx_hal_bsec.c ****   */
 768:STM32Cube_FW_N6/Drivers/STM32N6xx_HAL_Driver/Src/stm32n6xx_hal_bsec.c **** 
 769:STM32Cube_FW_N6/Drivers/STM32N6xx_HAL_Driver/Src/stm32n6xx_hal_bsec.c **** /**
 770:STM32Cube_FW_N6/Drivers/STM32N6xx_HAL_Driver/Src/stm32n6xx_hal_bsec.c ****   * @brief  Read the value of a shadow fuse register.
 771:STM32Cube_FW_N6/Drivers/STM32N6xx_HAL_Driver/Src/stm32n6xx_hal_bsec.c ****   *
 772:STM32Cube_FW_N6/Drivers/STM32N6xx_HAL_Driver/Src/stm32n6xx_hal_bsec.c ****   * @param  hbsec    BSEC handle
 773:STM32Cube_FW_N6/Drivers/STM32N6xx_HAL_Driver/Src/stm32n6xx_hal_bsec.c ****   * @param  RegId     Shadow register to be read, this parameter value is between 0 and BSEC_NB_FUS
 774:STM32Cube_FW_N6/Drivers/STM32N6xx_HAL_Driver/Src/stm32n6xx_hal_bsec.c ****   * @param  pRegData  Returned value of register data. The returned value is between 0 and 0xFFFFFF
 775:STM32Cube_FW_N6/Drivers/STM32N6xx_HAL_Driver/Src/stm32n6xx_hal_bsec.c ****   *
 776:STM32Cube_FW_N6/Drivers/STM32N6xx_HAL_Driver/Src/stm32n6xx_hal_bsec.c ****   * @retval HAL_StatusTypeDef HAL Status
 777:STM32Cube_FW_N6/Drivers/STM32N6xx_HAL_Driver/Src/stm32n6xx_hal_bsec.c ****   */
 778:STM32Cube_FW_N6/Drivers/STM32N6xx_HAL_Driver/Src/stm32n6xx_hal_bsec.c **** HAL_StatusTypeDef HAL_BSEC_OTP_ReadShadow(BSEC_HandleTypeDef * hbsec, uint32_t RegId, uint32_t *pRe
 779:STM32Cube_FW_N6/Drivers/STM32N6xx_HAL_Driver/Src/stm32n6xx_hal_bsec.c **** {
 1006              		.loc 1 779 1 is_stmt 1 view -0
ARM GAS  C:\Users\DJESSOU\AppData\Local\Temp\ccqAzEsX.s 			page 36


 1007              		.cfi_startproc
 1008              		@ args = 0, pretend = 0, frame = 0
 1009              		@ frame_needed = 0, uses_anonymous_args = 0
 780:STM32Cube_FW_N6/Drivers/STM32N6xx_HAL_Driver/Src/stm32n6xx_hal_bsec.c ****   uint32_t status_reg;
 1010              		.loc 1 780 3 view .LVU318
 781:STM32Cube_FW_N6/Drivers/STM32N6xx_HAL_Driver/Src/stm32n6xx_hal_bsec.c ****   uint32_t status_bit;
 1011              		.loc 1 781 3 view .LVU319
 782:STM32Cube_FW_N6/Drivers/STM32N6xx_HAL_Driver/Src/stm32n6xx_hal_bsec.c **** 
 783:STM32Cube_FW_N6/Drivers/STM32N6xx_HAL_Driver/Src/stm32n6xx_hal_bsec.c ****   /* Check the handle pointer */
 784:STM32Cube_FW_N6/Drivers/STM32N6xx_HAL_Driver/Src/stm32n6xx_hal_bsec.c ****   if (hbsec == NULL)
 1012              		.loc 1 784 3 view .LVU320
 779:STM32Cube_FW_N6/Drivers/STM32N6xx_HAL_Driver/Src/stm32n6xx_hal_bsec.c ****   uint32_t status_reg;
 1013              		.loc 1 779 1 is_stmt 0 view .LVU321
 1014 0000 70B5     		push	{r4, r5, r6, lr}
 1015              		.cfi_def_cfa_offset 16
 1016              		.cfi_offset 4, -16
 1017              		.cfi_offset 5, -12
 1018              		.cfi_offset 6, -8
 1019              		.cfi_offset 14, -4
 1020              		.loc 1 784 6 view .LVU322
 1021 0002 30B1     		cbz	r0, .L145
 785:STM32Cube_FW_N6/Drivers/STM32N6xx_HAL_Driver/Src/stm32n6xx_hal_bsec.c ****   {
 786:STM32Cube_FW_N6/Drivers/STM32N6xx_HAL_Driver/Src/stm32n6xx_hal_bsec.c ****     return HAL_ERROR;
 787:STM32Cube_FW_N6/Drivers/STM32N6xx_HAL_Driver/Src/stm32n6xx_hal_bsec.c ****   }
 788:STM32Cube_FW_N6/Drivers/STM32N6xx_HAL_Driver/Src/stm32n6xx_hal_bsec.c **** 
 789:STM32Cube_FW_N6/Drivers/STM32N6xx_HAL_Driver/Src/stm32n6xx_hal_bsec.c ****   /* Check the address of returned value and instance */
 790:STM32Cube_FW_N6/Drivers/STM32N6xx_HAL_Driver/Src/stm32n6xx_hal_bsec.c ****   if ((pRegData == NULL) || (hbsec->Instance != BSEC))
 1022              		.loc 1 790 3 is_stmt 1 view .LVU323
 1023              		.loc 1 790 6 is_stmt 0 view .LVU324
 1024 0004 1AB1     		cbz	r2, .L146
 1025              		.loc 1 790 26 discriminator 1 view .LVU325
 1026 0006 0368     		ldr	r3, [r0]
 1027 0008 0D4C     		ldr	r4, .L157
 1028 000a A342     		cmp	r3, r4
 1029 000c 03D0     		beq	.L147
 1030              	.L146:
 791:STM32Cube_FW_N6/Drivers/STM32N6xx_HAL_Driver/Src/stm32n6xx_hal_bsec.c ****   {
 792:STM32Cube_FW_N6/Drivers/STM32N6xx_HAL_Driver/Src/stm32n6xx_hal_bsec.c ****     hbsec->ErrorCode = HAL_BSEC_ERROR_INVALID_PARAM;
 1031              		.loc 1 792 5 is_stmt 1 view .LVU326
 1032              		.loc 1 792 22 is_stmt 0 view .LVU327
 1033 000e 0123     		movs	r3, #1
 1034              	.L156:
 1035 0010 4360     		str	r3, [r0, #4]
 793:STM32Cube_FW_N6/Drivers/STM32N6xx_HAL_Driver/Src/stm32n6xx_hal_bsec.c ****     return HAL_ERROR;
 1036              		.loc 1 793 5 is_stmt 1 view .LVU328
 1037              	.L145:
 786:STM32Cube_FW_N6/Drivers/STM32N6xx_HAL_Driver/Src/stm32n6xx_hal_bsec.c ****   }
 1038              		.loc 1 786 12 is_stmt 0 view .LVU329
 1039 0012 0120     		movs	r0, #1
 1040              	.LVL83:
 1041              	.L148:
 794:STM32Cube_FW_N6/Drivers/STM32N6xx_HAL_Driver/Src/stm32n6xx_hal_bsec.c ****   }
 795:STM32Cube_FW_N6/Drivers/STM32N6xx_HAL_Driver/Src/stm32n6xx_hal_bsec.c **** 
 796:STM32Cube_FW_N6/Drivers/STM32N6xx_HAL_Driver/Src/stm32n6xx_hal_bsec.c ****   if (RegId < BSEC_NB_SHADOW_REG)
 797:STM32Cube_FW_N6/Drivers/STM32N6xx_HAL_Driver/Src/stm32n6xx_hal_bsec.c ****   {
 798:STM32Cube_FW_N6/Drivers/STM32N6xx_HAL_Driver/Src/stm32n6xx_hal_bsec.c ****     status_reg = RegId / 32U;
 799:STM32Cube_FW_N6/Drivers/STM32N6xx_HAL_Driver/Src/stm32n6xx_hal_bsec.c ****     status_bit = (uint32_t)(1UL << (RegId % 32U));
ARM GAS  C:\Users\DJESSOU\AppData\Local\Temp\ccqAzEsX.s 			page 37


 800:STM32Cube_FW_N6/Drivers/STM32N6xx_HAL_Driver/Src/stm32n6xx_hal_bsec.c **** 
 801:STM32Cube_FW_N6/Drivers/STM32N6xx_HAL_Driver/Src/stm32n6xx_hal_bsec.c ****     if ((hbsec->Instance->SFSRx[status_reg] & status_bit) != 0U)
 802:STM32Cube_FW_N6/Drivers/STM32N6xx_HAL_Driver/Src/stm32n6xx_hal_bsec.c ****     {
 803:STM32Cube_FW_N6/Drivers/STM32N6xx_HAL_Driver/Src/stm32n6xx_hal_bsec.c ****       /* Read data from shadow register */
 804:STM32Cube_FW_N6/Drivers/STM32N6xx_HAL_Driver/Src/stm32n6xx_hal_bsec.c ****       *pRegData = hbsec->Instance->FVRw[RegId];
 805:STM32Cube_FW_N6/Drivers/STM32N6xx_HAL_Driver/Src/stm32n6xx_hal_bsec.c ****     }
 806:STM32Cube_FW_N6/Drivers/STM32N6xx_HAL_Driver/Src/stm32n6xx_hal_bsec.c ****     else
 807:STM32Cube_FW_N6/Drivers/STM32N6xx_HAL_Driver/Src/stm32n6xx_hal_bsec.c ****     {
 808:STM32Cube_FW_N6/Drivers/STM32N6xx_HAL_Driver/Src/stm32n6xx_hal_bsec.c ****       /* Fuse is not shadowed */
 809:STM32Cube_FW_N6/Drivers/STM32N6xx_HAL_Driver/Src/stm32n6xx_hal_bsec.c ****       hbsec->ErrorCode = HAL_BSEC_ERROR_UNALLOWED;
 810:STM32Cube_FW_N6/Drivers/STM32N6xx_HAL_Driver/Src/stm32n6xx_hal_bsec.c ****       return HAL_ERROR;
 811:STM32Cube_FW_N6/Drivers/STM32N6xx_HAL_Driver/Src/stm32n6xx_hal_bsec.c ****     }
 812:STM32Cube_FW_N6/Drivers/STM32N6xx_HAL_Driver/Src/stm32n6xx_hal_bsec.c ****   }
 813:STM32Cube_FW_N6/Drivers/STM32N6xx_HAL_Driver/Src/stm32n6xx_hal_bsec.c ****   else
 814:STM32Cube_FW_N6/Drivers/STM32N6xx_HAL_Driver/Src/stm32n6xx_hal_bsec.c ****   {
 815:STM32Cube_FW_N6/Drivers/STM32N6xx_HAL_Driver/Src/stm32n6xx_hal_bsec.c ****     hbsec->ErrorCode = HAL_BSEC_ERROR_INVALID_PARAM;
 816:STM32Cube_FW_N6/Drivers/STM32N6xx_HAL_Driver/Src/stm32n6xx_hal_bsec.c ****     return HAL_ERROR;
 817:STM32Cube_FW_N6/Drivers/STM32N6xx_HAL_Driver/Src/stm32n6xx_hal_bsec.c ****   }
 818:STM32Cube_FW_N6/Drivers/STM32N6xx_HAL_Driver/Src/stm32n6xx_hal_bsec.c **** 
 819:STM32Cube_FW_N6/Drivers/STM32N6xx_HAL_Driver/Src/stm32n6xx_hal_bsec.c ****   return HAL_OK;
 820:STM32Cube_FW_N6/Drivers/STM32N6xx_HAL_Driver/Src/stm32n6xx_hal_bsec.c **** }
 1042              		.loc 1 820 1 view .LVU330
 1043 0014 70BD     		pop	{r4, r5, r6, pc}
 1044              	.LVL84:
 1045              	.L147:
 796:STM32Cube_FW_N6/Drivers/STM32N6xx_HAL_Driver/Src/stm32n6xx_hal_bsec.c ****   {
 1046              		.loc 1 796 3 is_stmt 1 view .LVU331
 796:STM32Cube_FW_N6/Drivers/STM32N6xx_HAL_Driver/Src/stm32n6xx_hal_bsec.c ****   {
 1047              		.loc 1 796 6 is_stmt 0 view .LVU332
 1048 0016 B1F5BC7F 		cmp	r1, #376
 1049 001a F8D2     		bcs	.L146
 798:STM32Cube_FW_N6/Drivers/STM32N6xx_HAL_Driver/Src/stm32n6xx_hal_bsec.c ****     status_bit = (uint32_t)(1UL << (RegId % 32U));
 1050              		.loc 1 798 5 is_stmt 1 view .LVU333
 798:STM32Cube_FW_N6/Drivers/STM32N6xx_HAL_Driver/Src/stm32n6xx_hal_bsec.c ****     status_bit = (uint32_t)(1UL << (RegId % 32U));
 1051              		.loc 1 798 16 is_stmt 0 view .LVU334
 1052 001c 4C09     		lsrs	r4, r1, #5
 1053              	.LVL85:
 799:STM32Cube_FW_N6/Drivers/STM32N6xx_HAL_Driver/Src/stm32n6xx_hal_bsec.c **** 
 1054              		.loc 1 799 5 is_stmt 1 view .LVU335
 801:STM32Cube_FW_N6/Drivers/STM32N6xx_HAL_Driver/Src/stm32n6xx_hal_bsec.c ****     {
 1055              		.loc 1 801 5 view .LVU336
 801:STM32Cube_FW_N6/Drivers/STM32N6xx_HAL_Driver/Src/stm32n6xx_hal_bsec.c ****     {
 1056              		.loc 1 801 32 is_stmt 0 view .LVU337
 1057 001e 04F51474 		add	r4, r4, #592
 1058              	.LVL86:
 801:STM32Cube_FW_N6/Drivers/STM32N6xx_HAL_Driver/Src/stm32n6xx_hal_bsec.c ****     {
 1059              		.loc 1 801 32 view .LVU338
 1060 0022 53F82450 		ldr	r5, [r3, r4, lsl #2]
 799:STM32Cube_FW_N6/Drivers/STM32N6xx_HAL_Driver/Src/stm32n6xx_hal_bsec.c **** 
 1061              		.loc 1 799 16 view .LVU339
 1062 0026 0124     		movs	r4, #1
 1063              	.LVL87:
 799:STM32Cube_FW_N6/Drivers/STM32N6xx_HAL_Driver/Src/stm32n6xx_hal_bsec.c **** 
 1064              		.loc 1 799 43 view .LVU340
 1065 0028 01F01F06 		and	r6, r1, #31
 799:STM32Cube_FW_N6/Drivers/STM32N6xx_HAL_Driver/Src/stm32n6xx_hal_bsec.c **** 
 1066              		.loc 1 799 16 view .LVU341
ARM GAS  C:\Users\DJESSOU\AppData\Local\Temp\ccqAzEsX.s 			page 38


 1067 002c B440     		lsls	r4, r4, r6
 1068              	.LVL88:
 801:STM32Cube_FW_N6/Drivers/STM32N6xx_HAL_Driver/Src/stm32n6xx_hal_bsec.c ****     {
 1069              		.loc 1 801 8 view .LVU342
 1070 002e 2C42     		tst	r4, r5
 1071 0030 04D0     		beq	.L149
 804:STM32Cube_FW_N6/Drivers/STM32N6xx_HAL_Driver/Src/stm32n6xx_hal_bsec.c ****     }
 1072              		.loc 1 804 7 is_stmt 1 view .LVU343
 804:STM32Cube_FW_N6/Drivers/STM32N6xx_HAL_Driver/Src/stm32n6xx_hal_bsec.c ****     }
 1073              		.loc 1 804 40 is_stmt 0 view .LVU344
 1074 0032 53F82130 		ldr	r3, [r3, r1, lsl #2]
 819:STM32Cube_FW_N6/Drivers/STM32N6xx_HAL_Driver/Src/stm32n6xx_hal_bsec.c **** }
 1075              		.loc 1 819 10 view .LVU345
 1076 0036 0020     		movs	r0, #0
 1077              	.LVL89:
 804:STM32Cube_FW_N6/Drivers/STM32N6xx_HAL_Driver/Src/stm32n6xx_hal_bsec.c ****     }
 1078              		.loc 1 804 17 view .LVU346
 1079 0038 1360     		str	r3, [r2]
 819:STM32Cube_FW_N6/Drivers/STM32N6xx_HAL_Driver/Src/stm32n6xx_hal_bsec.c **** }
 1080              		.loc 1 819 3 is_stmt 1 view .LVU347
 819:STM32Cube_FW_N6/Drivers/STM32N6xx_HAL_Driver/Src/stm32n6xx_hal_bsec.c **** }
 1081              		.loc 1 819 10 is_stmt 0 view .LVU348
 1082 003a EBE7     		b	.L148
 1083              	.LVL90:
 1084              	.L149:
 809:STM32Cube_FW_N6/Drivers/STM32N6xx_HAL_Driver/Src/stm32n6xx_hal_bsec.c ****       return HAL_ERROR;
 1085              		.loc 1 809 7 is_stmt 1 view .LVU349
 809:STM32Cube_FW_N6/Drivers/STM32N6xx_HAL_Driver/Src/stm32n6xx_hal_bsec.c ****       return HAL_ERROR;
 1086              		.loc 1 809 24 is_stmt 0 view .LVU350
 1087 003c 0823     		movs	r3, #8
 1088 003e E7E7     		b	.L156
 1089              	.L158:
 1090              		.align	2
 1091              	.L157:
 1092 0040 00900056 		.word	1442877440
 1093              		.cfi_endproc
 1094              	.LFE871:
 1096              		.section	.text.HAL_BSEC_OTP_WriteShadow,"ax",%progbits
 1097              		.align	1
 1098              		.global	HAL_BSEC_OTP_WriteShadow
 1099              		.syntax unified
 1100              		.thumb
 1101              		.thumb_func
 1103              	HAL_BSEC_OTP_WriteShadow:
 1104              	.LVL91:
 1105              	.LFB872:
 821:STM32Cube_FW_N6/Drivers/STM32N6xx_HAL_Driver/Src/stm32n6xx_hal_bsec.c **** 
 822:STM32Cube_FW_N6/Drivers/STM32N6xx_HAL_Driver/Src/stm32n6xx_hal_bsec.c **** /**
 823:STM32Cube_FW_N6/Drivers/STM32N6xx_HAL_Driver/Src/stm32n6xx_hal_bsec.c ****   * @brief  Write in a shadow fuse register.
 824:STM32Cube_FW_N6/Drivers/STM32N6xx_HAL_Driver/Src/stm32n6xx_hal_bsec.c ****   *
 825:STM32Cube_FW_N6/Drivers/STM32N6xx_HAL_Driver/Src/stm32n6xx_hal_bsec.c ****   * @param  hbsec    BSEC handle
 826:STM32Cube_FW_N6/Drivers/STM32N6xx_HAL_Driver/Src/stm32n6xx_hal_bsec.c ****   * @param  RegId     Shadow register to be written, this parameter value is between 0 and BSEC_NB_
 827:STM32Cube_FW_N6/Drivers/STM32N6xx_HAL_Driver/Src/stm32n6xx_hal_bsec.c ****   * @param  RegData   Data to be written in shadow register, this parameter value is between 0 and 
 828:STM32Cube_FW_N6/Drivers/STM32N6xx_HAL_Driver/Src/stm32n6xx_hal_bsec.c ****   *
 829:STM32Cube_FW_N6/Drivers/STM32N6xx_HAL_Driver/Src/stm32n6xx_hal_bsec.c ****   * @retval HAL_StatusTypeDef HAL Status
 830:STM32Cube_FW_N6/Drivers/STM32N6xx_HAL_Driver/Src/stm32n6xx_hal_bsec.c ****   */
 831:STM32Cube_FW_N6/Drivers/STM32N6xx_HAL_Driver/Src/stm32n6xx_hal_bsec.c **** HAL_StatusTypeDef HAL_BSEC_OTP_WriteShadow(BSEC_HandleTypeDef *hbsec, uint32_t RegId, uint32_t RegD
ARM GAS  C:\Users\DJESSOU\AppData\Local\Temp\ccqAzEsX.s 			page 39


 832:STM32Cube_FW_N6/Drivers/STM32N6xx_HAL_Driver/Src/stm32n6xx_hal_bsec.c **** {
 1106              		.loc 1 832 1 is_stmt 1 view -0
 1107              		.cfi_startproc
 1108              		@ args = 0, pretend = 0, frame = 0
 1109              		@ frame_needed = 0, uses_anonymous_args = 0
 833:STM32Cube_FW_N6/Drivers/STM32N6xx_HAL_Driver/Src/stm32n6xx_hal_bsec.c ****   uint32_t status_reg;
 1110              		.loc 1 833 3 view .LVU352
 834:STM32Cube_FW_N6/Drivers/STM32N6xx_HAL_Driver/Src/stm32n6xx_hal_bsec.c ****   uint32_t status_bit;
 1111              		.loc 1 834 3 view .LVU353
 835:STM32Cube_FW_N6/Drivers/STM32N6xx_HAL_Driver/Src/stm32n6xx_hal_bsec.c **** 
 836:STM32Cube_FW_N6/Drivers/STM32N6xx_HAL_Driver/Src/stm32n6xx_hal_bsec.c ****   /* Check the handle pointer */
 837:STM32Cube_FW_N6/Drivers/STM32N6xx_HAL_Driver/Src/stm32n6xx_hal_bsec.c ****   if (hbsec == NULL)
 1112              		.loc 1 837 3 view .LVU354
 832:STM32Cube_FW_N6/Drivers/STM32N6xx_HAL_Driver/Src/stm32n6xx_hal_bsec.c ****   uint32_t status_reg;
 1113              		.loc 1 832 1 is_stmt 0 view .LVU355
 1114 0000 70B5     		push	{r4, r5, r6, lr}
 1115              		.cfi_def_cfa_offset 16
 1116              		.cfi_offset 4, -16
 1117              		.cfi_offset 5, -12
 1118              		.cfi_offset 6, -8
 1119              		.cfi_offset 14, -4
 1120              		.loc 1 837 6 view .LVU356
 1121 0002 0446     		mov	r4, r0
 1122 0004 28B1     		cbz	r0, .L160
 838:STM32Cube_FW_N6/Drivers/STM32N6xx_HAL_Driver/Src/stm32n6xx_hal_bsec.c ****   {
 839:STM32Cube_FW_N6/Drivers/STM32N6xx_HAL_Driver/Src/stm32n6xx_hal_bsec.c ****     return HAL_ERROR;
 840:STM32Cube_FW_N6/Drivers/STM32N6xx_HAL_Driver/Src/stm32n6xx_hal_bsec.c ****   }
 841:STM32Cube_FW_N6/Drivers/STM32N6xx_HAL_Driver/Src/stm32n6xx_hal_bsec.c **** 
 842:STM32Cube_FW_N6/Drivers/STM32N6xx_HAL_Driver/Src/stm32n6xx_hal_bsec.c ****   /* Check the instance */
 843:STM32Cube_FW_N6/Drivers/STM32N6xx_HAL_Driver/Src/stm32n6xx_hal_bsec.c ****  if (hbsec->Instance != BSEC)
 1123              		.loc 1 843 2 is_stmt 1 view .LVU357
 1124              		.loc 1 843 5 is_stmt 0 view .LVU358
 1125 0006 0568     		ldr	r5, [r0]
 1126 0008 124B     		ldr	r3, .L170
 1127 000a 9D42     		cmp	r5, r3
 1128 000c 03D0     		beq	.L161
 1129              	.L163:
 844:STM32Cube_FW_N6/Drivers/STM32N6xx_HAL_Driver/Src/stm32n6xx_hal_bsec.c ****   {
 845:STM32Cube_FW_N6/Drivers/STM32N6xx_HAL_Driver/Src/stm32n6xx_hal_bsec.c ****     hbsec->ErrorCode = HAL_BSEC_ERROR_INVALID_PARAM;
 1130              		.loc 1 845 5 is_stmt 1 view .LVU359
 1131              		.loc 1 845 22 is_stmt 0 view .LVU360
 1132 000e 0123     		movs	r3, #1
 1133              	.LVL92:
 1134              	.L169:
 1135              		.loc 1 845 22 view .LVU361
 1136 0010 6360     		str	r3, [r4, #4]
 846:STM32Cube_FW_N6/Drivers/STM32N6xx_HAL_Driver/Src/stm32n6xx_hal_bsec.c ****     return HAL_ERROR;
 1137              		.loc 1 846 5 is_stmt 1 view .LVU362
 1138              	.L160:
 839:STM32Cube_FW_N6/Drivers/STM32N6xx_HAL_Driver/Src/stm32n6xx_hal_bsec.c ****   }
 1139              		.loc 1 839 12 is_stmt 0 view .LVU363
 1140 0012 0120     		movs	r0, #1
 1141              	.L162:
 847:STM32Cube_FW_N6/Drivers/STM32N6xx_HAL_Driver/Src/stm32n6xx_hal_bsec.c ****   }
 848:STM32Cube_FW_N6/Drivers/STM32N6xx_HAL_Driver/Src/stm32n6xx_hal_bsec.c **** 
 849:STM32Cube_FW_N6/Drivers/STM32N6xx_HAL_Driver/Src/stm32n6xx_hal_bsec.c ****   /* Get the correct register value */
 850:STM32Cube_FW_N6/Drivers/STM32N6xx_HAL_Driver/Src/stm32n6xx_hal_bsec.c ****   if ((RegId > BSEC_SHADOW_REG_WRITE_LIMIT) && (RegId < BSEC_NB_SHADOW_REG))
ARM GAS  C:\Users\DJESSOU\AppData\Local\Temp\ccqAzEsX.s 			page 40


 851:STM32Cube_FW_N6/Drivers/STM32N6xx_HAL_Driver/Src/stm32n6xx_hal_bsec.c ****   {
 852:STM32Cube_FW_N6/Drivers/STM32N6xx_HAL_Driver/Src/stm32n6xx_hal_bsec.c ****     status_reg = RegId / 32U;
 853:STM32Cube_FW_N6/Drivers/STM32N6xx_HAL_Driver/Src/stm32n6xx_hal_bsec.c ****     status_bit = (uint32_t)(1UL << (RegId % 32U));
 854:STM32Cube_FW_N6/Drivers/STM32N6xx_HAL_Driver/Src/stm32n6xx_hal_bsec.c **** 
 855:STM32Cube_FW_N6/Drivers/STM32N6xx_HAL_Driver/Src/stm32n6xx_hal_bsec.c ****     if ((hbsec->Instance->SFSRx[status_reg] & status_bit) != 0U)
 856:STM32Cube_FW_N6/Drivers/STM32N6xx_HAL_Driver/Src/stm32n6xx_hal_bsec.c ****     {
 857:STM32Cube_FW_N6/Drivers/STM32N6xx_HAL_Driver/Src/stm32n6xx_hal_bsec.c ****       if ((hbsec->Instance->SWLOCKx[status_reg] & status_bit) == 0U)
 858:STM32Cube_FW_N6/Drivers/STM32N6xx_HAL_Driver/Src/stm32n6xx_hal_bsec.c ****       {
 859:STM32Cube_FW_N6/Drivers/STM32N6xx_HAL_Driver/Src/stm32n6xx_hal_bsec.c ****         /* Value is written in register */
 860:STM32Cube_FW_N6/Drivers/STM32N6xx_HAL_Driver/Src/stm32n6xx_hal_bsec.c ****         hbsec->Instance->FVRw[RegId] = RegData;
 861:STM32Cube_FW_N6/Drivers/STM32N6xx_HAL_Driver/Src/stm32n6xx_hal_bsec.c ****       }
 862:STM32Cube_FW_N6/Drivers/STM32N6xx_HAL_Driver/Src/stm32n6xx_hal_bsec.c ****       else
 863:STM32Cube_FW_N6/Drivers/STM32N6xx_HAL_Driver/Src/stm32n6xx_hal_bsec.c ****       {
 864:STM32Cube_FW_N6/Drivers/STM32N6xx_HAL_Driver/Src/stm32n6xx_hal_bsec.c ****         /* Shadow register is sticky write locked */
 865:STM32Cube_FW_N6/Drivers/STM32N6xx_HAL_Driver/Src/stm32n6xx_hal_bsec.c ****         hbsec->ErrorCode = HAL_BSEC_ERROR_LOCK;
 866:STM32Cube_FW_N6/Drivers/STM32N6xx_HAL_Driver/Src/stm32n6xx_hal_bsec.c ****         return HAL_ERROR;
 867:STM32Cube_FW_N6/Drivers/STM32N6xx_HAL_Driver/Src/stm32n6xx_hal_bsec.c ****       }
 868:STM32Cube_FW_N6/Drivers/STM32N6xx_HAL_Driver/Src/stm32n6xx_hal_bsec.c ****     }
 869:STM32Cube_FW_N6/Drivers/STM32N6xx_HAL_Driver/Src/stm32n6xx_hal_bsec.c ****     else
 870:STM32Cube_FW_N6/Drivers/STM32N6xx_HAL_Driver/Src/stm32n6xx_hal_bsec.c ****     {
 871:STM32Cube_FW_N6/Drivers/STM32N6xx_HAL_Driver/Src/stm32n6xx_hal_bsec.c ****       /* Fuse is not shadowed */
 872:STM32Cube_FW_N6/Drivers/STM32N6xx_HAL_Driver/Src/stm32n6xx_hal_bsec.c ****       hbsec->ErrorCode = HAL_BSEC_ERROR_UNALLOWED;
 873:STM32Cube_FW_N6/Drivers/STM32N6xx_HAL_Driver/Src/stm32n6xx_hal_bsec.c ****       return HAL_ERROR;
 874:STM32Cube_FW_N6/Drivers/STM32N6xx_HAL_Driver/Src/stm32n6xx_hal_bsec.c ****     }
 875:STM32Cube_FW_N6/Drivers/STM32N6xx_HAL_Driver/Src/stm32n6xx_hal_bsec.c ****   }
 876:STM32Cube_FW_N6/Drivers/STM32N6xx_HAL_Driver/Src/stm32n6xx_hal_bsec.c ****   else
 877:STM32Cube_FW_N6/Drivers/STM32N6xx_HAL_Driver/Src/stm32n6xx_hal_bsec.c ****   {
 878:STM32Cube_FW_N6/Drivers/STM32N6xx_HAL_Driver/Src/stm32n6xx_hal_bsec.c ****     hbsec->ErrorCode = HAL_BSEC_ERROR_INVALID_PARAM;
 879:STM32Cube_FW_N6/Drivers/STM32N6xx_HAL_Driver/Src/stm32n6xx_hal_bsec.c ****     return HAL_ERROR;
 880:STM32Cube_FW_N6/Drivers/STM32N6xx_HAL_Driver/Src/stm32n6xx_hal_bsec.c ****   }
 881:STM32Cube_FW_N6/Drivers/STM32N6xx_HAL_Driver/Src/stm32n6xx_hal_bsec.c **** 
 882:STM32Cube_FW_N6/Drivers/STM32N6xx_HAL_Driver/Src/stm32n6xx_hal_bsec.c ****   return HAL_OK;
 883:STM32Cube_FW_N6/Drivers/STM32N6xx_HAL_Driver/Src/stm32n6xx_hal_bsec.c **** }
 1142              		.loc 1 883 1 view .LVU364
 1143 0014 70BD     		pop	{r4, r5, r6, pc}
 1144              	.LVL93:
 1145              	.L161:
 850:STM32Cube_FW_N6/Drivers/STM32N6xx_HAL_Driver/Src/stm32n6xx_hal_bsec.c ****   {
 1146              		.loc 1 850 3 is_stmt 1 view .LVU365
 850:STM32Cube_FW_N6/Drivers/STM32N6xx_HAL_Driver/Src/stm32n6xx_hal_bsec.c ****   {
 1147              		.loc 1 850 45 is_stmt 0 view .LVU366
 1148 0016 A1F10A03 		sub	r3, r1, #10
 850:STM32Cube_FW_N6/Drivers/STM32N6xx_HAL_Driver/Src/stm32n6xx_hal_bsec.c ****   {
 1149              		.loc 1 850 6 view .LVU367
 1150 001a B3F5B77F 		cmp	r3, #366
 1151 001e F6D2     		bcs	.L163
 852:STM32Cube_FW_N6/Drivers/STM32N6xx_HAL_Driver/Src/stm32n6xx_hal_bsec.c ****     status_bit = (uint32_t)(1UL << (RegId % 32U));
 1152              		.loc 1 852 5 is_stmt 1 view .LVU368
 1153              	.LVL94:
 853:STM32Cube_FW_N6/Drivers/STM32N6xx_HAL_Driver/Src/stm32n6xx_hal_bsec.c **** 
 1154              		.loc 1 853 5 view .LVU369
 853:STM32Cube_FW_N6/Drivers/STM32N6xx_HAL_Driver/Src/stm32n6xx_hal_bsec.c **** 
 1155              		.loc 1 853 16 is_stmt 0 view .LVU370
 1156 0020 0120     		movs	r0, #1
 1157              	.LVL95:
 853:STM32Cube_FW_N6/Drivers/STM32N6xx_HAL_Driver/Src/stm32n6xx_hal_bsec.c **** 
 1158              		.loc 1 853 43 view .LVU371
ARM GAS  C:\Users\DJESSOU\AppData\Local\Temp\ccqAzEsX.s 			page 41


 1159 0022 01F01F03 		and	r3, r1, #31
 853:STM32Cube_FW_N6/Drivers/STM32N6xx_HAL_Driver/Src/stm32n6xx_hal_bsec.c **** 
 1160              		.loc 1 853 16 view .LVU372
 1161 0026 9840     		lsls	r0, r0, r3
 1162              	.LVL96:
 855:STM32Cube_FW_N6/Drivers/STM32N6xx_HAL_Driver/Src/stm32n6xx_hal_bsec.c ****     {
 1163              		.loc 1 855 5 is_stmt 1 view .LVU373
 852:STM32Cube_FW_N6/Drivers/STM32N6xx_HAL_Driver/Src/stm32n6xx_hal_bsec.c ****     status_bit = (uint32_t)(1UL << (RegId % 32U));
 1164              		.loc 1 852 16 is_stmt 0 view .LVU374
 1165 0028 4B09     		lsrs	r3, r1, #5
 1166              	.LVL97:
 852:STM32Cube_FW_N6/Drivers/STM32N6xx_HAL_Driver/Src/stm32n6xx_hal_bsec.c ****     status_bit = (uint32_t)(1UL << (RegId % 32U));
 1167              		.loc 1 852 16 view .LVU375
 1168 002a 9B00     		lsls	r3, r3, #2
 1169              	.LVL98:
 852:STM32Cube_FW_N6/Drivers/STM32N6xx_HAL_Driver/Src/stm32n6xx_hal_bsec.c ****     status_bit = (uint32_t)(1UL << (RegId % 32U));
 1170              		.loc 1 852 16 view .LVU376
 1171 002c 03F1AC43 		add	r3, r3, #1442840576
 1172 0030 03F51043 		add	r3, r3, #36864
 855:STM32Cube_FW_N6/Drivers/STM32N6xx_HAL_Driver/Src/stm32n6xx_hal_bsec.c ****     {
 1173              		.loc 1 855 32 view .LVU377
 1174 0034 D3F84069 		ldr	r6, [r3, #2368]
 855:STM32Cube_FW_N6/Drivers/STM32N6xx_HAL_Driver/Src/stm32n6xx_hal_bsec.c ****     {
 1175              		.loc 1 855 8 view .LVU378
 1176 0038 0642     		tst	r6, r0
 1177 003a 08D0     		beq	.L164
 857:STM32Cube_FW_N6/Drivers/STM32N6xx_HAL_Driver/Src/stm32n6xx_hal_bsec.c ****       {
 1178              		.loc 1 857 7 is_stmt 1 view .LVU379
 857:STM32Cube_FW_N6/Drivers/STM32N6xx_HAL_Driver/Src/stm32n6xx_hal_bsec.c ****       {
 1179              		.loc 1 857 36 is_stmt 0 view .LVU380
 1180 003c D3F84038 		ldr	r3, [r3, #2112]
 857:STM32Cube_FW_N6/Drivers/STM32N6xx_HAL_Driver/Src/stm32n6xx_hal_bsec.c ****       {
 1181              		.loc 1 857 10 view .LVU381
 1182 0040 1840     		ands	r0, r3, r0
 1183              	.LVL99:
 857:STM32Cube_FW_N6/Drivers/STM32N6xx_HAL_Driver/Src/stm32n6xx_hal_bsec.c ****       {
 1184              		.loc 1 857 10 view .LVU382
 1185 0042 02D1     		bne	.L165
 860:STM32Cube_FW_N6/Drivers/STM32N6xx_HAL_Driver/Src/stm32n6xx_hal_bsec.c ****       }
 1186              		.loc 1 860 9 is_stmt 1 view .LVU383
 860:STM32Cube_FW_N6/Drivers/STM32N6xx_HAL_Driver/Src/stm32n6xx_hal_bsec.c ****       }
 1187              		.loc 1 860 38 is_stmt 0 view .LVU384
 1188 0044 45F82120 		str	r2, [r5, r1, lsl #2]
 882:STM32Cube_FW_N6/Drivers/STM32N6xx_HAL_Driver/Src/stm32n6xx_hal_bsec.c **** }
 1189              		.loc 1 882 3 is_stmt 1 view .LVU385
 882:STM32Cube_FW_N6/Drivers/STM32N6xx_HAL_Driver/Src/stm32n6xx_hal_bsec.c **** }
 1190              		.loc 1 882 10 is_stmt 0 view .LVU386
 1191 0048 E4E7     		b	.L162
 1192              	.L165:
 865:STM32Cube_FW_N6/Drivers/STM32N6xx_HAL_Driver/Src/stm32n6xx_hal_bsec.c ****         return HAL_ERROR;
 1193              		.loc 1 865 9 is_stmt 1 view .LVU387
 865:STM32Cube_FW_N6/Drivers/STM32N6xx_HAL_Driver/Src/stm32n6xx_hal_bsec.c ****         return HAL_ERROR;
 1194              		.loc 1 865 26 is_stmt 0 view .LVU388
 1195 004a 0423     		movs	r3, #4
 1196 004c E0E7     		b	.L169
 1197              	.LVL100:
 1198              	.L164:
ARM GAS  C:\Users\DJESSOU\AppData\Local\Temp\ccqAzEsX.s 			page 42


 872:STM32Cube_FW_N6/Drivers/STM32N6xx_HAL_Driver/Src/stm32n6xx_hal_bsec.c ****       return HAL_ERROR;
 1199              		.loc 1 872 7 is_stmt 1 view .LVU389
 872:STM32Cube_FW_N6/Drivers/STM32N6xx_HAL_Driver/Src/stm32n6xx_hal_bsec.c ****       return HAL_ERROR;
 1200              		.loc 1 872 24 is_stmt 0 view .LVU390
 1201 004e 0823     		movs	r3, #8
 1202 0050 DEE7     		b	.L169
 1203              	.L171:
 1204 0052 00BF     		.align	2
 1205              	.L170:
 1206 0054 00900056 		.word	1442877440
 1207              		.cfi_endproc
 1208              	.LFE872:
 1210              		.section	.text.HAL_BSEC_OTP_GetShadowState,"ax",%progbits
 1211              		.align	1
 1212              		.global	HAL_BSEC_OTP_GetShadowState
 1213              		.syntax unified
 1214              		.thumb
 1215              		.thumb_func
 1217              	HAL_BSEC_OTP_GetShadowState:
 1218              	.LVL101:
 1219              	.LFB873:
 884:STM32Cube_FW_N6/Drivers/STM32N6xx_HAL_Driver/Src/stm32n6xx_hal_bsec.c **** 
 885:STM32Cube_FW_N6/Drivers/STM32N6xx_HAL_Driver/Src/stm32n6xx_hal_bsec.c **** /**
 886:STM32Cube_FW_N6/Drivers/STM32N6xx_HAL_Driver/Src/stm32n6xx_hal_bsec.c ****   * @brief  Get the validity status of a shadow register.
 887:STM32Cube_FW_N6/Drivers/STM32N6xx_HAL_Driver/Src/stm32n6xx_hal_bsec.c ****   *
 888:STM32Cube_FW_N6/Drivers/STM32N6xx_HAL_Driver/Src/stm32n6xx_hal_bsec.c ****   * @param  hbsec     BSEC handle
 889:STM32Cube_FW_N6/Drivers/STM32N6xx_HAL_Driver/Src/stm32n6xx_hal_bsec.c ****   * @param  RegId      Shadow register to be checked, this parameter value is between 0 and BSEC_NB
 890:STM32Cube_FW_N6/Drivers/STM32N6xx_HAL_Driver/Src/stm32n6xx_hal_bsec.c ****   * @param  pValidity  Returned value of validity status. The returned value is @ref BSEC_Reload_Va
 891:STM32Cube_FW_N6/Drivers/STM32N6xx_HAL_Driver/Src/stm32n6xx_hal_bsec.c ****   *
 892:STM32Cube_FW_N6/Drivers/STM32N6xx_HAL_Driver/Src/stm32n6xx_hal_bsec.c ****   * @retval HAL_StatusTypeDef HAL Status
 893:STM32Cube_FW_N6/Drivers/STM32N6xx_HAL_Driver/Src/stm32n6xx_hal_bsec.c ****   */
 894:STM32Cube_FW_N6/Drivers/STM32N6xx_HAL_Driver/Src/stm32n6xx_hal_bsec.c **** HAL_StatusTypeDef HAL_BSEC_OTP_GetShadowState(BSEC_HandleTypeDef * hbsec, uint32_t RegId, uint32_t 
 895:STM32Cube_FW_N6/Drivers/STM32N6xx_HAL_Driver/Src/stm32n6xx_hal_bsec.c **** {
 1220              		.loc 1 895 1 is_stmt 1 view -0
 1221              		.cfi_startproc
 1222              		@ args = 0, pretend = 0, frame = 0
 1223              		@ frame_needed = 0, uses_anonymous_args = 0
 896:STM32Cube_FW_N6/Drivers/STM32N6xx_HAL_Driver/Src/stm32n6xx_hal_bsec.c ****   uint32_t status_reg;
 1224              		.loc 1 896 3 view .LVU392
 897:STM32Cube_FW_N6/Drivers/STM32N6xx_HAL_Driver/Src/stm32n6xx_hal_bsec.c ****   uint32_t status_bit;
 1225              		.loc 1 897 3 view .LVU393
 898:STM32Cube_FW_N6/Drivers/STM32N6xx_HAL_Driver/Src/stm32n6xx_hal_bsec.c **** 
 899:STM32Cube_FW_N6/Drivers/STM32N6xx_HAL_Driver/Src/stm32n6xx_hal_bsec.c ****   /* Check the handle pointer */
 900:STM32Cube_FW_N6/Drivers/STM32N6xx_HAL_Driver/Src/stm32n6xx_hal_bsec.c ****   if (hbsec == NULL)
 1226              		.loc 1 900 3 view .LVU394
 895:STM32Cube_FW_N6/Drivers/STM32N6xx_HAL_Driver/Src/stm32n6xx_hal_bsec.c ****   uint32_t status_reg;
 1227              		.loc 1 895 1 is_stmt 0 view .LVU395
 1228 0000 30B5     		push	{r4, r5, lr}
 1229              		.cfi_def_cfa_offset 12
 1230              		.cfi_offset 4, -12
 1231              		.cfi_offset 5, -8
 1232              		.cfi_offset 14, -4
 1233              		.loc 1 900 6 view .LVU396
 1234 0002 30B1     		cbz	r0, .L173
 901:STM32Cube_FW_N6/Drivers/STM32N6xx_HAL_Driver/Src/stm32n6xx_hal_bsec.c ****   {
 902:STM32Cube_FW_N6/Drivers/STM32N6xx_HAL_Driver/Src/stm32n6xx_hal_bsec.c ****     return HAL_ERROR;
 903:STM32Cube_FW_N6/Drivers/STM32N6xx_HAL_Driver/Src/stm32n6xx_hal_bsec.c ****   }
ARM GAS  C:\Users\DJESSOU\AppData\Local\Temp\ccqAzEsX.s 			page 43


 904:STM32Cube_FW_N6/Drivers/STM32N6xx_HAL_Driver/Src/stm32n6xx_hal_bsec.c **** 
 905:STM32Cube_FW_N6/Drivers/STM32N6xx_HAL_Driver/Src/stm32n6xx_hal_bsec.c ****   /* Check the address of returned value and instance */
 906:STM32Cube_FW_N6/Drivers/STM32N6xx_HAL_Driver/Src/stm32n6xx_hal_bsec.c ****  if ((pValidity == NULL) || (hbsec->Instance != BSEC))
 1235              		.loc 1 906 2 is_stmt 1 view .LVU397
 1236              		.loc 1 906 5 is_stmt 0 view .LVU398
 1237 0004 1AB1     		cbz	r2, .L174
 1238              		.loc 1 906 26 discriminator 1 view .LVU399
 1239 0006 0468     		ldr	r4, [r0]
 1240 0008 114B     		ldr	r3, .L187
 1241 000a 9C42     		cmp	r4, r3
 1242 000c 03D0     		beq	.L175
 1243              	.L174:
 907:STM32Cube_FW_N6/Drivers/STM32N6xx_HAL_Driver/Src/stm32n6xx_hal_bsec.c ****   {
 908:STM32Cube_FW_N6/Drivers/STM32N6xx_HAL_Driver/Src/stm32n6xx_hal_bsec.c ****     hbsec->ErrorCode = HAL_BSEC_ERROR_INVALID_PARAM;
 1244              		.loc 1 908 5 is_stmt 1 view .LVU400
 1245              		.loc 1 908 22 is_stmt 0 view .LVU401
 1246 000e 0123     		movs	r3, #1
 1247              	.LVL102:
 1248              	.L186:
 1249              		.loc 1 908 22 view .LVU402
 1250 0010 4360     		str	r3, [r0, #4]
 909:STM32Cube_FW_N6/Drivers/STM32N6xx_HAL_Driver/Src/stm32n6xx_hal_bsec.c ****     return HAL_ERROR;
 1251              		.loc 1 909 5 is_stmt 1 view .LVU403
 1252              	.L173:
 902:STM32Cube_FW_N6/Drivers/STM32N6xx_HAL_Driver/Src/stm32n6xx_hal_bsec.c ****   }
 1253              		.loc 1 902 12 is_stmt 0 view .LVU404
 1254 0012 0120     		movs	r0, #1
 1255              	.LVL103:
 1256              	.L176:
 910:STM32Cube_FW_N6/Drivers/STM32N6xx_HAL_Driver/Src/stm32n6xx_hal_bsec.c ****   }
 911:STM32Cube_FW_N6/Drivers/STM32N6xx_HAL_Driver/Src/stm32n6xx_hal_bsec.c **** 
 912:STM32Cube_FW_N6/Drivers/STM32N6xx_HAL_Driver/Src/stm32n6xx_hal_bsec.c ****   if (RegId < BSEC_NB_SHADOW_REG)
 913:STM32Cube_FW_N6/Drivers/STM32N6xx_HAL_Driver/Src/stm32n6xx_hal_bsec.c ****   {
 914:STM32Cube_FW_N6/Drivers/STM32N6xx_HAL_Driver/Src/stm32n6xx_hal_bsec.c ****     status_reg = RegId / 32U;
 915:STM32Cube_FW_N6/Drivers/STM32N6xx_HAL_Driver/Src/stm32n6xx_hal_bsec.c ****     status_bit = (uint32_t)(1UL << (RegId % 32U));
 916:STM32Cube_FW_N6/Drivers/STM32N6xx_HAL_Driver/Src/stm32n6xx_hal_bsec.c **** 
 917:STM32Cube_FW_N6/Drivers/STM32N6xx_HAL_Driver/Src/stm32n6xx_hal_bsec.c ****     if ((hbsec->Instance->SFSRx[status_reg] & status_bit) != 0U)
 918:STM32Cube_FW_N6/Drivers/STM32N6xx_HAL_Driver/Src/stm32n6xx_hal_bsec.c ****     {
 919:STM32Cube_FW_N6/Drivers/STM32N6xx_HAL_Driver/Src/stm32n6xx_hal_bsec.c ****       if ((hbsec->Instance->OTPVLDRx[status_reg] & status_bit) != 0U)
 920:STM32Cube_FW_N6/Drivers/STM32N6xx_HAL_Driver/Src/stm32n6xx_hal_bsec.c ****       {
 921:STM32Cube_FW_N6/Drivers/STM32N6xx_HAL_Driver/Src/stm32n6xx_hal_bsec.c ****         *pValidity = HAL_BSEC_RELOAD_DONE;
 922:STM32Cube_FW_N6/Drivers/STM32N6xx_HAL_Driver/Src/stm32n6xx_hal_bsec.c ****       }
 923:STM32Cube_FW_N6/Drivers/STM32N6xx_HAL_Driver/Src/stm32n6xx_hal_bsec.c ****       else
 924:STM32Cube_FW_N6/Drivers/STM32N6xx_HAL_Driver/Src/stm32n6xx_hal_bsec.c ****       {
 925:STM32Cube_FW_N6/Drivers/STM32N6xx_HAL_Driver/Src/stm32n6xx_hal_bsec.c ****         *pValidity = HAL_BSEC_RELOAD_ERROR;
 926:STM32Cube_FW_N6/Drivers/STM32N6xx_HAL_Driver/Src/stm32n6xx_hal_bsec.c ****       }
 927:STM32Cube_FW_N6/Drivers/STM32N6xx_HAL_Driver/Src/stm32n6xx_hal_bsec.c ****     }
 928:STM32Cube_FW_N6/Drivers/STM32N6xx_HAL_Driver/Src/stm32n6xx_hal_bsec.c ****     else
 929:STM32Cube_FW_N6/Drivers/STM32N6xx_HAL_Driver/Src/stm32n6xx_hal_bsec.c ****     {
 930:STM32Cube_FW_N6/Drivers/STM32N6xx_HAL_Driver/Src/stm32n6xx_hal_bsec.c ****       /* Fuse is not shadowed */
 931:STM32Cube_FW_N6/Drivers/STM32N6xx_HAL_Driver/Src/stm32n6xx_hal_bsec.c ****       hbsec->ErrorCode = HAL_BSEC_ERROR_UNALLOWED;
 932:STM32Cube_FW_N6/Drivers/STM32N6xx_HAL_Driver/Src/stm32n6xx_hal_bsec.c ****       return HAL_ERROR;
 933:STM32Cube_FW_N6/Drivers/STM32N6xx_HAL_Driver/Src/stm32n6xx_hal_bsec.c ****     }
 934:STM32Cube_FW_N6/Drivers/STM32N6xx_HAL_Driver/Src/stm32n6xx_hal_bsec.c ****   }
 935:STM32Cube_FW_N6/Drivers/STM32N6xx_HAL_Driver/Src/stm32n6xx_hal_bsec.c ****   else
 936:STM32Cube_FW_N6/Drivers/STM32N6xx_HAL_Driver/Src/stm32n6xx_hal_bsec.c ****   {
 937:STM32Cube_FW_N6/Drivers/STM32N6xx_HAL_Driver/Src/stm32n6xx_hal_bsec.c ****     hbsec->ErrorCode = HAL_BSEC_ERROR_INVALID_PARAM;
ARM GAS  C:\Users\DJESSOU\AppData\Local\Temp\ccqAzEsX.s 			page 44


 938:STM32Cube_FW_N6/Drivers/STM32N6xx_HAL_Driver/Src/stm32n6xx_hal_bsec.c ****     return HAL_ERROR;
 939:STM32Cube_FW_N6/Drivers/STM32N6xx_HAL_Driver/Src/stm32n6xx_hal_bsec.c ****   }
 940:STM32Cube_FW_N6/Drivers/STM32N6xx_HAL_Driver/Src/stm32n6xx_hal_bsec.c **** 
 941:STM32Cube_FW_N6/Drivers/STM32N6xx_HAL_Driver/Src/stm32n6xx_hal_bsec.c ****   return HAL_OK;
 942:STM32Cube_FW_N6/Drivers/STM32N6xx_HAL_Driver/Src/stm32n6xx_hal_bsec.c **** }
 1257              		.loc 1 942 1 view .LVU405
 1258 0014 30BD     		pop	{r4, r5, pc}
 1259              	.LVL104:
 1260              	.L175:
 912:STM32Cube_FW_N6/Drivers/STM32N6xx_HAL_Driver/Src/stm32n6xx_hal_bsec.c ****   {
 1261              		.loc 1 912 3 is_stmt 1 view .LVU406
 912:STM32Cube_FW_N6/Drivers/STM32N6xx_HAL_Driver/Src/stm32n6xx_hal_bsec.c ****   {
 1262              		.loc 1 912 6 is_stmt 0 view .LVU407
 1263 0016 B1F5BC7F 		cmp	r1, #376
 1264 001a F8D2     		bcs	.L174
 914:STM32Cube_FW_N6/Drivers/STM32N6xx_HAL_Driver/Src/stm32n6xx_hal_bsec.c ****     status_bit = (uint32_t)(1UL << (RegId % 32U));
 1265              		.loc 1 914 5 is_stmt 1 view .LVU408
 1266              	.LVL105:
 915:STM32Cube_FW_N6/Drivers/STM32N6xx_HAL_Driver/Src/stm32n6xx_hal_bsec.c **** 
 1267              		.loc 1 915 5 view .LVU409
 915:STM32Cube_FW_N6/Drivers/STM32N6xx_HAL_Driver/Src/stm32n6xx_hal_bsec.c **** 
 1268              		.loc 1 915 16 is_stmt 0 view .LVU410
 1269 001c 0125     		movs	r5, #1
 914:STM32Cube_FW_N6/Drivers/STM32N6xx_HAL_Driver/Src/stm32n6xx_hal_bsec.c ****     status_bit = (uint32_t)(1UL << (RegId % 32U));
 1270              		.loc 1 914 16 view .LVU411
 1271 001e 4B09     		lsrs	r3, r1, #5
 1272              	.LVL106:
 914:STM32Cube_FW_N6/Drivers/STM32N6xx_HAL_Driver/Src/stm32n6xx_hal_bsec.c ****     status_bit = (uint32_t)(1UL << (RegId % 32U));
 1273              		.loc 1 914 16 view .LVU412
 1274 0020 9B00     		lsls	r3, r3, #2
 1275              	.LVL107:
 914:STM32Cube_FW_N6/Drivers/STM32N6xx_HAL_Driver/Src/stm32n6xx_hal_bsec.c ****     status_bit = (uint32_t)(1UL << (RegId % 32U));
 1276              		.loc 1 914 16 view .LVU413
 1277 0022 03F1AC43 		add	r3, r3, #1442840576
 1278 0026 03F51043 		add	r3, r3, #36864
 915:STM32Cube_FW_N6/Drivers/STM32N6xx_HAL_Driver/Src/stm32n6xx_hal_bsec.c **** 
 1279              		.loc 1 915 43 view .LVU414
 1280 002a 01F01F04 		and	r4, r1, #31
 917:STM32Cube_FW_N6/Drivers/STM32N6xx_HAL_Driver/Src/stm32n6xx_hal_bsec.c ****     {
 1281              		.loc 1 917 32 view .LVU415
 1282 002e D3F84019 		ldr	r1, [r3, #2368]
 1283              	.LVL108:
 915:STM32Cube_FW_N6/Drivers/STM32N6xx_HAL_Driver/Src/stm32n6xx_hal_bsec.c **** 
 1284              		.loc 1 915 16 view .LVU416
 1285 0032 05FA04F4 		lsl	r4, r5, r4
 1286              	.LVL109:
 917:STM32Cube_FW_N6/Drivers/STM32N6xx_HAL_Driver/Src/stm32n6xx_hal_bsec.c ****     {
 1287              		.loc 1 917 5 is_stmt 1 view .LVU417
 917:STM32Cube_FW_N6/Drivers/STM32N6xx_HAL_Driver/Src/stm32n6xx_hal_bsec.c ****     {
 1288              		.loc 1 917 8 is_stmt 0 view .LVU418
 1289 0036 2142     		tst	r1, r4
 1290 0038 07D0     		beq	.L177
 919:STM32Cube_FW_N6/Drivers/STM32N6xx_HAL_Driver/Src/stm32n6xx_hal_bsec.c ****       {
 1291              		.loc 1 919 7 is_stmt 1 view .LVU419
 919:STM32Cube_FW_N6/Drivers/STM32N6xx_HAL_Driver/Src/stm32n6xx_hal_bsec.c ****       {
 1292              		.loc 1 919 37 is_stmt 0 view .LVU420
 1293 003a D3F8C038 		ldr	r3, [r3, #2240]
ARM GAS  C:\Users\DJESSOU\AppData\Local\Temp\ccqAzEsX.s 			page 45


 941:STM32Cube_FW_N6/Drivers/STM32N6xx_HAL_Driver/Src/stm32n6xx_hal_bsec.c **** }
 1294              		.loc 1 941 10 view .LVU421
 1295 003e 0020     		movs	r0, #0
 1296              	.LVL110:
 921:STM32Cube_FW_N6/Drivers/STM32N6xx_HAL_Driver/Src/stm32n6xx_hal_bsec.c ****       }
 1297              		.loc 1 921 20 view .LVU422
 1298 0040 2340     		ands	r3, r3, r4
 1299 0042 18BF     		it	ne
 1300 0044 2B46     		movne	r3, r5
 1301 0046 1360     		str	r3, [r2]
 1302 0048 E4E7     		b	.L176
 1303              	.LVL111:
 1304              	.L177:
 931:STM32Cube_FW_N6/Drivers/STM32N6xx_HAL_Driver/Src/stm32n6xx_hal_bsec.c ****       return HAL_ERROR;
 1305              		.loc 1 931 7 is_stmt 1 view .LVU423
 931:STM32Cube_FW_N6/Drivers/STM32N6xx_HAL_Driver/Src/stm32n6xx_hal_bsec.c ****       return HAL_ERROR;
 1306              		.loc 1 931 24 is_stmt 0 view .LVU424
 1307 004a 0823     		movs	r3, #8
 1308 004c E0E7     		b	.L186
 1309              	.L188:
 1310 004e 00BF     		.align	2
 1311              	.L187:
 1312 0050 00900056 		.word	1442877440
 1313              		.cfi_endproc
 1314              	.LFE873:
 1316              		.section	.text.HAL_BSEC_GetDeviceLifeCycleState,"ax",%progbits
 1317              		.align	1
 1318              		.global	HAL_BSEC_GetDeviceLifeCycleState
 1319              		.syntax unified
 1320              		.thumb
 1321              		.thumb_func
 1323              	HAL_BSEC_GetDeviceLifeCycleState:
 1324              	.LVL112:
 1325              	.LFB874:
 943:STM32Cube_FW_N6/Drivers/STM32N6xx_HAL_Driver/Src/stm32n6xx_hal_bsec.c **** 
 944:STM32Cube_FW_N6/Drivers/STM32N6xx_HAL_Driver/Src/stm32n6xx_hal_bsec.c **** /**
 945:STM32Cube_FW_N6/Drivers/STM32N6xx_HAL_Driver/Src/stm32n6xx_hal_bsec.c ****   * @}
 946:STM32Cube_FW_N6/Drivers/STM32N6xx_HAL_Driver/Src/stm32n6xx_hal_bsec.c ****   */
 947:STM32Cube_FW_N6/Drivers/STM32N6xx_HAL_Driver/Src/stm32n6xx_hal_bsec.c **** 
 948:STM32Cube_FW_N6/Drivers/STM32N6xx_HAL_Driver/Src/stm32n6xx_hal_bsec.c **** /** @defgroup BSEC_Exported_Functions_Group4 Device lifecycle management functions
 949:STM32Cube_FW_N6/Drivers/STM32N6xx_HAL_Driver/Src/stm32n6xx_hal_bsec.c ****  *  @brief   Device lifecycle management functions
 950:STM32Cube_FW_N6/Drivers/STM32N6xx_HAL_Driver/Src/stm32n6xx_hal_bsec.c ****  *
 951:STM32Cube_FW_N6/Drivers/STM32N6xx_HAL_Driver/Src/stm32n6xx_hal_bsec.c **** @verbatim
 952:STM32Cube_FW_N6/Drivers/STM32N6xx_HAL_Driver/Src/stm32n6xx_hal_bsec.c ****  ===============================================================================
 953:STM32Cube_FW_N6/Drivers/STM32N6xx_HAL_Driver/Src/stm32n6xx_hal_bsec.c ****                ##### Device lifecycle management functions #####
 954:STM32Cube_FW_N6/Drivers/STM32N6xx_HAL_Driver/Src/stm32n6xx_hal_bsec.c ****  ===============================================================================
 955:STM32Cube_FW_N6/Drivers/STM32N6xx_HAL_Driver/Src/stm32n6xx_hal_bsec.c ****     [..]
 956:STM32Cube_FW_N6/Drivers/STM32N6xx_HAL_Driver/Src/stm32n6xx_hal_bsec.c ****   This subsection provides a set of functions allowing to manage the
 957:STM32Cube_FW_N6/Drivers/STM32N6xx_HAL_Driver/Src/stm32n6xx_hal_bsec.c ****   device lifecycle.
 958:STM32Cube_FW_N6/Drivers/STM32N6xx_HAL_Driver/Src/stm32n6xx_hal_bsec.c **** 
 959:STM32Cube_FW_N6/Drivers/STM32N6xx_HAL_Driver/Src/stm32n6xx_hal_bsec.c **** @endverbatim
 960:STM32Cube_FW_N6/Drivers/STM32N6xx_HAL_Driver/Src/stm32n6xx_hal_bsec.c ****   * @{
 961:STM32Cube_FW_N6/Drivers/STM32N6xx_HAL_Driver/Src/stm32n6xx_hal_bsec.c ****   */
 962:STM32Cube_FW_N6/Drivers/STM32N6xx_HAL_Driver/Src/stm32n6xx_hal_bsec.c **** 
 963:STM32Cube_FW_N6/Drivers/STM32N6xx_HAL_Driver/Src/stm32n6xx_hal_bsec.c **** /**
 964:STM32Cube_FW_N6/Drivers/STM32N6xx_HAL_Driver/Src/stm32n6xx_hal_bsec.c ****   * @brief  Get the BSEC device lifecycle state.
 965:STM32Cube_FW_N6/Drivers/STM32N6xx_HAL_Driver/Src/stm32n6xx_hal_bsec.c ****   *
ARM GAS  C:\Users\DJESSOU\AppData\Local\Temp\ccqAzEsX.s 			page 46


 966:STM32Cube_FW_N6/Drivers/STM32N6xx_HAL_Driver/Src/stm32n6xx_hal_bsec.c ****   * @param  hbsec  BSEC handle
 967:STM32Cube_FW_N6/Drivers/STM32N6xx_HAL_Driver/Src/stm32n6xx_hal_bsec.c ****   * @param  pState  Returned value of device lifecycle state. The returned value is @ref BSEC_Lifec
 968:STM32Cube_FW_N6/Drivers/STM32N6xx_HAL_Driver/Src/stm32n6xx_hal_bsec.c ****   *
 969:STM32Cube_FW_N6/Drivers/STM32N6xx_HAL_Driver/Src/stm32n6xx_hal_bsec.c ****   * @retval HAL_StatusTypeDef HAL Status
 970:STM32Cube_FW_N6/Drivers/STM32N6xx_HAL_Driver/Src/stm32n6xx_hal_bsec.c ****   */
 971:STM32Cube_FW_N6/Drivers/STM32N6xx_HAL_Driver/Src/stm32n6xx_hal_bsec.c **** HAL_StatusTypeDef HAL_BSEC_GetDeviceLifeCycleState(BSEC_HandleTypeDef * hbsec, uint32_t *pState)
 972:STM32Cube_FW_N6/Drivers/STM32N6xx_HAL_Driver/Src/stm32n6xx_hal_bsec.c **** {
 1326              		.loc 1 972 1 is_stmt 1 view -0
 1327              		.cfi_startproc
 1328              		@ args = 0, pretend = 0, frame = 0
 1329              		@ frame_needed = 0, uses_anonymous_args = 0
 1330              		@ link register save eliminated.
 973:STM32Cube_FW_N6/Drivers/STM32N6xx_HAL_Driver/Src/stm32n6xx_hal_bsec.c **** 
 974:STM32Cube_FW_N6/Drivers/STM32N6xx_HAL_Driver/Src/stm32n6xx_hal_bsec.c ****   uint32_t state;
 1331              		.loc 1 974 3 view .LVU426
 975:STM32Cube_FW_N6/Drivers/STM32N6xx_HAL_Driver/Src/stm32n6xx_hal_bsec.c ****   /* Check the handle pointer */
 976:STM32Cube_FW_N6/Drivers/STM32N6xx_HAL_Driver/Src/stm32n6xx_hal_bsec.c ****   if (hbsec == NULL)
 1332              		.loc 1 976 3 view .LVU427
 1333              		.loc 1 976 6 is_stmt 0 view .LVU428
 1334 0000 30B1     		cbz	r0, .L190
 977:STM32Cube_FW_N6/Drivers/STM32N6xx_HAL_Driver/Src/stm32n6xx_hal_bsec.c ****   {
 978:STM32Cube_FW_N6/Drivers/STM32N6xx_HAL_Driver/Src/stm32n6xx_hal_bsec.c ****     return HAL_ERROR;
 979:STM32Cube_FW_N6/Drivers/STM32N6xx_HAL_Driver/Src/stm32n6xx_hal_bsec.c ****   }
 980:STM32Cube_FW_N6/Drivers/STM32N6xx_HAL_Driver/Src/stm32n6xx_hal_bsec.c **** 
 981:STM32Cube_FW_N6/Drivers/STM32N6xx_HAL_Driver/Src/stm32n6xx_hal_bsec.c ****   /* Check the address of returned value and instance */
 982:STM32Cube_FW_N6/Drivers/STM32N6xx_HAL_Driver/Src/stm32n6xx_hal_bsec.c ****  if ((pState == NULL) || (hbsec->Instance != BSEC))
 1335              		.loc 1 982 2 is_stmt 1 view .LVU429
 1336              		.loc 1 982 5 is_stmt 0 view .LVU430
 1337 0002 19B1     		cbz	r1, .L191
 1338              		.loc 1 982 23 discriminator 1 view .LVU431
 1339 0004 0368     		ldr	r3, [r0]
 1340 0006 0E4A     		ldr	r2, .L212
 1341 0008 9342     		cmp	r3, r2
 1342 000a 03D0     		beq	.L192
 1343              	.L191:
 983:STM32Cube_FW_N6/Drivers/STM32N6xx_HAL_Driver/Src/stm32n6xx_hal_bsec.c ****   {
 984:STM32Cube_FW_N6/Drivers/STM32N6xx_HAL_Driver/Src/stm32n6xx_hal_bsec.c ****     hbsec->ErrorCode = HAL_BSEC_ERROR_INVALID_PARAM;
 1344              		.loc 1 984 5 is_stmt 1 view .LVU432
 1345              		.loc 1 984 22 is_stmt 0 view .LVU433
 1346 000c 0123     		movs	r3, #1
 1347              	.L211:
 1348 000e 4360     		str	r3, [r0, #4]
 985:STM32Cube_FW_N6/Drivers/STM32N6xx_HAL_Driver/Src/stm32n6xx_hal_bsec.c ****     return HAL_ERROR;
 1349              		.loc 1 985 5 is_stmt 1 view .LVU434
 1350              	.L190:
 978:STM32Cube_FW_N6/Drivers/STM32N6xx_HAL_Driver/Src/stm32n6xx_hal_bsec.c ****   }
 1351              		.loc 1 978 12 is_stmt 0 view .LVU435
 1352 0010 0120     		movs	r0, #1
 1353              	.LVL113:
 978:STM32Cube_FW_N6/Drivers/STM32N6xx_HAL_Driver/Src/stm32n6xx_hal_bsec.c ****   }
 1354              		.loc 1 978 12 view .LVU436
 1355 0012 7047     		bx	lr
 1356              	.LVL114:
 1357              	.L192:
 986:STM32Cube_FW_N6/Drivers/STM32N6xx_HAL_Driver/Src/stm32n6xx_hal_bsec.c ****   }
 987:STM32Cube_FW_N6/Drivers/STM32N6xx_HAL_Driver/Src/stm32n6xx_hal_bsec.c **** 
 988:STM32Cube_FW_N6/Drivers/STM32N6xx_HAL_Driver/Src/stm32n6xx_hal_bsec.c ****   /* Return the state */
ARM GAS  C:\Users\DJESSOU\AppData\Local\Temp\ccqAzEsX.s 			page 47


 989:STM32Cube_FW_N6/Drivers/STM32N6xx_HAL_Driver/Src/stm32n6xx_hal_bsec.c ****   state = (hbsec->Instance->SR & BSEC_SR_NVSTATE);
 1358              		.loc 1 989 3 is_stmt 1 view .LVU437
 1359              		.loc 1 989 27 is_stmt 0 view .LVU438
 1360 0014 D3F8403E 		ldr	r3, [r3, #3648]
 1361              		.loc 1 989 9 view .LVU439
 1362 0018 03F07C43 		and	r3, r3, #-67108864
 1363              	.LVL115:
 990:STM32Cube_FW_N6/Drivers/STM32N6xx_HAL_Driver/Src/stm32n6xx_hal_bsec.c **** 
 991:STM32Cube_FW_N6/Drivers/STM32N6xx_HAL_Driver/Src/stm32n6xx_hal_bsec.c ****   if (IS_BSEC_STATE(state))
 1364              		.loc 1 991 3 is_stmt 1 view .LVU440
 1365              		.loc 1 991 6 is_stmt 0 view .LVU441
 1366 001c B3F1B04F 		cmp	r3, #1476395008
 1367 0020 08D0     		beq	.L194
 1368              		.loc 1 991 7 discriminator 1 view .LVU442
 1369 0022 B3F1505F 		cmp	r3, #872415232
 1370 0026 05D0     		beq	.L194
 1371              		.loc 1 991 7 discriminator 2 view .LVU443
 1372 0028 B3F1E05F 		cmp	r3, #469762048
 1373 002c 02D0     		beq	.L194
 1374              		.loc 1 991 7 discriminator 3 view .LVU444
 1375 002e B3F10C4F 		cmp	r3, #-1946157056
 1376 0032 02D1     		bne	.L195
 1377              	.L194:
 992:STM32Cube_FW_N6/Drivers/STM32N6xx_HAL_Driver/Src/stm32n6xx_hal_bsec.c ****   {
 993:STM32Cube_FW_N6/Drivers/STM32N6xx_HAL_Driver/Src/stm32n6xx_hal_bsec.c ****     *pState = state;
 1378              		.loc 1 993 5 is_stmt 1 view .LVU445
 994:STM32Cube_FW_N6/Drivers/STM32N6xx_HAL_Driver/Src/stm32n6xx_hal_bsec.c ****     return HAL_OK;
 1379              		.loc 1 994 12 is_stmt 0 view .LVU446
 1380 0034 0020     		movs	r0, #0
 1381              	.LVL116:
 993:STM32Cube_FW_N6/Drivers/STM32N6xx_HAL_Driver/Src/stm32n6xx_hal_bsec.c ****     return HAL_OK;
 1382              		.loc 1 993 13 view .LVU447
 1383 0036 0B60     		str	r3, [r1]
 1384              		.loc 1 994 5 is_stmt 1 view .LVU448
 995:STM32Cube_FW_N6/Drivers/STM32N6xx_HAL_Driver/Src/stm32n6xx_hal_bsec.c ****   }
 996:STM32Cube_FW_N6/Drivers/STM32N6xx_HAL_Driver/Src/stm32n6xx_hal_bsec.c ****   else
 997:STM32Cube_FW_N6/Drivers/STM32N6xx_HAL_Driver/Src/stm32n6xx_hal_bsec.c ****   {
 998:STM32Cube_FW_N6/Drivers/STM32N6xx_HAL_Driver/Src/stm32n6xx_hal_bsec.c ****     hbsec->ErrorCode = HAL_BSEC_ERROR_UNDEFINED_VALUE;
 999:STM32Cube_FW_N6/Drivers/STM32N6xx_HAL_Driver/Src/stm32n6xx_hal_bsec.c ****     return HAL_ERROR;
1000:STM32Cube_FW_N6/Drivers/STM32N6xx_HAL_Driver/Src/stm32n6xx_hal_bsec.c ****   }
1001:STM32Cube_FW_N6/Drivers/STM32N6xx_HAL_Driver/Src/stm32n6xx_hal_bsec.c **** }
 1385              		.loc 1 1001 1 is_stmt 0 view .LVU449
 1386 0038 7047     		bx	lr
 1387              	.LVL117:
 1388              	.L195:
 998:STM32Cube_FW_N6/Drivers/STM32N6xx_HAL_Driver/Src/stm32n6xx_hal_bsec.c ****     return HAL_ERROR;
 1389              		.loc 1 998 5 is_stmt 1 view .LVU450
 998:STM32Cube_FW_N6/Drivers/STM32N6xx_HAL_Driver/Src/stm32n6xx_hal_bsec.c ****     return HAL_ERROR;
 1390              		.loc 1 998 22 is_stmt 0 view .LVU451
 1391 003a 0223     		movs	r3, #2
 1392              	.LVL118:
 998:STM32Cube_FW_N6/Drivers/STM32N6xx_HAL_Driver/Src/stm32n6xx_hal_bsec.c ****     return HAL_ERROR;
 1393              		.loc 1 998 22 view .LVU452
 1394 003c E7E7     		b	.L211
 1395              	.L213:
 1396 003e 00BF     		.align	2
 1397              	.L212:
ARM GAS  C:\Users\DJESSOU\AppData\Local\Temp\ccqAzEsX.s 			page 48


 1398 0040 00900056 		.word	1442877440
 1399              		.cfi_endproc
 1400              	.LFE874:
 1402              		.section	.text.HAL_BSEC_ReadEpochCounter,"ax",%progbits
 1403              		.align	1
 1404              		.global	HAL_BSEC_ReadEpochCounter
 1405              		.syntax unified
 1406              		.thumb
 1407              		.thumb_func
 1409              	HAL_BSEC_ReadEpochCounter:
 1410              	.LVL119:
 1411              	.LFB875:
1002:STM32Cube_FW_N6/Drivers/STM32N6xx_HAL_Driver/Src/stm32n6xx_hal_bsec.c **** 
1003:STM32Cube_FW_N6/Drivers/STM32N6xx_HAL_Driver/Src/stm32n6xx_hal_bsec.c **** /**
1004:STM32Cube_FW_N6/Drivers/STM32N6xx_HAL_Driver/Src/stm32n6xx_hal_bsec.c ****   * @brief  Read the value of epoch counter.
1005:STM32Cube_FW_N6/Drivers/STM32N6xx_HAL_Driver/Src/stm32n6xx_hal_bsec.c ****   *
1006:STM32Cube_FW_N6/Drivers/STM32N6xx_HAL_Driver/Src/stm32n6xx_hal_bsec.c ****   * @param  hbsec        BSEC handle
1007:STM32Cube_FW_N6/Drivers/STM32N6xx_HAL_Driver/Src/stm32n6xx_hal_bsec.c ****   * @param  CounterId     Identifier of the epoch counter to be read, this parameter can be @ref BS
1008:STM32Cube_FW_N6/Drivers/STM32N6xx_HAL_Driver/Src/stm32n6xx_hal_bsec.c ****   * @param  pCounterData  Returned value of epoch counter data. The returned value is between 0 and
1009:STM32Cube_FW_N6/Drivers/STM32N6xx_HAL_Driver/Src/stm32n6xx_hal_bsec.c ****   *
1010:STM32Cube_FW_N6/Drivers/STM32N6xx_HAL_Driver/Src/stm32n6xx_hal_bsec.c ****   * @retval HAL_StatusTypeDef HAL Status
1011:STM32Cube_FW_N6/Drivers/STM32N6xx_HAL_Driver/Src/stm32n6xx_hal_bsec.c ****   */
1012:STM32Cube_FW_N6/Drivers/STM32N6xx_HAL_Driver/Src/stm32n6xx_hal_bsec.c **** HAL_StatusTypeDef HAL_BSEC_ReadEpochCounter(BSEC_HandleTypeDef * hbsec, uint32_t CounterId, uint32_
1013:STM32Cube_FW_N6/Drivers/STM32N6xx_HAL_Driver/Src/stm32n6xx_hal_bsec.c **** {
 1412              		.loc 1 1013 1 is_stmt 1 view -0
 1413              		.cfi_startproc
 1414              		@ args = 0, pretend = 0, frame = 0
 1415              		@ frame_needed = 0, uses_anonymous_args = 0
1014:STM32Cube_FW_N6/Drivers/STM32N6xx_HAL_Driver/Src/stm32n6xx_hal_bsec.c ****   /* Check the handle pointer */
1015:STM32Cube_FW_N6/Drivers/STM32N6xx_HAL_Driver/Src/stm32n6xx_hal_bsec.c ****   if (hbsec == NULL)
 1416              		.loc 1 1015 3 view .LVU454
1013:STM32Cube_FW_N6/Drivers/STM32N6xx_HAL_Driver/Src/stm32n6xx_hal_bsec.c ****   /* Check the handle pointer */
 1417              		.loc 1 1013 1 is_stmt 0 view .LVU455
 1418 0000 10B5     		push	{r4, lr}
 1419              		.cfi_def_cfa_offset 8
 1420              		.cfi_offset 4, -8
 1421              		.cfi_offset 14, -4
 1422              		.loc 1 1015 6 view .LVU456
 1423 0002 30B1     		cbz	r0, .L215
1016:STM32Cube_FW_N6/Drivers/STM32N6xx_HAL_Driver/Src/stm32n6xx_hal_bsec.c ****   {
1017:STM32Cube_FW_N6/Drivers/STM32N6xx_HAL_Driver/Src/stm32n6xx_hal_bsec.c ****     return HAL_ERROR;
1018:STM32Cube_FW_N6/Drivers/STM32N6xx_HAL_Driver/Src/stm32n6xx_hal_bsec.c ****   }
1019:STM32Cube_FW_N6/Drivers/STM32N6xx_HAL_Driver/Src/stm32n6xx_hal_bsec.c **** 
1020:STM32Cube_FW_N6/Drivers/STM32N6xx_HAL_Driver/Src/stm32n6xx_hal_bsec.c ****   /* Check the address of returned value and instance */
1021:STM32Cube_FW_N6/Drivers/STM32N6xx_HAL_Driver/Src/stm32n6xx_hal_bsec.c ****  if ((pCounterData == NULL) || (hbsec->Instance != BSEC))
 1424              		.loc 1 1021 2 is_stmt 1 view .LVU457
 1425              		.loc 1 1021 5 is_stmt 0 view .LVU458
 1426 0004 1AB1     		cbz	r2, .L216
 1427              		.loc 1 1021 29 discriminator 1 view .LVU459
 1428 0006 0368     		ldr	r3, [r0]
 1429 0008 074C     		ldr	r4, .L225
 1430 000a A342     		cmp	r3, r4
 1431 000c 03D0     		beq	.L217
 1432              	.L216:
1022:STM32Cube_FW_N6/Drivers/STM32N6xx_HAL_Driver/Src/stm32n6xx_hal_bsec.c ****   {
1023:STM32Cube_FW_N6/Drivers/STM32N6xx_HAL_Driver/Src/stm32n6xx_hal_bsec.c ****     hbsec->ErrorCode = HAL_BSEC_ERROR_INVALID_PARAM;
 1433              		.loc 1 1023 5 is_stmt 1 view .LVU460
ARM GAS  C:\Users\DJESSOU\AppData\Local\Temp\ccqAzEsX.s 			page 49


 1434              		.loc 1 1023 22 is_stmt 0 view .LVU461
 1435 000e 0123     		movs	r3, #1
 1436 0010 4360     		str	r3, [r0, #4]
1024:STM32Cube_FW_N6/Drivers/STM32N6xx_HAL_Driver/Src/stm32n6xx_hal_bsec.c ****     return HAL_ERROR;
 1437              		.loc 1 1024 5 is_stmt 1 view .LVU462
 1438              	.L215:
1017:STM32Cube_FW_N6/Drivers/STM32N6xx_HAL_Driver/Src/stm32n6xx_hal_bsec.c ****   }
 1439              		.loc 1 1017 12 is_stmt 0 view .LVU463
 1440 0012 0120     		movs	r0, #1
 1441              	.LVL120:
 1442              	.L218:
1025:STM32Cube_FW_N6/Drivers/STM32N6xx_HAL_Driver/Src/stm32n6xx_hal_bsec.c ****   }
1026:STM32Cube_FW_N6/Drivers/STM32N6xx_HAL_Driver/Src/stm32n6xx_hal_bsec.c **** 
1027:STM32Cube_FW_N6/Drivers/STM32N6xx_HAL_Driver/Src/stm32n6xx_hal_bsec.c ****   /* Get the correct register value */
1028:STM32Cube_FW_N6/Drivers/STM32N6xx_HAL_Driver/Src/stm32n6xx_hal_bsec.c ****   if (CounterId < BSEC_NB_EPOCH_COUNTER)
1029:STM32Cube_FW_N6/Drivers/STM32N6xx_HAL_Driver/Src/stm32n6xx_hal_bsec.c ****   {
1030:STM32Cube_FW_N6/Drivers/STM32N6xx_HAL_Driver/Src/stm32n6xx_hal_bsec.c ****     *pCounterData = hbsec->Instance->EPOCHRx[CounterId];
1031:STM32Cube_FW_N6/Drivers/STM32N6xx_HAL_Driver/Src/stm32n6xx_hal_bsec.c ****   }
1032:STM32Cube_FW_N6/Drivers/STM32N6xx_HAL_Driver/Src/stm32n6xx_hal_bsec.c ****   else
1033:STM32Cube_FW_N6/Drivers/STM32N6xx_HAL_Driver/Src/stm32n6xx_hal_bsec.c ****   {
1034:STM32Cube_FW_N6/Drivers/STM32N6xx_HAL_Driver/Src/stm32n6xx_hal_bsec.c ****     hbsec->ErrorCode = HAL_BSEC_ERROR_INVALID_PARAM;
1035:STM32Cube_FW_N6/Drivers/STM32N6xx_HAL_Driver/Src/stm32n6xx_hal_bsec.c ****     return HAL_ERROR;
1036:STM32Cube_FW_N6/Drivers/STM32N6xx_HAL_Driver/Src/stm32n6xx_hal_bsec.c ****   }
1037:STM32Cube_FW_N6/Drivers/STM32N6xx_HAL_Driver/Src/stm32n6xx_hal_bsec.c **** 
1038:STM32Cube_FW_N6/Drivers/STM32N6xx_HAL_Driver/Src/stm32n6xx_hal_bsec.c ****   return HAL_OK;
1039:STM32Cube_FW_N6/Drivers/STM32N6xx_HAL_Driver/Src/stm32n6xx_hal_bsec.c **** }
 1443              		.loc 1 1039 1 view .LVU464
 1444 0014 10BD     		pop	{r4, pc}
 1445              	.LVL121:
 1446              	.L217:
1028:STM32Cube_FW_N6/Drivers/STM32N6xx_HAL_Driver/Src/stm32n6xx_hal_bsec.c ****   {
 1447              		.loc 1 1028 3 is_stmt 1 view .LVU465
1028:STM32Cube_FW_N6/Drivers/STM32N6xx_HAL_Driver/Src/stm32n6xx_hal_bsec.c ****   {
 1448              		.loc 1 1028 6 is_stmt 0 view .LVU466
 1449 0016 0129     		cmp	r1, #1
 1450 0018 F9D8     		bhi	.L216
1030:STM32Cube_FW_N6/Drivers/STM32N6xx_HAL_Driver/Src/stm32n6xx_hal_bsec.c ****   }
 1451              		.loc 1 1030 5 is_stmt 1 view .LVU467
1030:STM32Cube_FW_N6/Drivers/STM32N6xx_HAL_Driver/Src/stm32n6xx_hal_bsec.c ****   }
 1452              		.loc 1 1030 45 is_stmt 0 view .LVU468
 1453 001a 01F56871 		add	r1, r1, #928
 1454              	.LVL122:
1030:STM32Cube_FW_N6/Drivers/STM32N6xx_HAL_Driver/Src/stm32n6xx_hal_bsec.c ****   }
 1455              		.loc 1 1030 45 view .LVU469
 1456 001e 53F82130 		ldr	r3, [r3, r1, lsl #2]
1038:STM32Cube_FW_N6/Drivers/STM32N6xx_HAL_Driver/Src/stm32n6xx_hal_bsec.c **** }
 1457              		.loc 1 1038 10 view .LVU470
 1458 0022 0020     		movs	r0, #0
 1459              	.LVL123:
1030:STM32Cube_FW_N6/Drivers/STM32N6xx_HAL_Driver/Src/stm32n6xx_hal_bsec.c ****   }
 1460              		.loc 1 1030 19 view .LVU471
 1461 0024 1360     		str	r3, [r2]
1038:STM32Cube_FW_N6/Drivers/STM32N6xx_HAL_Driver/Src/stm32n6xx_hal_bsec.c **** }
 1462              		.loc 1 1038 3 is_stmt 1 view .LVU472
1038:STM32Cube_FW_N6/Drivers/STM32N6xx_HAL_Driver/Src/stm32n6xx_hal_bsec.c **** }
 1463              		.loc 1 1038 10 is_stmt 0 view .LVU473
 1464 0026 F5E7     		b	.L218
ARM GAS  C:\Users\DJESSOU\AppData\Local\Temp\ccqAzEsX.s 			page 50


 1465              	.L226:
 1466              		.align	2
 1467              	.L225:
 1468 0028 00900056 		.word	1442877440
 1469              		.cfi_endproc
 1470              	.LFE875:
 1472              		.section	.text.HAL_BSEC_SelectEpochCounter,"ax",%progbits
 1473              		.align	1
 1474              		.global	HAL_BSEC_SelectEpochCounter
 1475              		.syntax unified
 1476              		.thumb
 1477              		.thumb_func
 1479              	HAL_BSEC_SelectEpochCounter:
 1480              	.LVL124:
 1481              	.LFB876:
1040:STM32Cube_FW_N6/Drivers/STM32N6xx_HAL_Driver/Src/stm32n6xx_hal_bsec.c **** 
1041:STM32Cube_FW_N6/Drivers/STM32N6xx_HAL_Driver/Src/stm32n6xx_hal_bsec.c **** /**
1042:STM32Cube_FW_N6/Drivers/STM32N6xx_HAL_Driver/Src/stm32n6xx_hal_bsec.c ****   * @brief  Select the epoch counter used by SAES.
1043:STM32Cube_FW_N6/Drivers/STM32N6xx_HAL_Driver/Src/stm32n6xx_hal_bsec.c ****   *
1044:STM32Cube_FW_N6/Drivers/STM32N6xx_HAL_Driver/Src/stm32n6xx_hal_bsec.c ****   * @param  hbsec            BSEC handle
1045:STM32Cube_FW_N6/Drivers/STM32N6xx_HAL_Driver/Src/stm32n6xx_hal_bsec.c ****   * @param  SelectedCounter   Epoch selected counter, this parameter can be @ref BSEC_Epoch_Select
1046:STM32Cube_FW_N6/Drivers/STM32N6xx_HAL_Driver/Src/stm32n6xx_hal_bsec.c ****   *
1047:STM32Cube_FW_N6/Drivers/STM32N6xx_HAL_Driver/Src/stm32n6xx_hal_bsec.c ****   * @retval HAL_StatusTypeDef HAL Status
1048:STM32Cube_FW_N6/Drivers/STM32N6xx_HAL_Driver/Src/stm32n6xx_hal_bsec.c ****   */
1049:STM32Cube_FW_N6/Drivers/STM32N6xx_HAL_Driver/Src/stm32n6xx_hal_bsec.c **** HAL_StatusTypeDef HAL_BSEC_SelectEpochCounter(BSEC_HandleTypeDef *hbsec, uint32_t SelectedCounter)
1050:STM32Cube_FW_N6/Drivers/STM32N6xx_HAL_Driver/Src/stm32n6xx_hal_bsec.c **** {
 1482              		.loc 1 1050 1 is_stmt 1 view -0
 1483              		.cfi_startproc
 1484              		@ args = 0, pretend = 0, frame = 0
 1485              		@ frame_needed = 0, uses_anonymous_args = 0
1051:STM32Cube_FW_N6/Drivers/STM32N6xx_HAL_Driver/Src/stm32n6xx_hal_bsec.c ****   /* Check the handle pointer */
1052:STM32Cube_FW_N6/Drivers/STM32N6xx_HAL_Driver/Src/stm32n6xx_hal_bsec.c ****   if (hbsec == NULL)
 1486              		.loc 1 1052 3 view .LVU475
1050:STM32Cube_FW_N6/Drivers/STM32N6xx_HAL_Driver/Src/stm32n6xx_hal_bsec.c ****   /* Check the handle pointer */
 1487              		.loc 1 1050 1 is_stmt 0 view .LVU476
 1488 0000 38B5     		push	{r3, r4, r5, lr}
 1489              		.cfi_def_cfa_offset 16
 1490              		.cfi_offset 3, -16
 1491              		.cfi_offset 4, -12
 1492              		.cfi_offset 5, -8
 1493              		.cfi_offset 14, -4
1050:STM32Cube_FW_N6/Drivers/STM32N6xx_HAL_Driver/Src/stm32n6xx_hal_bsec.c ****   /* Check the handle pointer */
 1494              		.loc 1 1050 1 view .LVU477
 1495 0002 0D46     		mov	r5, r1
 1496              		.loc 1 1052 6 view .LVU478
 1497 0004 0446     		mov	r4, r0
 1498 0006 28B1     		cbz	r0, .L228
1053:STM32Cube_FW_N6/Drivers/STM32N6xx_HAL_Driver/Src/stm32n6xx_hal_bsec.c ****   {
1054:STM32Cube_FW_N6/Drivers/STM32N6xx_HAL_Driver/Src/stm32n6xx_hal_bsec.c ****     return HAL_ERROR;
1055:STM32Cube_FW_N6/Drivers/STM32N6xx_HAL_Driver/Src/stm32n6xx_hal_bsec.c ****   }
1056:STM32Cube_FW_N6/Drivers/STM32N6xx_HAL_Driver/Src/stm32n6xx_hal_bsec.c **** 
1057:STM32Cube_FW_N6/Drivers/STM32N6xx_HAL_Driver/Src/stm32n6xx_hal_bsec.c ****   /* Check the instance */
1058:STM32Cube_FW_N6/Drivers/STM32N6xx_HAL_Driver/Src/stm32n6xx_hal_bsec.c ****  if (hbsec->Instance != BSEC)
 1499              		.loc 1 1058 2 is_stmt 1 view .LVU479
 1500              		.loc 1 1058 5 is_stmt 0 view .LVU480
 1501 0008 0268     		ldr	r2, [r0]
 1502 000a 0C4B     		ldr	r3, .L235
ARM GAS  C:\Users\DJESSOU\AppData\Local\Temp\ccqAzEsX.s 			page 51


 1503 000c 9A42     		cmp	r2, r3
 1504 000e 03D0     		beq	.L229
1059:STM32Cube_FW_N6/Drivers/STM32N6xx_HAL_Driver/Src/stm32n6xx_hal_bsec.c ****   {
1060:STM32Cube_FW_N6/Drivers/STM32N6xx_HAL_Driver/Src/stm32n6xx_hal_bsec.c ****     hbsec->ErrorCode = HAL_BSEC_ERROR_INVALID_PARAM;
 1505              		.loc 1 1060 5 is_stmt 1 view .LVU481
 1506              		.loc 1 1060 22 is_stmt 0 view .LVU482
 1507 0010 0123     		movs	r3, #1
 1508 0012 4360     		str	r3, [r0, #4]
1061:STM32Cube_FW_N6/Drivers/STM32N6xx_HAL_Driver/Src/stm32n6xx_hal_bsec.c ****     return HAL_ERROR;
 1509              		.loc 1 1061 5 is_stmt 1 view .LVU483
 1510              	.L228:
1054:STM32Cube_FW_N6/Drivers/STM32N6xx_HAL_Driver/Src/stm32n6xx_hal_bsec.c ****   }
 1511              		.loc 1 1054 12 is_stmt 0 view .LVU484
 1512 0014 0120     		movs	r0, #1
 1513              	.LVL125:
 1514              	.L230:
1062:STM32Cube_FW_N6/Drivers/STM32N6xx_HAL_Driver/Src/stm32n6xx_hal_bsec.c ****   }
1063:STM32Cube_FW_N6/Drivers/STM32N6xx_HAL_Driver/Src/stm32n6xx_hal_bsec.c **** 
1064:STM32Cube_FW_N6/Drivers/STM32N6xx_HAL_Driver/Src/stm32n6xx_hal_bsec.c ****   /* Check the epoch counter selection */
1065:STM32Cube_FW_N6/Drivers/STM32N6xx_HAL_Driver/Src/stm32n6xx_hal_bsec.c ****   assert_param(IS_BSEC_EPOCHSEL(SelectedCounter));
1066:STM32Cube_FW_N6/Drivers/STM32N6xx_HAL_Driver/Src/stm32n6xx_hal_bsec.c **** 
1067:STM32Cube_FW_N6/Drivers/STM32N6xx_HAL_Driver/Src/stm32n6xx_hal_bsec.c ****   /* Update the selected epoch counter value */
1068:STM32Cube_FW_N6/Drivers/STM32N6xx_HAL_Driver/Src/stm32n6xx_hal_bsec.c ****   MODIFY_REG(hbsec->Instance->EPOCHSELR, BSEC_EPOCHSELR_EPSEL, SelectedCounter);
1069:STM32Cube_FW_N6/Drivers/STM32N6xx_HAL_Driver/Src/stm32n6xx_hal_bsec.c **** 
1070:STM32Cube_FW_N6/Drivers/STM32N6xx_HAL_Driver/Src/stm32n6xx_hal_bsec.c ****   return HAL_OK;
1071:STM32Cube_FW_N6/Drivers/STM32N6xx_HAL_Driver/Src/stm32n6xx_hal_bsec.c **** }
 1515              		.loc 1 1071 1 view .LVU485
 1516 0016 38BD     		pop	{r3, r4, r5, pc}
 1517              	.LVL126:
 1518              	.L229:
1065:STM32Cube_FW_N6/Drivers/STM32N6xx_HAL_Driver/Src/stm32n6xx_hal_bsec.c **** 
 1519              		.loc 1 1065 3 is_stmt 1 view .LVU486
 1520 0018 0129     		cmp	r1, #1
 1521 001a 04D9     		bls	.L231
1065:STM32Cube_FW_N6/Drivers/STM32N6xx_HAL_Driver/Src/stm32n6xx_hal_bsec.c **** 
 1522              		.loc 1 1065 3 is_stmt 0 discriminator 1 view .LVU487
 1523 001c 40F22941 		movw	r1, #1065
 1524              	.LVL127:
1065:STM32Cube_FW_N6/Drivers/STM32N6xx_HAL_Driver/Src/stm32n6xx_hal_bsec.c **** 
 1525              		.loc 1 1065 3 discriminator 1 view .LVU488
 1526 0020 0748     		ldr	r0, .L235+4
 1527              	.LVL128:
1065:STM32Cube_FW_N6/Drivers/STM32N6xx_HAL_Driver/Src/stm32n6xx_hal_bsec.c **** 
 1528              		.loc 1 1065 3 discriminator 1 view .LVU489
 1529 0022 FFF7FEFF 		bl	assert_failed
 1530              	.LVL129:
 1531              	.L231:
1068:STM32Cube_FW_N6/Drivers/STM32N6xx_HAL_Driver/Src/stm32n6xx_hal_bsec.c **** 
 1532              		.loc 1 1068 3 is_stmt 1 view .LVU490
 1533 0026 2268     		ldr	r2, [r4]
1070:STM32Cube_FW_N6/Drivers/STM32N6xx_HAL_Driver/Src/stm32n6xx_hal_bsec.c **** }
 1534              		.loc 1 1070 10 is_stmt 0 view .LVU491
 1535 0028 0020     		movs	r0, #0
1068:STM32Cube_FW_N6/Drivers/STM32N6xx_HAL_Driver/Src/stm32n6xx_hal_bsec.c **** 
 1536              		.loc 1 1068 3 view .LVU492
 1537 002a D2F8883E 		ldr	r3, [r2, #3720]
 1538 002e 23F00103 		bic	r3, r3, #1
ARM GAS  C:\Users\DJESSOU\AppData\Local\Temp\ccqAzEsX.s 			page 52


 1539 0032 2B43     		orrs	r3, r3, r5
 1540 0034 C2F8883E 		str	r3, [r2, #3720]
1070:STM32Cube_FW_N6/Drivers/STM32N6xx_HAL_Driver/Src/stm32n6xx_hal_bsec.c **** }
 1541              		.loc 1 1070 3 is_stmt 1 view .LVU493
1070:STM32Cube_FW_N6/Drivers/STM32N6xx_HAL_Driver/Src/stm32n6xx_hal_bsec.c **** }
 1542              		.loc 1 1070 10 is_stmt 0 view .LVU494
 1543 0038 EDE7     		b	.L230
 1544              	.L236:
 1545 003a 00BF     		.align	2
 1546              	.L235:
 1547 003c 00900056 		.word	1442877440
 1548 0040 00000000 		.word	.LC0
 1549              		.cfi_endproc
 1550              	.LFE876:
 1552              		.section	.text.HAL_BSEC_GetEpochCounterSelection,"ax",%progbits
 1553              		.align	1
 1554              		.global	HAL_BSEC_GetEpochCounterSelection
 1555              		.syntax unified
 1556              		.thumb
 1557              		.thumb_func
 1559              	HAL_BSEC_GetEpochCounterSelection:
 1560              	.LVL130:
 1561              	.LFB877:
1072:STM32Cube_FW_N6/Drivers/STM32N6xx_HAL_Driver/Src/stm32n6xx_hal_bsec.c **** 
1073:STM32Cube_FW_N6/Drivers/STM32N6xx_HAL_Driver/Src/stm32n6xx_hal_bsec.c **** /**
1074:STM32Cube_FW_N6/Drivers/STM32N6xx_HAL_Driver/Src/stm32n6xx_hal_bsec.c ****   * @brief  Get the epoch counter selection for SAES.
1075:STM32Cube_FW_N6/Drivers/STM32N6xx_HAL_Driver/Src/stm32n6xx_hal_bsec.c ****   *
1076:STM32Cube_FW_N6/Drivers/STM32N6xx_HAL_Driver/Src/stm32n6xx_hal_bsec.c ****   * @param  hbsec            BSEC handle
1077:STM32Cube_FW_N6/Drivers/STM32N6xx_HAL_Driver/Src/stm32n6xx_hal_bsec.c ****   * @param  pSelectedCounter  Returned value of epoch selected counter. The returned value is @ref 
1078:STM32Cube_FW_N6/Drivers/STM32N6xx_HAL_Driver/Src/stm32n6xx_hal_bsec.c ****   *
1079:STM32Cube_FW_N6/Drivers/STM32N6xx_HAL_Driver/Src/stm32n6xx_hal_bsec.c ****   * @retval HAL_StatusTypeDef HAL Status
1080:STM32Cube_FW_N6/Drivers/STM32N6xx_HAL_Driver/Src/stm32n6xx_hal_bsec.c ****   */
1081:STM32Cube_FW_N6/Drivers/STM32N6xx_HAL_Driver/Src/stm32n6xx_hal_bsec.c **** HAL_StatusTypeDef HAL_BSEC_GetEpochCounterSelection(BSEC_HandleTypeDef * hbsec, uint32_t *pSelected
1082:STM32Cube_FW_N6/Drivers/STM32N6xx_HAL_Driver/Src/stm32n6xx_hal_bsec.c **** {
 1562              		.loc 1 1082 1 is_stmt 1 view -0
 1563              		.cfi_startproc
 1564              		@ args = 0, pretend = 0, frame = 0
 1565              		@ frame_needed = 0, uses_anonymous_args = 0
 1566              		@ link register save eliminated.
1083:STM32Cube_FW_N6/Drivers/STM32N6xx_HAL_Driver/Src/stm32n6xx_hal_bsec.c ****   /* Check the handle pointer */
1084:STM32Cube_FW_N6/Drivers/STM32N6xx_HAL_Driver/Src/stm32n6xx_hal_bsec.c ****   if (hbsec == NULL)
 1567              		.loc 1 1084 3 view .LVU496
 1568              		.loc 1 1084 6 is_stmt 0 view .LVU497
 1569 0000 30B1     		cbz	r0, .L238
1085:STM32Cube_FW_N6/Drivers/STM32N6xx_HAL_Driver/Src/stm32n6xx_hal_bsec.c ****   {
1086:STM32Cube_FW_N6/Drivers/STM32N6xx_HAL_Driver/Src/stm32n6xx_hal_bsec.c ****     return HAL_ERROR;
1087:STM32Cube_FW_N6/Drivers/STM32N6xx_HAL_Driver/Src/stm32n6xx_hal_bsec.c ****   }
1088:STM32Cube_FW_N6/Drivers/STM32N6xx_HAL_Driver/Src/stm32n6xx_hal_bsec.c **** 
1089:STM32Cube_FW_N6/Drivers/STM32N6xx_HAL_Driver/Src/stm32n6xx_hal_bsec.c ****   /* Check the address of returned value and instance */
1090:STM32Cube_FW_N6/Drivers/STM32N6xx_HAL_Driver/Src/stm32n6xx_hal_bsec.c ****   if ((pSelectedCounter == NULL) || (hbsec->Instance != BSEC))
 1570              		.loc 1 1090 3 is_stmt 1 view .LVU498
 1571              		.loc 1 1090 6 is_stmt 0 view .LVU499
 1572 0002 19B1     		cbz	r1, .L239
 1573              		.loc 1 1090 34 discriminator 1 view .LVU500
 1574 0004 0368     		ldr	r3, [r0]
 1575 0006 074A     		ldr	r2, .L248
 1576 0008 9342     		cmp	r3, r2
ARM GAS  C:\Users\DJESSOU\AppData\Local\Temp\ccqAzEsX.s 			page 53


 1577 000a 03D0     		beq	.L240
 1578              	.L239:
1091:STM32Cube_FW_N6/Drivers/STM32N6xx_HAL_Driver/Src/stm32n6xx_hal_bsec.c ****   {
1092:STM32Cube_FW_N6/Drivers/STM32N6xx_HAL_Driver/Src/stm32n6xx_hal_bsec.c ****     hbsec->ErrorCode = HAL_BSEC_ERROR_INVALID_PARAM;
 1579              		.loc 1 1092 5 is_stmt 1 view .LVU501
 1580              		.loc 1 1092 22 is_stmt 0 view .LVU502
 1581 000c 0123     		movs	r3, #1
 1582 000e 4360     		str	r3, [r0, #4]
1093:STM32Cube_FW_N6/Drivers/STM32N6xx_HAL_Driver/Src/stm32n6xx_hal_bsec.c ****     return HAL_ERROR;
 1583              		.loc 1 1093 5 is_stmt 1 view .LVU503
 1584              	.L238:
1086:STM32Cube_FW_N6/Drivers/STM32N6xx_HAL_Driver/Src/stm32n6xx_hal_bsec.c ****   }
 1585              		.loc 1 1086 12 is_stmt 0 view .LVU504
 1586 0010 0120     		movs	r0, #1
 1587              	.LVL131:
1086:STM32Cube_FW_N6/Drivers/STM32N6xx_HAL_Driver/Src/stm32n6xx_hal_bsec.c ****   }
 1588              		.loc 1 1086 12 view .LVU505
 1589 0012 7047     		bx	lr
 1590              	.LVL132:
 1591              	.L240:
1094:STM32Cube_FW_N6/Drivers/STM32N6xx_HAL_Driver/Src/stm32n6xx_hal_bsec.c ****   }
1095:STM32Cube_FW_N6/Drivers/STM32N6xx_HAL_Driver/Src/stm32n6xx_hal_bsec.c **** 
1096:STM32Cube_FW_N6/Drivers/STM32N6xx_HAL_Driver/Src/stm32n6xx_hal_bsec.c ****   /* Return the debug request */
1097:STM32Cube_FW_N6/Drivers/STM32N6xx_HAL_Driver/Src/stm32n6xx_hal_bsec.c ****   *pSelectedCounter = (hbsec->Instance->EPOCHSELR & BSEC_EPOCHSELR_EPSEL);
 1592              		.loc 1 1097 3 is_stmt 1 view .LVU506
 1593              		.loc 1 1097 39 is_stmt 0 view .LVU507
 1594 0014 D3F8883E 		ldr	r3, [r3, #3720]
1098:STM32Cube_FW_N6/Drivers/STM32N6xx_HAL_Driver/Src/stm32n6xx_hal_bsec.c **** 
1099:STM32Cube_FW_N6/Drivers/STM32N6xx_HAL_Driver/Src/stm32n6xx_hal_bsec.c ****   return HAL_OK;
 1595              		.loc 1 1099 10 view .LVU508
 1596 0018 0020     		movs	r0, #0
 1597              	.LVL133:
1097:STM32Cube_FW_N6/Drivers/STM32N6xx_HAL_Driver/Src/stm32n6xx_hal_bsec.c **** 
 1598              		.loc 1 1097 51 view .LVU509
 1599 001a 03F00103 		and	r3, r3, #1
1097:STM32Cube_FW_N6/Drivers/STM32N6xx_HAL_Driver/Src/stm32n6xx_hal_bsec.c **** 
 1600              		.loc 1 1097 21 view .LVU510
 1601 001e 0B60     		str	r3, [r1]
 1602              		.loc 1 1099 3 is_stmt 1 view .LVU511
1100:STM32Cube_FW_N6/Drivers/STM32N6xx_HAL_Driver/Src/stm32n6xx_hal_bsec.c **** }
 1603              		.loc 1 1100 1 is_stmt 0 view .LVU512
 1604 0020 7047     		bx	lr
 1605              	.L249:
 1606 0022 00BF     		.align	2
 1607              	.L248:
 1608 0024 00900056 		.word	1442877440
 1609              		.cfi_endproc
 1610              	.LFE877:
 1612              		.section	.text.HAL_BSEC_GetHDPLValue,"ax",%progbits
 1613              		.align	1
 1614              		.global	HAL_BSEC_GetHDPLValue
 1615              		.syntax unified
 1616              		.thumb
 1617              		.thumb_func
 1619              	HAL_BSEC_GetHDPLValue:
 1620              	.LVL134:
 1621              	.LFB878:
ARM GAS  C:\Users\DJESSOU\AppData\Local\Temp\ccqAzEsX.s 			page 54


1101:STM32Cube_FW_N6/Drivers/STM32N6xx_HAL_Driver/Src/stm32n6xx_hal_bsec.c **** 
1102:STM32Cube_FW_N6/Drivers/STM32N6xx_HAL_Driver/Src/stm32n6xx_hal_bsec.c **** /**
1103:STM32Cube_FW_N6/Drivers/STM32N6xx_HAL_Driver/Src/stm32n6xx_hal_bsec.c ****   * @}
1104:STM32Cube_FW_N6/Drivers/STM32N6xx_HAL_Driver/Src/stm32n6xx_hal_bsec.c ****   */
1105:STM32Cube_FW_N6/Drivers/STM32N6xx_HAL_Driver/Src/stm32n6xx_hal_bsec.c **** 
1106:STM32Cube_FW_N6/Drivers/STM32N6xx_HAL_Driver/Src/stm32n6xx_hal_bsec.c **** /** @defgroup BSEC_Exported_Functions_Group5 HDPL management functions
1107:STM32Cube_FW_N6/Drivers/STM32N6xx_HAL_Driver/Src/stm32n6xx_hal_bsec.c ****  *  @brief   HDPL management functions
1108:STM32Cube_FW_N6/Drivers/STM32N6xx_HAL_Driver/Src/stm32n6xx_hal_bsec.c ****  *
1109:STM32Cube_FW_N6/Drivers/STM32N6xx_HAL_Driver/Src/stm32n6xx_hal_bsec.c **** @verbatim
1110:STM32Cube_FW_N6/Drivers/STM32N6xx_HAL_Driver/Src/stm32n6xx_hal_bsec.c ****  ===============================================================================
1111:STM32Cube_FW_N6/Drivers/STM32N6xx_HAL_Driver/Src/stm32n6xx_hal_bsec.c ****                      ##### HDPL management functions #####
1112:STM32Cube_FW_N6/Drivers/STM32N6xx_HAL_Driver/Src/stm32n6xx_hal_bsec.c ****  ===============================================================================
1113:STM32Cube_FW_N6/Drivers/STM32N6xx_HAL_Driver/Src/stm32n6xx_hal_bsec.c ****     [..]
1114:STM32Cube_FW_N6/Drivers/STM32N6xx_HAL_Driver/Src/stm32n6xx_hal_bsec.c ****   This subsection provides a set of functions allowing to manage the
1115:STM32Cube_FW_N6/Drivers/STM32N6xx_HAL_Driver/Src/stm32n6xx_hal_bsec.c ****   HDPL (Hide Protection Level).
1116:STM32Cube_FW_N6/Drivers/STM32N6xx_HAL_Driver/Src/stm32n6xx_hal_bsec.c **** 
1117:STM32Cube_FW_N6/Drivers/STM32N6xx_HAL_Driver/Src/stm32n6xx_hal_bsec.c **** @endverbatim
1118:STM32Cube_FW_N6/Drivers/STM32N6xx_HAL_Driver/Src/stm32n6xx_hal_bsec.c ****   * @{
1119:STM32Cube_FW_N6/Drivers/STM32N6xx_HAL_Driver/Src/stm32n6xx_hal_bsec.c ****   */
1120:STM32Cube_FW_N6/Drivers/STM32N6xx_HAL_Driver/Src/stm32n6xx_hal_bsec.c **** 
1121:STM32Cube_FW_N6/Drivers/STM32N6xx_HAL_Driver/Src/stm32n6xx_hal_bsec.c **** /**
1122:STM32Cube_FW_N6/Drivers/STM32N6xx_HAL_Driver/Src/stm32n6xx_hal_bsec.c ****   * @brief  Get the current HDPL.
1123:STM32Cube_FW_N6/Drivers/STM32N6xx_HAL_Driver/Src/stm32n6xx_hal_bsec.c ****   *
1124:STM32Cube_FW_N6/Drivers/STM32N6xx_HAL_Driver/Src/stm32n6xx_hal_bsec.c ****   * @param  hbsec  BSEC handle
1125:STM32Cube_FW_N6/Drivers/STM32N6xx_HAL_Driver/Src/stm32n6xx_hal_bsec.c ****   * @param  pHDPL   Returned value of current HDPL. The returned value is @ref BSEC_HDPL
1126:STM32Cube_FW_N6/Drivers/STM32N6xx_HAL_Driver/Src/stm32n6xx_hal_bsec.c ****   *
1127:STM32Cube_FW_N6/Drivers/STM32N6xx_HAL_Driver/Src/stm32n6xx_hal_bsec.c ****   * @retval HAL_StatusTypeDef HAL Status
1128:STM32Cube_FW_N6/Drivers/STM32N6xx_HAL_Driver/Src/stm32n6xx_hal_bsec.c ****   */
1129:STM32Cube_FW_N6/Drivers/STM32N6xx_HAL_Driver/Src/stm32n6xx_hal_bsec.c **** HAL_StatusTypeDef HAL_BSEC_GetHDPLValue(BSEC_HandleTypeDef * hbsec, uint32_t *pHDPL)
1130:STM32Cube_FW_N6/Drivers/STM32N6xx_HAL_Driver/Src/stm32n6xx_hal_bsec.c **** {
 1622              		.loc 1 1130 1 is_stmt 1 view -0
 1623              		.cfi_startproc
 1624              		@ args = 0, pretend = 0, frame = 0
 1625              		@ frame_needed = 0, uses_anonymous_args = 0
 1626              		@ link register save eliminated.
1131:STM32Cube_FW_N6/Drivers/STM32N6xx_HAL_Driver/Src/stm32n6xx_hal_bsec.c **** 
1132:STM32Cube_FW_N6/Drivers/STM32N6xx_HAL_Driver/Src/stm32n6xx_hal_bsec.c ****   uint32_t hdpl;
 1627              		.loc 1 1132 3 view .LVU514
1133:STM32Cube_FW_N6/Drivers/STM32N6xx_HAL_Driver/Src/stm32n6xx_hal_bsec.c ****   /* Check the handle pointer */
1134:STM32Cube_FW_N6/Drivers/STM32N6xx_HAL_Driver/Src/stm32n6xx_hal_bsec.c ****   if (hbsec == NULL)
 1628              		.loc 1 1134 3 view .LVU515
 1629              		.loc 1 1134 6 is_stmt 0 view .LVU516
 1630 0000 30B1     		cbz	r0, .L251
1135:STM32Cube_FW_N6/Drivers/STM32N6xx_HAL_Driver/Src/stm32n6xx_hal_bsec.c ****   {
1136:STM32Cube_FW_N6/Drivers/STM32N6xx_HAL_Driver/Src/stm32n6xx_hal_bsec.c ****     return HAL_ERROR;
1137:STM32Cube_FW_N6/Drivers/STM32N6xx_HAL_Driver/Src/stm32n6xx_hal_bsec.c ****   }
1138:STM32Cube_FW_N6/Drivers/STM32N6xx_HAL_Driver/Src/stm32n6xx_hal_bsec.c **** 
1139:STM32Cube_FW_N6/Drivers/STM32N6xx_HAL_Driver/Src/stm32n6xx_hal_bsec.c ****   /* Check the address of returned value and instance */
1140:STM32Cube_FW_N6/Drivers/STM32N6xx_HAL_Driver/Src/stm32n6xx_hal_bsec.c ****   if ((pHDPL == NULL) || (hbsec->Instance != BSEC))
 1631              		.loc 1 1140 3 is_stmt 1 view .LVU517
 1632              		.loc 1 1140 6 is_stmt 0 view .LVU518
 1633 0002 19B1     		cbz	r1, .L252
 1634              		.loc 1 1140 23 discriminator 1 view .LVU519
 1635 0004 0368     		ldr	r3, [r0]
 1636 0006 0B4A     		ldr	r2, .L273
 1637 0008 9342     		cmp	r3, r2
 1638 000a 03D0     		beq	.L253
ARM GAS  C:\Users\DJESSOU\AppData\Local\Temp\ccqAzEsX.s 			page 55


 1639              	.L252:
1141:STM32Cube_FW_N6/Drivers/STM32N6xx_HAL_Driver/Src/stm32n6xx_hal_bsec.c ****   {
1142:STM32Cube_FW_N6/Drivers/STM32N6xx_HAL_Driver/Src/stm32n6xx_hal_bsec.c ****     hbsec->ErrorCode = HAL_BSEC_ERROR_INVALID_PARAM;
 1640              		.loc 1 1142 5 is_stmt 1 view .LVU520
 1641              		.loc 1 1142 22 is_stmt 0 view .LVU521
 1642 000c 0123     		movs	r3, #1
 1643              	.L272:
 1644 000e 4360     		str	r3, [r0, #4]
1143:STM32Cube_FW_N6/Drivers/STM32N6xx_HAL_Driver/Src/stm32n6xx_hal_bsec.c ****     return HAL_ERROR;
 1645              		.loc 1 1143 5 is_stmt 1 view .LVU522
 1646              	.L251:
1136:STM32Cube_FW_N6/Drivers/STM32N6xx_HAL_Driver/Src/stm32n6xx_hal_bsec.c ****   }
 1647              		.loc 1 1136 12 is_stmt 0 view .LVU523
 1648 0010 0120     		movs	r0, #1
 1649              	.LVL135:
1136:STM32Cube_FW_N6/Drivers/STM32N6xx_HAL_Driver/Src/stm32n6xx_hal_bsec.c ****   }
 1650              		.loc 1 1136 12 view .LVU524
 1651 0012 7047     		bx	lr
 1652              	.LVL136:
 1653              	.L253:
1144:STM32Cube_FW_N6/Drivers/STM32N6xx_HAL_Driver/Src/stm32n6xx_hal_bsec.c ****   }
1145:STM32Cube_FW_N6/Drivers/STM32N6xx_HAL_Driver/Src/stm32n6xx_hal_bsec.c **** 
1146:STM32Cube_FW_N6/Drivers/STM32N6xx_HAL_Driver/Src/stm32n6xx_hal_bsec.c ****   /* Return the HDPL */
1147:STM32Cube_FW_N6/Drivers/STM32N6xx_HAL_Driver/Src/stm32n6xx_hal_bsec.c ****   hdpl = (hbsec->Instance->HDPLSR & BSEC_HDPLSR_HDPL);
 1654              		.loc 1 1147 3 is_stmt 1 view .LVU525
 1655              		.loc 1 1147 26 is_stmt 0 view .LVU526
 1656 0014 D3F8943E 		ldr	r3, [r3, #3732]
 1657              		.loc 1 1147 8 view .LVU527
 1658 0018 DBB2     		uxtb	r3, r3
 1659              	.LVL137:
1148:STM32Cube_FW_N6/Drivers/STM32N6xx_HAL_Driver/Src/stm32n6xx_hal_bsec.c **** 
1149:STM32Cube_FW_N6/Drivers/STM32N6xx_HAL_Driver/Src/stm32n6xx_hal_bsec.c ****   if (IS_BSEC_HDPL(hdpl))
 1660              		.loc 1 1149 3 is_stmt 1 view .LVU528
 1661              		.loc 1 1149 6 is_stmt 0 view .LVU529
 1662 001a B42B     		cmp	r3, #180
 1663 001c 05D0     		beq	.L255
 1664              		.loc 1 1149 7 discriminator 1 view .LVU530
 1665 001e 512B     		cmp	r3, #81
 1666 0020 03D0     		beq	.L255
 1667              		.loc 1 1149 7 discriminator 2 view .LVU531
 1668 0022 8A2B     		cmp	r3, #138
 1669 0024 01D0     		beq	.L255
 1670              		.loc 1 1149 7 discriminator 3 view .LVU532
 1671 0026 6F2B     		cmp	r3, #111
 1672 0028 02D1     		bne	.L256
 1673              	.L255:
1150:STM32Cube_FW_N6/Drivers/STM32N6xx_HAL_Driver/Src/stm32n6xx_hal_bsec.c ****   {
1151:STM32Cube_FW_N6/Drivers/STM32N6xx_HAL_Driver/Src/stm32n6xx_hal_bsec.c ****     *pHDPL = hdpl;
 1674              		.loc 1 1151 5 is_stmt 1 view .LVU533
1152:STM32Cube_FW_N6/Drivers/STM32N6xx_HAL_Driver/Src/stm32n6xx_hal_bsec.c ****     return HAL_OK;
 1675              		.loc 1 1152 12 is_stmt 0 view .LVU534
 1676 002a 0020     		movs	r0, #0
 1677              	.LVL138:
1151:STM32Cube_FW_N6/Drivers/STM32N6xx_HAL_Driver/Src/stm32n6xx_hal_bsec.c ****     return HAL_OK;
 1678              		.loc 1 1151 12 view .LVU535
 1679 002c 0B60     		str	r3, [r1]
 1680              		.loc 1 1152 5 is_stmt 1 view .LVU536
ARM GAS  C:\Users\DJESSOU\AppData\Local\Temp\ccqAzEsX.s 			page 56


1153:STM32Cube_FW_N6/Drivers/STM32N6xx_HAL_Driver/Src/stm32n6xx_hal_bsec.c ****   }
1154:STM32Cube_FW_N6/Drivers/STM32N6xx_HAL_Driver/Src/stm32n6xx_hal_bsec.c ****   else
1155:STM32Cube_FW_N6/Drivers/STM32N6xx_HAL_Driver/Src/stm32n6xx_hal_bsec.c ****   {
1156:STM32Cube_FW_N6/Drivers/STM32N6xx_HAL_Driver/Src/stm32n6xx_hal_bsec.c ****     hbsec->ErrorCode = HAL_BSEC_ERROR_UNDEFINED_VALUE;
1157:STM32Cube_FW_N6/Drivers/STM32N6xx_HAL_Driver/Src/stm32n6xx_hal_bsec.c ****     return HAL_ERROR;
1158:STM32Cube_FW_N6/Drivers/STM32N6xx_HAL_Driver/Src/stm32n6xx_hal_bsec.c ****   }
1159:STM32Cube_FW_N6/Drivers/STM32N6xx_HAL_Driver/Src/stm32n6xx_hal_bsec.c **** }
 1681              		.loc 1 1159 1 is_stmt 0 view .LVU537
 1682 002e 7047     		bx	lr
 1683              	.LVL139:
 1684              	.L256:
1156:STM32Cube_FW_N6/Drivers/STM32N6xx_HAL_Driver/Src/stm32n6xx_hal_bsec.c ****     return HAL_ERROR;
 1685              		.loc 1 1156 5 is_stmt 1 view .LVU538
1156:STM32Cube_FW_N6/Drivers/STM32N6xx_HAL_Driver/Src/stm32n6xx_hal_bsec.c ****     return HAL_ERROR;
 1686              		.loc 1 1156 22 is_stmt 0 view .LVU539
 1687 0030 0223     		movs	r3, #2
 1688              	.LVL140:
1156:STM32Cube_FW_N6/Drivers/STM32N6xx_HAL_Driver/Src/stm32n6xx_hal_bsec.c ****     return HAL_ERROR;
 1689              		.loc 1 1156 22 view .LVU540
 1690 0032 ECE7     		b	.L272
 1691              	.L274:
 1692              		.align	2
 1693              	.L273:
 1694 0034 00900056 		.word	1442877440
 1695              		.cfi_endproc
 1696              	.LFE878:
 1698              		.section	.text.HAL_BSEC_IncrementHDPLValue,"ax",%progbits
 1699              		.align	1
 1700              		.global	HAL_BSEC_IncrementHDPLValue
 1701              		.syntax unified
 1702              		.thumb
 1703              		.thumb_func
 1705              	HAL_BSEC_IncrementHDPLValue:
 1706              	.LVL141:
 1707              	.LFB879:
1160:STM32Cube_FW_N6/Drivers/STM32N6xx_HAL_Driver/Src/stm32n6xx_hal_bsec.c **** 
1161:STM32Cube_FW_N6/Drivers/STM32N6xx_HAL_Driver/Src/stm32n6xx_hal_bsec.c **** /**
1162:STM32Cube_FW_N6/Drivers/STM32N6xx_HAL_Driver/Src/stm32n6xx_hal_bsec.c ****   * @brief  Increment the HDPL.
1163:STM32Cube_FW_N6/Drivers/STM32N6xx_HAL_Driver/Src/stm32n6xx_hal_bsec.c ****   *
1164:STM32Cube_FW_N6/Drivers/STM32N6xx_HAL_Driver/Src/stm32n6xx_hal_bsec.c ****   * @param  hbsec  BSEC handle
1165:STM32Cube_FW_N6/Drivers/STM32N6xx_HAL_Driver/Src/stm32n6xx_hal_bsec.c ****   *
1166:STM32Cube_FW_N6/Drivers/STM32N6xx_HAL_Driver/Src/stm32n6xx_hal_bsec.c ****   * @retval HAL_StatusTypeDef HAL Status
1167:STM32Cube_FW_N6/Drivers/STM32N6xx_HAL_Driver/Src/stm32n6xx_hal_bsec.c ****   */
1168:STM32Cube_FW_N6/Drivers/STM32N6xx_HAL_Driver/Src/stm32n6xx_hal_bsec.c **** HAL_StatusTypeDef HAL_BSEC_IncrementHDPLValue(BSEC_HandleTypeDef *hbsec)
1169:STM32Cube_FW_N6/Drivers/STM32N6xx_HAL_Driver/Src/stm32n6xx_hal_bsec.c **** {
 1708              		.loc 1 1169 1 is_stmt 1 view -0
 1709              		.cfi_startproc
 1710              		@ args = 0, pretend = 0, frame = 0
 1711              		@ frame_needed = 0, uses_anonymous_args = 0
 1712              		@ link register save eliminated.
1170:STM32Cube_FW_N6/Drivers/STM32N6xx_HAL_Driver/Src/stm32n6xx_hal_bsec.c ****   /* Check the handle pointer */
1171:STM32Cube_FW_N6/Drivers/STM32N6xx_HAL_Driver/Src/stm32n6xx_hal_bsec.c ****   if (hbsec == NULL)
 1713              		.loc 1 1171 3 view .LVU542
 1714              		.loc 1 1171 6 is_stmt 0 view .LVU543
 1715 0000 28B1     		cbz	r0, .L276
1172:STM32Cube_FW_N6/Drivers/STM32N6xx_HAL_Driver/Src/stm32n6xx_hal_bsec.c ****   {
1173:STM32Cube_FW_N6/Drivers/STM32N6xx_HAL_Driver/Src/stm32n6xx_hal_bsec.c ****     return HAL_ERROR;
ARM GAS  C:\Users\DJESSOU\AppData\Local\Temp\ccqAzEsX.s 			page 57


1174:STM32Cube_FW_N6/Drivers/STM32N6xx_HAL_Driver/Src/stm32n6xx_hal_bsec.c ****   }
1175:STM32Cube_FW_N6/Drivers/STM32N6xx_HAL_Driver/Src/stm32n6xx_hal_bsec.c **** 
1176:STM32Cube_FW_N6/Drivers/STM32N6xx_HAL_Driver/Src/stm32n6xx_hal_bsec.c ****   /* Check the instance */
1177:STM32Cube_FW_N6/Drivers/STM32N6xx_HAL_Driver/Src/stm32n6xx_hal_bsec.c ****  if (hbsec->Instance != BSEC)
 1716              		.loc 1 1177 2 is_stmt 1 view .LVU544
 1717              		.loc 1 1177 5 is_stmt 0 view .LVU545
 1718 0002 0368     		ldr	r3, [r0]
 1719 0004 054A     		ldr	r2, .L282
 1720 0006 9342     		cmp	r3, r2
 1721 0008 03D0     		beq	.L277
1178:STM32Cube_FW_N6/Drivers/STM32N6xx_HAL_Driver/Src/stm32n6xx_hal_bsec.c ****   {
1179:STM32Cube_FW_N6/Drivers/STM32N6xx_HAL_Driver/Src/stm32n6xx_hal_bsec.c ****     hbsec->ErrorCode = HAL_BSEC_ERROR_INVALID_PARAM;
 1722              		.loc 1 1179 5 is_stmt 1 view .LVU546
 1723              		.loc 1 1179 22 is_stmt 0 view .LVU547
 1724 000a 0123     		movs	r3, #1
 1725 000c 4360     		str	r3, [r0, #4]
1180:STM32Cube_FW_N6/Drivers/STM32N6xx_HAL_Driver/Src/stm32n6xx_hal_bsec.c ****     return HAL_ERROR;
 1726              		.loc 1 1180 5 is_stmt 1 view .LVU548
 1727              	.L276:
1173:STM32Cube_FW_N6/Drivers/STM32N6xx_HAL_Driver/Src/stm32n6xx_hal_bsec.c ****   }
 1728              		.loc 1 1173 12 is_stmt 0 view .LVU549
 1729 000e 0120     		movs	r0, #1
 1730              	.LVL142:
1173:STM32Cube_FW_N6/Drivers/STM32N6xx_HAL_Driver/Src/stm32n6xx_hal_bsec.c ****   }
 1731              		.loc 1 1173 12 view .LVU550
 1732 0010 7047     		bx	lr
 1733              	.LVL143:
 1734              	.L277:
1181:STM32Cube_FW_N6/Drivers/STM32N6xx_HAL_Driver/Src/stm32n6xx_hal_bsec.c ****   }
1182:STM32Cube_FW_N6/Drivers/STM32N6xx_HAL_Driver/Src/stm32n6xx_hal_bsec.c **** 
1183:STM32Cube_FW_N6/Drivers/STM32N6xx_HAL_Driver/Src/stm32n6xx_hal_bsec.c ****   /* Increment HDPL value */
1184:STM32Cube_FW_N6/Drivers/STM32N6xx_HAL_Driver/Src/stm32n6xx_hal_bsec.c ****   hbsec->Instance->HDPLCR = BSEC_HDPL_INCREMENT_CODE;
 1735              		.loc 1 1184 3 is_stmt 1 view .LVU551
 1736              		.loc 1 1184 27 is_stmt 0 view .LVU552
 1737 0012 034A     		ldr	r2, .L282+4
1185:STM32Cube_FW_N6/Drivers/STM32N6xx_HAL_Driver/Src/stm32n6xx_hal_bsec.c **** 
1186:STM32Cube_FW_N6/Drivers/STM32N6xx_HAL_Driver/Src/stm32n6xx_hal_bsec.c ****   return HAL_OK;
 1738              		.loc 1 1186 10 view .LVU553
 1739 0014 0020     		movs	r0, #0
 1740              	.LVL144:
1184:STM32Cube_FW_N6/Drivers/STM32N6xx_HAL_Driver/Src/stm32n6xx_hal_bsec.c **** 
 1741              		.loc 1 1184 27 view .LVU554
 1742 0016 C3F8982E 		str	r2, [r3, #3736]
 1743              		.loc 1 1186 3 is_stmt 1 view .LVU555
1187:STM32Cube_FW_N6/Drivers/STM32N6xx_HAL_Driver/Src/stm32n6xx_hal_bsec.c **** }
 1744              		.loc 1 1187 1 is_stmt 0 view .LVU556
 1745 001a 7047     		bx	lr
 1746              	.L283:
 1747              		.align	2
 1748              	.L282:
 1749 001c 00900056 		.word	1442877440
 1750 0020 E766B160 		.word	1622238951
 1751              		.cfi_endproc
 1752              	.LFE879:
 1754              		.section	.text.HAL_BSEC_ConfigSAESHDPLIncrementValue,"ax",%progbits
 1755              		.align	1
 1756              		.global	HAL_BSEC_ConfigSAESHDPLIncrementValue
ARM GAS  C:\Users\DJESSOU\AppData\Local\Temp\ccqAzEsX.s 			page 58


 1757              		.syntax unified
 1758              		.thumb
 1759              		.thumb_func
 1761              	HAL_BSEC_ConfigSAESHDPLIncrementValue:
 1762              	.LVL145:
 1763              	.LFB880:
1188:STM32Cube_FW_N6/Drivers/STM32N6xx_HAL_Driver/Src/stm32n6xx_hal_bsec.c **** 
1189:STM32Cube_FW_N6/Drivers/STM32N6xx_HAL_Driver/Src/stm32n6xx_hal_bsec.c **** /**
1190:STM32Cube_FW_N6/Drivers/STM32N6xx_HAL_Driver/Src/stm32n6xx_hal_bsec.c ****   * @brief  Configure the increment of HDPL sent to SAES.
1191:STM32Cube_FW_N6/Drivers/STM32N6xx_HAL_Driver/Src/stm32n6xx_hal_bsec.c ****   *
1192:STM32Cube_FW_N6/Drivers/STM32N6xx_HAL_Driver/Src/stm32n6xx_hal_bsec.c ****   * @param  hbsec      BSEC handle
1193:STM32Cube_FW_N6/Drivers/STM32N6xx_HAL_Driver/Src/stm32n6xx_hal_bsec.c ****   * @param  Increment   Value of HDPL increment, this parameter can be a value of @ref BSEC_INCR_HD
1194:STM32Cube_FW_N6/Drivers/STM32N6xx_HAL_Driver/Src/stm32n6xx_hal_bsec.c ****   *
1195:STM32Cube_FW_N6/Drivers/STM32N6xx_HAL_Driver/Src/stm32n6xx_hal_bsec.c ****   * @retval HAL_StatusTypeDef HAL Status
1196:STM32Cube_FW_N6/Drivers/STM32N6xx_HAL_Driver/Src/stm32n6xx_hal_bsec.c ****   */
1197:STM32Cube_FW_N6/Drivers/STM32N6xx_HAL_Driver/Src/stm32n6xx_hal_bsec.c **** HAL_StatusTypeDef HAL_BSEC_ConfigSAESHDPLIncrementValue(BSEC_HandleTypeDef *hbsec, uint32_t Increme
1198:STM32Cube_FW_N6/Drivers/STM32N6xx_HAL_Driver/Src/stm32n6xx_hal_bsec.c **** {
 1764              		.loc 1 1198 1 is_stmt 1 view -0
 1765              		.cfi_startproc
 1766              		@ args = 0, pretend = 0, frame = 0
 1767              		@ frame_needed = 0, uses_anonymous_args = 0
1199:STM32Cube_FW_N6/Drivers/STM32N6xx_HAL_Driver/Src/stm32n6xx_hal_bsec.c ****   /* Check the handle pointer */
1200:STM32Cube_FW_N6/Drivers/STM32N6xx_HAL_Driver/Src/stm32n6xx_hal_bsec.c ****   if (hbsec == NULL)
 1768              		.loc 1 1200 3 view .LVU558
1198:STM32Cube_FW_N6/Drivers/STM32N6xx_HAL_Driver/Src/stm32n6xx_hal_bsec.c ****   /* Check the handle pointer */
 1769              		.loc 1 1198 1 is_stmt 0 view .LVU559
 1770 0000 38B5     		push	{r3, r4, r5, lr}
 1771              		.cfi_def_cfa_offset 16
 1772              		.cfi_offset 3, -16
 1773              		.cfi_offset 4, -12
 1774              		.cfi_offset 5, -8
 1775              		.cfi_offset 14, -4
1198:STM32Cube_FW_N6/Drivers/STM32N6xx_HAL_Driver/Src/stm32n6xx_hal_bsec.c ****   /* Check the handle pointer */
 1776              		.loc 1 1198 1 view .LVU560
 1777 0002 0D46     		mov	r5, r1
 1778              		.loc 1 1200 6 view .LVU561
 1779 0004 0446     		mov	r4, r0
 1780 0006 28B1     		cbz	r0, .L285
1201:STM32Cube_FW_N6/Drivers/STM32N6xx_HAL_Driver/Src/stm32n6xx_hal_bsec.c ****   {
1202:STM32Cube_FW_N6/Drivers/STM32N6xx_HAL_Driver/Src/stm32n6xx_hal_bsec.c ****     return HAL_ERROR;
1203:STM32Cube_FW_N6/Drivers/STM32N6xx_HAL_Driver/Src/stm32n6xx_hal_bsec.c ****   }
1204:STM32Cube_FW_N6/Drivers/STM32N6xx_HAL_Driver/Src/stm32n6xx_hal_bsec.c **** 
1205:STM32Cube_FW_N6/Drivers/STM32N6xx_HAL_Driver/Src/stm32n6xx_hal_bsec.c ****   /* Check the instance */
1206:STM32Cube_FW_N6/Drivers/STM32N6xx_HAL_Driver/Src/stm32n6xx_hal_bsec.c ****  if (hbsec->Instance != BSEC)
 1781              		.loc 1 1206 2 is_stmt 1 view .LVU562
 1782              		.loc 1 1206 5 is_stmt 0 view .LVU563
 1783 0008 0268     		ldr	r2, [r0]
 1784 000a 0C4B     		ldr	r3, .L292
 1785 000c 9A42     		cmp	r2, r3
 1786 000e 03D0     		beq	.L286
1207:STM32Cube_FW_N6/Drivers/STM32N6xx_HAL_Driver/Src/stm32n6xx_hal_bsec.c ****   {
1208:STM32Cube_FW_N6/Drivers/STM32N6xx_HAL_Driver/Src/stm32n6xx_hal_bsec.c ****     hbsec->ErrorCode = HAL_BSEC_ERROR_INVALID_PARAM;
 1787              		.loc 1 1208 5 is_stmt 1 view .LVU564
 1788              		.loc 1 1208 22 is_stmt 0 view .LVU565
 1789 0010 0123     		movs	r3, #1
 1790 0012 4360     		str	r3, [r0, #4]
1209:STM32Cube_FW_N6/Drivers/STM32N6xx_HAL_Driver/Src/stm32n6xx_hal_bsec.c ****     return HAL_ERROR;
ARM GAS  C:\Users\DJESSOU\AppData\Local\Temp\ccqAzEsX.s 			page 59


 1791              		.loc 1 1209 5 is_stmt 1 view .LVU566
 1792              	.L285:
1202:STM32Cube_FW_N6/Drivers/STM32N6xx_HAL_Driver/Src/stm32n6xx_hal_bsec.c ****   }
 1793              		.loc 1 1202 12 is_stmt 0 view .LVU567
 1794 0014 0120     		movs	r0, #1
 1795              	.LVL146:
 1796              	.L287:
1210:STM32Cube_FW_N6/Drivers/STM32N6xx_HAL_Driver/Src/stm32n6xx_hal_bsec.c ****   }
1211:STM32Cube_FW_N6/Drivers/STM32N6xx_HAL_Driver/Src/stm32n6xx_hal_bsec.c **** 
1212:STM32Cube_FW_N6/Drivers/STM32N6xx_HAL_Driver/Src/stm32n6xx_hal_bsec.c ****   /* Check the debug configuration */
1213:STM32Cube_FW_N6/Drivers/STM32N6xx_HAL_Driver/Src/stm32n6xx_hal_bsec.c ****   assert_param(IS_BSEC_NEXTHDPL(Increment));
1214:STM32Cube_FW_N6/Drivers/STM32N6xx_HAL_Driver/Src/stm32n6xx_hal_bsec.c **** 
1215:STM32Cube_FW_N6/Drivers/STM32N6xx_HAL_Driver/Src/stm32n6xx_hal_bsec.c ****   /* Write HDPL increment value */
1216:STM32Cube_FW_N6/Drivers/STM32N6xx_HAL_Driver/Src/stm32n6xx_hal_bsec.c ****   MODIFY_REG(hbsec->Instance->NEXTLR, BSEC_NEXTLR_INCR, Increment);
1217:STM32Cube_FW_N6/Drivers/STM32N6xx_HAL_Driver/Src/stm32n6xx_hal_bsec.c **** 
1218:STM32Cube_FW_N6/Drivers/STM32N6xx_HAL_Driver/Src/stm32n6xx_hal_bsec.c ****   return HAL_OK;
1219:STM32Cube_FW_N6/Drivers/STM32N6xx_HAL_Driver/Src/stm32n6xx_hal_bsec.c **** }
 1797              		.loc 1 1219 1 view .LVU568
 1798 0016 38BD     		pop	{r3, r4, r5, pc}
 1799              	.LVL147:
 1800              	.L286:
1213:STM32Cube_FW_N6/Drivers/STM32N6xx_HAL_Driver/Src/stm32n6xx_hal_bsec.c **** 
 1801              		.loc 1 1213 3 is_stmt 1 view .LVU569
 1802 0018 0329     		cmp	r1, #3
 1803 001a 04D9     		bls	.L288
1213:STM32Cube_FW_N6/Drivers/STM32N6xx_HAL_Driver/Src/stm32n6xx_hal_bsec.c **** 
 1804              		.loc 1 1213 3 is_stmt 0 discriminator 1 view .LVU570
 1805 001c 40F2BD41 		movw	r1, #1213
 1806              	.LVL148:
1213:STM32Cube_FW_N6/Drivers/STM32N6xx_HAL_Driver/Src/stm32n6xx_hal_bsec.c **** 
 1807              		.loc 1 1213 3 discriminator 1 view .LVU571
 1808 0020 0748     		ldr	r0, .L292+4
 1809              	.LVL149:
1213:STM32Cube_FW_N6/Drivers/STM32N6xx_HAL_Driver/Src/stm32n6xx_hal_bsec.c **** 
 1810              		.loc 1 1213 3 discriminator 1 view .LVU572
 1811 0022 FFF7FEFF 		bl	assert_failed
 1812              	.LVL150:
 1813              	.L288:
1216:STM32Cube_FW_N6/Drivers/STM32N6xx_HAL_Driver/Src/stm32n6xx_hal_bsec.c **** 
 1814              		.loc 1 1216 3 is_stmt 1 view .LVU573
 1815 0026 2268     		ldr	r2, [r4]
1218:STM32Cube_FW_N6/Drivers/STM32N6xx_HAL_Driver/Src/stm32n6xx_hal_bsec.c **** }
 1816              		.loc 1 1218 10 is_stmt 0 view .LVU574
 1817 0028 0020     		movs	r0, #0
1216:STM32Cube_FW_N6/Drivers/STM32N6xx_HAL_Driver/Src/stm32n6xx_hal_bsec.c **** 
 1818              		.loc 1 1216 3 view .LVU575
 1819 002a D2F89C3E 		ldr	r3, [r2, #3740]
 1820 002e 23F00303 		bic	r3, r3, #3
 1821 0032 2B43     		orrs	r3, r3, r5
 1822 0034 C2F89C3E 		str	r3, [r2, #3740]
1218:STM32Cube_FW_N6/Drivers/STM32N6xx_HAL_Driver/Src/stm32n6xx_hal_bsec.c **** }
 1823              		.loc 1 1218 3 is_stmt 1 view .LVU576
1218:STM32Cube_FW_N6/Drivers/STM32N6xx_HAL_Driver/Src/stm32n6xx_hal_bsec.c **** }
 1824              		.loc 1 1218 10 is_stmt 0 view .LVU577
 1825 0038 EDE7     		b	.L287
 1826              	.L293:
 1827 003a 00BF     		.align	2
ARM GAS  C:\Users\DJESSOU\AppData\Local\Temp\ccqAzEsX.s 			page 60


 1828              	.L292:
 1829 003c 00900056 		.word	1442877440
 1830 0040 00000000 		.word	.LC0
 1831              		.cfi_endproc
 1832              	.LFE880:
 1834              		.section	.text.HAL_BSEC_GetSAESHDPLIncrementValue,"ax",%progbits
 1835              		.align	1
 1836              		.global	HAL_BSEC_GetSAESHDPLIncrementValue
 1837              		.syntax unified
 1838              		.thumb
 1839              		.thumb_func
 1841              	HAL_BSEC_GetSAESHDPLIncrementValue:
 1842              	.LVL151:
 1843              	.LFB881:
1220:STM32Cube_FW_N6/Drivers/STM32N6xx_HAL_Driver/Src/stm32n6xx_hal_bsec.c **** 
1221:STM32Cube_FW_N6/Drivers/STM32N6xx_HAL_Driver/Src/stm32n6xx_hal_bsec.c **** /**
1222:STM32Cube_FW_N6/Drivers/STM32N6xx_HAL_Driver/Src/stm32n6xx_hal_bsec.c ****   * @brief  Get the SAES increment to HDPL.
1223:STM32Cube_FW_N6/Drivers/STM32N6xx_HAL_Driver/Src/stm32n6xx_hal_bsec.c ****   *
1224:STM32Cube_FW_N6/Drivers/STM32N6xx_HAL_Driver/Src/stm32n6xx_hal_bsec.c ****   * @param  hbsec      BSEC handle
1225:STM32Cube_FW_N6/Drivers/STM32N6xx_HAL_Driver/Src/stm32n6xx_hal_bsec.c ****   * @param  pIncrement  Returned value of HDPL increment. The returned value is a value of @ref BSE
1226:STM32Cube_FW_N6/Drivers/STM32N6xx_HAL_Driver/Src/stm32n6xx_hal_bsec.c ****   *
1227:STM32Cube_FW_N6/Drivers/STM32N6xx_HAL_Driver/Src/stm32n6xx_hal_bsec.c ****   * @retval HAL_StatusTypeDef HAL Status
1228:STM32Cube_FW_N6/Drivers/STM32N6xx_HAL_Driver/Src/stm32n6xx_hal_bsec.c ****   */
1229:STM32Cube_FW_N6/Drivers/STM32N6xx_HAL_Driver/Src/stm32n6xx_hal_bsec.c **** HAL_StatusTypeDef HAL_BSEC_GetSAESHDPLIncrementValue(BSEC_HandleTypeDef * hbsec, uint32_t *pIncreme
1230:STM32Cube_FW_N6/Drivers/STM32N6xx_HAL_Driver/Src/stm32n6xx_hal_bsec.c **** {
 1844              		.loc 1 1230 1 is_stmt 1 view -0
 1845              		.cfi_startproc
 1846              		@ args = 0, pretend = 0, frame = 0
 1847              		@ frame_needed = 0, uses_anonymous_args = 0
 1848              		@ link register save eliminated.
1231:STM32Cube_FW_N6/Drivers/STM32N6xx_HAL_Driver/Src/stm32n6xx_hal_bsec.c ****   /* Check the handle pointer */
1232:STM32Cube_FW_N6/Drivers/STM32N6xx_HAL_Driver/Src/stm32n6xx_hal_bsec.c ****   if (hbsec == NULL)
 1849              		.loc 1 1232 3 view .LVU579
 1850              		.loc 1 1232 6 is_stmt 0 view .LVU580
 1851 0000 30B1     		cbz	r0, .L295
1233:STM32Cube_FW_N6/Drivers/STM32N6xx_HAL_Driver/Src/stm32n6xx_hal_bsec.c ****   {
1234:STM32Cube_FW_N6/Drivers/STM32N6xx_HAL_Driver/Src/stm32n6xx_hal_bsec.c ****     return HAL_ERROR;
1235:STM32Cube_FW_N6/Drivers/STM32N6xx_HAL_Driver/Src/stm32n6xx_hal_bsec.c ****   }
1236:STM32Cube_FW_N6/Drivers/STM32N6xx_HAL_Driver/Src/stm32n6xx_hal_bsec.c **** 
1237:STM32Cube_FW_N6/Drivers/STM32N6xx_HAL_Driver/Src/stm32n6xx_hal_bsec.c ****   /* Check the address of returned value and instance */
1238:STM32Cube_FW_N6/Drivers/STM32N6xx_HAL_Driver/Src/stm32n6xx_hal_bsec.c ****   if ((pIncrement == NULL) || (hbsec->Instance != BSEC))
 1852              		.loc 1 1238 3 is_stmt 1 view .LVU581
 1853              		.loc 1 1238 6 is_stmt 0 view .LVU582
 1854 0002 19B1     		cbz	r1, .L296
 1855              		.loc 1 1238 28 discriminator 1 view .LVU583
 1856 0004 0368     		ldr	r3, [r0]
 1857 0006 074A     		ldr	r2, .L305
 1858 0008 9342     		cmp	r3, r2
 1859 000a 03D0     		beq	.L297
 1860              	.L296:
1239:STM32Cube_FW_N6/Drivers/STM32N6xx_HAL_Driver/Src/stm32n6xx_hal_bsec.c ****   {
1240:STM32Cube_FW_N6/Drivers/STM32N6xx_HAL_Driver/Src/stm32n6xx_hal_bsec.c ****     hbsec->ErrorCode = HAL_BSEC_ERROR_INVALID_PARAM;
 1861              		.loc 1 1240 5 is_stmt 1 view .LVU584
 1862              		.loc 1 1240 22 is_stmt 0 view .LVU585
 1863 000c 0123     		movs	r3, #1
 1864 000e 4360     		str	r3, [r0, #4]
1241:STM32Cube_FW_N6/Drivers/STM32N6xx_HAL_Driver/Src/stm32n6xx_hal_bsec.c ****     return HAL_ERROR;
ARM GAS  C:\Users\DJESSOU\AppData\Local\Temp\ccqAzEsX.s 			page 61


 1865              		.loc 1 1241 5 is_stmt 1 view .LVU586
 1866              	.L295:
1234:STM32Cube_FW_N6/Drivers/STM32N6xx_HAL_Driver/Src/stm32n6xx_hal_bsec.c ****   }
 1867              		.loc 1 1234 12 is_stmt 0 view .LVU587
 1868 0010 0120     		movs	r0, #1
 1869              	.LVL152:
1234:STM32Cube_FW_N6/Drivers/STM32N6xx_HAL_Driver/Src/stm32n6xx_hal_bsec.c ****   }
 1870              		.loc 1 1234 12 view .LVU588
 1871 0012 7047     		bx	lr
 1872              	.LVL153:
 1873              	.L297:
1242:STM32Cube_FW_N6/Drivers/STM32N6xx_HAL_Driver/Src/stm32n6xx_hal_bsec.c ****   }
1243:STM32Cube_FW_N6/Drivers/STM32N6xx_HAL_Driver/Src/stm32n6xx_hal_bsec.c **** 
1244:STM32Cube_FW_N6/Drivers/STM32N6xx_HAL_Driver/Src/stm32n6xx_hal_bsec.c ****   /* Return the debug request */
1245:STM32Cube_FW_N6/Drivers/STM32N6xx_HAL_Driver/Src/stm32n6xx_hal_bsec.c ****   *pIncrement = (hbsec->Instance->NEXTLR & BSEC_NEXTLR_INCR);
 1874              		.loc 1 1245 3 is_stmt 1 view .LVU589
 1875              		.loc 1 1245 33 is_stmt 0 view .LVU590
 1876 0014 D3F89C3E 		ldr	r3, [r3, #3740]
1246:STM32Cube_FW_N6/Drivers/STM32N6xx_HAL_Driver/Src/stm32n6xx_hal_bsec.c **** 
1247:STM32Cube_FW_N6/Drivers/STM32N6xx_HAL_Driver/Src/stm32n6xx_hal_bsec.c ****   return HAL_OK;
 1877              		.loc 1 1247 10 view .LVU591
 1878 0018 0020     		movs	r0, #0
 1879              	.LVL154:
1245:STM32Cube_FW_N6/Drivers/STM32N6xx_HAL_Driver/Src/stm32n6xx_hal_bsec.c **** 
 1880              		.loc 1 1245 42 view .LVU592
 1881 001a 03F00303 		and	r3, r3, #3
1245:STM32Cube_FW_N6/Drivers/STM32N6xx_HAL_Driver/Src/stm32n6xx_hal_bsec.c **** 
 1882              		.loc 1 1245 15 view .LVU593
 1883 001e 0B60     		str	r3, [r1]
 1884              		.loc 1 1247 3 is_stmt 1 view .LVU594
1248:STM32Cube_FW_N6/Drivers/STM32N6xx_HAL_Driver/Src/stm32n6xx_hal_bsec.c **** }
 1885              		.loc 1 1248 1 is_stmt 0 view .LVU595
 1886 0020 7047     		bx	lr
 1887              	.L306:
 1888 0022 00BF     		.align	2
 1889              	.L305:
 1890 0024 00900056 		.word	1442877440
 1891              		.cfi_endproc
 1892              	.LFE881:
 1894              		.section	.text.HAL_BSEC_WriteScratchValue,"ax",%progbits
 1895              		.align	1
 1896              		.global	HAL_BSEC_WriteScratchValue
 1897              		.syntax unified
 1898              		.thumb
 1899              		.thumb_func
 1901              	HAL_BSEC_WriteScratchValue:
 1902              	.LVL155:
 1903              	.LFB882:
1249:STM32Cube_FW_N6/Drivers/STM32N6xx_HAL_Driver/Src/stm32n6xx_hal_bsec.c **** 
1250:STM32Cube_FW_N6/Drivers/STM32N6xx_HAL_Driver/Src/stm32n6xx_hal_bsec.c **** /**
1251:STM32Cube_FW_N6/Drivers/STM32N6xx_HAL_Driver/Src/stm32n6xx_hal_bsec.c ****   * @}
1252:STM32Cube_FW_N6/Drivers/STM32N6xx_HAL_Driver/Src/stm32n6xx_hal_bsec.c ****   */
1253:STM32Cube_FW_N6/Drivers/STM32N6xx_HAL_Driver/Src/stm32n6xx_hal_bsec.c **** 
1254:STM32Cube_FW_N6/Drivers/STM32N6xx_HAL_Driver/Src/stm32n6xx_hal_bsec.c **** /** @defgroup BSEC_Exported_Functions_Group6 Scratch registers management functions
1255:STM32Cube_FW_N6/Drivers/STM32N6xx_HAL_Driver/Src/stm32n6xx_hal_bsec.c ****  *  @brief   Scratch registers management functions
1256:STM32Cube_FW_N6/Drivers/STM32N6xx_HAL_Driver/Src/stm32n6xx_hal_bsec.c ****  *
1257:STM32Cube_FW_N6/Drivers/STM32N6xx_HAL_Driver/Src/stm32n6xx_hal_bsec.c **** @verbatim
ARM GAS  C:\Users\DJESSOU\AppData\Local\Temp\ccqAzEsX.s 			page 62


1258:STM32Cube_FW_N6/Drivers/STM32N6xx_HAL_Driver/Src/stm32n6xx_hal_bsec.c ****  ===============================================================================
1259:STM32Cube_FW_N6/Drivers/STM32N6xx_HAL_Driver/Src/stm32n6xx_hal_bsec.c ****                ##### Scratch registers management functions #####
1260:STM32Cube_FW_N6/Drivers/STM32N6xx_HAL_Driver/Src/stm32n6xx_hal_bsec.c ****  ===============================================================================
1261:STM32Cube_FW_N6/Drivers/STM32N6xx_HAL_Driver/Src/stm32n6xx_hal_bsec.c ****     [..]
1262:STM32Cube_FW_N6/Drivers/STM32N6xx_HAL_Driver/Src/stm32n6xx_hal_bsec.c ****   This subsection provides a set of functions allowing to manage the
1263:STM32Cube_FW_N6/Drivers/STM32N6xx_HAL_Driver/Src/stm32n6xx_hal_bsec.c ****   write once scratch and scratch registers.
1264:STM32Cube_FW_N6/Drivers/STM32N6xx_HAL_Driver/Src/stm32n6xx_hal_bsec.c **** 
1265:STM32Cube_FW_N6/Drivers/STM32N6xx_HAL_Driver/Src/stm32n6xx_hal_bsec.c **** @endverbatim
1266:STM32Cube_FW_N6/Drivers/STM32N6xx_HAL_Driver/Src/stm32n6xx_hal_bsec.c ****   * @{
1267:STM32Cube_FW_N6/Drivers/STM32N6xx_HAL_Driver/Src/stm32n6xx_hal_bsec.c ****   */
1268:STM32Cube_FW_N6/Drivers/STM32N6xx_HAL_Driver/Src/stm32n6xx_hal_bsec.c **** 
1269:STM32Cube_FW_N6/Drivers/STM32N6xx_HAL_Driver/Src/stm32n6xx_hal_bsec.c **** /**
1270:STM32Cube_FW_N6/Drivers/STM32N6xx_HAL_Driver/Src/stm32n6xx_hal_bsec.c ****   * @brief  Write a value in write once scratch or scratch register.
1271:STM32Cube_FW_N6/Drivers/STM32N6xx_HAL_Driver/Src/stm32n6xx_hal_bsec.c ****   *
1272:STM32Cube_FW_N6/Drivers/STM32N6xx_HAL_Driver/Src/stm32n6xx_hal_bsec.c ****   * @param  hbsec     BSEC handle
1273:STM32Cube_FW_N6/Drivers/STM32N6xx_HAL_Driver/Src/stm32n6xx_hal_bsec.c ****   * @param  pRegAddr  Register to be written
1274:STM32Cube_FW_N6/Drivers/STM32N6xx_HAL_Driver/Src/stm32n6xx_hal_bsec.c ****   * @param  Value     Value to be written, this parameter can be a value between 0 and 0xFFFFFFFFU
1275:STM32Cube_FW_N6/Drivers/STM32N6xx_HAL_Driver/Src/stm32n6xx_hal_bsec.c ****   *
1276:STM32Cube_FW_N6/Drivers/STM32N6xx_HAL_Driver/Src/stm32n6xx_hal_bsec.c ****   * @retval HAL_StatusTypeDef HAL Status
1277:STM32Cube_FW_N6/Drivers/STM32N6xx_HAL_Driver/Src/stm32n6xx_hal_bsec.c ****   */
1278:STM32Cube_FW_N6/Drivers/STM32N6xx_HAL_Driver/Src/stm32n6xx_hal_bsec.c **** HAL_StatusTypeDef HAL_BSEC_WriteScratchValue(BSEC_HandleTypeDef *hbsec, const BSEC_ScratchRegTypeDe
1279:STM32Cube_FW_N6/Drivers/STM32N6xx_HAL_Driver/Src/stm32n6xx_hal_bsec.c **** {
 1904              		.loc 1 1279 1 is_stmt 1 view -0
 1905              		.cfi_startproc
 1906              		@ args = 0, pretend = 0, frame = 0
 1907              		@ frame_needed = 0, uses_anonymous_args = 0
1280:STM32Cube_FW_N6/Drivers/STM32N6xx_HAL_Driver/Src/stm32n6xx_hal_bsec.c ****   /* Check the handle pointer */
