ARM GAS  C:\Users\DJESSOU\AppData\Local\Temp\cc6knbkx.s 			page 1


   1              		.arch armv8.1-m.main
   2              		.fpu fpv5-d16
   3              		.arch_extension dsp
   4              		.arch_extension fp
   5              		.arch_extension fp.dp
   6              		.arch_extension mve
   7              		.arch_extension mve.fp
   8              		.eabi_attribute 5, "cortex-m55"
   9              		.eabi_attribute 28, 1
  10              		.eabi_attribute 20, 1
  11              		.eabi_attribute 21, 1
  12              		.eabi_attribute 23, 3
  13              		.eabi_attribute 24, 1
  14              		.eabi_attribute 25, 1
  15              		.eabi_attribute 26, 1
  16              		.eabi_attribute 30, 4
  17              		.eabi_attribute 34, 1
  18              		.eabi_attribute 38, 1
  19              		.eabi_attribute 18, 4
  20              		.file	"stm32n6xx_hal_gpio.c"
  21              		.text
  22              	.Ltext0:
  23              		.cfi_sections	.debug_frame
  24              		.file 1 "STM32Cube_FW_N6/Drivers/STM32N6xx_HAL_Driver/Src/stm32n6xx_hal_gpio.c"
  25              		.section	.rodata.HAL_GPIO_Init.str1.1,"aMS",%progbits,1
  26              	.LC0:
  27 0000 53544D33 		.ascii	"STM32Cube_FW_N6/Drivers/STM32N6xx_HAL_Driver/Src/st"
  27      32437562 
  27      655F4657 
  27      5F4E362F 
  27      44726976 
  28 0033 6D33326E 		.ascii	"m32n6xx_hal_gpio.c\000"
  28      3678785F 
  28      68616C5F 
  28      6770696F 
  28      2E6300
  29              		.section	.text.HAL_GPIO_Init,"ax",%progbits
  30              		.align	1
  31              		.global	HAL_GPIO_Init
  32              		.syntax unified
  33              		.thumb
  34              		.thumb_func
  36              	HAL_GPIO_Init:
  37              	.LVL0:
  38              	.LFB862:
   1:STM32Cube_FW_N6/Drivers/STM32N6xx_HAL_Driver/Src/stm32n6xx_hal_gpio.c **** /**
   2:STM32Cube_FW_N6/Drivers/STM32N6xx_HAL_Driver/Src/stm32n6xx_hal_gpio.c ****   ******************************************************************************
   3:STM32Cube_FW_N6/Drivers/STM32N6xx_HAL_Driver/Src/stm32n6xx_hal_gpio.c ****   * @file    stm32n6xx_hal_gpio.c
   4:STM32Cube_FW_N6/Drivers/STM32N6xx_HAL_Driver/Src/stm32n6xx_hal_gpio.c ****   * @author  GPM Application Team
   5:STM32Cube_FW_N6/Drivers/STM32N6xx_HAL_Driver/Src/stm32n6xx_hal_gpio.c ****   * @brief   GPIO HAL module driver.
   6:STM32Cube_FW_N6/Drivers/STM32N6xx_HAL_Driver/Src/stm32n6xx_hal_gpio.c ****   *          This file provides firmware functions to manage the following
   7:STM32Cube_FW_N6/Drivers/STM32N6xx_HAL_Driver/Src/stm32n6xx_hal_gpio.c ****   *          functionalities of the General Purpose Input/Output (GPIO) peripheral:
   8:STM32Cube_FW_N6/Drivers/STM32N6xx_HAL_Driver/Src/stm32n6xx_hal_gpio.c ****   *           + Initialization and de-initialization functions
   9:STM32Cube_FW_N6/Drivers/STM32N6xx_HAL_Driver/Src/stm32n6xx_hal_gpio.c ****   *           + IO operation functions
  10:STM32Cube_FW_N6/Drivers/STM32N6xx_HAL_Driver/Src/stm32n6xx_hal_gpio.c ****   *
  11:STM32Cube_FW_N6/Drivers/STM32N6xx_HAL_Driver/Src/stm32n6xx_hal_gpio.c ****   ******************************************************************************
  12:STM32Cube_FW_N6/Drivers/STM32N6xx_HAL_Driver/Src/stm32n6xx_hal_gpio.c ****   * @attention
ARM GAS  C:\Users\DJESSOU\AppData\Local\Temp\cc6knbkx.s 			page 2


  13:STM32Cube_FW_N6/Drivers/STM32N6xx_HAL_Driver/Src/stm32n6xx_hal_gpio.c ****   *
  14:STM32Cube_FW_N6/Drivers/STM32N6xx_HAL_Driver/Src/stm32n6xx_hal_gpio.c ****   * Copyright (c) 2023 STMicroelectronics.
  15:STM32Cube_FW_N6/Drivers/STM32N6xx_HAL_Driver/Src/stm32n6xx_hal_gpio.c ****   * All rights reserved.
  16:STM32Cube_FW_N6/Drivers/STM32N6xx_HAL_Driver/Src/stm32n6xx_hal_gpio.c ****   *
  17:STM32Cube_FW_N6/Drivers/STM32N6xx_HAL_Driver/Src/stm32n6xx_hal_gpio.c ****   * This software is licensed under terms that can be found in the LICENSE file
  18:STM32Cube_FW_N6/Drivers/STM32N6xx_HAL_Driver/Src/stm32n6xx_hal_gpio.c ****   * in the root directory of this software component.
  19:STM32Cube_FW_N6/Drivers/STM32N6xx_HAL_Driver/Src/stm32n6xx_hal_gpio.c ****   * If no LICENSE file comes with this software, it is provided AS-IS.
  20:STM32Cube_FW_N6/Drivers/STM32N6xx_HAL_Driver/Src/stm32n6xx_hal_gpio.c ****   *
  21:STM32Cube_FW_N6/Drivers/STM32N6xx_HAL_Driver/Src/stm32n6xx_hal_gpio.c ****   ******************************************************************************
  22:STM32Cube_FW_N6/Drivers/STM32N6xx_HAL_Driver/Src/stm32n6xx_hal_gpio.c ****   @verbatim
  23:STM32Cube_FW_N6/Drivers/STM32N6xx_HAL_Driver/Src/stm32n6xx_hal_gpio.c ****   ==============================================================================
  24:STM32Cube_FW_N6/Drivers/STM32N6xx_HAL_Driver/Src/stm32n6xx_hal_gpio.c ****                     ##### GPIO Peripheral features #####
  25:STM32Cube_FW_N6/Drivers/STM32N6xx_HAL_Driver/Src/stm32n6xx_hal_gpio.c ****   ==============================================================================
  26:STM32Cube_FW_N6/Drivers/STM32N6xx_HAL_Driver/Src/stm32n6xx_hal_gpio.c ****   [..]
  27:STM32Cube_FW_N6/Drivers/STM32N6xx_HAL_Driver/Src/stm32n6xx_hal_gpio.c ****     (+) Each port bit of the general-purpose I/O (GPIO) ports can be individually
  28:STM32Cube_FW_N6/Drivers/STM32N6xx_HAL_Driver/Src/stm32n6xx_hal_gpio.c ****         configured by software in several modes:
  29:STM32Cube_FW_N6/Drivers/STM32N6xx_HAL_Driver/Src/stm32n6xx_hal_gpio.c ****         (++) Input mode
  30:STM32Cube_FW_N6/Drivers/STM32N6xx_HAL_Driver/Src/stm32n6xx_hal_gpio.c ****         (++) Analog mode
  31:STM32Cube_FW_N6/Drivers/STM32N6xx_HAL_Driver/Src/stm32n6xx_hal_gpio.c ****         (++) Output mode
  32:STM32Cube_FW_N6/Drivers/STM32N6xx_HAL_Driver/Src/stm32n6xx_hal_gpio.c ****         (++) Alternate function mode
  33:STM32Cube_FW_N6/Drivers/STM32N6xx_HAL_Driver/Src/stm32n6xx_hal_gpio.c ****         (++) External interrupt/event lines
  34:STM32Cube_FW_N6/Drivers/STM32N6xx_HAL_Driver/Src/stm32n6xx_hal_gpio.c **** 
  35:STM32Cube_FW_N6/Drivers/STM32N6xx_HAL_Driver/Src/stm32n6xx_hal_gpio.c ****     (+) During and just after reset, the alternate functions and external interrupt
  36:STM32Cube_FW_N6/Drivers/STM32N6xx_HAL_Driver/Src/stm32n6xx_hal_gpio.c ****         lines are not active and the I/O ports are configured in analog mode.
  37:STM32Cube_FW_N6/Drivers/STM32N6xx_HAL_Driver/Src/stm32n6xx_hal_gpio.c **** 
  38:STM32Cube_FW_N6/Drivers/STM32N6xx_HAL_Driver/Src/stm32n6xx_hal_gpio.c ****     (+) All GPIO pins have weak internal pull-up and pull-down resistors, which can be
  39:STM32Cube_FW_N6/Drivers/STM32N6xx_HAL_Driver/Src/stm32n6xx_hal_gpio.c ****         activated or not.
  40:STM32Cube_FW_N6/Drivers/STM32N6xx_HAL_Driver/Src/stm32n6xx_hal_gpio.c **** 
  41:STM32Cube_FW_N6/Drivers/STM32N6xx_HAL_Driver/Src/stm32n6xx_hal_gpio.c ****     (+) In Output or Alternate mode, each IO can be configured on open-drain or push-pull
  42:STM32Cube_FW_N6/Drivers/STM32N6xx_HAL_Driver/Src/stm32n6xx_hal_gpio.c ****         type and the IO speed can be selected depending on the VDD value.
  43:STM32Cube_FW_N6/Drivers/STM32N6xx_HAL_Driver/Src/stm32n6xx_hal_gpio.c **** 
  44:STM32Cube_FW_N6/Drivers/STM32N6xx_HAL_Driver/Src/stm32n6xx_hal_gpio.c ****     (+) The microcontroller IO pins are connected to onboard peripherals/modules through a
  45:STM32Cube_FW_N6/Drivers/STM32N6xx_HAL_Driver/Src/stm32n6xx_hal_gpio.c ****         multiplexer that allows only one peripheral alternate function (AF) connected
  46:STM32Cube_FW_N6/Drivers/STM32N6xx_HAL_Driver/Src/stm32n6xx_hal_gpio.c ****         to an IO pin at a time. In this way, there can be no conflict between peripherals
  47:STM32Cube_FW_N6/Drivers/STM32N6xx_HAL_Driver/Src/stm32n6xx_hal_gpio.c ****         sharing the same IO pin.
  48:STM32Cube_FW_N6/Drivers/STM32N6xx_HAL_Driver/Src/stm32n6xx_hal_gpio.c **** 
  49:STM32Cube_FW_N6/Drivers/STM32N6xx_HAL_Driver/Src/stm32n6xx_hal_gpio.c ****     (+) All ports have external interrupt/event capability. To use external interrupt
  50:STM32Cube_FW_N6/Drivers/STM32N6xx_HAL_Driver/Src/stm32n6xx_hal_gpio.c ****         lines, the port must be configured in input mode. All available GPIO pins are
  51:STM32Cube_FW_N6/Drivers/STM32N6xx_HAL_Driver/Src/stm32n6xx_hal_gpio.c ****         connected to the 16 external interrupt/event lines from EXTI0 to EXTI15.
  52:STM32Cube_FW_N6/Drivers/STM32N6xx_HAL_Driver/Src/stm32n6xx_hal_gpio.c **** 
  53:STM32Cube_FW_N6/Drivers/STM32N6xx_HAL_Driver/Src/stm32n6xx_hal_gpio.c ****     (+) The external interrupt/event controller consists of up to 73 edge detectors
  54:STM32Cube_FW_N6/Drivers/STM32N6xx_HAL_Driver/Src/stm32n6xx_hal_gpio.c ****         (16 lines are connected to GPIO) for generating event/interrupt requests (each
  55:STM32Cube_FW_N6/Drivers/STM32N6xx_HAL_Driver/Src/stm32n6xx_hal_gpio.c ****         input line can be independently configured to select the type (interrupt or event)
  56:STM32Cube_FW_N6/Drivers/STM32N6xx_HAL_Driver/Src/stm32n6xx_hal_gpio.c ****         and the corresponding trigger event (rising or falling or both). Each line can
  57:STM32Cube_FW_N6/Drivers/STM32N6xx_HAL_Driver/Src/stm32n6xx_hal_gpio.c ****         also be masked independently.
  58:STM32Cube_FW_N6/Drivers/STM32N6xx_HAL_Driver/Src/stm32n6xx_hal_gpio.c **** 
  59:STM32Cube_FW_N6/Drivers/STM32N6xx_HAL_Driver/Src/stm32n6xx_hal_gpio.c ****                      ##### How to use this driver #####
  60:STM32Cube_FW_N6/Drivers/STM32N6xx_HAL_Driver/Src/stm32n6xx_hal_gpio.c ****   ==============================================================================
  61:STM32Cube_FW_N6/Drivers/STM32N6xx_HAL_Driver/Src/stm32n6xx_hal_gpio.c ****   [..]
  62:STM32Cube_FW_N6/Drivers/STM32N6xx_HAL_Driver/Src/stm32n6xx_hal_gpio.c ****     (#) Enable the GPIO AHB clock using the following function: __HAL_RCC_GPIOx_CLK_ENABLE().
  63:STM32Cube_FW_N6/Drivers/STM32N6xx_HAL_Driver/Src/stm32n6xx_hal_gpio.c **** 
  64:STM32Cube_FW_N6/Drivers/STM32N6xx_HAL_Driver/Src/stm32n6xx_hal_gpio.c ****     (#) Configure the GPIO pin(s) using HAL_GPIO_Init().
  65:STM32Cube_FW_N6/Drivers/STM32N6xx_HAL_Driver/Src/stm32n6xx_hal_gpio.c ****         (++) Configure the IO mode using "Mode" member from GPIO_InitTypeDef structure
  66:STM32Cube_FW_N6/Drivers/STM32N6xx_HAL_Driver/Src/stm32n6xx_hal_gpio.c ****         (++) Activate Pull-up, Pull-down resistor using "Pull" member from GPIO_InitTypeDef
  67:STM32Cube_FW_N6/Drivers/STM32N6xx_HAL_Driver/Src/stm32n6xx_hal_gpio.c ****              structure.
  68:STM32Cube_FW_N6/Drivers/STM32N6xx_HAL_Driver/Src/stm32n6xx_hal_gpio.c ****         (++) In case of Output or alternate function mode selection: the speed is
  69:STM32Cube_FW_N6/Drivers/STM32N6xx_HAL_Driver/Src/stm32n6xx_hal_gpio.c ****              configured through "Speed" member from GPIO_InitTypeDef structure.
ARM GAS  C:\Users\DJESSOU\AppData\Local\Temp\cc6knbkx.s 			page 3


  70:STM32Cube_FW_N6/Drivers/STM32N6xx_HAL_Driver/Src/stm32n6xx_hal_gpio.c ****         (++) In alternate mode is selection, the alternate function connected to the IO
  71:STM32Cube_FW_N6/Drivers/STM32N6xx_HAL_Driver/Src/stm32n6xx_hal_gpio.c ****              is configured through "Alternate" member from GPIO_InitTypeDef structure.
  72:STM32Cube_FW_N6/Drivers/STM32N6xx_HAL_Driver/Src/stm32n6xx_hal_gpio.c ****         (++) Analog mode is required when a pin is to be used as ADC channel
  73:STM32Cube_FW_N6/Drivers/STM32N6xx_HAL_Driver/Src/stm32n6xx_hal_gpio.c ****              or DAC output.
  74:STM32Cube_FW_N6/Drivers/STM32N6xx_HAL_Driver/Src/stm32n6xx_hal_gpio.c ****         (++) In case of external interrupt/event selection the "Mode" member from
  75:STM32Cube_FW_N6/Drivers/STM32N6xx_HAL_Driver/Src/stm32n6xx_hal_gpio.c ****              GPIO_InitTypeDef structure select the type (interrupt or event) and
  76:STM32Cube_FW_N6/Drivers/STM32N6xx_HAL_Driver/Src/stm32n6xx_hal_gpio.c ****              the corresponding trigger event (rising or falling or both).
  77:STM32Cube_FW_N6/Drivers/STM32N6xx_HAL_Driver/Src/stm32n6xx_hal_gpio.c **** 
  78:STM32Cube_FW_N6/Drivers/STM32N6xx_HAL_Driver/Src/stm32n6xx_hal_gpio.c ****     (#) In case of external interrupt/event mode selection, configure NVIC IRQ priority
  79:STM32Cube_FW_N6/Drivers/STM32N6xx_HAL_Driver/Src/stm32n6xx_hal_gpio.c ****         mapped to the EXTI line using HAL_NVIC_SetPriority() and enable it using
  80:STM32Cube_FW_N6/Drivers/STM32N6xx_HAL_Driver/Src/stm32n6xx_hal_gpio.c ****         HAL_NVIC_EnableIRQ().
  81:STM32Cube_FW_N6/Drivers/STM32N6xx_HAL_Driver/Src/stm32n6xx_hal_gpio.c **** 
  82:STM32Cube_FW_N6/Drivers/STM32N6xx_HAL_Driver/Src/stm32n6xx_hal_gpio.c ****     (#) To get the level of a pin configured in input mode use HAL_GPIO_ReadPin().
  83:STM32Cube_FW_N6/Drivers/STM32N6xx_HAL_Driver/Src/stm32n6xx_hal_gpio.c **** 
  84:STM32Cube_FW_N6/Drivers/STM32N6xx_HAL_Driver/Src/stm32n6xx_hal_gpio.c ****     (#) To set/reset the level of a pin configured in output mode use
  85:STM32Cube_FW_N6/Drivers/STM32N6xx_HAL_Driver/Src/stm32n6xx_hal_gpio.c ****         HAL_GPIO_WritePin()/HAL_GPIO_TogglePin().
  86:STM32Cube_FW_N6/Drivers/STM32N6xx_HAL_Driver/Src/stm32n6xx_hal_gpio.c **** 
  87:STM32Cube_FW_N6/Drivers/STM32N6xx_HAL_Driver/Src/stm32n6xx_hal_gpio.c ****     (#) To set the level of several pins and reset level of several other pins in
  88:STM32Cube_FW_N6/Drivers/STM32N6xx_HAL_Driver/Src/stm32n6xx_hal_gpio.c ****         same cycle, use HAL_GPIO_WriteMultipleStatePin().
  89:STM32Cube_FW_N6/Drivers/STM32N6xx_HAL_Driver/Src/stm32n6xx_hal_gpio.c **** 
  90:STM32Cube_FW_N6/Drivers/STM32N6xx_HAL_Driver/Src/stm32n6xx_hal_gpio.c ****     (#) To lock pin configuration until next reset use HAL_GPIO_LockPin().
  91:STM32Cube_FW_N6/Drivers/STM32N6xx_HAL_Driver/Src/stm32n6xx_hal_gpio.c **** 
  92:STM32Cube_FW_N6/Drivers/STM32N6xx_HAL_Driver/Src/stm32n6xx_hal_gpio.c ****     (#) During and just after reset, the alternate functions are not
  93:STM32Cube_FW_N6/Drivers/STM32N6xx_HAL_Driver/Src/stm32n6xx_hal_gpio.c ****         active and the GPIO pins are configured in analog mode (except JTAG
  94:STM32Cube_FW_N6/Drivers/STM32N6xx_HAL_Driver/Src/stm32n6xx_hal_gpio.c ****         pins).
  95:STM32Cube_FW_N6/Drivers/STM32N6xx_HAL_Driver/Src/stm32n6xx_hal_gpio.c **** 
  96:STM32Cube_FW_N6/Drivers/STM32N6xx_HAL_Driver/Src/stm32n6xx_hal_gpio.c ****     (#) The LSE oscillator pins OSC32_IN and OSC32_OUT can be used as general purpose
  97:STM32Cube_FW_N6/Drivers/STM32N6xx_HAL_Driver/Src/stm32n6xx_hal_gpio.c ****         (PC14 and PC15, respectively) when the LSE oscillator is off. The LSE has
  98:STM32Cube_FW_N6/Drivers/STM32N6xx_HAL_Driver/Src/stm32n6xx_hal_gpio.c ****         priority over the GPIO function.
  99:STM32Cube_FW_N6/Drivers/STM32N6xx_HAL_Driver/Src/stm32n6xx_hal_gpio.c **** 
 100:STM32Cube_FW_N6/Drivers/STM32N6xx_HAL_Driver/Src/stm32n6xx_hal_gpio.c ****     (#) The HSE oscillator pins OSC_IN/OSC_OUT can be used as
 101:STM32Cube_FW_N6/Drivers/STM32N6xx_HAL_Driver/Src/stm32n6xx_hal_gpio.c ****         general purpose PH0 and PH1, respectively, when the HSE oscillator is off.
 102:STM32Cube_FW_N6/Drivers/STM32N6xx_HAL_Driver/Src/stm32n6xx_hal_gpio.c ****         The HSE has priority over the GPIO function.
 103:STM32Cube_FW_N6/Drivers/STM32N6xx_HAL_Driver/Src/stm32n6xx_hal_gpio.c **** 
 104:STM32Cube_FW_N6/Drivers/STM32N6xx_HAL_Driver/Src/stm32n6xx_hal_gpio.c ****   @endverbatim
 105:STM32Cube_FW_N6/Drivers/STM32N6xx_HAL_Driver/Src/stm32n6xx_hal_gpio.c ****   */
 106:STM32Cube_FW_N6/Drivers/STM32N6xx_HAL_Driver/Src/stm32n6xx_hal_gpio.c **** 
 107:STM32Cube_FW_N6/Drivers/STM32N6xx_HAL_Driver/Src/stm32n6xx_hal_gpio.c **** /* Includes ------------------------------------------------------------------*/
 108:STM32Cube_FW_N6/Drivers/STM32N6xx_HAL_Driver/Src/stm32n6xx_hal_gpio.c **** #include "stm32n6xx_hal.h"
 109:STM32Cube_FW_N6/Drivers/STM32N6xx_HAL_Driver/Src/stm32n6xx_hal_gpio.c **** 
 110:STM32Cube_FW_N6/Drivers/STM32N6xx_HAL_Driver/Src/stm32n6xx_hal_gpio.c **** /** @addtogroup STM32N6xx_HAL_Driver
 111:STM32Cube_FW_N6/Drivers/STM32N6xx_HAL_Driver/Src/stm32n6xx_hal_gpio.c ****   * @{
 112:STM32Cube_FW_N6/Drivers/STM32N6xx_HAL_Driver/Src/stm32n6xx_hal_gpio.c ****   */
 113:STM32Cube_FW_N6/Drivers/STM32N6xx_HAL_Driver/Src/stm32n6xx_hal_gpio.c **** 
 114:STM32Cube_FW_N6/Drivers/STM32N6xx_HAL_Driver/Src/stm32n6xx_hal_gpio.c **** /** @addtogroup GPIO
 115:STM32Cube_FW_N6/Drivers/STM32N6xx_HAL_Driver/Src/stm32n6xx_hal_gpio.c ****   * @{
 116:STM32Cube_FW_N6/Drivers/STM32N6xx_HAL_Driver/Src/stm32n6xx_hal_gpio.c ****   */
 117:STM32Cube_FW_N6/Drivers/STM32N6xx_HAL_Driver/Src/stm32n6xx_hal_gpio.c **** /** MISRA C:2012 deviation rule has been granted for following rules:
 118:STM32Cube_FW_N6/Drivers/STM32N6xx_HAL_Driver/Src/stm32n6xx_hal_gpio.c ****   * Rule-12.2 - Medium: RHS argument is in interval [0,INF] which is out of
 119:STM32Cube_FW_N6/Drivers/STM32N6xx_HAL_Driver/Src/stm32n6xx_hal_gpio.c ****   * range of the shift operator in following API :
 120:STM32Cube_FW_N6/Drivers/STM32N6xx_HAL_Driver/Src/stm32n6xx_hal_gpio.c ****   * HAL_GPIO_Init
 121:STM32Cube_FW_N6/Drivers/STM32N6xx_HAL_Driver/Src/stm32n6xx_hal_gpio.c ****   * HAL_GPIO_DeInit
 122:STM32Cube_FW_N6/Drivers/STM32N6xx_HAL_Driver/Src/stm32n6xx_hal_gpio.c ****   */
 123:STM32Cube_FW_N6/Drivers/STM32N6xx_HAL_Driver/Src/stm32n6xx_hal_gpio.c **** 
 124:STM32Cube_FW_N6/Drivers/STM32N6xx_HAL_Driver/Src/stm32n6xx_hal_gpio.c **** #ifdef HAL_GPIO_MODULE_ENABLED
 125:STM32Cube_FW_N6/Drivers/STM32N6xx_HAL_Driver/Src/stm32n6xx_hal_gpio.c **** 
 126:STM32Cube_FW_N6/Drivers/STM32N6xx_HAL_Driver/Src/stm32n6xx_hal_gpio.c **** /* Private typedef -----------------------------------------------------------*/
ARM GAS  C:\Users\DJESSOU\AppData\Local\Temp\cc6knbkx.s 			page 4


 127:STM32Cube_FW_N6/Drivers/STM32N6xx_HAL_Driver/Src/stm32n6xx_hal_gpio.c **** /* Private defines ------------------------------------------------------------*/
 128:STM32Cube_FW_N6/Drivers/STM32N6xx_HAL_Driver/Src/stm32n6xx_hal_gpio.c **** /** @addtogroup GPIO_Private_Constants
 129:STM32Cube_FW_N6/Drivers/STM32N6xx_HAL_Driver/Src/stm32n6xx_hal_gpio.c ****   * @{
 130:STM32Cube_FW_N6/Drivers/STM32N6xx_HAL_Driver/Src/stm32n6xx_hal_gpio.c ****   */
 131:STM32Cube_FW_N6/Drivers/STM32N6xx_HAL_Driver/Src/stm32n6xx_hal_gpio.c **** #define GPIO_NUMBER           (16u)
 132:STM32Cube_FW_N6/Drivers/STM32N6xx_HAL_Driver/Src/stm32n6xx_hal_gpio.c **** /**
 133:STM32Cube_FW_N6/Drivers/STM32N6xx_HAL_Driver/Src/stm32n6xx_hal_gpio.c ****   * @}
 134:STM32Cube_FW_N6/Drivers/STM32N6xx_HAL_Driver/Src/stm32n6xx_hal_gpio.c ****   */
 135:STM32Cube_FW_N6/Drivers/STM32N6xx_HAL_Driver/Src/stm32n6xx_hal_gpio.c **** 
 136:STM32Cube_FW_N6/Drivers/STM32N6xx_HAL_Driver/Src/stm32n6xx_hal_gpio.c **** /* Private macros ------------------------------------------------------------*/
 137:STM32Cube_FW_N6/Drivers/STM32N6xx_HAL_Driver/Src/stm32n6xx_hal_gpio.c **** /* Private variables ---------------------------------------------------------*/
 138:STM32Cube_FW_N6/Drivers/STM32N6xx_HAL_Driver/Src/stm32n6xx_hal_gpio.c **** /* Private function prototypes -----------------------------------------------*/
 139:STM32Cube_FW_N6/Drivers/STM32N6xx_HAL_Driver/Src/stm32n6xx_hal_gpio.c **** /* Exported functions --------------------------------------------------------*/
 140:STM32Cube_FW_N6/Drivers/STM32N6xx_HAL_Driver/Src/stm32n6xx_hal_gpio.c **** 
 141:STM32Cube_FW_N6/Drivers/STM32N6xx_HAL_Driver/Src/stm32n6xx_hal_gpio.c **** /** @addtogroup GPIO_Exported_Functions
 142:STM32Cube_FW_N6/Drivers/STM32N6xx_HAL_Driver/Src/stm32n6xx_hal_gpio.c ****   * @{
 143:STM32Cube_FW_N6/Drivers/STM32N6xx_HAL_Driver/Src/stm32n6xx_hal_gpio.c ****   */
 144:STM32Cube_FW_N6/Drivers/STM32N6xx_HAL_Driver/Src/stm32n6xx_hal_gpio.c **** 
 145:STM32Cube_FW_N6/Drivers/STM32N6xx_HAL_Driver/Src/stm32n6xx_hal_gpio.c **** /** @addtogroup GPIO_Exported_Functions_Group1
 146:STM32Cube_FW_N6/Drivers/STM32N6xx_HAL_Driver/Src/stm32n6xx_hal_gpio.c ****   *  @brief    Initialization and Configuration functions
 147:STM32Cube_FW_N6/Drivers/STM32N6xx_HAL_Driver/Src/stm32n6xx_hal_gpio.c ****   *
 148:STM32Cube_FW_N6/Drivers/STM32N6xx_HAL_Driver/Src/stm32n6xx_hal_gpio.c **** @verbatim
 149:STM32Cube_FW_N6/Drivers/STM32N6xx_HAL_Driver/Src/stm32n6xx_hal_gpio.c ****  ===============================================================================
 150:STM32Cube_FW_N6/Drivers/STM32N6xx_HAL_Driver/Src/stm32n6xx_hal_gpio.c ****               ##### Initialization and de-initialization functions #####
 151:STM32Cube_FW_N6/Drivers/STM32N6xx_HAL_Driver/Src/stm32n6xx_hal_gpio.c ****  ===============================================================================
 152:STM32Cube_FW_N6/Drivers/STM32N6xx_HAL_Driver/Src/stm32n6xx_hal_gpio.c **** 
 153:STM32Cube_FW_N6/Drivers/STM32N6xx_HAL_Driver/Src/stm32n6xx_hal_gpio.c **** @endverbatim
 154:STM32Cube_FW_N6/Drivers/STM32N6xx_HAL_Driver/Src/stm32n6xx_hal_gpio.c ****   * @{
 155:STM32Cube_FW_N6/Drivers/STM32N6xx_HAL_Driver/Src/stm32n6xx_hal_gpio.c ****   */
 156:STM32Cube_FW_N6/Drivers/STM32N6xx_HAL_Driver/Src/stm32n6xx_hal_gpio.c **** 
 157:STM32Cube_FW_N6/Drivers/STM32N6xx_HAL_Driver/Src/stm32n6xx_hal_gpio.c **** /**
 158:STM32Cube_FW_N6/Drivers/STM32N6xx_HAL_Driver/Src/stm32n6xx_hal_gpio.c ****   * @brief  Initialize the GPIOx peripheral according to the specified parameters in the GPIO_Init.
 159:STM32Cube_FW_N6/Drivers/STM32N6xx_HAL_Driver/Src/stm32n6xx_hal_gpio.c ****   * @note   If GPIOx peripheral pin is used in EXTI_MODE and the pin is secure/privilege, it is up
 160:STM32Cube_FW_N6/Drivers/STM32N6xx_HAL_Driver/Src/stm32n6xx_hal_gpio.c ****   *         to the application to insure that the corresponding EXTI line is set secure/privilege.
 161:STM32Cube_FW_N6/Drivers/STM32N6xx_HAL_Driver/Src/stm32n6xx_hal_gpio.c ****   * @param  GPIOx where x can be (A..H and N..Q) to select the GPIO peripheral for STM32N6xx family
 162:STM32Cube_FW_N6/Drivers/STM32N6xx_HAL_Driver/Src/stm32n6xx_hal_gpio.c ****   * @param  GPIO_Init pointer to a GPIO_InitTypeDef structure that contains
 163:STM32Cube_FW_N6/Drivers/STM32N6xx_HAL_Driver/Src/stm32n6xx_hal_gpio.c ****   *         the configuration information for the specified GPIO peripheral.
 164:STM32Cube_FW_N6/Drivers/STM32N6xx_HAL_Driver/Src/stm32n6xx_hal_gpio.c ****   * @retval None
 165:STM32Cube_FW_N6/Drivers/STM32N6xx_HAL_Driver/Src/stm32n6xx_hal_gpio.c ****   */
 166:STM32Cube_FW_N6/Drivers/STM32N6xx_HAL_Driver/Src/stm32n6xx_hal_gpio.c **** void HAL_GPIO_Init(GPIO_TypeDef  *GPIOx, const GPIO_InitTypeDef *GPIO_Init)
 167:STM32Cube_FW_N6/Drivers/STM32N6xx_HAL_Driver/Src/stm32n6xx_hal_gpio.c **** {
  39              		.loc 1 167 1 view -0
  40              		.cfi_startproc
  41              		@ args = 0, pretend = 0, frame = 0
  42              		@ frame_needed = 0, uses_anonymous_args = 0
 168:STM32Cube_FW_N6/Drivers/STM32N6xx_HAL_Driver/Src/stm32n6xx_hal_gpio.c ****   uint32_t position = 0x00u;
  43              		.loc 1 168 3 view .LVU1
 169:STM32Cube_FW_N6/Drivers/STM32N6xx_HAL_Driver/Src/stm32n6xx_hal_gpio.c ****   uint32_t iocurrent;
  44              		.loc 1 169 3 view .LVU2
 170:STM32Cube_FW_N6/Drivers/STM32N6xx_HAL_Driver/Src/stm32n6xx_hal_gpio.c ****   uint32_t temp;
  45              		.loc 1 170 3 view .LVU3
 171:STM32Cube_FW_N6/Drivers/STM32N6xx_HAL_Driver/Src/stm32n6xx_hal_gpio.c **** 
 172:STM32Cube_FW_N6/Drivers/STM32N6xx_HAL_Driver/Src/stm32n6xx_hal_gpio.c ****   /* Check the parameters */
 173:STM32Cube_FW_N6/Drivers/STM32N6xx_HAL_Driver/Src/stm32n6xx_hal_gpio.c ****   assert_param(IS_GPIO_ALL_INSTANCE(GPIOx));
  46              		.loc 1 173 3 view .LVU4
 167:STM32Cube_FW_N6/Drivers/STM32N6xx_HAL_Driver/Src/stm32n6xx_hal_gpio.c ****   uint32_t position = 0x00u;
  47              		.loc 1 167 1 is_stmt 0 view .LVU5
ARM GAS  C:\Users\DJESSOU\AppData\Local\Temp\cc6knbkx.s 			page 5


  48 0000 2DE9F84F 		push	{r3, r4, r5, r6, r7, r8, r9, r10, fp, lr}
  49              		.cfi_def_cfa_offset 40
  50              		.cfi_offset 3, -40
  51              		.cfi_offset 4, -36
  52              		.cfi_offset 5, -32
  53              		.cfi_offset 6, -28
  54              		.cfi_offset 7, -24
  55              		.cfi_offset 8, -20
  56              		.cfi_offset 9, -16
  57              		.cfi_offset 10, -12
  58              		.cfi_offset 11, -8
  59              		.cfi_offset 14, -4
  60              		.loc 1 173 3 view .LVU6
  61 0004 474B     		ldr	r3, .L66
 167:STM32Cube_FW_N6/Drivers/STM32N6xx_HAL_Driver/Src/stm32n6xx_hal_gpio.c ****   uint32_t position = 0x00u;
  62              		.loc 1 167 1 view .LVU7
  63 0006 0446     		mov	r4, r0
  64              		.loc 1 173 3 view .LVU8
  65 0008 9842     		cmp	r0, r3
 167:STM32Cube_FW_N6/Drivers/STM32N6xx_HAL_Driver/Src/stm32n6xx_hal_gpio.c ****   uint32_t position = 0x00u;
  66              		.loc 1 167 1 view .LVU9
  67 000a 0E46     		mov	r6, r1
  68              		.loc 1 173 3 view .LVU10
  69 000c 54D0     		beq	.L2
  70              		.loc 1 173 3 discriminator 1 view .LVU11
  71 000e 03F17043 		add	r3, r3, #-268435456
  72 0012 9842     		cmp	r0, r3
  73 0014 50D0     		beq	.L2
  74              		.loc 1 173 3 discriminator 2 view .LVU12
  75 0016 444B     		ldr	r3, .L66+4
  76 0018 9842     		cmp	r0, r3
  77 001a 4DD0     		beq	.L2
  78              		.loc 1 173 3 discriminator 3 view .LVU13
  79 001c 03F17043 		add	r3, r3, #-268435456
  80 0020 9842     		cmp	r0, r3
  81 0022 49D0     		beq	.L2
  82              		.loc 1 173 3 discriminator 4 view .LVU14
  83 0024 414B     		ldr	r3, .L66+8
  84 0026 9842     		cmp	r0, r3
  85 0028 46D0     		beq	.L2
  86              		.loc 1 173 3 discriminator 5 view .LVU15
  87 002a 03F17043 		add	r3, r3, #-268435456
  88 002e 9842     		cmp	r0, r3
  89 0030 42D0     		beq	.L2
  90              		.loc 1 173 3 discriminator 6 view .LVU16
  91 0032 3F4B     		ldr	r3, .L66+12
  92 0034 9842     		cmp	r0, r3
  93 0036 3FD0     		beq	.L2
  94              		.loc 1 173 3 discriminator 7 view .LVU17
  95 0038 03F17043 		add	r3, r3, #-268435456
  96 003c 9842     		cmp	r0, r3
  97 003e 3BD0     		beq	.L2
  98              		.loc 1 173 3 discriminator 8 view .LVU18
  99 0040 3C4B     		ldr	r3, .L66+16
 100 0042 9842     		cmp	r0, r3
 101 0044 38D0     		beq	.L2
 102              		.loc 1 173 3 discriminator 9 view .LVU19
ARM GAS  C:\Users\DJESSOU\AppData\Local\Temp\cc6knbkx.s 			page 6


 103 0046 03F17043 		add	r3, r3, #-268435456
 104 004a 9842     		cmp	r0, r3
 105 004c 34D0     		beq	.L2
 106              		.loc 1 173 3 discriminator 10 view .LVU20
 107 004e 3A4B     		ldr	r3, .L66+20
 108 0050 9842     		cmp	r0, r3
 109 0052 31D0     		beq	.L2
 110              		.loc 1 173 3 discriminator 11 view .LVU21
 111 0054 03F17043 		add	r3, r3, #-268435456
 112 0058 9842     		cmp	r0, r3
 113 005a 2DD0     		beq	.L2
 114              		.loc 1 173 3 discriminator 12 view .LVU22
 115 005c 374B     		ldr	r3, .L66+24
 116 005e 9842     		cmp	r0, r3
 117 0060 2AD0     		beq	.L2
 118              		.loc 1 173 3 discriminator 13 view .LVU23
 119 0062 03F17043 		add	r3, r3, #-268435456
 120 0066 9842     		cmp	r0, r3
 121 0068 26D0     		beq	.L2
 122              		.loc 1 173 3 discriminator 14 view .LVU24
 123 006a 354B     		ldr	r3, .L66+28
 124 006c 9842     		cmp	r0, r3
 125 006e 23D0     		beq	.L2
 126              		.loc 1 173 3 discriminator 15 view .LVU25
 127 0070 03F17043 		add	r3, r3, #-268435456
 128 0074 9842     		cmp	r0, r3
 129 0076 1FD0     		beq	.L2
 130              		.loc 1 173 3 discriminator 16 view .LVU26
 131 0078 324B     		ldr	r3, .L66+32
 132 007a 9842     		cmp	r0, r3
 133 007c 1CD0     		beq	.L2
 134              		.loc 1 173 3 discriminator 17 view .LVU27
 135 007e 03F17043 		add	r3, r3, #-268435456
 136 0082 9842     		cmp	r0, r3
 137 0084 18D0     		beq	.L2
 138              		.loc 1 173 3 discriminator 18 view .LVU28
 139 0086 304B     		ldr	r3, .L66+36
 140 0088 9842     		cmp	r0, r3
 141 008a 15D0     		beq	.L2
 142              		.loc 1 173 3 discriminator 19 view .LVU29
 143 008c 03F17043 		add	r3, r3, #-268435456
 144 0090 9842     		cmp	r0, r3
 145 0092 11D0     		beq	.L2
 146              		.loc 1 173 3 discriminator 20 view .LVU30
 147 0094 2D4B     		ldr	r3, .L66+40
 148 0096 9842     		cmp	r0, r3
 149 0098 0ED0     		beq	.L2
 150              		.loc 1 173 3 discriminator 21 view .LVU31
 151 009a 03F17043 		add	r3, r3, #-268435456
 152 009e 9842     		cmp	r0, r3
 153 00a0 0AD0     		beq	.L2
 154              		.loc 1 173 3 discriminator 22 view .LVU32
 155 00a2 2B4B     		ldr	r3, .L66+44
 156 00a4 9842     		cmp	r0, r3
 157 00a6 07D0     		beq	.L2
 158              		.loc 1 173 3 discriminator 23 view .LVU33
 159 00a8 03F17043 		add	r3, r3, #-268435456
ARM GAS  C:\Users\DJESSOU\AppData\Local\Temp\cc6knbkx.s 			page 7


 160 00ac 9842     		cmp	r0, r3
 161 00ae 03D0     		beq	.L2
 162              		.loc 1 173 3 discriminator 24 view .LVU34
 163 00b0 AD21     		movs	r1, #173
 164              	.LVL1:
 165              		.loc 1 173 3 discriminator 24 view .LVU35
 166 00b2 2848     		ldr	r0, .L66+48
 167              	.LVL2:
 168              		.loc 1 173 3 discriminator 24 view .LVU36
 169 00b4 FFF7FEFF 		bl	assert_failed
 170              	.LVL3:
 171              	.L2:
 174:STM32Cube_FW_N6/Drivers/STM32N6xx_HAL_Driver/Src/stm32n6xx_hal_gpio.c ****   assert_param(IS_GPIO_PIN(GPIO_Init->Pin));
 172              		.loc 1 174 3 is_stmt 1 view .LVU37
 173 00b8 3368     		ldr	r3, [r6]
 174 00ba 9AB2     		uxth	r2, r3
 175 00bc 12B1     		cbz	r2, .L3
 176              		.loc 1 174 3 is_stmt 0 discriminator 2 view .LVU38
 177 00be B3F5803F 		cmp	r3, #65536
 178 00c2 03D3     		bcc	.L4
 179              	.L3:
 180              		.loc 1 174 3 discriminator 3 view .LVU39
 181 00c4 AE21     		movs	r1, #174
 182 00c6 2348     		ldr	r0, .L66+48
 183 00c8 FFF7FEFF 		bl	assert_failed
 184              	.LVL4:
 185              	.L4:
 175:STM32Cube_FW_N6/Drivers/STM32N6xx_HAL_Driver/Src/stm32n6xx_hal_gpio.c ****   assert_param(IS_GPIO_MODE(GPIO_Init->Mode));
 186              		.loc 1 175 3 is_stmt 1 view .LVU40
 187 00cc 7368     		ldr	r3, [r6, #4]
 188 00ce B3F5041F 		cmp	r3, #2162688
 189 00d2 11D0     		beq	.L5
 190 00d4 1DD8     		bhi	.L6
 191 00d6 B3F5881F 		cmp	r3, #1114112
 192 00da 0DD0     		beq	.L5
 193 00dc 09D8     		bhi	.L7
 194 00de 032B     		cmp	r3, #3
 195 00e0 0AD9     		bls	.L5
 196 00e2 113B     		subs	r3, r3, #17
 197 00e4 012B     		cmp	r3, #1
 198 00e6 07D9     		bls	.L5
 199              	.L8:
 200              		.loc 1 175 3 is_stmt 0 discriminator 11 view .LVU41
 201 00e8 AF21     		movs	r1, #175
 202 00ea 1A48     		ldr	r0, .L66+48
 203 00ec FFF7FEFF 		bl	assert_failed
 204              	.LVL5:
 205 00f0 02E0     		b	.L5
 206              	.L7:
 207 00f2 B3F5901F 		cmp	r3, #1179648
 208              	.L65:
 209 00f6 F7D1     		bne	.L8
 210              	.L5:
 176:STM32Cube_FW_N6/Drivers/STM32N6xx_HAL_Driver/Src/stm32n6xx_hal_gpio.c **** 
 177:STM32Cube_FW_N6/Drivers/STM32N6xx_HAL_Driver/Src/stm32n6xx_hal_gpio.c ****   /* Configure the port pins */
 178:STM32Cube_FW_N6/Drivers/STM32N6xx_HAL_Driver/Src/stm32n6xx_hal_gpio.c ****   while (((GPIO_Init->Pin) >> position) != 0x00u)
 179:STM32Cube_FW_N6/Drivers/STM32N6xx_HAL_Driver/Src/stm32n6xx_hal_gpio.c ****   {
ARM GAS  C:\Users\DJESSOU\AppData\Local\Temp\cc6knbkx.s 			page 8


 180:STM32Cube_FW_N6/Drivers/STM32N6xx_HAL_Driver/Src/stm32n6xx_hal_gpio.c ****     /* Get current io position */
 181:STM32Cube_FW_N6/Drivers/STM32N6xx_HAL_Driver/Src/stm32n6xx_hal_gpio.c ****     iocurrent = (GPIO_Init->Pin) & (1uL << position);
 182:STM32Cube_FW_N6/Drivers/STM32N6xx_HAL_Driver/Src/stm32n6xx_hal_gpio.c **** 
 183:STM32Cube_FW_N6/Drivers/STM32N6xx_HAL_Driver/Src/stm32n6xx_hal_gpio.c ****     if (iocurrent != 0x00u)
 184:STM32Cube_FW_N6/Drivers/STM32N6xx_HAL_Driver/Src/stm32n6xx_hal_gpio.c ****     {
 185:STM32Cube_FW_N6/Drivers/STM32N6xx_HAL_Driver/Src/stm32n6xx_hal_gpio.c ****       /*--------------------- GPIO Mode Configuration ------------------------*/
 186:STM32Cube_FW_N6/Drivers/STM32N6xx_HAL_Driver/Src/stm32n6xx_hal_gpio.c ****       /* In case of Output or Alternate function mode selection */
 187:STM32Cube_FW_N6/Drivers/STM32N6xx_HAL_Driver/Src/stm32n6xx_hal_gpio.c ****       if (((GPIO_Init->Mode & GPIO_MODE) == MODE_OUTPUT) || ((GPIO_Init->Mode & GPIO_MODE) == MODE_
 188:STM32Cube_FW_N6/Drivers/STM32N6xx_HAL_Driver/Src/stm32n6xx_hal_gpio.c ****       {
 189:STM32Cube_FW_N6/Drivers/STM32N6xx_HAL_Driver/Src/stm32n6xx_hal_gpio.c ****         /* Check the Speed parameter */
 190:STM32Cube_FW_N6/Drivers/STM32N6xx_HAL_Driver/Src/stm32n6xx_hal_gpio.c ****         assert_param(IS_GPIO_SPEED(GPIO_Init->Speed));
 191:STM32Cube_FW_N6/Drivers/STM32N6xx_HAL_Driver/Src/stm32n6xx_hal_gpio.c **** 
 192:STM32Cube_FW_N6/Drivers/STM32N6xx_HAL_Driver/Src/stm32n6xx_hal_gpio.c ****         /* Configure the IO Speed */
 193:STM32Cube_FW_N6/Drivers/STM32N6xx_HAL_Driver/Src/stm32n6xx_hal_gpio.c ****         temp = GPIOx->OSPEEDR;
 194:STM32Cube_FW_N6/Drivers/STM32N6xx_HAL_Driver/Src/stm32n6xx_hal_gpio.c ****         temp &= ~(GPIO_OSPEEDR_OSPEED0 << (position * GPIO_OSPEEDR_OSPEED1_Pos));
 195:STM32Cube_FW_N6/Drivers/STM32N6xx_HAL_Driver/Src/stm32n6xx_hal_gpio.c ****         temp |= (GPIO_Init->Speed << (position * GPIO_OSPEEDR_OSPEED1_Pos));
 196:STM32Cube_FW_N6/Drivers/STM32N6xx_HAL_Driver/Src/stm32n6xx_hal_gpio.c ****         GPIOx->OSPEEDR = temp;
 197:STM32Cube_FW_N6/Drivers/STM32N6xx_HAL_Driver/Src/stm32n6xx_hal_gpio.c **** 
 198:STM32Cube_FW_N6/Drivers/STM32N6xx_HAL_Driver/Src/stm32n6xx_hal_gpio.c ****         /* Configure the IO Output Type */
 199:STM32Cube_FW_N6/Drivers/STM32N6xx_HAL_Driver/Src/stm32n6xx_hal_gpio.c ****         temp = GPIOx->OTYPER;
 200:STM32Cube_FW_N6/Drivers/STM32N6xx_HAL_Driver/Src/stm32n6xx_hal_gpio.c ****         temp &= ~(GPIO_OTYPER_OT0 << position) ;
 201:STM32Cube_FW_N6/Drivers/STM32N6xx_HAL_Driver/Src/stm32n6xx_hal_gpio.c ****         temp |= (((GPIO_Init->Mode & OUTPUT_TYPE) >> OUTPUT_TYPE_Pos) << position);
 202:STM32Cube_FW_N6/Drivers/STM32N6xx_HAL_Driver/Src/stm32n6xx_hal_gpio.c ****         GPIOx->OTYPER = temp;
 203:STM32Cube_FW_N6/Drivers/STM32N6xx_HAL_Driver/Src/stm32n6xx_hal_gpio.c ****       }
 204:STM32Cube_FW_N6/Drivers/STM32N6xx_HAL_Driver/Src/stm32n6xx_hal_gpio.c **** 
 205:STM32Cube_FW_N6/Drivers/STM32N6xx_HAL_Driver/Src/stm32n6xx_hal_gpio.c ****       if (((GPIO_Init->Mode & GPIO_MODE) != MODE_ANALOG) ||
 206:STM32Cube_FW_N6/Drivers/STM32N6xx_HAL_Driver/Src/stm32n6xx_hal_gpio.c ****           (((GPIO_Init->Mode & GPIO_MODE) == MODE_ANALOG) && (GPIO_Init->Pull != GPIO_PULLUP)))
 207:STM32Cube_FW_N6/Drivers/STM32N6xx_HAL_Driver/Src/stm32n6xx_hal_gpio.c ****       {
 208:STM32Cube_FW_N6/Drivers/STM32N6xx_HAL_Driver/Src/stm32n6xx_hal_gpio.c ****         /* Check the Pull parameter */
 209:STM32Cube_FW_N6/Drivers/STM32N6xx_HAL_Driver/Src/stm32n6xx_hal_gpio.c ****         assert_param(IS_GPIO_PULL(GPIO_Init->Pull));
 210:STM32Cube_FW_N6/Drivers/STM32N6xx_HAL_Driver/Src/stm32n6xx_hal_gpio.c **** 
 211:STM32Cube_FW_N6/Drivers/STM32N6xx_HAL_Driver/Src/stm32n6xx_hal_gpio.c ****         /* Activate the Pull-up or Pull down resistor for the current IO */
 212:STM32Cube_FW_N6/Drivers/STM32N6xx_HAL_Driver/Src/stm32n6xx_hal_gpio.c ****         temp = GPIOx->PUPDR;
 213:STM32Cube_FW_N6/Drivers/STM32N6xx_HAL_Driver/Src/stm32n6xx_hal_gpio.c ****         temp &= ~(GPIO_PUPDR_PUPD0 << (position * GPIO_PUPDR_PUPD1_Pos));
 214:STM32Cube_FW_N6/Drivers/STM32N6xx_HAL_Driver/Src/stm32n6xx_hal_gpio.c ****         temp |= ((GPIO_Init->Pull) << (position * GPIO_PUPDR_PUPD1_Pos));
 215:STM32Cube_FW_N6/Drivers/STM32N6xx_HAL_Driver/Src/stm32n6xx_hal_gpio.c ****         GPIOx->PUPDR = temp;
 216:STM32Cube_FW_N6/Drivers/STM32N6xx_HAL_Driver/Src/stm32n6xx_hal_gpio.c ****       }
 217:STM32Cube_FW_N6/Drivers/STM32N6xx_HAL_Driver/Src/stm32n6xx_hal_gpio.c **** 
 218:STM32Cube_FW_N6/Drivers/STM32N6xx_HAL_Driver/Src/stm32n6xx_hal_gpio.c ****       /* In case of Alternate function mode selection */
 219:STM32Cube_FW_N6/Drivers/STM32N6xx_HAL_Driver/Src/stm32n6xx_hal_gpio.c ****       if ((GPIO_Init->Mode & GPIO_MODE) == MODE_AF)
 220:STM32Cube_FW_N6/Drivers/STM32N6xx_HAL_Driver/Src/stm32n6xx_hal_gpio.c ****       {
 221:STM32Cube_FW_N6/Drivers/STM32N6xx_HAL_Driver/Src/stm32n6xx_hal_gpio.c ****         /* Check the Alternate function parameters */
 222:STM32Cube_FW_N6/Drivers/STM32N6xx_HAL_Driver/Src/stm32n6xx_hal_gpio.c ****         assert_param(IS_GPIO_AF_INSTANCE(GPIOx));
 223:STM32Cube_FW_N6/Drivers/STM32N6xx_HAL_Driver/Src/stm32n6xx_hal_gpio.c ****         assert_param(IS_GPIO_AF(GPIO_Init->Alternate));
 224:STM32Cube_FW_N6/Drivers/STM32N6xx_HAL_Driver/Src/stm32n6xx_hal_gpio.c **** 
 225:STM32Cube_FW_N6/Drivers/STM32N6xx_HAL_Driver/Src/stm32n6xx_hal_gpio.c ****         /* Configure Alternate function mapped with the current IO */
 226:STM32Cube_FW_N6/Drivers/STM32N6xx_HAL_Driver/Src/stm32n6xx_hal_gpio.c ****         temp = GPIOx->AFR[position >> 3u];
 227:STM32Cube_FW_N6/Drivers/STM32N6xx_HAL_Driver/Src/stm32n6xx_hal_gpio.c ****         temp &= ~(0xFu << ((position & 0x07u) * GPIO_AFRL_AFSEL1_Pos));
 228:STM32Cube_FW_N6/Drivers/STM32N6xx_HAL_Driver/Src/stm32n6xx_hal_gpio.c ****         temp |= ((GPIO_Init->Alternate) << ((position & 0x07u) * GPIO_AFRL_AFSEL1_Pos));
 229:STM32Cube_FW_N6/Drivers/STM32N6xx_HAL_Driver/Src/stm32n6xx_hal_gpio.c ****         GPIOx->AFR[position >> 3u] = temp;
 230:STM32Cube_FW_N6/Drivers/STM32N6xx_HAL_Driver/Src/stm32n6xx_hal_gpio.c ****       }
 231:STM32Cube_FW_N6/Drivers/STM32N6xx_HAL_Driver/Src/stm32n6xx_hal_gpio.c **** 
 232:STM32Cube_FW_N6/Drivers/STM32N6xx_HAL_Driver/Src/stm32n6xx_hal_gpio.c ****       /* Configure IO Direction mode (Input, Output, Alternate or Analog) */
 233:STM32Cube_FW_N6/Drivers/STM32N6xx_HAL_Driver/Src/stm32n6xx_hal_gpio.c ****       temp = GPIOx->MODER;
 234:STM32Cube_FW_N6/Drivers/STM32N6xx_HAL_Driver/Src/stm32n6xx_hal_gpio.c ****       temp &= ~(GPIO_MODER_MODE0 << (position * GPIO_MODER_MODE1_Pos));
 235:STM32Cube_FW_N6/Drivers/STM32N6xx_HAL_Driver/Src/stm32n6xx_hal_gpio.c ****       temp |= ((GPIO_Init->Mode & GPIO_MODE) << (position * GPIO_MODER_MODE1_Pos));
 236:STM32Cube_FW_N6/Drivers/STM32N6xx_HAL_Driver/Src/stm32n6xx_hal_gpio.c ****       GPIOx->MODER = temp;
ARM GAS  C:\Users\DJESSOU\AppData\Local\Temp\cc6knbkx.s 			page 9


 237:STM32Cube_FW_N6/Drivers/STM32N6xx_HAL_Driver/Src/stm32n6xx_hal_gpio.c **** 
 238:STM32Cube_FW_N6/Drivers/STM32N6xx_HAL_Driver/Src/stm32n6xx_hal_gpio.c ****       /*--------------------- EXTI Mode Configuration ------------------------*/
 239:STM32Cube_FW_N6/Drivers/STM32N6xx_HAL_Driver/Src/stm32n6xx_hal_gpio.c ****       /* Configure the External Interrupt or event for the current IO */
 240:STM32Cube_FW_N6/Drivers/STM32N6xx_HAL_Driver/Src/stm32n6xx_hal_gpio.c ****       if ((GPIO_Init->Mode & EXTI_MODE) != 0x00u)
 241:STM32Cube_FW_N6/Drivers/STM32N6xx_HAL_Driver/Src/stm32n6xx_hal_gpio.c ****       {
 242:STM32Cube_FW_N6/Drivers/STM32N6xx_HAL_Driver/Src/stm32n6xx_hal_gpio.c ****         temp = EXTI->EXTICR[position >> 2u];
 243:STM32Cube_FW_N6/Drivers/STM32N6xx_HAL_Driver/Src/stm32n6xx_hal_gpio.c ****         temp &= ~(0x0FuL << ((position & 0x03u) * EXTI_EXTICR1_EXTI1_Pos));
 244:STM32Cube_FW_N6/Drivers/STM32N6xx_HAL_Driver/Src/stm32n6xx_hal_gpio.c ****         temp |= (GPIO_GET_INDEX(GPIOx) << ((position & 0x03u) * EXTI_EXTICR1_EXTI1_Pos));
 211              		.loc 1 244 18 discriminator 23 view .LVU42
 212 00f8 4FF00009 		mov	r9, #0
 213 00fc 4F46     		mov	r7, r9
 214              		.loc 1 244 18 view .LVU43
 215 00fe DFF82480 		ldr	r8, .L66
 245:STM32Cube_FW_N6/Drivers/STM32N6xx_HAL_Driver/Src/stm32n6xx_hal_gpio.c ****         EXTI->EXTICR[position >> 2u] = temp;
 246:STM32Cube_FW_N6/Drivers/STM32N6xx_HAL_Driver/Src/stm32n6xx_hal_gpio.c **** 
 247:STM32Cube_FW_N6/Drivers/STM32N6xx_HAL_Driver/Src/stm32n6xx_hal_gpio.c ****         /* Clear EXTI line configuration */
 248:STM32Cube_FW_N6/Drivers/STM32N6xx_HAL_Driver/Src/stm32n6xx_hal_gpio.c ****         temp = EXTI->IMR1;
 216              		.loc 1 248 14 view .LVU44
 217 0102 DFF854A0 		ldr	r10, .L66+52
 218              	.LVL6:
 219              	.L9:
 178:STM32Cube_FW_N6/Drivers/STM32N6xx_HAL_Driver/Src/stm32n6xx_hal_gpio.c ****   {
 220              		.loc 1 178 41 is_stmt 1 view .LVU45
 178:STM32Cube_FW_N6/Drivers/STM32N6xx_HAL_Driver/Src/stm32n6xx_hal_gpio.c ****   {
 221              		.loc 1 178 21 is_stmt 0 view .LVU46
 222 0106 3568     		ldr	r5, [r6]
 178:STM32Cube_FW_N6/Drivers/STM32N6xx_HAL_Driver/Src/stm32n6xx_hal_gpio.c ****   {
 223              		.loc 1 178 41 view .LVU47
 224 0108 35FA07F3 		lsrs	r3, r5, r7
 225 010c 26D1     		bne	.L30
 249:STM32Cube_FW_N6/Drivers/STM32N6xx_HAL_Driver/Src/stm32n6xx_hal_gpio.c ****         temp &= ~(iocurrent);
 250:STM32Cube_FW_N6/Drivers/STM32N6xx_HAL_Driver/Src/stm32n6xx_hal_gpio.c ****         if ((GPIO_Init->Mode & EXTI_IT) != 0x00u)
 251:STM32Cube_FW_N6/Drivers/STM32N6xx_HAL_Driver/Src/stm32n6xx_hal_gpio.c ****         {
 252:STM32Cube_FW_N6/Drivers/STM32N6xx_HAL_Driver/Src/stm32n6xx_hal_gpio.c ****           temp |= iocurrent;
 253:STM32Cube_FW_N6/Drivers/STM32N6xx_HAL_Driver/Src/stm32n6xx_hal_gpio.c ****         }
 254:STM32Cube_FW_N6/Drivers/STM32N6xx_HAL_Driver/Src/stm32n6xx_hal_gpio.c ****         EXTI->IMR1 = temp;
 255:STM32Cube_FW_N6/Drivers/STM32N6xx_HAL_Driver/Src/stm32n6xx_hal_gpio.c **** 
 256:STM32Cube_FW_N6/Drivers/STM32N6xx_HAL_Driver/Src/stm32n6xx_hal_gpio.c ****         temp = EXTI->EMR1;
 257:STM32Cube_FW_N6/Drivers/STM32N6xx_HAL_Driver/Src/stm32n6xx_hal_gpio.c ****         temp &= ~(iocurrent);
 258:STM32Cube_FW_N6/Drivers/STM32N6xx_HAL_Driver/Src/stm32n6xx_hal_gpio.c ****         if ((GPIO_Init->Mode & EXTI_EVT) != 0x00u)
 259:STM32Cube_FW_N6/Drivers/STM32N6xx_HAL_Driver/Src/stm32n6xx_hal_gpio.c ****         {
 260:STM32Cube_FW_N6/Drivers/STM32N6xx_HAL_Driver/Src/stm32n6xx_hal_gpio.c ****           temp |= iocurrent;
 261:STM32Cube_FW_N6/Drivers/STM32N6xx_HAL_Driver/Src/stm32n6xx_hal_gpio.c ****         }
 262:STM32Cube_FW_N6/Drivers/STM32N6xx_HAL_Driver/Src/stm32n6xx_hal_gpio.c ****         EXTI->EMR1 = temp;
 263:STM32Cube_FW_N6/Drivers/STM32N6xx_HAL_Driver/Src/stm32n6xx_hal_gpio.c **** 
 264:STM32Cube_FW_N6/Drivers/STM32N6xx_HAL_Driver/Src/stm32n6xx_hal_gpio.c ****         /* Clear Rising Falling edge configuration */
 265:STM32Cube_FW_N6/Drivers/STM32N6xx_HAL_Driver/Src/stm32n6xx_hal_gpio.c ****         temp = EXTI->RTSR1;
 266:STM32Cube_FW_N6/Drivers/STM32N6xx_HAL_Driver/Src/stm32n6xx_hal_gpio.c ****         temp &= ~(iocurrent);
 267:STM32Cube_FW_N6/Drivers/STM32N6xx_HAL_Driver/Src/stm32n6xx_hal_gpio.c ****         if ((GPIO_Init->Mode & TRIGGER_RISING) != 0x00u)
 268:STM32Cube_FW_N6/Drivers/STM32N6xx_HAL_Driver/Src/stm32n6xx_hal_gpio.c ****         {
 269:STM32Cube_FW_N6/Drivers/STM32N6xx_HAL_Driver/Src/stm32n6xx_hal_gpio.c ****           temp |= iocurrent;
 270:STM32Cube_FW_N6/Drivers/STM32N6xx_HAL_Driver/Src/stm32n6xx_hal_gpio.c ****         }
 271:STM32Cube_FW_N6/Drivers/STM32N6xx_HAL_Driver/Src/stm32n6xx_hal_gpio.c ****         EXTI->RTSR1 = temp;
 272:STM32Cube_FW_N6/Drivers/STM32N6xx_HAL_Driver/Src/stm32n6xx_hal_gpio.c **** 
 273:STM32Cube_FW_N6/Drivers/STM32N6xx_HAL_Driver/Src/stm32n6xx_hal_gpio.c ****         temp = EXTI->FTSR1;
 274:STM32Cube_FW_N6/Drivers/STM32N6xx_HAL_Driver/Src/stm32n6xx_hal_gpio.c ****         temp &= ~(iocurrent);
 275:STM32Cube_FW_N6/Drivers/STM32N6xx_HAL_Driver/Src/stm32n6xx_hal_gpio.c ****         if ((GPIO_Init->Mode & TRIGGER_FALLING) != 0x00u)
ARM GAS  C:\Users\DJESSOU\AppData\Local\Temp\cc6knbkx.s 			page 10


 276:STM32Cube_FW_N6/Drivers/STM32N6xx_HAL_Driver/Src/stm32n6xx_hal_gpio.c ****         {
 277:STM32Cube_FW_N6/Drivers/STM32N6xx_HAL_Driver/Src/stm32n6xx_hal_gpio.c ****           temp |= iocurrent;
 278:STM32Cube_FW_N6/Drivers/STM32N6xx_HAL_Driver/Src/stm32n6xx_hal_gpio.c ****         }
 279:STM32Cube_FW_N6/Drivers/STM32N6xx_HAL_Driver/Src/stm32n6xx_hal_gpio.c ****         EXTI->FTSR1 = temp;
 280:STM32Cube_FW_N6/Drivers/STM32N6xx_HAL_Driver/Src/stm32n6xx_hal_gpio.c ****       }
 281:STM32Cube_FW_N6/Drivers/STM32N6xx_HAL_Driver/Src/stm32n6xx_hal_gpio.c ****     }
 282:STM32Cube_FW_N6/Drivers/STM32N6xx_HAL_Driver/Src/stm32n6xx_hal_gpio.c **** 
 283:STM32Cube_FW_N6/Drivers/STM32N6xx_HAL_Driver/Src/stm32n6xx_hal_gpio.c ****     position++;
 284:STM32Cube_FW_N6/Drivers/STM32N6xx_HAL_Driver/Src/stm32n6xx_hal_gpio.c ****   }
 285:STM32Cube_FW_N6/Drivers/STM32N6xx_HAL_Driver/Src/stm32n6xx_hal_gpio.c **** }
 226              		.loc 1 285 1 view .LVU48
 227 010e BDE8F88F 		pop	{r3, r4, r5, r6, r7, r8, r9, r10, fp, pc}
 228              	.LVL7:
 229              	.L6:
 230              		.loc 1 285 1 view .LVU49
 231 0112 B3F5441F 		cmp	r3, #3211264
 232 0116 EFD0     		beq	.L5
 233 0118 23F48013 		bic	r3, r3, #1048576
 234 011c B3F5081F 		cmp	r3, #2228224
 235 0120 E9E7     		b	.L65
 236              	.L67:
 237 0122 00BF     		.align	2
 238              	.L66:
 239 0124 00000256 		.word	1442971648
 240 0128 00040256 		.word	1442972672
 241 012c 00080256 		.word	1442973696
 242 0130 000C0256 		.word	1442974720
 243 0134 00100256 		.word	1442975744
 244 0138 00140256 		.word	1442976768
 245 013c 00180256 		.word	1442977792
 246 0140 001C0256 		.word	1442978816
 247 0144 00340256 		.word	1442984960
 248 0148 00380256 		.word	1442985984
 249 014c 003C0256 		.word	1442987008
 250 0150 00400256 		.word	1442988032
 251 0154 00000000 		.word	.LC0
 252 0158 00500256 		.word	1442992128
 253              	.LVL8:
 254              	.L30:
 181:STM32Cube_FW_N6/Drivers/STM32N6xx_HAL_Driver/Src/stm32n6xx_hal_gpio.c **** 
 255              		.loc 1 181 5 is_stmt 1 view .LVU50
 181:STM32Cube_FW_N6/Drivers/STM32N6xx_HAL_Driver/Src/stm32n6xx_hal_gpio.c **** 
 256              		.loc 1 181 41 is_stmt 0 view .LVU51
 257 015c 4FF0010B 		mov	fp, #1
 258 0160 0BFA07FB 		lsl	fp, fp, r7
 259              	.LVL9:
 183:STM32Cube_FW_N6/Drivers/STM32N6xx_HAL_Driver/Src/stm32n6xx_hal_gpio.c ****     {
 260              		.loc 1 183 5 is_stmt 1 view .LVU52
 183:STM32Cube_FW_N6/Drivers/STM32N6xx_HAL_Driver/Src/stm32n6xx_hal_gpio.c ****     {
 261              		.loc 1 183 8 is_stmt 0 view .LVU53
 262 0164 1BEA0505 		ands	r5, fp, r5
 263              	.LVL10:
 183:STM32Cube_FW_N6/Drivers/STM32N6xx_HAL_Driver/Src/stm32n6xx_hal_gpio.c ****     {
 264              		.loc 1 183 8 view .LVU54
 265 0168 00F03081 		beq	.L11
 187:STM32Cube_FW_N6/Drivers/STM32N6xx_HAL_Driver/Src/stm32n6xx_hal_gpio.c ****       {
 266              		.loc 1 187 7 is_stmt 1 view .LVU55
ARM GAS  C:\Users\DJESSOU\AppData\Local\Temp\cc6knbkx.s 			page 11


 187:STM32Cube_FW_N6/Drivers/STM32N6xx_HAL_Driver/Src/stm32n6xx_hal_gpio.c ****       {
 267              		.loc 1 187 29 is_stmt 0 view .LVU56
 268 016c 7368     		ldr	r3, [r6, #4]
 269 016e 03F00303 		and	r3, r3, #3
 187:STM32Cube_FW_N6/Drivers/STM32N6xx_HAL_Driver/Src/stm32n6xx_hal_gpio.c ****       {
 270              		.loc 1 187 58 view .LVU57
 271 0172 013B     		subs	r3, r3, #1
 187:STM32Cube_FW_N6/Drivers/STM32N6xx_HAL_Driver/Src/stm32n6xx_hal_gpio.c ****       {
 272              		.loc 1 187 10 view .LVU58
 273 0174 012B     		cmp	r3, #1
 274 0176 1AD8     		bhi	.L12
 190:STM32Cube_FW_N6/Drivers/STM32N6xx_HAL_Driver/Src/stm32n6xx_hal_gpio.c **** 
 275              		.loc 1 190 9 is_stmt 1 view .LVU59
 276 0178 F368     		ldr	r3, [r6, #12]
 277 017a 032B     		cmp	r3, #3
 278 017c 03D9     		bls	.L13
 190:STM32Cube_FW_N6/Drivers/STM32N6xx_HAL_Driver/Src/stm32n6xx_hal_gpio.c **** 
 279              		.loc 1 190 9 is_stmt 0 discriminator 1 view .LVU60
 280 017e BE21     		movs	r1, #190
 281 0180 9E48     		ldr	r0, .L68
 282 0182 FFF7FEFF 		bl	assert_failed
 283              	.LVL11:
 284              	.L13:
 193:STM32Cube_FW_N6/Drivers/STM32N6xx_HAL_Driver/Src/stm32n6xx_hal_gpio.c ****         temp &= ~(GPIO_OSPEEDR_OSPEED0 << (position * GPIO_OSPEEDR_OSPEED1_Pos));
 285              		.loc 1 193 9 is_stmt 1 view .LVU61
 194:STM32Cube_FW_N6/Drivers/STM32N6xx_HAL_Driver/Src/stm32n6xx_hal_gpio.c ****         temp |= (GPIO_Init->Speed << (position * GPIO_OSPEEDR_OSPEED1_Pos));
 286              		.loc 1 194 40 is_stmt 0 view .LVU62
 287 0186 0323     		movs	r3, #3
 193:STM32Cube_FW_N6/Drivers/STM32N6xx_HAL_Driver/Src/stm32n6xx_hal_gpio.c ****         temp &= ~(GPIO_OSPEEDR_OSPEED0 << (position * GPIO_OSPEEDR_OSPEED1_Pos));
 288              		.loc 1 193 14 view .LVU63
 289 0188 A268     		ldr	r2, [r4, #8]
 290              	.LVL12:
 194:STM32Cube_FW_N6/Drivers/STM32N6xx_HAL_Driver/Src/stm32n6xx_hal_gpio.c ****         temp |= (GPIO_Init->Speed << (position * GPIO_OSPEEDR_OSPEED1_Pos));
 291              		.loc 1 194 9 is_stmt 1 view .LVU64
 194:STM32Cube_FW_N6/Drivers/STM32N6xx_HAL_Driver/Src/stm32n6xx_hal_gpio.c ****         temp |= (GPIO_Init->Speed << (position * GPIO_OSPEEDR_OSPEED1_Pos));
 292              		.loc 1 194 40 is_stmt 0 view .LVU65
 293 018a 03FA09F3 		lsl	r3, r3, r9
 194:STM32Cube_FW_N6/Drivers/STM32N6xx_HAL_Driver/Src/stm32n6xx_hal_gpio.c ****         temp |= (GPIO_Init->Speed << (position * GPIO_OSPEEDR_OSPEED1_Pos));
 294              		.loc 1 194 14 view .LVU66
 295 018e 22EA0302 		bic	r2, r2, r3
 296              	.LVL13:
 195:STM32Cube_FW_N6/Drivers/STM32N6xx_HAL_Driver/Src/stm32n6xx_hal_gpio.c ****         GPIOx->OSPEEDR = temp;
 297              		.loc 1 195 9 is_stmt 1 view .LVU67
 195:STM32Cube_FW_N6/Drivers/STM32N6xx_HAL_Driver/Src/stm32n6xx_hal_gpio.c ****         GPIOx->OSPEEDR = temp;
 298              		.loc 1 195 35 is_stmt 0 view .LVU68
 299 0192 F368     		ldr	r3, [r6, #12]
 300 0194 03FA09F3 		lsl	r3, r3, r9
 195:STM32Cube_FW_N6/Drivers/STM32N6xx_HAL_Driver/Src/stm32n6xx_hal_gpio.c ****         GPIOx->OSPEEDR = temp;
 301              		.loc 1 195 14 view .LVU69
 302 0198 1343     		orrs	r3, r3, r2
 303              	.LVL14:
 196:STM32Cube_FW_N6/Drivers/STM32N6xx_HAL_Driver/Src/stm32n6xx_hal_gpio.c **** 
 304              		.loc 1 196 9 is_stmt 1 view .LVU70
 196:STM32Cube_FW_N6/Drivers/STM32N6xx_HAL_Driver/Src/stm32n6xx_hal_gpio.c **** 
 305              		.loc 1 196 24 is_stmt 0 view .LVU71
 306 019a A360     		str	r3, [r4, #8]
 199:STM32Cube_FW_N6/Drivers/STM32N6xx_HAL_Driver/Src/stm32n6xx_hal_gpio.c ****         temp &= ~(GPIO_OTYPER_OT0 << position) ;
ARM GAS  C:\Users\DJESSOU\AppData\Local\Temp\cc6knbkx.s 			page 12


 307              		.loc 1 199 9 is_stmt 1 view .LVU72
 201:STM32Cube_FW_N6/Drivers/STM32N6xx_HAL_Driver/Src/stm32n6xx_hal_gpio.c ****         GPIOx->OTYPER = temp;
 308              		.loc 1 201 51 is_stmt 0 view .LVU73
 309 019c 7368     		ldr	r3, [r6, #4]
 310              	.LVL15:
 199:STM32Cube_FW_N6/Drivers/STM32N6xx_HAL_Driver/Src/stm32n6xx_hal_gpio.c ****         temp &= ~(GPIO_OTYPER_OT0 << position) ;
 311              		.loc 1 199 14 view .LVU74
 312 019e 6268     		ldr	r2, [r4, #4]
 313              	.LVL16:
 200:STM32Cube_FW_N6/Drivers/STM32N6xx_HAL_Driver/Src/stm32n6xx_hal_gpio.c ****         temp |= (((GPIO_Init->Mode & OUTPUT_TYPE) >> OUTPUT_TYPE_Pos) << position);
 314              		.loc 1 200 9 is_stmt 1 view .LVU75
 201:STM32Cube_FW_N6/Drivers/STM32N6xx_HAL_Driver/Src/stm32n6xx_hal_gpio.c ****         GPIOx->OTYPER = temp;
 315              		.loc 1 201 51 is_stmt 0 view .LVU76
 316 01a0 C3F30013 		ubfx	r3, r3, #4, #1
 200:STM32Cube_FW_N6/Drivers/STM32N6xx_HAL_Driver/Src/stm32n6xx_hal_gpio.c ****         temp |= (((GPIO_Init->Mode & OUTPUT_TYPE) >> OUTPUT_TYPE_Pos) << position);
 317              		.loc 1 200 14 view .LVU77
 318 01a4 22EA0B02 		bic	r2, r2, fp
 319              	.LVL17:
 201:STM32Cube_FW_N6/Drivers/STM32N6xx_HAL_Driver/Src/stm32n6xx_hal_gpio.c ****         GPIOx->OTYPER = temp;
 320              		.loc 1 201 9 is_stmt 1 view .LVU78
 201:STM32Cube_FW_N6/Drivers/STM32N6xx_HAL_Driver/Src/stm32n6xx_hal_gpio.c ****         GPIOx->OTYPER = temp;
 321              		.loc 1 201 71 is_stmt 0 view .LVU79
 322 01a8 BB40     		lsls	r3, r3, r7
 201:STM32Cube_FW_N6/Drivers/STM32N6xx_HAL_Driver/Src/stm32n6xx_hal_gpio.c ****         GPIOx->OTYPER = temp;
 323              		.loc 1 201 14 view .LVU80
 324 01aa 1343     		orrs	r3, r3, r2
 325              	.LVL18:
 202:STM32Cube_FW_N6/Drivers/STM32N6xx_HAL_Driver/Src/stm32n6xx_hal_gpio.c ****       }
 326              		.loc 1 202 9 is_stmt 1 view .LVU81
 202:STM32Cube_FW_N6/Drivers/STM32N6xx_HAL_Driver/Src/stm32n6xx_hal_gpio.c ****       }
 327              		.loc 1 202 23 is_stmt 0 view .LVU82
 328 01ac 6360     		str	r3, [r4, #4]
 329              	.LVL19:
 330              	.L12:
 205:STM32Cube_FW_N6/Drivers/STM32N6xx_HAL_Driver/Src/stm32n6xx_hal_gpio.c ****           (((GPIO_Init->Mode & GPIO_MODE) == MODE_ANALOG) && (GPIO_Init->Pull != GPIO_PULLUP)))
 331              		.loc 1 205 7 is_stmt 1 view .LVU83
 205:STM32Cube_FW_N6/Drivers/STM32N6xx_HAL_Driver/Src/stm32n6xx_hal_gpio.c ****           (((GPIO_Init->Mode & GPIO_MODE) == MODE_ANALOG) && (GPIO_Init->Pull != GPIO_PULLUP)))
 332              		.loc 1 205 29 is_stmt 0 view .LVU84
 333 01ae D6E90132 		ldrd	r3, r2, [r6, #4]
 334 01b2 03F00303 		and	r3, r3, #3
 205:STM32Cube_FW_N6/Drivers/STM32N6xx_HAL_Driver/Src/stm32n6xx_hal_gpio.c ****           (((GPIO_Init->Mode & GPIO_MODE) == MODE_ANALOG) && (GPIO_Init->Pull != GPIO_PULLUP)))
 335              		.loc 1 205 10 view .LVU85
 336 01b6 032B     		cmp	r3, #3
 337 01b8 02D1     		bne	.L14
 205:STM32Cube_FW_N6/Drivers/STM32N6xx_HAL_Driver/Src/stm32n6xx_hal_gpio.c ****           (((GPIO_Init->Mode & GPIO_MODE) == MODE_ANALOG) && (GPIO_Init->Pull != GPIO_PULLUP)))
 338              		.loc 1 205 58 discriminator 1 view .LVU86
 339 01ba 012A     		cmp	r2, #1
 340 01bc 00F08280 		beq	.L15
 341              	.L14:
 209:STM32Cube_FW_N6/Drivers/STM32N6xx_HAL_Driver/Src/stm32n6xx_hal_gpio.c **** 
 342              		.loc 1 209 9 is_stmt 1 view .LVU87
 343 01c0 022A     		cmp	r2, #2
 344 01c2 03D9     		bls	.L16
 209:STM32Cube_FW_N6/Drivers/STM32N6xx_HAL_Driver/Src/stm32n6xx_hal_gpio.c **** 
 345              		.loc 1 209 9 is_stmt 0 discriminator 1 view .LVU88
 346 01c4 D121     		movs	r1, #209
 347 01c6 8D48     		ldr	r0, .L68
ARM GAS  C:\Users\DJESSOU\AppData\Local\Temp\cc6knbkx.s 			page 13


 348 01c8 FFF7FEFF 		bl	assert_failed
 349              	.LVL20:
 350              	.L16:
 212:STM32Cube_FW_N6/Drivers/STM32N6xx_HAL_Driver/Src/stm32n6xx_hal_gpio.c ****         temp &= ~(GPIO_PUPDR_PUPD0 << (position * GPIO_PUPDR_PUPD1_Pos));
 351              		.loc 1 212 9 is_stmt 1 view .LVU89
 213:STM32Cube_FW_N6/Drivers/STM32N6xx_HAL_Driver/Src/stm32n6xx_hal_gpio.c ****         temp |= ((GPIO_Init->Pull) << (position * GPIO_PUPDR_PUPD1_Pos));
 352              		.loc 1 213 36 is_stmt 0 view .LVU90
 353 01cc 0323     		movs	r3, #3
 212:STM32Cube_FW_N6/Drivers/STM32N6xx_HAL_Driver/Src/stm32n6xx_hal_gpio.c ****         temp &= ~(GPIO_PUPDR_PUPD0 << (position * GPIO_PUPDR_PUPD1_Pos));
 354              		.loc 1 212 14 view .LVU91
 355 01ce E268     		ldr	r2, [r4, #12]
 356              	.LVL21:
 213:STM32Cube_FW_N6/Drivers/STM32N6xx_HAL_Driver/Src/stm32n6xx_hal_gpio.c ****         temp |= ((GPIO_Init->Pull) << (position * GPIO_PUPDR_PUPD1_Pos));
 357              		.loc 1 213 9 is_stmt 1 view .LVU92
 213:STM32Cube_FW_N6/Drivers/STM32N6xx_HAL_Driver/Src/stm32n6xx_hal_gpio.c ****         temp |= ((GPIO_Init->Pull) << (position * GPIO_PUPDR_PUPD1_Pos));
 358              		.loc 1 213 36 is_stmt 0 view .LVU93
 359 01d0 03FA09F3 		lsl	r3, r3, r9
 213:STM32Cube_FW_N6/Drivers/STM32N6xx_HAL_Driver/Src/stm32n6xx_hal_gpio.c ****         temp |= ((GPIO_Init->Pull) << (position * GPIO_PUPDR_PUPD1_Pos));
 360              		.loc 1 213 14 view .LVU94
 361 01d4 22EA0302 		bic	r2, r2, r3
 362              	.LVL22:
 214:STM32Cube_FW_N6/Drivers/STM32N6xx_HAL_Driver/Src/stm32n6xx_hal_gpio.c ****         GPIOx->PUPDR = temp;
 363              		.loc 1 214 9 is_stmt 1 view .LVU95
 214:STM32Cube_FW_N6/Drivers/STM32N6xx_HAL_Driver/Src/stm32n6xx_hal_gpio.c ****         GPIOx->PUPDR = temp;
 364              		.loc 1 214 36 is_stmt 0 view .LVU96
 365 01d8 B368     		ldr	r3, [r6, #8]
 366 01da 03FA09F3 		lsl	r3, r3, r9
 214:STM32Cube_FW_N6/Drivers/STM32N6xx_HAL_Driver/Src/stm32n6xx_hal_gpio.c ****         GPIOx->PUPDR = temp;
 367              		.loc 1 214 14 view .LVU97
 368 01de 1343     		orrs	r3, r3, r2
 369              	.LVL23:
 215:STM32Cube_FW_N6/Drivers/STM32N6xx_HAL_Driver/Src/stm32n6xx_hal_gpio.c ****       }
 370              		.loc 1 215 9 is_stmt 1 view .LVU98
 215:STM32Cube_FW_N6/Drivers/STM32N6xx_HAL_Driver/Src/stm32n6xx_hal_gpio.c ****       }
 371              		.loc 1 215 22 is_stmt 0 view .LVU99
 372 01e0 E360     		str	r3, [r4, #12]
 219:STM32Cube_FW_N6/Drivers/STM32N6xx_HAL_Driver/Src/stm32n6xx_hal_gpio.c ****       {
 373              		.loc 1 219 7 is_stmt 1 view .LVU100
 219:STM32Cube_FW_N6/Drivers/STM32N6xx_HAL_Driver/Src/stm32n6xx_hal_gpio.c ****       {
 374              		.loc 1 219 28 is_stmt 0 view .LVU101
 375 01e2 7368     		ldr	r3, [r6, #4]
 376              	.LVL24:
 219:STM32Cube_FW_N6/Drivers/STM32N6xx_HAL_Driver/Src/stm32n6xx_hal_gpio.c ****       {
 377              		.loc 1 219 28 view .LVU102
 378 01e4 03F00303 		and	r3, r3, #3
 219:STM32Cube_FW_N6/Drivers/STM32N6xx_HAL_Driver/Src/stm32n6xx_hal_gpio.c ****       {
 379              		.loc 1 219 10 view .LVU103
 380 01e8 022B     		cmp	r3, #2
 381 01ea 6BD1     		bne	.L15
 222:STM32Cube_FW_N6/Drivers/STM32N6xx_HAL_Driver/Src/stm32n6xx_hal_gpio.c ****         assert_param(IS_GPIO_AF(GPIO_Init->Alternate));
 382              		.loc 1 222 9 is_stmt 1 view .LVU104
 383 01ec 4445     		cmp	r4, r8
 384 01ee 53D0     		beq	.L18
 222:STM32Cube_FW_N6/Drivers/STM32N6xx_HAL_Driver/Src/stm32n6xx_hal_gpio.c ****         assert_param(IS_GPIO_AF(GPIO_Init->Alternate));
 385              		.loc 1 222 9 is_stmt 0 discriminator 1 view .LVU105
 386 01f0 834B     		ldr	r3, .L68+4
 387 01f2 9C42     		cmp	r4, r3
ARM GAS  C:\Users\DJESSOU\AppData\Local\Temp\cc6knbkx.s 			page 14


 388 01f4 50D0     		beq	.L18
 222:STM32Cube_FW_N6/Drivers/STM32N6xx_HAL_Driver/Src/stm32n6xx_hal_gpio.c ****         assert_param(IS_GPIO_AF(GPIO_Init->Alternate));
 389              		.loc 1 222 9 discriminator 2 view .LVU106
 390 01f6 834B     		ldr	r3, .L68+8
 391 01f8 9C42     		cmp	r4, r3
 392 01fa 4DD0     		beq	.L18
 222:STM32Cube_FW_N6/Drivers/STM32N6xx_HAL_Driver/Src/stm32n6xx_hal_gpio.c ****         assert_param(IS_GPIO_AF(GPIO_Init->Alternate));
 393              		.loc 1 222 9 discriminator 3 view .LVU107
 394 01fc 03F17043 		add	r3, r3, #-268435456
 395 0200 9C42     		cmp	r4, r3
 396 0202 49D0     		beq	.L18
 222:STM32Cube_FW_N6/Drivers/STM32N6xx_HAL_Driver/Src/stm32n6xx_hal_gpio.c ****         assert_param(IS_GPIO_AF(GPIO_Init->Alternate));
 397              		.loc 1 222 9 discriminator 4 view .LVU108
 398 0204 804B     		ldr	r3, .L68+12
 399 0206 9C42     		cmp	r4, r3
 400 0208 46D0     		beq	.L18
 222:STM32Cube_FW_N6/Drivers/STM32N6xx_HAL_Driver/Src/stm32n6xx_hal_gpio.c ****         assert_param(IS_GPIO_AF(GPIO_Init->Alternate));
 401              		.loc 1 222 9 discriminator 5 view .LVU109
 402 020a 03F17043 		add	r3, r3, #-268435456
 403 020e 9C42     		cmp	r4, r3
 404 0210 42D0     		beq	.L18
 222:STM32Cube_FW_N6/Drivers/STM32N6xx_HAL_Driver/Src/stm32n6xx_hal_gpio.c ****         assert_param(IS_GPIO_AF(GPIO_Init->Alternate));
 405              		.loc 1 222 9 discriminator 6 view .LVU110
 406 0212 7E4B     		ldr	r3, .L68+16
 407 0214 9C42     		cmp	r4, r3
 408 0216 3FD0     		beq	.L18
 222:STM32Cube_FW_N6/Drivers/STM32N6xx_HAL_Driver/Src/stm32n6xx_hal_gpio.c ****         assert_param(IS_GPIO_AF(GPIO_Init->Alternate));
 409              		.loc 1 222 9 discriminator 7 view .LVU111
 410 0218 03F17043 		add	r3, r3, #-268435456
 411 021c 9C42     		cmp	r4, r3
 412 021e 3BD0     		beq	.L18
 222:STM32Cube_FW_N6/Drivers/STM32N6xx_HAL_Driver/Src/stm32n6xx_hal_gpio.c ****         assert_param(IS_GPIO_AF(GPIO_Init->Alternate));
 413              		.loc 1 222 9 discriminator 8 view .LVU112
 414 0220 7B4B     		ldr	r3, .L68+20
 415 0222 9C42     		cmp	r4, r3
 416 0224 38D0     		beq	.L18
 222:STM32Cube_FW_N6/Drivers/STM32N6xx_HAL_Driver/Src/stm32n6xx_hal_gpio.c ****         assert_param(IS_GPIO_AF(GPIO_Init->Alternate));
 417              		.loc 1 222 9 discriminator 9 view .LVU113
 418 0226 03F17043 		add	r3, r3, #-268435456
 419 022a 9C42     		cmp	r4, r3
 420 022c 34D0     		beq	.L18
 222:STM32Cube_FW_N6/Drivers/STM32N6xx_HAL_Driver/Src/stm32n6xx_hal_gpio.c ****         assert_param(IS_GPIO_AF(GPIO_Init->Alternate));
 421              		.loc 1 222 9 discriminator 10 view .LVU114
 422 022e 794B     		ldr	r3, .L68+24
 423 0230 9C42     		cmp	r4, r3
 424 0232 31D0     		beq	.L18
 222:STM32Cube_FW_N6/Drivers/STM32N6xx_HAL_Driver/Src/stm32n6xx_hal_gpio.c ****         assert_param(IS_GPIO_AF(GPIO_Init->Alternate));
 425              		.loc 1 222 9 discriminator 11 view .LVU115
 426 0234 03F17043 		add	r3, r3, #-268435456
 427 0238 9C42     		cmp	r4, r3
 428 023a 2DD0     		beq	.L18
 222:STM32Cube_FW_N6/Drivers/STM32N6xx_HAL_Driver/Src/stm32n6xx_hal_gpio.c ****         assert_param(IS_GPIO_AF(GPIO_Init->Alternate));
 429              		.loc 1 222 9 discriminator 12 view .LVU116
 430 023c 764B     		ldr	r3, .L68+28
 431 023e 9C42     		cmp	r4, r3
 432 0240 2AD0     		beq	.L18
 222:STM32Cube_FW_N6/Drivers/STM32N6xx_HAL_Driver/Src/stm32n6xx_hal_gpio.c ****         assert_param(IS_GPIO_AF(GPIO_Init->Alternate));
ARM GAS  C:\Users\DJESSOU\AppData\Local\Temp\cc6knbkx.s 			page 15


 433              		.loc 1 222 9 discriminator 13 view .LVU117
 434 0242 03F17043 		add	r3, r3, #-268435456
 435 0246 9C42     		cmp	r4, r3
 436 0248 26D0     		beq	.L18
 222:STM32Cube_FW_N6/Drivers/STM32N6xx_HAL_Driver/Src/stm32n6xx_hal_gpio.c ****         assert_param(IS_GPIO_AF(GPIO_Init->Alternate));
 437              		.loc 1 222 9 discriminator 14 view .LVU118
 438 024a 744B     		ldr	r3, .L68+32
 439 024c 9C42     		cmp	r4, r3
 440 024e 23D0     		beq	.L18
 222:STM32Cube_FW_N6/Drivers/STM32N6xx_HAL_Driver/Src/stm32n6xx_hal_gpio.c ****         assert_param(IS_GPIO_AF(GPIO_Init->Alternate));
 441              		.loc 1 222 9 discriminator 15 view .LVU119
 442 0250 03F17043 		add	r3, r3, #-268435456
 443 0254 9C42     		cmp	r4, r3
 444 0256 1FD0     		beq	.L18
 222:STM32Cube_FW_N6/Drivers/STM32N6xx_HAL_Driver/Src/stm32n6xx_hal_gpio.c ****         assert_param(IS_GPIO_AF(GPIO_Init->Alternate));
 445              		.loc 1 222 9 discriminator 16 view .LVU120
 446 0258 714B     		ldr	r3, .L68+36
 447 025a 9C42     		cmp	r4, r3
 448 025c 1CD0     		beq	.L18
 222:STM32Cube_FW_N6/Drivers/STM32N6xx_HAL_Driver/Src/stm32n6xx_hal_gpio.c ****         assert_param(IS_GPIO_AF(GPIO_Init->Alternate));
 449              		.loc 1 222 9 discriminator 17 view .LVU121
 450 025e 03F17043 		add	r3, r3, #-268435456
 451 0262 9C42     		cmp	r4, r3
 452 0264 18D0     		beq	.L18
 222:STM32Cube_FW_N6/Drivers/STM32N6xx_HAL_Driver/Src/stm32n6xx_hal_gpio.c ****         assert_param(IS_GPIO_AF(GPIO_Init->Alternate));
 453              		.loc 1 222 9 discriminator 18 view .LVU122
 454 0266 6F4B     		ldr	r3, .L68+40
 455 0268 9C42     		cmp	r4, r3
 456 026a 15D0     		beq	.L18
 222:STM32Cube_FW_N6/Drivers/STM32N6xx_HAL_Driver/Src/stm32n6xx_hal_gpio.c ****         assert_param(IS_GPIO_AF(GPIO_Init->Alternate));
 457              		.loc 1 222 9 discriminator 19 view .LVU123
 458 026c 03F17043 		add	r3, r3, #-268435456
 459 0270 9C42     		cmp	r4, r3
 460 0272 11D0     		beq	.L18
 222:STM32Cube_FW_N6/Drivers/STM32N6xx_HAL_Driver/Src/stm32n6xx_hal_gpio.c ****         assert_param(IS_GPIO_AF(GPIO_Init->Alternate));
 461              		.loc 1 222 9 discriminator 20 view .LVU124
 462 0274 6C4B     		ldr	r3, .L68+44
 463 0276 9C42     		cmp	r4, r3
 464 0278 0ED0     		beq	.L18
 222:STM32Cube_FW_N6/Drivers/STM32N6xx_HAL_Driver/Src/stm32n6xx_hal_gpio.c ****         assert_param(IS_GPIO_AF(GPIO_Init->Alternate));
 465              		.loc 1 222 9 discriminator 21 view .LVU125
 466 027a 03F17043 		add	r3, r3, #-268435456
 467 027e 9C42     		cmp	r4, r3
 468 0280 0AD0     		beq	.L18
 222:STM32Cube_FW_N6/Drivers/STM32N6xx_HAL_Driver/Src/stm32n6xx_hal_gpio.c ****         assert_param(IS_GPIO_AF(GPIO_Init->Alternate));
 469              		.loc 1 222 9 discriminator 22 view .LVU126
 470 0282 6A4B     		ldr	r3, .L68+48
 471 0284 9C42     		cmp	r4, r3
 472 0286 07D0     		beq	.L18
 222:STM32Cube_FW_N6/Drivers/STM32N6xx_HAL_Driver/Src/stm32n6xx_hal_gpio.c ****         assert_param(IS_GPIO_AF(GPIO_Init->Alternate));
 473              		.loc 1 222 9 discriminator 23 view .LVU127
 474 0288 03F17043 		add	r3, r3, #-268435456
 475 028c 9C42     		cmp	r4, r3
 476 028e 03D0     		beq	.L18
 222:STM32Cube_FW_N6/Drivers/STM32N6xx_HAL_Driver/Src/stm32n6xx_hal_gpio.c ****         assert_param(IS_GPIO_AF(GPIO_Init->Alternate));
 477              		.loc 1 222 9 discriminator 24 view .LVU128
 478 0290 DE21     		movs	r1, #222
ARM GAS  C:\Users\DJESSOU\AppData\Local\Temp\cc6knbkx.s 			page 16


 479 0292 5A48     		ldr	r0, .L68
 480 0294 FFF7FEFF 		bl	assert_failed
 481              	.LVL25:
 482              	.L18:
 223:STM32Cube_FW_N6/Drivers/STM32N6xx_HAL_Driver/Src/stm32n6xx_hal_gpio.c **** 
 483              		.loc 1 223 9 is_stmt 1 view .LVU129
 484 0298 3369     		ldr	r3, [r6, #16]
 485 029a 0F2B     		cmp	r3, #15
 486 029c 03D9     		bls	.L19
 223:STM32Cube_FW_N6/Drivers/STM32N6xx_HAL_Driver/Src/stm32n6xx_hal_gpio.c **** 
 487              		.loc 1 223 9 is_stmt 0 discriminator 1 view .LVU130
 488 029e DF21     		movs	r1, #223
 489 02a0 5648     		ldr	r0, .L68
 490 02a2 FFF7FEFF 		bl	assert_failed
 491              	.LVL26:
 492              	.L19:
 226:STM32Cube_FW_N6/Drivers/STM32N6xx_HAL_Driver/Src/stm32n6xx_hal_gpio.c ****         temp &= ~(0xFu << ((position & 0x07u) * GPIO_AFRL_AFSEL1_Pos));
 493              		.loc 1 226 9 is_stmt 1 view .LVU131
 227:STM32Cube_FW_N6/Drivers/STM32N6xx_HAL_Driver/Src/stm32n6xx_hal_gpio.c ****         temp |= ((GPIO_Init->Alternate) << ((position & 0x07u) * GPIO_AFRL_AFSEL1_Pos));
 494              		.loc 1 227 24 is_stmt 0 view .LVU132
 495 02a6 0F23     		movs	r3, #15
 226:STM32Cube_FW_N6/Drivers/STM32N6xx_HAL_Driver/Src/stm32n6xx_hal_gpio.c ****         temp &= ~(0xFu << ((position & 0x07u) * GPIO_AFRL_AFSEL1_Pos));
 496              		.loc 1 226 36 view .LVU133
 497 02a8 FA08     		lsrs	r2, r7, #3
 498 02aa 04EB8202 		add	r2, r4, r2, lsl #2
 227:STM32Cube_FW_N6/Drivers/STM32N6xx_HAL_Driver/Src/stm32n6xx_hal_gpio.c ****         temp |= ((GPIO_Init->Alternate) << ((position & 0x07u) * GPIO_AFRL_AFSEL1_Pos));
 499              		.loc 1 227 38 view .LVU134
 500 02ae 07F00701 		and	r1, r7, #7
 226:STM32Cube_FW_N6/Drivers/STM32N6xx_HAL_Driver/Src/stm32n6xx_hal_gpio.c ****         temp &= ~(0xFu << ((position & 0x07u) * GPIO_AFRL_AFSEL1_Pos));
 501              		.loc 1 226 14 view .LVU135
 502 02b2 106A     		ldr	r0, [r2, #32]
 503              	.LVL27:
 227:STM32Cube_FW_N6/Drivers/STM32N6xx_HAL_Driver/Src/stm32n6xx_hal_gpio.c ****         temp |= ((GPIO_Init->Alternate) << ((position & 0x07u) * GPIO_AFRL_AFSEL1_Pos));
 504              		.loc 1 227 9 is_stmt 1 view .LVU136
 227:STM32Cube_FW_N6/Drivers/STM32N6xx_HAL_Driver/Src/stm32n6xx_hal_gpio.c ****         temp |= ((GPIO_Init->Alternate) << ((position & 0x07u) * GPIO_AFRL_AFSEL1_Pos));
 505              		.loc 1 227 47 is_stmt 0 view .LVU137
 506 02b4 8900     		lsls	r1, r1, #2
 227:STM32Cube_FW_N6/Drivers/STM32N6xx_HAL_Driver/Src/stm32n6xx_hal_gpio.c ****         temp |= ((GPIO_Init->Alternate) << ((position & 0x07u) * GPIO_AFRL_AFSEL1_Pos));
 507              		.loc 1 227 24 view .LVU138
 508 02b6 8B40     		lsls	r3, r3, r1
 227:STM32Cube_FW_N6/Drivers/STM32N6xx_HAL_Driver/Src/stm32n6xx_hal_gpio.c ****         temp |= ((GPIO_Init->Alternate) << ((position & 0x07u) * GPIO_AFRL_AFSEL1_Pos));
 509              		.loc 1 227 14 view .LVU139
 510 02b8 20EA0300 		bic	r0, r0, r3
 511              	.LVL28:
 228:STM32Cube_FW_N6/Drivers/STM32N6xx_HAL_Driver/Src/stm32n6xx_hal_gpio.c ****         GPIOx->AFR[position >> 3u] = temp;
 512              		.loc 1 228 9 is_stmt 1 view .LVU140
 228:STM32Cube_FW_N6/Drivers/STM32N6xx_HAL_Driver/Src/stm32n6xx_hal_gpio.c ****         GPIOx->AFR[position >> 3u] = temp;
 513              		.loc 1 228 41 is_stmt 0 view .LVU141
 514 02bc 3369     		ldr	r3, [r6, #16]
 515 02be 8B40     		lsls	r3, r3, r1
 228:STM32Cube_FW_N6/Drivers/STM32N6xx_HAL_Driver/Src/stm32n6xx_hal_gpio.c ****         GPIOx->AFR[position >> 3u] = temp;
 516              		.loc 1 228 14 view .LVU142
 517 02c0 0343     		orrs	r3, r3, r0
 518              	.LVL29:
 229:STM32Cube_FW_N6/Drivers/STM32N6xx_HAL_Driver/Src/stm32n6xx_hal_gpio.c ****       }
 519              		.loc 1 229 9 is_stmt 1 view .LVU143
 229:STM32Cube_FW_N6/Drivers/STM32N6xx_HAL_Driver/Src/stm32n6xx_hal_gpio.c ****       }
ARM GAS  C:\Users\DJESSOU\AppData\Local\Temp\cc6knbkx.s 			page 17


 520              		.loc 1 229 36 is_stmt 0 view .LVU144
 521 02c2 1362     		str	r3, [r2, #32]
 522              	.LVL30:
 523              	.L15:
 233:STM32Cube_FW_N6/Drivers/STM32N6xx_HAL_Driver/Src/stm32n6xx_hal_gpio.c ****       temp &= ~(GPIO_MODER_MODE0 << (position * GPIO_MODER_MODE1_Pos));
 524              		.loc 1 233 7 is_stmt 1 view .LVU145
 234:STM32Cube_FW_N6/Drivers/STM32N6xx_HAL_Driver/Src/stm32n6xx_hal_gpio.c ****       temp |= ((GPIO_Init->Mode & GPIO_MODE) << (position * GPIO_MODER_MODE1_Pos));
 525              		.loc 1 234 34 is_stmt 0 view .LVU146
 526 02c4 0323     		movs	r3, #3
 233:STM32Cube_FW_N6/Drivers/STM32N6xx_HAL_Driver/Src/stm32n6xx_hal_gpio.c ****       temp &= ~(GPIO_MODER_MODE0 << (position * GPIO_MODER_MODE1_Pos));
 527              		.loc 1 233 12 view .LVU147
 528 02c6 2068     		ldr	r0, [r4]
 529              	.LVL31:
 234:STM32Cube_FW_N6/Drivers/STM32N6xx_HAL_Driver/Src/stm32n6xx_hal_gpio.c ****       temp |= ((GPIO_Init->Mode & GPIO_MODE) << (position * GPIO_MODER_MODE1_Pos));
 530              		.loc 1 234 7 is_stmt 1 view .LVU148
 234:STM32Cube_FW_N6/Drivers/STM32N6xx_HAL_Driver/Src/stm32n6xx_hal_gpio.c ****       temp |= ((GPIO_Init->Mode & GPIO_MODE) << (position * GPIO_MODER_MODE1_Pos));
 531              		.loc 1 234 34 is_stmt 0 view .LVU149
 532 02c8 03FA09F2 		lsl	r2, r3, r9
 234:STM32Cube_FW_N6/Drivers/STM32N6xx_HAL_Driver/Src/stm32n6xx_hal_gpio.c ****       temp |= ((GPIO_Init->Mode & GPIO_MODE) << (position * GPIO_MODER_MODE1_Pos));
 533              		.loc 1 234 12 view .LVU150
 534 02cc 20EA0200 		bic	r0, r0, r2
 535              	.LVL32:
 235:STM32Cube_FW_N6/Drivers/STM32N6xx_HAL_Driver/Src/stm32n6xx_hal_gpio.c ****       GPIOx->MODER = temp;
 536              		.loc 1 235 7 is_stmt 1 view .LVU151
 235:STM32Cube_FW_N6/Drivers/STM32N6xx_HAL_Driver/Src/stm32n6xx_hal_gpio.c ****       GPIOx->MODER = temp;
 537              		.loc 1 235 26 is_stmt 0 view .LVU152
 538 02d0 7268     		ldr	r2, [r6, #4]
 235:STM32Cube_FW_N6/Drivers/STM32N6xx_HAL_Driver/Src/stm32n6xx_hal_gpio.c ****       GPIOx->MODER = temp;
 539              		.loc 1 235 33 view .LVU153
 540 02d2 02EA0301 		and	r1, r2, r3
 235:STM32Cube_FW_N6/Drivers/STM32N6xx_HAL_Driver/Src/stm32n6xx_hal_gpio.c ****       GPIOx->MODER = temp;
 541              		.loc 1 235 46 view .LVU154
 542 02d6 01FA09F1 		lsl	r1, r1, r9
 235:STM32Cube_FW_N6/Drivers/STM32N6xx_HAL_Driver/Src/stm32n6xx_hal_gpio.c ****       GPIOx->MODER = temp;
 543              		.loc 1 235 12 view .LVU155
 544 02da 0143     		orrs	r1, r1, r0
 545              	.LVL33:
 236:STM32Cube_FW_N6/Drivers/STM32N6xx_HAL_Driver/Src/stm32n6xx_hal_gpio.c **** 
 546              		.loc 1 236 7 is_stmt 1 view .LVU156
 240:STM32Cube_FW_N6/Drivers/STM32N6xx_HAL_Driver/Src/stm32n6xx_hal_gpio.c ****       {
 547              		.loc 1 240 10 is_stmt 0 view .LVU157
 548 02dc 12F4403F 		tst	r2, #196608
 236:STM32Cube_FW_N6/Drivers/STM32N6xx_HAL_Driver/Src/stm32n6xx_hal_gpio.c **** 
 549              		.loc 1 236 20 view .LVU158
 550 02e0 2160     		str	r1, [r4]
 240:STM32Cube_FW_N6/Drivers/STM32N6xx_HAL_Driver/Src/stm32n6xx_hal_gpio.c ****       {
 551              		.loc 1 240 7 is_stmt 1 view .LVU159
 240:STM32Cube_FW_N6/Drivers/STM32N6xx_HAL_Driver/Src/stm32n6xx_hal_gpio.c ****       {
 552              		.loc 1 240 10 is_stmt 0 view .LVU160
 553 02e2 73D0     		beq	.L11
 242:STM32Cube_FW_N6/Drivers/STM32N6xx_HAL_Driver/Src/stm32n6xx_hal_gpio.c ****         temp &= ~(0x0FuL << ((position & 0x03u) * EXTI_EXTICR1_EXTI1_Pos));
 554              		.loc 1 242 9 is_stmt 1 view .LVU161
 243:STM32Cube_FW_N6/Drivers/STM32N6xx_HAL_Driver/Src/stm32n6xx_hal_gpio.c ****         temp |= (GPIO_GET_INDEX(GPIOx) << ((position & 0x03u) * EXTI_EXTICR1_EXTI1_Pos));
 555              		.loc 1 243 26 is_stmt 0 view .LVU162
 556 02e4 4FF00F0E 		mov	lr, #15
 557 02e8 27F00301 		bic	r1, r7, #3
 558              	.LVL34:
ARM GAS  C:\Users\DJESSOU\AppData\Local\Temp\cc6knbkx.s 			page 18


 243:STM32Cube_FW_N6/Drivers/STM32N6xx_HAL_Driver/Src/stm32n6xx_hal_gpio.c ****         temp |= (GPIO_GET_INDEX(GPIOx) << ((position & 0x03u) * EXTI_EXTICR1_EXTI1_Pos));
 559              		.loc 1 243 26 view .LVU163
 560 02ec 01F1AC41 		add	r1, r1, #1442840576
 561 02f0 01F51431 		add	r1, r1, #151552
 243:STM32Cube_FW_N6/Drivers/STM32N6xx_HAL_Driver/Src/stm32n6xx_hal_gpio.c ****         temp |= (GPIO_GET_INDEX(GPIOx) << ((position & 0x03u) * EXTI_EXTICR1_EXTI1_Pos));
 562              		.loc 1 243 40 view .LVU164
 563 02f4 07EA0300 		and	r0, r7, r3
 242:STM32Cube_FW_N6/Drivers/STM32N6xx_HAL_Driver/Src/stm32n6xx_hal_gpio.c ****         temp &= ~(0x0FuL << ((position & 0x03u) * EXTI_EXTICR1_EXTI1_Pos));
 564              		.loc 1 242 14 view .LVU165
 565 02f8 D1F860C0 		ldr	ip, [r1, #96]
 566              	.LVL35:
 243:STM32Cube_FW_N6/Drivers/STM32N6xx_HAL_Driver/Src/stm32n6xx_hal_gpio.c ****         temp |= (GPIO_GET_INDEX(GPIOx) << ((position & 0x03u) * EXTI_EXTICR1_EXTI1_Pos));
 567              		.loc 1 243 9 is_stmt 1 view .LVU166
 243:STM32Cube_FW_N6/Drivers/STM32N6xx_HAL_Driver/Src/stm32n6xx_hal_gpio.c ****         temp |= (GPIO_GET_INDEX(GPIOx) << ((position & 0x03u) * EXTI_EXTICR1_EXTI1_Pos));
 568              		.loc 1 243 49 is_stmt 0 view .LVU167
 569 02fc 9840     		lsls	r0, r0, r3
 243:STM32Cube_FW_N6/Drivers/STM32N6xx_HAL_Driver/Src/stm32n6xx_hal_gpio.c ****         temp |= (GPIO_GET_INDEX(GPIOx) << ((position & 0x03u) * EXTI_EXTICR1_EXTI1_Pos));
 570              		.loc 1 243 26 view .LVU168
 571 02fe 0EFA00FE 		lsl	lr, lr, r0
 244:STM32Cube_FW_N6/Drivers/STM32N6xx_HAL_Driver/Src/stm32n6xx_hal_gpio.c ****         EXTI->EXTICR[position >> 2u] = temp;
 572              		.loc 1 244 18 view .LVU169
 573 0302 4445     		cmp	r4, r8
 243:STM32Cube_FW_N6/Drivers/STM32N6xx_HAL_Driver/Src/stm32n6xx_hal_gpio.c ****         temp |= (GPIO_GET_INDEX(GPIOx) << ((position & 0x03u) * EXTI_EXTICR1_EXTI1_Pos));
 574              		.loc 1 243 14 view .LVU170
 575 0304 2CEA0E0C 		bic	ip, ip, lr
 576              	.LVL36:
 244:STM32Cube_FW_N6/Drivers/STM32N6xx_HAL_Driver/Src/stm32n6xx_hal_gpio.c ****         EXTI->EXTICR[position >> 2u] = temp;
 577              		.loc 1 244 9 is_stmt 1 view .LVU171
 244:STM32Cube_FW_N6/Drivers/STM32N6xx_HAL_Driver/Src/stm32n6xx_hal_gpio.c ****         EXTI->EXTICR[position >> 2u] = temp;
 578              		.loc 1 244 18 is_stmt 0 view .LVU172
 579 0308 64D0     		beq	.L31
 244:STM32Cube_FW_N6/Drivers/STM32N6xx_HAL_Driver/Src/stm32n6xx_hal_gpio.c ****         EXTI->EXTICR[position >> 2u] = temp;
 580              		.loc 1 244 18 discriminator 1 view .LVU173
 581 030a DFF8F8E0 		ldr	lr, .L68+8
 582 030e 7445     		cmp	r4, lr
 583 0310 62D0     		beq	.L32
 244:STM32Cube_FW_N6/Drivers/STM32N6xx_HAL_Driver/Src/stm32n6xx_hal_gpio.c ****         EXTI->EXTICR[position >> 2u] = temp;
 584              		.loc 1 244 18 discriminator 3 view .LVU174
 585 0312 0EF5806E 		add	lr, lr, #1024
 586 0316 7445     		cmp	r4, lr
 587 0318 60D0     		beq	.L33
 244:STM32Cube_FW_N6/Drivers/STM32N6xx_HAL_Driver/Src/stm32n6xx_hal_gpio.c ****         EXTI->EXTICR[position >> 2u] = temp;
 588              		.loc 1 244 18 discriminator 5 view .LVU175
 589 031a 0EF5806E 		add	lr, lr, #1024
 590 031e 7445     		cmp	r4, lr
 591 0320 20D0     		beq	.L21
 244:STM32Cube_FW_N6/Drivers/STM32N6xx_HAL_Driver/Src/stm32n6xx_hal_gpio.c ****         EXTI->EXTICR[position >> 2u] = temp;
 592              		.loc 1 244 18 discriminator 7 view .LVU176
 593 0322 3B4B     		ldr	r3, .L68+20
 594 0324 9C42     		cmp	r4, r3
 595 0326 5BD0     		beq	.L35
 244:STM32Cube_FW_N6/Drivers/STM32N6xx_HAL_Driver/Src/stm32n6xx_hal_gpio.c ****         EXTI->EXTICR[position >> 2u] = temp;
 596              		.loc 1 244 18 discriminator 9 view .LVU177
 597 0328 03F58063 		add	r3, r3, #1024
 598 032c 9C42     		cmp	r4, r3
 599 032e 59D0     		beq	.L36
 244:STM32Cube_FW_N6/Drivers/STM32N6xx_HAL_Driver/Src/stm32n6xx_hal_gpio.c ****         EXTI->EXTICR[position >> 2u] = temp;
ARM GAS  C:\Users\DJESSOU\AppData\Local\Temp\cc6knbkx.s 			page 19


 600              		.loc 1 244 18 discriminator 11 view .LVU178
 601 0330 03F58063 		add	r3, r3, #1024
 602 0334 9C42     		cmp	r4, r3
 603 0336 57D0     		beq	.L37
 244:STM32Cube_FW_N6/Drivers/STM32N6xx_HAL_Driver/Src/stm32n6xx_hal_gpio.c ****         EXTI->EXTICR[position >> 2u] = temp;
 604              		.loc 1 244 18 discriminator 13 view .LVU179
 605 0338 03F58063 		add	r3, r3, #1024
 606 033c 9C42     		cmp	r4, r3
 607 033e 55D0     		beq	.L38
 244:STM32Cube_FW_N6/Drivers/STM32N6xx_HAL_Driver/Src/stm32n6xx_hal_gpio.c ****         EXTI->EXTICR[position >> 2u] = temp;
 608              		.loc 1 244 18 discriminator 15 view .LVU180
 609 0340 03F5C053 		add	r3, r3, #6144
 610 0344 9C42     		cmp	r4, r3
 611 0346 53D0     		beq	.L39
 244:STM32Cube_FW_N6/Drivers/STM32N6xx_HAL_Driver/Src/stm32n6xx_hal_gpio.c ****         EXTI->EXTICR[position >> 2u] = temp;
 612              		.loc 1 244 18 discriminator 17 view .LVU181
 613 0348 03F58063 		add	r3, r3, #1024
 614 034c 9C42     		cmp	r4, r3
 615 034e 51D0     		beq	.L40
 244:STM32Cube_FW_N6/Drivers/STM32N6xx_HAL_Driver/Src/stm32n6xx_hal_gpio.c ****         EXTI->EXTICR[position >> 2u] = temp;
 616              		.loc 1 244 18 discriminator 19 view .LVU182
 617 0350 03F58063 		add	r3, r3, #1024
 618 0354 9C42     		cmp	r4, r3
 619 0356 4FD0     		beq	.L41
 244:STM32Cube_FW_N6/Drivers/STM32N6xx_HAL_Driver/Src/stm32n6xx_hal_gpio.c ****         EXTI->EXTICR[position >> 2u] = temp;
 620              		.loc 1 244 18 discriminator 21 view .LVU183
 621 0358 03F58063 		add	r3, r3, #1024
 244:STM32Cube_FW_N6/Drivers/STM32N6xx_HAL_Driver/Src/stm32n6xx_hal_gpio.c ****         EXTI->EXTICR[position >> 2u] = temp;
 622              		.loc 1 244 18 discriminator 23 view .LVU184
 623 035c 9C42     		cmp	r4, r3
 624 035e 14BF     		ite	ne
 625 0360 1023     		movne	r3, #16
 626 0362 0B23     		moveq	r3, #11
 627              	.L21:
 244:STM32Cube_FW_N6/Drivers/STM32N6xx_HAL_Driver/Src/stm32n6xx_hal_gpio.c ****         EXTI->EXTICR[position >> 2u] = temp;
 628              		.loc 1 244 40 discriminator 48 view .LVU185
 629 0364 8340     		lsls	r3, r3, r0
 244:STM32Cube_FW_N6/Drivers/STM32N6xx_HAL_Driver/Src/stm32n6xx_hal_gpio.c ****         EXTI->EXTICR[position >> 2u] = temp;
 630              		.loc 1 244 14 discriminator 48 view .LVU186
 631 0366 43EA0C03 		orr	r3, r3, ip
 632              	.LVL37:
 245:STM32Cube_FW_N6/Drivers/STM32N6xx_HAL_Driver/Src/stm32n6xx_hal_gpio.c **** 
 633              		.loc 1 245 9 is_stmt 1 view .LVU187
 245:STM32Cube_FW_N6/Drivers/STM32N6xx_HAL_Driver/Src/stm32n6xx_hal_gpio.c **** 
 634              		.loc 1 245 38 is_stmt 0 view .LVU188
 635 036a 0B66     		str	r3, [r1, #96]
 248:STM32Cube_FW_N6/Drivers/STM32N6xx_HAL_Driver/Src/stm32n6xx_hal_gpio.c ****         temp &= ~(iocurrent);
 636              		.loc 1 248 9 is_stmt 1 view .LVU189
 248:STM32Cube_FW_N6/Drivers/STM32N6xx_HAL_Driver/Src/stm32n6xx_hal_gpio.c ****         temp &= ~(iocurrent);
 637              		.loc 1 248 14 is_stmt 0 view .LVU190
 638 036c DAF88030 		ldr	r3, [r10, #128]
 639              	.LVL38:
 249:STM32Cube_FW_N6/Drivers/STM32N6xx_HAL_Driver/Src/stm32n6xx_hal_gpio.c ****         if ((GPIO_Init->Mode & EXTI_IT) != 0x00u)
 640              		.loc 1 249 9 is_stmt 1 view .LVU191
 250:STM32Cube_FW_N6/Drivers/STM32N6xx_HAL_Driver/Src/stm32n6xx_hal_gpio.c ****         {
 641              		.loc 1 250 9 view .LVU192
 249:STM32Cube_FW_N6/Drivers/STM32N6xx_HAL_Driver/Src/stm32n6xx_hal_gpio.c ****         if ((GPIO_Init->Mode & EXTI_IT) != 0x00u)
ARM GAS  C:\Users\DJESSOU\AppData\Local\Temp\cc6knbkx.s 			page 20


 642              		.loc 1 249 14 is_stmt 0 view .LVU193
 643 0370 12F4803F 		tst	r2, #65536
 644 0374 23EA0501 		bic	r1, r3, r5
 645              	.LVL39:
 249:STM32Cube_FW_N6/Drivers/STM32N6xx_HAL_Driver/Src/stm32n6xx_hal_gpio.c ****         if ((GPIO_Init->Mode & EXTI_IT) != 0x00u)
 646              		.loc 1 249 14 view .LVU194
 647 0378 43EA0503 		orr	r3, r3, r5
 648 037c 08BF     		it	eq
 649 037e 0B46     		moveq	r3, r1
 650              	.LVL40:
 254:STM32Cube_FW_N6/Drivers/STM32N6xx_HAL_Driver/Src/stm32n6xx_hal_gpio.c **** 
 651              		.loc 1 254 9 is_stmt 1 view .LVU195
 254:STM32Cube_FW_N6/Drivers/STM32N6xx_HAL_Driver/Src/stm32n6xx_hal_gpio.c **** 
 652              		.loc 1 254 20 is_stmt 0 view .LVU196
 653 0380 CAF88030 		str	r3, [r10, #128]
 256:STM32Cube_FW_N6/Drivers/STM32N6xx_HAL_Driver/Src/stm32n6xx_hal_gpio.c ****         temp &= ~(iocurrent);
 654              		.loc 1 256 9 is_stmt 1 view .LVU197
 256:STM32Cube_FW_N6/Drivers/STM32N6xx_HAL_Driver/Src/stm32n6xx_hal_gpio.c ****         temp &= ~(iocurrent);
 655              		.loc 1 256 14 is_stmt 0 view .LVU198
 656 0384 DAF88430 		ldr	r3, [r10, #132]
 657              	.LVL41:
 257:STM32Cube_FW_N6/Drivers/STM32N6xx_HAL_Driver/Src/stm32n6xx_hal_gpio.c ****         if ((GPIO_Init->Mode & EXTI_EVT) != 0x00u)
 658              		.loc 1 257 9 is_stmt 1 view .LVU199
 258:STM32Cube_FW_N6/Drivers/STM32N6xx_HAL_Driver/Src/stm32n6xx_hal_gpio.c ****         {
 659              		.loc 1 258 9 view .LVU200
 257:STM32Cube_FW_N6/Drivers/STM32N6xx_HAL_Driver/Src/stm32n6xx_hal_gpio.c ****         if ((GPIO_Init->Mode & EXTI_EVT) != 0x00u)
 660              		.loc 1 257 14 is_stmt 0 view .LVU201
 661 0388 12F4003F 		tst	r2, #131072
 662 038c 23EA0501 		bic	r1, r3, r5
 663              	.LVL42:
 257:STM32Cube_FW_N6/Drivers/STM32N6xx_HAL_Driver/Src/stm32n6xx_hal_gpio.c ****         if ((GPIO_Init->Mode & EXTI_EVT) != 0x00u)
 664              		.loc 1 257 14 view .LVU202
 665 0390 43EA0503 		orr	r3, r3, r5
 666 0394 08BF     		it	eq
 667 0396 0B46     		moveq	r3, r1
 668              	.LVL43:
 262:STM32Cube_FW_N6/Drivers/STM32N6xx_HAL_Driver/Src/stm32n6xx_hal_gpio.c **** 
 669              		.loc 1 262 9 is_stmt 1 view .LVU203
 262:STM32Cube_FW_N6/Drivers/STM32N6xx_HAL_Driver/Src/stm32n6xx_hal_gpio.c **** 
 670              		.loc 1 262 20 is_stmt 0 view .LVU204
 671 0398 CAF88430 		str	r3, [r10, #132]
 265:STM32Cube_FW_N6/Drivers/STM32N6xx_HAL_Driver/Src/stm32n6xx_hal_gpio.c ****         temp &= ~(iocurrent);
 672              		.loc 1 265 9 is_stmt 1 view .LVU205
 265:STM32Cube_FW_N6/Drivers/STM32N6xx_HAL_Driver/Src/stm32n6xx_hal_gpio.c ****         temp &= ~(iocurrent);
 673              		.loc 1 265 14 is_stmt 0 view .LVU206
 674 039c DAF80030 		ldr	r3, [r10]
 675              	.LVL44:
 266:STM32Cube_FW_N6/Drivers/STM32N6xx_HAL_Driver/Src/stm32n6xx_hal_gpio.c ****         if ((GPIO_Init->Mode & TRIGGER_RISING) != 0x00u)
 676              		.loc 1 266 9 is_stmt 1 view .LVU207
 267:STM32Cube_FW_N6/Drivers/STM32N6xx_HAL_Driver/Src/stm32n6xx_hal_gpio.c ****         {
 677              		.loc 1 267 9 view .LVU208
 266:STM32Cube_FW_N6/Drivers/STM32N6xx_HAL_Driver/Src/stm32n6xx_hal_gpio.c ****         if ((GPIO_Init->Mode & TRIGGER_RISING) != 0x00u)
 678              		.loc 1 266 14 is_stmt 0 view .LVU209
 679 03a0 12F4801F 		tst	r2, #1048576
 680 03a4 23EA0501 		bic	r1, r3, r5
 681              	.LVL45:
 266:STM32Cube_FW_N6/Drivers/STM32N6xx_HAL_Driver/Src/stm32n6xx_hal_gpio.c ****         if ((GPIO_Init->Mode & TRIGGER_RISING) != 0x00u)
ARM GAS  C:\Users\DJESSOU\AppData\Local\Temp\cc6knbkx.s 			page 21


 682              		.loc 1 266 14 view .LVU210
 683 03a8 43EA0503 		orr	r3, r3, r5
 684 03ac 08BF     		it	eq
 685 03ae 0B46     		moveq	r3, r1
 686              	.LVL46:
 271:STM32Cube_FW_N6/Drivers/STM32N6xx_HAL_Driver/Src/stm32n6xx_hal_gpio.c **** 
 687              		.loc 1 271 9 is_stmt 1 view .LVU211
 271:STM32Cube_FW_N6/Drivers/STM32N6xx_HAL_Driver/Src/stm32n6xx_hal_gpio.c **** 
 688              		.loc 1 271 21 is_stmt 0 view .LVU212
 689 03b0 CAF80030 		str	r3, [r10]
 273:STM32Cube_FW_N6/Drivers/STM32N6xx_HAL_Driver/Src/stm32n6xx_hal_gpio.c ****         temp &= ~(iocurrent);
 690              		.loc 1 273 9 is_stmt 1 view .LVU213
 273:STM32Cube_FW_N6/Drivers/STM32N6xx_HAL_Driver/Src/stm32n6xx_hal_gpio.c ****         temp &= ~(iocurrent);
 691              		.loc 1 273 14 is_stmt 0 view .LVU214
 692 03b4 DAF80430 		ldr	r3, [r10, #4]
 693              	.LVL47:
 274:STM32Cube_FW_N6/Drivers/STM32N6xx_HAL_Driver/Src/stm32n6xx_hal_gpio.c ****         if ((GPIO_Init->Mode & TRIGGER_FALLING) != 0x00u)
 694              		.loc 1 274 9 is_stmt 1 view .LVU215
 275:STM32Cube_FW_N6/Drivers/STM32N6xx_HAL_Driver/Src/stm32n6xx_hal_gpio.c ****         {
 695              		.loc 1 275 9 view .LVU216
 274:STM32Cube_FW_N6/Drivers/STM32N6xx_HAL_Driver/Src/stm32n6xx_hal_gpio.c ****         if ((GPIO_Init->Mode & TRIGGER_FALLING) != 0x00u)
 696              		.loc 1 274 14 is_stmt 0 view .LVU217
 697 03b8 12F4001F 		tst	r2, #2097152
 698 03bc 23EA0501 		bic	r1, r3, r5
 699              	.LVL48:
 274:STM32Cube_FW_N6/Drivers/STM32N6xx_HAL_Driver/Src/stm32n6xx_hal_gpio.c ****         if ((GPIO_Init->Mode & TRIGGER_FALLING) != 0x00u)
 700              		.loc 1 274 14 view .LVU218
 701 03c0 45EA0305 		orr	r5, r5, r3
 702              	.LVL49:
 274:STM32Cube_FW_N6/Drivers/STM32N6xx_HAL_Driver/Src/stm32n6xx_hal_gpio.c ****         if ((GPIO_Init->Mode & TRIGGER_FALLING) != 0x00u)
 703              		.loc 1 274 14 view .LVU219
 704 03c4 08BF     		it	eq
 705 03c6 0D46     		moveq	r5, r1
 706              	.LVL50:
 279:STM32Cube_FW_N6/Drivers/STM32N6xx_HAL_Driver/Src/stm32n6xx_hal_gpio.c ****       }
 707              		.loc 1 279 9 is_stmt 1 view .LVU220
 279:STM32Cube_FW_N6/Drivers/STM32N6xx_HAL_Driver/Src/stm32n6xx_hal_gpio.c ****       }
 708              		.loc 1 279 21 is_stmt 0 view .LVU221
 709 03c8 CAF80450 		str	r5, [r10, #4]
 710              	.LVL51:
 711              	.L11:
 283:STM32Cube_FW_N6/Drivers/STM32N6xx_HAL_Driver/Src/stm32n6xx_hal_gpio.c ****   }
 712              		.loc 1 283 5 is_stmt 1 view .LVU222
 283:STM32Cube_FW_N6/Drivers/STM32N6xx_HAL_Driver/Src/stm32n6xx_hal_gpio.c ****   }
 713              		.loc 1 283 13 is_stmt 0 view .LVU223
 714 03cc 0137     		adds	r7, r7, #1
 715              	.LVL52:
 283:STM32Cube_FW_N6/Drivers/STM32N6xx_HAL_Driver/Src/stm32n6xx_hal_gpio.c ****   }
 716              		.loc 1 283 13 view .LVU224
 717 03ce 09F10209 		add	r9, r9, #2
 718 03d2 98E6     		b	.L9
 719              	.LVL53:
 720              	.L31:
 244:STM32Cube_FW_N6/Drivers/STM32N6xx_HAL_Driver/Src/stm32n6xx_hal_gpio.c ****         EXTI->EXTICR[position >> 2u] = temp;
 721              		.loc 1 244 18 discriminator 2 view .LVU225
 722 03d4 0023     		movs	r3, #0
 723 03d6 C5E7     		b	.L21
ARM GAS  C:\Users\DJESSOU\AppData\Local\Temp\cc6knbkx.s 			page 22


 724              	.L32:
 244:STM32Cube_FW_N6/Drivers/STM32N6xx_HAL_Driver/Src/stm32n6xx_hal_gpio.c ****         EXTI->EXTICR[position >> 2u] = temp;
 725              		.loc 1 244 18 discriminator 4 view .LVU226
 726 03d8 0123     		movs	r3, #1
 727 03da C3E7     		b	.L21
 728              	.L33:
 244:STM32Cube_FW_N6/Drivers/STM32N6xx_HAL_Driver/Src/stm32n6xx_hal_gpio.c ****         EXTI->EXTICR[position >> 2u] = temp;
 729              		.loc 1 244 18 discriminator 6 view .LVU227
 730 03dc 0223     		movs	r3, #2
 731 03de C1E7     		b	.L21
 732              	.L35:
 244:STM32Cube_FW_N6/Drivers/STM32N6xx_HAL_Driver/Src/stm32n6xx_hal_gpio.c ****         EXTI->EXTICR[position >> 2u] = temp;
 733              		.loc 1 244 18 discriminator 10 view .LVU228
 734 03e0 0423     		movs	r3, #4
 735 03e2 BFE7     		b	.L21
 736              	.L36:
 244:STM32Cube_FW_N6/Drivers/STM32N6xx_HAL_Driver/Src/stm32n6xx_hal_gpio.c ****         EXTI->EXTICR[position >> 2u] = temp;
 737              		.loc 1 244 18 discriminator 12 view .LVU229
 738 03e4 0523     		movs	r3, #5
 739 03e6 BDE7     		b	.L21
 740              	.L37:
 244:STM32Cube_FW_N6/Drivers/STM32N6xx_HAL_Driver/Src/stm32n6xx_hal_gpio.c ****         EXTI->EXTICR[position >> 2u] = temp;
 741              		.loc 1 244 18 discriminator 14 view .LVU230
 742 03e8 0623     		movs	r3, #6
 743 03ea BBE7     		b	.L21
 744              	.L38:
 244:STM32Cube_FW_N6/Drivers/STM32N6xx_HAL_Driver/Src/stm32n6xx_hal_gpio.c ****         EXTI->EXTICR[position >> 2u] = temp;
 745              		.loc 1 244 18 discriminator 16 view .LVU231
 746 03ec 0723     		movs	r3, #7
 747 03ee B9E7     		b	.L21
 748              	.L39:
 244:STM32Cube_FW_N6/Drivers/STM32N6xx_HAL_Driver/Src/stm32n6xx_hal_gpio.c ****         EXTI->EXTICR[position >> 2u] = temp;
 749              		.loc 1 244 18 discriminator 18 view .LVU232
 750 03f0 0823     		movs	r3, #8
 751 03f2 B7E7     		b	.L21
 752              	.L40:
 244:STM32Cube_FW_N6/Drivers/STM32N6xx_HAL_Driver/Src/stm32n6xx_hal_gpio.c ****         EXTI->EXTICR[position >> 2u] = temp;
 753              		.loc 1 244 18 discriminator 20 view .LVU233
 754 03f4 0923     		movs	r3, #9
 755 03f6 B5E7     		b	.L21
 756              	.L41:
 244:STM32Cube_FW_N6/Drivers/STM32N6xx_HAL_Driver/Src/stm32n6xx_hal_gpio.c ****         EXTI->EXTICR[position >> 2u] = temp;
 757              		.loc 1 244 18 discriminator 22 view .LVU234
 758 03f8 0A23     		movs	r3, #10
 759 03fa B3E7     		b	.L21
 760              	.L69:
 761              		.align	2
 762              	.L68:
 763 03fc 00000000 		.word	.LC0
 764 0400 00000246 		.word	1174536192
 765 0404 00040256 		.word	1442972672
 766 0408 00080256 		.word	1442973696
 767 040c 000C0256 		.word	1442974720
 768 0410 00100256 		.word	1442975744
 769 0414 00140256 		.word	1442976768
 770 0418 00180256 		.word	1442977792
 771 041c 001C0256 		.word	1442978816
ARM GAS  C:\Users\DJESSOU\AppData\Local\Temp\cc6knbkx.s 			page 23


 772 0420 00340256 		.word	1442984960
 773 0424 00380256 		.word	1442985984
 774 0428 003C0256 		.word	1442987008
 775 042c 00400256 		.word	1442988032
 776              		.cfi_endproc
 777              	.LFE862:
 779              		.section	.text.HAL_GPIO_DeInit,"ax",%progbits
 780              		.align	1
 781              		.global	HAL_GPIO_DeInit
 782              		.syntax unified
 783              		.thumb
 784              		.thumb_func
 786              	HAL_GPIO_DeInit:
 787              	.LVL54:
 788              	.LFB863:
 286:STM32Cube_FW_N6/Drivers/STM32N6xx_HAL_Driver/Src/stm32n6xx_hal_gpio.c **** 
 287:STM32Cube_FW_N6/Drivers/STM32N6xx_HAL_Driver/Src/stm32n6xx_hal_gpio.c **** /**
 288:STM32Cube_FW_N6/Drivers/STM32N6xx_HAL_Driver/Src/stm32n6xx_hal_gpio.c ****   * @brief  De-initialize the GPIOx peripheral registers to their default reset values.
 289:STM32Cube_FW_N6/Drivers/STM32N6xx_HAL_Driver/Src/stm32n6xx_hal_gpio.c ****   * @param  GPIOx where x can be (A..H and N..Q) to select the GPIO peripheral for STM32N6xx family
 290:STM32Cube_FW_N6/Drivers/STM32N6xx_HAL_Driver/Src/stm32n6xx_hal_gpio.c ****   * @param  GPIO_Pin specifies the port bit to be written.
 291:STM32Cube_FW_N6/Drivers/STM32N6xx_HAL_Driver/Src/stm32n6xx_hal_gpio.c ****   *         This parameter can be any combination of GPIO_Pin_x where x can be (0..15).
 292:STM32Cube_FW_N6/Drivers/STM32N6xx_HAL_Driver/Src/stm32n6xx_hal_gpio.c ****   * @retval None
 293:STM32Cube_FW_N6/Drivers/STM32N6xx_HAL_Driver/Src/stm32n6xx_hal_gpio.c ****   */
 294:STM32Cube_FW_N6/Drivers/STM32N6xx_HAL_Driver/Src/stm32n6xx_hal_gpio.c **** void HAL_GPIO_DeInit(GPIO_TypeDef  *GPIOx, uint32_t GPIO_Pin)
 295:STM32Cube_FW_N6/Drivers/STM32N6xx_HAL_Driver/Src/stm32n6xx_hal_gpio.c **** {
 789              		.loc 1 295 1 is_stmt 1 view -0
 790              		.cfi_startproc
 791              		@ args = 0, pretend = 0, frame = 0
 792              		@ frame_needed = 0, uses_anonymous_args = 0
 296:STM32Cube_FW_N6/Drivers/STM32N6xx_HAL_Driver/Src/stm32n6xx_hal_gpio.c ****   uint32_t position = 0x00u;
 793              		.loc 1 296 3 view .LVU236
 297:STM32Cube_FW_N6/Drivers/STM32N6xx_HAL_Driver/Src/stm32n6xx_hal_gpio.c ****   uint32_t iocurrent;
 794              		.loc 1 297 3 view .LVU237
 298:STM32Cube_FW_N6/Drivers/STM32N6xx_HAL_Driver/Src/stm32n6xx_hal_gpio.c ****   uint32_t tmp;
 795              		.loc 1 298 3 view .LVU238
 299:STM32Cube_FW_N6/Drivers/STM32N6xx_HAL_Driver/Src/stm32n6xx_hal_gpio.c **** 
 300:STM32Cube_FW_N6/Drivers/STM32N6xx_HAL_Driver/Src/stm32n6xx_hal_gpio.c ****   /* Check the parameters */
 301:STM32Cube_FW_N6/Drivers/STM32N6xx_HAL_Driver/Src/stm32n6xx_hal_gpio.c ****   assert_param(IS_GPIO_ALL_INSTANCE(GPIOx));
 796              		.loc 1 301 3 view .LVU239
 295:STM32Cube_FW_N6/Drivers/STM32N6xx_HAL_Driver/Src/stm32n6xx_hal_gpio.c ****   uint32_t position = 0x00u;
 797              		.loc 1 295 1 is_stmt 0 view .LVU240
 798 0000 2DE9F84F 		push	{r3, r4, r5, r6, r7, r8, r9, r10, fp, lr}
 799              		.cfi_def_cfa_offset 40
 800              		.cfi_offset 3, -40
 801              		.cfi_offset 4, -36
 802              		.cfi_offset 5, -32
 803              		.cfi_offset 6, -28
 804              		.cfi_offset 7, -24
 805              		.cfi_offset 8, -20
 806              		.cfi_offset 9, -16
 807              		.cfi_offset 10, -12
 808              		.cfi_offset 11, -8
 809              		.cfi_offset 14, -4
 810              		.loc 1 301 3 view .LVU241
 811 0004 874B     		ldr	r3, .L97
 295:STM32Cube_FW_N6/Drivers/STM32N6xx_HAL_Driver/Src/stm32n6xx_hal_gpio.c ****   uint32_t position = 0x00u;
 812              		.loc 1 295 1 view .LVU242
ARM GAS  C:\Users\DJESSOU\AppData\Local\Temp\cc6knbkx.s 			page 24


 813 0006 0446     		mov	r4, r0
 814              		.loc 1 301 3 view .LVU243
 815 0008 9842     		cmp	r0, r3
 295:STM32Cube_FW_N6/Drivers/STM32N6xx_HAL_Driver/Src/stm32n6xx_hal_gpio.c ****   uint32_t position = 0x00u;
 816              		.loc 1 295 1 view .LVU244
 817 000a 0D46     		mov	r5, r1
 818              		.loc 1 301 3 view .LVU245
 819 000c 55D0     		beq	.L71
 820              		.loc 1 301 3 discriminator 1 view .LVU246
 821 000e 03F17043 		add	r3, r3, #-268435456
 822 0012 9842     		cmp	r0, r3
 823 0014 51D0     		beq	.L71
 824              		.loc 1 301 3 discriminator 2 view .LVU247
 825 0016 844B     		ldr	r3, .L97+4
 826 0018 9842     		cmp	r0, r3
 827 001a 4ED0     		beq	.L71
 828              		.loc 1 301 3 discriminator 3 view .LVU248
 829 001c 03F17043 		add	r3, r3, #-268435456
 830 0020 9842     		cmp	r0, r3
 831 0022 4AD0     		beq	.L71
 832              		.loc 1 301 3 discriminator 4 view .LVU249
 833 0024 814B     		ldr	r3, .L97+8
 834 0026 9842     		cmp	r0, r3
 835 0028 47D0     		beq	.L71
 836              		.loc 1 301 3 discriminator 5 view .LVU250
 837 002a 03F17043 		add	r3, r3, #-268435456
 838 002e 9842     		cmp	r0, r3
 839 0030 43D0     		beq	.L71
 840              		.loc 1 301 3 discriminator 6 view .LVU251
 841 0032 7F4B     		ldr	r3, .L97+12
 842 0034 9842     		cmp	r0, r3
 843 0036 40D0     		beq	.L71
 844              		.loc 1 301 3 discriminator 7 view .LVU252
 845 0038 03F17043 		add	r3, r3, #-268435456
 846 003c 9842     		cmp	r0, r3
 847 003e 3CD0     		beq	.L71
 848              		.loc 1 301 3 discriminator 8 view .LVU253
 849 0040 7C4B     		ldr	r3, .L97+16
 850 0042 9842     		cmp	r0, r3
 851 0044 39D0     		beq	.L71
 852              		.loc 1 301 3 discriminator 9 view .LVU254
 853 0046 03F17043 		add	r3, r3, #-268435456
 854 004a 9842     		cmp	r0, r3
 855 004c 35D0     		beq	.L71
 856              		.loc 1 301 3 discriminator 10 view .LVU255
 857 004e 7A4B     		ldr	r3, .L97+20
 858 0050 9842     		cmp	r0, r3
 859 0052 32D0     		beq	.L71
 860              		.loc 1 301 3 discriminator 11 view .LVU256
 861 0054 03F17043 		add	r3, r3, #-268435456
 862 0058 9842     		cmp	r0, r3
 863 005a 2ED0     		beq	.L71
 864              		.loc 1 301 3 discriminator 12 view .LVU257
 865 005c 774B     		ldr	r3, .L97+24
 866 005e 9842     		cmp	r0, r3
 867 0060 2BD0     		beq	.L71
 868              		.loc 1 301 3 discriminator 13 view .LVU258
ARM GAS  C:\Users\DJESSOU\AppData\Local\Temp\cc6knbkx.s 			page 25


 869 0062 03F17043 		add	r3, r3, #-268435456
 870 0066 9842     		cmp	r0, r3
 871 0068 27D0     		beq	.L71
 872              		.loc 1 301 3 discriminator 14 view .LVU259
 873 006a 754B     		ldr	r3, .L97+28
 874 006c 9842     		cmp	r0, r3
 875 006e 24D0     		beq	.L71
 876              		.loc 1 301 3 discriminator 15 view .LVU260
 877 0070 03F17043 		add	r3, r3, #-268435456
 878 0074 9842     		cmp	r0, r3
 879 0076 20D0     		beq	.L71
 880              		.loc 1 301 3 discriminator 16 view .LVU261
 881 0078 724B     		ldr	r3, .L97+32
 882 007a 9842     		cmp	r0, r3
 883 007c 1DD0     		beq	.L71
 884              		.loc 1 301 3 discriminator 17 view .LVU262
 885 007e 03F17043 		add	r3, r3, #-268435456
 886 0082 9842     		cmp	r0, r3
 887 0084 19D0     		beq	.L71
 888              		.loc 1 301 3 discriminator 18 view .LVU263
 889 0086 704B     		ldr	r3, .L97+36
 890 0088 9842     		cmp	r0, r3
 891 008a 16D0     		beq	.L71
 892              		.loc 1 301 3 discriminator 19 view .LVU264
 893 008c 03F17043 		add	r3, r3, #-268435456
 894 0090 9842     		cmp	r0, r3
 895 0092 12D0     		beq	.L71
 896              		.loc 1 301 3 discriminator 20 view .LVU265
 897 0094 6D4B     		ldr	r3, .L97+40
 898 0096 9842     		cmp	r0, r3
 899 0098 0FD0     		beq	.L71
 900              		.loc 1 301 3 discriminator 21 view .LVU266
 901 009a 03F17043 		add	r3, r3, #-268435456
 902 009e 9842     		cmp	r0, r3
 903 00a0 0BD0     		beq	.L71
 904              		.loc 1 301 3 discriminator 22 view .LVU267
 905 00a2 6B4B     		ldr	r3, .L97+44
 906 00a4 9842     		cmp	r0, r3
 907 00a6 08D0     		beq	.L71
 908              		.loc 1 301 3 discriminator 23 view .LVU268
 909 00a8 03F17043 		add	r3, r3, #-268435456
 910 00ac 9842     		cmp	r0, r3
 911 00ae 04D0     		beq	.L71
 912              		.loc 1 301 3 discriminator 24 view .LVU269
 913 00b0 40F22D11 		movw	r1, #301
 914              	.LVL55:
 915              		.loc 1 301 3 discriminator 24 view .LVU270
 916 00b4 6748     		ldr	r0, .L97+48
 917              	.LVL56:
 918              		.loc 1 301 3 discriminator 24 view .LVU271
 919 00b6 FFF7FEFF 		bl	assert_failed
 920              	.LVL57:
 921              	.L71:
 302:STM32Cube_FW_N6/Drivers/STM32N6xx_HAL_Driver/Src/stm32n6xx_hal_gpio.c ****   assert_param(IS_GPIO_PIN(GPIO_Pin));
 922              		.loc 1 302 3 is_stmt 1 view .LVU272
 923 00ba ABB2     		uxth	r3, r5
 924 00bc 13B1     		cbz	r3, .L72
ARM GAS  C:\Users\DJESSOU\AppData\Local\Temp\cc6knbkx.s 			page 26


 925              		.loc 1 302 3 is_stmt 0 discriminator 2 view .LVU273
 926 00be B5F5803F 		cmp	r5, #65536
 927 00c2 04D3     		bcc	.L73
 928              	.L72:
 929              		.loc 1 302 3 discriminator 3 view .LVU274
 930 00c4 4FF49771 		mov	r1, #302
 931 00c8 6248     		ldr	r0, .L97+48
 932 00ca FFF7FEFF 		bl	assert_failed
 933              	.LVL58:
 934              	.L73:
 303:STM32Cube_FW_N6/Drivers/STM32N6xx_HAL_Driver/Src/stm32n6xx_hal_gpio.c **** 
 304:STM32Cube_FW_N6/Drivers/STM32N6xx_HAL_Driver/Src/stm32n6xx_hal_gpio.c ****   /* Configure the port pins */
 305:STM32Cube_FW_N6/Drivers/STM32N6xx_HAL_Driver/Src/stm32n6xx_hal_gpio.c ****   while ((GPIO_Pin >> position) != 0x00u)
 306:STM32Cube_FW_N6/Drivers/STM32N6xx_HAL_Driver/Src/stm32n6xx_hal_gpio.c ****   {
 307:STM32Cube_FW_N6/Drivers/STM32N6xx_HAL_Driver/Src/stm32n6xx_hal_gpio.c ****     /* Get current io position */
 308:STM32Cube_FW_N6/Drivers/STM32N6xx_HAL_Driver/Src/stm32n6xx_hal_gpio.c ****     iocurrent = (GPIO_Pin) & (1uL << position);
 309:STM32Cube_FW_N6/Drivers/STM32N6xx_HAL_Driver/Src/stm32n6xx_hal_gpio.c **** 
 310:STM32Cube_FW_N6/Drivers/STM32N6xx_HAL_Driver/Src/stm32n6xx_hal_gpio.c ****     if (iocurrent != 0x00u)
 311:STM32Cube_FW_N6/Drivers/STM32N6xx_HAL_Driver/Src/stm32n6xx_hal_gpio.c ****     {
 312:STM32Cube_FW_N6/Drivers/STM32N6xx_HAL_Driver/Src/stm32n6xx_hal_gpio.c ****       /*------------------------- EXTI Mode Configuration --------------------*/
 313:STM32Cube_FW_N6/Drivers/STM32N6xx_HAL_Driver/Src/stm32n6xx_hal_gpio.c ****       /* Clear the External Interrupt or Event for the current IO */
 314:STM32Cube_FW_N6/Drivers/STM32N6xx_HAL_Driver/Src/stm32n6xx_hal_gpio.c **** 
 315:STM32Cube_FW_N6/Drivers/STM32N6xx_HAL_Driver/Src/stm32n6xx_hal_gpio.c ****       tmp = EXTI->EXTICR[position >> 2u];
 316:STM32Cube_FW_N6/Drivers/STM32N6xx_HAL_Driver/Src/stm32n6xx_hal_gpio.c ****       tmp &= (0x0FuL << ((position & 0x03u) * EXTI_EXTICR1_EXTI1_Pos));
 317:STM32Cube_FW_N6/Drivers/STM32N6xx_HAL_Driver/Src/stm32n6xx_hal_gpio.c ****       if (tmp == (GPIO_GET_INDEX(GPIOx) << ((position & 0x03u) * EXTI_EXTICR1_EXTI1_Pos)))
 935              		.loc 1 317 19 discriminator 23 view .LVU275
 936 00ce 0022     		movs	r2, #0
 308:STM32Cube_FW_N6/Drivers/STM32N6xx_HAL_Driver/Src/stm32n6xx_hal_gpio.c **** 
 937              		.loc 1 308 35 view .LVU276
 938 00d0 4FF0010A 		mov	r10, #1
 316:STM32Cube_FW_N6/Drivers/STM32N6xx_HAL_Driver/Src/stm32n6xx_hal_gpio.c ****       if (tmp == (GPIO_GET_INDEX(GPIOx) << ((position & 0x03u) * EXTI_EXTICR1_EXTI1_Pos)))
 939              		.loc 1 316 22 view .LVU277
 940 00d4 4FF00F08 		mov	r8, #15
 318:STM32Cube_FW_N6/Drivers/STM32N6xx_HAL_Driver/Src/stm32n6xx_hal_gpio.c ****       {
 319:STM32Cube_FW_N6/Drivers/STM32N6xx_HAL_Driver/Src/stm32n6xx_hal_gpio.c ****         /* Clear EXTI line configuration */
 320:STM32Cube_FW_N6/Drivers/STM32N6xx_HAL_Driver/Src/stm32n6xx_hal_gpio.c ****         EXTI->IMR1 &= ~(iocurrent);
 321:STM32Cube_FW_N6/Drivers/STM32N6xx_HAL_Driver/Src/stm32n6xx_hal_gpio.c ****         EXTI->EMR1 &= ~(iocurrent);
 322:STM32Cube_FW_N6/Drivers/STM32N6xx_HAL_Driver/Src/stm32n6xx_hal_gpio.c **** 
 323:STM32Cube_FW_N6/Drivers/STM32N6xx_HAL_Driver/Src/stm32n6xx_hal_gpio.c ****         /* Clear Rising Falling edge configuration */
 324:STM32Cube_FW_N6/Drivers/STM32N6xx_HAL_Driver/Src/stm32n6xx_hal_gpio.c ****         EXTI->RTSR1 &= ~(iocurrent);
 325:STM32Cube_FW_N6/Drivers/STM32N6xx_HAL_Driver/Src/stm32n6xx_hal_gpio.c ****         EXTI->FTSR1 &= ~(iocurrent);
 326:STM32Cube_FW_N6/Drivers/STM32N6xx_HAL_Driver/Src/stm32n6xx_hal_gpio.c **** 
 327:STM32Cube_FW_N6/Drivers/STM32N6xx_HAL_Driver/Src/stm32n6xx_hal_gpio.c ****         tmp = 0x0FuL << ((position & 0x03u) * EXTI_EXTICR1_EXTI1_Pos);
 328:STM32Cube_FW_N6/Drivers/STM32N6xx_HAL_Driver/Src/stm32n6xx_hal_gpio.c ****         EXTI->EXTICR[position >> 2u] &= ~tmp;
 329:STM32Cube_FW_N6/Drivers/STM32N6xx_HAL_Driver/Src/stm32n6xx_hal_gpio.c ****       }
 330:STM32Cube_FW_N6/Drivers/STM32N6xx_HAL_Driver/Src/stm32n6xx_hal_gpio.c **** 
 331:STM32Cube_FW_N6/Drivers/STM32N6xx_HAL_Driver/Src/stm32n6xx_hal_gpio.c ****       /*------------------------- GPIO Mode Configuration --------------------*/
 332:STM32Cube_FW_N6/Drivers/STM32N6xx_HAL_Driver/Src/stm32n6xx_hal_gpio.c ****       /* Configure IO in Analog Mode */
 333:STM32Cube_FW_N6/Drivers/STM32N6xx_HAL_Driver/Src/stm32n6xx_hal_gpio.c ****       GPIOx->MODER |= (GPIO_MODER_MODE0 << (position * GPIO_MODER_MODE1_Pos));
 941              		.loc 1 333 41 view .LVU278
 942 00d8 4FF0030B 		mov	fp, #3
 320:STM32Cube_FW_N6/Drivers/STM32N6xx_HAL_Driver/Src/stm32n6xx_hal_gpio.c ****         EXTI->EMR1 &= ~(iocurrent);
 943              		.loc 1 320 13 view .LVU279
 944 00dc 5E48     		ldr	r0, .L97+52
 945              	.LVL59:
 946              	.L74:
 305:STM32Cube_FW_N6/Drivers/STM32N6xx_HAL_Driver/Src/stm32n6xx_hal_gpio.c ****   {
ARM GAS  C:\Users\DJESSOU\AppData\Local\Temp\cc6knbkx.s 			page 27


 947              		.loc 1 305 33 is_stmt 1 view .LVU280
 948 00de 35FA02F3 		lsrs	r3, r5, r2
 949 00e2 01D1     		bne	.L78
 334:STM32Cube_FW_N6/Drivers/STM32N6xx_HAL_Driver/Src/stm32n6xx_hal_gpio.c **** 
 335:STM32Cube_FW_N6/Drivers/STM32N6xx_HAL_Driver/Src/stm32n6xx_hal_gpio.c ****       /* Configure the default Alternate Function in current IO */
 336:STM32Cube_FW_N6/Drivers/STM32N6xx_HAL_Driver/Src/stm32n6xx_hal_gpio.c ****       GPIOx->AFR[position >> 3u] &= ~(0xFu << ((position & 0x07u) * GPIO_AFRL_AFSEL1_Pos)) ;
 337:STM32Cube_FW_N6/Drivers/STM32N6xx_HAL_Driver/Src/stm32n6xx_hal_gpio.c **** 
 338:STM32Cube_FW_N6/Drivers/STM32N6xx_HAL_Driver/Src/stm32n6xx_hal_gpio.c ****       /* Configure the default value for IO Speed */
 339:STM32Cube_FW_N6/Drivers/STM32N6xx_HAL_Driver/Src/stm32n6xx_hal_gpio.c ****       GPIOx->OSPEEDR &= ~(GPIO_OSPEEDR_OSPEED0 << (position * GPIO_OSPEEDR_OSPEED1_Pos));
 340:STM32Cube_FW_N6/Drivers/STM32N6xx_HAL_Driver/Src/stm32n6xx_hal_gpio.c **** 
 341:STM32Cube_FW_N6/Drivers/STM32N6xx_HAL_Driver/Src/stm32n6xx_hal_gpio.c ****       /* Configure the default value IO Output Type */
 342:STM32Cube_FW_N6/Drivers/STM32N6xx_HAL_Driver/Src/stm32n6xx_hal_gpio.c ****       GPIOx->OTYPER  &= ~(GPIO_OTYPER_OT0 << position) ;
 343:STM32Cube_FW_N6/Drivers/STM32N6xx_HAL_Driver/Src/stm32n6xx_hal_gpio.c **** 
 344:STM32Cube_FW_N6/Drivers/STM32N6xx_HAL_Driver/Src/stm32n6xx_hal_gpio.c ****       /* Deactivate the Pull-up and Pull-down resistor for the current IO */
 345:STM32Cube_FW_N6/Drivers/STM32N6xx_HAL_Driver/Src/stm32n6xx_hal_gpio.c ****       GPIOx->PUPDR &= ~(GPIO_PUPDR_PUPD0 << (position * GPIO_PUPDR_PUPD1_Pos));
 346:STM32Cube_FW_N6/Drivers/STM32N6xx_HAL_Driver/Src/stm32n6xx_hal_gpio.c **** 
 347:STM32Cube_FW_N6/Drivers/STM32N6xx_HAL_Driver/Src/stm32n6xx_hal_gpio.c ****       /* Reset delay settings for the current IO */
 348:STM32Cube_FW_N6/Drivers/STM32N6xx_HAL_Driver/Src/stm32n6xx_hal_gpio.c ****       GPIOx->DELAYR[position >> 3u] &= ~(0xFu << ((position & 0x07u) * GPIO_DELAYRL_DLY1_Pos)) ;
 349:STM32Cube_FW_N6/Drivers/STM32N6xx_HAL_Driver/Src/stm32n6xx_hal_gpio.c **** 
 350:STM32Cube_FW_N6/Drivers/STM32N6xx_HAL_Driver/Src/stm32n6xx_hal_gpio.c ****       /* Reset control settings for the current IO */
 351:STM32Cube_FW_N6/Drivers/STM32N6xx_HAL_Driver/Src/stm32n6xx_hal_gpio.c ****       GPIOx->ADVCFGR[position >> 3u] &= ~(0xFu << ((position & 0x07u) * GPIO_ADVCFGRL_1_Pos)) ;
 352:STM32Cube_FW_N6/Drivers/STM32N6xx_HAL_Driver/Src/stm32n6xx_hal_gpio.c ****     }
 353:STM32Cube_FW_N6/Drivers/STM32N6xx_HAL_Driver/Src/stm32n6xx_hal_gpio.c **** 
 354:STM32Cube_FW_N6/Drivers/STM32N6xx_HAL_Driver/Src/stm32n6xx_hal_gpio.c ****     position++;
 355:STM32Cube_FW_N6/Drivers/STM32N6xx_HAL_Driver/Src/stm32n6xx_hal_gpio.c ****   }
 356:STM32Cube_FW_N6/Drivers/STM32N6xx_HAL_Driver/Src/stm32n6xx_hal_gpio.c **** }
 950              		.loc 1 356 1 is_stmt 0 view .LVU281
 951 00e4 BDE8F88F 		pop	{r3, r4, r5, r6, r7, r8, r9, r10, fp, pc}
 952              	.LVL60:
 953              	.L78:
 308:STM32Cube_FW_N6/Drivers/STM32N6xx_HAL_Driver/Src/stm32n6xx_hal_gpio.c **** 
 954              		.loc 1 308 5 is_stmt 1 view .LVU282
 308:STM32Cube_FW_N6/Drivers/STM32N6xx_HAL_Driver/Src/stm32n6xx_hal_gpio.c **** 
 955              		.loc 1 308 35 is_stmt 0 view .LVU283
 956 00e8 0AFA02FC 		lsl	ip, r10, r2
 957              	.LVL61:
 310:STM32Cube_FW_N6/Drivers/STM32N6xx_HAL_Driver/Src/stm32n6xx_hal_gpio.c ****     {
 958              		.loc 1 310 5 is_stmt 1 view .LVU284
 310:STM32Cube_FW_N6/Drivers/STM32N6xx_HAL_Driver/Src/stm32n6xx_hal_gpio.c ****     {
 959              		.loc 1 310 8 is_stmt 0 view .LVU285
 960 00ec 1CEA0506 		ands	r6, ip, r5
 961              	.LVL62:
 310:STM32Cube_FW_N6/Drivers/STM32N6xx_HAL_Driver/Src/stm32n6xx_hal_gpio.c ****     {
 962              		.loc 1 310 8 view .LVU286
 963 00f0 7FD0     		beq	.L75
 315:STM32Cube_FW_N6/Drivers/STM32N6xx_HAL_Driver/Src/stm32n6xx_hal_gpio.c ****       tmp &= (0x0FuL << ((position & 0x03u) * EXTI_EXTICR1_EXTI1_Pos));
 964              		.loc 1 315 7 is_stmt 1 view .LVU287
 965 00f2 22F00301 		bic	r1, r2, #3
 966 00f6 01F1AC41 		add	r1, r1, #1442840576
 967 00fa 01F51431 		add	r1, r1, #151552
 316:STM32Cube_FW_N6/Drivers/STM32N6xx_HAL_Driver/Src/stm32n6xx_hal_gpio.c ****       if (tmp == (GPIO_GET_INDEX(GPIOx) << ((position & 0x03u) * EXTI_EXTICR1_EXTI1_Pos)))
 968              		.loc 1 316 36 is_stmt 0 view .LVU288
 969 00fe 02F00307 		and	r7, r2, #3
 315:STM32Cube_FW_N6/Drivers/STM32N6xx_HAL_Driver/Src/stm32n6xx_hal_gpio.c ****       tmp &= (0x0FuL << ((position & 0x03u) * EXTI_EXTICR1_EXTI1_Pos));
 970              		.loc 1 315 11 view .LVU289
 971 0102 0B6E     		ldr	r3, [r1, #96]
 972              	.LVL63:
ARM GAS  C:\Users\DJESSOU\AppData\Local\Temp\cc6knbkx.s 			page 28


 316:STM32Cube_FW_N6/Drivers/STM32N6xx_HAL_Driver/Src/stm32n6xx_hal_gpio.c ****       if (tmp == (GPIO_GET_INDEX(GPIOx) << ((position & 0x03u) * EXTI_EXTICR1_EXTI1_Pos)))
 973              		.loc 1 316 7 is_stmt 1 view .LVU290
 316:STM32Cube_FW_N6/Drivers/STM32N6xx_HAL_Driver/Src/stm32n6xx_hal_gpio.c ****       if (tmp == (GPIO_GET_INDEX(GPIOx) << ((position & 0x03u) * EXTI_EXTICR1_EXTI1_Pos)))
 974              		.loc 1 316 45 is_stmt 0 view .LVU291
 975 0104 FF00     		lsls	r7, r7, #3
 316:STM32Cube_FW_N6/Drivers/STM32N6xx_HAL_Driver/Src/stm32n6xx_hal_gpio.c ****       if (tmp == (GPIO_GET_INDEX(GPIOx) << ((position & 0x03u) * EXTI_EXTICR1_EXTI1_Pos)))
 976              		.loc 1 316 22 view .LVU292
 977 0106 08FA07F9 		lsl	r9, r8, r7
 316:STM32Cube_FW_N6/Drivers/STM32N6xx_HAL_Driver/Src/stm32n6xx_hal_gpio.c ****       if (tmp == (GPIO_GET_INDEX(GPIOx) << ((position & 0x03u) * EXTI_EXTICR1_EXTI1_Pos)))
 978              		.loc 1 316 11 view .LVU293
 979 010a 09EA030E 		and	lr, r9, r3
 980              	.LVL64:
 317:STM32Cube_FW_N6/Drivers/STM32N6xx_HAL_Driver/Src/stm32n6xx_hal_gpio.c ****       {
 981              		.loc 1 317 7 is_stmt 1 view .LVU294
 317:STM32Cube_FW_N6/Drivers/STM32N6xx_HAL_Driver/Src/stm32n6xx_hal_gpio.c ****       {
 982              		.loc 1 317 19 is_stmt 0 view .LVU295
 983 010e 454B     		ldr	r3, .L97
 984 0110 9C42     		cmp	r4, r3
 985 0112 70D0     		beq	.L79
 317:STM32Cube_FW_N6/Drivers/STM32N6xx_HAL_Driver/Src/stm32n6xx_hal_gpio.c ****       {
 986              		.loc 1 317 19 discriminator 1 view .LVU296
 987 0114 03F58063 		add	r3, r3, #1024
 988 0118 9C42     		cmp	r4, r3
 989 011a 6ED0     		beq	.L80
 317:STM32Cube_FW_N6/Drivers/STM32N6xx_HAL_Driver/Src/stm32n6xx_hal_gpio.c ****       {
 990              		.loc 1 317 19 discriminator 3 view .LVU297
 991 011c 03F58063 		add	r3, r3, #1024
 992 0120 9C42     		cmp	r4, r3
 993 0122 6CD0     		beq	.L81
 317:STM32Cube_FW_N6/Drivers/STM32N6xx_HAL_Driver/Src/stm32n6xx_hal_gpio.c ****       {
 994              		.loc 1 317 19 discriminator 5 view .LVU298
 995 0124 03F58063 		add	r3, r3, #1024
 996 0128 9C42     		cmp	r4, r3
 997 012a 6AD0     		beq	.L82
 317:STM32Cube_FW_N6/Drivers/STM32N6xx_HAL_Driver/Src/stm32n6xx_hal_gpio.c ****       {
 998              		.loc 1 317 19 discriminator 7 view .LVU299
 999 012c 03F58063 		add	r3, r3, #1024
 1000 0130 9C42     		cmp	r4, r3
 1001 0132 68D0     		beq	.L83
 317:STM32Cube_FW_N6/Drivers/STM32N6xx_HAL_Driver/Src/stm32n6xx_hal_gpio.c ****       {
 1002              		.loc 1 317 19 discriminator 9 view .LVU300
 1003 0134 03F58063 		add	r3, r3, #1024
 1004 0138 9C42     		cmp	r4, r3
 1005 013a 66D0     		beq	.L84
 317:STM32Cube_FW_N6/Drivers/STM32N6xx_HAL_Driver/Src/stm32n6xx_hal_gpio.c ****       {
 1006              		.loc 1 317 19 discriminator 11 view .LVU301
 1007 013c 03F58063 		add	r3, r3, #1024
 1008 0140 9C42     		cmp	r4, r3
 1009 0142 64D0     		beq	.L85
 317:STM32Cube_FW_N6/Drivers/STM32N6xx_HAL_Driver/Src/stm32n6xx_hal_gpio.c ****       {
 1010              		.loc 1 317 19 discriminator 13 view .LVU302
 1011 0144 03F58063 		add	r3, r3, #1024
 1012 0148 9C42     		cmp	r4, r3
 1013 014a 62D0     		beq	.L86
 317:STM32Cube_FW_N6/Drivers/STM32N6xx_HAL_Driver/Src/stm32n6xx_hal_gpio.c ****       {
 1014              		.loc 1 317 19 discriminator 15 view .LVU303
 1015 014c 03F5C053 		add	r3, r3, #6144
ARM GAS  C:\Users\DJESSOU\AppData\Local\Temp\cc6knbkx.s 			page 29


 1016 0150 9C42     		cmp	r4, r3
 1017 0152 60D0     		beq	.L87
 317:STM32Cube_FW_N6/Drivers/STM32N6xx_HAL_Driver/Src/stm32n6xx_hal_gpio.c ****       {
 1018              		.loc 1 317 19 discriminator 17 view .LVU304
 1019 0154 03F58063 		add	r3, r3, #1024
 1020 0158 9C42     		cmp	r4, r3
 1021 015a 5ED0     		beq	.L88
 317:STM32Cube_FW_N6/Drivers/STM32N6xx_HAL_Driver/Src/stm32n6xx_hal_gpio.c ****       {
 1022              		.loc 1 317 19 discriminator 19 view .LVU305
 1023 015c 03F58063 		add	r3, r3, #1024
 1024 0160 9C42     		cmp	r4, r3
 1025 0162 5CD0     		beq	.L89
 317:STM32Cube_FW_N6/Drivers/STM32N6xx_HAL_Driver/Src/stm32n6xx_hal_gpio.c ****       {
 1026              		.loc 1 317 19 discriminator 21 view .LVU306
 1027 0164 03F58063 		add	r3, r3, #1024
 317:STM32Cube_FW_N6/Drivers/STM32N6xx_HAL_Driver/Src/stm32n6xx_hal_gpio.c ****       {
 1028              		.loc 1 317 19 discriminator 23 view .LVU307
 1029 0168 9C42     		cmp	r4, r3
 1030 016a 14BF     		ite	ne
 1031 016c 1023     		movne	r3, #16
 1032 016e 0B23     		moveq	r3, #11
 1033              	.L76:
 317:STM32Cube_FW_N6/Drivers/STM32N6xx_HAL_Driver/Src/stm32n6xx_hal_gpio.c ****       {
 1034              		.loc 1 317 41 discriminator 48 view .LVU308
 1035 0170 BB40     		lsls	r3, r3, r7
 317:STM32Cube_FW_N6/Drivers/STM32N6xx_HAL_Driver/Src/stm32n6xx_hal_gpio.c ****       {
 1036              		.loc 1 317 10 discriminator 48 view .LVU309
 1037 0172 7345     		cmp	r3, lr
 1038 0174 17D1     		bne	.L77
 320:STM32Cube_FW_N6/Drivers/STM32N6xx_HAL_Driver/Src/stm32n6xx_hal_gpio.c ****         EXTI->EMR1 &= ~(iocurrent);
 1039              		.loc 1 320 9 is_stmt 1 view .LVU310
 320:STM32Cube_FW_N6/Drivers/STM32N6xx_HAL_Driver/Src/stm32n6xx_hal_gpio.c ****         EXTI->EMR1 &= ~(iocurrent);
 1040              		.loc 1 320 13 is_stmt 0 view .LVU311
 1041 0176 D0F88030 		ldr	r3, [r0, #128]
 320:STM32Cube_FW_N6/Drivers/STM32N6xx_HAL_Driver/Src/stm32n6xx_hal_gpio.c ****         EXTI->EMR1 &= ~(iocurrent);
 1042              		.loc 1 320 20 view .LVU312
 1043 017a 23EA0603 		bic	r3, r3, r6
 1044 017e C0F88030 		str	r3, [r0, #128]
 321:STM32Cube_FW_N6/Drivers/STM32N6xx_HAL_Driver/Src/stm32n6xx_hal_gpio.c **** 
 1045              		.loc 1 321 9 is_stmt 1 view .LVU313
 321:STM32Cube_FW_N6/Drivers/STM32N6xx_HAL_Driver/Src/stm32n6xx_hal_gpio.c **** 
 1046              		.loc 1 321 13 is_stmt 0 view .LVU314
 1047 0182 D0F88430 		ldr	r3, [r0, #132]
 321:STM32Cube_FW_N6/Drivers/STM32N6xx_HAL_Driver/Src/stm32n6xx_hal_gpio.c **** 
 1048              		.loc 1 321 20 view .LVU315
 1049 0186 23EA0603 		bic	r3, r3, r6
 1050 018a C0F88430 		str	r3, [r0, #132]
 324:STM32Cube_FW_N6/Drivers/STM32N6xx_HAL_Driver/Src/stm32n6xx_hal_gpio.c ****         EXTI->FTSR1 &= ~(iocurrent);
 1051              		.loc 1 324 9 is_stmt 1 view .LVU316
 324:STM32Cube_FW_N6/Drivers/STM32N6xx_HAL_Driver/Src/stm32n6xx_hal_gpio.c ****         EXTI->FTSR1 &= ~(iocurrent);
 1052              		.loc 1 324 13 is_stmt 0 view .LVU317
 1053 018e 0368     		ldr	r3, [r0]
 324:STM32Cube_FW_N6/Drivers/STM32N6xx_HAL_Driver/Src/stm32n6xx_hal_gpio.c ****         EXTI->FTSR1 &= ~(iocurrent);
 1054              		.loc 1 324 21 view .LVU318
 1055 0190 23EA0603 		bic	r3, r3, r6
 1056 0194 0360     		str	r3, [r0]
 325:STM32Cube_FW_N6/Drivers/STM32N6xx_HAL_Driver/Src/stm32n6xx_hal_gpio.c **** 
ARM GAS  C:\Users\DJESSOU\AppData\Local\Temp\cc6knbkx.s 			page 30


 1057              		.loc 1 325 9 is_stmt 1 view .LVU319
 325:STM32Cube_FW_N6/Drivers/STM32N6xx_HAL_Driver/Src/stm32n6xx_hal_gpio.c **** 
 1058              		.loc 1 325 13 is_stmt 0 view .LVU320
 1059 0196 4368     		ldr	r3, [r0, #4]
 325:STM32Cube_FW_N6/Drivers/STM32N6xx_HAL_Driver/Src/stm32n6xx_hal_gpio.c **** 
 1060              		.loc 1 325 21 view .LVU321
 1061 0198 23EA0603 		bic	r3, r3, r6
 1062 019c 4360     		str	r3, [r0, #4]
 327:STM32Cube_FW_N6/Drivers/STM32N6xx_HAL_Driver/Src/stm32n6xx_hal_gpio.c ****         EXTI->EXTICR[position >> 2u] &= ~tmp;
 1063              		.loc 1 327 9 is_stmt 1 view .LVU322
 1064              	.LVL65:
 328:STM32Cube_FW_N6/Drivers/STM32N6xx_HAL_Driver/Src/stm32n6xx_hal_gpio.c ****       }
 1065              		.loc 1 328 9 view .LVU323
 328:STM32Cube_FW_N6/Drivers/STM32N6xx_HAL_Driver/Src/stm32n6xx_hal_gpio.c ****       }
 1066              		.loc 1 328 21 is_stmt 0 view .LVU324
 1067 019e 0B6E     		ldr	r3, [r1, #96]
 328:STM32Cube_FW_N6/Drivers/STM32N6xx_HAL_Driver/Src/stm32n6xx_hal_gpio.c ****       }
 1068              		.loc 1 328 38 view .LVU325
 1069 01a0 23EA0903 		bic	r3, r3, r9
 1070 01a4 0B66     		str	r3, [r1, #96]
 1071              	.LVL66:
 1072              	.L77:
 333:STM32Cube_FW_N6/Drivers/STM32N6xx_HAL_Driver/Src/stm32n6xx_hal_gpio.c **** 
 1073              		.loc 1 333 7 is_stmt 1 view .LVU326
 333:STM32Cube_FW_N6/Drivers/STM32N6xx_HAL_Driver/Src/stm32n6xx_hal_gpio.c **** 
 1074              		.loc 1 333 12 is_stmt 0 view .LVU327
 1075 01a6 2368     		ldr	r3, [r4]
 333:STM32Cube_FW_N6/Drivers/STM32N6xx_HAL_Driver/Src/stm32n6xx_hal_gpio.c **** 
 1076              		.loc 1 333 41 view .LVU328
 1077 01a8 5600     		lsls	r6, r2, #1
 1078              	.LVL67:
 333:STM32Cube_FW_N6/Drivers/STM32N6xx_HAL_Driver/Src/stm32n6xx_hal_gpio.c **** 
 1079              		.loc 1 333 41 view .LVU329
 1080 01aa 0BFA06F6 		lsl	r6, fp, r6
 333:STM32Cube_FW_N6/Drivers/STM32N6xx_HAL_Driver/Src/stm32n6xx_hal_gpio.c **** 
 1081              		.loc 1 333 20 view .LVU330
 1082 01ae 3343     		orrs	r3, r3, r6
 1083 01b0 2360     		str	r3, [r4]
 336:STM32Cube_FW_N6/Drivers/STM32N6xx_HAL_Driver/Src/stm32n6xx_hal_gpio.c **** 
 1084              		.loc 1 336 7 is_stmt 1 view .LVU331
 336:STM32Cube_FW_N6/Drivers/STM32N6xx_HAL_Driver/Src/stm32n6xx_hal_gpio.c **** 
 1085              		.loc 1 336 17 is_stmt 0 view .LVU332
 1086 01b2 D308     		lsrs	r3, r2, #3
 1087 01b4 04EB8303 		add	r3, r4, r3, lsl #2
 336:STM32Cube_FW_N6/Drivers/STM32N6xx_HAL_Driver/Src/stm32n6xx_hal_gpio.c **** 
 1088              		.loc 1 336 58 view .LVU333
 1089 01b8 02F00701 		and	r1, r2, #7
 336:STM32Cube_FW_N6/Drivers/STM32N6xx_HAL_Driver/Src/stm32n6xx_hal_gpio.c **** 
 1090              		.loc 1 336 17 view .LVU334
 1091 01bc 1F6A     		ldr	r7, [r3, #32]
 336:STM32Cube_FW_N6/Drivers/STM32N6xx_HAL_Driver/Src/stm32n6xx_hal_gpio.c **** 
 1092              		.loc 1 336 67 view .LVU335
 1093 01be 8900     		lsls	r1, r1, #2
 336:STM32Cube_FW_N6/Drivers/STM32N6xx_HAL_Driver/Src/stm32n6xx_hal_gpio.c **** 
 1094              		.loc 1 336 44 view .LVU336
 1095 01c0 08FA01F1 		lsl	r1, r8, r1
 336:STM32Cube_FW_N6/Drivers/STM32N6xx_HAL_Driver/Src/stm32n6xx_hal_gpio.c **** 
ARM GAS  C:\Users\DJESSOU\AppData\Local\Temp\cc6knbkx.s 			page 31


 1096              		.loc 1 336 34 view .LVU337
 1097 01c4 27EA0107 		bic	r7, r7, r1
 1098 01c8 1F62     		str	r7, [r3, #32]
 339:STM32Cube_FW_N6/Drivers/STM32N6xx_HAL_Driver/Src/stm32n6xx_hal_gpio.c **** 
 1099              		.loc 1 339 7 is_stmt 1 view .LVU338
 339:STM32Cube_FW_N6/Drivers/STM32N6xx_HAL_Driver/Src/stm32n6xx_hal_gpio.c **** 
 1100              		.loc 1 339 12 is_stmt 0 view .LVU339
 1101 01ca A768     		ldr	r7, [r4, #8]
 339:STM32Cube_FW_N6/Drivers/STM32N6xx_HAL_Driver/Src/stm32n6xx_hal_gpio.c **** 
 1102              		.loc 1 339 22 view .LVU340
 1103 01cc 27EA0607 		bic	r7, r7, r6
 1104 01d0 A760     		str	r7, [r4, #8]
 342:STM32Cube_FW_N6/Drivers/STM32N6xx_HAL_Driver/Src/stm32n6xx_hal_gpio.c **** 
 1105              		.loc 1 342 7 is_stmt 1 view .LVU341
 342:STM32Cube_FW_N6/Drivers/STM32N6xx_HAL_Driver/Src/stm32n6xx_hal_gpio.c **** 
 1106              		.loc 1 342 12 is_stmt 0 view .LVU342
 1107 01d2 6768     		ldr	r7, [r4, #4]
 342:STM32Cube_FW_N6/Drivers/STM32N6xx_HAL_Driver/Src/stm32n6xx_hal_gpio.c **** 
 1108              		.loc 1 342 22 view .LVU343
 1109 01d4 27EA0C07 		bic	r7, r7, ip
 1110 01d8 6760     		str	r7, [r4, #4]
 345:STM32Cube_FW_N6/Drivers/STM32N6xx_HAL_Driver/Src/stm32n6xx_hal_gpio.c **** 
 1111              		.loc 1 345 7 is_stmt 1 view .LVU344
 345:STM32Cube_FW_N6/Drivers/STM32N6xx_HAL_Driver/Src/stm32n6xx_hal_gpio.c **** 
 1112              		.loc 1 345 12 is_stmt 0 view .LVU345
 1113 01da E768     		ldr	r7, [r4, #12]
 345:STM32Cube_FW_N6/Drivers/STM32N6xx_HAL_Driver/Src/stm32n6xx_hal_gpio.c **** 
 1114              		.loc 1 345 20 view .LVU346
 1115 01dc 27EA0607 		bic	r7, r7, r6
 1116 01e0 E760     		str	r7, [r4, #12]
 348:STM32Cube_FW_N6/Drivers/STM32N6xx_HAL_Driver/Src/stm32n6xx_hal_gpio.c **** 
 1117              		.loc 1 348 7 is_stmt 1 view .LVU347
 348:STM32Cube_FW_N6/Drivers/STM32N6xx_HAL_Driver/Src/stm32n6xx_hal_gpio.c **** 
 1118              		.loc 1 348 20 is_stmt 0 view .LVU348
 1119 01e2 1E6C     		ldr	r6, [r3, #64]
 348:STM32Cube_FW_N6/Drivers/STM32N6xx_HAL_Driver/Src/stm32n6xx_hal_gpio.c **** 
 1120              		.loc 1 348 37 view .LVU349
 1121 01e4 26EA0106 		bic	r6, r6, r1
 1122 01e8 1E64     		str	r6, [r3, #64]
 351:STM32Cube_FW_N6/Drivers/STM32N6xx_HAL_Driver/Src/stm32n6xx_hal_gpio.c ****     }
 1123              		.loc 1 351 7 is_stmt 1 view .LVU350
 351:STM32Cube_FW_N6/Drivers/STM32N6xx_HAL_Driver/Src/stm32n6xx_hal_gpio.c ****     }
 1124              		.loc 1 351 21 is_stmt 0 view .LVU351
 1125 01ea 9E6C     		ldr	r6, [r3, #72]
 351:STM32Cube_FW_N6/Drivers/STM32N6xx_HAL_Driver/Src/stm32n6xx_hal_gpio.c ****     }
 1126              		.loc 1 351 38 view .LVU352
 1127 01ec 26EA0101 		bic	r1, r6, r1
 1128 01f0 9964     		str	r1, [r3, #72]
 1129              	.L75:
 354:STM32Cube_FW_N6/Drivers/STM32N6xx_HAL_Driver/Src/stm32n6xx_hal_gpio.c ****   }
 1130              		.loc 1 354 5 is_stmt 1 view .LVU353
 354:STM32Cube_FW_N6/Drivers/STM32N6xx_HAL_Driver/Src/stm32n6xx_hal_gpio.c ****   }
 1131              		.loc 1 354 13 is_stmt 0 view .LVU354
 1132 01f2 0132     		adds	r2, r2, #1
 1133              	.LVL68:
 354:STM32Cube_FW_N6/Drivers/STM32N6xx_HAL_Driver/Src/stm32n6xx_hal_gpio.c ****   }
 1134              		.loc 1 354 13 view .LVU355
ARM GAS  C:\Users\DJESSOU\AppData\Local\Temp\cc6knbkx.s 			page 32


 1135 01f4 73E7     		b	.L74
 1136              	.LVL69:
 1137              	.L79:
 317:STM32Cube_FW_N6/Drivers/STM32N6xx_HAL_Driver/Src/stm32n6xx_hal_gpio.c ****       {
 1138              		.loc 1 317 19 discriminator 2 view .LVU356
 1139 01f6 0023     		movs	r3, #0
 1140 01f8 BAE7     		b	.L76
 1141              	.L80:
 317:STM32Cube_FW_N6/Drivers/STM32N6xx_HAL_Driver/Src/stm32n6xx_hal_gpio.c ****       {
 1142              		.loc 1 317 19 discriminator 4 view .LVU357
 1143 01fa 0123     		movs	r3, #1
 1144 01fc B8E7     		b	.L76
 1145              	.L81:
 317:STM32Cube_FW_N6/Drivers/STM32N6xx_HAL_Driver/Src/stm32n6xx_hal_gpio.c ****       {
 1146              		.loc 1 317 19 discriminator 6 view .LVU358
 1147 01fe 0223     		movs	r3, #2
 1148 0200 B6E7     		b	.L76
 1149              	.L82:
 317:STM32Cube_FW_N6/Drivers/STM32N6xx_HAL_Driver/Src/stm32n6xx_hal_gpio.c ****       {
 1150              		.loc 1 317 19 discriminator 8 view .LVU359
 1151 0202 0323     		movs	r3, #3
 1152 0204 B4E7     		b	.L76
 1153              	.L83:
 317:STM32Cube_FW_N6/Drivers/STM32N6xx_HAL_Driver/Src/stm32n6xx_hal_gpio.c ****       {
 1154              		.loc 1 317 19 discriminator 10 view .LVU360
 1155 0206 0423     		movs	r3, #4
 1156 0208 B2E7     		b	.L76
 1157              	.L84:
 317:STM32Cube_FW_N6/Drivers/STM32N6xx_HAL_Driver/Src/stm32n6xx_hal_gpio.c ****       {
 1158              		.loc 1 317 19 discriminator 12 view .LVU361
 1159 020a 0523     		movs	r3, #5
 1160 020c B0E7     		b	.L76
 1161              	.L85:
 317:STM32Cube_FW_N6/Drivers/STM32N6xx_HAL_Driver/Src/stm32n6xx_hal_gpio.c ****       {
 1162              		.loc 1 317 19 discriminator 14 view .LVU362
 1163 020e 0623     		movs	r3, #6
 1164 0210 AEE7     		b	.L76
 1165              	.L86:
 317:STM32Cube_FW_N6/Drivers/STM32N6xx_HAL_Driver/Src/stm32n6xx_hal_gpio.c ****       {
 1166              		.loc 1 317 19 discriminator 16 view .LVU363
 1167 0212 0723     		movs	r3, #7
 1168 0214 ACE7     		b	.L76
 1169              	.L87:
 317:STM32Cube_FW_N6/Drivers/STM32N6xx_HAL_Driver/Src/stm32n6xx_hal_gpio.c ****       {
 1170              		.loc 1 317 19 discriminator 18 view .LVU364
 1171 0216 0823     		movs	r3, #8
 1172 0218 AAE7     		b	.L76
 1173              	.L88:
 317:STM32Cube_FW_N6/Drivers/STM32N6xx_HAL_Driver/Src/stm32n6xx_hal_gpio.c ****       {
 1174              		.loc 1 317 19 discriminator 20 view .LVU365
 1175 021a 0923     		movs	r3, #9
 1176 021c A8E7     		b	.L76
 1177              	.L89:
 317:STM32Cube_FW_N6/Drivers/STM32N6xx_HAL_Driver/Src/stm32n6xx_hal_gpio.c ****       {
 1178              		.loc 1 317 19 discriminator 22 view .LVU366
 1179 021e 0A23     		movs	r3, #10
 1180 0220 A6E7     		b	.L76
ARM GAS  C:\Users\DJESSOU\AppData\Local\Temp\cc6knbkx.s 			page 33


 1181              	.L98:
 1182 0222 00BF     		.align	2
 1183              	.L97:
 1184 0224 00000256 		.word	1442971648
 1185 0228 00040256 		.word	1442972672
 1186 022c 00080256 		.word	1442973696
 1187 0230 000C0256 		.word	1442974720
 1188 0234 00100256 		.word	1442975744
 1189 0238 00140256 		.word	1442976768
 1190 023c 00180256 		.word	1442977792
 1191 0240 001C0256 		.word	1442978816
 1192 0244 00340256 		.word	1442984960
 1193 0248 00380256 		.word	1442985984
 1194 024c 003C0256 		.word	1442987008
 1195 0250 00400256 		.word	1442988032
 1196 0254 00000000 		.word	.LC0
 1197 0258 00500256 		.word	1442992128
 1198              		.cfi_endproc
 1199              	.LFE863:
 1201              		.section	.text.HAL_GPIO_ReadPin,"ax",%progbits
 1202              		.align	1
 1203              		.global	HAL_GPIO_ReadPin
 1204              		.syntax unified
 1205              		.thumb
 1206              		.thumb_func
 1208              	HAL_GPIO_ReadPin:
 1209              	.LVL70:
 1210              	.LFB864:
 357:STM32Cube_FW_N6/Drivers/STM32N6xx_HAL_Driver/Src/stm32n6xx_hal_gpio.c **** 
 358:STM32Cube_FW_N6/Drivers/STM32N6xx_HAL_Driver/Src/stm32n6xx_hal_gpio.c **** /**
 359:STM32Cube_FW_N6/Drivers/STM32N6xx_HAL_Driver/Src/stm32n6xx_hal_gpio.c ****   * @}
 360:STM32Cube_FW_N6/Drivers/STM32N6xx_HAL_Driver/Src/stm32n6xx_hal_gpio.c ****   */
 361:STM32Cube_FW_N6/Drivers/STM32N6xx_HAL_Driver/Src/stm32n6xx_hal_gpio.c **** 
 362:STM32Cube_FW_N6/Drivers/STM32N6xx_HAL_Driver/Src/stm32n6xx_hal_gpio.c **** /** @addtogroup GPIO_Exported_Functions_Group2
 363:STM32Cube_FW_N6/Drivers/STM32N6xx_HAL_Driver/Src/stm32n6xx_hal_gpio.c ****   *  @brief GPIO Read, Write, Toggle, Lock and EXTI management functions.
 364:STM32Cube_FW_N6/Drivers/STM32N6xx_HAL_Driver/Src/stm32n6xx_hal_gpio.c ****   *
 365:STM32Cube_FW_N6/Drivers/STM32N6xx_HAL_Driver/Src/stm32n6xx_hal_gpio.c **** @verbatim
 366:STM32Cube_FW_N6/Drivers/STM32N6xx_HAL_Driver/Src/stm32n6xx_hal_gpio.c ****  ===============================================================================
 367:STM32Cube_FW_N6/Drivers/STM32N6xx_HAL_Driver/Src/stm32n6xx_hal_gpio.c ****                        ##### IO operation functions #####
 368:STM32Cube_FW_N6/Drivers/STM32N6xx_HAL_Driver/Src/stm32n6xx_hal_gpio.c ****  ===============================================================================
 369:STM32Cube_FW_N6/Drivers/STM32N6xx_HAL_Driver/Src/stm32n6xx_hal_gpio.c **** 
 370:STM32Cube_FW_N6/Drivers/STM32N6xx_HAL_Driver/Src/stm32n6xx_hal_gpio.c **** @endverbatim
 371:STM32Cube_FW_N6/Drivers/STM32N6xx_HAL_Driver/Src/stm32n6xx_hal_gpio.c ****   * @{
 372:STM32Cube_FW_N6/Drivers/STM32N6xx_HAL_Driver/Src/stm32n6xx_hal_gpio.c ****   */
 373:STM32Cube_FW_N6/Drivers/STM32N6xx_HAL_Driver/Src/stm32n6xx_hal_gpio.c **** 
 374:STM32Cube_FW_N6/Drivers/STM32N6xx_HAL_Driver/Src/stm32n6xx_hal_gpio.c **** /**
 375:STM32Cube_FW_N6/Drivers/STM32N6xx_HAL_Driver/Src/stm32n6xx_hal_gpio.c ****   * @brief  Read the specified input port pin.
 376:STM32Cube_FW_N6/Drivers/STM32N6xx_HAL_Driver/Src/stm32n6xx_hal_gpio.c ****   * @param  GPIOx where x can be (A..H and N..Q) to select the GPIO peripheral for STM32N6xx family
 377:STM32Cube_FW_N6/Drivers/STM32N6xx_HAL_Driver/Src/stm32n6xx_hal_gpio.c ****   * @param  GPIO_Pin specifies the port bit to read.
 378:STM32Cube_FW_N6/Drivers/STM32N6xx_HAL_Driver/Src/stm32n6xx_hal_gpio.c ****   *         This parameter can be any combination of GPIO_Pin_x where x can be (0..15).
 379:STM32Cube_FW_N6/Drivers/STM32N6xx_HAL_Driver/Src/stm32n6xx_hal_gpio.c ****   * @retval The input port pin value.
 380:STM32Cube_FW_N6/Drivers/STM32N6xx_HAL_Driver/Src/stm32n6xx_hal_gpio.c ****   */
 381:STM32Cube_FW_N6/Drivers/STM32N6xx_HAL_Driver/Src/stm32n6xx_hal_gpio.c **** GPIO_PinState HAL_GPIO_ReadPin(const GPIO_TypeDef *GPIOx, uint16_t GPIO_Pin)
 382:STM32Cube_FW_N6/Drivers/STM32N6xx_HAL_Driver/Src/stm32n6xx_hal_gpio.c **** {
 1211              		.loc 1 382 1 is_stmt 1 view -0
 1212              		.cfi_startproc
 1213              		@ args = 0, pretend = 0, frame = 0
ARM GAS  C:\Users\DJESSOU\AppData\Local\Temp\cc6knbkx.s 			page 34


 1214              		@ frame_needed = 0, uses_anonymous_args = 0
 383:STM32Cube_FW_N6/Drivers/STM32N6xx_HAL_Driver/Src/stm32n6xx_hal_gpio.c ****   GPIO_PinState bitstatus;
 1215              		.loc 1 383 3 view .LVU368
 384:STM32Cube_FW_N6/Drivers/STM32N6xx_HAL_Driver/Src/stm32n6xx_hal_gpio.c **** 
 385:STM32Cube_FW_N6/Drivers/STM32N6xx_HAL_Driver/Src/stm32n6xx_hal_gpio.c ****   /* Check the parameters */
 386:STM32Cube_FW_N6/Drivers/STM32N6xx_HAL_Driver/Src/stm32n6xx_hal_gpio.c ****   assert_param(IS_GPIO_PIN(GPIO_Pin));
 1216              		.loc 1 386 3 view .LVU369
 382:STM32Cube_FW_N6/Drivers/STM32N6xx_HAL_Driver/Src/stm32n6xx_hal_gpio.c ****   GPIO_PinState bitstatus;
 1217              		.loc 1 382 1 is_stmt 0 view .LVU370
 1218 0000 38B5     		push	{r3, r4, r5, lr}
 1219              		.cfi_def_cfa_offset 16
 1220              		.cfi_offset 3, -16
 1221              		.cfi_offset 4, -12
 1222              		.cfi_offset 5, -8
 1223              		.cfi_offset 14, -4
 382:STM32Cube_FW_N6/Drivers/STM32N6xx_HAL_Driver/Src/stm32n6xx_hal_gpio.c ****   GPIO_PinState bitstatus;
 1224              		.loc 1 382 1 view .LVU371
 1225 0002 0546     		mov	r5, r0
 1226              		.loc 1 386 3 view .LVU372
 1227 0004 0C46     		mov	r4, r1
 1228 0006 21B9     		cbnz	r1, .L100
 1229              		.loc 1 386 3 discriminator 1 view .LVU373
 1230 0008 4FF4C171 		mov	r1, #386
 1231              	.LVL71:
 1232              		.loc 1 386 3 discriminator 1 view .LVU374
 1233 000c 0448     		ldr	r0, .L101
 1234              	.LVL72:
 1235              		.loc 1 386 3 discriminator 1 view .LVU375
 1236 000e FFF7FEFF 		bl	assert_failed
 1237              	.LVL73:
 1238              	.L100:
 387:STM32Cube_FW_N6/Drivers/STM32N6xx_HAL_Driver/Src/stm32n6xx_hal_gpio.c **** 
 388:STM32Cube_FW_N6/Drivers/STM32N6xx_HAL_Driver/Src/stm32n6xx_hal_gpio.c ****   if ((GPIOx->IDR & GPIO_Pin) != 0x00u)
 1239              		.loc 1 388 3 is_stmt 1 view .LVU376
 1240              		.loc 1 388 13 is_stmt 0 view .LVU377
 1241 0012 2B69     		ldr	r3, [r5, #16]
 1242              	.LVL74:
 389:STM32Cube_FW_N6/Drivers/STM32N6xx_HAL_Driver/Src/stm32n6xx_hal_gpio.c ****   {
 390:STM32Cube_FW_N6/Drivers/STM32N6xx_HAL_Driver/Src/stm32n6xx_hal_gpio.c ****     bitstatus = GPIO_PIN_SET;
 391:STM32Cube_FW_N6/Drivers/STM32N6xx_HAL_Driver/Src/stm32n6xx_hal_gpio.c ****   }
 392:STM32Cube_FW_N6/Drivers/STM32N6xx_HAL_Driver/Src/stm32n6xx_hal_gpio.c ****   else
 393:STM32Cube_FW_N6/Drivers/STM32N6xx_HAL_Driver/Src/stm32n6xx_hal_gpio.c ****   {
 394:STM32Cube_FW_N6/Drivers/STM32N6xx_HAL_Driver/Src/stm32n6xx_hal_gpio.c ****     bitstatus = GPIO_PIN_RESET;
 395:STM32Cube_FW_N6/Drivers/STM32N6xx_HAL_Driver/Src/stm32n6xx_hal_gpio.c ****   }
 396:STM32Cube_FW_N6/Drivers/STM32N6xx_HAL_Driver/Src/stm32n6xx_hal_gpio.c ****   return bitstatus;
 1243              		.loc 1 396 3 is_stmt 1 view .LVU378
 388:STM32Cube_FW_N6/Drivers/STM32N6xx_HAL_Driver/Src/stm32n6xx_hal_gpio.c ****   {
 1244              		.loc 1 388 6 is_stmt 0 view .LVU379
 1245 0014 1C42     		tst	r4, r3
 397:STM32Cube_FW_N6/Drivers/STM32N6xx_HAL_Driver/Src/stm32n6xx_hal_gpio.c **** }
 1246              		.loc 1 397 1 view .LVU380
 1247 0016 14BF     		ite	ne
 1248 0018 0120     		movne	r0, #1
 1249 001a 0020     		moveq	r0, #0
 1250 001c 38BD     		pop	{r3, r4, r5, pc}
 1251              	.LVL75:
 1252              	.L102:
ARM GAS  C:\Users\DJESSOU\AppData\Local\Temp\cc6knbkx.s 			page 35


 1253              		.loc 1 397 1 view .LVU381
 1254 001e 00BF     		.align	2
 1255              	.L101:
 1256 0020 00000000 		.word	.LC0
 1257              		.cfi_endproc
 1258              	.LFE864:
 1260              		.section	.text.HAL_GPIO_WritePin,"ax",%progbits
 1261              		.align	1
 1262              		.global	HAL_GPIO_WritePin
 1263              		.syntax unified
 1264              		.thumb
 1265              		.thumb_func
 1267              	HAL_GPIO_WritePin:
 1268              	.LVL76:
 1269              	.LFB865:
 398:STM32Cube_FW_N6/Drivers/STM32N6xx_HAL_Driver/Src/stm32n6xx_hal_gpio.c **** 
 399:STM32Cube_FW_N6/Drivers/STM32N6xx_HAL_Driver/Src/stm32n6xx_hal_gpio.c **** /**
 400:STM32Cube_FW_N6/Drivers/STM32N6xx_HAL_Driver/Src/stm32n6xx_hal_gpio.c ****   * @brief  Set or clear the selected data port bit.
 401:STM32Cube_FW_N6/Drivers/STM32N6xx_HAL_Driver/Src/stm32n6xx_hal_gpio.c ****   * @note   This function uses GPIOx_BSRR and GPIOx_BRR registers to allow atomic read/modify
 402:STM32Cube_FW_N6/Drivers/STM32N6xx_HAL_Driver/Src/stm32n6xx_hal_gpio.c ****   *         accesses. In this way, there is no risk of an IRQ occurring between
 403:STM32Cube_FW_N6/Drivers/STM32N6xx_HAL_Driver/Src/stm32n6xx_hal_gpio.c ****   *         the read and the modify access.
 404:STM32Cube_FW_N6/Drivers/STM32N6xx_HAL_Driver/Src/stm32n6xx_hal_gpio.c ****   * @param  GPIOx where x can be (A..H and N..Q) to select the GPIO peripheral for STM32N6xx family
 405:STM32Cube_FW_N6/Drivers/STM32N6xx_HAL_Driver/Src/stm32n6xx_hal_gpio.c ****   * @param  GPIO_Pin specifies the port bit to be written.
 406:STM32Cube_FW_N6/Drivers/STM32N6xx_HAL_Driver/Src/stm32n6xx_hal_gpio.c ****   *         This parameter can be any combination of GPIO_Pin_x where x can be (0..15).
 407:STM32Cube_FW_N6/Drivers/STM32N6xx_HAL_Driver/Src/stm32n6xx_hal_gpio.c ****   * @param  PinState specifies the value to be written to the selected bit.
 408:STM32Cube_FW_N6/Drivers/STM32N6xx_HAL_Driver/Src/stm32n6xx_hal_gpio.c ****   *         This parameter can be one of the GPIO_PinState enum values:
 409:STM32Cube_FW_N6/Drivers/STM32N6xx_HAL_Driver/Src/stm32n6xx_hal_gpio.c ****   *            @arg GPIO_PIN_RESET: to clear the port pin
 410:STM32Cube_FW_N6/Drivers/STM32N6xx_HAL_Driver/Src/stm32n6xx_hal_gpio.c ****   *            @arg GPIO_PIN_SET: to set the port pin
 411:STM32Cube_FW_N6/Drivers/STM32N6xx_HAL_Driver/Src/stm32n6xx_hal_gpio.c ****   * @retval None
 412:STM32Cube_FW_N6/Drivers/STM32N6xx_HAL_Driver/Src/stm32n6xx_hal_gpio.c ****   */
 413:STM32Cube_FW_N6/Drivers/STM32N6xx_HAL_Driver/Src/stm32n6xx_hal_gpio.c **** void HAL_GPIO_WritePin(GPIO_TypeDef *GPIOx, uint16_t GPIO_Pin, GPIO_PinState PinState)
 414:STM32Cube_FW_N6/Drivers/STM32N6xx_HAL_Driver/Src/stm32n6xx_hal_gpio.c **** {
 1270              		.loc 1 414 1 is_stmt 1 view -0
 1271              		.cfi_startproc
 1272              		@ args = 0, pretend = 0, frame = 0
 1273              		@ frame_needed = 0, uses_anonymous_args = 0
 415:STM32Cube_FW_N6/Drivers/STM32N6xx_HAL_Driver/Src/stm32n6xx_hal_gpio.c ****   /* Check the parameters */
 416:STM32Cube_FW_N6/Drivers/STM32N6xx_HAL_Driver/Src/stm32n6xx_hal_gpio.c ****   assert_param(IS_GPIO_PIN(GPIO_Pin));
 1274              		.loc 1 416 3 view .LVU383
 414:STM32Cube_FW_N6/Drivers/STM32N6xx_HAL_Driver/Src/stm32n6xx_hal_gpio.c ****   /* Check the parameters */
 1275              		.loc 1 414 1 is_stmt 0 view .LVU384
 1276 0000 70B5     		push	{r4, r5, r6, lr}
 1277              		.cfi_def_cfa_offset 16
 1278              		.cfi_offset 4, -16
 1279              		.cfi_offset 5, -12
 1280              		.cfi_offset 6, -8
 1281              		.cfi_offset 14, -4
 414:STM32Cube_FW_N6/Drivers/STM32N6xx_HAL_Driver/Src/stm32n6xx_hal_gpio.c ****   /* Check the parameters */
 1282              		.loc 1 414 1 view .LVU385
 1283 0002 0546     		mov	r5, r0
 1284 0004 1646     		mov	r6, r2
 1285              		.loc 1 416 3 view .LVU386
 1286 0006 0C46     		mov	r4, r1
 1287 0008 21B9     		cbnz	r1, .L104
 1288              		.loc 1 416 3 discriminator 1 view .LVU387
 1289 000a 4FF4D071 		mov	r1, #416
 1290              	.LVL77:
ARM GAS  C:\Users\DJESSOU\AppData\Local\Temp\cc6knbkx.s 			page 36


 1291              		.loc 1 416 3 discriminator 1 view .LVU388
 1292 000e 0848     		ldr	r0, .L109
 1293              	.LVL78:
 1294              		.loc 1 416 3 discriminator 1 view .LVU389
 1295 0010 FFF7FEFF 		bl	assert_failed
 1296              	.LVL79:
 1297              	.L104:
 417:STM32Cube_FW_N6/Drivers/STM32N6xx_HAL_Driver/Src/stm32n6xx_hal_gpio.c ****   assert_param(IS_GPIO_PIN_ACTION(PinState));
 1298              		.loc 1 417 3 is_stmt 1 view .LVU390
 1299 0014 012E     		cmp	r6, #1
 1300 0016 06D9     		bls	.L105
 1301              		.loc 1 417 3 is_stmt 0 discriminator 1 view .LVU391
 1302 0018 40F2A111 		movw	r1, #417
 1303 001c 0448     		ldr	r0, .L109
 1304 001e FFF7FEFF 		bl	assert_failed
 1305              	.LVL80:
 418:STM32Cube_FW_N6/Drivers/STM32N6xx_HAL_Driver/Src/stm32n6xx_hal_gpio.c **** 
 419:STM32Cube_FW_N6/Drivers/STM32N6xx_HAL_Driver/Src/stm32n6xx_hal_gpio.c ****   if (PinState != GPIO_PIN_RESET)
 1306              		.loc 1 419 3 is_stmt 1 view .LVU392
 1307              	.L106:
 420:STM32Cube_FW_N6/Drivers/STM32N6xx_HAL_Driver/Src/stm32n6xx_hal_gpio.c ****   {
 421:STM32Cube_FW_N6/Drivers/STM32N6xx_HAL_Driver/Src/stm32n6xx_hal_gpio.c ****     GPIOx->BSRR = (uint32_t)GPIO_Pin;
 1308              		.loc 1 421 5 view .LVU393
 1309              		.loc 1 421 17 is_stmt 0 view .LVU394
 1310 0022 AC61     		str	r4, [r5, #24]
 1311              	.L103:
 422:STM32Cube_FW_N6/Drivers/STM32N6xx_HAL_Driver/Src/stm32n6xx_hal_gpio.c ****   }
 423:STM32Cube_FW_N6/Drivers/STM32N6xx_HAL_Driver/Src/stm32n6xx_hal_gpio.c ****   else
 424:STM32Cube_FW_N6/Drivers/STM32N6xx_HAL_Driver/Src/stm32n6xx_hal_gpio.c ****   {
 425:STM32Cube_FW_N6/Drivers/STM32N6xx_HAL_Driver/Src/stm32n6xx_hal_gpio.c ****     GPIOx->BRR = (uint32_t)GPIO_Pin;
 426:STM32Cube_FW_N6/Drivers/STM32N6xx_HAL_Driver/Src/stm32n6xx_hal_gpio.c ****   }
 427:STM32Cube_FW_N6/Drivers/STM32N6xx_HAL_Driver/Src/stm32n6xx_hal_gpio.c **** }
 1312              		.loc 1 427 1 view .LVU395
 1313 0024 70BD     		pop	{r4, r5, r6, pc}
 1314              	.LVL81:
 1315              	.L105:
 419:STM32Cube_FW_N6/Drivers/STM32N6xx_HAL_Driver/Src/stm32n6xx_hal_gpio.c ****   {
 1316              		.loc 1 419 3 is_stmt 1 view .LVU396
 419:STM32Cube_FW_N6/Drivers/STM32N6xx_HAL_Driver/Src/stm32n6xx_hal_gpio.c ****   {
 1317              		.loc 1 419 6 is_stmt 0 view .LVU397
 1318 0026 002E     		cmp	r6, #0
 1319 0028 FBD1     		bne	.L106
 425:STM32Cube_FW_N6/Drivers/STM32N6xx_HAL_Driver/Src/stm32n6xx_hal_gpio.c ****   }
 1320              		.loc 1 425 5 is_stmt 1 view .LVU398
 425:STM32Cube_FW_N6/Drivers/STM32N6xx_HAL_Driver/Src/stm32n6xx_hal_gpio.c ****   }
 1321              		.loc 1 425 16 is_stmt 0 view .LVU399
 1322 002a AC62     		str	r4, [r5, #40]
 1323              		.loc 1 427 1 view .LVU400
 1324 002c FAE7     		b	.L103
 1325              	.L110:
 1326 002e 00BF     		.align	2
 1327              	.L109:
 1328 0030 00000000 		.word	.LC0
 1329              		.cfi_endproc
 1330              	.LFE865:
 1332              		.section	.text.HAL_GPIO_TogglePin,"ax",%progbits
 1333              		.align	1
ARM GAS  C:\Users\DJESSOU\AppData\Local\Temp\cc6knbkx.s 			page 37


 1334              		.global	HAL_GPIO_TogglePin
 1335              		.syntax unified
 1336              		.thumb
 1337              		.thumb_func
 1339              	HAL_GPIO_TogglePin:
 1340              	.LVL82:
 1341              	.LFB866:
 428:STM32Cube_FW_N6/Drivers/STM32N6xx_HAL_Driver/Src/stm32n6xx_hal_gpio.c **** 
 429:STM32Cube_FW_N6/Drivers/STM32N6xx_HAL_Driver/Src/stm32n6xx_hal_gpio.c **** /**
 430:STM32Cube_FW_N6/Drivers/STM32N6xx_HAL_Driver/Src/stm32n6xx_hal_gpio.c ****   * @brief  Toggle the specified GPIO pin.
 431:STM32Cube_FW_N6/Drivers/STM32N6xx_HAL_Driver/Src/stm32n6xx_hal_gpio.c ****   * @param  GPIOx where x can be (A..H and N..Q) to select the GPIO peripheral for STM32N6xx family
 432:STM32Cube_FW_N6/Drivers/STM32N6xx_HAL_Driver/Src/stm32n6xx_hal_gpio.c ****   * @param  GPIO_Pin specifies the pin to be toggled.
 433:STM32Cube_FW_N6/Drivers/STM32N6xx_HAL_Driver/Src/stm32n6xx_hal_gpio.c ****   *         This parameter can be any combination of GPIO_Pin_x where x can be (0..15).
 434:STM32Cube_FW_N6/Drivers/STM32N6xx_HAL_Driver/Src/stm32n6xx_hal_gpio.c ****   * @retval None
 435:STM32Cube_FW_N6/Drivers/STM32N6xx_HAL_Driver/Src/stm32n6xx_hal_gpio.c ****   */
 436:STM32Cube_FW_N6/Drivers/STM32N6xx_HAL_Driver/Src/stm32n6xx_hal_gpio.c **** void HAL_GPIO_TogglePin(GPIO_TypeDef *GPIOx, uint16_t GPIO_Pin)
 437:STM32Cube_FW_N6/Drivers/STM32N6xx_HAL_Driver/Src/stm32n6xx_hal_gpio.c **** {
 1342              		.loc 1 437 1 is_stmt 1 view -0
 1343              		.cfi_startproc
 1344              		@ args = 0, pretend = 0, frame = 0
 1345              		@ frame_needed = 0, uses_anonymous_args = 0
 438:STM32Cube_FW_N6/Drivers/STM32N6xx_HAL_Driver/Src/stm32n6xx_hal_gpio.c ****   uint32_t odr;
 1346              		.loc 1 438 3 view .LVU402
 439:STM32Cube_FW_N6/Drivers/STM32N6xx_HAL_Driver/Src/stm32n6xx_hal_gpio.c **** 
 440:STM32Cube_FW_N6/Drivers/STM32N6xx_HAL_Driver/Src/stm32n6xx_hal_gpio.c ****   /* Check the parameters */
 441:STM32Cube_FW_N6/Drivers/STM32N6xx_HAL_Driver/Src/stm32n6xx_hal_gpio.c ****   assert_param(IS_GPIO_PIN(GPIO_Pin));
 1347              		.loc 1 441 3 view .LVU403
 437:STM32Cube_FW_N6/Drivers/STM32N6xx_HAL_Driver/Src/stm32n6xx_hal_gpio.c ****   uint32_t odr;
 1348              		.loc 1 437 1 is_stmt 0 view .LVU404
 1349 0000 38B5     		push	{r3, r4, r5, lr}
 1350              		.cfi_def_cfa_offset 16
 1351              		.cfi_offset 3, -16
 1352              		.cfi_offset 4, -12
 1353              		.cfi_offset 5, -8
 1354              		.cfi_offset 14, -4
 437:STM32Cube_FW_N6/Drivers/STM32N6xx_HAL_Driver/Src/stm32n6xx_hal_gpio.c ****   uint32_t odr;
 1355              		.loc 1 437 1 view .LVU405
 1356 0002 0546     		mov	r5, r0
 1357              		.loc 1 441 3 view .LVU406
 1358 0004 0C46     		mov	r4, r1
 1359 0006 21B9     		cbnz	r1, .L112
 1360              		.loc 1 441 3 discriminator 1 view .LVU407
 1361 0008 40F2B911 		movw	r1, #441
 1362              	.LVL83:
 1363              		.loc 1 441 3 discriminator 1 view .LVU408
 1364 000c 0548     		ldr	r0, .L113
 1365              	.LVL84:
 1366              		.loc 1 441 3 discriminator 1 view .LVU409
 1367 000e FFF7FEFF 		bl	assert_failed
 1368              	.LVL85:
 1369              	.L112:
 442:STM32Cube_FW_N6/Drivers/STM32N6xx_HAL_Driver/Src/stm32n6xx_hal_gpio.c **** 
 443:STM32Cube_FW_N6/Drivers/STM32N6xx_HAL_Driver/Src/stm32n6xx_hal_gpio.c ****   /* get current Output Data Register value */
 444:STM32Cube_FW_N6/Drivers/STM32N6xx_HAL_Driver/Src/stm32n6xx_hal_gpio.c ****   odr = GPIOx->ODR;
 1370              		.loc 1 444 3 is_stmt 1 view .LVU410
 1371              		.loc 1 444 7 is_stmt 0 view .LVU411
 1372 0012 6B69     		ldr	r3, [r5, #20]
ARM GAS  C:\Users\DJESSOU\AppData\Local\Temp\cc6knbkx.s 			page 38


 1373              	.LVL86:
 445:STM32Cube_FW_N6/Drivers/STM32N6xx_HAL_Driver/Src/stm32n6xx_hal_gpio.c **** 
 446:STM32Cube_FW_N6/Drivers/STM32N6xx_HAL_Driver/Src/stm32n6xx_hal_gpio.c ****   /* Set selected pins that were at low level, and reset ones that were high */
 447:STM32Cube_FW_N6/Drivers/STM32N6xx_HAL_Driver/Src/stm32n6xx_hal_gpio.c ****   GPIOx->BSRR = ((odr & GPIO_Pin) << GPIO_NUMBER) | (~odr & GPIO_Pin);
 1374              		.loc 1 447 3 is_stmt 1 view .LVU412
 1375              		.loc 1 447 23 is_stmt 0 view .LVU413
 1376 0014 04EA0302 		and	r2, r4, r3
 1377              		.loc 1 447 59 view .LVU414
 1378 0018 24EA0304 		bic	r4, r4, r3
 1379              	.LVL87:
 1380              		.loc 1 447 51 view .LVU415
 1381 001c 44EA0244 		orr	r4, r4, r2, lsl #16
 1382              		.loc 1 447 15 view .LVU416
 1383 0020 AC61     		str	r4, [r5, #24]
 448:STM32Cube_FW_N6/Drivers/STM32N6xx_HAL_Driver/Src/stm32n6xx_hal_gpio.c **** }
 1384              		.loc 1 448 1 view .LVU417
 1385 0022 38BD     		pop	{r3, r4, r5, pc}
 1386              	.LVL88:
 1387              	.L114:
 1388              		.loc 1 448 1 view .LVU418
 1389              		.align	2
 1390              	.L113:
 1391 0024 00000000 		.word	.LC0
 1392              		.cfi_endproc
 1393              	.LFE866:
 1395              		.section	.text.HAL_GPIO_WriteMultipleStatePin,"ax",%progbits
 1396              		.align	1
 1397              		.global	HAL_GPIO_WriteMultipleStatePin
 1398              		.syntax unified
 1399              		.thumb
 1400              		.thumb_func
 1402              	HAL_GPIO_WriteMultipleStatePin:
 1403              	.LVL89:
 1404              	.LFB867:
 449:STM32Cube_FW_N6/Drivers/STM32N6xx_HAL_Driver/Src/stm32n6xx_hal_gpio.c **** 
 450:STM32Cube_FW_N6/Drivers/STM32N6xx_HAL_Driver/Src/stm32n6xx_hal_gpio.c **** /**
 451:STM32Cube_FW_N6/Drivers/STM32N6xx_HAL_Driver/Src/stm32n6xx_hal_gpio.c ****   * @brief  Set and clear several pins of a dedicated port in same cycle.
 452:STM32Cube_FW_N6/Drivers/STM32N6xx_HAL_Driver/Src/stm32n6xx_hal_gpio.c ****   * @param  GPIOx where x can be (A..H and N..Q) to select the GPIO peripheral for STM32N6xx family
 453:STM32Cube_FW_N6/Drivers/STM32N6xx_HAL_Driver/Src/stm32n6xx_hal_gpio.c ****   * @param  PinReset specifies the port bits to be reset
 454:STM32Cube_FW_N6/Drivers/STM32N6xx_HAL_Driver/Src/stm32n6xx_hal_gpio.c ****   *         This parameter can be any combination of GPIO_Pin_x where x can be (0..15) or zero.
 455:STM32Cube_FW_N6/Drivers/STM32N6xx_HAL_Driver/Src/stm32n6xx_hal_gpio.c ****   * @param  PinSet specifies the port bits to be set
 456:STM32Cube_FW_N6/Drivers/STM32N6xx_HAL_Driver/Src/stm32n6xx_hal_gpio.c ****   *         This parameter can be any combination of GPIO_Pin_x where x can be (0..15) or zero.
 457:STM32Cube_FW_N6/Drivers/STM32N6xx_HAL_Driver/Src/stm32n6xx_hal_gpio.c ****   * @note   Both PinReset and PinSet combinations shall not get any common bit, else
 458:STM32Cube_FW_N6/Drivers/STM32N6xx_HAL_Driver/Src/stm32n6xx_hal_gpio.c ****   *         assert would be triggered.
 459:STM32Cube_FW_N6/Drivers/STM32N6xx_HAL_Driver/Src/stm32n6xx_hal_gpio.c ****   * @note   At least one of the two parameters used to set or reset shall be different from zero.
 460:STM32Cube_FW_N6/Drivers/STM32N6xx_HAL_Driver/Src/stm32n6xx_hal_gpio.c ****   * @retval None
 461:STM32Cube_FW_N6/Drivers/STM32N6xx_HAL_Driver/Src/stm32n6xx_hal_gpio.c ****   */
 462:STM32Cube_FW_N6/Drivers/STM32N6xx_HAL_Driver/Src/stm32n6xx_hal_gpio.c **** void HAL_GPIO_WriteMultipleStatePin(GPIO_TypeDef *GPIOx, uint16_t PinReset, uint16_t PinSet)
 463:STM32Cube_FW_N6/Drivers/STM32N6xx_HAL_Driver/Src/stm32n6xx_hal_gpio.c **** {
 1405              		.loc 1 463 1 is_stmt 1 view -0
 1406              		.cfi_startproc
 1407              		@ args = 0, pretend = 0, frame = 0
 1408              		@ frame_needed = 0, uses_anonymous_args = 0
 464:STM32Cube_FW_N6/Drivers/STM32N6xx_HAL_Driver/Src/stm32n6xx_hal_gpio.c ****   uint32_t tmp;
 1409              		.loc 1 464 3 view .LVU420
 465:STM32Cube_FW_N6/Drivers/STM32N6xx_HAL_Driver/Src/stm32n6xx_hal_gpio.c **** 
 466:STM32Cube_FW_N6/Drivers/STM32N6xx_HAL_Driver/Src/stm32n6xx_hal_gpio.c ****   /* Check the parameters */
ARM GAS  C:\Users\DJESSOU\AppData\Local\Temp\cc6knbkx.s 			page 39


 467:STM32Cube_FW_N6/Drivers/STM32N6xx_HAL_Driver/Src/stm32n6xx_hal_gpio.c ****   /* Make sure at least one parameter is different from zero and that there is no common pin */
 468:STM32Cube_FW_N6/Drivers/STM32N6xx_HAL_Driver/Src/stm32n6xx_hal_gpio.c ****   assert_param(IS_GPIO_PIN((uint32_t)PinReset | (uint32_t)PinSet));
 1410              		.loc 1 468 3 view .LVU421
 1411 0000 51EA0203 		orrs	r3, r1, r2
 463:STM32Cube_FW_N6/Drivers/STM32N6xx_HAL_Driver/Src/stm32n6xx_hal_gpio.c ****   uint32_t tmp;
 1412              		.loc 1 463 1 is_stmt 0 view .LVU422
 1413 0004 70B5     		push	{r4, r5, r6, lr}
 1414              		.cfi_def_cfa_offset 16
 1415              		.cfi_offset 4, -16
 1416              		.cfi_offset 5, -12
 1417              		.cfi_offset 6, -8
 1418              		.cfi_offset 14, -4
 463:STM32Cube_FW_N6/Drivers/STM32N6xx_HAL_Driver/Src/stm32n6xx_hal_gpio.c ****   uint32_t tmp;
 1419              		.loc 1 463 1 view .LVU423
 1420 0006 0646     		mov	r6, r0
 1421 0008 0D46     		mov	r5, r1
 1422 000a 1446     		mov	r4, r2
 1423              		.loc 1 468 3 view .LVU424
 1424 000c 08D1     		bne	.L116
 1425              		.loc 1 468 3 discriminator 1 view .LVU425
 1426 000e 4FF4EA71 		mov	r1, #468
 1427              	.LVL90:
 1428              	.L121:
 469:STM32Cube_FW_N6/Drivers/STM32N6xx_HAL_Driver/Src/stm32n6xx_hal_gpio.c ****   assert_param(IS_GPIO_COMMON_PIN(PinReset, PinSet));
 1429              		.loc 1 469 3 discriminator 1 view .LVU426
 1430 0012 0648     		ldr	r0, .L122
 1431              	.LVL91:
 1432              		.loc 1 469 3 discriminator 1 view .LVU427
 1433 0014 FFF7FEFF 		bl	assert_failed
 1434              	.LVL92:
 1435              	.L117:
 470:STM32Cube_FW_N6/Drivers/STM32N6xx_HAL_Driver/Src/stm32n6xx_hal_gpio.c **** 
 471:STM32Cube_FW_N6/Drivers/STM32N6xx_HAL_Driver/Src/stm32n6xx_hal_gpio.c ****   tmp = (((uint32_t)PinReset << 16) | PinSet);
 1436              		.loc 1 471 3 is_stmt 1 view .LVU428
 1437              		.loc 1 471 7 is_stmt 0 view .LVU429
 1438 0018 44EA0544 		orr	r4, r4, r5, lsl #16
 1439              	.LVL93:
 472:STM32Cube_FW_N6/Drivers/STM32N6xx_HAL_Driver/Src/stm32n6xx_hal_gpio.c ****   GPIOx->BSRR = tmp;
 1440              		.loc 1 472 3 is_stmt 1 view .LVU430
 1441              		.loc 1 472 15 is_stmt 0 view .LVU431
 1442 001c B461     		str	r4, [r6, #24]
 473:STM32Cube_FW_N6/Drivers/STM32N6xx_HAL_Driver/Src/stm32n6xx_hal_gpio.c **** }
 1443              		.loc 1 473 1 view .LVU432
 1444 001e 70BD     		pop	{r4, r5, r6, pc}
 1445              	.LVL94:
 1446              	.L116:
 469:STM32Cube_FW_N6/Drivers/STM32N6xx_HAL_Driver/Src/stm32n6xx_hal_gpio.c **** 
 1447              		.loc 1 469 3 is_stmt 1 view .LVU433
 1448 0020 1142     		tst	r1, r2
 1449 0022 F9D0     		beq	.L117
 469:STM32Cube_FW_N6/Drivers/STM32N6xx_HAL_Driver/Src/stm32n6xx_hal_gpio.c **** 
 1450              		.loc 1 469 3 is_stmt 0 discriminator 1 view .LVU434
 1451 0024 40F2D511 		movw	r1, #469
 1452              	.LVL95:
 469:STM32Cube_FW_N6/Drivers/STM32N6xx_HAL_Driver/Src/stm32n6xx_hal_gpio.c **** 
 1453              		.loc 1 469 3 discriminator 1 view .LVU435
 1454 0028 F3E7     		b	.L121
ARM GAS  C:\Users\DJESSOU\AppData\Local\Temp\cc6knbkx.s 			page 40


 1455              	.L123:
 1456 002a 00BF     		.align	2
 1457              	.L122:
 1458 002c 00000000 		.word	.LC0
 1459              		.cfi_endproc
 1460              	.LFE867:
 1462              		.section	.text.HAL_GPIO_LockPin,"ax",%progbits
 1463              		.align	1
 1464              		.global	HAL_GPIO_LockPin
 1465              		.syntax unified
 1466              		.thumb
 1467              		.thumb_func
 1469              	HAL_GPIO_LockPin:
 1470              	.LVL96:
 1471              	.LFB868:
 474:STM32Cube_FW_N6/Drivers/STM32N6xx_HAL_Driver/Src/stm32n6xx_hal_gpio.c **** 
 475:STM32Cube_FW_N6/Drivers/STM32N6xx_HAL_Driver/Src/stm32n6xx_hal_gpio.c **** /**
 476:STM32Cube_FW_N6/Drivers/STM32N6xx_HAL_Driver/Src/stm32n6xx_hal_gpio.c ****   * @brief  Lock GPIO Pins configuration registers.
 477:STM32Cube_FW_N6/Drivers/STM32N6xx_HAL_Driver/Src/stm32n6xx_hal_gpio.c ****   * @note   The locked registers are GPIOx_MODER, GPIOx_OTYPER, GPIOx_OSPEEDR,
 478:STM32Cube_FW_N6/Drivers/STM32N6xx_HAL_Driver/Src/stm32n6xx_hal_gpio.c ****   *         GPIOx_PUPDR, GPIOx_AFRL, GPIOx_AFRH, GPIOx_DELAYRL, GPIOx_DELAYRH, GPIOx_ADVCFGRL, GPIO
 479:STM32Cube_FW_N6/Drivers/STM32N6xx_HAL_Driver/Src/stm32n6xx_hal_gpio.c ****   * @note   The configuration of the locked GPIO pins can no longer be modified until the next rese
 480:STM32Cube_FW_N6/Drivers/STM32N6xx_HAL_Driver/Src/stm32n6xx_hal_gpio.c ****   * @param  GPIOx where x can be (A..H and N..Q) to select the GPIO peripheral for STM32N6xx family
 481:STM32Cube_FW_N6/Drivers/STM32N6xx_HAL_Driver/Src/stm32n6xx_hal_gpio.c ****   * @param  GPIO_Pin specifies the port bits to be locked.
 482:STM32Cube_FW_N6/Drivers/STM32N6xx_HAL_Driver/Src/stm32n6xx_hal_gpio.c ****   *         This parameter can be any combination of GPIO_Pin_x where x can be (0..15).
 483:STM32Cube_FW_N6/Drivers/STM32N6xx_HAL_Driver/Src/stm32n6xx_hal_gpio.c ****   * @retval HAL_OK if success, HAL_ERROR otherwise
 484:STM32Cube_FW_N6/Drivers/STM32N6xx_HAL_Driver/Src/stm32n6xx_hal_gpio.c ****   */
 485:STM32Cube_FW_N6/Drivers/STM32N6xx_HAL_Driver/Src/stm32n6xx_hal_gpio.c **** HAL_StatusTypeDef HAL_GPIO_LockPin(GPIO_TypeDef *GPIOx, uint16_t GPIO_Pin)
 486:STM32Cube_FW_N6/Drivers/STM32N6xx_HAL_Driver/Src/stm32n6xx_hal_gpio.c **** {
 1472              		.loc 1 486 1 is_stmt 1 view -0
 1473              		.cfi_startproc
 1474              		@ args = 0, pretend = 0, frame = 8
 1475              		@ frame_needed = 0, uses_anonymous_args = 0
 487:STM32Cube_FW_N6/Drivers/STM32N6xx_HAL_Driver/Src/stm32n6xx_hal_gpio.c ****   __IO uint32_t tmp = GPIO_LCKR_LCKK;
 1476              		.loc 1 487 3 view .LVU437
 1477              		.loc 1 487 17 is_stmt 0 view .LVU438
 1478 0000 4FF48033 		mov	r3, #65536
 486:STM32Cube_FW_N6/Drivers/STM32N6xx_HAL_Driver/Src/stm32n6xx_hal_gpio.c ****   __IO uint32_t tmp = GPIO_LCKR_LCKK;
 1479              		.loc 1 486 1 view .LVU439
 1480 0004 37B5     		push	{r0, r1, r2, r4, r5, lr}
 1481              		.cfi_def_cfa_offset 24
 1482              		.cfi_offset 4, -12
 1483              		.cfi_offset 5, -8
 1484              		.cfi_offset 14, -4
 1485              		.loc 1 487 17 view .LVU440
 1486 0006 0193     		str	r3, [sp, #4]
 488:STM32Cube_FW_N6/Drivers/STM32N6xx_HAL_Driver/Src/stm32n6xx_hal_gpio.c **** 
 489:STM32Cube_FW_N6/Drivers/STM32N6xx_HAL_Driver/Src/stm32n6xx_hal_gpio.c ****   /* Check the parameters */
 490:STM32Cube_FW_N6/Drivers/STM32N6xx_HAL_Driver/Src/stm32n6xx_hal_gpio.c ****   assert_param(IS_GPIO_LOCK_INSTANCE(GPIOx));
 1487              		.loc 1 490 3 is_stmt 1 view .LVU441
 1488 0008 384B     		ldr	r3, .L127
 486:STM32Cube_FW_N6/Drivers/STM32N6xx_HAL_Driver/Src/stm32n6xx_hal_gpio.c ****   __IO uint32_t tmp = GPIO_LCKR_LCKK;
 1489              		.loc 1 486 1 is_stmt 0 view .LVU442
 1490 000a 0446     		mov	r4, r0
 1491              		.loc 1 490 3 view .LVU443
 1492 000c 9842     		cmp	r0, r3
 486:STM32Cube_FW_N6/Drivers/STM32N6xx_HAL_Driver/Src/stm32n6xx_hal_gpio.c ****   __IO uint32_t tmp = GPIO_LCKR_LCKK;
 1493              		.loc 1 486 1 view .LVU444
ARM GAS  C:\Users\DJESSOU\AppData\Local\Temp\cc6knbkx.s 			page 41


 1494 000e 0D46     		mov	r5, r1
 1495              		.loc 1 490 3 view .LVU445
 1496 0010 55D0     		beq	.L125
 1497              		.loc 1 490 3 discriminator 1 view .LVU446
 1498 0012 03F17043 		add	r3, r3, #-268435456
 1499 0016 9842     		cmp	r0, r3
 1500 0018 51D0     		beq	.L125
 1501              		.loc 1 490 3 discriminator 2 view .LVU447
 1502 001a 354B     		ldr	r3, .L127+4
 1503 001c 9842     		cmp	r0, r3
 1504 001e 4ED0     		beq	.L125
 1505              		.loc 1 490 3 discriminator 3 view .LVU448
 1506 0020 03F17043 		add	r3, r3, #-268435456
 1507 0024 9842     		cmp	r0, r3
 1508 0026 4AD0     		beq	.L125
 1509              		.loc 1 490 3 discriminator 4 view .LVU449
 1510 0028 324B     		ldr	r3, .L127+8
 1511 002a 9842     		cmp	r0, r3
 1512 002c 47D0     		beq	.L125
 1513              		.loc 1 490 3 discriminator 5 view .LVU450
 1514 002e 03F17043 		add	r3, r3, #-268435456
 1515 0032 9842     		cmp	r0, r3
 1516 0034 43D0     		beq	.L125
 1517              		.loc 1 490 3 discriminator 6 view .LVU451
 1518 0036 304B     		ldr	r3, .L127+12
 1519 0038 9842     		cmp	r0, r3
 1520 003a 40D0     		beq	.L125
 1521              		.loc 1 490 3 discriminator 7 view .LVU452
 1522 003c 03F17043 		add	r3, r3, #-268435456
 1523 0040 9842     		cmp	r0, r3
 1524 0042 3CD0     		beq	.L125
 1525              		.loc 1 490 3 discriminator 8 view .LVU453
 1526 0044 2D4B     		ldr	r3, .L127+16
 1527 0046 9842     		cmp	r0, r3
 1528 0048 39D0     		beq	.L125
 1529              		.loc 1 490 3 discriminator 9 view .LVU454
 1530 004a 03F17043 		add	r3, r3, #-268435456
 1531 004e 9842     		cmp	r0, r3
 1532 0050 35D0     		beq	.L125
 1533              		.loc 1 490 3 discriminator 10 view .LVU455
 1534 0052 2B4B     		ldr	r3, .L127+20
 1535 0054 9842     		cmp	r0, r3
 1536 0056 32D0     		beq	.L125
 1537              		.loc 1 490 3 discriminator 11 view .LVU456
 1538 0058 03F17043 		add	r3, r3, #-268435456
 1539 005c 9842     		cmp	r0, r3
 1540 005e 2ED0     		beq	.L125
 1541              		.loc 1 490 3 discriminator 12 view .LVU457
 1542 0060 284B     		ldr	r3, .L127+24
 1543 0062 9842     		cmp	r0, r3
 1544 0064 2BD0     		beq	.L125
 1545              		.loc 1 490 3 discriminator 13 view .LVU458
 1546 0066 03F17043 		add	r3, r3, #-268435456
 1547 006a 9842     		cmp	r0, r3
 1548 006c 27D0     		beq	.L125
 1549              		.loc 1 490 3 discriminator 14 view .LVU459
 1550 006e 264B     		ldr	r3, .L127+28
ARM GAS  C:\Users\DJESSOU\AppData\Local\Temp\cc6knbkx.s 			page 42


 1551 0070 9842     		cmp	r0, r3
 1552 0072 24D0     		beq	.L125
 1553              		.loc 1 490 3 discriminator 15 view .LVU460
 1554 0074 03F17043 		add	r3, r3, #-268435456
 1555 0078 9842     		cmp	r0, r3
 1556 007a 20D0     		beq	.L125
 1557              		.loc 1 490 3 discriminator 16 view .LVU461
 1558 007c 234B     		ldr	r3, .L127+32
 1559 007e 9842     		cmp	r0, r3
 1560 0080 1DD0     		beq	.L125
 1561              		.loc 1 490 3 discriminator 17 view .LVU462
 1562 0082 03F17043 		add	r3, r3, #-268435456
 1563 0086 9842     		cmp	r0, r3
 1564 0088 19D0     		beq	.L125
 1565              		.loc 1 490 3 discriminator 18 view .LVU463
 1566 008a 214B     		ldr	r3, .L127+36
 1567 008c 9842     		cmp	r0, r3
 1568 008e 16D0     		beq	.L125
 1569              		.loc 1 490 3 discriminator 19 view .LVU464
 1570 0090 03F17043 		add	r3, r3, #-268435456
 1571 0094 9842     		cmp	r0, r3
 1572 0096 12D0     		beq	.L125
 1573              		.loc 1 490 3 discriminator 20 view .LVU465
 1574 0098 1E4B     		ldr	r3, .L127+40
 1575 009a 9842     		cmp	r0, r3
 1576 009c 0FD0     		beq	.L125
 1577              		.loc 1 490 3 discriminator 21 view .LVU466
 1578 009e 03F17043 		add	r3, r3, #-268435456
 1579 00a2 9842     		cmp	r0, r3
 1580 00a4 0BD0     		beq	.L125
 1581              		.loc 1 490 3 discriminator 22 view .LVU467
 1582 00a6 1C4B     		ldr	r3, .L127+44
 1583 00a8 9842     		cmp	r0, r3
 1584 00aa 08D0     		beq	.L125
 1585              		.loc 1 490 3 discriminator 23 view .LVU468
 1586 00ac 03F17043 		add	r3, r3, #-268435456
 1587 00b0 9842     		cmp	r0, r3
 1588 00b2 04D0     		beq	.L125
 1589              		.loc 1 490 3 discriminator 24 view .LVU469
 1590 00b4 4FF4F571 		mov	r1, #490
 1591              	.LVL97:
 1592              		.loc 1 490 3 discriminator 24 view .LVU470
 1593 00b8 1848     		ldr	r0, .L127+48
 1594              	.LVL98:
 1595              		.loc 1 490 3 discriminator 24 view .LVU471
 1596 00ba FFF7FEFF 		bl	assert_failed
 1597              	.LVL99:
 1598              	.L125:
 491:STM32Cube_FW_N6/Drivers/STM32N6xx_HAL_Driver/Src/stm32n6xx_hal_gpio.c ****   assert_param(IS_GPIO_PIN(GPIO_Pin));
 1599              		.loc 1 491 3 is_stmt 1 view .LVU472
 1600 00be 25B9     		cbnz	r5, .L126
 1601              		.loc 1 491 3 is_stmt 0 discriminator 1 view .LVU473
 1602 00c0 40F2EB11 		movw	r1, #491
 1603 00c4 1548     		ldr	r0, .L127+48
 1604 00c6 FFF7FEFF 		bl	assert_failed
 1605              	.LVL100:
 1606              	.L126:
ARM GAS  C:\Users\DJESSOU\AppData\Local\Temp\cc6knbkx.s 			page 43


 492:STM32Cube_FW_N6/Drivers/STM32N6xx_HAL_Driver/Src/stm32n6xx_hal_gpio.c **** 
 493:STM32Cube_FW_N6/Drivers/STM32N6xx_HAL_Driver/Src/stm32n6xx_hal_gpio.c ****   /* Apply lock key write sequence */
 494:STM32Cube_FW_N6/Drivers/STM32N6xx_HAL_Driver/Src/stm32n6xx_hal_gpio.c ****   tmp |= GPIO_Pin;
 1607              		.loc 1 494 3 is_stmt 1 view .LVU474
 1608              		.loc 1 494 7 is_stmt 0 view .LVU475
 1609 00ca 019B     		ldr	r3, [sp, #4]
 1610 00cc 2B43     		orrs	r3, r3, r5
 1611 00ce 0193     		str	r3, [sp, #4]
 495:STM32Cube_FW_N6/Drivers/STM32N6xx_HAL_Driver/Src/stm32n6xx_hal_gpio.c ****   /* Set LCKx bit(s): LCKK='1' + LCK[15-0] */
 496:STM32Cube_FW_N6/Drivers/STM32N6xx_HAL_Driver/Src/stm32n6xx_hal_gpio.c ****   GPIOx->LCKR = tmp;
 1612              		.loc 1 496 3 is_stmt 1 view .LVU476
 1613              		.loc 1 496 15 is_stmt 0 view .LVU477
 1614 00d0 019B     		ldr	r3, [sp, #4]
 1615 00d2 E361     		str	r3, [r4, #28]
 497:STM32Cube_FW_N6/Drivers/STM32N6xx_HAL_Driver/Src/stm32n6xx_hal_gpio.c ****   /* Reset LCKx bit(s): LCKK='0' + LCK[15-0] */
 498:STM32Cube_FW_N6/Drivers/STM32N6xx_HAL_Driver/Src/stm32n6xx_hal_gpio.c ****   GPIOx->LCKR = GPIO_Pin;
 1616              		.loc 1 498 3 is_stmt 1 view .LVU478
 1617              		.loc 1 498 15 is_stmt 0 view .LVU479
 1618 00d4 E561     		str	r5, [r4, #28]
 499:STM32Cube_FW_N6/Drivers/STM32N6xx_HAL_Driver/Src/stm32n6xx_hal_gpio.c ****   /* Set LCKx bit(s): LCKK='1' + LCK[15-0] */
 500:STM32Cube_FW_N6/Drivers/STM32N6xx_HAL_Driver/Src/stm32n6xx_hal_gpio.c ****   GPIOx->LCKR = tmp;
 1619              		.loc 1 500 3 is_stmt 1 view .LVU480
 1620              		.loc 1 500 15 is_stmt 0 view .LVU481
 1621 00d6 019B     		ldr	r3, [sp, #4]
 1622 00d8 E361     		str	r3, [r4, #28]
 501:STM32Cube_FW_N6/Drivers/STM32N6xx_HAL_Driver/Src/stm32n6xx_hal_gpio.c ****   /* Read LCKK register. This read is mandatory to complete key lock sequence */
 502:STM32Cube_FW_N6/Drivers/STM32N6xx_HAL_Driver/Src/stm32n6xx_hal_gpio.c ****   tmp = GPIOx->LCKR;
 1623              		.loc 1 502 3 is_stmt 1 view .LVU482
 1624              		.loc 1 502 14 is_stmt 0 view .LVU483
 1625 00da E369     		ldr	r3, [r4, #28]
 1626              		.loc 1 502 7 view .LVU484
 1627 00dc 0193     		str	r3, [sp, #4]
 503:STM32Cube_FW_N6/Drivers/STM32N6xx_HAL_Driver/Src/stm32n6xx_hal_gpio.c **** 
 504:STM32Cube_FW_N6/Drivers/STM32N6xx_HAL_Driver/Src/stm32n6xx_hal_gpio.c ****   /* read again in order to confirm lock is active */
 505:STM32Cube_FW_N6/Drivers/STM32N6xx_HAL_Driver/Src/stm32n6xx_hal_gpio.c ****   if ((GPIOx->LCKR & GPIO_LCKR_LCKK) != 0x00u)
 1628              		.loc 1 505 3 is_stmt 1 view .LVU485
 1629              		.loc 1 505 13 is_stmt 0 view .LVU486
 1630 00de E069     		ldr	r0, [r4, #28]
 1631              		.loc 1 505 6 view .LVU487
 1632 00e0 80F48030 		eor	r0, r0, #65536
 506:STM32Cube_FW_N6/Drivers/STM32N6xx_HAL_Driver/Src/stm32n6xx_hal_gpio.c ****   {
 507:STM32Cube_FW_N6/Drivers/STM32N6xx_HAL_Driver/Src/stm32n6xx_hal_gpio.c ****     return HAL_OK;
 508:STM32Cube_FW_N6/Drivers/STM32N6xx_HAL_Driver/Src/stm32n6xx_hal_gpio.c ****   }
 509:STM32Cube_FW_N6/Drivers/STM32N6xx_HAL_Driver/Src/stm32n6xx_hal_gpio.c ****   else
 510:STM32Cube_FW_N6/Drivers/STM32N6xx_HAL_Driver/Src/stm32n6xx_hal_gpio.c ****   {
 511:STM32Cube_FW_N6/Drivers/STM32N6xx_HAL_Driver/Src/stm32n6xx_hal_gpio.c ****     return HAL_ERROR;
 512:STM32Cube_FW_N6/Drivers/STM32N6xx_HAL_Driver/Src/stm32n6xx_hal_gpio.c ****   }
 513:STM32Cube_FW_N6/Drivers/STM32N6xx_HAL_Driver/Src/stm32n6xx_hal_gpio.c **** }
 1633              		.loc 1 513 1 view .LVU488
 1634 00e4 C0F30040 		ubfx	r0, r0, #16, #1
 1635 00e8 03B0     		add	sp, sp, #12
 1636              		.cfi_def_cfa_offset 12
 1637              		@ sp needed
 1638 00ea 30BD     		pop	{r4, r5, pc}
 1639              	.LVL101:
 1640              	.L128:
 1641              		.loc 1 513 1 view .LVU489
ARM GAS  C:\Users\DJESSOU\AppData\Local\Temp\cc6knbkx.s 			page 44


 1642              		.align	2
 1643              	.L127:
 1644 00ec 00000256 		.word	1442971648
 1645 00f0 00040256 		.word	1442972672
 1646 00f4 00080256 		.word	1442973696
 1647 00f8 000C0256 		.word	1442974720
 1648 00fc 00100256 		.word	1442975744
 1649 0100 00140256 		.word	1442976768
 1650 0104 00180256 		.word	1442977792
 1651 0108 001C0256 		.word	1442978816
 1652 010c 00340256 		.word	1442984960
 1653 0110 00380256 		.word	1442985984
 1654 0114 003C0256 		.word	1442987008
 1655 0118 00400256 		.word	1442988032
 1656 011c 00000000 		.word	.LC0
 1657              		.cfi_endproc
 1658              	.LFE868:
 1660              		.section	.text.HAL_GPIO_SetRetime,"ax",%progbits
 1661              		.align	1
 1662              		.global	HAL_GPIO_SetRetime
 1663              		.syntax unified
 1664              		.thumb
 1665              		.thumb_func
 1667              	HAL_GPIO_SetRetime:
 1668              	.LVL102:
 1669              	.LFB869:
 514:STM32Cube_FW_N6/Drivers/STM32N6xx_HAL_Driver/Src/stm32n6xx_hal_gpio.c **** 
 515:STM32Cube_FW_N6/Drivers/STM32N6xx_HAL_Driver/Src/stm32n6xx_hal_gpio.c **** /**
 516:STM32Cube_FW_N6/Drivers/STM32N6xx_HAL_Driver/Src/stm32n6xx_hal_gpio.c ****   * @brief  Configure GPIO retime on specified GPIO pin.
 517:STM32Cube_FW_N6/Drivers/STM32N6xx_HAL_Driver/Src/stm32n6xx_hal_gpio.c ****   * @param  GPIOx where x can be (A..H and N..Q)
 518:STM32Cube_FW_N6/Drivers/STM32N6xx_HAL_Driver/Src/stm32n6xx_hal_gpio.c ****   * @param  GPIO_Pin specifies the port bit to be written.
 519:STM32Cube_FW_N6/Drivers/STM32N6xx_HAL_Driver/Src/stm32n6xx_hal_gpio.c ****   *         This parameter can be any combination of GPIO_Pin_x where x can be (0..15).
 520:STM32Cube_FW_N6/Drivers/STM32N6xx_HAL_Driver/Src/stm32n6xx_hal_gpio.c ****   * @param  pRet_Init pointer to a GPIO_RetimeTypeDef structure that contains
 521:STM32Cube_FW_N6/Drivers/STM32N6xx_HAL_Driver/Src/stm32n6xx_hal_gpio.c ****   *         the retime configuration information for the specified GPIO peripheral.
 522:STM32Cube_FW_N6/Drivers/STM32N6xx_HAL_Driver/Src/stm32n6xx_hal_gpio.c ****   * @retval None
 523:STM32Cube_FW_N6/Drivers/STM32N6xx_HAL_Driver/Src/stm32n6xx_hal_gpio.c ****   */
 524:STM32Cube_FW_N6/Drivers/STM32N6xx_HAL_Driver/Src/stm32n6xx_hal_gpio.c **** void HAL_GPIO_SetRetime(GPIO_TypeDef *GPIOx, uint16_t GPIO_Pin, const GPIO_RetimeTypeDef *pRet_Init
 525:STM32Cube_FW_N6/Drivers/STM32N6xx_HAL_Driver/Src/stm32n6xx_hal_gpio.c **** {
 1670              		.loc 1 525 1 is_stmt 1 view -0
 1671              		.cfi_startproc
 1672              		@ args = 0, pretend = 0, frame = 0
 1673              		@ frame_needed = 0, uses_anonymous_args = 0
 526:STM32Cube_FW_N6/Drivers/STM32N6xx_HAL_Driver/Src/stm32n6xx_hal_gpio.c ****   uint32_t position = 0x00u;
 1674              		.loc 1 526 3 view .LVU491
 527:STM32Cube_FW_N6/Drivers/STM32N6xx_HAL_Driver/Src/stm32n6xx_hal_gpio.c ****   uint32_t iocurrent;
 1675              		.loc 1 527 3 view .LVU492
 528:STM32Cube_FW_N6/Drivers/STM32N6xx_HAL_Driver/Src/stm32n6xx_hal_gpio.c ****   uint32_t temp;
 1676              		.loc 1 528 3 view .LVU493
 529:STM32Cube_FW_N6/Drivers/STM32N6xx_HAL_Driver/Src/stm32n6xx_hal_gpio.c **** 
 530:STM32Cube_FW_N6/Drivers/STM32N6xx_HAL_Driver/Src/stm32n6xx_hal_gpio.c ****   /* Check the parameters */
 531:STM32Cube_FW_N6/Drivers/STM32N6xx_HAL_Driver/Src/stm32n6xx_hal_gpio.c ****   assert_param(IS_GPIO_ALL_INSTANCE(GPIOx));
 1677              		.loc 1 531 3 view .LVU494
 1678 0000 4C4B     		ldr	r3, .L149
 525:STM32Cube_FW_N6/Drivers/STM32N6xx_HAL_Driver/Src/stm32n6xx_hal_gpio.c ****   uint32_t position = 0x00u;
 1679              		.loc 1 525 1 is_stmt 0 view .LVU495
 1680 0002 2DE9F041 		push	{r4, r5, r6, r7, r8, lr}
 1681              		.cfi_def_cfa_offset 24
ARM GAS  C:\Users\DJESSOU\AppData\Local\Temp\cc6knbkx.s 			page 45


 1682              		.cfi_offset 4, -24
 1683              		.cfi_offset 5, -20
 1684              		.cfi_offset 6, -16
 1685              		.cfi_offset 7, -12
 1686              		.cfi_offset 8, -8
 1687              		.cfi_offset 14, -4
 1688              		.loc 1 531 3 view .LVU496
 1689 0006 9842     		cmp	r0, r3
 525:STM32Cube_FW_N6/Drivers/STM32N6xx_HAL_Driver/Src/stm32n6xx_hal_gpio.c ****   uint32_t position = 0x00u;
 1690              		.loc 1 525 1 view .LVU497
 1691 0008 0446     		mov	r4, r0
 1692 000a 0E46     		mov	r6, r1
 1693 000c 1546     		mov	r5, r2
 1694              		.loc 1 531 3 view .LVU498
 1695 000e 55D0     		beq	.L130
 1696              		.loc 1 531 3 discriminator 1 view .LVU499
 1697 0010 03F17043 		add	r3, r3, #-268435456
 1698 0014 9842     		cmp	r0, r3
 1699 0016 51D0     		beq	.L130
 1700              		.loc 1 531 3 discriminator 2 view .LVU500
 1701 0018 474B     		ldr	r3, .L149+4
 1702 001a 9842     		cmp	r0, r3
 1703 001c 4ED0     		beq	.L130
 1704              		.loc 1 531 3 discriminator 3 view .LVU501
 1705 001e 03F17043 		add	r3, r3, #-268435456
 1706 0022 9842     		cmp	r0, r3
 1707 0024 4AD0     		beq	.L130
 1708              		.loc 1 531 3 discriminator 4 view .LVU502
 1709 0026 454B     		ldr	r3, .L149+8
 1710 0028 9842     		cmp	r0, r3
 1711 002a 47D0     		beq	.L130
 1712              		.loc 1 531 3 discriminator 5 view .LVU503
 1713 002c 03F17043 		add	r3, r3, #-268435456
 1714 0030 9842     		cmp	r0, r3
 1715 0032 43D0     		beq	.L130
 1716              		.loc 1 531 3 discriminator 6 view .LVU504
 1717 0034 424B     		ldr	r3, .L149+12
 1718 0036 9842     		cmp	r0, r3
 1719 0038 40D0     		beq	.L130
 1720              		.loc 1 531 3 discriminator 7 view .LVU505
 1721 003a 03F17043 		add	r3, r3, #-268435456
 1722 003e 9842     		cmp	r0, r3
 1723 0040 3CD0     		beq	.L130
 1724              		.loc 1 531 3 discriminator 8 view .LVU506
 1725 0042 404B     		ldr	r3, .L149+16
 1726 0044 9842     		cmp	r0, r3
 1727 0046 39D0     		beq	.L130
 1728              		.loc 1 531 3 discriminator 9 view .LVU507
 1729 0048 03F17043 		add	r3, r3, #-268435456
 1730 004c 9842     		cmp	r0, r3
 1731 004e 35D0     		beq	.L130
 1732              		.loc 1 531 3 discriminator 10 view .LVU508
 1733 0050 3D4B     		ldr	r3, .L149+20
 1734 0052 9842     		cmp	r0, r3
 1735 0054 32D0     		beq	.L130
 1736              		.loc 1 531 3 discriminator 11 view .LVU509
 1737 0056 03F17043 		add	r3, r3, #-268435456
ARM GAS  C:\Users\DJESSOU\AppData\Local\Temp\cc6knbkx.s 			page 46


 1738 005a 9842     		cmp	r0, r3
 1739 005c 2ED0     		beq	.L130
 1740              		.loc 1 531 3 discriminator 12 view .LVU510
 1741 005e 3B4B     		ldr	r3, .L149+24
 1742 0060 9842     		cmp	r0, r3
 1743 0062 2BD0     		beq	.L130
 1744              		.loc 1 531 3 discriminator 13 view .LVU511
 1745 0064 03F17043 		add	r3, r3, #-268435456
 1746 0068 9842     		cmp	r0, r3
 1747 006a 27D0     		beq	.L130
 1748              		.loc 1 531 3 discriminator 14 view .LVU512
 1749 006c 384B     		ldr	r3, .L149+28
 1750 006e 9842     		cmp	r0, r3
 1751 0070 24D0     		beq	.L130
 1752              		.loc 1 531 3 discriminator 15 view .LVU513
 1753 0072 03F17043 		add	r3, r3, #-268435456
 1754 0076 9842     		cmp	r0, r3
 1755 0078 20D0     		beq	.L130
 1756              		.loc 1 531 3 discriminator 16 view .LVU514
 1757 007a 364B     		ldr	r3, .L149+32
 1758 007c 9842     		cmp	r0, r3
 1759 007e 1DD0     		beq	.L130
 1760              		.loc 1 531 3 discriminator 17 view .LVU515
 1761 0080 03F17043 		add	r3, r3, #-268435456
 1762 0084 9842     		cmp	r0, r3
 1763 0086 19D0     		beq	.L130
 1764              		.loc 1 531 3 discriminator 18 view .LVU516
 1765 0088 334B     		ldr	r3, .L149+36
 1766 008a 9842     		cmp	r0, r3
 1767 008c 16D0     		beq	.L130
 1768              		.loc 1 531 3 discriminator 19 view .LVU517
 1769 008e 03F17043 		add	r3, r3, #-268435456
 1770 0092 9842     		cmp	r0, r3
 1771 0094 12D0     		beq	.L130
 1772              		.loc 1 531 3 discriminator 20 view .LVU518
 1773 0096 314B     		ldr	r3, .L149+40
 1774 0098 9842     		cmp	r0, r3
 1775 009a 0FD0     		beq	.L130
 1776              		.loc 1 531 3 discriminator 21 view .LVU519
 1777 009c 03F17043 		add	r3, r3, #-268435456
 1778 00a0 9842     		cmp	r0, r3
 1779 00a2 0BD0     		beq	.L130
 1780              		.loc 1 531 3 discriminator 22 view .LVU520
 1781 00a4 2E4B     		ldr	r3, .L149+44
 1782 00a6 9842     		cmp	r0, r3
 1783 00a8 08D0     		beq	.L130
 1784              		.loc 1 531 3 discriminator 23 view .LVU521
 1785 00aa 03F17043 		add	r3, r3, #-268435456
 1786 00ae 9842     		cmp	r0, r3
 1787 00b0 04D0     		beq	.L130
 1788              		.loc 1 531 3 discriminator 24 view .LVU522
 1789 00b2 40F21321 		movw	r1, #531
 1790              	.LVL103:
 1791              		.loc 1 531 3 discriminator 24 view .LVU523
 1792 00b6 2B48     		ldr	r0, .L149+48
 1793              	.LVL104:
 1794              		.loc 1 531 3 discriminator 24 view .LVU524
ARM GAS  C:\Users\DJESSOU\AppData\Local\Temp\cc6knbkx.s 			page 47


 1795 00b8 FFF7FEFF 		bl	assert_failed
 1796              	.LVL105:
 1797              	.L130:
 532:STM32Cube_FW_N6/Drivers/STM32N6xx_HAL_Driver/Src/stm32n6xx_hal_gpio.c ****   assert_param(IS_GPIO_PIN(GPIO_Pin));
 1798              		.loc 1 532 3 is_stmt 1 view .LVU525
 1799 00bc 26B9     		cbnz	r6, .L131
 1800              		.loc 1 532 3 is_stmt 0 discriminator 1 view .LVU526
 1801 00be 4FF40571 		mov	r1, #532
 1802 00c2 2848     		ldr	r0, .L149+48
 1803 00c4 FFF7FEFF 		bl	assert_failed
 1804              	.LVL106:
 1805              	.L131:
 533:STM32Cube_FW_N6/Drivers/STM32N6xx_HAL_Driver/Src/stm32n6xx_hal_gpio.c ****   assert_param(IS_GPIO_RETIME(pRet_Init->Retime));
 1806              		.loc 1 533 3 is_stmt 1 view .LVU527
 1807 00c8 2B68     		ldr	r3, [r5]
 1808 00ca 33F00803 		bics	r3, r3, #8
 1809 00ce 04D0     		beq	.L132
 1810              		.loc 1 533 3 is_stmt 0 discriminator 2 view .LVU528
 1811 00d0 40F21521 		movw	r1, #533
 1812 00d4 2348     		ldr	r0, .L149+48
 1813 00d6 FFF7FEFF 		bl	assert_failed
 1814              	.LVL107:
 1815              	.L132:
 534:STM32Cube_FW_N6/Drivers/STM32N6xx_HAL_Driver/Src/stm32n6xx_hal_gpio.c ****   assert_param(IS_GPIO_CLOCK(pRet_Init->Edge));
 1816              		.loc 1 534 3 is_stmt 1 view .LVU529
 1817 00da 6B68     		ldr	r3, [r5, #4]
 1818 00dc 33F00202 		bics	r2, r3, #2
 1819 00e0 06D0     		beq	.L133
 1820              		.loc 1 534 3 is_stmt 0 discriminator 1 view .LVU530
 1821 00e2 042B     		cmp	r3, #4
 1822 00e4 04D0     		beq	.L133
 1823              		.loc 1 534 3 discriminator 3 view .LVU531
 1824 00e6 40F21621 		movw	r1, #534
 1825 00ea 1E48     		ldr	r0, .L149+48
 1826 00ec FFF7FEFF 		bl	assert_failed
 1827              	.LVL108:
 1828              	.L133:
 525:STM32Cube_FW_N6/Drivers/STM32N6xx_HAL_Driver/Src/stm32n6xx_hal_gpio.c ****   uint32_t position = 0x00u;
 1829              		.loc 1 525 1 view .LVU532
 1830 00f0 0020     		movs	r0, #0
 535:STM32Cube_FW_N6/Drivers/STM32N6xx_HAL_Driver/Src/stm32n6xx_hal_gpio.c **** 
 536:STM32Cube_FW_N6/Drivers/STM32N6xx_HAL_Driver/Src/stm32n6xx_hal_gpio.c ****   /* Configure the port pins */
 537:STM32Cube_FW_N6/Drivers/STM32N6xx_HAL_Driver/Src/stm32n6xx_hal_gpio.c ****   while ((GPIO_Pin >> position) != 0x00u)
 538:STM32Cube_FW_N6/Drivers/STM32N6xx_HAL_Driver/Src/stm32n6xx_hal_gpio.c ****   {
 539:STM32Cube_FW_N6/Drivers/STM32N6xx_HAL_Driver/Src/stm32n6xx_hal_gpio.c ****     /* Get current io position */
 540:STM32Cube_FW_N6/Drivers/STM32N6xx_HAL_Driver/Src/stm32n6xx_hal_gpio.c ****     iocurrent = (GPIO_Pin) & (1uL << position);
 1831              		.loc 1 540 35 view .LVU533
 1832 00f2 4FF0010C 		mov	ip, #1
 541:STM32Cube_FW_N6/Drivers/STM32N6xx_HAL_Driver/Src/stm32n6xx_hal_gpio.c **** 
 542:STM32Cube_FW_N6/Drivers/STM32N6xx_HAL_Driver/Src/stm32n6xx_hal_gpio.c ****     if (iocurrent != 0x00u)
 543:STM32Cube_FW_N6/Drivers/STM32N6xx_HAL_Driver/Src/stm32n6xx_hal_gpio.c ****     {
 544:STM32Cube_FW_N6/Drivers/STM32N6xx_HAL_Driver/Src/stm32n6xx_hal_gpio.c ****       /* Configure the IO Retime */
 545:STM32Cube_FW_N6/Drivers/STM32N6xx_HAL_Driver/Src/stm32n6xx_hal_gpio.c ****       temp = GPIOx->ADVCFGR[position >> 3u];
 546:STM32Cube_FW_N6/Drivers/STM32N6xx_HAL_Driver/Src/stm32n6xx_hal_gpio.c ****       temp &= ~((GPIO_ADVCFGRL_RET0 | GPIO_ADVCFGRL_INVCLK0 | GPIO_ADVCFGRL_DE0)
 547:STM32Cube_FW_N6/Drivers/STM32N6xx_HAL_Driver/Src/stm32n6xx_hal_gpio.c ****                 << ((position & 0x07u) * GPIO_ADVCFGRL_1_Pos));
 1833              		.loc 1 547 17 view .LVU534
 1834 00f6 4FF00E0E 		mov	lr, #14
ARM GAS  C:\Users\DJESSOU\AppData\Local\Temp\cc6knbkx.s 			page 48


 1835              	.LVL109:
 1836              	.L134:
 537:STM32Cube_FW_N6/Drivers/STM32N6xx_HAL_Driver/Src/stm32n6xx_hal_gpio.c ****   {
 1837              		.loc 1 537 33 is_stmt 1 view .LVU535
 1838 00fa 56FA00F3 		asrs	r3, r6, r0
 1839 00fe 01D1     		bne	.L136
 548:STM32Cube_FW_N6/Drivers/STM32N6xx_HAL_Driver/Src/stm32n6xx_hal_gpio.c ****       temp |= (pRet_Init->Retime << ((position & 0x07u) * GPIO_ADVCFGRL_1_Pos));
 549:STM32Cube_FW_N6/Drivers/STM32N6xx_HAL_Driver/Src/stm32n6xx_hal_gpio.c ****       temp |= (pRet_Init->Edge << ((position & 0x07u) * GPIO_ADVCFGRL_1_Pos));
 550:STM32Cube_FW_N6/Drivers/STM32N6xx_HAL_Driver/Src/stm32n6xx_hal_gpio.c ****       GPIOx->ADVCFGR[position >> 3u] = temp;
 551:STM32Cube_FW_N6/Drivers/STM32N6xx_HAL_Driver/Src/stm32n6xx_hal_gpio.c ****     }
 552:STM32Cube_FW_N6/Drivers/STM32N6xx_HAL_Driver/Src/stm32n6xx_hal_gpio.c ****     position++;
 553:STM32Cube_FW_N6/Drivers/STM32N6xx_HAL_Driver/Src/stm32n6xx_hal_gpio.c ****   }
 554:STM32Cube_FW_N6/Drivers/STM32N6xx_HAL_Driver/Src/stm32n6xx_hal_gpio.c **** }
 1840              		.loc 1 554 1 is_stmt 0 view .LVU536
 1841 0100 BDE8F081 		pop	{r4, r5, r6, r7, r8, pc}
 1842              	.LVL110:
 1843              	.L136:
 540:STM32Cube_FW_N6/Drivers/STM32N6xx_HAL_Driver/Src/stm32n6xx_hal_gpio.c **** 
 1844              		.loc 1 540 5 is_stmt 1 view .LVU537
 542:STM32Cube_FW_N6/Drivers/STM32N6xx_HAL_Driver/Src/stm32n6xx_hal_gpio.c ****     {
 1845              		.loc 1 542 5 view .LVU538
 540:STM32Cube_FW_N6/Drivers/STM32N6xx_HAL_Driver/Src/stm32n6xx_hal_gpio.c **** 
 1846              		.loc 1 540 35 is_stmt 0 view .LVU539
 1847 0104 0CFA00F3 		lsl	r3, ip, r0
 542:STM32Cube_FW_N6/Drivers/STM32N6xx_HAL_Driver/Src/stm32n6xx_hal_gpio.c ****     {
 1848              		.loc 1 542 8 view .LVU540
 1849 0108 3342     		tst	r3, r6
 1850 010a 11D0     		beq	.L135
 545:STM32Cube_FW_N6/Drivers/STM32N6xx_HAL_Driver/Src/stm32n6xx_hal_gpio.c ****       temp &= ~((GPIO_ADVCFGRL_RET0 | GPIO_ADVCFGRL_INVCLK0 | GPIO_ADVCFGRL_DE0)
 1851              		.loc 1 545 7 is_stmt 1 view .LVU541
 545:STM32Cube_FW_N6/Drivers/STM32N6xx_HAL_Driver/Src/stm32n6xx_hal_gpio.c ****       temp &= ~((GPIO_ADVCFGRL_RET0 | GPIO_ADVCFGRL_INVCLK0 | GPIO_ADVCFGRL_DE0)
 1852              		.loc 1 545 38 is_stmt 0 view .LVU542
 1853 010c C208     		lsrs	r2, r0, #3
 1854 010e 04EB8202 		add	r2, r4, r2, lsl #2
 547:STM32Cube_FW_N6/Drivers/STM32N6xx_HAL_Driver/Src/stm32n6xx_hal_gpio.c ****       temp |= (pRet_Init->Retime << ((position & 0x07u) * GPIO_ADVCFGRL_1_Pos));
 1855              		.loc 1 547 31 view .LVU543
 1856 0112 00F00701 		and	r1, r0, #7
 545:STM32Cube_FW_N6/Drivers/STM32N6xx_HAL_Driver/Src/stm32n6xx_hal_gpio.c ****       temp &= ~((GPIO_ADVCFGRL_RET0 | GPIO_ADVCFGRL_INVCLK0 | GPIO_ADVCFGRL_DE0)
 1857              		.loc 1 545 12 view .LVU544
 1858 0116 936C     		ldr	r3, [r2, #72]
 1859              	.LVL111:
 546:STM32Cube_FW_N6/Drivers/STM32N6xx_HAL_Driver/Src/stm32n6xx_hal_gpio.c ****                 << ((position & 0x07u) * GPIO_ADVCFGRL_1_Pos));
 1860              		.loc 1 546 7 is_stmt 1 view .LVU545
 547:STM32Cube_FW_N6/Drivers/STM32N6xx_HAL_Driver/Src/stm32n6xx_hal_gpio.c ****       temp |= (pRet_Init->Retime << ((position & 0x07u) * GPIO_ADVCFGRL_1_Pos));
 1861              		.loc 1 547 40 is_stmt 0 view .LVU546
 1862 0118 8900     		lsls	r1, r1, #2
 547:STM32Cube_FW_N6/Drivers/STM32N6xx_HAL_Driver/Src/stm32n6xx_hal_gpio.c ****       temp |= (pRet_Init->Retime << ((position & 0x07u) * GPIO_ADVCFGRL_1_Pos));
 1863              		.loc 1 547 17 view .LVU547
 1864 011a 0EFA01F7 		lsl	r7, lr, r1
 546:STM32Cube_FW_N6/Drivers/STM32N6xx_HAL_Driver/Src/stm32n6xx_hal_gpio.c ****                 << ((position & 0x07u) * GPIO_ADVCFGRL_1_Pos));
 1865              		.loc 1 546 12 view .LVU548
 1866 011e 23EA0708 		bic	r8, r3, r7
 1867              	.LVL112:
 548:STM32Cube_FW_N6/Drivers/STM32N6xx_HAL_Driver/Src/stm32n6xx_hal_gpio.c ****       temp |= (pRet_Init->Edge << ((position & 0x07u) * GPIO_ADVCFGRL_1_Pos));
 1868              		.loc 1 548 7 is_stmt 1 view .LVU549
 549:STM32Cube_FW_N6/Drivers/STM32N6xx_HAL_Driver/Src/stm32n6xx_hal_gpio.c ****       GPIOx->ADVCFGR[position >> 3u] = temp;
 1869              		.loc 1 549 7 view .LVU550
ARM GAS  C:\Users\DJESSOU\AppData\Local\Temp\cc6knbkx.s 			page 49


 549:STM32Cube_FW_N6/Drivers/STM32N6xx_HAL_Driver/Src/stm32n6xx_hal_gpio.c ****       GPIOx->ADVCFGR[position >> 3u] = temp;
 1870              		.loc 1 549 12 is_stmt 0 view .LVU551
 1871 0122 D5E90037 		ldrd	r3, r7, [r5]
 1872 0126 3B43     		orrs	r3, r3, r7
 1873 0128 8B40     		lsls	r3, r3, r1
 1874 012a 43EA0803 		orr	r3, r3, r8
 1875              	.LVL113:
 550:STM32Cube_FW_N6/Drivers/STM32N6xx_HAL_Driver/Src/stm32n6xx_hal_gpio.c ****     }
 1876              		.loc 1 550 7 is_stmt 1 view .LVU552
 550:STM32Cube_FW_N6/Drivers/STM32N6xx_HAL_Driver/Src/stm32n6xx_hal_gpio.c ****     }
 1877              		.loc 1 550 38 is_stmt 0 view .LVU553
 1878 012e 9364     		str	r3, [r2, #72]
 1879              	.LVL114:
 1880              	.L135:
 552:STM32Cube_FW_N6/Drivers/STM32N6xx_HAL_Driver/Src/stm32n6xx_hal_gpio.c ****   }
 1881              		.loc 1 552 5 is_stmt 1 view .LVU554
 552:STM32Cube_FW_N6/Drivers/STM32N6xx_HAL_Driver/Src/stm32n6xx_hal_gpio.c ****   }
 1882              		.loc 1 552 13 is_stmt 0 view .LVU555
 1883 0130 0130     		adds	r0, r0, #1
 1884              	.LVL115:
 552:STM32Cube_FW_N6/Drivers/STM32N6xx_HAL_Driver/Src/stm32n6xx_hal_gpio.c ****   }
 1885              		.loc 1 552 13 view .LVU556
 1886 0132 E2E7     		b	.L134
 1887              	.L150:
 1888              		.align	2
 1889              	.L149:
 1890 0134 00000256 		.word	1442971648
 1891 0138 00040256 		.word	1442972672
 1892 013c 00080256 		.word	1442973696
 1893 0140 000C0256 		.word	1442974720
 1894 0144 00100256 		.word	1442975744
 1895 0148 00140256 		.word	1442976768
 1896 014c 00180256 		.word	1442977792
 1897 0150 001C0256 		.word	1442978816
 1898 0154 00340256 		.word	1442984960
 1899 0158 00380256 		.word	1442985984
 1900 015c 003C0256 		.word	1442987008
 1901 0160 00400256 		.word	1442988032
 1902 0164 00000000 		.word	.LC0
 1903              		.cfi_endproc
 1904              	.LFE869:
 1906              		.section	.text.HAL_GPIO_GetRetime,"ax",%progbits
 1907              		.align	1
 1908              		.global	HAL_GPIO_GetRetime
 1909              		.syntax unified
 1910              		.thumb
 1911              		.thumb_func
 1913              	HAL_GPIO_GetRetime:
 1914              	.LVL116:
 1915              	.LFB870:
 555:STM32Cube_FW_N6/Drivers/STM32N6xx_HAL_Driver/Src/stm32n6xx_hal_gpio.c **** 
 556:STM32Cube_FW_N6/Drivers/STM32N6xx_HAL_Driver/Src/stm32n6xx_hal_gpio.c **** /**
 557:STM32Cube_FW_N6/Drivers/STM32N6xx_HAL_Driver/Src/stm32n6xx_hal_gpio.c ****   * @brief  Get GPIO retime configuration on specified GPIO pin.
 558:STM32Cube_FW_N6/Drivers/STM32N6xx_HAL_Driver/Src/stm32n6xx_hal_gpio.c ****   * @param  GPIOx where x can be (A..H and N..Q)
 559:STM32Cube_FW_N6/Drivers/STM32N6xx_HAL_Driver/Src/stm32n6xx_hal_gpio.c ****   * @param  GPIO_Pin specifies the port bit to read.
 560:STM32Cube_FW_N6/Drivers/STM32N6xx_HAL_Driver/Src/stm32n6xx_hal_gpio.c ****   *         This parameter can be GPIO_PIN_x where x can be (0..15).
 561:STM32Cube_FW_N6/Drivers/STM32N6xx_HAL_Driver/Src/stm32n6xx_hal_gpio.c ****   * @param  pRet_Init pointer to the return GPIO_RetimeTypeDef structure that contains the retime i
ARM GAS  C:\Users\DJESSOU\AppData\Local\Temp\cc6knbkx.s 			page 50


 562:STM32Cube_FW_N6/Drivers/STM32N6xx_HAL_Driver/Src/stm32n6xx_hal_gpio.c ****   * @retval HAL Status
 563:STM32Cube_FW_N6/Drivers/STM32N6xx_HAL_Driver/Src/stm32n6xx_hal_gpio.c ****   */
 564:STM32Cube_FW_N6/Drivers/STM32N6xx_HAL_Driver/Src/stm32n6xx_hal_gpio.c **** HAL_StatusTypeDef HAL_GPIO_GetRetime(const GPIO_TypeDef *GPIOx, uint16_t GPIO_Pin, GPIO_RetimeTypeD
 565:STM32Cube_FW_N6/Drivers/STM32N6xx_HAL_Driver/Src/stm32n6xx_hal_gpio.c **** {
 1916              		.loc 1 565 1 is_stmt 1 view -0
 1917              		.cfi_startproc
 1918              		@ args = 0, pretend = 0, frame = 0
 1919              		@ frame_needed = 0, uses_anonymous_args = 0
 566:STM32Cube_FW_N6/Drivers/STM32N6xx_HAL_Driver/Src/stm32n6xx_hal_gpio.c ****   uint32_t position;
 1920              		.loc 1 566 3 view .LVU558
 567:STM32Cube_FW_N6/Drivers/STM32N6xx_HAL_Driver/Src/stm32n6xx_hal_gpio.c ****   uint32_t index;
 1921              		.loc 1 567 3 view .LVU559
 568:STM32Cube_FW_N6/Drivers/STM32N6xx_HAL_Driver/Src/stm32n6xx_hal_gpio.c **** 
 569:STM32Cube_FW_N6/Drivers/STM32N6xx_HAL_Driver/Src/stm32n6xx_hal_gpio.c ****   /* Check the parameters */
 570:STM32Cube_FW_N6/Drivers/STM32N6xx_HAL_Driver/Src/stm32n6xx_hal_gpio.c ****   assert_param(IS_GPIO_ALL_INSTANCE(GPIOx));
 1922              		.loc 1 570 3 view .LVU560
 1923 0000 554B     		ldr	r3, .L194
 565:STM32Cube_FW_N6/Drivers/STM32N6xx_HAL_Driver/Src/stm32n6xx_hal_gpio.c ****   uint32_t position;
 1924              		.loc 1 565 1 is_stmt 0 view .LVU561
 1925 0002 70B5     		push	{r4, r5, r6, lr}
 1926              		.cfi_def_cfa_offset 16
 1927              		.cfi_offset 4, -16
 1928              		.cfi_offset 5, -12
 1929              		.cfi_offset 6, -8
 1930              		.cfi_offset 14, -4
 1931              		.loc 1 570 3 view .LVU562
 1932 0004 9842     		cmp	r0, r3
 565:STM32Cube_FW_N6/Drivers/STM32N6xx_HAL_Driver/Src/stm32n6xx_hal_gpio.c ****   uint32_t position;
 1933              		.loc 1 565 1 view .LVU563
 1934 0006 0446     		mov	r4, r0
 1935 0008 0D46     		mov	r5, r1
 1936 000a 1646     		mov	r6, r2
 1937              		.loc 1 570 3 view .LVU564
 1938 000c 55D0     		beq	.L152
 1939              		.loc 1 570 3 discriminator 1 view .LVU565
 1940 000e 03F17043 		add	r3, r3, #-268435456
 1941 0012 9842     		cmp	r0, r3
 1942 0014 51D0     		beq	.L152
 1943              		.loc 1 570 3 discriminator 2 view .LVU566
 1944 0016 514B     		ldr	r3, .L194+4
 1945 0018 9842     		cmp	r0, r3
 1946 001a 4ED0     		beq	.L152
 1947              		.loc 1 570 3 discriminator 3 view .LVU567
 1948 001c 03F17043 		add	r3, r3, #-268435456
 1949 0020 9842     		cmp	r0, r3
 1950 0022 4AD0     		beq	.L152
 1951              		.loc 1 570 3 discriminator 4 view .LVU568
 1952 0024 4E4B     		ldr	r3, .L194+8
 1953 0026 9842     		cmp	r0, r3
 1954 0028 47D0     		beq	.L152
 1955              		.loc 1 570 3 discriminator 5 view .LVU569
 1956 002a 03F17043 		add	r3, r3, #-268435456
 1957 002e 9842     		cmp	r0, r3
 1958 0030 43D0     		beq	.L152
 1959              		.loc 1 570 3 discriminator 6 view .LVU570
 1960 0032 4C4B     		ldr	r3, .L194+12
 1961 0034 9842     		cmp	r0, r3
ARM GAS  C:\Users\DJESSOU\AppData\Local\Temp\cc6knbkx.s 			page 51


 1962 0036 40D0     		beq	.L152
 1963              		.loc 1 570 3 discriminator 7 view .LVU571
 1964 0038 03F17043 		add	r3, r3, #-268435456
 1965 003c 9842     		cmp	r0, r3
 1966 003e 3CD0     		beq	.L152
 1967              		.loc 1 570 3 discriminator 8 view .LVU572
 1968 0040 494B     		ldr	r3, .L194+16
 1969 0042 9842     		cmp	r0, r3
 1970 0044 39D0     		beq	.L152
 1971              		.loc 1 570 3 discriminator 9 view .LVU573
 1972 0046 03F17043 		add	r3, r3, #-268435456
 1973 004a 9842     		cmp	r0, r3
 1974 004c 35D0     		beq	.L152
 1975              		.loc 1 570 3 discriminator 10 view .LVU574
 1976 004e 474B     		ldr	r3, .L194+20
 1977 0050 9842     		cmp	r0, r3
 1978 0052 32D0     		beq	.L152
 1979              		.loc 1 570 3 discriminator 11 view .LVU575
 1980 0054 03F17043 		add	r3, r3, #-268435456
 1981 0058 9842     		cmp	r0, r3
 1982 005a 2ED0     		beq	.L152
 1983              		.loc 1 570 3 discriminator 12 view .LVU576
 1984 005c 444B     		ldr	r3, .L194+24
 1985 005e 9842     		cmp	r0, r3
 1986 0060 2BD0     		beq	.L152
 1987              		.loc 1 570 3 discriminator 13 view .LVU577
 1988 0062 03F17043 		add	r3, r3, #-268435456
 1989 0066 9842     		cmp	r0, r3
 1990 0068 27D0     		beq	.L152
 1991              		.loc 1 570 3 discriminator 14 view .LVU578
 1992 006a 424B     		ldr	r3, .L194+28
 1993 006c 9842     		cmp	r0, r3
 1994 006e 24D0     		beq	.L152
 1995              		.loc 1 570 3 discriminator 15 view .LVU579
 1996 0070 03F17043 		add	r3, r3, #-268435456
 1997 0074 9842     		cmp	r0, r3
 1998 0076 20D0     		beq	.L152
 1999              		.loc 1 570 3 discriminator 16 view .LVU580
 2000 0078 3F4B     		ldr	r3, .L194+32
 2001 007a 9842     		cmp	r0, r3
 2002 007c 1DD0     		beq	.L152
 2003              		.loc 1 570 3 discriminator 17 view .LVU581
 2004 007e 03F17043 		add	r3, r3, #-268435456
 2005 0082 9842     		cmp	r0, r3
 2006 0084 19D0     		beq	.L152
 2007              		.loc 1 570 3 discriminator 18 view .LVU582
 2008 0086 3D4B     		ldr	r3, .L194+36
 2009 0088 9842     		cmp	r0, r3
 2010 008a 16D0     		beq	.L152
 2011              		.loc 1 570 3 discriminator 19 view .LVU583
 2012 008c 03F17043 		add	r3, r3, #-268435456
 2013 0090 9842     		cmp	r0, r3
 2014 0092 12D0     		beq	.L152
 2015              		.loc 1 570 3 discriminator 20 view .LVU584
 2016 0094 3A4B     		ldr	r3, .L194+40
 2017 0096 9842     		cmp	r0, r3
 2018 0098 0FD0     		beq	.L152
ARM GAS  C:\Users\DJESSOU\AppData\Local\Temp\cc6knbkx.s 			page 52


 2019              		.loc 1 570 3 discriminator 21 view .LVU585
 2020 009a 03F17043 		add	r3, r3, #-268435456
 2021 009e 9842     		cmp	r0, r3
 2022 00a0 0BD0     		beq	.L152
 2023              		.loc 1 570 3 discriminator 22 view .LVU586
 2024 00a2 384B     		ldr	r3, .L194+44
 2025 00a4 9842     		cmp	r0, r3
 2026 00a6 08D0     		beq	.L152
 2027              		.loc 1 570 3 discriminator 23 view .LVU587
 2028 00a8 03F17043 		add	r3, r3, #-268435456
 2029 00ac 9842     		cmp	r0, r3
 2030 00ae 04D0     		beq	.L152
 2031              		.loc 1 570 3 discriminator 24 view .LVU588
 2032 00b0 40F23A21 		movw	r1, #570
 2033              	.LVL117:
 2034              		.loc 1 570 3 discriminator 24 view .LVU589
 2035 00b4 3448     		ldr	r0, .L194+48
 2036              	.LVL118:
 2037              		.loc 1 570 3 discriminator 24 view .LVU590
 2038 00b6 FFF7FEFF 		bl	assert_failed
 2039              	.LVL119:
 2040              	.L152:
 571:STM32Cube_FW_N6/Drivers/STM32N6xx_HAL_Driver/Src/stm32n6xx_hal_gpio.c ****   assert_param(IS_GPIO_SINGLE_PIN(GPIO_Pin));
 2041              		.loc 1 571 3 is_stmt 1 view .LVU591
 2042 00ba B5F5807F 		cmp	r5, #256
 2043 00be 07D0     		beq	.L153
 2044 00c0 31D8     		bhi	.L154
 2045 00c2 202D     		cmp	r5, #32
 2046 00c4 2AD8     		bhi	.L155
 2047 00c6 032D     		cmp	r5, #3
 2048 00c8 1CD8     		bhi	.L156
 2049 00ca 6B1E     		subs	r3, r5, #1
 2050 00cc 012B     		cmp	r3, #1
 2051 00ce 1FD8     		bhi	.L157
 2052              	.L153:
 572:STM32Cube_FW_N6/Drivers/STM32N6xx_HAL_Driver/Src/stm32n6xx_hal_gpio.c **** 
 573:STM32Cube_FW_N6/Drivers/STM32N6xx_HAL_Driver/Src/stm32n6xx_hal_gpio.c ****   /* Check null pointer */
 574:STM32Cube_FW_N6/Drivers/STM32N6xx_HAL_Driver/Src/stm32n6xx_hal_gpio.c ****   if (pRet_Init == NULL)
 2053              		.loc 1 574 3 view .LVU592
 2054              		.loc 1 574 6 is_stmt 0 view .LVU593
 2055 00d0 002E     		cmp	r6, #0
 2056 00d2 3ED0     		beq	.L161
 575:STM32Cube_FW_N6/Drivers/STM32N6xx_HAL_Driver/Src/stm32n6xx_hal_gpio.c ****   {
 576:STM32Cube_FW_N6/Drivers/STM32N6xx_HAL_Driver/Src/stm32n6xx_hal_gpio.c ****     return HAL_ERROR;
 577:STM32Cube_FW_N6/Drivers/STM32N6xx_HAL_Driver/Src/stm32n6xx_hal_gpio.c ****   }
 578:STM32Cube_FW_N6/Drivers/STM32N6xx_HAL_Driver/Src/stm32n6xx_hal_gpio.c **** 
 579:STM32Cube_FW_N6/Drivers/STM32N6xx_HAL_Driver/Src/stm32n6xx_hal_gpio.c ****   /* get IO position */
 580:STM32Cube_FW_N6/Drivers/STM32N6xx_HAL_Driver/Src/stm32n6xx_hal_gpio.c ****   position = POSITION_VAL(GPIO_Pin);
 2057              		.loc 1 580 3 is_stmt 1 view .LVU594
 2058              	.LVL120:
 2059              	.LBB10:
 2060              	.LBI10:
 2061              		.file 2 "STM32Cube_FW_N6/Drivers/CMSIS/Include/cmsis_gcc.h"
   1:STM32Cube_FW_N6/Drivers/CMSIS/Include/cmsis_gcc.h **** /**************************************************************************//**
   2:STM32Cube_FW_N6/Drivers/CMSIS/Include/cmsis_gcc.h ****  * @file     cmsis_gcc.h
   3:STM32Cube_FW_N6/Drivers/CMSIS/Include/cmsis_gcc.h ****  * @brief    CMSIS compiler GCC header file
   4:STM32Cube_FW_N6/Drivers/CMSIS/Include/cmsis_gcc.h ****  * @version  V6.0.0
ARM GAS  C:\Users\DJESSOU\AppData\Local\Temp\cc6knbkx.s 			page 53


   5:STM32Cube_FW_N6/Drivers/CMSIS/Include/cmsis_gcc.h ****  * @date     27. July 2024
   6:STM32Cube_FW_N6/Drivers/CMSIS/Include/cmsis_gcc.h ****  ******************************************************************************/
   7:STM32Cube_FW_N6/Drivers/CMSIS/Include/cmsis_gcc.h **** /*
   8:STM32Cube_FW_N6/Drivers/CMSIS/Include/cmsis_gcc.h ****  * Copyright (c) 2009-2023 Arm Limited. All rights reserved.
   9:STM32Cube_FW_N6/Drivers/CMSIS/Include/cmsis_gcc.h ****  *
  10:STM32Cube_FW_N6/Drivers/CMSIS/Include/cmsis_gcc.h ****  * SPDX-License-Identifier: Apache-2.0
  11:STM32Cube_FW_N6/Drivers/CMSIS/Include/cmsis_gcc.h ****  *
  12:STM32Cube_FW_N6/Drivers/CMSIS/Include/cmsis_gcc.h ****  * Licensed under the Apache License, Version 2.0 (the License); you may
  13:STM32Cube_FW_N6/Drivers/CMSIS/Include/cmsis_gcc.h ****  * not use this file except in compliance with the License.
  14:STM32Cube_FW_N6/Drivers/CMSIS/Include/cmsis_gcc.h ****  * You may obtain a copy of the License at
  15:STM32Cube_FW_N6/Drivers/CMSIS/Include/cmsis_gcc.h ****  *
  16:STM32Cube_FW_N6/Drivers/CMSIS/Include/cmsis_gcc.h ****  * www.apache.org/licenses/LICENSE-2.0
  17:STM32Cube_FW_N6/Drivers/CMSIS/Include/cmsis_gcc.h ****  *
  18:STM32Cube_FW_N6/Drivers/CMSIS/Include/cmsis_gcc.h ****  * Unless required by applicable law or agreed to in writing, software
  19:STM32Cube_FW_N6/Drivers/CMSIS/Include/cmsis_gcc.h ****  * distributed under the License is distributed on an AS IS BASIS, WITHOUT
  20:STM32Cube_FW_N6/Drivers/CMSIS/Include/cmsis_gcc.h ****  * WARRANTIES OR CONDITIONS OF ANY KIND, either express or implied.
  21:STM32Cube_FW_N6/Drivers/CMSIS/Include/cmsis_gcc.h ****  * See the License for the specific language governing permissions and
  22:STM32Cube_FW_N6/Drivers/CMSIS/Include/cmsis_gcc.h ****  * limitations under the License.
  23:STM32Cube_FW_N6/Drivers/CMSIS/Include/cmsis_gcc.h ****  */
  24:STM32Cube_FW_N6/Drivers/CMSIS/Include/cmsis_gcc.h **** 
  25:STM32Cube_FW_N6/Drivers/CMSIS/Include/cmsis_gcc.h **** #ifndef __CMSIS_GCC_H
  26:STM32Cube_FW_N6/Drivers/CMSIS/Include/cmsis_gcc.h **** #define __CMSIS_GCC_H
  27:STM32Cube_FW_N6/Drivers/CMSIS/Include/cmsis_gcc.h **** 
  28:STM32Cube_FW_N6/Drivers/CMSIS/Include/cmsis_gcc.h **** #pragma GCC system_header   /* treat file as system include file */
  29:STM32Cube_FW_N6/Drivers/CMSIS/Include/cmsis_gcc.h **** 
  30:STM32Cube_FW_N6/Drivers/CMSIS/Include/cmsis_gcc.h **** #include <arm_acle.h>
  31:STM32Cube_FW_N6/Drivers/CMSIS/Include/cmsis_gcc.h **** 
  32:STM32Cube_FW_N6/Drivers/CMSIS/Include/cmsis_gcc.h **** /* Fallback for __has_builtin */
  33:STM32Cube_FW_N6/Drivers/CMSIS/Include/cmsis_gcc.h **** #ifndef __has_builtin
  34:STM32Cube_FW_N6/Drivers/CMSIS/Include/cmsis_gcc.h ****   #define __has_builtin(x) (0)
  35:STM32Cube_FW_N6/Drivers/CMSIS/Include/cmsis_gcc.h **** #endif
  36:STM32Cube_FW_N6/Drivers/CMSIS/Include/cmsis_gcc.h **** 
  37:STM32Cube_FW_N6/Drivers/CMSIS/Include/cmsis_gcc.h **** /* CMSIS compiler specific defines */
  38:STM32Cube_FW_N6/Drivers/CMSIS/Include/cmsis_gcc.h **** #ifndef   __ASM
  39:STM32Cube_FW_N6/Drivers/CMSIS/Include/cmsis_gcc.h ****   #define __ASM                                  __asm
  40:STM32Cube_FW_N6/Drivers/CMSIS/Include/cmsis_gcc.h **** #endif
  41:STM32Cube_FW_N6/Drivers/CMSIS/Include/cmsis_gcc.h **** #ifndef   __INLINE
  42:STM32Cube_FW_N6/Drivers/CMSIS/Include/cmsis_gcc.h ****   #define __INLINE                               inline
  43:STM32Cube_FW_N6/Drivers/CMSIS/Include/cmsis_gcc.h **** #endif
  44:STM32Cube_FW_N6/Drivers/CMSIS/Include/cmsis_gcc.h **** #ifndef   __STATIC_INLINE
  45:STM32Cube_FW_N6/Drivers/CMSIS/Include/cmsis_gcc.h ****   #define __STATIC_INLINE                        static inline
  46:STM32Cube_FW_N6/Drivers/CMSIS/Include/cmsis_gcc.h **** #endif
  47:STM32Cube_FW_N6/Drivers/CMSIS/Include/cmsis_gcc.h **** #ifndef   __STATIC_FORCEINLINE
  48:STM32Cube_FW_N6/Drivers/CMSIS/Include/cmsis_gcc.h ****   #define __STATIC_FORCEINLINE                   __attribute__((always_inline)) static inline
  49:STM32Cube_FW_N6/Drivers/CMSIS/Include/cmsis_gcc.h **** #endif
  50:STM32Cube_FW_N6/Drivers/CMSIS/Include/cmsis_gcc.h **** #ifndef   __NO_RETURN
  51:STM32Cube_FW_N6/Drivers/CMSIS/Include/cmsis_gcc.h ****   #define __NO_RETURN                            __attribute__((__noreturn__))
  52:STM32Cube_FW_N6/Drivers/CMSIS/Include/cmsis_gcc.h **** #endif
  53:STM32Cube_FW_N6/Drivers/CMSIS/Include/cmsis_gcc.h **** #ifndef   CMSIS_DEPRECATED
  54:STM32Cube_FW_N6/Drivers/CMSIS/Include/cmsis_gcc.h ****   #define CMSIS_DEPRECATED                       __attribute__((deprecated))
  55:STM32Cube_FW_N6/Drivers/CMSIS/Include/cmsis_gcc.h **** #endif
  56:STM32Cube_FW_N6/Drivers/CMSIS/Include/cmsis_gcc.h **** #ifndef   __USED
  57:STM32Cube_FW_N6/Drivers/CMSIS/Include/cmsis_gcc.h ****   #define __USED                                 __attribute__((used))
  58:STM32Cube_FW_N6/Drivers/CMSIS/Include/cmsis_gcc.h **** #endif
  59:STM32Cube_FW_N6/Drivers/CMSIS/Include/cmsis_gcc.h **** #ifndef   __WEAK
  60:STM32Cube_FW_N6/Drivers/CMSIS/Include/cmsis_gcc.h ****   #define __WEAK                                 __attribute__((weak))
  61:STM32Cube_FW_N6/Drivers/CMSIS/Include/cmsis_gcc.h **** #endif
ARM GAS  C:\Users\DJESSOU\AppData\Local\Temp\cc6knbkx.s 			page 54


  62:STM32Cube_FW_N6/Drivers/CMSIS/Include/cmsis_gcc.h **** #ifndef   __PACKED
  63:STM32Cube_FW_N6/Drivers/CMSIS/Include/cmsis_gcc.h ****   #define __PACKED                               __attribute__((packed, aligned(1)))
  64:STM32Cube_FW_N6/Drivers/CMSIS/Include/cmsis_gcc.h **** #endif
  65:STM32Cube_FW_N6/Drivers/CMSIS/Include/cmsis_gcc.h **** #ifndef   __PACKED_STRUCT
  66:STM32Cube_FW_N6/Drivers/CMSIS/Include/cmsis_gcc.h ****   #define __PACKED_STRUCT                        struct __attribute__((packed, aligned(1)))
  67:STM32Cube_FW_N6/Drivers/CMSIS/Include/cmsis_gcc.h **** #endif
  68:STM32Cube_FW_N6/Drivers/CMSIS/Include/cmsis_gcc.h **** #ifndef   __PACKED_UNION
  69:STM32Cube_FW_N6/Drivers/CMSIS/Include/cmsis_gcc.h ****   #define __PACKED_UNION                         union __attribute__((packed, aligned(1)))
  70:STM32Cube_FW_N6/Drivers/CMSIS/Include/cmsis_gcc.h **** #endif
  71:STM32Cube_FW_N6/Drivers/CMSIS/Include/cmsis_gcc.h **** #ifndef   __UNALIGNED_UINT16_WRITE
  72:STM32Cube_FW_N6/Drivers/CMSIS/Include/cmsis_gcc.h ****   #pragma GCC diagnostic push
  73:STM32Cube_FW_N6/Drivers/CMSIS/Include/cmsis_gcc.h ****   #pragma GCC diagnostic ignored "-Wpacked"
  74:STM32Cube_FW_N6/Drivers/CMSIS/Include/cmsis_gcc.h ****   #pragma GCC diagnostic ignored "-Wattributes"
  75:STM32Cube_FW_N6/Drivers/CMSIS/Include/cmsis_gcc.h ****   __PACKED_STRUCT T_UINT16_WRITE { uint16_t v; };
  76:STM32Cube_FW_N6/Drivers/CMSIS/Include/cmsis_gcc.h ****   #pragma GCC diagnostic pop
  77:STM32Cube_FW_N6/Drivers/CMSIS/Include/cmsis_gcc.h ****   #define __UNALIGNED_UINT16_WRITE(addr, val)    (void)((((struct T_UINT16_WRITE *)(void *)(addr))-
  78:STM32Cube_FW_N6/Drivers/CMSIS/Include/cmsis_gcc.h **** #endif
  79:STM32Cube_FW_N6/Drivers/CMSIS/Include/cmsis_gcc.h **** #ifndef   __UNALIGNED_UINT16_READ
  80:STM32Cube_FW_N6/Drivers/CMSIS/Include/cmsis_gcc.h ****   #pragma GCC diagnostic push
  81:STM32Cube_FW_N6/Drivers/CMSIS/Include/cmsis_gcc.h ****   #pragma GCC diagnostic ignored "-Wpacked"
  82:STM32Cube_FW_N6/Drivers/CMSIS/Include/cmsis_gcc.h ****   #pragma GCC diagnostic ignored "-Wattributes"
  83:STM32Cube_FW_N6/Drivers/CMSIS/Include/cmsis_gcc.h ****   __PACKED_STRUCT T_UINT16_READ { uint16_t v; };
  84:STM32Cube_FW_N6/Drivers/CMSIS/Include/cmsis_gcc.h ****   #pragma GCC diagnostic pop
  85:STM32Cube_FW_N6/Drivers/CMSIS/Include/cmsis_gcc.h ****   #define __UNALIGNED_UINT16_READ(addr)          (((const struct T_UINT16_READ *)(const void *)(add
  86:STM32Cube_FW_N6/Drivers/CMSIS/Include/cmsis_gcc.h **** #endif
  87:STM32Cube_FW_N6/Drivers/CMSIS/Include/cmsis_gcc.h **** #ifndef   __UNALIGNED_UINT32_WRITE
  88:STM32Cube_FW_N6/Drivers/CMSIS/Include/cmsis_gcc.h ****   #pragma GCC diagnostic push
  89:STM32Cube_FW_N6/Drivers/CMSIS/Include/cmsis_gcc.h ****   #pragma GCC diagnostic ignored "-Wpacked"
  90:STM32Cube_FW_N6/Drivers/CMSIS/Include/cmsis_gcc.h ****   #pragma GCC diagnostic ignored "-Wattributes"
  91:STM32Cube_FW_N6/Drivers/CMSIS/Include/cmsis_gcc.h ****   __PACKED_STRUCT T_UINT32_WRITE { uint32_t v; };
  92:STM32Cube_FW_N6/Drivers/CMSIS/Include/cmsis_gcc.h ****   #pragma GCC diagnostic pop
  93:STM32Cube_FW_N6/Drivers/CMSIS/Include/cmsis_gcc.h ****   #define __UNALIGNED_UINT32_WRITE(addr, val)    (void)((((struct T_UINT32_WRITE *)(void *)(addr))-
  94:STM32Cube_FW_N6/Drivers/CMSIS/Include/cmsis_gcc.h **** #endif
  95:STM32Cube_FW_N6/Drivers/CMSIS/Include/cmsis_gcc.h **** #ifndef   __UNALIGNED_UINT32_READ
  96:STM32Cube_FW_N6/Drivers/CMSIS/Include/cmsis_gcc.h ****   #pragma GCC diagnostic push
  97:STM32Cube_FW_N6/Drivers/CMSIS/Include/cmsis_gcc.h ****   #pragma GCC diagnostic ignored "-Wpacked"
  98:STM32Cube_FW_N6/Drivers/CMSIS/Include/cmsis_gcc.h ****   #pragma GCC diagnostic ignored "-Wattributes"
  99:STM32Cube_FW_N6/Drivers/CMSIS/Include/cmsis_gcc.h ****   __PACKED_STRUCT T_UINT32_READ { uint32_t v; };
 100:STM32Cube_FW_N6/Drivers/CMSIS/Include/cmsis_gcc.h ****   #pragma GCC diagnostic pop
 101:STM32Cube_FW_N6/Drivers/CMSIS/Include/cmsis_gcc.h ****   #define __UNALIGNED_UINT32_READ(addr)          (((const struct T_UINT32_READ *)(const void *)(add
 102:STM32Cube_FW_N6/Drivers/CMSIS/Include/cmsis_gcc.h **** #endif
 103:STM32Cube_FW_N6/Drivers/CMSIS/Include/cmsis_gcc.h **** #ifndef   __ALIGNED
 104:STM32Cube_FW_N6/Drivers/CMSIS/Include/cmsis_gcc.h ****   #define __ALIGNED(x)                           __attribute__((aligned(x)))
 105:STM32Cube_FW_N6/Drivers/CMSIS/Include/cmsis_gcc.h **** #endif
 106:STM32Cube_FW_N6/Drivers/CMSIS/Include/cmsis_gcc.h **** #ifndef   __RESTRICT
 107:STM32Cube_FW_N6/Drivers/CMSIS/Include/cmsis_gcc.h ****   #define __RESTRICT                             __restrict
 108:STM32Cube_FW_N6/Drivers/CMSIS/Include/cmsis_gcc.h **** #endif
 109:STM32Cube_FW_N6/Drivers/CMSIS/Include/cmsis_gcc.h **** #ifndef   __COMPILER_BARRIER
 110:STM32Cube_FW_N6/Drivers/CMSIS/Include/cmsis_gcc.h ****   #define __COMPILER_BARRIER()                   __ASM volatile("":::"memory")
 111:STM32Cube_FW_N6/Drivers/CMSIS/Include/cmsis_gcc.h **** #endif
 112:STM32Cube_FW_N6/Drivers/CMSIS/Include/cmsis_gcc.h **** #ifndef __NO_INIT
 113:STM32Cube_FW_N6/Drivers/CMSIS/Include/cmsis_gcc.h ****   #define __NO_INIT                              __attribute__ ((section (".noinit")))
 114:STM32Cube_FW_N6/Drivers/CMSIS/Include/cmsis_gcc.h **** #endif
 115:STM32Cube_FW_N6/Drivers/CMSIS/Include/cmsis_gcc.h **** #ifndef __ALIAS
 116:STM32Cube_FW_N6/Drivers/CMSIS/Include/cmsis_gcc.h ****   #define __ALIAS(x)                             __attribute__ ((alias(x)))
 117:STM32Cube_FW_N6/Drivers/CMSIS/Include/cmsis_gcc.h **** #endif
 118:STM32Cube_FW_N6/Drivers/CMSIS/Include/cmsis_gcc.h **** 
ARM GAS  C:\Users\DJESSOU\AppData\Local\Temp\cc6knbkx.s 			page 55


 119:STM32Cube_FW_N6/Drivers/CMSIS/Include/cmsis_gcc.h **** /* ##########################  Core Instruction Access  ######################### */
 120:STM32Cube_FW_N6/Drivers/CMSIS/Include/cmsis_gcc.h **** /** \defgroup CMSIS_Core_InstructionInterface CMSIS Core Instruction Interface
 121:STM32Cube_FW_N6/Drivers/CMSIS/Include/cmsis_gcc.h ****   Access to dedicated instructions
 122:STM32Cube_FW_N6/Drivers/CMSIS/Include/cmsis_gcc.h ****   @{
 123:STM32Cube_FW_N6/Drivers/CMSIS/Include/cmsis_gcc.h **** */
 124:STM32Cube_FW_N6/Drivers/CMSIS/Include/cmsis_gcc.h **** 
 125:STM32Cube_FW_N6/Drivers/CMSIS/Include/cmsis_gcc.h **** /* Define macros for porting to both thumb1 and thumb2.
 126:STM32Cube_FW_N6/Drivers/CMSIS/Include/cmsis_gcc.h ****  * For thumb1, use low register (r0-r7), specified by constraint "l"
 127:STM32Cube_FW_N6/Drivers/CMSIS/Include/cmsis_gcc.h ****  * Otherwise, use general registers, specified by constraint "r" */
 128:STM32Cube_FW_N6/Drivers/CMSIS/Include/cmsis_gcc.h **** #if defined (__thumb__) && !defined (__thumb2__)
 129:STM32Cube_FW_N6/Drivers/CMSIS/Include/cmsis_gcc.h **** #define __CMSIS_GCC_OUT_REG(r) "=l" (r)
 130:STM32Cube_FW_N6/Drivers/CMSIS/Include/cmsis_gcc.h **** #define __CMSIS_GCC_RW_REG(r) "+l" (r)
 131:STM32Cube_FW_N6/Drivers/CMSIS/Include/cmsis_gcc.h **** #define __CMSIS_GCC_USE_REG(r) "l" (r)
 132:STM32Cube_FW_N6/Drivers/CMSIS/Include/cmsis_gcc.h **** #else
 133:STM32Cube_FW_N6/Drivers/CMSIS/Include/cmsis_gcc.h **** #define __CMSIS_GCC_OUT_REG(r) "=r" (r)
 134:STM32Cube_FW_N6/Drivers/CMSIS/Include/cmsis_gcc.h **** #define __CMSIS_GCC_RW_REG(r) "+r" (r)
 135:STM32Cube_FW_N6/Drivers/CMSIS/Include/cmsis_gcc.h **** #define __CMSIS_GCC_USE_REG(r) "r" (r)
 136:STM32Cube_FW_N6/Drivers/CMSIS/Include/cmsis_gcc.h **** #endif
 137:STM32Cube_FW_N6/Drivers/CMSIS/Include/cmsis_gcc.h **** 
 138:STM32Cube_FW_N6/Drivers/CMSIS/Include/cmsis_gcc.h **** /**
 139:STM32Cube_FW_N6/Drivers/CMSIS/Include/cmsis_gcc.h ****   \brief   No Operation
 140:STM32Cube_FW_N6/Drivers/CMSIS/Include/cmsis_gcc.h ****   \details No Operation does nothing. This instruction can be used for code alignment purposes.
 141:STM32Cube_FW_N6/Drivers/CMSIS/Include/cmsis_gcc.h ****  */
 142:STM32Cube_FW_N6/Drivers/CMSIS/Include/cmsis_gcc.h **** #define __NOP()         __ASM volatile ("nop")
 143:STM32Cube_FW_N6/Drivers/CMSIS/Include/cmsis_gcc.h **** 
 144:STM32Cube_FW_N6/Drivers/CMSIS/Include/cmsis_gcc.h **** 
 145:STM32Cube_FW_N6/Drivers/CMSIS/Include/cmsis_gcc.h **** /**
 146:STM32Cube_FW_N6/Drivers/CMSIS/Include/cmsis_gcc.h ****   \brief   Wait For Interrupt
 147:STM32Cube_FW_N6/Drivers/CMSIS/Include/cmsis_gcc.h ****   \details Wait For Interrupt is a hint instruction that suspends execution until one of a number o
 148:STM32Cube_FW_N6/Drivers/CMSIS/Include/cmsis_gcc.h ****  */
 149:STM32Cube_FW_N6/Drivers/CMSIS/Include/cmsis_gcc.h **** #define __WFI()         __ASM volatile ("wfi":::"memory")
 150:STM32Cube_FW_N6/Drivers/CMSIS/Include/cmsis_gcc.h **** 
 151:STM32Cube_FW_N6/Drivers/CMSIS/Include/cmsis_gcc.h **** 
 152:STM32Cube_FW_N6/Drivers/CMSIS/Include/cmsis_gcc.h **** /**
 153:STM32Cube_FW_N6/Drivers/CMSIS/Include/cmsis_gcc.h ****   \brief   Wait For Event
 154:STM32Cube_FW_N6/Drivers/CMSIS/Include/cmsis_gcc.h ****   \details Wait For Event is a hint instruction that permits the processor to enter
 155:STM32Cube_FW_N6/Drivers/CMSIS/Include/cmsis_gcc.h ****            a low-power state until one of a number of events occurs.
 156:STM32Cube_FW_N6/Drivers/CMSIS/Include/cmsis_gcc.h ****  */
 157:STM32Cube_FW_N6/Drivers/CMSIS/Include/cmsis_gcc.h **** #define __WFE()         __ASM volatile ("wfe":::"memory")
 158:STM32Cube_FW_N6/Drivers/CMSIS/Include/cmsis_gcc.h **** 
 159:STM32Cube_FW_N6/Drivers/CMSIS/Include/cmsis_gcc.h **** 
 160:STM32Cube_FW_N6/Drivers/CMSIS/Include/cmsis_gcc.h **** /**
 161:STM32Cube_FW_N6/Drivers/CMSIS/Include/cmsis_gcc.h ****   \brief   Send Event
 162:STM32Cube_FW_N6/Drivers/CMSIS/Include/cmsis_gcc.h ****   \details Send Event is a hint instruction. It causes an event to be signaled to the CPU.
 163:STM32Cube_FW_N6/Drivers/CMSIS/Include/cmsis_gcc.h ****  */
 164:STM32Cube_FW_N6/Drivers/CMSIS/Include/cmsis_gcc.h **** #define __SEV()         __ASM volatile ("sev")
 165:STM32Cube_FW_N6/Drivers/CMSIS/Include/cmsis_gcc.h **** 
 166:STM32Cube_FW_N6/Drivers/CMSIS/Include/cmsis_gcc.h **** 
 167:STM32Cube_FW_N6/Drivers/CMSIS/Include/cmsis_gcc.h **** /**
 168:STM32Cube_FW_N6/Drivers/CMSIS/Include/cmsis_gcc.h ****   \brief   Instruction Synchronization Barrier
 169:STM32Cube_FW_N6/Drivers/CMSIS/Include/cmsis_gcc.h ****   \details Instruction Synchronization Barrier flushes the pipeline in the processor,
 170:STM32Cube_FW_N6/Drivers/CMSIS/Include/cmsis_gcc.h ****            so that all instructions following the ISB are fetched from cache or memory,
 171:STM32Cube_FW_N6/Drivers/CMSIS/Include/cmsis_gcc.h ****            after the instruction has been completed.
 172:STM32Cube_FW_N6/Drivers/CMSIS/Include/cmsis_gcc.h ****  */
 173:STM32Cube_FW_N6/Drivers/CMSIS/Include/cmsis_gcc.h **** __STATIC_FORCEINLINE void __ISB(void)
 174:STM32Cube_FW_N6/Drivers/CMSIS/Include/cmsis_gcc.h **** {
 175:STM32Cube_FW_N6/Drivers/CMSIS/Include/cmsis_gcc.h ****   __ASM volatile ("isb 0xF":::"memory");
ARM GAS  C:\Users\DJESSOU\AppData\Local\Temp\cc6knbkx.s 			page 56


 176:STM32Cube_FW_N6/Drivers/CMSIS/Include/cmsis_gcc.h **** }
 177:STM32Cube_FW_N6/Drivers/CMSIS/Include/cmsis_gcc.h **** 
 178:STM32Cube_FW_N6/Drivers/CMSIS/Include/cmsis_gcc.h **** 
 179:STM32Cube_FW_N6/Drivers/CMSIS/Include/cmsis_gcc.h **** /**
 180:STM32Cube_FW_N6/Drivers/CMSIS/Include/cmsis_gcc.h ****   \brief   Data Synchronization Barrier
 181:STM32Cube_FW_N6/Drivers/CMSIS/Include/cmsis_gcc.h ****   \details Acts as a special kind of Data Memory Barrier.
 182:STM32Cube_FW_N6/Drivers/CMSIS/Include/cmsis_gcc.h ****            It completes when all explicit memory accesses before this instruction complete.
 183:STM32Cube_FW_N6/Drivers/CMSIS/Include/cmsis_gcc.h ****  */
 184:STM32Cube_FW_N6/Drivers/CMSIS/Include/cmsis_gcc.h **** __STATIC_FORCEINLINE void __DSB(void)
 185:STM32Cube_FW_N6/Drivers/CMSIS/Include/cmsis_gcc.h **** {
 186:STM32Cube_FW_N6/Drivers/CMSIS/Include/cmsis_gcc.h ****   __ASM volatile ("dsb 0xF":::"memory");
 187:STM32Cube_FW_N6/Drivers/CMSIS/Include/cmsis_gcc.h **** }
 188:STM32Cube_FW_N6/Drivers/CMSIS/Include/cmsis_gcc.h **** 
 189:STM32Cube_FW_N6/Drivers/CMSIS/Include/cmsis_gcc.h **** 
 190:STM32Cube_FW_N6/Drivers/CMSIS/Include/cmsis_gcc.h **** /**
 191:STM32Cube_FW_N6/Drivers/CMSIS/Include/cmsis_gcc.h ****   \brief   Data Memory Barrier
 192:STM32Cube_FW_N6/Drivers/CMSIS/Include/cmsis_gcc.h ****   \details Ensures the apparent order of the explicit memory operations before
 193:STM32Cube_FW_N6/Drivers/CMSIS/Include/cmsis_gcc.h ****            and after the instruction, without ensuring their completion.
 194:STM32Cube_FW_N6/Drivers/CMSIS/Include/cmsis_gcc.h ****  */
 195:STM32Cube_FW_N6/Drivers/CMSIS/Include/cmsis_gcc.h **** __STATIC_FORCEINLINE void __DMB(void)
 196:STM32Cube_FW_N6/Drivers/CMSIS/Include/cmsis_gcc.h **** {
 197:STM32Cube_FW_N6/Drivers/CMSIS/Include/cmsis_gcc.h ****   __ASM volatile ("dmb 0xF":::"memory");
 198:STM32Cube_FW_N6/Drivers/CMSIS/Include/cmsis_gcc.h **** }
 199:STM32Cube_FW_N6/Drivers/CMSIS/Include/cmsis_gcc.h **** 
 200:STM32Cube_FW_N6/Drivers/CMSIS/Include/cmsis_gcc.h **** 
 201:STM32Cube_FW_N6/Drivers/CMSIS/Include/cmsis_gcc.h **** /**
 202:STM32Cube_FW_N6/Drivers/CMSIS/Include/cmsis_gcc.h ****   \brief   Reverse byte order (32 bit)
 203:STM32Cube_FW_N6/Drivers/CMSIS/Include/cmsis_gcc.h ****   \details Reverses the byte order in unsigned integer value. For example, 0x12345678 becomes 0x785
 204:STM32Cube_FW_N6/Drivers/CMSIS/Include/cmsis_gcc.h ****   \param [in]    value  Value to reverse
 205:STM32Cube_FW_N6/Drivers/CMSIS/Include/cmsis_gcc.h ****   \return               Reversed value
 206:STM32Cube_FW_N6/Drivers/CMSIS/Include/cmsis_gcc.h ****  */
 207:STM32Cube_FW_N6/Drivers/CMSIS/Include/cmsis_gcc.h **** __STATIC_FORCEINLINE uint32_t __REV(uint32_t value)
 208:STM32Cube_FW_N6/Drivers/CMSIS/Include/cmsis_gcc.h **** {
 209:STM32Cube_FW_N6/Drivers/CMSIS/Include/cmsis_gcc.h ****   return __builtin_bswap32(value);
 210:STM32Cube_FW_N6/Drivers/CMSIS/Include/cmsis_gcc.h **** }
 211:STM32Cube_FW_N6/Drivers/CMSIS/Include/cmsis_gcc.h **** 
 212:STM32Cube_FW_N6/Drivers/CMSIS/Include/cmsis_gcc.h **** 
 213:STM32Cube_FW_N6/Drivers/CMSIS/Include/cmsis_gcc.h **** /**
 214:STM32Cube_FW_N6/Drivers/CMSIS/Include/cmsis_gcc.h ****   \brief   Reverse byte order (16 bit)
 215:STM32Cube_FW_N6/Drivers/CMSIS/Include/cmsis_gcc.h ****   \details Reverses the byte order within each halfword of a word. For example, 0x12345678 becomes 
 216:STM32Cube_FW_N6/Drivers/CMSIS/Include/cmsis_gcc.h ****   \param [in]    value  Value to reverse
 217:STM32Cube_FW_N6/Drivers/CMSIS/Include/cmsis_gcc.h ****   \return               Reversed value
 218:STM32Cube_FW_N6/Drivers/CMSIS/Include/cmsis_gcc.h ****  */
 219:STM32Cube_FW_N6/Drivers/CMSIS/Include/cmsis_gcc.h **** __STATIC_FORCEINLINE uint32_t __REV16(uint32_t value)
 220:STM32Cube_FW_N6/Drivers/CMSIS/Include/cmsis_gcc.h **** {
 221:STM32Cube_FW_N6/Drivers/CMSIS/Include/cmsis_gcc.h ****   uint32_t result;
 222:STM32Cube_FW_N6/Drivers/CMSIS/Include/cmsis_gcc.h **** 
 223:STM32Cube_FW_N6/Drivers/CMSIS/Include/cmsis_gcc.h ****   __ASM ("rev16 %0, %1" : __CMSIS_GCC_OUT_REG (result) : __CMSIS_GCC_USE_REG (value) );
 224:STM32Cube_FW_N6/Drivers/CMSIS/Include/cmsis_gcc.h ****   return (result);
 225:STM32Cube_FW_N6/Drivers/CMSIS/Include/cmsis_gcc.h **** }
 226:STM32Cube_FW_N6/Drivers/CMSIS/Include/cmsis_gcc.h **** 
 227:STM32Cube_FW_N6/Drivers/CMSIS/Include/cmsis_gcc.h **** 
 228:STM32Cube_FW_N6/Drivers/CMSIS/Include/cmsis_gcc.h **** /**
 229:STM32Cube_FW_N6/Drivers/CMSIS/Include/cmsis_gcc.h ****   \brief   Reverse byte order (16 bit)
 230:STM32Cube_FW_N6/Drivers/CMSIS/Include/cmsis_gcc.h ****   \details Reverses the byte order in a 16-bit value and returns the signed 16-bit result. For exam
 231:STM32Cube_FW_N6/Drivers/CMSIS/Include/cmsis_gcc.h ****   \param [in]    value  Value to reverse
 232:STM32Cube_FW_N6/Drivers/CMSIS/Include/cmsis_gcc.h ****   \return               Reversed value
ARM GAS  C:\Users\DJESSOU\AppData\Local\Temp\cc6knbkx.s 			page 57


 233:STM32Cube_FW_N6/Drivers/CMSIS/Include/cmsis_gcc.h ****  */
 234:STM32Cube_FW_N6/Drivers/CMSIS/Include/cmsis_gcc.h **** __STATIC_FORCEINLINE int16_t __REVSH(int16_t value)
 235:STM32Cube_FW_N6/Drivers/CMSIS/Include/cmsis_gcc.h **** {
 236:STM32Cube_FW_N6/Drivers/CMSIS/Include/cmsis_gcc.h ****   return (int16_t)__builtin_bswap16(value);
 237:STM32Cube_FW_N6/Drivers/CMSIS/Include/cmsis_gcc.h **** }
 238:STM32Cube_FW_N6/Drivers/CMSIS/Include/cmsis_gcc.h **** 
 239:STM32Cube_FW_N6/Drivers/CMSIS/Include/cmsis_gcc.h **** 
 240:STM32Cube_FW_N6/Drivers/CMSIS/Include/cmsis_gcc.h **** /**
 241:STM32Cube_FW_N6/Drivers/CMSIS/Include/cmsis_gcc.h ****   \brief   Rotate Right in unsigned value (32 bit)
 242:STM32Cube_FW_N6/Drivers/CMSIS/Include/cmsis_gcc.h ****   \details Rotate Right (immediate) provides the value of the contents of a register rotated by a v
 243:STM32Cube_FW_N6/Drivers/CMSIS/Include/cmsis_gcc.h ****   \param [in]    op1  Value to rotate
 244:STM32Cube_FW_N6/Drivers/CMSIS/Include/cmsis_gcc.h ****   \param [in]    op2  Number of Bits to rotate
 245:STM32Cube_FW_N6/Drivers/CMSIS/Include/cmsis_gcc.h ****   \return               Rotated value
 246:STM32Cube_FW_N6/Drivers/CMSIS/Include/cmsis_gcc.h ****  */
 247:STM32Cube_FW_N6/Drivers/CMSIS/Include/cmsis_gcc.h **** __STATIC_FORCEINLINE uint32_t __ROR(uint32_t op1, uint32_t op2)
 248:STM32Cube_FW_N6/Drivers/CMSIS/Include/cmsis_gcc.h **** {
 249:STM32Cube_FW_N6/Drivers/CMSIS/Include/cmsis_gcc.h ****   op2 %= 32U;
 250:STM32Cube_FW_N6/Drivers/CMSIS/Include/cmsis_gcc.h ****   if (op2 == 0U)
 251:STM32Cube_FW_N6/Drivers/CMSIS/Include/cmsis_gcc.h ****   {
 252:STM32Cube_FW_N6/Drivers/CMSIS/Include/cmsis_gcc.h ****     return op1;
 253:STM32Cube_FW_N6/Drivers/CMSIS/Include/cmsis_gcc.h ****   }
 254:STM32Cube_FW_N6/Drivers/CMSIS/Include/cmsis_gcc.h ****   return (op1 >> op2) | (op1 << (32U - op2));
 255:STM32Cube_FW_N6/Drivers/CMSIS/Include/cmsis_gcc.h **** }
 256:STM32Cube_FW_N6/Drivers/CMSIS/Include/cmsis_gcc.h **** 
 257:STM32Cube_FW_N6/Drivers/CMSIS/Include/cmsis_gcc.h **** 
 258:STM32Cube_FW_N6/Drivers/CMSIS/Include/cmsis_gcc.h **** /**
 259:STM32Cube_FW_N6/Drivers/CMSIS/Include/cmsis_gcc.h ****   \brief   Breakpoint
 260:STM32Cube_FW_N6/Drivers/CMSIS/Include/cmsis_gcc.h ****   \details Causes the processor to enter Debug state.
 261:STM32Cube_FW_N6/Drivers/CMSIS/Include/cmsis_gcc.h ****            Debug tools can use this to investigate system state when the instruction at a particula
 262:STM32Cube_FW_N6/Drivers/CMSIS/Include/cmsis_gcc.h ****   \param [in]    value  is ignored by the processor.
 263:STM32Cube_FW_N6/Drivers/CMSIS/Include/cmsis_gcc.h ****                  If required, a debugger can use it to store additional information about the break
 264:STM32Cube_FW_N6/Drivers/CMSIS/Include/cmsis_gcc.h ****  */
 265:STM32Cube_FW_N6/Drivers/CMSIS/Include/cmsis_gcc.h **** #define __BKPT(value) __ASM volatile ("bkpt "#value)
 266:STM32Cube_FW_N6/Drivers/CMSIS/Include/cmsis_gcc.h **** 
 267:STM32Cube_FW_N6/Drivers/CMSIS/Include/cmsis_gcc.h **** 
 268:STM32Cube_FW_N6/Drivers/CMSIS/Include/cmsis_gcc.h **** /**
 269:STM32Cube_FW_N6/Drivers/CMSIS/Include/cmsis_gcc.h ****   \brief   Reverse bit order of value
 270:STM32Cube_FW_N6/Drivers/CMSIS/Include/cmsis_gcc.h ****   \details Reverses the bit order of the given value.
 271:STM32Cube_FW_N6/Drivers/CMSIS/Include/cmsis_gcc.h ****   \param [in]    value  Value to reverse
 272:STM32Cube_FW_N6/Drivers/CMSIS/Include/cmsis_gcc.h ****   \return               Reversed value
 273:STM32Cube_FW_N6/Drivers/CMSIS/Include/cmsis_gcc.h ****  */
 274:STM32Cube_FW_N6/Drivers/CMSIS/Include/cmsis_gcc.h **** __STATIC_FORCEINLINE uint32_t __RBIT(uint32_t value)
 2062              		.loc 2 274 31 view .LVU595
 2063              	.LBB11:
 275:STM32Cube_FW_N6/Drivers/CMSIS/Include/cmsis_gcc.h **** {
 276:STM32Cube_FW_N6/Drivers/CMSIS/Include/cmsis_gcc.h ****   uint32_t result;
 2064              		.loc 2 276 3 view .LVU596
 277:STM32Cube_FW_N6/Drivers/CMSIS/Include/cmsis_gcc.h **** 
 278:STM32Cube_FW_N6/Drivers/CMSIS/Include/cmsis_gcc.h **** #if (__ARM_ARCH_ISA_THUMB >= 2)
 279:STM32Cube_FW_N6/Drivers/CMSIS/Include/cmsis_gcc.h ****    __ASM ("rbit %0, %1" : "=r" (result) : "r" (value) );
 2065              		.loc 2 279 4 view .LVU597
 2066              		.syntax unified
 2067              	@ 279 "STM32Cube_FW_N6/Drivers/CMSIS/Include/cmsis_gcc.h" 1
 2068 00d4 95FAA5F5 		rbit r5, r5
 2069              	@ 0 "" 2
 2070              	.LVL121:
 280:STM32Cube_FW_N6/Drivers/CMSIS/Include/cmsis_gcc.h **** #else
ARM GAS  C:\Users\DJESSOU\AppData\Local\Temp\cc6knbkx.s 			page 58


 281:STM32Cube_FW_N6/Drivers/CMSIS/Include/cmsis_gcc.h ****   uint32_t s = (4U /*sizeof(v)*/ * 8U) - 1U; /* extra shift needed at end */
 282:STM32Cube_FW_N6/Drivers/CMSIS/Include/cmsis_gcc.h **** 
 283:STM32Cube_FW_N6/Drivers/CMSIS/Include/cmsis_gcc.h ****   result = value;                      /* r will be reversed bits of v; first get LSB of v */
 284:STM32Cube_FW_N6/Drivers/CMSIS/Include/cmsis_gcc.h ****   for (value >>= 1U; value != 0U; value >>= 1U)
 285:STM32Cube_FW_N6/Drivers/CMSIS/Include/cmsis_gcc.h ****   {
 286:STM32Cube_FW_N6/Drivers/CMSIS/Include/cmsis_gcc.h ****     result <<= 1U;
 287:STM32Cube_FW_N6/Drivers/CMSIS/Include/cmsis_gcc.h ****     result |= value & 1U;
 288:STM32Cube_FW_N6/Drivers/CMSIS/Include/cmsis_gcc.h ****     s--;
 289:STM32Cube_FW_N6/Drivers/CMSIS/Include/cmsis_gcc.h ****   }
 290:STM32Cube_FW_N6/Drivers/CMSIS/Include/cmsis_gcc.h ****   result <<= s;                        /* shift when v's highest bits are zero */
 291:STM32Cube_FW_N6/Drivers/CMSIS/Include/cmsis_gcc.h **** #endif
 292:STM32Cube_FW_N6/Drivers/CMSIS/Include/cmsis_gcc.h ****   return (result);
 2071              		.loc 2 292 3 view .LVU598
 2072              		.loc 2 292 3 is_stmt 0 view .LVU599
 2073              		.thumb
 2074              		.syntax unified
 2075              	.LBE11:
 2076              	.LBE10:
 2077              	.LBB12:
 2078              	.LBI12:
 293:STM32Cube_FW_N6/Drivers/CMSIS/Include/cmsis_gcc.h **** }
 294:STM32Cube_FW_N6/Drivers/CMSIS/Include/cmsis_gcc.h **** 
 295:STM32Cube_FW_N6/Drivers/CMSIS/Include/cmsis_gcc.h **** 
 296:STM32Cube_FW_N6/Drivers/CMSIS/Include/cmsis_gcc.h **** /**
 297:STM32Cube_FW_N6/Drivers/CMSIS/Include/cmsis_gcc.h ****   \brief   Count leading zeros
 298:STM32Cube_FW_N6/Drivers/CMSIS/Include/cmsis_gcc.h ****   \details Counts the number of leading zeros of a data value.
 299:STM32Cube_FW_N6/Drivers/CMSIS/Include/cmsis_gcc.h ****   \param [in]  value  Value to count the leading zeros
 300:STM32Cube_FW_N6/Drivers/CMSIS/Include/cmsis_gcc.h ****   \return             number of leading zeros in value
 301:STM32Cube_FW_N6/Drivers/CMSIS/Include/cmsis_gcc.h ****  */
 302:STM32Cube_FW_N6/Drivers/CMSIS/Include/cmsis_gcc.h **** __STATIC_FORCEINLINE uint8_t __CLZ(uint32_t value)
 2079              		.loc 2 302 30 is_stmt 1 view .LVU600
 2080              	.LBB13:
 303:STM32Cube_FW_N6/Drivers/CMSIS/Include/cmsis_gcc.h **** {
 304:STM32Cube_FW_N6/Drivers/CMSIS/Include/cmsis_gcc.h ****   /* Even though __builtin_clz produces a CLZ instruction on ARM, formally
 305:STM32Cube_FW_N6/Drivers/CMSIS/Include/cmsis_gcc.h ****      __builtin_clz(0) is undefined behaviour, so handle this case specially.
 306:STM32Cube_FW_N6/Drivers/CMSIS/Include/cmsis_gcc.h ****      This guarantees ARM-compatible results if happening to compile on a non-ARM
 307:STM32Cube_FW_N6/Drivers/CMSIS/Include/cmsis_gcc.h ****      target, and ensures the compiler doesn't decide to activate any
 308:STM32Cube_FW_N6/Drivers/CMSIS/Include/cmsis_gcc.h ****      optimisations using the logic "value was passed to __builtin_clz, so it
 309:STM32Cube_FW_N6/Drivers/CMSIS/Include/cmsis_gcc.h ****      is non-zero".
 310:STM32Cube_FW_N6/Drivers/CMSIS/Include/cmsis_gcc.h ****      ARM GCC 7.3 and possibly earlier will optimise this test away, leaving a
 311:STM32Cube_FW_N6/Drivers/CMSIS/Include/cmsis_gcc.h ****      single CLZ instruction.
 312:STM32Cube_FW_N6/Drivers/CMSIS/Include/cmsis_gcc.h ****    */
 313:STM32Cube_FW_N6/Drivers/CMSIS/Include/cmsis_gcc.h ****   if (value == 0U)
 2081              		.loc 2 313 3 view .LVU601
 314:STM32Cube_FW_N6/Drivers/CMSIS/Include/cmsis_gcc.h ****   {
 315:STM32Cube_FW_N6/Drivers/CMSIS/Include/cmsis_gcc.h ****     return 32U;
 316:STM32Cube_FW_N6/Drivers/CMSIS/Include/cmsis_gcc.h ****   }
 317:STM32Cube_FW_N6/Drivers/CMSIS/Include/cmsis_gcc.h ****   return __builtin_clz(value);
 2082              		.loc 2 317 10 is_stmt 0 discriminator 1 view .LVU602
 2083 00d8 B5FA85F5 		clz	r5, r5
 2084              	.LVL122:
 2085              		.loc 2 317 10 discriminator 1 view .LVU603
 2086              	.LBE13:
 2087              	.LBE12:
 581:STM32Cube_FW_N6/Drivers/STM32N6xx_HAL_Driver/Src/stm32n6xx_hal_gpio.c **** 
 582:STM32Cube_FW_N6/Drivers/STM32N6xx_HAL_Driver/Src/stm32n6xx_hal_gpio.c ****   /* Get the IO advanced configuration */
 583:STM32Cube_FW_N6/Drivers/STM32N6xx_HAL_Driver/Src/stm32n6xx_hal_gpio.c ****   index = (position & 0x07u) * GPIO_ADVCFGRL_1_Pos;
ARM GAS  C:\Users\DJESSOU\AppData\Local\Temp\cc6knbkx.s 			page 59


 2088              		.loc 1 583 3 is_stmt 1 view .LVU604
 584:STM32Cube_FW_N6/Drivers/STM32N6xx_HAL_Driver/Src/stm32n6xx_hal_gpio.c ****   pRet_Init->Edge = ((GPIOx->ADVCFGR[position >> 3u]
 585:STM32Cube_FW_N6/Drivers/STM32N6xx_HAL_Driver/Src/stm32n6xx_hal_gpio.c ****                       & ((GPIO_ADVCFGRL_DE0 << index) | (GPIO_ADVCFGRL_INVCLK0 << index))) >> index
 2089              		.loc 1 585 55 is_stmt 0 view .LVU605
 2090 00dc 0623     		movs	r3, #6
 583:STM32Cube_FW_N6/Drivers/STM32N6xx_HAL_Driver/Src/stm32n6xx_hal_gpio.c ****   pRet_Init->Edge = ((GPIOx->ADVCFGR[position >> 3u]
 2091              		.loc 1 583 9 view .LVU606
 2092 00de 05F00702 		and	r2, r5, #7
 584:STM32Cube_FW_N6/Drivers/STM32N6xx_HAL_Driver/Src/stm32n6xx_hal_gpio.c ****   pRet_Init->Edge = ((GPIOx->ADVCFGR[position >> 3u]
 2093              		.loc 1 584 47 view .LVU607
 2094 00e2 ED08     		lsrs	r5, r5, #3
 2095              	.LVL123:
 584:STM32Cube_FW_N6/Drivers/STM32N6xx_HAL_Driver/Src/stm32n6xx_hal_gpio.c ****   pRet_Init->Edge = ((GPIOx->ADVCFGR[position >> 3u]
 2096              		.loc 1 584 47 view .LVU608
 2097 00e4 04EB8504 		add	r4, r4, r5, lsl #2
 2098              	.LVL124:
 584:STM32Cube_FW_N6/Drivers/STM32N6xx_HAL_Driver/Src/stm32n6xx_hal_gpio.c ****   pRet_Init->Edge = ((GPIOx->ADVCFGR[position >> 3u]
 2099              		.loc 1 584 37 view .LVU609
 2100 00e8 A16C     		ldr	r1, [r4, #72]
 583:STM32Cube_FW_N6/Drivers/STM32N6xx_HAL_Driver/Src/stm32n6xx_hal_gpio.c ****   pRet_Init->Edge = ((GPIOx->ADVCFGR[position >> 3u]
 2101              		.loc 1 583 9 view .LVU610
 2102 00ea 9200     		lsls	r2, r2, #2
 2103              	.LVL125:
 584:STM32Cube_FW_N6/Drivers/STM32N6xx_HAL_Driver/Src/stm32n6xx_hal_gpio.c ****   pRet_Init->Edge = ((GPIOx->ADVCFGR[position >> 3u]
 2104              		.loc 1 584 3 is_stmt 1 view .LVU611
 2105              		.loc 1 585 55 is_stmt 0 view .LVU612
 2106 00ec 9340     		lsls	r3, r3, r2
 2107              		.loc 1 585 23 view .LVU613
 2108 00ee 0B40     		ands	r3, r3, r1
 2109              		.loc 1 585 92 view .LVU614
 2110 00f0 D340     		lsrs	r3, r3, r2
 584:STM32Cube_FW_N6/Drivers/STM32N6xx_HAL_Driver/Src/stm32n6xx_hal_gpio.c ****   pRet_Init->Edge = ((GPIOx->ADVCFGR[position >> 3u]
 2111              		.loc 1 584 19 view .LVU615
 2112 00f2 7360     		str	r3, [r6, #4]
 586:STM32Cube_FW_N6/Drivers/STM32N6xx_HAL_Driver/Src/stm32n6xx_hal_gpio.c ****   pRet_Init->Retime = ((GPIOx->ADVCFGR[position >> 3u] & (GPIO_ADVCFGRL_RET0 << index)) >> index);
 2113              		.loc 1 586 3 is_stmt 1 view .LVU616
 2114              		.loc 1 586 78 is_stmt 0 view .LVU617
 2115 00f4 0823     		movs	r3, #8
 587:STM32Cube_FW_N6/Drivers/STM32N6xx_HAL_Driver/Src/stm32n6xx_hal_gpio.c **** 
 588:STM32Cube_FW_N6/Drivers/STM32N6xx_HAL_Driver/Src/stm32n6xx_hal_gpio.c ****   return HAL_OK;
 2116              		.loc 1 588 10 view .LVU618
 2117 00f6 0020     		movs	r0, #0
 586:STM32Cube_FW_N6/Drivers/STM32N6xx_HAL_Driver/Src/stm32n6xx_hal_gpio.c ****   pRet_Init->Retime = ((GPIOx->ADVCFGR[position >> 3u] & (GPIO_ADVCFGRL_RET0 << index)) >> index);
 2118              		.loc 1 586 39 view .LVU619
 2119 00f8 A16C     		ldr	r1, [r4, #72]
 586:STM32Cube_FW_N6/Drivers/STM32N6xx_HAL_Driver/Src/stm32n6xx_hal_gpio.c ****   pRet_Init->Retime = ((GPIOx->ADVCFGR[position >> 3u] & (GPIO_ADVCFGRL_RET0 << index)) >> index);
 2120              		.loc 1 586 78 view .LVU620
 2121 00fa 9340     		lsls	r3, r3, r2
 586:STM32Cube_FW_N6/Drivers/STM32N6xx_HAL_Driver/Src/stm32n6xx_hal_gpio.c ****   pRet_Init->Retime = ((GPIOx->ADVCFGR[position >> 3u] & (GPIO_ADVCFGRL_RET0 << index)) >> index);
 2122              		.loc 1 586 56 view .LVU621
 2123 00fc 0B40     		ands	r3, r3, r1
 586:STM32Cube_FW_N6/Drivers/STM32N6xx_HAL_Driver/Src/stm32n6xx_hal_gpio.c ****   pRet_Init->Retime = ((GPIOx->ADVCFGR[position >> 3u] & (GPIO_ADVCFGRL_RET0 << index)) >> index);
 2124              		.loc 1 586 89 view .LVU622
 2125 00fe D340     		lsrs	r3, r3, r2
 586:STM32Cube_FW_N6/Drivers/STM32N6xx_HAL_Driver/Src/stm32n6xx_hal_gpio.c ****   pRet_Init->Retime = ((GPIOx->ADVCFGR[position >> 3u] & (GPIO_ADVCFGRL_RET0 << index)) >> index);
 2126              		.loc 1 586 21 view .LVU623
 2127 0100 3360     		str	r3, [r6]
ARM GAS  C:\Users\DJESSOU\AppData\Local\Temp\cc6knbkx.s 			page 60


 2128              		.loc 1 588 3 is_stmt 1 view .LVU624
 2129              	.LVL126:
 2130              	.L159:
 589:STM32Cube_FW_N6/Drivers/STM32N6xx_HAL_Driver/Src/stm32n6xx_hal_gpio.c **** }
 2131              		.loc 1 589 1 is_stmt 0 view .LVU625
 2132 0102 70BD     		pop	{r4, r5, r6, pc}
 2133              	.LVL127:
 2134              	.L156:
 2135              		.loc 1 589 1 view .LVU626
 2136 0104 214B     		ldr	r3, .L194+52
 2137 0106 2A1F     		subs	r2, r5, #4
 2138 0108 92B2     		uxth	r2, r2
 2139 010a D340     		lsrs	r3, r3, r2
 2140 010c DB07     		lsls	r3, r3, #31
 2141 010e DFD4     		bmi	.L153
 2142              	.L157:
 571:STM32Cube_FW_N6/Drivers/STM32N6xx_HAL_Driver/Src/stm32n6xx_hal_gpio.c **** 
 2143              		.loc 1 571 3 discriminator 15 view .LVU627
 2144 0110 40F23B21 		movw	r1, #571
 2145 0114 1C48     		ldr	r0, .L194+48
 2146 0116 FFF7FEFF 		bl	assert_failed
 2147              	.LVL128:
 2148 011a D9E7     		b	.L153
 2149              	.L155:
 2150 011c 402D     		cmp	r5, #64
 2151 011e D7D0     		beq	.L153
 2152 0120 802D     		cmp	r5, #128
 2153              	.L193:
 2154 0122 F5D1     		bne	.L157
 2155 0124 D4E7     		b	.L153
 2156              	.L154:
 2157 0126 B5F5805F 		cmp	r5, #4096
 2158 012a D1D0     		beq	.L153
 2159 012c 08D8     		bhi	.L158
 2160 012e B5F5806F 		cmp	r5, #1024
 2161 0132 CDD0     		beq	.L153
 2162 0134 B5F5006F 		cmp	r5, #2048
 2163 0138 CAD0     		beq	.L153
 2164 013a B5F5007F 		cmp	r5, #512
 2165 013e F0E7     		b	.L193
 2166              	.L158:
 2167 0140 B5F5804F 		cmp	r5, #16384
 2168 0144 C4D0     		beq	.L153
 2169 0146 B5F5004F 		cmp	r5, #32768
 2170 014a C1D0     		beq	.L153
 2171 014c B5F5005F 		cmp	r5, #8192
 2172 0150 E7E7     		b	.L193
 2173              	.L161:
 576:STM32Cube_FW_N6/Drivers/STM32N6xx_HAL_Driver/Src/stm32n6xx_hal_gpio.c ****   }
 2174              		.loc 1 576 12 view .LVU628
 2175 0152 0120     		movs	r0, #1
 2176 0154 D5E7     		b	.L159
 2177              	.L195:
 2178 0156 00BF     		.align	2
 2179              	.L194:
 2180 0158 00000256 		.word	1442971648
 2181 015c 00040256 		.word	1442972672
ARM GAS  C:\Users\DJESSOU\AppData\Local\Temp\cc6knbkx.s 			page 61


 2182 0160 00080256 		.word	1442973696
 2183 0164 000C0256 		.word	1442974720
 2184 0168 00100256 		.word	1442975744
 2185 016c 00140256 		.word	1442976768
 2186 0170 00180256 		.word	1442977792
 2187 0174 001C0256 		.word	1442978816
 2188 0178 00340256 		.word	1442984960
 2189 017c 00380256 		.word	1442985984
 2190 0180 003C0256 		.word	1442987008
 2191 0184 00400256 		.word	1442988032
 2192 0188 00000000 		.word	.LC0
 2193 018c 11100010 		.word	268439569
 2194              		.cfi_endproc
 2195              	.LFE870:
 2197              		.section	.text.HAL_GPIO_SetDelay,"ax",%progbits
 2198              		.align	1
 2199              		.global	HAL_GPIO_SetDelay
 2200              		.syntax unified
 2201              		.thumb
 2202              		.thumb_func
 2204              	HAL_GPIO_SetDelay:
 2205              	.LVL129:
 2206              	.LFB871:
 590:STM32Cube_FW_N6/Drivers/STM32N6xx_HAL_Driver/Src/stm32n6xx_hal_gpio.c **** 
 591:STM32Cube_FW_N6/Drivers/STM32N6xx_HAL_Driver/Src/stm32n6xx_hal_gpio.c **** 
 592:STM32Cube_FW_N6/Drivers/STM32N6xx_HAL_Driver/Src/stm32n6xx_hal_gpio.c **** /**
 593:STM32Cube_FW_N6/Drivers/STM32N6xx_HAL_Driver/Src/stm32n6xx_hal_gpio.c ****   * @brief  Configure GPIO delay on specified GPIO pin.
 594:STM32Cube_FW_N6/Drivers/STM32N6xx_HAL_Driver/Src/stm32n6xx_hal_gpio.c ****   * @param  GPIOx where x can be (A..H and N..Q)
 595:STM32Cube_FW_N6/Drivers/STM32N6xx_HAL_Driver/Src/stm32n6xx_hal_gpio.c ****   * @param  GPIO_Pin specifies the port bit to be written.
 596:STM32Cube_FW_N6/Drivers/STM32N6xx_HAL_Driver/Src/stm32n6xx_hal_gpio.c ****   *         This parameter can be any combination of GPIO_Pin_x where x can be (0..15).
 597:STM32Cube_FW_N6/Drivers/STM32N6xx_HAL_Driver/Src/stm32n6xx_hal_gpio.c ****   * @param  pDly_Init pointer to a GPIO_DelayTypeDef structure that contains
 598:STM32Cube_FW_N6/Drivers/STM32N6xx_HAL_Driver/Src/stm32n6xx_hal_gpio.c ****   *         the delay configuration information for the specified GPIO peripheral.
 599:STM32Cube_FW_N6/Drivers/STM32N6xx_HAL_Driver/Src/stm32n6xx_hal_gpio.c ****   * @retval None
 600:STM32Cube_FW_N6/Drivers/STM32N6xx_HAL_Driver/Src/stm32n6xx_hal_gpio.c ****   */
 601:STM32Cube_FW_N6/Drivers/STM32N6xx_HAL_Driver/Src/stm32n6xx_hal_gpio.c **** void HAL_GPIO_SetDelay(GPIO_TypeDef *GPIOx, uint16_t GPIO_Pin, const GPIO_DelayTypeDef *pDly_Init)
 602:STM32Cube_FW_N6/Drivers/STM32N6xx_HAL_Driver/Src/stm32n6xx_hal_gpio.c **** {
 2207              		.loc 1 602 1 is_stmt 1 view -0
 2208              		.cfi_startproc
 2209              		@ args = 0, pretend = 0, frame = 0
 2210              		@ frame_needed = 0, uses_anonymous_args = 0
 603:STM32Cube_FW_N6/Drivers/STM32N6xx_HAL_Driver/Src/stm32n6xx_hal_gpio.c ****   uint32_t position = 0x00u;
 2211              		.loc 1 603 3 view .LVU630
 604:STM32Cube_FW_N6/Drivers/STM32N6xx_HAL_Driver/Src/stm32n6xx_hal_gpio.c ****   uint32_t iocurrent;
 2212              		.loc 1 604 3 view .LVU631
 605:STM32Cube_FW_N6/Drivers/STM32N6xx_HAL_Driver/Src/stm32n6xx_hal_gpio.c ****   uint32_t temp;
 2213              		.loc 1 605 3 view .LVU632
 606:STM32Cube_FW_N6/Drivers/STM32N6xx_HAL_Driver/Src/stm32n6xx_hal_gpio.c **** 
 607:STM32Cube_FW_N6/Drivers/STM32N6xx_HAL_Driver/Src/stm32n6xx_hal_gpio.c ****   /* Check the parameters */
 608:STM32Cube_FW_N6/Drivers/STM32N6xx_HAL_Driver/Src/stm32n6xx_hal_gpio.c ****   assert_param(IS_GPIO_ALL_INSTANCE(GPIOx));
 2214              		.loc 1 608 3 view .LVU633
 602:STM32Cube_FW_N6/Drivers/STM32N6xx_HAL_Driver/Src/stm32n6xx_hal_gpio.c ****   uint32_t position = 0x00u;
 2215              		.loc 1 602 1 is_stmt 0 view .LVU634
 2216 0000 F8B5     		push	{r3, r4, r5, r6, r7, lr}
 2217              		.cfi_def_cfa_offset 24
 2218              		.cfi_offset 3, -24
 2219              		.cfi_offset 4, -20
 2220              		.cfi_offset 5, -16
ARM GAS  C:\Users\DJESSOU\AppData\Local\Temp\cc6knbkx.s 			page 62


 2221              		.cfi_offset 6, -12
 2222              		.cfi_offset 7, -8
 2223              		.cfi_offset 14, -4
 2224              		.loc 1 608 3 view .LVU635
 2225 0002 4D4B     		ldr	r3, .L207
 602:STM32Cube_FW_N6/Drivers/STM32N6xx_HAL_Driver/Src/stm32n6xx_hal_gpio.c ****   uint32_t position = 0x00u;
 2226              		.loc 1 602 1 view .LVU636
 2227 0004 0446     		mov	r4, r0
 2228              		.loc 1 608 3 view .LVU637
 2229 0006 9842     		cmp	r0, r3
 602:STM32Cube_FW_N6/Drivers/STM32N6xx_HAL_Driver/Src/stm32n6xx_hal_gpio.c ****   uint32_t position = 0x00u;
 2230              		.loc 1 602 1 view .LVU638
 2231 0008 0E46     		mov	r6, r1
 2232 000a 1546     		mov	r5, r2
 2233              		.loc 1 608 3 view .LVU639
 2234 000c 55D0     		beq	.L197
 2235              		.loc 1 608 3 discriminator 1 view .LVU640
 2236 000e 03F17043 		add	r3, r3, #-268435456
 2237 0012 9842     		cmp	r0, r3
 2238 0014 51D0     		beq	.L197
 2239              		.loc 1 608 3 discriminator 2 view .LVU641
 2240 0016 494B     		ldr	r3, .L207+4
 2241 0018 9842     		cmp	r0, r3
 2242 001a 4ED0     		beq	.L197
 2243              		.loc 1 608 3 discriminator 3 view .LVU642
 2244 001c 03F17043 		add	r3, r3, #-268435456
 2245 0020 9842     		cmp	r0, r3
 2246 0022 4AD0     		beq	.L197
 2247              		.loc 1 608 3 discriminator 4 view .LVU643
 2248 0024 464B     		ldr	r3, .L207+8
 2249 0026 9842     		cmp	r0, r3
 2250 0028 47D0     		beq	.L197
 2251              		.loc 1 608 3 discriminator 5 view .LVU644
 2252 002a 03F17043 		add	r3, r3, #-268435456
 2253 002e 9842     		cmp	r0, r3
 2254 0030 43D0     		beq	.L197
 2255              		.loc 1 608 3 discriminator 6 view .LVU645
 2256 0032 444B     		ldr	r3, .L207+12
 2257 0034 9842     		cmp	r0, r3
 2258 0036 40D0     		beq	.L197
 2259              		.loc 1 608 3 discriminator 7 view .LVU646
 2260 0038 03F17043 		add	r3, r3, #-268435456
 2261 003c 9842     		cmp	r0, r3
 2262 003e 3CD0     		beq	.L197
 2263              		.loc 1 608 3 discriminator 8 view .LVU647
 2264 0040 414B     		ldr	r3, .L207+16
 2265 0042 9842     		cmp	r0, r3
 2266 0044 39D0     		beq	.L197
 2267              		.loc 1 608 3 discriminator 9 view .LVU648
 2268 0046 03F17043 		add	r3, r3, #-268435456
 2269 004a 9842     		cmp	r0, r3
 2270 004c 35D0     		beq	.L197
 2271              		.loc 1 608 3 discriminator 10 view .LVU649
 2272 004e 3F4B     		ldr	r3, .L207+20
 2273 0050 9842     		cmp	r0, r3
 2274 0052 32D0     		beq	.L197
 2275              		.loc 1 608 3 discriminator 11 view .LVU650
ARM GAS  C:\Users\DJESSOU\AppData\Local\Temp\cc6knbkx.s 			page 63


 2276 0054 03F17043 		add	r3, r3, #-268435456
 2277 0058 9842     		cmp	r0, r3
 2278 005a 2ED0     		beq	.L197
 2279              		.loc 1 608 3 discriminator 12 view .LVU651
 2280 005c 3C4B     		ldr	r3, .L207+24
 2281 005e 9842     		cmp	r0, r3
 2282 0060 2BD0     		beq	.L197
 2283              		.loc 1 608 3 discriminator 13 view .LVU652
 2284 0062 03F17043 		add	r3, r3, #-268435456
 2285 0066 9842     		cmp	r0, r3
 2286 0068 27D0     		beq	.L197
 2287              		.loc 1 608 3 discriminator 14 view .LVU653
 2288 006a 3A4B     		ldr	r3, .L207+28
 2289 006c 9842     		cmp	r0, r3
 2290 006e 24D0     		beq	.L197
 2291              		.loc 1 608 3 discriminator 15 view .LVU654
 2292 0070 03F17043 		add	r3, r3, #-268435456
 2293 0074 9842     		cmp	r0, r3
 2294 0076 20D0     		beq	.L197
 2295              		.loc 1 608 3 discriminator 16 view .LVU655
 2296 0078 374B     		ldr	r3, .L207+32
 2297 007a 9842     		cmp	r0, r3
 2298 007c 1DD0     		beq	.L197
 2299              		.loc 1 608 3 discriminator 17 view .LVU656
 2300 007e 03F17043 		add	r3, r3, #-268435456
 2301 0082 9842     		cmp	r0, r3
 2302 0084 19D0     		beq	.L197
 2303              		.loc 1 608 3 discriminator 18 view .LVU657
 2304 0086 354B     		ldr	r3, .L207+36
 2305 0088 9842     		cmp	r0, r3
 2306 008a 16D0     		beq	.L197
 2307              		.loc 1 608 3 discriminator 19 view .LVU658
 2308 008c 03F17043 		add	r3, r3, #-268435456
 2309 0090 9842     		cmp	r0, r3
 2310 0092 12D0     		beq	.L197
 2311              		.loc 1 608 3 discriminator 20 view .LVU659
 2312 0094 324B     		ldr	r3, .L207+40
 2313 0096 9842     		cmp	r0, r3
 2314 0098 0FD0     		beq	.L197
 2315              		.loc 1 608 3 discriminator 21 view .LVU660
 2316 009a 03F17043 		add	r3, r3, #-268435456
 2317 009e 9842     		cmp	r0, r3
 2318 00a0 0BD0     		beq	.L197
 2319              		.loc 1 608 3 discriminator 22 view .LVU661
 2320 00a2 304B     		ldr	r3, .L207+44
 2321 00a4 9842     		cmp	r0, r3
 2322 00a6 08D0     		beq	.L197
 2323              		.loc 1 608 3 discriminator 23 view .LVU662
 2324 00a8 03F17043 		add	r3, r3, #-268435456
 2325 00ac 9842     		cmp	r0, r3
 2326 00ae 04D0     		beq	.L197
 2327              		.loc 1 608 3 discriminator 24 view .LVU663
 2328 00b0 4FF41871 		mov	r1, #608
 2329              	.LVL130:
 2330              		.loc 1 608 3 discriminator 24 view .LVU664
 2331 00b4 2C48     		ldr	r0, .L207+48
 2332              	.LVL131:
ARM GAS  C:\Users\DJESSOU\AppData\Local\Temp\cc6knbkx.s 			page 64


 2333              		.loc 1 608 3 discriminator 24 view .LVU665
 2334 00b6 FFF7FEFF 		bl	assert_failed
 2335              	.LVL132:
 2336              	.L197:
 609:STM32Cube_FW_N6/Drivers/STM32N6xx_HAL_Driver/Src/stm32n6xx_hal_gpio.c ****   assert_param(IS_GPIO_PIN(GPIO_Pin));
 2337              		.loc 1 609 3 is_stmt 1 view .LVU666
 2338 00ba 26B9     		cbnz	r6, .L198
 2339              		.loc 1 609 3 is_stmt 0 discriminator 1 view .LVU667
 2340 00bc 40F26121 		movw	r1, #609
 2341 00c0 2948     		ldr	r0, .L207+48
 2342 00c2 FFF7FEFF 		bl	assert_failed
 2343              	.LVL133:
 2344              	.L198:
 610:STM32Cube_FW_N6/Drivers/STM32N6xx_HAL_Driver/Src/stm32n6xx_hal_gpio.c ****   assert_param(IS_GPIO_DELAY(pDly_Init->Delay));
 2345              		.loc 1 610 3 is_stmt 1 view .LVU668
 2346 00c6 2B68     		ldr	r3, [r5]
 2347 00c8 0D2B     		cmp	r3, #13
 2348 00ca 04D9     		bls	.L199
 2349              		.loc 1 610 3 is_stmt 0 discriminator 1 view .LVU669
 2350 00cc 40F26221 		movw	r1, #610
 2351 00d0 2548     		ldr	r0, .L207+48
 2352 00d2 FFF7FEFF 		bl	assert_failed
 2353              	.LVL134:
 2354              	.L199:
 611:STM32Cube_FW_N6/Drivers/STM32N6xx_HAL_Driver/Src/stm32n6xx_hal_gpio.c ****   assert_param(IS_GPIO_PATH(pDly_Init->Path));
 2355              		.loc 1 611 3 is_stmt 1 view .LVU670
 2356 00d6 6B68     		ldr	r3, [r5, #4]
 2357 00d8 012B     		cmp	r3, #1
 2358 00da 04D9     		bls	.L200
 2359              		.loc 1 611 3 is_stmt 0 discriminator 1 view .LVU671
 2360 00dc 40F26321 		movw	r1, #611
 2361 00e0 2148     		ldr	r0, .L207+48
 2362 00e2 FFF7FEFF 		bl	assert_failed
 2363              	.LVL135:
 2364              	.L200:
 602:STM32Cube_FW_N6/Drivers/STM32N6xx_HAL_Driver/Src/stm32n6xx_hal_gpio.c ****   uint32_t position = 0x00u;
 2365              		.loc 1 602 1 view .LVU672
 2366 00e6 0023     		movs	r3, #0
 612:STM32Cube_FW_N6/Drivers/STM32N6xx_HAL_Driver/Src/stm32n6xx_hal_gpio.c **** 
 613:STM32Cube_FW_N6/Drivers/STM32N6xx_HAL_Driver/Src/stm32n6xx_hal_gpio.c ****   /* Configure the port pins */
 614:STM32Cube_FW_N6/Drivers/STM32N6xx_HAL_Driver/Src/stm32n6xx_hal_gpio.c ****   while ((GPIO_Pin >> position) != 0x00u)
 615:STM32Cube_FW_N6/Drivers/STM32N6xx_HAL_Driver/Src/stm32n6xx_hal_gpio.c ****   {
 616:STM32Cube_FW_N6/Drivers/STM32N6xx_HAL_Driver/Src/stm32n6xx_hal_gpio.c ****     /* Get current io position */
 617:STM32Cube_FW_N6/Drivers/STM32N6xx_HAL_Driver/Src/stm32n6xx_hal_gpio.c ****     iocurrent = (GPIO_Pin) & (1uL << position);
 2367              		.loc 1 617 35 view .LVU673
 2368 00e8 0127     		movs	r7, #1
 618:STM32Cube_FW_N6/Drivers/STM32N6xx_HAL_Driver/Src/stm32n6xx_hal_gpio.c **** 
 619:STM32Cube_FW_N6/Drivers/STM32N6xx_HAL_Driver/Src/stm32n6xx_hal_gpio.c ****     if (iocurrent != 0x00u)
 620:STM32Cube_FW_N6/Drivers/STM32N6xx_HAL_Driver/Src/stm32n6xx_hal_gpio.c ****     {
 621:STM32Cube_FW_N6/Drivers/STM32N6xx_HAL_Driver/Src/stm32n6xx_hal_gpio.c ****       /* Configure the IO Delay path */
 622:STM32Cube_FW_N6/Drivers/STM32N6xx_HAL_Driver/Src/stm32n6xx_hal_gpio.c ****       temp = GPIOx->ADVCFGR[position >> 3u];
 623:STM32Cube_FW_N6/Drivers/STM32N6xx_HAL_Driver/Src/stm32n6xx_hal_gpio.c ****       temp &= ~(GPIO_ADVCFGRL_DLYPATH0 << ((position & 0x07u) * GPIO_ADVCFGRL_1_Pos));
 624:STM32Cube_FW_N6/Drivers/STM32N6xx_HAL_Driver/Src/stm32n6xx_hal_gpio.c ****       temp |= (pDly_Init->Path << ((position & 0x07u) * GPIO_ADVCFGRL_1_Pos));
 625:STM32Cube_FW_N6/Drivers/STM32N6xx_HAL_Driver/Src/stm32n6xx_hal_gpio.c ****       GPIOx->ADVCFGR[position >> 3u] = temp;
 626:STM32Cube_FW_N6/Drivers/STM32N6xx_HAL_Driver/Src/stm32n6xx_hal_gpio.c **** 
 627:STM32Cube_FW_N6/Drivers/STM32N6xx_HAL_Driver/Src/stm32n6xx_hal_gpio.c ****       /* Configure the IO Delay */
 628:STM32Cube_FW_N6/Drivers/STM32N6xx_HAL_Driver/Src/stm32n6xx_hal_gpio.c ****       temp = GPIOx->DELAYR[position >> 3u];
ARM GAS  C:\Users\DJESSOU\AppData\Local\Temp\cc6knbkx.s 			page 65


 629:STM32Cube_FW_N6/Drivers/STM32N6xx_HAL_Driver/Src/stm32n6xx_hal_gpio.c ****       temp &= ~(GPIO_DELAYRL_DLY0_Msk << ((position & 0x07u) * GPIO_ADVCFGRL_1_Pos));
 2369              		.loc 1 629 39 view .LVU674
 2370 00ea 4FF00F0C 		mov	ip, #15
 2371              	.LVL136:
 2372              	.L201:
 614:STM32Cube_FW_N6/Drivers/STM32N6xx_HAL_Driver/Src/stm32n6xx_hal_gpio.c ****   {
 2373              		.loc 1 614 33 is_stmt 1 view .LVU675
 2374 00ee 56FA03F2 		asrs	r2, r6, r3
 2375 00f2 00D1     		bne	.L203
 630:STM32Cube_FW_N6/Drivers/STM32N6xx_HAL_Driver/Src/stm32n6xx_hal_gpio.c ****       temp |= (pDly_Init->Delay << ((position & 0x07u) * GPIO_ADVCFGRL_1_Pos));
 631:STM32Cube_FW_N6/Drivers/STM32N6xx_HAL_Driver/Src/stm32n6xx_hal_gpio.c ****       GPIOx->DELAYR[position >> 3u] = temp;
 632:STM32Cube_FW_N6/Drivers/STM32N6xx_HAL_Driver/Src/stm32n6xx_hal_gpio.c ****     }
 633:STM32Cube_FW_N6/Drivers/STM32N6xx_HAL_Driver/Src/stm32n6xx_hal_gpio.c ****     position++;
 634:STM32Cube_FW_N6/Drivers/STM32N6xx_HAL_Driver/Src/stm32n6xx_hal_gpio.c ****   }
 635:STM32Cube_FW_N6/Drivers/STM32N6xx_HAL_Driver/Src/stm32n6xx_hal_gpio.c **** }
 2376              		.loc 1 635 1 is_stmt 0 view .LVU676
 2377 00f4 F8BD     		pop	{r3, r4, r5, r6, r7, pc}
 2378              	.LVL137:
 2379              	.L203:
 617:STM32Cube_FW_N6/Drivers/STM32N6xx_HAL_Driver/Src/stm32n6xx_hal_gpio.c **** 
 2380              		.loc 1 617 5 is_stmt 1 view .LVU677
 619:STM32Cube_FW_N6/Drivers/STM32N6xx_HAL_Driver/Src/stm32n6xx_hal_gpio.c ****     {
 2381              		.loc 1 619 5 view .LVU678
 617:STM32Cube_FW_N6/Drivers/STM32N6xx_HAL_Driver/Src/stm32n6xx_hal_gpio.c **** 
 2382              		.loc 1 617 35 is_stmt 0 view .LVU679
 2383 00f6 07FA03F2 		lsl	r2, r7, r3
 619:STM32Cube_FW_N6/Drivers/STM32N6xx_HAL_Driver/Src/stm32n6xx_hal_gpio.c ****     {
 2384              		.loc 1 619 8 view .LVU680
 2385 00fa 3242     		tst	r2, r6
 2386 00fc 19D0     		beq	.L202
 622:STM32Cube_FW_N6/Drivers/STM32N6xx_HAL_Driver/Src/stm32n6xx_hal_gpio.c ****       temp &= ~(GPIO_ADVCFGRL_DLYPATH0 << ((position & 0x07u) * GPIO_ADVCFGRL_1_Pos));
 2387              		.loc 1 622 7 is_stmt 1 view .LVU681
 622:STM32Cube_FW_N6/Drivers/STM32N6xx_HAL_Driver/Src/stm32n6xx_hal_gpio.c ****       temp &= ~(GPIO_ADVCFGRL_DLYPATH0 << ((position & 0x07u) * GPIO_ADVCFGRL_1_Pos));
 2388              		.loc 1 622 38 is_stmt 0 view .LVU682
 2389 00fe DA08     		lsrs	r2, r3, #3
 2390 0100 04EB8202 		add	r2, r4, r2, lsl #2
 623:STM32Cube_FW_N6/Drivers/STM32N6xx_HAL_Driver/Src/stm32n6xx_hal_gpio.c ****       temp |= (pDly_Init->Path << ((position & 0x07u) * GPIO_ADVCFGRL_1_Pos));
 2391              		.loc 1 623 54 view .LVU683
 2392 0104 03F00700 		and	r0, r3, #7
 622:STM32Cube_FW_N6/Drivers/STM32N6xx_HAL_Driver/Src/stm32n6xx_hal_gpio.c ****       temp &= ~(GPIO_ADVCFGRL_DLYPATH0 << ((position & 0x07u) * GPIO_ADVCFGRL_1_Pos));
 2393              		.loc 1 622 12 view .LVU684
 2394 0108 916C     		ldr	r1, [r2, #72]
 2395              	.LVL138:
 623:STM32Cube_FW_N6/Drivers/STM32N6xx_HAL_Driver/Src/stm32n6xx_hal_gpio.c ****       temp |= (pDly_Init->Path << ((position & 0x07u) * GPIO_ADVCFGRL_1_Pos));
 2396              		.loc 1 623 7 is_stmt 1 view .LVU685
 623:STM32Cube_FW_N6/Drivers/STM32N6xx_HAL_Driver/Src/stm32n6xx_hal_gpio.c ****       temp |= (pDly_Init->Path << ((position & 0x07u) * GPIO_ADVCFGRL_1_Pos));
 2397              		.loc 1 623 63 is_stmt 0 view .LVU686
 2398 010a 8000     		lsls	r0, r0, #2
 623:STM32Cube_FW_N6/Drivers/STM32N6xx_HAL_Driver/Src/stm32n6xx_hal_gpio.c ****       temp |= (pDly_Init->Path << ((position & 0x07u) * GPIO_ADVCFGRL_1_Pos));
 2399              		.loc 1 623 40 view .LVU687
 2400 010c 07FA00FE 		lsl	lr, r7, r0
 623:STM32Cube_FW_N6/Drivers/STM32N6xx_HAL_Driver/Src/stm32n6xx_hal_gpio.c ****       temp |= (pDly_Init->Path << ((position & 0x07u) * GPIO_ADVCFGRL_1_Pos));
 2401              		.loc 1 623 12 view .LVU688
 2402 0110 21EA0E0E 		bic	lr, r1, lr
 2403              	.LVL139:
 624:STM32Cube_FW_N6/Drivers/STM32N6xx_HAL_Driver/Src/stm32n6xx_hal_gpio.c ****       GPIOx->ADVCFGR[position >> 3u] = temp;
 2404              		.loc 1 624 7 is_stmt 1 view .LVU689
ARM GAS  C:\Users\DJESSOU\AppData\Local\Temp\cc6knbkx.s 			page 66


 624:STM32Cube_FW_N6/Drivers/STM32N6xx_HAL_Driver/Src/stm32n6xx_hal_gpio.c ****       GPIOx->ADVCFGR[position >> 3u] = temp;
 2405              		.loc 1 624 32 is_stmt 0 view .LVU690
 2406 0114 6968     		ldr	r1, [r5, #4]
 2407 0116 8140     		lsls	r1, r1, r0
 624:STM32Cube_FW_N6/Drivers/STM32N6xx_HAL_Driver/Src/stm32n6xx_hal_gpio.c ****       GPIOx->ADVCFGR[position >> 3u] = temp;
 2408              		.loc 1 624 12 view .LVU691
 2409 0118 41EA0E01 		orr	r1, r1, lr
 2410              	.LVL140:
 625:STM32Cube_FW_N6/Drivers/STM32N6xx_HAL_Driver/Src/stm32n6xx_hal_gpio.c **** 
 2411              		.loc 1 625 7 is_stmt 1 view .LVU692
 625:STM32Cube_FW_N6/Drivers/STM32N6xx_HAL_Driver/Src/stm32n6xx_hal_gpio.c **** 
 2412              		.loc 1 625 38 is_stmt 0 view .LVU693
 2413 011c 9164     		str	r1, [r2, #72]
 628:STM32Cube_FW_N6/Drivers/STM32N6xx_HAL_Driver/Src/stm32n6xx_hal_gpio.c ****       temp &= ~(GPIO_DELAYRL_DLY0_Msk << ((position & 0x07u) * GPIO_ADVCFGRL_1_Pos));
 2414              		.loc 1 628 7 is_stmt 1 view .LVU694
 628:STM32Cube_FW_N6/Drivers/STM32N6xx_HAL_Driver/Src/stm32n6xx_hal_gpio.c ****       temp &= ~(GPIO_DELAYRL_DLY0_Msk << ((position & 0x07u) * GPIO_ADVCFGRL_1_Pos));
 2415              		.loc 1 628 12 is_stmt 0 view .LVU695
 2416 011e 116C     		ldr	r1, [r2, #64]
 2417              	.LVL141:
 629:STM32Cube_FW_N6/Drivers/STM32N6xx_HAL_Driver/Src/stm32n6xx_hal_gpio.c ****       temp |= (pDly_Init->Delay << ((position & 0x07u) * GPIO_ADVCFGRL_1_Pos));
 2418              		.loc 1 629 7 is_stmt 1 view .LVU696
