ARM GAS  C:\Users\DJESSOU\AppData\Local\Temp\ccOpSjVg.s 			page 1


   1              		.arch armv8.1-m.main
   2              		.fpu fpv5-d16
   3              		.arch_extension dsp
   4              		.arch_extension fp
   5              		.arch_extension fp.dp
   6              		.arch_extension mve
   7              		.arch_extension mve.fp
   8              		.eabi_attribute 5, "cortex-m55"
   9              		.eabi_attribute 28, 1
  10              		.eabi_attribute 20, 1
  11              		.eabi_attribute 21, 1
  12              		.eabi_attribute 23, 3
  13              		.eabi_attribute 24, 1
  14              		.eabi_attribute 25, 1
  15              		.eabi_attribute 26, 1
  16              		.eabi_attribute 30, 4
  17              		.eabi_attribute 34, 1
  18              		.eabi_attribute 38, 1
  19              		.eabi_attribute 18, 4
  20              		.file	"stm32n6xx_ll_usb.c"
  21              		.text
  22              	.Ltext0:
  23              		.cfi_sections	.debug_frame
  24              		.file 1 "STM32Cube_FW_N6/Drivers/STM32N6xx_HAL_Driver/Src/stm32n6xx_ll_usb.c"
  25              		.section	.text.USB_CoreInit,"ax",%progbits
  26              		.align	1
  27              		.global	USB_CoreInit
  28              		.syntax unified
  29              		.thumb
  30              		.thumb_func
  32              	USB_CoreInit:
  33              	.LVL0:
  34              	.LFB862:
   1:STM32Cube_FW_N6/Drivers/STM32N6xx_HAL_Driver/Src/stm32n6xx_ll_usb.c **** /**
   2:STM32Cube_FW_N6/Drivers/STM32N6xx_HAL_Driver/Src/stm32n6xx_ll_usb.c ****   ******************************************************************************
   3:STM32Cube_FW_N6/Drivers/STM32N6xx_HAL_Driver/Src/stm32n6xx_ll_usb.c ****   * @file    stm32n6xx_ll_usb.c
   4:STM32Cube_FW_N6/Drivers/STM32N6xx_HAL_Driver/Src/stm32n6xx_ll_usb.c ****   * @author  MCD Application Team
   5:STM32Cube_FW_N6/Drivers/STM32N6xx_HAL_Driver/Src/stm32n6xx_ll_usb.c ****   * @brief   USB Low Layer HAL module driver.
   6:STM32Cube_FW_N6/Drivers/STM32N6xx_HAL_Driver/Src/stm32n6xx_ll_usb.c ****   *
   7:STM32Cube_FW_N6/Drivers/STM32N6xx_HAL_Driver/Src/stm32n6xx_ll_usb.c ****   *          This file provides firmware functions to manage the following
   8:STM32Cube_FW_N6/Drivers/STM32N6xx_HAL_Driver/Src/stm32n6xx_ll_usb.c ****   *          functionalities of the USB Peripheral Controller:
   9:STM32Cube_FW_N6/Drivers/STM32N6xx_HAL_Driver/Src/stm32n6xx_ll_usb.c ****   *           + Initialization/de-initialization functions
  10:STM32Cube_FW_N6/Drivers/STM32N6xx_HAL_Driver/Src/stm32n6xx_ll_usb.c ****   *           + I/O operation functions
  11:STM32Cube_FW_N6/Drivers/STM32N6xx_HAL_Driver/Src/stm32n6xx_ll_usb.c ****   *           + Peripheral Control functions
  12:STM32Cube_FW_N6/Drivers/STM32N6xx_HAL_Driver/Src/stm32n6xx_ll_usb.c ****   *           + Peripheral State functions
  13:STM32Cube_FW_N6/Drivers/STM32N6xx_HAL_Driver/Src/stm32n6xx_ll_usb.c ****   *
  14:STM32Cube_FW_N6/Drivers/STM32N6xx_HAL_Driver/Src/stm32n6xx_ll_usb.c ****   ******************************************************************************
  15:STM32Cube_FW_N6/Drivers/STM32N6xx_HAL_Driver/Src/stm32n6xx_ll_usb.c ****   * @attention
  16:STM32Cube_FW_N6/Drivers/STM32N6xx_HAL_Driver/Src/stm32n6xx_ll_usb.c ****   *
  17:STM32Cube_FW_N6/Drivers/STM32N6xx_HAL_Driver/Src/stm32n6xx_ll_usb.c ****   * Copyright (c) 2023 STMicroelectronics.
  18:STM32Cube_FW_N6/Drivers/STM32N6xx_HAL_Driver/Src/stm32n6xx_ll_usb.c ****   * All rights reserved.
  19:STM32Cube_FW_N6/Drivers/STM32N6xx_HAL_Driver/Src/stm32n6xx_ll_usb.c ****   *
  20:STM32Cube_FW_N6/Drivers/STM32N6xx_HAL_Driver/Src/stm32n6xx_ll_usb.c ****   * This software is licensed under terms that can be found in the LICENSE file
  21:STM32Cube_FW_N6/Drivers/STM32N6xx_HAL_Driver/Src/stm32n6xx_ll_usb.c ****   * in the root directory of this software component.
  22:STM32Cube_FW_N6/Drivers/STM32N6xx_HAL_Driver/Src/stm32n6xx_ll_usb.c ****   * If no LICENSE file comes with this software, it is provided AS-IS.
  23:STM32Cube_FW_N6/Drivers/STM32N6xx_HAL_Driver/Src/stm32n6xx_ll_usb.c ****   *
  24:STM32Cube_FW_N6/Drivers/STM32N6xx_HAL_Driver/Src/stm32n6xx_ll_usb.c ****   ******************************************************************************
ARM GAS  C:\Users\DJESSOU\AppData\Local\Temp\ccOpSjVg.s 			page 2


  25:STM32Cube_FW_N6/Drivers/STM32N6xx_HAL_Driver/Src/stm32n6xx_ll_usb.c ****   @verbatim
  26:STM32Cube_FW_N6/Drivers/STM32N6xx_HAL_Driver/Src/stm32n6xx_ll_usb.c ****   ==============================================================================
  27:STM32Cube_FW_N6/Drivers/STM32N6xx_HAL_Driver/Src/stm32n6xx_ll_usb.c ****                     ##### How to use this driver #####
  28:STM32Cube_FW_N6/Drivers/STM32N6xx_HAL_Driver/Src/stm32n6xx_ll_usb.c ****   ==============================================================================
  29:STM32Cube_FW_N6/Drivers/STM32N6xx_HAL_Driver/Src/stm32n6xx_ll_usb.c ****     [..]
  30:STM32Cube_FW_N6/Drivers/STM32N6xx_HAL_Driver/Src/stm32n6xx_ll_usb.c ****       (#) Fill parameters of Init structure in USB_CfgTypeDef structure.
  31:STM32Cube_FW_N6/Drivers/STM32N6xx_HAL_Driver/Src/stm32n6xx_ll_usb.c **** 
  32:STM32Cube_FW_N6/Drivers/STM32N6xx_HAL_Driver/Src/stm32n6xx_ll_usb.c ****       (#) Call USB_CoreInit() API to initialize the USB Core peripheral.
  33:STM32Cube_FW_N6/Drivers/STM32N6xx_HAL_Driver/Src/stm32n6xx_ll_usb.c **** 
  34:STM32Cube_FW_N6/Drivers/STM32N6xx_HAL_Driver/Src/stm32n6xx_ll_usb.c ****       (#) The upper HAL HCD/PCD driver will call the right routines for its internal processes.
  35:STM32Cube_FW_N6/Drivers/STM32N6xx_HAL_Driver/Src/stm32n6xx_ll_usb.c **** 
  36:STM32Cube_FW_N6/Drivers/STM32N6xx_HAL_Driver/Src/stm32n6xx_ll_usb.c ****   @endverbatim
  37:STM32Cube_FW_N6/Drivers/STM32N6xx_HAL_Driver/Src/stm32n6xx_ll_usb.c **** 
  38:STM32Cube_FW_N6/Drivers/STM32N6xx_HAL_Driver/Src/stm32n6xx_ll_usb.c ****   ******************************************************************************
  39:STM32Cube_FW_N6/Drivers/STM32N6xx_HAL_Driver/Src/stm32n6xx_ll_usb.c ****   */
  40:STM32Cube_FW_N6/Drivers/STM32N6xx_HAL_Driver/Src/stm32n6xx_ll_usb.c **** 
  41:STM32Cube_FW_N6/Drivers/STM32N6xx_HAL_Driver/Src/stm32n6xx_ll_usb.c **** /* Includes ------------------------------------------------------------------*/
  42:STM32Cube_FW_N6/Drivers/STM32N6xx_HAL_Driver/Src/stm32n6xx_ll_usb.c **** #include "stm32n6xx_hal.h"
  43:STM32Cube_FW_N6/Drivers/STM32N6xx_HAL_Driver/Src/stm32n6xx_ll_usb.c **** 
  44:STM32Cube_FW_N6/Drivers/STM32N6xx_HAL_Driver/Src/stm32n6xx_ll_usb.c **** /** @addtogroup STM32N6xx_LL_USB_DRIVER
  45:STM32Cube_FW_N6/Drivers/STM32N6xx_HAL_Driver/Src/stm32n6xx_ll_usb.c ****   * @{
  46:STM32Cube_FW_N6/Drivers/STM32N6xx_HAL_Driver/Src/stm32n6xx_ll_usb.c ****   */
  47:STM32Cube_FW_N6/Drivers/STM32N6xx_HAL_Driver/Src/stm32n6xx_ll_usb.c **** 
  48:STM32Cube_FW_N6/Drivers/STM32N6xx_HAL_Driver/Src/stm32n6xx_ll_usb.c **** #if defined (HAL_PCD_MODULE_ENABLED) || defined (HAL_HCD_MODULE_ENABLED)
  49:STM32Cube_FW_N6/Drivers/STM32N6xx_HAL_Driver/Src/stm32n6xx_ll_usb.c **** #if defined (USB1_OTG_HS) || defined (USB2_OTG_HS)
  50:STM32Cube_FW_N6/Drivers/STM32N6xx_HAL_Driver/Src/stm32n6xx_ll_usb.c **** /* Private typedef -----------------------------------------------------------*/
  51:STM32Cube_FW_N6/Drivers/STM32N6xx_HAL_Driver/Src/stm32n6xx_ll_usb.c **** /* Private define ------------------------------------------------------------*/
  52:STM32Cube_FW_N6/Drivers/STM32N6xx_HAL_Driver/Src/stm32n6xx_ll_usb.c **** /* Private macro -------------------------------------------------------------*/
  53:STM32Cube_FW_N6/Drivers/STM32N6xx_HAL_Driver/Src/stm32n6xx_ll_usb.c **** /* Private variables ---------------------------------------------------------*/
  54:STM32Cube_FW_N6/Drivers/STM32N6xx_HAL_Driver/Src/stm32n6xx_ll_usb.c **** /* Private function prototypes -----------------------------------------------*/
  55:STM32Cube_FW_N6/Drivers/STM32N6xx_HAL_Driver/Src/stm32n6xx_ll_usb.c **** /* Private functions ---------------------------------------------------------*/
  56:STM32Cube_FW_N6/Drivers/STM32N6xx_HAL_Driver/Src/stm32n6xx_ll_usb.c **** #if defined (USB1_OTG_HS) || defined (USB2_OTG_HS)
  57:STM32Cube_FW_N6/Drivers/STM32N6xx_HAL_Driver/Src/stm32n6xx_ll_usb.c **** static HAL_StatusTypeDef USB_CoreReset(USB_OTG_GlobalTypeDef *USBx);
  58:STM32Cube_FW_N6/Drivers/STM32N6xx_HAL_Driver/Src/stm32n6xx_ll_usb.c **** 
  59:STM32Cube_FW_N6/Drivers/STM32N6xx_HAL_Driver/Src/stm32n6xx_ll_usb.c **** /* Exported functions --------------------------------------------------------*/
  60:STM32Cube_FW_N6/Drivers/STM32N6xx_HAL_Driver/Src/stm32n6xx_ll_usb.c **** /** @defgroup USB_LL_Exported_Functions USB Low Layer Exported Functions
  61:STM32Cube_FW_N6/Drivers/STM32N6xx_HAL_Driver/Src/stm32n6xx_ll_usb.c ****   * @{
  62:STM32Cube_FW_N6/Drivers/STM32N6xx_HAL_Driver/Src/stm32n6xx_ll_usb.c ****   */
  63:STM32Cube_FW_N6/Drivers/STM32N6xx_HAL_Driver/Src/stm32n6xx_ll_usb.c **** 
  64:STM32Cube_FW_N6/Drivers/STM32N6xx_HAL_Driver/Src/stm32n6xx_ll_usb.c **** /** @defgroup USB_LL_Exported_Functions_Group1 Initialization/de-initialization functions
  65:STM32Cube_FW_N6/Drivers/STM32N6xx_HAL_Driver/Src/stm32n6xx_ll_usb.c ****   *  @brief    Initialization and Configuration functions
  66:STM32Cube_FW_N6/Drivers/STM32N6xx_HAL_Driver/Src/stm32n6xx_ll_usb.c ****   *
  67:STM32Cube_FW_N6/Drivers/STM32N6xx_HAL_Driver/Src/stm32n6xx_ll_usb.c **** @verbatim
  68:STM32Cube_FW_N6/Drivers/STM32N6xx_HAL_Driver/Src/stm32n6xx_ll_usb.c ****  ===============================================================================
  69:STM32Cube_FW_N6/Drivers/STM32N6xx_HAL_Driver/Src/stm32n6xx_ll_usb.c ****                       ##### Initialization/de-initialization functions #####
  70:STM32Cube_FW_N6/Drivers/STM32N6xx_HAL_Driver/Src/stm32n6xx_ll_usb.c ****  ===============================================================================
  71:STM32Cube_FW_N6/Drivers/STM32N6xx_HAL_Driver/Src/stm32n6xx_ll_usb.c **** 
  72:STM32Cube_FW_N6/Drivers/STM32N6xx_HAL_Driver/Src/stm32n6xx_ll_usb.c **** @endverbatim
  73:STM32Cube_FW_N6/Drivers/STM32N6xx_HAL_Driver/Src/stm32n6xx_ll_usb.c ****   * @{
  74:STM32Cube_FW_N6/Drivers/STM32N6xx_HAL_Driver/Src/stm32n6xx_ll_usb.c ****   */
  75:STM32Cube_FW_N6/Drivers/STM32N6xx_HAL_Driver/Src/stm32n6xx_ll_usb.c **** 
  76:STM32Cube_FW_N6/Drivers/STM32N6xx_HAL_Driver/Src/stm32n6xx_ll_usb.c **** /**
  77:STM32Cube_FW_N6/Drivers/STM32N6xx_HAL_Driver/Src/stm32n6xx_ll_usb.c ****   * @brief  Initializes the USB Core
  78:STM32Cube_FW_N6/Drivers/STM32N6xx_HAL_Driver/Src/stm32n6xx_ll_usb.c ****   * @param  USBx USB Instance
  79:STM32Cube_FW_N6/Drivers/STM32N6xx_HAL_Driver/Src/stm32n6xx_ll_usb.c ****   * @param  cfg pointer to a USB_OTG_CfgTypeDef structure that contains
  80:STM32Cube_FW_N6/Drivers/STM32N6xx_HAL_Driver/Src/stm32n6xx_ll_usb.c ****   *         the configuration information for the specified USBx peripheral.
  81:STM32Cube_FW_N6/Drivers/STM32N6xx_HAL_Driver/Src/stm32n6xx_ll_usb.c ****   * @retval HAL status
ARM GAS  C:\Users\DJESSOU\AppData\Local\Temp\ccOpSjVg.s 			page 3


  82:STM32Cube_FW_N6/Drivers/STM32N6xx_HAL_Driver/Src/stm32n6xx_ll_usb.c ****   */
  83:STM32Cube_FW_N6/Drivers/STM32N6xx_HAL_Driver/Src/stm32n6xx_ll_usb.c **** HAL_StatusTypeDef USB_CoreInit(USB_OTG_GlobalTypeDef *USBx, USB_OTG_CfgTypeDef cfg)
  84:STM32Cube_FW_N6/Drivers/STM32N6xx_HAL_Driver/Src/stm32n6xx_ll_usb.c **** {
  35              		.loc 1 84 1 view -0
  36              		.cfi_startproc
  37              		@ args = 20, pretend = 16, frame = 8
  38              		@ frame_needed = 0, uses_anonymous_args = 0
  85:STM32Cube_FW_N6/Drivers/STM32N6xx_HAL_Driver/Src/stm32n6xx_ll_usb.c ****   HAL_StatusTypeDef ret;
  39              		.loc 1 85 3 view .LVU1
  86:STM32Cube_FW_N6/Drivers/STM32N6xx_HAL_Driver/Src/stm32n6xx_ll_usb.c **** 
  87:STM32Cube_FW_N6/Drivers/STM32N6xx_HAL_Driver/Src/stm32n6xx_ll_usb.c ****   if (cfg.phy_itface == USB_OTG_HS_EMBEDDED_PHY)
  40              		.loc 1 87 3 view .LVU2
  84:STM32Cube_FW_N6/Drivers/STM32N6xx_HAL_Driver/Src/stm32n6xx_ll_usb.c ****   HAL_StatusTypeDef ret;
  41              		.loc 1 84 1 is_stmt 0 view .LVU3
  42 0000 84B0     		sub	sp, sp, #16
  43              		.cfi_def_cfa_offset 16
  44 0002 13B5     		push	{r0, r1, r4, lr}
  45              		.cfi_def_cfa_offset 32
  46              		.cfi_offset 4, -24
  47              		.cfi_offset 14, -20
  84:STM32Cube_FW_N6/Drivers/STM32N6xx_HAL_Driver/Src/stm32n6xx_ll_usb.c ****   HAL_StatusTypeDef ret;
  48              		.loc 1 84 1 view .LVU4
  49 0004 0446     		mov	r4, r0
  50 0006 05A8     		add	r0, sp, #20
  51              	.LVL1:
  84:STM32Cube_FW_N6/Drivers/STM32N6xx_HAL_Driver/Src/stm32n6xx_ll_usb.c ****   HAL_StatusTypeDef ret;
  52              		.loc 1 84 1 view .LVU5
  53 0008 80E80E00 		stm	r0, {r1, r2, r3}
  54              		.loc 1 87 10 view .LVU6
  55 000c 9DF81900 		ldrb	r0, [sp, #25]	@ zero_extendqisi2
  56              		.loc 1 87 6 view .LVU7
  57 0010 0328     		cmp	r0, #3
  58 0012 45D1     		bne	.L11
  88:STM32Cube_FW_N6/Drivers/STM32N6xx_HAL_Driver/Src/stm32n6xx_ll_usb.c ****   {
  89:STM32Cube_FW_N6/Drivers/STM32N6xx_HAL_Driver/Src/stm32n6xx_ll_usb.c ****     /* Select Data line pulsing using utmi_txvalid */
  90:STM32Cube_FW_N6/Drivers/STM32N6xx_HAL_Driver/Src/stm32n6xx_ll_usb.c ****     USBx->GUSBCFG &= ~(USB_OTG_GUSBCFG_TSDPS);
  59              		.loc 1 90 5 is_stmt 1 view .LVU8
  60              		.loc 1 90 9 is_stmt 0 view .LVU9
  61 0014 E368     		ldr	r3, [r4, #12]
  62              		.loc 1 90 19 view .LVU10
  63 0016 23F48003 		bic	r3, r3, #4194304
  64 001a E360     		str	r3, [r4, #12]
  91:STM32Cube_FW_N6/Drivers/STM32N6xx_HAL_Driver/Src/stm32n6xx_ll_usb.c **** 
  92:STM32Cube_FW_N6/Drivers/STM32N6xx_HAL_Driver/Src/stm32n6xx_ll_usb.c **** 
  93:STM32Cube_FW_N6/Drivers/STM32N6xx_HAL_Driver/Src/stm32n6xx_ll_usb.c ****     /* Reset after a PHY select */
  94:STM32Cube_FW_N6/Drivers/STM32N6xx_HAL_Driver/Src/stm32n6xx_ll_usb.c ****     ret = USB_CoreReset(USBx);
  65              		.loc 1 94 5 is_stmt 1 view .LVU11
  66              	.LVL2:
  67              	.LBB12:
  68              	.LBI12:
  95:STM32Cube_FW_N6/Drivers/STM32N6xx_HAL_Driver/Src/stm32n6xx_ll_usb.c ****   }
  96:STM32Cube_FW_N6/Drivers/STM32N6xx_HAL_Driver/Src/stm32n6xx_ll_usb.c ****   else
  97:STM32Cube_FW_N6/Drivers/STM32N6xx_HAL_Driver/Src/stm32n6xx_ll_usb.c ****   {
  98:STM32Cube_FW_N6/Drivers/STM32N6xx_HAL_Driver/Src/stm32n6xx_ll_usb.c ****     return HAL_ERROR;
  99:STM32Cube_FW_N6/Drivers/STM32N6xx_HAL_Driver/Src/stm32n6xx_ll_usb.c ****   }
 100:STM32Cube_FW_N6/Drivers/STM32N6xx_HAL_Driver/Src/stm32n6xx_ll_usb.c **** 
 101:STM32Cube_FW_N6/Drivers/STM32N6xx_HAL_Driver/Src/stm32n6xx_ll_usb.c ****   if (cfg.dma_enable == 1U)
ARM GAS  C:\Users\DJESSOU\AppData\Local\Temp\ccOpSjVg.s 			page 4


 102:STM32Cube_FW_N6/Drivers/STM32N6xx_HAL_Driver/Src/stm32n6xx_ll_usb.c ****   {
 103:STM32Cube_FW_N6/Drivers/STM32N6xx_HAL_Driver/Src/stm32n6xx_ll_usb.c ****     /* make sure to reserve 18 fifo Locations for DMA buffers */
 104:STM32Cube_FW_N6/Drivers/STM32N6xx_HAL_Driver/Src/stm32n6xx_ll_usb.c ****     USBx->GDFIFOCFG &= ~(0xFFFFUL << 16);
 105:STM32Cube_FW_N6/Drivers/STM32N6xx_HAL_Driver/Src/stm32n6xx_ll_usb.c ****     USBx->GDFIFOCFG |= 0x3EEUL << 16;
 106:STM32Cube_FW_N6/Drivers/STM32N6xx_HAL_Driver/Src/stm32n6xx_ll_usb.c **** 
 107:STM32Cube_FW_N6/Drivers/STM32N6xx_HAL_Driver/Src/stm32n6xx_ll_usb.c ****     USBx->GAHBCFG &= ~(USB_OTG_GAHBCFG_HBSTLEN);
 108:STM32Cube_FW_N6/Drivers/STM32N6xx_HAL_Driver/Src/stm32n6xx_ll_usb.c ****     USBx->GAHBCFG |= USB_OTG_GAHBCFG_HBSTLEN_INCR4;
 109:STM32Cube_FW_N6/Drivers/STM32N6xx_HAL_Driver/Src/stm32n6xx_ll_usb.c ****     USBx->GAHBCFG |= USB_OTG_GAHBCFG_DMAEN;
 110:STM32Cube_FW_N6/Drivers/STM32N6xx_HAL_Driver/Src/stm32n6xx_ll_usb.c ****   }
 111:STM32Cube_FW_N6/Drivers/STM32N6xx_HAL_Driver/Src/stm32n6xx_ll_usb.c **** 
 112:STM32Cube_FW_N6/Drivers/STM32N6xx_HAL_Driver/Src/stm32n6xx_ll_usb.c ****   return ret;
 113:STM32Cube_FW_N6/Drivers/STM32N6xx_HAL_Driver/Src/stm32n6xx_ll_usb.c **** }
 114:STM32Cube_FW_N6/Drivers/STM32N6xx_HAL_Driver/Src/stm32n6xx_ll_usb.c **** 
 115:STM32Cube_FW_N6/Drivers/STM32N6xx_HAL_Driver/Src/stm32n6xx_ll_usb.c **** 
 116:STM32Cube_FW_N6/Drivers/STM32N6xx_HAL_Driver/Src/stm32n6xx_ll_usb.c **** /**
 117:STM32Cube_FW_N6/Drivers/STM32N6xx_HAL_Driver/Src/stm32n6xx_ll_usb.c ****   * @brief  Set the USB turnaround time
 118:STM32Cube_FW_N6/Drivers/STM32N6xx_HAL_Driver/Src/stm32n6xx_ll_usb.c ****   * @param  USBx USB Instance
 119:STM32Cube_FW_N6/Drivers/STM32N6xx_HAL_Driver/Src/stm32n6xx_ll_usb.c ****   * @param  hclk: AHB clock frequency
 120:STM32Cube_FW_N6/Drivers/STM32N6xx_HAL_Driver/Src/stm32n6xx_ll_usb.c ****   * @retval USB turnaround time In PHY Clocks number
 121:STM32Cube_FW_N6/Drivers/STM32N6xx_HAL_Driver/Src/stm32n6xx_ll_usb.c ****   */
 122:STM32Cube_FW_N6/Drivers/STM32N6xx_HAL_Driver/Src/stm32n6xx_ll_usb.c **** HAL_StatusTypeDef USB_SetTurnaroundTime(USB_OTG_GlobalTypeDef *USBx,
 123:STM32Cube_FW_N6/Drivers/STM32N6xx_HAL_Driver/Src/stm32n6xx_ll_usb.c ****                                         uint32_t hclk, uint8_t speed)
 124:STM32Cube_FW_N6/Drivers/STM32N6xx_HAL_Driver/Src/stm32n6xx_ll_usb.c **** {
 125:STM32Cube_FW_N6/Drivers/STM32N6xx_HAL_Driver/Src/stm32n6xx_ll_usb.c ****   uint32_t UsbTrd;
 126:STM32Cube_FW_N6/Drivers/STM32N6xx_HAL_Driver/Src/stm32n6xx_ll_usb.c **** 
 127:STM32Cube_FW_N6/Drivers/STM32N6xx_HAL_Driver/Src/stm32n6xx_ll_usb.c ****   /* The USBTRD is configured according to the tables below, depending on AHB frequency
 128:STM32Cube_FW_N6/Drivers/STM32N6xx_HAL_Driver/Src/stm32n6xx_ll_usb.c ****   used by application. In the low AHB frequency range it is used to stretch enough the USB response
 129:STM32Cube_FW_N6/Drivers/STM32N6xx_HAL_Driver/Src/stm32n6xx_ll_usb.c ****   time to IN tokens, the USB turnaround time, so to compensate for the longer AHB read access
 130:STM32Cube_FW_N6/Drivers/STM32N6xx_HAL_Driver/Src/stm32n6xx_ll_usb.c ****   latency to the Data FIFO */
 131:STM32Cube_FW_N6/Drivers/STM32N6xx_HAL_Driver/Src/stm32n6xx_ll_usb.c ****   if (speed == USBD_FS_SPEED)
 132:STM32Cube_FW_N6/Drivers/STM32N6xx_HAL_Driver/Src/stm32n6xx_ll_usb.c ****   {
 133:STM32Cube_FW_N6/Drivers/STM32N6xx_HAL_Driver/Src/stm32n6xx_ll_usb.c ****     if ((hclk >= 14200000U) && (hclk < 15000000U))
 134:STM32Cube_FW_N6/Drivers/STM32N6xx_HAL_Driver/Src/stm32n6xx_ll_usb.c ****     {
 135:STM32Cube_FW_N6/Drivers/STM32N6xx_HAL_Driver/Src/stm32n6xx_ll_usb.c ****       /* hclk Clock Range between 14.2-15 MHz */
 136:STM32Cube_FW_N6/Drivers/STM32N6xx_HAL_Driver/Src/stm32n6xx_ll_usb.c ****       UsbTrd = 0xFU;
 137:STM32Cube_FW_N6/Drivers/STM32N6xx_HAL_Driver/Src/stm32n6xx_ll_usb.c ****     }
 138:STM32Cube_FW_N6/Drivers/STM32N6xx_HAL_Driver/Src/stm32n6xx_ll_usb.c ****     else if ((hclk >= 15000000U) && (hclk < 16000000U))
 139:STM32Cube_FW_N6/Drivers/STM32N6xx_HAL_Driver/Src/stm32n6xx_ll_usb.c ****     {
 140:STM32Cube_FW_N6/Drivers/STM32N6xx_HAL_Driver/Src/stm32n6xx_ll_usb.c ****       /* hclk Clock Range between 15-16 MHz */
 141:STM32Cube_FW_N6/Drivers/STM32N6xx_HAL_Driver/Src/stm32n6xx_ll_usb.c ****       UsbTrd = 0xEU;
 142:STM32Cube_FW_N6/Drivers/STM32N6xx_HAL_Driver/Src/stm32n6xx_ll_usb.c ****     }
 143:STM32Cube_FW_N6/Drivers/STM32N6xx_HAL_Driver/Src/stm32n6xx_ll_usb.c ****     else if ((hclk >= 16000000U) && (hclk < 17200000U))
 144:STM32Cube_FW_N6/Drivers/STM32N6xx_HAL_Driver/Src/stm32n6xx_ll_usb.c ****     {
 145:STM32Cube_FW_N6/Drivers/STM32N6xx_HAL_Driver/Src/stm32n6xx_ll_usb.c ****       /* hclk Clock Range between 16-17.2 MHz */
 146:STM32Cube_FW_N6/Drivers/STM32N6xx_HAL_Driver/Src/stm32n6xx_ll_usb.c ****       UsbTrd = 0xDU;
 147:STM32Cube_FW_N6/Drivers/STM32N6xx_HAL_Driver/Src/stm32n6xx_ll_usb.c ****     }
 148:STM32Cube_FW_N6/Drivers/STM32N6xx_HAL_Driver/Src/stm32n6xx_ll_usb.c ****     else if ((hclk >= 17200000U) && (hclk < 18500000U))
 149:STM32Cube_FW_N6/Drivers/STM32N6xx_HAL_Driver/Src/stm32n6xx_ll_usb.c ****     {
 150:STM32Cube_FW_N6/Drivers/STM32N6xx_HAL_Driver/Src/stm32n6xx_ll_usb.c ****       /* hclk Clock Range between 17.2-18.5 MHz */
 151:STM32Cube_FW_N6/Drivers/STM32N6xx_HAL_Driver/Src/stm32n6xx_ll_usb.c ****       UsbTrd = 0xCU;
 152:STM32Cube_FW_N6/Drivers/STM32N6xx_HAL_Driver/Src/stm32n6xx_ll_usb.c ****     }
 153:STM32Cube_FW_N6/Drivers/STM32N6xx_HAL_Driver/Src/stm32n6xx_ll_usb.c ****     else if ((hclk >= 18500000U) && (hclk < 20000000U))
 154:STM32Cube_FW_N6/Drivers/STM32N6xx_HAL_Driver/Src/stm32n6xx_ll_usb.c ****     {
 155:STM32Cube_FW_N6/Drivers/STM32N6xx_HAL_Driver/Src/stm32n6xx_ll_usb.c ****       /* hclk Clock Range between 18.5-20 MHz */
 156:STM32Cube_FW_N6/Drivers/STM32N6xx_HAL_Driver/Src/stm32n6xx_ll_usb.c ****       UsbTrd = 0xBU;
 157:STM32Cube_FW_N6/Drivers/STM32N6xx_HAL_Driver/Src/stm32n6xx_ll_usb.c ****     }
 158:STM32Cube_FW_N6/Drivers/STM32N6xx_HAL_Driver/Src/stm32n6xx_ll_usb.c ****     else if ((hclk >= 20000000U) && (hclk < 21800000U))
ARM GAS  C:\Users\DJESSOU\AppData\Local\Temp\ccOpSjVg.s 			page 5


 159:STM32Cube_FW_N6/Drivers/STM32N6xx_HAL_Driver/Src/stm32n6xx_ll_usb.c ****     {
 160:STM32Cube_FW_N6/Drivers/STM32N6xx_HAL_Driver/Src/stm32n6xx_ll_usb.c ****       /* hclk Clock Range between 20-21.8 MHz */
 161:STM32Cube_FW_N6/Drivers/STM32N6xx_HAL_Driver/Src/stm32n6xx_ll_usb.c ****       UsbTrd = 0xAU;
 162:STM32Cube_FW_N6/Drivers/STM32N6xx_HAL_Driver/Src/stm32n6xx_ll_usb.c ****     }
 163:STM32Cube_FW_N6/Drivers/STM32N6xx_HAL_Driver/Src/stm32n6xx_ll_usb.c ****     else if ((hclk >= 21800000U) && (hclk < 24000000U))
 164:STM32Cube_FW_N6/Drivers/STM32N6xx_HAL_Driver/Src/stm32n6xx_ll_usb.c ****     {
 165:STM32Cube_FW_N6/Drivers/STM32N6xx_HAL_Driver/Src/stm32n6xx_ll_usb.c ****       /* hclk Clock Range between 21.8-24 MHz */
 166:STM32Cube_FW_N6/Drivers/STM32N6xx_HAL_Driver/Src/stm32n6xx_ll_usb.c ****       UsbTrd = 0x9U;
 167:STM32Cube_FW_N6/Drivers/STM32N6xx_HAL_Driver/Src/stm32n6xx_ll_usb.c ****     }
 168:STM32Cube_FW_N6/Drivers/STM32N6xx_HAL_Driver/Src/stm32n6xx_ll_usb.c ****     else if ((hclk >= 24000000U) && (hclk < 27700000U))
 169:STM32Cube_FW_N6/Drivers/STM32N6xx_HAL_Driver/Src/stm32n6xx_ll_usb.c ****     {
 170:STM32Cube_FW_N6/Drivers/STM32N6xx_HAL_Driver/Src/stm32n6xx_ll_usb.c ****       /* hclk Clock Range between 24-27.7 MHz */
 171:STM32Cube_FW_N6/Drivers/STM32N6xx_HAL_Driver/Src/stm32n6xx_ll_usb.c ****       UsbTrd = 0x8U;
 172:STM32Cube_FW_N6/Drivers/STM32N6xx_HAL_Driver/Src/stm32n6xx_ll_usb.c ****     }
 173:STM32Cube_FW_N6/Drivers/STM32N6xx_HAL_Driver/Src/stm32n6xx_ll_usb.c ****     else if ((hclk >= 27700000U) && (hclk < 32000000U))
 174:STM32Cube_FW_N6/Drivers/STM32N6xx_HAL_Driver/Src/stm32n6xx_ll_usb.c ****     {
 175:STM32Cube_FW_N6/Drivers/STM32N6xx_HAL_Driver/Src/stm32n6xx_ll_usb.c ****       /* hclk Clock Range between 27.7-32 MHz */
 176:STM32Cube_FW_N6/Drivers/STM32N6xx_HAL_Driver/Src/stm32n6xx_ll_usb.c ****       UsbTrd = 0x7U;
 177:STM32Cube_FW_N6/Drivers/STM32N6xx_HAL_Driver/Src/stm32n6xx_ll_usb.c ****     }
 178:STM32Cube_FW_N6/Drivers/STM32N6xx_HAL_Driver/Src/stm32n6xx_ll_usb.c ****     else /* if(hclk >= 32000000) */
 179:STM32Cube_FW_N6/Drivers/STM32N6xx_HAL_Driver/Src/stm32n6xx_ll_usb.c ****     {
 180:STM32Cube_FW_N6/Drivers/STM32N6xx_HAL_Driver/Src/stm32n6xx_ll_usb.c ****       /* hclk Clock Range between 32-200 MHz */
 181:STM32Cube_FW_N6/Drivers/STM32N6xx_HAL_Driver/Src/stm32n6xx_ll_usb.c ****       UsbTrd = 0x6U;
 182:STM32Cube_FW_N6/Drivers/STM32N6xx_HAL_Driver/Src/stm32n6xx_ll_usb.c ****     }
 183:STM32Cube_FW_N6/Drivers/STM32N6xx_HAL_Driver/Src/stm32n6xx_ll_usb.c ****   }
 184:STM32Cube_FW_N6/Drivers/STM32N6xx_HAL_Driver/Src/stm32n6xx_ll_usb.c ****   else if (speed == USBD_HS_SPEED)
 185:STM32Cube_FW_N6/Drivers/STM32N6xx_HAL_Driver/Src/stm32n6xx_ll_usb.c ****   {
 186:STM32Cube_FW_N6/Drivers/STM32N6xx_HAL_Driver/Src/stm32n6xx_ll_usb.c ****     UsbTrd = USBD_HS_TRDT_VALUE;
 187:STM32Cube_FW_N6/Drivers/STM32N6xx_HAL_Driver/Src/stm32n6xx_ll_usb.c ****   }
 188:STM32Cube_FW_N6/Drivers/STM32N6xx_HAL_Driver/Src/stm32n6xx_ll_usb.c ****   else
 189:STM32Cube_FW_N6/Drivers/STM32N6xx_HAL_Driver/Src/stm32n6xx_ll_usb.c ****   {
 190:STM32Cube_FW_N6/Drivers/STM32N6xx_HAL_Driver/Src/stm32n6xx_ll_usb.c ****     UsbTrd = USBD_DEFAULT_TRDT_VALUE;
 191:STM32Cube_FW_N6/Drivers/STM32N6xx_HAL_Driver/Src/stm32n6xx_ll_usb.c ****   }
 192:STM32Cube_FW_N6/Drivers/STM32N6xx_HAL_Driver/Src/stm32n6xx_ll_usb.c **** 
 193:STM32Cube_FW_N6/Drivers/STM32N6xx_HAL_Driver/Src/stm32n6xx_ll_usb.c ****   USBx->GUSBCFG &= ~USB_OTG_GUSBCFG_TRDT;
 194:STM32Cube_FW_N6/Drivers/STM32N6xx_HAL_Driver/Src/stm32n6xx_ll_usb.c ****   USBx->GUSBCFG |= (uint32_t)((UsbTrd << 10) & USB_OTG_GUSBCFG_TRDT);
 195:STM32Cube_FW_N6/Drivers/STM32N6xx_HAL_Driver/Src/stm32n6xx_ll_usb.c **** 
 196:STM32Cube_FW_N6/Drivers/STM32N6xx_HAL_Driver/Src/stm32n6xx_ll_usb.c ****   return HAL_OK;
 197:STM32Cube_FW_N6/Drivers/STM32N6xx_HAL_Driver/Src/stm32n6xx_ll_usb.c **** }
 198:STM32Cube_FW_N6/Drivers/STM32N6xx_HAL_Driver/Src/stm32n6xx_ll_usb.c **** 
 199:STM32Cube_FW_N6/Drivers/STM32N6xx_HAL_Driver/Src/stm32n6xx_ll_usb.c **** /**
 200:STM32Cube_FW_N6/Drivers/STM32N6xx_HAL_Driver/Src/stm32n6xx_ll_usb.c ****   * @brief  USB_EnableGlobalInt
 201:STM32Cube_FW_N6/Drivers/STM32N6xx_HAL_Driver/Src/stm32n6xx_ll_usb.c ****   *         Enables the controller's Global Int in the AHB Config reg
 202:STM32Cube_FW_N6/Drivers/STM32N6xx_HAL_Driver/Src/stm32n6xx_ll_usb.c ****   * @param  USBx  Selected device
 203:STM32Cube_FW_N6/Drivers/STM32N6xx_HAL_Driver/Src/stm32n6xx_ll_usb.c ****   * @retval HAL status
 204:STM32Cube_FW_N6/Drivers/STM32N6xx_HAL_Driver/Src/stm32n6xx_ll_usb.c ****   */
 205:STM32Cube_FW_N6/Drivers/STM32N6xx_HAL_Driver/Src/stm32n6xx_ll_usb.c **** HAL_StatusTypeDef USB_EnableGlobalInt(USB_OTG_GlobalTypeDef *USBx)
 206:STM32Cube_FW_N6/Drivers/STM32N6xx_HAL_Driver/Src/stm32n6xx_ll_usb.c **** {
 207:STM32Cube_FW_N6/Drivers/STM32N6xx_HAL_Driver/Src/stm32n6xx_ll_usb.c ****   USBx->GAHBCFG |= USB_OTG_GAHBCFG_GINT;
 208:STM32Cube_FW_N6/Drivers/STM32N6xx_HAL_Driver/Src/stm32n6xx_ll_usb.c ****   return HAL_OK;
 209:STM32Cube_FW_N6/Drivers/STM32N6xx_HAL_Driver/Src/stm32n6xx_ll_usb.c **** }
 210:STM32Cube_FW_N6/Drivers/STM32N6xx_HAL_Driver/Src/stm32n6xx_ll_usb.c **** 
 211:STM32Cube_FW_N6/Drivers/STM32N6xx_HAL_Driver/Src/stm32n6xx_ll_usb.c **** /**
 212:STM32Cube_FW_N6/Drivers/STM32N6xx_HAL_Driver/Src/stm32n6xx_ll_usb.c ****   * @brief  USB_DisableGlobalInt
 213:STM32Cube_FW_N6/Drivers/STM32N6xx_HAL_Driver/Src/stm32n6xx_ll_usb.c ****   *         Disable the controller's Global Int in the AHB Config reg
 214:STM32Cube_FW_N6/Drivers/STM32N6xx_HAL_Driver/Src/stm32n6xx_ll_usb.c ****   * @param  USBx  Selected device
 215:STM32Cube_FW_N6/Drivers/STM32N6xx_HAL_Driver/Src/stm32n6xx_ll_usb.c ****   * @retval HAL status
ARM GAS  C:\Users\DJESSOU\AppData\Local\Temp\ccOpSjVg.s 			page 6


 216:STM32Cube_FW_N6/Drivers/STM32N6xx_HAL_Driver/Src/stm32n6xx_ll_usb.c ****   */
 217:STM32Cube_FW_N6/Drivers/STM32N6xx_HAL_Driver/Src/stm32n6xx_ll_usb.c **** HAL_StatusTypeDef USB_DisableGlobalInt(USB_OTG_GlobalTypeDef *USBx)
 218:STM32Cube_FW_N6/Drivers/STM32N6xx_HAL_Driver/Src/stm32n6xx_ll_usb.c **** {
 219:STM32Cube_FW_N6/Drivers/STM32N6xx_HAL_Driver/Src/stm32n6xx_ll_usb.c ****   USBx->GAHBCFG &= ~USB_OTG_GAHBCFG_GINT;
 220:STM32Cube_FW_N6/Drivers/STM32N6xx_HAL_Driver/Src/stm32n6xx_ll_usb.c ****   return HAL_OK;
 221:STM32Cube_FW_N6/Drivers/STM32N6xx_HAL_Driver/Src/stm32n6xx_ll_usb.c **** }
 222:STM32Cube_FW_N6/Drivers/STM32N6xx_HAL_Driver/Src/stm32n6xx_ll_usb.c **** 
 223:STM32Cube_FW_N6/Drivers/STM32N6xx_HAL_Driver/Src/stm32n6xx_ll_usb.c **** /**
 224:STM32Cube_FW_N6/Drivers/STM32N6xx_HAL_Driver/Src/stm32n6xx_ll_usb.c ****   * @brief  USB_SetCurrentMode Set functional mode
 225:STM32Cube_FW_N6/Drivers/STM32N6xx_HAL_Driver/Src/stm32n6xx_ll_usb.c ****   * @param  USBx  Selected device
 226:STM32Cube_FW_N6/Drivers/STM32N6xx_HAL_Driver/Src/stm32n6xx_ll_usb.c ****   * @param  mode  current core mode
 227:STM32Cube_FW_N6/Drivers/STM32N6xx_HAL_Driver/Src/stm32n6xx_ll_usb.c ****   *          This parameter can be one of these values:
 228:STM32Cube_FW_N6/Drivers/STM32N6xx_HAL_Driver/Src/stm32n6xx_ll_usb.c ****   *            @arg USB_DEVICE_MODE Peripheral mode
 229:STM32Cube_FW_N6/Drivers/STM32N6xx_HAL_Driver/Src/stm32n6xx_ll_usb.c ****   *            @arg USB_HOST_MODE Host mode
 230:STM32Cube_FW_N6/Drivers/STM32N6xx_HAL_Driver/Src/stm32n6xx_ll_usb.c ****   * @retval HAL status
 231:STM32Cube_FW_N6/Drivers/STM32N6xx_HAL_Driver/Src/stm32n6xx_ll_usb.c ****   */
 232:STM32Cube_FW_N6/Drivers/STM32N6xx_HAL_Driver/Src/stm32n6xx_ll_usb.c **** HAL_StatusTypeDef USB_SetCurrentMode(USB_OTG_GlobalTypeDef *USBx, USB_OTG_ModeTypeDef mode)
 233:STM32Cube_FW_N6/Drivers/STM32N6xx_HAL_Driver/Src/stm32n6xx_ll_usb.c **** {
 234:STM32Cube_FW_N6/Drivers/STM32N6xx_HAL_Driver/Src/stm32n6xx_ll_usb.c ****   uint32_t ms = 0U;
 235:STM32Cube_FW_N6/Drivers/STM32N6xx_HAL_Driver/Src/stm32n6xx_ll_usb.c **** 
 236:STM32Cube_FW_N6/Drivers/STM32N6xx_HAL_Driver/Src/stm32n6xx_ll_usb.c ****   USBx->GUSBCFG &= ~(USB_OTG_GUSBCFG_FHMOD | USB_OTG_GUSBCFG_FDMOD);
 237:STM32Cube_FW_N6/Drivers/STM32N6xx_HAL_Driver/Src/stm32n6xx_ll_usb.c **** 
 238:STM32Cube_FW_N6/Drivers/STM32N6xx_HAL_Driver/Src/stm32n6xx_ll_usb.c ****   if (mode == USB_HOST_MODE)
 239:STM32Cube_FW_N6/Drivers/STM32N6xx_HAL_Driver/Src/stm32n6xx_ll_usb.c ****   {
 240:STM32Cube_FW_N6/Drivers/STM32N6xx_HAL_Driver/Src/stm32n6xx_ll_usb.c ****     USBx->GUSBCFG |= USB_OTG_GUSBCFG_FHMOD;
 241:STM32Cube_FW_N6/Drivers/STM32N6xx_HAL_Driver/Src/stm32n6xx_ll_usb.c **** 
 242:STM32Cube_FW_N6/Drivers/STM32N6xx_HAL_Driver/Src/stm32n6xx_ll_usb.c ****     do
 243:STM32Cube_FW_N6/Drivers/STM32N6xx_HAL_Driver/Src/stm32n6xx_ll_usb.c ****     {
 244:STM32Cube_FW_N6/Drivers/STM32N6xx_HAL_Driver/Src/stm32n6xx_ll_usb.c ****       HAL_Delay(10U);
 245:STM32Cube_FW_N6/Drivers/STM32N6xx_HAL_Driver/Src/stm32n6xx_ll_usb.c ****       ms += 10U;
 246:STM32Cube_FW_N6/Drivers/STM32N6xx_HAL_Driver/Src/stm32n6xx_ll_usb.c ****     } while ((USB_GetMode(USBx) != (uint32_t)USB_HOST_MODE) && (ms < HAL_USB_CURRENT_MODE_MAX_DELAY
 247:STM32Cube_FW_N6/Drivers/STM32N6xx_HAL_Driver/Src/stm32n6xx_ll_usb.c ****   }
 248:STM32Cube_FW_N6/Drivers/STM32N6xx_HAL_Driver/Src/stm32n6xx_ll_usb.c ****   else if (mode == USB_DEVICE_MODE)
 249:STM32Cube_FW_N6/Drivers/STM32N6xx_HAL_Driver/Src/stm32n6xx_ll_usb.c ****   {
 250:STM32Cube_FW_N6/Drivers/STM32N6xx_HAL_Driver/Src/stm32n6xx_ll_usb.c ****     USBx->GUSBCFG |= USB_OTG_GUSBCFG_FDMOD;
 251:STM32Cube_FW_N6/Drivers/STM32N6xx_HAL_Driver/Src/stm32n6xx_ll_usb.c **** 
 252:STM32Cube_FW_N6/Drivers/STM32N6xx_HAL_Driver/Src/stm32n6xx_ll_usb.c ****     do
 253:STM32Cube_FW_N6/Drivers/STM32N6xx_HAL_Driver/Src/stm32n6xx_ll_usb.c ****     {
 254:STM32Cube_FW_N6/Drivers/STM32N6xx_HAL_Driver/Src/stm32n6xx_ll_usb.c ****       HAL_Delay(10U);
 255:STM32Cube_FW_N6/Drivers/STM32N6xx_HAL_Driver/Src/stm32n6xx_ll_usb.c ****       ms += 10U;
 256:STM32Cube_FW_N6/Drivers/STM32N6xx_HAL_Driver/Src/stm32n6xx_ll_usb.c ****     } while ((USB_GetMode(USBx) != (uint32_t)USB_DEVICE_MODE) && (ms < HAL_USB_CURRENT_MODE_MAX_DEL
 257:STM32Cube_FW_N6/Drivers/STM32N6xx_HAL_Driver/Src/stm32n6xx_ll_usb.c ****   }
 258:STM32Cube_FW_N6/Drivers/STM32N6xx_HAL_Driver/Src/stm32n6xx_ll_usb.c ****   else
 259:STM32Cube_FW_N6/Drivers/STM32N6xx_HAL_Driver/Src/stm32n6xx_ll_usb.c ****   {
 260:STM32Cube_FW_N6/Drivers/STM32N6xx_HAL_Driver/Src/stm32n6xx_ll_usb.c ****     return HAL_ERROR;
 261:STM32Cube_FW_N6/Drivers/STM32N6xx_HAL_Driver/Src/stm32n6xx_ll_usb.c ****   }
 262:STM32Cube_FW_N6/Drivers/STM32N6xx_HAL_Driver/Src/stm32n6xx_ll_usb.c **** 
 263:STM32Cube_FW_N6/Drivers/STM32N6xx_HAL_Driver/Src/stm32n6xx_ll_usb.c ****   if (ms == HAL_USB_CURRENT_MODE_MAX_DELAY_MS)
 264:STM32Cube_FW_N6/Drivers/STM32N6xx_HAL_Driver/Src/stm32n6xx_ll_usb.c ****   {
 265:STM32Cube_FW_N6/Drivers/STM32N6xx_HAL_Driver/Src/stm32n6xx_ll_usb.c ****     return HAL_ERROR;
 266:STM32Cube_FW_N6/Drivers/STM32N6xx_HAL_Driver/Src/stm32n6xx_ll_usb.c ****   }
 267:STM32Cube_FW_N6/Drivers/STM32N6xx_HAL_Driver/Src/stm32n6xx_ll_usb.c **** 
 268:STM32Cube_FW_N6/Drivers/STM32N6xx_HAL_Driver/Src/stm32n6xx_ll_usb.c ****   return HAL_OK;
 269:STM32Cube_FW_N6/Drivers/STM32N6xx_HAL_Driver/Src/stm32n6xx_ll_usb.c **** }
 270:STM32Cube_FW_N6/Drivers/STM32N6xx_HAL_Driver/Src/stm32n6xx_ll_usb.c **** 
 271:STM32Cube_FW_N6/Drivers/STM32N6xx_HAL_Driver/Src/stm32n6xx_ll_usb.c **** /**
 272:STM32Cube_FW_N6/Drivers/STM32N6xx_HAL_Driver/Src/stm32n6xx_ll_usb.c ****   * @brief  USB_DevInit Initializes the USB_OTG controller registers
ARM GAS  C:\Users\DJESSOU\AppData\Local\Temp\ccOpSjVg.s 			page 7


 273:STM32Cube_FW_N6/Drivers/STM32N6xx_HAL_Driver/Src/stm32n6xx_ll_usb.c ****   *         for device mode
 274:STM32Cube_FW_N6/Drivers/STM32N6xx_HAL_Driver/Src/stm32n6xx_ll_usb.c ****   * @param  USBx  Selected device
 275:STM32Cube_FW_N6/Drivers/STM32N6xx_HAL_Driver/Src/stm32n6xx_ll_usb.c ****   * @param  cfg   pointer to a USB_OTG_CfgTypeDef structure that contains
 276:STM32Cube_FW_N6/Drivers/STM32N6xx_HAL_Driver/Src/stm32n6xx_ll_usb.c ****   *         the configuration information for the specified USBx peripheral.
 277:STM32Cube_FW_N6/Drivers/STM32N6xx_HAL_Driver/Src/stm32n6xx_ll_usb.c ****   * @retval HAL status
 278:STM32Cube_FW_N6/Drivers/STM32N6xx_HAL_Driver/Src/stm32n6xx_ll_usb.c ****   */
 279:STM32Cube_FW_N6/Drivers/STM32N6xx_HAL_Driver/Src/stm32n6xx_ll_usb.c **** HAL_StatusTypeDef USB_DevInit(USB_OTG_GlobalTypeDef *USBx, USB_OTG_CfgTypeDef cfg)
 280:STM32Cube_FW_N6/Drivers/STM32N6xx_HAL_Driver/Src/stm32n6xx_ll_usb.c **** {
 281:STM32Cube_FW_N6/Drivers/STM32N6xx_HAL_Driver/Src/stm32n6xx_ll_usb.c ****   HAL_StatusTypeDef ret = HAL_OK;
 282:STM32Cube_FW_N6/Drivers/STM32N6xx_HAL_Driver/Src/stm32n6xx_ll_usb.c ****   uint32_t USBx_BASE = (uint32_t)USBx;
 283:STM32Cube_FW_N6/Drivers/STM32N6xx_HAL_Driver/Src/stm32n6xx_ll_usb.c ****   uint32_t i;
 284:STM32Cube_FW_N6/Drivers/STM32N6xx_HAL_Driver/Src/stm32n6xx_ll_usb.c **** 
 285:STM32Cube_FW_N6/Drivers/STM32N6xx_HAL_Driver/Src/stm32n6xx_ll_usb.c ****   for (i = 0U; i < 15U; i++)
 286:STM32Cube_FW_N6/Drivers/STM32N6xx_HAL_Driver/Src/stm32n6xx_ll_usb.c ****   {
 287:STM32Cube_FW_N6/Drivers/STM32N6xx_HAL_Driver/Src/stm32n6xx_ll_usb.c ****     USBx->DIEPTXF[i] = 0U;
 288:STM32Cube_FW_N6/Drivers/STM32N6xx_HAL_Driver/Src/stm32n6xx_ll_usb.c ****   }
 289:STM32Cube_FW_N6/Drivers/STM32N6xx_HAL_Driver/Src/stm32n6xx_ll_usb.c **** 
 290:STM32Cube_FW_N6/Drivers/STM32N6xx_HAL_Driver/Src/stm32n6xx_ll_usb.c ****   /* Disable USB PHY pulldown resistors */
 291:STM32Cube_FW_N6/Drivers/STM32N6xx_HAL_Driver/Src/stm32n6xx_ll_usb.c ****   USBx->GCCFG &= ~USB_OTG_GCCFG_PULLDOWNEN;
 292:STM32Cube_FW_N6/Drivers/STM32N6xx_HAL_Driver/Src/stm32n6xx_ll_usb.c **** 
 293:STM32Cube_FW_N6/Drivers/STM32N6xx_HAL_Driver/Src/stm32n6xx_ll_usb.c ****   /* VBUS Sensing setup */
 294:STM32Cube_FW_N6/Drivers/STM32N6xx_HAL_Driver/Src/stm32n6xx_ll_usb.c ****   if (cfg.vbus_sensing_enable == 0U)
 295:STM32Cube_FW_N6/Drivers/STM32N6xx_HAL_Driver/Src/stm32n6xx_ll_usb.c ****   {
 296:STM32Cube_FW_N6/Drivers/STM32N6xx_HAL_Driver/Src/stm32n6xx_ll_usb.c ****     USBx_DEVICE->DCTL |= USB_OTG_DCTL_SDIS;
 297:STM32Cube_FW_N6/Drivers/STM32N6xx_HAL_Driver/Src/stm32n6xx_ll_usb.c **** 
 298:STM32Cube_FW_N6/Drivers/STM32N6xx_HAL_Driver/Src/stm32n6xx_ll_usb.c ****     /* B-peripheral session valid override enable */
 299:STM32Cube_FW_N6/Drivers/STM32N6xx_HAL_Driver/Src/stm32n6xx_ll_usb.c ****     USBx->GCCFG |= USB_OTG_GCCFG_VBVALEXTOEN;
 300:STM32Cube_FW_N6/Drivers/STM32N6xx_HAL_Driver/Src/stm32n6xx_ll_usb.c ****     USBx->GCCFG |= USB_OTG_GCCFG_VBVALOVAL;
 301:STM32Cube_FW_N6/Drivers/STM32N6xx_HAL_Driver/Src/stm32n6xx_ll_usb.c ****   }
 302:STM32Cube_FW_N6/Drivers/STM32N6xx_HAL_Driver/Src/stm32n6xx_ll_usb.c ****   else
 303:STM32Cube_FW_N6/Drivers/STM32N6xx_HAL_Driver/Src/stm32n6xx_ll_usb.c ****   {
 304:STM32Cube_FW_N6/Drivers/STM32N6xx_HAL_Driver/Src/stm32n6xx_ll_usb.c ****     /* B-peripheral session valid override disable */
 305:STM32Cube_FW_N6/Drivers/STM32N6xx_HAL_Driver/Src/stm32n6xx_ll_usb.c ****     USBx->GCCFG &= ~USB_OTG_GCCFG_VBVALEXTOEN;
 306:STM32Cube_FW_N6/Drivers/STM32N6xx_HAL_Driver/Src/stm32n6xx_ll_usb.c ****     USBx->GCCFG &= ~USB_OTG_GCCFG_VBVALOVAL;
 307:STM32Cube_FW_N6/Drivers/STM32N6xx_HAL_Driver/Src/stm32n6xx_ll_usb.c ****   }
 308:STM32Cube_FW_N6/Drivers/STM32N6xx_HAL_Driver/Src/stm32n6xx_ll_usb.c **** 
 309:STM32Cube_FW_N6/Drivers/STM32N6xx_HAL_Driver/Src/stm32n6xx_ll_usb.c ****   /* Restart the Phy Clock */
 310:STM32Cube_FW_N6/Drivers/STM32N6xx_HAL_Driver/Src/stm32n6xx_ll_usb.c ****   USBx_PCGCCTL = 0U;
 311:STM32Cube_FW_N6/Drivers/STM32N6xx_HAL_Driver/Src/stm32n6xx_ll_usb.c **** 
 312:STM32Cube_FW_N6/Drivers/STM32N6xx_HAL_Driver/Src/stm32n6xx_ll_usb.c **** 
 313:STM32Cube_FW_N6/Drivers/STM32N6xx_HAL_Driver/Src/stm32n6xx_ll_usb.c ****   if (cfg.phy_itface == USB_OTG_HS_EMBEDDED_PHY)
 314:STM32Cube_FW_N6/Drivers/STM32N6xx_HAL_Driver/Src/stm32n6xx_ll_usb.c ****   {
 315:STM32Cube_FW_N6/Drivers/STM32N6xx_HAL_Driver/Src/stm32n6xx_ll_usb.c ****     if (cfg.speed == USBD_HS_SPEED)
 316:STM32Cube_FW_N6/Drivers/STM32N6xx_HAL_Driver/Src/stm32n6xx_ll_usb.c ****     {
 317:STM32Cube_FW_N6/Drivers/STM32N6xx_HAL_Driver/Src/stm32n6xx_ll_usb.c ****       /* Set Core speed to High speed mode */
 318:STM32Cube_FW_N6/Drivers/STM32N6xx_HAL_Driver/Src/stm32n6xx_ll_usb.c ****       (void)USB_SetDevSpeed(USBx, USB_OTG_SPEED_HIGH);
 319:STM32Cube_FW_N6/Drivers/STM32N6xx_HAL_Driver/Src/stm32n6xx_ll_usb.c ****     }
 320:STM32Cube_FW_N6/Drivers/STM32N6xx_HAL_Driver/Src/stm32n6xx_ll_usb.c ****     else
 321:STM32Cube_FW_N6/Drivers/STM32N6xx_HAL_Driver/Src/stm32n6xx_ll_usb.c ****     {
 322:STM32Cube_FW_N6/Drivers/STM32N6xx_HAL_Driver/Src/stm32n6xx_ll_usb.c ****       /* Set Core speed to Full speed mode */
 323:STM32Cube_FW_N6/Drivers/STM32N6xx_HAL_Driver/Src/stm32n6xx_ll_usb.c ****       (void)USB_SetDevSpeed(USBx, USB_OTG_SPEED_HIGH_IN_FULL);
 324:STM32Cube_FW_N6/Drivers/STM32N6xx_HAL_Driver/Src/stm32n6xx_ll_usb.c ****     }
 325:STM32Cube_FW_N6/Drivers/STM32N6xx_HAL_Driver/Src/stm32n6xx_ll_usb.c ****   }
 326:STM32Cube_FW_N6/Drivers/STM32N6xx_HAL_Driver/Src/stm32n6xx_ll_usb.c ****   else
 327:STM32Cube_FW_N6/Drivers/STM32N6xx_HAL_Driver/Src/stm32n6xx_ll_usb.c **** 
 328:STM32Cube_FW_N6/Drivers/STM32N6xx_HAL_Driver/Src/stm32n6xx_ll_usb.c ****   {
 329:STM32Cube_FW_N6/Drivers/STM32N6xx_HAL_Driver/Src/stm32n6xx_ll_usb.c ****     /* Set Core speed to Full speed mode */
ARM GAS  C:\Users\DJESSOU\AppData\Local\Temp\ccOpSjVg.s 			page 8


 330:STM32Cube_FW_N6/Drivers/STM32N6xx_HAL_Driver/Src/stm32n6xx_ll_usb.c ****     (void)USB_SetDevSpeed(USBx, USB_OTG_SPEED_FULL);
 331:STM32Cube_FW_N6/Drivers/STM32N6xx_HAL_Driver/Src/stm32n6xx_ll_usb.c ****   }
 332:STM32Cube_FW_N6/Drivers/STM32N6xx_HAL_Driver/Src/stm32n6xx_ll_usb.c **** 
 333:STM32Cube_FW_N6/Drivers/STM32N6xx_HAL_Driver/Src/stm32n6xx_ll_usb.c ****   /* Flush the FIFOs */
 334:STM32Cube_FW_N6/Drivers/STM32N6xx_HAL_Driver/Src/stm32n6xx_ll_usb.c ****   if (USB_FlushTxFifo(USBx, 0x10U) != HAL_OK) /* all Tx FIFOs */
 335:STM32Cube_FW_N6/Drivers/STM32N6xx_HAL_Driver/Src/stm32n6xx_ll_usb.c ****   {
 336:STM32Cube_FW_N6/Drivers/STM32N6xx_HAL_Driver/Src/stm32n6xx_ll_usb.c ****     ret = HAL_ERROR;
 337:STM32Cube_FW_N6/Drivers/STM32N6xx_HAL_Driver/Src/stm32n6xx_ll_usb.c ****   }
 338:STM32Cube_FW_N6/Drivers/STM32N6xx_HAL_Driver/Src/stm32n6xx_ll_usb.c **** 
 339:STM32Cube_FW_N6/Drivers/STM32N6xx_HAL_Driver/Src/stm32n6xx_ll_usb.c ****   if (USB_FlushRxFifo(USBx) != HAL_OK)
 340:STM32Cube_FW_N6/Drivers/STM32N6xx_HAL_Driver/Src/stm32n6xx_ll_usb.c ****   {
 341:STM32Cube_FW_N6/Drivers/STM32N6xx_HAL_Driver/Src/stm32n6xx_ll_usb.c ****     ret = HAL_ERROR;
 342:STM32Cube_FW_N6/Drivers/STM32N6xx_HAL_Driver/Src/stm32n6xx_ll_usb.c ****   }
 343:STM32Cube_FW_N6/Drivers/STM32N6xx_HAL_Driver/Src/stm32n6xx_ll_usb.c **** 
 344:STM32Cube_FW_N6/Drivers/STM32N6xx_HAL_Driver/Src/stm32n6xx_ll_usb.c ****   /* Clear all pending Device Interrupts */
 345:STM32Cube_FW_N6/Drivers/STM32N6xx_HAL_Driver/Src/stm32n6xx_ll_usb.c ****   USBx_DEVICE->DIEPMSK = 0U;
 346:STM32Cube_FW_N6/Drivers/STM32N6xx_HAL_Driver/Src/stm32n6xx_ll_usb.c ****   USBx_DEVICE->DOEPMSK = 0U;
 347:STM32Cube_FW_N6/Drivers/STM32N6xx_HAL_Driver/Src/stm32n6xx_ll_usb.c ****   USBx_DEVICE->DAINTMSK = 0U;
 348:STM32Cube_FW_N6/Drivers/STM32N6xx_HAL_Driver/Src/stm32n6xx_ll_usb.c **** 
 349:STM32Cube_FW_N6/Drivers/STM32N6xx_HAL_Driver/Src/stm32n6xx_ll_usb.c ****   for (i = 0U; i < cfg.dev_endpoints; i++)
 350:STM32Cube_FW_N6/Drivers/STM32N6xx_HAL_Driver/Src/stm32n6xx_ll_usb.c ****   {
 351:STM32Cube_FW_N6/Drivers/STM32N6xx_HAL_Driver/Src/stm32n6xx_ll_usb.c ****     if ((USBx_INEP(i)->DIEPCTL & USB_OTG_DIEPCTL_EPENA) == USB_OTG_DIEPCTL_EPENA)
 352:STM32Cube_FW_N6/Drivers/STM32N6xx_HAL_Driver/Src/stm32n6xx_ll_usb.c ****     {
 353:STM32Cube_FW_N6/Drivers/STM32N6xx_HAL_Driver/Src/stm32n6xx_ll_usb.c ****       if (i == 0U)
 354:STM32Cube_FW_N6/Drivers/STM32N6xx_HAL_Driver/Src/stm32n6xx_ll_usb.c ****       {
 355:STM32Cube_FW_N6/Drivers/STM32N6xx_HAL_Driver/Src/stm32n6xx_ll_usb.c ****         USBx_INEP(i)->DIEPCTL = USB_OTG_DIEPCTL_SNAK;
 356:STM32Cube_FW_N6/Drivers/STM32N6xx_HAL_Driver/Src/stm32n6xx_ll_usb.c ****       }
 357:STM32Cube_FW_N6/Drivers/STM32N6xx_HAL_Driver/Src/stm32n6xx_ll_usb.c ****       else
 358:STM32Cube_FW_N6/Drivers/STM32N6xx_HAL_Driver/Src/stm32n6xx_ll_usb.c ****       {
 359:STM32Cube_FW_N6/Drivers/STM32N6xx_HAL_Driver/Src/stm32n6xx_ll_usb.c ****         USBx_INEP(i)->DIEPCTL = USB_OTG_DIEPCTL_EPDIS | USB_OTG_DIEPCTL_SNAK;
 360:STM32Cube_FW_N6/Drivers/STM32N6xx_HAL_Driver/Src/stm32n6xx_ll_usb.c ****       }
 361:STM32Cube_FW_N6/Drivers/STM32N6xx_HAL_Driver/Src/stm32n6xx_ll_usb.c ****     }
 362:STM32Cube_FW_N6/Drivers/STM32N6xx_HAL_Driver/Src/stm32n6xx_ll_usb.c ****     else
 363:STM32Cube_FW_N6/Drivers/STM32N6xx_HAL_Driver/Src/stm32n6xx_ll_usb.c ****     {
 364:STM32Cube_FW_N6/Drivers/STM32N6xx_HAL_Driver/Src/stm32n6xx_ll_usb.c ****       USBx_INEP(i)->DIEPCTL = 0U;
 365:STM32Cube_FW_N6/Drivers/STM32N6xx_HAL_Driver/Src/stm32n6xx_ll_usb.c ****     }
 366:STM32Cube_FW_N6/Drivers/STM32N6xx_HAL_Driver/Src/stm32n6xx_ll_usb.c **** 
 367:STM32Cube_FW_N6/Drivers/STM32N6xx_HAL_Driver/Src/stm32n6xx_ll_usb.c ****     USBx_INEP(i)->DIEPTSIZ = 0U;
 368:STM32Cube_FW_N6/Drivers/STM32N6xx_HAL_Driver/Src/stm32n6xx_ll_usb.c ****     USBx_INEP(i)->DIEPINT  = 0xFB7FU;
 369:STM32Cube_FW_N6/Drivers/STM32N6xx_HAL_Driver/Src/stm32n6xx_ll_usb.c ****   }
 370:STM32Cube_FW_N6/Drivers/STM32N6xx_HAL_Driver/Src/stm32n6xx_ll_usb.c **** 
 371:STM32Cube_FW_N6/Drivers/STM32N6xx_HAL_Driver/Src/stm32n6xx_ll_usb.c ****   for (i = 0U; i < cfg.dev_endpoints; i++)
 372:STM32Cube_FW_N6/Drivers/STM32N6xx_HAL_Driver/Src/stm32n6xx_ll_usb.c ****   {
 373:STM32Cube_FW_N6/Drivers/STM32N6xx_HAL_Driver/Src/stm32n6xx_ll_usb.c ****     if ((USBx_OUTEP(i)->DOEPCTL & USB_OTG_DOEPCTL_EPENA) == USB_OTG_DOEPCTL_EPENA)
 374:STM32Cube_FW_N6/Drivers/STM32N6xx_HAL_Driver/Src/stm32n6xx_ll_usb.c ****     {
 375:STM32Cube_FW_N6/Drivers/STM32N6xx_HAL_Driver/Src/stm32n6xx_ll_usb.c ****       if (i == 0U)
 376:STM32Cube_FW_N6/Drivers/STM32N6xx_HAL_Driver/Src/stm32n6xx_ll_usb.c ****       {
 377:STM32Cube_FW_N6/Drivers/STM32N6xx_HAL_Driver/Src/stm32n6xx_ll_usb.c ****         USBx_OUTEP(i)->DOEPCTL = USB_OTG_DOEPCTL_SNAK;
 378:STM32Cube_FW_N6/Drivers/STM32N6xx_HAL_Driver/Src/stm32n6xx_ll_usb.c ****       }
 379:STM32Cube_FW_N6/Drivers/STM32N6xx_HAL_Driver/Src/stm32n6xx_ll_usb.c ****       else
 380:STM32Cube_FW_N6/Drivers/STM32N6xx_HAL_Driver/Src/stm32n6xx_ll_usb.c ****       {
 381:STM32Cube_FW_N6/Drivers/STM32N6xx_HAL_Driver/Src/stm32n6xx_ll_usb.c ****         USBx_OUTEP(i)->DOEPCTL = USB_OTG_DOEPCTL_EPDIS | USB_OTG_DOEPCTL_SNAK;
 382:STM32Cube_FW_N6/Drivers/STM32N6xx_HAL_Driver/Src/stm32n6xx_ll_usb.c ****       }
 383:STM32Cube_FW_N6/Drivers/STM32N6xx_HAL_Driver/Src/stm32n6xx_ll_usb.c ****     }
 384:STM32Cube_FW_N6/Drivers/STM32N6xx_HAL_Driver/Src/stm32n6xx_ll_usb.c ****     else
 385:STM32Cube_FW_N6/Drivers/STM32N6xx_HAL_Driver/Src/stm32n6xx_ll_usb.c ****     {
 386:STM32Cube_FW_N6/Drivers/STM32N6xx_HAL_Driver/Src/stm32n6xx_ll_usb.c ****       USBx_OUTEP(i)->DOEPCTL = 0U;
ARM GAS  C:\Users\DJESSOU\AppData\Local\Temp\ccOpSjVg.s 			page 9


 387:STM32Cube_FW_N6/Drivers/STM32N6xx_HAL_Driver/Src/stm32n6xx_ll_usb.c ****     }
 388:STM32Cube_FW_N6/Drivers/STM32N6xx_HAL_Driver/Src/stm32n6xx_ll_usb.c **** 
 389:STM32Cube_FW_N6/Drivers/STM32N6xx_HAL_Driver/Src/stm32n6xx_ll_usb.c ****     USBx_OUTEP(i)->DOEPTSIZ = 0U;
 390:STM32Cube_FW_N6/Drivers/STM32N6xx_HAL_Driver/Src/stm32n6xx_ll_usb.c ****     USBx_OUTEP(i)->DOEPINT  = 0xFB7FU;
 391:STM32Cube_FW_N6/Drivers/STM32N6xx_HAL_Driver/Src/stm32n6xx_ll_usb.c ****   }
 392:STM32Cube_FW_N6/Drivers/STM32N6xx_HAL_Driver/Src/stm32n6xx_ll_usb.c **** 
 393:STM32Cube_FW_N6/Drivers/STM32N6xx_HAL_Driver/Src/stm32n6xx_ll_usb.c ****   USBx_DEVICE->DIEPMSK &= ~(USB_OTG_DIEPMSK_TXFURM);
 394:STM32Cube_FW_N6/Drivers/STM32N6xx_HAL_Driver/Src/stm32n6xx_ll_usb.c **** 
 395:STM32Cube_FW_N6/Drivers/STM32N6xx_HAL_Driver/Src/stm32n6xx_ll_usb.c ****   /* Disable all interrupts. */
 396:STM32Cube_FW_N6/Drivers/STM32N6xx_HAL_Driver/Src/stm32n6xx_ll_usb.c ****   USBx->GINTMSK = 0U;
 397:STM32Cube_FW_N6/Drivers/STM32N6xx_HAL_Driver/Src/stm32n6xx_ll_usb.c **** 
 398:STM32Cube_FW_N6/Drivers/STM32N6xx_HAL_Driver/Src/stm32n6xx_ll_usb.c ****   /* Clear any pending interrupts */
 399:STM32Cube_FW_N6/Drivers/STM32N6xx_HAL_Driver/Src/stm32n6xx_ll_usb.c ****   USBx->GINTSTS = 0xBFFFFFFFU;
 400:STM32Cube_FW_N6/Drivers/STM32N6xx_HAL_Driver/Src/stm32n6xx_ll_usb.c **** 
 401:STM32Cube_FW_N6/Drivers/STM32N6xx_HAL_Driver/Src/stm32n6xx_ll_usb.c ****   /* Enable the common interrupts */
 402:STM32Cube_FW_N6/Drivers/STM32N6xx_HAL_Driver/Src/stm32n6xx_ll_usb.c ****   if (cfg.dma_enable == 0U)
 403:STM32Cube_FW_N6/Drivers/STM32N6xx_HAL_Driver/Src/stm32n6xx_ll_usb.c ****   {
 404:STM32Cube_FW_N6/Drivers/STM32N6xx_HAL_Driver/Src/stm32n6xx_ll_usb.c ****     USBx->GINTMSK |= USB_OTG_GINTMSK_RXFLVLM;
 405:STM32Cube_FW_N6/Drivers/STM32N6xx_HAL_Driver/Src/stm32n6xx_ll_usb.c ****   }
 406:STM32Cube_FW_N6/Drivers/STM32N6xx_HAL_Driver/Src/stm32n6xx_ll_usb.c **** 
 407:STM32Cube_FW_N6/Drivers/STM32N6xx_HAL_Driver/Src/stm32n6xx_ll_usb.c ****   /* Enable interrupts matching to the Device mode ONLY */
 408:STM32Cube_FW_N6/Drivers/STM32N6xx_HAL_Driver/Src/stm32n6xx_ll_usb.c ****   USBx->GINTMSK |= USB_OTG_GINTMSK_USBSUSPM | USB_OTG_GINTMSK_USBRST |
 409:STM32Cube_FW_N6/Drivers/STM32N6xx_HAL_Driver/Src/stm32n6xx_ll_usb.c ****                    USB_OTG_GINTMSK_ENUMDNEM | USB_OTG_GINTMSK_IEPINT |
 410:STM32Cube_FW_N6/Drivers/STM32N6xx_HAL_Driver/Src/stm32n6xx_ll_usb.c ****                    USB_OTG_GINTMSK_OEPINT   | USB_OTG_GINTMSK_IISOIXFRM |
 411:STM32Cube_FW_N6/Drivers/STM32N6xx_HAL_Driver/Src/stm32n6xx_ll_usb.c ****                    USB_OTG_GINTMSK_PXFRM_IISOOXFRM | USB_OTG_GINTMSK_WUIM;
 412:STM32Cube_FW_N6/Drivers/STM32N6xx_HAL_Driver/Src/stm32n6xx_ll_usb.c **** 
 413:STM32Cube_FW_N6/Drivers/STM32N6xx_HAL_Driver/Src/stm32n6xx_ll_usb.c ****   if (cfg.Sof_enable != 0U)
 414:STM32Cube_FW_N6/Drivers/STM32N6xx_HAL_Driver/Src/stm32n6xx_ll_usb.c ****   {
 415:STM32Cube_FW_N6/Drivers/STM32N6xx_HAL_Driver/Src/stm32n6xx_ll_usb.c ****     USBx->GINTMSK |= USB_OTG_GINTMSK_SOFM;
 416:STM32Cube_FW_N6/Drivers/STM32N6xx_HAL_Driver/Src/stm32n6xx_ll_usb.c ****   }
 417:STM32Cube_FW_N6/Drivers/STM32N6xx_HAL_Driver/Src/stm32n6xx_ll_usb.c **** 
 418:STM32Cube_FW_N6/Drivers/STM32N6xx_HAL_Driver/Src/stm32n6xx_ll_usb.c ****   if (cfg.vbus_sensing_enable == 1U)
 419:STM32Cube_FW_N6/Drivers/STM32N6xx_HAL_Driver/Src/stm32n6xx_ll_usb.c ****   {
 420:STM32Cube_FW_N6/Drivers/STM32N6xx_HAL_Driver/Src/stm32n6xx_ll_usb.c ****     USBx->GINTMSK |= (USB_OTG_GINTMSK_SRQIM | USB_OTG_GINTMSK_OTGINT);
 421:STM32Cube_FW_N6/Drivers/STM32N6xx_HAL_Driver/Src/stm32n6xx_ll_usb.c ****   }
 422:STM32Cube_FW_N6/Drivers/STM32N6xx_HAL_Driver/Src/stm32n6xx_ll_usb.c **** 
 423:STM32Cube_FW_N6/Drivers/STM32N6xx_HAL_Driver/Src/stm32n6xx_ll_usb.c ****   return ret;
 424:STM32Cube_FW_N6/Drivers/STM32N6xx_HAL_Driver/Src/stm32n6xx_ll_usb.c **** }
 425:STM32Cube_FW_N6/Drivers/STM32N6xx_HAL_Driver/Src/stm32n6xx_ll_usb.c **** 
 426:STM32Cube_FW_N6/Drivers/STM32N6xx_HAL_Driver/Src/stm32n6xx_ll_usb.c **** /**
 427:STM32Cube_FW_N6/Drivers/STM32N6xx_HAL_Driver/Src/stm32n6xx_ll_usb.c ****   * @brief  USB_FlushTxFifo Flush a Tx FIFO
 428:STM32Cube_FW_N6/Drivers/STM32N6xx_HAL_Driver/Src/stm32n6xx_ll_usb.c ****   * @param  USBx  Selected device
 429:STM32Cube_FW_N6/Drivers/STM32N6xx_HAL_Driver/Src/stm32n6xx_ll_usb.c ****   * @param  num  FIFO number
 430:STM32Cube_FW_N6/Drivers/STM32N6xx_HAL_Driver/Src/stm32n6xx_ll_usb.c ****   *         This parameter can be a value from 1 to 15
 431:STM32Cube_FW_N6/Drivers/STM32N6xx_HAL_Driver/Src/stm32n6xx_ll_usb.c ****             15 means Flush all Tx FIFOs
 432:STM32Cube_FW_N6/Drivers/STM32N6xx_HAL_Driver/Src/stm32n6xx_ll_usb.c ****   * @retval HAL status
 433:STM32Cube_FW_N6/Drivers/STM32N6xx_HAL_Driver/Src/stm32n6xx_ll_usb.c ****   */
 434:STM32Cube_FW_N6/Drivers/STM32N6xx_HAL_Driver/Src/stm32n6xx_ll_usb.c **** HAL_StatusTypeDef USB_FlushTxFifo(USB_OTG_GlobalTypeDef *USBx, uint32_t num)
 435:STM32Cube_FW_N6/Drivers/STM32N6xx_HAL_Driver/Src/stm32n6xx_ll_usb.c **** {
 436:STM32Cube_FW_N6/Drivers/STM32N6xx_HAL_Driver/Src/stm32n6xx_ll_usb.c ****   __IO uint32_t count = 0U;
 437:STM32Cube_FW_N6/Drivers/STM32N6xx_HAL_Driver/Src/stm32n6xx_ll_usb.c **** 
 438:STM32Cube_FW_N6/Drivers/STM32N6xx_HAL_Driver/Src/stm32n6xx_ll_usb.c ****   /* Wait for AHB master IDLE state. */
 439:STM32Cube_FW_N6/Drivers/STM32N6xx_HAL_Driver/Src/stm32n6xx_ll_usb.c ****   do
 440:STM32Cube_FW_N6/Drivers/STM32N6xx_HAL_Driver/Src/stm32n6xx_ll_usb.c ****   {
 441:STM32Cube_FW_N6/Drivers/STM32N6xx_HAL_Driver/Src/stm32n6xx_ll_usb.c ****     count++;
 442:STM32Cube_FW_N6/Drivers/STM32N6xx_HAL_Driver/Src/stm32n6xx_ll_usb.c **** 
 443:STM32Cube_FW_N6/Drivers/STM32N6xx_HAL_Driver/Src/stm32n6xx_ll_usb.c ****     if (count > HAL_USB_TIMEOUT)
ARM GAS  C:\Users\DJESSOU\AppData\Local\Temp\ccOpSjVg.s 			page 10


 444:STM32Cube_FW_N6/Drivers/STM32N6xx_HAL_Driver/Src/stm32n6xx_ll_usb.c ****     {
 445:STM32Cube_FW_N6/Drivers/STM32N6xx_HAL_Driver/Src/stm32n6xx_ll_usb.c ****       return HAL_TIMEOUT;
 446:STM32Cube_FW_N6/Drivers/STM32N6xx_HAL_Driver/Src/stm32n6xx_ll_usb.c ****     }
 447:STM32Cube_FW_N6/Drivers/STM32N6xx_HAL_Driver/Src/stm32n6xx_ll_usb.c ****   } while ((USBx->GRSTCTL & USB_OTG_GRSTCTL_AHBIDL) == 0U);
 448:STM32Cube_FW_N6/Drivers/STM32N6xx_HAL_Driver/Src/stm32n6xx_ll_usb.c **** 
 449:STM32Cube_FW_N6/Drivers/STM32N6xx_HAL_Driver/Src/stm32n6xx_ll_usb.c ****   /* Flush TX Fifo */
 450:STM32Cube_FW_N6/Drivers/STM32N6xx_HAL_Driver/Src/stm32n6xx_ll_usb.c ****   count = 0U;
 451:STM32Cube_FW_N6/Drivers/STM32N6xx_HAL_Driver/Src/stm32n6xx_ll_usb.c ****   USBx->GRSTCTL = (USB_OTG_GRSTCTL_TXFFLSH | (num << 6));
 452:STM32Cube_FW_N6/Drivers/STM32N6xx_HAL_Driver/Src/stm32n6xx_ll_usb.c **** 
 453:STM32Cube_FW_N6/Drivers/STM32N6xx_HAL_Driver/Src/stm32n6xx_ll_usb.c ****   do
 454:STM32Cube_FW_N6/Drivers/STM32N6xx_HAL_Driver/Src/stm32n6xx_ll_usb.c ****   {
 455:STM32Cube_FW_N6/Drivers/STM32N6xx_HAL_Driver/Src/stm32n6xx_ll_usb.c ****     count++;
 456:STM32Cube_FW_N6/Drivers/STM32N6xx_HAL_Driver/Src/stm32n6xx_ll_usb.c **** 
 457:STM32Cube_FW_N6/Drivers/STM32N6xx_HAL_Driver/Src/stm32n6xx_ll_usb.c ****     if (count > HAL_USB_TIMEOUT)
 458:STM32Cube_FW_N6/Drivers/STM32N6xx_HAL_Driver/Src/stm32n6xx_ll_usb.c ****     {
 459:STM32Cube_FW_N6/Drivers/STM32N6xx_HAL_Driver/Src/stm32n6xx_ll_usb.c ****       return HAL_TIMEOUT;
 460:STM32Cube_FW_N6/Drivers/STM32N6xx_HAL_Driver/Src/stm32n6xx_ll_usb.c ****     }
 461:STM32Cube_FW_N6/Drivers/STM32N6xx_HAL_Driver/Src/stm32n6xx_ll_usb.c ****   } while ((USBx->GRSTCTL & USB_OTG_GRSTCTL_TXFFLSH) == USB_OTG_GRSTCTL_TXFFLSH);
 462:STM32Cube_FW_N6/Drivers/STM32N6xx_HAL_Driver/Src/stm32n6xx_ll_usb.c **** 
 463:STM32Cube_FW_N6/Drivers/STM32N6xx_HAL_Driver/Src/stm32n6xx_ll_usb.c ****   return HAL_OK;
 464:STM32Cube_FW_N6/Drivers/STM32N6xx_HAL_Driver/Src/stm32n6xx_ll_usb.c **** }
 465:STM32Cube_FW_N6/Drivers/STM32N6xx_HAL_Driver/Src/stm32n6xx_ll_usb.c **** 
 466:STM32Cube_FW_N6/Drivers/STM32N6xx_HAL_Driver/Src/stm32n6xx_ll_usb.c **** /**
 467:STM32Cube_FW_N6/Drivers/STM32N6xx_HAL_Driver/Src/stm32n6xx_ll_usb.c ****   * @brief  USB_FlushRxFifo  Flush Rx FIFO
 468:STM32Cube_FW_N6/Drivers/STM32N6xx_HAL_Driver/Src/stm32n6xx_ll_usb.c ****   * @param  USBx  Selected device
 469:STM32Cube_FW_N6/Drivers/STM32N6xx_HAL_Driver/Src/stm32n6xx_ll_usb.c ****   * @retval HAL status
 470:STM32Cube_FW_N6/Drivers/STM32N6xx_HAL_Driver/Src/stm32n6xx_ll_usb.c ****   */
 471:STM32Cube_FW_N6/Drivers/STM32N6xx_HAL_Driver/Src/stm32n6xx_ll_usb.c **** HAL_StatusTypeDef USB_FlushRxFifo(USB_OTG_GlobalTypeDef *USBx)
 472:STM32Cube_FW_N6/Drivers/STM32N6xx_HAL_Driver/Src/stm32n6xx_ll_usb.c **** {
 473:STM32Cube_FW_N6/Drivers/STM32N6xx_HAL_Driver/Src/stm32n6xx_ll_usb.c ****   __IO uint32_t count = 0U;
 474:STM32Cube_FW_N6/Drivers/STM32N6xx_HAL_Driver/Src/stm32n6xx_ll_usb.c **** 
 475:STM32Cube_FW_N6/Drivers/STM32N6xx_HAL_Driver/Src/stm32n6xx_ll_usb.c ****   /* Wait for AHB master IDLE state. */
 476:STM32Cube_FW_N6/Drivers/STM32N6xx_HAL_Driver/Src/stm32n6xx_ll_usb.c ****   do
 477:STM32Cube_FW_N6/Drivers/STM32N6xx_HAL_Driver/Src/stm32n6xx_ll_usb.c ****   {
 478:STM32Cube_FW_N6/Drivers/STM32N6xx_HAL_Driver/Src/stm32n6xx_ll_usb.c ****     count++;
 479:STM32Cube_FW_N6/Drivers/STM32N6xx_HAL_Driver/Src/stm32n6xx_ll_usb.c **** 
 480:STM32Cube_FW_N6/Drivers/STM32N6xx_HAL_Driver/Src/stm32n6xx_ll_usb.c ****     if (count > HAL_USB_TIMEOUT)
 481:STM32Cube_FW_N6/Drivers/STM32N6xx_HAL_Driver/Src/stm32n6xx_ll_usb.c ****     {
 482:STM32Cube_FW_N6/Drivers/STM32N6xx_HAL_Driver/Src/stm32n6xx_ll_usb.c ****       return HAL_TIMEOUT;
 483:STM32Cube_FW_N6/Drivers/STM32N6xx_HAL_Driver/Src/stm32n6xx_ll_usb.c ****     }
 484:STM32Cube_FW_N6/Drivers/STM32N6xx_HAL_Driver/Src/stm32n6xx_ll_usb.c ****   } while ((USBx->GRSTCTL & USB_OTG_GRSTCTL_AHBIDL) == 0U);
 485:STM32Cube_FW_N6/Drivers/STM32N6xx_HAL_Driver/Src/stm32n6xx_ll_usb.c **** 
 486:STM32Cube_FW_N6/Drivers/STM32N6xx_HAL_Driver/Src/stm32n6xx_ll_usb.c ****   /* Flush RX Fifo */
 487:STM32Cube_FW_N6/Drivers/STM32N6xx_HAL_Driver/Src/stm32n6xx_ll_usb.c ****   count = 0U;
 488:STM32Cube_FW_N6/Drivers/STM32N6xx_HAL_Driver/Src/stm32n6xx_ll_usb.c ****   USBx->GRSTCTL = USB_OTG_GRSTCTL_RXFFLSH;
 489:STM32Cube_FW_N6/Drivers/STM32N6xx_HAL_Driver/Src/stm32n6xx_ll_usb.c **** 
 490:STM32Cube_FW_N6/Drivers/STM32N6xx_HAL_Driver/Src/stm32n6xx_ll_usb.c ****   do
 491:STM32Cube_FW_N6/Drivers/STM32N6xx_HAL_Driver/Src/stm32n6xx_ll_usb.c ****   {
 492:STM32Cube_FW_N6/Drivers/STM32N6xx_HAL_Driver/Src/stm32n6xx_ll_usb.c ****     count++;
 493:STM32Cube_FW_N6/Drivers/STM32N6xx_HAL_Driver/Src/stm32n6xx_ll_usb.c **** 
 494:STM32Cube_FW_N6/Drivers/STM32N6xx_HAL_Driver/Src/stm32n6xx_ll_usb.c ****     if (count > HAL_USB_TIMEOUT)
 495:STM32Cube_FW_N6/Drivers/STM32N6xx_HAL_Driver/Src/stm32n6xx_ll_usb.c ****     {
 496:STM32Cube_FW_N6/Drivers/STM32N6xx_HAL_Driver/Src/stm32n6xx_ll_usb.c ****       return HAL_TIMEOUT;
 497:STM32Cube_FW_N6/Drivers/STM32N6xx_HAL_Driver/Src/stm32n6xx_ll_usb.c ****     }
 498:STM32Cube_FW_N6/Drivers/STM32N6xx_HAL_Driver/Src/stm32n6xx_ll_usb.c ****   } while ((USBx->GRSTCTL & USB_OTG_GRSTCTL_RXFFLSH) == USB_OTG_GRSTCTL_RXFFLSH);
 499:STM32Cube_FW_N6/Drivers/STM32N6xx_HAL_Driver/Src/stm32n6xx_ll_usb.c **** 
 500:STM32Cube_FW_N6/Drivers/STM32N6xx_HAL_Driver/Src/stm32n6xx_ll_usb.c ****   return HAL_OK;
ARM GAS  C:\Users\DJESSOU\AppData\Local\Temp\ccOpSjVg.s 			page 11


 501:STM32Cube_FW_N6/Drivers/STM32N6xx_HAL_Driver/Src/stm32n6xx_ll_usb.c **** }
 502:STM32Cube_FW_N6/Drivers/STM32N6xx_HAL_Driver/Src/stm32n6xx_ll_usb.c **** 
 503:STM32Cube_FW_N6/Drivers/STM32N6xx_HAL_Driver/Src/stm32n6xx_ll_usb.c **** /**
 504:STM32Cube_FW_N6/Drivers/STM32N6xx_HAL_Driver/Src/stm32n6xx_ll_usb.c ****   * @brief  USB_SetDevSpeed  Initializes the DevSpd field of DCFG register
 505:STM32Cube_FW_N6/Drivers/STM32N6xx_HAL_Driver/Src/stm32n6xx_ll_usb.c ****   *         depending the PHY type and the enumeration speed of the device.
 506:STM32Cube_FW_N6/Drivers/STM32N6xx_HAL_Driver/Src/stm32n6xx_ll_usb.c ****   * @param  USBx  Selected device
 507:STM32Cube_FW_N6/Drivers/STM32N6xx_HAL_Driver/Src/stm32n6xx_ll_usb.c ****   * @param  speed  device speed
 508:STM32Cube_FW_N6/Drivers/STM32N6xx_HAL_Driver/Src/stm32n6xx_ll_usb.c ****   *          This parameter can be one of these values:
 509:STM32Cube_FW_N6/Drivers/STM32N6xx_HAL_Driver/Src/stm32n6xx_ll_usb.c ****   *            @arg USB_OTG_SPEED_HIGH: High speed mode
 510:STM32Cube_FW_N6/Drivers/STM32N6xx_HAL_Driver/Src/stm32n6xx_ll_usb.c ****   *            @arg USB_OTG_SPEED_HIGH_IN_FULL: High speed core in Full Speed mode
 511:STM32Cube_FW_N6/Drivers/STM32N6xx_HAL_Driver/Src/stm32n6xx_ll_usb.c ****   *            @arg USB_OTG_SPEED_FULL: Full speed mode
 512:STM32Cube_FW_N6/Drivers/STM32N6xx_HAL_Driver/Src/stm32n6xx_ll_usb.c ****   * @retval  Hal status
 513:STM32Cube_FW_N6/Drivers/STM32N6xx_HAL_Driver/Src/stm32n6xx_ll_usb.c ****   */
 514:STM32Cube_FW_N6/Drivers/STM32N6xx_HAL_Driver/Src/stm32n6xx_ll_usb.c **** HAL_StatusTypeDef USB_SetDevSpeed(const USB_OTG_GlobalTypeDef *USBx, uint8_t speed)
 515:STM32Cube_FW_N6/Drivers/STM32N6xx_HAL_Driver/Src/stm32n6xx_ll_usb.c **** {
 516:STM32Cube_FW_N6/Drivers/STM32N6xx_HAL_Driver/Src/stm32n6xx_ll_usb.c ****   uint32_t USBx_BASE = (uint32_t)USBx;
 517:STM32Cube_FW_N6/Drivers/STM32N6xx_HAL_Driver/Src/stm32n6xx_ll_usb.c **** 
 518:STM32Cube_FW_N6/Drivers/STM32N6xx_HAL_Driver/Src/stm32n6xx_ll_usb.c ****   USBx_DEVICE->DCFG |= speed;
 519:STM32Cube_FW_N6/Drivers/STM32N6xx_HAL_Driver/Src/stm32n6xx_ll_usb.c ****   return HAL_OK;
 520:STM32Cube_FW_N6/Drivers/STM32N6xx_HAL_Driver/Src/stm32n6xx_ll_usb.c **** }
 521:STM32Cube_FW_N6/Drivers/STM32N6xx_HAL_Driver/Src/stm32n6xx_ll_usb.c **** 
 522:STM32Cube_FW_N6/Drivers/STM32N6xx_HAL_Driver/Src/stm32n6xx_ll_usb.c **** /**
 523:STM32Cube_FW_N6/Drivers/STM32N6xx_HAL_Driver/Src/stm32n6xx_ll_usb.c ****   * @brief  USB_GetDevSpeed  Return the Dev Speed
 524:STM32Cube_FW_N6/Drivers/STM32N6xx_HAL_Driver/Src/stm32n6xx_ll_usb.c ****   * @param  USBx  Selected device
 525:STM32Cube_FW_N6/Drivers/STM32N6xx_HAL_Driver/Src/stm32n6xx_ll_usb.c ****   * @retval speed  device speed
 526:STM32Cube_FW_N6/Drivers/STM32N6xx_HAL_Driver/Src/stm32n6xx_ll_usb.c ****   *          This parameter can be one of these values:
 527:STM32Cube_FW_N6/Drivers/STM32N6xx_HAL_Driver/Src/stm32n6xx_ll_usb.c ****   *            @arg USBD_HS_SPEED: High speed mode
 528:STM32Cube_FW_N6/Drivers/STM32N6xx_HAL_Driver/Src/stm32n6xx_ll_usb.c ****   *            @arg USBD_FS_SPEED: Full speed mode
 529:STM32Cube_FW_N6/Drivers/STM32N6xx_HAL_Driver/Src/stm32n6xx_ll_usb.c ****   */
 530:STM32Cube_FW_N6/Drivers/STM32N6xx_HAL_Driver/Src/stm32n6xx_ll_usb.c **** uint8_t USB_GetDevSpeed(const USB_OTG_GlobalTypeDef *USBx)
 531:STM32Cube_FW_N6/Drivers/STM32N6xx_HAL_Driver/Src/stm32n6xx_ll_usb.c **** {
 532:STM32Cube_FW_N6/Drivers/STM32N6xx_HAL_Driver/Src/stm32n6xx_ll_usb.c ****   uint32_t USBx_BASE = (uint32_t)USBx;
 533:STM32Cube_FW_N6/Drivers/STM32N6xx_HAL_Driver/Src/stm32n6xx_ll_usb.c ****   uint8_t speed;
 534:STM32Cube_FW_N6/Drivers/STM32N6xx_HAL_Driver/Src/stm32n6xx_ll_usb.c ****   uint32_t DevEnumSpeed = USBx_DEVICE->DSTS & USB_OTG_DSTS_ENUMSPD;
 535:STM32Cube_FW_N6/Drivers/STM32N6xx_HAL_Driver/Src/stm32n6xx_ll_usb.c **** 
 536:STM32Cube_FW_N6/Drivers/STM32N6xx_HAL_Driver/Src/stm32n6xx_ll_usb.c ****   if (DevEnumSpeed == DSTS_ENUMSPD_HS_PHY_30MHZ_OR_60MHZ)
 537:STM32Cube_FW_N6/Drivers/STM32N6xx_HAL_Driver/Src/stm32n6xx_ll_usb.c ****   {
 538:STM32Cube_FW_N6/Drivers/STM32N6xx_HAL_Driver/Src/stm32n6xx_ll_usb.c ****     speed = USBD_HS_SPEED;
 539:STM32Cube_FW_N6/Drivers/STM32N6xx_HAL_Driver/Src/stm32n6xx_ll_usb.c ****   }
 540:STM32Cube_FW_N6/Drivers/STM32N6xx_HAL_Driver/Src/stm32n6xx_ll_usb.c ****   else if ((DevEnumSpeed == DSTS_ENUMSPD_FS_PHY_30MHZ_OR_60MHZ) ||
 541:STM32Cube_FW_N6/Drivers/STM32N6xx_HAL_Driver/Src/stm32n6xx_ll_usb.c ****            (DevEnumSpeed == DSTS_ENUMSPD_FS_PHY_48MHZ))
 542:STM32Cube_FW_N6/Drivers/STM32N6xx_HAL_Driver/Src/stm32n6xx_ll_usb.c ****   {
 543:STM32Cube_FW_N6/Drivers/STM32N6xx_HAL_Driver/Src/stm32n6xx_ll_usb.c ****     speed = USBD_FS_SPEED;
 544:STM32Cube_FW_N6/Drivers/STM32N6xx_HAL_Driver/Src/stm32n6xx_ll_usb.c ****   }
 545:STM32Cube_FW_N6/Drivers/STM32N6xx_HAL_Driver/Src/stm32n6xx_ll_usb.c ****   else
 546:STM32Cube_FW_N6/Drivers/STM32N6xx_HAL_Driver/Src/stm32n6xx_ll_usb.c ****   {
 547:STM32Cube_FW_N6/Drivers/STM32N6xx_HAL_Driver/Src/stm32n6xx_ll_usb.c ****     speed = 0xFU;
 548:STM32Cube_FW_N6/Drivers/STM32N6xx_HAL_Driver/Src/stm32n6xx_ll_usb.c ****   }
 549:STM32Cube_FW_N6/Drivers/STM32N6xx_HAL_Driver/Src/stm32n6xx_ll_usb.c **** 
 550:STM32Cube_FW_N6/Drivers/STM32N6xx_HAL_Driver/Src/stm32n6xx_ll_usb.c ****   return speed;
 551:STM32Cube_FW_N6/Drivers/STM32N6xx_HAL_Driver/Src/stm32n6xx_ll_usb.c **** }
 552:STM32Cube_FW_N6/Drivers/STM32N6xx_HAL_Driver/Src/stm32n6xx_ll_usb.c **** 
 553:STM32Cube_FW_N6/Drivers/STM32N6xx_HAL_Driver/Src/stm32n6xx_ll_usb.c **** #if defined (HAL_PCD_MODULE_ENABLED)
 554:STM32Cube_FW_N6/Drivers/STM32N6xx_HAL_Driver/Src/stm32n6xx_ll_usb.c **** /**
 555:STM32Cube_FW_N6/Drivers/STM32N6xx_HAL_Driver/Src/stm32n6xx_ll_usb.c ****   * @brief  Activate and configure an endpoint
 556:STM32Cube_FW_N6/Drivers/STM32N6xx_HAL_Driver/Src/stm32n6xx_ll_usb.c ****   * @param  USBx  Selected device
 557:STM32Cube_FW_N6/Drivers/STM32N6xx_HAL_Driver/Src/stm32n6xx_ll_usb.c ****   * @param  ep pointer to endpoint structure
ARM GAS  C:\Users\DJESSOU\AppData\Local\Temp\ccOpSjVg.s 			page 12


 558:STM32Cube_FW_N6/Drivers/STM32N6xx_HAL_Driver/Src/stm32n6xx_ll_usb.c ****   * @retval HAL status
 559:STM32Cube_FW_N6/Drivers/STM32N6xx_HAL_Driver/Src/stm32n6xx_ll_usb.c ****   */
 560:STM32Cube_FW_N6/Drivers/STM32N6xx_HAL_Driver/Src/stm32n6xx_ll_usb.c **** HAL_StatusTypeDef USB_ActivateEndpoint(const USB_OTG_GlobalTypeDef *USBx, const USB_OTG_EPTypeDef *
 561:STM32Cube_FW_N6/Drivers/STM32N6xx_HAL_Driver/Src/stm32n6xx_ll_usb.c **** {
 562:STM32Cube_FW_N6/Drivers/STM32N6xx_HAL_Driver/Src/stm32n6xx_ll_usb.c ****   uint32_t USBx_BASE = (uint32_t)USBx;
 563:STM32Cube_FW_N6/Drivers/STM32N6xx_HAL_Driver/Src/stm32n6xx_ll_usb.c ****   uint32_t epnum = (uint32_t)ep->num;
 564:STM32Cube_FW_N6/Drivers/STM32N6xx_HAL_Driver/Src/stm32n6xx_ll_usb.c **** 
 565:STM32Cube_FW_N6/Drivers/STM32N6xx_HAL_Driver/Src/stm32n6xx_ll_usb.c ****   if (ep->is_in == 1U)
 566:STM32Cube_FW_N6/Drivers/STM32N6xx_HAL_Driver/Src/stm32n6xx_ll_usb.c ****   {
 567:STM32Cube_FW_N6/Drivers/STM32N6xx_HAL_Driver/Src/stm32n6xx_ll_usb.c ****     USBx_DEVICE->DAINTMSK |= USB_OTG_DAINTMSK_IEPM & (uint32_t)(1UL << (ep->num & EP_ADDR_MSK));
 568:STM32Cube_FW_N6/Drivers/STM32N6xx_HAL_Driver/Src/stm32n6xx_ll_usb.c **** 
 569:STM32Cube_FW_N6/Drivers/STM32N6xx_HAL_Driver/Src/stm32n6xx_ll_usb.c ****     if ((USBx_INEP(epnum)->DIEPCTL & USB_OTG_DIEPCTL_USBAEP) == 0U)
 570:STM32Cube_FW_N6/Drivers/STM32N6xx_HAL_Driver/Src/stm32n6xx_ll_usb.c ****     {
 571:STM32Cube_FW_N6/Drivers/STM32N6xx_HAL_Driver/Src/stm32n6xx_ll_usb.c ****       USBx_INEP(epnum)->DIEPCTL |= (ep->maxpacket & USB_OTG_DIEPCTL_MPSIZ) |
 572:STM32Cube_FW_N6/Drivers/STM32N6xx_HAL_Driver/Src/stm32n6xx_ll_usb.c ****                                    ((uint32_t)ep->type << 18) | (epnum << 22) |
 573:STM32Cube_FW_N6/Drivers/STM32N6xx_HAL_Driver/Src/stm32n6xx_ll_usb.c ****                                    USB_OTG_DIEPCTL_SD0PID_SEVNFRM |
 574:STM32Cube_FW_N6/Drivers/STM32N6xx_HAL_Driver/Src/stm32n6xx_ll_usb.c ****                                    USB_OTG_DIEPCTL_USBAEP;
 575:STM32Cube_FW_N6/Drivers/STM32N6xx_HAL_Driver/Src/stm32n6xx_ll_usb.c ****     }
 576:STM32Cube_FW_N6/Drivers/STM32N6xx_HAL_Driver/Src/stm32n6xx_ll_usb.c ****   }
 577:STM32Cube_FW_N6/Drivers/STM32N6xx_HAL_Driver/Src/stm32n6xx_ll_usb.c ****   else
 578:STM32Cube_FW_N6/Drivers/STM32N6xx_HAL_Driver/Src/stm32n6xx_ll_usb.c ****   {
 579:STM32Cube_FW_N6/Drivers/STM32N6xx_HAL_Driver/Src/stm32n6xx_ll_usb.c ****     USBx_DEVICE->DAINTMSK |= USB_OTG_DAINTMSK_OEPM & ((uint32_t)(1UL << (ep->num & EP_ADDR_MSK)) <<
 580:STM32Cube_FW_N6/Drivers/STM32N6xx_HAL_Driver/Src/stm32n6xx_ll_usb.c **** 
 581:STM32Cube_FW_N6/Drivers/STM32N6xx_HAL_Driver/Src/stm32n6xx_ll_usb.c ****     if (((USBx_OUTEP(epnum)->DOEPCTL) & USB_OTG_DOEPCTL_USBAEP) == 0U)
 582:STM32Cube_FW_N6/Drivers/STM32N6xx_HAL_Driver/Src/stm32n6xx_ll_usb.c ****     {
 583:STM32Cube_FW_N6/Drivers/STM32N6xx_HAL_Driver/Src/stm32n6xx_ll_usb.c ****       USBx_OUTEP(epnum)->DOEPCTL |= (ep->maxpacket & USB_OTG_DOEPCTL_MPSIZ) |
 584:STM32Cube_FW_N6/Drivers/STM32N6xx_HAL_Driver/Src/stm32n6xx_ll_usb.c ****                                     ((uint32_t)ep->type << 18) |
 585:STM32Cube_FW_N6/Drivers/STM32N6xx_HAL_Driver/Src/stm32n6xx_ll_usb.c ****                                     USB_OTG_DIEPCTL_SD0PID_SEVNFRM |
 586:STM32Cube_FW_N6/Drivers/STM32N6xx_HAL_Driver/Src/stm32n6xx_ll_usb.c ****                                     USB_OTG_DOEPCTL_USBAEP;
 587:STM32Cube_FW_N6/Drivers/STM32N6xx_HAL_Driver/Src/stm32n6xx_ll_usb.c ****     }
 588:STM32Cube_FW_N6/Drivers/STM32N6xx_HAL_Driver/Src/stm32n6xx_ll_usb.c ****   }
 589:STM32Cube_FW_N6/Drivers/STM32N6xx_HAL_Driver/Src/stm32n6xx_ll_usb.c ****   return HAL_OK;
 590:STM32Cube_FW_N6/Drivers/STM32N6xx_HAL_Driver/Src/stm32n6xx_ll_usb.c **** }
 591:STM32Cube_FW_N6/Drivers/STM32N6xx_HAL_Driver/Src/stm32n6xx_ll_usb.c **** 
 592:STM32Cube_FW_N6/Drivers/STM32N6xx_HAL_Driver/Src/stm32n6xx_ll_usb.c **** /**
 593:STM32Cube_FW_N6/Drivers/STM32N6xx_HAL_Driver/Src/stm32n6xx_ll_usb.c ****   * @brief  Activate and configure a dedicated endpoint
 594:STM32Cube_FW_N6/Drivers/STM32N6xx_HAL_Driver/Src/stm32n6xx_ll_usb.c ****   * @param  USBx  Selected device
 595:STM32Cube_FW_N6/Drivers/STM32N6xx_HAL_Driver/Src/stm32n6xx_ll_usb.c ****   * @param  ep pointer to endpoint structure
 596:STM32Cube_FW_N6/Drivers/STM32N6xx_HAL_Driver/Src/stm32n6xx_ll_usb.c ****   * @retval HAL status
 597:STM32Cube_FW_N6/Drivers/STM32N6xx_HAL_Driver/Src/stm32n6xx_ll_usb.c ****   */
 598:STM32Cube_FW_N6/Drivers/STM32N6xx_HAL_Driver/Src/stm32n6xx_ll_usb.c **** HAL_StatusTypeDef USB_ActivateDedicatedEndpoint(const USB_OTG_GlobalTypeDef *USBx, const USB_OTG_EP
 599:STM32Cube_FW_N6/Drivers/STM32N6xx_HAL_Driver/Src/stm32n6xx_ll_usb.c **** {
 600:STM32Cube_FW_N6/Drivers/STM32N6xx_HAL_Driver/Src/stm32n6xx_ll_usb.c ****   uint32_t USBx_BASE = (uint32_t)USBx;
 601:STM32Cube_FW_N6/Drivers/STM32N6xx_HAL_Driver/Src/stm32n6xx_ll_usb.c ****   uint32_t epnum = (uint32_t)ep->num;
 602:STM32Cube_FW_N6/Drivers/STM32N6xx_HAL_Driver/Src/stm32n6xx_ll_usb.c **** 
 603:STM32Cube_FW_N6/Drivers/STM32N6xx_HAL_Driver/Src/stm32n6xx_ll_usb.c ****   /* Read DEPCTLn register */
 604:STM32Cube_FW_N6/Drivers/STM32N6xx_HAL_Driver/Src/stm32n6xx_ll_usb.c ****   if (ep->is_in == 1U)
 605:STM32Cube_FW_N6/Drivers/STM32N6xx_HAL_Driver/Src/stm32n6xx_ll_usb.c ****   {
 606:STM32Cube_FW_N6/Drivers/STM32N6xx_HAL_Driver/Src/stm32n6xx_ll_usb.c ****     if (((USBx_INEP(epnum)->DIEPCTL) & USB_OTG_DIEPCTL_USBAEP) == 0U)
 607:STM32Cube_FW_N6/Drivers/STM32N6xx_HAL_Driver/Src/stm32n6xx_ll_usb.c ****     {
 608:STM32Cube_FW_N6/Drivers/STM32N6xx_HAL_Driver/Src/stm32n6xx_ll_usb.c ****       USBx_INEP(epnum)->DIEPCTL |= (ep->maxpacket & USB_OTG_DIEPCTL_MPSIZ) |
 609:STM32Cube_FW_N6/Drivers/STM32N6xx_HAL_Driver/Src/stm32n6xx_ll_usb.c ****                                    ((uint32_t)ep->type << 18) | (epnum << 22) |
 610:STM32Cube_FW_N6/Drivers/STM32N6xx_HAL_Driver/Src/stm32n6xx_ll_usb.c ****                                    USB_OTG_DIEPCTL_SD0PID_SEVNFRM |
 611:STM32Cube_FW_N6/Drivers/STM32N6xx_HAL_Driver/Src/stm32n6xx_ll_usb.c ****                                    USB_OTG_DIEPCTL_USBAEP;
 612:STM32Cube_FW_N6/Drivers/STM32N6xx_HAL_Driver/Src/stm32n6xx_ll_usb.c ****     }
 613:STM32Cube_FW_N6/Drivers/STM32N6xx_HAL_Driver/Src/stm32n6xx_ll_usb.c **** 
 614:STM32Cube_FW_N6/Drivers/STM32N6xx_HAL_Driver/Src/stm32n6xx_ll_usb.c ****     USBx_DEVICE->DEACHMSK |= USB_OTG_DAINTMSK_IEPM & (uint32_t)(1UL << (ep->num & EP_ADDR_MSK));
ARM GAS  C:\Users\DJESSOU\AppData\Local\Temp\ccOpSjVg.s 			page 13


 615:STM32Cube_FW_N6/Drivers/STM32N6xx_HAL_Driver/Src/stm32n6xx_ll_usb.c ****   }
 616:STM32Cube_FW_N6/Drivers/STM32N6xx_HAL_Driver/Src/stm32n6xx_ll_usb.c ****   else
 617:STM32Cube_FW_N6/Drivers/STM32N6xx_HAL_Driver/Src/stm32n6xx_ll_usb.c ****   {
 618:STM32Cube_FW_N6/Drivers/STM32N6xx_HAL_Driver/Src/stm32n6xx_ll_usb.c ****     if (((USBx_OUTEP(epnum)->DOEPCTL) & USB_OTG_DOEPCTL_USBAEP) == 0U)
 619:STM32Cube_FW_N6/Drivers/STM32N6xx_HAL_Driver/Src/stm32n6xx_ll_usb.c ****     {
 620:STM32Cube_FW_N6/Drivers/STM32N6xx_HAL_Driver/Src/stm32n6xx_ll_usb.c ****       USBx_OUTEP(epnum)->DOEPCTL |= (ep->maxpacket & USB_OTG_DOEPCTL_MPSIZ) |
 621:STM32Cube_FW_N6/Drivers/STM32N6xx_HAL_Driver/Src/stm32n6xx_ll_usb.c ****                                     ((uint32_t)ep->type << 18) | (epnum << 22) |
 622:STM32Cube_FW_N6/Drivers/STM32N6xx_HAL_Driver/Src/stm32n6xx_ll_usb.c ****                                     USB_OTG_DOEPCTL_USBAEP;
 623:STM32Cube_FW_N6/Drivers/STM32N6xx_HAL_Driver/Src/stm32n6xx_ll_usb.c ****     }
 624:STM32Cube_FW_N6/Drivers/STM32N6xx_HAL_Driver/Src/stm32n6xx_ll_usb.c **** 
 625:STM32Cube_FW_N6/Drivers/STM32N6xx_HAL_Driver/Src/stm32n6xx_ll_usb.c ****     USBx_DEVICE->DEACHMSK |= USB_OTG_DAINTMSK_OEPM & ((uint32_t)(1UL << (ep->num & EP_ADDR_MSK)) <<
 626:STM32Cube_FW_N6/Drivers/STM32N6xx_HAL_Driver/Src/stm32n6xx_ll_usb.c ****   }
 627:STM32Cube_FW_N6/Drivers/STM32N6xx_HAL_Driver/Src/stm32n6xx_ll_usb.c **** 
 628:STM32Cube_FW_N6/Drivers/STM32N6xx_HAL_Driver/Src/stm32n6xx_ll_usb.c ****   return HAL_OK;
 629:STM32Cube_FW_N6/Drivers/STM32N6xx_HAL_Driver/Src/stm32n6xx_ll_usb.c **** }
 630:STM32Cube_FW_N6/Drivers/STM32N6xx_HAL_Driver/Src/stm32n6xx_ll_usb.c **** 
 631:STM32Cube_FW_N6/Drivers/STM32N6xx_HAL_Driver/Src/stm32n6xx_ll_usb.c **** /**
 632:STM32Cube_FW_N6/Drivers/STM32N6xx_HAL_Driver/Src/stm32n6xx_ll_usb.c ****   * @brief  De-activate and de-initialize an endpoint
 633:STM32Cube_FW_N6/Drivers/STM32N6xx_HAL_Driver/Src/stm32n6xx_ll_usb.c ****   * @param  USBx  Selected device
 634:STM32Cube_FW_N6/Drivers/STM32N6xx_HAL_Driver/Src/stm32n6xx_ll_usb.c ****   * @param  ep pointer to endpoint structure
 635:STM32Cube_FW_N6/Drivers/STM32N6xx_HAL_Driver/Src/stm32n6xx_ll_usb.c ****   * @retval HAL status
 636:STM32Cube_FW_N6/Drivers/STM32N6xx_HAL_Driver/Src/stm32n6xx_ll_usb.c ****   */
 637:STM32Cube_FW_N6/Drivers/STM32N6xx_HAL_Driver/Src/stm32n6xx_ll_usb.c **** HAL_StatusTypeDef USB_DeactivateEndpoint(const USB_OTG_GlobalTypeDef *USBx, const USB_OTG_EPTypeDef
 638:STM32Cube_FW_N6/Drivers/STM32N6xx_HAL_Driver/Src/stm32n6xx_ll_usb.c **** {
 639:STM32Cube_FW_N6/Drivers/STM32N6xx_HAL_Driver/Src/stm32n6xx_ll_usb.c ****   uint32_t USBx_BASE = (uint32_t)USBx;
 640:STM32Cube_FW_N6/Drivers/STM32N6xx_HAL_Driver/Src/stm32n6xx_ll_usb.c ****   uint32_t epnum = (uint32_t)ep->num;
 641:STM32Cube_FW_N6/Drivers/STM32N6xx_HAL_Driver/Src/stm32n6xx_ll_usb.c **** 
 642:STM32Cube_FW_N6/Drivers/STM32N6xx_HAL_Driver/Src/stm32n6xx_ll_usb.c ****   /* Read DEPCTLn register */
 643:STM32Cube_FW_N6/Drivers/STM32N6xx_HAL_Driver/Src/stm32n6xx_ll_usb.c ****   if (ep->is_in == 1U)
 644:STM32Cube_FW_N6/Drivers/STM32N6xx_HAL_Driver/Src/stm32n6xx_ll_usb.c ****   {
 645:STM32Cube_FW_N6/Drivers/STM32N6xx_HAL_Driver/Src/stm32n6xx_ll_usb.c ****     if ((USBx_INEP(epnum)->DIEPCTL & USB_OTG_DIEPCTL_EPENA) == USB_OTG_DIEPCTL_EPENA)
 646:STM32Cube_FW_N6/Drivers/STM32N6xx_HAL_Driver/Src/stm32n6xx_ll_usb.c ****     {
 647:STM32Cube_FW_N6/Drivers/STM32N6xx_HAL_Driver/Src/stm32n6xx_ll_usb.c ****       USBx_INEP(epnum)->DIEPCTL |= USB_OTG_DIEPCTL_SNAK;
 648:STM32Cube_FW_N6/Drivers/STM32N6xx_HAL_Driver/Src/stm32n6xx_ll_usb.c ****       USBx_INEP(epnum)->DIEPCTL |= USB_OTG_DIEPCTL_EPDIS;
 649:STM32Cube_FW_N6/Drivers/STM32N6xx_HAL_Driver/Src/stm32n6xx_ll_usb.c ****     }
 650:STM32Cube_FW_N6/Drivers/STM32N6xx_HAL_Driver/Src/stm32n6xx_ll_usb.c **** 
 651:STM32Cube_FW_N6/Drivers/STM32N6xx_HAL_Driver/Src/stm32n6xx_ll_usb.c ****     USBx_DEVICE->DEACHMSK &= ~(USB_OTG_DAINTMSK_IEPM & (uint32_t)(1UL << (ep->num & EP_ADDR_MSK)));
 652:STM32Cube_FW_N6/Drivers/STM32N6xx_HAL_Driver/Src/stm32n6xx_ll_usb.c ****     USBx_DEVICE->DAINTMSK &= ~(USB_OTG_DAINTMSK_IEPM & (uint32_t)(1UL << (ep->num & EP_ADDR_MSK)));
 653:STM32Cube_FW_N6/Drivers/STM32N6xx_HAL_Driver/Src/stm32n6xx_ll_usb.c ****     USBx_INEP(epnum)->DIEPCTL &= ~(USB_OTG_DIEPCTL_USBAEP |
 654:STM32Cube_FW_N6/Drivers/STM32N6xx_HAL_Driver/Src/stm32n6xx_ll_usb.c ****                                    USB_OTG_DIEPCTL_MPSIZ |
 655:STM32Cube_FW_N6/Drivers/STM32N6xx_HAL_Driver/Src/stm32n6xx_ll_usb.c ****                                    USB_OTG_DIEPCTL_TXFNUM |
 656:STM32Cube_FW_N6/Drivers/STM32N6xx_HAL_Driver/Src/stm32n6xx_ll_usb.c ****                                    USB_OTG_DIEPCTL_SD0PID_SEVNFRM |
 657:STM32Cube_FW_N6/Drivers/STM32N6xx_HAL_Driver/Src/stm32n6xx_ll_usb.c ****                                    USB_OTG_DIEPCTL_EPTYP);
 658:STM32Cube_FW_N6/Drivers/STM32N6xx_HAL_Driver/Src/stm32n6xx_ll_usb.c ****   }
 659:STM32Cube_FW_N6/Drivers/STM32N6xx_HAL_Driver/Src/stm32n6xx_ll_usb.c ****   else
 660:STM32Cube_FW_N6/Drivers/STM32N6xx_HAL_Driver/Src/stm32n6xx_ll_usb.c ****   {
 661:STM32Cube_FW_N6/Drivers/STM32N6xx_HAL_Driver/Src/stm32n6xx_ll_usb.c ****     if ((USBx_OUTEP(epnum)->DOEPCTL & USB_OTG_DOEPCTL_EPENA) == USB_OTG_DOEPCTL_EPENA)
 662:STM32Cube_FW_N6/Drivers/STM32N6xx_HAL_Driver/Src/stm32n6xx_ll_usb.c ****     {
 663:STM32Cube_FW_N6/Drivers/STM32N6xx_HAL_Driver/Src/stm32n6xx_ll_usb.c ****       USBx_OUTEP(epnum)->DOEPCTL |= USB_OTG_DOEPCTL_SNAK;
 664:STM32Cube_FW_N6/Drivers/STM32N6xx_HAL_Driver/Src/stm32n6xx_ll_usb.c ****       USBx_OUTEP(epnum)->DOEPCTL |= USB_OTG_DOEPCTL_EPDIS;
 665:STM32Cube_FW_N6/Drivers/STM32N6xx_HAL_Driver/Src/stm32n6xx_ll_usb.c ****     }
 666:STM32Cube_FW_N6/Drivers/STM32N6xx_HAL_Driver/Src/stm32n6xx_ll_usb.c **** 
 667:STM32Cube_FW_N6/Drivers/STM32N6xx_HAL_Driver/Src/stm32n6xx_ll_usb.c ****     USBx_DEVICE->DEACHMSK &= ~(USB_OTG_DAINTMSK_OEPM & ((uint32_t)(1UL << (ep->num & EP_ADDR_MSK)) 
 668:STM32Cube_FW_N6/Drivers/STM32N6xx_HAL_Driver/Src/stm32n6xx_ll_usb.c ****     USBx_DEVICE->DAINTMSK &= ~(USB_OTG_DAINTMSK_OEPM & ((uint32_t)(1UL << (ep->num & EP_ADDR_MSK)) 
 669:STM32Cube_FW_N6/Drivers/STM32N6xx_HAL_Driver/Src/stm32n6xx_ll_usb.c ****     USBx_OUTEP(epnum)->DOEPCTL &= ~(USB_OTG_DOEPCTL_USBAEP |
 670:STM32Cube_FW_N6/Drivers/STM32N6xx_HAL_Driver/Src/stm32n6xx_ll_usb.c ****                                     USB_OTG_DOEPCTL_MPSIZ |
 671:STM32Cube_FW_N6/Drivers/STM32N6xx_HAL_Driver/Src/stm32n6xx_ll_usb.c ****                                     USB_OTG_DOEPCTL_SD0PID_SEVNFRM |
ARM GAS  C:\Users\DJESSOU\AppData\Local\Temp\ccOpSjVg.s 			page 14


 672:STM32Cube_FW_N6/Drivers/STM32N6xx_HAL_Driver/Src/stm32n6xx_ll_usb.c ****                                     USB_OTG_DOEPCTL_EPTYP);
 673:STM32Cube_FW_N6/Drivers/STM32N6xx_HAL_Driver/Src/stm32n6xx_ll_usb.c ****   }
 674:STM32Cube_FW_N6/Drivers/STM32N6xx_HAL_Driver/Src/stm32n6xx_ll_usb.c **** 
 675:STM32Cube_FW_N6/Drivers/STM32N6xx_HAL_Driver/Src/stm32n6xx_ll_usb.c ****   return HAL_OK;
 676:STM32Cube_FW_N6/Drivers/STM32N6xx_HAL_Driver/Src/stm32n6xx_ll_usb.c **** }
 677:STM32Cube_FW_N6/Drivers/STM32N6xx_HAL_Driver/Src/stm32n6xx_ll_usb.c **** 
 678:STM32Cube_FW_N6/Drivers/STM32N6xx_HAL_Driver/Src/stm32n6xx_ll_usb.c **** /**
 679:STM32Cube_FW_N6/Drivers/STM32N6xx_HAL_Driver/Src/stm32n6xx_ll_usb.c ****   * @brief  De-activate and de-initialize a dedicated endpoint
 680:STM32Cube_FW_N6/Drivers/STM32N6xx_HAL_Driver/Src/stm32n6xx_ll_usb.c ****   * @param  USBx  Selected device
 681:STM32Cube_FW_N6/Drivers/STM32N6xx_HAL_Driver/Src/stm32n6xx_ll_usb.c ****   * @param  ep pointer to endpoint structure
 682:STM32Cube_FW_N6/Drivers/STM32N6xx_HAL_Driver/Src/stm32n6xx_ll_usb.c ****   * @retval HAL status
 683:STM32Cube_FW_N6/Drivers/STM32N6xx_HAL_Driver/Src/stm32n6xx_ll_usb.c ****   */
 684:STM32Cube_FW_N6/Drivers/STM32N6xx_HAL_Driver/Src/stm32n6xx_ll_usb.c **** HAL_StatusTypeDef USB_DeactivateDedicatedEndpoint(const USB_OTG_GlobalTypeDef *USBx, const USB_OTG_
 685:STM32Cube_FW_N6/Drivers/STM32N6xx_HAL_Driver/Src/stm32n6xx_ll_usb.c **** {
 686:STM32Cube_FW_N6/Drivers/STM32N6xx_HAL_Driver/Src/stm32n6xx_ll_usb.c ****   uint32_t USBx_BASE = (uint32_t)USBx;
 687:STM32Cube_FW_N6/Drivers/STM32N6xx_HAL_Driver/Src/stm32n6xx_ll_usb.c ****   uint32_t epnum = (uint32_t)ep->num;
 688:STM32Cube_FW_N6/Drivers/STM32N6xx_HAL_Driver/Src/stm32n6xx_ll_usb.c **** 
 689:STM32Cube_FW_N6/Drivers/STM32N6xx_HAL_Driver/Src/stm32n6xx_ll_usb.c ****   /* Read DEPCTLn register */
 690:STM32Cube_FW_N6/Drivers/STM32N6xx_HAL_Driver/Src/stm32n6xx_ll_usb.c ****   if (ep->is_in == 1U)
 691:STM32Cube_FW_N6/Drivers/STM32N6xx_HAL_Driver/Src/stm32n6xx_ll_usb.c ****   {
 692:STM32Cube_FW_N6/Drivers/STM32N6xx_HAL_Driver/Src/stm32n6xx_ll_usb.c ****     if ((USBx_INEP(epnum)->DIEPCTL & USB_OTG_DIEPCTL_EPENA) == USB_OTG_DIEPCTL_EPENA)
 693:STM32Cube_FW_N6/Drivers/STM32N6xx_HAL_Driver/Src/stm32n6xx_ll_usb.c ****     {
 694:STM32Cube_FW_N6/Drivers/STM32N6xx_HAL_Driver/Src/stm32n6xx_ll_usb.c ****       USBx_INEP(epnum)->DIEPCTL  |= USB_OTG_DIEPCTL_SNAK;
 695:STM32Cube_FW_N6/Drivers/STM32N6xx_HAL_Driver/Src/stm32n6xx_ll_usb.c ****       USBx_INEP(epnum)->DIEPCTL  |= USB_OTG_DIEPCTL_EPDIS;
 696:STM32Cube_FW_N6/Drivers/STM32N6xx_HAL_Driver/Src/stm32n6xx_ll_usb.c ****     }
 697:STM32Cube_FW_N6/Drivers/STM32N6xx_HAL_Driver/Src/stm32n6xx_ll_usb.c **** 
 698:STM32Cube_FW_N6/Drivers/STM32N6xx_HAL_Driver/Src/stm32n6xx_ll_usb.c ****     USBx_INEP(epnum)->DIEPCTL &= ~ USB_OTG_DIEPCTL_USBAEP;
 699:STM32Cube_FW_N6/Drivers/STM32N6xx_HAL_Driver/Src/stm32n6xx_ll_usb.c ****     USBx_DEVICE->DAINTMSK &= ~(USB_OTG_DAINTMSK_IEPM & (uint32_t)(1UL << (ep->num & EP_ADDR_MSK)));
 700:STM32Cube_FW_N6/Drivers/STM32N6xx_HAL_Driver/Src/stm32n6xx_ll_usb.c ****   }
 701:STM32Cube_FW_N6/Drivers/STM32N6xx_HAL_Driver/Src/stm32n6xx_ll_usb.c ****   else
 702:STM32Cube_FW_N6/Drivers/STM32N6xx_HAL_Driver/Src/stm32n6xx_ll_usb.c ****   {
 703:STM32Cube_FW_N6/Drivers/STM32N6xx_HAL_Driver/Src/stm32n6xx_ll_usb.c ****     if ((USBx_OUTEP(epnum)->DOEPCTL & USB_OTG_DOEPCTL_EPENA) == USB_OTG_DOEPCTL_EPENA)
 704:STM32Cube_FW_N6/Drivers/STM32N6xx_HAL_Driver/Src/stm32n6xx_ll_usb.c ****     {
 705:STM32Cube_FW_N6/Drivers/STM32N6xx_HAL_Driver/Src/stm32n6xx_ll_usb.c ****       USBx_OUTEP(epnum)->DOEPCTL  |= USB_OTG_DOEPCTL_SNAK;
 706:STM32Cube_FW_N6/Drivers/STM32N6xx_HAL_Driver/Src/stm32n6xx_ll_usb.c ****       USBx_OUTEP(epnum)->DOEPCTL  |= USB_OTG_DOEPCTL_EPDIS;
 707:STM32Cube_FW_N6/Drivers/STM32N6xx_HAL_Driver/Src/stm32n6xx_ll_usb.c ****     }
 708:STM32Cube_FW_N6/Drivers/STM32N6xx_HAL_Driver/Src/stm32n6xx_ll_usb.c **** 
 709:STM32Cube_FW_N6/Drivers/STM32N6xx_HAL_Driver/Src/stm32n6xx_ll_usb.c ****     USBx_OUTEP(epnum)->DOEPCTL &= ~USB_OTG_DOEPCTL_USBAEP;
 710:STM32Cube_FW_N6/Drivers/STM32N6xx_HAL_Driver/Src/stm32n6xx_ll_usb.c ****     USBx_DEVICE->DAINTMSK &= ~(USB_OTG_DAINTMSK_OEPM & ((uint32_t)(1UL << (ep->num & EP_ADDR_MSK)) 
 711:STM32Cube_FW_N6/Drivers/STM32N6xx_HAL_Driver/Src/stm32n6xx_ll_usb.c ****   }
 712:STM32Cube_FW_N6/Drivers/STM32N6xx_HAL_Driver/Src/stm32n6xx_ll_usb.c **** 
 713:STM32Cube_FW_N6/Drivers/STM32N6xx_HAL_Driver/Src/stm32n6xx_ll_usb.c ****   return HAL_OK;
 714:STM32Cube_FW_N6/Drivers/STM32N6xx_HAL_Driver/Src/stm32n6xx_ll_usb.c **** }
 715:STM32Cube_FW_N6/Drivers/STM32N6xx_HAL_Driver/Src/stm32n6xx_ll_usb.c **** 
 716:STM32Cube_FW_N6/Drivers/STM32N6xx_HAL_Driver/Src/stm32n6xx_ll_usb.c **** /**
 717:STM32Cube_FW_N6/Drivers/STM32N6xx_HAL_Driver/Src/stm32n6xx_ll_usb.c ****   * @brief  USB_EPStartXfer : setup and starts a transfer over an EP
 718:STM32Cube_FW_N6/Drivers/STM32N6xx_HAL_Driver/Src/stm32n6xx_ll_usb.c ****   * @param  USBx  Selected device
 719:STM32Cube_FW_N6/Drivers/STM32N6xx_HAL_Driver/Src/stm32n6xx_ll_usb.c ****   * @param  ep pointer to endpoint structure
 720:STM32Cube_FW_N6/Drivers/STM32N6xx_HAL_Driver/Src/stm32n6xx_ll_usb.c ****   * @param  dma USB dma enabled or disabled
 721:STM32Cube_FW_N6/Drivers/STM32N6xx_HAL_Driver/Src/stm32n6xx_ll_usb.c ****   *          This parameter can be one of these values:
 722:STM32Cube_FW_N6/Drivers/STM32N6xx_HAL_Driver/Src/stm32n6xx_ll_usb.c ****   *           0 : DMA feature not used
 723:STM32Cube_FW_N6/Drivers/STM32N6xx_HAL_Driver/Src/stm32n6xx_ll_usb.c ****   *           1 : DMA feature used
 724:STM32Cube_FW_N6/Drivers/STM32N6xx_HAL_Driver/Src/stm32n6xx_ll_usb.c ****   * @retval HAL status
 725:STM32Cube_FW_N6/Drivers/STM32N6xx_HAL_Driver/Src/stm32n6xx_ll_usb.c ****   */
 726:STM32Cube_FW_N6/Drivers/STM32N6xx_HAL_Driver/Src/stm32n6xx_ll_usb.c **** HAL_StatusTypeDef USB_EPStartXfer(USB_OTG_GlobalTypeDef *USBx, USB_OTG_EPTypeDef *ep, uint8_t dma)
 727:STM32Cube_FW_N6/Drivers/STM32N6xx_HAL_Driver/Src/stm32n6xx_ll_usb.c **** {
 728:STM32Cube_FW_N6/Drivers/STM32N6xx_HAL_Driver/Src/stm32n6xx_ll_usb.c ****   uint32_t USBx_BASE = (uint32_t)USBx;
ARM GAS  C:\Users\DJESSOU\AppData\Local\Temp\ccOpSjVg.s 			page 15


 729:STM32Cube_FW_N6/Drivers/STM32N6xx_HAL_Driver/Src/stm32n6xx_ll_usb.c ****   uint32_t epnum = (uint32_t)ep->num;
 730:STM32Cube_FW_N6/Drivers/STM32N6xx_HAL_Driver/Src/stm32n6xx_ll_usb.c ****   uint16_t pktcnt;
 731:STM32Cube_FW_N6/Drivers/STM32N6xx_HAL_Driver/Src/stm32n6xx_ll_usb.c **** 
 732:STM32Cube_FW_N6/Drivers/STM32N6xx_HAL_Driver/Src/stm32n6xx_ll_usb.c ****   /* IN endpoint */
 733:STM32Cube_FW_N6/Drivers/STM32N6xx_HAL_Driver/Src/stm32n6xx_ll_usb.c ****   if (ep->is_in == 1U)
 734:STM32Cube_FW_N6/Drivers/STM32N6xx_HAL_Driver/Src/stm32n6xx_ll_usb.c ****   {
 735:STM32Cube_FW_N6/Drivers/STM32N6xx_HAL_Driver/Src/stm32n6xx_ll_usb.c ****     /* Zero Length Packet? */
 736:STM32Cube_FW_N6/Drivers/STM32N6xx_HAL_Driver/Src/stm32n6xx_ll_usb.c ****     if (ep->xfer_len == 0U)
 737:STM32Cube_FW_N6/Drivers/STM32N6xx_HAL_Driver/Src/stm32n6xx_ll_usb.c ****     {
 738:STM32Cube_FW_N6/Drivers/STM32N6xx_HAL_Driver/Src/stm32n6xx_ll_usb.c ****       USBx_INEP(epnum)->DIEPTSIZ &= ~(USB_OTG_DIEPTSIZ_PKTCNT);
 739:STM32Cube_FW_N6/Drivers/STM32N6xx_HAL_Driver/Src/stm32n6xx_ll_usb.c ****       USBx_INEP(epnum)->DIEPTSIZ |= (USB_OTG_DIEPTSIZ_PKTCNT & (1UL << 19));
 740:STM32Cube_FW_N6/Drivers/STM32N6xx_HAL_Driver/Src/stm32n6xx_ll_usb.c ****       USBx_INEP(epnum)->DIEPTSIZ &= ~(USB_OTG_DIEPTSIZ_XFRSIZ);
 741:STM32Cube_FW_N6/Drivers/STM32N6xx_HAL_Driver/Src/stm32n6xx_ll_usb.c ****     }
 742:STM32Cube_FW_N6/Drivers/STM32N6xx_HAL_Driver/Src/stm32n6xx_ll_usb.c ****     else
 743:STM32Cube_FW_N6/Drivers/STM32N6xx_HAL_Driver/Src/stm32n6xx_ll_usb.c ****     {
 744:STM32Cube_FW_N6/Drivers/STM32N6xx_HAL_Driver/Src/stm32n6xx_ll_usb.c ****       /* Program the transfer size and packet count
 745:STM32Cube_FW_N6/Drivers/STM32N6xx_HAL_Driver/Src/stm32n6xx_ll_usb.c ****       * as follows: xfersize = N * maxpacket +
 746:STM32Cube_FW_N6/Drivers/STM32N6xx_HAL_Driver/Src/stm32n6xx_ll_usb.c ****       * short_packet pktcnt = N + (short_packet
 747:STM32Cube_FW_N6/Drivers/STM32N6xx_HAL_Driver/Src/stm32n6xx_ll_usb.c ****       * exist ? 1 : 0)
 748:STM32Cube_FW_N6/Drivers/STM32N6xx_HAL_Driver/Src/stm32n6xx_ll_usb.c ****       */
 749:STM32Cube_FW_N6/Drivers/STM32N6xx_HAL_Driver/Src/stm32n6xx_ll_usb.c ****       USBx_INEP(epnum)->DIEPTSIZ &= ~(USB_OTG_DIEPTSIZ_XFRSIZ);
 750:STM32Cube_FW_N6/Drivers/STM32N6xx_HAL_Driver/Src/stm32n6xx_ll_usb.c ****       USBx_INEP(epnum)->DIEPTSIZ &= ~(USB_OTG_DIEPTSIZ_PKTCNT);
 751:STM32Cube_FW_N6/Drivers/STM32N6xx_HAL_Driver/Src/stm32n6xx_ll_usb.c **** 
 752:STM32Cube_FW_N6/Drivers/STM32N6xx_HAL_Driver/Src/stm32n6xx_ll_usb.c ****       if (epnum == 0U)
 753:STM32Cube_FW_N6/Drivers/STM32N6xx_HAL_Driver/Src/stm32n6xx_ll_usb.c ****       {
 754:STM32Cube_FW_N6/Drivers/STM32N6xx_HAL_Driver/Src/stm32n6xx_ll_usb.c ****         if (ep->xfer_len > ep->maxpacket)
 755:STM32Cube_FW_N6/Drivers/STM32N6xx_HAL_Driver/Src/stm32n6xx_ll_usb.c ****         {
 756:STM32Cube_FW_N6/Drivers/STM32N6xx_HAL_Driver/Src/stm32n6xx_ll_usb.c ****           ep->xfer_len = ep->maxpacket;
 757:STM32Cube_FW_N6/Drivers/STM32N6xx_HAL_Driver/Src/stm32n6xx_ll_usb.c ****         }
 758:STM32Cube_FW_N6/Drivers/STM32N6xx_HAL_Driver/Src/stm32n6xx_ll_usb.c **** 
 759:STM32Cube_FW_N6/Drivers/STM32N6xx_HAL_Driver/Src/stm32n6xx_ll_usb.c ****         USBx_INEP(epnum)->DIEPTSIZ |= (USB_OTG_DIEPTSIZ_PKTCNT & (1UL << 19));
 760:STM32Cube_FW_N6/Drivers/STM32N6xx_HAL_Driver/Src/stm32n6xx_ll_usb.c ****       }
 761:STM32Cube_FW_N6/Drivers/STM32N6xx_HAL_Driver/Src/stm32n6xx_ll_usb.c ****       else
 762:STM32Cube_FW_N6/Drivers/STM32N6xx_HAL_Driver/Src/stm32n6xx_ll_usb.c ****       {
 763:STM32Cube_FW_N6/Drivers/STM32N6xx_HAL_Driver/Src/stm32n6xx_ll_usb.c ****         pktcnt = (uint16_t)((ep->xfer_len + ep->maxpacket - 1U) / ep->maxpacket);
 764:STM32Cube_FW_N6/Drivers/STM32N6xx_HAL_Driver/Src/stm32n6xx_ll_usb.c ****         USBx_INEP(epnum)->DIEPTSIZ |= (USB_OTG_DIEPTSIZ_PKTCNT & ((uint32_t)pktcnt << 19));
 765:STM32Cube_FW_N6/Drivers/STM32N6xx_HAL_Driver/Src/stm32n6xx_ll_usb.c **** 
 766:STM32Cube_FW_N6/Drivers/STM32N6xx_HAL_Driver/Src/stm32n6xx_ll_usb.c ****         if (ep->type == EP_TYPE_ISOC)
 767:STM32Cube_FW_N6/Drivers/STM32N6xx_HAL_Driver/Src/stm32n6xx_ll_usb.c ****         {
 768:STM32Cube_FW_N6/Drivers/STM32N6xx_HAL_Driver/Src/stm32n6xx_ll_usb.c ****           USBx_INEP(epnum)->DIEPTSIZ &= ~(USB_OTG_DIEPTSIZ_MULCNT);
 769:STM32Cube_FW_N6/Drivers/STM32N6xx_HAL_Driver/Src/stm32n6xx_ll_usb.c ****           USBx_INEP(epnum)->DIEPTSIZ |= (USB_OTG_DIEPTSIZ_MULCNT & ((uint32_t)pktcnt << 29));
 770:STM32Cube_FW_N6/Drivers/STM32N6xx_HAL_Driver/Src/stm32n6xx_ll_usb.c ****         }
 771:STM32Cube_FW_N6/Drivers/STM32N6xx_HAL_Driver/Src/stm32n6xx_ll_usb.c ****       }
 772:STM32Cube_FW_N6/Drivers/STM32N6xx_HAL_Driver/Src/stm32n6xx_ll_usb.c **** 
 773:STM32Cube_FW_N6/Drivers/STM32N6xx_HAL_Driver/Src/stm32n6xx_ll_usb.c ****       USBx_INEP(epnum)->DIEPTSIZ |= (USB_OTG_DIEPTSIZ_XFRSIZ & ep->xfer_len);
 774:STM32Cube_FW_N6/Drivers/STM32N6xx_HAL_Driver/Src/stm32n6xx_ll_usb.c ****     }
 775:STM32Cube_FW_N6/Drivers/STM32N6xx_HAL_Driver/Src/stm32n6xx_ll_usb.c **** 
 776:STM32Cube_FW_N6/Drivers/STM32N6xx_HAL_Driver/Src/stm32n6xx_ll_usb.c ****     if (dma == 1U)
 777:STM32Cube_FW_N6/Drivers/STM32N6xx_HAL_Driver/Src/stm32n6xx_ll_usb.c ****     {
 778:STM32Cube_FW_N6/Drivers/STM32N6xx_HAL_Driver/Src/stm32n6xx_ll_usb.c ****       if ((uint32_t)ep->dma_addr != 0U)
 779:STM32Cube_FW_N6/Drivers/STM32N6xx_HAL_Driver/Src/stm32n6xx_ll_usb.c ****       {
 780:STM32Cube_FW_N6/Drivers/STM32N6xx_HAL_Driver/Src/stm32n6xx_ll_usb.c ****         USBx_INEP(epnum)->DIEPDMA = (uint32_t)(ep->dma_addr);
 781:STM32Cube_FW_N6/Drivers/STM32N6xx_HAL_Driver/Src/stm32n6xx_ll_usb.c ****       }
 782:STM32Cube_FW_N6/Drivers/STM32N6xx_HAL_Driver/Src/stm32n6xx_ll_usb.c **** 
 783:STM32Cube_FW_N6/Drivers/STM32N6xx_HAL_Driver/Src/stm32n6xx_ll_usb.c ****       if (ep->type == EP_TYPE_ISOC)
 784:STM32Cube_FW_N6/Drivers/STM32N6xx_HAL_Driver/Src/stm32n6xx_ll_usb.c ****       {
 785:STM32Cube_FW_N6/Drivers/STM32N6xx_HAL_Driver/Src/stm32n6xx_ll_usb.c ****         if ((USBx_DEVICE->DSTS & (1UL << 8)) == 0U)
ARM GAS  C:\Users\DJESSOU\AppData\Local\Temp\ccOpSjVg.s 			page 16


 786:STM32Cube_FW_N6/Drivers/STM32N6xx_HAL_Driver/Src/stm32n6xx_ll_usb.c ****         {
 787:STM32Cube_FW_N6/Drivers/STM32N6xx_HAL_Driver/Src/stm32n6xx_ll_usb.c ****           USBx_INEP(epnum)->DIEPCTL |= USB_OTG_DIEPCTL_SODDFRM;
 788:STM32Cube_FW_N6/Drivers/STM32N6xx_HAL_Driver/Src/stm32n6xx_ll_usb.c ****         }
 789:STM32Cube_FW_N6/Drivers/STM32N6xx_HAL_Driver/Src/stm32n6xx_ll_usb.c ****         else
 790:STM32Cube_FW_N6/Drivers/STM32N6xx_HAL_Driver/Src/stm32n6xx_ll_usb.c ****         {
 791:STM32Cube_FW_N6/Drivers/STM32N6xx_HAL_Driver/Src/stm32n6xx_ll_usb.c ****           USBx_INEP(epnum)->DIEPCTL |= USB_OTG_DIEPCTL_SD0PID_SEVNFRM;
 792:STM32Cube_FW_N6/Drivers/STM32N6xx_HAL_Driver/Src/stm32n6xx_ll_usb.c ****         }
 793:STM32Cube_FW_N6/Drivers/STM32N6xx_HAL_Driver/Src/stm32n6xx_ll_usb.c ****       }
 794:STM32Cube_FW_N6/Drivers/STM32N6xx_HAL_Driver/Src/stm32n6xx_ll_usb.c **** 
 795:STM32Cube_FW_N6/Drivers/STM32N6xx_HAL_Driver/Src/stm32n6xx_ll_usb.c ****       /* EP enable, IN data in FIFO */
 796:STM32Cube_FW_N6/Drivers/STM32N6xx_HAL_Driver/Src/stm32n6xx_ll_usb.c ****       USBx_INEP(epnum)->DIEPCTL |= (USB_OTG_DIEPCTL_CNAK | USB_OTG_DIEPCTL_EPENA);
 797:STM32Cube_FW_N6/Drivers/STM32N6xx_HAL_Driver/Src/stm32n6xx_ll_usb.c ****     }
 798:STM32Cube_FW_N6/Drivers/STM32N6xx_HAL_Driver/Src/stm32n6xx_ll_usb.c ****     else
 799:STM32Cube_FW_N6/Drivers/STM32N6xx_HAL_Driver/Src/stm32n6xx_ll_usb.c ****     {
 800:STM32Cube_FW_N6/Drivers/STM32N6xx_HAL_Driver/Src/stm32n6xx_ll_usb.c ****       /* EP enable, IN data in FIFO */
 801:STM32Cube_FW_N6/Drivers/STM32N6xx_HAL_Driver/Src/stm32n6xx_ll_usb.c ****       USBx_INEP(epnum)->DIEPCTL |= (USB_OTG_DIEPCTL_CNAK | USB_OTG_DIEPCTL_EPENA);
 802:STM32Cube_FW_N6/Drivers/STM32N6xx_HAL_Driver/Src/stm32n6xx_ll_usb.c **** 
 803:STM32Cube_FW_N6/Drivers/STM32N6xx_HAL_Driver/Src/stm32n6xx_ll_usb.c ****       if (ep->type != EP_TYPE_ISOC)
 804:STM32Cube_FW_N6/Drivers/STM32N6xx_HAL_Driver/Src/stm32n6xx_ll_usb.c ****       {
 805:STM32Cube_FW_N6/Drivers/STM32N6xx_HAL_Driver/Src/stm32n6xx_ll_usb.c ****         /* Enable the Tx FIFO Empty Interrupt for this EP */
 806:STM32Cube_FW_N6/Drivers/STM32N6xx_HAL_Driver/Src/stm32n6xx_ll_usb.c ****         if (ep->xfer_len > 0U)
 807:STM32Cube_FW_N6/Drivers/STM32N6xx_HAL_Driver/Src/stm32n6xx_ll_usb.c ****         {
 808:STM32Cube_FW_N6/Drivers/STM32N6xx_HAL_Driver/Src/stm32n6xx_ll_usb.c ****           USBx_DEVICE->DIEPEMPMSK |= 1UL << (ep->num & EP_ADDR_MSK);
 809:STM32Cube_FW_N6/Drivers/STM32N6xx_HAL_Driver/Src/stm32n6xx_ll_usb.c ****         }
 810:STM32Cube_FW_N6/Drivers/STM32N6xx_HAL_Driver/Src/stm32n6xx_ll_usb.c ****       }
 811:STM32Cube_FW_N6/Drivers/STM32N6xx_HAL_Driver/Src/stm32n6xx_ll_usb.c ****       else
 812:STM32Cube_FW_N6/Drivers/STM32N6xx_HAL_Driver/Src/stm32n6xx_ll_usb.c ****       {
 813:STM32Cube_FW_N6/Drivers/STM32N6xx_HAL_Driver/Src/stm32n6xx_ll_usb.c ****         if ((USBx_DEVICE->DSTS & (1UL << 8)) == 0U)
 814:STM32Cube_FW_N6/Drivers/STM32N6xx_HAL_Driver/Src/stm32n6xx_ll_usb.c ****         {
 815:STM32Cube_FW_N6/Drivers/STM32N6xx_HAL_Driver/Src/stm32n6xx_ll_usb.c ****           USBx_INEP(epnum)->DIEPCTL |= USB_OTG_DIEPCTL_SODDFRM;
 816:STM32Cube_FW_N6/Drivers/STM32N6xx_HAL_Driver/Src/stm32n6xx_ll_usb.c ****         }
 817:STM32Cube_FW_N6/Drivers/STM32N6xx_HAL_Driver/Src/stm32n6xx_ll_usb.c ****         else
 818:STM32Cube_FW_N6/Drivers/STM32N6xx_HAL_Driver/Src/stm32n6xx_ll_usb.c ****         {
 819:STM32Cube_FW_N6/Drivers/STM32N6xx_HAL_Driver/Src/stm32n6xx_ll_usb.c ****           USBx_INEP(epnum)->DIEPCTL |= USB_OTG_DIEPCTL_SD0PID_SEVNFRM;
 820:STM32Cube_FW_N6/Drivers/STM32N6xx_HAL_Driver/Src/stm32n6xx_ll_usb.c ****         }
 821:STM32Cube_FW_N6/Drivers/STM32N6xx_HAL_Driver/Src/stm32n6xx_ll_usb.c **** 
 822:STM32Cube_FW_N6/Drivers/STM32N6xx_HAL_Driver/Src/stm32n6xx_ll_usb.c ****         (void)USB_WritePacket(USBx, ep->xfer_buff, ep->num, (uint16_t)ep->xfer_len, dma);
 823:STM32Cube_FW_N6/Drivers/STM32N6xx_HAL_Driver/Src/stm32n6xx_ll_usb.c ****       }
 824:STM32Cube_FW_N6/Drivers/STM32N6xx_HAL_Driver/Src/stm32n6xx_ll_usb.c ****     }
 825:STM32Cube_FW_N6/Drivers/STM32N6xx_HAL_Driver/Src/stm32n6xx_ll_usb.c ****   }
 826:STM32Cube_FW_N6/Drivers/STM32N6xx_HAL_Driver/Src/stm32n6xx_ll_usb.c ****   else /* OUT endpoint */
 827:STM32Cube_FW_N6/Drivers/STM32N6xx_HAL_Driver/Src/stm32n6xx_ll_usb.c ****   {
 828:STM32Cube_FW_N6/Drivers/STM32N6xx_HAL_Driver/Src/stm32n6xx_ll_usb.c ****     /* Program the transfer size and packet count as follows:
 829:STM32Cube_FW_N6/Drivers/STM32N6xx_HAL_Driver/Src/stm32n6xx_ll_usb.c ****     * pktcnt = N
 830:STM32Cube_FW_N6/Drivers/STM32N6xx_HAL_Driver/Src/stm32n6xx_ll_usb.c ****     * xfersize = N * maxpacket
 831:STM32Cube_FW_N6/Drivers/STM32N6xx_HAL_Driver/Src/stm32n6xx_ll_usb.c ****     */
 832:STM32Cube_FW_N6/Drivers/STM32N6xx_HAL_Driver/Src/stm32n6xx_ll_usb.c ****     USBx_OUTEP(epnum)->DOEPTSIZ &= ~(USB_OTG_DOEPTSIZ_XFRSIZ);
 833:STM32Cube_FW_N6/Drivers/STM32N6xx_HAL_Driver/Src/stm32n6xx_ll_usb.c ****     USBx_OUTEP(epnum)->DOEPTSIZ &= ~(USB_OTG_DOEPTSIZ_PKTCNT);
 834:STM32Cube_FW_N6/Drivers/STM32N6xx_HAL_Driver/Src/stm32n6xx_ll_usb.c **** 
 835:STM32Cube_FW_N6/Drivers/STM32N6xx_HAL_Driver/Src/stm32n6xx_ll_usb.c ****     if (epnum == 0U)
 836:STM32Cube_FW_N6/Drivers/STM32N6xx_HAL_Driver/Src/stm32n6xx_ll_usb.c ****     {
 837:STM32Cube_FW_N6/Drivers/STM32N6xx_HAL_Driver/Src/stm32n6xx_ll_usb.c ****       if (ep->xfer_len > 0U)
 838:STM32Cube_FW_N6/Drivers/STM32N6xx_HAL_Driver/Src/stm32n6xx_ll_usb.c ****       {
 839:STM32Cube_FW_N6/Drivers/STM32N6xx_HAL_Driver/Src/stm32n6xx_ll_usb.c ****         ep->xfer_len = ep->maxpacket;
 840:STM32Cube_FW_N6/Drivers/STM32N6xx_HAL_Driver/Src/stm32n6xx_ll_usb.c ****       }
 841:STM32Cube_FW_N6/Drivers/STM32N6xx_HAL_Driver/Src/stm32n6xx_ll_usb.c **** 
 842:STM32Cube_FW_N6/Drivers/STM32N6xx_HAL_Driver/Src/stm32n6xx_ll_usb.c ****       /* Store transfer size, for EP0 this is equal to endpoint max packet size */
ARM GAS  C:\Users\DJESSOU\AppData\Local\Temp\ccOpSjVg.s 			page 17


 843:STM32Cube_FW_N6/Drivers/STM32N6xx_HAL_Driver/Src/stm32n6xx_ll_usb.c ****       ep->xfer_size = ep->maxpacket;
 844:STM32Cube_FW_N6/Drivers/STM32N6xx_HAL_Driver/Src/stm32n6xx_ll_usb.c **** 
 845:STM32Cube_FW_N6/Drivers/STM32N6xx_HAL_Driver/Src/stm32n6xx_ll_usb.c ****       USBx_OUTEP(epnum)->DOEPTSIZ |= (USB_OTG_DOEPTSIZ_XFRSIZ & ep->xfer_size);
 846:STM32Cube_FW_N6/Drivers/STM32N6xx_HAL_Driver/Src/stm32n6xx_ll_usb.c ****       USBx_OUTEP(epnum)->DOEPTSIZ |= (USB_OTG_DOEPTSIZ_PKTCNT & (1UL << 19));
 847:STM32Cube_FW_N6/Drivers/STM32N6xx_HAL_Driver/Src/stm32n6xx_ll_usb.c ****     }
 848:STM32Cube_FW_N6/Drivers/STM32N6xx_HAL_Driver/Src/stm32n6xx_ll_usb.c ****     else
 849:STM32Cube_FW_N6/Drivers/STM32N6xx_HAL_Driver/Src/stm32n6xx_ll_usb.c ****     {
 850:STM32Cube_FW_N6/Drivers/STM32N6xx_HAL_Driver/Src/stm32n6xx_ll_usb.c ****       if (ep->xfer_len == 0U)
 851:STM32Cube_FW_N6/Drivers/STM32N6xx_HAL_Driver/Src/stm32n6xx_ll_usb.c ****       {
 852:STM32Cube_FW_N6/Drivers/STM32N6xx_HAL_Driver/Src/stm32n6xx_ll_usb.c ****         USBx_OUTEP(epnum)->DOEPTSIZ |= (USB_OTG_DOEPTSIZ_XFRSIZ & ep->maxpacket);
 853:STM32Cube_FW_N6/Drivers/STM32N6xx_HAL_Driver/Src/stm32n6xx_ll_usb.c ****         USBx_OUTEP(epnum)->DOEPTSIZ |= (USB_OTG_DOEPTSIZ_PKTCNT & (1UL << 19));
 854:STM32Cube_FW_N6/Drivers/STM32N6xx_HAL_Driver/Src/stm32n6xx_ll_usb.c ****       }
 855:STM32Cube_FW_N6/Drivers/STM32N6xx_HAL_Driver/Src/stm32n6xx_ll_usb.c ****       else
 856:STM32Cube_FW_N6/Drivers/STM32N6xx_HAL_Driver/Src/stm32n6xx_ll_usb.c ****       {
 857:STM32Cube_FW_N6/Drivers/STM32N6xx_HAL_Driver/Src/stm32n6xx_ll_usb.c ****         pktcnt = (uint16_t)((ep->xfer_len + ep->maxpacket - 1U) / ep->maxpacket);
 858:STM32Cube_FW_N6/Drivers/STM32N6xx_HAL_Driver/Src/stm32n6xx_ll_usb.c ****         ep->xfer_size = ep->maxpacket * pktcnt;
 859:STM32Cube_FW_N6/Drivers/STM32N6xx_HAL_Driver/Src/stm32n6xx_ll_usb.c **** 
 860:STM32Cube_FW_N6/Drivers/STM32N6xx_HAL_Driver/Src/stm32n6xx_ll_usb.c ****         USBx_OUTEP(epnum)->DOEPTSIZ |= USB_OTG_DOEPTSIZ_PKTCNT & ((uint32_t)pktcnt << 19);
 861:STM32Cube_FW_N6/Drivers/STM32N6xx_HAL_Driver/Src/stm32n6xx_ll_usb.c ****         USBx_OUTEP(epnum)->DOEPTSIZ |= USB_OTG_DOEPTSIZ_XFRSIZ & ep->xfer_size;
 862:STM32Cube_FW_N6/Drivers/STM32N6xx_HAL_Driver/Src/stm32n6xx_ll_usb.c ****       }
 863:STM32Cube_FW_N6/Drivers/STM32N6xx_HAL_Driver/Src/stm32n6xx_ll_usb.c ****     }
 864:STM32Cube_FW_N6/Drivers/STM32N6xx_HAL_Driver/Src/stm32n6xx_ll_usb.c **** 
 865:STM32Cube_FW_N6/Drivers/STM32N6xx_HAL_Driver/Src/stm32n6xx_ll_usb.c ****     if (dma == 1U)
 866:STM32Cube_FW_N6/Drivers/STM32N6xx_HAL_Driver/Src/stm32n6xx_ll_usb.c ****     {
 867:STM32Cube_FW_N6/Drivers/STM32N6xx_HAL_Driver/Src/stm32n6xx_ll_usb.c ****       if ((uint32_t)ep->xfer_buff != 0U)
 868:STM32Cube_FW_N6/Drivers/STM32N6xx_HAL_Driver/Src/stm32n6xx_ll_usb.c ****       {
 869:STM32Cube_FW_N6/Drivers/STM32N6xx_HAL_Driver/Src/stm32n6xx_ll_usb.c ****         USBx_OUTEP(epnum)->DOEPDMA = (uint32_t)(ep->xfer_buff);
 870:STM32Cube_FW_N6/Drivers/STM32N6xx_HAL_Driver/Src/stm32n6xx_ll_usb.c ****       }
 871:STM32Cube_FW_N6/Drivers/STM32N6xx_HAL_Driver/Src/stm32n6xx_ll_usb.c ****     }
 872:STM32Cube_FW_N6/Drivers/STM32N6xx_HAL_Driver/Src/stm32n6xx_ll_usb.c **** 
 873:STM32Cube_FW_N6/Drivers/STM32N6xx_HAL_Driver/Src/stm32n6xx_ll_usb.c ****     if (ep->type == EP_TYPE_ISOC)
 874:STM32Cube_FW_N6/Drivers/STM32N6xx_HAL_Driver/Src/stm32n6xx_ll_usb.c ****     {
 875:STM32Cube_FW_N6/Drivers/STM32N6xx_HAL_Driver/Src/stm32n6xx_ll_usb.c ****       if ((USBx_DEVICE->DSTS & (1UL << 8)) == 0U)
 876:STM32Cube_FW_N6/Drivers/STM32N6xx_HAL_Driver/Src/stm32n6xx_ll_usb.c ****       {
 877:STM32Cube_FW_N6/Drivers/STM32N6xx_HAL_Driver/Src/stm32n6xx_ll_usb.c ****         USBx_OUTEP(epnum)->DOEPCTL |= USB_OTG_DOEPCTL_SODDFRM;
 878:STM32Cube_FW_N6/Drivers/STM32N6xx_HAL_Driver/Src/stm32n6xx_ll_usb.c ****       }
 879:STM32Cube_FW_N6/Drivers/STM32N6xx_HAL_Driver/Src/stm32n6xx_ll_usb.c ****       else
 880:STM32Cube_FW_N6/Drivers/STM32N6xx_HAL_Driver/Src/stm32n6xx_ll_usb.c ****       {
 881:STM32Cube_FW_N6/Drivers/STM32N6xx_HAL_Driver/Src/stm32n6xx_ll_usb.c ****         USBx_OUTEP(epnum)->DOEPCTL |= USB_OTG_DOEPCTL_SD0PID_SEVNFRM;
 882:STM32Cube_FW_N6/Drivers/STM32N6xx_HAL_Driver/Src/stm32n6xx_ll_usb.c ****       }
 883:STM32Cube_FW_N6/Drivers/STM32N6xx_HAL_Driver/Src/stm32n6xx_ll_usb.c ****     }
 884:STM32Cube_FW_N6/Drivers/STM32N6xx_HAL_Driver/Src/stm32n6xx_ll_usb.c ****     /* EP enable */
 885:STM32Cube_FW_N6/Drivers/STM32N6xx_HAL_Driver/Src/stm32n6xx_ll_usb.c ****     USBx_OUTEP(epnum)->DOEPCTL |= (USB_OTG_DOEPCTL_CNAK | USB_OTG_DOEPCTL_EPENA);
 886:STM32Cube_FW_N6/Drivers/STM32N6xx_HAL_Driver/Src/stm32n6xx_ll_usb.c ****   }
 887:STM32Cube_FW_N6/Drivers/STM32N6xx_HAL_Driver/Src/stm32n6xx_ll_usb.c **** 
 888:STM32Cube_FW_N6/Drivers/STM32N6xx_HAL_Driver/Src/stm32n6xx_ll_usb.c ****   return HAL_OK;
 889:STM32Cube_FW_N6/Drivers/STM32N6xx_HAL_Driver/Src/stm32n6xx_ll_usb.c **** }
 890:STM32Cube_FW_N6/Drivers/STM32N6xx_HAL_Driver/Src/stm32n6xx_ll_usb.c **** 
 891:STM32Cube_FW_N6/Drivers/STM32N6xx_HAL_Driver/Src/stm32n6xx_ll_usb.c **** 
 892:STM32Cube_FW_N6/Drivers/STM32N6xx_HAL_Driver/Src/stm32n6xx_ll_usb.c **** /**
 893:STM32Cube_FW_N6/Drivers/STM32N6xx_HAL_Driver/Src/stm32n6xx_ll_usb.c ****    * @brief  USB_EPStoptXfer  Stop transfer on an EP
 894:STM32Cube_FW_N6/Drivers/STM32N6xx_HAL_Driver/Src/stm32n6xx_ll_usb.c ****    * @param  USBx  usb device instance
 895:STM32Cube_FW_N6/Drivers/STM32N6xx_HAL_Driver/Src/stm32n6xx_ll_usb.c ****    * @param  ep pointer to endpoint structure
 896:STM32Cube_FW_N6/Drivers/STM32N6xx_HAL_Driver/Src/stm32n6xx_ll_usb.c ****    * @retval HAL status
 897:STM32Cube_FW_N6/Drivers/STM32N6xx_HAL_Driver/Src/stm32n6xx_ll_usb.c ****    */
 898:STM32Cube_FW_N6/Drivers/STM32N6xx_HAL_Driver/Src/stm32n6xx_ll_usb.c **** HAL_StatusTypeDef USB_EPStopXfer(USB_OTG_GlobalTypeDef *USBx, USB_OTG_EPTypeDef *ep)
 899:STM32Cube_FW_N6/Drivers/STM32N6xx_HAL_Driver/Src/stm32n6xx_ll_usb.c **** {
ARM GAS  C:\Users\DJESSOU\AppData\Local\Temp\ccOpSjVg.s 			page 18


 900:STM32Cube_FW_N6/Drivers/STM32N6xx_HAL_Driver/Src/stm32n6xx_ll_usb.c ****   __IO uint32_t count = 0U;
 901:STM32Cube_FW_N6/Drivers/STM32N6xx_HAL_Driver/Src/stm32n6xx_ll_usb.c ****   __IO uint32_t RegVal;
 902:STM32Cube_FW_N6/Drivers/STM32N6xx_HAL_Driver/Src/stm32n6xx_ll_usb.c ****   HAL_StatusTypeDef ret = HAL_OK;
 903:STM32Cube_FW_N6/Drivers/STM32N6xx_HAL_Driver/Src/stm32n6xx_ll_usb.c ****   uint32_t USBx_BASE = (uint32_t)USBx;
 904:STM32Cube_FW_N6/Drivers/STM32N6xx_HAL_Driver/Src/stm32n6xx_ll_usb.c ****   uint32_t dma_enable = (USBx->GAHBCFG & USB_OTG_GAHBCFG_DMAEN) >> 0x5U;
 905:STM32Cube_FW_N6/Drivers/STM32N6xx_HAL_Driver/Src/stm32n6xx_ll_usb.c **** 
 906:STM32Cube_FW_N6/Drivers/STM32N6xx_HAL_Driver/Src/stm32n6xx_ll_usb.c ****   /* IN endpoint */
 907:STM32Cube_FW_N6/Drivers/STM32N6xx_HAL_Driver/Src/stm32n6xx_ll_usb.c ****   if (ep->is_in == 1U)
 908:STM32Cube_FW_N6/Drivers/STM32N6xx_HAL_Driver/Src/stm32n6xx_ll_usb.c ****   {
 909:STM32Cube_FW_N6/Drivers/STM32N6xx_HAL_Driver/Src/stm32n6xx_ll_usb.c ****     /* EP enable, IN data in FIFO */
 910:STM32Cube_FW_N6/Drivers/STM32N6xx_HAL_Driver/Src/stm32n6xx_ll_usb.c ****     if (((USBx_INEP(ep->num)->DIEPCTL) & USB_OTG_DIEPCTL_EPENA) == USB_OTG_DIEPCTL_EPENA)
 911:STM32Cube_FW_N6/Drivers/STM32N6xx_HAL_Driver/Src/stm32n6xx_ll_usb.c ****     {
 912:STM32Cube_FW_N6/Drivers/STM32N6xx_HAL_Driver/Src/stm32n6xx_ll_usb.c ****       USBx_INEP(ep->num)->DIEPCTL |= (USB_OTG_DIEPCTL_SNAK);
 913:STM32Cube_FW_N6/Drivers/STM32N6xx_HAL_Driver/Src/stm32n6xx_ll_usb.c ****       USBx_INEP(ep->num)->DIEPCTL |= (USB_OTG_DIEPCTL_EPDIS);
 914:STM32Cube_FW_N6/Drivers/STM32N6xx_HAL_Driver/Src/stm32n6xx_ll_usb.c **** 
 915:STM32Cube_FW_N6/Drivers/STM32N6xx_HAL_Driver/Src/stm32n6xx_ll_usb.c ****       do
 916:STM32Cube_FW_N6/Drivers/STM32N6xx_HAL_Driver/Src/stm32n6xx_ll_usb.c ****       {
 917:STM32Cube_FW_N6/Drivers/STM32N6xx_HAL_Driver/Src/stm32n6xx_ll_usb.c ****         count++;
 918:STM32Cube_FW_N6/Drivers/STM32N6xx_HAL_Driver/Src/stm32n6xx_ll_usb.c **** 
 919:STM32Cube_FW_N6/Drivers/STM32N6xx_HAL_Driver/Src/stm32n6xx_ll_usb.c ****         if (count > 0xF0000U)
 920:STM32Cube_FW_N6/Drivers/STM32N6xx_HAL_Driver/Src/stm32n6xx_ll_usb.c ****         {
 921:STM32Cube_FW_N6/Drivers/STM32N6xx_HAL_Driver/Src/stm32n6xx_ll_usb.c ****           ret = HAL_ERROR;
 922:STM32Cube_FW_N6/Drivers/STM32N6xx_HAL_Driver/Src/stm32n6xx_ll_usb.c ****           break;
 923:STM32Cube_FW_N6/Drivers/STM32N6xx_HAL_Driver/Src/stm32n6xx_ll_usb.c ****         }
 924:STM32Cube_FW_N6/Drivers/STM32N6xx_HAL_Driver/Src/stm32n6xx_ll_usb.c ****       } while (((USBx_INEP(ep->num)->DIEPCTL) & USB_OTG_DIEPCTL_EPENA) == USB_OTG_DIEPCTL_EPENA);
 925:STM32Cube_FW_N6/Drivers/STM32N6xx_HAL_Driver/Src/stm32n6xx_ll_usb.c ****     }
 926:STM32Cube_FW_N6/Drivers/STM32N6xx_HAL_Driver/Src/stm32n6xx_ll_usb.c ****   }
 927:STM32Cube_FW_N6/Drivers/STM32N6xx_HAL_Driver/Src/stm32n6xx_ll_usb.c ****   else /* OUT endpoint */
 928:STM32Cube_FW_N6/Drivers/STM32N6xx_HAL_Driver/Src/stm32n6xx_ll_usb.c ****   {
 929:STM32Cube_FW_N6/Drivers/STM32N6xx_HAL_Driver/Src/stm32n6xx_ll_usb.c ****     USBx->GINTMSK &= ~USB_OTG_GINTMSK_GONAKEFFM;
 930:STM32Cube_FW_N6/Drivers/STM32N6xx_HAL_Driver/Src/stm32n6xx_ll_usb.c **** 
 931:STM32Cube_FW_N6/Drivers/STM32N6xx_HAL_Driver/Src/stm32n6xx_ll_usb.c ****     if ((USBx->GINTSTS & USB_OTG_GINTSTS_BOUTNAKEFF) == 0U)
 932:STM32Cube_FW_N6/Drivers/STM32N6xx_HAL_Driver/Src/stm32n6xx_ll_usb.c ****     {
 933:STM32Cube_FW_N6/Drivers/STM32N6xx_HAL_Driver/Src/stm32n6xx_ll_usb.c ****       USBx_DEVICE->DCTL |= USB_OTG_DCTL_SGONAK;
 934:STM32Cube_FW_N6/Drivers/STM32N6xx_HAL_Driver/Src/stm32n6xx_ll_usb.c ****     }
 935:STM32Cube_FW_N6/Drivers/STM32N6xx_HAL_Driver/Src/stm32n6xx_ll_usb.c **** 
 936:STM32Cube_FW_N6/Drivers/STM32N6xx_HAL_Driver/Src/stm32n6xx_ll_usb.c ****     if (dma_enable == 0U)
 937:STM32Cube_FW_N6/Drivers/STM32N6xx_HAL_Driver/Src/stm32n6xx_ll_usb.c ****     {
 938:STM32Cube_FW_N6/Drivers/STM32N6xx_HAL_Driver/Src/stm32n6xx_ll_usb.c ****       do
 939:STM32Cube_FW_N6/Drivers/STM32N6xx_HAL_Driver/Src/stm32n6xx_ll_usb.c ****       {
 940:STM32Cube_FW_N6/Drivers/STM32N6xx_HAL_Driver/Src/stm32n6xx_ll_usb.c ****         count++;
 941:STM32Cube_FW_N6/Drivers/STM32N6xx_HAL_Driver/Src/stm32n6xx_ll_usb.c **** 
 942:STM32Cube_FW_N6/Drivers/STM32N6xx_HAL_Driver/Src/stm32n6xx_ll_usb.c ****         if (count > 0xF0000U)
 943:STM32Cube_FW_N6/Drivers/STM32N6xx_HAL_Driver/Src/stm32n6xx_ll_usb.c ****         {
 944:STM32Cube_FW_N6/Drivers/STM32N6xx_HAL_Driver/Src/stm32n6xx_ll_usb.c ****           ret = HAL_ERROR;
 945:STM32Cube_FW_N6/Drivers/STM32N6xx_HAL_Driver/Src/stm32n6xx_ll_usb.c ****           break;
 946:STM32Cube_FW_N6/Drivers/STM32N6xx_HAL_Driver/Src/stm32n6xx_ll_usb.c ****         }
 947:STM32Cube_FW_N6/Drivers/STM32N6xx_HAL_Driver/Src/stm32n6xx_ll_usb.c ****       } while (((USBx->GINTSTS & USB_OTG_GINTSTS_RXFLVL) & USB_OTG_GINTSTS_RXFLVL) != USB_OTG_GINTS
 948:STM32Cube_FW_N6/Drivers/STM32N6xx_HAL_Driver/Src/stm32n6xx_ll_usb.c **** 
 949:STM32Cube_FW_N6/Drivers/STM32N6xx_HAL_Driver/Src/stm32n6xx_ll_usb.c ****       /* POP the RX status register to generate the NAK Effective interrupt */
 950:STM32Cube_FW_N6/Drivers/STM32N6xx_HAL_Driver/Src/stm32n6xx_ll_usb.c ****       RegVal = USBx->GRXSTSP;
 951:STM32Cube_FW_N6/Drivers/STM32N6xx_HAL_Driver/Src/stm32n6xx_ll_usb.c ****       UNUSED(RegVal);
 952:STM32Cube_FW_N6/Drivers/STM32N6xx_HAL_Driver/Src/stm32n6xx_ll_usb.c ****     }
 953:STM32Cube_FW_N6/Drivers/STM32N6xx_HAL_Driver/Src/stm32n6xx_ll_usb.c **** 
 954:STM32Cube_FW_N6/Drivers/STM32N6xx_HAL_Driver/Src/stm32n6xx_ll_usb.c ****     /* Wait for Global NAK effective to be set */
 955:STM32Cube_FW_N6/Drivers/STM32N6xx_HAL_Driver/Src/stm32n6xx_ll_usb.c ****     count = 0U;
 956:STM32Cube_FW_N6/Drivers/STM32N6xx_HAL_Driver/Src/stm32n6xx_ll_usb.c **** 
ARM GAS  C:\Users\DJESSOU\AppData\Local\Temp\ccOpSjVg.s 			page 19


 957:STM32Cube_FW_N6/Drivers/STM32N6xx_HAL_Driver/Src/stm32n6xx_ll_usb.c ****     do
 958:STM32Cube_FW_N6/Drivers/STM32N6xx_HAL_Driver/Src/stm32n6xx_ll_usb.c ****     {
 959:STM32Cube_FW_N6/Drivers/STM32N6xx_HAL_Driver/Src/stm32n6xx_ll_usb.c ****       count++;
 960:STM32Cube_FW_N6/Drivers/STM32N6xx_HAL_Driver/Src/stm32n6xx_ll_usb.c **** 
 961:STM32Cube_FW_N6/Drivers/STM32N6xx_HAL_Driver/Src/stm32n6xx_ll_usb.c ****       if (count > 0xF0000U)
 962:STM32Cube_FW_N6/Drivers/STM32N6xx_HAL_Driver/Src/stm32n6xx_ll_usb.c ****       {
 963:STM32Cube_FW_N6/Drivers/STM32N6xx_HAL_Driver/Src/stm32n6xx_ll_usb.c ****         ret = HAL_ERROR;
 964:STM32Cube_FW_N6/Drivers/STM32N6xx_HAL_Driver/Src/stm32n6xx_ll_usb.c ****         break;
 965:STM32Cube_FW_N6/Drivers/STM32N6xx_HAL_Driver/Src/stm32n6xx_ll_usb.c ****       }
 966:STM32Cube_FW_N6/Drivers/STM32N6xx_HAL_Driver/Src/stm32n6xx_ll_usb.c ****     } while (((USBx->GINTSTS & USB_OTG_GINTSTS_BOUTNAKEFF)
 967:STM32Cube_FW_N6/Drivers/STM32N6xx_HAL_Driver/Src/stm32n6xx_ll_usb.c ****               & USB_OTG_GINTSTS_BOUTNAKEFF) != USB_OTG_GINTSTS_BOUTNAKEFF);
 968:STM32Cube_FW_N6/Drivers/STM32N6xx_HAL_Driver/Src/stm32n6xx_ll_usb.c **** 
 969:STM32Cube_FW_N6/Drivers/STM32N6xx_HAL_Driver/Src/stm32n6xx_ll_usb.c ****     USBx_OUTEP(ep->num)->DOEPCTL |= (USB_OTG_DOEPCTL_SNAK);
 970:STM32Cube_FW_N6/Drivers/STM32N6xx_HAL_Driver/Src/stm32n6xx_ll_usb.c ****     USBx_OUTEP(ep->num)->DOEPCTL |= (USB_OTG_DOEPCTL_EPDIS);
 971:STM32Cube_FW_N6/Drivers/STM32N6xx_HAL_Driver/Src/stm32n6xx_ll_usb.c **** 
 972:STM32Cube_FW_N6/Drivers/STM32N6xx_HAL_Driver/Src/stm32n6xx_ll_usb.c ****     /* Wait for EP disable to take effect */
 973:STM32Cube_FW_N6/Drivers/STM32N6xx_HAL_Driver/Src/stm32n6xx_ll_usb.c ****     count = 0U;
 974:STM32Cube_FW_N6/Drivers/STM32N6xx_HAL_Driver/Src/stm32n6xx_ll_usb.c **** 
 975:STM32Cube_FW_N6/Drivers/STM32N6xx_HAL_Driver/Src/stm32n6xx_ll_usb.c ****     do
 976:STM32Cube_FW_N6/Drivers/STM32N6xx_HAL_Driver/Src/stm32n6xx_ll_usb.c ****     {
 977:STM32Cube_FW_N6/Drivers/STM32N6xx_HAL_Driver/Src/stm32n6xx_ll_usb.c ****       count++;
 978:STM32Cube_FW_N6/Drivers/STM32N6xx_HAL_Driver/Src/stm32n6xx_ll_usb.c **** 
 979:STM32Cube_FW_N6/Drivers/STM32N6xx_HAL_Driver/Src/stm32n6xx_ll_usb.c ****       if (count > 0xF0000U)
 980:STM32Cube_FW_N6/Drivers/STM32N6xx_HAL_Driver/Src/stm32n6xx_ll_usb.c ****       {
 981:STM32Cube_FW_N6/Drivers/STM32N6xx_HAL_Driver/Src/stm32n6xx_ll_usb.c ****         ret = HAL_ERROR;
 982:STM32Cube_FW_N6/Drivers/STM32N6xx_HAL_Driver/Src/stm32n6xx_ll_usb.c ****         break;
 983:STM32Cube_FW_N6/Drivers/STM32N6xx_HAL_Driver/Src/stm32n6xx_ll_usb.c ****       }
 984:STM32Cube_FW_N6/Drivers/STM32N6xx_HAL_Driver/Src/stm32n6xx_ll_usb.c ****     } while (((USBx_OUTEP(ep->num)->DOEPINT & USB_OTG_DOEPINT_EPDISD)
 985:STM32Cube_FW_N6/Drivers/STM32N6xx_HAL_Driver/Src/stm32n6xx_ll_usb.c ****               & USB_OTG_DOEPINT_EPDISD) != USB_OTG_DOEPINT_EPDISD);
 986:STM32Cube_FW_N6/Drivers/STM32N6xx_HAL_Driver/Src/stm32n6xx_ll_usb.c **** 
 987:STM32Cube_FW_N6/Drivers/STM32N6xx_HAL_Driver/Src/stm32n6xx_ll_usb.c ****     /* Clear OUT EP disable interrupt */
 988:STM32Cube_FW_N6/Drivers/STM32N6xx_HAL_Driver/Src/stm32n6xx_ll_usb.c ****     USBx_OUTEP(ep->num)->DOEPINT |= USB_OTG_DOEPINT_EPDISD;
 989:STM32Cube_FW_N6/Drivers/STM32N6xx_HAL_Driver/Src/stm32n6xx_ll_usb.c **** 
 990:STM32Cube_FW_N6/Drivers/STM32N6xx_HAL_Driver/Src/stm32n6xx_ll_usb.c ****     /* Clear Global OUT NAK */
 991:STM32Cube_FW_N6/Drivers/STM32N6xx_HAL_Driver/Src/stm32n6xx_ll_usb.c ****     USBx_DEVICE->DCTL |= USB_OTG_DCTL_CGONAK;
 992:STM32Cube_FW_N6/Drivers/STM32N6xx_HAL_Driver/Src/stm32n6xx_ll_usb.c ****   }
 993:STM32Cube_FW_N6/Drivers/STM32N6xx_HAL_Driver/Src/stm32n6xx_ll_usb.c **** 
 994:STM32Cube_FW_N6/Drivers/STM32N6xx_HAL_Driver/Src/stm32n6xx_ll_usb.c ****   return ret;
 995:STM32Cube_FW_N6/Drivers/STM32N6xx_HAL_Driver/Src/stm32n6xx_ll_usb.c **** }
 996:STM32Cube_FW_N6/Drivers/STM32N6xx_HAL_Driver/Src/stm32n6xx_ll_usb.c **** 
 997:STM32Cube_FW_N6/Drivers/STM32N6xx_HAL_Driver/Src/stm32n6xx_ll_usb.c **** /**
 998:STM32Cube_FW_N6/Drivers/STM32N6xx_HAL_Driver/Src/stm32n6xx_ll_usb.c ****   * @brief  USB_EPSetStall : set a stall condition over an EP
 999:STM32Cube_FW_N6/Drivers/STM32N6xx_HAL_Driver/Src/stm32n6xx_ll_usb.c ****   * @param  USBx  Selected device
1000:STM32Cube_FW_N6/Drivers/STM32N6xx_HAL_Driver/Src/stm32n6xx_ll_usb.c ****   * @param  ep pointer to endpoint structure
1001:STM32Cube_FW_N6/Drivers/STM32N6xx_HAL_Driver/Src/stm32n6xx_ll_usb.c ****   * @retval HAL status
1002:STM32Cube_FW_N6/Drivers/STM32N6xx_HAL_Driver/Src/stm32n6xx_ll_usb.c ****   */
1003:STM32Cube_FW_N6/Drivers/STM32N6xx_HAL_Driver/Src/stm32n6xx_ll_usb.c **** HAL_StatusTypeDef USB_EPSetStall(const USB_OTG_GlobalTypeDef *USBx, const USB_OTG_EPTypeDef *ep)
1004:STM32Cube_FW_N6/Drivers/STM32N6xx_HAL_Driver/Src/stm32n6xx_ll_usb.c **** {
1005:STM32Cube_FW_N6/Drivers/STM32N6xx_HAL_Driver/Src/stm32n6xx_ll_usb.c ****   uint32_t USBx_BASE = (uint32_t)USBx;
1006:STM32Cube_FW_N6/Drivers/STM32N6xx_HAL_Driver/Src/stm32n6xx_ll_usb.c ****   uint32_t epnum = (uint32_t)ep->num;
1007:STM32Cube_FW_N6/Drivers/STM32N6xx_HAL_Driver/Src/stm32n6xx_ll_usb.c **** 
1008:STM32Cube_FW_N6/Drivers/STM32N6xx_HAL_Driver/Src/stm32n6xx_ll_usb.c ****   if (ep->is_in == 1U)
1009:STM32Cube_FW_N6/Drivers/STM32N6xx_HAL_Driver/Src/stm32n6xx_ll_usb.c ****   {
1010:STM32Cube_FW_N6/Drivers/STM32N6xx_HAL_Driver/Src/stm32n6xx_ll_usb.c ****     if (((USBx_INEP(epnum)->DIEPCTL & USB_OTG_DIEPCTL_EPENA) == 0U) && (epnum != 0U))
1011:STM32Cube_FW_N6/Drivers/STM32N6xx_HAL_Driver/Src/stm32n6xx_ll_usb.c ****     {
1012:STM32Cube_FW_N6/Drivers/STM32N6xx_HAL_Driver/Src/stm32n6xx_ll_usb.c ****       USBx_INEP(epnum)->DIEPCTL &= ~(USB_OTG_DIEPCTL_EPDIS);
1013:STM32Cube_FW_N6/Drivers/STM32N6xx_HAL_Driver/Src/stm32n6xx_ll_usb.c ****     }
ARM GAS  C:\Users\DJESSOU\AppData\Local\Temp\ccOpSjVg.s 			page 20


1014:STM32Cube_FW_N6/Drivers/STM32N6xx_HAL_Driver/Src/stm32n6xx_ll_usb.c ****     USBx_INEP(epnum)->DIEPCTL |= USB_OTG_DIEPCTL_STALL;
1015:STM32Cube_FW_N6/Drivers/STM32N6xx_HAL_Driver/Src/stm32n6xx_ll_usb.c ****   }
1016:STM32Cube_FW_N6/Drivers/STM32N6xx_HAL_Driver/Src/stm32n6xx_ll_usb.c ****   else
1017:STM32Cube_FW_N6/Drivers/STM32N6xx_HAL_Driver/Src/stm32n6xx_ll_usb.c ****   {
1018:STM32Cube_FW_N6/Drivers/STM32N6xx_HAL_Driver/Src/stm32n6xx_ll_usb.c ****     if (((USBx_OUTEP(epnum)->DOEPCTL & USB_OTG_DOEPCTL_EPENA) == 0U) && (epnum != 0U))
1019:STM32Cube_FW_N6/Drivers/STM32N6xx_HAL_Driver/Src/stm32n6xx_ll_usb.c ****     {
1020:STM32Cube_FW_N6/Drivers/STM32N6xx_HAL_Driver/Src/stm32n6xx_ll_usb.c ****       USBx_OUTEP(epnum)->DOEPCTL &= ~(USB_OTG_DOEPCTL_EPDIS);
1021:STM32Cube_FW_N6/Drivers/STM32N6xx_HAL_Driver/Src/stm32n6xx_ll_usb.c ****     }
1022:STM32Cube_FW_N6/Drivers/STM32N6xx_HAL_Driver/Src/stm32n6xx_ll_usb.c ****     USBx_OUTEP(epnum)->DOEPCTL |= USB_OTG_DOEPCTL_STALL;
1023:STM32Cube_FW_N6/Drivers/STM32N6xx_HAL_Driver/Src/stm32n6xx_ll_usb.c ****   }
1024:STM32Cube_FW_N6/Drivers/STM32N6xx_HAL_Driver/Src/stm32n6xx_ll_usb.c **** 
1025:STM32Cube_FW_N6/Drivers/STM32N6xx_HAL_Driver/Src/stm32n6xx_ll_usb.c ****   return HAL_OK;
1026:STM32Cube_FW_N6/Drivers/STM32N6xx_HAL_Driver/Src/stm32n6xx_ll_usb.c **** }
1027:STM32Cube_FW_N6/Drivers/STM32N6xx_HAL_Driver/Src/stm32n6xx_ll_usb.c **** 
1028:STM32Cube_FW_N6/Drivers/STM32N6xx_HAL_Driver/Src/stm32n6xx_ll_usb.c **** /**
1029:STM32Cube_FW_N6/Drivers/STM32N6xx_HAL_Driver/Src/stm32n6xx_ll_usb.c ****   * @brief  USB_EPClearStall : Clear a stall condition over an EP
1030:STM32Cube_FW_N6/Drivers/STM32N6xx_HAL_Driver/Src/stm32n6xx_ll_usb.c ****   * @param  USBx  Selected device
1031:STM32Cube_FW_N6/Drivers/STM32N6xx_HAL_Driver/Src/stm32n6xx_ll_usb.c ****   * @param  ep pointer to endpoint structure
1032:STM32Cube_FW_N6/Drivers/STM32N6xx_HAL_Driver/Src/stm32n6xx_ll_usb.c ****   * @retval HAL status
1033:STM32Cube_FW_N6/Drivers/STM32N6xx_HAL_Driver/Src/stm32n6xx_ll_usb.c ****   */
1034:STM32Cube_FW_N6/Drivers/STM32N6xx_HAL_Driver/Src/stm32n6xx_ll_usb.c **** HAL_StatusTypeDef USB_EPClearStall(const USB_OTG_GlobalTypeDef *USBx, const USB_OTG_EPTypeDef *ep)
1035:STM32Cube_FW_N6/Drivers/STM32N6xx_HAL_Driver/Src/stm32n6xx_ll_usb.c **** {
1036:STM32Cube_FW_N6/Drivers/STM32N6xx_HAL_Driver/Src/stm32n6xx_ll_usb.c ****   uint32_t USBx_BASE = (uint32_t)USBx;
1037:STM32Cube_FW_N6/Drivers/STM32N6xx_HAL_Driver/Src/stm32n6xx_ll_usb.c ****   uint32_t epnum = (uint32_t)ep->num;
1038:STM32Cube_FW_N6/Drivers/STM32N6xx_HAL_Driver/Src/stm32n6xx_ll_usb.c **** 
1039:STM32Cube_FW_N6/Drivers/STM32N6xx_HAL_Driver/Src/stm32n6xx_ll_usb.c ****   if (ep->is_in == 1U)
1040:STM32Cube_FW_N6/Drivers/STM32N6xx_HAL_Driver/Src/stm32n6xx_ll_usb.c ****   {
1041:STM32Cube_FW_N6/Drivers/STM32N6xx_HAL_Driver/Src/stm32n6xx_ll_usb.c ****     USBx_INEP(epnum)->DIEPCTL &= ~USB_OTG_DIEPCTL_STALL;
1042:STM32Cube_FW_N6/Drivers/STM32N6xx_HAL_Driver/Src/stm32n6xx_ll_usb.c ****     if ((ep->type == EP_TYPE_INTR) || (ep->type == EP_TYPE_BULK))
1043:STM32Cube_FW_N6/Drivers/STM32N6xx_HAL_Driver/Src/stm32n6xx_ll_usb.c ****     {
1044:STM32Cube_FW_N6/Drivers/STM32N6xx_HAL_Driver/Src/stm32n6xx_ll_usb.c ****       USBx_INEP(epnum)->DIEPCTL |= USB_OTG_DIEPCTL_SD0PID_SEVNFRM; /* DATA0 */
1045:STM32Cube_FW_N6/Drivers/STM32N6xx_HAL_Driver/Src/stm32n6xx_ll_usb.c ****     }
1046:STM32Cube_FW_N6/Drivers/STM32N6xx_HAL_Driver/Src/stm32n6xx_ll_usb.c ****   }
1047:STM32Cube_FW_N6/Drivers/STM32N6xx_HAL_Driver/Src/stm32n6xx_ll_usb.c ****   else
1048:STM32Cube_FW_N6/Drivers/STM32N6xx_HAL_Driver/Src/stm32n6xx_ll_usb.c ****   {
1049:STM32Cube_FW_N6/Drivers/STM32N6xx_HAL_Driver/Src/stm32n6xx_ll_usb.c ****     USBx_OUTEP(epnum)->DOEPCTL &= ~USB_OTG_DOEPCTL_STALL;
1050:STM32Cube_FW_N6/Drivers/STM32N6xx_HAL_Driver/Src/stm32n6xx_ll_usb.c ****     if ((ep->type == EP_TYPE_INTR) || (ep->type == EP_TYPE_BULK))
1051:STM32Cube_FW_N6/Drivers/STM32N6xx_HAL_Driver/Src/stm32n6xx_ll_usb.c ****     {
1052:STM32Cube_FW_N6/Drivers/STM32N6xx_HAL_Driver/Src/stm32n6xx_ll_usb.c ****       USBx_OUTEP(epnum)->DOEPCTL |= USB_OTG_DOEPCTL_SD0PID_SEVNFRM; /* DATA0 */
1053:STM32Cube_FW_N6/Drivers/STM32N6xx_HAL_Driver/Src/stm32n6xx_ll_usb.c ****     }
1054:STM32Cube_FW_N6/Drivers/STM32N6xx_HAL_Driver/Src/stm32n6xx_ll_usb.c ****   }
1055:STM32Cube_FW_N6/Drivers/STM32N6xx_HAL_Driver/Src/stm32n6xx_ll_usb.c ****   return HAL_OK;
1056:STM32Cube_FW_N6/Drivers/STM32N6xx_HAL_Driver/Src/stm32n6xx_ll_usb.c **** }
1057:STM32Cube_FW_N6/Drivers/STM32N6xx_HAL_Driver/Src/stm32n6xx_ll_usb.c **** #endif /* defined (HAL_PCD_MODULE_ENABLED) */
1058:STM32Cube_FW_N6/Drivers/STM32N6xx_HAL_Driver/Src/stm32n6xx_ll_usb.c **** 
1059:STM32Cube_FW_N6/Drivers/STM32N6xx_HAL_Driver/Src/stm32n6xx_ll_usb.c **** /**
1060:STM32Cube_FW_N6/Drivers/STM32N6xx_HAL_Driver/Src/stm32n6xx_ll_usb.c ****   * @brief  USB_WritePacket : Writes a packet into the Tx FIFO associated
1061:STM32Cube_FW_N6/Drivers/STM32N6xx_HAL_Driver/Src/stm32n6xx_ll_usb.c ****   *         with the EP/channel
1062:STM32Cube_FW_N6/Drivers/STM32N6xx_HAL_Driver/Src/stm32n6xx_ll_usb.c ****   * @param  USBx  Selected device
1063:STM32Cube_FW_N6/Drivers/STM32N6xx_HAL_Driver/Src/stm32n6xx_ll_usb.c ****   * @param  src   pointer to source buffer
1064:STM32Cube_FW_N6/Drivers/STM32N6xx_HAL_Driver/Src/stm32n6xx_ll_usb.c ****   * @param  ch_ep_num  endpoint or host channel number
1065:STM32Cube_FW_N6/Drivers/STM32N6xx_HAL_Driver/Src/stm32n6xx_ll_usb.c ****   * @param  len  Number of bytes to write
1066:STM32Cube_FW_N6/Drivers/STM32N6xx_HAL_Driver/Src/stm32n6xx_ll_usb.c ****   * @param  dma USB dma enabled or disabled
1067:STM32Cube_FW_N6/Drivers/STM32N6xx_HAL_Driver/Src/stm32n6xx_ll_usb.c ****   *          This parameter can be one of these values:
1068:STM32Cube_FW_N6/Drivers/STM32N6xx_HAL_Driver/Src/stm32n6xx_ll_usb.c ****   *           0 : DMA feature not used
1069:STM32Cube_FW_N6/Drivers/STM32N6xx_HAL_Driver/Src/stm32n6xx_ll_usb.c ****   *           1 : DMA feature used
1070:STM32Cube_FW_N6/Drivers/STM32N6xx_HAL_Driver/Src/stm32n6xx_ll_usb.c ****   * @retval HAL status
ARM GAS  C:\Users\DJESSOU\AppData\Local\Temp\ccOpSjVg.s 			page 21


1071:STM32Cube_FW_N6/Drivers/STM32N6xx_HAL_Driver/Src/stm32n6xx_ll_usb.c ****   */
1072:STM32Cube_FW_N6/Drivers/STM32N6xx_HAL_Driver/Src/stm32n6xx_ll_usb.c **** HAL_StatusTypeDef USB_WritePacket(const USB_OTG_GlobalTypeDef *USBx, uint8_t *src,
1073:STM32Cube_FW_N6/Drivers/STM32N6xx_HAL_Driver/Src/stm32n6xx_ll_usb.c ****                                   uint8_t ch_ep_num, uint16_t len, uint8_t dma)
1074:STM32Cube_FW_N6/Drivers/STM32N6xx_HAL_Driver/Src/stm32n6xx_ll_usb.c **** {
1075:STM32Cube_FW_N6/Drivers/STM32N6xx_HAL_Driver/Src/stm32n6xx_ll_usb.c ****   uint32_t USBx_BASE = (uint32_t)USBx;
1076:STM32Cube_FW_N6/Drivers/STM32N6xx_HAL_Driver/Src/stm32n6xx_ll_usb.c ****   uint8_t *pSrc = src;
1077:STM32Cube_FW_N6/Drivers/STM32N6xx_HAL_Driver/Src/stm32n6xx_ll_usb.c ****   uint32_t count32b;
1078:STM32Cube_FW_N6/Drivers/STM32N6xx_HAL_Driver/Src/stm32n6xx_ll_usb.c ****   uint32_t i;
1079:STM32Cube_FW_N6/Drivers/STM32N6xx_HAL_Driver/Src/stm32n6xx_ll_usb.c **** 
1080:STM32Cube_FW_N6/Drivers/STM32N6xx_HAL_Driver/Src/stm32n6xx_ll_usb.c ****   if (dma == 0U)
1081:STM32Cube_FW_N6/Drivers/STM32N6xx_HAL_Driver/Src/stm32n6xx_ll_usb.c ****   {
1082:STM32Cube_FW_N6/Drivers/STM32N6xx_HAL_Driver/Src/stm32n6xx_ll_usb.c ****     count32b = ((uint32_t)len + 3U) / 4U;
1083:STM32Cube_FW_N6/Drivers/STM32N6xx_HAL_Driver/Src/stm32n6xx_ll_usb.c ****     for (i = 0U; i < count32b; i++)
1084:STM32Cube_FW_N6/Drivers/STM32N6xx_HAL_Driver/Src/stm32n6xx_ll_usb.c ****     {
1085:STM32Cube_FW_N6/Drivers/STM32N6xx_HAL_Driver/Src/stm32n6xx_ll_usb.c ****       USBx_DFIFO((uint32_t)ch_ep_num) = __UNALIGNED_UINT32_READ(pSrc);
1086:STM32Cube_FW_N6/Drivers/STM32N6xx_HAL_Driver/Src/stm32n6xx_ll_usb.c ****       pSrc++;
1087:STM32Cube_FW_N6/Drivers/STM32N6xx_HAL_Driver/Src/stm32n6xx_ll_usb.c ****       pSrc++;
1088:STM32Cube_FW_N6/Drivers/STM32N6xx_HAL_Driver/Src/stm32n6xx_ll_usb.c ****       pSrc++;
1089:STM32Cube_FW_N6/Drivers/STM32N6xx_HAL_Driver/Src/stm32n6xx_ll_usb.c ****       pSrc++;
1090:STM32Cube_FW_N6/Drivers/STM32N6xx_HAL_Driver/Src/stm32n6xx_ll_usb.c ****     }
1091:STM32Cube_FW_N6/Drivers/STM32N6xx_HAL_Driver/Src/stm32n6xx_ll_usb.c ****   }
1092:STM32Cube_FW_N6/Drivers/STM32N6xx_HAL_Driver/Src/stm32n6xx_ll_usb.c **** 
1093:STM32Cube_FW_N6/Drivers/STM32N6xx_HAL_Driver/Src/stm32n6xx_ll_usb.c ****   return HAL_OK;
1094:STM32Cube_FW_N6/Drivers/STM32N6xx_HAL_Driver/Src/stm32n6xx_ll_usb.c **** }
1095:STM32Cube_FW_N6/Drivers/STM32N6xx_HAL_Driver/Src/stm32n6xx_ll_usb.c **** 
1096:STM32Cube_FW_N6/Drivers/STM32N6xx_HAL_Driver/Src/stm32n6xx_ll_usb.c **** /**
1097:STM32Cube_FW_N6/Drivers/STM32N6xx_HAL_Driver/Src/stm32n6xx_ll_usb.c ****   * @brief  USB_ReadPacket : read a packet from the RX FIFO
1098:STM32Cube_FW_N6/Drivers/STM32N6xx_HAL_Driver/Src/stm32n6xx_ll_usb.c ****   * @param  USBx  Selected device
1099:STM32Cube_FW_N6/Drivers/STM32N6xx_HAL_Driver/Src/stm32n6xx_ll_usb.c ****   * @param  dest  source pointer
1100:STM32Cube_FW_N6/Drivers/STM32N6xx_HAL_Driver/Src/stm32n6xx_ll_usb.c ****   * @param  len  Number of bytes to read
1101:STM32Cube_FW_N6/Drivers/STM32N6xx_HAL_Driver/Src/stm32n6xx_ll_usb.c ****   * @retval pointer to destination buffer
1102:STM32Cube_FW_N6/Drivers/STM32N6xx_HAL_Driver/Src/stm32n6xx_ll_usb.c ****   */
1103:STM32Cube_FW_N6/Drivers/STM32N6xx_HAL_Driver/Src/stm32n6xx_ll_usb.c **** void *USB_ReadPacket(const USB_OTG_GlobalTypeDef *USBx, uint8_t *dest, uint16_t len)
1104:STM32Cube_FW_N6/Drivers/STM32N6xx_HAL_Driver/Src/stm32n6xx_ll_usb.c **** {
1105:STM32Cube_FW_N6/Drivers/STM32N6xx_HAL_Driver/Src/stm32n6xx_ll_usb.c ****   uint32_t USBx_BASE = (uint32_t)USBx;
1106:STM32Cube_FW_N6/Drivers/STM32N6xx_HAL_Driver/Src/stm32n6xx_ll_usb.c ****   uint8_t *pDest = dest;
1107:STM32Cube_FW_N6/Drivers/STM32N6xx_HAL_Driver/Src/stm32n6xx_ll_usb.c ****   uint32_t pData;
1108:STM32Cube_FW_N6/Drivers/STM32N6xx_HAL_Driver/Src/stm32n6xx_ll_usb.c ****   uint32_t i;
1109:STM32Cube_FW_N6/Drivers/STM32N6xx_HAL_Driver/Src/stm32n6xx_ll_usb.c ****   uint32_t count32b = (uint32_t)len >> 2U;
1110:STM32Cube_FW_N6/Drivers/STM32N6xx_HAL_Driver/Src/stm32n6xx_ll_usb.c ****   uint16_t remaining_bytes = len % 4U;
1111:STM32Cube_FW_N6/Drivers/STM32N6xx_HAL_Driver/Src/stm32n6xx_ll_usb.c **** 
1112:STM32Cube_FW_N6/Drivers/STM32N6xx_HAL_Driver/Src/stm32n6xx_ll_usb.c ****   for (i = 0U; i < count32b; i++)
1113:STM32Cube_FW_N6/Drivers/STM32N6xx_HAL_Driver/Src/stm32n6xx_ll_usb.c ****   {
1114:STM32Cube_FW_N6/Drivers/STM32N6xx_HAL_Driver/Src/stm32n6xx_ll_usb.c ****     __UNALIGNED_UINT32_WRITE(pDest, USBx_DFIFO(0U));
1115:STM32Cube_FW_N6/Drivers/STM32N6xx_HAL_Driver/Src/stm32n6xx_ll_usb.c ****     pDest++;
1116:STM32Cube_FW_N6/Drivers/STM32N6xx_HAL_Driver/Src/stm32n6xx_ll_usb.c ****     pDest++;
1117:STM32Cube_FW_N6/Drivers/STM32N6xx_HAL_Driver/Src/stm32n6xx_ll_usb.c ****     pDest++;
1118:STM32Cube_FW_N6/Drivers/STM32N6xx_HAL_Driver/Src/stm32n6xx_ll_usb.c ****     pDest++;
1119:STM32Cube_FW_N6/Drivers/STM32N6xx_HAL_Driver/Src/stm32n6xx_ll_usb.c ****   }
1120:STM32Cube_FW_N6/Drivers/STM32N6xx_HAL_Driver/Src/stm32n6xx_ll_usb.c **** 
1121:STM32Cube_FW_N6/Drivers/STM32N6xx_HAL_Driver/Src/stm32n6xx_ll_usb.c ****   /* When Number of data is not word aligned, read the remaining byte */
1122:STM32Cube_FW_N6/Drivers/STM32N6xx_HAL_Driver/Src/stm32n6xx_ll_usb.c ****   if (remaining_bytes != 0U)
1123:STM32Cube_FW_N6/Drivers/STM32N6xx_HAL_Driver/Src/stm32n6xx_ll_usb.c ****   {
1124:STM32Cube_FW_N6/Drivers/STM32N6xx_HAL_Driver/Src/stm32n6xx_ll_usb.c ****     i = 0U;
1125:STM32Cube_FW_N6/Drivers/STM32N6xx_HAL_Driver/Src/stm32n6xx_ll_usb.c ****     __UNALIGNED_UINT32_WRITE(&pData, USBx_DFIFO(0U));
1126:STM32Cube_FW_N6/Drivers/STM32N6xx_HAL_Driver/Src/stm32n6xx_ll_usb.c **** 
1127:STM32Cube_FW_N6/Drivers/STM32N6xx_HAL_Driver/Src/stm32n6xx_ll_usb.c ****     do
ARM GAS  C:\Users\DJESSOU\AppData\Local\Temp\ccOpSjVg.s 			page 22


1128:STM32Cube_FW_N6/Drivers/STM32N6xx_HAL_Driver/Src/stm32n6xx_ll_usb.c ****     {
1129:STM32Cube_FW_N6/Drivers/STM32N6xx_HAL_Driver/Src/stm32n6xx_ll_usb.c ****       *(uint8_t *)pDest = (uint8_t)(pData >> (8U * (uint8_t)(i)));
1130:STM32Cube_FW_N6/Drivers/STM32N6xx_HAL_Driver/Src/stm32n6xx_ll_usb.c ****       i++;
1131:STM32Cube_FW_N6/Drivers/STM32N6xx_HAL_Driver/Src/stm32n6xx_ll_usb.c ****       pDest++;
1132:STM32Cube_FW_N6/Drivers/STM32N6xx_HAL_Driver/Src/stm32n6xx_ll_usb.c ****       remaining_bytes--;
1133:STM32Cube_FW_N6/Drivers/STM32N6xx_HAL_Driver/Src/stm32n6xx_ll_usb.c ****     } while (remaining_bytes != 0U);
1134:STM32Cube_FW_N6/Drivers/STM32N6xx_HAL_Driver/Src/stm32n6xx_ll_usb.c ****   }
1135:STM32Cube_FW_N6/Drivers/STM32N6xx_HAL_Driver/Src/stm32n6xx_ll_usb.c **** 
1136:STM32Cube_FW_N6/Drivers/STM32N6xx_HAL_Driver/Src/stm32n6xx_ll_usb.c ****   return ((void *)pDest);
1137:STM32Cube_FW_N6/Drivers/STM32N6xx_HAL_Driver/Src/stm32n6xx_ll_usb.c **** }
1138:STM32Cube_FW_N6/Drivers/STM32N6xx_HAL_Driver/Src/stm32n6xx_ll_usb.c **** 
1139:STM32Cube_FW_N6/Drivers/STM32N6xx_HAL_Driver/Src/stm32n6xx_ll_usb.c **** /**
1140:STM32Cube_FW_N6/Drivers/STM32N6xx_HAL_Driver/Src/stm32n6xx_ll_usb.c ****   * @brief  USB_StopDevice : Stop the usb device mode
1141:STM32Cube_FW_N6/Drivers/STM32N6xx_HAL_Driver/Src/stm32n6xx_ll_usb.c ****   * @param  USBx  Selected device
1142:STM32Cube_FW_N6/Drivers/STM32N6xx_HAL_Driver/Src/stm32n6xx_ll_usb.c ****   * @retval HAL status
1143:STM32Cube_FW_N6/Drivers/STM32N6xx_HAL_Driver/Src/stm32n6xx_ll_usb.c ****   */
1144:STM32Cube_FW_N6/Drivers/STM32N6xx_HAL_Driver/Src/stm32n6xx_ll_usb.c **** HAL_StatusTypeDef USB_StopDevice(USB_OTG_GlobalTypeDef *USBx)
1145:STM32Cube_FW_N6/Drivers/STM32N6xx_HAL_Driver/Src/stm32n6xx_ll_usb.c **** {
1146:STM32Cube_FW_N6/Drivers/STM32N6xx_HAL_Driver/Src/stm32n6xx_ll_usb.c ****   HAL_StatusTypeDef ret;
1147:STM32Cube_FW_N6/Drivers/STM32N6xx_HAL_Driver/Src/stm32n6xx_ll_usb.c ****   uint32_t USBx_BASE = (uint32_t)USBx;
1148:STM32Cube_FW_N6/Drivers/STM32N6xx_HAL_Driver/Src/stm32n6xx_ll_usb.c ****   uint32_t i;
1149:STM32Cube_FW_N6/Drivers/STM32N6xx_HAL_Driver/Src/stm32n6xx_ll_usb.c **** 
1150:STM32Cube_FW_N6/Drivers/STM32N6xx_HAL_Driver/Src/stm32n6xx_ll_usb.c ****   /* Clear Pending interrupt */
1151:STM32Cube_FW_N6/Drivers/STM32N6xx_HAL_Driver/Src/stm32n6xx_ll_usb.c ****   for (i = 0U; i < 15U; i++)
1152:STM32Cube_FW_N6/Drivers/STM32N6xx_HAL_Driver/Src/stm32n6xx_ll_usb.c ****   {
1153:STM32Cube_FW_N6/Drivers/STM32N6xx_HAL_Driver/Src/stm32n6xx_ll_usb.c ****     USBx_INEP(i)->DIEPINT = 0xFB7FU;
1154:STM32Cube_FW_N6/Drivers/STM32N6xx_HAL_Driver/Src/stm32n6xx_ll_usb.c ****     USBx_OUTEP(i)->DOEPINT = 0xFB7FU;
1155:STM32Cube_FW_N6/Drivers/STM32N6xx_HAL_Driver/Src/stm32n6xx_ll_usb.c ****   }
1156:STM32Cube_FW_N6/Drivers/STM32N6xx_HAL_Driver/Src/stm32n6xx_ll_usb.c **** 
1157:STM32Cube_FW_N6/Drivers/STM32N6xx_HAL_Driver/Src/stm32n6xx_ll_usb.c ****   /* Clear interrupt masks */
1158:STM32Cube_FW_N6/Drivers/STM32N6xx_HAL_Driver/Src/stm32n6xx_ll_usb.c ****   USBx_DEVICE->DIEPMSK  = 0U;
1159:STM32Cube_FW_N6/Drivers/STM32N6xx_HAL_Driver/Src/stm32n6xx_ll_usb.c ****   USBx_DEVICE->DOEPMSK  = 0U;
1160:STM32Cube_FW_N6/Drivers/STM32N6xx_HAL_Driver/Src/stm32n6xx_ll_usb.c ****   USBx_DEVICE->DAINTMSK = 0U;
1161:STM32Cube_FW_N6/Drivers/STM32N6xx_HAL_Driver/Src/stm32n6xx_ll_usb.c **** 
1162:STM32Cube_FW_N6/Drivers/STM32N6xx_HAL_Driver/Src/stm32n6xx_ll_usb.c ****   /* Flush the FIFO */
1163:STM32Cube_FW_N6/Drivers/STM32N6xx_HAL_Driver/Src/stm32n6xx_ll_usb.c ****   ret = USB_FlushRxFifo(USBx);
1164:STM32Cube_FW_N6/Drivers/STM32N6xx_HAL_Driver/Src/stm32n6xx_ll_usb.c ****   if (ret != HAL_OK)
1165:STM32Cube_FW_N6/Drivers/STM32N6xx_HAL_Driver/Src/stm32n6xx_ll_usb.c ****   {
1166:STM32Cube_FW_N6/Drivers/STM32N6xx_HAL_Driver/Src/stm32n6xx_ll_usb.c ****     return ret;
1167:STM32Cube_FW_N6/Drivers/STM32N6xx_HAL_Driver/Src/stm32n6xx_ll_usb.c ****   }
1168:STM32Cube_FW_N6/Drivers/STM32N6xx_HAL_Driver/Src/stm32n6xx_ll_usb.c **** 
1169:STM32Cube_FW_N6/Drivers/STM32N6xx_HAL_Driver/Src/stm32n6xx_ll_usb.c ****   ret = USB_FlushTxFifo(USBx,  0x10U);
1170:STM32Cube_FW_N6/Drivers/STM32N6xx_HAL_Driver/Src/stm32n6xx_ll_usb.c ****   if (ret != HAL_OK)
1171:STM32Cube_FW_N6/Drivers/STM32N6xx_HAL_Driver/Src/stm32n6xx_ll_usb.c ****   {
1172:STM32Cube_FW_N6/Drivers/STM32N6xx_HAL_Driver/Src/stm32n6xx_ll_usb.c ****     return ret;
1173:STM32Cube_FW_N6/Drivers/STM32N6xx_HAL_Driver/Src/stm32n6xx_ll_usb.c ****   }
1174:STM32Cube_FW_N6/Drivers/STM32N6xx_HAL_Driver/Src/stm32n6xx_ll_usb.c **** 
1175:STM32Cube_FW_N6/Drivers/STM32N6xx_HAL_Driver/Src/stm32n6xx_ll_usb.c ****   return ret;
1176:STM32Cube_FW_N6/Drivers/STM32N6xx_HAL_Driver/Src/stm32n6xx_ll_usb.c **** }
1177:STM32Cube_FW_N6/Drivers/STM32N6xx_HAL_Driver/Src/stm32n6xx_ll_usb.c **** 
1178:STM32Cube_FW_N6/Drivers/STM32N6xx_HAL_Driver/Src/stm32n6xx_ll_usb.c **** /**
1179:STM32Cube_FW_N6/Drivers/STM32N6xx_HAL_Driver/Src/stm32n6xx_ll_usb.c ****   * @brief  USB_SetDevAddress : Stop the usb device mode
1180:STM32Cube_FW_N6/Drivers/STM32N6xx_HAL_Driver/Src/stm32n6xx_ll_usb.c ****   * @param  USBx  Selected device
1181:STM32Cube_FW_N6/Drivers/STM32N6xx_HAL_Driver/Src/stm32n6xx_ll_usb.c ****   * @param  address  new device address to be assigned
1182:STM32Cube_FW_N6/Drivers/STM32N6xx_HAL_Driver/Src/stm32n6xx_ll_usb.c ****   *          This parameter can be a value from 0 to 255
1183:STM32Cube_FW_N6/Drivers/STM32N6xx_HAL_Driver/Src/stm32n6xx_ll_usb.c ****   * @retval HAL status
1184:STM32Cube_FW_N6/Drivers/STM32N6xx_HAL_Driver/Src/stm32n6xx_ll_usb.c ****   */
ARM GAS  C:\Users\DJESSOU\AppData\Local\Temp\ccOpSjVg.s 			page 23


1185:STM32Cube_FW_N6/Drivers/STM32N6xx_HAL_Driver/Src/stm32n6xx_ll_usb.c **** HAL_StatusTypeDef USB_SetDevAddress(const USB_OTG_GlobalTypeDef *USBx, uint8_t address)
1186:STM32Cube_FW_N6/Drivers/STM32N6xx_HAL_Driver/Src/stm32n6xx_ll_usb.c **** {
1187:STM32Cube_FW_N6/Drivers/STM32N6xx_HAL_Driver/Src/stm32n6xx_ll_usb.c ****   uint32_t USBx_BASE = (uint32_t)USBx;
1188:STM32Cube_FW_N6/Drivers/STM32N6xx_HAL_Driver/Src/stm32n6xx_ll_usb.c **** 
1189:STM32Cube_FW_N6/Drivers/STM32N6xx_HAL_Driver/Src/stm32n6xx_ll_usb.c ****   USBx_DEVICE->DCFG &= ~(USB_OTG_DCFG_DAD);
1190:STM32Cube_FW_N6/Drivers/STM32N6xx_HAL_Driver/Src/stm32n6xx_ll_usb.c ****   USBx_DEVICE->DCFG |= ((uint32_t)address << 4) & USB_OTG_DCFG_DAD;
1191:STM32Cube_FW_N6/Drivers/STM32N6xx_HAL_Driver/Src/stm32n6xx_ll_usb.c **** 
1192:STM32Cube_FW_N6/Drivers/STM32N6xx_HAL_Driver/Src/stm32n6xx_ll_usb.c ****   return HAL_OK;
1193:STM32Cube_FW_N6/Drivers/STM32N6xx_HAL_Driver/Src/stm32n6xx_ll_usb.c **** }
1194:STM32Cube_FW_N6/Drivers/STM32N6xx_HAL_Driver/Src/stm32n6xx_ll_usb.c **** 
1195:STM32Cube_FW_N6/Drivers/STM32N6xx_HAL_Driver/Src/stm32n6xx_ll_usb.c **** /**
1196:STM32Cube_FW_N6/Drivers/STM32N6xx_HAL_Driver/Src/stm32n6xx_ll_usb.c ****   * @brief  USB_DevConnect : Connect the USB device by enabling Rpu
1197:STM32Cube_FW_N6/Drivers/STM32N6xx_HAL_Driver/Src/stm32n6xx_ll_usb.c ****   * @param  USBx  Selected device
1198:STM32Cube_FW_N6/Drivers/STM32N6xx_HAL_Driver/Src/stm32n6xx_ll_usb.c ****   * @retval HAL status
1199:STM32Cube_FW_N6/Drivers/STM32N6xx_HAL_Driver/Src/stm32n6xx_ll_usb.c ****   */
1200:STM32Cube_FW_N6/Drivers/STM32N6xx_HAL_Driver/Src/stm32n6xx_ll_usb.c **** HAL_StatusTypeDef USB_DevConnect(const USB_OTG_GlobalTypeDef *USBx)
1201:STM32Cube_FW_N6/Drivers/STM32N6xx_HAL_Driver/Src/stm32n6xx_ll_usb.c **** {
1202:STM32Cube_FW_N6/Drivers/STM32N6xx_HAL_Driver/Src/stm32n6xx_ll_usb.c ****   uint32_t USBx_BASE = (uint32_t)USBx;
1203:STM32Cube_FW_N6/Drivers/STM32N6xx_HAL_Driver/Src/stm32n6xx_ll_usb.c **** 
1204:STM32Cube_FW_N6/Drivers/STM32N6xx_HAL_Driver/Src/stm32n6xx_ll_usb.c ****   /* In case phy is stopped, ensure to ungate and restore the phy CLK */
1205:STM32Cube_FW_N6/Drivers/STM32N6xx_HAL_Driver/Src/stm32n6xx_ll_usb.c ****   USBx_PCGCCTL &= ~(USB_OTG_PCGCCTL_STOPCLK | USB_OTG_PCGCCTL_GATECLK);
1206:STM32Cube_FW_N6/Drivers/STM32N6xx_HAL_Driver/Src/stm32n6xx_ll_usb.c **** 
1207:STM32Cube_FW_N6/Drivers/STM32N6xx_HAL_Driver/Src/stm32n6xx_ll_usb.c ****   USBx_DEVICE->DCTL &= ~USB_OTG_DCTL_SDIS;
1208:STM32Cube_FW_N6/Drivers/STM32N6xx_HAL_Driver/Src/stm32n6xx_ll_usb.c **** 
1209:STM32Cube_FW_N6/Drivers/STM32N6xx_HAL_Driver/Src/stm32n6xx_ll_usb.c ****   return HAL_OK;
1210:STM32Cube_FW_N6/Drivers/STM32N6xx_HAL_Driver/Src/stm32n6xx_ll_usb.c **** }
1211:STM32Cube_FW_N6/Drivers/STM32N6xx_HAL_Driver/Src/stm32n6xx_ll_usb.c **** 
1212:STM32Cube_FW_N6/Drivers/STM32N6xx_HAL_Driver/Src/stm32n6xx_ll_usb.c **** /**
1213:STM32Cube_FW_N6/Drivers/STM32N6xx_HAL_Driver/Src/stm32n6xx_ll_usb.c ****   * @brief  USB_DevDisconnect : Disconnect the USB device by disabling Rpu
1214:STM32Cube_FW_N6/Drivers/STM32N6xx_HAL_Driver/Src/stm32n6xx_ll_usb.c ****   * @param  USBx  Selected device
1215:STM32Cube_FW_N6/Drivers/STM32N6xx_HAL_Driver/Src/stm32n6xx_ll_usb.c ****   * @retval HAL status
1216:STM32Cube_FW_N6/Drivers/STM32N6xx_HAL_Driver/Src/stm32n6xx_ll_usb.c ****   */
1217:STM32Cube_FW_N6/Drivers/STM32N6xx_HAL_Driver/Src/stm32n6xx_ll_usb.c **** HAL_StatusTypeDef USB_DevDisconnect(const USB_OTG_GlobalTypeDef *USBx)
1218:STM32Cube_FW_N6/Drivers/STM32N6xx_HAL_Driver/Src/stm32n6xx_ll_usb.c **** {
1219:STM32Cube_FW_N6/Drivers/STM32N6xx_HAL_Driver/Src/stm32n6xx_ll_usb.c ****   uint32_t USBx_BASE = (uint32_t)USBx;
1220:STM32Cube_FW_N6/Drivers/STM32N6xx_HAL_Driver/Src/stm32n6xx_ll_usb.c **** 
1221:STM32Cube_FW_N6/Drivers/STM32N6xx_HAL_Driver/Src/stm32n6xx_ll_usb.c ****   /* In case phy is stopped, ensure to ungate and restore the phy CLK */
1222:STM32Cube_FW_N6/Drivers/STM32N6xx_HAL_Driver/Src/stm32n6xx_ll_usb.c ****   USBx_PCGCCTL &= ~(USB_OTG_PCGCCTL_STOPCLK | USB_OTG_PCGCCTL_GATECLK);
1223:STM32Cube_FW_N6/Drivers/STM32N6xx_HAL_Driver/Src/stm32n6xx_ll_usb.c **** 
1224:STM32Cube_FW_N6/Drivers/STM32N6xx_HAL_Driver/Src/stm32n6xx_ll_usb.c ****   USBx_DEVICE->DCTL |= USB_OTG_DCTL_SDIS;
1225:STM32Cube_FW_N6/Drivers/STM32N6xx_HAL_Driver/Src/stm32n6xx_ll_usb.c **** 
1226:STM32Cube_FW_N6/Drivers/STM32N6xx_HAL_Driver/Src/stm32n6xx_ll_usb.c ****   return HAL_OK;
1227:STM32Cube_FW_N6/Drivers/STM32N6xx_HAL_Driver/Src/stm32n6xx_ll_usb.c **** }
1228:STM32Cube_FW_N6/Drivers/STM32N6xx_HAL_Driver/Src/stm32n6xx_ll_usb.c **** 
1229:STM32Cube_FW_N6/Drivers/STM32N6xx_HAL_Driver/Src/stm32n6xx_ll_usb.c **** /**
1230:STM32Cube_FW_N6/Drivers/STM32N6xx_HAL_Driver/Src/stm32n6xx_ll_usb.c ****   * @brief  USB_ReadInterrupts: return the global USB interrupt status
1231:STM32Cube_FW_N6/Drivers/STM32N6xx_HAL_Driver/Src/stm32n6xx_ll_usb.c ****   * @param  USBx  Selected device
1232:STM32Cube_FW_N6/Drivers/STM32N6xx_HAL_Driver/Src/stm32n6xx_ll_usb.c ****   * @retval USB Global Interrupt status
1233:STM32Cube_FW_N6/Drivers/STM32N6xx_HAL_Driver/Src/stm32n6xx_ll_usb.c ****   */
1234:STM32Cube_FW_N6/Drivers/STM32N6xx_HAL_Driver/Src/stm32n6xx_ll_usb.c **** uint32_t USB_ReadInterrupts(USB_OTG_GlobalTypeDef const *USBx)
1235:STM32Cube_FW_N6/Drivers/STM32N6xx_HAL_Driver/Src/stm32n6xx_ll_usb.c **** {
1236:STM32Cube_FW_N6/Drivers/STM32N6xx_HAL_Driver/Src/stm32n6xx_ll_usb.c ****   uint32_t tmpreg;
1237:STM32Cube_FW_N6/Drivers/STM32N6xx_HAL_Driver/Src/stm32n6xx_ll_usb.c **** 
1238:STM32Cube_FW_N6/Drivers/STM32N6xx_HAL_Driver/Src/stm32n6xx_ll_usb.c ****   tmpreg = USBx->GINTSTS;
1239:STM32Cube_FW_N6/Drivers/STM32N6xx_HAL_Driver/Src/stm32n6xx_ll_usb.c ****   tmpreg &= USBx->GINTMSK;
1240:STM32Cube_FW_N6/Drivers/STM32N6xx_HAL_Driver/Src/stm32n6xx_ll_usb.c **** 
1241:STM32Cube_FW_N6/Drivers/STM32N6xx_HAL_Driver/Src/stm32n6xx_ll_usb.c ****   return tmpreg;
ARM GAS  C:\Users\DJESSOU\AppData\Local\Temp\ccOpSjVg.s 			page 24


1242:STM32Cube_FW_N6/Drivers/STM32N6xx_HAL_Driver/Src/stm32n6xx_ll_usb.c **** }
1243:STM32Cube_FW_N6/Drivers/STM32N6xx_HAL_Driver/Src/stm32n6xx_ll_usb.c **** 
1244:STM32Cube_FW_N6/Drivers/STM32N6xx_HAL_Driver/Src/stm32n6xx_ll_usb.c **** /**
1245:STM32Cube_FW_N6/Drivers/STM32N6xx_HAL_Driver/Src/stm32n6xx_ll_usb.c ****   * @brief  USB_ReadChInterrupts: return USB channel interrupt status
1246:STM32Cube_FW_N6/Drivers/STM32N6xx_HAL_Driver/Src/stm32n6xx_ll_usb.c ****   * @param  USBx  Selected device
1247:STM32Cube_FW_N6/Drivers/STM32N6xx_HAL_Driver/Src/stm32n6xx_ll_usb.c ****   * @param  chnum Channel number
1248:STM32Cube_FW_N6/Drivers/STM32N6xx_HAL_Driver/Src/stm32n6xx_ll_usb.c ****   * @retval USB Channel Interrupt status
1249:STM32Cube_FW_N6/Drivers/STM32N6xx_HAL_Driver/Src/stm32n6xx_ll_usb.c ****   */
1250:STM32Cube_FW_N6/Drivers/STM32N6xx_HAL_Driver/Src/stm32n6xx_ll_usb.c **** uint32_t USB_ReadChInterrupts(const USB_OTG_GlobalTypeDef *USBx, uint8_t chnum)
1251:STM32Cube_FW_N6/Drivers/STM32N6xx_HAL_Driver/Src/stm32n6xx_ll_usb.c **** {
1252:STM32Cube_FW_N6/Drivers/STM32N6xx_HAL_Driver/Src/stm32n6xx_ll_usb.c ****   uint32_t USBx_BASE = (uint32_t)USBx;
1253:STM32Cube_FW_N6/Drivers/STM32N6xx_HAL_Driver/Src/stm32n6xx_ll_usb.c ****   uint32_t tmpreg;
1254:STM32Cube_FW_N6/Drivers/STM32N6xx_HAL_Driver/Src/stm32n6xx_ll_usb.c **** 
1255:STM32Cube_FW_N6/Drivers/STM32N6xx_HAL_Driver/Src/stm32n6xx_ll_usb.c ****   tmpreg = USBx_HC(chnum)->HCINT;
1256:STM32Cube_FW_N6/Drivers/STM32N6xx_HAL_Driver/Src/stm32n6xx_ll_usb.c ****   tmpreg &= USBx_HC(chnum)->HCINTMSK;
1257:STM32Cube_FW_N6/Drivers/STM32N6xx_HAL_Driver/Src/stm32n6xx_ll_usb.c **** 
1258:STM32Cube_FW_N6/Drivers/STM32N6xx_HAL_Driver/Src/stm32n6xx_ll_usb.c ****   return tmpreg;
1259:STM32Cube_FW_N6/Drivers/STM32N6xx_HAL_Driver/Src/stm32n6xx_ll_usb.c **** }
1260:STM32Cube_FW_N6/Drivers/STM32N6xx_HAL_Driver/Src/stm32n6xx_ll_usb.c **** 
1261:STM32Cube_FW_N6/Drivers/STM32N6xx_HAL_Driver/Src/stm32n6xx_ll_usb.c **** /**
1262:STM32Cube_FW_N6/Drivers/STM32N6xx_HAL_Driver/Src/stm32n6xx_ll_usb.c ****   * @brief  USB_ReadDevAllOutEpInterrupt: return the USB device OUT endpoints interrupt status
1263:STM32Cube_FW_N6/Drivers/STM32N6xx_HAL_Driver/Src/stm32n6xx_ll_usb.c ****   * @param  USBx  Selected device
1264:STM32Cube_FW_N6/Drivers/STM32N6xx_HAL_Driver/Src/stm32n6xx_ll_usb.c ****   * @retval USB Device OUT EP interrupt status
1265:STM32Cube_FW_N6/Drivers/STM32N6xx_HAL_Driver/Src/stm32n6xx_ll_usb.c ****   */
1266:STM32Cube_FW_N6/Drivers/STM32N6xx_HAL_Driver/Src/stm32n6xx_ll_usb.c **** uint32_t USB_ReadDevAllOutEpInterrupt(const USB_OTG_GlobalTypeDef *USBx)
1267:STM32Cube_FW_N6/Drivers/STM32N6xx_HAL_Driver/Src/stm32n6xx_ll_usb.c **** {
1268:STM32Cube_FW_N6/Drivers/STM32N6xx_HAL_Driver/Src/stm32n6xx_ll_usb.c ****   uint32_t USBx_BASE = (uint32_t)USBx;
1269:STM32Cube_FW_N6/Drivers/STM32N6xx_HAL_Driver/Src/stm32n6xx_ll_usb.c ****   uint32_t tmpreg;
1270:STM32Cube_FW_N6/Drivers/STM32N6xx_HAL_Driver/Src/stm32n6xx_ll_usb.c **** 
1271:STM32Cube_FW_N6/Drivers/STM32N6xx_HAL_Driver/Src/stm32n6xx_ll_usb.c ****   tmpreg  = USBx_DEVICE->DAINT;
1272:STM32Cube_FW_N6/Drivers/STM32N6xx_HAL_Driver/Src/stm32n6xx_ll_usb.c ****   tmpreg &= USBx_DEVICE->DAINTMSK;
1273:STM32Cube_FW_N6/Drivers/STM32N6xx_HAL_Driver/Src/stm32n6xx_ll_usb.c **** 
1274:STM32Cube_FW_N6/Drivers/STM32N6xx_HAL_Driver/Src/stm32n6xx_ll_usb.c ****   return ((tmpreg & 0xffff0000U) >> 16);
1275:STM32Cube_FW_N6/Drivers/STM32N6xx_HAL_Driver/Src/stm32n6xx_ll_usb.c **** }
1276:STM32Cube_FW_N6/Drivers/STM32N6xx_HAL_Driver/Src/stm32n6xx_ll_usb.c **** 
1277:STM32Cube_FW_N6/Drivers/STM32N6xx_HAL_Driver/Src/stm32n6xx_ll_usb.c **** /**
1278:STM32Cube_FW_N6/Drivers/STM32N6xx_HAL_Driver/Src/stm32n6xx_ll_usb.c ****   * @brief  USB_ReadDevAllInEpInterrupt: return the USB device IN endpoints interrupt status
1279:STM32Cube_FW_N6/Drivers/STM32N6xx_HAL_Driver/Src/stm32n6xx_ll_usb.c ****   * @param  USBx  Selected device
1280:STM32Cube_FW_N6/Drivers/STM32N6xx_HAL_Driver/Src/stm32n6xx_ll_usb.c ****   * @retval USB Device IN EP interrupt status
1281:STM32Cube_FW_N6/Drivers/STM32N6xx_HAL_Driver/Src/stm32n6xx_ll_usb.c ****   */
1282:STM32Cube_FW_N6/Drivers/STM32N6xx_HAL_Driver/Src/stm32n6xx_ll_usb.c **** uint32_t USB_ReadDevAllInEpInterrupt(const USB_OTG_GlobalTypeDef *USBx)
1283:STM32Cube_FW_N6/Drivers/STM32N6xx_HAL_Driver/Src/stm32n6xx_ll_usb.c **** {
1284:STM32Cube_FW_N6/Drivers/STM32N6xx_HAL_Driver/Src/stm32n6xx_ll_usb.c ****   uint32_t USBx_BASE = (uint32_t)USBx;
1285:STM32Cube_FW_N6/Drivers/STM32N6xx_HAL_Driver/Src/stm32n6xx_ll_usb.c ****   uint32_t tmpreg;
1286:STM32Cube_FW_N6/Drivers/STM32N6xx_HAL_Driver/Src/stm32n6xx_ll_usb.c **** 
1287:STM32Cube_FW_N6/Drivers/STM32N6xx_HAL_Driver/Src/stm32n6xx_ll_usb.c ****   tmpreg  = USBx_DEVICE->DAINT;
1288:STM32Cube_FW_N6/Drivers/STM32N6xx_HAL_Driver/Src/stm32n6xx_ll_usb.c ****   tmpreg &= USBx_DEVICE->DAINTMSK;
1289:STM32Cube_FW_N6/Drivers/STM32N6xx_HAL_Driver/Src/stm32n6xx_ll_usb.c **** 
1290:STM32Cube_FW_N6/Drivers/STM32N6xx_HAL_Driver/Src/stm32n6xx_ll_usb.c ****   return ((tmpreg & 0xFFFFU));
1291:STM32Cube_FW_N6/Drivers/STM32N6xx_HAL_Driver/Src/stm32n6xx_ll_usb.c **** }
1292:STM32Cube_FW_N6/Drivers/STM32N6xx_HAL_Driver/Src/stm32n6xx_ll_usb.c **** 
1293:STM32Cube_FW_N6/Drivers/STM32N6xx_HAL_Driver/Src/stm32n6xx_ll_usb.c **** /**
1294:STM32Cube_FW_N6/Drivers/STM32N6xx_HAL_Driver/Src/stm32n6xx_ll_usb.c ****   * @brief  Returns Device OUT EP Interrupt register
1295:STM32Cube_FW_N6/Drivers/STM32N6xx_HAL_Driver/Src/stm32n6xx_ll_usb.c ****   * @param  USBx  Selected device
1296:STM32Cube_FW_N6/Drivers/STM32N6xx_HAL_Driver/Src/stm32n6xx_ll_usb.c ****   * @param  epnum  endpoint number
1297:STM32Cube_FW_N6/Drivers/STM32N6xx_HAL_Driver/Src/stm32n6xx_ll_usb.c ****   *          This parameter can be a value from 0 to 15
1298:STM32Cube_FW_N6/Drivers/STM32N6xx_HAL_Driver/Src/stm32n6xx_ll_usb.c ****   * @retval Device OUT EP Interrupt register
ARM GAS  C:\Users\DJESSOU\AppData\Local\Temp\ccOpSjVg.s 			page 25


1299:STM32Cube_FW_N6/Drivers/STM32N6xx_HAL_Driver/Src/stm32n6xx_ll_usb.c ****   */
1300:STM32Cube_FW_N6/Drivers/STM32N6xx_HAL_Driver/Src/stm32n6xx_ll_usb.c **** uint32_t USB_ReadDevOutEPInterrupt(const USB_OTG_GlobalTypeDef *USBx, uint8_t epnum)
1301:STM32Cube_FW_N6/Drivers/STM32N6xx_HAL_Driver/Src/stm32n6xx_ll_usb.c **** {
1302:STM32Cube_FW_N6/Drivers/STM32N6xx_HAL_Driver/Src/stm32n6xx_ll_usb.c ****   uint32_t USBx_BASE = (uint32_t)USBx;
1303:STM32Cube_FW_N6/Drivers/STM32N6xx_HAL_Driver/Src/stm32n6xx_ll_usb.c ****   uint32_t tmpreg;
1304:STM32Cube_FW_N6/Drivers/STM32N6xx_HAL_Driver/Src/stm32n6xx_ll_usb.c **** 
1305:STM32Cube_FW_N6/Drivers/STM32N6xx_HAL_Driver/Src/stm32n6xx_ll_usb.c ****   tmpreg  = USBx_OUTEP((uint32_t)epnum)->DOEPINT;
1306:STM32Cube_FW_N6/Drivers/STM32N6xx_HAL_Driver/Src/stm32n6xx_ll_usb.c ****   tmpreg &= USBx_DEVICE->DOEPMSK;
1307:STM32Cube_FW_N6/Drivers/STM32N6xx_HAL_Driver/Src/stm32n6xx_ll_usb.c **** 
1308:STM32Cube_FW_N6/Drivers/STM32N6xx_HAL_Driver/Src/stm32n6xx_ll_usb.c ****   return tmpreg;
1309:STM32Cube_FW_N6/Drivers/STM32N6xx_HAL_Driver/Src/stm32n6xx_ll_usb.c **** }
1310:STM32Cube_FW_N6/Drivers/STM32N6xx_HAL_Driver/Src/stm32n6xx_ll_usb.c **** 
1311:STM32Cube_FW_N6/Drivers/STM32N6xx_HAL_Driver/Src/stm32n6xx_ll_usb.c **** /**
1312:STM32Cube_FW_N6/Drivers/STM32N6xx_HAL_Driver/Src/stm32n6xx_ll_usb.c ****   * @brief  Returns Device IN EP Interrupt register
1313:STM32Cube_FW_N6/Drivers/STM32N6xx_HAL_Driver/Src/stm32n6xx_ll_usb.c ****   * @param  USBx  Selected device
1314:STM32Cube_FW_N6/Drivers/STM32N6xx_HAL_Driver/Src/stm32n6xx_ll_usb.c ****   * @param  epnum  endpoint number
1315:STM32Cube_FW_N6/Drivers/STM32N6xx_HAL_Driver/Src/stm32n6xx_ll_usb.c ****   *          This parameter can be a value from 0 to 15
1316:STM32Cube_FW_N6/Drivers/STM32N6xx_HAL_Driver/Src/stm32n6xx_ll_usb.c ****   * @retval Device IN EP Interrupt register
1317:STM32Cube_FW_N6/Drivers/STM32N6xx_HAL_Driver/Src/stm32n6xx_ll_usb.c ****   */
1318:STM32Cube_FW_N6/Drivers/STM32N6xx_HAL_Driver/Src/stm32n6xx_ll_usb.c **** uint32_t USB_ReadDevInEPInterrupt(const USB_OTG_GlobalTypeDef *USBx, uint8_t epnum)
1319:STM32Cube_FW_N6/Drivers/STM32N6xx_HAL_Driver/Src/stm32n6xx_ll_usb.c **** {
1320:STM32Cube_FW_N6/Drivers/STM32N6xx_HAL_Driver/Src/stm32n6xx_ll_usb.c ****   uint32_t USBx_BASE = (uint32_t)USBx;
1321:STM32Cube_FW_N6/Drivers/STM32N6xx_HAL_Driver/Src/stm32n6xx_ll_usb.c ****   uint32_t tmpreg;
1322:STM32Cube_FW_N6/Drivers/STM32N6xx_HAL_Driver/Src/stm32n6xx_ll_usb.c ****   uint32_t msk;
1323:STM32Cube_FW_N6/Drivers/STM32N6xx_HAL_Driver/Src/stm32n6xx_ll_usb.c ****   uint32_t emp;
1324:STM32Cube_FW_N6/Drivers/STM32N6xx_HAL_Driver/Src/stm32n6xx_ll_usb.c **** 
1325:STM32Cube_FW_N6/Drivers/STM32N6xx_HAL_Driver/Src/stm32n6xx_ll_usb.c ****   msk = USBx_DEVICE->DIEPMSK;
1326:STM32Cube_FW_N6/Drivers/STM32N6xx_HAL_Driver/Src/stm32n6xx_ll_usb.c ****   emp = USBx_DEVICE->DIEPEMPMSK;
1327:STM32Cube_FW_N6/Drivers/STM32N6xx_HAL_Driver/Src/stm32n6xx_ll_usb.c ****   msk |= ((emp >> (epnum & EP_ADDR_MSK)) & 0x1U) << 7;
1328:STM32Cube_FW_N6/Drivers/STM32N6xx_HAL_Driver/Src/stm32n6xx_ll_usb.c ****   tmpreg = USBx_INEP((uint32_t)epnum)->DIEPINT & msk;
1329:STM32Cube_FW_N6/Drivers/STM32N6xx_HAL_Driver/Src/stm32n6xx_ll_usb.c **** 
1330:STM32Cube_FW_N6/Drivers/STM32N6xx_HAL_Driver/Src/stm32n6xx_ll_usb.c ****   return tmpreg;
1331:STM32Cube_FW_N6/Drivers/STM32N6xx_HAL_Driver/Src/stm32n6xx_ll_usb.c **** }
1332:STM32Cube_FW_N6/Drivers/STM32N6xx_HAL_Driver/Src/stm32n6xx_ll_usb.c **** 
1333:STM32Cube_FW_N6/Drivers/STM32N6xx_HAL_Driver/Src/stm32n6xx_ll_usb.c **** /**
1334:STM32Cube_FW_N6/Drivers/STM32N6xx_HAL_Driver/Src/stm32n6xx_ll_usb.c ****   * @brief  USB_ClearInterrupts: clear a USB interrupt
1335:STM32Cube_FW_N6/Drivers/STM32N6xx_HAL_Driver/Src/stm32n6xx_ll_usb.c ****   * @param  USBx  Selected device
1336:STM32Cube_FW_N6/Drivers/STM32N6xx_HAL_Driver/Src/stm32n6xx_ll_usb.c ****   * @param  interrupt  flag
1337:STM32Cube_FW_N6/Drivers/STM32N6xx_HAL_Driver/Src/stm32n6xx_ll_usb.c ****   * @retval None
1338:STM32Cube_FW_N6/Drivers/STM32N6xx_HAL_Driver/Src/stm32n6xx_ll_usb.c ****   */
1339:STM32Cube_FW_N6/Drivers/STM32N6xx_HAL_Driver/Src/stm32n6xx_ll_usb.c **** void  USB_ClearInterrupts(USB_OTG_GlobalTypeDef *USBx, uint32_t interrupt)
1340:STM32Cube_FW_N6/Drivers/STM32N6xx_HAL_Driver/Src/stm32n6xx_ll_usb.c **** {
1341:STM32Cube_FW_N6/Drivers/STM32N6xx_HAL_Driver/Src/stm32n6xx_ll_usb.c ****   USBx->GINTSTS &= interrupt;
1342:STM32Cube_FW_N6/Drivers/STM32N6xx_HAL_Driver/Src/stm32n6xx_ll_usb.c **** }
1343:STM32Cube_FW_N6/Drivers/STM32N6xx_HAL_Driver/Src/stm32n6xx_ll_usb.c **** 
1344:STM32Cube_FW_N6/Drivers/STM32N6xx_HAL_Driver/Src/stm32n6xx_ll_usb.c **** /**
1345:STM32Cube_FW_N6/Drivers/STM32N6xx_HAL_Driver/Src/stm32n6xx_ll_usb.c ****   * @brief  Returns USB core mode
1346:STM32Cube_FW_N6/Drivers/STM32N6xx_HAL_Driver/Src/stm32n6xx_ll_usb.c ****   * @param  USBx  Selected device
1347:STM32Cube_FW_N6/Drivers/STM32N6xx_HAL_Driver/Src/stm32n6xx_ll_usb.c ****   * @retval return core mode : Host or Device
1348:STM32Cube_FW_N6/Drivers/STM32N6xx_HAL_Driver/Src/stm32n6xx_ll_usb.c ****   *          This parameter can be one of these values:
1349:STM32Cube_FW_N6/Drivers/STM32N6xx_HAL_Driver/Src/stm32n6xx_ll_usb.c ****   *           1 : Host
1350:STM32Cube_FW_N6/Drivers/STM32N6xx_HAL_Driver/Src/stm32n6xx_ll_usb.c ****   *           0 : Device
1351:STM32Cube_FW_N6/Drivers/STM32N6xx_HAL_Driver/Src/stm32n6xx_ll_usb.c ****   */
1352:STM32Cube_FW_N6/Drivers/STM32N6xx_HAL_Driver/Src/stm32n6xx_ll_usb.c **** uint32_t USB_GetMode(const USB_OTG_GlobalTypeDef *USBx)
1353:STM32Cube_FW_N6/Drivers/STM32N6xx_HAL_Driver/Src/stm32n6xx_ll_usb.c **** {
1354:STM32Cube_FW_N6/Drivers/STM32N6xx_HAL_Driver/Src/stm32n6xx_ll_usb.c ****   return ((USBx->GINTSTS) & 0x1U);
1355:STM32Cube_FW_N6/Drivers/STM32N6xx_HAL_Driver/Src/stm32n6xx_ll_usb.c **** }
ARM GAS  C:\Users\DJESSOU\AppData\Local\Temp\ccOpSjVg.s 			page 26


1356:STM32Cube_FW_N6/Drivers/STM32N6xx_HAL_Driver/Src/stm32n6xx_ll_usb.c **** 
1357:STM32Cube_FW_N6/Drivers/STM32N6xx_HAL_Driver/Src/stm32n6xx_ll_usb.c **** /**
1358:STM32Cube_FW_N6/Drivers/STM32N6xx_HAL_Driver/Src/stm32n6xx_ll_usb.c ****   * @brief  Activate EP0 for Setup transactions
1359:STM32Cube_FW_N6/Drivers/STM32N6xx_HAL_Driver/Src/stm32n6xx_ll_usb.c ****   * @param  USBx  Selected device
1360:STM32Cube_FW_N6/Drivers/STM32N6xx_HAL_Driver/Src/stm32n6xx_ll_usb.c ****   * @retval HAL status
1361:STM32Cube_FW_N6/Drivers/STM32N6xx_HAL_Driver/Src/stm32n6xx_ll_usb.c ****   */
1362:STM32Cube_FW_N6/Drivers/STM32N6xx_HAL_Driver/Src/stm32n6xx_ll_usb.c **** HAL_StatusTypeDef USB_ActivateSetup(const USB_OTG_GlobalTypeDef *USBx)
1363:STM32Cube_FW_N6/Drivers/STM32N6xx_HAL_Driver/Src/stm32n6xx_ll_usb.c **** {
1364:STM32Cube_FW_N6/Drivers/STM32N6xx_HAL_Driver/Src/stm32n6xx_ll_usb.c ****   uint32_t USBx_BASE = (uint32_t)USBx;
1365:STM32Cube_FW_N6/Drivers/STM32N6xx_HAL_Driver/Src/stm32n6xx_ll_usb.c **** 
1366:STM32Cube_FW_N6/Drivers/STM32N6xx_HAL_Driver/Src/stm32n6xx_ll_usb.c ****   /* Set the MPS of the IN EP0 to 64 bytes */
1367:STM32Cube_FW_N6/Drivers/STM32N6xx_HAL_Driver/Src/stm32n6xx_ll_usb.c ****   USBx_INEP(0U)->DIEPCTL &= ~USB_OTG_DIEPCTL_MPSIZ;
1368:STM32Cube_FW_N6/Drivers/STM32N6xx_HAL_Driver/Src/stm32n6xx_ll_usb.c **** 
1369:STM32Cube_FW_N6/Drivers/STM32N6xx_HAL_Driver/Src/stm32n6xx_ll_usb.c ****   USBx_DEVICE->DCTL |= USB_OTG_DCTL_CGINAK;
1370:STM32Cube_FW_N6/Drivers/STM32N6xx_HAL_Driver/Src/stm32n6xx_ll_usb.c **** 
1371:STM32Cube_FW_N6/Drivers/STM32N6xx_HAL_Driver/Src/stm32n6xx_ll_usb.c ****   return HAL_OK;
1372:STM32Cube_FW_N6/Drivers/STM32N6xx_HAL_Driver/Src/stm32n6xx_ll_usb.c **** }
1373:STM32Cube_FW_N6/Drivers/STM32N6xx_HAL_Driver/Src/stm32n6xx_ll_usb.c **** 
1374:STM32Cube_FW_N6/Drivers/STM32N6xx_HAL_Driver/Src/stm32n6xx_ll_usb.c **** /**
1375:STM32Cube_FW_N6/Drivers/STM32N6xx_HAL_Driver/Src/stm32n6xx_ll_usb.c ****   * @brief  Prepare the EP0 to start the first control setup
1376:STM32Cube_FW_N6/Drivers/STM32N6xx_HAL_Driver/Src/stm32n6xx_ll_usb.c ****   * @param  USBx  Selected device
1377:STM32Cube_FW_N6/Drivers/STM32N6xx_HAL_Driver/Src/stm32n6xx_ll_usb.c ****   * @param  dma USB dma enabled or disabled
1378:STM32Cube_FW_N6/Drivers/STM32N6xx_HAL_Driver/Src/stm32n6xx_ll_usb.c ****   *          This parameter can be one of these values:
1379:STM32Cube_FW_N6/Drivers/STM32N6xx_HAL_Driver/Src/stm32n6xx_ll_usb.c ****   *           0 : DMA feature not used
1380:STM32Cube_FW_N6/Drivers/STM32N6xx_HAL_Driver/Src/stm32n6xx_ll_usb.c ****   *           1 : DMA feature used
1381:STM32Cube_FW_N6/Drivers/STM32N6xx_HAL_Driver/Src/stm32n6xx_ll_usb.c ****   * @param  psetup  pointer to setup packet
1382:STM32Cube_FW_N6/Drivers/STM32N6xx_HAL_Driver/Src/stm32n6xx_ll_usb.c ****   * @retval HAL status
1383:STM32Cube_FW_N6/Drivers/STM32N6xx_HAL_Driver/Src/stm32n6xx_ll_usb.c ****   */
1384:STM32Cube_FW_N6/Drivers/STM32N6xx_HAL_Driver/Src/stm32n6xx_ll_usb.c **** HAL_StatusTypeDef USB_EP0_OutStart(const USB_OTG_GlobalTypeDef *USBx, uint8_t dma, const uint8_t *p
1385:STM32Cube_FW_N6/Drivers/STM32N6xx_HAL_Driver/Src/stm32n6xx_ll_usb.c **** {
1386:STM32Cube_FW_N6/Drivers/STM32N6xx_HAL_Driver/Src/stm32n6xx_ll_usb.c ****   uint32_t USBx_BASE = (uint32_t)USBx;
1387:STM32Cube_FW_N6/Drivers/STM32N6xx_HAL_Driver/Src/stm32n6xx_ll_usb.c ****   uint32_t gSNPSiD = *(__IO const uint32_t *)(&USBx->CID + 0x1U);
1388:STM32Cube_FW_N6/Drivers/STM32N6xx_HAL_Driver/Src/stm32n6xx_ll_usb.c **** 
1389:STM32Cube_FW_N6/Drivers/STM32N6xx_HAL_Driver/Src/stm32n6xx_ll_usb.c ****   if (gSNPSiD > USB_OTG_CORE_ID_300A)
1390:STM32Cube_FW_N6/Drivers/STM32N6xx_HAL_Driver/Src/stm32n6xx_ll_usb.c ****   {
1391:STM32Cube_FW_N6/Drivers/STM32N6xx_HAL_Driver/Src/stm32n6xx_ll_usb.c ****     if ((USBx_OUTEP(0U)->DOEPCTL & USB_OTG_DOEPCTL_EPENA) == USB_OTG_DOEPCTL_EPENA)
1392:STM32Cube_FW_N6/Drivers/STM32N6xx_HAL_Driver/Src/stm32n6xx_ll_usb.c ****     {
1393:STM32Cube_FW_N6/Drivers/STM32N6xx_HAL_Driver/Src/stm32n6xx_ll_usb.c ****       return HAL_OK;
1394:STM32Cube_FW_N6/Drivers/STM32N6xx_HAL_Driver/Src/stm32n6xx_ll_usb.c ****     }
1395:STM32Cube_FW_N6/Drivers/STM32N6xx_HAL_Driver/Src/stm32n6xx_ll_usb.c ****   }
1396:STM32Cube_FW_N6/Drivers/STM32N6xx_HAL_Driver/Src/stm32n6xx_ll_usb.c **** 
1397:STM32Cube_FW_N6/Drivers/STM32N6xx_HAL_Driver/Src/stm32n6xx_ll_usb.c ****   USBx_OUTEP(0U)->DOEPTSIZ = 0U;
1398:STM32Cube_FW_N6/Drivers/STM32N6xx_HAL_Driver/Src/stm32n6xx_ll_usb.c ****   USBx_OUTEP(0U)->DOEPTSIZ |= (USB_OTG_DOEPTSIZ_PKTCNT & (1UL << 19));
1399:STM32Cube_FW_N6/Drivers/STM32N6xx_HAL_Driver/Src/stm32n6xx_ll_usb.c ****   USBx_OUTEP(0U)->DOEPTSIZ |= (3U * 8U);
1400:STM32Cube_FW_N6/Drivers/STM32N6xx_HAL_Driver/Src/stm32n6xx_ll_usb.c ****   USBx_OUTEP(0U)->DOEPTSIZ |=  USB_OTG_DOEPTSIZ_STUPCNT;
1401:STM32Cube_FW_N6/Drivers/STM32N6xx_HAL_Driver/Src/stm32n6xx_ll_usb.c **** 
1402:STM32Cube_FW_N6/Drivers/STM32N6xx_HAL_Driver/Src/stm32n6xx_ll_usb.c ****   if (dma == 1U)
1403:STM32Cube_FW_N6/Drivers/STM32N6xx_HAL_Driver/Src/stm32n6xx_ll_usb.c ****   {
1404:STM32Cube_FW_N6/Drivers/STM32N6xx_HAL_Driver/Src/stm32n6xx_ll_usb.c ****     USBx_OUTEP(0U)->DOEPDMA = (uint32_t)psetup;
1405:STM32Cube_FW_N6/Drivers/STM32N6xx_HAL_Driver/Src/stm32n6xx_ll_usb.c ****     /* EP enable */
1406:STM32Cube_FW_N6/Drivers/STM32N6xx_HAL_Driver/Src/stm32n6xx_ll_usb.c ****     USBx_OUTEP(0U)->DOEPCTL |= USB_OTG_DOEPCTL_EPENA | USB_OTG_DOEPCTL_USBAEP;
1407:STM32Cube_FW_N6/Drivers/STM32N6xx_HAL_Driver/Src/stm32n6xx_ll_usb.c ****   }
1408:STM32Cube_FW_N6/Drivers/STM32N6xx_HAL_Driver/Src/stm32n6xx_ll_usb.c **** 
1409:STM32Cube_FW_N6/Drivers/STM32N6xx_HAL_Driver/Src/stm32n6xx_ll_usb.c ****   return HAL_OK;
1410:STM32Cube_FW_N6/Drivers/STM32N6xx_HAL_Driver/Src/stm32n6xx_ll_usb.c **** }
1411:STM32Cube_FW_N6/Drivers/STM32N6xx_HAL_Driver/Src/stm32n6xx_ll_usb.c **** 
1412:STM32Cube_FW_N6/Drivers/STM32N6xx_HAL_Driver/Src/stm32n6xx_ll_usb.c **** /**
ARM GAS  C:\Users\DJESSOU\AppData\Local\Temp\ccOpSjVg.s 			page 27


1413:STM32Cube_FW_N6/Drivers/STM32N6xx_HAL_Driver/Src/stm32n6xx_ll_usb.c ****   * @brief  Reset the USB Core (needed after USB clock settings change)
1414:STM32Cube_FW_N6/Drivers/STM32N6xx_HAL_Driver/Src/stm32n6xx_ll_usb.c ****   * @param  USBx  Selected device
1415:STM32Cube_FW_N6/Drivers/STM32N6xx_HAL_Driver/Src/stm32n6xx_ll_usb.c ****   * @retval HAL status
1416:STM32Cube_FW_N6/Drivers/STM32N6xx_HAL_Driver/Src/stm32n6xx_ll_usb.c ****   */
1417:STM32Cube_FW_N6/Drivers/STM32N6xx_HAL_Driver/Src/stm32n6xx_ll_usb.c **** static HAL_StatusTypeDef USB_CoreReset(USB_OTG_GlobalTypeDef *USBx)
  69              		.loc 1 1417 26 view .LVU12
  70              	.LBB13:
1418:STM32Cube_FW_N6/Drivers/STM32N6xx_HAL_Driver/Src/stm32n6xx_ll_usb.c **** {
1419:STM32Cube_FW_N6/Drivers/STM32N6xx_HAL_Driver/Src/stm32n6xx_ll_usb.c ****   __IO uint32_t count = 0U;
  71              		.loc 1 1419 3 view .LVU13
  72              		.loc 1 1419 17 is_stmt 0 view .LVU14
  73 001c 0023     		movs	r3, #0
  74 001e 0193     		str	r3, [sp, #4]
  75              	.L4:
1420:STM32Cube_FW_N6/Drivers/STM32N6xx_HAL_Driver/Src/stm32n6xx_ll_usb.c **** 
1421:STM32Cube_FW_N6/Drivers/STM32N6xx_HAL_Driver/Src/stm32n6xx_ll_usb.c ****   /* Wait for AHB master IDLE state. */
1422:STM32Cube_FW_N6/Drivers/STM32N6xx_HAL_Driver/Src/stm32n6xx_ll_usb.c ****   do
  76              		.loc 1 1422 3 is_stmt 1 view .LVU15
1423:STM32Cube_FW_N6/Drivers/STM32N6xx_HAL_Driver/Src/stm32n6xx_ll_usb.c ****   {
1424:STM32Cube_FW_N6/Drivers/STM32N6xx_HAL_Driver/Src/stm32n6xx_ll_usb.c ****     count++;
  77              		.loc 1 1424 5 view .LVU16
  78              		.loc 1 1424 10 is_stmt 0 view .LVU17
  79 0020 019B     		ldr	r3, [sp, #4]
  80 0022 0133     		adds	r3, r3, #1
  81 0024 0193     		str	r3, [sp, #4]
1425:STM32Cube_FW_N6/Drivers/STM32N6xx_HAL_Driver/Src/stm32n6xx_ll_usb.c **** 
1426:STM32Cube_FW_N6/Drivers/STM32N6xx_HAL_Driver/Src/stm32n6xx_ll_usb.c ****     if (count > HAL_USB_TIMEOUT)
  82              		.loc 1 1426 5 is_stmt 1 view .LVU18
  83              		.loc 1 1426 15 is_stmt 0 view .LVU19
  84 0026 019B     		ldr	r3, [sp, #4]
  85              		.loc 1 1426 8 view .LVU20
  86 0028 B3F1706F 		cmp	r3, #251658240
  87 002c 17D8     		bhi	.L8
1427:STM32Cube_FW_N6/Drivers/STM32N6xx_HAL_Driver/Src/stm32n6xx_ll_usb.c ****     {
1428:STM32Cube_FW_N6/Drivers/STM32N6xx_HAL_Driver/Src/stm32n6xx_ll_usb.c ****       return HAL_TIMEOUT;
1429:STM32Cube_FW_N6/Drivers/STM32N6xx_HAL_Driver/Src/stm32n6xx_ll_usb.c ****     }
1430:STM32Cube_FW_N6/Drivers/STM32N6xx_HAL_Driver/Src/stm32n6xx_ll_usb.c ****   } while ((USBx->GRSTCTL & USB_OTG_GRSTCTL_AHBIDL) == 0U);
  88              		.loc 1 1430 53 is_stmt 1 view .LVU21
  89              		.loc 1 1430 17 is_stmt 0 view .LVU22
  90 002e 2369     		ldr	r3, [r4, #16]
  91              		.loc 1 1430 53 view .LVU23
  92 0030 002B     		cmp	r3, #0
  93 0032 F5DA     		bge	.L4
1431:STM32Cube_FW_N6/Drivers/STM32N6xx_HAL_Driver/Src/stm32n6xx_ll_usb.c **** 
1432:STM32Cube_FW_N6/Drivers/STM32N6xx_HAL_Driver/Src/stm32n6xx_ll_usb.c ****   count = 10U;
  94              		.loc 1 1432 3 is_stmt 1 view .LVU24
  95              		.loc 1 1432 9 is_stmt 0 view .LVU25
  96 0034 0A23     		movs	r3, #10
  97              	.L14:
1433:STM32Cube_FW_N6/Drivers/STM32N6xx_HAL_Driver/Src/stm32n6xx_ll_usb.c **** 
1434:STM32Cube_FW_N6/Drivers/STM32N6xx_HAL_Driver/Src/stm32n6xx_ll_usb.c ****   /* few cycles before setting core reset */
1435:STM32Cube_FW_N6/Drivers/STM32N6xx_HAL_Driver/Src/stm32n6xx_ll_usb.c ****   while (count > 0U)
1436:STM32Cube_FW_N6/Drivers/STM32N6xx_HAL_Driver/Src/stm32n6xx_ll_usb.c ****   {
1437:STM32Cube_FW_N6/Drivers/STM32N6xx_HAL_Driver/Src/stm32n6xx_ll_usb.c ****     count--;
  98              		.loc 1 1437 10 view .LVU26
  99 0036 0193     		str	r3, [sp, #4]
1435:STM32Cube_FW_N6/Drivers/STM32N6xx_HAL_Driver/Src/stm32n6xx_ll_usb.c ****   {
ARM GAS  C:\Users\DJESSOU\AppData\Local\Temp\ccOpSjVg.s 			page 28


 100              		.loc 1 1435 16 is_stmt 1 view .LVU27
 101 0038 019B     		ldr	r3, [sp, #4]
 102 003a 002B     		cmp	r3, #0
 103 003c 2DD1     		bne	.L6
1438:STM32Cube_FW_N6/Drivers/STM32N6xx_HAL_Driver/Src/stm32n6xx_ll_usb.c ****   }
1439:STM32Cube_FW_N6/Drivers/STM32N6xx_HAL_Driver/Src/stm32n6xx_ll_usb.c **** 
1440:STM32Cube_FW_N6/Drivers/STM32N6xx_HAL_Driver/Src/stm32n6xx_ll_usb.c ****   /* Core Soft Reset */
1441:STM32Cube_FW_N6/Drivers/STM32N6xx_HAL_Driver/Src/stm32n6xx_ll_usb.c ****   USBx->GRSTCTL |= USB_OTG_GRSTCTL_CSRST;
 104              		.loc 1 1441 3 view .LVU28
 105              		.loc 1 1441 7 is_stmt 0 view .LVU29
 106 003e 2369     		ldr	r3, [r4, #16]
 107              		.loc 1 1441 17 view .LVU30
 108 0040 43F00103 		orr	r3, r3, #1
 109 0044 2361     		str	r3, [r4, #16]
 110              	.L7:
1442:STM32Cube_FW_N6/Drivers/STM32N6xx_HAL_Driver/Src/stm32n6xx_ll_usb.c **** 
1443:STM32Cube_FW_N6/Drivers/STM32N6xx_HAL_Driver/Src/stm32n6xx_ll_usb.c ****   do
 111              		.loc 1 1443 3 is_stmt 1 view .LVU31
1444:STM32Cube_FW_N6/Drivers/STM32N6xx_HAL_Driver/Src/stm32n6xx_ll_usb.c ****   {
1445:STM32Cube_FW_N6/Drivers/STM32N6xx_HAL_Driver/Src/stm32n6xx_ll_usb.c ****     count++;
 112              		.loc 1 1445 5 view .LVU32
 113              		.loc 1 1445 10 is_stmt 0 view .LVU33
 114 0046 019B     		ldr	r3, [sp, #4]
 115 0048 0133     		adds	r3, r3, #1
 116 004a 0193     		str	r3, [sp, #4]
1446:STM32Cube_FW_N6/Drivers/STM32N6xx_HAL_Driver/Src/stm32n6xx_ll_usb.c **** 
1447:STM32Cube_FW_N6/Drivers/STM32N6xx_HAL_Driver/Src/stm32n6xx_ll_usb.c ****     if (count > HAL_USB_TIMEOUT)
 117              		.loc 1 1447 5 is_stmt 1 view .LVU34
 118              		.loc 1 1447 15 is_stmt 0 view .LVU35
 119 004c 019B     		ldr	r3, [sp, #4]
 120              		.loc 1 1447 8 view .LVU36
 121 004e B3F1706F 		cmp	r3, #251658240
 122 0052 04D8     		bhi	.L8
1448:STM32Cube_FW_N6/Drivers/STM32N6xx_HAL_Driver/Src/stm32n6xx_ll_usb.c ****     {
1449:STM32Cube_FW_N6/Drivers/STM32N6xx_HAL_Driver/Src/stm32n6xx_ll_usb.c ****       return HAL_TIMEOUT;
1450:STM32Cube_FW_N6/Drivers/STM32N6xx_HAL_Driver/Src/stm32n6xx_ll_usb.c ****     }
1451:STM32Cube_FW_N6/Drivers/STM32N6xx_HAL_Driver/Src/stm32n6xx_ll_usb.c ****   } while ((USBx->GRSTCTL & USB_OTG_GRSTCTL_CSRST) == USB_OTG_GRSTCTL_CSRST);
 123              		.loc 1 1451 52 is_stmt 1 view .LVU37
 124              		.loc 1 1451 17 is_stmt 0 view .LVU38
 125 0054 2369     		ldr	r3, [r4, #16]
 126              		.loc 1 1451 52 view .LVU39
 127 0056 13F00103 		ands	r3, r3, #1
 128 005a F4D1     		bne	.L7
1452:STM32Cube_FW_N6/Drivers/STM32N6xx_HAL_Driver/Src/stm32n6xx_ll_usb.c **** 
1453:STM32Cube_FW_N6/Drivers/STM32N6xx_HAL_Driver/Src/stm32n6xx_ll_usb.c ****   return HAL_OK;
 129              		.loc 1 1453 10 view .LVU40
 130 005c 1846     		mov	r0, r3
 131              	.L8:
 132              	.LVL3:
 133              		.loc 1 1453 10 view .LVU41
 134              	.LBE13:
 135              	.LBE12:
 101:STM32Cube_FW_N6/Drivers/STM32N6xx_HAL_Driver/Src/stm32n6xx_ll_usb.c ****   {
 136              		.loc 1 101 3 is_stmt 1 view .LVU42
 101:STM32Cube_FW_N6/Drivers/STM32N6xx_HAL_Driver/Src/stm32n6xx_ll_usb.c ****   {
 137              		.loc 1 101 6 is_stmt 0 view .LVU43
 138 005e 9DF81630 		ldrb	r3, [sp, #22]	@ zero_extendqisi2
ARM GAS  C:\Users\DJESSOU\AppData\Local\Temp\ccOpSjVg.s 			page 29


 139 0062 012B     		cmp	r3, #1
 140 0064 14D1     		bne	.L2
 104:STM32Cube_FW_N6/Drivers/STM32N6xx_HAL_Driver/Src/stm32n6xx_ll_usb.c ****     USBx->GDFIFOCFG |= 0x3EEUL << 16;
 141              		.loc 1 104 5 is_stmt 1 view .LVU44
 104:STM32Cube_FW_N6/Drivers/STM32N6xx_HAL_Driver/Src/stm32n6xx_ll_usb.c ****     USBx->GDFIFOCFG |= 0x3EEUL << 16;
 142              		.loc 1 104 9 is_stmt 0 view .LVU45
 143 0066 E36D     		ldr	r3, [r4, #92]
 104:STM32Cube_FW_N6/Drivers/STM32N6xx_HAL_Driver/Src/stm32n6xx_ll_usb.c ****     USBx->GDFIFOCFG |= 0x3EEUL << 16;
 144              		.loc 1 104 21 view .LVU46
 145 0068 9BB2     		uxth	r3, r3
 146 006a E365     		str	r3, [r4, #92]
 105:STM32Cube_FW_N6/Drivers/STM32N6xx_HAL_Driver/Src/stm32n6xx_ll_usb.c **** 
 147              		.loc 1 105 5 is_stmt 1 view .LVU47
 105:STM32Cube_FW_N6/Drivers/STM32N6xx_HAL_Driver/Src/stm32n6xx_ll_usb.c **** 
 148              		.loc 1 105 9 is_stmt 0 view .LVU48
 149 006c E36D     		ldr	r3, [r4, #92]
 105:STM32Cube_FW_N6/Drivers/STM32N6xx_HAL_Driver/Src/stm32n6xx_ll_usb.c **** 
 150              		.loc 1 105 21 view .LVU49
 151 006e 43F07B73 		orr	r3, r3, #65798144
 152 0072 43F40033 		orr	r3, r3, #131072
 153 0076 E365     		str	r3, [r4, #92]
 107:STM32Cube_FW_N6/Drivers/STM32N6xx_HAL_Driver/Src/stm32n6xx_ll_usb.c ****     USBx->GAHBCFG |= USB_OTG_GAHBCFG_HBSTLEN_INCR4;
 154              		.loc 1 107 5 is_stmt 1 view .LVU50
 107:STM32Cube_FW_N6/Drivers/STM32N6xx_HAL_Driver/Src/stm32n6xx_ll_usb.c ****     USBx->GAHBCFG |= USB_OTG_GAHBCFG_HBSTLEN_INCR4;
 155              		.loc 1 107 9 is_stmt 0 view .LVU51
 156 0078 A368     		ldr	r3, [r4, #8]
 107:STM32Cube_FW_N6/Drivers/STM32N6xx_HAL_Driver/Src/stm32n6xx_ll_usb.c ****     USBx->GAHBCFG |= USB_OTG_GAHBCFG_HBSTLEN_INCR4;
 157              		.loc 1 107 19 view .LVU52
 158 007a 23F01E03 		bic	r3, r3, #30
 159 007e A360     		str	r3, [r4, #8]
 108:STM32Cube_FW_N6/Drivers/STM32N6xx_HAL_Driver/Src/stm32n6xx_ll_usb.c ****     USBx->GAHBCFG |= USB_OTG_GAHBCFG_DMAEN;
 160              		.loc 1 108 5 is_stmt 1 view .LVU53
 108:STM32Cube_FW_N6/Drivers/STM32N6xx_HAL_Driver/Src/stm32n6xx_ll_usb.c ****     USBx->GAHBCFG |= USB_OTG_GAHBCFG_DMAEN;
 161              		.loc 1 108 9 is_stmt 0 view .LVU54
 162 0080 A368     		ldr	r3, [r4, #8]
 108:STM32Cube_FW_N6/Drivers/STM32N6xx_HAL_Driver/Src/stm32n6xx_ll_usb.c ****     USBx->GAHBCFG |= USB_OTG_GAHBCFG_DMAEN;
 163              		.loc 1 108 19 view .LVU55
 164 0082 43F00603 		orr	r3, r3, #6
 165 0086 A360     		str	r3, [r4, #8]
 109:STM32Cube_FW_N6/Drivers/STM32N6xx_HAL_Driver/Src/stm32n6xx_ll_usb.c ****   }
 166              		.loc 1 109 5 is_stmt 1 view .LVU56
 109:STM32Cube_FW_N6/Drivers/STM32N6xx_HAL_Driver/Src/stm32n6xx_ll_usb.c ****   }
 167              		.loc 1 109 9 is_stmt 0 view .LVU57
 168 0088 A368     		ldr	r3, [r4, #8]
 109:STM32Cube_FW_N6/Drivers/STM32N6xx_HAL_Driver/Src/stm32n6xx_ll_usb.c ****   }
 169              		.loc 1 109 19 view .LVU58
 170 008a 43F02003 		orr	r3, r3, #32
 171 008e A360     		str	r3, [r4, #8]
 172              	.LVL4:
 173              	.L2:
 113:STM32Cube_FW_N6/Drivers/STM32N6xx_HAL_Driver/Src/stm32n6xx_ll_usb.c **** 
 174              		.loc 1 113 1 view .LVU59
 175 0090 02B0     		add	sp, sp, #8
 176              		.cfi_remember_state
 177              		.cfi_def_cfa_offset 24
 178              		@ sp needed
 179 0092 BDE81040 		pop	{r4, lr}
ARM GAS  C:\Users\DJESSOU\AppData\Local\Temp\ccOpSjVg.s 			page 30


 180              		.cfi_restore 14
 181              		.cfi_restore 4
 182              		.cfi_def_cfa_offset 16
 183              	.LVL5:
 113:STM32Cube_FW_N6/Drivers/STM32N6xx_HAL_Driver/Src/stm32n6xx_ll_usb.c **** 
 184              		.loc 1 113 1 view .LVU60
 185 0096 04B0     		add	sp, sp, #16
 186              		.cfi_def_cfa_offset 0
 187 0098 7047     		bx	lr
 188              	.LVL6:
 189              	.L6:
 190              		.cfi_restore_state
 191              	.LBB15:
 192              	.LBB14:
1437:STM32Cube_FW_N6/Drivers/STM32N6xx_HAL_Driver/Src/stm32n6xx_ll_usb.c ****   }
 193              		.loc 1 1437 5 is_stmt 1 view .LVU61
1437:STM32Cube_FW_N6/Drivers/STM32N6xx_HAL_Driver/Src/stm32n6xx_ll_usb.c ****   }
 194              		.loc 1 1437 10 is_stmt 0 view .LVU62
 195 009a 019B     		ldr	r3, [sp, #4]
 196 009c 013B     		subs	r3, r3, #1
 197 009e CAE7     		b	.L14
 198              	.LVL7:
 199              	.L11:
1437:STM32Cube_FW_N6/Drivers/STM32N6xx_HAL_Driver/Src/stm32n6xx_ll_usb.c ****   }
 200              		.loc 1 1437 10 view .LVU63
 201              	.LBE14:
 202              	.LBE15:
  98:STM32Cube_FW_N6/Drivers/STM32N6xx_HAL_Driver/Src/stm32n6xx_ll_usb.c ****   }
 203              		.loc 1 98 12 view .LVU64
 204 00a0 0120     		movs	r0, #1
 205 00a2 F5E7     		b	.L2
 206              		.cfi_endproc
 207              	.LFE862:
 209              		.section	.text.USB_SetTurnaroundTime,"ax",%progbits
 210              		.align	1
 211              		.global	USB_SetTurnaroundTime
 212              		.syntax unified
 213              		.thumb
 214              		.thumb_func
 216              	USB_SetTurnaroundTime:
 217              	.LVL8:
 218              	.LFB863:
 124:STM32Cube_FW_N6/Drivers/STM32N6xx_HAL_Driver/Src/stm32n6xx_ll_usb.c ****   uint32_t UsbTrd;
 219              		.loc 1 124 1 is_stmt 1 view -0
 220              		.cfi_startproc
 221              		@ args = 0, pretend = 0, frame = 0
 222              		@ frame_needed = 0, uses_anonymous_args = 0
 223              		@ link register save eliminated.
 125:STM32Cube_FW_N6/Drivers/STM32N6xx_HAL_Driver/Src/stm32n6xx_ll_usb.c **** 
 224              		.loc 1 125 3 view .LVU66
 131:STM32Cube_FW_N6/Drivers/STM32N6xx_HAL_Driver/Src/stm32n6xx_ll_usb.c ****   {
 225              		.loc 1 131 3 view .LVU67
 131:STM32Cube_FW_N6/Drivers/STM32N6xx_HAL_Driver/Src/stm32n6xx_ll_usb.c ****   {
 226              		.loc 1 131 6 is_stmt 0 view .LVU68
 227 0000 022A     		cmp	r2, #2
 228 0002 4AD1     		bne	.L24
 133:STM32Cube_FW_N6/Drivers/STM32N6xx_HAL_Driver/Src/stm32n6xx_ll_usb.c ****     {
ARM GAS  C:\Users\DJESSOU\AppData\Local\Temp\ccOpSjVg.s 			page 31


 229              		.loc 1 133 5 is_stmt 1 view .LVU69
 133:STM32Cube_FW_N6/Drivers/STM32N6xx_HAL_Driver/Src/stm32n6xx_ll_usb.c ****     {
 230              		.loc 1 133 29 is_stmt 0 view .LVU70
 231 0004 274B     		ldr	r3, .L27
 133:STM32Cube_FW_N6/Drivers/STM32N6xx_HAL_Driver/Src/stm32n6xx_ll_usb.c ****     {
 232              		.loc 1 133 8 view .LVU71
 233 0006 284A     		ldr	r2, .L27+4
 234              	.LVL9:
 133:STM32Cube_FW_N6/Drivers/STM32N6xx_HAL_Driver/Src/stm32n6xx_ll_usb.c ****     {
 235              		.loc 1 133 29 view .LVU72
 236 0008 0B44     		add	r3, r3, r1
 133:STM32Cube_FW_N6/Drivers/STM32N6xx_HAL_Driver/Src/stm32n6xx_ll_usb.c ****     {
 237              		.loc 1 133 8 view .LVU73
 238 000a 9342     		cmp	r3, r2
 239 000c 39D9     		bls	.L18
 138:STM32Cube_FW_N6/Drivers/STM32N6xx_HAL_Driver/Src/stm32n6xx_ll_usb.c ****     {
 240              		.loc 1 138 10 is_stmt 1 view .LVU74
 138:STM32Cube_FW_N6/Drivers/STM32N6xx_HAL_Driver/Src/stm32n6xx_ll_usb.c ****     {
 241              		.loc 1 138 34 is_stmt 0 view .LVU75
 242 000e 274B     		ldr	r3, .L27+8
 138:STM32Cube_FW_N6/Drivers/STM32N6xx_HAL_Driver/Src/stm32n6xx_ll_usb.c ****     {
 243              		.loc 1 138 13 view .LVU76
 244 0010 274A     		ldr	r2, .L27+12
 138:STM32Cube_FW_N6/Drivers/STM32N6xx_HAL_Driver/Src/stm32n6xx_ll_usb.c ****     {
 245              		.loc 1 138 34 view .LVU77
 246 0012 0B44     		add	r3, r3, r1
 138:STM32Cube_FW_N6/Drivers/STM32N6xx_HAL_Driver/Src/stm32n6xx_ll_usb.c ****     {
 247              		.loc 1 138 13 view .LVU78
 248 0014 9342     		cmp	r3, r2
 249 0016 36D9     		bls	.L19
 143:STM32Cube_FW_N6/Drivers/STM32N6xx_HAL_Driver/Src/stm32n6xx_ll_usb.c ****     {
 250              		.loc 1 143 10 is_stmt 1 view .LVU79
 143:STM32Cube_FW_N6/Drivers/STM32N6xx_HAL_Driver/Src/stm32n6xx_ll_usb.c ****     {
 251              		.loc 1 143 13 is_stmt 0 view .LVU80
 252 0018 264A     		ldr	r2, .L27+16
 143:STM32Cube_FW_N6/Drivers/STM32N6xx_HAL_Driver/Src/stm32n6xx_ll_usb.c ****     {
 253              		.loc 1 143 34 view .LVU81
 254 001a A1F57403 		sub	r3, r1, #15990784
 255 001e A3F51053 		sub	r3, r3, #9216
 143:STM32Cube_FW_N6/Drivers/STM32N6xx_HAL_Driver/Src/stm32n6xx_ll_usb.c ****     {
 256              		.loc 1 143 13 view .LVU82
 257 0022 9342     		cmp	r3, r2
 258 0024 31D9     		bls	.L20
 148:STM32Cube_FW_N6/Drivers/STM32N6xx_HAL_Driver/Src/stm32n6xx_ll_usb.c ****     {
 259              		.loc 1 148 10 is_stmt 1 view .LVU83
 148:STM32Cube_FW_N6/Drivers/STM32N6xx_HAL_Driver/Src/stm32n6xx_ll_usb.c ****     {
 260              		.loc 1 148 13 is_stmt 0 view .LVU84
 261 0026 244A     		ldr	r2, .L27+20
 148:STM32Cube_FW_N6/Drivers/STM32N6xx_HAL_Driver/Src/stm32n6xx_ll_usb.c ****     {
 262              		.loc 1 148 34 view .LVU85
 263 0028 A1F18373 		sub	r3, r1, #17170432
 264 002c A3F5E743 		sub	r3, r3, #29568
 148:STM32Cube_FW_N6/Drivers/STM32N6xx_HAL_Driver/Src/stm32n6xx_ll_usb.c ****     {
 265              		.loc 1 148 13 view .LVU86
 266 0030 9342     		cmp	r3, r2
 267 0032 2CD3     		bcc	.L21
 153:STM32Cube_FW_N6/Drivers/STM32N6xx_HAL_Driver/Src/stm32n6xx_ll_usb.c ****     {
ARM GAS  C:\Users\DJESSOU\AppData\Local\Temp\ccOpSjVg.s 			page 32


 268              		.loc 1 153 10 is_stmt 1 view .LVU87
 153:STM32Cube_FW_N6/Drivers/STM32N6xx_HAL_Driver/Src/stm32n6xx_ll_usb.c ****     {
 269              		.loc 1 153 34 is_stmt 0 view .LVU88
 270 0034 214B     		ldr	r3, .L27+24
 153:STM32Cube_FW_N6/Drivers/STM32N6xx_HAL_Driver/Src/stm32n6xx_ll_usb.c ****     {
 271              		.loc 1 153 13 view .LVU89
 272 0036 224A     		ldr	r2, .L27+28
 153:STM32Cube_FW_N6/Drivers/STM32N6xx_HAL_Driver/Src/stm32n6xx_ll_usb.c ****     {
 273              		.loc 1 153 34 view .LVU90
 274 0038 0B44     		add	r3, r3, r1
 153:STM32Cube_FW_N6/Drivers/STM32N6xx_HAL_Driver/Src/stm32n6xx_ll_usb.c ****     {
 275              		.loc 1 153 13 view .LVU91
 276 003a 9342     		cmp	r3, r2
 277 003c 29D9     		bls	.L22
 158:STM32Cube_FW_N6/Drivers/STM32N6xx_HAL_Driver/Src/stm32n6xx_ll_usb.c ****     {
 278              		.loc 1 158 10 is_stmt 1 view .LVU92
 158:STM32Cube_FW_N6/Drivers/STM32N6xx_HAL_Driver/Src/stm32n6xx_ll_usb.c ****     {
 279              		.loc 1 158 34 is_stmt 0 view .LVU93
 280 003e 214B     		ldr	r3, .L27+32
 158:STM32Cube_FW_N6/Drivers/STM32N6xx_HAL_Driver/Src/stm32n6xx_ll_usb.c ****     {
 281              		.loc 1 158 13 view .LVU94
 282 0040 214A     		ldr	r2, .L27+36
 158:STM32Cube_FW_N6/Drivers/STM32N6xx_HAL_Driver/Src/stm32n6xx_ll_usb.c ****     {
 283              		.loc 1 158 34 view .LVU95
 284 0042 0B44     		add	r3, r3, r1
 158:STM32Cube_FW_N6/Drivers/STM32N6xx_HAL_Driver/Src/stm32n6xx_ll_usb.c ****     {
 285              		.loc 1 158 13 view .LVU96
 286 0044 9342     		cmp	r3, r2
 287 0046 26D3     		bcc	.L23
 163:STM32Cube_FW_N6/Drivers/STM32N6xx_HAL_Driver/Src/stm32n6xx_ll_usb.c ****     {
 288              		.loc 1 163 10 is_stmt 1 view .LVU97
 163:STM32Cube_FW_N6/Drivers/STM32N6xx_HAL_Driver/Src/stm32n6xx_ll_usb.c ****     {
 289              		.loc 1 163 34 is_stmt 0 view .LVU98
 290 0048 204B     		ldr	r3, .L27+40
 163:STM32Cube_FW_N6/Drivers/STM32N6xx_HAL_Driver/Src/stm32n6xx_ll_usb.c ****     {
 291              		.loc 1 163 13 view .LVU99
 292 004a 214A     		ldr	r2, .L27+44
 163:STM32Cube_FW_N6/Drivers/STM32N6xx_HAL_Driver/Src/stm32n6xx_ll_usb.c ****     {
 293              		.loc 1 163 34 view .LVU100
 294 004c 0B44     		add	r3, r3, r1
 163:STM32Cube_FW_N6/Drivers/STM32N6xx_HAL_Driver/Src/stm32n6xx_ll_usb.c ****     {
 295              		.loc 1 163 13 view .LVU101
 296 004e 9342     		cmp	r3, r2
 297 0050 23D3     		bcc	.L24
 168:STM32Cube_FW_N6/Drivers/STM32N6xx_HAL_Driver/Src/stm32n6xx_ll_usb.c ****     {
 298              		.loc 1 168 10 is_stmt 1 view .LVU102
 168:STM32Cube_FW_N6/Drivers/STM32N6xx_HAL_Driver/Src/stm32n6xx_ll_usb.c ****     {
 299              		.loc 1 168 13 is_stmt 0 view .LVU103
 300 0052 204A     		ldr	r2, .L27+48
 168:STM32Cube_FW_N6/Drivers/STM32N6xx_HAL_Driver/Src/stm32n6xx_ll_usb.c ****     {
 301              		.loc 1 168 34 view .LVU104
 302 0054 A1F1B773 		sub	r3, r1, #23986176
 303 0058 A3F55853 		sub	r3, r3, #13824
 168:STM32Cube_FW_N6/Drivers/STM32N6xx_HAL_Driver/Src/stm32n6xx_ll_usb.c ****     {
 304              		.loc 1 168 13 view .LVU105
 305 005c 9342     		cmp	r3, r2
 306 005e 1ED3     		bcc	.L25
ARM GAS  C:\Users\DJESSOU\AppData\Local\Temp\ccOpSjVg.s 			page 33


 173:STM32Cube_FW_N6/Drivers/STM32N6xx_HAL_Driver/Src/stm32n6xx_ll_usb.c ****     {
 307              		.loc 1 173 10 is_stmt 1 view .LVU106
 173:STM32Cube_FW_N6/Drivers/STM32N6xx_HAL_Driver/Src/stm32n6xx_ll_usb.c ****     {
 308              		.loc 1 173 34 is_stmt 0 view .LVU107
 309 0060 1D4B     		ldr	r3, .L27+52
 173:STM32Cube_FW_N6/Drivers/STM32N6xx_HAL_Driver/Src/stm32n6xx_ll_usb.c ****     {
 310              		.loc 1 173 13 view .LVU108
 311 0062 1E4A     		ldr	r2, .L27+56
 173:STM32Cube_FW_N6/Drivers/STM32N6xx_HAL_Driver/Src/stm32n6xx_ll_usb.c ****     {
 312              		.loc 1 173 34 view .LVU109
 313 0064 0B44     		add	r3, r3, r1
 176:STM32Cube_FW_N6/Drivers/STM32N6xx_HAL_Driver/Src/stm32n6xx_ll_usb.c ****     }
 314              		.loc 1 176 14 view .LVU110
 315 0066 9342     		cmp	r3, r2
 316 0068 2CBF     		ite	cs
 317 006a 0623     		movcs	r3, #6
 318 006c 0723     		movcc	r3, #7
 319              	.L16:
 320              	.LVL10:
 193:STM32Cube_FW_N6/Drivers/STM32N6xx_HAL_Driver/Src/stm32n6xx_ll_usb.c ****   USBx->GUSBCFG |= (uint32_t)((UsbTrd << 10) & USB_OTG_GUSBCFG_TRDT);
 321              		.loc 1 193 3 is_stmt 1 view .LVU111
 193:STM32Cube_FW_N6/Drivers/STM32N6xx_HAL_Driver/Src/stm32n6xx_ll_usb.c ****   USBx->GUSBCFG |= (uint32_t)((UsbTrd << 10) & USB_OTG_GUSBCFG_TRDT);
 322              		.loc 1 193 7 is_stmt 0 view .LVU112
 323 006e C268     		ldr	r2, [r0, #12]
 193:STM32Cube_FW_N6/Drivers/STM32N6xx_HAL_Driver/Src/stm32n6xx_ll_usb.c ****   USBx->GUSBCFG |= (uint32_t)((UsbTrd << 10) & USB_OTG_GUSBCFG_TRDT);
 324              		.loc 1 193 17 view .LVU113
 325 0070 22F47052 		bic	r2, r2, #15360
 326 0074 C260     		str	r2, [r0, #12]
 194:STM32Cube_FW_N6/Drivers/STM32N6xx_HAL_Driver/Src/stm32n6xx_ll_usb.c **** 
 327              		.loc 1 194 3 is_stmt 1 view .LVU114
 194:STM32Cube_FW_N6/Drivers/STM32N6xx_HAL_Driver/Src/stm32n6xx_ll_usb.c **** 
 328              		.loc 1 194 7 is_stmt 0 view .LVU115
 329 0076 C268     		ldr	r2, [r0, #12]
 194:STM32Cube_FW_N6/Drivers/STM32N6xx_HAL_Driver/Src/stm32n6xx_ll_usb.c **** 
 330              		.loc 1 194 17 view .LVU116
 331 0078 42EA8323 		orr	r3, r2, r3, lsl #10
 332              	.LVL11:
 194:STM32Cube_FW_N6/Drivers/STM32N6xx_HAL_Driver/Src/stm32n6xx_ll_usb.c **** 
 333              		.loc 1 194 17 view .LVU117
 334 007c C360     		str	r3, [r0, #12]
 196:STM32Cube_FW_N6/Drivers/STM32N6xx_HAL_Driver/Src/stm32n6xx_ll_usb.c **** }
 335              		.loc 1 196 3 is_stmt 1 view .LVU118
 197:STM32Cube_FW_N6/Drivers/STM32N6xx_HAL_Driver/Src/stm32n6xx_ll_usb.c **** 
 336              		.loc 1 197 1 is_stmt 0 view .LVU119
 337 007e 0020     		movs	r0, #0
 338              	.LVL12:
 197:STM32Cube_FW_N6/Drivers/STM32N6xx_HAL_Driver/Src/stm32n6xx_ll_usb.c **** 
 339              		.loc 1 197 1 view .LVU120
 340 0080 7047     		bx	lr
 341              	.LVL13:
 342              	.L18:
 136:STM32Cube_FW_N6/Drivers/STM32N6xx_HAL_Driver/Src/stm32n6xx_ll_usb.c ****     }
 343              		.loc 1 136 14 view .LVU121
 344 0082 0F23     		movs	r3, #15
 345 0084 F3E7     		b	.L16
 346              	.L19:
 141:STM32Cube_FW_N6/Drivers/STM32N6xx_HAL_Driver/Src/stm32n6xx_ll_usb.c ****     }
ARM GAS  C:\Users\DJESSOU\AppData\Local\Temp\ccOpSjVg.s 			page 34


 347              		.loc 1 141 14 view .LVU122
 348 0086 0E23     		movs	r3, #14
 349 0088 F1E7     		b	.L16
 350              	.L20:
 146:STM32Cube_FW_N6/Drivers/STM32N6xx_HAL_Driver/Src/stm32n6xx_ll_usb.c ****     }
 351              		.loc 1 146 14 view .LVU123
 352 008a 0D23     		movs	r3, #13
 353 008c EFE7     		b	.L16
 354              	.L21:
 151:STM32Cube_FW_N6/Drivers/STM32N6xx_HAL_Driver/Src/stm32n6xx_ll_usb.c ****     }
 355              		.loc 1 151 14 view .LVU124
 356 008e 0C23     		movs	r3, #12
 357 0090 EDE7     		b	.L16
 358              	.L22:
 156:STM32Cube_FW_N6/Drivers/STM32N6xx_HAL_Driver/Src/stm32n6xx_ll_usb.c ****     }
 359              		.loc 1 156 14 view .LVU125
 360 0092 0B23     		movs	r3, #11
 361 0094 EBE7     		b	.L16
 362              	.L23:
 161:STM32Cube_FW_N6/Drivers/STM32N6xx_HAL_Driver/Src/stm32n6xx_ll_usb.c ****     }
 363              		.loc 1 161 14 view .LVU126
 364 0096 0A23     		movs	r3, #10
 365 0098 E9E7     		b	.L16
 366              	.L24:
 186:STM32Cube_FW_N6/Drivers/STM32N6xx_HAL_Driver/Src/stm32n6xx_ll_usb.c ****   }
 367              		.loc 1 186 12 view .LVU127
 368 009a 0923     		movs	r3, #9
 369 009c E7E7     		b	.L16
 370              	.L25:
 171:STM32Cube_FW_N6/Drivers/STM32N6xx_HAL_Driver/Src/stm32n6xx_ll_usb.c ****     }
 371              		.loc 1 171 14 view .LVU128
 372 009e 0823     		movs	r3, #8
 373 00a0 E5E7     		b	.L16
 374              	.L28:
 375 00a2 00BF     		.align	2
 376              	.L27:
 377 00a4 405327FF 		.word	-14200000
 378 00a8 FF340C00 		.word	799999
 379 00ac 401E1BFF 		.word	-15000000
 380 00b0 3F420F00 		.word	999999
 381 00b4 7F4F1200 		.word	1199999
 382 00b8 20D61300 		.word	1300000
 383 00bc 60B6E5FE 		.word	-18500000
 384 00c0 5FE31600 		.word	1499999
 385 00c4 00D3CEFE 		.word	-20000000
 386 00c8 40771B00 		.word	1800000
 387 00cc C05BB3FE 		.word	-21800000
 388 00d0 C0912100 		.word	2200000
 389 00d4 20753800 		.word	3700000
 390 00d8 E05459FE 		.word	-27700000
 391 00dc E09C4100 		.word	4300000
 392              		.cfi_endproc
 393              	.LFE863:
 395              		.section	.text.USB_EnableGlobalInt,"ax",%progbits
 396              		.align	1
 397              		.global	USB_EnableGlobalInt
 398              		.syntax unified
ARM GAS  C:\Users\DJESSOU\AppData\Local\Temp\ccOpSjVg.s 			page 35


 399              		.thumb
 400              		.thumb_func
 402              	USB_EnableGlobalInt:
 403              	.LVL14:
 404              	.LFB864:
 206:STM32Cube_FW_N6/Drivers/STM32N6xx_HAL_Driver/Src/stm32n6xx_ll_usb.c ****   USBx->GAHBCFG |= USB_OTG_GAHBCFG_GINT;
 405              		.loc 1 206 1 is_stmt 1 view -0
 406              		.cfi_startproc
 407              		@ args = 0, pretend = 0, frame = 0
 408              		@ frame_needed = 0, uses_anonymous_args = 0
 409              		@ link register save eliminated.
 207:STM32Cube_FW_N6/Drivers/STM32N6xx_HAL_Driver/Src/stm32n6xx_ll_usb.c ****   return HAL_OK;
 410              		.loc 1 207 3 view .LVU130
 207:STM32Cube_FW_N6/Drivers/STM32N6xx_HAL_Driver/Src/stm32n6xx_ll_usb.c ****   return HAL_OK;
 411              		.loc 1 207 7 is_stmt 0 view .LVU131
 412 0000 8368     		ldr	r3, [r0, #8]
 207:STM32Cube_FW_N6/Drivers/STM32N6xx_HAL_Driver/Src/stm32n6xx_ll_usb.c ****   return HAL_OK;
 413              		.loc 1 207 17 view .LVU132
 414 0002 43F00103 		orr	r3, r3, #1
 415 0006 8360     		str	r3, [r0, #8]
 208:STM32Cube_FW_N6/Drivers/STM32N6xx_HAL_Driver/Src/stm32n6xx_ll_usb.c **** }
 416              		.loc 1 208 3 is_stmt 1 view .LVU133
 209:STM32Cube_FW_N6/Drivers/STM32N6xx_HAL_Driver/Src/stm32n6xx_ll_usb.c **** 
 417              		.loc 1 209 1 is_stmt 0 view .LVU134
 418 0008 0020     		movs	r0, #0
 419              	.LVL15:
 209:STM32Cube_FW_N6/Drivers/STM32N6xx_HAL_Driver/Src/stm32n6xx_ll_usb.c **** 
 420              		.loc 1 209 1 view .LVU135
 421 000a 7047     		bx	lr
 422              		.cfi_endproc
 423              	.LFE864:
 425              		.section	.text.USB_DisableGlobalInt,"ax",%progbits
 426              		.align	1
 427              		.global	USB_DisableGlobalInt
 428              		.syntax unified
 429              		.thumb
 430              		.thumb_func
 432              	USB_DisableGlobalInt:
 433              	.LVL16:
 434              	.LFB865:
 218:STM32Cube_FW_N6/Drivers/STM32N6xx_HAL_Driver/Src/stm32n6xx_ll_usb.c ****   USBx->GAHBCFG &= ~USB_OTG_GAHBCFG_GINT;
 435              		.loc 1 218 1 is_stmt 1 view -0
 436              		.cfi_startproc
 437              		@ args = 0, pretend = 0, frame = 0
 438              		@ frame_needed = 0, uses_anonymous_args = 0
 439              		@ link register save eliminated.
 219:STM32Cube_FW_N6/Drivers/STM32N6xx_HAL_Driver/Src/stm32n6xx_ll_usb.c ****   return HAL_OK;
 440              		.loc 1 219 3 view .LVU137
 219:STM32Cube_FW_N6/Drivers/STM32N6xx_HAL_Driver/Src/stm32n6xx_ll_usb.c ****   return HAL_OK;
 441              		.loc 1 219 7 is_stmt 0 view .LVU138
 442 0000 8368     		ldr	r3, [r0, #8]
 219:STM32Cube_FW_N6/Drivers/STM32N6xx_HAL_Driver/Src/stm32n6xx_ll_usb.c ****   return HAL_OK;
 443              		.loc 1 219 17 view .LVU139
 444 0002 23F00103 		bic	r3, r3, #1
 445 0006 8360     		str	r3, [r0, #8]
 220:STM32Cube_FW_N6/Drivers/STM32N6xx_HAL_Driver/Src/stm32n6xx_ll_usb.c **** }
 446              		.loc 1 220 3 is_stmt 1 view .LVU140
ARM GAS  C:\Users\DJESSOU\AppData\Local\Temp\ccOpSjVg.s 			page 36


 221:STM32Cube_FW_N6/Drivers/STM32N6xx_HAL_Driver/Src/stm32n6xx_ll_usb.c **** 
 447              		.loc 1 221 1 is_stmt 0 view .LVU141
 448 0008 0020     		movs	r0, #0
 449              	.LVL17:
 221:STM32Cube_FW_N6/Drivers/STM32N6xx_HAL_Driver/Src/stm32n6xx_ll_usb.c **** 
 450              		.loc 1 221 1 view .LVU142
 451 000a 7047     		bx	lr
 452              		.cfi_endproc
 453              	.LFE865:
 455              		.section	.text.USB_SetCurrentMode,"ax",%progbits
 456              		.align	1
 457              		.global	USB_SetCurrentMode
 458              		.syntax unified
 459              		.thumb
 460              		.thumb_func
 462              	USB_SetCurrentMode:
 463              	.LVL18:
 464              	.LFB866:
 233:STM32Cube_FW_N6/Drivers/STM32N6xx_HAL_Driver/Src/stm32n6xx_ll_usb.c ****   uint32_t ms = 0U;
 465              		.loc 1 233 1 is_stmt 1 view -0
 466              		.cfi_startproc
 467              		@ args = 0, pretend = 0, frame = 0
 468              		@ frame_needed = 0, uses_anonymous_args = 0
 234:STM32Cube_FW_N6/Drivers/STM32N6xx_HAL_Driver/Src/stm32n6xx_ll_usb.c **** 
 469              		.loc 1 234 3 view .LVU144
 236:STM32Cube_FW_N6/Drivers/STM32N6xx_HAL_Driver/Src/stm32n6xx_ll_usb.c **** 
 470              		.loc 1 236 3 view .LVU145
 233:STM32Cube_FW_N6/Drivers/STM32N6xx_HAL_Driver/Src/stm32n6xx_ll_usb.c ****   uint32_t ms = 0U;
 471              		.loc 1 233 1 is_stmt 0 view .LVU146
 472 0000 38B5     		push	{r3, r4, r5, lr}
 473              		.cfi_def_cfa_offset 16
 474              		.cfi_offset 3, -16
 475              		.cfi_offset 4, -12
 476              		.cfi_offset 5, -8
 477              		.cfi_offset 14, -4
 236:STM32Cube_FW_N6/Drivers/STM32N6xx_HAL_Driver/Src/stm32n6xx_ll_usb.c **** 
 478              		.loc 1 236 7 view .LVU147
 479 0002 C368     		ldr	r3, [r0, #12]
 238:STM32Cube_FW_N6/Drivers/STM32N6xx_HAL_Driver/Src/stm32n6xx_ll_usb.c ****   {
 480              		.loc 1 238 6 view .LVU148
 481 0004 0129     		cmp	r1, #1
 236:STM32Cube_FW_N6/Drivers/STM32N6xx_HAL_Driver/Src/stm32n6xx_ll_usb.c **** 
 482              		.loc 1 236 17 view .LVU149
 483 0006 23F0C043 		bic	r3, r3, #1610612736
 233:STM32Cube_FW_N6/Drivers/STM32N6xx_HAL_Driver/Src/stm32n6xx_ll_usb.c ****   uint32_t ms = 0U;
 484              		.loc 1 233 1 view .LVU150
 485 000a 0546     		mov	r5, r0
 486 000c 0C46     		mov	r4, r1
 236:STM32Cube_FW_N6/Drivers/STM32N6xx_HAL_Driver/Src/stm32n6xx_ll_usb.c **** 
 487              		.loc 1 236 17 view .LVU151
 488 000e C360     		str	r3, [r0, #12]
 238:STM32Cube_FW_N6/Drivers/STM32N6xx_HAL_Driver/Src/stm32n6xx_ll_usb.c ****   {
 489              		.loc 1 238 3 is_stmt 1 view .LVU152
 238:STM32Cube_FW_N6/Drivers/STM32N6xx_HAL_Driver/Src/stm32n6xx_ll_usb.c ****   {
 490              		.loc 1 238 6 is_stmt 0 view .LVU153
 491 0010 13D1     		bne	.L32
 240:STM32Cube_FW_N6/Drivers/STM32N6xx_HAL_Driver/Src/stm32n6xx_ll_usb.c **** 
ARM GAS  C:\Users\DJESSOU\AppData\Local\Temp\ccOpSjVg.s 			page 37


 492              		.loc 1 240 5 is_stmt 1 view .LVU154
 234:STM32Cube_FW_N6/Drivers/STM32N6xx_HAL_Driver/Src/stm32n6xx_ll_usb.c **** 
 493              		.loc 1 234 12 is_stmt 0 view .LVU155
 494 0012 0024     		movs	r4, #0
 240:STM32Cube_FW_N6/Drivers/STM32N6xx_HAL_Driver/Src/stm32n6xx_ll_usb.c **** 
 495              		.loc 1 240 9 view .LVU156
 496 0014 C368     		ldr	r3, [r0, #12]
 240:STM32Cube_FW_N6/Drivers/STM32N6xx_HAL_Driver/Src/stm32n6xx_ll_usb.c **** 
 497              		.loc 1 240 19 view .LVU157
 498 0016 43F00053 		orr	r3, r3, #536870912
 499 001a C360     		str	r3, [r0, #12]
 500              	.LVL19:
 501              	.L34:
 242:STM32Cube_FW_N6/Drivers/STM32N6xx_HAL_Driver/Src/stm32n6xx_ll_usb.c ****     {
 502              		.loc 1 242 5 is_stmt 1 view .LVU158
 244:STM32Cube_FW_N6/Drivers/STM32N6xx_HAL_Driver/Src/stm32n6xx_ll_usb.c ****       ms += 10U;
 503              		.loc 1 244 7 view .LVU159
 504 001c 0A20     		movs	r0, #10
 505 001e FFF7FEFF 		bl	HAL_Delay
 506              	.LVL20:
 245:STM32Cube_FW_N6/Drivers/STM32N6xx_HAL_Driver/Src/stm32n6xx_ll_usb.c ****     } while ((USB_GetMode(USBx) != (uint32_t)USB_HOST_MODE) && (ms < HAL_USB_CURRENT_MODE_MAX_DELAY
 507              		.loc 1 245 7 view .LVU160
 508              	.LBB16:
 509              	.LBB17:
1354:STM32Cube_FW_N6/Drivers/STM32N6xx_HAL_Driver/Src/stm32n6xx_ll_usb.c **** }
 510              		.loc 1 1354 16 is_stmt 0 view .LVU161
 511 0022 6B69     		ldr	r3, [r5, #20]
 512              	.LBE17:
 513              	.LBE16:
 245:STM32Cube_FW_N6/Drivers/STM32N6xx_HAL_Driver/Src/stm32n6xx_ll_usb.c ****     } while ((USB_GetMode(USBx) != (uint32_t)USB_HOST_MODE) && (ms < HAL_USB_CURRENT_MODE_MAX_DELAY
 514              		.loc 1 245 10 view .LVU162
 515 0024 0A34     		adds	r4, r4, #10
 516              	.LVL21:
 246:STM32Cube_FW_N6/Drivers/STM32N6xx_HAL_Driver/Src/stm32n6xx_ll_usb.c ****   }
 517              		.loc 1 246 61 is_stmt 1 discriminator 2 view .LVU163
 518              	.LBB19:
 519              	.LBI16:
1352:STM32Cube_FW_N6/Drivers/STM32N6xx_HAL_Driver/Src/stm32n6xx_ll_usb.c **** {
 520              		.loc 1 1352 10 view .LVU164
 521              	.LBB18:
1354:STM32Cube_FW_N6/Drivers/STM32N6xx_HAL_Driver/Src/stm32n6xx_ll_usb.c **** }
 522              		.loc 1 1354 3 view .LVU165
1354:STM32Cube_FW_N6/Drivers/STM32N6xx_HAL_Driver/Src/stm32n6xx_ll_usb.c **** }
 523              		.loc 1 1354 3 is_stmt 0 view .LVU166
 524              	.LBE18:
 525              	.LBE19:
 246:STM32Cube_FW_N6/Drivers/STM32N6xx_HAL_Driver/Src/stm32n6xx_ll_usb.c ****   }
 526              		.loc 1 246 61 discriminator 2 view .LVU167
 527 0026 D907     		lsls	r1, r3, #31
 528 0028 02D4     		bmi	.L33
 246:STM32Cube_FW_N6/Drivers/STM32N6xx_HAL_Driver/Src/stm32n6xx_ll_usb.c ****   }
 529              		.loc 1 246 61 discriminator 1 view .LVU168
 530 002a C82C     		cmp	r4, #200
 531 002c F6D1     		bne	.L34
 532              	.L37:
 245:STM32Cube_FW_N6/Drivers/STM32N6xx_HAL_Driver/Src/stm32n6xx_ll_usb.c ****     } while ((USB_GetMode(USBx) != (uint32_t)USB_HOST_MODE) && (ms < HAL_USB_CURRENT_MODE_MAX_DELAY
 533              		.loc 1 245 10 view .LVU169
ARM GAS  C:\Users\DJESSOU\AppData\Local\Temp\ccOpSjVg.s 			page 38


 534 002e C824     		movs	r4, #200
 535              	.LVL22:
 536              	.L33:
 263:STM32Cube_FW_N6/Drivers/STM32N6xx_HAL_Driver/Src/stm32n6xx_ll_usb.c ****   {
 537              		.loc 1 263 3 is_stmt 1 view .LVU170
 263:STM32Cube_FW_N6/Drivers/STM32N6xx_HAL_Driver/Src/stm32n6xx_ll_usb.c ****   {
 538              		.loc 1 263 6 is_stmt 0 view .LVU171
 539 0030 A4F1C803 		sub	r3, r4, #200
 540 0034 5842     		rsbs	r0, r3, #0
 541 0036 5841     		adcs	r0, r0, r3
 542              	.LVL23:
 543              	.L35:
 269:STM32Cube_FW_N6/Drivers/STM32N6xx_HAL_Driver/Src/stm32n6xx_ll_usb.c **** 
 544              		.loc 1 269 1 view .LVU172
 545 0038 38BD     		pop	{r3, r4, r5, pc}
 546              	.LVL24:
 547              	.L32:
 248:STM32Cube_FW_N6/Drivers/STM32N6xx_HAL_Driver/Src/stm32n6xx_ll_usb.c ****   {
 548              		.loc 1 248 8 is_stmt 1 view .LVU173
 248:STM32Cube_FW_N6/Drivers/STM32N6xx_HAL_Driver/Src/stm32n6xx_ll_usb.c ****   {
 549              		.loc 1 248 11 is_stmt 0 view .LVU174
 550 003a 69B9     		cbnz	r1, .L38
 250:STM32Cube_FW_N6/Drivers/STM32N6xx_HAL_Driver/Src/stm32n6xx_ll_usb.c **** 
 551              		.loc 1 250 5 is_stmt 1 view .LVU175
 250:STM32Cube_FW_N6/Drivers/STM32N6xx_HAL_Driver/Src/stm32n6xx_ll_usb.c **** 
 552              		.loc 1 250 9 is_stmt 0 view .LVU176
 553 003c C368     		ldr	r3, [r0, #12]
 250:STM32Cube_FW_N6/Drivers/STM32N6xx_HAL_Driver/Src/stm32n6xx_ll_usb.c **** 
 554              		.loc 1 250 19 view .LVU177
 555 003e 43F08043 		orr	r3, r3, #1073741824
 556 0042 C360     		str	r3, [r0, #12]
 557              	.LVL25:
 558              	.L36:
 252:STM32Cube_FW_N6/Drivers/STM32N6xx_HAL_Driver/Src/stm32n6xx_ll_usb.c ****     {
 559              		.loc 1 252 5 is_stmt 1 view .LVU178
 254:STM32Cube_FW_N6/Drivers/STM32N6xx_HAL_Driver/Src/stm32n6xx_ll_usb.c ****       ms += 10U;
 560              		.loc 1 254 7 view .LVU179
 561 0044 0A20     		movs	r0, #10
 562 0046 FFF7FEFF 		bl	HAL_Delay
 563              	.LVL26:
 255:STM32Cube_FW_N6/Drivers/STM32N6xx_HAL_Driver/Src/stm32n6xx_ll_usb.c ****     } while ((USB_GetMode(USBx) != (uint32_t)USB_DEVICE_MODE) && (ms < HAL_USB_CURRENT_MODE_MAX_DEL
 564              		.loc 1 255 7 view .LVU180
 565              	.LBB20:
 566              	.LBB21:
1354:STM32Cube_FW_N6/Drivers/STM32N6xx_HAL_Driver/Src/stm32n6xx_ll_usb.c **** }
 567              		.loc 1 1354 16 is_stmt 0 view .LVU181
 568 004a 6B69     		ldr	r3, [r5, #20]
 569              	.LBE21:
 570              	.LBE20:
 255:STM32Cube_FW_N6/Drivers/STM32N6xx_HAL_Driver/Src/stm32n6xx_ll_usb.c ****     } while ((USB_GetMode(USBx) != (uint32_t)USB_DEVICE_MODE) && (ms < HAL_USB_CURRENT_MODE_MAX_DEL
 571              		.loc 1 255 10 view .LVU182
 572 004c 0A34     		adds	r4, r4, #10
 573              	.LVL27:
 256:STM32Cube_FW_N6/Drivers/STM32N6xx_HAL_Driver/Src/stm32n6xx_ll_usb.c ****   }
 574              		.loc 1 256 63 is_stmt 1 discriminator 2 view .LVU183
 575              	.LBB23:
 576              	.LBI20:
ARM GAS  C:\Users\DJESSOU\AppData\Local\Temp\ccOpSjVg.s 			page 39


1352:STM32Cube_FW_N6/Drivers/STM32N6xx_HAL_Driver/Src/stm32n6xx_ll_usb.c **** {
 577              		.loc 1 1352 10 view .LVU184
 578              	.LBB22:
1354:STM32Cube_FW_N6/Drivers/STM32N6xx_HAL_Driver/Src/stm32n6xx_ll_usb.c **** }
 579              		.loc 1 1354 3 view .LVU185
1354:STM32Cube_FW_N6/Drivers/STM32N6xx_HAL_Driver/Src/stm32n6xx_ll_usb.c **** }
 580              		.loc 1 1354 3 is_stmt 0 view .LVU186
 581              	.LBE22:
 582              	.LBE23:
 256:STM32Cube_FW_N6/Drivers/STM32N6xx_HAL_Driver/Src/stm32n6xx_ll_usb.c ****   }
 583              		.loc 1 256 63 discriminator 2 view .LVU187
 584 004e DA07     		lsls	r2, r3, #31
 585 0050 EED5     		bpl	.L33
 256:STM32Cube_FW_N6/Drivers/STM32N6xx_HAL_Driver/Src/stm32n6xx_ll_usb.c ****   }
 586              		.loc 1 256 63 discriminator 1 view .LVU188
 587 0052 C82C     		cmp	r4, #200
 588 0054 F6D1     		bne	.L36
 589 0056 EAE7     		b	.L37
 590              	.LVL28:
 591              	.L38:
 260:STM32Cube_FW_N6/Drivers/STM32N6xx_HAL_Driver/Src/stm32n6xx_ll_usb.c ****   }
 592              		.loc 1 260 12 view .LVU189
 593 0058 0120     		movs	r0, #1
 594              	.LVL29:
 260:STM32Cube_FW_N6/Drivers/STM32N6xx_HAL_Driver/Src/stm32n6xx_ll_usb.c ****   }
 595              		.loc 1 260 12 view .LVU190
 596 005a EDE7     		b	.L35
 597              		.cfi_endproc
 598              	.LFE866:
 600              		.section	.text.USB_FlushTxFifo,"ax",%progbits
 601              		.align	1
 602              		.global	USB_FlushTxFifo
 603              		.syntax unified
 604              		.thumb
 605              		.thumb_func
 607              	USB_FlushTxFifo:
 608              	.LVL30:
 609              	.LFB868:
 435:STM32Cube_FW_N6/Drivers/STM32N6xx_HAL_Driver/Src/stm32n6xx_ll_usb.c ****   __IO uint32_t count = 0U;
 610              		.loc 1 435 1 is_stmt 1 view -0
 611              		.cfi_startproc
 612              		@ args = 0, pretend = 0, frame = 8
 613              		@ frame_needed = 0, uses_anonymous_args = 0
 614              		@ link register save eliminated.
 436:STM32Cube_FW_N6/Drivers/STM32N6xx_HAL_Driver/Src/stm32n6xx_ll_usb.c **** 
 615              		.loc 1 436 3 view .LVU192
 436:STM32Cube_FW_N6/Drivers/STM32N6xx_HAL_Driver/Src/stm32n6xx_ll_usb.c **** 
 616              		.loc 1 436 17 is_stmt 0 view .LVU193
 617 0000 0023     		movs	r3, #0
 435:STM32Cube_FW_N6/Drivers/STM32N6xx_HAL_Driver/Src/stm32n6xx_ll_usb.c ****   __IO uint32_t count = 0U;
 618              		.loc 1 435 1 view .LVU194
 619 0002 0246     		mov	r2, r0
 620 0004 82B0     		sub	sp, sp, #8
 621              		.cfi_def_cfa_offset 8
 436:STM32Cube_FW_N6/Drivers/STM32N6xx_HAL_Driver/Src/stm32n6xx_ll_usb.c **** 
 622              		.loc 1 436 17 view .LVU195
 623 0006 0193     		str	r3, [sp, #4]
ARM GAS  C:\Users\DJESSOU\AppData\Local\Temp\ccOpSjVg.s 			page 40


 624              	.L46:
 439:STM32Cube_FW_N6/Drivers/STM32N6xx_HAL_Driver/Src/stm32n6xx_ll_usb.c ****   {
 625              		.loc 1 439 3 is_stmt 1 view .LVU196
 441:STM32Cube_FW_N6/Drivers/STM32N6xx_HAL_Driver/Src/stm32n6xx_ll_usb.c **** 
 626              		.loc 1 441 5 view .LVU197
 441:STM32Cube_FW_N6/Drivers/STM32N6xx_HAL_Driver/Src/stm32n6xx_ll_usb.c **** 
 627              		.loc 1 441 10 is_stmt 0 view .LVU198
 628 0008 019B     		ldr	r3, [sp, #4]
 629 000a 0133     		adds	r3, r3, #1
 630 000c 0193     		str	r3, [sp, #4]
 443:STM32Cube_FW_N6/Drivers/STM32N6xx_HAL_Driver/Src/stm32n6xx_ll_usb.c ****     {
 631              		.loc 1 443 5 is_stmt 1 view .LVU199
 443:STM32Cube_FW_N6/Drivers/STM32N6xx_HAL_Driver/Src/stm32n6xx_ll_usb.c ****     {
 632              		.loc 1 443 15 is_stmt 0 view .LVU200
 633 000e 019B     		ldr	r3, [sp, #4]
 443:STM32Cube_FW_N6/Drivers/STM32N6xx_HAL_Driver/Src/stm32n6xx_ll_usb.c ****     {
 634              		.loc 1 443 8 view .LVU201
 635 0010 B3F1706F 		cmp	r3, #251658240
 636 0014 15D8     		bhi	.L45
 447:STM32Cube_FW_N6/Drivers/STM32N6xx_HAL_Driver/Src/stm32n6xx_ll_usb.c **** 
 637              		.loc 1 447 53 is_stmt 1 view .LVU202
 447:STM32Cube_FW_N6/Drivers/STM32N6xx_HAL_Driver/Src/stm32n6xx_ll_usb.c **** 
 638              		.loc 1 447 17 is_stmt 0 view .LVU203
 639 0016 1369     		ldr	r3, [r2, #16]
 447:STM32Cube_FW_N6/Drivers/STM32N6xx_HAL_Driver/Src/stm32n6xx_ll_usb.c **** 
 640              		.loc 1 447 53 view .LVU204
 641 0018 002B     		cmp	r3, #0
 642 001a F5DA     		bge	.L46
 450:STM32Cube_FW_N6/Drivers/STM32N6xx_HAL_Driver/Src/stm32n6xx_ll_usb.c ****   USBx->GRSTCTL = (USB_OTG_GRSTCTL_TXFFLSH | (num << 6));
 643              		.loc 1 450 3 is_stmt 1 view .LVU205
 450:STM32Cube_FW_N6/Drivers/STM32N6xx_HAL_Driver/Src/stm32n6xx_ll_usb.c ****   USBx->GRSTCTL = (USB_OTG_GRSTCTL_TXFFLSH | (num << 6));
 644              		.loc 1 450 9 is_stmt 0 view .LVU206
 645 001c 0023     		movs	r3, #0
 451:STM32Cube_FW_N6/Drivers/STM32N6xx_HAL_Driver/Src/stm32n6xx_ll_usb.c **** 
 646              		.loc 1 451 51 view .LVU207
 647 001e 8901     		lsls	r1, r1, #6
 648              	.LVL31:
 451:STM32Cube_FW_N6/Drivers/STM32N6xx_HAL_Driver/Src/stm32n6xx_ll_usb.c **** 
 649              		.loc 1 451 44 view .LVU208
 650 0020 41F02001 		orr	r1, r1, #32
 450:STM32Cube_FW_N6/Drivers/STM32N6xx_HAL_Driver/Src/stm32n6xx_ll_usb.c ****   USBx->GRSTCTL = (USB_OTG_GRSTCTL_TXFFLSH | (num << 6));
 651              		.loc 1 450 9 view .LVU209
 652 0024 0193     		str	r3, [sp, #4]
 451:STM32Cube_FW_N6/Drivers/STM32N6xx_HAL_Driver/Src/stm32n6xx_ll_usb.c **** 
 653              		.loc 1 451 3 is_stmt 1 view .LVU210
 451:STM32Cube_FW_N6/Drivers/STM32N6xx_HAL_Driver/Src/stm32n6xx_ll_usb.c **** 
 654              		.loc 1 451 17 is_stmt 0 view .LVU211
 655 0026 1161     		str	r1, [r2, #16]
 656              	.LVL32:
 657              	.L47:
 453:STM32Cube_FW_N6/Drivers/STM32N6xx_HAL_Driver/Src/stm32n6xx_ll_usb.c ****   {
 658              		.loc 1 453 3 is_stmt 1 view .LVU212
 455:STM32Cube_FW_N6/Drivers/STM32N6xx_HAL_Driver/Src/stm32n6xx_ll_usb.c **** 
 659              		.loc 1 455 5 view .LVU213
 455:STM32Cube_FW_N6/Drivers/STM32N6xx_HAL_Driver/Src/stm32n6xx_ll_usb.c **** 
 660              		.loc 1 455 10 is_stmt 0 view .LVU214
 661 0028 019B     		ldr	r3, [sp, #4]
ARM GAS  C:\Users\DJESSOU\AppData\Local\Temp\ccOpSjVg.s 			page 41


 662 002a 0133     		adds	r3, r3, #1
 663 002c 0193     		str	r3, [sp, #4]
 457:STM32Cube_FW_N6/Drivers/STM32N6xx_HAL_Driver/Src/stm32n6xx_ll_usb.c ****     {
 664              		.loc 1 457 5 is_stmt 1 view .LVU215
 457:STM32Cube_FW_N6/Drivers/STM32N6xx_HAL_Driver/Src/stm32n6xx_ll_usb.c ****     {
 665              		.loc 1 457 15 is_stmt 0 view .LVU216
 666 002e 019B     		ldr	r3, [sp, #4]
 457:STM32Cube_FW_N6/Drivers/STM32N6xx_HAL_Driver/Src/stm32n6xx_ll_usb.c ****     {
 667              		.loc 1 457 8 view .LVU217
 668 0030 B3F1706F 		cmp	r3, #251658240
 669 0034 05D8     		bhi	.L45
 461:STM32Cube_FW_N6/Drivers/STM32N6xx_HAL_Driver/Src/stm32n6xx_ll_usb.c **** 
 670              		.loc 1 461 54 is_stmt 1 view .LVU218
 461:STM32Cube_FW_N6/Drivers/STM32N6xx_HAL_Driver/Src/stm32n6xx_ll_usb.c **** 
 671              		.loc 1 461 17 is_stmt 0 view .LVU219
 672 0036 1069     		ldr	r0, [r2, #16]
 461:STM32Cube_FW_N6/Drivers/STM32N6xx_HAL_Driver/Src/stm32n6xx_ll_usb.c **** 
 673              		.loc 1 461 54 view .LVU220
 674 0038 10F02000 		ands	r0, r0, #32
 675 003c F4D1     		bne	.L47
 676              	.L48:
 464:STM32Cube_FW_N6/Drivers/STM32N6xx_HAL_Driver/Src/stm32n6xx_ll_usb.c **** 
 677              		.loc 1 464 1 view .LVU221
 678 003e 02B0     		add	sp, sp, #8
 679              		.cfi_remember_state
 680              		.cfi_def_cfa_offset 0
 681              		@ sp needed
 682 0040 7047     		bx	lr
 683              	.L45:
 684              		.cfi_restore_state
 445:STM32Cube_FW_N6/Drivers/STM32N6xx_HAL_Driver/Src/stm32n6xx_ll_usb.c ****     }
 685              		.loc 1 445 14 view .LVU222
 686 0042 0320     		movs	r0, #3
 687 0044 FBE7     		b	.L48
 688              		.cfi_endproc
 689              	.LFE868:
 691              		.section	.text.USB_FlushRxFifo,"ax",%progbits
 692              		.align	1
 693              		.global	USB_FlushRxFifo
 694              		.syntax unified
 695              		.thumb
 696              		.thumb_func
 698              	USB_FlushRxFifo:
 699              	.LVL33:
 700              	.LFB869:
 472:STM32Cube_FW_N6/Drivers/STM32N6xx_HAL_Driver/Src/stm32n6xx_ll_usb.c ****   __IO uint32_t count = 0U;
 701              		.loc 1 472 1 is_stmt 1 view -0
 702              		.cfi_startproc
 703              		@ args = 0, pretend = 0, frame = 8
 704              		@ frame_needed = 0, uses_anonymous_args = 0
 705              		@ link register save eliminated.
 473:STM32Cube_FW_N6/Drivers/STM32N6xx_HAL_Driver/Src/stm32n6xx_ll_usb.c **** 
 706              		.loc 1 473 3 view .LVU224
 473:STM32Cube_FW_N6/Drivers/STM32N6xx_HAL_Driver/Src/stm32n6xx_ll_usb.c **** 
 707              		.loc 1 473 17 is_stmt 0 view .LVU225
 708 0000 0023     		movs	r3, #0
 472:STM32Cube_FW_N6/Drivers/STM32N6xx_HAL_Driver/Src/stm32n6xx_ll_usb.c ****   __IO uint32_t count = 0U;
ARM GAS  C:\Users\DJESSOU\AppData\Local\Temp\ccOpSjVg.s 			page 42


 709              		.loc 1 472 1 view .LVU226
 710 0002 0246     		mov	r2, r0
 711 0004 82B0     		sub	sp, sp, #8
 712              		.cfi_def_cfa_offset 8
 473:STM32Cube_FW_N6/Drivers/STM32N6xx_HAL_Driver/Src/stm32n6xx_ll_usb.c **** 
 713              		.loc 1 473 17 view .LVU227
 714 0006 0193     		str	r3, [sp, #4]
 715              	.L53:
 476:STM32Cube_FW_N6/Drivers/STM32N6xx_HAL_Driver/Src/stm32n6xx_ll_usb.c ****   {
 716              		.loc 1 476 3 is_stmt 1 view .LVU228
 478:STM32Cube_FW_N6/Drivers/STM32N6xx_HAL_Driver/Src/stm32n6xx_ll_usb.c **** 
 717              		.loc 1 478 5 view .LVU229
 478:STM32Cube_FW_N6/Drivers/STM32N6xx_HAL_Driver/Src/stm32n6xx_ll_usb.c **** 
 718              		.loc 1 478 10 is_stmt 0 view .LVU230
 719 0008 019B     		ldr	r3, [sp, #4]
 720 000a 0133     		adds	r3, r3, #1
 721 000c 0193     		str	r3, [sp, #4]
 480:STM32Cube_FW_N6/Drivers/STM32N6xx_HAL_Driver/Src/stm32n6xx_ll_usb.c ****     {
 722              		.loc 1 480 5 is_stmt 1 view .LVU231
 480:STM32Cube_FW_N6/Drivers/STM32N6xx_HAL_Driver/Src/stm32n6xx_ll_usb.c ****     {
 723              		.loc 1 480 15 is_stmt 0 view .LVU232
 724 000e 019B     		ldr	r3, [sp, #4]
 480:STM32Cube_FW_N6/Drivers/STM32N6xx_HAL_Driver/Src/stm32n6xx_ll_usb.c ****     {
 725              		.loc 1 480 8 view .LVU233
 726 0010 B3F1706F 		cmp	r3, #251658240
 727 0014 13D8     		bhi	.L52
 484:STM32Cube_FW_N6/Drivers/STM32N6xx_HAL_Driver/Src/stm32n6xx_ll_usb.c **** 
 728              		.loc 1 484 53 is_stmt 1 view .LVU234
 484:STM32Cube_FW_N6/Drivers/STM32N6xx_HAL_Driver/Src/stm32n6xx_ll_usb.c **** 
 729              		.loc 1 484 17 is_stmt 0 view .LVU235
 730 0016 1369     		ldr	r3, [r2, #16]
 484:STM32Cube_FW_N6/Drivers/STM32N6xx_HAL_Driver/Src/stm32n6xx_ll_usb.c **** 
 731              		.loc 1 484 53 view .LVU236
 732 0018 002B     		cmp	r3, #0
 733 001a F5DA     		bge	.L53
 487:STM32Cube_FW_N6/Drivers/STM32N6xx_HAL_Driver/Src/stm32n6xx_ll_usb.c ****   USBx->GRSTCTL = USB_OTG_GRSTCTL_RXFFLSH;
 734              		.loc 1 487 3 is_stmt 1 view .LVU237
 487:STM32Cube_FW_N6/Drivers/STM32N6xx_HAL_Driver/Src/stm32n6xx_ll_usb.c ****   USBx->GRSTCTL = USB_OTG_GRSTCTL_RXFFLSH;
 735              		.loc 1 487 9 is_stmt 0 view .LVU238
 736 001c 0023     		movs	r3, #0
 737 001e 0193     		str	r3, [sp, #4]
 488:STM32Cube_FW_N6/Drivers/STM32N6xx_HAL_Driver/Src/stm32n6xx_ll_usb.c **** 
 738              		.loc 1 488 3 is_stmt 1 view .LVU239
 488:STM32Cube_FW_N6/Drivers/STM32N6xx_HAL_Driver/Src/stm32n6xx_ll_usb.c **** 
 739              		.loc 1 488 17 is_stmt 0 view .LVU240
 740 0020 1023     		movs	r3, #16
 741 0022 1361     		str	r3, [r2, #16]
 742              	.LVL34:
 743              	.L54:
 490:STM32Cube_FW_N6/Drivers/STM32N6xx_HAL_Driver/Src/stm32n6xx_ll_usb.c ****   {
 744              		.loc 1 490 3 is_stmt 1 view .LVU241
 492:STM32Cube_FW_N6/Drivers/STM32N6xx_HAL_Driver/Src/stm32n6xx_ll_usb.c **** 
 745              		.loc 1 492 5 view .LVU242
 492:STM32Cube_FW_N6/Drivers/STM32N6xx_HAL_Driver/Src/stm32n6xx_ll_usb.c **** 
 746              		.loc 1 492 10 is_stmt 0 view .LVU243
 747 0024 019B     		ldr	r3, [sp, #4]
 748 0026 0133     		adds	r3, r3, #1
ARM GAS  C:\Users\DJESSOU\AppData\Local\Temp\ccOpSjVg.s 			page 43


 749 0028 0193     		str	r3, [sp, #4]
 494:STM32Cube_FW_N6/Drivers/STM32N6xx_HAL_Driver/Src/stm32n6xx_ll_usb.c ****     {
 750              		.loc 1 494 5 is_stmt 1 view .LVU244
 494:STM32Cube_FW_N6/Drivers/STM32N6xx_HAL_Driver/Src/stm32n6xx_ll_usb.c ****     {
 751              		.loc 1 494 15 is_stmt 0 view .LVU245
 752 002a 019B     		ldr	r3, [sp, #4]
 494:STM32Cube_FW_N6/Drivers/STM32N6xx_HAL_Driver/Src/stm32n6xx_ll_usb.c ****     {
 753              		.loc 1 494 8 view .LVU246
 754 002c B3F1706F 		cmp	r3, #251658240
 755 0030 05D8     		bhi	.L52
 498:STM32Cube_FW_N6/Drivers/STM32N6xx_HAL_Driver/Src/stm32n6xx_ll_usb.c **** 
 756              		.loc 1 498 54 is_stmt 1 view .LVU247
 498:STM32Cube_FW_N6/Drivers/STM32N6xx_HAL_Driver/Src/stm32n6xx_ll_usb.c **** 
 757              		.loc 1 498 17 is_stmt 0 view .LVU248
 758 0032 1069     		ldr	r0, [r2, #16]
 498:STM32Cube_FW_N6/Drivers/STM32N6xx_HAL_Driver/Src/stm32n6xx_ll_usb.c **** 
 759              		.loc 1 498 54 view .LVU249
 760 0034 10F01000 		ands	r0, r0, #16
 761 0038 F4D1     		bne	.L54
 762              	.L55:
 501:STM32Cube_FW_N6/Drivers/STM32N6xx_HAL_Driver/Src/stm32n6xx_ll_usb.c **** 
 763              		.loc 1 501 1 view .LVU250
 764 003a 02B0     		add	sp, sp, #8
 765              		.cfi_remember_state
 766              		.cfi_def_cfa_offset 0
 767              		@ sp needed
 768 003c 7047     		bx	lr
 769              	.L52:
 770              		.cfi_restore_state
 482:STM32Cube_FW_N6/Drivers/STM32N6xx_HAL_Driver/Src/stm32n6xx_ll_usb.c ****     }
 771              		.loc 1 482 14 view .LVU251
 772 003e 0320     		movs	r0, #3
 773 0040 FBE7     		b	.L55
 774              		.cfi_endproc
 775              	.LFE869:
 777              		.section	.text.USB_SetDevSpeed,"ax",%progbits
 778              		.align	1
 779              		.global	USB_SetDevSpeed
 780              		.syntax unified
 781              		.thumb
 782              		.thumb_func
 784              	USB_SetDevSpeed:
 785              	.LVL35:
 786              	.LFB870:
 515:STM32Cube_FW_N6/Drivers/STM32N6xx_HAL_Driver/Src/stm32n6xx_ll_usb.c ****   uint32_t USBx_BASE = (uint32_t)USBx;
 787              		.loc 1 515 1 is_stmt 1 view -0
 788              		.cfi_startproc
 789              		@ args = 0, pretend = 0, frame = 0
 790              		@ frame_needed = 0, uses_anonymous_args = 0
 791              		@ link register save eliminated.
 516:STM32Cube_FW_N6/Drivers/STM32N6xx_HAL_Driver/Src/stm32n6xx_ll_usb.c **** 
 792              		.loc 1 516 3 view .LVU253
 518:STM32Cube_FW_N6/Drivers/STM32N6xx_HAL_Driver/Src/stm32n6xx_ll_usb.c ****   return HAL_OK;
 793              		.loc 1 518 3 view .LVU254
 518:STM32Cube_FW_N6/Drivers/STM32N6xx_HAL_Driver/Src/stm32n6xx_ll_usb.c ****   return HAL_OK;
 794              		.loc 1 518 14 is_stmt 0 view .LVU255
 795 0000 D0F80038 		ldr	r3, [r0, #2048]
ARM GAS  C:\Users\DJESSOU\AppData\Local\Temp\ccOpSjVg.s 			page 44


 518:STM32Cube_FW_N6/Drivers/STM32N6xx_HAL_Driver/Src/stm32n6xx_ll_usb.c ****   return HAL_OK;
 796              		.loc 1 518 21 view .LVU256
 797 0004 1943     		orrs	r1, r1, r3
 798              	.LVL36:
 518:STM32Cube_FW_N6/Drivers/STM32N6xx_HAL_Driver/Src/stm32n6xx_ll_usb.c ****   return HAL_OK;
 799              		.loc 1 518 21 view .LVU257
 800 0006 C0F80018 		str	r1, [r0, #2048]
 519:STM32Cube_FW_N6/Drivers/STM32N6xx_HAL_Driver/Src/stm32n6xx_ll_usb.c **** }
 801              		.loc 1 519 3 is_stmt 1 view .LVU258
 520:STM32Cube_FW_N6/Drivers/STM32N6xx_HAL_Driver/Src/stm32n6xx_ll_usb.c **** 
 802              		.loc 1 520 1 is_stmt 0 view .LVU259
 803 000a 0020     		movs	r0, #0
 804              	.LVL37:
 520:STM32Cube_FW_N6/Drivers/STM32N6xx_HAL_Driver/Src/stm32n6xx_ll_usb.c **** 
 805              		.loc 1 520 1 view .LVU260
 806 000c 7047     		bx	lr
 807              		.cfi_endproc
 808              	.LFE870:
 810              		.section	.text.USB_DevInit,"ax",%progbits
 811              		.align	1
 812              		.global	USB_DevInit
 813              		.syntax unified
 814              		.thumb
 815              		.thumb_func
 817              	USB_DevInit:
 818              	.LVL38:
 819              	.LFB867:
 280:STM32Cube_FW_N6/Drivers/STM32N6xx_HAL_Driver/Src/stm32n6xx_ll_usb.c ****   HAL_StatusTypeDef ret = HAL_OK;
 820              		.loc 1 280 1 is_stmt 1 view -0
 821              		.cfi_startproc
 822              		@ args = 20, pretend = 16, frame = 0
 823              		@ frame_needed = 0, uses_anonymous_args = 0
 280:STM32Cube_FW_N6/Drivers/STM32N6xx_HAL_Driver/Src/stm32n6xx_ll_usb.c ****   HAL_StatusTypeDef ret = HAL_OK;
 824              		.loc 1 280 1 is_stmt 0 view .LVU262
 825 0000 84B0     		sub	sp, sp, #16
 826              		.cfi_def_cfa_offset 16
 827 0002 2DE9F047 		push	{r4, r5, r6, r7, r8, r9, r10, lr}
 828              		.cfi_def_cfa_offset 48
 829              		.cfi_offset 4, -48
 830              		.cfi_offset 5, -44
 831              		.cfi_offset 6, -40
 832              		.cfi_offset 7, -36
 833              		.cfi_offset 8, -32
 834              		.cfi_offset 9, -28
 835              		.cfi_offset 10, -24
 836              		.cfi_offset 14, -20
 280:STM32Cube_FW_N6/Drivers/STM32N6xx_HAL_Driver/Src/stm32n6xx_ll_usb.c ****   HAL_StatusTypeDef ret = HAL_OK;
 837              		.loc 1 280 1 view .LVU263
 838 0006 0446     		mov	r4, r0
 839 0008 09A8     		add	r0, sp, #36
 840              	.LVL39:
 280:STM32Cube_FW_N6/Drivers/STM32N6xx_HAL_Driver/Src/stm32n6xx_ll_usb.c ****   HAL_StatusTypeDef ret = HAL_OK;
 841              		.loc 1 280 1 view .LVU264
 842 000a 80E80E00 		stm	r0, {r1, r2, r3}
 287:STM32Cube_FW_N6/Drivers/STM32N6xx_HAL_Driver/Src/stm32n6xx_ll_usb.c ****   }
 843              		.loc 1 287 22 view .LVU265
 844 000e 4FF00F0E 		mov	lr, #15
ARM GAS  C:\Users\DJESSOU\AppData\Local\Temp\ccOpSjVg.s 			page 45


 285:STM32Cube_FW_N6/Drivers/STM32N6xx_HAL_Driver/Src/stm32n6xx_ll_usb.c ****   {
 845              		.loc 1 285 10 view .LVU266
 846 0012 0023     		movs	r3, #0
 287:STM32Cube_FW_N6/Drivers/STM32N6xx_HAL_Driver/Src/stm32n6xx_ll_usb.c ****   }
 847              		.loc 1 287 22 view .LVU267
 848 0014 4EF001E0 		dls	lr, lr
 849 0018 1946     		mov	r1, r3
 850 001a 9DF82450 		ldrb	r5, [sp, #36]	@ zero_extendqisi2
 851              	.LVL40:
 287:STM32Cube_FW_N6/Drivers/STM32N6xx_HAL_Driver/Src/stm32n6xx_ll_usb.c ****   }
 852              		.loc 1 287 22 view .LVU268
 853 001e 9DF82E60 		ldrb	r6, [sp, #46]	@ zero_extendqisi2
 854              	.LVL41:
 281:STM32Cube_FW_N6/Drivers/STM32N6xx_HAL_Driver/Src/stm32n6xx_ll_usb.c ****   uint32_t USBx_BASE = (uint32_t)USBx;
 855              		.loc 1 281 3 is_stmt 1 view .LVU269
 282:STM32Cube_FW_N6/Drivers/STM32N6xx_HAL_Driver/Src/stm32n6xx_ll_usb.c ****   uint32_t i;
 856              		.loc 1 282 3 view .LVU270
 283:STM32Cube_FW_N6/Drivers/STM32N6xx_HAL_Driver/Src/stm32n6xx_ll_usb.c **** 
 857              		.loc 1 283 3 view .LVU271
 285:STM32Cube_FW_N6/Drivers/STM32N6xx_HAL_Driver/Src/stm32n6xx_ll_usb.c ****   {
 858              		.loc 1 285 3 view .LVU272
 285:STM32Cube_FW_N6/Drivers/STM32N6xx_HAL_Driver/Src/stm32n6xx_ll_usb.c ****   {
 859              		.loc 1 285 18 discriminator 1 view .LVU273
 860              	.L60:
 287:STM32Cube_FW_N6/Drivers/STM32N6xx_HAL_Driver/Src/stm32n6xx_ll_usb.c ****   }
 861              		.loc 1 287 5 view .LVU274
 287:STM32Cube_FW_N6/Drivers/STM32N6xx_HAL_Driver/Src/stm32n6xx_ll_usb.c ****   }
 862              		.loc 1 287 22 is_stmt 0 view .LVU275
 863 0022 03F14002 		add	r2, r3, #64
 864 0026 04EB8202 		add	r2, r4, r2, lsl #2
 865 002a 5160     		str	r1, [r2, #4]
 285:STM32Cube_FW_N6/Drivers/STM32N6xx_HAL_Driver/Src/stm32n6xx_ll_usb.c ****   {
 866              		.loc 1 285 26 is_stmt 1 discriminator 3 view .LVU276
 867 002c 0133     		adds	r3, r3, #1
 868              	.LVL42:
 285:STM32Cube_FW_N6/Drivers/STM32N6xx_HAL_Driver/Src/stm32n6xx_ll_usb.c ****   {
 869              		.loc 1 285 18 discriminator 1 view .LVU277
 870 002e 0FF009C0 		le	lr, .L60
 291:STM32Cube_FW_N6/Drivers/STM32N6xx_HAL_Driver/Src/stm32n6xx_ll_usb.c **** 
 871              		.loc 1 291 3 view .LVU278
 291:STM32Cube_FW_N6/Drivers/STM32N6xx_HAL_Driver/Src/stm32n6xx_ll_usb.c **** 
 872              		.loc 1 291 7 is_stmt 0 view .LVU279
 873 0032 A36B     		ldr	r3, [r4, #56]
 874              	.LVL43:
 296:STM32Cube_FW_N6/Drivers/STM32N6xx_HAL_Driver/Src/stm32n6xx_ll_usb.c **** 
 875              		.loc 1 296 16 view .LVU280
 876 0034 04F50067 		add	r7, r4, #2048
 291:STM32Cube_FW_N6/Drivers/STM32N6xx_HAL_Driver/Src/stm32n6xx_ll_usb.c **** 
 877              		.loc 1 291 15 view .LVU281
 878 0038 23F00073 		bic	r3, r3, #33554432
 879 003c A363     		str	r3, [r4, #56]
 294:STM32Cube_FW_N6/Drivers/STM32N6xx_HAL_Driver/Src/stm32n6xx_ll_usb.c ****   {
 880              		.loc 1 294 3 is_stmt 1 view .LVU282
 294:STM32Cube_FW_N6/Drivers/STM32N6xx_HAL_Driver/Src/stm32n6xx_ll_usb.c ****   {
 881              		.loc 1 294 6 is_stmt 0 view .LVU283
 882 003e 002E     		cmp	r6, #0
 883 0040 72D1     		bne	.L61
ARM GAS  C:\Users\DJESSOU\AppData\Local\Temp\ccOpSjVg.s 			page 46


 296:STM32Cube_FW_N6/Drivers/STM32N6xx_HAL_Driver/Src/stm32n6xx_ll_usb.c **** 
 884              		.loc 1 296 5 is_stmt 1 view .LVU284
 296:STM32Cube_FW_N6/Drivers/STM32N6xx_HAL_Driver/Src/stm32n6xx_ll_usb.c **** 
 885              		.loc 1 296 16 is_stmt 0 view .LVU285
 886 0042 7B68     		ldr	r3, [r7, #4]
 296:STM32Cube_FW_N6/Drivers/STM32N6xx_HAL_Driver/Src/stm32n6xx_ll_usb.c **** 
 887              		.loc 1 296 23 view .LVU286
 888 0044 43F00203 		orr	r3, r3, #2
 889 0048 7B60     		str	r3, [r7, #4]
 299:STM32Cube_FW_N6/Drivers/STM32N6xx_HAL_Driver/Src/stm32n6xx_ll_usb.c ****     USBx->GCCFG |= USB_OTG_GCCFG_VBVALOVAL;
 890              		.loc 1 299 5 is_stmt 1 view .LVU287
 299:STM32Cube_FW_N6/Drivers/STM32N6xx_HAL_Driver/Src/stm32n6xx_ll_usb.c ****     USBx->GCCFG |= USB_OTG_GCCFG_VBVALOVAL;
 891              		.loc 1 299 9 is_stmt 0 view .LVU288
 892 004a A36B     		ldr	r3, [r4, #56]
 299:STM32Cube_FW_N6/Drivers/STM32N6xx_HAL_Driver/Src/stm32n6xx_ll_usb.c ****     USBx->GCCFG |= USB_OTG_GCCFG_VBVALOVAL;
 893              		.loc 1 299 17 view .LVU289
 894 004c 43F08073 		orr	r3, r3, #16777216
 895 0050 A363     		str	r3, [r4, #56]
 300:STM32Cube_FW_N6/Drivers/STM32N6xx_HAL_Driver/Src/stm32n6xx_ll_usb.c ****   }
 896              		.loc 1 300 5 is_stmt 1 view .LVU290
 300:STM32Cube_FW_N6/Drivers/STM32N6xx_HAL_Driver/Src/stm32n6xx_ll_usb.c ****   }
 897              		.loc 1 300 9 is_stmt 0 view .LVU291
 898 0052 A36B     		ldr	r3, [r4, #56]
 300:STM32Cube_FW_N6/Drivers/STM32N6xx_HAL_Driver/Src/stm32n6xx_ll_usb.c ****   }
 899              		.loc 1 300 17 view .LVU292
 900 0054 43F40003 		orr	r3, r3, #8388608
 901              	.L85:
 306:STM32Cube_FW_N6/Drivers/STM32N6xx_HAL_Driver/Src/stm32n6xx_ll_usb.c ****   }
 902              		.loc 1 306 17 view .LVU293
 903 0058 A363     		str	r3, [r4, #56]
 310:STM32Cube_FW_N6/Drivers/STM32N6xx_HAL_Driver/Src/stm32n6xx_ll_usb.c **** 
 904              		.loc 1 310 3 is_stmt 1 view .LVU294
 310:STM32Cube_FW_N6/Drivers/STM32N6xx_HAL_Driver/Src/stm32n6xx_ll_usb.c **** 
 905              		.loc 1 310 16 is_stmt 0 view .LVU295
 906 005a 0023     		movs	r3, #0
 907 005c C4F8003E 		str	r3, [r4, #3584]
 313:STM32Cube_FW_N6/Drivers/STM32N6xx_HAL_Driver/Src/stm32n6xx_ll_usb.c ****   {
 908              		.loc 1 313 3 is_stmt 1 view .LVU296
 313:STM32Cube_FW_N6/Drivers/STM32N6xx_HAL_Driver/Src/stm32n6xx_ll_usb.c ****   {
 909              		.loc 1 313 6 is_stmt 0 view .LVU297
 910 0060 9DF82930 		ldrb	r3, [sp, #41]	@ zero_extendqisi2
 911 0064 032B     		cmp	r3, #3
 912 0066 69D1     		bne	.L63
 315:STM32Cube_FW_N6/Drivers/STM32N6xx_HAL_Driver/Src/stm32n6xx_ll_usb.c ****     {
 913              		.loc 1 315 5 is_stmt 1 view .LVU298
 315:STM32Cube_FW_N6/Drivers/STM32N6xx_HAL_Driver/Src/stm32n6xx_ll_usb.c ****     {
 914              		.loc 1 315 8 is_stmt 0 view .LVU299
 915 0068 9DF82710 		ldrb	r1, [sp, #39]	@ zero_extendqisi2
 916 006c 0029     		cmp	r1, #0
 917 006e 63D1     		bne	.L64
 918              	.L86:
 330:STM32Cube_FW_N6/Drivers/STM32N6xx_HAL_Driver/Src/stm32n6xx_ll_usb.c ****   }
 919              		.loc 1 330 11 view .LVU300
 920 0070 2046     		mov	r0, r4
 921 0072 FFF7FEFF 		bl	USB_SetDevSpeed
 922              	.LVL44:
 334:STM32Cube_FW_N6/Drivers/STM32N6xx_HAL_Driver/Src/stm32n6xx_ll_usb.c ****   {
ARM GAS  C:\Users\DJESSOU\AppData\Local\Temp\ccOpSjVg.s 			page 47


 923              		.loc 1 334 3 is_stmt 1 view .LVU301
 334:STM32Cube_FW_N6/Drivers/STM32N6xx_HAL_Driver/Src/stm32n6xx_ll_usb.c ****   {
 924              		.loc 1 334 7 is_stmt 0 view .LVU302
 925 0076 1021     		movs	r1, #16
 926 0078 2046     		mov	r0, r4
 927 007a FFF7FEFF 		bl	USB_FlushTxFifo
 928              	.LVL45:
 929 007e 0146     		mov	r1, r0
 930              	.LVL46:
 339:STM32Cube_FW_N6/Drivers/STM32N6xx_HAL_Driver/Src/stm32n6xx_ll_usb.c ****   {
 931              		.loc 1 339 3 is_stmt 1 view .LVU303
 339:STM32Cube_FW_N6/Drivers/STM32N6xx_HAL_Driver/Src/stm32n6xx_ll_usb.c ****   {
 932              		.loc 1 339 7 is_stmt 0 view .LVU304
 933 0080 2046     		mov	r0, r4
 934 0082 FFF7FEFF 		bl	USB_FlushRxFifo
 935              	.LVL47:
 345:STM32Cube_FW_N6/Drivers/STM32N6xx_HAL_Driver/Src/stm32n6xx_ll_usb.c ****   USBx_DEVICE->DOEPMSK = 0U;
 936              		.loc 1 345 24 view .LVU305
 937 0086 0023     		movs	r3, #0
 339:STM32Cube_FW_N6/Drivers/STM32N6xx_HAL_Driver/Src/stm32n6xx_ll_usb.c ****   {
 938              		.loc 1 339 6 discriminator 1 view .LVU306
 939 0088 0843     		orrs	r0, r0, r1
 940 008a C0B2     		uxtb	r0, r0
 941 008c 0038     		subs	r0, r0, #0
 942 008e 18BF     		it	ne
 943 0090 0120     		movne	r0, #1
 944              	.LVL48:
 345:STM32Cube_FW_N6/Drivers/STM32N6xx_HAL_Driver/Src/stm32n6xx_ll_usb.c ****   USBx_DEVICE->DOEPMSK = 0U;
 945              		.loc 1 345 3 is_stmt 1 view .LVU307
 946 0092 9D42     		cmp	r5, r3
 947 0094 05F10102 		add	r2, r5, #1
 364:STM32Cube_FW_N6/Drivers/STM32N6xx_HAL_Driver/Src/stm32n6xx_ll_usb.c ****     }
 948              		.loc 1 364 29 is_stmt 0 view .LVU308
 949 0098 9C46     		mov	ip, r3
 359:STM32Cube_FW_N6/Drivers/STM32N6xx_HAL_Driver/Src/stm32n6xx_ll_usb.c ****       }
 950              		.loc 1 359 31 view .LVU309
 951 009a 4FF0904E 		mov	lr, #1207959552
 355:STM32Cube_FW_N6/Drivers/STM32N6xx_HAL_Driver/Src/stm32n6xx_ll_usb.c ****       }
 952              		.loc 1 355 31 view .LVU310
 953 009e 4FF00068 		mov	r8, #134217728
 368:STM32Cube_FW_N6/Drivers/STM32N6xx_HAL_Driver/Src/stm32n6xx_ll_usb.c ****   }
 954              		.loc 1 368 28 view .LVU311
 955 00a2 4FF67F39 		movw	r9, #64383
 956 00a6 08BF     		it	eq
 957 00a8 0122     		moveq	r2, #1
 345:STM32Cube_FW_N6/Drivers/STM32N6xx_HAL_Driver/Src/stm32n6xx_ll_usb.c ****   USBx_DEVICE->DOEPMSK = 0U;
 958              		.loc 1 345 24 view .LVU312
 959 00aa 3B61     		str	r3, [r7, #16]
 346:STM32Cube_FW_N6/Drivers/STM32N6xx_HAL_Driver/Src/stm32n6xx_ll_usb.c ****   USBx_DEVICE->DAINTMSK = 0U;
 960              		.loc 1 346 3 is_stmt 1 view .LVU313
 961 00ac 04F51061 		add	r1, r4, #2304
 346:STM32Cube_FW_N6/Drivers/STM32N6xx_HAL_Driver/Src/stm32n6xx_ll_usb.c ****   USBx_DEVICE->DAINTMSK = 0U;
 962              		.loc 1 346 24 is_stmt 0 view .LVU314
 963 00b0 7B61     		str	r3, [r7, #20]
 347:STM32Cube_FW_N6/Drivers/STM32N6xx_HAL_Driver/Src/stm32n6xx_ll_usb.c **** 
 964              		.loc 1 347 3 is_stmt 1 view .LVU315
 347:STM32Cube_FW_N6/Drivers/STM32N6xx_HAL_Driver/Src/stm32n6xx_ll_usb.c **** 
ARM GAS  C:\Users\DJESSOU\AppData\Local\Temp\ccOpSjVg.s 			page 48


 965              		.loc 1 347 25 is_stmt 0 view .LVU316
 966 00b2 FB61     		str	r3, [r7, #28]
 349:STM32Cube_FW_N6/Drivers/STM32N6xx_HAL_Driver/Src/stm32n6xx_ll_usb.c ****   {
 967              		.loc 1 349 3 is_stmt 1 view .LVU317
 968              	.LVL49:
 969              	.L66:
 349:STM32Cube_FW_N6/Drivers/STM32N6xx_HAL_Driver/Src/stm32n6xx_ll_usb.c ****   {
 970              		.loc 1 349 18 discriminator 1 view .LVU318
 971 00b4 013A     		subs	r2, r2, #1
 972 00b6 43D1     		bne	.L70
 371:STM32Cube_FW_N6/Drivers/STM32N6xx_HAL_Driver/Src/stm32n6xx_ll_usb.c ****   {
 973              		.loc 1 371 10 is_stmt 0 view .LVU319
 974 00b8 0021     		movs	r1, #0
 975 00ba 8D42     		cmp	r5, r1
 976 00bc 05F10102 		add	r2, r5, #1
 386:STM32Cube_FW_N6/Drivers/STM32N6xx_HAL_Driver/Src/stm32n6xx_ll_usb.c ****     }
 977              		.loc 1 386 30 view .LVU320
 978 00c0 8C46     		mov	ip, r1
 381:STM32Cube_FW_N6/Drivers/STM32N6xx_HAL_Driver/Src/stm32n6xx_ll_usb.c ****       }
 979              		.loc 1 381 32 view .LVU321
 980 00c2 4FF0904E 		mov	lr, #1207959552
 377:STM32Cube_FW_N6/Drivers/STM32N6xx_HAL_Driver/Src/stm32n6xx_ll_usb.c ****       }
 981              		.loc 1 377 32 view .LVU322
 982 00c6 4FF00068 		mov	r8, #134217728
 390:STM32Cube_FW_N6/Drivers/STM32N6xx_HAL_Driver/Src/stm32n6xx_ll_usb.c ****   }
 983              		.loc 1 390 29 view .LVU323
 984 00ca 4FF67F39 		movw	r9, #64383
 985 00ce 08BF     		it	eq
 986 00d0 0122     		moveq	r2, #1
 987 00d2 04F53063 		add	r3, r4, #2816
 988              	.LVL50:
 989              	.L71:
 371:STM32Cube_FW_N6/Drivers/STM32N6xx_HAL_Driver/Src/stm32n6xx_ll_usb.c ****   {
 990              		.loc 1 371 18 is_stmt 1 discriminator 1 view .LVU324
 991 00d6 013A     		subs	r2, r2, #1
 992 00d8 47D1     		bne	.L75
 393:STM32Cube_FW_N6/Drivers/STM32N6xx_HAL_Driver/Src/stm32n6xx_ll_usb.c **** 
 993              		.loc 1 393 3 view .LVU325
 393:STM32Cube_FW_N6/Drivers/STM32N6xx_HAL_Driver/Src/stm32n6xx_ll_usb.c **** 
 994              		.loc 1 393 14 is_stmt 0 view .LVU326
 995 00da 3B69     		ldr	r3, [r7, #16]
 393:STM32Cube_FW_N6/Drivers/STM32N6xx_HAL_Driver/Src/stm32n6xx_ll_usb.c **** 
 996              		.loc 1 393 24 view .LVU327
 997 00dc 23F48073 		bic	r3, r3, #256
 998 00e0 3B61     		str	r3, [r7, #16]
 396:STM32Cube_FW_N6/Drivers/STM32N6xx_HAL_Driver/Src/stm32n6xx_ll_usb.c **** 
 999              		.loc 1 396 3 is_stmt 1 view .LVU328
 396:STM32Cube_FW_N6/Drivers/STM32N6xx_HAL_Driver/Src/stm32n6xx_ll_usb.c **** 
 1000              		.loc 1 396 17 is_stmt 0 view .LVU329
 1001 00e2 0023     		movs	r3, #0
 1002 00e4 A361     		str	r3, [r4, #24]
 399:STM32Cube_FW_N6/Drivers/STM32N6xx_HAL_Driver/Src/stm32n6xx_ll_usb.c **** 
 1003              		.loc 1 399 3 is_stmt 1 view .LVU330
 399:STM32Cube_FW_N6/Drivers/STM32N6xx_HAL_Driver/Src/stm32n6xx_ll_usb.c **** 
 1004              		.loc 1 399 17 is_stmt 0 view .LVU331
 1005 00e6 6FF08043 		mvn	r3, #1073741824
 1006 00ea 6361     		str	r3, [r4, #20]
ARM GAS  C:\Users\DJESSOU\AppData\Local\Temp\ccOpSjVg.s 			page 49


 402:STM32Cube_FW_N6/Drivers/STM32N6xx_HAL_Driver/Src/stm32n6xx_ll_usb.c ****   {
 1007              		.loc 1 402 3 is_stmt 1 view .LVU332
 402:STM32Cube_FW_N6/Drivers/STM32N6xx_HAL_Driver/Src/stm32n6xx_ll_usb.c ****   {
 1008              		.loc 1 402 6 is_stmt 0 view .LVU333
 1009 00ec 9DF82630 		ldrb	r3, [sp, #38]	@ zero_extendqisi2
 1010 00f0 1BB9     		cbnz	r3, .L76
 404:STM32Cube_FW_N6/Drivers/STM32N6xx_HAL_Driver/Src/stm32n6xx_ll_usb.c ****   }
 1011              		.loc 1 404 5 is_stmt 1 view .LVU334
 404:STM32Cube_FW_N6/Drivers/STM32N6xx_HAL_Driver/Src/stm32n6xx_ll_usb.c ****   }
 1012              		.loc 1 404 9 is_stmt 0 view .LVU335
 1013 00f2 A369     		ldr	r3, [r4, #24]
 404:STM32Cube_FW_N6/Drivers/STM32N6xx_HAL_Driver/Src/stm32n6xx_ll_usb.c ****   }
 1014              		.loc 1 404 19 view .LVU336
 1015 00f4 43F01003 		orr	r3, r3, #16
 1016 00f8 A361     		str	r3, [r4, #24]
 1017              	.L76:
 408:STM32Cube_FW_N6/Drivers/STM32N6xx_HAL_Driver/Src/stm32n6xx_ll_usb.c ****                    USB_OTG_GINTMSK_ENUMDNEM | USB_OTG_GINTMSK_IEPINT |
 1018              		.loc 1 408 3 is_stmt 1 view .LVU337
 408:STM32Cube_FW_N6/Drivers/STM32N6xx_HAL_Driver/Src/stm32n6xx_ll_usb.c ****                    USB_OTG_GINTMSK_ENUMDNEM | USB_OTG_GINTMSK_IEPINT |
 1019              		.loc 1 408 7 is_stmt 0 view .LVU338
 1020 00fa A269     		ldr	r2, [r4, #24]
 408:STM32Cube_FW_N6/Drivers/STM32N6xx_HAL_Driver/Src/stm32n6xx_ll_usb.c ****                    USB_OTG_GINTMSK_ENUMDNEM | USB_OTG_GINTMSK_IEPINT |
 1021              		.loc 1 408 17 view .LVU339
 1022 00fc 244B     		ldr	r3, .L87
 1023 00fe 1343     		orrs	r3, r3, r2
 1024 0100 A361     		str	r3, [r4, #24]
 413:STM32Cube_FW_N6/Drivers/STM32N6xx_HAL_Driver/Src/stm32n6xx_ll_usb.c ****   {
 1025              		.loc 1 413 3 is_stmt 1 view .LVU340
 413:STM32Cube_FW_N6/Drivers/STM32N6xx_HAL_Driver/Src/stm32n6xx_ll_usb.c ****   {
 1026              		.loc 1 413 6 is_stmt 0 view .LVU341
 1027 0102 9DF82A30 		ldrb	r3, [sp, #42]	@ zero_extendqisi2
 1028 0106 1BB1     		cbz	r3, .L77
 415:STM32Cube_FW_N6/Drivers/STM32N6xx_HAL_Driver/Src/stm32n6xx_ll_usb.c ****   }
 1029              		.loc 1 415 5 is_stmt 1 view .LVU342
 415:STM32Cube_FW_N6/Drivers/STM32N6xx_HAL_Driver/Src/stm32n6xx_ll_usb.c ****   }
 1030              		.loc 1 415 9 is_stmt 0 view .LVU343
 1031 0108 A369     		ldr	r3, [r4, #24]
 415:STM32Cube_FW_N6/Drivers/STM32N6xx_HAL_Driver/Src/stm32n6xx_ll_usb.c ****   }
 1032              		.loc 1 415 19 view .LVU344
 1033 010a 43F00803 		orr	r3, r3, #8
 1034 010e A361     		str	r3, [r4, #24]
 1035              	.L77:
 418:STM32Cube_FW_N6/Drivers/STM32N6xx_HAL_Driver/Src/stm32n6xx_ll_usb.c ****   {
 1036              		.loc 1 418 3 is_stmt 1 view .LVU345
 418:STM32Cube_FW_N6/Drivers/STM32N6xx_HAL_Driver/Src/stm32n6xx_ll_usb.c ****   {
 1037              		.loc 1 418 6 is_stmt 0 view .LVU346
 1038 0110 012E     		cmp	r6, #1
 420:STM32Cube_FW_N6/Drivers/STM32N6xx_HAL_Driver/Src/stm32n6xx_ll_usb.c ****   }
 1039              		.loc 1 420 5 is_stmt 1 view .LVU347
 420:STM32Cube_FW_N6/Drivers/STM32N6xx_HAL_Driver/Src/stm32n6xx_ll_usb.c ****   }
 1040              		.loc 1 420 9 is_stmt 0 view .LVU348
 1041 0112 01BF     		itttt	eq
 1042 0114 A369     		ldreq	r3, [r4, #24]
 420:STM32Cube_FW_N6/Drivers/STM32N6xx_HAL_Driver/Src/stm32n6xx_ll_usb.c ****   }
 1043              		.loc 1 420 19 view .LVU349
 1044 0116 43F08043 		orreq	r3, r3, #1073741824
 1045 011a 43F00403 		orreq	r3, r3, #4
ARM GAS  C:\Users\DJESSOU\AppData\Local\Temp\ccOpSjVg.s 			page 50


 1046 011e A361     		streq	r3, [r4, #24]
 423:STM32Cube_FW_N6/Drivers/STM32N6xx_HAL_Driver/Src/stm32n6xx_ll_usb.c **** }
 1047              		.loc 1 423 3 is_stmt 1 view .LVU350
 424:STM32Cube_FW_N6/Drivers/STM32N6xx_HAL_Driver/Src/stm32n6xx_ll_usb.c **** 
 1048              		.loc 1 424 1 is_stmt 0 view .LVU351
 1049 0120 BDE8F047 		pop	{r4, r5, r6, r7, r8, r9, r10, lr}
 1050              		.cfi_remember_state
 1051              		.cfi_restore 14
 1052              		.cfi_restore 10
 1053              		.cfi_restore 9
 1054              		.cfi_restore 8
 1055              		.cfi_restore 7
 1056              		.cfi_restore 6
 1057              		.cfi_restore 5
 1058              		.cfi_restore 4
 1059              		.cfi_def_cfa_offset 16
 1060              	.LVL51:
 424:STM32Cube_FW_N6/Drivers/STM32N6xx_HAL_Driver/Src/stm32n6xx_ll_usb.c **** 
 1061              		.loc 1 424 1 view .LVU352
 1062 0124 04B0     		add	sp, sp, #16
 1063              		.cfi_def_cfa_offset 0
 1064 0126 7047     		bx	lr
 1065              	.LVL52:
 1066              	.L61:
 1067              		.cfi_restore_state
 305:STM32Cube_FW_N6/Drivers/STM32N6xx_HAL_Driver/Src/stm32n6xx_ll_usb.c ****     USBx->GCCFG &= ~USB_OTG_GCCFG_VBVALOVAL;
 1068              		.loc 1 305 5 is_stmt 1 view .LVU353
 305:STM32Cube_FW_N6/Drivers/STM32N6xx_HAL_Driver/Src/stm32n6xx_ll_usb.c ****     USBx->GCCFG &= ~USB_OTG_GCCFG_VBVALOVAL;
 1069              		.loc 1 305 9 is_stmt 0 view .LVU354
 1070 0128 A36B     		ldr	r3, [r4, #56]
 305:STM32Cube_FW_N6/Drivers/STM32N6xx_HAL_Driver/Src/stm32n6xx_ll_usb.c ****     USBx->GCCFG &= ~USB_OTG_GCCFG_VBVALOVAL;
 1071              		.loc 1 305 17 view .LVU355
 1072 012a 23F08073 		bic	r3, r3, #16777216
 1073 012e A363     		str	r3, [r4, #56]
 306:STM32Cube_FW_N6/Drivers/STM32N6xx_HAL_Driver/Src/stm32n6xx_ll_usb.c ****   }
 1074              		.loc 1 306 5 is_stmt 1 view .LVU356
 306:STM32Cube_FW_N6/Drivers/STM32N6xx_HAL_Driver/Src/stm32n6xx_ll_usb.c ****   }
 1075              		.loc 1 306 9 is_stmt 0 view .LVU357
 1076 0130 A36B     		ldr	r3, [r4, #56]
 306:STM32Cube_FW_N6/Drivers/STM32N6xx_HAL_Driver/Src/stm32n6xx_ll_usb.c ****   }
 1077              		.loc 1 306 17 view .LVU358
 1078 0132 23F40003 		bic	r3, r3, #8388608
 1079 0136 8FE7     		b	.L85
 1080              	.L64:
 323:STM32Cube_FW_N6/Drivers/STM32N6xx_HAL_Driver/Src/stm32n6xx_ll_usb.c ****     }
 1081              		.loc 1 323 7 is_stmt 1 view .LVU359
 323:STM32Cube_FW_N6/Drivers/STM32N6xx_HAL_Driver/Src/stm32n6xx_ll_usb.c ****     }
 1082              		.loc 1 323 13 is_stmt 0 view .LVU360
 1083 0138 0121     		movs	r1, #1
 1084 013a 99E7     		b	.L86
 1085              	.L63:
 330:STM32Cube_FW_N6/Drivers/STM32N6xx_HAL_Driver/Src/stm32n6xx_ll_usb.c ****   }
 1086              		.loc 1 330 5 is_stmt 1 view .LVU361
 330:STM32Cube_FW_N6/Drivers/STM32N6xx_HAL_Driver/Src/stm32n6xx_ll_usb.c ****   }
 1087              		.loc 1 330 11 is_stmt 0 view .LVU362
 1088 013c 0321     		movs	r1, #3
 1089 013e 97E7     		b	.L86
ARM GAS  C:\Users\DJESSOU\AppData\Local\Temp\ccOpSjVg.s 			page 51


 1090              	.LVL53:
 1091              	.L70:
 351:STM32Cube_FW_N6/Drivers/STM32N6xx_HAL_Driver/Src/stm32n6xx_ll_usb.c ****     {
 1092              		.loc 1 351 5 is_stmt 1 view .LVU363
 351:STM32Cube_FW_N6/Drivers/STM32N6xx_HAL_Driver/Src/stm32n6xx_ll_usb.c ****     {
 1093              		.loc 1 351 22 is_stmt 0 view .LVU364
 1094 0140 D1F800A0 		ldr	r10, [r1]
 351:STM32Cube_FW_N6/Drivers/STM32N6xx_HAL_Driver/Src/stm32n6xx_ll_usb.c ****     {
 1095              		.loc 1 351 8 view .LVU365
 1096 0144 BAF1000F 		cmp	r10, #0
 1097 0148 0CDA     		bge	.L67
 353:STM32Cube_FW_N6/Drivers/STM32N6xx_HAL_Driver/Src/stm32n6xx_ll_usb.c ****       {
 1098              		.loc 1 353 7 is_stmt 1 view .LVU366
 353:STM32Cube_FW_N6/Drivers/STM32N6xx_HAL_Driver/Src/stm32n6xx_ll_usb.c ****       {
 1099              		.loc 1 353 10 is_stmt 0 view .LVU367
 1100 014a 43B9     		cbnz	r3, .L68
 355:STM32Cube_FW_N6/Drivers/STM32N6xx_HAL_Driver/Src/stm32n6xx_ll_usb.c ****       }
 1101              		.loc 1 355 9 is_stmt 1 view .LVU368
 355:STM32Cube_FW_N6/Drivers/STM32N6xx_HAL_Driver/Src/stm32n6xx_ll_usb.c ****       }
 1102              		.loc 1 355 31 is_stmt 0 view .LVU369
 1103 014c C1F80080 		str	r8, [r1]
 1104              	.L69:
 367:STM32Cube_FW_N6/Drivers/STM32N6xx_HAL_Driver/Src/stm32n6xx_ll_usb.c ****     USBx_INEP(i)->DIEPINT  = 0xFB7FU;
 1105              		.loc 1 367 5 is_stmt 1 view .LVU370
 367:STM32Cube_FW_N6/Drivers/STM32N6xx_HAL_Driver/Src/stm32n6xx_ll_usb.c ****     USBx_INEP(i)->DIEPINT  = 0xFB7FU;
 1106              		.loc 1 367 28 is_stmt 0 view .LVU371
 1107 0150 C1F810C0 		str	ip, [r1, #16]
 368:STM32Cube_FW_N6/Drivers/STM32N6xx_HAL_Driver/Src/stm32n6xx_ll_usb.c ****   }
 1108              		.loc 1 368 5 is_stmt 1 view .LVU372
 349:STM32Cube_FW_N6/Drivers/STM32N6xx_HAL_Driver/Src/stm32n6xx_ll_usb.c ****   {
 1109              		.loc 1 349 40 is_stmt 0 discriminator 2 view .LVU373
 1110 0154 0133     		adds	r3, r3, #1
 1111              	.LVL54:
 368:STM32Cube_FW_N6/Drivers/STM32N6xx_HAL_Driver/Src/stm32n6xx_ll_usb.c ****   }
 1112              		.loc 1 368 28 view .LVU374
 1113 0156 C1F80890 		str	r9, [r1, #8]
 349:STM32Cube_FW_N6/Drivers/STM32N6xx_HAL_Driver/Src/stm32n6xx_ll_usb.c ****   {
 1114              		.loc 1 349 40 is_stmt 1 discriminator 2 view .LVU375
 1115              	.LVL55:
 349:STM32Cube_FW_N6/Drivers/STM32N6xx_HAL_Driver/Src/stm32n6xx_ll_usb.c ****   {
 1116              		.loc 1 349 40 is_stmt 0 discriminator 2 view .LVU376
 1117 015a 2031     		adds	r1, r1, #32
 1118 015c AAE7     		b	.L66
 1119              	.L68:
 359:STM32Cube_FW_N6/Drivers/STM32N6xx_HAL_Driver/Src/stm32n6xx_ll_usb.c ****       }
 1120              		.loc 1 359 9 is_stmt 1 view .LVU377
 359:STM32Cube_FW_N6/Drivers/STM32N6xx_HAL_Driver/Src/stm32n6xx_ll_usb.c ****       }
 1121              		.loc 1 359 31 is_stmt 0 view .LVU378
 1122 015e C1F800E0 		str	lr, [r1]
 1123 0162 F5E7     		b	.L69
 1124              	.L67:
 364:STM32Cube_FW_N6/Drivers/STM32N6xx_HAL_Driver/Src/stm32n6xx_ll_usb.c ****     }
 1125              		.loc 1 364 7 is_stmt 1 view .LVU379
 364:STM32Cube_FW_N6/Drivers/STM32N6xx_HAL_Driver/Src/stm32n6xx_ll_usb.c ****     }
 1126              		.loc 1 364 29 is_stmt 0 view .LVU380
 1127 0164 C1F800C0 		str	ip, [r1]
 1128 0168 F2E7     		b	.L69
ARM GAS  C:\Users\DJESSOU\AppData\Local\Temp\ccOpSjVg.s 			page 52


 1129              	.LVL56:
 1130              	.L75:
 373:STM32Cube_FW_N6/Drivers/STM32N6xx_HAL_Driver/Src/stm32n6xx_ll_usb.c ****     {
 1131              		.loc 1 373 5 is_stmt 1 view .LVU381
 373:STM32Cube_FW_N6/Drivers/STM32N6xx_HAL_Driver/Src/stm32n6xx_ll_usb.c ****     {
 1132              		.loc 1 373 23 is_stmt 0 view .LVU382
 1133 016a 1D68     		ldr	r5, [r3]
 373:STM32Cube_FW_N6/Drivers/STM32N6xx_HAL_Driver/Src/stm32n6xx_ll_usb.c ****     {
 1134              		.loc 1 373 8 view .LVU383
 1135 016c 002D     		cmp	r5, #0
 1136 016e 0CDA     		bge	.L72
 375:STM32Cube_FW_N6/Drivers/STM32N6xx_HAL_Driver/Src/stm32n6xx_ll_usb.c ****       {
 1137              		.loc 1 375 7 is_stmt 1 view .LVU384
 375:STM32Cube_FW_N6/Drivers/STM32N6xx_HAL_Driver/Src/stm32n6xx_ll_usb.c ****       {
 1138              		.loc 1 375 10 is_stmt 0 view .LVU385
 1139 0170 41B9     		cbnz	r1, .L73
 377:STM32Cube_FW_N6/Drivers/STM32N6xx_HAL_Driver/Src/stm32n6xx_ll_usb.c ****       }
 1140              		.loc 1 377 9 is_stmt 1 view .LVU386
 377:STM32Cube_FW_N6/Drivers/STM32N6xx_HAL_Driver/Src/stm32n6xx_ll_usb.c ****       }
 1141              		.loc 1 377 32 is_stmt 0 view .LVU387
 1142 0172 C3F80080 		str	r8, [r3]
 1143              	.L74:
 389:STM32Cube_FW_N6/Drivers/STM32N6xx_HAL_Driver/Src/stm32n6xx_ll_usb.c ****     USBx_OUTEP(i)->DOEPINT  = 0xFB7FU;
 1144              		.loc 1 389 5 is_stmt 1 view .LVU388
 389:STM32Cube_FW_N6/Drivers/STM32N6xx_HAL_Driver/Src/stm32n6xx_ll_usb.c ****     USBx_OUTEP(i)->DOEPINT  = 0xFB7FU;
 1145              		.loc 1 389 29 is_stmt 0 view .LVU389
 1146 0176 C3F810C0 		str	ip, [r3, #16]
 390:STM32Cube_FW_N6/Drivers/STM32N6xx_HAL_Driver/Src/stm32n6xx_ll_usb.c ****   }
 1147              		.loc 1 390 5 is_stmt 1 view .LVU390
 371:STM32Cube_FW_N6/Drivers/STM32N6xx_HAL_Driver/Src/stm32n6xx_ll_usb.c ****   {
 1148              		.loc 1 371 40 is_stmt 0 discriminator 2 view .LVU391
 1149 017a 0131     		adds	r1, r1, #1
 390:STM32Cube_FW_N6/Drivers/STM32N6xx_HAL_Driver/Src/stm32n6xx_ll_usb.c ****   }
 1150              		.loc 1 390 29 view .LVU392
 1151 017c C3F80890 		str	r9, [r3, #8]
 371:STM32Cube_FW_N6/Drivers/STM32N6xx_HAL_Driver/Src/stm32n6xx_ll_usb.c ****   {
 1152              		.loc 1 371 40 is_stmt 1 discriminator 2 view .LVU393
 371:STM32Cube_FW_N6/Drivers/STM32N6xx_HAL_Driver/Src/stm32n6xx_ll_usb.c ****   {
 1153              		.loc 1 371 40 is_stmt 0 discriminator 2 view .LVU394
 1154 0180 2033     		adds	r3, r3, #32
 1155 0182 A8E7     		b	.L71
 1156              	.L73:
 381:STM32Cube_FW_N6/Drivers/STM32N6xx_HAL_Driver/Src/stm32n6xx_ll_usb.c ****       }
 1157              		.loc 1 381 9 is_stmt 1 view .LVU395
 381:STM32Cube_FW_N6/Drivers/STM32N6xx_HAL_Driver/Src/stm32n6xx_ll_usb.c ****       }
 1158              		.loc 1 381 32 is_stmt 0 view .LVU396
 1159 0184 C3F800E0 		str	lr, [r3]
 1160 0188 F5E7     		b	.L74
 1161              	.L72:
 386:STM32Cube_FW_N6/Drivers/STM32N6xx_HAL_Driver/Src/stm32n6xx_ll_usb.c ****     }
 1162              		.loc 1 386 7 is_stmt 1 view .LVU397
 386:STM32Cube_FW_N6/Drivers/STM32N6xx_HAL_Driver/Src/stm32n6xx_ll_usb.c ****     }
 1163              		.loc 1 386 30 is_stmt 0 view .LVU398
 1164 018a C3F800C0 		str	ip, [r3]
 1165 018e F2E7     		b	.L74
 1166              	.L88:
 1167              		.align	2
ARM GAS  C:\Users\DJESSOU\AppData\Local\Temp\ccOpSjVg.s 			page 53


 1168              	.L87:
 1169 0190 00383C80 		.word	-2143537152
 1170              		.cfi_endproc
 1171              	.LFE867:
 1173              		.section	.text.USB_GetDevSpeed,"ax",%progbits
 1174              		.align	1
 1175              		.global	USB_GetDevSpeed
 1176              		.syntax unified
 1177              		.thumb
 1178              		.thumb_func
 1180              	USB_GetDevSpeed:
 1181              	.LVL57:
 1182              	.LFB871:
 531:STM32Cube_FW_N6/Drivers/STM32N6xx_HAL_Driver/Src/stm32n6xx_ll_usb.c ****   uint32_t USBx_BASE = (uint32_t)USBx;
 1183              		.loc 1 531 1 is_stmt 1 view -0
 1184              		.cfi_startproc
 1185              		@ args = 0, pretend = 0, frame = 0
 1186              		@ frame_needed = 0, uses_anonymous_args = 0
 1187              		@ link register save eliminated.
 532:STM32Cube_FW_N6/Drivers/STM32N6xx_HAL_Driver/Src/stm32n6xx_ll_usb.c ****   uint8_t speed;
 1188              		.loc 1 532 3 view .LVU400
 533:STM32Cube_FW_N6/Drivers/STM32N6xx_HAL_Driver/Src/stm32n6xx_ll_usb.c ****   uint32_t DevEnumSpeed = USBx_DEVICE->DSTS & USB_OTG_DSTS_ENUMSPD;
 1189              		.loc 1 533 3 view .LVU401
 534:STM32Cube_FW_N6/Drivers/STM32N6xx_HAL_Driver/Src/stm32n6xx_ll_usb.c **** 
 1190              		.loc 1 534 3 view .LVU402
 534:STM32Cube_FW_N6/Drivers/STM32N6xx_HAL_Driver/Src/stm32n6xx_ll_usb.c **** 
 1191              		.loc 1 534 38 is_stmt 0 view .LVU403
 1192 0000 D0F80838 		ldr	r3, [r0, #2056]
 1193              	.LVL58:
 536:STM32Cube_FW_N6/Drivers/STM32N6xx_HAL_Driver/Src/stm32n6xx_ll_usb.c ****   {
 1194              		.loc 1 536 3 is_stmt 1 view .LVU404
 536:STM32Cube_FW_N6/Drivers/STM32N6xx_HAL_Driver/Src/stm32n6xx_ll_usb.c ****   {
 1195              		.loc 1 536 6 is_stmt 0 view .LVU405
 1196 0004 13F00600 		ands	r0, r3, #6
 1197              	.LVL59:
 536:STM32Cube_FW_N6/Drivers/STM32N6xx_HAL_Driver/Src/stm32n6xx_ll_usb.c ****   {
 1198              		.loc 1 536 6 view .LVU406
 1199 0008 04D0     		beq	.L90
 540:STM32Cube_FW_N6/Drivers/STM32N6xx_HAL_Driver/Src/stm32n6xx_ll_usb.c ****            (DevEnumSpeed == DSTS_ENUMSPD_FS_PHY_48MHZ))
 1200              		.loc 1 540 8 is_stmt 1 view .LVU407
 547:STM32Cube_FW_N6/Drivers/STM32N6xx_HAL_Driver/Src/stm32n6xx_ll_usb.c ****   }
 1201              		.loc 1 547 11 is_stmt 0 view .LVU408
 1202 000a 13F0020F 		tst	r3, #2
 1203 000e 14BF     		ite	ne
 1204 0010 0220     		movne	r0, #2
 1205              	.LVL60:
 547:STM32Cube_FW_N6/Drivers/STM32N6xx_HAL_Driver/Src/stm32n6xx_ll_usb.c ****   }
 1206              		.loc 1 547 11 view .LVU409
 1207 0012 0F20     		moveq	r0, #15
 1208              	.L90:
 1209              	.LVL61:
 550:STM32Cube_FW_N6/Drivers/STM32N6xx_HAL_Driver/Src/stm32n6xx_ll_usb.c **** }
 1210              		.loc 1 550 3 is_stmt 1 view .LVU410
 551:STM32Cube_FW_N6/Drivers/STM32N6xx_HAL_Driver/Src/stm32n6xx_ll_usb.c **** 
 1211              		.loc 1 551 1 is_stmt 0 view .LVU411
 1212 0014 7047     		bx	lr
 1213              		.cfi_endproc
ARM GAS  C:\Users\DJESSOU\AppData\Local\Temp\ccOpSjVg.s 			page 54


 1214              	.LFE871:
 1216              		.section	.text.USB_ActivateEndpoint,"ax",%progbits
 1217              		.align	1
 1218              		.global	USB_ActivateEndpoint
 1219              		.syntax unified
 1220              		.thumb
 1221              		.thumb_func
 1223              	USB_ActivateEndpoint:
 1224              	.LVL62:
 1225              	.LFB872:
 561:STM32Cube_FW_N6/Drivers/STM32N6xx_HAL_Driver/Src/stm32n6xx_ll_usb.c ****   uint32_t USBx_BASE = (uint32_t)USBx;
 1226              		.loc 1 561 1 is_stmt 1 view -0
 1227              		.cfi_startproc
 1228              		@ args = 0, pretend = 0, frame = 0
 1229              		@ frame_needed = 0, uses_anonymous_args = 0
 562:STM32Cube_FW_N6/Drivers/STM32N6xx_HAL_Driver/Src/stm32n6xx_ll_usb.c ****   uint32_t epnum = (uint32_t)ep->num;
 1230              		.loc 1 562 3 view .LVU413
 563:STM32Cube_FW_N6/Drivers/STM32N6xx_HAL_Driver/Src/stm32n6xx_ll_usb.c **** 
 1231              		.loc 1 563 3 view .LVU414
 567:STM32Cube_FW_N6/Drivers/STM32N6xx_HAL_Driver/Src/stm32n6xx_ll_usb.c **** 
 1232              		.loc 1 567 54 is_stmt 0 view .LVU415
 1233 0000 0122     		movs	r2, #1
 561:STM32Cube_FW_N6/Drivers/STM32N6xx_HAL_Driver/Src/stm32n6xx_ll_usb.c ****   uint32_t USBx_BASE = (uint32_t)USBx;
 1234              		.loc 1 561 1 view .LVU416
 1235 0002 30B5     		push	{r4, r5, lr}
 1236              		.cfi_def_cfa_offset 12
 1237              		.cfi_offset 4, -12
 1238              		.cfi_offset 5, -8
 1239              		.cfi_offset 14, -4
 563:STM32Cube_FW_N6/Drivers/STM32N6xx_HAL_Driver/Src/stm32n6xx_ll_usb.c **** 
 1240              		.loc 1 563 32 view .LVU417
 1241 0004 0C78     		ldrb	r4, [r1]	@ zero_extendqisi2
 1242              	.LVL63:
 565:STM32Cube_FW_N6/Drivers/STM32N6xx_HAL_Driver/Src/stm32n6xx_ll_usb.c ****   {
 1243              		.loc 1 565 3 is_stmt 1 view .LVU418
 567:STM32Cube_FW_N6/Drivers/STM32N6xx_HAL_Driver/Src/stm32n6xx_ll_usb.c **** 
 1244              		.loc 1 567 16 is_stmt 0 view .LVU419
 1245 0006 00F50063 		add	r3, r0, #2048
 567:STM32Cube_FW_N6/Drivers/STM32N6xx_HAL_Driver/Src/stm32n6xx_ll_usb.c **** 
 1246              		.loc 1 567 81 view .LVU420
 1247 000a 04F00F05 		and	r5, r4, #15
 567:STM32Cube_FW_N6/Drivers/STM32N6xx_HAL_Driver/Src/stm32n6xx_ll_usb.c **** 
 1248              		.loc 1 567 54 view .LVU421
 1249 000e AA40     		lsls	r2, r2, r5
 565:STM32Cube_FW_N6/Drivers/STM32N6xx_HAL_Driver/Src/stm32n6xx_ll_usb.c ****   {
 1250              		.loc 1 565 6 view .LVU422
 1251 0010 4D78     		ldrb	r5, [r1, #1]	@ zero_extendqisi2
 569:STM32Cube_FW_N6/Drivers/STM32N6xx_HAL_Driver/Src/stm32n6xx_ll_usb.c ****     {
 1252              		.loc 1 569 10 view .LVU423
 1253 0012 00EB4410 		add	r0, r0, r4, lsl #5
 1254              	.LVL64:
 565:STM32Cube_FW_N6/Drivers/STM32N6xx_HAL_Driver/Src/stm32n6xx_ll_usb.c ****   {
 1255              		.loc 1 565 6 view .LVU424
 1256 0016 012D     		cmp	r5, #1
 1257 0018 19D1     		bne	.L94
 567:STM32Cube_FW_N6/Drivers/STM32N6xx_HAL_Driver/Src/stm32n6xx_ll_usb.c **** 
 1258              		.loc 1 567 5 is_stmt 1 view .LVU425
ARM GAS  C:\Users\DJESSOU\AppData\Local\Temp\ccOpSjVg.s 			page 55


 567:STM32Cube_FW_N6/Drivers/STM32N6xx_HAL_Driver/Src/stm32n6xx_ll_usb.c **** 
 1259              		.loc 1 567 16 is_stmt 0 view .LVU426
 1260 001a DD69     		ldr	r5, [r3, #28]
 567:STM32Cube_FW_N6/Drivers/STM32N6xx_HAL_Driver/Src/stm32n6xx_ll_usb.c **** 
 1261              		.loc 1 567 27 view .LVU427
 1262 001c 2A43     		orrs	r2, r2, r5
 1263 001e DA61     		str	r2, [r3, #28]
 569:STM32Cube_FW_N6/Drivers/STM32N6xx_HAL_Driver/Src/stm32n6xx_ll_usb.c ****     {
 1264              		.loc 1 569 5 is_stmt 1 view .LVU428
 569:STM32Cube_FW_N6/Drivers/STM32N6xx_HAL_Driver/Src/stm32n6xx_ll_usb.c ****     {
 1265              		.loc 1 569 26 is_stmt 0 view .LVU429
 1266 0020 D0F80039 		ldr	r3, [r0, #2304]
 1267              	.LVL65:
 569:STM32Cube_FW_N6/Drivers/STM32N6xx_HAL_Driver/Src/stm32n6xx_ll_usb.c ****     {
 1268              		.loc 1 569 8 view .LVU430
 1269 0024 1A04     		lsls	r2, r3, #16
 1270 0026 10D4     		bmi	.L96
 571:STM32Cube_FW_N6/Drivers/STM32N6xx_HAL_Driver/Src/stm32n6xx_ll_usb.c ****                                    ((uint32_t)ep->type << 18) | (epnum << 22) |
 1271              		.loc 1 571 7 is_stmt 1 view .LVU431
 571:STM32Cube_FW_N6/Drivers/STM32N6xx_HAL_Driver/Src/stm32n6xx_ll_usb.c ****                                    ((uint32_t)ep->type << 18) | (epnum << 22) |
 1272              		.loc 1 571 51 is_stmt 0 view .LVU432
 1273 0028 8A68     		ldr	r2, [r1, #8]
 571:STM32Cube_FW_N6/Drivers/STM32N6xx_HAL_Driver/Src/stm32n6xx_ll_usb.c ****                                    ((uint32_t)ep->type << 18) | (epnum << 22) |
 1274              		.loc 1 571 23 view .LVU433
 1275 002a D0F80059 		ldr	r5, [r0, #2304]
 571:STM32Cube_FW_N6/Drivers/STM32N6xx_HAL_Driver/Src/stm32n6xx_ll_usb.c ****                                    ((uint32_t)ep->type << 18) | (epnum << 22) |
 1276              		.loc 1 571 51 view .LVU434
 1277 002e C2F30A03 		ubfx	r3, r2, #0, #11
 572:STM32Cube_FW_N6/Drivers/STM32N6xx_HAL_Driver/Src/stm32n6xx_ll_usb.c ****                                    USB_OTG_DIEPCTL_SD0PID_SEVNFRM |
 1278              		.loc 1 572 37 view .LVU435
 1279 0032 0A79     		ldrb	r2, [r1, #4]	@ zero_extendqisi2
 571:STM32Cube_FW_N6/Drivers/STM32N6xx_HAL_Driver/Src/stm32n6xx_ll_usb.c ****                                    ((uint32_t)ep->type << 18) | (epnum << 22) |
 1280              		.loc 1 571 33 view .LVU436
 1281 0034 2B43     		orrs	r3, r3, r5
 1282 0036 43EA8243 		orr	r3, r3, r2, lsl #18
 1283 003a 43EA8453 		orr	r3, r3, r4, lsl #22
 1284 003e 43F08053 		orr	r3, r3, #268435456
 1285 0042 43F40043 		orr	r3, r3, #32768
 1286 0046 C0F80039 		str	r3, [r0, #2304]
 1287              	.LVL66:
 1288              	.L96:
 589:STM32Cube_FW_N6/Drivers/STM32N6xx_HAL_Driver/Src/stm32n6xx_ll_usb.c **** }
 1289              		.loc 1 589 3 is_stmt 1 view .LVU437
 590:STM32Cube_FW_N6/Drivers/STM32N6xx_HAL_Driver/Src/stm32n6xx_ll_usb.c **** 
 1290              		.loc 1 590 1 is_stmt 0 view .LVU438
 1291 004a 0020     		movs	r0, #0
 1292 004c 30BD     		pop	{r4, r5, pc}
 1293              	.LVL67:
 1294              	.L94:
 579:STM32Cube_FW_N6/Drivers/STM32N6xx_HAL_Driver/Src/stm32n6xx_ll_usb.c **** 
 1295              		.loc 1 579 5 is_stmt 1 view .LVU439
 579:STM32Cube_FW_N6/Drivers/STM32N6xx_HAL_Driver/Src/stm32n6xx_ll_usb.c **** 
 1296              		.loc 1 579 16 is_stmt 0 view .LVU440
 1297 004e DC69     		ldr	r4, [r3, #28]
 1298              	.LVL68:
 579:STM32Cube_FW_N6/Drivers/STM32N6xx_HAL_Driver/Src/stm32n6xx_ll_usb.c **** 
 1299              		.loc 1 579 27 view .LVU441
ARM GAS  C:\Users\DJESSOU\AppData\Local\Temp\ccOpSjVg.s 			page 56


 1300 0050 44EA0242 		orr	r2, r4, r2, lsl #16
 1301 0054 DA61     		str	r2, [r3, #28]
 1302              	.LVL69:
 581:STM32Cube_FW_N6/Drivers/STM32N6xx_HAL_Driver/Src/stm32n6xx_ll_usb.c ****     {
 1303              		.loc 1 581 5 is_stmt 1 view .LVU442
 581:STM32Cube_FW_N6/Drivers/STM32N6xx_HAL_Driver/Src/stm32n6xx_ll_usb.c ****     {
 1304              		.loc 1 581 28 is_stmt 0 view .LVU443
 1305 0056 D0F8003B 		ldr	r3, [r0, #2816]
 581:STM32Cube_FW_N6/Drivers/STM32N6xx_HAL_Driver/Src/stm32n6xx_ll_usb.c ****     {
 1306              		.loc 1 581 8 view .LVU444
 1307 005a 1B04     		lsls	r3, r3, #16
 1308 005c F5D4     		bmi	.L96
 583:STM32Cube_FW_N6/Drivers/STM32N6xx_HAL_Driver/Src/stm32n6xx_ll_usb.c ****                                     ((uint32_t)ep->type << 18) |
 1309              		.loc 1 583 7 is_stmt 1 view .LVU445
 583:STM32Cube_FW_N6/Drivers/STM32N6xx_HAL_Driver/Src/stm32n6xx_ll_usb.c ****                                     ((uint32_t)ep->type << 18) |
 1310              		.loc 1 583 52 is_stmt 0 view .LVU446
 1311 005e 8B68     		ldr	r3, [r1, #8]
 583:STM32Cube_FW_N6/Drivers/STM32N6xx_HAL_Driver/Src/stm32n6xx_ll_usb.c ****                                     ((uint32_t)ep->type << 18) |
 1312              		.loc 1 583 24 view .LVU447
 1313 0060 D0F8002B 		ldr	r2, [r0, #2816]
 583:STM32Cube_FW_N6/Drivers/STM32N6xx_HAL_Driver/Src/stm32n6xx_ll_usb.c ****                                     ((uint32_t)ep->type << 18) |
 1314              		.loc 1 583 52 view .LVU448
 1315 0064 C3F30A03 		ubfx	r3, r3, #0, #11
 583:STM32Cube_FW_N6/Drivers/STM32N6xx_HAL_Driver/Src/stm32n6xx_ll_usb.c ****                                     ((uint32_t)ep->type << 18) |
 1316              		.loc 1 583 34 view .LVU449
 1317 0068 1343     		orrs	r3, r3, r2
 584:STM32Cube_FW_N6/Drivers/STM32N6xx_HAL_Driver/Src/stm32n6xx_ll_usb.c ****                                     USB_OTG_DIEPCTL_SD0PID_SEVNFRM |
 1318              		.loc 1 584 38 view .LVU450
 1319 006a 0A79     		ldrb	r2, [r1, #4]	@ zero_extendqisi2
 583:STM32Cube_FW_N6/Drivers/STM32N6xx_HAL_Driver/Src/stm32n6xx_ll_usb.c ****                                     ((uint32_t)ep->type << 18) |
 1320              		.loc 1 583 34 view .LVU451
 1321 006c 43EA8243 		orr	r3, r3, r2, lsl #18
 1322 0070 43F08053 		orr	r3, r3, #268435456
 1323 0074 43F40043 		orr	r3, r3, #32768
 1324 0078 C0F8003B 		str	r3, [r0, #2816]
 1325 007c E5E7     		b	.L96
 1326              		.cfi_endproc
 1327              	.LFE872:
 1329              		.section	.text.USB_ActivateDedicatedEndpoint,"ax",%progbits
 1330              		.align	1
 1331              		.global	USB_ActivateDedicatedEndpoint
 1332              		.syntax unified
 1333              		.thumb
 1334              		.thumb_func
 1336              	USB_ActivateDedicatedEndpoint:
 1337              	.LVL70:
 1338              	.LFB873:
 599:STM32Cube_FW_N6/Drivers/STM32N6xx_HAL_Driver/Src/stm32n6xx_ll_usb.c ****   uint32_t USBx_BASE = (uint32_t)USBx;
 1339              		.loc 1 599 1 is_stmt 1 view -0
 1340              		.cfi_startproc
 1341              		@ args = 0, pretend = 0, frame = 0
 1342              		@ frame_needed = 0, uses_anonymous_args = 0
 600:STM32Cube_FW_N6/Drivers/STM32N6xx_HAL_Driver/Src/stm32n6xx_ll_usb.c ****   uint32_t epnum = (uint32_t)ep->num;
 1343              		.loc 1 600 3 view .LVU453
 601:STM32Cube_FW_N6/Drivers/STM32N6xx_HAL_Driver/Src/stm32n6xx_ll_usb.c **** 
 1344              		.loc 1 601 3 view .LVU454
 604:STM32Cube_FW_N6/Drivers/STM32N6xx_HAL_Driver/Src/stm32n6xx_ll_usb.c ****   {
ARM GAS  C:\Users\DJESSOU\AppData\Local\Temp\ccOpSjVg.s 			page 57


 1345              		.loc 1 604 6 is_stmt 0 view .LVU455
 1346 0000 4B78     		ldrb	r3, [r1, #1]	@ zero_extendqisi2
 599:STM32Cube_FW_N6/Drivers/STM32N6xx_HAL_Driver/Src/stm32n6xx_ll_usb.c ****   uint32_t USBx_BASE = (uint32_t)USBx;
 1347              		.loc 1 599 1 view .LVU456
 1348 0002 F0B5     		push	{r4, r5, r6, r7, lr}
 1349              		.cfi_def_cfa_offset 20
 1350              		.cfi_offset 4, -20
 1351              		.cfi_offset 5, -16
 1352              		.cfi_offset 6, -12
 1353              		.cfi_offset 7, -8
 1354              		.cfi_offset 14, -4
 601:STM32Cube_FW_N6/Drivers/STM32N6xx_HAL_Driver/Src/stm32n6xx_ll_usb.c **** 
 1355              		.loc 1 601 32 view .LVU457
 1356 0004 0E78     		ldrb	r6, [r1]	@ zero_extendqisi2
 1357              	.LVL71:
 604:STM32Cube_FW_N6/Drivers/STM32N6xx_HAL_Driver/Src/stm32n6xx_ll_usb.c ****   {
 1358              		.loc 1 604 3 is_stmt 1 view .LVU458
 604:STM32Cube_FW_N6/Drivers/STM32N6xx_HAL_Driver/Src/stm32n6xx_ll_usb.c ****   {
 1359              		.loc 1 604 6 is_stmt 0 view .LVU459
 1360 0006 012B     		cmp	r3, #1
 606:STM32Cube_FW_N6/Drivers/STM32N6xx_HAL_Driver/Src/stm32n6xx_ll_usb.c ****     {
 1361              		.loc 1 606 11 view .LVU460
 1362 0008 00EB4614 		add	r4, r0, r6, lsl #5
 1363 000c 06F00F05 		and	r5, r6, #15
 1364 0010 00F50060 		add	r0, r0, #2048
 1365              	.LVL72:
 604:STM32Cube_FW_N6/Drivers/STM32N6xx_HAL_Driver/Src/stm32n6xx_ll_usb.c ****   {
 1366              		.loc 1 604 6 view .LVU461
 1367 0014 1BD1     		bne	.L99
 606:STM32Cube_FW_N6/Drivers/STM32N6xx_HAL_Driver/Src/stm32n6xx_ll_usb.c ****     {
 1368              		.loc 1 606 5 is_stmt 1 view .LVU462
 606:STM32Cube_FW_N6/Drivers/STM32N6xx_HAL_Driver/Src/stm32n6xx_ll_usb.c ****     {
 1369              		.loc 1 606 27 is_stmt 0 view .LVU463
 1370 0016 D4F80039 		ldr	r3, [r4, #2304]
 606:STM32Cube_FW_N6/Drivers/STM32N6xx_HAL_Driver/Src/stm32n6xx_ll_usb.c ****     {
 1371              		.loc 1 606 8 view .LVU464
 1372 001a 1A04     		lsls	r2, r3, #16
 1373 001c 10D4     		bmi	.L100
 608:STM32Cube_FW_N6/Drivers/STM32N6xx_HAL_Driver/Src/stm32n6xx_ll_usb.c ****                                    ((uint32_t)ep->type << 18) | (epnum << 22) |
 1374              		.loc 1 608 7 is_stmt 1 view .LVU465
 608:STM32Cube_FW_N6/Drivers/STM32N6xx_HAL_Driver/Src/stm32n6xx_ll_usb.c ****                                    ((uint32_t)ep->type << 18) | (epnum << 22) |
 1375              		.loc 1 608 51 is_stmt 0 view .LVU466
 1376 001e 8A68     		ldr	r2, [r1, #8]
 608:STM32Cube_FW_N6/Drivers/STM32N6xx_HAL_Driver/Src/stm32n6xx_ll_usb.c ****                                    ((uint32_t)ep->type << 18) | (epnum << 22) |
 1377              		.loc 1 608 23 view .LVU467
 1378 0020 D4F80079 		ldr	r7, [r4, #2304]
 608:STM32Cube_FW_N6/Drivers/STM32N6xx_HAL_Driver/Src/stm32n6xx_ll_usb.c ****                                    ((uint32_t)ep->type << 18) | (epnum << 22) |
 1379              		.loc 1 608 51 view .LVU468
 1380 0024 C2F30A03 		ubfx	r3, r2, #0, #11
 609:STM32Cube_FW_N6/Drivers/STM32N6xx_HAL_Driver/Src/stm32n6xx_ll_usb.c ****                                    USB_OTG_DIEPCTL_SD0PID_SEVNFRM |
 1381              		.loc 1 609 37 view .LVU469
 1382 0028 0A79     		ldrb	r2, [r1, #4]	@ zero_extendqisi2
 608:STM32Cube_FW_N6/Drivers/STM32N6xx_HAL_Driver/Src/stm32n6xx_ll_usb.c ****                                    ((uint32_t)ep->type << 18) | (epnum << 22) |
 1383              		.loc 1 608 33 view .LVU470
 1384 002a 3B43     		orrs	r3, r3, r7
 1385 002c 43EA8243 		orr	r3, r3, r2, lsl #18
 1386 0030 43EA8653 		orr	r3, r3, r6, lsl #22
ARM GAS  C:\Users\DJESSOU\AppData\Local\Temp\ccOpSjVg.s 			page 58


 1387 0034 43F08053 		orr	r3, r3, #268435456
 1388 0038 43F40043 		orr	r3, r3, #32768
 1389 003c C4F80039 		str	r3, [r4, #2304]
 1390              	.L100:
 614:STM32Cube_FW_N6/Drivers/STM32N6xx_HAL_Driver/Src/stm32n6xx_ll_usb.c ****   }
 1391              		.loc 1 614 5 is_stmt 1 view .LVU471
 614:STM32Cube_FW_N6/Drivers/STM32N6xx_HAL_Driver/Src/stm32n6xx_ll_usb.c ****   }
 1392              		.loc 1 614 54 is_stmt 0 view .LVU472
 1393 0040 0123     		movs	r3, #1
 614:STM32Cube_FW_N6/Drivers/STM32N6xx_HAL_Driver/Src/stm32n6xx_ll_usb.c ****   }
 1394              		.loc 1 614 16 view .LVU473
 1395 0042 C26B     		ldr	r2, [r0, #60]
 1396              	.L103:
 625:STM32Cube_FW_N6/Drivers/STM32N6xx_HAL_Driver/Src/stm32n6xx_ll_usb.c ****   }
 1397              		.loc 1 625 52 view .LVU474
 1398 0044 AB40     		lsls	r3, r3, r5
 625:STM32Cube_FW_N6/Drivers/STM32N6xx_HAL_Driver/Src/stm32n6xx_ll_usb.c ****   }
 1399              		.loc 1 625 27 view .LVU475
 1400 0046 1343     		orrs	r3, r3, r2
 1401 0048 C363     		str	r3, [r0, #60]
 628:STM32Cube_FW_N6/Drivers/STM32N6xx_HAL_Driver/Src/stm32n6xx_ll_usb.c **** }
 1402              		.loc 1 628 3 is_stmt 1 view .LVU476
 629:STM32Cube_FW_N6/Drivers/STM32N6xx_HAL_Driver/Src/stm32n6xx_ll_usb.c **** 
 1403              		.loc 1 629 1 is_stmt 0 view .LVU477
 1404 004a 0020     		movs	r0, #0
 1405              	.LVL73:
 629:STM32Cube_FW_N6/Drivers/STM32N6xx_HAL_Driver/Src/stm32n6xx_ll_usb.c **** 
 1406              		.loc 1 629 1 view .LVU478
 1407 004c F0BD     		pop	{r4, r5, r6, r7, pc}
 1408              	.LVL74:
 1409              	.L99:
 618:STM32Cube_FW_N6/Drivers/STM32N6xx_HAL_Driver/Src/stm32n6xx_ll_usb.c ****     {
 1410              		.loc 1 618 5 is_stmt 1 view .LVU479
 618:STM32Cube_FW_N6/Drivers/STM32N6xx_HAL_Driver/Src/stm32n6xx_ll_usb.c ****     {
 1411              		.loc 1 618 28 is_stmt 0 view .LVU480
 1412 004e D4F8003B 		ldr	r3, [r4, #2816]
 618:STM32Cube_FW_N6/Drivers/STM32N6xx_HAL_Driver/Src/stm32n6xx_ll_usb.c ****     {
 1413              		.loc 1 618 8 view .LVU481
 1414 0052 1B04     		lsls	r3, r3, #16
 1415 0054 0ED4     		bmi	.L102
 620:STM32Cube_FW_N6/Drivers/STM32N6xx_HAL_Driver/Src/stm32n6xx_ll_usb.c ****                                     ((uint32_t)ep->type << 18) | (epnum << 22) |
 1416              		.loc 1 620 7 is_stmt 1 view .LVU482
 620:STM32Cube_FW_N6/Drivers/STM32N6xx_HAL_Driver/Src/stm32n6xx_ll_usb.c ****                                     ((uint32_t)ep->type << 18) | (epnum << 22) |
 1417              		.loc 1 620 52 is_stmt 0 view .LVU483
 1418 0056 8B68     		ldr	r3, [r1, #8]
 620:STM32Cube_FW_N6/Drivers/STM32N6xx_HAL_Driver/Src/stm32n6xx_ll_usb.c ****                                     ((uint32_t)ep->type << 18) | (epnum << 22) |
 1419              		.loc 1 620 24 view .LVU484
 1420 0058 D4F8002B 		ldr	r2, [r4, #2816]
 620:STM32Cube_FW_N6/Drivers/STM32N6xx_HAL_Driver/Src/stm32n6xx_ll_usb.c ****                                     ((uint32_t)ep->type << 18) | (epnum << 22) |
 1421              		.loc 1 620 52 view .LVU485
 1422 005c C3F30A03 		ubfx	r3, r3, #0, #11
 620:STM32Cube_FW_N6/Drivers/STM32N6xx_HAL_Driver/Src/stm32n6xx_ll_usb.c ****                                     ((uint32_t)ep->type << 18) | (epnum << 22) |
 1423              		.loc 1 620 34 view .LVU486
 1424 0060 1343     		orrs	r3, r3, r2
 621:STM32Cube_FW_N6/Drivers/STM32N6xx_HAL_Driver/Src/stm32n6xx_ll_usb.c ****                                     USB_OTG_DOEPCTL_USBAEP;
 1425              		.loc 1 621 38 view .LVU487
 1426 0062 0A79     		ldrb	r2, [r1, #4]	@ zero_extendqisi2
ARM GAS  C:\Users\DJESSOU\AppData\Local\Temp\ccOpSjVg.s 			page 59


 620:STM32Cube_FW_N6/Drivers/STM32N6xx_HAL_Driver/Src/stm32n6xx_ll_usb.c ****                                     ((uint32_t)ep->type << 18) | (epnum << 22) |
 1427              		.loc 1 620 34 view .LVU488
 1428 0064 43EA8243 		orr	r3, r3, r2, lsl #18
 1429 0068 43EA8653 		orr	r3, r3, r6, lsl #22
 1430 006c 43F40043 		orr	r3, r3, #32768
 1431 0070 C4F8003B 		str	r3, [r4, #2816]
 1432              	.L102:
 625:STM32Cube_FW_N6/Drivers/STM32N6xx_HAL_Driver/Src/stm32n6xx_ll_usb.c ****   }
 1433              		.loc 1 625 5 is_stmt 1 view .LVU489
 625:STM32Cube_FW_N6/Drivers/STM32N6xx_HAL_Driver/Src/stm32n6xx_ll_usb.c ****   }
 1434              		.loc 1 625 55 is_stmt 0 view .LVU490
 1435 0074 4FF48033 		mov	r3, #65536
 625:STM32Cube_FW_N6/Drivers/STM32N6xx_HAL_Driver/Src/stm32n6xx_ll_usb.c ****   }
 1436              		.loc 1 625 16 view .LVU491
 1437 0078 C26B     		ldr	r2, [r0, #60]
 1438 007a E3E7     		b	.L103
 1439              		.cfi_endproc
 1440              	.LFE873:
 1442              		.section	.text.USB_DeactivateEndpoint,"ax",%progbits
 1443              		.align	1
 1444              		.global	USB_DeactivateEndpoint
 1445              		.syntax unified
 1446              		.thumb
 1447              		.thumb_func
 1449              	USB_DeactivateEndpoint:
 1450              	.LVL75:
 1451              	.LFB874:
 638:STM32Cube_FW_N6/Drivers/STM32N6xx_HAL_Driver/Src/stm32n6xx_ll_usb.c ****   uint32_t USBx_BASE = (uint32_t)USBx;
 1452              		.loc 1 638 1 is_stmt 1 view -0
 1453              		.cfi_startproc
 1454              		@ args = 0, pretend = 0, frame = 0
 1455              		@ frame_needed = 0, uses_anonymous_args = 0
 639:STM32Cube_FW_N6/Drivers/STM32N6xx_HAL_Driver/Src/stm32n6xx_ll_usb.c ****   uint32_t epnum = (uint32_t)ep->num;
 1456              		.loc 1 639 3 view .LVU493
 640:STM32Cube_FW_N6/Drivers/STM32N6xx_HAL_Driver/Src/stm32n6xx_ll_usb.c **** 
 1457              		.loc 1 640 3 view .LVU494
 638:STM32Cube_FW_N6/Drivers/STM32N6xx_HAL_Driver/Src/stm32n6xx_ll_usb.c ****   uint32_t USBx_BASE = (uint32_t)USBx;
 1458              		.loc 1 638 1 is_stmt 0 view .LVU495
 1459 0000 10B5     		push	{r4, lr}
 1460              		.cfi_def_cfa_offset 8
 1461              		.cfi_offset 4, -8
 1462              		.cfi_offset 14, -4
 640:STM32Cube_FW_N6/Drivers/STM32N6xx_HAL_Driver/Src/stm32n6xx_ll_usb.c **** 
 1463              		.loc 1 640 32 view .LVU496
 1464 0002 0A78     		ldrb	r2, [r1]	@ zero_extendqisi2
 1465              	.LVL76:
 643:STM32Cube_FW_N6/Drivers/STM32N6xx_HAL_Driver/Src/stm32n6xx_ll_usb.c ****   {
 1466              		.loc 1 643 3 is_stmt 1 view .LVU497
 643:STM32Cube_FW_N6/Drivers/STM32N6xx_HAL_Driver/Src/stm32n6xx_ll_usb.c ****   {
 1467              		.loc 1 643 6 is_stmt 0 view .LVU498
 1468 0004 4978     		ldrb	r1, [r1, #1]	@ zero_extendqisi2
 1469              	.LVL77:
 645:STM32Cube_FW_N6/Drivers/STM32N6xx_HAL_Driver/Src/stm32n6xx_ll_usb.c ****     {
 1470              		.loc 1 645 10 view .LVU499
 1471 0006 00EB4213 		add	r3, r0, r2, lsl #5
 643:STM32Cube_FW_N6/Drivers/STM32N6xx_HAL_Driver/Src/stm32n6xx_ll_usb.c ****   {
 1472              		.loc 1 643 6 view .LVU500
ARM GAS  C:\Users\DJESSOU\AppData\Local\Temp\ccOpSjVg.s 			page 60


 1473 000a 0129     		cmp	r1, #1
 1474 000c 00F50060 		add	r0, r0, #2048
 1475              	.LVL78:
 643:STM32Cube_FW_N6/Drivers/STM32N6xx_HAL_Driver/Src/stm32n6xx_ll_usb.c ****   {
 1476              		.loc 1 643 6 view .LVU501
 1477 0010 02F00F02 		and	r2, r2, #15
 1478              	.LVL79:
 643:STM32Cube_FW_N6/Drivers/STM32N6xx_HAL_Driver/Src/stm32n6xx_ll_usb.c ****   {
 1479              		.loc 1 643 6 view .LVU502
 1480 0014 22D1     		bne	.L105
 645:STM32Cube_FW_N6/Drivers/STM32N6xx_HAL_Driver/Src/stm32n6xx_ll_usb.c ****     {
 1481              		.loc 1 645 5 is_stmt 1 view .LVU503
 645:STM32Cube_FW_N6/Drivers/STM32N6xx_HAL_Driver/Src/stm32n6xx_ll_usb.c ****     {
 1482              		.loc 1 645 26 is_stmt 0 view .LVU504
 1483 0016 D3F80019 		ldr	r1, [r3, #2304]
 645:STM32Cube_FW_N6/Drivers/STM32N6xx_HAL_Driver/Src/stm32n6xx_ll_usb.c ****     {
 1484              		.loc 1 645 8 view .LVU505
 1485 001a 0029     		cmp	r1, #0
 1486 001c 0BDA     		bge	.L106
 647:STM32Cube_FW_N6/Drivers/STM32N6xx_HAL_Driver/Src/stm32n6xx_ll_usb.c ****       USBx_INEP(epnum)->DIEPCTL |= USB_OTG_DIEPCTL_EPDIS;
 1487              		.loc 1 647 7 is_stmt 1 view .LVU506
 647:STM32Cube_FW_N6/Drivers/STM32N6xx_HAL_Driver/Src/stm32n6xx_ll_usb.c ****       USBx_INEP(epnum)->DIEPCTL |= USB_OTG_DIEPCTL_EPDIS;
 1488              		.loc 1 647 23 is_stmt 0 view .LVU507
 1489 001e D3F80019 		ldr	r1, [r3, #2304]
 647:STM32Cube_FW_N6/Drivers/STM32N6xx_HAL_Driver/Src/stm32n6xx_ll_usb.c ****       USBx_INEP(epnum)->DIEPCTL |= USB_OTG_DIEPCTL_EPDIS;
 1490              		.loc 1 647 33 view .LVU508
 1491 0022 41F00061 		orr	r1, r1, #134217728
 1492 0026 C3F80019 		str	r1, [r3, #2304]
 1493              	.LVL80:
 648:STM32Cube_FW_N6/Drivers/STM32N6xx_HAL_Driver/Src/stm32n6xx_ll_usb.c ****     }
 1494              		.loc 1 648 7 is_stmt 1 view .LVU509
 648:STM32Cube_FW_N6/Drivers/STM32N6xx_HAL_Driver/Src/stm32n6xx_ll_usb.c ****     }
 1495              		.loc 1 648 23 is_stmt 0 view .LVU510
 1496 002a D3F80019 		ldr	r1, [r3, #2304]
 648:STM32Cube_FW_N6/Drivers/STM32N6xx_HAL_Driver/Src/stm32n6xx_ll_usb.c ****     }
 1497              		.loc 1 648 33 view .LVU511
 1498 002e 41F08041 		orr	r1, r1, #1073741824
 1499 0032 C3F80019 		str	r1, [r3, #2304]
 1500              	.L106:
 651:STM32Cube_FW_N6/Drivers/STM32N6xx_HAL_Driver/Src/stm32n6xx_ll_usb.c ****     USBx_DEVICE->DAINTMSK &= ~(USB_OTG_DAINTMSK_IEPM & (uint32_t)(1UL << (ep->num & EP_ADDR_MSK)));
 1501              		.loc 1 651 5 is_stmt 1 view .LVU512
 651:STM32Cube_FW_N6/Drivers/STM32N6xx_HAL_Driver/Src/stm32n6xx_ll_usb.c ****     USBx_DEVICE->DAINTMSK &= ~(USB_OTG_DAINTMSK_IEPM & (uint32_t)(1UL << (ep->num & EP_ADDR_MSK)));
 1502              		.loc 1 651 56 is_stmt 0 view .LVU513
 1503 0036 0121     		movs	r1, #1
 651:STM32Cube_FW_N6/Drivers/STM32N6xx_HAL_Driver/Src/stm32n6xx_ll_usb.c ****     USBx_DEVICE->DAINTMSK &= ~(USB_OTG_DAINTMSK_IEPM & (uint32_t)(1UL << (ep->num & EP_ADDR_MSK)));
 1504              		.loc 1 651 16 view .LVU514
 1505 0038 C46B     		ldr	r4, [r0, #60]
 651:STM32Cube_FW_N6/Drivers/STM32N6xx_HAL_Driver/Src/stm32n6xx_ll_usb.c ****     USBx_DEVICE->DAINTMSK &= ~(USB_OTG_DAINTMSK_IEPM & (uint32_t)(1UL << (ep->num & EP_ADDR_MSK)));
 1506              		.loc 1 651 56 view .LVU515
 1507 003a 01FA02F2 		lsl	r2, r1, r2
 651:STM32Cube_FW_N6/Drivers/STM32N6xx_HAL_Driver/Src/stm32n6xx_ll_usb.c ****     USBx_DEVICE->DAINTMSK &= ~(USB_OTG_DAINTMSK_IEPM & (uint32_t)(1UL << (ep->num & EP_ADDR_MSK)));
 1508              		.loc 1 651 27 view .LVU516
 1509 003e 24EA0204 		bic	r4, r4, r2
 1510 0042 C463     		str	r4, [r0, #60]
 652:STM32Cube_FW_N6/Drivers/STM32N6xx_HAL_Driver/Src/stm32n6xx_ll_usb.c ****     USBx_INEP(epnum)->DIEPCTL &= ~(USB_OTG_DIEPCTL_USBAEP |
 1511              		.loc 1 652 5 is_stmt 1 view .LVU517
 652:STM32Cube_FW_N6/Drivers/STM32N6xx_HAL_Driver/Src/stm32n6xx_ll_usb.c ****     USBx_INEP(epnum)->DIEPCTL &= ~(USB_OTG_DIEPCTL_USBAEP |
ARM GAS  C:\Users\DJESSOU\AppData\Local\Temp\ccOpSjVg.s 			page 61


 1512              		.loc 1 652 16 is_stmt 0 view .LVU518
 1513 0044 C169     		ldr	r1, [r0, #28]
 652:STM32Cube_FW_N6/Drivers/STM32N6xx_HAL_Driver/Src/stm32n6xx_ll_usb.c ****     USBx_INEP(epnum)->DIEPCTL &= ~(USB_OTG_DIEPCTL_USBAEP |
 1514              		.loc 1 652 27 view .LVU519
 1515 0046 21EA0202 		bic	r2, r1, r2
 1516 004a C261     		str	r2, [r0, #28]
 653:STM32Cube_FW_N6/Drivers/STM32N6xx_HAL_Driver/Src/stm32n6xx_ll_usb.c ****                                    USB_OTG_DIEPCTL_MPSIZ |
 1517              		.loc 1 653 5 is_stmt 1 view .LVU520
 653:STM32Cube_FW_N6/Drivers/STM32N6xx_HAL_Driver/Src/stm32n6xx_ll_usb.c ****                                    USB_OTG_DIEPCTL_MPSIZ |
 1518              		.loc 1 653 21 is_stmt 0 view .LVU521
 1519 004c D3F80019 		ldr	r1, [r3, #2304]
 653:STM32Cube_FW_N6/Drivers/STM32N6xx_HAL_Driver/Src/stm32n6xx_ll_usb.c ****                                    USB_OTG_DIEPCTL_MPSIZ |
 1520              		.loc 1 653 31 view .LVU522
 1521 0050 144A     		ldr	r2, .L109
 1522 0052 0A40     		ands	r2, r2, r1
 1523 0054 C3F80029 		str	r2, [r3, #2304]
 1524              	.L107:
 675:STM32Cube_FW_N6/Drivers/STM32N6xx_HAL_Driver/Src/stm32n6xx_ll_usb.c **** }
 1525              		.loc 1 675 3 is_stmt 1 view .LVU523
 676:STM32Cube_FW_N6/Drivers/STM32N6xx_HAL_Driver/Src/stm32n6xx_ll_usb.c **** 
 1526              		.loc 1 676 1 is_stmt 0 view .LVU524
 1527 0058 0020     		movs	r0, #0
 1528              	.LVL81:
 676:STM32Cube_FW_N6/Drivers/STM32N6xx_HAL_Driver/Src/stm32n6xx_ll_usb.c **** 
 1529              		.loc 1 676 1 view .LVU525
 1530 005a 10BD     		pop	{r4, pc}
 1531              	.LVL82:
 1532              	.L105:
 661:STM32Cube_FW_N6/Drivers/STM32N6xx_HAL_Driver/Src/stm32n6xx_ll_usb.c ****     {
 1533              		.loc 1 661 5 is_stmt 1 view .LVU526
 661:STM32Cube_FW_N6/Drivers/STM32N6xx_HAL_Driver/Src/stm32n6xx_ll_usb.c ****     {
 1534              		.loc 1 661 27 is_stmt 0 view .LVU527
 1535 005c D3F8001B 		ldr	r1, [r3, #2816]
 661:STM32Cube_FW_N6/Drivers/STM32N6xx_HAL_Driver/Src/stm32n6xx_ll_usb.c ****     {
 1536              		.loc 1 661 8 view .LVU528
 1537 0060 0029     		cmp	r1, #0
 1538 0062 0BDA     		bge	.L108
 663:STM32Cube_FW_N6/Drivers/STM32N6xx_HAL_Driver/Src/stm32n6xx_ll_usb.c ****       USBx_OUTEP(epnum)->DOEPCTL |= USB_OTG_DOEPCTL_EPDIS;
 1539              		.loc 1 663 7 is_stmt 1 view .LVU529
 663:STM32Cube_FW_N6/Drivers/STM32N6xx_HAL_Driver/Src/stm32n6xx_ll_usb.c ****       USBx_OUTEP(epnum)->DOEPCTL |= USB_OTG_DOEPCTL_EPDIS;
 1540              		.loc 1 663 24 is_stmt 0 view .LVU530
 1541 0064 D3F8001B 		ldr	r1, [r3, #2816]
 663:STM32Cube_FW_N6/Drivers/STM32N6xx_HAL_Driver/Src/stm32n6xx_ll_usb.c ****       USBx_OUTEP(epnum)->DOEPCTL |= USB_OTG_DOEPCTL_EPDIS;
 1542              		.loc 1 663 34 view .LVU531
 1543 0068 41F00061 		orr	r1, r1, #134217728
 1544 006c C3F8001B 		str	r1, [r3, #2816]
 1545              	.LVL83:
 664:STM32Cube_FW_N6/Drivers/STM32N6xx_HAL_Driver/Src/stm32n6xx_ll_usb.c ****     }
 1546              		.loc 1 664 7 is_stmt 1 view .LVU532
 664:STM32Cube_FW_N6/Drivers/STM32N6xx_HAL_Driver/Src/stm32n6xx_ll_usb.c ****     }
 1547              		.loc 1 664 24 is_stmt 0 view .LVU533
 1548 0070 D3F8001B 		ldr	r1, [r3, #2816]
 664:STM32Cube_FW_N6/Drivers/STM32N6xx_HAL_Driver/Src/stm32n6xx_ll_usb.c ****     }
 1549              		.loc 1 664 34 view .LVU534
 1550 0074 41F08041 		orr	r1, r1, #1073741824
 1551 0078 C3F8001B 		str	r1, [r3, #2816]
 1552              	.L108:
ARM GAS  C:\Users\DJESSOU\AppData\Local\Temp\ccOpSjVg.s 			page 62


 667:STM32Cube_FW_N6/Drivers/STM32N6xx_HAL_Driver/Src/stm32n6xx_ll_usb.c ****     USBx_DEVICE->DAINTMSK &= ~(USB_OTG_DAINTMSK_OEPM & ((uint32_t)(1UL << (ep->num & EP_ADDR_MSK)) 
 1553              		.loc 1 667 5 is_stmt 1 view .LVU535
 667:STM32Cube_FW_N6/Drivers/STM32N6xx_HAL_Driver/Src/stm32n6xx_ll_usb.c ****     USBx_DEVICE->DAINTMSK &= ~(USB_OTG_DAINTMSK_OEPM & ((uint32_t)(1UL << (ep->num & EP_ADDR_MSK)) 
 1554              		.loc 1 667 57 is_stmt 0 view .LVU536
 1555 007c 4FF48031 		mov	r1, #65536
 667:STM32Cube_FW_N6/Drivers/STM32N6xx_HAL_Driver/Src/stm32n6xx_ll_usb.c ****     USBx_DEVICE->DAINTMSK &= ~(USB_OTG_DAINTMSK_OEPM & ((uint32_t)(1UL << (ep->num & EP_ADDR_MSK)) 
 1556              		.loc 1 667 16 view .LVU537
 1557 0080 C46B     		ldr	r4, [r0, #60]
 667:STM32Cube_FW_N6/Drivers/STM32N6xx_HAL_Driver/Src/stm32n6xx_ll_usb.c ****     USBx_DEVICE->DAINTMSK &= ~(USB_OTG_DAINTMSK_OEPM & ((uint32_t)(1UL << (ep->num & EP_ADDR_MSK)) 
 1558              		.loc 1 667 54 view .LVU538
 1559 0082 01FA02F2 		lsl	r2, r1, r2
 667:STM32Cube_FW_N6/Drivers/STM32N6xx_HAL_Driver/Src/stm32n6xx_ll_usb.c ****     USBx_DEVICE->DAINTMSK &= ~(USB_OTG_DAINTMSK_OEPM & ((uint32_t)(1UL << (ep->num & EP_ADDR_MSK)) 
 1560              		.loc 1 667 27 view .LVU539
 1561 0086 24EA0204 		bic	r4, r4, r2
 1562 008a C463     		str	r4, [r0, #60]
 668:STM32Cube_FW_N6/Drivers/STM32N6xx_HAL_Driver/Src/stm32n6xx_ll_usb.c ****     USBx_OUTEP(epnum)->DOEPCTL &= ~(USB_OTG_DOEPCTL_USBAEP |
 1563              		.loc 1 668 5 is_stmt 1 view .LVU540
 668:STM32Cube_FW_N6/Drivers/STM32N6xx_HAL_Driver/Src/stm32n6xx_ll_usb.c ****     USBx_OUTEP(epnum)->DOEPCTL &= ~(USB_OTG_DOEPCTL_USBAEP |
 1564              		.loc 1 668 16 is_stmt 0 view .LVU541
 1565 008c C169     		ldr	r1, [r0, #28]
 668:STM32Cube_FW_N6/Drivers/STM32N6xx_HAL_Driver/Src/stm32n6xx_ll_usb.c ****     USBx_OUTEP(epnum)->DOEPCTL &= ~(USB_OTG_DOEPCTL_USBAEP |
 1566              		.loc 1 668 27 view .LVU542
 1567 008e 21EA0202 		bic	r2, r1, r2
 1568 0092 C261     		str	r2, [r0, #28]
 669:STM32Cube_FW_N6/Drivers/STM32N6xx_HAL_Driver/Src/stm32n6xx_ll_usb.c ****                                     USB_OTG_DOEPCTL_MPSIZ |
 1569              		.loc 1 669 5 is_stmt 1 view .LVU543
 669:STM32Cube_FW_N6/Drivers/STM32N6xx_HAL_Driver/Src/stm32n6xx_ll_usb.c ****                                     USB_OTG_DOEPCTL_MPSIZ |
 1570              		.loc 1 669 22 is_stmt 0 view .LVU544
 1571 0094 D3F8001B 		ldr	r1, [r3, #2816]
 669:STM32Cube_FW_N6/Drivers/STM32N6xx_HAL_Driver/Src/stm32n6xx_ll_usb.c ****                                     USB_OTG_DOEPCTL_MPSIZ |
 1572              		.loc 1 669 32 view .LVU545
 1573 0098 034A     		ldr	r2, .L109+4
 1574 009a 0A40     		ands	r2, r2, r1
 1575 009c C3F8002B 		str	r2, [r3, #2816]
 1576 00a0 DAE7     		b	.L107
 1577              	.L110:
 1578 00a2 00BF     		.align	2
 1579              	.L109:
 1580 00a4 007833EC 		.word	-332171264
 1581 00a8 0078F3EF 		.word	-269256704
 1582              		.cfi_endproc
 1583              	.LFE874:
 1585              		.section	.text.USB_DeactivateDedicatedEndpoint,"ax",%progbits
 1586              		.align	1
 1587              		.global	USB_DeactivateDedicatedEndpoint
 1588              		.syntax unified
 1589              		.thumb
 1590              		.thumb_func
 1592              	USB_DeactivateDedicatedEndpoint:
 1593              	.LVL84:
 1594              	.LFB875:
 685:STM32Cube_FW_N6/Drivers/STM32N6xx_HAL_Driver/Src/stm32n6xx_ll_usb.c ****   uint32_t USBx_BASE = (uint32_t)USBx;
 1595              		.loc 1 685 1 is_stmt 1 view -0
 1596              		.cfi_startproc
 1597              		@ args = 0, pretend = 0, frame = 0
 1598              		@ frame_needed = 0, uses_anonymous_args = 0
 1599              		@ link register save eliminated.
ARM GAS  C:\Users\DJESSOU\AppData\Local\Temp\ccOpSjVg.s 			page 63


 686:STM32Cube_FW_N6/Drivers/STM32N6xx_HAL_Driver/Src/stm32n6xx_ll_usb.c ****   uint32_t epnum = (uint32_t)ep->num;
 1600              		.loc 1 686 3 view .LVU547
 687:STM32Cube_FW_N6/Drivers/STM32N6xx_HAL_Driver/Src/stm32n6xx_ll_usb.c **** 
 1601              		.loc 1 687 3 view .LVU548
 687:STM32Cube_FW_N6/Drivers/STM32N6xx_HAL_Driver/Src/stm32n6xx_ll_usb.c **** 
 1602              		.loc 1 687 32 is_stmt 0 view .LVU549
 1603 0000 0A78     		ldrb	r2, [r1]	@ zero_extendqisi2
 1604              	.LVL85:
 690:STM32Cube_FW_N6/Drivers/STM32N6xx_HAL_Driver/Src/stm32n6xx_ll_usb.c ****   {
 1605              		.loc 1 690 3 is_stmt 1 view .LVU550
 690:STM32Cube_FW_N6/Drivers/STM32N6xx_HAL_Driver/Src/stm32n6xx_ll_usb.c ****   {
 1606              		.loc 1 690 6 is_stmt 0 view .LVU551
 1607 0002 4978     		ldrb	r1, [r1, #1]	@ zero_extendqisi2
 1608              	.LVL86:
 692:STM32Cube_FW_N6/Drivers/STM32N6xx_HAL_Driver/Src/stm32n6xx_ll_usb.c ****     {
 1609              		.loc 1 692 10 view .LVU552
 1610 0004 00EB4213 		add	r3, r0, r2, lsl #5
 690:STM32Cube_FW_N6/Drivers/STM32N6xx_HAL_Driver/Src/stm32n6xx_ll_usb.c ****   {
 1611              		.loc 1 690 6 view .LVU553
 1612 0008 0129     		cmp	r1, #1
 1613 000a 00F50060 		add	r0, r0, #2048
 1614              	.LVL87:
 690:STM32Cube_FW_N6/Drivers/STM32N6xx_HAL_Driver/Src/stm32n6xx_ll_usb.c ****   {
 1615              		.loc 1 690 6 view .LVU554
 1616 000e 02F00F02 		and	r2, r2, #15
 1617              	.LVL88:
 690:STM32Cube_FW_N6/Drivers/STM32N6xx_HAL_Driver/Src/stm32n6xx_ll_usb.c ****   {
 1618              		.loc 1 690 6 view .LVU555
 1619 0012 1ED1     		bne	.L112
 692:STM32Cube_FW_N6/Drivers/STM32N6xx_HAL_Driver/Src/stm32n6xx_ll_usb.c ****     {
 1620              		.loc 1 692 5 is_stmt 1 view .LVU556
 692:STM32Cube_FW_N6/Drivers/STM32N6xx_HAL_Driver/Src/stm32n6xx_ll_usb.c ****     {
 1621              		.loc 1 692 26 is_stmt 0 view .LVU557
 1622 0014 D3F80019 		ldr	r1, [r3, #2304]
 692:STM32Cube_FW_N6/Drivers/STM32N6xx_HAL_Driver/Src/stm32n6xx_ll_usb.c ****     {
 1623              		.loc 1 692 8 view .LVU558
 1624 0018 0029     		cmp	r1, #0
 1625 001a 0BDA     		bge	.L113
 694:STM32Cube_FW_N6/Drivers/STM32N6xx_HAL_Driver/Src/stm32n6xx_ll_usb.c ****       USBx_INEP(epnum)->DIEPCTL  |= USB_OTG_DIEPCTL_EPDIS;
 1626              		.loc 1 694 7 is_stmt 1 view .LVU559
 694:STM32Cube_FW_N6/Drivers/STM32N6xx_HAL_Driver/Src/stm32n6xx_ll_usb.c ****       USBx_INEP(epnum)->DIEPCTL  |= USB_OTG_DIEPCTL_EPDIS;
 1627              		.loc 1 694 23 is_stmt 0 view .LVU560
 1628 001c D3F80019 		ldr	r1, [r3, #2304]
 694:STM32Cube_FW_N6/Drivers/STM32N6xx_HAL_Driver/Src/stm32n6xx_ll_usb.c ****       USBx_INEP(epnum)->DIEPCTL  |= USB_OTG_DIEPCTL_EPDIS;
 1629              		.loc 1 694 34 view .LVU561
 1630 0020 41F00061 		orr	r1, r1, #134217728
 1631 0024 C3F80019 		str	r1, [r3, #2304]
 1632              	.LVL89:
 695:STM32Cube_FW_N6/Drivers/STM32N6xx_HAL_Driver/Src/stm32n6xx_ll_usb.c ****     }
 1633              		.loc 1 695 7 is_stmt 1 view .LVU562
 695:STM32Cube_FW_N6/Drivers/STM32N6xx_HAL_Driver/Src/stm32n6xx_ll_usb.c ****     }
 1634              		.loc 1 695 23 is_stmt 0 view .LVU563
 1635 0028 D3F80019 		ldr	r1, [r3, #2304]
 695:STM32Cube_FW_N6/Drivers/STM32N6xx_HAL_Driver/Src/stm32n6xx_ll_usb.c ****     }
 1636              		.loc 1 695 34 view .LVU564
 1637 002c 41F08041 		orr	r1, r1, #1073741824
 1638 0030 C3F80019 		str	r1, [r3, #2304]
ARM GAS  C:\Users\DJESSOU\AppData\Local\Temp\ccOpSjVg.s 			page 64


 1639              	.L113:
 698:STM32Cube_FW_N6/Drivers/STM32N6xx_HAL_Driver/Src/stm32n6xx_ll_usb.c ****     USBx_DEVICE->DAINTMSK &= ~(USB_OTG_DAINTMSK_IEPM & (uint32_t)(1UL << (ep->num & EP_ADDR_MSK)));
 1640              		.loc 1 698 5 is_stmt 1 view .LVU565
 698:STM32Cube_FW_N6/Drivers/STM32N6xx_HAL_Driver/Src/stm32n6xx_ll_usb.c ****     USBx_DEVICE->DAINTMSK &= ~(USB_OTG_DAINTMSK_IEPM & (uint32_t)(1UL << (ep->num & EP_ADDR_MSK)));
 1641              		.loc 1 698 21 is_stmt 0 view .LVU566
 1642 0034 D3F80019 		ldr	r1, [r3, #2304]
 698:STM32Cube_FW_N6/Drivers/STM32N6xx_HAL_Driver/Src/stm32n6xx_ll_usb.c ****     USBx_DEVICE->DAINTMSK &= ~(USB_OTG_DAINTMSK_IEPM & (uint32_t)(1UL << (ep->num & EP_ADDR_MSK)));
 1643              		.loc 1 698 31 view .LVU567
 1644 0038 21F40041 		bic	r1, r1, #32768
 1645 003c C3F80019 		str	r1, [r3, #2304]
 699:STM32Cube_FW_N6/Drivers/STM32N6xx_HAL_Driver/Src/stm32n6xx_ll_usb.c ****   }
 1646              		.loc 1 699 5 is_stmt 1 view .LVU568
 699:STM32Cube_FW_N6/Drivers/STM32N6xx_HAL_Driver/Src/stm32n6xx_ll_usb.c ****   }
 1647              		.loc 1 699 56 is_stmt 0 view .LVU569
 1648 0040 0121     		movs	r1, #1
 699:STM32Cube_FW_N6/Drivers/STM32N6xx_HAL_Driver/Src/stm32n6xx_ll_usb.c ****   }
 1649              		.loc 1 699 16 view .LVU570
 1650 0042 C369     		ldr	r3, [r0, #28]
 1651              	.L116:
 710:STM32Cube_FW_N6/Drivers/STM32N6xx_HAL_Driver/Src/stm32n6xx_ll_usb.c ****   }
 1652              		.loc 1 710 54 view .LVU571
 1653 0044 01FA02F2 		lsl	r2, r1, r2
 710:STM32Cube_FW_N6/Drivers/STM32N6xx_HAL_Driver/Src/stm32n6xx_ll_usb.c ****   }
 1654              		.loc 1 710 27 view .LVU572
 1655 0048 23EA0203 		bic	r3, r3, r2
 1656 004c C361     		str	r3, [r0, #28]
 713:STM32Cube_FW_N6/Drivers/STM32N6xx_HAL_Driver/Src/stm32n6xx_ll_usb.c **** }
 1657              		.loc 1 713 3 is_stmt 1 view .LVU573
 714:STM32Cube_FW_N6/Drivers/STM32N6xx_HAL_Driver/Src/stm32n6xx_ll_usb.c **** 
 1658              		.loc 1 714 1 is_stmt 0 view .LVU574
 1659 004e 0020     		movs	r0, #0
 1660              	.LVL90:
 714:STM32Cube_FW_N6/Drivers/STM32N6xx_HAL_Driver/Src/stm32n6xx_ll_usb.c **** 
 1661              		.loc 1 714 1 view .LVU575
 1662 0050 7047     		bx	lr
 1663              	.LVL91:
 1664              	.L112:
 703:STM32Cube_FW_N6/Drivers/STM32N6xx_HAL_Driver/Src/stm32n6xx_ll_usb.c ****     {
 1665              		.loc 1 703 5 is_stmt 1 view .LVU576
 703:STM32Cube_FW_N6/Drivers/STM32N6xx_HAL_Driver/Src/stm32n6xx_ll_usb.c ****     {
 1666              		.loc 1 703 27 is_stmt 0 view .LVU577
 1667 0052 D3F8001B 		ldr	r1, [r3, #2816]
 703:STM32Cube_FW_N6/Drivers/STM32N6xx_HAL_Driver/Src/stm32n6xx_ll_usb.c ****     {
 1668              		.loc 1 703 8 view .LVU578
 1669 0056 0029     		cmp	r1, #0
 1670 0058 0BDA     		bge	.L115
 705:STM32Cube_FW_N6/Drivers/STM32N6xx_HAL_Driver/Src/stm32n6xx_ll_usb.c ****       USBx_OUTEP(epnum)->DOEPCTL  |= USB_OTG_DOEPCTL_EPDIS;
 1671              		.loc 1 705 7 is_stmt 1 view .LVU579
 705:STM32Cube_FW_N6/Drivers/STM32N6xx_HAL_Driver/Src/stm32n6xx_ll_usb.c ****       USBx_OUTEP(epnum)->DOEPCTL  |= USB_OTG_DOEPCTL_EPDIS;
 1672              		.loc 1 705 24 is_stmt 0 view .LVU580
 1673 005a D3F8001B 		ldr	r1, [r3, #2816]
 705:STM32Cube_FW_N6/Drivers/STM32N6xx_HAL_Driver/Src/stm32n6xx_ll_usb.c ****       USBx_OUTEP(epnum)->DOEPCTL  |= USB_OTG_DOEPCTL_EPDIS;
 1674              		.loc 1 705 35 view .LVU581
 1675 005e 41F00061 		orr	r1, r1, #134217728
 1676 0062 C3F8001B 		str	r1, [r3, #2816]
 1677              	.LVL92:
 706:STM32Cube_FW_N6/Drivers/STM32N6xx_HAL_Driver/Src/stm32n6xx_ll_usb.c ****     }
ARM GAS  C:\Users\DJESSOU\AppData\Local\Temp\ccOpSjVg.s 			page 65


 1678              		.loc 1 706 7 is_stmt 1 view .LVU582
 706:STM32Cube_FW_N6/Drivers/STM32N6xx_HAL_Driver/Src/stm32n6xx_ll_usb.c ****     }
 1679              		.loc 1 706 24 is_stmt 0 view .LVU583
 1680 0066 D3F8001B 		ldr	r1, [r3, #2816]
 706:STM32Cube_FW_N6/Drivers/STM32N6xx_HAL_Driver/Src/stm32n6xx_ll_usb.c ****     }
 1681              		.loc 1 706 35 view .LVU584
 1682 006a 41F08041 		orr	r1, r1, #1073741824
 1683 006e C3F8001B 		str	r1, [r3, #2816]
 1684              	.L115:
 709:STM32Cube_FW_N6/Drivers/STM32N6xx_HAL_Driver/Src/stm32n6xx_ll_usb.c ****     USBx_DEVICE->DAINTMSK &= ~(USB_OTG_DAINTMSK_OEPM & ((uint32_t)(1UL << (ep->num & EP_ADDR_MSK)) 
 1685              		.loc 1 709 5 is_stmt 1 view .LVU585
 709:STM32Cube_FW_N6/Drivers/STM32N6xx_HAL_Driver/Src/stm32n6xx_ll_usb.c ****     USBx_DEVICE->DAINTMSK &= ~(USB_OTG_DAINTMSK_OEPM & ((uint32_t)(1UL << (ep->num & EP_ADDR_MSK)) 
 1686              		.loc 1 709 22 is_stmt 0 view .LVU586
 1687 0072 D3F8001B 		ldr	r1, [r3, #2816]
 709:STM32Cube_FW_N6/Drivers/STM32N6xx_HAL_Driver/Src/stm32n6xx_ll_usb.c ****     USBx_DEVICE->DAINTMSK &= ~(USB_OTG_DAINTMSK_OEPM & ((uint32_t)(1UL << (ep->num & EP_ADDR_MSK)) 
 1688              		.loc 1 709 32 view .LVU587
 1689 0076 21F40041 		bic	r1, r1, #32768
 1690 007a C3F8001B 		str	r1, [r3, #2816]
 710:STM32Cube_FW_N6/Drivers/STM32N6xx_HAL_Driver/Src/stm32n6xx_ll_usb.c ****   }
 1691              		.loc 1 710 5 is_stmt 1 view .LVU588
 710:STM32Cube_FW_N6/Drivers/STM32N6xx_HAL_Driver/Src/stm32n6xx_ll_usb.c ****   }
 1692              		.loc 1 710 16 is_stmt 0 view .LVU589
 1693 007e C369     		ldr	r3, [r0, #28]
 710:STM32Cube_FW_N6/Drivers/STM32N6xx_HAL_Driver/Src/stm32n6xx_ll_usb.c ****   }
 1694              		.loc 1 710 57 view .LVU590
 1695 0080 4FF48031 		mov	r1, #65536
 1696 0084 DEE7     		b	.L116
 1697              		.cfi_endproc
 1698              	.LFE875:
 1700              		.section	.text.USB_EPStopXfer,"ax",%progbits
 1701              		.align	1
 1702              		.global	USB_EPStopXfer
 1703              		.syntax unified
 1704              		.thumb
 1705              		.thumb_func
 1707              	USB_EPStopXfer:
 1708              	.LVL93:
 1709              	.LFB877:
 899:STM32Cube_FW_N6/Drivers/STM32N6xx_HAL_Driver/Src/stm32n6xx_ll_usb.c ****   __IO uint32_t count = 0U;
 1710              		.loc 1 899 1 is_stmt 1 view -0
 1711              		.cfi_startproc
 1712              		@ args = 0, pretend = 0, frame = 8
 1713              		@ frame_needed = 0, uses_anonymous_args = 0
 900:STM32Cube_FW_N6/Drivers/STM32N6xx_HAL_Driver/Src/stm32n6xx_ll_usb.c ****   __IO uint32_t RegVal;
 1714              		.loc 1 900 3 view .LVU592
 899:STM32Cube_FW_N6/Drivers/STM32N6xx_HAL_Driver/Src/stm32n6xx_ll_usb.c ****   __IO uint32_t count = 0U;
 1715              		.loc 1 899 1 is_stmt 0 view .LVU593
 1716 0000 37B5     		push	{r0, r1, r2, r4, r5, lr}
 1717              		.cfi_def_cfa_offset 24
 1718              		.cfi_offset 4, -12
 1719              		.cfi_offset 5, -8
 1720              		.cfi_offset 14, -4
 900:STM32Cube_FW_N6/Drivers/STM32N6xx_HAL_Driver/Src/stm32n6xx_ll_usb.c ****   __IO uint32_t RegVal;
 1721              		.loc 1 900 17 view .LVU594
 1722 0002 0022     		movs	r2, #0
 1723 0004 0092     		str	r2, [sp]
 901:STM32Cube_FW_N6/Drivers/STM32N6xx_HAL_Driver/Src/stm32n6xx_ll_usb.c ****   HAL_StatusTypeDef ret = HAL_OK;
ARM GAS  C:\Users\DJESSOU\AppData\Local\Temp\ccOpSjVg.s 			page 66


 1724              		.loc 1 901 3 is_stmt 1 view .LVU595
 902:STM32Cube_FW_N6/Drivers/STM32N6xx_HAL_Driver/Src/stm32n6xx_ll_usb.c ****   uint32_t USBx_BASE = (uint32_t)USBx;
 1725              		.loc 1 902 3 view .LVU596
 1726              	.LVL94:
 903:STM32Cube_FW_N6/Drivers/STM32N6xx_HAL_Driver/Src/stm32n6xx_ll_usb.c ****   uint32_t dma_enable = (USBx->GAHBCFG & USB_OTG_GAHBCFG_DMAEN) >> 0x5U;
 1727              		.loc 1 903 3 view .LVU597
 904:STM32Cube_FW_N6/Drivers/STM32N6xx_HAL_Driver/Src/stm32n6xx_ll_usb.c **** 
 1728              		.loc 1 904 3 view .LVU598
 899:STM32Cube_FW_N6/Drivers/STM32N6xx_HAL_Driver/Src/stm32n6xx_ll_usb.c ****   __IO uint32_t count = 0U;
 1729              		.loc 1 899 1 is_stmt 0 view .LVU599
 1730 0006 0346     		mov	r3, r0
 904:STM32Cube_FW_N6/Drivers/STM32N6xx_HAL_Driver/Src/stm32n6xx_ll_usb.c **** 
 1731              		.loc 1 904 30 view .LVU600
 1732 0008 8468     		ldr	r4, [r0, #8]
 1733              	.LVL95:
 907:STM32Cube_FW_N6/Drivers/STM32N6xx_HAL_Driver/Src/stm32n6xx_ll_usb.c ****   {
 1734              		.loc 1 907 3 is_stmt 1 view .LVU601
 907:STM32Cube_FW_N6/Drivers/STM32N6xx_HAL_Driver/Src/stm32n6xx_ll_usb.c ****   {
 1735              		.loc 1 907 9 is_stmt 0 view .LVU602
 1736 000a 4878     		ldrb	r0, [r1, #1]	@ zero_extendqisi2
 1737              	.LVL96:
 910:STM32Cube_FW_N6/Drivers/STM32N6xx_HAL_Driver/Src/stm32n6xx_ll_usb.c ****     {
 1738              		.loc 1 910 11 view .LVU603
 1739 000c 0A78     		ldrb	r2, [r1]	@ zero_extendqisi2
 907:STM32Cube_FW_N6/Drivers/STM32N6xx_HAL_Driver/Src/stm32n6xx_ll_usb.c ****   {
 1740              		.loc 1 907 6 view .LVU604
 1741 000e 0128     		cmp	r0, #1
 910:STM32Cube_FW_N6/Drivers/STM32N6xx_HAL_Driver/Src/stm32n6xx_ll_usb.c ****     {
 1742              		.loc 1 910 11 view .LVU605
 1743 0010 4FEA4212 		lsl	r2, r2, #5
 907:STM32Cube_FW_N6/Drivers/STM32N6xx_HAL_Driver/Src/stm32n6xx_ll_usb.c ****   {
 1744              		.loc 1 907 6 view .LVU606
 1745 0014 1BD1     		bne	.L118
 910:STM32Cube_FW_N6/Drivers/STM32N6xx_HAL_Driver/Src/stm32n6xx_ll_usb.c ****     {
 1746              		.loc 1 910 5 is_stmt 1 view .LVU607
 910:STM32Cube_FW_N6/Drivers/STM32N6xx_HAL_Driver/Src/stm32n6xx_ll_usb.c ****     {
 1747              		.loc 1 910 11 is_stmt 0 view .LVU608
 1748 0016 03F51063 		add	r3, r3, #2304
 1749              	.LVL97:
 910:STM32Cube_FW_N6/Drivers/STM32N6xx_HAL_Driver/Src/stm32n6xx_ll_usb.c ****     {
 1750              		.loc 1 910 29 view .LVU609
 1751 001a 9958     		ldr	r1, [r3, r2]
 1752              	.LVL98:
 910:STM32Cube_FW_N6/Drivers/STM32N6xx_HAL_Driver/Src/stm32n6xx_ll_usb.c ****     {
 1753              		.loc 1 910 11 view .LVU610
 1754 001c 9C18     		adds	r4, r3, r2
 1755              	.LVL99:
 910:STM32Cube_FW_N6/Drivers/STM32N6xx_HAL_Driver/Src/stm32n6xx_ll_usb.c ****     {
 1756              		.loc 1 910 8 view .LVU611
 1757 001e 0029     		cmp	r1, #0
 1758 0020 02DB     		blt	.L119
 1759              	.LVL100:
 1760              	.L122:
 902:STM32Cube_FW_N6/Drivers/STM32N6xx_HAL_Driver/Src/stm32n6xx_ll_usb.c ****   uint32_t USBx_BASE = (uint32_t)USBx;
 1761              		.loc 1 902 21 view .LVU612
 1762 0022 0020     		movs	r0, #0
 1763              	.LVL101:
ARM GAS  C:\Users\DJESSOU\AppData\Local\Temp\ccOpSjVg.s 			page 67


 1764              	.L120:
 994:STM32Cube_FW_N6/Drivers/STM32N6xx_HAL_Driver/Src/stm32n6xx_ll_usb.c **** }
 1765              		.loc 1 994 3 is_stmt 1 view .LVU613
 995:STM32Cube_FW_N6/Drivers/STM32N6xx_HAL_Driver/Src/stm32n6xx_ll_usb.c **** 
 1766              		.loc 1 995 1 is_stmt 0 view .LVU614
 1767 0024 03B0     		add	sp, sp, #12
 1768              		.cfi_remember_state
 1769              		.cfi_def_cfa_offset 12
 1770              		@ sp needed
 1771 0026 30BD     		pop	{r4, r5, pc}
 1772              	.LVL102:
 1773              	.L119:
 1774              		.cfi_restore_state
 912:STM32Cube_FW_N6/Drivers/STM32N6xx_HAL_Driver/Src/stm32n6xx_ll_usb.c ****       USBx_INEP(ep->num)->DIEPCTL |= (USB_OTG_DIEPCTL_EPDIS);
 1775              		.loc 1 912 7 is_stmt 1 view .LVU615
 912:STM32Cube_FW_N6/Drivers/STM32N6xx_HAL_Driver/Src/stm32n6xx_ll_usb.c ****       USBx_INEP(ep->num)->DIEPCTL |= (USB_OTG_DIEPCTL_EPDIS);
 1776              		.loc 1 912 25 is_stmt 0 view .LVU616
 1777 0028 9958     		ldr	r1, [r3, r2]
 912:STM32Cube_FW_N6/Drivers/STM32N6xx_HAL_Driver/Src/stm32n6xx_ll_usb.c ****       USBx_INEP(ep->num)->DIEPCTL |= (USB_OTG_DIEPCTL_EPDIS);
 1778              		.loc 1 912 35 view .LVU617
 1779 002a 41F00061 		orr	r1, r1, #134217728
 1780 002e 9950     		str	r1, [r3, r2]
 913:STM32Cube_FW_N6/Drivers/STM32N6xx_HAL_Driver/Src/stm32n6xx_ll_usb.c **** 
 1781              		.loc 1 913 7 is_stmt 1 view .LVU618
 913:STM32Cube_FW_N6/Drivers/STM32N6xx_HAL_Driver/Src/stm32n6xx_ll_usb.c **** 
 1782              		.loc 1 913 25 is_stmt 0 view .LVU619
 1783 0030 9958     		ldr	r1, [r3, r2]
 913:STM32Cube_FW_N6/Drivers/STM32N6xx_HAL_Driver/Src/stm32n6xx_ll_usb.c **** 
 1784              		.loc 1 913 35 view .LVU620
 1785 0032 41F08041 		orr	r1, r1, #1073741824
 1786 0036 9950     		str	r1, [r3, r2]
 1787              	.L121:
 915:STM32Cube_FW_N6/Drivers/STM32N6xx_HAL_Driver/Src/stm32n6xx_ll_usb.c ****       {
 1788              		.loc 1 915 7 is_stmt 1 view .LVU621
 917:STM32Cube_FW_N6/Drivers/STM32N6xx_HAL_Driver/Src/stm32n6xx_ll_usb.c **** 
 1789              		.loc 1 917 9 view .LVU622
 917:STM32Cube_FW_N6/Drivers/STM32N6xx_HAL_Driver/Src/stm32n6xx_ll_usb.c **** 
 1790              		.loc 1 917 14 is_stmt 0 view .LVU623
 1791 0038 009B     		ldr	r3, [sp]
 1792 003a 0133     		adds	r3, r3, #1
 1793 003c 0093     		str	r3, [sp]
 919:STM32Cube_FW_N6/Drivers/STM32N6xx_HAL_Driver/Src/stm32n6xx_ll_usb.c ****         {
 1794              		.loc 1 919 9 is_stmt 1 view .LVU624
 919:STM32Cube_FW_N6/Drivers/STM32N6xx_HAL_Driver/Src/stm32n6xx_ll_usb.c ****         {
 1795              		.loc 1 919 19 is_stmt 0 view .LVU625
 1796 003e 009B     		ldr	r3, [sp]
 919:STM32Cube_FW_N6/Drivers/STM32N6xx_HAL_Driver/Src/stm32n6xx_ll_usb.c ****         {
 1797              		.loc 1 919 12 view .LVU626
 1798 0040 B3F5702F 		cmp	r3, #983040
 1799 0044 EED8     		bhi	.L120
 924:STM32Cube_FW_N6/Drivers/STM32N6xx_HAL_Driver/Src/stm32n6xx_ll_usb.c ****     }
 1800              		.loc 1 924 72 is_stmt 1 view .LVU627
 924:STM32Cube_FW_N6/Drivers/STM32N6xx_HAL_Driver/Src/stm32n6xx_ll_usb.c ****     }
 1801              		.loc 1 924 36 is_stmt 0 view .LVU628
 1802 0046 2368     		ldr	r3, [r4]
 924:STM32Cube_FW_N6/Drivers/STM32N6xx_HAL_Driver/Src/stm32n6xx_ll_usb.c ****     }
 1803              		.loc 1 924 72 view .LVU629
ARM GAS  C:\Users\DJESSOU\AppData\Local\Temp\ccOpSjVg.s 			page 68


 1804 0048 002B     		cmp	r3, #0
 1805 004a F5DB     		blt	.L121
 1806 004c E9E7     		b	.L122
 1807              	.LVL103:
 1808              	.L118:
 929:STM32Cube_FW_N6/Drivers/STM32N6xx_HAL_Driver/Src/stm32n6xx_ll_usb.c **** 
 1809              		.loc 1 929 5 is_stmt 1 view .LVU630
 929:STM32Cube_FW_N6/Drivers/STM32N6xx_HAL_Driver/Src/stm32n6xx_ll_usb.c **** 
 1810              		.loc 1 929 9 is_stmt 0 view .LVU631
 1811 004e 9969     		ldr	r1, [r3, #24]
 1812              	.LVL104:
 929:STM32Cube_FW_N6/Drivers/STM32N6xx_HAL_Driver/Src/stm32n6xx_ll_usb.c **** 
 1813              		.loc 1 929 19 view .LVU632
 1814 0050 21F08001 		bic	r1, r1, #128
 1815 0054 9961     		str	r1, [r3, #24]
 931:STM32Cube_FW_N6/Drivers/STM32N6xx_HAL_Driver/Src/stm32n6xx_ll_usb.c ****     {
 1816              		.loc 1 931 5 is_stmt 1 view .LVU633
 931:STM32Cube_FW_N6/Drivers/STM32N6xx_HAL_Driver/Src/stm32n6xx_ll_usb.c ****     {
 1817              		.loc 1 931 14 is_stmt 0 view .LVU634
 1818 0056 5869     		ldr	r0, [r3, #20]
 933:STM32Cube_FW_N6/Drivers/STM32N6xx_HAL_Driver/Src/stm32n6xx_ll_usb.c ****     }
 1819              		.loc 1 933 18 view .LVU635
 1820 0058 03F50061 		add	r1, r3, #2048
 931:STM32Cube_FW_N6/Drivers/STM32N6xx_HAL_Driver/Src/stm32n6xx_ll_usb.c ****     {
 1821              		.loc 1 931 8 view .LVU636
 1822 005c 0506     		lsls	r5, r0, #24
 933:STM32Cube_FW_N6/Drivers/STM32N6xx_HAL_Driver/Src/stm32n6xx_ll_usb.c ****     }
 1823              		.loc 1 933 7 is_stmt 1 view .LVU637
 933:STM32Cube_FW_N6/Drivers/STM32N6xx_HAL_Driver/Src/stm32n6xx_ll_usb.c ****     }
 1824              		.loc 1 933 18 is_stmt 0 view .LVU638
 1825 005e 5EBF     		ittt	pl
 1826 0060 4868     		ldrpl	r0, [r1, #4]
 933:STM32Cube_FW_N6/Drivers/STM32N6xx_HAL_Driver/Src/stm32n6xx_ll_usb.c ****     }
 1827              		.loc 1 933 25 view .LVU639
 1828 0062 40F40070 		orrpl	r0, r0, #512
 1829 0066 4860     		strpl	r0, [r1, #4]
 936:STM32Cube_FW_N6/Drivers/STM32N6xx_HAL_Driver/Src/stm32n6xx_ll_usb.c ****     {
 1830              		.loc 1 936 5 is_stmt 1 view .LVU640
 936:STM32Cube_FW_N6/Drivers/STM32N6xx_HAL_Driver/Src/stm32n6xx_ll_usb.c ****     {
 1831              		.loc 1 936 8 is_stmt 0 view .LVU641
 1832 0068 A006     		lsls	r0, r4, #26
 1833 006a 3BD4     		bmi	.L131
 1834              	.L126:
 938:STM32Cube_FW_N6/Drivers/STM32N6xx_HAL_Driver/Src/stm32n6xx_ll_usb.c ****       {
 1835              		.loc 1 938 7 is_stmt 1 view .LVU642
 940:STM32Cube_FW_N6/Drivers/STM32N6xx_HAL_Driver/Src/stm32n6xx_ll_usb.c **** 
 1836              		.loc 1 940 9 view .LVU643
 940:STM32Cube_FW_N6/Drivers/STM32N6xx_HAL_Driver/Src/stm32n6xx_ll_usb.c **** 
 1837              		.loc 1 940 14 is_stmt 0 view .LVU644
 1838 006c 0098     		ldr	r0, [sp]
 1839 006e 0130     		adds	r0, r0, #1
 1840 0070 0090     		str	r0, [sp]
 942:STM32Cube_FW_N6/Drivers/STM32N6xx_HAL_Driver/Src/stm32n6xx_ll_usb.c ****         {
 1841              		.loc 1 942 9 is_stmt 1 view .LVU645
 942:STM32Cube_FW_N6/Drivers/STM32N6xx_HAL_Driver/Src/stm32n6xx_ll_usb.c ****         {
 1842              		.loc 1 942 19 is_stmt 0 view .LVU646
 1843 0072 0098     		ldr	r0, [sp]
ARM GAS  C:\Users\DJESSOU\AppData\Local\Temp\ccOpSjVg.s 			page 69


 942:STM32Cube_FW_N6/Drivers/STM32N6xx_HAL_Driver/Src/stm32n6xx_ll_usb.c ****         {
 1844              		.loc 1 942 12 view .LVU647
 1845 0074 B0F5702F 		cmp	r0, #983040
 1846 0078 32D8     		bhi	.L132
 947:STM32Cube_FW_N6/Drivers/STM32N6xx_HAL_Driver/Src/stm32n6xx_ll_usb.c **** 
 1847              		.loc 1 947 84 is_stmt 1 view .LVU648
 947:STM32Cube_FW_N6/Drivers/STM32N6xx_HAL_Driver/Src/stm32n6xx_ll_usb.c **** 
 1848              		.loc 1 947 22 is_stmt 0 view .LVU649
 1849 007a 5869     		ldr	r0, [r3, #20]
 947:STM32Cube_FW_N6/Drivers/STM32N6xx_HAL_Driver/Src/stm32n6xx_ll_usb.c **** 
 1850              		.loc 1 947 84 view .LVU650
 1851 007c C506     		lsls	r5, r0, #27
 1852 007e F5D5     		bpl	.L126
 902:STM32Cube_FW_N6/Drivers/STM32N6xx_HAL_Driver/Src/stm32n6xx_ll_usb.c ****   uint32_t USBx_BASE = (uint32_t)USBx;
 1853              		.loc 1 902 21 view .LVU651
 1854 0080 0020     		movs	r0, #0
 1855              	.L125:
 1856              	.LVL105:
 950:STM32Cube_FW_N6/Drivers/STM32N6xx_HAL_Driver/Src/stm32n6xx_ll_usb.c ****       UNUSED(RegVal);
 1857              		.loc 1 950 7 is_stmt 1 view .LVU652
 950:STM32Cube_FW_N6/Drivers/STM32N6xx_HAL_Driver/Src/stm32n6xx_ll_usb.c ****       UNUSED(RegVal);
 1858              		.loc 1 950 20 is_stmt 0 view .LVU653
 1859 0082 1C6A     		ldr	r4, [r3, #32]
 1860              	.LVL106:
 950:STM32Cube_FW_N6/Drivers/STM32N6xx_HAL_Driver/Src/stm32n6xx_ll_usb.c ****       UNUSED(RegVal);
 1861              		.loc 1 950 14 view .LVU654
 1862 0084 0194     		str	r4, [sp, #4]
 951:STM32Cube_FW_N6/Drivers/STM32N6xx_HAL_Driver/Src/stm32n6xx_ll_usb.c ****     }
 1863              		.loc 1 951 7 is_stmt 1 view .LVU655
 1864 0086 019C     		ldr	r4, [sp, #4]
 1865              	.LVL107:
 1866              	.L124:
 955:STM32Cube_FW_N6/Drivers/STM32N6xx_HAL_Driver/Src/stm32n6xx_ll_usb.c **** 
 1867              		.loc 1 955 5 view .LVU656
 955:STM32Cube_FW_N6/Drivers/STM32N6xx_HAL_Driver/Src/stm32n6xx_ll_usb.c **** 
 1868              		.loc 1 955 11 is_stmt 0 view .LVU657
 1869 0088 0024     		movs	r4, #0
 1870 008a 0094     		str	r4, [sp]
 1871              	.L128:
 957:STM32Cube_FW_N6/Drivers/STM32N6xx_HAL_Driver/Src/stm32n6xx_ll_usb.c ****     {
 1872              		.loc 1 957 5 is_stmt 1 view .LVU658
 959:STM32Cube_FW_N6/Drivers/STM32N6xx_HAL_Driver/Src/stm32n6xx_ll_usb.c **** 
 1873              		.loc 1 959 7 view .LVU659
 959:STM32Cube_FW_N6/Drivers/STM32N6xx_HAL_Driver/Src/stm32n6xx_ll_usb.c **** 
 1874              		.loc 1 959 12 is_stmt 0 view .LVU660
 1875 008c 009C     		ldr	r4, [sp]
 1876 008e 0134     		adds	r4, r4, #1
 1877 0090 0094     		str	r4, [sp]
 961:STM32Cube_FW_N6/Drivers/STM32N6xx_HAL_Driver/Src/stm32n6xx_ll_usb.c ****       {
 1878              		.loc 1 961 7 is_stmt 1 view .LVU661
 961:STM32Cube_FW_N6/Drivers/STM32N6xx_HAL_Driver/Src/stm32n6xx_ll_usb.c ****       {
 1879              		.loc 1 961 17 is_stmt 0 view .LVU662
 1880 0092 009C     		ldr	r4, [sp]
 961:STM32Cube_FW_N6/Drivers/STM32N6xx_HAL_Driver/Src/stm32n6xx_ll_usb.c ****       {
 1881              		.loc 1 961 10 view .LVU663
 1882 0094 B4F5702F 		cmp	r4, #983040
 1883 0098 26D8     		bhi	.L133
ARM GAS  C:\Users\DJESSOU\AppData\Local\Temp\ccOpSjVg.s 			page 70


 967:STM32Cube_FW_N6/Drivers/STM32N6xx_HAL_Driver/Src/stm32n6xx_ll_usb.c **** 
 1884              		.loc 1 967 45 is_stmt 1 view .LVU664
 966:STM32Cube_FW_N6/Drivers/STM32N6xx_HAL_Driver/Src/stm32n6xx_ll_usb.c ****               & USB_OTG_GINTSTS_BOUTNAKEFF) != USB_OTG_GINTSTS_BOUTNAKEFF);
 1885              		.loc 1 966 20 is_stmt 0 view .LVU665
 1886 009a 5C69     		ldr	r4, [r3, #20]
 967:STM32Cube_FW_N6/Drivers/STM32N6xx_HAL_Driver/Src/stm32n6xx_ll_usb.c **** 
 1887              		.loc 1 967 45 view .LVU666
 1888 009c 2406     		lsls	r4, r4, #24
 1889 009e F5D5     		bpl	.L128
 1890              	.LVL108:
 1891              	.L127:
 969:STM32Cube_FW_N6/Drivers/STM32N6xx_HAL_Driver/Src/stm32n6xx_ll_usb.c ****     USBx_OUTEP(ep->num)->DOEPCTL |= (USB_OTG_DOEPCTL_EPDIS);
 1892              		.loc 1 969 5 is_stmt 1 view .LVU667
 969:STM32Cube_FW_N6/Drivers/STM32N6xx_HAL_Driver/Src/stm32n6xx_ll_usb.c ****     USBx_OUTEP(ep->num)->DOEPCTL |= (USB_OTG_DOEPCTL_EPDIS);
 1893              		.loc 1 969 24 is_stmt 0 view .LVU668
 1894 00a0 03F53063 		add	r3, r3, #2816
 1895              	.LVL109:
 969:STM32Cube_FW_N6/Drivers/STM32N6xx_HAL_Driver/Src/stm32n6xx_ll_usb.c ****     USBx_OUTEP(ep->num)->DOEPCTL |= (USB_OTG_DOEPCTL_EPDIS);
 1896              		.loc 1 969 24 view .LVU669
 1897 00a4 9D58     		ldr	r5, [r3, r2]
 1898 00a6 9C18     		adds	r4, r3, r2
 969:STM32Cube_FW_N6/Drivers/STM32N6xx_HAL_Driver/Src/stm32n6xx_ll_usb.c ****     USBx_OUTEP(ep->num)->DOEPCTL |= (USB_OTG_DOEPCTL_EPDIS);
 1899              		.loc 1 969 34 view .LVU670
 1900 00a8 45F00065 		orr	r5, r5, #134217728
 1901 00ac 9D50     		str	r5, [r3, r2]
 970:STM32Cube_FW_N6/Drivers/STM32N6xx_HAL_Driver/Src/stm32n6xx_ll_usb.c **** 
 1902              		.loc 1 970 5 is_stmt 1 view .LVU671
 970:STM32Cube_FW_N6/Drivers/STM32N6xx_HAL_Driver/Src/stm32n6xx_ll_usb.c **** 
 1903              		.loc 1 970 24 is_stmt 0 view .LVU672
 1904 00ae 9D58     		ldr	r5, [r3, r2]
 970:STM32Cube_FW_N6/Drivers/STM32N6xx_HAL_Driver/Src/stm32n6xx_ll_usb.c **** 
 1905              		.loc 1 970 34 view .LVU673
 1906 00b0 45F08045 		orr	r5, r5, #1073741824
 1907 00b4 9D50     		str	r5, [r3, r2]
 973:STM32Cube_FW_N6/Drivers/STM32N6xx_HAL_Driver/Src/stm32n6xx_ll_usb.c **** 
 1908              		.loc 1 973 5 is_stmt 1 view .LVU674
 973:STM32Cube_FW_N6/Drivers/STM32N6xx_HAL_Driver/Src/stm32n6xx_ll_usb.c **** 
 1909              		.loc 1 973 11 is_stmt 0 view .LVU675
 1910 00b6 0023     		movs	r3, #0
 1911 00b8 0093     		str	r3, [sp]
 1912              	.L130:
 975:STM32Cube_FW_N6/Drivers/STM32N6xx_HAL_Driver/Src/stm32n6xx_ll_usb.c ****     {
 1913              		.loc 1 975 5 is_stmt 1 view .LVU676
 977:STM32Cube_FW_N6/Drivers/STM32N6xx_HAL_Driver/Src/stm32n6xx_ll_usb.c **** 
 1914              		.loc 1 977 7 view .LVU677
 977:STM32Cube_FW_N6/Drivers/STM32N6xx_HAL_Driver/Src/stm32n6xx_ll_usb.c **** 
 1915              		.loc 1 977 12 is_stmt 0 view .LVU678
 1916 00ba 009B     		ldr	r3, [sp]
 1917 00bc 0133     		adds	r3, r3, #1
 1918 00be 0093     		str	r3, [sp]
 979:STM32Cube_FW_N6/Drivers/STM32N6xx_HAL_Driver/Src/stm32n6xx_ll_usb.c ****       {
 1919              		.loc 1 979 7 is_stmt 1 view .LVU679
 979:STM32Cube_FW_N6/Drivers/STM32N6xx_HAL_Driver/Src/stm32n6xx_ll_usb.c ****       {
 1920              		.loc 1 979 17 is_stmt 0 view .LVU680
 1921 00c0 009B     		ldr	r3, [sp]
 979:STM32Cube_FW_N6/Drivers/STM32N6xx_HAL_Driver/Src/stm32n6xx_ll_usb.c ****       {
 1922              		.loc 1 979 10 view .LVU681
ARM GAS  C:\Users\DJESSOU\AppData\Local\Temp\ccOpSjVg.s 			page 71


 1923 00c2 B3F5702F 		cmp	r3, #983040
 1924 00c6 11D8     		bhi	.L134
 985:STM32Cube_FW_N6/Drivers/STM32N6xx_HAL_Driver/Src/stm32n6xx_ll_usb.c **** 
 1925              		.loc 1 985 41 is_stmt 1 view .LVU682
 984:STM32Cube_FW_N6/Drivers/STM32N6xx_HAL_Driver/Src/stm32n6xx_ll_usb.c ****               & USB_OTG_DOEPINT_EPDISD) != USB_OTG_DOEPINT_EPDISD);
 1926              		.loc 1 984 35 is_stmt 0 view .LVU683
 1927 00c8 A368     		ldr	r3, [r4, #8]
 985:STM32Cube_FW_N6/Drivers/STM32N6xx_HAL_Driver/Src/stm32n6xx_ll_usb.c **** 
 1928              		.loc 1 985 41 view .LVU684
 1929 00ca 9B07     		lsls	r3, r3, #30
 1930 00cc F5D5     		bpl	.L130
 1931              	.LVL110:
 1932              	.L129:
 988:STM32Cube_FW_N6/Drivers/STM32N6xx_HAL_Driver/Src/stm32n6xx_ll_usb.c **** 
 1933              		.loc 1 988 5 is_stmt 1 view .LVU685
 988:STM32Cube_FW_N6/Drivers/STM32N6xx_HAL_Driver/Src/stm32n6xx_ll_usb.c **** 
 1934              		.loc 1 988 24 is_stmt 0 view .LVU686
 1935 00ce A368     		ldr	r3, [r4, #8]
 988:STM32Cube_FW_N6/Drivers/STM32N6xx_HAL_Driver/Src/stm32n6xx_ll_usb.c **** 
 1936              		.loc 1 988 34 view .LVU687
 1937 00d0 43F00203 		orr	r3, r3, #2
 1938 00d4 A360     		str	r3, [r4, #8]
 991:STM32Cube_FW_N6/Drivers/STM32N6xx_HAL_Driver/Src/stm32n6xx_ll_usb.c ****   }
 1939              		.loc 1 991 5 is_stmt 1 view .LVU688
 991:STM32Cube_FW_N6/Drivers/STM32N6xx_HAL_Driver/Src/stm32n6xx_ll_usb.c ****   }
 1940              		.loc 1 991 16 is_stmt 0 view .LVU689
 1941 00d6 4B68     		ldr	r3, [r1, #4]
 991:STM32Cube_FW_N6/Drivers/STM32N6xx_HAL_Driver/Src/stm32n6xx_ll_usb.c ****   }
 1942              		.loc 1 991 23 view .LVU690
 1943 00d8 43F48063 		orr	r3, r3, #1024
 1944 00dc 4B60     		str	r3, [r1, #4]
 1945 00de A1E7     		b	.L120
 1946              	.LVL111:
 1947              	.L132:
 944:STM32Cube_FW_N6/Drivers/STM32N6xx_HAL_Driver/Src/stm32n6xx_ll_usb.c ****           break;
 1948              		.loc 1 944 15 view .LVU691
 1949 00e0 0120     		movs	r0, #1
 1950 00e2 CEE7     		b	.L125
 1951              	.L131:
 902:STM32Cube_FW_N6/Drivers/STM32N6xx_HAL_Driver/Src/stm32n6xx_ll_usb.c ****   uint32_t USBx_BASE = (uint32_t)USBx;
 1952              		.loc 1 902 21 view .LVU692
 1953 00e4 0020     		movs	r0, #0
 1954 00e6 CFE7     		b	.L124
 1955              	.LVL112:
 1956              	.L133:
 963:STM32Cube_FW_N6/Drivers/STM32N6xx_HAL_Driver/Src/stm32n6xx_ll_usb.c ****         break;
 1957              		.loc 1 963 13 view .LVU693
 1958 00e8 0120     		movs	r0, #1
 1959              	.LVL113:
 963:STM32Cube_FW_N6/Drivers/STM32N6xx_HAL_Driver/Src/stm32n6xx_ll_usb.c ****         break;
 1960              		.loc 1 963 13 view .LVU694
 1961 00ea D9E7     		b	.L127
 1962              	.LVL114:
 1963              	.L134:
 981:STM32Cube_FW_N6/Drivers/STM32N6xx_HAL_Driver/Src/stm32n6xx_ll_usb.c ****         break;
 1964              		.loc 1 981 13 view .LVU695
 1965 00ec 0120     		movs	r0, #1
ARM GAS  C:\Users\DJESSOU\AppData\Local\Temp\ccOpSjVg.s 			page 72


 1966              	.LVL115:
 981:STM32Cube_FW_N6/Drivers/STM32N6xx_HAL_Driver/Src/stm32n6xx_ll_usb.c ****         break;
 1967              		.loc 1 981 13 view .LVU696
 1968 00ee EEE7     		b	.L129
 1969              		.cfi_endproc
 1970              	.LFE877:
 1972              		.section	.text.USB_EPSetStall,"ax",%progbits
 1973              		.align	1
 1974              		.global	USB_EPSetStall
 1975              		.syntax unified
 1976              		.thumb
 1977              		.thumb_func
 1979              	USB_EPSetStall:
 1980              	.LVL116:
 1981              	.LFB878:
1004:STM32Cube_FW_N6/Drivers/STM32N6xx_HAL_Driver/Src/stm32n6xx_ll_usb.c ****   uint32_t USBx_BASE = (uint32_t)USBx;
 1982              		.loc 1 1004 1 is_stmt 1 view -0
 1983              		.cfi_startproc
 1984              		@ args = 0, pretend = 0, frame = 0
 1985              		@ frame_needed = 0, uses_anonymous_args = 0
 1986              		@ link register save eliminated.
1005:STM32Cube_FW_N6/Drivers/STM32N6xx_HAL_Driver/Src/stm32n6xx_ll_usb.c ****   uint32_t epnum = (uint32_t)ep->num;
 1987              		.loc 1 1005 3 view .LVU698
1006:STM32Cube_FW_N6/Drivers/STM32N6xx_HAL_Driver/Src/stm32n6xx_ll_usb.c **** 
 1988              		.loc 1 1006 3 view .LVU699
1008:STM32Cube_FW_N6/Drivers/STM32N6xx_HAL_Driver/Src/stm32n6xx_ll_usb.c ****   {
 1989              		.loc 1 1008 6 is_stmt 0 view .LVU700
 1990 0000 4A78     		ldrb	r2, [r1, #1]	@ zero_extendqisi2
1006:STM32Cube_FW_N6/Drivers/STM32N6xx_HAL_Driver/Src/stm32n6xx_ll_usb.c **** 
 1991              		.loc 1 1006 32 view .LVU701
 1992 0002 0B78     		ldrb	r3, [r1]	@ zero_extendqisi2
 1993              	.LVL117:
1008:STM32Cube_FW_N6/Drivers/STM32N6xx_HAL_Driver/Src/stm32n6xx_ll_usb.c ****   {
 1994              		.loc 1 1008 3 is_stmt 1 view .LVU702
1008:STM32Cube_FW_N6/Drivers/STM32N6xx_HAL_Driver/Src/stm32n6xx_ll_usb.c ****   {
 1995              		.loc 1 1008 6 is_stmt 0 view .LVU703
 1996 0004 012A     		cmp	r2, #1
1010:STM32Cube_FW_N6/Drivers/STM32N6xx_HAL_Driver/Src/stm32n6xx_ll_usb.c ****     {
 1997              		.loc 1 1010 11 view .LVU704
 1998 0006 00EB4310 		add	r0, r0, r3, lsl #5
 1999              	.LVL118:
1008:STM32Cube_FW_N6/Drivers/STM32N6xx_HAL_Driver/Src/stm32n6xx_ll_usb.c ****   {
 2000              		.loc 1 1008 6 view .LVU705
 2001 000a 12D1     		bne	.L143
1010:STM32Cube_FW_N6/Drivers/STM32N6xx_HAL_Driver/Src/stm32n6xx_ll_usb.c ****     {
 2002              		.loc 1 1010 5 is_stmt 1 view .LVU706
1010:STM32Cube_FW_N6/Drivers/STM32N6xx_HAL_Driver/Src/stm32n6xx_ll_usb.c ****     {
 2003              		.loc 1 1010 27 is_stmt 0 view .LVU707
 2004 000c D0F80029 		ldr	r2, [r0, #2304]
1010:STM32Cube_FW_N6/Drivers/STM32N6xx_HAL_Driver/Src/stm32n6xx_ll_usb.c ****     {
 2005              		.loc 1 1010 8 view .LVU708
 2006 0010 002A     		cmp	r2, #0
 2007 0012 06DB     		blt	.L144
1010:STM32Cube_FW_N6/Drivers/STM32N6xx_HAL_Driver/Src/stm32n6xx_ll_usb.c ****     {
 2008              		.loc 1 1010 69 discriminator 1 view .LVU709
 2009 0014 2BB1     		cbz	r3, .L144
1012:STM32Cube_FW_N6/Drivers/STM32N6xx_HAL_Driver/Src/stm32n6xx_ll_usb.c ****     }
ARM GAS  C:\Users\DJESSOU\AppData\Local\Temp\ccOpSjVg.s 			page 73


 2010              		.loc 1 1012 7 is_stmt 1 view .LVU710
1012:STM32Cube_FW_N6/Drivers/STM32N6xx_HAL_Driver/Src/stm32n6xx_ll_usb.c ****     }
 2011              		.loc 1 1012 23 is_stmt 0 view .LVU711
 2012 0016 D0F80039 		ldr	r3, [r0, #2304]
 2013              	.LVL119:
1012:STM32Cube_FW_N6/Drivers/STM32N6xx_HAL_Driver/Src/stm32n6xx_ll_usb.c ****     }
 2014              		.loc 1 1012 33 view .LVU712
 2015 001a 23F08043 		bic	r3, r3, #1073741824
 2016 001e C0F80039 		str	r3, [r0, #2304]
 2017              	.LVL120:
 2018              	.L144:
1014:STM32Cube_FW_N6/Drivers/STM32N6xx_HAL_Driver/Src/stm32n6xx_ll_usb.c ****   }
 2019              		.loc 1 1014 5 is_stmt 1 view .LVU713
1014:STM32Cube_FW_N6/Drivers/STM32N6xx_HAL_Driver/Src/stm32n6xx_ll_usb.c ****   }
 2020              		.loc 1 1014 21 is_stmt 0 view .LVU714
 2021 0022 D0F80039 		ldr	r3, [r0, #2304]
1014:STM32Cube_FW_N6/Drivers/STM32N6xx_HAL_Driver/Src/stm32n6xx_ll_usb.c ****   }
 2022              		.loc 1 1014 31 view .LVU715
 2023 0026 43F40013 		orr	r3, r3, #2097152
 2024 002a C0F80039 		str	r3, [r0, #2304]
 2025              	.L145:
1025:STM32Cube_FW_N6/Drivers/STM32N6xx_HAL_Driver/Src/stm32n6xx_ll_usb.c **** }
 2026              		.loc 1 1025 3 is_stmt 1 view .LVU716
1026:STM32Cube_FW_N6/Drivers/STM32N6xx_HAL_Driver/Src/stm32n6xx_ll_usb.c **** 
 2027              		.loc 1 1026 1 is_stmt 0 view .LVU717
 2028 002e 0020     		movs	r0, #0
 2029 0030 7047     		bx	lr
 2030              	.LVL121:
 2031              	.L143:
1018:STM32Cube_FW_N6/Drivers/STM32N6xx_HAL_Driver/Src/stm32n6xx_ll_usb.c ****     {
 2032              		.loc 1 1018 5 is_stmt 1 view .LVU718
1018:STM32Cube_FW_N6/Drivers/STM32N6xx_HAL_Driver/Src/stm32n6xx_ll_usb.c ****     {
 2033              		.loc 1 1018 28 is_stmt 0 view .LVU719
 2034 0032 D0F8002B 		ldr	r2, [r0, #2816]
1018:STM32Cube_FW_N6/Drivers/STM32N6xx_HAL_Driver/Src/stm32n6xx_ll_usb.c ****     {
 2035              		.loc 1 1018 8 view .LVU720
 2036 0036 002A     		cmp	r2, #0
 2037 0038 06DB     		blt	.L146
1018:STM32Cube_FW_N6/Drivers/STM32N6xx_HAL_Driver/Src/stm32n6xx_ll_usb.c ****     {
 2038              		.loc 1 1018 70 discriminator 1 view .LVU721
 2039 003a 2BB1     		cbz	r3, .L146
1020:STM32Cube_FW_N6/Drivers/STM32N6xx_HAL_Driver/Src/stm32n6xx_ll_usb.c ****     }
 2040              		.loc 1 1020 7 is_stmt 1 view .LVU722
1020:STM32Cube_FW_N6/Drivers/STM32N6xx_HAL_Driver/Src/stm32n6xx_ll_usb.c ****     }
 2041              		.loc 1 1020 24 is_stmt 0 view .LVU723
 2042 003c D0F8003B 		ldr	r3, [r0, #2816]
 2043              	.LVL122:
1020:STM32Cube_FW_N6/Drivers/STM32N6xx_HAL_Driver/Src/stm32n6xx_ll_usb.c ****     }
 2044              		.loc 1 1020 34 view .LVU724
 2045 0040 23F08043 		bic	r3, r3, #1073741824
 2046 0044 C0F8003B 		str	r3, [r0, #2816]
 2047              	.LVL123:
 2048              	.L146:
1022:STM32Cube_FW_N6/Drivers/STM32N6xx_HAL_Driver/Src/stm32n6xx_ll_usb.c ****   }
 2049              		.loc 1 1022 5 is_stmt 1 view .LVU725
1022:STM32Cube_FW_N6/Drivers/STM32N6xx_HAL_Driver/Src/stm32n6xx_ll_usb.c ****   }
 2050              		.loc 1 1022 22 is_stmt 0 view .LVU726
ARM GAS  C:\Users\DJESSOU\AppData\Local\Temp\ccOpSjVg.s 			page 74


 2051 0048 D0F8003B 		ldr	r3, [r0, #2816]
1022:STM32Cube_FW_N6/Drivers/STM32N6xx_HAL_Driver/Src/stm32n6xx_ll_usb.c ****   }
 2052              		.loc 1 1022 32 view .LVU727
 2053 004c 43F40013 		orr	r3, r3, #2097152
 2054 0050 C0F8003B 		str	r3, [r0, #2816]
 2055 0054 EBE7     		b	.L145
 2056              		.cfi_endproc
 2057              	.LFE878:
 2059              		.section	.text.USB_EPClearStall,"ax",%progbits
 2060              		.align	1
 2061              		.global	USB_EPClearStall
 2062              		.syntax unified
 2063              		.thumb
 2064              		.thumb_func
 2066              	USB_EPClearStall:
 2067              	.LVL124:
 2068              	.LFB879:
1035:STM32Cube_FW_N6/Drivers/STM32N6xx_HAL_Driver/Src/stm32n6xx_ll_usb.c ****   uint32_t USBx_BASE = (uint32_t)USBx;
 2069              		.loc 1 1035 1 is_stmt 1 view -0
 2070              		.cfi_startproc
 2071              		@ args = 0, pretend = 0, frame = 0
 2072              		@ frame_needed = 0, uses_anonymous_args = 0
 2073              		@ link register save eliminated.
1036:STM32Cube_FW_N6/Drivers/STM32N6xx_HAL_Driver/Src/stm32n6xx_ll_usb.c ****   uint32_t epnum = (uint32_t)ep->num;
 2074              		.loc 1 1036 3 view .LVU729
1037:STM32Cube_FW_N6/Drivers/STM32N6xx_HAL_Driver/Src/stm32n6xx_ll_usb.c **** 
 2075              		.loc 1 1037 3 view .LVU730
1039:STM32Cube_FW_N6/Drivers/STM32N6xx_HAL_Driver/Src/stm32n6xx_ll_usb.c ****   {
 2076              		.loc 1 1039 3 view .LVU731
1041:STM32Cube_FW_N6/Drivers/STM32N6xx_HAL_Driver/Src/stm32n6xx_ll_usb.c ****     if ((ep->type == EP_TYPE_INTR) || (ep->type == EP_TYPE_BULK))
 2077              		.loc 1 1041 21 is_stmt 0 view .LVU732
 2078 0000 0B78     		ldrb	r3, [r1]	@ zero_extendqisi2
 2079              	.LVL125:
1039:STM32Cube_FW_N6/Drivers/STM32N6xx_HAL_Driver/Src/stm32n6xx_ll_usb.c ****   {
 2080              		.loc 1 1039 6 view .LVU733
 2081 0002 4A78     		ldrb	r2, [r1, #1]	@ zero_extendqisi2
1041:STM32Cube_FW_N6/Drivers/STM32N6xx_HAL_Driver/Src/stm32n6xx_ll_usb.c ****     if ((ep->type == EP_TYPE_INTR) || (ep->type == EP_TYPE_BULK))
 2082              		.loc 1 1041 21 view .LVU734
 2083 0004 00EB4310 		add	r0, r0, r3, lsl #5
 2084              	.LVL126:
1042:STM32Cube_FW_N6/Drivers/STM32N6xx_HAL_Driver/Src/stm32n6xx_ll_usb.c ****     {
 2085              		.loc 1 1042 36 view .LVU735
 2086 0008 0B79     		ldrb	r3, [r1, #4]	@ zero_extendqisi2
 2087              	.LVL127:
1039:STM32Cube_FW_N6/Drivers/STM32N6xx_HAL_Driver/Src/stm32n6xx_ll_usb.c ****   {
 2088              		.loc 1 1039 6 view .LVU736
 2089 000a 012A     		cmp	r2, #1
1042:STM32Cube_FW_N6/Drivers/STM32N6xx_HAL_Driver/Src/stm32n6xx_ll_usb.c ****     {
 2090              		.loc 1 1042 36 view .LVU737
 2091 000c A3F10203 		sub	r3, r3, #2
 2092 0010 DBB2     		uxtb	r3, r3
1039:STM32Cube_FW_N6/Drivers/STM32N6xx_HAL_Driver/Src/stm32n6xx_ll_usb.c ****   {
 2093              		.loc 1 1039 6 view .LVU738
 2094 0012 0FD1     		bne	.L154
1041:STM32Cube_FW_N6/Drivers/STM32N6xx_HAL_Driver/Src/stm32n6xx_ll_usb.c ****     if ((ep->type == EP_TYPE_INTR) || (ep->type == EP_TYPE_BULK))
 2095              		.loc 1 1041 5 is_stmt 1 view .LVU739
1041:STM32Cube_FW_N6/Drivers/STM32N6xx_HAL_Driver/Src/stm32n6xx_ll_usb.c ****     if ((ep->type == EP_TYPE_INTR) || (ep->type == EP_TYPE_BULK))
ARM GAS  C:\Users\DJESSOU\AppData\Local\Temp\ccOpSjVg.s 			page 75


 2096              		.loc 1 1041 21 is_stmt 0 view .LVU740
 2097 0014 D0F80029 		ldr	r2, [r0, #2304]
1042:STM32Cube_FW_N6/Drivers/STM32N6xx_HAL_Driver/Src/stm32n6xx_ll_usb.c ****     {
 2098              		.loc 1 1042 8 view .LVU741
 2099 0018 012B     		cmp	r3, #1
1041:STM32Cube_FW_N6/Drivers/STM32N6xx_HAL_Driver/Src/stm32n6xx_ll_usb.c ****     if ((ep->type == EP_TYPE_INTR) || (ep->type == EP_TYPE_BULK))
 2100              		.loc 1 1041 31 view .LVU742
 2101 001a 22F40012 		bic	r2, r2, #2097152
 2102 001e C0F80029 		str	r2, [r0, #2304]
 2103              	.LVL128:
1042:STM32Cube_FW_N6/Drivers/STM32N6xx_HAL_Driver/Src/stm32n6xx_ll_usb.c ****     {
 2104              		.loc 1 1042 5 is_stmt 1 view .LVU743
1042:STM32Cube_FW_N6/Drivers/STM32N6xx_HAL_Driver/Src/stm32n6xx_ll_usb.c ****     {
 2105              		.loc 1 1042 8 is_stmt 0 view .LVU744
 2106 0022 05D8     		bhi	.L156
1044:STM32Cube_FW_N6/Drivers/STM32N6xx_HAL_Driver/Src/stm32n6xx_ll_usb.c ****     }
 2107              		.loc 1 1044 7 is_stmt 1 view .LVU745
1044:STM32Cube_FW_N6/Drivers/STM32N6xx_HAL_Driver/Src/stm32n6xx_ll_usb.c ****     }
 2108              		.loc 1 1044 23 is_stmt 0 view .LVU746
 2109 0024 D0F80039 		ldr	r3, [r0, #2304]
1044:STM32Cube_FW_N6/Drivers/STM32N6xx_HAL_Driver/Src/stm32n6xx_ll_usb.c ****     }
 2110              		.loc 1 1044 33 view .LVU747
 2111 0028 43F08053 		orr	r3, r3, #268435456
 2112 002c C0F80039 		str	r3, [r0, #2304]
 2113              	.L156:
1055:STM32Cube_FW_N6/Drivers/STM32N6xx_HAL_Driver/Src/stm32n6xx_ll_usb.c **** }
 2114              		.loc 1 1055 3 is_stmt 1 view .LVU748
1056:STM32Cube_FW_N6/Drivers/STM32N6xx_HAL_Driver/Src/stm32n6xx_ll_usb.c **** #endif /* defined (HAL_PCD_MODULE_ENABLED) */
 2115              		.loc 1 1056 1 is_stmt 0 view .LVU749
 2116 0030 0020     		movs	r0, #0
 2117 0032 7047     		bx	lr
 2118              	.LVL129:
 2119              	.L154:
1049:STM32Cube_FW_N6/Drivers/STM32N6xx_HAL_Driver/Src/stm32n6xx_ll_usb.c ****     if ((ep->type == EP_TYPE_INTR) || (ep->type == EP_TYPE_BULK))
 2120              		.loc 1 1049 5 is_stmt 1 view .LVU750
1049:STM32Cube_FW_N6/Drivers/STM32N6xx_HAL_Driver/Src/stm32n6xx_ll_usb.c ****     if ((ep->type == EP_TYPE_INTR) || (ep->type == EP_TYPE_BULK))
 2121              		.loc 1 1049 22 is_stmt 0 view .LVU751
 2122 0034 D0F8002B 		ldr	r2, [r0, #2816]
1050:STM32Cube_FW_N6/Drivers/STM32N6xx_HAL_Driver/Src/stm32n6xx_ll_usb.c ****     {
 2123              		.loc 1 1050 8 view .LVU752
 2124 0038 012B     		cmp	r3, #1
1049:STM32Cube_FW_N6/Drivers/STM32N6xx_HAL_Driver/Src/stm32n6xx_ll_usb.c ****     if ((ep->type == EP_TYPE_INTR) || (ep->type == EP_TYPE_BULK))
 2125              		.loc 1 1049 32 view .LVU753
 2126 003a 22F40012 		bic	r2, r2, #2097152
 2127 003e C0F8002B 		str	r2, [r0, #2816]
 2128              	.LVL130:
1050:STM32Cube_FW_N6/Drivers/STM32N6xx_HAL_Driver/Src/stm32n6xx_ll_usb.c ****     {
 2129              		.loc 1 1050 5 is_stmt 1 view .LVU754
1052:STM32Cube_FW_N6/Drivers/STM32N6xx_HAL_Driver/Src/stm32n6xx_ll_usb.c ****     }
 2130              		.loc 1 1052 7 view .LVU755
1052:STM32Cube_FW_N6/Drivers/STM32N6xx_HAL_Driver/Src/stm32n6xx_ll_usb.c ****     }
 2131              		.loc 1 1052 24 is_stmt 0 view .LVU756
 2132 0042 9EBF     		ittt	ls
 2133 0044 D0F8003B 		ldrls	r3, [r0, #2816]
1052:STM32Cube_FW_N6/Drivers/STM32N6xx_HAL_Driver/Src/stm32n6xx_ll_usb.c ****     }
 2134              		.loc 1 1052 34 view .LVU757
 2135 0048 43F08053 		orrls	r3, r3, #268435456
ARM GAS  C:\Users\DJESSOU\AppData\Local\Temp\ccOpSjVg.s 			page 76


 2136 004c C0F8003B 		strls	r3, [r0, #2816]
 2137 0050 EEE7     		b	.L156
 2138              		.cfi_endproc
 2139              	.LFE879:
 2141              		.section	.text.USB_WritePacket,"ax",%progbits
 2142              		.align	1
 2143              		.global	USB_WritePacket
 2144              		.syntax unified
 2145              		.thumb
 2146              		.thumb_func
 2148              	USB_WritePacket:
 2149              	.LVL131:
 2150              	.LFB880:
1074:STM32Cube_FW_N6/Drivers/STM32N6xx_HAL_Driver/Src/stm32n6xx_ll_usb.c ****   uint32_t USBx_BASE = (uint32_t)USBx;
 2151              		.loc 1 1074 1 is_stmt 1 view -0
 2152              		.cfi_startproc
 2153              		@ args = 4, pretend = 0, frame = 0
 2154              		@ frame_needed = 0, uses_anonymous_args = 0
1075:STM32Cube_FW_N6/Drivers/STM32N6xx_HAL_Driver/Src/stm32n6xx_ll_usb.c ****   uint8_t *pSrc = src;
 2155              		.loc 1 1075 3 view .LVU759
1076:STM32Cube_FW_N6/Drivers/STM32N6xx_HAL_Driver/Src/stm32n6xx_ll_usb.c ****   uint32_t count32b;
 2156              		.loc 1 1076 3 view .LVU760
1077:STM32Cube_FW_N6/Drivers/STM32N6xx_HAL_Driver/Src/stm32n6xx_ll_usb.c ****   uint32_t i;
 2157              		.loc 1 1077 3 view .LVU761
1078:STM32Cube_FW_N6/Drivers/STM32N6xx_HAL_Driver/Src/stm32n6xx_ll_usb.c **** 
 2158              		.loc 1 1078 3 view .LVU762
1080:STM32Cube_FW_N6/Drivers/STM32N6xx_HAL_Driver/Src/stm32n6xx_ll_usb.c ****   {
 2159              		.loc 1 1080 3 view .LVU763
1074:STM32Cube_FW_N6/Drivers/STM32N6xx_HAL_Driver/Src/stm32n6xx_ll_usb.c ****   uint32_t USBx_BASE = (uint32_t)USBx;
 2160              		.loc 1 1074 1 is_stmt 0 view .LVU764
 2161 0000 10B5     		push	{r4, lr}
 2162              		.cfi_def_cfa_offset 8
 2163              		.cfi_offset 4, -8
 2164              		.cfi_offset 14, -4
1074:STM32Cube_FW_N6/Drivers/STM32N6xx_HAL_Driver/Src/stm32n6xx_ll_usb.c ****   uint32_t USBx_BASE = (uint32_t)USBx;
 2165              		.loc 1 1074 1 view .LVU765
 2166 0002 9DF80840 		ldrb	r4, [sp, #8]	@ zero_extendqisi2
1080:STM32Cube_FW_N6/Drivers/STM32N6xx_HAL_Driver/Src/stm32n6xx_ll_usb.c ****   {
 2167              		.loc 1 1080 6 view .LVU766
 2168 0006 3CB9     		cbnz	r4, .L163
1082:STM32Cube_FW_N6/Drivers/STM32N6xx_HAL_Driver/Src/stm32n6xx_ll_usb.c ****     for (i = 0U; i < count32b; i++)
 2169              		.loc 1 1082 5 is_stmt 1 view .LVU767
 2170              	.LVL132:
1083:STM32Cube_FW_N6/Drivers/STM32N6xx_HAL_Driver/Src/stm32n6xx_ll_usb.c ****     {
 2171              		.loc 1 1083 5 view .LVU768
1082:STM32Cube_FW_N6/Drivers/STM32N6xx_HAL_Driver/Src/stm32n6xx_ll_usb.c ****     for (i = 0U; i < count32b; i++)
 2172              		.loc 1 1082 31 is_stmt 0 view .LVU769
 2173 0008 0333     		adds	r3, r3, #3
 2174              	.LVL133:
1085:STM32Cube_FW_N6/Drivers/STM32N6xx_HAL_Driver/Src/stm32n6xx_ll_usb.c ****       pSrc++;
 2175              		.loc 1 1085 7 view .LVU770
 2176 000a 0132     		adds	r2, r2, #1
 2177              	.LVL134:
1085:STM32Cube_FW_N6/Drivers/STM32N6xx_HAL_Driver/Src/stm32n6xx_ll_usb.c ****       pSrc++;
 2178              		.loc 1 1085 7 view .LVU771
 2179 000c 9B08     		lsrs	r3, r3, #2
 2180              	.LVL135:
ARM GAS  C:\Users\DJESSOU\AppData\Local\Temp\ccOpSjVg.s 			page 77


1085:STM32Cube_FW_N6/Drivers/STM32N6xx_HAL_Driver/Src/stm32n6xx_ll_usb.c ****       pSrc++;
 2181              		.loc 1 1085 7 view .LVU772
 2182 000e 00EB0230 		add	r0, r0, r2, lsl #12
 2183              	.LVL136:
1085:STM32Cube_FW_N6/Drivers/STM32N6xx_HAL_Driver/Src/stm32n6xx_ll_usb.c ****       pSrc++;
 2184              		.loc 1 1085 7 view .LVU773
 2185 0012 0133     		adds	r3, r3, #1
 2186              	.LVL137:
 2187              	.L160:
1083:STM32Cube_FW_N6/Drivers/STM32N6xx_HAL_Driver/Src/stm32n6xx_ll_usb.c ****     {
 2188              		.loc 1 1083 20 is_stmt 1 discriminator 1 view .LVU774
 2189 0014 013B     		subs	r3, r3, #1
 2190 0016 01D1     		bne	.L161
 2191              	.LVL138:
 2192              	.L163:
1094:STM32Cube_FW_N6/Drivers/STM32N6xx_HAL_Driver/Src/stm32n6xx_ll_usb.c **** 
 2193              		.loc 1 1094 1 is_stmt 0 view .LVU775
 2194 0018 0020     		movs	r0, #0
 2195 001a 10BD     		pop	{r4, pc}
 2196              	.LVL139:
 2197              	.L161:
1085:STM32Cube_FW_N6/Drivers/STM32N6xx_HAL_Driver/Src/stm32n6xx_ll_usb.c ****       pSrc++;
 2198              		.loc 1 1085 7 is_stmt 1 view .LVU776
1085:STM32Cube_FW_N6/Drivers/STM32N6xx_HAL_Driver/Src/stm32n6xx_ll_usb.c ****       pSrc++;
 2199              		.loc 1 1085 41 is_stmt 0 view .LVU777
 2200 001c 51F8042B 		ldr	r2, [r1], #4	@ unaligned
 2201              	.LVL140:
1085:STM32Cube_FW_N6/Drivers/STM32N6xx_HAL_Driver/Src/stm32n6xx_ll_usb.c ****       pSrc++;
 2202              		.loc 1 1085 39 view .LVU778
 2203 0020 0260     		str	r2, [r0]
1086:STM32Cube_FW_N6/Drivers/STM32N6xx_HAL_Driver/Src/stm32n6xx_ll_usb.c ****       pSrc++;
 2204              		.loc 1 1086 7 is_stmt 1 view .LVU779
 2205              	.LVL141:
1087:STM32Cube_FW_N6/Drivers/STM32N6xx_HAL_Driver/Src/stm32n6xx_ll_usb.c ****       pSrc++;
 2206              		.loc 1 1087 7 view .LVU780
1088:STM32Cube_FW_N6/Drivers/STM32N6xx_HAL_Driver/Src/stm32n6xx_ll_usb.c ****       pSrc++;
 2207              		.loc 1 1088 7 view .LVU781
1089:STM32Cube_FW_N6/Drivers/STM32N6xx_HAL_Driver/Src/stm32n6xx_ll_usb.c ****     }
 2208              		.loc 1 1089 7 view .LVU782
1083:STM32Cube_FW_N6/Drivers/STM32N6xx_HAL_Driver/Src/stm32n6xx_ll_usb.c ****     {
 2209              		.loc 1 1083 33 discriminator 3 view .LVU783
 2210 0022 F7E7     		b	.L160
 2211              		.cfi_endproc
 2212              	.LFE880:
 2214              		.section	.text.USB_EPStartXfer,"ax",%progbits
 2215              		.align	1
 2216              		.global	USB_EPStartXfer
 2217              		.syntax unified
 2218              		.thumb
 2219              		.thumb_func
 2221              	USB_EPStartXfer:
 2222              	.LVL142:
 2223              	.LFB876:
 727:STM32Cube_FW_N6/Drivers/STM32N6xx_HAL_Driver/Src/stm32n6xx_ll_usb.c ****   uint32_t USBx_BASE = (uint32_t)USBx;
 2224              		.loc 1 727 1 view -0
 2225              		.cfi_startproc
 2226              		@ args = 0, pretend = 0, frame = 0
ARM GAS  C:\Users\DJESSOU\AppData\Local\Temp\ccOpSjVg.s 			page 78


 2227              		@ frame_needed = 0, uses_anonymous_args = 0
 728:STM32Cube_FW_N6/Drivers/STM32N6xx_HAL_Driver/Src/stm32n6xx_ll_usb.c ****   uint32_t epnum = (uint32_t)ep->num;
 2228              		.loc 1 728 3 view .LVU785
 729:STM32Cube_FW_N6/Drivers/STM32N6xx_HAL_Driver/Src/stm32n6xx_ll_usb.c ****   uint16_t pktcnt;
 2229              		.loc 1 729 3 view .LVU786
 727:STM32Cube_FW_N6/Drivers/STM32N6xx_HAL_Driver/Src/stm32n6xx_ll_usb.c ****   uint32_t USBx_BASE = (uint32_t)USBx;
 2230              		.loc 1 727 1 is_stmt 0 view .LVU787
 2231 0000 2DE9F341 		push	{r0, r1, r4, r5, r6, r7, r8, lr}
 2232              		.cfi_def_cfa_offset 32
 2233              		.cfi_offset 4, -24
 2234              		.cfi_offset 5, -20
 2235              		.cfi_offset 6, -16
 2236              		.cfi_offset 7, -12
 2237              		.cfi_offset 8, -8
 2238              		.cfi_offset 14, -4
 733:STM32Cube_FW_N6/Drivers/STM32N6xx_HAL_Driver/Src/stm32n6xx_ll_usb.c ****   {
 2239              		.loc 1 733 6 view .LVU788
 2240 0004 4B78     		ldrb	r3, [r1, #1]	@ zero_extendqisi2
 727:STM32Cube_FW_N6/Drivers/STM32N6xx_HAL_Driver/Src/stm32n6xx_ll_usb.c ****   uint32_t USBx_BASE = (uint32_t)USBx;
 2241              		.loc 1 727 1 view .LVU789
 2242 0006 1646     		mov	r6, r2
 729:STM32Cube_FW_N6/Drivers/STM32N6xx_HAL_Driver/Src/stm32n6xx_ll_usb.c ****   uint16_t pktcnt;
 2243              		.loc 1 729 32 view .LVU790
 2244 0008 0A78     		ldrb	r2, [r1]	@ zero_extendqisi2
 2245              	.LVL143:
 730:STM32Cube_FW_N6/Drivers/STM32N6xx_HAL_Driver/Src/stm32n6xx_ll_usb.c **** 
 2246              		.loc 1 730 3 is_stmt 1 view .LVU791
 733:STM32Cube_FW_N6/Drivers/STM32N6xx_HAL_Driver/Src/stm32n6xx_ll_usb.c ****   {
 2247              		.loc 1 733 3 view .LVU792
 733:STM32Cube_FW_N6/Drivers/STM32N6xx_HAL_Driver/Src/stm32n6xx_ll_usb.c ****   {
 2248              		.loc 1 733 6 is_stmt 0 view .LVU793
 2249 000a 012B     		cmp	r3, #1
 736:STM32Cube_FW_N6/Drivers/STM32N6xx_HAL_Driver/Src/stm32n6xx_ll_usb.c ****     {
 2250              		.loc 1 736 11 view .LVU794
 2251 000c 0C69     		ldr	r4, [r1, #16]
 766:STM32Cube_FW_N6/Drivers/STM32N6xx_HAL_Driver/Src/stm32n6xx_ll_usb.c ****         {
 2252              		.loc 1 766 15 view .LVU795
 2253 000e 0F79     		ldrb	r7, [r1, #4]	@ zero_extendqisi2
 2254 0010 DFF8E8E1 		ldr	lr, .L205+4
 2255 0014 DFF8E881 		ldr	r8, .L205+8
 738:STM32Cube_FW_N6/Drivers/STM32N6xx_HAL_Driver/Src/stm32n6xx_ll_usb.c ****       USBx_INEP(epnum)->DIEPTSIZ |= (USB_OTG_DIEPTSIZ_PKTCNT & (1UL << 19));
 2256              		.loc 1 738 23 view .LVU796
 2257 0018 00EB4215 		add	r5, r0, r2, lsl #5
 733:STM32Cube_FW_N6/Drivers/STM32N6xx_HAL_Driver/Src/stm32n6xx_ll_usb.c ****   {
 2258              		.loc 1 733 6 view .LVU797
 2259 001c 40F09780 		bne	.L165
 736:STM32Cube_FW_N6/Drivers/STM32N6xx_HAL_Driver/Src/stm32n6xx_ll_usb.c ****     {
 2260              		.loc 1 736 5 is_stmt 1 view .LVU798
 738:STM32Cube_FW_N6/Drivers/STM32N6xx_HAL_Driver/Src/stm32n6xx_ll_usb.c ****       USBx_INEP(epnum)->DIEPTSIZ |= (USB_OTG_DIEPTSIZ_PKTCNT & (1UL << 19));
 2261              		.loc 1 738 23 is_stmt 0 view .LVU799
 2262 0020 05F5106C 		add	ip, r5, #2304
 2263 0024 DCF81030 		ldr	r3, [ip, #16]
 736:STM32Cube_FW_N6/Drivers/STM32N6xx_HAL_Driver/Src/stm32n6xx_ll_usb.c ****     {
 2264              		.loc 1 736 8 view .LVU800
 2265 0028 74BB     		cbnz	r4, .L166
 738:STM32Cube_FW_N6/Drivers/STM32N6xx_HAL_Driver/Src/stm32n6xx_ll_usb.c ****       USBx_INEP(epnum)->DIEPTSIZ |= (USB_OTG_DIEPTSIZ_PKTCNT & (1UL << 19));
 2266              		.loc 1 738 7 is_stmt 1 view .LVU801
ARM GAS  C:\Users\DJESSOU\AppData\Local\Temp\ccOpSjVg.s 			page 79


 738:STM32Cube_FW_N6/Drivers/STM32N6xx_HAL_Driver/Src/stm32n6xx_ll_usb.c ****       USBx_INEP(epnum)->DIEPTSIZ |= (USB_OTG_DIEPTSIZ_PKTCNT & (1UL << 19));
 2267              		.loc 1 738 34 is_stmt 0 view .LVU802
 2268 002a 03EA0E03 		and	r3, r3, lr
 2269 002e CCF81030 		str	r3, [ip, #16]
 739:STM32Cube_FW_N6/Drivers/STM32N6xx_HAL_Driver/Src/stm32n6xx_ll_usb.c ****       USBx_INEP(epnum)->DIEPTSIZ &= ~(USB_OTG_DIEPTSIZ_XFRSIZ);
 2270              		.loc 1 739 7 is_stmt 1 view .LVU803
 739:STM32Cube_FW_N6/Drivers/STM32N6xx_HAL_Driver/Src/stm32n6xx_ll_usb.c ****       USBx_INEP(epnum)->DIEPTSIZ &= ~(USB_OTG_DIEPTSIZ_XFRSIZ);
 2271              		.loc 1 739 23 is_stmt 0 view .LVU804
 2272 0032 DCF81030 		ldr	r3, [ip, #16]
 739:STM32Cube_FW_N6/Drivers/STM32N6xx_HAL_Driver/Src/stm32n6xx_ll_usb.c ****       USBx_INEP(epnum)->DIEPTSIZ &= ~(USB_OTG_DIEPTSIZ_XFRSIZ);
 2273              		.loc 1 739 34 view .LVU805
 2274 0036 43F40023 		orr	r3, r3, #524288
 2275 003a CCF81030 		str	r3, [ip, #16]
 740:STM32Cube_FW_N6/Drivers/STM32N6xx_HAL_Driver/Src/stm32n6xx_ll_usb.c ****     }
 2276              		.loc 1 740 7 is_stmt 1 view .LVU806
 740:STM32Cube_FW_N6/Drivers/STM32N6xx_HAL_Driver/Src/stm32n6xx_ll_usb.c ****     }
 2277              		.loc 1 740 23 is_stmt 0 view .LVU807
 2278 003e DCF81030 		ldr	r3, [ip, #16]
 740:STM32Cube_FW_N6/Drivers/STM32N6xx_HAL_Driver/Src/stm32n6xx_ll_usb.c ****     }
 2279              		.loc 1 740 34 view .LVU808
 2280 0042 03EA0803 		and	r3, r3, r8
 2281              	.L199:
 776:STM32Cube_FW_N6/Drivers/STM32N6xx_HAL_Driver/Src/stm32n6xx_ll_usb.c ****     {
 2282              		.loc 1 776 8 view .LVU809
 2283 0046 012E     		cmp	r6, #1
 773:STM32Cube_FW_N6/Drivers/STM32N6xx_HAL_Driver/Src/stm32n6xx_ll_usb.c ****     }
 2284              		.loc 1 773 34 view .LVU810
 2285 0048 CCF81030 		str	r3, [ip, #16]
 776:STM32Cube_FW_N6/Drivers/STM32N6xx_HAL_Driver/Src/stm32n6xx_ll_usb.c ****     {
 2286              		.loc 1 776 5 is_stmt 1 view .LVU811
 776:STM32Cube_FW_N6/Drivers/STM32N6xx_HAL_Driver/Src/stm32n6xx_ll_usb.c ****     {
 2287              		.loc 1 776 8 is_stmt 0 view .LVU812
 2288 004c 57D1     		bne	.L171
 778:STM32Cube_FW_N6/Drivers/STM32N6xx_HAL_Driver/Src/stm32n6xx_ll_usb.c ****       {
 2289              		.loc 1 778 7 is_stmt 1 view .LVU813
 778:STM32Cube_FW_N6/Drivers/STM32N6xx_HAL_Driver/Src/stm32n6xx_ll_usb.c ****       {
 2290              		.loc 1 778 23 is_stmt 0 view .LVU814
 2291 004e CB69     		ldr	r3, [r1, #28]
 778:STM32Cube_FW_N6/Drivers/STM32N6xx_HAL_Driver/Src/stm32n6xx_ll_usb.c ****       {
 2292              		.loc 1 778 10 view .LVU815
 2293 0050 0BB1     		cbz	r3, .L172
 780:STM32Cube_FW_N6/Drivers/STM32N6xx_HAL_Driver/Src/stm32n6xx_ll_usb.c ****       }
 2294              		.loc 1 780 9 is_stmt 1 view .LVU816
 780:STM32Cube_FW_N6/Drivers/STM32N6xx_HAL_Driver/Src/stm32n6xx_ll_usb.c ****       }
 2295              		.loc 1 780 35 is_stmt 0 view .LVU817
 2296 0052 CCF81430 		str	r3, [ip, #20]
 2297              	.L172:
 783:STM32Cube_FW_N6/Drivers/STM32N6xx_HAL_Driver/Src/stm32n6xx_ll_usb.c ****       {
 2298              		.loc 1 783 7 is_stmt 1 view .LVU818
 783:STM32Cube_FW_N6/Drivers/STM32N6xx_HAL_Driver/Src/stm32n6xx_ll_usb.c ****       {
 2299              		.loc 1 783 10 is_stmt 0 view .LVU819
 2300 0056 012F     		cmp	r7, #1
 2301 0058 0CD1     		bne	.L173
 785:STM32Cube_FW_N6/Drivers/STM32N6xx_HAL_Driver/Src/stm32n6xx_ll_usb.c ****         {
 2302              		.loc 1 785 9 is_stmt 1 view .LVU820
 785:STM32Cube_FW_N6/Drivers/STM32N6xx_HAL_Driver/Src/stm32n6xx_ll_usb.c ****         {
 2303              		.loc 1 785 25 is_stmt 0 view .LVU821
ARM GAS  C:\Users\DJESSOU\AppData\Local\Temp\ccOpSjVg.s 			page 80


 2304 005a D0F80838 		ldr	r3, [r0, #2056]
 785:STM32Cube_FW_N6/Drivers/STM32N6xx_HAL_Driver/Src/stm32n6xx_ll_usb.c ****         {
 2305              		.loc 1 785 12 view .LVU822
 2306 005e 13F4807F 		tst	r3, #256
 787:STM32Cube_FW_N6/Drivers/STM32N6xx_HAL_Driver/Src/stm32n6xx_ll_usb.c ****         }
 2307              		.loc 1 787 27 view .LVU823
 2308 0062 D5F80039 		ldr	r3, [r5, #2304]
 787:STM32Cube_FW_N6/Drivers/STM32N6xx_HAL_Driver/Src/stm32n6xx_ll_usb.c ****         }
 2309              		.loc 1 787 11 is_stmt 1 view .LVU824
 787:STM32Cube_FW_N6/Drivers/STM32N6xx_HAL_Driver/Src/stm32n6xx_ll_usb.c ****         }
 2310              		.loc 1 787 37 is_stmt 0 view .LVU825
 2311 0066 0CBF     		ite	eq
 2312 0068 43F00053 		orreq	r3, r3, #536870912
 791:STM32Cube_FW_N6/Drivers/STM32N6xx_HAL_Driver/Src/stm32n6xx_ll_usb.c ****         }
 2313              		.loc 1 791 11 is_stmt 1 view .LVU826
 791:STM32Cube_FW_N6/Drivers/STM32N6xx_HAL_Driver/Src/stm32n6xx_ll_usb.c ****         }
 2314              		.loc 1 791 37 is_stmt 0 view .LVU827
 2315 006c 43F08053 		orrne	r3, r3, #268435456
 2316 0070 C5F80039 		str	r3, [r5, #2304]
 2317              	.L173:
 796:STM32Cube_FW_N6/Drivers/STM32N6xx_HAL_Driver/Src/stm32n6xx_ll_usb.c ****     }
 2318              		.loc 1 796 7 is_stmt 1 view .LVU828
 796:STM32Cube_FW_N6/Drivers/STM32N6xx_HAL_Driver/Src/stm32n6xx_ll_usb.c ****     }
 2319              		.loc 1 796 23 is_stmt 0 view .LVU829
 2320 0074 D5F80039 		ldr	r3, [r5, #2304]
 796:STM32Cube_FW_N6/Drivers/STM32N6xx_HAL_Driver/Src/stm32n6xx_ll_usb.c ****     }
 2321              		.loc 1 796 33 view .LVU830
 2322 0078 43F00443 		orr	r3, r3, #-2080374784
 2323 007c C5F80039 		str	r3, [r5, #2304]
 2324              	.LVL144:
 2325              	.L175:
 888:STM32Cube_FW_N6/Drivers/STM32N6xx_HAL_Driver/Src/stm32n6xx_ll_usb.c **** }
 2326              		.loc 1 888 3 is_stmt 1 view .LVU831
 889:STM32Cube_FW_N6/Drivers/STM32N6xx_HAL_Driver/Src/stm32n6xx_ll_usb.c **** 
 2327              		.loc 1 889 1 is_stmt 0 view .LVU832
 2328 0080 0020     		movs	r0, #0
 2329 0082 02B0     		add	sp, sp, #8
 2330              		.cfi_remember_state
 2331              		.cfi_def_cfa_offset 24
 2332              		@ sp needed
 2333 0084 BDE8F081 		pop	{r4, r5, r6, r7, r8, pc}
 2334              	.LVL145:
 2335              	.L166:
 2336              		.cfi_restore_state
 749:STM32Cube_FW_N6/Drivers/STM32N6xx_HAL_Driver/Src/stm32n6xx_ll_usb.c ****       USBx_INEP(epnum)->DIEPTSIZ &= ~(USB_OTG_DIEPTSIZ_PKTCNT);
 2337              		.loc 1 749 7 is_stmt 1 view .LVU833
 749:STM32Cube_FW_N6/Drivers/STM32N6xx_HAL_Driver/Src/stm32n6xx_ll_usb.c ****       USBx_INEP(epnum)->DIEPTSIZ &= ~(USB_OTG_DIEPTSIZ_PKTCNT);
 2338              		.loc 1 749 34 is_stmt 0 view .LVU834
 2339 0088 03EA0803 		and	r3, r3, r8
 2340 008c CCF81030 		str	r3, [ip, #16]
 750:STM32Cube_FW_N6/Drivers/STM32N6xx_HAL_Driver/Src/stm32n6xx_ll_usb.c **** 
 2341              		.loc 1 750 7 is_stmt 1 view .LVU835
 750:STM32Cube_FW_N6/Drivers/STM32N6xx_HAL_Driver/Src/stm32n6xx_ll_usb.c **** 
 2342              		.loc 1 750 23 is_stmt 0 view .LVU836
 2343 0090 DCF81030 		ldr	r3, [ip, #16]
 750:STM32Cube_FW_N6/Drivers/STM32N6xx_HAL_Driver/Src/stm32n6xx_ll_usb.c **** 
 2344              		.loc 1 750 34 view .LVU837
ARM GAS  C:\Users\DJESSOU\AppData\Local\Temp\ccOpSjVg.s 			page 81


 2345 0094 03EA0E03 		and	r3, r3, lr
 2346 0098 CCF81030 		str	r3, [ip, #16]
 752:STM32Cube_FW_N6/Drivers/STM32N6xx_HAL_Driver/Src/stm32n6xx_ll_usb.c ****       {
 2347              		.loc 1 752 7 is_stmt 1 view .LVU838
 754:STM32Cube_FW_N6/Drivers/STM32N6xx_HAL_Driver/Src/stm32n6xx_ll_usb.c ****         {
 2348              		.loc 1 754 30 is_stmt 0 view .LVU839
 2349 009c 8B68     		ldr	r3, [r1, #8]
 752:STM32Cube_FW_N6/Drivers/STM32N6xx_HAL_Driver/Src/stm32n6xx_ll_usb.c ****       {
 2350              		.loc 1 752 10 view .LVU840
 2351 009e 7AB9     		cbnz	r2, .L168
 754:STM32Cube_FW_N6/Drivers/STM32N6xx_HAL_Driver/Src/stm32n6xx_ll_usb.c ****         {
 2352              		.loc 1 754 9 is_stmt 1 view .LVU841
 754:STM32Cube_FW_N6/Drivers/STM32N6xx_HAL_Driver/Src/stm32n6xx_ll_usb.c ****         {
 2353              		.loc 1 754 12 is_stmt 0 view .LVU842
 2354 00a0 A342     		cmp	r3, r4
 756:STM32Cube_FW_N6/Drivers/STM32N6xx_HAL_Driver/Src/stm32n6xx_ll_usb.c ****         }
 2355              		.loc 1 756 11 is_stmt 1 view .LVU843
 756:STM32Cube_FW_N6/Drivers/STM32N6xx_HAL_Driver/Src/stm32n6xx_ll_usb.c ****         }
 2356              		.loc 1 756 24 is_stmt 0 view .LVU844
 2357 00a2 38BF     		it	cc
 2358 00a4 0B61     		strcc	r3, [r1, #16]
 759:STM32Cube_FW_N6/Drivers/STM32N6xx_HAL_Driver/Src/stm32n6xx_ll_usb.c ****       }
 2359              		.loc 1 759 9 is_stmt 1 view .LVU845
 759:STM32Cube_FW_N6/Drivers/STM32N6xx_HAL_Driver/Src/stm32n6xx_ll_usb.c ****       }
 2360              		.loc 1 759 25 is_stmt 0 view .LVU846
 2361 00a6 DCF81030 		ldr	r3, [ip, #16]
 759:STM32Cube_FW_N6/Drivers/STM32N6xx_HAL_Driver/Src/stm32n6xx_ll_usb.c ****       }
 2362              		.loc 1 759 36 view .LVU847
 2363 00aa 43F40023 		orr	r3, r3, #524288
 2364              	.L198:
 769:STM32Cube_FW_N6/Drivers/STM32N6xx_HAL_Driver/Src/stm32n6xx_ll_usb.c ****         }
 2365              		.loc 1 769 38 view .LVU848
 2366 00ae CCF81030 		str	r3, [ip, #16]
 2367              	.L170:
 773:STM32Cube_FW_N6/Drivers/STM32N6xx_HAL_Driver/Src/stm32n6xx_ll_usb.c ****     }
 2368              		.loc 1 773 7 is_stmt 1 view .LVU849
 773:STM32Cube_FW_N6/Drivers/STM32N6xx_HAL_Driver/Src/stm32n6xx_ll_usb.c ****     }
 2369              		.loc 1 773 62 is_stmt 0 view .LVU850
 2370 00b2 0B69     		ldr	r3, [r1, #16]
 773:STM32Cube_FW_N6/Drivers/STM32N6xx_HAL_Driver/Src/stm32n6xx_ll_usb.c ****     }
 2371              		.loc 1 773 23 view .LVU851
 2372 00b4 DCF81040 		ldr	r4, [ip, #16]
 773:STM32Cube_FW_N6/Drivers/STM32N6xx_HAL_Driver/Src/stm32n6xx_ll_usb.c ****     }
 2373              		.loc 1 773 62 view .LVU852
 2374 00b8 C3F31203 		ubfx	r3, r3, #0, #19
 773:STM32Cube_FW_N6/Drivers/STM32N6xx_HAL_Driver/Src/stm32n6xx_ll_usb.c ****     }
 2375              		.loc 1 773 34 view .LVU853
 2376 00bc 2343     		orrs	r3, r3, r4
 2377 00be C2E7     		b	.L199
 2378              	.L168:
 763:STM32Cube_FW_N6/Drivers/STM32N6xx_HAL_Driver/Src/stm32n6xx_ll_usb.c ****         USBx_INEP(epnum)->DIEPTSIZ |= (USB_OTG_DIEPTSIZ_PKTCNT & ((uint32_t)pktcnt << 19));
 2379              		.loc 1 763 9 is_stmt 1 view .LVU854
 2380              	.LVL146:
 764:STM32Cube_FW_N6/Drivers/STM32N6xx_HAL_Driver/Src/stm32n6xx_ll_usb.c **** 
 2381              		.loc 1 764 9 view .LVU855
 763:STM32Cube_FW_N6/Drivers/STM32N6xx_HAL_Driver/Src/stm32n6xx_ll_usb.c ****         USBx_INEP(epnum)->DIEPTSIZ |= (USB_OTG_DIEPTSIZ_PKTCNT & ((uint32_t)pktcnt << 19));
 2382              		.loc 1 763 43 is_stmt 0 view .LVU856
ARM GAS  C:\Users\DJESSOU\AppData\Local\Temp\ccOpSjVg.s 			page 82


 2383 00c0 1C44     		add	r4, r4, r3
 2384              	.LVL147:
 763:STM32Cube_FW_N6/Drivers/STM32N6xx_HAL_Driver/Src/stm32n6xx_ll_usb.c ****         USBx_INEP(epnum)->DIEPTSIZ |= (USB_OTG_DIEPTSIZ_PKTCNT & ((uint32_t)pktcnt << 19));
 2385              		.loc 1 763 59 view .LVU857
 2386 00c2 013C     		subs	r4, r4, #1
 763:STM32Cube_FW_N6/Drivers/STM32N6xx_HAL_Driver/Src/stm32n6xx_ll_usb.c ****         USBx_INEP(epnum)->DIEPTSIZ |= (USB_OTG_DIEPTSIZ_PKTCNT & ((uint32_t)pktcnt << 19));
 2387              		.loc 1 763 65 view .LVU858
 2388 00c4 B4FBF3F4 		udiv	r4, r4, r3
 764:STM32Cube_FW_N6/Drivers/STM32N6xx_HAL_Driver/Src/stm32n6xx_ll_usb.c **** 
 2389              		.loc 1 764 64 view .LVU859
 2390 00c8 4B4B     		ldr	r3, .L205
 2391              	.LVL148:
 764:STM32Cube_FW_N6/Drivers/STM32N6xx_HAL_Driver/Src/stm32n6xx_ll_usb.c **** 
 2392              		.loc 1 764 25 view .LVU860
 2393 00ca DCF810E0 		ldr	lr, [ip, #16]
 2394 00ce 1FFA84F8 		uxth	r8, r4
 764:STM32Cube_FW_N6/Drivers/STM32N6xx_HAL_Driver/Src/stm32n6xx_ll_usb.c **** 
 2395              		.loc 1 764 64 view .LVU861
 2396 00d2 03EAC444 		and	r4, r3, r4, lsl #19
 764:STM32Cube_FW_N6/Drivers/STM32N6xx_HAL_Driver/Src/stm32n6xx_ll_usb.c **** 
 2397              		.loc 1 764 36 view .LVU862
 2398 00d6 44EA0E04 		orr	r4, r4, lr
 766:STM32Cube_FW_N6/Drivers/STM32N6xx_HAL_Driver/Src/stm32n6xx_ll_usb.c ****         {
 2399              		.loc 1 766 12 view .LVU863
 2400 00da 012F     		cmp	r7, #1
 764:STM32Cube_FW_N6/Drivers/STM32N6xx_HAL_Driver/Src/stm32n6xx_ll_usb.c **** 
 2401              		.loc 1 764 36 view .LVU864
 2402 00dc CCF81040 		str	r4, [ip, #16]
 766:STM32Cube_FW_N6/Drivers/STM32N6xx_HAL_Driver/Src/stm32n6xx_ll_usb.c ****         {
 2403              		.loc 1 766 9 is_stmt 1 view .LVU865
 766:STM32Cube_FW_N6/Drivers/STM32N6xx_HAL_Driver/Src/stm32n6xx_ll_usb.c ****         {
 2404              		.loc 1 766 12 is_stmt 0 view .LVU866
 2405 00e0 E7D1     		bne	.L170
 768:STM32Cube_FW_N6/Drivers/STM32N6xx_HAL_Driver/Src/stm32n6xx_ll_usb.c ****           USBx_INEP(epnum)->DIEPTSIZ |= (USB_OTG_DIEPTSIZ_MULCNT & ((uint32_t)pktcnt << 29));
 2406              		.loc 1 768 11 is_stmt 1 view .LVU867
 768:STM32Cube_FW_N6/Drivers/STM32N6xx_HAL_Driver/Src/stm32n6xx_ll_usb.c ****           USBx_INEP(epnum)->DIEPTSIZ |= (USB_OTG_DIEPTSIZ_MULCNT & ((uint32_t)pktcnt << 29));
 2407              		.loc 1 768 27 is_stmt 0 view .LVU868
 2408 00e2 DCF81030 		ldr	r3, [ip, #16]
 768:STM32Cube_FW_N6/Drivers/STM32N6xx_HAL_Driver/Src/stm32n6xx_ll_usb.c ****           USBx_INEP(epnum)->DIEPTSIZ |= (USB_OTG_DIEPTSIZ_MULCNT & ((uint32_t)pktcnt << 29));
 2409              		.loc 1 768 38 view .LVU869
 2410 00e6 23F0C043 		bic	r3, r3, #1610612736
 2411 00ea CCF81030 		str	r3, [ip, #16]
 769:STM32Cube_FW_N6/Drivers/STM32N6xx_HAL_Driver/Src/stm32n6xx_ll_usb.c ****         }
 2412              		.loc 1 769 11 is_stmt 1 view .LVU870
 769:STM32Cube_FW_N6/Drivers/STM32N6xx_HAL_Driver/Src/stm32n6xx_ll_usb.c ****         }
 2413              		.loc 1 769 27 is_stmt 0 view .LVU871
 2414 00ee DCF81040 		ldr	r4, [ip, #16]
 769:STM32Cube_FW_N6/Drivers/STM32N6xx_HAL_Driver/Src/stm32n6xx_ll_usb.c ****         }
 2415              		.loc 1 769 86 view .LVU872
 2416 00f2 4FEA4873 		lsl	r3, r8, #29
 769:STM32Cube_FW_N6/Drivers/STM32N6xx_HAL_Driver/Src/stm32n6xx_ll_usb.c ****         }
 2417              		.loc 1 769 66 view .LVU873
 2418 00f6 03F0C043 		and	r3, r3, #1610612736
 769:STM32Cube_FW_N6/Drivers/STM32N6xx_HAL_Driver/Src/stm32n6xx_ll_usb.c ****         }
 2419              		.loc 1 769 38 view .LVU874
 2420 00fa 2343     		orrs	r3, r3, r4
 2421 00fc D7E7     		b	.L198
ARM GAS  C:\Users\DJESSOU\AppData\Local\Temp\ccOpSjVg.s 			page 83


 2422              	.LVL149:
 2423              	.L171:
 801:STM32Cube_FW_N6/Drivers/STM32N6xx_HAL_Driver/Src/stm32n6xx_ll_usb.c **** 
 2424              		.loc 1 801 7 is_stmt 1 view .LVU875
 801:STM32Cube_FW_N6/Drivers/STM32N6xx_HAL_Driver/Src/stm32n6xx_ll_usb.c **** 
 2425              		.loc 1 801 23 is_stmt 0 view .LVU876
 2426 00fe D5F80039 		ldr	r3, [r5, #2304]
 803:STM32Cube_FW_N6/Drivers/STM32N6xx_HAL_Driver/Src/stm32n6xx_ll_usb.c ****       {
 2427              		.loc 1 803 10 view .LVU877
 2428 0102 012F     		cmp	r7, #1
 801:STM32Cube_FW_N6/Drivers/STM32N6xx_HAL_Driver/Src/stm32n6xx_ll_usb.c **** 
 2429              		.loc 1 801 33 view .LVU878
 2430 0104 43F00443 		orr	r3, r3, #-2080374784
 2431 0108 C5F80039 		str	r3, [r5, #2304]
 803:STM32Cube_FW_N6/Drivers/STM32N6xx_HAL_Driver/Src/stm32n6xx_ll_usb.c ****       {
 2432              		.loc 1 803 7 is_stmt 1 view .LVU879
 806:STM32Cube_FW_N6/Drivers/STM32N6xx_HAL_Driver/Src/stm32n6xx_ll_usb.c ****         {
 2433              		.loc 1 806 15 is_stmt 0 view .LVU880
 2434 010c 0B69     		ldr	r3, [r1, #16]
 803:STM32Cube_FW_N6/Drivers/STM32N6xx_HAL_Driver/Src/stm32n6xx_ll_usb.c ****       {
 2435              		.loc 1 803 10 view .LVU881
 2436 010e 0BD0     		beq	.L176
 806:STM32Cube_FW_N6/Drivers/STM32N6xx_HAL_Driver/Src/stm32n6xx_ll_usb.c ****         {
 2437              		.loc 1 806 9 is_stmt 1 view .LVU882
 806:STM32Cube_FW_N6/Drivers/STM32N6xx_HAL_Driver/Src/stm32n6xx_ll_usb.c ****         {
 2438              		.loc 1 806 12 is_stmt 0 view .LVU883
 2439 0110 002B     		cmp	r3, #0
 2440 0112 B5D0     		beq	.L175
 808:STM32Cube_FW_N6/Drivers/STM32N6xx_HAL_Driver/Src/stm32n6xx_ll_usb.c ****         }
 2441              		.loc 1 808 11 is_stmt 1 view .LVU884
 808:STM32Cube_FW_N6/Drivers/STM32N6xx_HAL_Driver/Src/stm32n6xx_ll_usb.c ****         }
 2442              		.loc 1 808 42 is_stmt 0 view .LVU885
 2443 0114 0123     		movs	r3, #1
 808:STM32Cube_FW_N6/Drivers/STM32N6xx_HAL_Driver/Src/stm32n6xx_ll_usb.c ****         }
 2444              		.loc 1 808 22 view .LVU886
 2445 0116 D0F83418 		ldr	r1, [r0, #2100]
 2446              	.LVL150:
 808:STM32Cube_FW_N6/Drivers/STM32N6xx_HAL_Driver/Src/stm32n6xx_ll_usb.c ****         }
 2447              		.loc 1 808 54 view .LVU887
 2448 011a 02F00F02 		and	r2, r2, #15
 2449              	.LVL151:
 808:STM32Cube_FW_N6/Drivers/STM32N6xx_HAL_Driver/Src/stm32n6xx_ll_usb.c ****         }
 2450              		.loc 1 808 42 view .LVU888
 2451 011e 9340     		lsls	r3, r3, r2
 808:STM32Cube_FW_N6/Drivers/STM32N6xx_HAL_Driver/Src/stm32n6xx_ll_usb.c ****         }
 2452              		.loc 1 808 35 view .LVU889
 2453 0120 0B43     		orrs	r3, r3, r1
 2454 0122 C0F83438 		str	r3, [r0, #2100]
 2455 0126 ABE7     		b	.L175
 2456              	.LVL152:
 2457              	.L176:
 813:STM32Cube_FW_N6/Drivers/STM32N6xx_HAL_Driver/Src/stm32n6xx_ll_usb.c ****         {
 2458              		.loc 1 813 9 is_stmt 1 view .LVU890
 813:STM32Cube_FW_N6/Drivers/STM32N6xx_HAL_Driver/Src/stm32n6xx_ll_usb.c ****         {
 2459              		.loc 1 813 25 is_stmt 0 view .LVU891
 2460 0128 D0F80848 		ldr	r4, [r0, #2056]
 822:STM32Cube_FW_N6/Drivers/STM32N6xx_HAL_Driver/Src/stm32n6xx_ll_usb.c ****       }
ARM GAS  C:\Users\DJESSOU\AppData\Local\Temp\ccOpSjVg.s 			page 84


 2461              		.loc 1 822 15 view .LVU892
 2462 012c 9BB2     		uxth	r3, r3
 813:STM32Cube_FW_N6/Drivers/STM32N6xx_HAL_Driver/Src/stm32n6xx_ll_usb.c ****         {
 2463              		.loc 1 813 12 view .LVU893
 2464 012e 14F4807F 		tst	r4, #256
 815:STM32Cube_FW_N6/Drivers/STM32N6xx_HAL_Driver/Src/stm32n6xx_ll_usb.c ****         }
 2465              		.loc 1 815 27 view .LVU894
 2466 0132 D5F80049 		ldr	r4, [r5, #2304]
 815:STM32Cube_FW_N6/Drivers/STM32N6xx_HAL_Driver/Src/stm32n6xx_ll_usb.c ****         }
 2467              		.loc 1 815 11 is_stmt 1 view .LVU895
 815:STM32Cube_FW_N6/Drivers/STM32N6xx_HAL_Driver/Src/stm32n6xx_ll_usb.c ****         }
 2468              		.loc 1 815 37 is_stmt 0 view .LVU896
 2469 0136 0CBF     		ite	eq
 2470 0138 44F00054 		orreq	r4, r4, #536870912
 819:STM32Cube_FW_N6/Drivers/STM32N6xx_HAL_Driver/Src/stm32n6xx_ll_usb.c ****         }
 2471              		.loc 1 819 11 is_stmt 1 view .LVU897
 819:STM32Cube_FW_N6/Drivers/STM32N6xx_HAL_Driver/Src/stm32n6xx_ll_usb.c ****         }
 2472              		.loc 1 819 37 is_stmt 0 view .LVU898
 2473 013c 44F08054 		orrne	r4, r4, #268435456
 2474 0140 C5F80049 		str	r4, [r5, #2304]
 822:STM32Cube_FW_N6/Drivers/STM32N6xx_HAL_Driver/Src/stm32n6xx_ll_usb.c ****       }
 2475              		.loc 1 822 9 is_stmt 1 view .LVU899
 822:STM32Cube_FW_N6/Drivers/STM32N6xx_HAL_Driver/Src/stm32n6xx_ll_usb.c ****       }
 2476              		.loc 1 822 15 is_stmt 0 view .LVU900
 2477 0144 0096     		str	r6, [sp]
 2478 0146 C968     		ldr	r1, [r1, #12]
 2479              	.LVL153:
 822:STM32Cube_FW_N6/Drivers/STM32N6xx_HAL_Driver/Src/stm32n6xx_ll_usb.c ****       }
 2480              		.loc 1 822 15 view .LVU901
 2481 0148 FFF7FEFF 		bl	USB_WritePacket
 2482              	.LVL154:
 822:STM32Cube_FW_N6/Drivers/STM32N6xx_HAL_Driver/Src/stm32n6xx_ll_usb.c ****       }
 2483              		.loc 1 822 15 view .LVU902
 2484 014c 98E7     		b	.L175
 2485              	.LVL155:
 2486              	.L165:
 832:STM32Cube_FW_N6/Drivers/STM32N6xx_HAL_Driver/Src/stm32n6xx_ll_usb.c ****     USBx_OUTEP(epnum)->DOEPTSIZ &= ~(USB_OTG_DOEPTSIZ_PKTCNT);
 2487              		.loc 1 832 5 is_stmt 1 view .LVU903
 832:STM32Cube_FW_N6/Drivers/STM32N6xx_HAL_Driver/Src/stm32n6xx_ll_usb.c ****     USBx_OUTEP(epnum)->DOEPTSIZ &= ~(USB_OTG_DOEPTSIZ_PKTCNT);
 2488              		.loc 1 832 22 is_stmt 0 view .LVU904
 2489 014e D5F8103B 		ldr	r3, [r5, #2832]
 2490 0152 05F5306C 		add	ip, r5, #2816
 832:STM32Cube_FW_N6/Drivers/STM32N6xx_HAL_Driver/Src/stm32n6xx_ll_usb.c ****     USBx_OUTEP(epnum)->DOEPTSIZ &= ~(USB_OTG_DOEPTSIZ_PKTCNT);
 2491              		.loc 1 832 33 view .LVU905
 2492 0156 03EA0803 		and	r3, r3, r8
 2493 015a CCF81030 		str	r3, [ip, #16]
 833:STM32Cube_FW_N6/Drivers/STM32N6xx_HAL_Driver/Src/stm32n6xx_ll_usb.c **** 
 2494              		.loc 1 833 5 is_stmt 1 view .LVU906
 833:STM32Cube_FW_N6/Drivers/STM32N6xx_HAL_Driver/Src/stm32n6xx_ll_usb.c **** 
 2495              		.loc 1 833 22 is_stmt 0 view .LVU907
 2496 015e DCF81030 		ldr	r3, [ip, #16]
 833:STM32Cube_FW_N6/Drivers/STM32N6xx_HAL_Driver/Src/stm32n6xx_ll_usb.c **** 
 2497              		.loc 1 833 33 view .LVU908
 2498 0162 03EA0E03 		and	r3, r3, lr
 2499 0166 CCF81030 		str	r3, [ip, #16]
 835:STM32Cube_FW_N6/Drivers/STM32N6xx_HAL_Driver/Src/stm32n6xx_ll_usb.c ****     {
 2500              		.loc 1 835 5 is_stmt 1 view .LVU909
ARM GAS  C:\Users\DJESSOU\AppData\Local\Temp\ccOpSjVg.s 			page 85


 839:STM32Cube_FW_N6/Drivers/STM32N6xx_HAL_Driver/Src/stm32n6xx_ll_usb.c ****       }
 2501              		.loc 1 839 26 is_stmt 0 view .LVU910
 2502 016a 8B68     		ldr	r3, [r1, #8]
 835:STM32Cube_FW_N6/Drivers/STM32N6xx_HAL_Driver/Src/stm32n6xx_ll_usb.c ****     {
 2503              		.loc 1 835 8 view .LVU911
 2504 016c 5ABB     		cbnz	r2, .L179
 837:STM32Cube_FW_N6/Drivers/STM32N6xx_HAL_Driver/Src/stm32n6xx_ll_usb.c ****       {
 2505              		.loc 1 837 7 is_stmt 1 view .LVU912
 837:STM32Cube_FW_N6/Drivers/STM32N6xx_HAL_Driver/Src/stm32n6xx_ll_usb.c ****       {
 2506              		.loc 1 837 10 is_stmt 0 view .LVU913
 2507 016e 04B1     		cbz	r4, .L180
 839:STM32Cube_FW_N6/Drivers/STM32N6xx_HAL_Driver/Src/stm32n6xx_ll_usb.c ****       }
 2508              		.loc 1 839 9 is_stmt 1 view .LVU914
 839:STM32Cube_FW_N6/Drivers/STM32N6xx_HAL_Driver/Src/stm32n6xx_ll_usb.c ****       }
 2509              		.loc 1 839 22 is_stmt 0 view .LVU915
 2510 0170 0B61     		str	r3, [r1, #16]
 2511              	.L180:
 843:STM32Cube_FW_N6/Drivers/STM32N6xx_HAL_Driver/Src/stm32n6xx_ll_usb.c **** 
 2512              		.loc 1 843 7 is_stmt 1 view .LVU916
 843:STM32Cube_FW_N6/Drivers/STM32N6xx_HAL_Driver/Src/stm32n6xx_ll_usb.c **** 
 2513              		.loc 1 843 21 is_stmt 0 view .LVU917
 2514 0172 0B62     		str	r3, [r1, #32]
 845:STM32Cube_FW_N6/Drivers/STM32N6xx_HAL_Driver/Src/stm32n6xx_ll_usb.c ****       USBx_OUTEP(epnum)->DOEPTSIZ |= (USB_OTG_DOEPTSIZ_PKTCNT & (1UL << 19));
 2515              		.loc 1 845 7 is_stmt 1 view .LVU918
 2516              	.L204:
 852:STM32Cube_FW_N6/Drivers/STM32N6xx_HAL_Driver/Src/stm32n6xx_ll_usb.c ****         USBx_OUTEP(epnum)->DOEPTSIZ |= (USB_OTG_DOEPTSIZ_PKTCNT & (1UL << 19));
 2517              		.loc 1 852 9 view .LVU919
 852:STM32Cube_FW_N6/Drivers/STM32N6xx_HAL_Driver/Src/stm32n6xx_ll_usb.c ****         USBx_OUTEP(epnum)->DOEPTSIZ |= (USB_OTG_DOEPTSIZ_PKTCNT & (1UL << 19));
 2518              		.loc 1 852 26 is_stmt 0 view .LVU920
 2519 0174 DCF81020 		ldr	r2, [ip, #16]
 2520              	.LVL156:
 852:STM32Cube_FW_N6/Drivers/STM32N6xx_HAL_Driver/Src/stm32n6xx_ll_usb.c ****         USBx_OUTEP(epnum)->DOEPTSIZ |= (USB_OTG_DOEPTSIZ_PKTCNT & (1UL << 19));
 2521              		.loc 1 852 65 view .LVU921
 2522 0178 C3F31203 		ubfx	r3, r3, #0, #19
 852:STM32Cube_FW_N6/Drivers/STM32N6xx_HAL_Driver/Src/stm32n6xx_ll_usb.c ****         USBx_OUTEP(epnum)->DOEPTSIZ |= (USB_OTG_DOEPTSIZ_PKTCNT & (1UL << 19));
 2523              		.loc 1 852 37 view .LVU922
 2524 017c 1343     		orrs	r3, r3, r2
 2525 017e CCF81030 		str	r3, [ip, #16]
 853:STM32Cube_FW_N6/Drivers/STM32N6xx_HAL_Driver/Src/stm32n6xx_ll_usb.c ****       }
 2526              		.loc 1 853 9 is_stmt 1 view .LVU923
 853:STM32Cube_FW_N6/Drivers/STM32N6xx_HAL_Driver/Src/stm32n6xx_ll_usb.c ****       }
 2527              		.loc 1 853 26 is_stmt 0 view .LVU924
 2528 0182 DCF81030 		ldr	r3, [ip, #16]
 853:STM32Cube_FW_N6/Drivers/STM32N6xx_HAL_Driver/Src/stm32n6xx_ll_usb.c ****       }
 2529              		.loc 1 853 37 view .LVU925
 2530 0186 43F40023 		orr	r3, r3, #524288
 2531              	.L202:
 865:STM32Cube_FW_N6/Drivers/STM32N6xx_HAL_Driver/Src/stm32n6xx_ll_usb.c ****     {
 2532              		.loc 1 865 8 view .LVU926
 2533 018a 012E     		cmp	r6, #1
 861:STM32Cube_FW_N6/Drivers/STM32N6xx_HAL_Driver/Src/stm32n6xx_ll_usb.c ****       }
 2534              		.loc 1 861 37 view .LVU927
 2535 018c CCF81030 		str	r3, [ip, #16]
 865:STM32Cube_FW_N6/Drivers/STM32N6xx_HAL_Driver/Src/stm32n6xx_ll_usb.c ****     {
 2536              		.loc 1 865 5 is_stmt 1 view .LVU928
 865:STM32Cube_FW_N6/Drivers/STM32N6xx_HAL_Driver/Src/stm32n6xx_ll_usb.c ****     {
 2537              		.loc 1 865 8 is_stmt 0 view .LVU929
ARM GAS  C:\Users\DJESSOU\AppData\Local\Temp\ccOpSjVg.s 			page 86


 2538 0190 03D1     		bne	.L183
 867:STM32Cube_FW_N6/Drivers/STM32N6xx_HAL_Driver/Src/stm32n6xx_ll_usb.c ****       {
 2539              		.loc 1 867 7 is_stmt 1 view .LVU930
 867:STM32Cube_FW_N6/Drivers/STM32N6xx_HAL_Driver/Src/stm32n6xx_ll_usb.c ****       {
 2540              		.loc 1 867 23 is_stmt 0 view .LVU931
 2541 0192 CB68     		ldr	r3, [r1, #12]
 867:STM32Cube_FW_N6/Drivers/STM32N6xx_HAL_Driver/Src/stm32n6xx_ll_usb.c ****       {
 2542              		.loc 1 867 10 view .LVU932
 2543 0194 0BB1     		cbz	r3, .L183
 869:STM32Cube_FW_N6/Drivers/STM32N6xx_HAL_Driver/Src/stm32n6xx_ll_usb.c ****       }
 2544              		.loc 1 869 9 is_stmt 1 view .LVU933
 869:STM32Cube_FW_N6/Drivers/STM32N6xx_HAL_Driver/Src/stm32n6xx_ll_usb.c ****       }
 2545              		.loc 1 869 36 is_stmt 0 view .LVU934
 2546 0196 CCF81430 		str	r3, [ip, #20]
 2547              	.L183:
 873:STM32Cube_FW_N6/Drivers/STM32N6xx_HAL_Driver/Src/stm32n6xx_ll_usb.c ****     {
 2548              		.loc 1 873 5 is_stmt 1 view .LVU935
 873:STM32Cube_FW_N6/Drivers/STM32N6xx_HAL_Driver/Src/stm32n6xx_ll_usb.c ****     {
 2549              		.loc 1 873 8 is_stmt 0 view .LVU936
 2550 019a 012F     		cmp	r7, #1
 2551 019c 0CD1     		bne	.L184
 875:STM32Cube_FW_N6/Drivers/STM32N6xx_HAL_Driver/Src/stm32n6xx_ll_usb.c ****       {
 2552              		.loc 1 875 7 is_stmt 1 view .LVU937
 875:STM32Cube_FW_N6/Drivers/STM32N6xx_HAL_Driver/Src/stm32n6xx_ll_usb.c ****       {
 2553              		.loc 1 875 23 is_stmt 0 view .LVU938
 2554 019e D0F80838 		ldr	r3, [r0, #2056]
 875:STM32Cube_FW_N6/Drivers/STM32N6xx_HAL_Driver/Src/stm32n6xx_ll_usb.c ****       {
 2555              		.loc 1 875 10 view .LVU939
 2556 01a2 13F4807F 		tst	r3, #256
 877:STM32Cube_FW_N6/Drivers/STM32N6xx_HAL_Driver/Src/stm32n6xx_ll_usb.c ****       }
 2557              		.loc 1 877 26 view .LVU940
 2558 01a6 D5F8003B 		ldr	r3, [r5, #2816]
 877:STM32Cube_FW_N6/Drivers/STM32N6xx_HAL_Driver/Src/stm32n6xx_ll_usb.c ****       }
 2559              		.loc 1 877 9 is_stmt 1 view .LVU941
 877:STM32Cube_FW_N6/Drivers/STM32N6xx_HAL_Driver/Src/stm32n6xx_ll_usb.c ****       }
 2560              		.loc 1 877 36 is_stmt 0 view .LVU942
 2561 01aa 0CBF     		ite	eq
 2562 01ac 43F00053 		orreq	r3, r3, #536870912
 881:STM32Cube_FW_N6/Drivers/STM32N6xx_HAL_Driver/Src/stm32n6xx_ll_usb.c ****       }
 2563              		.loc 1 881 9 is_stmt 1 view .LVU943
 881:STM32Cube_FW_N6/Drivers/STM32N6xx_HAL_Driver/Src/stm32n6xx_ll_usb.c ****       }
 2564              		.loc 1 881 36 is_stmt 0 view .LVU944
 2565 01b0 43F08053 		orrne	r3, r3, #268435456
 2566 01b4 C5F8003B 		str	r3, [r5, #2816]
 2567              	.L184:
 885:STM32Cube_FW_N6/Drivers/STM32N6xx_HAL_Driver/Src/stm32n6xx_ll_usb.c ****   }
 2568              		.loc 1 885 5 is_stmt 1 view .LVU945
 885:STM32Cube_FW_N6/Drivers/STM32N6xx_HAL_Driver/Src/stm32n6xx_ll_usb.c ****   }
 2569              		.loc 1 885 22 is_stmt 0 view .LVU946
 2570 01b8 D5F8003B 		ldr	r3, [r5, #2816]
 885:STM32Cube_FW_N6/Drivers/STM32N6xx_HAL_Driver/Src/stm32n6xx_ll_usb.c ****   }
 2571              		.loc 1 885 32 view .LVU947
 2572 01bc 43F00443 		orr	r3, r3, #-2080374784
 2573 01c0 C5F8003B 		str	r3, [r5, #2816]
 2574 01c4 5CE7     		b	.L175
 2575              	.LVL157:
 2576              	.L179:
ARM GAS  C:\Users\DJESSOU\AppData\Local\Temp\ccOpSjVg.s 			page 87


 850:STM32Cube_FW_N6/Drivers/STM32N6xx_HAL_Driver/Src/stm32n6xx_ll_usb.c ****       {
 2577              		.loc 1 850 7 is_stmt 1 view .LVU948
 850:STM32Cube_FW_N6/Drivers/STM32N6xx_HAL_Driver/Src/stm32n6xx_ll_usb.c ****       {
 2578              		.loc 1 850 10 is_stmt 0 view .LVU949
 2579 01c6 002C     		cmp	r4, #0
 2580 01c8 D4D0     		beq	.L204
 857:STM32Cube_FW_N6/Drivers/STM32N6xx_HAL_Driver/Src/stm32n6xx_ll_usb.c ****         ep->xfer_size = ep->maxpacket * pktcnt;
 2581              		.loc 1 857 9 is_stmt 1 view .LVU950
 2582              	.LVL158:
 858:STM32Cube_FW_N6/Drivers/STM32N6xx_HAL_Driver/Src/stm32n6xx_ll_usb.c **** 
 2583              		.loc 1 858 9 view .LVU951
 857:STM32Cube_FW_N6/Drivers/STM32N6xx_HAL_Driver/Src/stm32n6xx_ll_usb.c ****         ep->xfer_size = ep->maxpacket * pktcnt;
 2584              		.loc 1 857 43 is_stmt 0 view .LVU952
 2585 01ca 1C44     		add	r4, r4, r3
 2586              	.LVL159:
 857:STM32Cube_FW_N6/Drivers/STM32N6xx_HAL_Driver/Src/stm32n6xx_ll_usb.c ****         ep->xfer_size = ep->maxpacket * pktcnt;
 2587              		.loc 1 857 59 view .LVU953
 2588 01cc 013C     		subs	r4, r4, #1
 857:STM32Cube_FW_N6/Drivers/STM32N6xx_HAL_Driver/Src/stm32n6xx_ll_usb.c ****         ep->xfer_size = ep->maxpacket * pktcnt;
 2589              		.loc 1 857 65 view .LVU954
 2590 01ce B4FBF3F4 		udiv	r4, r4, r3
 2591 01d2 A4B2     		uxth	r4, r4
 858:STM32Cube_FW_N6/Drivers/STM32N6xx_HAL_Driver/Src/stm32n6xx_ll_usb.c **** 
 2592              		.loc 1 858 39 view .LVU955
 2593 01d4 6343     		muls	r3, r4, r3
 2594              	.LVL160:
 860:STM32Cube_FW_N6/Drivers/STM32N6xx_HAL_Driver/Src/stm32n6xx_ll_usb.c ****         USBx_OUTEP(epnum)->DOEPTSIZ |= USB_OTG_DOEPTSIZ_XFRSIZ & ep->xfer_size;
 2595              		.loc 1 860 64 view .LVU956
 2596 01d6 084A     		ldr	r2, .L205
 2597              	.LVL161:
 860:STM32Cube_FW_N6/Drivers/STM32N6xx_HAL_Driver/Src/stm32n6xx_ll_usb.c ****         USBx_OUTEP(epnum)->DOEPTSIZ |= USB_OTG_DOEPTSIZ_XFRSIZ & ep->xfer_size;
 2598              		.loc 1 860 26 view .LVU957
 2599 01d8 DCF810E0 		ldr	lr, [ip, #16]
 860:STM32Cube_FW_N6/Drivers/STM32N6xx_HAL_Driver/Src/stm32n6xx_ll_usb.c ****         USBx_OUTEP(epnum)->DOEPTSIZ |= USB_OTG_DOEPTSIZ_XFRSIZ & ep->xfer_size;
 2600              		.loc 1 860 64 view .LVU958
 2601 01dc 02EAC442 		and	r2, r2, r4, lsl #19
 860:STM32Cube_FW_N6/Drivers/STM32N6xx_HAL_Driver/Src/stm32n6xx_ll_usb.c ****         USBx_OUTEP(epnum)->DOEPTSIZ |= USB_OTG_DOEPTSIZ_XFRSIZ & ep->xfer_size;
 2602              		.loc 1 860 37 view .LVU959
 2603 01e0 42EA0E02 		orr	r2, r2, lr
 858:STM32Cube_FW_N6/Drivers/STM32N6xx_HAL_Driver/Src/stm32n6xx_ll_usb.c **** 
 2604              		.loc 1 858 23 view .LVU960
 2605 01e4 0B62     		str	r3, [r1, #32]
 860:STM32Cube_FW_N6/Drivers/STM32N6xx_HAL_Driver/Src/stm32n6xx_ll_usb.c ****         USBx_OUTEP(epnum)->DOEPTSIZ |= USB_OTG_DOEPTSIZ_XFRSIZ & ep->xfer_size;
 2606              		.loc 1 860 9 is_stmt 1 view .LVU961
 860:STM32Cube_FW_N6/Drivers/STM32N6xx_HAL_Driver/Src/stm32n6xx_ll_usb.c ****         USBx_OUTEP(epnum)->DOEPTSIZ |= USB_OTG_DOEPTSIZ_XFRSIZ & ep->xfer_size;
 2607              		.loc 1 860 37 is_stmt 0 view .LVU962
 2608 01e6 CCF81020 		str	r2, [ip, #16]
 861:STM32Cube_FW_N6/Drivers/STM32N6xx_HAL_Driver/Src/stm32n6xx_ll_usb.c ****       }
 2609              		.loc 1 861 9 is_stmt 1 view .LVU963
 861:STM32Cube_FW_N6/Drivers/STM32N6xx_HAL_Driver/Src/stm32n6xx_ll_usb.c ****       }
 2610              		.loc 1 861 26 is_stmt 0 view .LVU964
 2611 01ea DCF81020 		ldr	r2, [ip, #16]
 861:STM32Cube_FW_N6/Drivers/STM32N6xx_HAL_Driver/Src/stm32n6xx_ll_usb.c ****       }
 2612              		.loc 1 861 64 view .LVU965
 2613 01ee C3F31203 		ubfx	r3, r3, #0, #19
 861:STM32Cube_FW_N6/Drivers/STM32N6xx_HAL_Driver/Src/stm32n6xx_ll_usb.c ****       }
 2614              		.loc 1 861 37 view .LVU966
ARM GAS  C:\Users\DJESSOU\AppData\Local\Temp\ccOpSjVg.s 			page 88


 2615 01f2 1343     		orrs	r3, r3, r2
 2616 01f4 C9E7     		b	.L202
 2617              	.L206:
 2618 01f6 00BF     		.align	2
 2619              	.L205:
 2620 01f8 0000F81F 		.word	536346624
 2621 01fc FFFF07E0 		.word	-536346625
 2622 0200 0000F8FF 		.word	-524288
 2623              		.cfi_endproc
 2624              	.LFE876:
 2626              		.section	.text.USB_ReadPacket,"ax",%progbits
 2627              		.align	1
 2628              		.global	USB_ReadPacket
 2629              		.syntax unified
 2630              		.thumb
 2631              		.thumb_func
 2633              	USB_ReadPacket:
 2634              	.LVL162:
 2635              	.LFB881:
1104:STM32Cube_FW_N6/Drivers/STM32N6xx_HAL_Driver/Src/stm32n6xx_ll_usb.c ****   uint32_t USBx_BASE = (uint32_t)USBx;
 2636              		.loc 1 1104 1 is_stmt 1 view -0
 2637              		.cfi_startproc
 2638              		@ args = 0, pretend = 0, frame = 0
 2639              		@ frame_needed = 0, uses_anonymous_args = 0
1105:STM32Cube_FW_N6/Drivers/STM32N6xx_HAL_Driver/Src/stm32n6xx_ll_usb.c ****   uint8_t *pDest = dest;
 2640              		.loc 1 1105 3 view .LVU968
1106:STM32Cube_FW_N6/Drivers/STM32N6xx_HAL_Driver/Src/stm32n6xx_ll_usb.c ****   uint32_t pData;
 2641              		.loc 1 1106 3 view .LVU969
1107:STM32Cube_FW_N6/Drivers/STM32N6xx_HAL_Driver/Src/stm32n6xx_ll_usb.c ****   uint32_t i;
 2642              		.loc 1 1107 3 view .LVU970
1108:STM32Cube_FW_N6/Drivers/STM32N6xx_HAL_Driver/Src/stm32n6xx_ll_usb.c ****   uint32_t count32b = (uint32_t)len >> 2U;
 2643              		.loc 1 1108 3 view .LVU971
1109:STM32Cube_FW_N6/Drivers/STM32N6xx_HAL_Driver/Src/stm32n6xx_ll_usb.c ****   uint16_t remaining_bytes = len % 4U;
 2644              		.loc 1 1109 3 view .LVU972
1104:STM32Cube_FW_N6/Drivers/STM32N6xx_HAL_Driver/Src/stm32n6xx_ll_usb.c ****   uint32_t USBx_BASE = (uint32_t)USBx;
 2645              		.loc 1 1104 1 is_stmt 0 view .LVU973
 2646 0000 F0B5     		push	{r4, r5, r6, r7, lr}
 2647              		.cfi_def_cfa_offset 20
 2648              		.cfi_offset 4, -20
 2649              		.cfi_offset 5, -16
 2650              		.cfi_offset 6, -12
 2651              		.cfi_offset 7, -8
 2652              		.cfi_offset 14, -4
1112:STM32Cube_FW_N6/Drivers/STM32N6xx_HAL_Driver/Src/stm32n6xx_ll_usb.c ****   {
 2653              		.loc 1 1112 10 view .LVU974
 2654 0002 0025     		movs	r5, #0
1109:STM32Cube_FW_N6/Drivers/STM32N6xx_HAL_Driver/Src/stm32n6xx_ll_usb.c ****   uint16_t remaining_bytes = len % 4U;
 2655              		.loc 1 1109 12 view .LVU975
 2656 0004 9408     		lsrs	r4, r2, #2
 2657              	.LVL163:
1110:STM32Cube_FW_N6/Drivers/STM32N6xx_HAL_Driver/Src/stm32n6xx_ll_usb.c **** 
 2658              		.loc 1 1110 3 is_stmt 1 view .LVU976
 2659 0006 AC42     		cmp	r4, r5
1104:STM32Cube_FW_N6/Drivers/STM32N6xx_HAL_Driver/Src/stm32n6xx_ll_usb.c ****   uint32_t USBx_BASE = (uint32_t)USBx;
 2660              		.loc 1 1104 1 is_stmt 0 view .LVU977
 2661 0008 0346     		mov	r3, r0
1114:STM32Cube_FW_N6/Drivers/STM32N6xx_HAL_Driver/Src/stm32n6xx_ll_usb.c ****     pDest++;
ARM GAS  C:\Users\DJESSOU\AppData\Local\Temp\ccOpSjVg.s 			page 89


 2662              		.loc 1 1114 5 view .LVU978
 2663 000a 00F58056 		add	r6, r0, #4096
 2664 000e 04F10100 		add	r0, r4, #1
 2665              	.LVL164:
1114:STM32Cube_FW_N6/Drivers/STM32N6xx_HAL_Driver/Src/stm32n6xx_ll_usb.c ****     pDest++;
 2666              		.loc 1 1114 5 view .LVU979
 2667 0012 08BF     		it	eq
 2668 0014 0120     		moveq	r0, #1
1110:STM32Cube_FW_N6/Drivers/STM32N6xx_HAL_Driver/Src/stm32n6xx_ll_usb.c **** 
 2669              		.loc 1 1110 12 view .LVU980
 2670 0016 02F00302 		and	r2, r2, #3
 2671              	.LVL165:
1112:STM32Cube_FW_N6/Drivers/STM32N6xx_HAL_Driver/Src/stm32n6xx_ll_usb.c ****   {
 2672              		.loc 1 1112 3 is_stmt 1 view .LVU981
 2673              	.L208:
1112:STM32Cube_FW_N6/Drivers/STM32N6xx_HAL_Driver/Src/stm32n6xx_ll_usb.c ****   {
 2674              		.loc 1 1112 18 discriminator 1 view .LVU982
 2675 001a 0138     		subs	r0, r0, #1
 2676 001c 10D1     		bne	.L209
 2677 001e 01EB8400 		add	r0, r1, r4, lsl #2
1122:STM32Cube_FW_N6/Drivers/STM32N6xx_HAL_Driver/Src/stm32n6xx_ll_usb.c ****   {
 2678              		.loc 1 1122 3 view .LVU983
1122:STM32Cube_FW_N6/Drivers/STM32N6xx_HAL_Driver/Src/stm32n6xx_ll_usb.c ****   {
 2679              		.loc 1 1122 6 is_stmt 0 view .LVU984
 2680 0022 62B1     		cbz	r2, .L207
1124:STM32Cube_FW_N6/Drivers/STM32N6xx_HAL_Driver/Src/stm32n6xx_ll_usb.c ****     __UNALIGNED_UINT32_WRITE(&pData, USBx_DFIFO(0U));
 2681              		.loc 1 1124 5 is_stmt 1 view .LVU985
 2682              	.LVL166:
1125:STM32Cube_FW_N6/Drivers/STM32N6xx_HAL_Driver/Src/stm32n6xx_ll_usb.c **** 
 2683              		.loc 1 1125 5 view .LVU986
 2684 0024 03F58053 		add	r3, r3, #4096
 2685              	.LVL167:
1125:STM32Cube_FW_N6/Drivers/STM32N6xx_HAL_Driver/Src/stm32n6xx_ll_usb.c **** 
 2686              		.loc 1 1125 5 is_stmt 0 view .LVU987
 2687 0028 1C68     		ldr	r4, [r3]
 2688              	.LVL168:
1124:STM32Cube_FW_N6/Drivers/STM32N6xx_HAL_Driver/Src/stm32n6xx_ll_usb.c ****     __UNALIGNED_UINT32_WRITE(&pData, USBx_DFIFO(0U));
 2689              		.loc 1 1124 7 view .LVU988
 2690 002a 0023     		movs	r3, #0
 2691              	.LVL169:
 2692              	.L211:
1127:STM32Cube_FW_N6/Drivers/STM32N6xx_HAL_Driver/Src/stm32n6xx_ll_usb.c ****     {
 2693              		.loc 1 1127 5 is_stmt 1 view .LVU989
1129:STM32Cube_FW_N6/Drivers/STM32N6xx_HAL_Driver/Src/stm32n6xx_ll_usb.c ****       i++;
 2694              		.loc 1 1129 7 view .LVU990
1129:STM32Cube_FW_N6/Drivers/STM32N6xx_HAL_Driver/Src/stm32n6xx_ll_usb.c ****       i++;
 2695              		.loc 1 1129 43 is_stmt 0 view .LVU991
 2696 002c D900     		lsls	r1, r3, #3
 2697 002e 24FA01F1 		lsr	r1, r4, r1
1129:STM32Cube_FW_N6/Drivers/STM32N6xx_HAL_Driver/Src/stm32n6xx_ll_usb.c ****       i++;
 2698              		.loc 1 1129 27 view .LVU992
 2699 0032 C154     		strb	r1, [r0, r3]
1130:STM32Cube_FW_N6/Drivers/STM32N6xx_HAL_Driver/Src/stm32n6xx_ll_usb.c ****       pDest++;
 2700              		.loc 1 1130 7 is_stmt 1 view .LVU993
1130:STM32Cube_FW_N6/Drivers/STM32N6xx_HAL_Driver/Src/stm32n6xx_ll_usb.c ****       pDest++;
 2701              		.loc 1 1130 8 is_stmt 0 view .LVU994
 2702 0034 0133     		adds	r3, r3, #1
ARM GAS  C:\Users\DJESSOU\AppData\Local\Temp\ccOpSjVg.s 			page 90


 2703              	.LVL170:
1131:STM32Cube_FW_N6/Drivers/STM32N6xx_HAL_Driver/Src/stm32n6xx_ll_usb.c ****       remaining_bytes--;
 2704              		.loc 1 1131 7 is_stmt 1 view .LVU995
1132:STM32Cube_FW_N6/Drivers/STM32N6xx_HAL_Driver/Src/stm32n6xx_ll_usb.c ****     } while (remaining_bytes != 0U);
 2705              		.loc 1 1132 7 view .LVU996
1133:STM32Cube_FW_N6/Drivers/STM32N6xx_HAL_Driver/Src/stm32n6xx_ll_usb.c ****   }
 2706              		.loc 1 1133 30 discriminator 1 view .LVU997
 2707 0036 99B2     		uxth	r1, r3
 2708 0038 8A42     		cmp	r2, r1
 2709 003a F7D1     		bne	.L211
 2710 003c 1044     		add	r0, r0, r2
 2711              	.LVL171:
1136:STM32Cube_FW_N6/Drivers/STM32N6xx_HAL_Driver/Src/stm32n6xx_ll_usb.c **** }
 2712              		.loc 1 1136 3 view .LVU998
 2713              	.L207:
1137:STM32Cube_FW_N6/Drivers/STM32N6xx_HAL_Driver/Src/stm32n6xx_ll_usb.c **** 
 2714              		.loc 1 1137 1 is_stmt 0 view .LVU999
 2715 003e F0BD     		pop	{r4, r5, r6, r7, pc}
 2716              	.LVL172:
 2717              	.L209:
1114:STM32Cube_FW_N6/Drivers/STM32N6xx_HAL_Driver/Src/stm32n6xx_ll_usb.c ****     pDest++;
 2718              		.loc 1 1114 5 is_stmt 1 view .LVU1000
 2719 0040 3768     		ldr	r7, [r6]
 2720 0042 41F82570 		str	r7, [r1, r5, lsl #2]	@ unaligned
1115:STM32Cube_FW_N6/Drivers/STM32N6xx_HAL_Driver/Src/stm32n6xx_ll_usb.c ****     pDest++;
 2721              		.loc 1 1115 5 view .LVU1001
 2722              	.LVL173:
1116:STM32Cube_FW_N6/Drivers/STM32N6xx_HAL_Driver/Src/stm32n6xx_ll_usb.c ****     pDest++;
 2723              		.loc 1 1116 5 view .LVU1002
1117:STM32Cube_FW_N6/Drivers/STM32N6xx_HAL_Driver/Src/stm32n6xx_ll_usb.c ****     pDest++;
 2724              		.loc 1 1117 5 view .LVU1003
1118:STM32Cube_FW_N6/Drivers/STM32N6xx_HAL_Driver/Src/stm32n6xx_ll_usb.c ****   }
 2725              		.loc 1 1118 5 view .LVU1004
1112:STM32Cube_FW_N6/Drivers/STM32N6xx_HAL_Driver/Src/stm32n6xx_ll_usb.c ****   {
 2726              		.loc 1 1112 31 discriminator 3 view .LVU1005
 2727 0046 0135     		adds	r5, r5, #1
 2728              	.LVL174:
1112:STM32Cube_FW_N6/Drivers/STM32N6xx_HAL_Driver/Src/stm32n6xx_ll_usb.c ****   {
 2729              		.loc 1 1112 31 is_stmt 0 discriminator 3 view .LVU1006
 2730 0048 E7E7     		b	.L208
 2731              		.cfi_endproc
 2732              	.LFE881:
 2734              		.section	.text.USB_StopDevice,"ax",%progbits
 2735              		.align	1
 2736              		.global	USB_StopDevice
 2737              		.syntax unified
 2738              		.thumb
 2739              		.thumb_func
 2741              	USB_StopDevice:
 2742              	.LVL175:
 2743              	.LFB882:
1145:STM32Cube_FW_N6/Drivers/STM32N6xx_HAL_Driver/Src/stm32n6xx_ll_usb.c ****   HAL_StatusTypeDef ret;
 2744              		.loc 1 1145 1 is_stmt 1 view -0
 2745              		.cfi_startproc
 2746              		@ args = 0, pretend = 0, frame = 0
 2747              		@ frame_needed = 0, uses_anonymous_args = 0
1146:STM32Cube_FW_N6/Drivers/STM32N6xx_HAL_Driver/Src/stm32n6xx_ll_usb.c ****   uint32_t USBx_BASE = (uint32_t)USBx;
ARM GAS  C:\Users\DJESSOU\AppData\Local\Temp\ccOpSjVg.s 			page 91


 2748              		.loc 1 1146 3 view .LVU1008
1147:STM32Cube_FW_N6/Drivers/STM32N6xx_HAL_Driver/Src/stm32n6xx_ll_usb.c ****   uint32_t i;
 2749              		.loc 1 1147 3 view .LVU1009
1148:STM32Cube_FW_N6/Drivers/STM32N6xx_HAL_Driver/Src/stm32n6xx_ll_usb.c **** 
 2750              		.loc 1 1148 3 view .LVU1010
1151:STM32Cube_FW_N6/Drivers/STM32N6xx_HAL_Driver/Src/stm32n6xx_ll_usb.c ****   {
 2751              		.loc 1 1151 3 view .LVU1011
1151:STM32Cube_FW_N6/Drivers/STM32N6xx_HAL_Driver/Src/stm32n6xx_ll_usb.c ****   {
 2752              		.loc 1 1151 18 discriminator 1 view .LVU1012
1145:STM32Cube_FW_N6/Drivers/STM32N6xx_HAL_Driver/Src/stm32n6xx_ll_usb.c ****   HAL_StatusTypeDef ret;
 2753              		.loc 1 1145 1 is_stmt 0 view .LVU1013
 2754 0000 10B5     		push	{r4, lr}
 2755              		.cfi_def_cfa_offset 8
 2756              		.cfi_offset 4, -8
 2757              		.cfi_offset 14, -4
1153:STM32Cube_FW_N6/Drivers/STM32N6xx_HAL_Driver/Src/stm32n6xx_ll_usb.c ****     USBx_OUTEP(i)->DOEPINT = 0xFB7FU;
 2758              		.loc 1 1153 27 view .LVU1014
 2759 0002 4FF00F0E 		mov	lr, #15
1145:STM32Cube_FW_N6/Drivers/STM32N6xx_HAL_Driver/Src/stm32n6xx_ll_usb.c ****   HAL_StatusTypeDef ret;
 2760              		.loc 1 1145 1 view .LVU1015
 2761 0006 0446     		mov	r4, r0
1153:STM32Cube_FW_N6/Drivers/STM32N6xx_HAL_Driver/Src/stm32n6xx_ll_usb.c ****     USBx_OUTEP(i)->DOEPINT = 0xFB7FU;
 2762              		.loc 1 1153 27 view .LVU1016
 2763 0008 4FF67F32 		movw	r2, #64383
 2764 000c 4EF001E0 		dls	lr, lr
 2765 0010 00F51063 		add	r3, r0, #2304
 2766              	.LVL176:
 2767              	.L218:
1153:STM32Cube_FW_N6/Drivers/STM32N6xx_HAL_Driver/Src/stm32n6xx_ll_usb.c ****     USBx_OUTEP(i)->DOEPINT = 0xFB7FU;
 2768              		.loc 1 1153 5 is_stmt 1 view .LVU1017
1153:STM32Cube_FW_N6/Drivers/STM32N6xx_HAL_Driver/Src/stm32n6xx_ll_usb.c ****     USBx_OUTEP(i)->DOEPINT = 0xFB7FU;
 2769              		.loc 1 1153 27 is_stmt 0 view .LVU1018
 2770 0014 9A60     		str	r2, [r3, #8]
1154:STM32Cube_FW_N6/Drivers/STM32N6xx_HAL_Driver/Src/stm32n6xx_ll_usb.c ****   }
 2771              		.loc 1 1154 5 is_stmt 1 view .LVU1019
1154:STM32Cube_FW_N6/Drivers/STM32N6xx_HAL_Driver/Src/stm32n6xx_ll_usb.c ****   }
 2772              		.loc 1 1154 28 is_stmt 0 view .LVU1020
 2773 0016 C3F80822 		str	r2, [r3, #520]
1151:STM32Cube_FW_N6/Drivers/STM32N6xx_HAL_Driver/Src/stm32n6xx_ll_usb.c ****   {
 2774              		.loc 1 1151 26 is_stmt 1 discriminator 3 view .LVU1021
1151:STM32Cube_FW_N6/Drivers/STM32N6xx_HAL_Driver/Src/stm32n6xx_ll_usb.c ****   {
 2775              		.loc 1 1151 18 discriminator 1 view .LVU1022
 2776 001a 2033     		adds	r3, r3, #32
 2777 001c 0FF007C0 		le	lr, .L218
1158:STM32Cube_FW_N6/Drivers/STM32N6xx_HAL_Driver/Src/stm32n6xx_ll_usb.c ****   USBx_DEVICE->DOEPMSK  = 0U;
 2778              		.loc 1 1158 3 view .LVU1023
1158:STM32Cube_FW_N6/Drivers/STM32N6xx_HAL_Driver/Src/stm32n6xx_ll_usb.c ****   USBx_DEVICE->DOEPMSK  = 0U;
 2779              		.loc 1 1158 25 is_stmt 0 view .LVU1024
 2780 0020 0022     		movs	r2, #0
1163:STM32Cube_FW_N6/Drivers/STM32N6xx_HAL_Driver/Src/stm32n6xx_ll_usb.c ****   if (ret != HAL_OK)
 2781              		.loc 1 1163 9 view .LVU1025
 2782 0022 2046     		mov	r0, r4
 2783              	.LVL177:
1158:STM32Cube_FW_N6/Drivers/STM32N6xx_HAL_Driver/Src/stm32n6xx_ll_usb.c ****   USBx_DEVICE->DOEPMSK  = 0U;
 2784              		.loc 1 1158 25 view .LVU1026
 2785 0024 C4F81028 		str	r2, [r4, #2064]
1159:STM32Cube_FW_N6/Drivers/STM32N6xx_HAL_Driver/Src/stm32n6xx_ll_usb.c ****   USBx_DEVICE->DAINTMSK = 0U;
ARM GAS  C:\Users\DJESSOU\AppData\Local\Temp\ccOpSjVg.s 			page 92


 2786              		.loc 1 1159 3 is_stmt 1 view .LVU1027
1159:STM32Cube_FW_N6/Drivers/STM32N6xx_HAL_Driver/Src/stm32n6xx_ll_usb.c ****   USBx_DEVICE->DAINTMSK = 0U;
 2787              		.loc 1 1159 25 is_stmt 0 view .LVU1028
 2788 0028 C4F81428 		str	r2, [r4, #2068]
1160:STM32Cube_FW_N6/Drivers/STM32N6xx_HAL_Driver/Src/stm32n6xx_ll_usb.c **** 
 2789              		.loc 1 1160 3 is_stmt 1 view .LVU1029
1160:STM32Cube_FW_N6/Drivers/STM32N6xx_HAL_Driver/Src/stm32n6xx_ll_usb.c **** 
 2790              		.loc 1 1160 25 is_stmt 0 view .LVU1030
 2791 002c C4F81C28 		str	r2, [r4, #2076]
1163:STM32Cube_FW_N6/Drivers/STM32N6xx_HAL_Driver/Src/stm32n6xx_ll_usb.c ****   if (ret != HAL_OK)
 2792              		.loc 1 1163 3 is_stmt 1 view .LVU1031
1163:STM32Cube_FW_N6/Drivers/STM32N6xx_HAL_Driver/Src/stm32n6xx_ll_usb.c ****   if (ret != HAL_OK)
 2793              		.loc 1 1163 9 is_stmt 0 view .LVU1032
 2794 0030 FFF7FEFF 		bl	USB_FlushRxFifo
 2795              	.LVL178:
1164:STM32Cube_FW_N6/Drivers/STM32N6xx_HAL_Driver/Src/stm32n6xx_ll_usb.c ****   {
 2796              		.loc 1 1164 3 is_stmt 1 view .LVU1033
1164:STM32Cube_FW_N6/Drivers/STM32N6xx_HAL_Driver/Src/stm32n6xx_ll_usb.c ****   {
 2797              		.loc 1 1164 6 is_stmt 0 view .LVU1034
 2798 0034 28B9     		cbnz	r0, .L219
1169:STM32Cube_FW_N6/Drivers/STM32N6xx_HAL_Driver/Src/stm32n6xx_ll_usb.c ****   if (ret != HAL_OK)
 2799              		.loc 1 1169 3 is_stmt 1 view .LVU1035
1169:STM32Cube_FW_N6/Drivers/STM32N6xx_HAL_Driver/Src/stm32n6xx_ll_usb.c ****   if (ret != HAL_OK)
 2800              		.loc 1 1169 9 is_stmt 0 view .LVU1036
 2801 0036 2046     		mov	r0, r4
 2802              	.LVL179:
1176:STM32Cube_FW_N6/Drivers/STM32N6xx_HAL_Driver/Src/stm32n6xx_ll_usb.c **** 
 2803              		.loc 1 1176 1 view .LVU1037
 2804 0038 BDE81040 		pop	{r4, lr}
 2805              		.cfi_remember_state
 2806              		.cfi_restore 14
 2807              		.cfi_restore 4
 2808              		.cfi_def_cfa_offset 0
 2809              	.LVL180:
1169:STM32Cube_FW_N6/Drivers/STM32N6xx_HAL_Driver/Src/stm32n6xx_ll_usb.c ****   if (ret != HAL_OK)
 2810              		.loc 1 1169 9 view .LVU1038
 2811 003c 1021     		movs	r1, #16
 2812 003e FFF7FEBF 		b	USB_FlushTxFifo
 2813              	.LVL181:
 2814              	.L219:
 2815              		.cfi_restore_state
1176:STM32Cube_FW_N6/Drivers/STM32N6xx_HAL_Driver/Src/stm32n6xx_ll_usb.c **** 
 2816              		.loc 1 1176 1 view .LVU1039
 2817 0042 10BD     		pop	{r4, pc}
1176:STM32Cube_FW_N6/Drivers/STM32N6xx_HAL_Driver/Src/stm32n6xx_ll_usb.c **** 
 2818              		.loc 1 1176 1 view .LVU1040
 2819              		.cfi_endproc
 2820              	.LFE882:
 2822              		.section	.text.USB_SetDevAddress,"ax",%progbits
 2823              		.align	1
 2824              		.global	USB_SetDevAddress
 2825              		.syntax unified
 2826              		.thumb
 2827              		.thumb_func
 2829              	USB_SetDevAddress:
 2830              	.LVL182:
 2831              	.LFB883:
ARM GAS  C:\Users\DJESSOU\AppData\Local\Temp\ccOpSjVg.s 			page 93


1186:STM32Cube_FW_N6/Drivers/STM32N6xx_HAL_Driver/Src/stm32n6xx_ll_usb.c ****   uint32_t USBx_BASE = (uint32_t)USBx;
 2832              		.loc 1 1186 1 is_stmt 1 view -0
 2833              		.cfi_startproc
 2834              		@ args = 0, pretend = 0, frame = 0
 2835              		@ frame_needed = 0, uses_anonymous_args = 0
 2836              		@ link register save eliminated.
1187:STM32Cube_FW_N6/Drivers/STM32N6xx_HAL_Driver/Src/stm32n6xx_ll_usb.c **** 
 2837              		.loc 1 1187 3 view .LVU1042
1189:STM32Cube_FW_N6/Drivers/STM32N6xx_HAL_Driver/Src/stm32n6xx_ll_usb.c ****   USBx_DEVICE->DCFG |= ((uint32_t)address << 4) & USB_OTG_DCFG_DAD;
 2838              		.loc 1 1189 3 view .LVU1043
1189:STM32Cube_FW_N6/Drivers/STM32N6xx_HAL_Driver/Src/stm32n6xx_ll_usb.c ****   USBx_DEVICE->DCFG |= ((uint32_t)address << 4) & USB_OTG_DCFG_DAD;
 2839              		.loc 1 1189 14 is_stmt 0 view .LVU1044
 2840 0000 D0F80038 		ldr	r3, [r0, #2048]
1190:STM32Cube_FW_N6/Drivers/STM32N6xx_HAL_Driver/Src/stm32n6xx_ll_usb.c **** 
 2841              		.loc 1 1190 43 view .LVU1045
 2842 0004 0901     		lsls	r1, r1, #4
 2843              	.LVL183:
1189:STM32Cube_FW_N6/Drivers/STM32N6xx_HAL_Driver/Src/stm32n6xx_ll_usb.c ****   USBx_DEVICE->DCFG |= ((uint32_t)address << 4) & USB_OTG_DCFG_DAD;
 2844              		.loc 1 1189 21 view .LVU1046
 2845 0006 23F4FE63 		bic	r3, r3, #2032
 2846 000a C0F80038 		str	r3, [r0, #2048]
1190:STM32Cube_FW_N6/Drivers/STM32N6xx_HAL_Driver/Src/stm32n6xx_ll_usb.c **** 
 2847              		.loc 1 1190 3 is_stmt 1 view .LVU1047
1190:STM32Cube_FW_N6/Drivers/STM32N6xx_HAL_Driver/Src/stm32n6xx_ll_usb.c **** 
 2848              		.loc 1 1190 14 is_stmt 0 view .LVU1048
 2849 000e D0F80038 		ldr	r3, [r0, #2048]
1190:STM32Cube_FW_N6/Drivers/STM32N6xx_HAL_Driver/Src/stm32n6xx_ll_usb.c **** 
 2850              		.loc 1 1190 49 view .LVU1049
 2851 0012 01F4FE61 		and	r1, r1, #2032
1190:STM32Cube_FW_N6/Drivers/STM32N6xx_HAL_Driver/Src/stm32n6xx_ll_usb.c **** 
 2852              		.loc 1 1190 21 view .LVU1050
 2853 0016 1943     		orrs	r1, r1, r3
 2854 0018 C0F80018 		str	r1, [r0, #2048]
1192:STM32Cube_FW_N6/Drivers/STM32N6xx_HAL_Driver/Src/stm32n6xx_ll_usb.c **** }
 2855              		.loc 1 1192 3 is_stmt 1 view .LVU1051
1193:STM32Cube_FW_N6/Drivers/STM32N6xx_HAL_Driver/Src/stm32n6xx_ll_usb.c **** 
 2856              		.loc 1 1193 1 is_stmt 0 view .LVU1052
 2857 001c 0020     		movs	r0, #0
 2858              	.LVL184:
1193:STM32Cube_FW_N6/Drivers/STM32N6xx_HAL_Driver/Src/stm32n6xx_ll_usb.c **** 
 2859              		.loc 1 1193 1 view .LVU1053
 2860 001e 7047     		bx	lr
 2861              		.cfi_endproc
 2862              	.LFE883:
 2864              		.section	.text.USB_DevConnect,"ax",%progbits
 2865              		.align	1
 2866              		.global	USB_DevConnect
 2867              		.syntax unified
 2868              		.thumb
 2869              		.thumb_func
 2871              	USB_DevConnect:
 2872              	.LVL185:
 2873              	.LFB884:
1201:STM32Cube_FW_N6/Drivers/STM32N6xx_HAL_Driver/Src/stm32n6xx_ll_usb.c ****   uint32_t USBx_BASE = (uint32_t)USBx;
 2874              		.loc 1 1201 1 is_stmt 1 view -0
 2875              		.cfi_startproc
 2876              		@ args = 0, pretend = 0, frame = 0
ARM GAS  C:\Users\DJESSOU\AppData\Local\Temp\ccOpSjVg.s 			page 94


 2877              		@ frame_needed = 0, uses_anonymous_args = 0
 2878              		@ link register save eliminated.
1202:STM32Cube_FW_N6/Drivers/STM32N6xx_HAL_Driver/Src/stm32n6xx_ll_usb.c **** 
 2879              		.loc 1 1202 3 view .LVU1055
1205:STM32Cube_FW_N6/Drivers/STM32N6xx_HAL_Driver/Src/stm32n6xx_ll_usb.c **** 
 2880              		.loc 1 1205 3 view .LVU1056
 2881 0000 D0F8003E 		ldr	r3, [r0, #3584]
1205:STM32Cube_FW_N6/Drivers/STM32N6xx_HAL_Driver/Src/stm32n6xx_ll_usb.c **** 
 2882              		.loc 1 1205 16 is_stmt 0 view .LVU1057
 2883 0004 23F00303 		bic	r3, r3, #3
 2884 0008 C0F8003E 		str	r3, [r0, #3584]
1207:STM32Cube_FW_N6/Drivers/STM32N6xx_HAL_Driver/Src/stm32n6xx_ll_usb.c **** 
 2885              		.loc 1 1207 3 is_stmt 1 view .LVU1058
1207:STM32Cube_FW_N6/Drivers/STM32N6xx_HAL_Driver/Src/stm32n6xx_ll_usb.c **** 
 2886              		.loc 1 1207 14 is_stmt 0 view .LVU1059
 2887 000c D0F80438 		ldr	r3, [r0, #2052]
1207:STM32Cube_FW_N6/Drivers/STM32N6xx_HAL_Driver/Src/stm32n6xx_ll_usb.c **** 
 2888              		.loc 1 1207 21 view .LVU1060
 2889 0010 23F00203 		bic	r3, r3, #2
 2890 0014 C0F80438 		str	r3, [r0, #2052]
1209:STM32Cube_FW_N6/Drivers/STM32N6xx_HAL_Driver/Src/stm32n6xx_ll_usb.c **** }
 2891              		.loc 1 1209 3 is_stmt 1 view .LVU1061
1210:STM32Cube_FW_N6/Drivers/STM32N6xx_HAL_Driver/Src/stm32n6xx_ll_usb.c **** 
 2892              		.loc 1 1210 1 is_stmt 0 view .LVU1062
 2893 0018 0020     		movs	r0, #0
 2894              	.LVL186:
1210:STM32Cube_FW_N6/Drivers/STM32N6xx_HAL_Driver/Src/stm32n6xx_ll_usb.c **** 
 2895              		.loc 1 1210 1 view .LVU1063
 2896 001a 7047     		bx	lr
 2897              		.cfi_endproc
 2898              	.LFE884:
 2900              		.section	.text.USB_DevDisconnect,"ax",%progbits
 2901              		.align	1
 2902              		.global	USB_DevDisconnect
 2903              		.syntax unified
 2904              		.thumb
 2905              		.thumb_func
 2907              	USB_DevDisconnect:
 2908              	.LVL187:
 2909              	.LFB885:
1218:STM32Cube_FW_N6/Drivers/STM32N6xx_HAL_Driver/Src/stm32n6xx_ll_usb.c ****   uint32_t USBx_BASE = (uint32_t)USBx;
 2910              		.loc 1 1218 1 is_stmt 1 view -0
 2911              		.cfi_startproc
 2912              		@ args = 0, pretend = 0, frame = 0
 2913              		@ frame_needed = 0, uses_anonymous_args = 0
 2914              		@ link register save eliminated.
1219:STM32Cube_FW_N6/Drivers/STM32N6xx_HAL_Driver/Src/stm32n6xx_ll_usb.c **** 
 2915              		.loc 1 1219 3 view .LVU1065
1222:STM32Cube_FW_N6/Drivers/STM32N6xx_HAL_Driver/Src/stm32n6xx_ll_usb.c **** 
 2916              		.loc 1 1222 3 view .LVU1066
 2917 0000 D0F8003E 		ldr	r3, [r0, #3584]
1222:STM32Cube_FW_N6/Drivers/STM32N6xx_HAL_Driver/Src/stm32n6xx_ll_usb.c **** 
 2918              		.loc 1 1222 16 is_stmt 0 view .LVU1067
 2919 0004 23F00303 		bic	r3, r3, #3
 2920 0008 C0F8003E 		str	r3, [r0, #3584]
1224:STM32Cube_FW_N6/Drivers/STM32N6xx_HAL_Driver/Src/stm32n6xx_ll_usb.c **** 
 2921              		.loc 1 1224 3 is_stmt 1 view .LVU1068
ARM GAS  C:\Users\DJESSOU\AppData\Local\Temp\ccOpSjVg.s 			page 95


1224:STM32Cube_FW_N6/Drivers/STM32N6xx_HAL_Driver/Src/stm32n6xx_ll_usb.c **** 
 2922              		.loc 1 1224 14 is_stmt 0 view .LVU1069
 2923 000c D0F80438 		ldr	r3, [r0, #2052]
1224:STM32Cube_FW_N6/Drivers/STM32N6xx_HAL_Driver/Src/stm32n6xx_ll_usb.c **** 
 2924              		.loc 1 1224 21 view .LVU1070
 2925 0010 43F00203 		orr	r3, r3, #2
 2926 0014 C0F80438 		str	r3, [r0, #2052]
1226:STM32Cube_FW_N6/Drivers/STM32N6xx_HAL_Driver/Src/stm32n6xx_ll_usb.c **** }
 2927              		.loc 1 1226 3 is_stmt 1 view .LVU1071
1227:STM32Cube_FW_N6/Drivers/STM32N6xx_HAL_Driver/Src/stm32n6xx_ll_usb.c **** 
 2928              		.loc 1 1227 1 is_stmt 0 view .LVU1072
 2929 0018 0020     		movs	r0, #0
 2930              	.LVL188:
1227:STM32Cube_FW_N6/Drivers/STM32N6xx_HAL_Driver/Src/stm32n6xx_ll_usb.c **** 
 2931              		.loc 1 1227 1 view .LVU1073
 2932 001a 7047     		bx	lr
 2933              		.cfi_endproc
 2934              	.LFE885:
 2936              		.section	.text.USB_ReadInterrupts,"ax",%progbits
 2937              		.align	1
 2938              		.global	USB_ReadInterrupts
 2939              		.syntax unified
 2940              		.thumb
 2941              		.thumb_func
 2943              	USB_ReadInterrupts:
 2944              	.LVL189:
 2945              	.LFB886:
1235:STM32Cube_FW_N6/Drivers/STM32N6xx_HAL_Driver/Src/stm32n6xx_ll_usb.c ****   uint32_t tmpreg;
 2946              		.loc 1 1235 1 is_stmt 1 view -0
 2947              		.cfi_startproc
 2948              		@ args = 0, pretend = 0, frame = 0
 2949              		@ frame_needed = 0, uses_anonymous_args = 0
 2950              		@ link register save eliminated.
1236:STM32Cube_FW_N6/Drivers/STM32N6xx_HAL_Driver/Src/stm32n6xx_ll_usb.c **** 
 2951              		.loc 1 1236 3 view .LVU1075
1238:STM32Cube_FW_N6/Drivers/STM32N6xx_HAL_Driver/Src/stm32n6xx_ll_usb.c ****   tmpreg &= USBx->GINTMSK;
 2952              		.loc 1 1238 3 view .LVU1076
1238:STM32Cube_FW_N6/Drivers/STM32N6xx_HAL_Driver/Src/stm32n6xx_ll_usb.c ****   tmpreg &= USBx->GINTMSK;
 2953              		.loc 1 1238 10 is_stmt 0 view .LVU1077
 2954 0000 4269     		ldr	r2, [r0, #20]
 2955              	.LVL190:
1239:STM32Cube_FW_N6/Drivers/STM32N6xx_HAL_Driver/Src/stm32n6xx_ll_usb.c **** 
 2956              		.loc 1 1239 3 is_stmt 1 view .LVU1078
1239:STM32Cube_FW_N6/Drivers/STM32N6xx_HAL_Driver/Src/stm32n6xx_ll_usb.c **** 
 2957              		.loc 1 1239 17 is_stmt 0 view .LVU1079
 2958 0002 8069     		ldr	r0, [r0, #24]
 2959              	.LVL191:
1241:STM32Cube_FW_N6/Drivers/STM32N6xx_HAL_Driver/Src/stm32n6xx_ll_usb.c **** }
 2960              		.loc 1 1241 3 is_stmt 1 view .LVU1080
1242:STM32Cube_FW_N6/Drivers/STM32N6xx_HAL_Driver/Src/stm32n6xx_ll_usb.c **** 
 2961              		.loc 1 1242 1 is_stmt 0 view .LVU1081
 2962 0004 1040     		ands	r0, r0, r2
 2963              	.LVL192:
1242:STM32Cube_FW_N6/Drivers/STM32N6xx_HAL_Driver/Src/stm32n6xx_ll_usb.c **** 
 2964              		.loc 1 1242 1 view .LVU1082
 2965 0006 7047     		bx	lr
 2966              		.cfi_endproc
ARM GAS  C:\Users\DJESSOU\AppData\Local\Temp\ccOpSjVg.s 			page 96


 2967              	.LFE886:
 2969              		.section	.text.USB_ReadChInterrupts,"ax",%progbits
 2970              		.align	1
 2971              		.global	USB_ReadChInterrupts
 2972              		.syntax unified
 2973              		.thumb
 2974              		.thumb_func
 2976              	USB_ReadChInterrupts:
 2977              	.LVL193:
 2978              	.LFB887:
1251:STM32Cube_FW_N6/Drivers/STM32N6xx_HAL_Driver/Src/stm32n6xx_ll_usb.c ****   uint32_t USBx_BASE = (uint32_t)USBx;
 2979              		.loc 1 1251 1 is_stmt 1 view -0
 2980              		.cfi_startproc
 2981              		@ args = 0, pretend = 0, frame = 0
 2982              		@ frame_needed = 0, uses_anonymous_args = 0
 2983              		@ link register save eliminated.
1252:STM32Cube_FW_N6/Drivers/STM32N6xx_HAL_Driver/Src/stm32n6xx_ll_usb.c ****   uint32_t tmpreg;
 2984              		.loc 1 1252 3 view .LVU1084
1253:STM32Cube_FW_N6/Drivers/STM32N6xx_HAL_Driver/Src/stm32n6xx_ll_usb.c **** 
 2985              		.loc 1 1253 3 view .LVU1085
1255:STM32Cube_FW_N6/Drivers/STM32N6xx_HAL_Driver/Src/stm32n6xx_ll_usb.c ****   tmpreg &= USBx_HC(chnum)->HCINTMSK;
 2986              		.loc 1 1255 3 view .LVU1086
1255:STM32Cube_FW_N6/Drivers/STM32N6xx_HAL_Driver/Src/stm32n6xx_ll_usb.c ****   tmpreg &= USBx_HC(chnum)->HCINTMSK;
 2987              		.loc 1 1255 12 is_stmt 0 view .LVU1087
 2988 0000 00EB4110 		add	r0, r0, r1, lsl #5
 2989              	.LVL194:
1255:STM32Cube_FW_N6/Drivers/STM32N6xx_HAL_Driver/Src/stm32n6xx_ll_usb.c ****   tmpreg &= USBx_HC(chnum)->HCINTMSK;
 2990              		.loc 1 1255 12 view .LVU1088
 2991 0004 00F5A063 		add	r3, r0, #1280
1255:STM32Cube_FW_N6/Drivers/STM32N6xx_HAL_Driver/Src/stm32n6xx_ll_usb.c ****   tmpreg &= USBx_HC(chnum)->HCINTMSK;
 2992              		.loc 1 1255 10 view .LVU1089
 2993 0008 D0F80805 		ldr	r0, [r0, #1288]
 2994              	.LVL195:
1256:STM32Cube_FW_N6/Drivers/STM32N6xx_HAL_Driver/Src/stm32n6xx_ll_usb.c **** 
 2995              		.loc 1 1256 3 is_stmt 1 view .LVU1090
1256:STM32Cube_FW_N6/Drivers/STM32N6xx_HAL_Driver/Src/stm32n6xx_ll_usb.c **** 
 2996              		.loc 1 1256 27 is_stmt 0 view .LVU1091
 2997 000c DB68     		ldr	r3, [r3, #12]
 2998              	.LVL196:
1258:STM32Cube_FW_N6/Drivers/STM32N6xx_HAL_Driver/Src/stm32n6xx_ll_usb.c **** }
 2999              		.loc 1 1258 3 is_stmt 1 view .LVU1092
1259:STM32Cube_FW_N6/Drivers/STM32N6xx_HAL_Driver/Src/stm32n6xx_ll_usb.c **** 
 3000              		.loc 1 1259 1 is_stmt 0 view .LVU1093
 3001 000e 1840     		ands	r0, r0, r3
 3002              	.LVL197:
1259:STM32Cube_FW_N6/Drivers/STM32N6xx_HAL_Driver/Src/stm32n6xx_ll_usb.c **** 
 3003              		.loc 1 1259 1 view .LVU1094
 3004 0010 7047     		bx	lr
 3005              		.cfi_endproc
 3006              	.LFE887:
 3008              		.section	.text.USB_ReadDevAllOutEpInterrupt,"ax",%progbits
 3009              		.align	1
 3010              		.global	USB_ReadDevAllOutEpInterrupt
 3011              		.syntax unified
 3012              		.thumb
 3013              		.thumb_func
 3015              	USB_ReadDevAllOutEpInterrupt:
ARM GAS  C:\Users\DJESSOU\AppData\Local\Temp\ccOpSjVg.s 			page 97


 3016              	.LVL198:
 3017              	.LFB888:
1267:STM32Cube_FW_N6/Drivers/STM32N6xx_HAL_Driver/Src/stm32n6xx_ll_usb.c ****   uint32_t USBx_BASE = (uint32_t)USBx;
 3018              		.loc 1 1267 1 is_stmt 1 view -0
 3019              		.cfi_startproc
 3020              		@ args = 0, pretend = 0, frame = 0
 3021              		@ frame_needed = 0, uses_anonymous_args = 0
 3022              		@ link register save eliminated.
1268:STM32Cube_FW_N6/Drivers/STM32N6xx_HAL_Driver/Src/stm32n6xx_ll_usb.c ****   uint32_t tmpreg;
 3023              		.loc 1 1268 3 view .LVU1096
1269:STM32Cube_FW_N6/Drivers/STM32N6xx_HAL_Driver/Src/stm32n6xx_ll_usb.c **** 
 3024              		.loc 1 1269 3 view .LVU1097
1271:STM32Cube_FW_N6/Drivers/STM32N6xx_HAL_Driver/Src/stm32n6xx_ll_usb.c ****   tmpreg &= USBx_DEVICE->DAINTMSK;
 3025              		.loc 1 1271 3 view .LVU1098
1271:STM32Cube_FW_N6/Drivers/STM32N6xx_HAL_Driver/Src/stm32n6xx_ll_usb.c ****   tmpreg &= USBx_DEVICE->DAINTMSK;
 3026              		.loc 1 1271 11 is_stmt 0 view .LVU1099
 3027 0000 D0F81838 		ldr	r3, [r0, #2072]
1271:STM32Cube_FW_N6/Drivers/STM32N6xx_HAL_Driver/Src/stm32n6xx_ll_usb.c ****   tmpreg &= USBx_DEVICE->DAINTMSK;
 3028              		.loc 1 1271 13 view .LVU1100
 3029 0004 00F50060 		add	r0, r0, #2048
 3030              	.LVL199:
1272:STM32Cube_FW_N6/Drivers/STM32N6xx_HAL_Driver/Src/stm32n6xx_ll_usb.c **** 
 3031              		.loc 1 1272 3 is_stmt 1 view .LVU1101
1272:STM32Cube_FW_N6/Drivers/STM32N6xx_HAL_Driver/Src/stm32n6xx_ll_usb.c **** 
 3032              		.loc 1 1272 24 is_stmt 0 view .LVU1102
 3033 0008 C069     		ldr	r0, [r0, #28]
 3034              	.LVL200:
1274:STM32Cube_FW_N6/Drivers/STM32N6xx_HAL_Driver/Src/stm32n6xx_ll_usb.c **** }
 3035              		.loc 1 1274 3 is_stmt 1 view .LVU1103
1272:STM32Cube_FW_N6/Drivers/STM32N6xx_HAL_Driver/Src/stm32n6xx_ll_usb.c **** 
 3036              		.loc 1 1272 10 is_stmt 0 view .LVU1104
 3037 000a 1840     		ands	r0, r0, r3
 3038              	.LVL201:
1275:STM32Cube_FW_N6/Drivers/STM32N6xx_HAL_Driver/Src/stm32n6xx_ll_usb.c **** 
 3039              		.loc 1 1275 1 view .LVU1105
 3040 000c 000C     		lsrs	r0, r0, #16
 3041              	.LVL202:
1275:STM32Cube_FW_N6/Drivers/STM32N6xx_HAL_Driver/Src/stm32n6xx_ll_usb.c **** 
 3042              		.loc 1 1275 1 view .LVU1106
 3043 000e 7047     		bx	lr
 3044              		.cfi_endproc
 3045              	.LFE888:
 3047              		.section	.text.USB_ReadDevAllInEpInterrupt,"ax",%progbits
 3048              		.align	1
 3049              		.global	USB_ReadDevAllInEpInterrupt
 3050              		.syntax unified
 3051              		.thumb
 3052              		.thumb_func
 3054              	USB_ReadDevAllInEpInterrupt:
 3055              	.LVL203:
 3056              	.LFB889:
1283:STM32Cube_FW_N6/Drivers/STM32N6xx_HAL_Driver/Src/stm32n6xx_ll_usb.c ****   uint32_t USBx_BASE = (uint32_t)USBx;
 3057              		.loc 1 1283 1 is_stmt 1 view -0
 3058              		.cfi_startproc
 3059              		@ args = 0, pretend = 0, frame = 0
 3060              		@ frame_needed = 0, uses_anonymous_args = 0
 3061              		@ link register save eliminated.
ARM GAS  C:\Users\DJESSOU\AppData\Local\Temp\ccOpSjVg.s 			page 98


1284:STM32Cube_FW_N6/Drivers/STM32N6xx_HAL_Driver/Src/stm32n6xx_ll_usb.c ****   uint32_t tmpreg;
 3062              		.loc 1 1284 3 view .LVU1108
1285:STM32Cube_FW_N6/Drivers/STM32N6xx_HAL_Driver/Src/stm32n6xx_ll_usb.c **** 
 3063              		.loc 1 1285 3 view .LVU1109
1287:STM32Cube_FW_N6/Drivers/STM32N6xx_HAL_Driver/Src/stm32n6xx_ll_usb.c ****   tmpreg &= USBx_DEVICE->DAINTMSK;
 3064              		.loc 1 1287 3 view .LVU1110
1287:STM32Cube_FW_N6/Drivers/STM32N6xx_HAL_Driver/Src/stm32n6xx_ll_usb.c ****   tmpreg &= USBx_DEVICE->DAINTMSK;
 3065              		.loc 1 1287 11 is_stmt 0 view .LVU1111
 3066 0000 D0F81838 		ldr	r3, [r0, #2072]
1287:STM32Cube_FW_N6/Drivers/STM32N6xx_HAL_Driver/Src/stm32n6xx_ll_usb.c ****   tmpreg &= USBx_DEVICE->DAINTMSK;
 3067              		.loc 1 1287 13 view .LVU1112
 3068 0004 00F50060 		add	r0, r0, #2048
 3069              	.LVL204:
1288:STM32Cube_FW_N6/Drivers/STM32N6xx_HAL_Driver/Src/stm32n6xx_ll_usb.c **** 
 3070              		.loc 1 1288 3 is_stmt 1 view .LVU1113
1288:STM32Cube_FW_N6/Drivers/STM32N6xx_HAL_Driver/Src/stm32n6xx_ll_usb.c **** 
 3071              		.loc 1 1288 24 is_stmt 0 view .LVU1114
 3072 0008 C069     		ldr	r0, [r0, #28]
 3073              	.LVL205:
1290:STM32Cube_FW_N6/Drivers/STM32N6xx_HAL_Driver/Src/stm32n6xx_ll_usb.c **** }
 3074              		.loc 1 1290 3 is_stmt 1 view .LVU1115
1288:STM32Cube_FW_N6/Drivers/STM32N6xx_HAL_Driver/Src/stm32n6xx_ll_usb.c **** 
 3075              		.loc 1 1288 10 is_stmt 0 view .LVU1116
 3076 000a 1840     		ands	r0, r0, r3
 3077              	.LVL206:
1291:STM32Cube_FW_N6/Drivers/STM32N6xx_HAL_Driver/Src/stm32n6xx_ll_usb.c **** 
 3078              		.loc 1 1291 1 view .LVU1117
 3079 000c 80B2     		uxth	r0, r0
 3080              	.LVL207:
1291:STM32Cube_FW_N6/Drivers/STM32N6xx_HAL_Driver/Src/stm32n6xx_ll_usb.c **** 
 3081              		.loc 1 1291 1 view .LVU1118
 3082 000e 7047     		bx	lr
 3083              		.cfi_endproc
 3084              	.LFE889:
 3086              		.section	.text.USB_ReadDevOutEPInterrupt,"ax",%progbits
 3087              		.align	1
 3088              		.global	USB_ReadDevOutEPInterrupt
 3089              		.syntax unified
 3090              		.thumb
 3091              		.thumb_func
 3093              	USB_ReadDevOutEPInterrupt:
 3094              	.LVL208:
 3095              	.LFB890:
1301:STM32Cube_FW_N6/Drivers/STM32N6xx_HAL_Driver/Src/stm32n6xx_ll_usb.c ****   uint32_t USBx_BASE = (uint32_t)USBx;
 3096              		.loc 1 1301 1 is_stmt 1 view -0
 3097              		.cfi_startproc
 3098              		@ args = 0, pretend = 0, frame = 0
 3099              		@ frame_needed = 0, uses_anonymous_args = 0
 3100              		@ link register save eliminated.
1302:STM32Cube_FW_N6/Drivers/STM32N6xx_HAL_Driver/Src/stm32n6xx_ll_usb.c ****   uint32_t tmpreg;
 3101              		.loc 1 1302 3 view .LVU1120
1303:STM32Cube_FW_N6/Drivers/STM32N6xx_HAL_Driver/Src/stm32n6xx_ll_usb.c **** 
 3102              		.loc 1 1303 3 view .LVU1121
1305:STM32Cube_FW_N6/Drivers/STM32N6xx_HAL_Driver/Src/stm32n6xx_ll_usb.c ****   tmpreg &= USBx_DEVICE->DOEPMSK;
 3103              		.loc 1 1305 3 view .LVU1122
1305:STM32Cube_FW_N6/Drivers/STM32N6xx_HAL_Driver/Src/stm32n6xx_ll_usb.c ****   tmpreg &= USBx_DEVICE->DOEPMSK;
 3104              		.loc 1 1305 13 is_stmt 0 view .LVU1123
ARM GAS  C:\Users\DJESSOU\AppData\Local\Temp\ccOpSjVg.s 			page 99


 3105 0000 00EB4111 		add	r1, r0, r1, lsl #5
 3106              	.LVL209:
1306:STM32Cube_FW_N6/Drivers/STM32N6xx_HAL_Driver/Src/stm32n6xx_ll_usb.c **** 
 3107              		.loc 1 1306 13 view .LVU1124
 3108 0004 00F50060 		add	r0, r0, #2048
 3109              	.LVL210:
1305:STM32Cube_FW_N6/Drivers/STM32N6xx_HAL_Driver/Src/stm32n6xx_ll_usb.c ****   tmpreg &= USBx_DEVICE->DOEPMSK;
 3110              		.loc 1 1305 11 view .LVU1125
 3111 0008 D1F8082B 		ldr	r2, [r1, #2824]
 3112              	.LVL211:
1306:STM32Cube_FW_N6/Drivers/STM32N6xx_HAL_Driver/Src/stm32n6xx_ll_usb.c **** 
 3113              		.loc 1 1306 3 is_stmt 1 view .LVU1126
1306:STM32Cube_FW_N6/Drivers/STM32N6xx_HAL_Driver/Src/stm32n6xx_ll_usb.c **** 
 3114              		.loc 1 1306 24 is_stmt 0 view .LVU1127
 3115 000c 4069     		ldr	r0, [r0, #20]
 3116              	.LVL212:
1308:STM32Cube_FW_N6/Drivers/STM32N6xx_HAL_Driver/Src/stm32n6xx_ll_usb.c **** }
 3117              		.loc 1 1308 3 is_stmt 1 view .LVU1128
1309:STM32Cube_FW_N6/Drivers/STM32N6xx_HAL_Driver/Src/stm32n6xx_ll_usb.c **** 
 3118              		.loc 1 1309 1 is_stmt 0 view .LVU1129
 3119 000e 1040     		ands	r0, r0, r2
 3120              	.LVL213:
1309:STM32Cube_FW_N6/Drivers/STM32N6xx_HAL_Driver/Src/stm32n6xx_ll_usb.c **** 
 3121              		.loc 1 1309 1 view .LVU1130
 3122 0010 7047     		bx	lr
 3123              		.cfi_endproc
 3124              	.LFE890:
 3126              		.section	.text.USB_ReadDevInEPInterrupt,"ax",%progbits
 3127              		.align	1
 3128              		.global	USB_ReadDevInEPInterrupt
 3129              		.syntax unified
 3130              		.thumb
 3131              		.thumb_func
 3133              	USB_ReadDevInEPInterrupt:
 3134              	.LVL214:
 3135              	.LFB891:
1319:STM32Cube_FW_N6/Drivers/STM32N6xx_HAL_Driver/Src/stm32n6xx_ll_usb.c ****   uint32_t USBx_BASE = (uint32_t)USBx;
 3136              		.loc 1 1319 1 is_stmt 1 view -0
 3137              		.cfi_startproc
 3138              		@ args = 0, pretend = 0, frame = 0
 3139              		@ frame_needed = 0, uses_anonymous_args = 0
 3140              		@ link register save eliminated.
1320:STM32Cube_FW_N6/Drivers/STM32N6xx_HAL_Driver/Src/stm32n6xx_ll_usb.c ****   uint32_t tmpreg;
 3141              		.loc 1 1320 3 view .LVU1132
1321:STM32Cube_FW_N6/Drivers/STM32N6xx_HAL_Driver/Src/stm32n6xx_ll_usb.c ****   uint32_t msk;
 3142              		.loc 1 1321 3 view .LVU1133
1322:STM32Cube_FW_N6/Drivers/STM32N6xx_HAL_Driver/Src/stm32n6xx_ll_usb.c ****   uint32_t emp;
 3143              		.loc 1 1322 3 view .LVU1134
1323:STM32Cube_FW_N6/Drivers/STM32N6xx_HAL_Driver/Src/stm32n6xx_ll_usb.c **** 
 3144              		.loc 1 1323 3 view .LVU1135
1325:STM32Cube_FW_N6/Drivers/STM32N6xx_HAL_Driver/Src/stm32n6xx_ll_usb.c ****   emp = USBx_DEVICE->DIEPEMPMSK;
 3145              		.loc 1 1325 3 view .LVU1136
1325:STM32Cube_FW_N6/Drivers/STM32N6xx_HAL_Driver/Src/stm32n6xx_ll_usb.c ****   emp = USBx_DEVICE->DIEPEMPMSK;
 3146              		.loc 1 1325 7 is_stmt 0 view .LVU1137
 3147 0000 D0F81028 		ldr	r2, [r0, #2064]
 3148              	.LVL215:
1326:STM32Cube_FW_N6/Drivers/STM32N6xx_HAL_Driver/Src/stm32n6xx_ll_usb.c ****   msk |= ((emp >> (epnum & EP_ADDR_MSK)) & 0x1U) << 7;
ARM GAS  C:\Users\DJESSOU\AppData\Local\Temp\ccOpSjVg.s 			page 100


 3149              		.loc 1 1326 3 is_stmt 1 view .LVU1138
1326:STM32Cube_FW_N6/Drivers/STM32N6xx_HAL_Driver/Src/stm32n6xx_ll_usb.c ****   msk |= ((emp >> (epnum & EP_ADDR_MSK)) & 0x1U) << 7;
 3150              		.loc 1 1326 7 is_stmt 0 view .LVU1139
 3151 0004 D0F83438 		ldr	r3, [r0, #2100]
 3152              	.LVL216:
1327:STM32Cube_FW_N6/Drivers/STM32N6xx_HAL_Driver/Src/stm32n6xx_ll_usb.c ****   tmpreg = USBx_INEP((uint32_t)epnum)->DIEPINT & msk;
 3153              		.loc 1 1327 3 is_stmt 1 view .LVU1140
1328:STM32Cube_FW_N6/Drivers/STM32N6xx_HAL_Driver/Src/stm32n6xx_ll_usb.c **** 
 3154              		.loc 1 1328 3 view .LVU1141
1328:STM32Cube_FW_N6/Drivers/STM32N6xx_HAL_Driver/Src/stm32n6xx_ll_usb.c **** 
 3155              		.loc 1 1328 12 is_stmt 0 view .LVU1142
 3156 0008 00EB4110 		add	r0, r0, r1, lsl #5
 3157              	.LVL217:
1327:STM32Cube_FW_N6/Drivers/STM32N6xx_HAL_Driver/Src/stm32n6xx_ll_usb.c ****   tmpreg = USBx_INEP((uint32_t)epnum)->DIEPINT & msk;
 3158              		.loc 1 1327 26 view .LVU1143
 3159 000c 01F00F01 		and	r1, r1, #15
 3160              	.LVL218:
1327:STM32Cube_FW_N6/Drivers/STM32N6xx_HAL_Driver/Src/stm32n6xx_ll_usb.c ****   tmpreg = USBx_INEP((uint32_t)epnum)->DIEPINT & msk;
 3161              		.loc 1 1327 16 view .LVU1144
 3162 0010 CB40     		lsrs	r3, r3, r1
 3163              	.LVL219:
1328:STM32Cube_FW_N6/Drivers/STM32N6xx_HAL_Driver/Src/stm32n6xx_ll_usb.c **** 
 3164              		.loc 1 1328 12 view .LVU1145
 3165 0012 00F51060 		add	r0, r0, #2304
1327:STM32Cube_FW_N6/Drivers/STM32N6xx_HAL_Driver/Src/stm32n6xx_ll_usb.c ****   tmpreg = USBx_INEP((uint32_t)epnum)->DIEPINT & msk;
 3166              		.loc 1 1327 50 view .LVU1146
 3167 0016 DB01     		lsls	r3, r3, #7
1328:STM32Cube_FW_N6/Drivers/STM32N6xx_HAL_Driver/Src/stm32n6xx_ll_usb.c **** 
 3168              		.loc 1 1328 38 view .LVU1147
 3169 0018 8068     		ldr	r0, [r0, #8]
 3170              	.LVL220:
1330:STM32Cube_FW_N6/Drivers/STM32N6xx_HAL_Driver/Src/stm32n6xx_ll_usb.c **** }
 3171              		.loc 1 1330 3 is_stmt 1 view .LVU1148
1327:STM32Cube_FW_N6/Drivers/STM32N6xx_HAL_Driver/Src/stm32n6xx_ll_usb.c ****   tmpreg = USBx_INEP((uint32_t)epnum)->DIEPINT & msk;
 3172              		.loc 1 1327 50 is_stmt 0 view .LVU1149
 3173 001a DBB2     		uxtb	r3, r3
1327:STM32Cube_FW_N6/Drivers/STM32N6xx_HAL_Driver/Src/stm32n6xx_ll_usb.c ****   tmpreg = USBx_INEP((uint32_t)epnum)->DIEPINT & msk;
 3174              		.loc 1 1327 7 view .LVU1150
 3175 001c 1343     		orrs	r3, r3, r2
1331:STM32Cube_FW_N6/Drivers/STM32N6xx_HAL_Driver/Src/stm32n6xx_ll_usb.c **** 
 3176              		.loc 1 1331 1 view .LVU1151
 3177 001e 1840     		ands	r0, r0, r3
 3178 0020 7047     		bx	lr
 3179              		.cfi_endproc
 3180              	.LFE891:
 3182              		.section	.text.USB_ClearInterrupts,"ax",%progbits
 3183              		.align	1
 3184              		.global	USB_ClearInterrupts
 3185              		.syntax unified
 3186              		.thumb
 3187              		.thumb_func
 3189              	USB_ClearInterrupts:
 3190              	.LVL221:
 3191              	.LFB892:
1340:STM32Cube_FW_N6/Drivers/STM32N6xx_HAL_Driver/Src/stm32n6xx_ll_usb.c ****   USBx->GINTSTS &= interrupt;
 3192              		.loc 1 1340 1 is_stmt 1 view -0
 3193              		.cfi_startproc
ARM GAS  C:\Users\DJESSOU\AppData\Local\Temp\ccOpSjVg.s 			page 101


 3194              		@ args = 0, pretend = 0, frame = 0
 3195              		@ frame_needed = 0, uses_anonymous_args = 0
 3196              		@ link register save eliminated.
1341:STM32Cube_FW_N6/Drivers/STM32N6xx_HAL_Driver/Src/stm32n6xx_ll_usb.c **** }
 3197              		.loc 1 1341 3 view .LVU1153
1341:STM32Cube_FW_N6/Drivers/STM32N6xx_HAL_Driver/Src/stm32n6xx_ll_usb.c **** }
 3198              		.loc 1 1341 7 is_stmt 0 view .LVU1154
 3199 0000 4369     		ldr	r3, [r0, #20]
1341:STM32Cube_FW_N6/Drivers/STM32N6xx_HAL_Driver/Src/stm32n6xx_ll_usb.c **** }
 3200              		.loc 1 1341 17 view .LVU1155
 3201 0002 0B40     		ands	r3, r3, r1
 3202 0004 4361     		str	r3, [r0, #20]
1342:STM32Cube_FW_N6/Drivers/STM32N6xx_HAL_Driver/Src/stm32n6xx_ll_usb.c **** 
 3203              		.loc 1 1342 1 view .LVU1156
 3204 0006 7047     		bx	lr
 3205              		.cfi_endproc
 3206              	.LFE892:
 3208              		.section	.text.USB_GetMode,"ax",%progbits
 3209              		.align	1
 3210              		.global	USB_GetMode
 3211              		.syntax unified
 3212              		.thumb
 3213              		.thumb_func
 3215              	USB_GetMode:
 3216              	.LVL222:
 3217              	.LFB893:
1353:STM32Cube_FW_N6/Drivers/STM32N6xx_HAL_Driver/Src/stm32n6xx_ll_usb.c ****   return ((USBx->GINTSTS) & 0x1U);
 3218              		.loc 1 1353 1 is_stmt 1 view -0
 3219              		.cfi_startproc
 3220              		@ args = 0, pretend = 0, frame = 0
 3221              		@ frame_needed = 0, uses_anonymous_args = 0
 3222              		@ link register save eliminated.
1354:STM32Cube_FW_N6/Drivers/STM32N6xx_HAL_Driver/Src/stm32n6xx_ll_usb.c **** }
 3223              		.loc 1 1354 3 view .LVU1158
1354:STM32Cube_FW_N6/Drivers/STM32N6xx_HAL_Driver/Src/stm32n6xx_ll_usb.c **** }
 3224              		.loc 1 1354 16 is_stmt 0 view .LVU1159
 3225 0000 4069     		ldr	r0, [r0, #20]
 3226              	.LVL223:
1355:STM32Cube_FW_N6/Drivers/STM32N6xx_HAL_Driver/Src/stm32n6xx_ll_usb.c **** 
 3227              		.loc 1 1355 1 view .LVU1160
 3228 0002 00F00100 		and	r0, r0, #1
 3229 0006 7047     		bx	lr
 3230              		.cfi_endproc
 3231              	.LFE893:
 3233              		.section	.text.USB_ActivateSetup,"ax",%progbits
 3234              		.align	1
 3235              		.global	USB_ActivateSetup
 3236              		.syntax unified
 3237              		.thumb
 3238              		.thumb_func
 3240              	USB_ActivateSetup:
 3241              	.LVL224:
 3242              	.LFB894:
1363:STM32Cube_FW_N6/Drivers/STM32N6xx_HAL_Driver/Src/stm32n6xx_ll_usb.c ****   uint32_t USBx_BASE = (uint32_t)USBx;
 3243              		.loc 1 1363 1 is_stmt 1 view -0
 3244              		.cfi_startproc
 3245              		@ args = 0, pretend = 0, frame = 0
ARM GAS  C:\Users\DJESSOU\AppData\Local\Temp\ccOpSjVg.s 			page 102


 3246              		@ frame_needed = 0, uses_anonymous_args = 0
 3247              		@ link register save eliminated.
1364:STM32Cube_FW_N6/Drivers/STM32N6xx_HAL_Driver/Src/stm32n6xx_ll_usb.c **** 
 3248              		.loc 1 1364 3 view .LVU1162
1367:STM32Cube_FW_N6/Drivers/STM32N6xx_HAL_Driver/Src/stm32n6xx_ll_usb.c **** 
 3249              		.loc 1 1367 3 view .LVU1163
1367:STM32Cube_FW_N6/Drivers/STM32N6xx_HAL_Driver/Src/stm32n6xx_ll_usb.c **** 
 3250              		.loc 1 1367 16 is_stmt 0 view .LVU1164
 3251 0000 D0F80039 		ldr	r3, [r0, #2304]
1367:STM32Cube_FW_N6/Drivers/STM32N6xx_HAL_Driver/Src/stm32n6xx_ll_usb.c **** 
 3252              		.loc 1 1367 26 view .LVU1165
 3253 0004 6FF30A03 		bfc	r3, #0, #11
 3254 0008 C0F80039 		str	r3, [r0, #2304]
1369:STM32Cube_FW_N6/Drivers/STM32N6xx_HAL_Driver/Src/stm32n6xx_ll_usb.c **** 
 3255              		.loc 1 1369 3 is_stmt 1 view .LVU1166
1369:STM32Cube_FW_N6/Drivers/STM32N6xx_HAL_Driver/Src/stm32n6xx_ll_usb.c **** 
 3256              		.loc 1 1369 14 is_stmt 0 view .LVU1167
 3257 000c D0F80438 		ldr	r3, [r0, #2052]
1369:STM32Cube_FW_N6/Drivers/STM32N6xx_HAL_Driver/Src/stm32n6xx_ll_usb.c **** 
 3258              		.loc 1 1369 21 view .LVU1168
 3259 0010 43F48073 		orr	r3, r3, #256
 3260 0014 C0F80438 		str	r3, [r0, #2052]
1371:STM32Cube_FW_N6/Drivers/STM32N6xx_HAL_Driver/Src/stm32n6xx_ll_usb.c **** }
 3261              		.loc 1 1371 3 is_stmt 1 view .LVU1169
1372:STM32Cube_FW_N6/Drivers/STM32N6xx_HAL_Driver/Src/stm32n6xx_ll_usb.c **** 
 3262              		.loc 1 1372 1 is_stmt 0 view .LVU1170
 3263 0018 0020     		movs	r0, #0
 3264              	.LVL225:
1372:STM32Cube_FW_N6/Drivers/STM32N6xx_HAL_Driver/Src/stm32n6xx_ll_usb.c **** 
 3265              		.loc 1 1372 1 view .LVU1171
 3266 001a 7047     		bx	lr
 3267              		.cfi_endproc
 3268              	.LFE894:
 3270              		.section	.text.USB_EP0_OutStart,"ax",%progbits
 3271              		.align	1
 3272              		.global	USB_EP0_OutStart
 3273              		.syntax unified
 3274              		.thumb
 3275              		.thumb_func
 3277              	USB_EP0_OutStart:
 3278              	.LVL226:
 3279              	.LFB895:
1385:STM32Cube_FW_N6/Drivers/STM32N6xx_HAL_Driver/Src/stm32n6xx_ll_usb.c ****   uint32_t USBx_BASE = (uint32_t)USBx;
 3280              		.loc 1 1385 1 is_stmt 1 view -0
 3281              		.cfi_startproc
 3282              		@ args = 0, pretend = 0, frame = 0
 3283              		@ frame_needed = 0, uses_anonymous_args = 0
1386:STM32Cube_FW_N6/Drivers/STM32N6xx_HAL_Driver/Src/stm32n6xx_ll_usb.c ****   uint32_t gSNPSiD = *(__IO const uint32_t *)(&USBx->CID + 0x1U);
 3284              		.loc 1 1386 3 view .LVU1173
1387:STM32Cube_FW_N6/Drivers/STM32N6xx_HAL_Driver/Src/stm32n6xx_ll_usb.c **** 
 3285              		.loc 1 1387 3 view .LVU1174
1385:STM32Cube_FW_N6/Drivers/STM32N6xx_HAL_Driver/Src/stm32n6xx_ll_usb.c ****   uint32_t USBx_BASE = (uint32_t)USBx;
 3286              		.loc 1 1385 1 is_stmt 0 view .LVU1175
 3287 0000 30B5     		push	{r4, r5, lr}
 3288              		.cfi_def_cfa_offset 12
 3289              		.cfi_offset 4, -12
 3290              		.cfi_offset 5, -8
ARM GAS  C:\Users\DJESSOU\AppData\Local\Temp\ccOpSjVg.s 			page 103


 3291              		.cfi_offset 14, -4
1387:STM32Cube_FW_N6/Drivers/STM32N6xx_HAL_Driver/Src/stm32n6xx_ll_usb.c **** 
 3292              		.loc 1 1387 12 view .LVU1176
 3293 0002 056C     		ldr	r5, [r0, #64]
 3294              	.LVL227:
1389:STM32Cube_FW_N6/Drivers/STM32N6xx_HAL_Driver/Src/stm32n6xx_ll_usb.c ****   {
 3295              		.loc 1 1389 3 is_stmt 1 view .LVU1177
1389:STM32Cube_FW_N6/Drivers/STM32N6xx_HAL_Driver/Src/stm32n6xx_ll_usb.c ****   {
 3296              		.loc 1 1389 6 is_stmt 0 view .LVU1178
 3297 0004 104C     		ldr	r4, .L237
1391:STM32Cube_FW_N6/Drivers/STM32N6xx_HAL_Driver/Src/stm32n6xx_ll_usb.c ****     {
 3298              		.loc 1 1391 10 view .LVU1179
 3299 0006 00F53063 		add	r3, r0, #2816
1389:STM32Cube_FW_N6/Drivers/STM32N6xx_HAL_Driver/Src/stm32n6xx_ll_usb.c ****   {
 3300              		.loc 1 1389 6 view .LVU1180
 3301 000a A542     		cmp	r5, r4
 3302 000c 03D9     		bls	.L234
1391:STM32Cube_FW_N6/Drivers/STM32N6xx_HAL_Driver/Src/stm32n6xx_ll_usb.c ****     {
 3303              		.loc 1 1391 5 is_stmt 1 view .LVU1181
1391:STM32Cube_FW_N6/Drivers/STM32N6xx_HAL_Driver/Src/stm32n6xx_ll_usb.c ****     {
 3304              		.loc 1 1391 24 is_stmt 0 view .LVU1182
 3305 000e D0F8004B 		ldr	r4, [r0, #2816]
1391:STM32Cube_FW_N6/Drivers/STM32N6xx_HAL_Driver/Src/stm32n6xx_ll_usb.c ****     {
 3306              		.loc 1 1391 8 view .LVU1183
 3307 0012 002C     		cmp	r4, #0
 3308 0014 16DB     		blt	.L235
 3309              	.L234:
1397:STM32Cube_FW_N6/Drivers/STM32N6xx_HAL_Driver/Src/stm32n6xx_ll_usb.c ****   USBx_OUTEP(0U)->DOEPTSIZ |= (USB_OTG_DOEPTSIZ_PKTCNT & (1UL << 19));
 3310              		.loc 1 1397 3 is_stmt 1 view .LVU1184
1397:STM32Cube_FW_N6/Drivers/STM32N6xx_HAL_Driver/Src/stm32n6xx_ll_usb.c ****   USBx_OUTEP(0U)->DOEPTSIZ |= (USB_OTG_DOEPTSIZ_PKTCNT & (1UL << 19));
 3311              		.loc 1 1397 28 is_stmt 0 view .LVU1185
 3312 0016 0024     		movs	r4, #0
 3313 0018 1C61     		str	r4, [r3, #16]
1398:STM32Cube_FW_N6/Drivers/STM32N6xx_HAL_Driver/Src/stm32n6xx_ll_usb.c ****   USBx_OUTEP(0U)->DOEPTSIZ |= (3U * 8U);
 3314              		.loc 1 1398 3 is_stmt 1 view .LVU1186
1398:STM32Cube_FW_N6/Drivers/STM32N6xx_HAL_Driver/Src/stm32n6xx_ll_usb.c ****   USBx_OUTEP(0U)->DOEPTSIZ |= (3U * 8U);
 3315              		.loc 1 1398 17 is_stmt 0 view .LVU1187
 3316 001a 1C69     		ldr	r4, [r3, #16]
1402:STM32Cube_FW_N6/Drivers/STM32N6xx_HAL_Driver/Src/stm32n6xx_ll_usb.c ****   {
 3317              		.loc 1 1402 6 view .LVU1188
 3318 001c 0129     		cmp	r1, #1
1398:STM32Cube_FW_N6/Drivers/STM32N6xx_HAL_Driver/Src/stm32n6xx_ll_usb.c ****   USBx_OUTEP(0U)->DOEPTSIZ |= (3U * 8U);
 3319              		.loc 1 1398 28 view .LVU1189
 3320 001e 44F40024 		orr	r4, r4, #524288
 3321 0022 1C61     		str	r4, [r3, #16]
1399:STM32Cube_FW_N6/Drivers/STM32N6xx_HAL_Driver/Src/stm32n6xx_ll_usb.c ****   USBx_OUTEP(0U)->DOEPTSIZ |=  USB_OTG_DOEPTSIZ_STUPCNT;
 3322              		.loc 1 1399 3 is_stmt 1 view .LVU1190
1399:STM32Cube_FW_N6/Drivers/STM32N6xx_HAL_Driver/Src/stm32n6xx_ll_usb.c ****   USBx_OUTEP(0U)->DOEPTSIZ |=  USB_OTG_DOEPTSIZ_STUPCNT;
 3323              		.loc 1 1399 17 is_stmt 0 view .LVU1191
 3324 0024 1C69     		ldr	r4, [r3, #16]
1399:STM32Cube_FW_N6/Drivers/STM32N6xx_HAL_Driver/Src/stm32n6xx_ll_usb.c ****   USBx_OUTEP(0U)->DOEPTSIZ |=  USB_OTG_DOEPTSIZ_STUPCNT;
 3325              		.loc 1 1399 28 view .LVU1192
 3326 0026 44F01804 		orr	r4, r4, #24
 3327 002a 1C61     		str	r4, [r3, #16]
1400:STM32Cube_FW_N6/Drivers/STM32N6xx_HAL_Driver/Src/stm32n6xx_ll_usb.c **** 
 3328              		.loc 1 1400 3 is_stmt 1 view .LVU1193
1400:STM32Cube_FW_N6/Drivers/STM32N6xx_HAL_Driver/Src/stm32n6xx_ll_usb.c **** 
ARM GAS  C:\Users\DJESSOU\AppData\Local\Temp\ccOpSjVg.s 			page 104


 3329              		.loc 1 1400 17 is_stmt 0 view .LVU1194
 3330 002c 1C69     		ldr	r4, [r3, #16]
1400:STM32Cube_FW_N6/Drivers/STM32N6xx_HAL_Driver/Src/stm32n6xx_ll_usb.c **** 
 3331              		.loc 1 1400 28 view .LVU1195
 3332 002e 44F0C044 		orr	r4, r4, #1610612736
 3333 0032 1C61     		str	r4, [r3, #16]
1402:STM32Cube_FW_N6/Drivers/STM32N6xx_HAL_Driver/Src/stm32n6xx_ll_usb.c ****   {
 3334              		.loc 1 1402 3 is_stmt 1 view .LVU1196
1404:STM32Cube_FW_N6/Drivers/STM32N6xx_HAL_Driver/Src/stm32n6xx_ll_usb.c ****     /* EP enable */
 3335              		.loc 1 1404 5 view .LVU1197
1404:STM32Cube_FW_N6/Drivers/STM32N6xx_HAL_Driver/Src/stm32n6xx_ll_usb.c ****     /* EP enable */
 3336              		.loc 1 1404 29 is_stmt 0 view .LVU1198
 3337 0034 01BF     		itttt	eq
 3338 0036 5A61     		streq	r2, [r3, #20]
1406:STM32Cube_FW_N6/Drivers/STM32N6xx_HAL_Driver/Src/stm32n6xx_ll_usb.c ****   }
 3339              		.loc 1 1406 5 is_stmt 1 view .LVU1199
1406:STM32Cube_FW_N6/Drivers/STM32N6xx_HAL_Driver/Src/stm32n6xx_ll_usb.c ****   }
 3340              		.loc 1 1406 19 is_stmt 0 view .LVU1200
 3341 0038 D0F8003B 		ldreq	r3, [r0, #2816]
1406:STM32Cube_FW_N6/Drivers/STM32N6xx_HAL_Driver/Src/stm32n6xx_ll_usb.c ****   }
 3342              		.loc 1 1406 29 view .LVU1201
 3343 003c 43F08023 		orreq	r3, r3, #-2147450880
 3344 0040 C0F8003B 		streq	r3, [r0, #2816]
 3345              	.L235:
1410:STM32Cube_FW_N6/Drivers/STM32N6xx_HAL_Driver/Src/stm32n6xx_ll_usb.c **** 
 3346              		.loc 1 1410 1 view .LVU1202
 3347 0044 0020     		movs	r0, #0
 3348              	.LVL228:
1410:STM32Cube_FW_N6/Drivers/STM32N6xx_HAL_Driver/Src/stm32n6xx_ll_usb.c **** 
 3349              		.loc 1 1410 1 view .LVU1203
 3350 0046 30BD     		pop	{r4, r5, pc}
 3351              	.LVL229:
 3352              	.L238:
1410:STM32Cube_FW_N6/Drivers/STM32N6xx_HAL_Driver/Src/stm32n6xx_ll_usb.c **** 
 3353              		.loc 1 1410 1 view .LVU1204
 3354              		.align	2
 3355              	.L237:
 3356 0048 0A30544F 		.word	1330917386
 3357              		.cfi_endproc
 3358              	.LFE895:
 3360              		.section	.text.USB_HostInit,"ax",%progbits
 3361              		.align	1
 3362              		.global	USB_HostInit
 3363              		.syntax unified
 3364              		.thumb
 3365              		.thumb_func
 3367              	USB_HostInit:
 3368              	.LVL230:
 3369              	.LFB897:
1454:STM32Cube_FW_N6/Drivers/STM32N6xx_HAL_Driver/Src/stm32n6xx_ll_usb.c **** }
1455:STM32Cube_FW_N6/Drivers/STM32N6xx_HAL_Driver/Src/stm32n6xx_ll_usb.c **** 
1456:STM32Cube_FW_N6/Drivers/STM32N6xx_HAL_Driver/Src/stm32n6xx_ll_usb.c **** /**
1457:STM32Cube_FW_N6/Drivers/STM32N6xx_HAL_Driver/Src/stm32n6xx_ll_usb.c ****   * @brief  USB_HostInit : Initializes the USB OTG controller registers
1458:STM32Cube_FW_N6/Drivers/STM32N6xx_HAL_Driver/Src/stm32n6xx_ll_usb.c ****   *         for Host mode
1459:STM32Cube_FW_N6/Drivers/STM32N6xx_HAL_Driver/Src/stm32n6xx_ll_usb.c ****   * @param  USBx  Selected device
1460:STM32Cube_FW_N6/Drivers/STM32N6xx_HAL_Driver/Src/stm32n6xx_ll_usb.c ****   * @param  cfg   pointer to a USB_OTG_CfgTypeDef structure that contains
1461:STM32Cube_FW_N6/Drivers/STM32N6xx_HAL_Driver/Src/stm32n6xx_ll_usb.c ****   *         the configuration information for the specified USBx peripheral.
ARM GAS  C:\Users\DJESSOU\AppData\Local\Temp\ccOpSjVg.s 			page 105


1462:STM32Cube_FW_N6/Drivers/STM32N6xx_HAL_Driver/Src/stm32n6xx_ll_usb.c ****   * @retval HAL status
1463:STM32Cube_FW_N6/Drivers/STM32N6xx_HAL_Driver/Src/stm32n6xx_ll_usb.c ****   */
1464:STM32Cube_FW_N6/Drivers/STM32N6xx_HAL_Driver/Src/stm32n6xx_ll_usb.c **** HAL_StatusTypeDef USB_HostInit(USB_OTG_GlobalTypeDef *USBx, USB_OTG_CfgTypeDef cfg)
1465:STM32Cube_FW_N6/Drivers/STM32N6xx_HAL_Driver/Src/stm32n6xx_ll_usb.c **** {
 3370              		.loc 1 1465 1 is_stmt 1 view -0
 3371              		.cfi_startproc
 3372              		@ args = 20, pretend = 16, frame = 0
 3373              		@ frame_needed = 0, uses_anonymous_args = 0
1466:STM32Cube_FW_N6/Drivers/STM32N6xx_HAL_Driver/Src/stm32n6xx_ll_usb.c ****   HAL_StatusTypeDef ret = HAL_OK;
 3374              		.loc 1 1466 3 view .LVU1206
1467:STM32Cube_FW_N6/Drivers/STM32N6xx_HAL_Driver/Src/stm32n6xx_ll_usb.c ****   uint32_t USBx_BASE = (uint32_t)USBx;
 3375              		.loc 1 1467 3 view .LVU1207
1465:STM32Cube_FW_N6/Drivers/STM32N6xx_HAL_Driver/Src/stm32n6xx_ll_usb.c ****   HAL_StatusTypeDef ret = HAL_OK;
 3376              		.loc 1 1465 1 is_stmt 0 view .LVU1208
 3377 0000 84B0     		sub	sp, sp, #16
 3378              		.cfi_def_cfa_offset 16
 3379 0002 70B5     		push	{r4, r5, r6, lr}
 3380              		.cfi_def_cfa_offset 32
 3381              		.cfi_offset 4, -32
 3382              		.cfi_offset 5, -28
 3383              		.cfi_offset 6, -24
 3384              		.cfi_offset 14, -20
1465:STM32Cube_FW_N6/Drivers/STM32N6xx_HAL_Driver/Src/stm32n6xx_ll_usb.c ****   HAL_StatusTypeDef ret = HAL_OK;
 3385              		.loc 1 1465 1 view .LVU1209
 3386 0004 0446     		mov	r4, r0
 3387              	.LVL231:
1468:STM32Cube_FW_N6/Drivers/STM32N6xx_HAL_Driver/Src/stm32n6xx_ll_usb.c ****   uint32_t i;
 3388              		.loc 1 1468 3 is_stmt 1 view .LVU1210
1469:STM32Cube_FW_N6/Drivers/STM32N6xx_HAL_Driver/Src/stm32n6xx_ll_usb.c **** 
1470:STM32Cube_FW_N6/Drivers/STM32N6xx_HAL_Driver/Src/stm32n6xx_ll_usb.c ****   /* Enable USB PHY pulldown resistors */
1471:STM32Cube_FW_N6/Drivers/STM32N6xx_HAL_Driver/Src/stm32n6xx_ll_usb.c ****   USBx->GCCFG |= USB_OTG_GCCFG_PULLDOWNEN;
 3389              		.loc 1 1471 3 view .LVU1211
1465:STM32Cube_FW_N6/Drivers/STM32N6xx_HAL_Driver/Src/stm32n6xx_ll_usb.c ****   HAL_StatusTypeDef ret = HAL_OK;
 3390              		.loc 1 1465 1 is_stmt 0 view .LVU1212
 3391 0006 05A8     		add	r0, sp, #20
 3392              	.LVL232:
1465:STM32Cube_FW_N6/Drivers/STM32N6xx_HAL_Driver/Src/stm32n6xx_ll_usb.c ****   HAL_StatusTypeDef ret = HAL_OK;
 3393              		.loc 1 1465 1 view .LVU1213
 3394 0008 80E80E00 		stm	r0, {r1, r2, r3}
 3395              		.loc 1 1471 7 view .LVU1214
 3396 000c A36B     		ldr	r3, [r4, #56]
 3397              		.loc 1 1471 15 view .LVU1215
 3398 000e 43F00073 		orr	r3, r3, #33554432
 3399 0012 A363     		str	r3, [r4, #56]
1472:STM32Cube_FW_N6/Drivers/STM32N6xx_HAL_Driver/Src/stm32n6xx_ll_usb.c **** 
1473:STM32Cube_FW_N6/Drivers/STM32N6xx_HAL_Driver/Src/stm32n6xx_ll_usb.c ****   /* Restart the Phy Clock */
1474:STM32Cube_FW_N6/Drivers/STM32N6xx_HAL_Driver/Src/stm32n6xx_ll_usb.c ****   USBx_PCGCCTL = 0U;
 3400              		.loc 1 1474 3 is_stmt 1 view .LVU1216
 3401              		.loc 1 1474 16 is_stmt 0 view .LVU1217
 3402 0014 0023     		movs	r3, #0
 3403 0016 C4F8003E 		str	r3, [r4, #3584]
1475:STM32Cube_FW_N6/Drivers/STM32N6xx_HAL_Driver/Src/stm32n6xx_ll_usb.c **** 
1476:STM32Cube_FW_N6/Drivers/STM32N6xx_HAL_Driver/Src/stm32n6xx_ll_usb.c ****   /* Disable VBUS override */
1477:STM32Cube_FW_N6/Drivers/STM32N6xx_HAL_Driver/Src/stm32n6xx_ll_usb.c ****   USBx->GCCFG &= ~(USB_OTG_GCCFG_VBVALOVAL | USB_OTG_GCCFG_VBVALEXTOEN);
 3404              		.loc 1 1477 3 is_stmt 1 view .LVU1218
 3405              		.loc 1 1477 7 is_stmt 0 view .LVU1219
 3406 001a A36B     		ldr	r3, [r4, #56]
ARM GAS  C:\Users\DJESSOU\AppData\Local\Temp\ccOpSjVg.s 			page 106


 3407              		.loc 1 1477 15 view .LVU1220
 3408 001c 23F0C073 		bic	r3, r3, #25165824
 3409 0020 A363     		str	r3, [r4, #56]
1478:STM32Cube_FW_N6/Drivers/STM32N6xx_HAL_Driver/Src/stm32n6xx_ll_usb.c **** 
1479:STM32Cube_FW_N6/Drivers/STM32N6xx_HAL_Driver/Src/stm32n6xx_ll_usb.c ****   /* Disable Battery chargin detector */
1480:STM32Cube_FW_N6/Drivers/STM32N6xx_HAL_Driver/Src/stm32n6xx_ll_usb.c ****   USBx->GCCFG &= ~(USB_OTG_GCCFG_PDETEN);
 3410              		.loc 1 1480 3 is_stmt 1 view .LVU1221
 3411              		.loc 1 1480 7 is_stmt 0 view .LVU1222
 3412 0022 A36B     		ldr	r3, [r4, #56]
 3413              		.loc 1 1480 15 view .LVU1223
 3414 0024 23F48013 		bic	r3, r3, #1048576
 3415 0028 A363     		str	r3, [r4, #56]
1481:STM32Cube_FW_N6/Drivers/STM32N6xx_HAL_Driver/Src/stm32n6xx_ll_usb.c ****   USBx->GCCFG &= ~(USB_OTG_GCCFG_SDETEN);
 3416              		.loc 1 1481 3 is_stmt 1 view .LVU1224
 3417              		.loc 1 1481 7 is_stmt 0 view .LVU1225
 3418 002a A36B     		ldr	r3, [r4, #56]
 3419              		.loc 1 1481 15 view .LVU1226
 3420 002c 23F48003 		bic	r3, r3, #4194304
 3421 0030 A363     		str	r3, [r4, #56]
1482:STM32Cube_FW_N6/Drivers/STM32N6xx_HAL_Driver/Src/stm32n6xx_ll_usb.c **** 
1483:STM32Cube_FW_N6/Drivers/STM32N6xx_HAL_Driver/Src/stm32n6xx_ll_usb.c ****   if ((USBx->GUSBCFG & USB_OTG_GUSBCFG_PHYSEL) == 0U)
 3422              		.loc 1 1483 3 is_stmt 1 view .LVU1227
 3423              		.loc 1 1483 12 is_stmt 0 view .LVU1228
 3424 0032 E368     		ldr	r3, [r4, #12]
 3425              		.loc 1 1483 6 view .LVU1229
 3426 0034 5B06     		lsls	r3, r3, #25
 3427 0036 3ED4     		bmi	.L240
1484:STM32Cube_FW_N6/Drivers/STM32N6xx_HAL_Driver/Src/stm32n6xx_ll_usb.c ****   {
1485:STM32Cube_FW_N6/Drivers/STM32N6xx_HAL_Driver/Src/stm32n6xx_ll_usb.c ****     if (cfg.speed == USBH_FSLS_SPEED)
 3428              		.loc 1 1485 5 is_stmt 1 view .LVU1230
 3429              		.loc 1 1485 8 is_stmt 0 view .LVU1231
 3430 0038 9DF81730 		ldrb	r3, [sp, #23]	@ zero_extendqisi2
 3431 003c 012B     		cmp	r3, #1
1486:STM32Cube_FW_N6/Drivers/STM32N6xx_HAL_Driver/Src/stm32n6xx_ll_usb.c ****     {
1487:STM32Cube_FW_N6/Drivers/STM32N6xx_HAL_Driver/Src/stm32n6xx_ll_usb.c ****       /* Force Device Enumeration to FS/LS mode only */
1488:STM32Cube_FW_N6/Drivers/STM32N6xx_HAL_Driver/Src/stm32n6xx_ll_usb.c ****       USBx_HOST->HCFG |= USB_OTG_HCFG_FSLSS;
 3432              		.loc 1 1488 16 view .LVU1232
 3433 003e D4F80034 		ldr	r3, [r4, #1024]
1485:STM32Cube_FW_N6/Drivers/STM32N6xx_HAL_Driver/Src/stm32n6xx_ll_usb.c ****     {
 3434              		.loc 1 1485 8 view .LVU1233
 3435 0042 3AD1     		bne	.L248
 3436              		.loc 1 1488 7 is_stmt 1 view .LVU1234
 3437              		.loc 1 1488 23 is_stmt 0 view .LVU1235
 3438 0044 43F00403 		orr	r3, r3, #4
 3439              	.L247:
1489:STM32Cube_FW_N6/Drivers/STM32N6xx_HAL_Driver/Src/stm32n6xx_ll_usb.c ****     }
1490:STM32Cube_FW_N6/Drivers/STM32N6xx_HAL_Driver/Src/stm32n6xx_ll_usb.c ****     else
1491:STM32Cube_FW_N6/Drivers/STM32N6xx_HAL_Driver/Src/stm32n6xx_ll_usb.c ****     {
1492:STM32Cube_FW_N6/Drivers/STM32N6xx_HAL_Driver/Src/stm32n6xx_ll_usb.c ****       /* Set default Max speed support */
1493:STM32Cube_FW_N6/Drivers/STM32N6xx_HAL_Driver/Src/stm32n6xx_ll_usb.c ****       USBx_HOST->HCFG &= ~(USB_OTG_HCFG_FSLSS);
1494:STM32Cube_FW_N6/Drivers/STM32N6xx_HAL_Driver/Src/stm32n6xx_ll_usb.c ****     }
1495:STM32Cube_FW_N6/Drivers/STM32N6xx_HAL_Driver/Src/stm32n6xx_ll_usb.c ****   }
1496:STM32Cube_FW_N6/Drivers/STM32N6xx_HAL_Driver/Src/stm32n6xx_ll_usb.c ****   else
1497:STM32Cube_FW_N6/Drivers/STM32N6xx_HAL_Driver/Src/stm32n6xx_ll_usb.c ****   {
1498:STM32Cube_FW_N6/Drivers/STM32N6xx_HAL_Driver/Src/stm32n6xx_ll_usb.c ****     /* Set default Max speed support */
1499:STM32Cube_FW_N6/Drivers/STM32N6xx_HAL_Driver/Src/stm32n6xx_ll_usb.c ****     USBx_HOST->HCFG &= ~(USB_OTG_HCFG_FSLSS);
 3440              		.loc 1 1499 21 view .LVU1236
ARM GAS  C:\Users\DJESSOU\AppData\Local\Temp\ccOpSjVg.s 			page 107


 3441 0048 C4F80034 		str	r3, [r4, #1024]
1500:STM32Cube_FW_N6/Drivers/STM32N6xx_HAL_Driver/Src/stm32n6xx_ll_usb.c ****   }
1501:STM32Cube_FW_N6/Drivers/STM32N6xx_HAL_Driver/Src/stm32n6xx_ll_usb.c **** 
1502:STM32Cube_FW_N6/Drivers/STM32N6xx_HAL_Driver/Src/stm32n6xx_ll_usb.c ****   /* Make sure the FIFOs are flushed. */
1503:STM32Cube_FW_N6/Drivers/STM32N6xx_HAL_Driver/Src/stm32n6xx_ll_usb.c ****   if (USB_FlushTxFifo(USBx, 0x10U) != HAL_OK) /* all Tx FIFOs */
 3442              		.loc 1 1503 3 is_stmt 1 view .LVU1237
 3443              		.loc 1 1503 7 is_stmt 0 view .LVU1238
 3444 004c 1021     		movs	r1, #16
 3445 004e 2046     		mov	r0, r4
 3446 0050 FFF7FEFF 		bl	USB_FlushTxFifo
 3447              	.LVL233:
 3448 0054 0146     		mov	r1, r0
 3449              	.LVL234:
1504:STM32Cube_FW_N6/Drivers/STM32N6xx_HAL_Driver/Src/stm32n6xx_ll_usb.c ****   {
1505:STM32Cube_FW_N6/Drivers/STM32N6xx_HAL_Driver/Src/stm32n6xx_ll_usb.c ****     ret = HAL_ERROR;
1506:STM32Cube_FW_N6/Drivers/STM32N6xx_HAL_Driver/Src/stm32n6xx_ll_usb.c ****   }
1507:STM32Cube_FW_N6/Drivers/STM32N6xx_HAL_Driver/Src/stm32n6xx_ll_usb.c **** 
1508:STM32Cube_FW_N6/Drivers/STM32N6xx_HAL_Driver/Src/stm32n6xx_ll_usb.c ****   if (USB_FlushRxFifo(USBx) != HAL_OK)
 3450              		.loc 1 1508 3 is_stmt 1 view .LVU1239
 3451              		.loc 1 1508 7 is_stmt 0 view .LVU1240
 3452 0056 2046     		mov	r0, r4
 3453 0058 FFF7FEFF 		bl	USB_FlushRxFifo
 3454              	.LVL235:
 3455 005c 0026     		movs	r6, #0
 3456              		.loc 1 1508 6 discriminator 1 view .LVU1241
 3457 005e 0843     		orrs	r0, r0, r1
 3458 0060 C0B2     		uxtb	r0, r0
1509:STM32Cube_FW_N6/Drivers/STM32N6xx_HAL_Driver/Src/stm32n6xx_ll_usb.c ****   {
1510:STM32Cube_FW_N6/Drivers/STM32N6xx_HAL_Driver/Src/stm32n6xx_ll_usb.c ****     ret = HAL_ERROR;
1511:STM32Cube_FW_N6/Drivers/STM32N6xx_HAL_Driver/Src/stm32n6xx_ll_usb.c ****   }
1512:STM32Cube_FW_N6/Drivers/STM32N6xx_HAL_Driver/Src/stm32n6xx_ll_usb.c **** 
1513:STM32Cube_FW_N6/Drivers/STM32N6xx_HAL_Driver/Src/stm32n6xx_ll_usb.c ****   /* Clear all pending HC Interrupts */
1514:STM32Cube_FW_N6/Drivers/STM32N6xx_HAL_Driver/Src/stm32n6xx_ll_usb.c ****   for (i = 0U; i < cfg.Host_channels; i++)
 3459              		.loc 1 1514 23 discriminator 1 view .LVU1242
 3460 0062 9DF81510 		ldrb	r1, [sp, #21]	@ zero_extendqisi2
 3461              	.LVL236:
1508:STM32Cube_FW_N6/Drivers/STM32N6xx_HAL_Driver/Src/stm32n6xx_ll_usb.c ****   {
 3462              		.loc 1 1508 6 discriminator 1 view .LVU1243
 3463 0066 0038     		subs	r0, r0, #0
 3464 0068 18BF     		it	ne
 3465 006a 0120     		movne	r0, #1
 3466              	.LVL237:
 3467              		.loc 1 1514 3 is_stmt 1 view .LVU1244
 3468              		.loc 1 1514 3 is_stmt 0 view .LVU1245
 3469 006c B142     		cmp	r1, r6
 3470 006e 01F10103 		add	r3, r1, #1
 3471 0072 4FF0FF35 		mov	r5, #-1
 3472 0076 08BF     		it	eq
 3473 0078 0123     		moveq	r3, #1
 3474 007a 04F5A062 		add	r2, r4, #1280
 3475              	.LVL238:
 3476              	.L243:
 3477              		.loc 1 1514 18 is_stmt 1 discriminator 1 view .LVU1246
 3478 007e 013B     		subs	r3, r3, #1
 3479 0080 1ED1     		bne	.L244
1515:STM32Cube_FW_N6/Drivers/STM32N6xx_HAL_Driver/Src/stm32n6xx_ll_usb.c ****   {
1516:STM32Cube_FW_N6/Drivers/STM32N6xx_HAL_Driver/Src/stm32n6xx_ll_usb.c ****     USBx_HC(i)->HCINT = CLEAR_INTERRUPT_MASK;
ARM GAS  C:\Users\DJESSOU\AppData\Local\Temp\ccOpSjVg.s 			page 108


1517:STM32Cube_FW_N6/Drivers/STM32N6xx_HAL_Driver/Src/stm32n6xx_ll_usb.c ****     USBx_HC(i)->HCINTMSK = 0U;
1518:STM32Cube_FW_N6/Drivers/STM32N6xx_HAL_Driver/Src/stm32n6xx_ll_usb.c ****   }
1519:STM32Cube_FW_N6/Drivers/STM32N6xx_HAL_Driver/Src/stm32n6xx_ll_usb.c **** 
1520:STM32Cube_FW_N6/Drivers/STM32N6xx_HAL_Driver/Src/stm32n6xx_ll_usb.c ****   /* Disable all interrupts. */
1521:STM32Cube_FW_N6/Drivers/STM32N6xx_HAL_Driver/Src/stm32n6xx_ll_usb.c ****   USBx->GINTMSK = 0U;
 3480              		.loc 1 1521 3 view .LVU1247
1522:STM32Cube_FW_N6/Drivers/STM32N6xx_HAL_Driver/Src/stm32n6xx_ll_usb.c **** 
1523:STM32Cube_FW_N6/Drivers/STM32N6xx_HAL_Driver/Src/stm32n6xx_ll_usb.c ****   /* Clear any pending interrupts */
1524:STM32Cube_FW_N6/Drivers/STM32N6xx_HAL_Driver/Src/stm32n6xx_ll_usb.c ****   USBx->GINTSTS = CLEAR_INTERRUPT_MASK;
1525:STM32Cube_FW_N6/Drivers/STM32N6xx_HAL_Driver/Src/stm32n6xx_ll_usb.c ****   /* set Rx FIFO size */
1526:STM32Cube_FW_N6/Drivers/STM32N6xx_HAL_Driver/Src/stm32n6xx_ll_usb.c ****   USBx->GRXFSIZ  = 0x200U;
 3481              		.loc 1 1526 18 is_stmt 0 view .LVU1248
 3482 0082 4FF40073 		mov	r3, #512
1521:STM32Cube_FW_N6/Drivers/STM32N6xx_HAL_Driver/Src/stm32n6xx_ll_usb.c **** 
 3483              		.loc 1 1521 17 view .LVU1249
 3484 0086 A661     		str	r6, [r4, #24]
1524:STM32Cube_FW_N6/Drivers/STM32N6xx_HAL_Driver/Src/stm32n6xx_ll_usb.c ****   /* set Rx FIFO size */
 3485              		.loc 1 1524 3 is_stmt 1 view .LVU1250
1524:STM32Cube_FW_N6/Drivers/STM32N6xx_HAL_Driver/Src/stm32n6xx_ll_usb.c ****   /* set Rx FIFO size */
 3486              		.loc 1 1524 17 is_stmt 0 view .LVU1251
 3487 0088 6561     		str	r5, [r4, #20]
 3488              		.loc 1 1526 3 is_stmt 1 view .LVU1252
 3489              		.loc 1 1526 18 is_stmt 0 view .LVU1253
 3490 008a 6362     		str	r3, [r4, #36]
1527:STM32Cube_FW_N6/Drivers/STM32N6xx_HAL_Driver/Src/stm32n6xx_ll_usb.c ****   USBx->DIEPTXF0_HNPTXFSIZ = (uint32_t)(((0x100UL << 16) & USB_OTG_NPTXFD) | 0x200U);
 3491              		.loc 1 1527 3 is_stmt 1 view .LVU1254
 3492              		.loc 1 1527 28 is_stmt 0 view .LVU1255
 3493 008c 03F18073 		add	r3, r3, #16777216
 3494 0090 A362     		str	r3, [r4, #40]
1528:STM32Cube_FW_N6/Drivers/STM32N6xx_HAL_Driver/Src/stm32n6xx_ll_usb.c ****   USBx->HPTXFSIZ = (uint32_t)(((0xE0UL << 16) & USB_OTG_HPTXFSIZ_PTXFD) | 0x300U);
 3495              		.loc 1 1528 3 is_stmt 1 view .LVU1256
 3496              		.loc 1 1528 18 is_stmt 0 view .LVU1257
 3497 0092 0D4B     		ldr	r3, .L249
 3498 0094 C4F80031 		str	r3, [r4, #256]
1529:STM32Cube_FW_N6/Drivers/STM32N6xx_HAL_Driver/Src/stm32n6xx_ll_usb.c **** 
1530:STM32Cube_FW_N6/Drivers/STM32N6xx_HAL_Driver/Src/stm32n6xx_ll_usb.c ****   /* Enable the common interrupts */
1531:STM32Cube_FW_N6/Drivers/STM32N6xx_HAL_Driver/Src/stm32n6xx_ll_usb.c ****   if (cfg.dma_enable == 0U)
 3499              		.loc 1 1531 3 is_stmt 1 view .LVU1258
 3500              		.loc 1 1531 6 is_stmt 0 view .LVU1259
 3501 0098 9DF81630 		ldrb	r3, [sp, #22]	@ zero_extendqisi2
 3502 009c 1BB9     		cbnz	r3, .L245
1532:STM32Cube_FW_N6/Drivers/STM32N6xx_HAL_Driver/Src/stm32n6xx_ll_usb.c ****   {
1533:STM32Cube_FW_N6/Drivers/STM32N6xx_HAL_Driver/Src/stm32n6xx_ll_usb.c ****     USBx->GINTMSK |= USB_OTG_GINTMSK_RXFLVLM;
 3503              		.loc 1 1533 5 is_stmt 1 view .LVU1260
 3504              		.loc 1 1533 9 is_stmt 0 view .LVU1261
 3505 009e A369     		ldr	r3, [r4, #24]
 3506              		.loc 1 1533 19 view .LVU1262
 3507 00a0 43F01003 		orr	r3, r3, #16
 3508 00a4 A361     		str	r3, [r4, #24]
 3509              	.L245:
1534:STM32Cube_FW_N6/Drivers/STM32N6xx_HAL_Driver/Src/stm32n6xx_ll_usb.c ****   }
1535:STM32Cube_FW_N6/Drivers/STM32N6xx_HAL_Driver/Src/stm32n6xx_ll_usb.c **** 
1536:STM32Cube_FW_N6/Drivers/STM32N6xx_HAL_Driver/Src/stm32n6xx_ll_usb.c ****   /* Enable interrupts matching to the Host mode ONLY */
1537:STM32Cube_FW_N6/Drivers/STM32N6xx_HAL_Driver/Src/stm32n6xx_ll_usb.c ****   USBx->GINTMSK |= (USB_OTG_GINTMSK_PRTIM            | USB_OTG_GINTMSK_HCIM | \
 3510              		.loc 1 1537 3 is_stmt 1 view .LVU1263
 3511              		.loc 1 1537 7 is_stmt 0 view .LVU1264
 3512 00a6 A269     		ldr	r2, [r4, #24]
ARM GAS  C:\Users\DJESSOU\AppData\Local\Temp\ccOpSjVg.s 			page 109


 3513              		.loc 1 1537 17 view .LVU1265
 3514 00a8 084B     		ldr	r3, .L249+4
 3515 00aa 1343     		orrs	r3, r3, r2
 3516 00ac A361     		str	r3, [r4, #24]
1538:STM32Cube_FW_N6/Drivers/STM32N6xx_HAL_Driver/Src/stm32n6xx_ll_usb.c ****                     USB_OTG_GINTMSK_SOFM             | USB_OTG_GINTSTS_DISCINT | \
1539:STM32Cube_FW_N6/Drivers/STM32N6xx_HAL_Driver/Src/stm32n6xx_ll_usb.c ****                     USB_OTG_GINTMSK_PXFRM_IISOOXFRM  | USB_OTG_GINTMSK_WUIM);
1540:STM32Cube_FW_N6/Drivers/STM32N6xx_HAL_Driver/Src/stm32n6xx_ll_usb.c **** 
1541:STM32Cube_FW_N6/Drivers/STM32N6xx_HAL_Driver/Src/stm32n6xx_ll_usb.c ****   return ret;
 3517              		.loc 1 1541 3 is_stmt 1 view .LVU1266
1542:STM32Cube_FW_N6/Drivers/STM32N6xx_HAL_Driver/Src/stm32n6xx_ll_usb.c **** }
 3518              		.loc 1 1542 1 is_stmt 0 view .LVU1267
 3519 00ae BDE87040 		pop	{r4, r5, r6, lr}
 3520              		.cfi_remember_state
 3521              		.cfi_restore 14
 3522              		.cfi_restore 6
 3523              		.cfi_restore 5
 3524              		.cfi_restore 4
 3525              		.cfi_def_cfa_offset 16
 3526              	.LVL239:
 3527              		.loc 1 1542 1 view .LVU1268
 3528 00b2 04B0     		add	sp, sp, #16
 3529              		.cfi_def_cfa_offset 0
 3530 00b4 7047     		bx	lr
 3531              	.LVL240:
 3532              	.L240:
 3533              		.cfi_restore_state
1499:STM32Cube_FW_N6/Drivers/STM32N6xx_HAL_Driver/Src/stm32n6xx_ll_usb.c ****   }
 3534              		.loc 1 1499 5 is_stmt 1 view .LVU1269
1499:STM32Cube_FW_N6/Drivers/STM32N6xx_HAL_Driver/Src/stm32n6xx_ll_usb.c ****   }
 3535              		.loc 1 1499 14 is_stmt 0 view .LVU1270
 3536 00b6 D4F80034 		ldr	r3, [r4, #1024]
 3537              	.L248:
1499:STM32Cube_FW_N6/Drivers/STM32N6xx_HAL_Driver/Src/stm32n6xx_ll_usb.c ****   }
 3538              		.loc 1 1499 21 view .LVU1271
 3539 00ba 23F00403 		bic	r3, r3, #4
 3540 00be C3E7     		b	.L247
 3541              	.LVL241:
 3542              	.L244:
1516:STM32Cube_FW_N6/Drivers/STM32N6xx_HAL_Driver/Src/stm32n6xx_ll_usb.c ****     USBx_HC(i)->HCINTMSK = 0U;
 3543              		.loc 1 1516 5 is_stmt 1 view .LVU1272
1516:STM32Cube_FW_N6/Drivers/STM32N6xx_HAL_Driver/Src/stm32n6xx_ll_usb.c ****     USBx_HC(i)->HCINTMSK = 0U;
 3544              		.loc 1 1516 23 is_stmt 0 view .LVU1273
 3545 00c0 9560     		str	r5, [r2, #8]
1517:STM32Cube_FW_N6/Drivers/STM32N6xx_HAL_Driver/Src/stm32n6xx_ll_usb.c ****   }
 3546              		.loc 1 1517 5 is_stmt 1 view .LVU1274
1517:STM32Cube_FW_N6/Drivers/STM32N6xx_HAL_Driver/Src/stm32n6xx_ll_usb.c ****   }
 3547              		.loc 1 1517 26 is_stmt 0 view .LVU1275
 3548 00c2 D660     		str	r6, [r2, #12]
1514:STM32Cube_FW_N6/Drivers/STM32N6xx_HAL_Driver/Src/stm32n6xx_ll_usb.c ****   {
 3549              		.loc 1 1514 40 is_stmt 1 discriminator 3 view .LVU1276
 3550 00c4 2032     		adds	r2, r2, #32
 3551 00c6 DAE7     		b	.L243
 3552              	.L250:
 3553              		.align	2
 3554              	.L249:
 3555 00c8 0003E000 		.word	14680832
 3556 00cc 080020A3 		.word	-1558183928
ARM GAS  C:\Users\DJESSOU\AppData\Local\Temp\ccOpSjVg.s 			page 110


 3557              		.cfi_endproc
 3558              	.LFE897:
 3560              		.section	.text.USB_InitFSLSPClkSel,"ax",%progbits
 3561              		.align	1
 3562              		.global	USB_InitFSLSPClkSel
 3563              		.syntax unified
 3564              		.thumb
 3565              		.thumb_func
 3567              	USB_InitFSLSPClkSel:
 3568              	.LVL242:
 3569              	.LFB898:
1543:STM32Cube_FW_N6/Drivers/STM32N6xx_HAL_Driver/Src/stm32n6xx_ll_usb.c **** 
1544:STM32Cube_FW_N6/Drivers/STM32N6xx_HAL_Driver/Src/stm32n6xx_ll_usb.c **** /**
1545:STM32Cube_FW_N6/Drivers/STM32N6xx_HAL_Driver/Src/stm32n6xx_ll_usb.c ****   * @brief  USB_InitFSLSPClkSel : Initializes the FSLSPClkSel field of the
1546:STM32Cube_FW_N6/Drivers/STM32N6xx_HAL_Driver/Src/stm32n6xx_ll_usb.c ****   *         HCFG register on the PHY type and set the right frame interval
1547:STM32Cube_FW_N6/Drivers/STM32N6xx_HAL_Driver/Src/stm32n6xx_ll_usb.c ****   * @param  USBx  Selected device
1548:STM32Cube_FW_N6/Drivers/STM32N6xx_HAL_Driver/Src/stm32n6xx_ll_usb.c ****   * @param  freq  clock frequency
1549:STM32Cube_FW_N6/Drivers/STM32N6xx_HAL_Driver/Src/stm32n6xx_ll_usb.c ****   *          This parameter can be one of these values:
1550:STM32Cube_FW_N6/Drivers/STM32N6xx_HAL_Driver/Src/stm32n6xx_ll_usb.c ****   *           HCFG_48_MHZ : Full Speed 48 MHz Clock
1551:STM32Cube_FW_N6/Drivers/STM32N6xx_HAL_Driver/Src/stm32n6xx_ll_usb.c ****   *           HCFG_6_MHZ : Low Speed 6 MHz Clock
1552:STM32Cube_FW_N6/Drivers/STM32N6xx_HAL_Driver/Src/stm32n6xx_ll_usb.c ****   * @retval HAL status
1553:STM32Cube_FW_N6/Drivers/STM32N6xx_HAL_Driver/Src/stm32n6xx_ll_usb.c ****   */
1554:STM32Cube_FW_N6/Drivers/STM32N6xx_HAL_Driver/Src/stm32n6xx_ll_usb.c **** HAL_StatusTypeDef USB_InitFSLSPClkSel(const USB_OTG_GlobalTypeDef *USBx, uint8_t freq)
1555:STM32Cube_FW_N6/Drivers/STM32N6xx_HAL_Driver/Src/stm32n6xx_ll_usb.c **** {
 3570              		.loc 1 1555 1 view -0
 3571              		.cfi_startproc
 3572              		@ args = 0, pretend = 0, frame = 0
 3573              		@ frame_needed = 0, uses_anonymous_args = 0
1556:STM32Cube_FW_N6/Drivers/STM32N6xx_HAL_Driver/Src/stm32n6xx_ll_usb.c ****   uint32_t USBx_BASE = (uint32_t)USBx;
 3574              		.loc 1 1556 3 view .LVU1278
1557:STM32Cube_FW_N6/Drivers/STM32N6xx_HAL_Driver/Src/stm32n6xx_ll_usb.c **** 
1558:STM32Cube_FW_N6/Drivers/STM32N6xx_HAL_Driver/Src/stm32n6xx_ll_usb.c ****   USBx_HOST->HCFG &= ~(USB_OTG_HCFG_FSLSPCS);
 3575              		.loc 1 1558 3 view .LVU1279
 3576              		.loc 1 1558 12 is_stmt 0 view .LVU1280
 3577 0000 D0F80034 		ldr	r3, [r0, #1024]
1555:STM32Cube_FW_N6/Drivers/STM32N6xx_HAL_Driver/Src/stm32n6xx_ll_usb.c ****   uint32_t USBx_BASE = (uint32_t)USBx;
 3578              		.loc 1 1555 1 view .LVU1281
 3579 0004 10B5     		push	{r4, lr}
 3580              		.cfi_def_cfa_offset 8
 3581              		.cfi_offset 4, -8
 3582              		.cfi_offset 14, -4
 3583              		.loc 1 1558 19 view .LVU1282
 3584 0006 23F00303 		bic	r3, r3, #3
 3585 000a C0F80034 		str	r3, [r0, #1024]
1559:STM32Cube_FW_N6/Drivers/STM32N6xx_HAL_Driver/Src/stm32n6xx_ll_usb.c ****   USBx_HOST->HCFG |= (uint32_t)freq & USB_OTG_HCFG_FSLSPCS;
 3586              		.loc 1 1559 3 is_stmt 1 view .LVU1283
 3587              		.loc 1 1559 12 is_stmt 0 view .LVU1284
 3588 000e D0F80044 		ldr	r4, [r0, #1024]
 3589              		.loc 1 1559 37 view .LVU1285
 3590 0012 01F00303 		and	r3, r1, #3
 3591              		.loc 1 1559 19 view .LVU1286
 3592 0016 2343     		orrs	r3, r3, r4
1560:STM32Cube_FW_N6/Drivers/STM32N6xx_HAL_Driver/Src/stm32n6xx_ll_usb.c **** 
1561:STM32Cube_FW_N6/Drivers/STM32N6xx_HAL_Driver/Src/stm32n6xx_ll_usb.c ****   if (freq == HCFG_48_MHZ)
 3593              		.loc 1 1561 6 view .LVU1287
 3594 0018 0129     		cmp	r1, #1
1558:STM32Cube_FW_N6/Drivers/STM32N6xx_HAL_Driver/Src/stm32n6xx_ll_usb.c ****   USBx_HOST->HCFG |= (uint32_t)freq & USB_OTG_HCFG_FSLSPCS;
ARM GAS  C:\Users\DJESSOU\AppData\Local\Temp\ccOpSjVg.s 			page 111


 3595              		.loc 1 1558 12 view .LVU1288
 3596 001a 00F58062 		add	r2, r0, #1024
1559:STM32Cube_FW_N6/Drivers/STM32N6xx_HAL_Driver/Src/stm32n6xx_ll_usb.c ****   USBx_HOST->HCFG |= (uint32_t)freq & USB_OTG_HCFG_FSLSPCS;
 3597              		.loc 1 1559 19 view .LVU1289
 3598 001e C0F80034 		str	r3, [r0, #1024]
 3599              		.loc 1 1561 3 is_stmt 1 view .LVU1290
 3600              		.loc 1 1561 6 is_stmt 0 view .LVU1291
 3601 0022 04D1     		bne	.L252
1562:STM32Cube_FW_N6/Drivers/STM32N6xx_HAL_Driver/Src/stm32n6xx_ll_usb.c ****   {
1563:STM32Cube_FW_N6/Drivers/STM32N6xx_HAL_Driver/Src/stm32n6xx_ll_usb.c ****     USBx_HOST->HFIR = HFIR_48_MHZ;
 3602              		.loc 1 1563 5 is_stmt 1 view .LVU1292
 3603              		.loc 1 1563 21 is_stmt 0 view .LVU1293
 3604 0024 4BF68033 		movw	r3, #48000
 3605              	.L256:
1564:STM32Cube_FW_N6/Drivers/STM32N6xx_HAL_Driver/Src/stm32n6xx_ll_usb.c ****   }
1565:STM32Cube_FW_N6/Drivers/STM32N6xx_HAL_Driver/Src/stm32n6xx_ll_usb.c ****   else if (freq == HCFG_6_MHZ)
1566:STM32Cube_FW_N6/Drivers/STM32N6xx_HAL_Driver/Src/stm32n6xx_ll_usb.c ****   {
1567:STM32Cube_FW_N6/Drivers/STM32N6xx_HAL_Driver/Src/stm32n6xx_ll_usb.c ****     USBx_HOST->HFIR = HFIR_6_MHZ;
1568:STM32Cube_FW_N6/Drivers/STM32N6xx_HAL_Driver/Src/stm32n6xx_ll_usb.c ****   }
1569:STM32Cube_FW_N6/Drivers/STM32N6xx_HAL_Driver/Src/stm32n6xx_ll_usb.c ****   else
1570:STM32Cube_FW_N6/Drivers/STM32N6xx_HAL_Driver/Src/stm32n6xx_ll_usb.c ****   {
1571:STM32Cube_FW_N6/Drivers/STM32N6xx_HAL_Driver/Src/stm32n6xx_ll_usb.c ****     return HAL_ERROR;
1572:STM32Cube_FW_N6/Drivers/STM32N6xx_HAL_Driver/Src/stm32n6xx_ll_usb.c ****   }
1573:STM32Cube_FW_N6/Drivers/STM32N6xx_HAL_Driver/Src/stm32n6xx_ll_usb.c **** 
1574:STM32Cube_FW_N6/Drivers/STM32N6xx_HAL_Driver/Src/stm32n6xx_ll_usb.c ****   return HAL_OK;
 3606              		.loc 1 1574 10 view .LVU1294
 3607 0028 0020     		movs	r0, #0
 3608              	.LVL243:
1563:STM32Cube_FW_N6/Drivers/STM32N6xx_HAL_Driver/Src/stm32n6xx_ll_usb.c ****   }
 3609              		.loc 1 1563 21 view .LVU1295
 3610 002a 5360     		str	r3, [r2, #4]
 3611              	.L253:
1575:STM32Cube_FW_N6/Drivers/STM32N6xx_HAL_Driver/Src/stm32n6xx_ll_usb.c **** }
 3612              		.loc 1 1575 1 view .LVU1296
 3613 002c 10BD     		pop	{r4, pc}
 3614              	.LVL244:
 3615              	.L252:
1565:STM32Cube_FW_N6/Drivers/STM32N6xx_HAL_Driver/Src/stm32n6xx_ll_usb.c ****   {
 3616              		.loc 1 1565 8 is_stmt 1 view .LVU1297
1565:STM32Cube_FW_N6/Drivers/STM32N6xx_HAL_Driver/Src/stm32n6xx_ll_usb.c ****   {
 3617              		.loc 1 1565 11 is_stmt 0 view .LVU1298
 3618 002e 0229     		cmp	r1, #2
 3619 0030 02D1     		bne	.L255
1567:STM32Cube_FW_N6/Drivers/STM32N6xx_HAL_Driver/Src/stm32n6xx_ll_usb.c ****   }
 3620              		.loc 1 1567 5 is_stmt 1 view .LVU1299
1567:STM32Cube_FW_N6/Drivers/STM32N6xx_HAL_Driver/Src/stm32n6xx_ll_usb.c ****   }
 3621              		.loc 1 1567 21 is_stmt 0 view .LVU1300
 3622 0032 41F27073 		movw	r3, #6000
 3623 0036 F7E7     		b	.L256
 3624              	.L255:
1571:STM32Cube_FW_N6/Drivers/STM32N6xx_HAL_Driver/Src/stm32n6xx_ll_usb.c ****   }
 3625              		.loc 1 1571 12 view .LVU1301
 3626 0038 0120     		movs	r0, #1
 3627              	.LVL245:
1571:STM32Cube_FW_N6/Drivers/STM32N6xx_HAL_Driver/Src/stm32n6xx_ll_usb.c ****   }
 3628              		.loc 1 1571 12 view .LVU1302
 3629 003a F7E7     		b	.L253
ARM GAS  C:\Users\DJESSOU\AppData\Local\Temp\ccOpSjVg.s 			page 112


 3630              		.cfi_endproc
 3631              	.LFE898:
 3633              		.section	.text.USB_ResetPort,"ax",%progbits
 3634              		.align	1
 3635              		.global	USB_ResetPort
 3636              		.syntax unified
 3637              		.thumb
 3638              		.thumb_func
 3640              	USB_ResetPort:
 3641              	.LVL246:
 3642              	.LFB899:
1576:STM32Cube_FW_N6/Drivers/STM32N6xx_HAL_Driver/Src/stm32n6xx_ll_usb.c **** 
1577:STM32Cube_FW_N6/Drivers/STM32N6xx_HAL_Driver/Src/stm32n6xx_ll_usb.c **** /**
1578:STM32Cube_FW_N6/Drivers/STM32N6xx_HAL_Driver/Src/stm32n6xx_ll_usb.c ****   * @brief  USB_OTG_ResetPort : Reset Host Port
1579:STM32Cube_FW_N6/Drivers/STM32N6xx_HAL_Driver/Src/stm32n6xx_ll_usb.c ****   * @param  USBx  Selected device
1580:STM32Cube_FW_N6/Drivers/STM32N6xx_HAL_Driver/Src/stm32n6xx_ll_usb.c ****   * @retval HAL status
1581:STM32Cube_FW_N6/Drivers/STM32N6xx_HAL_Driver/Src/stm32n6xx_ll_usb.c ****   * @note (1)The application must wait at least 10 ms
1582:STM32Cube_FW_N6/Drivers/STM32N6xx_HAL_Driver/Src/stm32n6xx_ll_usb.c ****   *   before clearing the reset bit.
1583:STM32Cube_FW_N6/Drivers/STM32N6xx_HAL_Driver/Src/stm32n6xx_ll_usb.c ****   */
1584:STM32Cube_FW_N6/Drivers/STM32N6xx_HAL_Driver/Src/stm32n6xx_ll_usb.c **** HAL_StatusTypeDef USB_ResetPort(const USB_OTG_GlobalTypeDef *USBx)
1585:STM32Cube_FW_N6/Drivers/STM32N6xx_HAL_Driver/Src/stm32n6xx_ll_usb.c **** {
 3643              		.loc 1 1585 1 is_stmt 1 view -0
 3644              		.cfi_startproc
 3645              		@ args = 0, pretend = 0, frame = 8
 3646              		@ frame_needed = 0, uses_anonymous_args = 0
1586:STM32Cube_FW_N6/Drivers/STM32N6xx_HAL_Driver/Src/stm32n6xx_ll_usb.c ****   uint32_t USBx_BASE = (uint32_t)USBx;
 3647              		.loc 1 1586 3 view .LVU1304
1587:STM32Cube_FW_N6/Drivers/STM32N6xx_HAL_Driver/Src/stm32n6xx_ll_usb.c **** 
1588:STM32Cube_FW_N6/Drivers/STM32N6xx_HAL_Driver/Src/stm32n6xx_ll_usb.c ****   __IO uint32_t hprt0 = 0U;
 3648              		.loc 1 1588 3 view .LVU1305
1585:STM32Cube_FW_N6/Drivers/STM32N6xx_HAL_Driver/Src/stm32n6xx_ll_usb.c ****   uint32_t USBx_BASE = (uint32_t)USBx;
 3649              		.loc 1 1585 1 is_stmt 0 view .LVU1306
 3650 0000 37B5     		push	{r0, r1, r2, r4, r5, lr}
 3651              		.cfi_def_cfa_offset 24
 3652              		.cfi_offset 4, -12
 3653              		.cfi_offset 5, -8
 3654              		.cfi_offset 14, -4
 3655              		.loc 1 1588 17 view .LVU1307
 3656 0002 0025     		movs	r5, #0
1585:STM32Cube_FW_N6/Drivers/STM32N6xx_HAL_Driver/Src/stm32n6xx_ll_usb.c ****   uint32_t USBx_BASE = (uint32_t)USBx;
 3657              		.loc 1 1585 1 view .LVU1308
 3658 0004 0446     		mov	r4, r0
 3659              		.loc 1 1588 17 view .LVU1309
 3660 0006 0195     		str	r5, [sp, #4]
1589:STM32Cube_FW_N6/Drivers/STM32N6xx_HAL_Driver/Src/stm32n6xx_ll_usb.c **** 
1590:STM32Cube_FW_N6/Drivers/STM32N6xx_HAL_Driver/Src/stm32n6xx_ll_usb.c ****   hprt0 = USBx_HPRT0;
 3661              		.loc 1 1590 3 is_stmt 1 view .LVU1310
 3662              		.loc 1 1590 11 is_stmt 0 view .LVU1311
 3663 0008 D0F84034 		ldr	r3, [r0, #1088]
 3664              		.loc 1 1590 9 view .LVU1312
 3665 000c 0193     		str	r3, [sp, #4]
1591:STM32Cube_FW_N6/Drivers/STM32N6xx_HAL_Driver/Src/stm32n6xx_ll_usb.c **** 
1592:STM32Cube_FW_N6/Drivers/STM32N6xx_HAL_Driver/Src/stm32n6xx_ll_usb.c ****   hprt0 &= ~(USB_OTG_HPRT_PENA | USB_OTG_HPRT_PCDET |
 3666              		.loc 1 1592 3 is_stmt 1 view .LVU1313
 3667              		.loc 1 1592 9 is_stmt 0 view .LVU1314
 3668 000e 019B     		ldr	r3, [sp, #4]
 3669 0010 23F02E03 		bic	r3, r3, #46
ARM GAS  C:\Users\DJESSOU\AppData\Local\Temp\ccOpSjVg.s 			page 113


 3670 0014 0193     		str	r3, [sp, #4]
1593:STM32Cube_FW_N6/Drivers/STM32N6xx_HAL_Driver/Src/stm32n6xx_ll_usb.c ****              USB_OTG_HPRT_PENCHNG | USB_OTG_HPRT_POCCHNG);
1594:STM32Cube_FW_N6/Drivers/STM32N6xx_HAL_Driver/Src/stm32n6xx_ll_usb.c **** 
1595:STM32Cube_FW_N6/Drivers/STM32N6xx_HAL_Driver/Src/stm32n6xx_ll_usb.c ****   USBx_HPRT0 = (USB_OTG_HPRT_PRST | hprt0);
 3671              		.loc 1 1595 3 is_stmt 1 view .LVU1315
 3672              		.loc 1 1595 35 is_stmt 0 view .LVU1316
 3673 0016 019B     		ldr	r3, [sp, #4]
 3674 0018 43F48073 		orr	r3, r3, #256
 3675              		.loc 1 1595 14 view .LVU1317
 3676 001c C0F84034 		str	r3, [r0, #1088]
1596:STM32Cube_FW_N6/Drivers/STM32N6xx_HAL_Driver/Src/stm32n6xx_ll_usb.c ****   HAL_Delay(100U);                                 /* See Note #1 */
 3677              		.loc 1 1596 3 is_stmt 1 view .LVU1318
 3678 0020 6420     		movs	r0, #100
 3679              	.LVL247:
 3680              		.loc 1 1596 3 is_stmt 0 view .LVU1319
 3681 0022 FFF7FEFF 		bl	HAL_Delay
 3682              	.LVL248:
1597:STM32Cube_FW_N6/Drivers/STM32N6xx_HAL_Driver/Src/stm32n6xx_ll_usb.c ****   USBx_HPRT0 = ((~USB_OTG_HPRT_PRST) & hprt0);
 3683              		.loc 1 1597 3 is_stmt 1 view .LVU1320
 3684              		.loc 1 1597 38 is_stmt 0 view .LVU1321
 3685 0026 019B     		ldr	r3, [sp, #4]
1598:STM32Cube_FW_N6/Drivers/STM32N6xx_HAL_Driver/Src/stm32n6xx_ll_usb.c ****   HAL_Delay(10U);
 3686              		.loc 1 1598 3 view .LVU1322
 3687 0028 0A20     		movs	r0, #10
1597:STM32Cube_FW_N6/Drivers/STM32N6xx_HAL_Driver/Src/stm32n6xx_ll_usb.c ****   USBx_HPRT0 = ((~USB_OTG_HPRT_PRST) & hprt0);
 3688              		.loc 1 1597 38 view .LVU1323
 3689 002a 23F48073 		bic	r3, r3, #256
1597:STM32Cube_FW_N6/Drivers/STM32N6xx_HAL_Driver/Src/stm32n6xx_ll_usb.c ****   USBx_HPRT0 = ((~USB_OTG_HPRT_PRST) & hprt0);
 3690              		.loc 1 1597 14 view .LVU1324
 3691 002e C4F84034 		str	r3, [r4, #1088]
 3692              		.loc 1 1598 3 is_stmt 1 view .LVU1325
 3693 0032 FFF7FEFF 		bl	HAL_Delay
 3694              	.LVL249:
1599:STM32Cube_FW_N6/Drivers/STM32N6xx_HAL_Driver/Src/stm32n6xx_ll_usb.c **** 
1600:STM32Cube_FW_N6/Drivers/STM32N6xx_HAL_Driver/Src/stm32n6xx_ll_usb.c ****   return HAL_OK;
 3695              		.loc 1 1600 3 view .LVU1326
1601:STM32Cube_FW_N6/Drivers/STM32N6xx_HAL_Driver/Src/stm32n6xx_ll_usb.c **** }
 3696              		.loc 1 1601 1 is_stmt 0 view .LVU1327
 3697 0036 2846     		mov	r0, r5
 3698 0038 03B0     		add	sp, sp, #12
 3699              		.cfi_def_cfa_offset 12
 3700              		@ sp needed
 3701 003a 30BD     		pop	{r4, r5, pc}
 3702              		.loc 1 1601 1 view .LVU1328
 3703              		.cfi_endproc
 3704              	.LFE899:
 3706              		.section	.text.USB_DriveVbus,"ax",%progbits
 3707              		.align	1
 3708              		.global	USB_DriveVbus
 3709              		.syntax unified
 3710              		.thumb
 3711              		.thumb_func
 3713              	USB_DriveVbus:
 3714              	.LVL250:
 3715              	.LFB900:
1602:STM32Cube_FW_N6/Drivers/STM32N6xx_HAL_Driver/Src/stm32n6xx_ll_usb.c **** 
1603:STM32Cube_FW_N6/Drivers/STM32N6xx_HAL_Driver/Src/stm32n6xx_ll_usb.c **** /**
ARM GAS  C:\Users\DJESSOU\AppData\Local\Temp\ccOpSjVg.s 			page 114


1604:STM32Cube_FW_N6/Drivers/STM32N6xx_HAL_Driver/Src/stm32n6xx_ll_usb.c ****   * @brief  USB_DriveVbus : activate or de-activate vbus
1605:STM32Cube_FW_N6/Drivers/STM32N6xx_HAL_Driver/Src/stm32n6xx_ll_usb.c ****   * @param  state  VBUS state
1606:STM32Cube_FW_N6/Drivers/STM32N6xx_HAL_Driver/Src/stm32n6xx_ll_usb.c ****   *          This parameter can be one of these values:
1607:STM32Cube_FW_N6/Drivers/STM32N6xx_HAL_Driver/Src/stm32n6xx_ll_usb.c ****   *           0 : Deactivate VBUS
1608:STM32Cube_FW_N6/Drivers/STM32N6xx_HAL_Driver/Src/stm32n6xx_ll_usb.c ****   *           1 : Activate VBUS
1609:STM32Cube_FW_N6/Drivers/STM32N6xx_HAL_Driver/Src/stm32n6xx_ll_usb.c ****   * @retval HAL status
1610:STM32Cube_FW_N6/Drivers/STM32N6xx_HAL_Driver/Src/stm32n6xx_ll_usb.c ****   */
1611:STM32Cube_FW_N6/Drivers/STM32N6xx_HAL_Driver/Src/stm32n6xx_ll_usb.c **** HAL_StatusTypeDef USB_DriveVbus(const USB_OTG_GlobalTypeDef *USBx, uint8_t state)
1612:STM32Cube_FW_N6/Drivers/STM32N6xx_HAL_Driver/Src/stm32n6xx_ll_usb.c **** {
 3716              		.loc 1 1612 1 is_stmt 1 view -0
 3717              		.cfi_startproc
 3718              		@ args = 0, pretend = 0, frame = 8
 3719              		@ frame_needed = 0, uses_anonymous_args = 0
 3720              		@ link register save eliminated.
1613:STM32Cube_FW_N6/Drivers/STM32N6xx_HAL_Driver/Src/stm32n6xx_ll_usb.c ****   uint32_t USBx_BASE = (uint32_t)USBx;
 3721              		.loc 1 1613 3 view .LVU1330
1614:STM32Cube_FW_N6/Drivers/STM32N6xx_HAL_Driver/Src/stm32n6xx_ll_usb.c ****   __IO uint32_t hprt0 = 0U;
 3722              		.loc 1 1614 3 view .LVU1331
 3723              		.loc 1 1614 17 is_stmt 0 view .LVU1332
 3724 0000 0023     		movs	r3, #0
1612:STM32Cube_FW_N6/Drivers/STM32N6xx_HAL_Driver/Src/stm32n6xx_ll_usb.c ****   uint32_t USBx_BASE = (uint32_t)USBx;
 3725              		.loc 1 1612 1 view .LVU1333
 3726 0002 82B0     		sub	sp, sp, #8
 3727              		.cfi_def_cfa_offset 8
 3728              		.loc 1 1614 17 view .LVU1334
 3729 0004 0193     		str	r3, [sp, #4]
1615:STM32Cube_FW_N6/Drivers/STM32N6xx_HAL_Driver/Src/stm32n6xx_ll_usb.c **** 
1616:STM32Cube_FW_N6/Drivers/STM32N6xx_HAL_Driver/Src/stm32n6xx_ll_usb.c ****   hprt0 = USBx_HPRT0;
 3730              		.loc 1 1616 3 is_stmt 1 view .LVU1335
 3731              		.loc 1 1616 11 is_stmt 0 view .LVU1336
 3732 0006 D0F84034 		ldr	r3, [r0, #1088]
 3733              		.loc 1 1616 9 view .LVU1337
 3734 000a 0193     		str	r3, [sp, #4]
1617:STM32Cube_FW_N6/Drivers/STM32N6xx_HAL_Driver/Src/stm32n6xx_ll_usb.c **** 
1618:STM32Cube_FW_N6/Drivers/STM32N6xx_HAL_Driver/Src/stm32n6xx_ll_usb.c ****   hprt0 &= ~(USB_OTG_HPRT_PENA | USB_OTG_HPRT_PCDET |
 3735              		.loc 1 1618 3 is_stmt 1 view .LVU1338
 3736              		.loc 1 1618 9 is_stmt 0 view .LVU1339
 3737 000c 019B     		ldr	r3, [sp, #4]
 3738 000e 23F02E03 		bic	r3, r3, #46
 3739 0012 0193     		str	r3, [sp, #4]
1619:STM32Cube_FW_N6/Drivers/STM32N6xx_HAL_Driver/Src/stm32n6xx_ll_usb.c ****              USB_OTG_HPRT_PENCHNG | USB_OTG_HPRT_POCCHNG);
1620:STM32Cube_FW_N6/Drivers/STM32N6xx_HAL_Driver/Src/stm32n6xx_ll_usb.c **** 
1621:STM32Cube_FW_N6/Drivers/STM32N6xx_HAL_Driver/Src/stm32n6xx_ll_usb.c ****   if (((hprt0 & USB_OTG_HPRT_PPWR) == 0U) && (state == 1U))
 3740              		.loc 1 1621 3 is_stmt 1 view .LVU1340
 3741              		.loc 1 1621 15 is_stmt 0 view .LVU1341
 3742 0014 019B     		ldr	r3, [sp, #4]
 3743              		.loc 1 1621 6 view .LVU1342
 3744 0016 DA04     		lsls	r2, r3, #19
 3745 0018 06D4     		bmi	.L259
 3746              		.loc 1 1621 43 discriminator 1 view .LVU1343
 3747 001a 0129     		cmp	r1, #1
1622:STM32Cube_FW_N6/Drivers/STM32N6xx_HAL_Driver/Src/stm32n6xx_ll_usb.c ****   {
1623:STM32Cube_FW_N6/Drivers/STM32N6xx_HAL_Driver/Src/stm32n6xx_ll_usb.c ****     USBx_HPRT0 = (USB_OTG_HPRT_PPWR | hprt0);
 3748              		.loc 1 1623 5 is_stmt 1 view .LVU1344
 3749              		.loc 1 1623 37 is_stmt 0 view .LVU1345
 3750 001c 02BF     		ittt	eq
 3751 001e 019B     		ldreq	r3, [sp, #4]
ARM GAS  C:\Users\DJESSOU\AppData\Local\Temp\ccOpSjVg.s 			page 115


 3752 0020 43F48053 		orreq	r3, r3, #4096
 3753              		.loc 1 1623 16 view .LVU1346
 3754 0024 C0F84034 		streq	r3, [r0, #1088]
 3755              	.L259:
1624:STM32Cube_FW_N6/Drivers/STM32N6xx_HAL_Driver/Src/stm32n6xx_ll_usb.c ****   }
1625:STM32Cube_FW_N6/Drivers/STM32N6xx_HAL_Driver/Src/stm32n6xx_ll_usb.c ****   if (((hprt0 & USB_OTG_HPRT_PPWR) == USB_OTG_HPRT_PPWR) && (state == 0U))
 3756              		.loc 1 1625 3 is_stmt 1 view .LVU1347
 3757              		.loc 1 1625 15 is_stmt 0 view .LVU1348
 3758 0028 019B     		ldr	r3, [sp, #4]
 3759              		.loc 1 1625 6 view .LVU1349
 3760 002a DB04     		lsls	r3, r3, #19
 3761 002c 05D5     		bpl	.L260
 3762              		.loc 1 1625 58 discriminator 1 view .LVU1350
 3763 002e 21B9     		cbnz	r1, .L260
1626:STM32Cube_FW_N6/Drivers/STM32N6xx_HAL_Driver/Src/stm32n6xx_ll_usb.c ****   {
1627:STM32Cube_FW_N6/Drivers/STM32N6xx_HAL_Driver/Src/stm32n6xx_ll_usb.c ****     USBx_HPRT0 = ((~USB_OTG_HPRT_PPWR) & hprt0);
 3764              		.loc 1 1627 5 is_stmt 1 view .LVU1351
 3765              		.loc 1 1627 40 is_stmt 0 view .LVU1352
 3766 0030 019B     		ldr	r3, [sp, #4]
 3767 0032 23F48053 		bic	r3, r3, #4096
 3768              		.loc 1 1627 16 view .LVU1353
 3769 0036 C0F84034 		str	r3, [r0, #1088]
 3770              	.L260:
1628:STM32Cube_FW_N6/Drivers/STM32N6xx_HAL_Driver/Src/stm32n6xx_ll_usb.c ****   }
1629:STM32Cube_FW_N6/Drivers/STM32N6xx_HAL_Driver/Src/stm32n6xx_ll_usb.c ****   return HAL_OK;
 3771              		.loc 1 1629 3 is_stmt 1 view .LVU1354
1630:STM32Cube_FW_N6/Drivers/STM32N6xx_HAL_Driver/Src/stm32n6xx_ll_usb.c **** }
 3772              		.loc 1 1630 1 is_stmt 0 view .LVU1355
 3773 003a 0020     		movs	r0, #0
 3774              	.LVL251:
 3775              		.loc 1 1630 1 view .LVU1356
 3776 003c 02B0     		add	sp, sp, #8
 3777              		.cfi_def_cfa_offset 0
 3778              		@ sp needed
 3779 003e 7047     		bx	lr
 3780              		.cfi_endproc
 3781              	.LFE900:
 3783              		.section	.text.USB_GetHostSpeed,"ax",%progbits
 3784              		.align	1
 3785              		.global	USB_GetHostSpeed
 3786              		.syntax unified
 3787              		.thumb
 3788              		.thumb_func
 3790              	USB_GetHostSpeed:
 3791              	.LVL252:
 3792              	.LFB901:
1631:STM32Cube_FW_N6/Drivers/STM32N6xx_HAL_Driver/Src/stm32n6xx_ll_usb.c **** 
1632:STM32Cube_FW_N6/Drivers/STM32N6xx_HAL_Driver/Src/stm32n6xx_ll_usb.c **** /**
1633:STM32Cube_FW_N6/Drivers/STM32N6xx_HAL_Driver/Src/stm32n6xx_ll_usb.c ****   * @brief  Return Host Port speed
1634:STM32Cube_FW_N6/Drivers/STM32N6xx_HAL_Driver/Src/stm32n6xx_ll_usb.c ****   * @param  USBx  Selected device
1635:STM32Cube_FW_N6/Drivers/STM32N6xx_HAL_Driver/Src/stm32n6xx_ll_usb.c ****   * @retval speed : Host port device speed
1636:STM32Cube_FW_N6/Drivers/STM32N6xx_HAL_Driver/Src/stm32n6xx_ll_usb.c ****   *          This parameter can be one of these values:
1637:STM32Cube_FW_N6/Drivers/STM32N6xx_HAL_Driver/Src/stm32n6xx_ll_usb.c ****   *            @arg HCD_DEVICE_SPEED_HIGH: High speed mode
1638:STM32Cube_FW_N6/Drivers/STM32N6xx_HAL_Driver/Src/stm32n6xx_ll_usb.c ****   *            @arg HCD_DEVICE_SPEED_FULL: Full speed mode
1639:STM32Cube_FW_N6/Drivers/STM32N6xx_HAL_Driver/Src/stm32n6xx_ll_usb.c ****   *            @arg HCD_DEVICE_SPEED_LOW: Low speed mode
1640:STM32Cube_FW_N6/Drivers/STM32N6xx_HAL_Driver/Src/stm32n6xx_ll_usb.c ****   */
1641:STM32Cube_FW_N6/Drivers/STM32N6xx_HAL_Driver/Src/stm32n6xx_ll_usb.c **** uint32_t USB_GetHostSpeed(USB_OTG_GlobalTypeDef const *USBx)
ARM GAS  C:\Users\DJESSOU\AppData\Local\Temp\ccOpSjVg.s 			page 116


1642:STM32Cube_FW_N6/Drivers/STM32N6xx_HAL_Driver/Src/stm32n6xx_ll_usb.c **** {
 3793              		.loc 1 1642 1 is_stmt 1 view -0
 3794              		.cfi_startproc
 3795              		@ args = 0, pretend = 0, frame = 8
 3796              		@ frame_needed = 0, uses_anonymous_args = 0
 3797              		@ link register save eliminated.
1643:STM32Cube_FW_N6/Drivers/STM32N6xx_HAL_Driver/Src/stm32n6xx_ll_usb.c ****   uint32_t USBx_BASE = (uint32_t)USBx;
 3798              		.loc 1 1643 3 view .LVU1358
1644:STM32Cube_FW_N6/Drivers/STM32N6xx_HAL_Driver/Src/stm32n6xx_ll_usb.c ****   __IO uint32_t hprt0 = 0U;
 3799              		.loc 1 1644 3 view .LVU1359
 3800              		.loc 1 1644 17 is_stmt 0 view .LVU1360
 3801 0000 0023     		movs	r3, #0
1642:STM32Cube_FW_N6/Drivers/STM32N6xx_HAL_Driver/Src/stm32n6xx_ll_usb.c ****   uint32_t USBx_BASE = (uint32_t)USBx;
 3802              		.loc 1 1642 1 view .LVU1361
 3803 0002 82B0     		sub	sp, sp, #8
 3804              		.cfi_def_cfa_offset 8
 3805              		.loc 1 1644 17 view .LVU1362
 3806 0004 0193     		str	r3, [sp, #4]
1645:STM32Cube_FW_N6/Drivers/STM32N6xx_HAL_Driver/Src/stm32n6xx_ll_usb.c **** 
1646:STM32Cube_FW_N6/Drivers/STM32N6xx_HAL_Driver/Src/stm32n6xx_ll_usb.c ****   hprt0 = USBx_HPRT0;
 3807              		.loc 1 1646 3 is_stmt 1 view .LVU1363
 3808              		.loc 1 1646 11 is_stmt 0 view .LVU1364
 3809 0006 D0F84034 		ldr	r3, [r0, #1088]
 3810              		.loc 1 1646 9 view .LVU1365
 3811 000a 0193     		str	r3, [sp, #4]
1647:STM32Cube_FW_N6/Drivers/STM32N6xx_HAL_Driver/Src/stm32n6xx_ll_usb.c ****   return ((hprt0 & USB_OTG_HPRT_PSPD) >> 17);
 3812              		.loc 1 1647 3 is_stmt 1 view .LVU1366
 3813              		.loc 1 1647 39 is_stmt 0 view .LVU1367
 3814 000c 0198     		ldr	r0, [sp, #4]
 3815              	.LVL253:
1648:STM32Cube_FW_N6/Drivers/STM32N6xx_HAL_Driver/Src/stm32n6xx_ll_usb.c **** }
 3816              		.loc 1 1648 1 view .LVU1368
 3817 000e C0F34140 		ubfx	r0, r0, #17, #2
 3818 0012 02B0     		add	sp, sp, #8
 3819              		.cfi_def_cfa_offset 0
 3820              		@ sp needed
 3821 0014 7047     		bx	lr
 3822              		.cfi_endproc
 3823              	.LFE901:
 3825              		.section	.text.USB_GetCurrentFrame,"ax",%progbits
 3826              		.align	1
 3827              		.global	USB_GetCurrentFrame
 3828              		.syntax unified
 3829              		.thumb
 3830              		.thumb_func
 3832              	USB_GetCurrentFrame:
 3833              	.LVL254:
 3834              	.LFB902:
1649:STM32Cube_FW_N6/Drivers/STM32N6xx_HAL_Driver/Src/stm32n6xx_ll_usb.c **** 
1650:STM32Cube_FW_N6/Drivers/STM32N6xx_HAL_Driver/Src/stm32n6xx_ll_usb.c **** /**
1651:STM32Cube_FW_N6/Drivers/STM32N6xx_HAL_Driver/Src/stm32n6xx_ll_usb.c ****   * @brief  Return Host Current Frame number
1652:STM32Cube_FW_N6/Drivers/STM32N6xx_HAL_Driver/Src/stm32n6xx_ll_usb.c ****   * @param  USBx  Selected device
1653:STM32Cube_FW_N6/Drivers/STM32N6xx_HAL_Driver/Src/stm32n6xx_ll_usb.c ****   * @retval current frame number
1654:STM32Cube_FW_N6/Drivers/STM32N6xx_HAL_Driver/Src/stm32n6xx_ll_usb.c ****   */
1655:STM32Cube_FW_N6/Drivers/STM32N6xx_HAL_Driver/Src/stm32n6xx_ll_usb.c **** uint32_t USB_GetCurrentFrame(USB_OTG_GlobalTypeDef const *USBx)
1656:STM32Cube_FW_N6/Drivers/STM32N6xx_HAL_Driver/Src/stm32n6xx_ll_usb.c **** {
 3835              		.loc 1 1656 1 is_stmt 1 view -0
ARM GAS  C:\Users\DJESSOU\AppData\Local\Temp\ccOpSjVg.s 			page 117


 3836              		.cfi_startproc
 3837              		@ args = 0, pretend = 0, frame = 0
 3838              		@ frame_needed = 0, uses_anonymous_args = 0
 3839              		@ link register save eliminated.
1657:STM32Cube_FW_N6/Drivers/STM32N6xx_HAL_Driver/Src/stm32n6xx_ll_usb.c ****   uint32_t USBx_BASE = (uint32_t)USBx;
 3840              		.loc 1 1657 3 view .LVU1370
1658:STM32Cube_FW_N6/Drivers/STM32N6xx_HAL_Driver/Src/stm32n6xx_ll_usb.c **** 
1659:STM32Cube_FW_N6/Drivers/STM32N6xx_HAL_Driver/Src/stm32n6xx_ll_usb.c ****   return (USBx_HOST->HFNUM & USB_OTG_HFNUM_FRNUM);
 3841              		.loc 1 1659 3 view .LVU1371
 3842              		.loc 1 1659 11 is_stmt 0 view .LVU1372
 3843 0000 00F58060 		add	r0, r0, #1024
 3844              	.LVL255:
 3845              		.loc 1 1659 20 view .LVU1373
 3846 0004 8068     		ldr	r0, [r0, #8]
 3847              	.LVL256:
1660:STM32Cube_FW_N6/Drivers/STM32N6xx_HAL_Driver/Src/stm32n6xx_ll_usb.c **** }
 3848              		.loc 1 1660 1 view .LVU1374
 3849 0006 80B2     		uxth	r0, r0
 3850 0008 7047     		bx	lr
 3851              		.cfi_endproc
 3852              	.LFE902:
 3854              		.section	.text.USB_DoPing,"ax",%progbits
 3855              		.align	1
 3856              		.global	USB_DoPing
 3857              		.syntax unified
 3858              		.thumb
 3859              		.thumb_func
 3861              	USB_DoPing:
 3862              	.LVL257:
 3863              	.LFB903:
1661:STM32Cube_FW_N6/Drivers/STM32N6xx_HAL_Driver/Src/stm32n6xx_ll_usb.c **** 
1662:STM32Cube_FW_N6/Drivers/STM32N6xx_HAL_Driver/Src/stm32n6xx_ll_usb.c **** #if defined (HAL_HCD_MODULE_ENABLED)
1663:STM32Cube_FW_N6/Drivers/STM32N6xx_HAL_Driver/Src/stm32n6xx_ll_usb.c **** /**
1664:STM32Cube_FW_N6/Drivers/STM32N6xx_HAL_Driver/Src/stm32n6xx_ll_usb.c ****   * @brief  Initialize a host channel
1665:STM32Cube_FW_N6/Drivers/STM32N6xx_HAL_Driver/Src/stm32n6xx_ll_usb.c ****   * @param  USBx  Selected device
1666:STM32Cube_FW_N6/Drivers/STM32N6xx_HAL_Driver/Src/stm32n6xx_ll_usb.c ****   * @param  ch_num  Channel number
1667:STM32Cube_FW_N6/Drivers/STM32N6xx_HAL_Driver/Src/stm32n6xx_ll_usb.c ****   *         This parameter can be a value from 1 to 15
1668:STM32Cube_FW_N6/Drivers/STM32N6xx_HAL_Driver/Src/stm32n6xx_ll_usb.c ****   * @param  epnum  Endpoint number
1669:STM32Cube_FW_N6/Drivers/STM32N6xx_HAL_Driver/Src/stm32n6xx_ll_usb.c ****   *          This parameter can be a value from 1 to 15
1670:STM32Cube_FW_N6/Drivers/STM32N6xx_HAL_Driver/Src/stm32n6xx_ll_usb.c ****   * @param  dev_address  Current device address
1671:STM32Cube_FW_N6/Drivers/STM32N6xx_HAL_Driver/Src/stm32n6xx_ll_usb.c ****   *          This parameter can be a value from 0 to 255
1672:STM32Cube_FW_N6/Drivers/STM32N6xx_HAL_Driver/Src/stm32n6xx_ll_usb.c ****   * @param  speed  Current device speed
1673:STM32Cube_FW_N6/Drivers/STM32N6xx_HAL_Driver/Src/stm32n6xx_ll_usb.c ****   *          This parameter can be one of these values:
1674:STM32Cube_FW_N6/Drivers/STM32N6xx_HAL_Driver/Src/stm32n6xx_ll_usb.c ****   *            @arg USB_OTG_SPEED_HIGH: High speed mode
1675:STM32Cube_FW_N6/Drivers/STM32N6xx_HAL_Driver/Src/stm32n6xx_ll_usb.c ****   *            @arg USB_OTG_SPEED_FULL: Full speed mode
1676:STM32Cube_FW_N6/Drivers/STM32N6xx_HAL_Driver/Src/stm32n6xx_ll_usb.c ****   *            @arg USB_OTG_SPEED_LOW: Low speed mode
1677:STM32Cube_FW_N6/Drivers/STM32N6xx_HAL_Driver/Src/stm32n6xx_ll_usb.c ****   * @param  ep_type  Endpoint Type
1678:STM32Cube_FW_N6/Drivers/STM32N6xx_HAL_Driver/Src/stm32n6xx_ll_usb.c ****   *          This parameter can be one of these values:
1679:STM32Cube_FW_N6/Drivers/STM32N6xx_HAL_Driver/Src/stm32n6xx_ll_usb.c ****   *            @arg EP_TYPE_CTRL: Control type
1680:STM32Cube_FW_N6/Drivers/STM32N6xx_HAL_Driver/Src/stm32n6xx_ll_usb.c ****   *            @arg EP_TYPE_ISOC: Isochronous type
1681:STM32Cube_FW_N6/Drivers/STM32N6xx_HAL_Driver/Src/stm32n6xx_ll_usb.c ****   *            @arg EP_TYPE_BULK: Bulk type
1682:STM32Cube_FW_N6/Drivers/STM32N6xx_HAL_Driver/Src/stm32n6xx_ll_usb.c ****   *            @arg EP_TYPE_INTR: Interrupt type
1683:STM32Cube_FW_N6/Drivers/STM32N6xx_HAL_Driver/Src/stm32n6xx_ll_usb.c ****   * @param  mps  Max Packet Size
1684:STM32Cube_FW_N6/Drivers/STM32N6xx_HAL_Driver/Src/stm32n6xx_ll_usb.c ****   *          This parameter can be a value from 0 to 32K
1685:STM32Cube_FW_N6/Drivers/STM32N6xx_HAL_Driver/Src/stm32n6xx_ll_usb.c ****   * @retval HAL state
1686:STM32Cube_FW_N6/Drivers/STM32N6xx_HAL_Driver/Src/stm32n6xx_ll_usb.c ****   */
1687:STM32Cube_FW_N6/Drivers/STM32N6xx_HAL_Driver/Src/stm32n6xx_ll_usb.c **** HAL_StatusTypeDef USB_HC_Init(USB_OTG_GlobalTypeDef *USBx, uint8_t ch_num,
ARM GAS  C:\Users\DJESSOU\AppData\Local\Temp\ccOpSjVg.s 			page 118


1688:STM32Cube_FW_N6/Drivers/STM32N6xx_HAL_Driver/Src/stm32n6xx_ll_usb.c ****                               uint8_t epnum, uint8_t dev_address, uint8_t speed,
1689:STM32Cube_FW_N6/Drivers/STM32N6xx_HAL_Driver/Src/stm32n6xx_ll_usb.c ****                               uint8_t ep_type, uint16_t mps)
1690:STM32Cube_FW_N6/Drivers/STM32N6xx_HAL_Driver/Src/stm32n6xx_ll_usb.c **** {
1691:STM32Cube_FW_N6/Drivers/STM32N6xx_HAL_Driver/Src/stm32n6xx_ll_usb.c ****   HAL_StatusTypeDef ret = HAL_OK;
1692:STM32Cube_FW_N6/Drivers/STM32N6xx_HAL_Driver/Src/stm32n6xx_ll_usb.c ****   uint32_t USBx_BASE = (uint32_t)USBx;
1693:STM32Cube_FW_N6/Drivers/STM32N6xx_HAL_Driver/Src/stm32n6xx_ll_usb.c ****   uint32_t HCcharEpDir;
1694:STM32Cube_FW_N6/Drivers/STM32N6xx_HAL_Driver/Src/stm32n6xx_ll_usb.c ****   uint32_t HCcharLowSpeed;
1695:STM32Cube_FW_N6/Drivers/STM32N6xx_HAL_Driver/Src/stm32n6xx_ll_usb.c ****   uint32_t HostCoreSpeed;
1696:STM32Cube_FW_N6/Drivers/STM32N6xx_HAL_Driver/Src/stm32n6xx_ll_usb.c **** 
1697:STM32Cube_FW_N6/Drivers/STM32N6xx_HAL_Driver/Src/stm32n6xx_ll_usb.c ****   /* Clear old interrupt conditions for this host channel. */
1698:STM32Cube_FW_N6/Drivers/STM32N6xx_HAL_Driver/Src/stm32n6xx_ll_usb.c ****   USBx_HC((uint32_t)ch_num)->HCINT = CLEAR_INTERRUPT_MASK;
1699:STM32Cube_FW_N6/Drivers/STM32N6xx_HAL_Driver/Src/stm32n6xx_ll_usb.c **** 
1700:STM32Cube_FW_N6/Drivers/STM32N6xx_HAL_Driver/Src/stm32n6xx_ll_usb.c ****   /* Enable channel interrupts required for this transfer. */
1701:STM32Cube_FW_N6/Drivers/STM32N6xx_HAL_Driver/Src/stm32n6xx_ll_usb.c ****   switch (ep_type)
1702:STM32Cube_FW_N6/Drivers/STM32N6xx_HAL_Driver/Src/stm32n6xx_ll_usb.c ****   {
1703:STM32Cube_FW_N6/Drivers/STM32N6xx_HAL_Driver/Src/stm32n6xx_ll_usb.c ****     case EP_TYPE_CTRL:
1704:STM32Cube_FW_N6/Drivers/STM32N6xx_HAL_Driver/Src/stm32n6xx_ll_usb.c ****     case EP_TYPE_BULK:
1705:STM32Cube_FW_N6/Drivers/STM32N6xx_HAL_Driver/Src/stm32n6xx_ll_usb.c ****       USBx_HC((uint32_t)ch_num)->HCINTMSK = USB_OTG_HCINTMSK_XFRCM  |
1706:STM32Cube_FW_N6/Drivers/STM32N6xx_HAL_Driver/Src/stm32n6xx_ll_usb.c ****                                             USB_OTG_HCINTMSK_STALLM |
1707:STM32Cube_FW_N6/Drivers/STM32N6xx_HAL_Driver/Src/stm32n6xx_ll_usb.c ****                                             USB_OTG_HCINTMSK_TXERRM |
1708:STM32Cube_FW_N6/Drivers/STM32N6xx_HAL_Driver/Src/stm32n6xx_ll_usb.c ****                                             USB_OTG_HCINTMSK_DTERRM |
1709:STM32Cube_FW_N6/Drivers/STM32N6xx_HAL_Driver/Src/stm32n6xx_ll_usb.c ****                                             USB_OTG_HCINTMSK_AHBERR |
1710:STM32Cube_FW_N6/Drivers/STM32N6xx_HAL_Driver/Src/stm32n6xx_ll_usb.c ****                                             USB_OTG_HCINTMSK_NAKM;
1711:STM32Cube_FW_N6/Drivers/STM32N6xx_HAL_Driver/Src/stm32n6xx_ll_usb.c **** 
1712:STM32Cube_FW_N6/Drivers/STM32N6xx_HAL_Driver/Src/stm32n6xx_ll_usb.c ****       if ((epnum & 0x80U) == 0x80U)
1713:STM32Cube_FW_N6/Drivers/STM32N6xx_HAL_Driver/Src/stm32n6xx_ll_usb.c ****       {
1714:STM32Cube_FW_N6/Drivers/STM32N6xx_HAL_Driver/Src/stm32n6xx_ll_usb.c ****         USBx_HC((uint32_t)ch_num)->HCINTMSK |= USB_OTG_HCINTMSK_BBERRM;
1715:STM32Cube_FW_N6/Drivers/STM32N6xx_HAL_Driver/Src/stm32n6xx_ll_usb.c ****       }
1716:STM32Cube_FW_N6/Drivers/STM32N6xx_HAL_Driver/Src/stm32n6xx_ll_usb.c ****       else
1717:STM32Cube_FW_N6/Drivers/STM32N6xx_HAL_Driver/Src/stm32n6xx_ll_usb.c ****       {
1718:STM32Cube_FW_N6/Drivers/STM32N6xx_HAL_Driver/Src/stm32n6xx_ll_usb.c ****         USBx_HC((uint32_t)ch_num)->HCINTMSK |= USB_OTG_HCINTMSK_NYET |
1719:STM32Cube_FW_N6/Drivers/STM32N6xx_HAL_Driver/Src/stm32n6xx_ll_usb.c ****                                                USB_OTG_HCINTMSK_ACKM;
1720:STM32Cube_FW_N6/Drivers/STM32N6xx_HAL_Driver/Src/stm32n6xx_ll_usb.c ****       }
1721:STM32Cube_FW_N6/Drivers/STM32N6xx_HAL_Driver/Src/stm32n6xx_ll_usb.c ****       break;
1722:STM32Cube_FW_N6/Drivers/STM32N6xx_HAL_Driver/Src/stm32n6xx_ll_usb.c **** 
1723:STM32Cube_FW_N6/Drivers/STM32N6xx_HAL_Driver/Src/stm32n6xx_ll_usb.c ****     case EP_TYPE_INTR:
1724:STM32Cube_FW_N6/Drivers/STM32N6xx_HAL_Driver/Src/stm32n6xx_ll_usb.c ****       USBx_HC((uint32_t)ch_num)->HCINTMSK = USB_OTG_HCINTMSK_XFRCM  |
1725:STM32Cube_FW_N6/Drivers/STM32N6xx_HAL_Driver/Src/stm32n6xx_ll_usb.c ****                                             USB_OTG_HCINTMSK_STALLM |
1726:STM32Cube_FW_N6/Drivers/STM32N6xx_HAL_Driver/Src/stm32n6xx_ll_usb.c ****                                             USB_OTG_HCINTMSK_TXERRM |
1727:STM32Cube_FW_N6/Drivers/STM32N6xx_HAL_Driver/Src/stm32n6xx_ll_usb.c ****                                             USB_OTG_HCINTMSK_DTERRM |
1728:STM32Cube_FW_N6/Drivers/STM32N6xx_HAL_Driver/Src/stm32n6xx_ll_usb.c ****                                             USB_OTG_HCINTMSK_NAKM   |
1729:STM32Cube_FW_N6/Drivers/STM32N6xx_HAL_Driver/Src/stm32n6xx_ll_usb.c ****                                             USB_OTG_HCINTMSK_AHBERR |
1730:STM32Cube_FW_N6/Drivers/STM32N6xx_HAL_Driver/Src/stm32n6xx_ll_usb.c ****                                             USB_OTG_HCINTMSK_FRMORM;
1731:STM32Cube_FW_N6/Drivers/STM32N6xx_HAL_Driver/Src/stm32n6xx_ll_usb.c **** 
1732:STM32Cube_FW_N6/Drivers/STM32N6xx_HAL_Driver/Src/stm32n6xx_ll_usb.c ****       if ((epnum & 0x80U) == 0x80U)
1733:STM32Cube_FW_N6/Drivers/STM32N6xx_HAL_Driver/Src/stm32n6xx_ll_usb.c ****       {
1734:STM32Cube_FW_N6/Drivers/STM32N6xx_HAL_Driver/Src/stm32n6xx_ll_usb.c ****         USBx_HC((uint32_t)ch_num)->HCINTMSK |= USB_OTG_HCINTMSK_BBERRM;
1735:STM32Cube_FW_N6/Drivers/STM32N6xx_HAL_Driver/Src/stm32n6xx_ll_usb.c ****       }
1736:STM32Cube_FW_N6/Drivers/STM32N6xx_HAL_Driver/Src/stm32n6xx_ll_usb.c **** 
1737:STM32Cube_FW_N6/Drivers/STM32N6xx_HAL_Driver/Src/stm32n6xx_ll_usb.c ****       break;
1738:STM32Cube_FW_N6/Drivers/STM32N6xx_HAL_Driver/Src/stm32n6xx_ll_usb.c **** 
1739:STM32Cube_FW_N6/Drivers/STM32N6xx_HAL_Driver/Src/stm32n6xx_ll_usb.c ****     case EP_TYPE_ISOC:
1740:STM32Cube_FW_N6/Drivers/STM32N6xx_HAL_Driver/Src/stm32n6xx_ll_usb.c ****       USBx_HC((uint32_t)ch_num)->HCINTMSK = USB_OTG_HCINTMSK_XFRCM  |
1741:STM32Cube_FW_N6/Drivers/STM32N6xx_HAL_Driver/Src/stm32n6xx_ll_usb.c ****                                             USB_OTG_HCINTMSK_ACKM   |
1742:STM32Cube_FW_N6/Drivers/STM32N6xx_HAL_Driver/Src/stm32n6xx_ll_usb.c ****                                             USB_OTG_HCINTMSK_AHBERR |
1743:STM32Cube_FW_N6/Drivers/STM32N6xx_HAL_Driver/Src/stm32n6xx_ll_usb.c ****                                             USB_OTG_HCINTMSK_FRMORM;
1744:STM32Cube_FW_N6/Drivers/STM32N6xx_HAL_Driver/Src/stm32n6xx_ll_usb.c **** 
ARM GAS  C:\Users\DJESSOU\AppData\Local\Temp\ccOpSjVg.s 			page 119


1745:STM32Cube_FW_N6/Drivers/STM32N6xx_HAL_Driver/Src/stm32n6xx_ll_usb.c ****       if ((epnum & 0x80U) == 0x80U)
1746:STM32Cube_FW_N6/Drivers/STM32N6xx_HAL_Driver/Src/stm32n6xx_ll_usb.c ****       {
1747:STM32Cube_FW_N6/Drivers/STM32N6xx_HAL_Driver/Src/stm32n6xx_ll_usb.c ****         USBx_HC((uint32_t)ch_num)->HCINTMSK |= (USB_OTG_HCINTMSK_TXERRM | USB_OTG_HCINTMSK_BBERRM);
1748:STM32Cube_FW_N6/Drivers/STM32N6xx_HAL_Driver/Src/stm32n6xx_ll_usb.c ****       }
1749:STM32Cube_FW_N6/Drivers/STM32N6xx_HAL_Driver/Src/stm32n6xx_ll_usb.c ****       break;
1750:STM32Cube_FW_N6/Drivers/STM32N6xx_HAL_Driver/Src/stm32n6xx_ll_usb.c **** 
1751:STM32Cube_FW_N6/Drivers/STM32N6xx_HAL_Driver/Src/stm32n6xx_ll_usb.c ****     default:
1752:STM32Cube_FW_N6/Drivers/STM32N6xx_HAL_Driver/Src/stm32n6xx_ll_usb.c ****       ret = HAL_ERROR;
1753:STM32Cube_FW_N6/Drivers/STM32N6xx_HAL_Driver/Src/stm32n6xx_ll_usb.c ****       break;
1754:STM32Cube_FW_N6/Drivers/STM32N6xx_HAL_Driver/Src/stm32n6xx_ll_usb.c ****   }
1755:STM32Cube_FW_N6/Drivers/STM32N6xx_HAL_Driver/Src/stm32n6xx_ll_usb.c **** 
1756:STM32Cube_FW_N6/Drivers/STM32N6xx_HAL_Driver/Src/stm32n6xx_ll_usb.c ****   /* Clear Hub Start Split transaction */
1757:STM32Cube_FW_N6/Drivers/STM32N6xx_HAL_Driver/Src/stm32n6xx_ll_usb.c ****   USBx_HC((uint32_t)ch_num)->HCSPLT = 0U;
1758:STM32Cube_FW_N6/Drivers/STM32N6xx_HAL_Driver/Src/stm32n6xx_ll_usb.c **** 
1759:STM32Cube_FW_N6/Drivers/STM32N6xx_HAL_Driver/Src/stm32n6xx_ll_usb.c ****   /* Enable host channel Halt interrupt */
1760:STM32Cube_FW_N6/Drivers/STM32N6xx_HAL_Driver/Src/stm32n6xx_ll_usb.c ****   USBx_HC((uint32_t)ch_num)->HCINTMSK |= USB_OTG_HCINTMSK_CHHM;
1761:STM32Cube_FW_N6/Drivers/STM32N6xx_HAL_Driver/Src/stm32n6xx_ll_usb.c **** 
1762:STM32Cube_FW_N6/Drivers/STM32N6xx_HAL_Driver/Src/stm32n6xx_ll_usb.c ****   /* Enable the top level host channel interrupt. */
1763:STM32Cube_FW_N6/Drivers/STM32N6xx_HAL_Driver/Src/stm32n6xx_ll_usb.c ****   USBx_HOST->HAINTMSK |= 1UL << (ch_num & 0xFU);
1764:STM32Cube_FW_N6/Drivers/STM32N6xx_HAL_Driver/Src/stm32n6xx_ll_usb.c **** 
1765:STM32Cube_FW_N6/Drivers/STM32N6xx_HAL_Driver/Src/stm32n6xx_ll_usb.c ****   /* Make sure host channel interrupts are enabled. */
1766:STM32Cube_FW_N6/Drivers/STM32N6xx_HAL_Driver/Src/stm32n6xx_ll_usb.c ****   USBx->GINTMSK |= USB_OTG_GINTMSK_HCIM;
1767:STM32Cube_FW_N6/Drivers/STM32N6xx_HAL_Driver/Src/stm32n6xx_ll_usb.c **** 
1768:STM32Cube_FW_N6/Drivers/STM32N6xx_HAL_Driver/Src/stm32n6xx_ll_usb.c ****   /* Program the HCCHAR register */
1769:STM32Cube_FW_N6/Drivers/STM32N6xx_HAL_Driver/Src/stm32n6xx_ll_usb.c ****   if ((epnum & 0x80U) == 0x80U)
1770:STM32Cube_FW_N6/Drivers/STM32N6xx_HAL_Driver/Src/stm32n6xx_ll_usb.c ****   {
1771:STM32Cube_FW_N6/Drivers/STM32N6xx_HAL_Driver/Src/stm32n6xx_ll_usb.c ****     HCcharEpDir = (0x1UL << 15) & USB_OTG_HCCHAR_EPDIR;
1772:STM32Cube_FW_N6/Drivers/STM32N6xx_HAL_Driver/Src/stm32n6xx_ll_usb.c ****   }
1773:STM32Cube_FW_N6/Drivers/STM32N6xx_HAL_Driver/Src/stm32n6xx_ll_usb.c ****   else
1774:STM32Cube_FW_N6/Drivers/STM32N6xx_HAL_Driver/Src/stm32n6xx_ll_usb.c ****   {
1775:STM32Cube_FW_N6/Drivers/STM32N6xx_HAL_Driver/Src/stm32n6xx_ll_usb.c ****     HCcharEpDir = 0U;
1776:STM32Cube_FW_N6/Drivers/STM32N6xx_HAL_Driver/Src/stm32n6xx_ll_usb.c ****   }
1777:STM32Cube_FW_N6/Drivers/STM32N6xx_HAL_Driver/Src/stm32n6xx_ll_usb.c **** 
1778:STM32Cube_FW_N6/Drivers/STM32N6xx_HAL_Driver/Src/stm32n6xx_ll_usb.c ****   HostCoreSpeed = USB_GetHostSpeed(USBx);
1779:STM32Cube_FW_N6/Drivers/STM32N6xx_HAL_Driver/Src/stm32n6xx_ll_usb.c **** 
1780:STM32Cube_FW_N6/Drivers/STM32N6xx_HAL_Driver/Src/stm32n6xx_ll_usb.c ****   /* LS device plugged to HUB */
1781:STM32Cube_FW_N6/Drivers/STM32N6xx_HAL_Driver/Src/stm32n6xx_ll_usb.c ****   if ((speed == HPRT0_PRTSPD_LOW_SPEED) && (HostCoreSpeed != HPRT0_PRTSPD_LOW_SPEED))
1782:STM32Cube_FW_N6/Drivers/STM32N6xx_HAL_Driver/Src/stm32n6xx_ll_usb.c ****   {
1783:STM32Cube_FW_N6/Drivers/STM32N6xx_HAL_Driver/Src/stm32n6xx_ll_usb.c ****     HCcharLowSpeed = (0x1UL << 17) & USB_OTG_HCCHAR_LSDEV;
1784:STM32Cube_FW_N6/Drivers/STM32N6xx_HAL_Driver/Src/stm32n6xx_ll_usb.c ****   }
1785:STM32Cube_FW_N6/Drivers/STM32N6xx_HAL_Driver/Src/stm32n6xx_ll_usb.c ****   else
1786:STM32Cube_FW_N6/Drivers/STM32N6xx_HAL_Driver/Src/stm32n6xx_ll_usb.c ****   {
1787:STM32Cube_FW_N6/Drivers/STM32N6xx_HAL_Driver/Src/stm32n6xx_ll_usb.c ****     HCcharLowSpeed = 0U;
1788:STM32Cube_FW_N6/Drivers/STM32N6xx_HAL_Driver/Src/stm32n6xx_ll_usb.c ****   }
1789:STM32Cube_FW_N6/Drivers/STM32N6xx_HAL_Driver/Src/stm32n6xx_ll_usb.c **** 
1790:STM32Cube_FW_N6/Drivers/STM32N6xx_HAL_Driver/Src/stm32n6xx_ll_usb.c ****   USBx_HC((uint32_t)ch_num)->HCCHAR = (((uint32_t)dev_address << 22) & USB_OTG_HCCHAR_DAD) |
1791:STM32Cube_FW_N6/Drivers/STM32N6xx_HAL_Driver/Src/stm32n6xx_ll_usb.c ****                                       ((((uint32_t)epnum & 0x7FU) << 11) & USB_OTG_HCCHAR_EPNUM) |
1792:STM32Cube_FW_N6/Drivers/STM32N6xx_HAL_Driver/Src/stm32n6xx_ll_usb.c ****                                       (((uint32_t)ep_type << 18) & USB_OTG_HCCHAR_EPTYP) |
1793:STM32Cube_FW_N6/Drivers/STM32N6xx_HAL_Driver/Src/stm32n6xx_ll_usb.c ****                                       ((uint32_t)mps & USB_OTG_HCCHAR_MPSIZ) |
1794:STM32Cube_FW_N6/Drivers/STM32N6xx_HAL_Driver/Src/stm32n6xx_ll_usb.c ****                                       USB_OTG_HCCHAR_MC_0 | HCcharEpDir | HCcharLowSpeed;
1795:STM32Cube_FW_N6/Drivers/STM32N6xx_HAL_Driver/Src/stm32n6xx_ll_usb.c **** 
1796:STM32Cube_FW_N6/Drivers/STM32N6xx_HAL_Driver/Src/stm32n6xx_ll_usb.c ****   if ((ep_type == EP_TYPE_INTR) || (ep_type == EP_TYPE_ISOC))
1797:STM32Cube_FW_N6/Drivers/STM32N6xx_HAL_Driver/Src/stm32n6xx_ll_usb.c ****   {
1798:STM32Cube_FW_N6/Drivers/STM32N6xx_HAL_Driver/Src/stm32n6xx_ll_usb.c ****     USBx_HC((uint32_t)ch_num)->HCCHAR |= USB_OTG_HCCHAR_ODDFRM;
1799:STM32Cube_FW_N6/Drivers/STM32N6xx_HAL_Driver/Src/stm32n6xx_ll_usb.c ****   }
1800:STM32Cube_FW_N6/Drivers/STM32N6xx_HAL_Driver/Src/stm32n6xx_ll_usb.c **** 
1801:STM32Cube_FW_N6/Drivers/STM32N6xx_HAL_Driver/Src/stm32n6xx_ll_usb.c ****   return ret;
ARM GAS  C:\Users\DJESSOU\AppData\Local\Temp\ccOpSjVg.s 			page 120


1802:STM32Cube_FW_N6/Drivers/STM32N6xx_HAL_Driver/Src/stm32n6xx_ll_usb.c **** }
1803:STM32Cube_FW_N6/Drivers/STM32N6xx_HAL_Driver/Src/stm32n6xx_ll_usb.c **** 
1804:STM32Cube_FW_N6/Drivers/STM32N6xx_HAL_Driver/Src/stm32n6xx_ll_usb.c **** /**
1805:STM32Cube_FW_N6/Drivers/STM32N6xx_HAL_Driver/Src/stm32n6xx_ll_usb.c ****   * @brief  Start a transfer over a host channel
1806:STM32Cube_FW_N6/Drivers/STM32N6xx_HAL_Driver/Src/stm32n6xx_ll_usb.c ****   * @param  USBx  Selected device
1807:STM32Cube_FW_N6/Drivers/STM32N6xx_HAL_Driver/Src/stm32n6xx_ll_usb.c ****   * @param  hc  pointer to host channel structure
1808:STM32Cube_FW_N6/Drivers/STM32N6xx_HAL_Driver/Src/stm32n6xx_ll_usb.c ****   * @param  dma USB dma enabled or disabled
1809:STM32Cube_FW_N6/Drivers/STM32N6xx_HAL_Driver/Src/stm32n6xx_ll_usb.c ****   *          This parameter can be one of these values:
1810:STM32Cube_FW_N6/Drivers/STM32N6xx_HAL_Driver/Src/stm32n6xx_ll_usb.c ****   *           0 : DMA feature not used
1811:STM32Cube_FW_N6/Drivers/STM32N6xx_HAL_Driver/Src/stm32n6xx_ll_usb.c ****   *           1 : DMA feature used
1812:STM32Cube_FW_N6/Drivers/STM32N6xx_HAL_Driver/Src/stm32n6xx_ll_usb.c ****   * @retval HAL state
1813:STM32Cube_FW_N6/Drivers/STM32N6xx_HAL_Driver/Src/stm32n6xx_ll_usb.c ****   */
1814:STM32Cube_FW_N6/Drivers/STM32N6xx_HAL_Driver/Src/stm32n6xx_ll_usb.c **** HAL_StatusTypeDef USB_HC_StartXfer(USB_OTG_GlobalTypeDef *USBx, USB_OTG_HCTypeDef *hc, uint8_t dma)
1815:STM32Cube_FW_N6/Drivers/STM32N6xx_HAL_Driver/Src/stm32n6xx_ll_usb.c **** {
1816:STM32Cube_FW_N6/Drivers/STM32N6xx_HAL_Driver/Src/stm32n6xx_ll_usb.c ****   uint32_t USBx_BASE = (uint32_t)USBx;
1817:STM32Cube_FW_N6/Drivers/STM32N6xx_HAL_Driver/Src/stm32n6xx_ll_usb.c ****   uint32_t ch_num = (uint32_t)hc->ch_num;
1818:STM32Cube_FW_N6/Drivers/STM32N6xx_HAL_Driver/Src/stm32n6xx_ll_usb.c ****   __IO uint32_t tmpreg;
1819:STM32Cube_FW_N6/Drivers/STM32N6xx_HAL_Driver/Src/stm32n6xx_ll_usb.c ****   uint8_t  is_oddframe;
1820:STM32Cube_FW_N6/Drivers/STM32N6xx_HAL_Driver/Src/stm32n6xx_ll_usb.c ****   uint16_t len_words;
1821:STM32Cube_FW_N6/Drivers/STM32N6xx_HAL_Driver/Src/stm32n6xx_ll_usb.c ****   uint16_t num_packets;
1822:STM32Cube_FW_N6/Drivers/STM32N6xx_HAL_Driver/Src/stm32n6xx_ll_usb.c ****   uint16_t max_hc_pkt_count = HC_MAX_PKT_CNT;
1823:STM32Cube_FW_N6/Drivers/STM32N6xx_HAL_Driver/Src/stm32n6xx_ll_usb.c **** 
1824:STM32Cube_FW_N6/Drivers/STM32N6xx_HAL_Driver/Src/stm32n6xx_ll_usb.c ****   /* in DMA mode host Core automatically issues ping in case of NYET/NAK */
1825:STM32Cube_FW_N6/Drivers/STM32N6xx_HAL_Driver/Src/stm32n6xx_ll_usb.c ****   if (dma == 1U)
1826:STM32Cube_FW_N6/Drivers/STM32N6xx_HAL_Driver/Src/stm32n6xx_ll_usb.c ****   {
1827:STM32Cube_FW_N6/Drivers/STM32N6xx_HAL_Driver/Src/stm32n6xx_ll_usb.c ****     if (((hc->ep_type == EP_TYPE_CTRL) || (hc->ep_type == EP_TYPE_BULK)) && (hc->do_ssplit == 0U))
1828:STM32Cube_FW_N6/Drivers/STM32N6xx_HAL_Driver/Src/stm32n6xx_ll_usb.c ****     {
1829:STM32Cube_FW_N6/Drivers/STM32N6xx_HAL_Driver/Src/stm32n6xx_ll_usb.c **** 
1830:STM32Cube_FW_N6/Drivers/STM32N6xx_HAL_Driver/Src/stm32n6xx_ll_usb.c ****       USBx_HC((uint32_t)ch_num)->HCINTMSK &= ~(USB_OTG_HCINTMSK_NYET |
1831:STM32Cube_FW_N6/Drivers/STM32N6xx_HAL_Driver/Src/stm32n6xx_ll_usb.c ****                                                USB_OTG_HCINTMSK_ACKM |
1832:STM32Cube_FW_N6/Drivers/STM32N6xx_HAL_Driver/Src/stm32n6xx_ll_usb.c ****                                                USB_OTG_HCINTMSK_NAKM);
1833:STM32Cube_FW_N6/Drivers/STM32N6xx_HAL_Driver/Src/stm32n6xx_ll_usb.c ****     }
1834:STM32Cube_FW_N6/Drivers/STM32N6xx_HAL_Driver/Src/stm32n6xx_ll_usb.c ****   }
1835:STM32Cube_FW_N6/Drivers/STM32N6xx_HAL_Driver/Src/stm32n6xx_ll_usb.c ****   else
1836:STM32Cube_FW_N6/Drivers/STM32N6xx_HAL_Driver/Src/stm32n6xx_ll_usb.c ****   {
1837:STM32Cube_FW_N6/Drivers/STM32N6xx_HAL_Driver/Src/stm32n6xx_ll_usb.c ****     if ((hc->speed == USBH_HS_SPEED) && (hc->do_ping == 1U))
1838:STM32Cube_FW_N6/Drivers/STM32N6xx_HAL_Driver/Src/stm32n6xx_ll_usb.c ****     {
1839:STM32Cube_FW_N6/Drivers/STM32N6xx_HAL_Driver/Src/stm32n6xx_ll_usb.c ****       (void)USB_DoPing(USBx, hc->ch_num);
1840:STM32Cube_FW_N6/Drivers/STM32N6xx_HAL_Driver/Src/stm32n6xx_ll_usb.c ****       return HAL_OK;
1841:STM32Cube_FW_N6/Drivers/STM32N6xx_HAL_Driver/Src/stm32n6xx_ll_usb.c ****     }
1842:STM32Cube_FW_N6/Drivers/STM32N6xx_HAL_Driver/Src/stm32n6xx_ll_usb.c ****   }
1843:STM32Cube_FW_N6/Drivers/STM32N6xx_HAL_Driver/Src/stm32n6xx_ll_usb.c **** 
1844:STM32Cube_FW_N6/Drivers/STM32N6xx_HAL_Driver/Src/stm32n6xx_ll_usb.c ****   if (hc->do_ssplit == 1U)
1845:STM32Cube_FW_N6/Drivers/STM32N6xx_HAL_Driver/Src/stm32n6xx_ll_usb.c ****   {
1846:STM32Cube_FW_N6/Drivers/STM32N6xx_HAL_Driver/Src/stm32n6xx_ll_usb.c ****     /* Set number of packet to 1 for Split transaction */
1847:STM32Cube_FW_N6/Drivers/STM32N6xx_HAL_Driver/Src/stm32n6xx_ll_usb.c ****     num_packets = 1U;
1848:STM32Cube_FW_N6/Drivers/STM32N6xx_HAL_Driver/Src/stm32n6xx_ll_usb.c **** 
1849:STM32Cube_FW_N6/Drivers/STM32N6xx_HAL_Driver/Src/stm32n6xx_ll_usb.c ****     if (hc->ep_is_in != 0U)
1850:STM32Cube_FW_N6/Drivers/STM32N6xx_HAL_Driver/Src/stm32n6xx_ll_usb.c ****     {
1851:STM32Cube_FW_N6/Drivers/STM32N6xx_HAL_Driver/Src/stm32n6xx_ll_usb.c ****       hc->XferSize = (uint32_t)num_packets * hc->max_packet;
1852:STM32Cube_FW_N6/Drivers/STM32N6xx_HAL_Driver/Src/stm32n6xx_ll_usb.c ****     }
1853:STM32Cube_FW_N6/Drivers/STM32N6xx_HAL_Driver/Src/stm32n6xx_ll_usb.c ****     else
1854:STM32Cube_FW_N6/Drivers/STM32N6xx_HAL_Driver/Src/stm32n6xx_ll_usb.c ****     {
1855:STM32Cube_FW_N6/Drivers/STM32N6xx_HAL_Driver/Src/stm32n6xx_ll_usb.c ****       if (hc->ep_type == EP_TYPE_ISOC)
1856:STM32Cube_FW_N6/Drivers/STM32N6xx_HAL_Driver/Src/stm32n6xx_ll_usb.c ****       {
1857:STM32Cube_FW_N6/Drivers/STM32N6xx_HAL_Driver/Src/stm32n6xx_ll_usb.c ****         if (hc->xfer_len > ISO_SPLT_MPS)
1858:STM32Cube_FW_N6/Drivers/STM32N6xx_HAL_Driver/Src/stm32n6xx_ll_usb.c ****         {
ARM GAS  C:\Users\DJESSOU\AppData\Local\Temp\ccOpSjVg.s 			page 121


1859:STM32Cube_FW_N6/Drivers/STM32N6xx_HAL_Driver/Src/stm32n6xx_ll_usb.c ****           /* Isochrone Max Packet Size for Split mode */
1860:STM32Cube_FW_N6/Drivers/STM32N6xx_HAL_Driver/Src/stm32n6xx_ll_usb.c ****           hc->XferSize = hc->max_packet;
1861:STM32Cube_FW_N6/Drivers/STM32N6xx_HAL_Driver/Src/stm32n6xx_ll_usb.c ****           hc->xfer_len = hc->XferSize;
1862:STM32Cube_FW_N6/Drivers/STM32N6xx_HAL_Driver/Src/stm32n6xx_ll_usb.c **** 
1863:STM32Cube_FW_N6/Drivers/STM32N6xx_HAL_Driver/Src/stm32n6xx_ll_usb.c ****           if ((hc->iso_splt_xactPos == HCSPLT_BEGIN) || (hc->iso_splt_xactPos == HCSPLT_MIDDLE))
1864:STM32Cube_FW_N6/Drivers/STM32N6xx_HAL_Driver/Src/stm32n6xx_ll_usb.c ****           {
1865:STM32Cube_FW_N6/Drivers/STM32N6xx_HAL_Driver/Src/stm32n6xx_ll_usb.c ****             hc->iso_splt_xactPos = HCSPLT_MIDDLE;
1866:STM32Cube_FW_N6/Drivers/STM32N6xx_HAL_Driver/Src/stm32n6xx_ll_usb.c ****           }
1867:STM32Cube_FW_N6/Drivers/STM32N6xx_HAL_Driver/Src/stm32n6xx_ll_usb.c ****           else
1868:STM32Cube_FW_N6/Drivers/STM32N6xx_HAL_Driver/Src/stm32n6xx_ll_usb.c ****           {
1869:STM32Cube_FW_N6/Drivers/STM32N6xx_HAL_Driver/Src/stm32n6xx_ll_usb.c ****             hc->iso_splt_xactPos = HCSPLT_BEGIN;
1870:STM32Cube_FW_N6/Drivers/STM32N6xx_HAL_Driver/Src/stm32n6xx_ll_usb.c ****           }
1871:STM32Cube_FW_N6/Drivers/STM32N6xx_HAL_Driver/Src/stm32n6xx_ll_usb.c ****         }
1872:STM32Cube_FW_N6/Drivers/STM32N6xx_HAL_Driver/Src/stm32n6xx_ll_usb.c ****         else
1873:STM32Cube_FW_N6/Drivers/STM32N6xx_HAL_Driver/Src/stm32n6xx_ll_usb.c ****         {
1874:STM32Cube_FW_N6/Drivers/STM32N6xx_HAL_Driver/Src/stm32n6xx_ll_usb.c ****           hc->XferSize = hc->xfer_len;
1875:STM32Cube_FW_N6/Drivers/STM32N6xx_HAL_Driver/Src/stm32n6xx_ll_usb.c **** 
1876:STM32Cube_FW_N6/Drivers/STM32N6xx_HAL_Driver/Src/stm32n6xx_ll_usb.c ****           if ((hc->iso_splt_xactPos != HCSPLT_BEGIN) && (hc->iso_splt_xactPos != HCSPLT_MIDDLE))
1877:STM32Cube_FW_N6/Drivers/STM32N6xx_HAL_Driver/Src/stm32n6xx_ll_usb.c ****           {
1878:STM32Cube_FW_N6/Drivers/STM32N6xx_HAL_Driver/Src/stm32n6xx_ll_usb.c ****             hc->iso_splt_xactPos = HCSPLT_FULL;
1879:STM32Cube_FW_N6/Drivers/STM32N6xx_HAL_Driver/Src/stm32n6xx_ll_usb.c ****           }
1880:STM32Cube_FW_N6/Drivers/STM32N6xx_HAL_Driver/Src/stm32n6xx_ll_usb.c ****           else
1881:STM32Cube_FW_N6/Drivers/STM32N6xx_HAL_Driver/Src/stm32n6xx_ll_usb.c ****           {
1882:STM32Cube_FW_N6/Drivers/STM32N6xx_HAL_Driver/Src/stm32n6xx_ll_usb.c ****             hc->iso_splt_xactPos = HCSPLT_END;
1883:STM32Cube_FW_N6/Drivers/STM32N6xx_HAL_Driver/Src/stm32n6xx_ll_usb.c ****           }
1884:STM32Cube_FW_N6/Drivers/STM32N6xx_HAL_Driver/Src/stm32n6xx_ll_usb.c ****         }
1885:STM32Cube_FW_N6/Drivers/STM32N6xx_HAL_Driver/Src/stm32n6xx_ll_usb.c ****       }
1886:STM32Cube_FW_N6/Drivers/STM32N6xx_HAL_Driver/Src/stm32n6xx_ll_usb.c ****       else
1887:STM32Cube_FW_N6/Drivers/STM32N6xx_HAL_Driver/Src/stm32n6xx_ll_usb.c ****       {
1888:STM32Cube_FW_N6/Drivers/STM32N6xx_HAL_Driver/Src/stm32n6xx_ll_usb.c ****         if ((dma == 1U) && (hc->xfer_len > hc->max_packet))
1889:STM32Cube_FW_N6/Drivers/STM32N6xx_HAL_Driver/Src/stm32n6xx_ll_usb.c ****         {
1890:STM32Cube_FW_N6/Drivers/STM32N6xx_HAL_Driver/Src/stm32n6xx_ll_usb.c ****           hc->XferSize = (uint32_t)num_packets * hc->max_packet;
1891:STM32Cube_FW_N6/Drivers/STM32N6xx_HAL_Driver/Src/stm32n6xx_ll_usb.c ****         }
1892:STM32Cube_FW_N6/Drivers/STM32N6xx_HAL_Driver/Src/stm32n6xx_ll_usb.c ****         else
1893:STM32Cube_FW_N6/Drivers/STM32N6xx_HAL_Driver/Src/stm32n6xx_ll_usb.c ****         {
1894:STM32Cube_FW_N6/Drivers/STM32N6xx_HAL_Driver/Src/stm32n6xx_ll_usb.c ****           hc->XferSize = hc->xfer_len;
1895:STM32Cube_FW_N6/Drivers/STM32N6xx_HAL_Driver/Src/stm32n6xx_ll_usb.c ****         }
1896:STM32Cube_FW_N6/Drivers/STM32N6xx_HAL_Driver/Src/stm32n6xx_ll_usb.c ****       }
1897:STM32Cube_FW_N6/Drivers/STM32N6xx_HAL_Driver/Src/stm32n6xx_ll_usb.c ****     }
1898:STM32Cube_FW_N6/Drivers/STM32N6xx_HAL_Driver/Src/stm32n6xx_ll_usb.c ****   }
1899:STM32Cube_FW_N6/Drivers/STM32N6xx_HAL_Driver/Src/stm32n6xx_ll_usb.c ****   else
1900:STM32Cube_FW_N6/Drivers/STM32N6xx_HAL_Driver/Src/stm32n6xx_ll_usb.c ****   {
1901:STM32Cube_FW_N6/Drivers/STM32N6xx_HAL_Driver/Src/stm32n6xx_ll_usb.c ****     /* Compute the expected number of packets associated to the transfer */
1902:STM32Cube_FW_N6/Drivers/STM32N6xx_HAL_Driver/Src/stm32n6xx_ll_usb.c ****     if (hc->xfer_len > 0U)
1903:STM32Cube_FW_N6/Drivers/STM32N6xx_HAL_Driver/Src/stm32n6xx_ll_usb.c ****     {
1904:STM32Cube_FW_N6/Drivers/STM32N6xx_HAL_Driver/Src/stm32n6xx_ll_usb.c ****       num_packets = (uint16_t)((hc->xfer_len + hc->max_packet - 1U) / hc->max_packet);
1905:STM32Cube_FW_N6/Drivers/STM32N6xx_HAL_Driver/Src/stm32n6xx_ll_usb.c **** 
1906:STM32Cube_FW_N6/Drivers/STM32N6xx_HAL_Driver/Src/stm32n6xx_ll_usb.c ****       if (num_packets > max_hc_pkt_count)
1907:STM32Cube_FW_N6/Drivers/STM32N6xx_HAL_Driver/Src/stm32n6xx_ll_usb.c ****       {
1908:STM32Cube_FW_N6/Drivers/STM32N6xx_HAL_Driver/Src/stm32n6xx_ll_usb.c ****         num_packets = max_hc_pkt_count;
1909:STM32Cube_FW_N6/Drivers/STM32N6xx_HAL_Driver/Src/stm32n6xx_ll_usb.c ****         hc->XferSize = (uint32_t)num_packets * hc->max_packet;
1910:STM32Cube_FW_N6/Drivers/STM32N6xx_HAL_Driver/Src/stm32n6xx_ll_usb.c ****       }
1911:STM32Cube_FW_N6/Drivers/STM32N6xx_HAL_Driver/Src/stm32n6xx_ll_usb.c ****     }
1912:STM32Cube_FW_N6/Drivers/STM32N6xx_HAL_Driver/Src/stm32n6xx_ll_usb.c ****     else
1913:STM32Cube_FW_N6/Drivers/STM32N6xx_HAL_Driver/Src/stm32n6xx_ll_usb.c ****     {
1914:STM32Cube_FW_N6/Drivers/STM32N6xx_HAL_Driver/Src/stm32n6xx_ll_usb.c ****       num_packets = 1U;
1915:STM32Cube_FW_N6/Drivers/STM32N6xx_HAL_Driver/Src/stm32n6xx_ll_usb.c ****     }
ARM GAS  C:\Users\DJESSOU\AppData\Local\Temp\ccOpSjVg.s 			page 122


1916:STM32Cube_FW_N6/Drivers/STM32N6xx_HAL_Driver/Src/stm32n6xx_ll_usb.c **** 
1917:STM32Cube_FW_N6/Drivers/STM32N6xx_HAL_Driver/Src/stm32n6xx_ll_usb.c ****     /*
1918:STM32Cube_FW_N6/Drivers/STM32N6xx_HAL_Driver/Src/stm32n6xx_ll_usb.c ****     * For IN channel HCTSIZ.XferSize is expected to be an integer multiple of
1919:STM32Cube_FW_N6/Drivers/STM32N6xx_HAL_Driver/Src/stm32n6xx_ll_usb.c ****     * max_packet size.
1920:STM32Cube_FW_N6/Drivers/STM32N6xx_HAL_Driver/Src/stm32n6xx_ll_usb.c ****     */
1921:STM32Cube_FW_N6/Drivers/STM32N6xx_HAL_Driver/Src/stm32n6xx_ll_usb.c ****     if (hc->ep_is_in != 0U)
1922:STM32Cube_FW_N6/Drivers/STM32N6xx_HAL_Driver/Src/stm32n6xx_ll_usb.c ****     {
1923:STM32Cube_FW_N6/Drivers/STM32N6xx_HAL_Driver/Src/stm32n6xx_ll_usb.c ****       hc->XferSize = (uint32_t)num_packets * hc->max_packet;
1924:STM32Cube_FW_N6/Drivers/STM32N6xx_HAL_Driver/Src/stm32n6xx_ll_usb.c ****     }
1925:STM32Cube_FW_N6/Drivers/STM32N6xx_HAL_Driver/Src/stm32n6xx_ll_usb.c ****     else
1926:STM32Cube_FW_N6/Drivers/STM32N6xx_HAL_Driver/Src/stm32n6xx_ll_usb.c ****     {
1927:STM32Cube_FW_N6/Drivers/STM32N6xx_HAL_Driver/Src/stm32n6xx_ll_usb.c ****       hc->XferSize = hc->xfer_len;
1928:STM32Cube_FW_N6/Drivers/STM32N6xx_HAL_Driver/Src/stm32n6xx_ll_usb.c ****     }
1929:STM32Cube_FW_N6/Drivers/STM32N6xx_HAL_Driver/Src/stm32n6xx_ll_usb.c ****   }
1930:STM32Cube_FW_N6/Drivers/STM32N6xx_HAL_Driver/Src/stm32n6xx_ll_usb.c **** 
1931:STM32Cube_FW_N6/Drivers/STM32N6xx_HAL_Driver/Src/stm32n6xx_ll_usb.c ****   /* Initialize the HCTSIZn register */
1932:STM32Cube_FW_N6/Drivers/STM32N6xx_HAL_Driver/Src/stm32n6xx_ll_usb.c ****   USBx_HC(ch_num)->HCTSIZ = (hc->XferSize & USB_OTG_HCTSIZ_XFRSIZ) |
1933:STM32Cube_FW_N6/Drivers/STM32N6xx_HAL_Driver/Src/stm32n6xx_ll_usb.c ****                             (((uint32_t)num_packets << 19) & USB_OTG_HCTSIZ_PKTCNT) |
1934:STM32Cube_FW_N6/Drivers/STM32N6xx_HAL_Driver/Src/stm32n6xx_ll_usb.c ****                             (((uint32_t)hc->data_pid << 29) & USB_OTG_HCTSIZ_DPID);
1935:STM32Cube_FW_N6/Drivers/STM32N6xx_HAL_Driver/Src/stm32n6xx_ll_usb.c **** 
1936:STM32Cube_FW_N6/Drivers/STM32N6xx_HAL_Driver/Src/stm32n6xx_ll_usb.c ****   if (dma != 0U)
1937:STM32Cube_FW_N6/Drivers/STM32N6xx_HAL_Driver/Src/stm32n6xx_ll_usb.c ****   {
1938:STM32Cube_FW_N6/Drivers/STM32N6xx_HAL_Driver/Src/stm32n6xx_ll_usb.c ****     /* xfer_buff MUST be 32-bits aligned */
1939:STM32Cube_FW_N6/Drivers/STM32N6xx_HAL_Driver/Src/stm32n6xx_ll_usb.c ****     USBx_HC(ch_num)->HCDMA = (uint32_t)hc->xfer_buff;
1940:STM32Cube_FW_N6/Drivers/STM32N6xx_HAL_Driver/Src/stm32n6xx_ll_usb.c ****   }
1941:STM32Cube_FW_N6/Drivers/STM32N6xx_HAL_Driver/Src/stm32n6xx_ll_usb.c **** 
1942:STM32Cube_FW_N6/Drivers/STM32N6xx_HAL_Driver/Src/stm32n6xx_ll_usb.c ****   is_oddframe = (((uint32_t)USBx_HOST->HFNUM & 0x01U) != 0U) ? 0U : 1U;
1943:STM32Cube_FW_N6/Drivers/STM32N6xx_HAL_Driver/Src/stm32n6xx_ll_usb.c ****   USBx_HC(ch_num)->HCCHAR &= ~USB_OTG_HCCHAR_ODDFRM;
1944:STM32Cube_FW_N6/Drivers/STM32N6xx_HAL_Driver/Src/stm32n6xx_ll_usb.c ****   USBx_HC(ch_num)->HCCHAR |= (uint32_t)is_oddframe << 29;
1945:STM32Cube_FW_N6/Drivers/STM32N6xx_HAL_Driver/Src/stm32n6xx_ll_usb.c **** 
1946:STM32Cube_FW_N6/Drivers/STM32N6xx_HAL_Driver/Src/stm32n6xx_ll_usb.c ****   if (hc->do_ssplit == 1U)
1947:STM32Cube_FW_N6/Drivers/STM32N6xx_HAL_Driver/Src/stm32n6xx_ll_usb.c ****   {
1948:STM32Cube_FW_N6/Drivers/STM32N6xx_HAL_Driver/Src/stm32n6xx_ll_usb.c ****     /* Set Hub start Split transaction */
1949:STM32Cube_FW_N6/Drivers/STM32N6xx_HAL_Driver/Src/stm32n6xx_ll_usb.c ****     USBx_HC((uint32_t)ch_num)->HCSPLT = ((uint32_t)hc->hub_addr << USB_OTG_HCSPLT_HUBADDR_Pos) |
1950:STM32Cube_FW_N6/Drivers/STM32N6xx_HAL_Driver/Src/stm32n6xx_ll_usb.c ****                                         (uint32_t)hc->hub_port_nbr | USB_OTG_HCSPLT_SPLITEN;
1951:STM32Cube_FW_N6/Drivers/STM32N6xx_HAL_Driver/Src/stm32n6xx_ll_usb.c **** 
1952:STM32Cube_FW_N6/Drivers/STM32N6xx_HAL_Driver/Src/stm32n6xx_ll_usb.c ****     /* unmask ack & nyet for IN/OUT transactions */
1953:STM32Cube_FW_N6/Drivers/STM32N6xx_HAL_Driver/Src/stm32n6xx_ll_usb.c ****     USBx_HC((uint32_t)ch_num)->HCINTMSK |= (USB_OTG_HCINTMSK_ACKM |
1954:STM32Cube_FW_N6/Drivers/STM32N6xx_HAL_Driver/Src/stm32n6xx_ll_usb.c ****                                             USB_OTG_HCINTMSK_NYET);
1955:STM32Cube_FW_N6/Drivers/STM32N6xx_HAL_Driver/Src/stm32n6xx_ll_usb.c **** 
1956:STM32Cube_FW_N6/Drivers/STM32N6xx_HAL_Driver/Src/stm32n6xx_ll_usb.c ****     if ((hc->do_csplit == 1U) && (hc->ep_is_in == 0U))
1957:STM32Cube_FW_N6/Drivers/STM32N6xx_HAL_Driver/Src/stm32n6xx_ll_usb.c ****     {
1958:STM32Cube_FW_N6/Drivers/STM32N6xx_HAL_Driver/Src/stm32n6xx_ll_usb.c ****       USBx_HC((uint32_t)ch_num)->HCSPLT |= USB_OTG_HCSPLT_COMPLSPLT;
1959:STM32Cube_FW_N6/Drivers/STM32N6xx_HAL_Driver/Src/stm32n6xx_ll_usb.c ****       USBx_HC((uint32_t)ch_num)->HCINTMSK |= USB_OTG_HCINTMSK_NYET;
1960:STM32Cube_FW_N6/Drivers/STM32N6xx_HAL_Driver/Src/stm32n6xx_ll_usb.c ****     }
1961:STM32Cube_FW_N6/Drivers/STM32N6xx_HAL_Driver/Src/stm32n6xx_ll_usb.c **** 
1962:STM32Cube_FW_N6/Drivers/STM32N6xx_HAL_Driver/Src/stm32n6xx_ll_usb.c ****     if (((hc->ep_type == EP_TYPE_ISOC) || (hc->ep_type == EP_TYPE_INTR)) &&
1963:STM32Cube_FW_N6/Drivers/STM32N6xx_HAL_Driver/Src/stm32n6xx_ll_usb.c ****         (hc->do_csplit == 1U) && (hc->ep_is_in == 1U))
1964:STM32Cube_FW_N6/Drivers/STM32N6xx_HAL_Driver/Src/stm32n6xx_ll_usb.c ****     {
1965:STM32Cube_FW_N6/Drivers/STM32N6xx_HAL_Driver/Src/stm32n6xx_ll_usb.c ****       USBx_HC((uint32_t)ch_num)->HCSPLT |= USB_OTG_HCSPLT_COMPLSPLT;
1966:STM32Cube_FW_N6/Drivers/STM32N6xx_HAL_Driver/Src/stm32n6xx_ll_usb.c ****     }
1967:STM32Cube_FW_N6/Drivers/STM32N6xx_HAL_Driver/Src/stm32n6xx_ll_usb.c **** 
1968:STM32Cube_FW_N6/Drivers/STM32N6xx_HAL_Driver/Src/stm32n6xx_ll_usb.c ****     /* Position management for iso out transaction on split mode */
1969:STM32Cube_FW_N6/Drivers/STM32N6xx_HAL_Driver/Src/stm32n6xx_ll_usb.c ****     if ((hc->ep_type == EP_TYPE_ISOC) && (hc->ep_is_in == 0U))
1970:STM32Cube_FW_N6/Drivers/STM32N6xx_HAL_Driver/Src/stm32n6xx_ll_usb.c ****     {
1971:STM32Cube_FW_N6/Drivers/STM32N6xx_HAL_Driver/Src/stm32n6xx_ll_usb.c ****       /* Set data payload position */
1972:STM32Cube_FW_N6/Drivers/STM32N6xx_HAL_Driver/Src/stm32n6xx_ll_usb.c ****       switch (hc->iso_splt_xactPos)
ARM GAS  C:\Users\DJESSOU\AppData\Local\Temp\ccOpSjVg.s 			page 123


1973:STM32Cube_FW_N6/Drivers/STM32N6xx_HAL_Driver/Src/stm32n6xx_ll_usb.c ****       {
1974:STM32Cube_FW_N6/Drivers/STM32N6xx_HAL_Driver/Src/stm32n6xx_ll_usb.c ****         case HCSPLT_BEGIN:
1975:STM32Cube_FW_N6/Drivers/STM32N6xx_HAL_Driver/Src/stm32n6xx_ll_usb.c ****           /* First data payload for OUT Transaction */
1976:STM32Cube_FW_N6/Drivers/STM32N6xx_HAL_Driver/Src/stm32n6xx_ll_usb.c ****           USBx_HC((uint32_t)ch_num)->HCSPLT |= USB_OTG_HCSPLT_XACTPOS_1;
1977:STM32Cube_FW_N6/Drivers/STM32N6xx_HAL_Driver/Src/stm32n6xx_ll_usb.c ****           break;
1978:STM32Cube_FW_N6/Drivers/STM32N6xx_HAL_Driver/Src/stm32n6xx_ll_usb.c **** 
1979:STM32Cube_FW_N6/Drivers/STM32N6xx_HAL_Driver/Src/stm32n6xx_ll_usb.c ****         case HCSPLT_MIDDLE:
1980:STM32Cube_FW_N6/Drivers/STM32N6xx_HAL_Driver/Src/stm32n6xx_ll_usb.c ****           /* Middle data payload for OUT Transaction */
1981:STM32Cube_FW_N6/Drivers/STM32N6xx_HAL_Driver/Src/stm32n6xx_ll_usb.c ****           USBx_HC((uint32_t)ch_num)->HCSPLT |= USB_OTG_HCSPLT_XACTPOS_Pos;
1982:STM32Cube_FW_N6/Drivers/STM32N6xx_HAL_Driver/Src/stm32n6xx_ll_usb.c ****           break;
1983:STM32Cube_FW_N6/Drivers/STM32N6xx_HAL_Driver/Src/stm32n6xx_ll_usb.c **** 
1984:STM32Cube_FW_N6/Drivers/STM32N6xx_HAL_Driver/Src/stm32n6xx_ll_usb.c ****         case HCSPLT_END:
1985:STM32Cube_FW_N6/Drivers/STM32N6xx_HAL_Driver/Src/stm32n6xx_ll_usb.c ****           /* End data payload for OUT Transaction */
1986:STM32Cube_FW_N6/Drivers/STM32N6xx_HAL_Driver/Src/stm32n6xx_ll_usb.c ****           USBx_HC((uint32_t)ch_num)->HCSPLT |= USB_OTG_HCSPLT_XACTPOS_0;
1987:STM32Cube_FW_N6/Drivers/STM32N6xx_HAL_Driver/Src/stm32n6xx_ll_usb.c ****           break;
1988:STM32Cube_FW_N6/Drivers/STM32N6xx_HAL_Driver/Src/stm32n6xx_ll_usb.c **** 
1989:STM32Cube_FW_N6/Drivers/STM32N6xx_HAL_Driver/Src/stm32n6xx_ll_usb.c ****         case HCSPLT_FULL:
1990:STM32Cube_FW_N6/Drivers/STM32N6xx_HAL_Driver/Src/stm32n6xx_ll_usb.c ****           /* Entire data payload for OUT Transaction */
1991:STM32Cube_FW_N6/Drivers/STM32N6xx_HAL_Driver/Src/stm32n6xx_ll_usb.c ****           USBx_HC((uint32_t)ch_num)->HCSPLT |= USB_OTG_HCSPLT_XACTPOS;
1992:STM32Cube_FW_N6/Drivers/STM32N6xx_HAL_Driver/Src/stm32n6xx_ll_usb.c ****           break;
1993:STM32Cube_FW_N6/Drivers/STM32N6xx_HAL_Driver/Src/stm32n6xx_ll_usb.c **** 
1994:STM32Cube_FW_N6/Drivers/STM32N6xx_HAL_Driver/Src/stm32n6xx_ll_usb.c ****         default:
1995:STM32Cube_FW_N6/Drivers/STM32N6xx_HAL_Driver/Src/stm32n6xx_ll_usb.c ****           break;
1996:STM32Cube_FW_N6/Drivers/STM32N6xx_HAL_Driver/Src/stm32n6xx_ll_usb.c ****       }
1997:STM32Cube_FW_N6/Drivers/STM32N6xx_HAL_Driver/Src/stm32n6xx_ll_usb.c ****     }
1998:STM32Cube_FW_N6/Drivers/STM32N6xx_HAL_Driver/Src/stm32n6xx_ll_usb.c ****   }
1999:STM32Cube_FW_N6/Drivers/STM32N6xx_HAL_Driver/Src/stm32n6xx_ll_usb.c ****   else
2000:STM32Cube_FW_N6/Drivers/STM32N6xx_HAL_Driver/Src/stm32n6xx_ll_usb.c ****   {
2001:STM32Cube_FW_N6/Drivers/STM32N6xx_HAL_Driver/Src/stm32n6xx_ll_usb.c ****     /* Clear Hub Start Split transaction */
2002:STM32Cube_FW_N6/Drivers/STM32N6xx_HAL_Driver/Src/stm32n6xx_ll_usb.c ****     USBx_HC((uint32_t)ch_num)->HCSPLT = 0U;
2003:STM32Cube_FW_N6/Drivers/STM32N6xx_HAL_Driver/Src/stm32n6xx_ll_usb.c ****   }
2004:STM32Cube_FW_N6/Drivers/STM32N6xx_HAL_Driver/Src/stm32n6xx_ll_usb.c **** 
2005:STM32Cube_FW_N6/Drivers/STM32N6xx_HAL_Driver/Src/stm32n6xx_ll_usb.c ****   /* Set host channel enable */
2006:STM32Cube_FW_N6/Drivers/STM32N6xx_HAL_Driver/Src/stm32n6xx_ll_usb.c ****   tmpreg = USBx_HC(ch_num)->HCCHAR;
2007:STM32Cube_FW_N6/Drivers/STM32N6xx_HAL_Driver/Src/stm32n6xx_ll_usb.c ****   tmpreg &= ~USB_OTG_HCCHAR_CHDIS;
2008:STM32Cube_FW_N6/Drivers/STM32N6xx_HAL_Driver/Src/stm32n6xx_ll_usb.c **** 
2009:STM32Cube_FW_N6/Drivers/STM32N6xx_HAL_Driver/Src/stm32n6xx_ll_usb.c ****   /* make sure to set the correct ep direction */
2010:STM32Cube_FW_N6/Drivers/STM32N6xx_HAL_Driver/Src/stm32n6xx_ll_usb.c ****   if (hc->ep_is_in != 0U)
2011:STM32Cube_FW_N6/Drivers/STM32N6xx_HAL_Driver/Src/stm32n6xx_ll_usb.c ****   {
2012:STM32Cube_FW_N6/Drivers/STM32N6xx_HAL_Driver/Src/stm32n6xx_ll_usb.c ****     tmpreg |= USB_OTG_HCCHAR_EPDIR;
2013:STM32Cube_FW_N6/Drivers/STM32N6xx_HAL_Driver/Src/stm32n6xx_ll_usb.c ****   }
2014:STM32Cube_FW_N6/Drivers/STM32N6xx_HAL_Driver/Src/stm32n6xx_ll_usb.c ****   else
2015:STM32Cube_FW_N6/Drivers/STM32N6xx_HAL_Driver/Src/stm32n6xx_ll_usb.c ****   {
2016:STM32Cube_FW_N6/Drivers/STM32N6xx_HAL_Driver/Src/stm32n6xx_ll_usb.c ****     tmpreg &= ~USB_OTG_HCCHAR_EPDIR;
2017:STM32Cube_FW_N6/Drivers/STM32N6xx_HAL_Driver/Src/stm32n6xx_ll_usb.c ****   }
2018:STM32Cube_FW_N6/Drivers/STM32N6xx_HAL_Driver/Src/stm32n6xx_ll_usb.c ****   tmpreg |= USB_OTG_HCCHAR_CHENA;
2019:STM32Cube_FW_N6/Drivers/STM32N6xx_HAL_Driver/Src/stm32n6xx_ll_usb.c ****   USBx_HC(ch_num)->HCCHAR = tmpreg;
2020:STM32Cube_FW_N6/Drivers/STM32N6xx_HAL_Driver/Src/stm32n6xx_ll_usb.c **** 
2021:STM32Cube_FW_N6/Drivers/STM32N6xx_HAL_Driver/Src/stm32n6xx_ll_usb.c ****   if (dma != 0U) /* dma mode */
2022:STM32Cube_FW_N6/Drivers/STM32N6xx_HAL_Driver/Src/stm32n6xx_ll_usb.c ****   {
2023:STM32Cube_FW_N6/Drivers/STM32N6xx_HAL_Driver/Src/stm32n6xx_ll_usb.c ****     return HAL_OK;
2024:STM32Cube_FW_N6/Drivers/STM32N6xx_HAL_Driver/Src/stm32n6xx_ll_usb.c ****   }
2025:STM32Cube_FW_N6/Drivers/STM32N6xx_HAL_Driver/Src/stm32n6xx_ll_usb.c **** 
2026:STM32Cube_FW_N6/Drivers/STM32N6xx_HAL_Driver/Src/stm32n6xx_ll_usb.c ****   if ((hc->ep_is_in == 0U) && (hc->xfer_len > 0U) && (hc->do_csplit == 0U))
2027:STM32Cube_FW_N6/Drivers/STM32N6xx_HAL_Driver/Src/stm32n6xx_ll_usb.c ****   {
2028:STM32Cube_FW_N6/Drivers/STM32N6xx_HAL_Driver/Src/stm32n6xx_ll_usb.c ****     switch (hc->ep_type)
2029:STM32Cube_FW_N6/Drivers/STM32N6xx_HAL_Driver/Src/stm32n6xx_ll_usb.c ****     {
ARM GAS  C:\Users\DJESSOU\AppData\Local\Temp\ccOpSjVg.s 			page 124


2030:STM32Cube_FW_N6/Drivers/STM32N6xx_HAL_Driver/Src/stm32n6xx_ll_usb.c ****       /* Non periodic transfer */
2031:STM32Cube_FW_N6/Drivers/STM32N6xx_HAL_Driver/Src/stm32n6xx_ll_usb.c ****       case EP_TYPE_CTRL:
2032:STM32Cube_FW_N6/Drivers/STM32N6xx_HAL_Driver/Src/stm32n6xx_ll_usb.c ****       case EP_TYPE_BULK:
2033:STM32Cube_FW_N6/Drivers/STM32N6xx_HAL_Driver/Src/stm32n6xx_ll_usb.c **** 
2034:STM32Cube_FW_N6/Drivers/STM32N6xx_HAL_Driver/Src/stm32n6xx_ll_usb.c ****         len_words = (uint16_t)((hc->xfer_len + 3U) / 4U);
2035:STM32Cube_FW_N6/Drivers/STM32N6xx_HAL_Driver/Src/stm32n6xx_ll_usb.c **** 
2036:STM32Cube_FW_N6/Drivers/STM32N6xx_HAL_Driver/Src/stm32n6xx_ll_usb.c ****         /* check if there is enough space in FIFO space */
2037:STM32Cube_FW_N6/Drivers/STM32N6xx_HAL_Driver/Src/stm32n6xx_ll_usb.c ****         if (len_words > (USBx->HNPTXSTS & 0xFFFFU))
2038:STM32Cube_FW_N6/Drivers/STM32N6xx_HAL_Driver/Src/stm32n6xx_ll_usb.c ****         {
2039:STM32Cube_FW_N6/Drivers/STM32N6xx_HAL_Driver/Src/stm32n6xx_ll_usb.c ****           /* need to process data in nptxfempty interrupt */
2040:STM32Cube_FW_N6/Drivers/STM32N6xx_HAL_Driver/Src/stm32n6xx_ll_usb.c ****           USBx->GINTMSK |= USB_OTG_GINTMSK_NPTXFEM;
2041:STM32Cube_FW_N6/Drivers/STM32N6xx_HAL_Driver/Src/stm32n6xx_ll_usb.c ****         }
2042:STM32Cube_FW_N6/Drivers/STM32N6xx_HAL_Driver/Src/stm32n6xx_ll_usb.c ****         break;
2043:STM32Cube_FW_N6/Drivers/STM32N6xx_HAL_Driver/Src/stm32n6xx_ll_usb.c **** 
2044:STM32Cube_FW_N6/Drivers/STM32N6xx_HAL_Driver/Src/stm32n6xx_ll_usb.c ****       /* Periodic transfer */
2045:STM32Cube_FW_N6/Drivers/STM32N6xx_HAL_Driver/Src/stm32n6xx_ll_usb.c ****       case EP_TYPE_INTR:
2046:STM32Cube_FW_N6/Drivers/STM32N6xx_HAL_Driver/Src/stm32n6xx_ll_usb.c ****       case EP_TYPE_ISOC:
2047:STM32Cube_FW_N6/Drivers/STM32N6xx_HAL_Driver/Src/stm32n6xx_ll_usb.c ****         len_words = (uint16_t)((hc->xfer_len + 3U) / 4U);
2048:STM32Cube_FW_N6/Drivers/STM32N6xx_HAL_Driver/Src/stm32n6xx_ll_usb.c ****         /* check if there is enough space in FIFO space */
2049:STM32Cube_FW_N6/Drivers/STM32N6xx_HAL_Driver/Src/stm32n6xx_ll_usb.c ****         if (len_words > (USBx_HOST->HPTXSTS & 0xFFFFU)) /* split the transfer */
2050:STM32Cube_FW_N6/Drivers/STM32N6xx_HAL_Driver/Src/stm32n6xx_ll_usb.c ****         {
2051:STM32Cube_FW_N6/Drivers/STM32N6xx_HAL_Driver/Src/stm32n6xx_ll_usb.c ****           /* need to process data in ptxfempty interrupt */
2052:STM32Cube_FW_N6/Drivers/STM32N6xx_HAL_Driver/Src/stm32n6xx_ll_usb.c ****           USBx->GINTMSK |= USB_OTG_GINTMSK_PTXFEM;
2053:STM32Cube_FW_N6/Drivers/STM32N6xx_HAL_Driver/Src/stm32n6xx_ll_usb.c ****         }
2054:STM32Cube_FW_N6/Drivers/STM32N6xx_HAL_Driver/Src/stm32n6xx_ll_usb.c ****         break;
2055:STM32Cube_FW_N6/Drivers/STM32N6xx_HAL_Driver/Src/stm32n6xx_ll_usb.c **** 
2056:STM32Cube_FW_N6/Drivers/STM32N6xx_HAL_Driver/Src/stm32n6xx_ll_usb.c ****       default:
2057:STM32Cube_FW_N6/Drivers/STM32N6xx_HAL_Driver/Src/stm32n6xx_ll_usb.c ****         break;
2058:STM32Cube_FW_N6/Drivers/STM32N6xx_HAL_Driver/Src/stm32n6xx_ll_usb.c ****     }
2059:STM32Cube_FW_N6/Drivers/STM32N6xx_HAL_Driver/Src/stm32n6xx_ll_usb.c **** 
2060:STM32Cube_FW_N6/Drivers/STM32N6xx_HAL_Driver/Src/stm32n6xx_ll_usb.c ****     /* Write packet into the Tx FIFO. */
2061:STM32Cube_FW_N6/Drivers/STM32N6xx_HAL_Driver/Src/stm32n6xx_ll_usb.c ****     (void)USB_WritePacket(USBx, hc->xfer_buff, hc->ch_num, (uint16_t)hc->xfer_len, 0);
2062:STM32Cube_FW_N6/Drivers/STM32N6xx_HAL_Driver/Src/stm32n6xx_ll_usb.c ****   }
2063:STM32Cube_FW_N6/Drivers/STM32N6xx_HAL_Driver/Src/stm32n6xx_ll_usb.c **** 
2064:STM32Cube_FW_N6/Drivers/STM32N6xx_HAL_Driver/Src/stm32n6xx_ll_usb.c ****   return HAL_OK;
2065:STM32Cube_FW_N6/Drivers/STM32N6xx_HAL_Driver/Src/stm32n6xx_ll_usb.c **** }
2066:STM32Cube_FW_N6/Drivers/STM32N6xx_HAL_Driver/Src/stm32n6xx_ll_usb.c **** 
2067:STM32Cube_FW_N6/Drivers/STM32N6xx_HAL_Driver/Src/stm32n6xx_ll_usb.c **** /**
2068:STM32Cube_FW_N6/Drivers/STM32N6xx_HAL_Driver/Src/stm32n6xx_ll_usb.c ****   * @brief Read all host channel interrupts status
2069:STM32Cube_FW_N6/Drivers/STM32N6xx_HAL_Driver/Src/stm32n6xx_ll_usb.c ****   * @param  USBx  Selected device
2070:STM32Cube_FW_N6/Drivers/STM32N6xx_HAL_Driver/Src/stm32n6xx_ll_usb.c ****   * @retval HAL state
2071:STM32Cube_FW_N6/Drivers/STM32N6xx_HAL_Driver/Src/stm32n6xx_ll_usb.c ****   */
2072:STM32Cube_FW_N6/Drivers/STM32N6xx_HAL_Driver/Src/stm32n6xx_ll_usb.c **** uint32_t USB_HC_ReadInterrupt(const USB_OTG_GlobalTypeDef *USBx)
2073:STM32Cube_FW_N6/Drivers/STM32N6xx_HAL_Driver/Src/stm32n6xx_ll_usb.c **** {
2074:STM32Cube_FW_N6/Drivers/STM32N6xx_HAL_Driver/Src/stm32n6xx_ll_usb.c ****   uint32_t USBx_BASE = (uint32_t)USBx;
2075:STM32Cube_FW_N6/Drivers/STM32N6xx_HAL_Driver/Src/stm32n6xx_ll_usb.c **** 
2076:STM32Cube_FW_N6/Drivers/STM32N6xx_HAL_Driver/Src/stm32n6xx_ll_usb.c ****   return ((USBx_HOST->HAINT) & 0xFFFFU);
2077:STM32Cube_FW_N6/Drivers/STM32N6xx_HAL_Driver/Src/stm32n6xx_ll_usb.c **** }
2078:STM32Cube_FW_N6/Drivers/STM32N6xx_HAL_Driver/Src/stm32n6xx_ll_usb.c **** 
2079:STM32Cube_FW_N6/Drivers/STM32N6xx_HAL_Driver/Src/stm32n6xx_ll_usb.c **** /**
2080:STM32Cube_FW_N6/Drivers/STM32N6xx_HAL_Driver/Src/stm32n6xx_ll_usb.c ****   * @brief  Halt a host channel
2081:STM32Cube_FW_N6/Drivers/STM32N6xx_HAL_Driver/Src/stm32n6xx_ll_usb.c ****   * @param  USBx  Selected device
2082:STM32Cube_FW_N6/Drivers/STM32N6xx_HAL_Driver/Src/stm32n6xx_ll_usb.c ****   * @param  hc_num  Host Channel number
2083:STM32Cube_FW_N6/Drivers/STM32N6xx_HAL_Driver/Src/stm32n6xx_ll_usb.c ****   *         This parameter can be a value from 1 to 15
2084:STM32Cube_FW_N6/Drivers/STM32N6xx_HAL_Driver/Src/stm32n6xx_ll_usb.c ****   * @retval HAL state
2085:STM32Cube_FW_N6/Drivers/STM32N6xx_HAL_Driver/Src/stm32n6xx_ll_usb.c ****   */
2086:STM32Cube_FW_N6/Drivers/STM32N6xx_HAL_Driver/Src/stm32n6xx_ll_usb.c **** HAL_StatusTypeDef USB_HC_Halt(const USB_OTG_GlobalTypeDef *USBx, uint8_t hc_num)
ARM GAS  C:\Users\DJESSOU\AppData\Local\Temp\ccOpSjVg.s 			page 125


2087:STM32Cube_FW_N6/Drivers/STM32N6xx_HAL_Driver/Src/stm32n6xx_ll_usb.c **** {
2088:STM32Cube_FW_N6/Drivers/STM32N6xx_HAL_Driver/Src/stm32n6xx_ll_usb.c ****   uint32_t USBx_BASE = (uint32_t)USBx;
2089:STM32Cube_FW_N6/Drivers/STM32N6xx_HAL_Driver/Src/stm32n6xx_ll_usb.c ****   uint32_t hcnum = (uint32_t)hc_num;
2090:STM32Cube_FW_N6/Drivers/STM32N6xx_HAL_Driver/Src/stm32n6xx_ll_usb.c ****   __IO uint32_t count = 0U;
2091:STM32Cube_FW_N6/Drivers/STM32N6xx_HAL_Driver/Src/stm32n6xx_ll_usb.c ****   uint32_t HcEpType = (USBx_HC(hcnum)->HCCHAR & USB_OTG_HCCHAR_EPTYP) >> 18;
2092:STM32Cube_FW_N6/Drivers/STM32N6xx_HAL_Driver/Src/stm32n6xx_ll_usb.c ****   uint32_t ChannelEna = (USBx_HC(hcnum)->HCCHAR & USB_OTG_HCCHAR_CHENA) >> 31;
2093:STM32Cube_FW_N6/Drivers/STM32N6xx_HAL_Driver/Src/stm32n6xx_ll_usb.c ****   uint32_t SplitEna = (USBx_HC(hcnum)->HCSPLT & USB_OTG_HCSPLT_SPLITEN) >> 31;
2094:STM32Cube_FW_N6/Drivers/STM32N6xx_HAL_Driver/Src/stm32n6xx_ll_usb.c **** 
2095:STM32Cube_FW_N6/Drivers/STM32N6xx_HAL_Driver/Src/stm32n6xx_ll_usb.c ****   /* In buffer DMA, Channel disable must not be programmed for non-split periodic channels.
2096:STM32Cube_FW_N6/Drivers/STM32N6xx_HAL_Driver/Src/stm32n6xx_ll_usb.c ****      At the end of the next uframe/frame (in the worst case), the core generates a channel halted
2097:STM32Cube_FW_N6/Drivers/STM32N6xx_HAL_Driver/Src/stm32n6xx_ll_usb.c ****      and disables the channel automatically. */
2098:STM32Cube_FW_N6/Drivers/STM32N6xx_HAL_Driver/Src/stm32n6xx_ll_usb.c **** 
2099:STM32Cube_FW_N6/Drivers/STM32N6xx_HAL_Driver/Src/stm32n6xx_ll_usb.c ****   if ((((USBx->GAHBCFG & USB_OTG_GAHBCFG_DMAEN) == USB_OTG_GAHBCFG_DMAEN) && (SplitEna == 0U)) &&
2100:STM32Cube_FW_N6/Drivers/STM32N6xx_HAL_Driver/Src/stm32n6xx_ll_usb.c ****       ((ChannelEna == 0U) || (((HcEpType == HCCHAR_ISOC) || (HcEpType == HCCHAR_INTR)))))
2101:STM32Cube_FW_N6/Drivers/STM32N6xx_HAL_Driver/Src/stm32n6xx_ll_usb.c ****   {
2102:STM32Cube_FW_N6/Drivers/STM32N6xx_HAL_Driver/Src/stm32n6xx_ll_usb.c ****     return HAL_OK;
2103:STM32Cube_FW_N6/Drivers/STM32N6xx_HAL_Driver/Src/stm32n6xx_ll_usb.c ****   }
2104:STM32Cube_FW_N6/Drivers/STM32N6xx_HAL_Driver/Src/stm32n6xx_ll_usb.c **** 
2105:STM32Cube_FW_N6/Drivers/STM32N6xx_HAL_Driver/Src/stm32n6xx_ll_usb.c ****   /* Check for space in the request queue to issue the halt. */
2106:STM32Cube_FW_N6/Drivers/STM32N6xx_HAL_Driver/Src/stm32n6xx_ll_usb.c ****   if ((HcEpType == HCCHAR_CTRL) || (HcEpType == HCCHAR_BULK))
2107:STM32Cube_FW_N6/Drivers/STM32N6xx_HAL_Driver/Src/stm32n6xx_ll_usb.c ****   {
2108:STM32Cube_FW_N6/Drivers/STM32N6xx_HAL_Driver/Src/stm32n6xx_ll_usb.c ****     USBx_HC(hcnum)->HCCHAR |= USB_OTG_HCCHAR_CHDIS;
2109:STM32Cube_FW_N6/Drivers/STM32N6xx_HAL_Driver/Src/stm32n6xx_ll_usb.c **** 
2110:STM32Cube_FW_N6/Drivers/STM32N6xx_HAL_Driver/Src/stm32n6xx_ll_usb.c ****     if ((USBx->GAHBCFG & USB_OTG_GAHBCFG_DMAEN) == 0U)
2111:STM32Cube_FW_N6/Drivers/STM32N6xx_HAL_Driver/Src/stm32n6xx_ll_usb.c ****     {
2112:STM32Cube_FW_N6/Drivers/STM32N6xx_HAL_Driver/Src/stm32n6xx_ll_usb.c ****       if ((USBx->HNPTXSTS & (0xFFUL << 16)) == 0U)
2113:STM32Cube_FW_N6/Drivers/STM32N6xx_HAL_Driver/Src/stm32n6xx_ll_usb.c ****       {
2114:STM32Cube_FW_N6/Drivers/STM32N6xx_HAL_Driver/Src/stm32n6xx_ll_usb.c ****         USBx_HC(hcnum)->HCCHAR &= ~USB_OTG_HCCHAR_CHENA;
2115:STM32Cube_FW_N6/Drivers/STM32N6xx_HAL_Driver/Src/stm32n6xx_ll_usb.c ****         USBx_HC(hcnum)->HCCHAR |= USB_OTG_HCCHAR_CHENA;
2116:STM32Cube_FW_N6/Drivers/STM32N6xx_HAL_Driver/Src/stm32n6xx_ll_usb.c ****         do
2117:STM32Cube_FW_N6/Drivers/STM32N6xx_HAL_Driver/Src/stm32n6xx_ll_usb.c ****         {
2118:STM32Cube_FW_N6/Drivers/STM32N6xx_HAL_Driver/Src/stm32n6xx_ll_usb.c ****           count++;
2119:STM32Cube_FW_N6/Drivers/STM32N6xx_HAL_Driver/Src/stm32n6xx_ll_usb.c **** 
2120:STM32Cube_FW_N6/Drivers/STM32N6xx_HAL_Driver/Src/stm32n6xx_ll_usb.c ****           if (count > 1000U)
2121:STM32Cube_FW_N6/Drivers/STM32N6xx_HAL_Driver/Src/stm32n6xx_ll_usb.c ****           {
2122:STM32Cube_FW_N6/Drivers/STM32N6xx_HAL_Driver/Src/stm32n6xx_ll_usb.c ****             break;
2123:STM32Cube_FW_N6/Drivers/STM32N6xx_HAL_Driver/Src/stm32n6xx_ll_usb.c ****           }
2124:STM32Cube_FW_N6/Drivers/STM32N6xx_HAL_Driver/Src/stm32n6xx_ll_usb.c ****         } while ((USBx_HC(hcnum)->HCCHAR & USB_OTG_HCCHAR_CHENA) == USB_OTG_HCCHAR_CHENA);
2125:STM32Cube_FW_N6/Drivers/STM32N6xx_HAL_Driver/Src/stm32n6xx_ll_usb.c ****       }
2126:STM32Cube_FW_N6/Drivers/STM32N6xx_HAL_Driver/Src/stm32n6xx_ll_usb.c ****       else
2127:STM32Cube_FW_N6/Drivers/STM32N6xx_HAL_Driver/Src/stm32n6xx_ll_usb.c ****       {
2128:STM32Cube_FW_N6/Drivers/STM32N6xx_HAL_Driver/Src/stm32n6xx_ll_usb.c ****         USBx_HC(hcnum)->HCCHAR |= USB_OTG_HCCHAR_CHENA;
2129:STM32Cube_FW_N6/Drivers/STM32N6xx_HAL_Driver/Src/stm32n6xx_ll_usb.c ****       }
2130:STM32Cube_FW_N6/Drivers/STM32N6xx_HAL_Driver/Src/stm32n6xx_ll_usb.c ****     }
2131:STM32Cube_FW_N6/Drivers/STM32N6xx_HAL_Driver/Src/stm32n6xx_ll_usb.c ****     else
2132:STM32Cube_FW_N6/Drivers/STM32N6xx_HAL_Driver/Src/stm32n6xx_ll_usb.c ****     {
2133:STM32Cube_FW_N6/Drivers/STM32N6xx_HAL_Driver/Src/stm32n6xx_ll_usb.c ****       USBx_HC(hcnum)->HCCHAR |= USB_OTG_HCCHAR_CHENA;
2134:STM32Cube_FW_N6/Drivers/STM32N6xx_HAL_Driver/Src/stm32n6xx_ll_usb.c ****     }
2135:STM32Cube_FW_N6/Drivers/STM32N6xx_HAL_Driver/Src/stm32n6xx_ll_usb.c ****   }
2136:STM32Cube_FW_N6/Drivers/STM32N6xx_HAL_Driver/Src/stm32n6xx_ll_usb.c ****   else
2137:STM32Cube_FW_N6/Drivers/STM32N6xx_HAL_Driver/Src/stm32n6xx_ll_usb.c ****   {
2138:STM32Cube_FW_N6/Drivers/STM32N6xx_HAL_Driver/Src/stm32n6xx_ll_usb.c ****     USBx_HC(hcnum)->HCCHAR |= USB_OTG_HCCHAR_CHDIS;
2139:STM32Cube_FW_N6/Drivers/STM32N6xx_HAL_Driver/Src/stm32n6xx_ll_usb.c **** 
2140:STM32Cube_FW_N6/Drivers/STM32N6xx_HAL_Driver/Src/stm32n6xx_ll_usb.c ****     if ((USBx_HOST->HPTXSTS & (0xFFUL << 16)) == 0U)
2141:STM32Cube_FW_N6/Drivers/STM32N6xx_HAL_Driver/Src/stm32n6xx_ll_usb.c ****     {
2142:STM32Cube_FW_N6/Drivers/STM32N6xx_HAL_Driver/Src/stm32n6xx_ll_usb.c ****       USBx_HC(hcnum)->HCCHAR &= ~USB_OTG_HCCHAR_CHENA;
2143:STM32Cube_FW_N6/Drivers/STM32N6xx_HAL_Driver/Src/stm32n6xx_ll_usb.c ****       USBx_HC(hcnum)->HCCHAR |= USB_OTG_HCCHAR_CHENA;
ARM GAS  C:\Users\DJESSOU\AppData\Local\Temp\ccOpSjVg.s 			page 126


2144:STM32Cube_FW_N6/Drivers/STM32N6xx_HAL_Driver/Src/stm32n6xx_ll_usb.c ****       do
2145:STM32Cube_FW_N6/Drivers/STM32N6xx_HAL_Driver/Src/stm32n6xx_ll_usb.c ****       {
2146:STM32Cube_FW_N6/Drivers/STM32N6xx_HAL_Driver/Src/stm32n6xx_ll_usb.c ****         count++;
2147:STM32Cube_FW_N6/Drivers/STM32N6xx_HAL_Driver/Src/stm32n6xx_ll_usb.c **** 
2148:STM32Cube_FW_N6/Drivers/STM32N6xx_HAL_Driver/Src/stm32n6xx_ll_usb.c ****         if (count > 1000U)
2149:STM32Cube_FW_N6/Drivers/STM32N6xx_HAL_Driver/Src/stm32n6xx_ll_usb.c ****         {
2150:STM32Cube_FW_N6/Drivers/STM32N6xx_HAL_Driver/Src/stm32n6xx_ll_usb.c ****           break;
2151:STM32Cube_FW_N6/Drivers/STM32N6xx_HAL_Driver/Src/stm32n6xx_ll_usb.c ****         }
2152:STM32Cube_FW_N6/Drivers/STM32N6xx_HAL_Driver/Src/stm32n6xx_ll_usb.c ****       } while ((USBx_HC(hcnum)->HCCHAR & USB_OTG_HCCHAR_CHENA) == USB_OTG_HCCHAR_CHENA);
2153:STM32Cube_FW_N6/Drivers/STM32N6xx_HAL_Driver/Src/stm32n6xx_ll_usb.c ****     }
2154:STM32Cube_FW_N6/Drivers/STM32N6xx_HAL_Driver/Src/stm32n6xx_ll_usb.c ****     else
2155:STM32Cube_FW_N6/Drivers/STM32N6xx_HAL_Driver/Src/stm32n6xx_ll_usb.c ****     {
2156:STM32Cube_FW_N6/Drivers/STM32N6xx_HAL_Driver/Src/stm32n6xx_ll_usb.c ****       USBx_HC(hcnum)->HCCHAR |= USB_OTG_HCCHAR_CHENA;
2157:STM32Cube_FW_N6/Drivers/STM32N6xx_HAL_Driver/Src/stm32n6xx_ll_usb.c ****     }
2158:STM32Cube_FW_N6/Drivers/STM32N6xx_HAL_Driver/Src/stm32n6xx_ll_usb.c ****   }
2159:STM32Cube_FW_N6/Drivers/STM32N6xx_HAL_Driver/Src/stm32n6xx_ll_usb.c **** 
2160:STM32Cube_FW_N6/Drivers/STM32N6xx_HAL_Driver/Src/stm32n6xx_ll_usb.c ****   return HAL_OK;
2161:STM32Cube_FW_N6/Drivers/STM32N6xx_HAL_Driver/Src/stm32n6xx_ll_usb.c **** }
2162:STM32Cube_FW_N6/Drivers/STM32N6xx_HAL_Driver/Src/stm32n6xx_ll_usb.c **** 
2163:STM32Cube_FW_N6/Drivers/STM32N6xx_HAL_Driver/Src/stm32n6xx_ll_usb.c **** /**
2164:STM32Cube_FW_N6/Drivers/STM32N6xx_HAL_Driver/Src/stm32n6xx_ll_usb.c ****   * @brief  Activate a host channel
2165:STM32Cube_FW_N6/Drivers/STM32N6xx_HAL_Driver/Src/stm32n6xx_ll_usb.c ****   * @param  USBx  Selected device
2166:STM32Cube_FW_N6/Drivers/STM32N6xx_HAL_Driver/Src/stm32n6xx_ll_usb.c ****   * @param  ch_num  Host Channel number
2167:STM32Cube_FW_N6/Drivers/STM32N6xx_HAL_Driver/Src/stm32n6xx_ll_usb.c ****   *         This parameter can be a value from 1 to 15
2168:STM32Cube_FW_N6/Drivers/STM32N6xx_HAL_Driver/Src/stm32n6xx_ll_usb.c ****   * @param  ch_dir Host Channel direction
2169:STM32Cube_FW_N6/Drivers/STM32N6xx_HAL_Driver/Src/stm32n6xx_ll_usb.c ****   * @retval HAL state
2170:STM32Cube_FW_N6/Drivers/STM32N6xx_HAL_Driver/Src/stm32n6xx_ll_usb.c ****   */
2171:STM32Cube_FW_N6/Drivers/STM32N6xx_HAL_Driver/Src/stm32n6xx_ll_usb.c **** HAL_StatusTypeDef USB_HC_Activate(const USB_OTG_GlobalTypeDef *USBx, uint8_t ch_num, uint8_t ch_dir
2172:STM32Cube_FW_N6/Drivers/STM32N6xx_HAL_Driver/Src/stm32n6xx_ll_usb.c **** {
2173:STM32Cube_FW_N6/Drivers/STM32N6xx_HAL_Driver/Src/stm32n6xx_ll_usb.c ****   UNUSED(ch_dir);
2174:STM32Cube_FW_N6/Drivers/STM32N6xx_HAL_Driver/Src/stm32n6xx_ll_usb.c **** 
2175:STM32Cube_FW_N6/Drivers/STM32N6xx_HAL_Driver/Src/stm32n6xx_ll_usb.c ****   __IO uint32_t tmpreg;
2176:STM32Cube_FW_N6/Drivers/STM32N6xx_HAL_Driver/Src/stm32n6xx_ll_usb.c ****   uint32_t USBx_BASE = (uint32_t)USBx;
2177:STM32Cube_FW_N6/Drivers/STM32N6xx_HAL_Driver/Src/stm32n6xx_ll_usb.c **** 
2178:STM32Cube_FW_N6/Drivers/STM32N6xx_HAL_Driver/Src/stm32n6xx_ll_usb.c ****   /* activate the channel */
2179:STM32Cube_FW_N6/Drivers/STM32N6xx_HAL_Driver/Src/stm32n6xx_ll_usb.c ****   tmpreg = USBx_HC(ch_num)->HCCHAR;
2180:STM32Cube_FW_N6/Drivers/STM32N6xx_HAL_Driver/Src/stm32n6xx_ll_usb.c **** 
2181:STM32Cube_FW_N6/Drivers/STM32N6xx_HAL_Driver/Src/stm32n6xx_ll_usb.c ****   if ((tmpreg & USB_OTG_HCCHAR_CHDIS) == 0U)
2182:STM32Cube_FW_N6/Drivers/STM32N6xx_HAL_Driver/Src/stm32n6xx_ll_usb.c ****   {
2183:STM32Cube_FW_N6/Drivers/STM32N6xx_HAL_Driver/Src/stm32n6xx_ll_usb.c ****     tmpreg |= USB_OTG_HCCHAR_CHENA;
2184:STM32Cube_FW_N6/Drivers/STM32N6xx_HAL_Driver/Src/stm32n6xx_ll_usb.c ****     USBx_HC(ch_num)->HCCHAR = tmpreg;
2185:STM32Cube_FW_N6/Drivers/STM32N6xx_HAL_Driver/Src/stm32n6xx_ll_usb.c ****   }
2186:STM32Cube_FW_N6/Drivers/STM32N6xx_HAL_Driver/Src/stm32n6xx_ll_usb.c **** 
2187:STM32Cube_FW_N6/Drivers/STM32N6xx_HAL_Driver/Src/stm32n6xx_ll_usb.c ****   return HAL_OK;
2188:STM32Cube_FW_N6/Drivers/STM32N6xx_HAL_Driver/Src/stm32n6xx_ll_usb.c **** }
2189:STM32Cube_FW_N6/Drivers/STM32N6xx_HAL_Driver/Src/stm32n6xx_ll_usb.c **** #endif /* defined (HAL_HCD_MODULE_ENABLED) */
2190:STM32Cube_FW_N6/Drivers/STM32N6xx_HAL_Driver/Src/stm32n6xx_ll_usb.c **** 
2191:STM32Cube_FW_N6/Drivers/STM32N6xx_HAL_Driver/Src/stm32n6xx_ll_usb.c **** /**
2192:STM32Cube_FW_N6/Drivers/STM32N6xx_HAL_Driver/Src/stm32n6xx_ll_usb.c ****   * @brief  Initiate Do Ping protocol
2193:STM32Cube_FW_N6/Drivers/STM32N6xx_HAL_Driver/Src/stm32n6xx_ll_usb.c ****   * @param  USBx  Selected device
2194:STM32Cube_FW_N6/Drivers/STM32N6xx_HAL_Driver/Src/stm32n6xx_ll_usb.c ****   * @param  hc_num  Host Channel number
2195:STM32Cube_FW_N6/Drivers/STM32N6xx_HAL_Driver/Src/stm32n6xx_ll_usb.c ****   *         This parameter can be a value from 1 to 15
2196:STM32Cube_FW_N6/Drivers/STM32N6xx_HAL_Driver/Src/stm32n6xx_ll_usb.c ****   * @retval HAL state
2197:STM32Cube_FW_N6/Drivers/STM32N6xx_HAL_Driver/Src/stm32n6xx_ll_usb.c ****   */
2198:STM32Cube_FW_N6/Drivers/STM32N6xx_HAL_Driver/Src/stm32n6xx_ll_usb.c **** HAL_StatusTypeDef USB_DoPing(const USB_OTG_GlobalTypeDef *USBx, uint8_t ch_num)
2199:STM32Cube_FW_N6/Drivers/STM32N6xx_HAL_Driver/Src/stm32n6xx_ll_usb.c **** {
 3864              		.loc 1 2199 1 is_stmt 1 view -0
ARM GAS  C:\Users\DJESSOU\AppData\Local\Temp\ccOpSjVg.s 			page 127


 3865              		.cfi_startproc
 3866              		@ args = 0, pretend = 0, frame = 0
 3867              		@ frame_needed = 0, uses_anonymous_args = 0
 3868              		@ link register save eliminated.
2200:STM32Cube_FW_N6/Drivers/STM32N6xx_HAL_Driver/Src/stm32n6xx_ll_usb.c ****   uint32_t USBx_BASE = (uint32_t)USBx;
 3869              		.loc 1 2200 3 view .LVU1376
2201:STM32Cube_FW_N6/Drivers/STM32N6xx_HAL_Driver/Src/stm32n6xx_ll_usb.c ****   uint32_t chnum = (uint32_t)ch_num;
 3870              		.loc 1 2201 3 view .LVU1377
2202:STM32Cube_FW_N6/Drivers/STM32N6xx_HAL_Driver/Src/stm32n6xx_ll_usb.c ****   uint32_t num_packets = 1U;
 3871              		.loc 1 2202 3 view .LVU1378
2203:STM32Cube_FW_N6/Drivers/STM32N6xx_HAL_Driver/Src/stm32n6xx_ll_usb.c ****   uint32_t tmpreg;
 3872              		.loc 1 2203 3 view .LVU1379
2204:STM32Cube_FW_N6/Drivers/STM32N6xx_HAL_Driver/Src/stm32n6xx_ll_usb.c **** 
2205:STM32Cube_FW_N6/Drivers/STM32N6xx_HAL_Driver/Src/stm32n6xx_ll_usb.c ****   USBx_HC(chnum)->HCTSIZ = ((num_packets << 19) & USB_OTG_HCTSIZ_PKTCNT) |
 3873              		.loc 1 2205 3 view .LVU1380
 3874              		.loc 1 2205 26 is_stmt 0 view .LVU1381
 3875 0000 074A     		ldr	r2, .L267
 3876              		.loc 1 2205 3 view .LVU1382
 3877 0002 00EB4110 		add	r0, r0, r1, lsl #5
 3878              	.LVL258:
 3879              		.loc 1 2205 26 view .LVU1383
 3880 0006 C0F81025 		str	r2, [r0, #1296]
2206:STM32Cube_FW_N6/Drivers/STM32N6xx_HAL_Driver/Src/stm32n6xx_ll_usb.c ****                            USB_OTG_HCTSIZ_DOPING;
2207:STM32Cube_FW_N6/Drivers/STM32N6xx_HAL_Driver/Src/stm32n6xx_ll_usb.c **** 
2208:STM32Cube_FW_N6/Drivers/STM32N6xx_HAL_Driver/Src/stm32n6xx_ll_usb.c ****   /* Set host channel enable */
2209:STM32Cube_FW_N6/Drivers/STM32N6xx_HAL_Driver/Src/stm32n6xx_ll_usb.c ****   tmpreg = USBx_HC(chnum)->HCCHAR;
 3881              		.loc 1 2209 3 is_stmt 1 view .LVU1384
 3882              		.loc 1 2209 10 is_stmt 0 view .LVU1385
 3883 000a D0F80035 		ldr	r3, [r0, #1280]
 3884              	.LVL259:
2210:STM32Cube_FW_N6/Drivers/STM32N6xx_HAL_Driver/Src/stm32n6xx_ll_usb.c ****   tmpreg &= ~USB_OTG_HCCHAR_CHDIS;
 3885              		.loc 1 2210 3 is_stmt 1 view .LVU1386
 3886              		.loc 1 2210 10 is_stmt 0 view .LVU1387
 3887 000e 23F08043 		bic	r3, r3, #1073741824
 3888              	.LVL260:
2211:STM32Cube_FW_N6/Drivers/STM32N6xx_HAL_Driver/Src/stm32n6xx_ll_usb.c ****   tmpreg |= USB_OTG_HCCHAR_CHENA;
 3889              		.loc 1 2211 3 is_stmt 1 view .LVU1388
 3890              		.loc 1 2211 10 is_stmt 0 view .LVU1389
 3891 0012 43F00043 		orr	r3, r3, #-2147483648
 3892              	.LVL261:
2212:STM32Cube_FW_N6/Drivers/STM32N6xx_HAL_Driver/Src/stm32n6xx_ll_usb.c ****   USBx_HC(chnum)->HCCHAR = tmpreg;
 3893              		.loc 1 2212 3 is_stmt 1 view .LVU1390
 3894              		.loc 1 2212 26 is_stmt 0 view .LVU1391
 3895 0016 C0F80035 		str	r3, [r0, #1280]
2213:STM32Cube_FW_N6/Drivers/STM32N6xx_HAL_Driver/Src/stm32n6xx_ll_usb.c **** 
2214:STM32Cube_FW_N6/Drivers/STM32N6xx_HAL_Driver/Src/stm32n6xx_ll_usb.c ****   return HAL_OK;
 3896              		.loc 1 2214 3 is_stmt 1 view .LVU1392
2215:STM32Cube_FW_N6/Drivers/STM32N6xx_HAL_Driver/Src/stm32n6xx_ll_usb.c **** }
 3897              		.loc 1 2215 1 is_stmt 0 view .LVU1393
 3898 001a 0020     		movs	r0, #0
 3899 001c 7047     		bx	lr
 3900              	.L268:
 3901 001e 00BF     		.align	2
 3902              	.L267:
 3903 0020 00000880 		.word	-2146959360
 3904              		.cfi_endproc
 3905              	.LFE903:
ARM GAS  C:\Users\DJESSOU\AppData\Local\Temp\ccOpSjVg.s 			page 128


 3907              		.section	.text.USB_StopHost,"ax",%progbits
 3908              		.align	1
 3909              		.global	USB_StopHost
 3910              		.syntax unified
 3911              		.thumb
 3912              		.thumb_func
 3914              	USB_StopHost:
 3915              	.LVL262:
 3916              	.LFB904:
2216:STM32Cube_FW_N6/Drivers/STM32N6xx_HAL_Driver/Src/stm32n6xx_ll_usb.c **** 
2217:STM32Cube_FW_N6/Drivers/STM32N6xx_HAL_Driver/Src/stm32n6xx_ll_usb.c **** /**
2218:STM32Cube_FW_N6/Drivers/STM32N6xx_HAL_Driver/Src/stm32n6xx_ll_usb.c ****   * @brief  Stop Host Core
2219:STM32Cube_FW_N6/Drivers/STM32N6xx_HAL_Driver/Src/stm32n6xx_ll_usb.c ****   * @param  USBx  Selected device
2220:STM32Cube_FW_N6/Drivers/STM32N6xx_HAL_Driver/Src/stm32n6xx_ll_usb.c ****   * @retval HAL state
2221:STM32Cube_FW_N6/Drivers/STM32N6xx_HAL_Driver/Src/stm32n6xx_ll_usb.c ****   */
2222:STM32Cube_FW_N6/Drivers/STM32N6xx_HAL_Driver/Src/stm32n6xx_ll_usb.c **** HAL_StatusTypeDef USB_StopHost(USB_OTG_GlobalTypeDef *USBx)
2223:STM32Cube_FW_N6/Drivers/STM32N6xx_HAL_Driver/Src/stm32n6xx_ll_usb.c **** {
 3917              		.loc 1 2223 1 is_stmt 1 view -0
 3918              		.cfi_startproc
 3919              		@ args = 0, pretend = 0, frame = 8
 3920              		@ frame_needed = 0, uses_anonymous_args = 0
2224:STM32Cube_FW_N6/Drivers/STM32N6xx_HAL_Driver/Src/stm32n6xx_ll_usb.c ****   HAL_StatusTypeDef ret = HAL_OK;
 3921              		.loc 1 2224 3 view .LVU1395
2225:STM32Cube_FW_N6/Drivers/STM32N6xx_HAL_Driver/Src/stm32n6xx_ll_usb.c ****   uint32_t USBx_BASE = (uint32_t)USBx;
 3922              		.loc 1 2225 3 view .LVU1396
2226:STM32Cube_FW_N6/Drivers/STM32N6xx_HAL_Driver/Src/stm32n6xx_ll_usb.c ****   __IO uint32_t count = 0U;
 3923              		.loc 1 2226 3 view .LVU1397
 3924              		.loc 1 2226 17 is_stmt 0 view .LVU1398
 3925 0000 0023     		movs	r3, #0
2223:STM32Cube_FW_N6/Drivers/STM32N6xx_HAL_Driver/Src/stm32n6xx_ll_usb.c ****   HAL_StatusTypeDef ret = HAL_OK;
 3926              		.loc 1 2223 1 view .LVU1399
 3927 0002 37B5     		push	{r0, r1, r2, r4, r5, lr}
 3928              		.cfi_def_cfa_offset 24
 3929              		.cfi_offset 4, -12
 3930              		.cfi_offset 5, -8
 3931              		.cfi_offset 14, -4
 3932              		.loc 1 2226 17 view .LVU1400
 3933 0004 0193     		str	r3, [sp, #4]
2227:STM32Cube_FW_N6/Drivers/STM32N6xx_HAL_Driver/Src/stm32n6xx_ll_usb.c ****   uint32_t value;
 3934              		.loc 1 2227 3 is_stmt 1 view .LVU1401
2228:STM32Cube_FW_N6/Drivers/STM32N6xx_HAL_Driver/Src/stm32n6xx_ll_usb.c ****   uint32_t i;
 3935              		.loc 1 2228 3 view .LVU1402
2229:STM32Cube_FW_N6/Drivers/STM32N6xx_HAL_Driver/Src/stm32n6xx_ll_usb.c **** 
2230:STM32Cube_FW_N6/Drivers/STM32N6xx_HAL_Driver/Src/stm32n6xx_ll_usb.c ****   (void)USB_DisableGlobalInt(USBx);
 3936              		.loc 1 2230 3 view .LVU1403
 3937              	.LVL263:
 3938              	.LBB24:
 3939              	.LBI24:
 217:STM32Cube_FW_N6/Drivers/STM32N6xx_HAL_Driver/Src/stm32n6xx_ll_usb.c **** {
 3940              		.loc 1 217 19 view .LVU1404
 3941              	.LBB25:
 219:STM32Cube_FW_N6/Drivers/STM32N6xx_HAL_Driver/Src/stm32n6xx_ll_usb.c ****   return HAL_OK;
 3942              		.loc 1 219 3 view .LVU1405
 219:STM32Cube_FW_N6/Drivers/STM32N6xx_HAL_Driver/Src/stm32n6xx_ll_usb.c ****   return HAL_OK;
 3943              		.loc 1 219 7 is_stmt 0 view .LVU1406
 3944 0006 8368     		ldr	r3, [r0, #8]
 3945              	.LBE25:
ARM GAS  C:\Users\DJESSOU\AppData\Local\Temp\ccOpSjVg.s 			page 129


 3946              	.LBE24:
2231:STM32Cube_FW_N6/Drivers/STM32N6xx_HAL_Driver/Src/stm32n6xx_ll_usb.c **** 
2232:STM32Cube_FW_N6/Drivers/STM32N6xx_HAL_Driver/Src/stm32n6xx_ll_usb.c ****   /* Flush USB FIFO */
2233:STM32Cube_FW_N6/Drivers/STM32N6xx_HAL_Driver/Src/stm32n6xx_ll_usb.c ****   if (USB_FlushTxFifo(USBx, 0x10U) != HAL_OK) /* all Tx FIFOs */
 3947              		.loc 1 2233 7 view .LVU1407
 3948 0008 1021     		movs	r1, #16
 3949              	.LBB27:
 3950              	.LBB26:
 219:STM32Cube_FW_N6/Drivers/STM32N6xx_HAL_Driver/Src/stm32n6xx_ll_usb.c ****   return HAL_OK;
 3951              		.loc 1 219 17 view .LVU1408
 3952 000a 23F00103 		bic	r3, r3, #1
 3953 000e 8360     		str	r3, [r0, #8]
 220:STM32Cube_FW_N6/Drivers/STM32N6xx_HAL_Driver/Src/stm32n6xx_ll_usb.c **** }
 3954              		.loc 1 220 3 is_stmt 1 view .LVU1409
 3955              	.LVL264:
 220:STM32Cube_FW_N6/Drivers/STM32N6xx_HAL_Driver/Src/stm32n6xx_ll_usb.c **** }
 3956              		.loc 1 220 3 is_stmt 0 view .LVU1410
 3957              	.LBE26:
 3958              	.LBE27:
 3959              		.loc 1 2233 3 is_stmt 1 view .LVU1411
2223:STM32Cube_FW_N6/Drivers/STM32N6xx_HAL_Driver/Src/stm32n6xx_ll_usb.c ****   HAL_StatusTypeDef ret = HAL_OK;
 3960              		.loc 1 2223 1 is_stmt 0 view .LVU1412
 3961 0010 0446     		mov	r4, r0
 3962              		.loc 1 2233 7 view .LVU1413
 3963 0012 FFF7FEFF 		bl	USB_FlushTxFifo
 3964              	.LVL265:
 3965              		.loc 1 2233 7 view .LVU1414
 3966 0016 0146     		mov	r1, r0
 3967              	.LVL266:
2234:STM32Cube_FW_N6/Drivers/STM32N6xx_HAL_Driver/Src/stm32n6xx_ll_usb.c ****   {
2235:STM32Cube_FW_N6/Drivers/STM32N6xx_HAL_Driver/Src/stm32n6xx_ll_usb.c ****     ret = HAL_ERROR;
2236:STM32Cube_FW_N6/Drivers/STM32N6xx_HAL_Driver/Src/stm32n6xx_ll_usb.c ****   }
2237:STM32Cube_FW_N6/Drivers/STM32N6xx_HAL_Driver/Src/stm32n6xx_ll_usb.c **** 
2238:STM32Cube_FW_N6/Drivers/STM32N6xx_HAL_Driver/Src/stm32n6xx_ll_usb.c ****   if (USB_FlushRxFifo(USBx) != HAL_OK)
 3968              		.loc 1 2238 3 is_stmt 1 view .LVU1415
 3969              		.loc 1 2238 7 is_stmt 0 view .LVU1416
 3970 0018 2046     		mov	r0, r4
 3971 001a FFF7FEFF 		bl	USB_FlushRxFifo
 3972              	.LVL267:
 3973              		.loc 1 2238 6 discriminator 1 view .LVU1417
 3974 001e 4FF0100E 		mov	lr, #16
 3975 0022 0843     		orrs	r0, r0, r1
 3976 0024 C0B2     		uxtb	r0, r0
 3977 0026 0038     		subs	r0, r0, #0
 3978 0028 04F5A063 		add	r3, r4, #1280
 3979 002c 18BF     		it	ne
 3980 002e 0120     		movne	r0, #1
 3981              	.LVL268:
2239:STM32Cube_FW_N6/Drivers/STM32N6xx_HAL_Driver/Src/stm32n6xx_ll_usb.c ****   {
2240:STM32Cube_FW_N6/Drivers/STM32N6xx_HAL_Driver/Src/stm32n6xx_ll_usb.c ****     ret = HAL_ERROR;
2241:STM32Cube_FW_N6/Drivers/STM32N6xx_HAL_Driver/Src/stm32n6xx_ll_usb.c ****   }
2242:STM32Cube_FW_N6/Drivers/STM32N6xx_HAL_Driver/Src/stm32n6xx_ll_usb.c **** 
2243:STM32Cube_FW_N6/Drivers/STM32N6xx_HAL_Driver/Src/stm32n6xx_ll_usb.c ****   /* Flush out any leftover queued requests. */
2244:STM32Cube_FW_N6/Drivers/STM32N6xx_HAL_Driver/Src/stm32n6xx_ll_usb.c ****   for (i = 0U; i <= 15U; i++)
 3982              		.loc 1 2244 3 is_stmt 1 view .LVU1418
 3983              		.loc 1 2244 18 discriminator 1 view .LVU1419
2238:STM32Cube_FW_N6/Drivers/STM32N6xx_HAL_Driver/Src/stm32n6xx_ll_usb.c ****   {
ARM GAS  C:\Users\DJESSOU\AppData\Local\Temp\ccOpSjVg.s 			page 130


 3984              		.loc 1 2238 6 is_stmt 0 discriminator 1 view .LVU1420
 3985 0030 1946     		mov	r1, r3
 3986 0032 4EF001E0 		dls	lr, lr
 3987 0036 04F5E065 		add	r5, r4, #1792
 3988              	.LVL269:
 3989              	.L270:
2245:STM32Cube_FW_N6/Drivers/STM32N6xx_HAL_Driver/Src/stm32n6xx_ll_usb.c ****   {
2246:STM32Cube_FW_N6/Drivers/STM32N6xx_HAL_Driver/Src/stm32n6xx_ll_usb.c ****     value = USBx_HC(i)->HCCHAR;
 3990              		.loc 1 2246 5 is_stmt 1 view .LVU1421
 3991              		.loc 1 2246 11 is_stmt 0 view .LVU1422
 3992 003a 0A68     		ldr	r2, [r1]
 3993              	.LVL270:
2247:STM32Cube_FW_N6/Drivers/STM32N6xx_HAL_Driver/Src/stm32n6xx_ll_usb.c ****     value |=  USB_OTG_HCCHAR_CHDIS;
 3994              		.loc 1 2247 5 is_stmt 1 view .LVU1423
2248:STM32Cube_FW_N6/Drivers/STM32N6xx_HAL_Driver/Src/stm32n6xx_ll_usb.c ****     value &= ~USB_OTG_HCCHAR_CHENA;
 3995              		.loc 1 2248 5 view .LVU1424
2249:STM32Cube_FW_N6/Drivers/STM32N6xx_HAL_Driver/Src/stm32n6xx_ll_usb.c ****     value &= ~USB_OTG_HCCHAR_EPDIR;
 3996              		.loc 1 2249 5 view .LVU1425
 3997 003c 22F08022 		bic	r2, r2, #-2147450880
 3998              	.LVL271:
 3999              		.loc 1 2249 11 is_stmt 0 view .LVU1426
 4000 0040 42F08042 		orr	r2, r2, #1073741824
 4001              	.LVL272:
2250:STM32Cube_FW_N6/Drivers/STM32N6xx_HAL_Driver/Src/stm32n6xx_ll_usb.c ****     USBx_HC(i)->HCCHAR = value;
 4002              		.loc 1 2250 5 is_stmt 1 view .LVU1427
 4003              		.loc 1 2250 24 is_stmt 0 view .LVU1428
 4004 0044 41F8202B 		str	r2, [r1], #32
2244:STM32Cube_FW_N6/Drivers/STM32N6xx_HAL_Driver/Src/stm32n6xx_ll_usb.c ****   {
 4005              		.loc 1 2244 27 is_stmt 1 discriminator 3 view .LVU1429
2244:STM32Cube_FW_N6/Drivers/STM32N6xx_HAL_Driver/Src/stm32n6xx_ll_usb.c ****   {
 4006              		.loc 1 2244 18 discriminator 1 view .LVU1430
 4007 0048 0FF009C8 		le	lr, .L270
 4008              	.LVL273:
 4009              	.L273:
2251:STM32Cube_FW_N6/Drivers/STM32N6xx_HAL_Driver/Src/stm32n6xx_ll_usb.c ****   }
2252:STM32Cube_FW_N6/Drivers/STM32N6xx_HAL_Driver/Src/stm32n6xx_ll_usb.c **** 
2253:STM32Cube_FW_N6/Drivers/STM32N6xx_HAL_Driver/Src/stm32n6xx_ll_usb.c ****   /* Halt all channels to put them into a known state. */
2254:STM32Cube_FW_N6/Drivers/STM32N6xx_HAL_Driver/Src/stm32n6xx_ll_usb.c ****   for (i = 0U; i <= 15U; i++)
2255:STM32Cube_FW_N6/Drivers/STM32N6xx_HAL_Driver/Src/stm32n6xx_ll_usb.c ****   {
2256:STM32Cube_FW_N6/Drivers/STM32N6xx_HAL_Driver/Src/stm32n6xx_ll_usb.c ****     value = USBx_HC(i)->HCCHAR;
 4010              		.loc 1 2256 5 view .LVU1431
 4011              		.loc 1 2256 11 is_stmt 0 view .LVU1432
 4012 004c 1A68     		ldr	r2, [r3]
 4013              	.LVL274:
2257:STM32Cube_FW_N6/Drivers/STM32N6xx_HAL_Driver/Src/stm32n6xx_ll_usb.c ****     value |= USB_OTG_HCCHAR_CHDIS;
 4014              		.loc 1 2257 5 is_stmt 1 view .LVU1433
2258:STM32Cube_FW_N6/Drivers/STM32N6xx_HAL_Driver/Src/stm32n6xx_ll_usb.c ****     value |= USB_OTG_HCCHAR_CHENA;
 4015              		.loc 1 2258 5 view .LVU1434
2259:STM32Cube_FW_N6/Drivers/STM32N6xx_HAL_Driver/Src/stm32n6xx_ll_usb.c ****     value &= ~USB_OTG_HCCHAR_EPDIR;
 4016              		.loc 1 2259 5 view .LVU1435
 4017 004e 22F40042 		bic	r2, r2, #32768
 4018              	.LVL275:
 4019              		.loc 1 2259 11 is_stmt 0 view .LVU1436
 4020 0052 42F04042 		orr	r2, r2, #-1073741824
 4021              	.LVL276:
2260:STM32Cube_FW_N6/Drivers/STM32N6xx_HAL_Driver/Src/stm32n6xx_ll_usb.c ****     USBx_HC(i)->HCCHAR = value;
 4022              		.loc 1 2260 5 is_stmt 1 view .LVU1437
ARM GAS  C:\Users\DJESSOU\AppData\Local\Temp\ccOpSjVg.s 			page 131


 4023              		.loc 1 2260 24 is_stmt 0 view .LVU1438
 4024 0056 1A60     		str	r2, [r3]
 4025              	.LVL277:
 4026              	.L272:
2261:STM32Cube_FW_N6/Drivers/STM32N6xx_HAL_Driver/Src/stm32n6xx_ll_usb.c **** 
2262:STM32Cube_FW_N6/Drivers/STM32N6xx_HAL_Driver/Src/stm32n6xx_ll_usb.c ****     do
 4027              		.loc 1 2262 5 is_stmt 1 view .LVU1439
2263:STM32Cube_FW_N6/Drivers/STM32N6xx_HAL_Driver/Src/stm32n6xx_ll_usb.c ****     {
2264:STM32Cube_FW_N6/Drivers/STM32N6xx_HAL_Driver/Src/stm32n6xx_ll_usb.c ****       count++;
 4028              		.loc 1 2264 7 view .LVU1440
 4029              		.loc 1 2264 12 is_stmt 0 view .LVU1441
 4030 0058 019A     		ldr	r2, [sp, #4]
 4031 005a 0132     		adds	r2, r2, #1
 4032 005c 0192     		str	r2, [sp, #4]
2265:STM32Cube_FW_N6/Drivers/STM32N6xx_HAL_Driver/Src/stm32n6xx_ll_usb.c **** 
2266:STM32Cube_FW_N6/Drivers/STM32N6xx_HAL_Driver/Src/stm32n6xx_ll_usb.c ****       if (count > 1000U)
 4033              		.loc 1 2266 7 is_stmt 1 view .LVU1442
 4034              		.loc 1 2266 17 is_stmt 0 view .LVU1443
 4035 005e 019A     		ldr	r2, [sp, #4]
 4036              		.loc 1 2266 10 view .LVU1444
 4037 0060 B2F57A7F 		cmp	r2, #1000
 4038 0064 02D8     		bhi	.L271
2267:STM32Cube_FW_N6/Drivers/STM32N6xx_HAL_Driver/Src/stm32n6xx_ll_usb.c ****       {
2268:STM32Cube_FW_N6/Drivers/STM32N6xx_HAL_Driver/Src/stm32n6xx_ll_usb.c ****         break;
2269:STM32Cube_FW_N6/Drivers/STM32N6xx_HAL_Driver/Src/stm32n6xx_ll_usb.c ****       }
2270:STM32Cube_FW_N6/Drivers/STM32N6xx_HAL_Driver/Src/stm32n6xx_ll_usb.c ****     } while ((USBx_HC(i)->HCCHAR & USB_OTG_HCCHAR_CHENA) == USB_OTG_HCCHAR_CHENA);
 4039              		.loc 1 2270 58 is_stmt 1 view .LVU1445
 4040              		.loc 1 2270 25 is_stmt 0 view .LVU1446
 4041 0066 1A68     		ldr	r2, [r3]
 4042              		.loc 1 2270 58 view .LVU1447
 4043 0068 002A     		cmp	r2, #0
 4044 006a F5DB     		blt	.L272
 4045              	.L271:
2254:STM32Cube_FW_N6/Drivers/STM32N6xx_HAL_Driver/Src/stm32n6xx_ll_usb.c ****   {
 4046              		.loc 1 2254 27 is_stmt 1 discriminator 2 view .LVU1448
2254:STM32Cube_FW_N6/Drivers/STM32N6xx_HAL_Driver/Src/stm32n6xx_ll_usb.c ****   {
 4047              		.loc 1 2254 18 discriminator 1 view .LVU1449
 4048 006c 2033     		adds	r3, r3, #32
 4049 006e AB42     		cmp	r3, r5
 4050 0070 ECD1     		bne	.L273
2271:STM32Cube_FW_N6/Drivers/STM32N6xx_HAL_Driver/Src/stm32n6xx_ll_usb.c ****   }
2272:STM32Cube_FW_N6/Drivers/STM32N6xx_HAL_Driver/Src/stm32n6xx_ll_usb.c **** 
2273:STM32Cube_FW_N6/Drivers/STM32N6xx_HAL_Driver/Src/stm32n6xx_ll_usb.c ****   /* Clear any pending Host interrupts */
2274:STM32Cube_FW_N6/Drivers/STM32N6xx_HAL_Driver/Src/stm32n6xx_ll_usb.c ****   USBx_HOST->HAINT = CLEAR_INTERRUPT_MASK;
 4051              		.loc 1 2274 3 view .LVU1450
 4052              		.loc 1 2274 20 is_stmt 0 view .LVU1451
 4053 0072 4FF0FF33 		mov	r3, #-1
 4054 0076 C4F81434 		str	r3, [r4, #1044]
2275:STM32Cube_FW_N6/Drivers/STM32N6xx_HAL_Driver/Src/stm32n6xx_ll_usb.c ****   USBx->GINTSTS = CLEAR_INTERRUPT_MASK;
 4055              		.loc 1 2275 3 is_stmt 1 view .LVU1452
 4056              		.loc 1 2275 17 is_stmt 0 view .LVU1453
 4057 007a 6361     		str	r3, [r4, #20]
2276:STM32Cube_FW_N6/Drivers/STM32N6xx_HAL_Driver/Src/stm32n6xx_ll_usb.c **** 
2277:STM32Cube_FW_N6/Drivers/STM32N6xx_HAL_Driver/Src/stm32n6xx_ll_usb.c ****   (void)USB_EnableGlobalInt(USBx);
 4058              		.loc 1 2277 3 is_stmt 1 view .LVU1454
 4059              	.LVL278:
 4060              	.LBB28:
ARM GAS  C:\Users\DJESSOU\AppData\Local\Temp\ccOpSjVg.s 			page 132


 4061              	.LBI28:
 205:STM32Cube_FW_N6/Drivers/STM32N6xx_HAL_Driver/Src/stm32n6xx_ll_usb.c **** {
 4062              		.loc 1 205 19 view .LVU1455
 4063              	.LBB29:
 207:STM32Cube_FW_N6/Drivers/STM32N6xx_HAL_Driver/Src/stm32n6xx_ll_usb.c ****   return HAL_OK;
 4064              		.loc 1 207 3 view .LVU1456
 207:STM32Cube_FW_N6/Drivers/STM32N6xx_HAL_Driver/Src/stm32n6xx_ll_usb.c ****   return HAL_OK;
 4065              		.loc 1 207 7 is_stmt 0 view .LVU1457
 4066 007c A368     		ldr	r3, [r4, #8]
 207:STM32Cube_FW_N6/Drivers/STM32N6xx_HAL_Driver/Src/stm32n6xx_ll_usb.c ****   return HAL_OK;
 4067              		.loc 1 207 17 view .LVU1458
 4068 007e 43F00103 		orr	r3, r3, #1
 4069 0082 A360     		str	r3, [r4, #8]
 208:STM32Cube_FW_N6/Drivers/STM32N6xx_HAL_Driver/Src/stm32n6xx_ll_usb.c **** }
 4070              		.loc 1 208 3 is_stmt 1 view .LVU1459
 4071              	.LVL279:
 208:STM32Cube_FW_N6/Drivers/STM32N6xx_HAL_Driver/Src/stm32n6xx_ll_usb.c **** }
 4072              		.loc 1 208 3 is_stmt 0 view .LVU1460
 4073              	.LBE29:
 4074              	.LBE28:
2278:STM32Cube_FW_N6/Drivers/STM32N6xx_HAL_Driver/Src/stm32n6xx_ll_usb.c **** 
2279:STM32Cube_FW_N6/Drivers/STM32N6xx_HAL_Driver/Src/stm32n6xx_ll_usb.c ****   return ret;
 4075              		.loc 1 2279 3 is_stmt 1 view .LVU1461
2280:STM32Cube_FW_N6/Drivers/STM32N6xx_HAL_Driver/Src/stm32n6xx_ll_usb.c **** }
 4076              		.loc 1 2280 1 is_stmt 0 view .LVU1462
 4077 0084 03B0     		add	sp, sp, #12
 4078              		.cfi_def_cfa_offset 12
 4079              		@ sp needed
 4080 0086 30BD     		pop	{r4, r5, pc}
 4081              		.loc 1 2280 1 view .LVU1463
 4082              		.cfi_endproc
 4083              	.LFE904:
 4085              		.section	.text.USB_ActivateRemoteWakeup,"ax",%progbits
 4086              		.align	1
 4087              		.global	USB_ActivateRemoteWakeup
 4088              		.syntax unified
 4089              		.thumb
 4090              		.thumb_func
 4092              	USB_ActivateRemoteWakeup:
 4093              	.LVL280:
 4094              	.LFB905:
2281:STM32Cube_FW_N6/Drivers/STM32N6xx_HAL_Driver/Src/stm32n6xx_ll_usb.c **** 
2282:STM32Cube_FW_N6/Drivers/STM32N6xx_HAL_Driver/Src/stm32n6xx_ll_usb.c **** /**
2283:STM32Cube_FW_N6/Drivers/STM32N6xx_HAL_Driver/Src/stm32n6xx_ll_usb.c ****   * @brief  USB_ActivateRemoteWakeup active remote wakeup signalling
2284:STM32Cube_FW_N6/Drivers/STM32N6xx_HAL_Driver/Src/stm32n6xx_ll_usb.c ****   * @param  USBx Selected device
2285:STM32Cube_FW_N6/Drivers/STM32N6xx_HAL_Driver/Src/stm32n6xx_ll_usb.c ****   * @retval HAL status
2286:STM32Cube_FW_N6/Drivers/STM32N6xx_HAL_Driver/Src/stm32n6xx_ll_usb.c ****   */
2287:STM32Cube_FW_N6/Drivers/STM32N6xx_HAL_Driver/Src/stm32n6xx_ll_usb.c **** HAL_StatusTypeDef USB_ActivateRemoteWakeup(const USB_OTG_GlobalTypeDef *USBx)
2288:STM32Cube_FW_N6/Drivers/STM32N6xx_HAL_Driver/Src/stm32n6xx_ll_usb.c **** {
 4095              		.loc 1 2288 1 is_stmt 1 view -0
 4096              		.cfi_startproc
 4097              		@ args = 0, pretend = 0, frame = 0
 4098              		@ frame_needed = 0, uses_anonymous_args = 0
 4099              		@ link register save eliminated.
2289:STM32Cube_FW_N6/Drivers/STM32N6xx_HAL_Driver/Src/stm32n6xx_ll_usb.c ****   uint32_t USBx_BASE = (uint32_t)USBx;
 4100              		.loc 1 2289 3 view .LVU1465
2290:STM32Cube_FW_N6/Drivers/STM32N6xx_HAL_Driver/Src/stm32n6xx_ll_usb.c **** 
ARM GAS  C:\Users\DJESSOU\AppData\Local\Temp\ccOpSjVg.s 			page 133


2291:STM32Cube_FW_N6/Drivers/STM32N6xx_HAL_Driver/Src/stm32n6xx_ll_usb.c ****   if ((USBx_DEVICE->DSTS & USB_OTG_DSTS_SUSPSTS) == USB_OTG_DSTS_SUSPSTS)
 4101              		.loc 1 2291 3 view .LVU1466
 4102              		.loc 1 2291 19 is_stmt 0 view .LVU1467
 4103 0000 D0F80838 		ldr	r3, [r0, #2056]
 4104              		.loc 1 2291 8 view .LVU1468
 4105 0004 00F50060 		add	r0, r0, #2048
 4106              	.LVL281:
 4107              		.loc 1 2291 6 view .LVU1469
 4108 0008 DB07     		lsls	r3, r3, #31
2292:STM32Cube_FW_N6/Drivers/STM32N6xx_HAL_Driver/Src/stm32n6xx_ll_usb.c ****   {
2293:STM32Cube_FW_N6/Drivers/STM32N6xx_HAL_Driver/Src/stm32n6xx_ll_usb.c ****     /* active Remote wakeup signalling */
2294:STM32Cube_FW_N6/Drivers/STM32N6xx_HAL_Driver/Src/stm32n6xx_ll_usb.c ****     USBx_DEVICE->DCTL |= USB_OTG_DCTL_RWUSIG;
 4109              		.loc 1 2294 5 is_stmt 1 view .LVU1470
 4110              		.loc 1 2294 16 is_stmt 0 view .LVU1471
 4111 000a 42BF     		ittt	mi
 4112 000c 4368     		ldrmi	r3, [r0, #4]
 4113              		.loc 1 2294 23 view .LVU1472
 4114 000e 43F00103 		orrmi	r3, r3, #1
 4115 0012 4360     		strmi	r3, [r0, #4]
2295:STM32Cube_FW_N6/Drivers/STM32N6xx_HAL_Driver/Src/stm32n6xx_ll_usb.c ****   }
2296:STM32Cube_FW_N6/Drivers/STM32N6xx_HAL_Driver/Src/stm32n6xx_ll_usb.c **** 
2297:STM32Cube_FW_N6/Drivers/STM32N6xx_HAL_Driver/Src/stm32n6xx_ll_usb.c ****   return HAL_OK;
 4116              		.loc 1 2297 3 is_stmt 1 view .LVU1473
2298:STM32Cube_FW_N6/Drivers/STM32N6xx_HAL_Driver/Src/stm32n6xx_ll_usb.c **** }
 4117              		.loc 1 2298 1 is_stmt 0 view .LVU1474
 4118 0014 0020     		movs	r0, #0
 4119              	.LVL282:
 4120              		.loc 1 2298 1 view .LVU1475
 4121 0016 7047     		bx	lr
 4122              		.cfi_endproc
 4123              	.LFE905:
 4125              		.section	.text.USB_DeActivateRemoteWakeup,"ax",%progbits
 4126              		.align	1
 4127              		.global	USB_DeActivateRemoteWakeup
 4128              		.syntax unified
 4129              		.thumb
 4130              		.thumb_func
 4132              	USB_DeActivateRemoteWakeup:
 4133              	.LVL283:
 4134              	.LFB906:
2299:STM32Cube_FW_N6/Drivers/STM32N6xx_HAL_Driver/Src/stm32n6xx_ll_usb.c **** 
2300:STM32Cube_FW_N6/Drivers/STM32N6xx_HAL_Driver/Src/stm32n6xx_ll_usb.c **** /**
2301:STM32Cube_FW_N6/Drivers/STM32N6xx_HAL_Driver/Src/stm32n6xx_ll_usb.c ****   * @brief  USB_DeActivateRemoteWakeup de-active remote wakeup signalling
2302:STM32Cube_FW_N6/Drivers/STM32N6xx_HAL_Driver/Src/stm32n6xx_ll_usb.c ****   * @param  USBx Selected device
2303:STM32Cube_FW_N6/Drivers/STM32N6xx_HAL_Driver/Src/stm32n6xx_ll_usb.c ****   * @retval HAL status
2304:STM32Cube_FW_N6/Drivers/STM32N6xx_HAL_Driver/Src/stm32n6xx_ll_usb.c ****   */
2305:STM32Cube_FW_N6/Drivers/STM32N6xx_HAL_Driver/Src/stm32n6xx_ll_usb.c **** HAL_StatusTypeDef USB_DeActivateRemoteWakeup(const USB_OTG_GlobalTypeDef *USBx)
2306:STM32Cube_FW_N6/Drivers/STM32N6xx_HAL_Driver/Src/stm32n6xx_ll_usb.c **** {
 4135              		.loc 1 2306 1 is_stmt 1 view -0
 4136              		.cfi_startproc
 4137              		@ args = 0, pretend = 0, frame = 0
 4138              		@ frame_needed = 0, uses_anonymous_args = 0
 4139              		@ link register save eliminated.
2307:STM32Cube_FW_N6/Drivers/STM32N6xx_HAL_Driver/Src/stm32n6xx_ll_usb.c ****   uint32_t USBx_BASE = (uint32_t)USBx;
 4140              		.loc 1 2307 3 view .LVU1477
2308:STM32Cube_FW_N6/Drivers/STM32N6xx_HAL_Driver/Src/stm32n6xx_ll_usb.c **** 
2309:STM32Cube_FW_N6/Drivers/STM32N6xx_HAL_Driver/Src/stm32n6xx_ll_usb.c ****   /* active Remote wakeup signalling */
ARM GAS  C:\Users\DJESSOU\AppData\Local\Temp\ccOpSjVg.s 			page 134


2310:STM32Cube_FW_N6/Drivers/STM32N6xx_HAL_Driver/Src/stm32n6xx_ll_usb.c ****   USBx_DEVICE->DCTL &= ~(USB_OTG_DCTL_RWUSIG);
 4141              		.loc 1 2310 3 view .LVU1478
 4142              		.loc 1 2310 14 is_stmt 0 view .LVU1479
 4143 0000 D0F80438 		ldr	r3, [r0, #2052]
 4144              		.loc 1 2310 21 view .LVU1480
 4145 0004 23F00103 		bic	r3, r3, #1
 4146 0008 C0F80438 		str	r3, [r0, #2052]
2311:STM32Cube_FW_N6/Drivers/STM32N6xx_HAL_Driver/Src/stm32n6xx_ll_usb.c **** 
2312:STM32Cube_FW_N6/Drivers/STM32N6xx_HAL_Driver/Src/stm32n6xx_ll_usb.c ****   return HAL_OK;
 4147              		.loc 1 2312 3 is_stmt 1 view .LVU1481
2313:STM32Cube_FW_N6/Drivers/STM32N6xx_HAL_Driver/Src/stm32n6xx_ll_usb.c **** }
 4148              		.loc 1 2313 1 is_stmt 0 view .LVU1482
 4149 000c 0020     		movs	r0, #0
 4150              	.LVL284:
 4151              		.loc 1 2313 1 view .LVU1483
 4152 000e 7047     		bx	lr
 4153              		.cfi_endproc
 4154              	.LFE906:
 4156              		.text
 4157              	.Letext0:
 4158              		.file 2 "C:\\ST\\STM32CubeIDE_1.18.1\\STM32CubeIDE\\plugins\\com.st.stm32cube.ide.mcu.externaltool
 4159              		.file 3 "C:\\ST\\STM32CubeIDE_1.18.1\\STM32CubeIDE\\plugins\\com.st.stm32cube.ide.mcu.externaltool
 4160              		.file 4 "STM32Cube_FW_N6/Drivers/CMSIS/Include/cmsis_gcc.h"
 4161              		.file 5 "STM32Cube_FW_N6/Drivers/CMSIS/Device/ST/STM32N6xx/Include/stm32n657xx.h"
 4162              		.file 6 "STM32Cube_FW_N6/Drivers/STM32N6xx_HAL_Driver/Inc/stm32n6xx_hal_def.h"
 4163              		.file 7 "STM32Cube_FW_N6/Drivers/STM32N6xx_HAL_Driver/Inc/stm32n6xx_ll_usb.h"
 4164              		.file 8 "STM32Cube_FW_N6/Drivers/STM32N6xx_HAL_Driver/Inc/stm32n6xx_hal.h"
ARM GAS  C:\Users\DJESSOU\AppData\Local\Temp\ccOpSjVg.s 			page 135


DEFINED SYMBOLS
                            *ABS*:00000000 stm32n6xx_ll_usb.c
C:\Users\DJESSOU\AppData\Local\Temp\ccOpSjVg.s:26     .text.USB_CoreInit:00000000 $t
C:\Users\DJESSOU\AppData\Local\Temp\ccOpSjVg.s:32     .text.USB_CoreInit:00000000 USB_CoreInit
C:\Users\DJESSOU\AppData\Local\Temp\ccOpSjVg.s:210    .text.USB_SetTurnaroundTime:00000000 $t
C:\Users\DJESSOU\AppData\Local\Temp\ccOpSjVg.s:216    .text.USB_SetTurnaroundTime:00000000 USB_SetTurnaroundTime
C:\Users\DJESSOU\AppData\Local\Temp\ccOpSjVg.s:377    .text.USB_SetTurnaroundTime:000000a4 $d
C:\Users\DJESSOU\AppData\Local\Temp\ccOpSjVg.s:396    .text.USB_EnableGlobalInt:00000000 $t
C:\Users\DJESSOU\AppData\Local\Temp\ccOpSjVg.s:402    .text.USB_EnableGlobalInt:00000000 USB_EnableGlobalInt
C:\Users\DJESSOU\AppData\Local\Temp\ccOpSjVg.s:426    .text.USB_DisableGlobalInt:00000000 $t
C:\Users\DJESSOU\AppData\Local\Temp\ccOpSjVg.s:432    .text.USB_DisableGlobalInt:00000000 USB_DisableGlobalInt
C:\Users\DJESSOU\AppData\Local\Temp\ccOpSjVg.s:456    .text.USB_SetCurrentMode:00000000 $t
C:\Users\DJESSOU\AppData\Local\Temp\ccOpSjVg.s:462    .text.USB_SetCurrentMode:00000000 USB_SetCurrentMode
C:\Users\DJESSOU\AppData\Local\Temp\ccOpSjVg.s:601    .text.USB_FlushTxFifo:00000000 $t
C:\Users\DJESSOU\AppData\Local\Temp\ccOpSjVg.s:607    .text.USB_FlushTxFifo:00000000 USB_FlushTxFifo
C:\Users\DJESSOU\AppData\Local\Temp\ccOpSjVg.s:692    .text.USB_FlushRxFifo:00000000 $t
C:\Users\DJESSOU\AppData\Local\Temp\ccOpSjVg.s:698    .text.USB_FlushRxFifo:00000000 USB_FlushRxFifo
C:\Users\DJESSOU\AppData\Local\Temp\ccOpSjVg.s:778    .text.USB_SetDevSpeed:00000000 $t
C:\Users\DJESSOU\AppData\Local\Temp\ccOpSjVg.s:784    .text.USB_SetDevSpeed:00000000 USB_SetDevSpeed
C:\Users\DJESSOU\AppData\Local\Temp\ccOpSjVg.s:811    .text.USB_DevInit:00000000 $t
C:\Users\DJESSOU\AppData\Local\Temp\ccOpSjVg.s:817    .text.USB_DevInit:00000000 USB_DevInit
C:\Users\DJESSOU\AppData\Local\Temp\ccOpSjVg.s:1169   .text.USB_DevInit:00000190 $d
C:\Users\DJESSOU\AppData\Local\Temp\ccOpSjVg.s:1174   .text.USB_GetDevSpeed:00000000 $t
C:\Users\DJESSOU\AppData\Local\Temp\ccOpSjVg.s:1180   .text.USB_GetDevSpeed:00000000 USB_GetDevSpeed
C:\Users\DJESSOU\AppData\Local\Temp\ccOpSjVg.s:1217   .text.USB_ActivateEndpoint:00000000 $t
C:\Users\DJESSOU\AppData\Local\Temp\ccOpSjVg.s:1223   .text.USB_ActivateEndpoint:00000000 USB_ActivateEndpoint
C:\Users\DJESSOU\AppData\Local\Temp\ccOpSjVg.s:1330   .text.USB_ActivateDedicatedEndpoint:00000000 $t
C:\Users\DJESSOU\AppData\Local\Temp\ccOpSjVg.s:1336   .text.USB_ActivateDedicatedEndpoint:00000000 USB_ActivateDedicatedEndpoint
C:\Users\DJESSOU\AppData\Local\Temp\ccOpSjVg.s:1443   .text.USB_DeactivateEndpoint:00000000 $t
C:\Users\DJESSOU\AppData\Local\Temp\ccOpSjVg.s:1449   .text.USB_DeactivateEndpoint:00000000 USB_DeactivateEndpoint
C:\Users\DJESSOU\AppData\Local\Temp\ccOpSjVg.s:1580   .text.USB_DeactivateEndpoint:000000a4 $d
C:\Users\DJESSOU\AppData\Local\Temp\ccOpSjVg.s:1586   .text.USB_DeactivateDedicatedEndpoint:00000000 $t
C:\Users\DJESSOU\AppData\Local\Temp\ccOpSjVg.s:1592   .text.USB_DeactivateDedicatedEndpoint:00000000 USB_DeactivateDedicatedEndpoint
C:\Users\DJESSOU\AppData\Local\Temp\ccOpSjVg.s:1701   .text.USB_EPStopXfer:00000000 $t
C:\Users\DJESSOU\AppData\Local\Temp\ccOpSjVg.s:1707   .text.USB_EPStopXfer:00000000 USB_EPStopXfer
C:\Users\DJESSOU\AppData\Local\Temp\ccOpSjVg.s:1973   .text.USB_EPSetStall:00000000 $t
C:\Users\DJESSOU\AppData\Local\Temp\ccOpSjVg.s:1979   .text.USB_EPSetStall:00000000 USB_EPSetStall
C:\Users\DJESSOU\AppData\Local\Temp\ccOpSjVg.s:2060   .text.USB_EPClearStall:00000000 $t
C:\Users\DJESSOU\AppData\Local\Temp\ccOpSjVg.s:2066   .text.USB_EPClearStall:00000000 USB_EPClearStall
C:\Users\DJESSOU\AppData\Local\Temp\ccOpSjVg.s:2142   .text.USB_WritePacket:00000000 $t
C:\Users\DJESSOU\AppData\Local\Temp\ccOpSjVg.s:2148   .text.USB_WritePacket:00000000 USB_WritePacket
C:\Users\DJESSOU\AppData\Local\Temp\ccOpSjVg.s:2215   .text.USB_EPStartXfer:00000000 $t
C:\Users\DJESSOU\AppData\Local\Temp\ccOpSjVg.s:2221   .text.USB_EPStartXfer:00000000 USB_EPStartXfer
C:\Users\DJESSOU\AppData\Local\Temp\ccOpSjVg.s:2620   .text.USB_EPStartXfer:000001f8 $d
C:\Users\DJESSOU\AppData\Local\Temp\ccOpSjVg.s:2627   .text.USB_ReadPacket:00000000 $t
C:\Users\DJESSOU\AppData\Local\Temp\ccOpSjVg.s:2633   .text.USB_ReadPacket:00000000 USB_ReadPacket
C:\Users\DJESSOU\AppData\Local\Temp\ccOpSjVg.s:2735   .text.USB_StopDevice:00000000 $t
C:\Users\DJESSOU\AppData\Local\Temp\ccOpSjVg.s:2741   .text.USB_StopDevice:00000000 USB_StopDevice
C:\Users\DJESSOU\AppData\Local\Temp\ccOpSjVg.s:2823   .text.USB_SetDevAddress:00000000 $t
C:\Users\DJESSOU\AppData\Local\Temp\ccOpSjVg.s:2829   .text.USB_SetDevAddress:00000000 USB_SetDevAddress
C:\Users\DJESSOU\AppData\Local\Temp\ccOpSjVg.s:2865   .text.USB_DevConnect:00000000 $t
C:\Users\DJESSOU\AppData\Local\Temp\ccOpSjVg.s:2871   .text.USB_DevConnect:00000000 USB_DevConnect
C:\Users\DJESSOU\AppData\Local\Temp\ccOpSjVg.s:2901   .text.USB_DevDisconnect:00000000 $t
C:\Users\DJESSOU\AppData\Local\Temp\ccOpSjVg.s:2907   .text.USB_DevDisconnect:00000000 USB_DevDisconnect
C:\Users\DJESSOU\AppData\Local\Temp\ccOpSjVg.s:2937   .text.USB_ReadInterrupts:00000000 $t
C:\Users\DJESSOU\AppData\Local\Temp\ccOpSjVg.s:2943   .text.USB_ReadInterrupts:00000000 USB_ReadInterrupts
C:\Users\DJESSOU\AppData\Local\Temp\ccOpSjVg.s:2970   .text.USB_ReadChInterrupts:00000000 $t
ARM GAS  C:\Users\DJESSOU\AppData\Local\Temp\ccOpSjVg.s 			page 136


C:\Users\DJESSOU\AppData\Local\Temp\ccOpSjVg.s:2976   .text.USB_ReadChInterrupts:00000000 USB_ReadChInterrupts
C:\Users\DJESSOU\AppData\Local\Temp\ccOpSjVg.s:3009   .text.USB_ReadDevAllOutEpInterrupt:00000000 $t
C:\Users\DJESSOU\AppData\Local\Temp\ccOpSjVg.s:3015   .text.USB_ReadDevAllOutEpInterrupt:00000000 USB_ReadDevAllOutEpInterrupt
C:\Users\DJESSOU\AppData\Local\Temp\ccOpSjVg.s:3048   .text.USB_ReadDevAllInEpInterrupt:00000000 $t
C:\Users\DJESSOU\AppData\Local\Temp\ccOpSjVg.s:3054   .text.USB_ReadDevAllInEpInterrupt:00000000 USB_ReadDevAllInEpInterrupt
C:\Users\DJESSOU\AppData\Local\Temp\ccOpSjVg.s:3087   .text.USB_ReadDevOutEPInterrupt:00000000 $t
C:\Users\DJESSOU\AppData\Local\Temp\ccOpSjVg.s:3093   .text.USB_ReadDevOutEPInterrupt:00000000 USB_ReadDevOutEPInterrupt
C:\Users\DJESSOU\AppData\Local\Temp\ccOpSjVg.s:3127   .text.USB_ReadDevInEPInterrupt:00000000 $t
C:\Users\DJESSOU\AppData\Local\Temp\ccOpSjVg.s:3133   .text.USB_ReadDevInEPInterrupt:00000000 USB_ReadDevInEPInterrupt
C:\Users\DJESSOU\AppData\Local\Temp\ccOpSjVg.s:3183   .text.USB_ClearInterrupts:00000000 $t
C:\Users\DJESSOU\AppData\Local\Temp\ccOpSjVg.s:3189   .text.USB_ClearInterrupts:00000000 USB_ClearInterrupts
C:\Users\DJESSOU\AppData\Local\Temp\ccOpSjVg.s:3209   .text.USB_GetMode:00000000 $t
C:\Users\DJESSOU\AppData\Local\Temp\ccOpSjVg.s:3215   .text.USB_GetMode:00000000 USB_GetMode
C:\Users\DJESSOU\AppData\Local\Temp\ccOpSjVg.s:3234   .text.USB_ActivateSetup:00000000 $t
C:\Users\DJESSOU\AppData\Local\Temp\ccOpSjVg.s:3240   .text.USB_ActivateSetup:00000000 USB_ActivateSetup
C:\Users\DJESSOU\AppData\Local\Temp\ccOpSjVg.s:3271   .text.USB_EP0_OutStart:00000000 $t
C:\Users\DJESSOU\AppData\Local\Temp\ccOpSjVg.s:3277   .text.USB_EP0_OutStart:00000000 USB_EP0_OutStart
C:\Users\DJESSOU\AppData\Local\Temp\ccOpSjVg.s:3356   .text.USB_EP0_OutStart:00000048 $d
C:\Users\DJESSOU\AppData\Local\Temp\ccOpSjVg.s:3361   .text.USB_HostInit:00000000 $t
C:\Users\DJESSOU\AppData\Local\Temp\ccOpSjVg.s:3367   .text.USB_HostInit:00000000 USB_HostInit
C:\Users\DJESSOU\AppData\Local\Temp\ccOpSjVg.s:3555   .text.USB_HostInit:000000c8 $d
C:\Users\DJESSOU\AppData\Local\Temp\ccOpSjVg.s:3561   .text.USB_InitFSLSPClkSel:00000000 $t
C:\Users\DJESSOU\AppData\Local\Temp\ccOpSjVg.s:3567   .text.USB_InitFSLSPClkSel:00000000 USB_InitFSLSPClkSel
C:\Users\DJESSOU\AppData\Local\Temp\ccOpSjVg.s:3634   .text.USB_ResetPort:00000000 $t
C:\Users\DJESSOU\AppData\Local\Temp\ccOpSjVg.s:3640   .text.USB_ResetPort:00000000 USB_ResetPort
C:\Users\DJESSOU\AppData\Local\Temp\ccOpSjVg.s:3707   .text.USB_DriveVbus:00000000 $t
C:\Users\DJESSOU\AppData\Local\Temp\ccOpSjVg.s:3713   .text.USB_DriveVbus:00000000 USB_DriveVbus
C:\Users\DJESSOU\AppData\Local\Temp\ccOpSjVg.s:3784   .text.USB_GetHostSpeed:00000000 $t
C:\Users\DJESSOU\AppData\Local\Temp\ccOpSjVg.s:3790   .text.USB_GetHostSpeed:00000000 USB_GetHostSpeed
C:\Users\DJESSOU\AppData\Local\Temp\ccOpSjVg.s:3826   .text.USB_GetCurrentFrame:00000000 $t
C:\Users\DJESSOU\AppData\Local\Temp\ccOpSjVg.s:3832   .text.USB_GetCurrentFrame:00000000 USB_GetCurrentFrame
C:\Users\DJESSOU\AppData\Local\Temp\ccOpSjVg.s:3855   .text.USB_DoPing:00000000 $t
C:\Users\DJESSOU\AppData\Local\Temp\ccOpSjVg.s:3861   .text.USB_DoPing:00000000 USB_DoPing
C:\Users\DJESSOU\AppData\Local\Temp\ccOpSjVg.s:3903   .text.USB_DoPing:00000020 $d
C:\Users\DJESSOU\AppData\Local\Temp\ccOpSjVg.s:3908   .text.USB_StopHost:00000000 $t
C:\Users\DJESSOU\AppData\Local\Temp\ccOpSjVg.s:3914   .text.USB_StopHost:00000000 USB_StopHost
C:\Users\DJESSOU\AppData\Local\Temp\ccOpSjVg.s:4086   .text.USB_ActivateRemoteWakeup:00000000 $t
C:\Users\DJESSOU\AppData\Local\Temp\ccOpSjVg.s:4092   .text.USB_ActivateRemoteWakeup:00000000 USB_ActivateRemoteWakeup
C:\Users\DJESSOU\AppData\Local\Temp\ccOpSjVg.s:4126   .text.USB_DeActivateRemoteWakeup:00000000 $t
C:\Users\DJESSOU\AppData\Local\Temp\ccOpSjVg.s:4132   .text.USB_DeActivateRemoteWakeup:00000000 USB_DeActivateRemoteWakeup
                           .group:00000000 wm4.0.c530a555507323ed657a04d5a22acbf4
                           .group:00000000 wm4.stm32n6xx_hal_conf.h.21.004a06df6e15ac197e03f723792da58a
                           .group:00000000 wm4.stddef.h.39.0dc9006b34572d4d9cae4c8b422c4971
                           .group:00000000 wm4.arm_cmse.h.103.a0d15a79c4c9a67da8d5831704d7248e
                           .group:00000000 wm4.stm32n6xx.h.34.c523a1ffdf274a69e8802892c6776332
                           .group:00000000 wm4.stm32n657xx.h.26.acd272cb67318cc1a4791ce2f0720ca6
                           .group:00000000 wm4._newlib_version.h.4.411db44ea2338a62eca2f0777f81481b
                           .group:00000000 wm4.features.h.33.e0c9f337c65cb9f22ed5f23d082bc78b
                           .group:00000000 wm4._default_types.h.15.247e5cd201eca3442cbf5404108c4935
                           .group:00000000 wm4._intsup.h.10.48bafbb683905c4daa4565a85aeeb264
                           .group:00000000 wm4._stdint.h.10.c24fa3af3bc1706662bb5593a907e841
                           .group:00000000 wm4.stdint.h.23.d53047a68f4a85177f80b422d52785ed
                           .group:00000000 wm4.cmsis_version.h.30.d128735bf87720f7436b74fefeb5043c
                           .group:00000000 wm4.core_cm55.h.67.25006a3ce7048d64bcddd2996d5fac93
                           .group:00000000 wm4.arm_acle.h.28.ce8f475a5cc50333e54ae4adeb8c0298
                           .group:00000000 wm4.cmsis_gcc.h.39.eba7438bc45fd1a6e6376b63ffe44436
                           .group:00000000 wm4.cmsis_gcc_m.h.24.e590ec51aeda3a1242400351d73f5dce
ARM GAS  C:\Users\DJESSOU\AppData\Local\Temp\ccOpSjVg.s 			page 137


                           .group:00000000 wm4.core_cm55.h.213.0528f46a674315ef8d35c4477e230358
                           .group:00000000 wm4.armv8m_mpu.h.24.bf28cc25bee30a7ff9d2f7a44a5e2230
                           .group:00000000 wm4.armv8m_pmu.h.24.6ded195d2625055391fd378c0e1d2519
                           .group:00000000 wm4.core_cm55.h.4477.396e822ef855bcfb932819ad48de1c4c
                           .group:00000000 wm4.armv7m_cachel1.h.24.936dd92d6e204a8d0b17d5e4ea4a356e
                           .group:00000000 wm4.stm32n657xx.h.575.78d331c417ec710388ced647138f735f
                           .group:00000000 wm4.stm32n6xx.h.116.b4247d9785590e7c5ec9234ffb2153bf
                           .group:00000000 wm4.stm32_hal_legacy.h.22.e62aae2fd3ae33360b6781c8a72e5b18
                           .group:00000000 wm4.newlib.h.7.a37ffbe9e5aff74303f4e60b1cc1c01b
                           .group:00000000 wm4.ieeefp.h.77.bd5feb87d9990dd328793ced294f6a87
                           .group:00000000 wm4.config.h.224.10ee1ad185d877c6e334e6581faab44d
                           .group:00000000 wm4._ansi.h.31.de524f58584151836e90d8620a16f8e8
                           .group:00000000 wm4.cdefs.h.49.70fc7af612f78ddcace70fdd90b5623b
                           .group:00000000 wm4._types.h.20.dd0d04dca3800a0d2a6129b87f3adbb2
                           .group:00000000 wm4.stddef.h.158.6f8e08a347b1cff664332fa350bfceb3
                           .group:00000000 wm4._types.h.127.3bdfe3ff8ea2d0985b03d9cbe93480e3
                           .group:00000000 wm4.reent.h.18.25503cdc8b7e55dd0d6ea7b3e5af7a03
                           .group:00000000 wm4.lock.h.2.1461d1fff82dffe8bfddc23307f6484f
                           .group:00000000 wm4.reent.h.78.6b87466b04591b1f1cb88c14fdf2ba9e
                           .group:00000000 wm4.math.h.13.47cfc34cae8a1153323939c4d32cf7c2
                           .group:00000000 wm4.stm32n6xx_hal_def.h.63.3a8f01490e8852464e9fcb69092e9c75
                           .group:00000000 wm4.stm32n6xx_ll_bus.h.38.2366a295ee4cdb04833997d3787fcd2d
                           .group:00000000 wm4.stm32n6xx_ll_rcc.h.21.656bd5637db608589ad16ea57d39430c
                           .group:00000000 wm4.stm32n6xx_hal_rcc.h.194.69b522b1afdf59a82d05a1f71efe03c7
                           .group:00000000 wm4.stm32n6xx_hal_rcc_ex.h.21.cc6be0a7d168882a1a6f470236ba784c
                           .group:00000000 wm4.stm32n6xx_hal_rcc.h.4361.4b490a4a19722e68c21f88cb8a774a30
                           .group:00000000 wm4.stm32n6xx_hal_gpio.h.21.89d54af663b98eb8fc098192053f7eeb
                           .group:00000000 wm4.stm32n6xx_hal_gpio_ex.h.22.f7e795fb05a69a19b87d946b47c8db8b
                           .group:00000000 wm4.stm32n6xx_hal_rif.h.21.33f2c553a8a3fc14dca8c470b213ab19
                           .group:00000000 wm4.stm32n6xx_hal_dma.h.21.61e48c5c2e8d25d22177834b232fe45c
                           .group:00000000 wm4.stm32n6xx_hal_dma_ex.h.21.82f854ecdb6a463b06d0b4e5c217c368
                           .group:00000000 wm4.stm32n6xx_hal_dma.h.1020.87e2180c009560b617c1f8208140c950
                           .group:00000000 wm4.stm32n6xx_hal_cortex.h.21.f493623cc58f9454ab4eae41e395c5cc
                           .group:00000000 wm4.stm32n6xx_hal_bsec.h.21.1ee89319140541f82434908b4267aa30
                           .group:00000000 wm4.stm32n6xx_hal_dcmipp.h.21.e2b87dce83d7d722d696a597f6ac56bf
                           .group:00000000 wm4.stm32n6xx_hal_dma2d.h.21.75c8d46cdbb72970123b3f34ae2043d7
                           .group:00000000 wm4.stm32n6xx_hal_exti.h.21.e0efb23591051684dc14f1f2431c6aab
                           .group:00000000 wm4.stm32n6xx_hal_gfxmmu.h.21.9784a9103143d48bd3c37389d0e0b8e6
                           .group:00000000 wm4.stm32n6xx_hal_i2c.h.21.3f483626ff64c5bf027265bb2e1d1331
                           .group:00000000 wm4.stm32n6xx_hal_i2c_ex.h.21.79e9196c22282cdaf6b4047893638c45
                           .group:00000000 wm4.stm32n6xx_hal_i2c.h.741.1084702632703acc669e4282b3043372
                           .group:00000000 wm4.stm32n6xx_hal_icache.h.21.194b4ec6e76f32b14f65c85616854850
                           .group:00000000 wm4.stm32n6xx_hal_ltdc.h.21.ae1eb09930e7e550e48e418ac5849e4d
                           .group:00000000 wm4.stm32n6xx_hal_ltdc.h.1002.b13ede7fc94ed5ad1c6768a157d2149a
                           .group:00000000 wm4.stm32n6xx_ll_usb.h.21.daaf86158046f2cf02166c495d637480
                           .group:00000000 wm4.stm32n6xx_hal_pcd.h.155.27040aac6844effe2af8c180caf1dd2e
                           .group:00000000 wm4.stm32n6xx_hal_pwr.h.21.cdb73e4869c3fed3fc84f901ec0e5f0a
                           .group:00000000 wm4.stm32n6xx_hal_pwr_ex.h.21.1a673224a58b0c1e5fad8eeda6514208
                           .group:00000000 wm4.stm32n6xx_hal_ramcfg.h.21.a62dfbb4d2c14e9a8c634a215e37bd3d
                           .group:00000000 wm4.stm32n6xx_hal_spi.h.21.9f810303326e2d91749800e9911f8e4d
                           .group:00000000 wm4.stm32n6xx_hal_spi.h.906.8ad9375f39dce09dc0a4db0025ee7a76
                           .group:00000000 wm4.stm32n6xx_hal_tim.h.21.839dd2b2a70382fb2c44f8f293a84d5f
                           .group:00000000 wm4.stm32n6xx_hal_tim_ex.h.21.e372d5ac63c13441211ea4ecbd353150
                           .group:00000000 wm4.stm32n6xx_hal_uart.h.21.230f549bfa0d5ebfd77bfb311b2aca15
                           .group:00000000 wm4.stm32n6xx_hal_uart_ex.h.21.a0d5511e1d0703b7b5278c8f5472b96d
                           .group:00000000 wm4.stm32n6xx_hal_xspi.h.21.7fd922d3bdb871475cf18436a68935bb
                           .group:00000000 wm4.stm32n6xx_hal_cacheaxi.h.21.7c3375b7903ec42376e4883320997f74
ARM GAS  C:\Users\DJESSOU\AppData\Local\Temp\ccOpSjVg.s 			page 138


                           .group:00000000 wm4.stm32n6xx_hal_gpu2d.h.21.48d0249122abad294a630c39cc4ebaed
                           .group:00000000 wm4.stm32n6xx_hal.h.81.e79d59262ba173c33cf1d69281830d15

UNDEFINED SYMBOLS
HAL_Delay
