ARM GAS  C:\Users\DJESSOU\AppData\Local\Temp\ccIfw9Ia.s 			page 1


   1              		.arch armv8.1-m.main
   2              		.fpu fpv5-d16
   3              		.arch_extension dsp
   4              		.arch_extension fp
   5              		.arch_extension fp.dp
   6              		.arch_extension mve
   7              		.arch_extension mve.fp
   8              		.eabi_attribute 5, "cortex-m55"
   9              		.eabi_attribute 28, 1
  10              		.eabi_attribute 20, 1
  11              		.eabi_attribute 21, 1
  12              		.eabi_attribute 23, 3
  13              		.eabi_attribute 24, 1
  14              		.eabi_attribute 25, 1
  15              		.eabi_attribute 26, 1
  16              		.eabi_attribute 30, 4
  17              		.eabi_attribute 34, 1
  18              		.eabi_attribute 38, 1
  19              		.eabi_attribute 18, 4
  20              		.file	"stm32n6xx_hal.c"
  21              		.text
  22              	.Ltext0:
  23              		.cfi_sections	.debug_frame
  24              		.file 1 "STM32Cube_FW_N6/Drivers/STM32N6xx_HAL_Driver/Src/stm32n6xx_hal.c"
  25              		.section	.text.HAL_MspInit,"ax",%progbits
  26              		.align	1
  27              		.weak	HAL_MspInit
  28              		.syntax unified
  29              		.thumb
  30              		.thumb_func
  32              	HAL_MspInit:
  33              	.LFB864:
   1:STM32Cube_FW_N6/Drivers/STM32N6xx_HAL_Driver/Src/stm32n6xx_hal.c **** /**
   2:STM32Cube_FW_N6/Drivers/STM32N6xx_HAL_Driver/Src/stm32n6xx_hal.c ****   ******************************************************************************
   3:STM32Cube_FW_N6/Drivers/STM32N6xx_HAL_Driver/Src/stm32n6xx_hal.c ****   * @file    stm32n6xx_hal.c
   4:STM32Cube_FW_N6/Drivers/STM32N6xx_HAL_Driver/Src/stm32n6xx_hal.c ****   * @author  MCD Application Team
   5:STM32Cube_FW_N6/Drivers/STM32N6xx_HAL_Driver/Src/stm32n6xx_hal.c ****   * @brief   HAL module driver.
   6:STM32Cube_FW_N6/Drivers/STM32N6xx_HAL_Driver/Src/stm32n6xx_hal.c ****   *          This is the common part of the HAL initialization
   7:STM32Cube_FW_N6/Drivers/STM32N6xx_HAL_Driver/Src/stm32n6xx_hal.c ****   *
   8:STM32Cube_FW_N6/Drivers/STM32N6xx_HAL_Driver/Src/stm32n6xx_hal.c ****   ******************************************************************************
   9:STM32Cube_FW_N6/Drivers/STM32N6xx_HAL_Driver/Src/stm32n6xx_hal.c ****   * @attention
  10:STM32Cube_FW_N6/Drivers/STM32N6xx_HAL_Driver/Src/stm32n6xx_hal.c ****   *
  11:STM32Cube_FW_N6/Drivers/STM32N6xx_HAL_Driver/Src/stm32n6xx_hal.c ****   * Copyright (c) 2023 STMicroelectronics.
  12:STM32Cube_FW_N6/Drivers/STM32N6xx_HAL_Driver/Src/stm32n6xx_hal.c ****   * All rights reserved.
  13:STM32Cube_FW_N6/Drivers/STM32N6xx_HAL_Driver/Src/stm32n6xx_hal.c ****   *
  14:STM32Cube_FW_N6/Drivers/STM32N6xx_HAL_Driver/Src/stm32n6xx_hal.c ****   * This software is licensed under terms that can be found in the LICENSE file
  15:STM32Cube_FW_N6/Drivers/STM32N6xx_HAL_Driver/Src/stm32n6xx_hal.c ****   * in the root directory of this software component.
  16:STM32Cube_FW_N6/Drivers/STM32N6xx_HAL_Driver/Src/stm32n6xx_hal.c ****   * If no LICENSE file comes with this software, it is provided AS-IS.
  17:STM32Cube_FW_N6/Drivers/STM32N6xx_HAL_Driver/Src/stm32n6xx_hal.c ****   *
  18:STM32Cube_FW_N6/Drivers/STM32N6xx_HAL_Driver/Src/stm32n6xx_hal.c ****   ******************************************************************************
  19:STM32Cube_FW_N6/Drivers/STM32N6xx_HAL_Driver/Src/stm32n6xx_hal.c ****   @verbatim
  20:STM32Cube_FW_N6/Drivers/STM32N6xx_HAL_Driver/Src/stm32n6xx_hal.c ****   ==============================================================================
  21:STM32Cube_FW_N6/Drivers/STM32N6xx_HAL_Driver/Src/stm32n6xx_hal.c ****                      ##### How to use this driver #####
  22:STM32Cube_FW_N6/Drivers/STM32N6xx_HAL_Driver/Src/stm32n6xx_hal.c ****   ==============================================================================
  23:STM32Cube_FW_N6/Drivers/STM32N6xx_HAL_Driver/Src/stm32n6xx_hal.c ****     [..]
  24:STM32Cube_FW_N6/Drivers/STM32N6xx_HAL_Driver/Src/stm32n6xx_hal.c ****     The common HAL driver contains a set of generic and common APIs that can be
  25:STM32Cube_FW_N6/Drivers/STM32N6xx_HAL_Driver/Src/stm32n6xx_hal.c ****     used by the PPP peripheral drivers and the user to start using the HAL.
ARM GAS  C:\Users\DJESSOU\AppData\Local\Temp\ccIfw9Ia.s 			page 2


  26:STM32Cube_FW_N6/Drivers/STM32N6xx_HAL_Driver/Src/stm32n6xx_hal.c ****     [..]
  27:STM32Cube_FW_N6/Drivers/STM32N6xx_HAL_Driver/Src/stm32n6xx_hal.c ****     The HAL contains two APIs' categories:
  28:STM32Cube_FW_N6/Drivers/STM32N6xx_HAL_Driver/Src/stm32n6xx_hal.c ****          (+) Common HAL APIs
  29:STM32Cube_FW_N6/Drivers/STM32N6xx_HAL_Driver/Src/stm32n6xx_hal.c ****          (+) Services HAL APIs
  30:STM32Cube_FW_N6/Drivers/STM32N6xx_HAL_Driver/Src/stm32n6xx_hal.c ****     [..]
  31:STM32Cube_FW_N6/Drivers/STM32N6xx_HAL_Driver/Src/stm32n6xx_hal.c ****     All the SYSCFG functions have the same privilege and security attributes.
  32:STM32Cube_FW_N6/Drivers/STM32N6xx_HAL_Driver/Src/stm32n6xx_hal.c ****          (+) Functions can operate in non-privileged code should
  33:STM32Cube_FW_N6/Drivers/STM32N6xx_HAL_Driver/Src/stm32n6xx_hal.c ****              privileged and unprivileged data access are granted to the
  34:STM32Cube_FW_N6/Drivers/STM32N6xx_HAL_Driver/Src/stm32n6xx_hal.c ****              peripheral (see HAL_RIF_RISC_SetSlaveSecureAttributes)
  35:STM32Cube_FW_N6/Drivers/STM32N6xx_HAL_Driver/Src/stm32n6xx_hal.c **** 
  36:STM32Cube_FW_N6/Drivers/STM32N6xx_HAL_Driver/Src/stm32n6xx_hal.c ****          (+) Functions  can operate in non-secure code should
  37:STM32Cube_FW_N6/Drivers/STM32N6xx_HAL_Driver/Src/stm32n6xx_hal.c ****              secure and non-secure data access are granted to the peripheral
  38:STM32Cube_FW_N6/Drivers/STM32N6xx_HAL_Driver/Src/stm32n6xx_hal.c ****              (see HAL_RIF_RISC_SetSlaveSecureAttributes).
  39:STM32Cube_FW_N6/Drivers/STM32N6xx_HAL_Driver/Src/stm32n6xx_hal.c **** 
  40:STM32Cube_FW_N6/Drivers/STM32N6xx_HAL_Driver/Src/stm32n6xx_hal.c ****   @endverbatim
  41:STM32Cube_FW_N6/Drivers/STM32N6xx_HAL_Driver/Src/stm32n6xx_hal.c ****   ******************************************************************************
  42:STM32Cube_FW_N6/Drivers/STM32N6xx_HAL_Driver/Src/stm32n6xx_hal.c ****   */
  43:STM32Cube_FW_N6/Drivers/STM32N6xx_HAL_Driver/Src/stm32n6xx_hal.c **** 
  44:STM32Cube_FW_N6/Drivers/STM32N6xx_HAL_Driver/Src/stm32n6xx_hal.c **** /* Includes ------------------------------------------------------------------*/
  45:STM32Cube_FW_N6/Drivers/STM32N6xx_HAL_Driver/Src/stm32n6xx_hal.c **** #include "stm32n6xx_hal.h"
  46:STM32Cube_FW_N6/Drivers/STM32N6xx_HAL_Driver/Src/stm32n6xx_hal.c **** 
  47:STM32Cube_FW_N6/Drivers/STM32N6xx_HAL_Driver/Src/stm32n6xx_hal.c **** /** @addtogroup STM32N6xx_HAL_Driver
  48:STM32Cube_FW_N6/Drivers/STM32N6xx_HAL_Driver/Src/stm32n6xx_hal.c ****   * @{
  49:STM32Cube_FW_N6/Drivers/STM32N6xx_HAL_Driver/Src/stm32n6xx_hal.c ****   */
  50:STM32Cube_FW_N6/Drivers/STM32N6xx_HAL_Driver/Src/stm32n6xx_hal.c **** 
  51:STM32Cube_FW_N6/Drivers/STM32N6xx_HAL_Driver/Src/stm32n6xx_hal.c **** /** @defgroup HAL HAL
  52:STM32Cube_FW_N6/Drivers/STM32N6xx_HAL_Driver/Src/stm32n6xx_hal.c ****   * @brief HAL module driver
  53:STM32Cube_FW_N6/Drivers/STM32N6xx_HAL_Driver/Src/stm32n6xx_hal.c ****   * @{
  54:STM32Cube_FW_N6/Drivers/STM32N6xx_HAL_Driver/Src/stm32n6xx_hal.c ****   */
  55:STM32Cube_FW_N6/Drivers/STM32N6xx_HAL_Driver/Src/stm32n6xx_hal.c **** 
  56:STM32Cube_FW_N6/Drivers/STM32N6xx_HAL_Driver/Src/stm32n6xx_hal.c **** #ifdef HAL_MODULE_ENABLED
  57:STM32Cube_FW_N6/Drivers/STM32N6xx_HAL_Driver/Src/stm32n6xx_hal.c **** 
  58:STM32Cube_FW_N6/Drivers/STM32N6xx_HAL_Driver/Src/stm32n6xx_hal.c **** /* Private typedef -----------------------------------------------------------*/
  59:STM32Cube_FW_N6/Drivers/STM32N6xx_HAL_Driver/Src/stm32n6xx_hal.c **** /* Private define ------------------------------------------------------------*/
  60:STM32Cube_FW_N6/Drivers/STM32N6xx_HAL_Driver/Src/stm32n6xx_hal.c **** #define HAL_TIMEOUT_SYSCFG_ABORT        5U    /* 5 ms */
  61:STM32Cube_FW_N6/Drivers/STM32N6xx_HAL_Driver/Src/stm32n6xx_hal.c **** 
  62:STM32Cube_FW_N6/Drivers/STM32N6xx_HAL_Driver/Src/stm32n6xx_hal.c **** /* Private macros ------------------------------------------------------------*/
  63:STM32Cube_FW_N6/Drivers/STM32N6xx_HAL_Driver/Src/stm32n6xx_hal.c **** /* Private variables ---------------------------------------------------------*/
  64:STM32Cube_FW_N6/Drivers/STM32N6xx_HAL_Driver/Src/stm32n6xx_hal.c **** /* Exported variables --------------------------------------------------------*/
  65:STM32Cube_FW_N6/Drivers/STM32N6xx_HAL_Driver/Src/stm32n6xx_hal.c **** 
  66:STM32Cube_FW_N6/Drivers/STM32N6xx_HAL_Driver/Src/stm32n6xx_hal.c **** /** @defgroup HAL_Exported_Variables HAL Exported Variables
  67:STM32Cube_FW_N6/Drivers/STM32N6xx_HAL_Driver/Src/stm32n6xx_hal.c ****   * @{
  68:STM32Cube_FW_N6/Drivers/STM32N6xx_HAL_Driver/Src/stm32n6xx_hal.c ****   */
  69:STM32Cube_FW_N6/Drivers/STM32N6xx_HAL_Driver/Src/stm32n6xx_hal.c **** __IO uint32_t uwTick;
  70:STM32Cube_FW_N6/Drivers/STM32N6xx_HAL_Driver/Src/stm32n6xx_hal.c **** uint32_t uwTickPrio   = (1UL << __NVIC_PRIO_BITS); /* Invalid PRIO */
  71:STM32Cube_FW_N6/Drivers/STM32N6xx_HAL_Driver/Src/stm32n6xx_hal.c **** HAL_TickFreqTypeDef uwTickFreq = HAL_TICK_FREQ_DEFAULT;  /* 1KHz */
  72:STM32Cube_FW_N6/Drivers/STM32N6xx_HAL_Driver/Src/stm32n6xx_hal.c **** /**
  73:STM32Cube_FW_N6/Drivers/STM32N6xx_HAL_Driver/Src/stm32n6xx_hal.c ****   * @}
  74:STM32Cube_FW_N6/Drivers/STM32N6xx_HAL_Driver/Src/stm32n6xx_hal.c ****   */
  75:STM32Cube_FW_N6/Drivers/STM32N6xx_HAL_Driver/Src/stm32n6xx_hal.c **** 
  76:STM32Cube_FW_N6/Drivers/STM32N6xx_HAL_Driver/Src/stm32n6xx_hal.c **** /* Private function prototypes -----------------------------------------------*/
  77:STM32Cube_FW_N6/Drivers/STM32N6xx_HAL_Driver/Src/stm32n6xx_hal.c **** /* Exported functions --------------------------------------------------------*/
  78:STM32Cube_FW_N6/Drivers/STM32N6xx_HAL_Driver/Src/stm32n6xx_hal.c **** 
  79:STM32Cube_FW_N6/Drivers/STM32N6xx_HAL_Driver/Src/stm32n6xx_hal.c **** /** @defgroup HAL_Exported_Functions HAL Exported Functions
  80:STM32Cube_FW_N6/Drivers/STM32N6xx_HAL_Driver/Src/stm32n6xx_hal.c ****   * @{
  81:STM32Cube_FW_N6/Drivers/STM32N6xx_HAL_Driver/Src/stm32n6xx_hal.c ****   */
  82:STM32Cube_FW_N6/Drivers/STM32N6xx_HAL_Driver/Src/stm32n6xx_hal.c **** 
ARM GAS  C:\Users\DJESSOU\AppData\Local\Temp\ccIfw9Ia.s 			page 3


  83:STM32Cube_FW_N6/Drivers/STM32N6xx_HAL_Driver/Src/stm32n6xx_hal.c **** /** @defgroup HAL_Exported_Functions_Group1 Initialization and de-initialization Functions
  84:STM32Cube_FW_N6/Drivers/STM32N6xx_HAL_Driver/Src/stm32n6xx_hal.c ****   * @brief    Initialization and de-initialization functions
  85:STM32Cube_FW_N6/Drivers/STM32N6xx_HAL_Driver/Src/stm32n6xx_hal.c ****   *
  86:STM32Cube_FW_N6/Drivers/STM32N6xx_HAL_Driver/Src/stm32n6xx_hal.c **** @verbatim
  87:STM32Cube_FW_N6/Drivers/STM32N6xx_HAL_Driver/Src/stm32n6xx_hal.c ****  ===============================================================================
  88:STM32Cube_FW_N6/Drivers/STM32N6xx_HAL_Driver/Src/stm32n6xx_hal.c ****               ##### Initialization and de-initialization functions #####
  89:STM32Cube_FW_N6/Drivers/STM32N6xx_HAL_Driver/Src/stm32n6xx_hal.c ****  ===============================================================================
  90:STM32Cube_FW_N6/Drivers/STM32N6xx_HAL_Driver/Src/stm32n6xx_hal.c ****     [..]  This section provides functions allowing to:
  91:STM32Cube_FW_N6/Drivers/STM32N6xx_HAL_Driver/Src/stm32n6xx_hal.c ****       (+) Initializes the NVIC allocation and initial clock configuration.
  92:STM32Cube_FW_N6/Drivers/STM32N6xx_HAL_Driver/Src/stm32n6xx_hal.c ****           It initializes the systick also when timeout is needed
  93:STM32Cube_FW_N6/Drivers/STM32N6xx_HAL_Driver/Src/stm32n6xx_hal.c ****           and the backup domain when enabled.
  94:STM32Cube_FW_N6/Drivers/STM32N6xx_HAL_Driver/Src/stm32n6xx_hal.c ****       (+) De-Initializes common part of the HAL.
  95:STM32Cube_FW_N6/Drivers/STM32N6xx_HAL_Driver/Src/stm32n6xx_hal.c ****       (+) Configure The time base source to have 1ms time base with a dedicated
  96:STM32Cube_FW_N6/Drivers/STM32N6xx_HAL_Driver/Src/stm32n6xx_hal.c ****           Tick interrupt priority.
  97:STM32Cube_FW_N6/Drivers/STM32N6xx_HAL_Driver/Src/stm32n6xx_hal.c ****         (++) SysTick timer is used by default as source of time base, but user
  98:STM32Cube_FW_N6/Drivers/STM32N6xx_HAL_Driver/Src/stm32n6xx_hal.c ****              can eventually implement his proper time base source (a general purpose
  99:STM32Cube_FW_N6/Drivers/STM32N6xx_HAL_Driver/Src/stm32n6xx_hal.c ****              timer for example or other time source), keeping in mind that Time base
 100:STM32Cube_FW_N6/Drivers/STM32N6xx_HAL_Driver/Src/stm32n6xx_hal.c ****              duration should be kept 1ms since PPP_TIMEOUT_VALUEs are defined and
 101:STM32Cube_FW_N6/Drivers/STM32N6xx_HAL_Driver/Src/stm32n6xx_hal.c ****              handled in milliseconds basis.
 102:STM32Cube_FW_N6/Drivers/STM32N6xx_HAL_Driver/Src/stm32n6xx_hal.c ****         (++) Time base configuration function (HAL_InitTick ()) is called automatically
 103:STM32Cube_FW_N6/Drivers/STM32N6xx_HAL_Driver/Src/stm32n6xx_hal.c ****              at the beginning of the program after reset by HAL_Init() or at any time
 104:STM32Cube_FW_N6/Drivers/STM32N6xx_HAL_Driver/Src/stm32n6xx_hal.c ****              when clock is configured, by HAL_RCC_ClockConfig().
 105:STM32Cube_FW_N6/Drivers/STM32N6xx_HAL_Driver/Src/stm32n6xx_hal.c ****         (++) Source of time base is configured  to generate interrupts at regular
 106:STM32Cube_FW_N6/Drivers/STM32N6xx_HAL_Driver/Src/stm32n6xx_hal.c ****              time intervals. Care must be taken if HAL_Delay() is called from a
 107:STM32Cube_FW_N6/Drivers/STM32N6xx_HAL_Driver/Src/stm32n6xx_hal.c ****              peripheral ISR process, the Tick interrupt line must have higher priority
 108:STM32Cube_FW_N6/Drivers/STM32N6xx_HAL_Driver/Src/stm32n6xx_hal.c ****             (numerically lower) than the peripheral interrupt. Otherwise the caller
 109:STM32Cube_FW_N6/Drivers/STM32N6xx_HAL_Driver/Src/stm32n6xx_hal.c ****             ISR process will be blocked.
 110:STM32Cube_FW_N6/Drivers/STM32N6xx_HAL_Driver/Src/stm32n6xx_hal.c ****        (++) functions affecting time base configurations are declared as __weak
 111:STM32Cube_FW_N6/Drivers/STM32N6xx_HAL_Driver/Src/stm32n6xx_hal.c ****              to make  override possible  in case of other  implementations in user file.
 112:STM32Cube_FW_N6/Drivers/STM32N6xx_HAL_Driver/Src/stm32n6xx_hal.c **** @endverbatim
 113:STM32Cube_FW_N6/Drivers/STM32N6xx_HAL_Driver/Src/stm32n6xx_hal.c ****   * @{
 114:STM32Cube_FW_N6/Drivers/STM32N6xx_HAL_Driver/Src/stm32n6xx_hal.c ****   */
 115:STM32Cube_FW_N6/Drivers/STM32N6xx_HAL_Driver/Src/stm32n6xx_hal.c **** 
 116:STM32Cube_FW_N6/Drivers/STM32N6xx_HAL_Driver/Src/stm32n6xx_hal.c **** /**
 117:STM32Cube_FW_N6/Drivers/STM32N6xx_HAL_Driver/Src/stm32n6xx_hal.c ****   * @brief  Configure the time base source, NVIC and any required global low
 118:STM32Cube_FW_N6/Drivers/STM32N6xx_HAL_Driver/Src/stm32n6xx_hal.c ****   *         level hardware by calling the HAL_MspInit() callback function to be optionally defined
 119:STM32Cube_FW_N6/Drivers/STM32N6xx_HAL_Driver/Src/stm32n6xx_hal.c ****   *         in user file stm32n6xx_hal_msp.c.
 120:STM32Cube_FW_N6/Drivers/STM32N6xx_HAL_Driver/Src/stm32n6xx_hal.c ****   *
 121:STM32Cube_FW_N6/Drivers/STM32N6xx_HAL_Driver/Src/stm32n6xx_hal.c ****   * @note   HAL_Init() function is called at the beginning of program after reset and before
 122:STM32Cube_FW_N6/Drivers/STM32N6xx_HAL_Driver/Src/stm32n6xx_hal.c ****   *         the clock configuration.
 123:STM32Cube_FW_N6/Drivers/STM32N6xx_HAL_Driver/Src/stm32n6xx_hal.c ****   *
 124:STM32Cube_FW_N6/Drivers/STM32N6xx_HAL_Driver/Src/stm32n6xx_hal.c ****   * @note   In the default implementation the System Timer (Systick) is used as source of time base
 125:STM32Cube_FW_N6/Drivers/STM32N6xx_HAL_Driver/Src/stm32n6xx_hal.c ****   *         The Systick configuration is based on HSI clock, as HSI is the clock
 126:STM32Cube_FW_N6/Drivers/STM32N6xx_HAL_Driver/Src/stm32n6xx_hal.c ****   *         used after a system Reset and the NVIC configuration is set to Priority group 4.
 127:STM32Cube_FW_N6/Drivers/STM32N6xx_HAL_Driver/Src/stm32n6xx_hal.c ****   *         Once done, time base tick starts incrementing: the tick variable counter is incremented
 128:STM32Cube_FW_N6/Drivers/STM32N6xx_HAL_Driver/Src/stm32n6xx_hal.c ****   *         each 1ms in the SysTick_Handler() interrupt handler.
 129:STM32Cube_FW_N6/Drivers/STM32N6xx_HAL_Driver/Src/stm32n6xx_hal.c ****   *
 130:STM32Cube_FW_N6/Drivers/STM32N6xx_HAL_Driver/Src/stm32n6xx_hal.c ****   * @retval HAL status
 131:STM32Cube_FW_N6/Drivers/STM32N6xx_HAL_Driver/Src/stm32n6xx_hal.c ****   */
 132:STM32Cube_FW_N6/Drivers/STM32N6xx_HAL_Driver/Src/stm32n6xx_hal.c **** HAL_StatusTypeDef HAL_Init(void)
 133:STM32Cube_FW_N6/Drivers/STM32N6xx_HAL_Driver/Src/stm32n6xx_hal.c **** {
 134:STM32Cube_FW_N6/Drivers/STM32N6xx_HAL_Driver/Src/stm32n6xx_hal.c ****   /* Set Interrupt Group Priority */
 135:STM32Cube_FW_N6/Drivers/STM32N6xx_HAL_Driver/Src/stm32n6xx_hal.c ****   HAL_NVIC_SetPriorityGrouping(NVIC_PRIORITYGROUP_4);
 136:STM32Cube_FW_N6/Drivers/STM32N6xx_HAL_Driver/Src/stm32n6xx_hal.c **** 
 137:STM32Cube_FW_N6/Drivers/STM32N6xx_HAL_Driver/Src/stm32n6xx_hal.c ****   /* Ensure time base clock coherency in SystemCoreClock global variable */
 138:STM32Cube_FW_N6/Drivers/STM32N6xx_HAL_Driver/Src/stm32n6xx_hal.c ****   SystemCoreClockUpdate();
 139:STM32Cube_FW_N6/Drivers/STM32N6xx_HAL_Driver/Src/stm32n6xx_hal.c **** 
ARM GAS  C:\Users\DJESSOU\AppData\Local\Temp\ccIfw9Ia.s 			page 4


 140:STM32Cube_FW_N6/Drivers/STM32N6xx_HAL_Driver/Src/stm32n6xx_hal.c ****   /* Initialize 1ms tick time base (default SysTick based on HSI clock after Reset) */
 141:STM32Cube_FW_N6/Drivers/STM32N6xx_HAL_Driver/Src/stm32n6xx_hal.c ****   if (HAL_InitTick(TICK_INT_PRIORITY) != HAL_OK)
 142:STM32Cube_FW_N6/Drivers/STM32N6xx_HAL_Driver/Src/stm32n6xx_hal.c ****   {
 143:STM32Cube_FW_N6/Drivers/STM32N6xx_HAL_Driver/Src/stm32n6xx_hal.c ****     return HAL_ERROR;
 144:STM32Cube_FW_N6/Drivers/STM32N6xx_HAL_Driver/Src/stm32n6xx_hal.c ****   }
 145:STM32Cube_FW_N6/Drivers/STM32N6xx_HAL_Driver/Src/stm32n6xx_hal.c **** 
 146:STM32Cube_FW_N6/Drivers/STM32N6xx_HAL_Driver/Src/stm32n6xx_hal.c ****   /* Init the low level hardware */
 147:STM32Cube_FW_N6/Drivers/STM32N6xx_HAL_Driver/Src/stm32n6xx_hal.c ****   HAL_MspInit();
 148:STM32Cube_FW_N6/Drivers/STM32N6xx_HAL_Driver/Src/stm32n6xx_hal.c **** 
 149:STM32Cube_FW_N6/Drivers/STM32N6xx_HAL_Driver/Src/stm32n6xx_hal.c ****   /* Return function status */
 150:STM32Cube_FW_N6/Drivers/STM32N6xx_HAL_Driver/Src/stm32n6xx_hal.c ****   return HAL_OK;
 151:STM32Cube_FW_N6/Drivers/STM32N6xx_HAL_Driver/Src/stm32n6xx_hal.c **** }
 152:STM32Cube_FW_N6/Drivers/STM32N6xx_HAL_Driver/Src/stm32n6xx_hal.c **** 
 153:STM32Cube_FW_N6/Drivers/STM32N6xx_HAL_Driver/Src/stm32n6xx_hal.c **** /**
 154:STM32Cube_FW_N6/Drivers/STM32N6xx_HAL_Driver/Src/stm32n6xx_hal.c ****   * @brief  This function de-initializes all peripherals and low level hardware resources.
 155:STM32Cube_FW_N6/Drivers/STM32N6xx_HAL_Driver/Src/stm32n6xx_hal.c ****   * @note   This function should only be called from code running in internal RAM
 156:STM32Cube_FW_N6/Drivers/STM32N6xx_HAL_Driver/Src/stm32n6xx_hal.c ****   *         since it resets the external peripheral memory interfaces.
 157:STM32Cube_FW_N6/Drivers/STM32N6xx_HAL_Driver/Src/stm32n6xx_hal.c ****   * @note   This function is optional.
 158:STM32Cube_FW_N6/Drivers/STM32N6xx_HAL_Driver/Src/stm32n6xx_hal.c ****   * @retval HAL status
 159:STM32Cube_FW_N6/Drivers/STM32N6xx_HAL_Driver/Src/stm32n6xx_hal.c ****   */
 160:STM32Cube_FW_N6/Drivers/STM32N6xx_HAL_Driver/Src/stm32n6xx_hal.c **** HAL_StatusTypeDef HAL_DeInit(void)
 161:STM32Cube_FW_N6/Drivers/STM32N6xx_HAL_Driver/Src/stm32n6xx_hal.c **** {
 162:STM32Cube_FW_N6/Drivers/STM32N6xx_HAL_Driver/Src/stm32n6xx_hal.c ****   /* Reset of all peripherals */
 163:STM32Cube_FW_N6/Drivers/STM32N6xx_HAL_Driver/Src/stm32n6xx_hal.c ****   __HAL_RCC_APB1_FORCE_RESET();
 164:STM32Cube_FW_N6/Drivers/STM32N6xx_HAL_Driver/Src/stm32n6xx_hal.c ****   __HAL_RCC_APB1_RELEASE_RESET();
 165:STM32Cube_FW_N6/Drivers/STM32N6xx_HAL_Driver/Src/stm32n6xx_hal.c **** 
 166:STM32Cube_FW_N6/Drivers/STM32N6xx_HAL_Driver/Src/stm32n6xx_hal.c ****   __HAL_RCC_APB2_FORCE_RESET();
 167:STM32Cube_FW_N6/Drivers/STM32N6xx_HAL_Driver/Src/stm32n6xx_hal.c ****   __HAL_RCC_APB2_RELEASE_RESET();
 168:STM32Cube_FW_N6/Drivers/STM32N6xx_HAL_Driver/Src/stm32n6xx_hal.c **** 
 169:STM32Cube_FW_N6/Drivers/STM32N6xx_HAL_Driver/Src/stm32n6xx_hal.c ****   __HAL_RCC_APB4_FORCE_RESET();
 170:STM32Cube_FW_N6/Drivers/STM32N6xx_HAL_Driver/Src/stm32n6xx_hal.c ****   __HAL_RCC_APB4_RELEASE_RESET();
 171:STM32Cube_FW_N6/Drivers/STM32N6xx_HAL_Driver/Src/stm32n6xx_hal.c **** 
 172:STM32Cube_FW_N6/Drivers/STM32N6xx_HAL_Driver/Src/stm32n6xx_hal.c ****   __HAL_RCC_APB5_FORCE_RESET();
 173:STM32Cube_FW_N6/Drivers/STM32N6xx_HAL_Driver/Src/stm32n6xx_hal.c ****   __HAL_RCC_APB5_RELEASE_RESET();
 174:STM32Cube_FW_N6/Drivers/STM32N6xx_HAL_Driver/Src/stm32n6xx_hal.c **** 
 175:STM32Cube_FW_N6/Drivers/STM32N6xx_HAL_Driver/Src/stm32n6xx_hal.c ****   __HAL_RCC_AHB1_FORCE_RESET();
 176:STM32Cube_FW_N6/Drivers/STM32N6xx_HAL_Driver/Src/stm32n6xx_hal.c ****   __HAL_RCC_AHB1_RELEASE_RESET();
 177:STM32Cube_FW_N6/Drivers/STM32N6xx_HAL_Driver/Src/stm32n6xx_hal.c **** 
 178:STM32Cube_FW_N6/Drivers/STM32N6xx_HAL_Driver/Src/stm32n6xx_hal.c ****   __HAL_RCC_AHB2_FORCE_RESET();
 179:STM32Cube_FW_N6/Drivers/STM32N6xx_HAL_Driver/Src/stm32n6xx_hal.c ****   __HAL_RCC_AHB2_RELEASE_RESET();
 180:STM32Cube_FW_N6/Drivers/STM32N6xx_HAL_Driver/Src/stm32n6xx_hal.c **** 
 181:STM32Cube_FW_N6/Drivers/STM32N6xx_HAL_Driver/Src/stm32n6xx_hal.c ****   __HAL_RCC_AHB3_FORCE_RESET();
 182:STM32Cube_FW_N6/Drivers/STM32N6xx_HAL_Driver/Src/stm32n6xx_hal.c ****   __HAL_RCC_AHB3_RELEASE_RESET();
 183:STM32Cube_FW_N6/Drivers/STM32N6xx_HAL_Driver/Src/stm32n6xx_hal.c **** 
 184:STM32Cube_FW_N6/Drivers/STM32N6xx_HAL_Driver/Src/stm32n6xx_hal.c ****   __HAL_RCC_AHB4_FORCE_RESET();
 185:STM32Cube_FW_N6/Drivers/STM32N6xx_HAL_Driver/Src/stm32n6xx_hal.c ****   __HAL_RCC_AHB4_RELEASE_RESET();
 186:STM32Cube_FW_N6/Drivers/STM32N6xx_HAL_Driver/Src/stm32n6xx_hal.c **** 
 187:STM32Cube_FW_N6/Drivers/STM32N6xx_HAL_Driver/Src/stm32n6xx_hal.c ****   __HAL_RCC_AHB5_FORCE_RESET();
 188:STM32Cube_FW_N6/Drivers/STM32N6xx_HAL_Driver/Src/stm32n6xx_hal.c ****   __HAL_RCC_AHB5_RELEASE_RESET();
 189:STM32Cube_FW_N6/Drivers/STM32N6xx_HAL_Driver/Src/stm32n6xx_hal.c **** 
 190:STM32Cube_FW_N6/Drivers/STM32N6xx_HAL_Driver/Src/stm32n6xx_hal.c ****   /* De-Init the low level hardware */
 191:STM32Cube_FW_N6/Drivers/STM32N6xx_HAL_Driver/Src/stm32n6xx_hal.c ****   HAL_MspDeInit();
 192:STM32Cube_FW_N6/Drivers/STM32N6xx_HAL_Driver/Src/stm32n6xx_hal.c **** 
 193:STM32Cube_FW_N6/Drivers/STM32N6xx_HAL_Driver/Src/stm32n6xx_hal.c ****   /* Return function status */
 194:STM32Cube_FW_N6/Drivers/STM32N6xx_HAL_Driver/Src/stm32n6xx_hal.c ****   return HAL_OK;
 195:STM32Cube_FW_N6/Drivers/STM32N6xx_HAL_Driver/Src/stm32n6xx_hal.c **** }
 196:STM32Cube_FW_N6/Drivers/STM32N6xx_HAL_Driver/Src/stm32n6xx_hal.c **** 
ARM GAS  C:\Users\DJESSOU\AppData\Local\Temp\ccIfw9Ia.s 			page 5


 197:STM32Cube_FW_N6/Drivers/STM32N6xx_HAL_Driver/Src/stm32n6xx_hal.c **** /**
 198:STM32Cube_FW_N6/Drivers/STM32N6xx_HAL_Driver/Src/stm32n6xx_hal.c ****   * @brief  Initializes the MSP.
 199:STM32Cube_FW_N6/Drivers/STM32N6xx_HAL_Driver/Src/stm32n6xx_hal.c ****   * @retval None
 200:STM32Cube_FW_N6/Drivers/STM32N6xx_HAL_Driver/Src/stm32n6xx_hal.c ****   */
 201:STM32Cube_FW_N6/Drivers/STM32N6xx_HAL_Driver/Src/stm32n6xx_hal.c **** __weak void HAL_MspInit(void)
 202:STM32Cube_FW_N6/Drivers/STM32N6xx_HAL_Driver/Src/stm32n6xx_hal.c **** {
  34              		.loc 1 202 1 view -0
  35              		.cfi_startproc
  36              		@ args = 0, pretend = 0, frame = 0
  37              		@ frame_needed = 0, uses_anonymous_args = 0
  38              		@ link register save eliminated.
 203:STM32Cube_FW_N6/Drivers/STM32N6xx_HAL_Driver/Src/stm32n6xx_hal.c ****   /* NOTE : This function Should not be modified, when the callback is needed,
 204:STM32Cube_FW_N6/Drivers/STM32N6xx_HAL_Driver/Src/stm32n6xx_hal.c ****             the HAL_MspInit could be implemented in the user file
 205:STM32Cube_FW_N6/Drivers/STM32N6xx_HAL_Driver/Src/stm32n6xx_hal.c ****    */
 206:STM32Cube_FW_N6/Drivers/STM32N6xx_HAL_Driver/Src/stm32n6xx_hal.c **** }
  39              		.loc 1 206 1 view .LVU1
  40 0000 7047     		bx	lr
  41              		.cfi_endproc
  42              	.LFE864:
  44              		.section	.text.HAL_MspDeInit,"ax",%progbits
  45              		.align	1
  46              		.weak	HAL_MspDeInit
  47              		.syntax unified
  48              		.thumb
  49              		.thumb_func
  51              	HAL_MspDeInit:
  52              	.LFB983:
  53              		.cfi_startproc
 207:STM32Cube_FW_N6/Drivers/STM32N6xx_HAL_Driver/Src/stm32n6xx_hal.c **** 
 208:STM32Cube_FW_N6/Drivers/STM32N6xx_HAL_Driver/Src/stm32n6xx_hal.c **** /**
 209:STM32Cube_FW_N6/Drivers/STM32N6xx_HAL_Driver/Src/stm32n6xx_hal.c ****   * @brief  DeInitializes the MSP.
 210:STM32Cube_FW_N6/Drivers/STM32N6xx_HAL_Driver/Src/stm32n6xx_hal.c ****   * @retval None
 211:STM32Cube_FW_N6/Drivers/STM32N6xx_HAL_Driver/Src/stm32n6xx_hal.c ****   */
 212:STM32Cube_FW_N6/Drivers/STM32N6xx_HAL_Driver/Src/stm32n6xx_hal.c **** __weak void HAL_MspDeInit(void)
  54              		.loc 1 212 13 view -0
  55              		@ args = 0, pretend = 0, frame = 0
  56              		@ frame_needed = 0, uses_anonymous_args = 0
  57              		@ link register save eliminated.
  58 0000 7047     		bx	lr
  59              		.cfi_endproc
  60              	.LFE983:
  62              		.section	.text.HAL_DeInit,"ax",%progbits
  63              		.align	1
  64              		.global	HAL_DeInit
  65              		.syntax unified
  66              		.thumb
  67              		.thumb_func
  69              	HAL_DeInit:
  70              	.LFB863:
 161:STM32Cube_FW_N6/Drivers/STM32N6xx_HAL_Driver/Src/stm32n6xx_hal.c ****   /* Reset of all peripherals */
  71              		.loc 1 161 1 view -0
  72              		.cfi_startproc
  73              		@ args = 0, pretend = 0, frame = 0
  74              		@ frame_needed = 0, uses_anonymous_args = 0
 163:STM32Cube_FW_N6/Drivers/STM32N6xx_HAL_Driver/Src/stm32n6xx_hal.c ****   __HAL_RCC_APB1_RELEASE_RESET();
  75              		.loc 1 163 3 view .LVU4
 163:STM32Cube_FW_N6/Drivers/STM32N6xx_HAL_Driver/Src/stm32n6xx_hal.c ****   __HAL_RCC_APB1_RELEASE_RESET();
ARM GAS  C:\Users\DJESSOU\AppData\Local\Temp\ccIfw9Ia.s 			page 6


  76              		.loc 1 163 3 view .LVU5
 161:STM32Cube_FW_N6/Drivers/STM32N6xx_HAL_Driver/Src/stm32n6xx_hal.c ****   /* Reset of all peripherals */
  77              		.loc 1 161 1 is_stmt 0 view .LVU6
  78 0000 10B5     		push	{r4, lr}
  79              		.cfi_def_cfa_offset 8
  80              		.cfi_offset 4, -8
  81              		.cfi_offset 14, -4
 164:STM32Cube_FW_N6/Drivers/STM32N6xx_HAL_Driver/Src/stm32n6xx_hal.c **** 
  82              		.loc 1 164 3 view .LVU7
  83 0002 0024     		movs	r4, #0
 163:STM32Cube_FW_N6/Drivers/STM32N6xx_HAL_Driver/Src/stm32n6xx_hal.c ****   __HAL_RCC_APB1_RELEASE_RESET();
  84              		.loc 1 163 3 view .LVU8
  85 0004 1E4B     		ldr	r3, .L4
  86 0006 1F4A     		ldr	r2, .L4+4
  87 0008 C3F8242A 		str	r2, [r3, #2596]
 163:STM32Cube_FW_N6/Drivers/STM32N6xx_HAL_Driver/Src/stm32n6xx_hal.c ****   __HAL_RCC_APB1_RELEASE_RESET();
  88              		.loc 1 163 3 is_stmt 1 view .LVU9
  89 000c 1E4A     		ldr	r2, .L4+8
  90 000e C3F8282A 		str	r2, [r3, #2600]
 163:STM32Cube_FW_N6/Drivers/STM32N6xx_HAL_Driver/Src/stm32n6xx_hal.c ****   __HAL_RCC_APB1_RELEASE_RESET();
  91              		.loc 1 163 3 view .LVU10
 164:STM32Cube_FW_N6/Drivers/STM32N6xx_HAL_Driver/Src/stm32n6xx_hal.c **** 
  92              		.loc 1 164 3 view .LVU11
 164:STM32Cube_FW_N6/Drivers/STM32N6xx_HAL_Driver/Src/stm32n6xx_hal.c **** 
  93              		.loc 1 164 3 view .LVU12
 166:STM32Cube_FW_N6/Drivers/STM32N6xx_HAL_Driver/Src/stm32n6xx_hal.c ****   __HAL_RCC_APB2_RELEASE_RESET();
  94              		.loc 1 166 3 is_stmt 0 view .LVU13
  95 0012 1E4A     		ldr	r2, .L4+12
 164:STM32Cube_FW_N6/Drivers/STM32N6xx_HAL_Driver/Src/stm32n6xx_hal.c **** 
  96              		.loc 1 164 3 view .LVU14
  97 0014 C3F8244A 		str	r4, [r3, #2596]
 164:STM32Cube_FW_N6/Drivers/STM32N6xx_HAL_Driver/Src/stm32n6xx_hal.c **** 
  98              		.loc 1 164 3 is_stmt 1 view .LVU15
  99 0018 C3F8284A 		str	r4, [r3, #2600]
 164:STM32Cube_FW_N6/Drivers/STM32N6xx_HAL_Driver/Src/stm32n6xx_hal.c **** 
 100              		.loc 1 164 3 view .LVU16
 166:STM32Cube_FW_N6/Drivers/STM32N6xx_HAL_Driver/Src/stm32n6xx_hal.c ****   __HAL_RCC_APB2_RELEASE_RESET();
 101              		.loc 1 166 3 view .LVU17
 102 001c C3F82C2A 		str	r2, [r3, #2604]
 167:STM32Cube_FW_N6/Drivers/STM32N6xx_HAL_Driver/Src/stm32n6xx_hal.c **** 
 103              		.loc 1 167 3 view .LVU18
 169:STM32Cube_FW_N6/Drivers/STM32N6xx_HAL_Driver/Src/stm32n6xx_hal.c ****   __HAL_RCC_APB4_RELEASE_RESET();
 104              		.loc 1 169 3 is_stmt 0 view .LVU19
 105 0020 1B4A     		ldr	r2, .L4+16
 167:STM32Cube_FW_N6/Drivers/STM32N6xx_HAL_Driver/Src/stm32n6xx_hal.c **** 
 106              		.loc 1 167 3 view .LVU20
 107 0022 C3F82C4A 		str	r4, [r3, #2604]
 169:STM32Cube_FW_N6/Drivers/STM32N6xx_HAL_Driver/Src/stm32n6xx_hal.c ****   __HAL_RCC_APB4_RELEASE_RESET();
 108              		.loc 1 169 3 is_stmt 1 view .LVU21
 169:STM32Cube_FW_N6/Drivers/STM32N6xx_HAL_Driver/Src/stm32n6xx_hal.c ****   __HAL_RCC_APB4_RELEASE_RESET();
 109              		.loc 1 169 3 view .LVU22
 110 0026 C3F8342A 		str	r2, [r3, #2612]
 169:STM32Cube_FW_N6/Drivers/STM32N6xx_HAL_Driver/Src/stm32n6xx_hal.c ****   __HAL_RCC_APB4_RELEASE_RESET();
 111              		.loc 1 169 3 view .LVU23
 112 002a 0522     		movs	r2, #5
 113 002c C3F8382A 		str	r2, [r3, #2616]
 169:STM32Cube_FW_N6/Drivers/STM32N6xx_HAL_Driver/Src/stm32n6xx_hal.c ****   __HAL_RCC_APB4_RELEASE_RESET();
ARM GAS  C:\Users\DJESSOU\AppData\Local\Temp\ccIfw9Ia.s 			page 7


 114              		.loc 1 169 3 view .LVU24
 170:STM32Cube_FW_N6/Drivers/STM32N6xx_HAL_Driver/Src/stm32n6xx_hal.c **** 
 115              		.loc 1 170 3 view .LVU25
 170:STM32Cube_FW_N6/Drivers/STM32N6xx_HAL_Driver/Src/stm32n6xx_hal.c **** 
 116              		.loc 1 170 3 view .LVU26
 172:STM32Cube_FW_N6/Drivers/STM32N6xx_HAL_Driver/Src/stm32n6xx_hal.c ****   __HAL_RCC_APB5_RELEASE_RESET();
 117              		.loc 1 172 3 is_stmt 0 view .LVU27
 118 0030 7622     		movs	r2, #118
 170:STM32Cube_FW_N6/Drivers/STM32N6xx_HAL_Driver/Src/stm32n6xx_hal.c **** 
 119              		.loc 1 170 3 view .LVU28
 120 0032 C3F8344A 		str	r4, [r3, #2612]
 170:STM32Cube_FW_N6/Drivers/STM32N6xx_HAL_Driver/Src/stm32n6xx_hal.c **** 
 121              		.loc 1 170 3 is_stmt 1 view .LVU29
 122 0036 C3F8384A 		str	r4, [r3, #2616]
 170:STM32Cube_FW_N6/Drivers/STM32N6xx_HAL_Driver/Src/stm32n6xx_hal.c **** 
 123              		.loc 1 170 3 view .LVU30
 172:STM32Cube_FW_N6/Drivers/STM32N6xx_HAL_Driver/Src/stm32n6xx_hal.c ****   __HAL_RCC_APB5_RELEASE_RESET();
 124              		.loc 1 172 3 view .LVU31
 125 003a C3F83C2A 		str	r2, [r3, #2620]
 173:STM32Cube_FW_N6/Drivers/STM32N6xx_HAL_Driver/Src/stm32n6xx_hal.c **** 
 126              		.loc 1 173 3 view .LVU32
 175:STM32Cube_FW_N6/Drivers/STM32N6xx_HAL_Driver/Src/stm32n6xx_hal.c ****   __HAL_RCC_AHB1_RELEASE_RESET();
 127              		.loc 1 175 3 is_stmt 0 view .LVU33
 128 003e 3022     		movs	r2, #48
 173:STM32Cube_FW_N6/Drivers/STM32N6xx_HAL_Driver/Src/stm32n6xx_hal.c **** 
 129              		.loc 1 173 3 view .LVU34
 130 0040 C3F83C4A 		str	r4, [r3, #2620]
 175:STM32Cube_FW_N6/Drivers/STM32N6xx_HAL_Driver/Src/stm32n6xx_hal.c ****   __HAL_RCC_AHB1_RELEASE_RESET();
 131              		.loc 1 175 3 is_stmt 1 view .LVU35
 132 0044 C3F8102A 		str	r2, [r3, #2576]
 175:STM32Cube_FW_N6/Drivers/STM32N6xx_HAL_Driver/Src/stm32n6xx_hal.c ****   __HAL_RCC_AHB1_RELEASE_RESET();
 133              		.loc 1 175 31 view .LVU36
 176:STM32Cube_FW_N6/Drivers/STM32N6xx_HAL_Driver/Src/stm32n6xx_hal.c **** 
 134              		.loc 1 176 3 view .LVU37
 178:STM32Cube_FW_N6/Drivers/STM32N6xx_HAL_Driver/Src/stm32n6xx_hal.c ****   __HAL_RCC_AHB2_RELEASE_RESET();
 135              		.loc 1 178 3 is_stmt 0 view .LVU38
 136 0048 4FF44432 		mov	r2, #200704
 176:STM32Cube_FW_N6/Drivers/STM32N6xx_HAL_Driver/Src/stm32n6xx_hal.c **** 
 137              		.loc 1 176 3 view .LVU39
 138 004c C3F8104A 		str	r4, [r3, #2576]
 178:STM32Cube_FW_N6/Drivers/STM32N6xx_HAL_Driver/Src/stm32n6xx_hal.c ****   __HAL_RCC_AHB2_RELEASE_RESET();
 139              		.loc 1 178 3 is_stmt 1 view .LVU40
 140 0050 C3F8142A 		str	r2, [r3, #2580]
 178:STM32Cube_FW_N6/Drivers/STM32N6xx_HAL_Driver/Src/stm32n6xx_hal.c ****   __HAL_RCC_AHB2_RELEASE_RESET();
 141              		.loc 1 178 31 view .LVU41
 179:STM32Cube_FW_N6/Drivers/STM32N6xx_HAL_Driver/Src/stm32n6xx_hal.c **** 
 142              		.loc 1 179 3 view .LVU42
 181:STM32Cube_FW_N6/Drivers/STM32N6xx_HAL_Driver/Src/stm32n6xx_hal.c ****   __HAL_RCC_AHB3_RELEASE_RESET();
 143              		.loc 1 181 3 is_stmt 0 view .LVU43
 144 0054 40F21752 		movw	r2, #1303
 179:STM32Cube_FW_N6/Drivers/STM32N6xx_HAL_Driver/Src/stm32n6xx_hal.c **** 
 145              		.loc 1 179 3 view .LVU44
 146 0058 C3F8144A 		str	r4, [r3, #2580]
 181:STM32Cube_FW_N6/Drivers/STM32N6xx_HAL_Driver/Src/stm32n6xx_hal.c ****   __HAL_RCC_AHB3_RELEASE_RESET();
 147              		.loc 1 181 3 is_stmt 1 view .LVU45
 148 005c C3F8182A 		str	r2, [r3, #2584]
 181:STM32Cube_FW_N6/Drivers/STM32N6xx_HAL_Driver/Src/stm32n6xx_hal.c ****   __HAL_RCC_AHB3_RELEASE_RESET();
ARM GAS  C:\Users\DJESSOU\AppData\Local\Temp\ccIfw9Ia.s 			page 8


 149              		.loc 1 181 31 view .LVU46
 182:STM32Cube_FW_N6/Drivers/STM32N6xx_HAL_Driver/Src/stm32n6xx_hal.c **** 
 150              		.loc 1 182 3 view .LVU47
 184:STM32Cube_FW_N6/Drivers/STM32N6xx_HAL_Driver/Src/stm32n6xx_hal.c ****   __HAL_RCC_AHB4_RELEASE_RESET();
 151              		.loc 1 184 3 is_stmt 0 view .LVU48
 152 0060 0C4A     		ldr	r2, .L4+20
 182:STM32Cube_FW_N6/Drivers/STM32N6xx_HAL_Driver/Src/stm32n6xx_hal.c **** 
 153              		.loc 1 182 3 view .LVU49
 154 0062 C3F8184A 		str	r4, [r3, #2584]
 184:STM32Cube_FW_N6/Drivers/STM32N6xx_HAL_Driver/Src/stm32n6xx_hal.c ****   __HAL_RCC_AHB4_RELEASE_RESET();
 155              		.loc 1 184 3 is_stmt 1 view .LVU50
 156 0066 C3F81C2A 		str	r2, [r3, #2588]
 184:STM32Cube_FW_N6/Drivers/STM32N6xx_HAL_Driver/Src/stm32n6xx_hal.c ****   __HAL_RCC_AHB4_RELEASE_RESET();
 157              		.loc 1 184 31 view .LVU51
 185:STM32Cube_FW_N6/Drivers/STM32N6xx_HAL_Driver/Src/stm32n6xx_hal.c **** 
 158              		.loc 1 185 3 view .LVU52
 187:STM32Cube_FW_N6/Drivers/STM32N6xx_HAL_Driver/Src/stm32n6xx_hal.c ****   __HAL_RCC_AHB5_RELEASE_RESET();
 159              		.loc 1 187 3 is_stmt 0 view .LVU53
 160 006a 0B4A     		ldr	r2, .L4+24
 185:STM32Cube_FW_N6/Drivers/STM32N6xx_HAL_Driver/Src/stm32n6xx_hal.c **** 
 161              		.loc 1 185 3 view .LVU54
 162 006c C3F81C4A 		str	r4, [r3, #2588]
 187:STM32Cube_FW_N6/Drivers/STM32N6xx_HAL_Driver/Src/stm32n6xx_hal.c ****   __HAL_RCC_AHB5_RELEASE_RESET();
 163              		.loc 1 187 3 is_stmt 1 view .LVU55
 164 0070 C3F8202A 		str	r2, [r3, #2592]
 188:STM32Cube_FW_N6/Drivers/STM32N6xx_HAL_Driver/Src/stm32n6xx_hal.c **** 
 165              		.loc 1 188 3 view .LVU56
 166 0074 C3F8204A 		str	r4, [r3, #2592]
 191:STM32Cube_FW_N6/Drivers/STM32N6xx_HAL_Driver/Src/stm32n6xx_hal.c **** 
 167              		.loc 1 191 3 view .LVU57
 168 0078 FFF7FEFF 		bl	HAL_MspDeInit
 169              	.LVL0:
 194:STM32Cube_FW_N6/Drivers/STM32N6xx_HAL_Driver/Src/stm32n6xx_hal.c **** }
 170              		.loc 1 194 3 view .LVU58
 195:STM32Cube_FW_N6/Drivers/STM32N6xx_HAL_Driver/Src/stm32n6xx_hal.c **** 
 171              		.loc 1 195 1 is_stmt 0 view .LVU59
 172 007c 2046     		mov	r0, r4
 173 007e 10BD     		pop	{r4, pc}
 174              	.L5:
 175              		.align	2
 176              	.L4:
 177 0080 00800256 		.word	1443004416
 178 0084 FFF3FFC3 		.word	-1006636033
 179 0088 20010400 		.word	262432
 180 008c F3B07F00 		.word	8368371
 181 0090 AC9E0100 		.word	106156
 182 0094 FFE00D00 		.word	909567
 183 0098 FB319AFF 		.word	-6671877
 184              		.cfi_endproc
 185              	.LFE863:
 187              		.section	.text.HAL_InitTick,"ax",%progbits
 188              		.align	1
 189              		.weak	HAL_InitTick
 190              		.syntax unified
 191              		.thumb
 192              		.thumb_func
 194              	HAL_InitTick:
ARM GAS  C:\Users\DJESSOU\AppData\Local\Temp\ccIfw9Ia.s 			page 9


 195              	.LVL1:
 196              	.LFB866:
 213:STM32Cube_FW_N6/Drivers/STM32N6xx_HAL_Driver/Src/stm32n6xx_hal.c **** {
 214:STM32Cube_FW_N6/Drivers/STM32N6xx_HAL_Driver/Src/stm32n6xx_hal.c ****   /* NOTE : This function Should not be modified, when the callback is needed,
 215:STM32Cube_FW_N6/Drivers/STM32N6xx_HAL_Driver/Src/stm32n6xx_hal.c ****             the HAL_MspDeInit could be implemented in the user file
 216:STM32Cube_FW_N6/Drivers/STM32N6xx_HAL_Driver/Src/stm32n6xx_hal.c ****    */
 217:STM32Cube_FW_N6/Drivers/STM32N6xx_HAL_Driver/Src/stm32n6xx_hal.c **** }
 218:STM32Cube_FW_N6/Drivers/STM32N6xx_HAL_Driver/Src/stm32n6xx_hal.c **** 
 219:STM32Cube_FW_N6/Drivers/STM32N6xx_HAL_Driver/Src/stm32n6xx_hal.c **** /**
 220:STM32Cube_FW_N6/Drivers/STM32N6xx_HAL_Driver/Src/stm32n6xx_hal.c ****   * @brief This function configures the source of the time base.
 221:STM32Cube_FW_N6/Drivers/STM32N6xx_HAL_Driver/Src/stm32n6xx_hal.c ****   *        The time source is configured to have 1ms time base with a dedicated
 222:STM32Cube_FW_N6/Drivers/STM32N6xx_HAL_Driver/Src/stm32n6xx_hal.c ****   *        Tick interrupt priority.
 223:STM32Cube_FW_N6/Drivers/STM32N6xx_HAL_Driver/Src/stm32n6xx_hal.c ****   * @note This function is called  automatically at the beginning of program after
 224:STM32Cube_FW_N6/Drivers/STM32N6xx_HAL_Driver/Src/stm32n6xx_hal.c ****   *       reset by HAL_Init() or at any time when clock is reconfigured  by HAL_RCC_ClockConfig().
 225:STM32Cube_FW_N6/Drivers/STM32N6xx_HAL_Driver/Src/stm32n6xx_hal.c ****   * @note In the default implementation, SysTick timer is the source of time base.
 226:STM32Cube_FW_N6/Drivers/STM32N6xx_HAL_Driver/Src/stm32n6xx_hal.c ****   *       It is used to generate interrupts at regular time intervals.
 227:STM32Cube_FW_N6/Drivers/STM32N6xx_HAL_Driver/Src/stm32n6xx_hal.c ****   *       Care must be taken if HAL_Delay() is called from a peripheral ISR process,
 228:STM32Cube_FW_N6/Drivers/STM32N6xx_HAL_Driver/Src/stm32n6xx_hal.c ****   *       The SysTick interrupt must have higher priority (numerically lower)
 229:STM32Cube_FW_N6/Drivers/STM32N6xx_HAL_Driver/Src/stm32n6xx_hal.c ****   *       than the peripheral interrupt. Otherwise the caller ISR process will be blocked.
 230:STM32Cube_FW_N6/Drivers/STM32N6xx_HAL_Driver/Src/stm32n6xx_hal.c ****   *       The function is declared as __weak  to be overwritten  in case of other
 231:STM32Cube_FW_N6/Drivers/STM32N6xx_HAL_Driver/Src/stm32n6xx_hal.c ****   *       implementation  in user file.
 232:STM32Cube_FW_N6/Drivers/STM32N6xx_HAL_Driver/Src/stm32n6xx_hal.c ****   * @param TickPriority: Tick interrupt priority.
 233:STM32Cube_FW_N6/Drivers/STM32N6xx_HAL_Driver/Src/stm32n6xx_hal.c ****   * @retval HAL status
 234:STM32Cube_FW_N6/Drivers/STM32N6xx_HAL_Driver/Src/stm32n6xx_hal.c ****   */
 235:STM32Cube_FW_N6/Drivers/STM32N6xx_HAL_Driver/Src/stm32n6xx_hal.c **** __weak HAL_StatusTypeDef HAL_InitTick(uint32_t TickPriority)
 236:STM32Cube_FW_N6/Drivers/STM32N6xx_HAL_Driver/Src/stm32n6xx_hal.c **** {
 197              		.loc 1 236 1 is_stmt 1 view -0
 198              		.cfi_startproc
 199              		@ args = 0, pretend = 0, frame = 0
 200              		@ frame_needed = 0, uses_anonymous_args = 0
 237:STM32Cube_FW_N6/Drivers/STM32N6xx_HAL_Driver/Src/stm32n6xx_hal.c ****   /* Check uwTickFreq for MisraC 2012 (even if uwTickFreq is a enum type that don't take the value 
 238:STM32Cube_FW_N6/Drivers/STM32N6xx_HAL_Driver/Src/stm32n6xx_hal.c ****   if ((uint32_t)uwTickFreq == 0UL)
 201              		.loc 1 238 3 view .LVU61
 236:STM32Cube_FW_N6/Drivers/STM32N6xx_HAL_Driver/Src/stm32n6xx_hal.c ****   /* Check uwTickFreq for MisraC 2012 (even if uwTickFreq is a enum type that don't take the value 
 202              		.loc 1 236 1 is_stmt 0 view .LVU62
 203 0000 38B5     		push	{r3, r4, r5, lr}
 204              		.cfi_def_cfa_offset 16
 205              		.cfi_offset 3, -16
 206              		.cfi_offset 4, -12
 207              		.cfi_offset 5, -8
 208              		.cfi_offset 14, -4
 209              		.loc 1 238 28 view .LVU63
 210 0002 0F4B     		ldr	r3, .L10
 236:STM32Cube_FW_N6/Drivers/STM32N6xx_HAL_Driver/Src/stm32n6xx_hal.c ****   /* Check uwTickFreq for MisraC 2012 (even if uwTickFreq is a enum type that don't take the value 
 211              		.loc 1 236 1 view .LVU64
 212 0004 0546     		mov	r5, r0
 213              		.loc 1 238 28 view .LVU65
 214 0006 1A78     		ldrb	r2, [r3]	@ zero_extendqisi2
 215              		.loc 1 238 6 view .LVU66
 216 0008 0AB9     		cbnz	r2, .L7
 217              	.LVL2:
 218              	.L9:
 239:STM32Cube_FW_N6/Drivers/STM32N6xx_HAL_Driver/Src/stm32n6xx_hal.c ****   {
 240:STM32Cube_FW_N6/Drivers/STM32N6xx_HAL_Driver/Src/stm32n6xx_hal.c ****     return HAL_ERROR;
 219              		.loc 1 240 12 view .LVU67
 220 000a 0120     		movs	r0, #1
 221              	.L8:
ARM GAS  C:\Users\DJESSOU\AppData\Local\Temp\ccIfw9Ia.s 			page 10


 241:STM32Cube_FW_N6/Drivers/STM32N6xx_HAL_Driver/Src/stm32n6xx_hal.c ****   }
 242:STM32Cube_FW_N6/Drivers/STM32N6xx_HAL_Driver/Src/stm32n6xx_hal.c **** 
 243:STM32Cube_FW_N6/Drivers/STM32N6xx_HAL_Driver/Src/stm32n6xx_hal.c ****   /* Configure the SysTick to have interrupt in 1ms time basis*/
 244:STM32Cube_FW_N6/Drivers/STM32N6xx_HAL_Driver/Src/stm32n6xx_hal.c ****   if (HAL_SYSTICK_Config(SystemCoreClock / (1000UL / (uint32_t)uwTickFreq)) > 0U)
 245:STM32Cube_FW_N6/Drivers/STM32N6xx_HAL_Driver/Src/stm32n6xx_hal.c ****   {
 246:STM32Cube_FW_N6/Drivers/STM32N6xx_HAL_Driver/Src/stm32n6xx_hal.c ****     return HAL_ERROR;
 247:STM32Cube_FW_N6/Drivers/STM32N6xx_HAL_Driver/Src/stm32n6xx_hal.c ****   }
 248:STM32Cube_FW_N6/Drivers/STM32N6xx_HAL_Driver/Src/stm32n6xx_hal.c **** 
 249:STM32Cube_FW_N6/Drivers/STM32N6xx_HAL_Driver/Src/stm32n6xx_hal.c ****   /* Configure the SysTick IRQ priority */
 250:STM32Cube_FW_N6/Drivers/STM32N6xx_HAL_Driver/Src/stm32n6xx_hal.c ****   if (TickPriority < (1UL << __NVIC_PRIO_BITS))
 251:STM32Cube_FW_N6/Drivers/STM32N6xx_HAL_Driver/Src/stm32n6xx_hal.c ****   {
 252:STM32Cube_FW_N6/Drivers/STM32N6xx_HAL_Driver/Src/stm32n6xx_hal.c ****     HAL_NVIC_SetPriority(SysTick_IRQn, TickPriority, 0U);
 253:STM32Cube_FW_N6/Drivers/STM32N6xx_HAL_Driver/Src/stm32n6xx_hal.c ****     uwTickPrio = TickPriority;
 254:STM32Cube_FW_N6/Drivers/STM32N6xx_HAL_Driver/Src/stm32n6xx_hal.c ****   }
 255:STM32Cube_FW_N6/Drivers/STM32N6xx_HAL_Driver/Src/stm32n6xx_hal.c ****   else
 256:STM32Cube_FW_N6/Drivers/STM32N6xx_HAL_Driver/Src/stm32n6xx_hal.c ****   {
 257:STM32Cube_FW_N6/Drivers/STM32N6xx_HAL_Driver/Src/stm32n6xx_hal.c ****     return HAL_ERROR;
 258:STM32Cube_FW_N6/Drivers/STM32N6xx_HAL_Driver/Src/stm32n6xx_hal.c ****   }
 259:STM32Cube_FW_N6/Drivers/STM32N6xx_HAL_Driver/Src/stm32n6xx_hal.c **** 
 260:STM32Cube_FW_N6/Drivers/STM32N6xx_HAL_Driver/Src/stm32n6xx_hal.c ****   /* Return function status */
 261:STM32Cube_FW_N6/Drivers/STM32N6xx_HAL_Driver/Src/stm32n6xx_hal.c ****   return HAL_OK;
 262:STM32Cube_FW_N6/Drivers/STM32N6xx_HAL_Driver/Src/stm32n6xx_hal.c **** }
 222              		.loc 1 262 1 view .LVU68
 223 000c 38BD     		pop	{r3, r4, r5, pc}
 224              	.LVL3:
 225              	.L7:
 244:STM32Cube_FW_N6/Drivers/STM32N6xx_HAL_Driver/Src/stm32n6xx_hal.c ****   {
 226              		.loc 1 244 3 is_stmt 1 view .LVU69
 244:STM32Cube_FW_N6/Drivers/STM32N6xx_HAL_Driver/Src/stm32n6xx_hal.c ****   {
 227              		.loc 1 244 52 is_stmt 0 view .LVU70
 228 000e 4FF47A73 		mov	r3, #1000
 229 0012 B3FBF2F3 		udiv	r3, r3, r2
 244:STM32Cube_FW_N6/Drivers/STM32N6xx_HAL_Driver/Src/stm32n6xx_hal.c ****   {
 230              		.loc 1 244 7 view .LVU71
 231 0016 0B4A     		ldr	r2, .L10+4
 232 0018 1068     		ldr	r0, [r2]
 233              	.LVL4:
 244:STM32Cube_FW_N6/Drivers/STM32N6xx_HAL_Driver/Src/stm32n6xx_hal.c ****   {
 234              		.loc 1 244 7 view .LVU72
 235 001a B0FBF3F0 		udiv	r0, r0, r3
 236 001e FFF7FEFF 		bl	HAL_SYSTICK_Config
 237              	.LVL5:
 244:STM32Cube_FW_N6/Drivers/STM32N6xx_HAL_Driver/Src/stm32n6xx_hal.c ****   {
 238              		.loc 1 244 6 discriminator 1 view .LVU73
 239 0022 0446     		mov	r4, r0
 240 0024 0028     		cmp	r0, #0
 241 0026 F0D1     		bne	.L9
 250:STM32Cube_FW_N6/Drivers/STM32N6xx_HAL_Driver/Src/stm32n6xx_hal.c ****   {
 242              		.loc 1 250 3 is_stmt 1 view .LVU74
 250:STM32Cube_FW_N6/Drivers/STM32N6xx_HAL_Driver/Src/stm32n6xx_hal.c ****   {
 243              		.loc 1 250 6 is_stmt 0 view .LVU75
 244 0028 0F2D     		cmp	r5, #15
 245 002a EED8     		bhi	.L9
 246              	.LVL6:
 247              	.LBB4:
 248              	.LBI4:
 235:STM32Cube_FW_N6/Drivers/STM32N6xx_HAL_Driver/Src/stm32n6xx_hal.c **** {
ARM GAS  C:\Users\DJESSOU\AppData\Local\Temp\ccIfw9Ia.s 			page 11


 249              		.loc 1 235 26 is_stmt 1 view .LVU76
 250              	.LBB5:
 252:STM32Cube_FW_N6/Drivers/STM32N6xx_HAL_Driver/Src/stm32n6xx_hal.c ****     uwTickPrio = TickPriority;
 251              		.loc 1 252 5 view .LVU77
 252 002c 0246     		mov	r2, r0
 253 002e 2946     		mov	r1, r5
 254 0030 4FF0FF30 		mov	r0, #-1
 255 0034 FFF7FEFF 		bl	HAL_NVIC_SetPriority
 256              	.LVL7:
 253:STM32Cube_FW_N6/Drivers/STM32N6xx_HAL_Driver/Src/stm32n6xx_hal.c ****   }
 257              		.loc 1 253 5 view .LVU78
 253:STM32Cube_FW_N6/Drivers/STM32N6xx_HAL_Driver/Src/stm32n6xx_hal.c ****   }
 258              		.loc 1 253 16 is_stmt 0 view .LVU79
 259 0038 034B     		ldr	r3, .L10+8
 260 003a 2046     		mov	r0, r4
 261 003c 1D60     		str	r5, [r3]
 261:STM32Cube_FW_N6/Drivers/STM32N6xx_HAL_Driver/Src/stm32n6xx_hal.c **** }
 262              		.loc 1 261 3 is_stmt 1 view .LVU80
 263              	.LVL8:
 261:STM32Cube_FW_N6/Drivers/STM32N6xx_HAL_Driver/Src/stm32n6xx_hal.c **** }
 264              		.loc 1 261 3 is_stmt 0 view .LVU81
 265 003e E5E7     		b	.L8
 266              	.L11:
 267              		.align	2
 268              	.L10:
 269 0040 00000000 		.word	uwTickFreq
 270 0044 00000000 		.word	SystemCoreClock
 271 0048 00000000 		.word	uwTickPrio
 272              	.LBE5:
 273              	.LBE4:
 274              		.cfi_endproc
 275              	.LFE866:
 277              		.section	.text.HAL_Init,"ax",%progbits
 278              		.align	1
 279              		.global	HAL_Init
 280              		.syntax unified
 281              		.thumb
 282              		.thumb_func
 284              	HAL_Init:
 285              	.LFB862:
 133:STM32Cube_FW_N6/Drivers/STM32N6xx_HAL_Driver/Src/stm32n6xx_hal.c ****   /* Set Interrupt Group Priority */
 286              		.loc 1 133 1 is_stmt 1 view -0
 287              		.cfi_startproc
 288              		@ args = 0, pretend = 0, frame = 0
 289              		@ frame_needed = 0, uses_anonymous_args = 0
 135:STM32Cube_FW_N6/Drivers/STM32N6xx_HAL_Driver/Src/stm32n6xx_hal.c **** 
 290              		.loc 1 135 3 view .LVU83
 133:STM32Cube_FW_N6/Drivers/STM32N6xx_HAL_Driver/Src/stm32n6xx_hal.c ****   /* Set Interrupt Group Priority */
 291              		.loc 1 133 1 is_stmt 0 view .LVU84
 292 0000 10B5     		push	{r4, lr}
 293              		.cfi_def_cfa_offset 8
 294              		.cfi_offset 4, -8
 295              		.cfi_offset 14, -4
 135:STM32Cube_FW_N6/Drivers/STM32N6xx_HAL_Driver/Src/stm32n6xx_hal.c **** 
 296              		.loc 1 135 3 view .LVU85
 297 0002 0320     		movs	r0, #3
 298 0004 FFF7FEFF 		bl	HAL_NVIC_SetPriorityGrouping
ARM GAS  C:\Users\DJESSOU\AppData\Local\Temp\ccIfw9Ia.s 			page 12


 299              	.LVL9:
 138:STM32Cube_FW_N6/Drivers/STM32N6xx_HAL_Driver/Src/stm32n6xx_hal.c **** 
 300              		.loc 1 138 3 is_stmt 1 view .LVU86
 301 0008 FFF7FEFF 		bl	SystemCoreClockUpdate
 302              	.LVL10:
 141:STM32Cube_FW_N6/Drivers/STM32N6xx_HAL_Driver/Src/stm32n6xx_hal.c ****   {
 303              		.loc 1 141 3 view .LVU87
 141:STM32Cube_FW_N6/Drivers/STM32N6xx_HAL_Driver/Src/stm32n6xx_hal.c ****   {
 304              		.loc 1 141 7 is_stmt 0 view .LVU88
 305 000c 0F20     		movs	r0, #15
 306 000e FFF7FEFF 		bl	HAL_InitTick
 307              	.LVL11:
 141:STM32Cube_FW_N6/Drivers/STM32N6xx_HAL_Driver/Src/stm32n6xx_hal.c ****   {
 308              		.loc 1 141 6 discriminator 1 view .LVU89
 309 0012 0446     		mov	r4, r0
 310 0014 18B9     		cbnz	r0, .L14
 147:STM32Cube_FW_N6/Drivers/STM32N6xx_HAL_Driver/Src/stm32n6xx_hal.c **** 
 311              		.loc 1 147 3 is_stmt 1 view .LVU90
 312 0016 FFF7FEFF 		bl	HAL_MspInit
 313              	.LVL12:
 150:STM32Cube_FW_N6/Drivers/STM32N6xx_HAL_Driver/Src/stm32n6xx_hal.c **** }
 314              		.loc 1 150 3 view .LVU91
 315              	.L13:
 151:STM32Cube_FW_N6/Drivers/STM32N6xx_HAL_Driver/Src/stm32n6xx_hal.c **** 
 316              		.loc 1 151 1 is_stmt 0 view .LVU92
 317 001a 2046     		mov	r0, r4
 318 001c 10BD     		pop	{r4, pc}
 319              	.L14:
 143:STM32Cube_FW_N6/Drivers/STM32N6xx_HAL_Driver/Src/stm32n6xx_hal.c ****   }
 320              		.loc 1 143 12 view .LVU93
 321 001e 0124     		movs	r4, #1
 322 0020 FBE7     		b	.L13
 323              		.cfi_endproc
 324              	.LFE862:
 326              		.section	.text.HAL_IncTick,"ax",%progbits
 327              		.align	1
 328              		.weak	HAL_IncTick
 329              		.syntax unified
 330              		.thumb
 331              		.thumb_func
 333              	HAL_IncTick:
 334              	.LFB867:
 263:STM32Cube_FW_N6/Drivers/STM32N6xx_HAL_Driver/Src/stm32n6xx_hal.c **** 
 264:STM32Cube_FW_N6/Drivers/STM32N6xx_HAL_Driver/Src/stm32n6xx_hal.c **** /**
 265:STM32Cube_FW_N6/Drivers/STM32N6xx_HAL_Driver/Src/stm32n6xx_hal.c ****   * @}
 266:STM32Cube_FW_N6/Drivers/STM32N6xx_HAL_Driver/Src/stm32n6xx_hal.c ****   */
 267:STM32Cube_FW_N6/Drivers/STM32N6xx_HAL_Driver/Src/stm32n6xx_hal.c **** 
 268:STM32Cube_FW_N6/Drivers/STM32N6xx_HAL_Driver/Src/stm32n6xx_hal.c **** /** @defgroup HAL_Group2 HAL Control functions
 269:STM32Cube_FW_N6/Drivers/STM32N6xx_HAL_Driver/Src/stm32n6xx_hal.c ****   *  @brief    HAL Control functions
 270:STM32Cube_FW_N6/Drivers/STM32N6xx_HAL_Driver/Src/stm32n6xx_hal.c ****   *
 271:STM32Cube_FW_N6/Drivers/STM32N6xx_HAL_Driver/Src/stm32n6xx_hal.c **** @verbatim
 272:STM32Cube_FW_N6/Drivers/STM32N6xx_HAL_Driver/Src/stm32n6xx_hal.c ****  ===============================================================================
 273:STM32Cube_FW_N6/Drivers/STM32N6xx_HAL_Driver/Src/stm32n6xx_hal.c ****                       ##### HAL Control functions #####
 274:STM32Cube_FW_N6/Drivers/STM32N6xx_HAL_Driver/Src/stm32n6xx_hal.c ****  ===============================================================================
 275:STM32Cube_FW_N6/Drivers/STM32N6xx_HAL_Driver/Src/stm32n6xx_hal.c ****     [..]  This section provides functions allowing to:
 276:STM32Cube_FW_N6/Drivers/STM32N6xx_HAL_Driver/Src/stm32n6xx_hal.c ****       (+) Provide a tick value in millisecond
 277:STM32Cube_FW_N6/Drivers/STM32N6xx_HAL_Driver/Src/stm32n6xx_hal.c ****       (+) Provide a blocking delay in millisecond
ARM GAS  C:\Users\DJESSOU\AppData\Local\Temp\ccIfw9Ia.s 			page 13


 278:STM32Cube_FW_N6/Drivers/STM32N6xx_HAL_Driver/Src/stm32n6xx_hal.c ****       (+) Suspend the time base source interrupt
 279:STM32Cube_FW_N6/Drivers/STM32N6xx_HAL_Driver/Src/stm32n6xx_hal.c ****       (+) Resume the time base source interrupt
 280:STM32Cube_FW_N6/Drivers/STM32N6xx_HAL_Driver/Src/stm32n6xx_hal.c ****       (+) Get the HAL API driver version
 281:STM32Cube_FW_N6/Drivers/STM32N6xx_HAL_Driver/Src/stm32n6xx_hal.c ****       (+) Get the device identifier
 282:STM32Cube_FW_N6/Drivers/STM32N6xx_HAL_Driver/Src/stm32n6xx_hal.c ****       (+) Get the device revision identifier
 283:STM32Cube_FW_N6/Drivers/STM32N6xx_HAL_Driver/Src/stm32n6xx_hal.c ****       (+) Enable/Disable Debug module during SLEEP mode
 284:STM32Cube_FW_N6/Drivers/STM32N6xx_HAL_Driver/Src/stm32n6xx_hal.c ****       (+) Enable/Disable Debug module during STOP mode
 285:STM32Cube_FW_N6/Drivers/STM32N6xx_HAL_Driver/Src/stm32n6xx_hal.c ****       (+) Enable/Disable Debug module during STANDBY mode
 286:STM32Cube_FW_N6/Drivers/STM32N6xx_HAL_Driver/Src/stm32n6xx_hal.c **** 
 287:STM32Cube_FW_N6/Drivers/STM32N6xx_HAL_Driver/Src/stm32n6xx_hal.c **** @endverbatim
 288:STM32Cube_FW_N6/Drivers/STM32N6xx_HAL_Driver/Src/stm32n6xx_hal.c ****   * @{
 289:STM32Cube_FW_N6/Drivers/STM32N6xx_HAL_Driver/Src/stm32n6xx_hal.c ****   */
 290:STM32Cube_FW_N6/Drivers/STM32N6xx_HAL_Driver/Src/stm32n6xx_hal.c **** 
 291:STM32Cube_FW_N6/Drivers/STM32N6xx_HAL_Driver/Src/stm32n6xx_hal.c **** /**
 292:STM32Cube_FW_N6/Drivers/STM32N6xx_HAL_Driver/Src/stm32n6xx_hal.c ****   * @brief This function is called to increment a global variable "uwTick"
 293:STM32Cube_FW_N6/Drivers/STM32N6xx_HAL_Driver/Src/stm32n6xx_hal.c ****   *        used as application time base.
 294:STM32Cube_FW_N6/Drivers/STM32N6xx_HAL_Driver/Src/stm32n6xx_hal.c ****   * @note In the default implementation, this variable is incremented each 1ms
 295:STM32Cube_FW_N6/Drivers/STM32N6xx_HAL_Driver/Src/stm32n6xx_hal.c ****   *       in Systick ISR.
 296:STM32Cube_FW_N6/Drivers/STM32N6xx_HAL_Driver/Src/stm32n6xx_hal.c ****   * @note This function is declared as __weak to be overwritten in case of other
 297:STM32Cube_FW_N6/Drivers/STM32N6xx_HAL_Driver/Src/stm32n6xx_hal.c ****   *       implementations in user file.
 298:STM32Cube_FW_N6/Drivers/STM32N6xx_HAL_Driver/Src/stm32n6xx_hal.c ****   * @retval None
 299:STM32Cube_FW_N6/Drivers/STM32N6xx_HAL_Driver/Src/stm32n6xx_hal.c ****   */
 300:STM32Cube_FW_N6/Drivers/STM32N6xx_HAL_Driver/Src/stm32n6xx_hal.c **** __weak void HAL_IncTick(void)
 301:STM32Cube_FW_N6/Drivers/STM32N6xx_HAL_Driver/Src/stm32n6xx_hal.c **** {
 335              		.loc 1 301 1 is_stmt 1 view -0
 336              		.cfi_startproc
 337              		@ args = 0, pretend = 0, frame = 0
 338              		@ frame_needed = 0, uses_anonymous_args = 0
 339              		@ link register save eliminated.
 302:STM32Cube_FW_N6/Drivers/STM32N6xx_HAL_Driver/Src/stm32n6xx_hal.c ****   uwTick += (uint32_t)uwTickFreq;
 340              		.loc 1 302 3 view .LVU95
 341              		.loc 1 302 10 is_stmt 0 view .LVU96
 342 0000 034A     		ldr	r2, .L16
 343              		.loc 1 302 13 view .LVU97
 344 0002 044B     		ldr	r3, .L16+4
 345              		.loc 1 302 10 view .LVU98
 346 0004 1168     		ldr	r1, [r2]
 347              		.loc 1 302 13 view .LVU99
 348 0006 1B78     		ldrb	r3, [r3]	@ zero_extendqisi2
 349              		.loc 1 302 10 view .LVU100
 350 0008 0B44     		add	r3, r3, r1
 351 000a 1360     		str	r3, [r2]
 303:STM32Cube_FW_N6/Drivers/STM32N6xx_HAL_Driver/Src/stm32n6xx_hal.c **** }
 352              		.loc 1 303 1 view .LVU101
 353 000c 7047     		bx	lr
 354              	.L17:
 355 000e 00BF     		.align	2
 356              	.L16:
 357 0010 00000000 		.word	uwTick
 358 0014 00000000 		.word	uwTickFreq
 359              		.cfi_endproc
 360              	.LFE867:
 362              		.section	.text.HAL_GetTick,"ax",%progbits
 363              		.align	1
 364              		.weak	HAL_GetTick
 365              		.syntax unified
 366              		.thumb
ARM GAS  C:\Users\DJESSOU\AppData\Local\Temp\ccIfw9Ia.s 			page 14


 367              		.thumb_func
 369              	HAL_GetTick:
 370              	.LFB868:
 304:STM32Cube_FW_N6/Drivers/STM32N6xx_HAL_Driver/Src/stm32n6xx_hal.c **** 
 305:STM32Cube_FW_N6/Drivers/STM32N6xx_HAL_Driver/Src/stm32n6xx_hal.c **** /**
 306:STM32Cube_FW_N6/Drivers/STM32N6xx_HAL_Driver/Src/stm32n6xx_hal.c ****   * @brief Provides a tick value in millisecond.
 307:STM32Cube_FW_N6/Drivers/STM32N6xx_HAL_Driver/Src/stm32n6xx_hal.c ****   * @note This function is declared as __weak to be overwritten in case of other
 308:STM32Cube_FW_N6/Drivers/STM32N6xx_HAL_Driver/Src/stm32n6xx_hal.c ****   *       implementations in user file.
 309:STM32Cube_FW_N6/Drivers/STM32N6xx_HAL_Driver/Src/stm32n6xx_hal.c ****   * @retval tick value
 310:STM32Cube_FW_N6/Drivers/STM32N6xx_HAL_Driver/Src/stm32n6xx_hal.c ****   */
 311:STM32Cube_FW_N6/Drivers/STM32N6xx_HAL_Driver/Src/stm32n6xx_hal.c **** __weak uint32_t HAL_GetTick(void)
 312:STM32Cube_FW_N6/Drivers/STM32N6xx_HAL_Driver/Src/stm32n6xx_hal.c **** {
 371              		.loc 1 312 1 is_stmt 1 view -0
 372              		.cfi_startproc
 373              		@ args = 0, pretend = 0, frame = 0
 374              		@ frame_needed = 0, uses_anonymous_args = 0
 375              		@ link register save eliminated.
 313:STM32Cube_FW_N6/Drivers/STM32N6xx_HAL_Driver/Src/stm32n6xx_hal.c ****   return uwTick;
 376              		.loc 1 313 3 view .LVU103
 377              		.loc 1 313 10 is_stmt 0 view .LVU104
 378 0000 014B     		ldr	r3, .L19
 379 0002 1868     		ldr	r0, [r3]
 314:STM32Cube_FW_N6/Drivers/STM32N6xx_HAL_Driver/Src/stm32n6xx_hal.c **** }
 380              		.loc 1 314 1 view .LVU105
 381 0004 7047     		bx	lr
 382              	.L20:
 383 0006 00BF     		.align	2
 384              	.L19:
 385 0008 00000000 		.word	uwTick
 386              		.cfi_endproc
 387              	.LFE868:
 389              		.section	.text.HAL_GetTickPrio,"ax",%progbits
 390              		.align	1
 391              		.global	HAL_GetTickPrio
 392              		.syntax unified
 393              		.thumb
 394              		.thumb_func
 396              	HAL_GetTickPrio:
 397              	.LFB869:
 315:STM32Cube_FW_N6/Drivers/STM32N6xx_HAL_Driver/Src/stm32n6xx_hal.c **** 
 316:STM32Cube_FW_N6/Drivers/STM32N6xx_HAL_Driver/Src/stm32n6xx_hal.c **** /**
 317:STM32Cube_FW_N6/Drivers/STM32N6xx_HAL_Driver/Src/stm32n6xx_hal.c ****   * @brief This function returns a tick priority.
 318:STM32Cube_FW_N6/Drivers/STM32N6xx_HAL_Driver/Src/stm32n6xx_hal.c ****   * @retval tick priority
 319:STM32Cube_FW_N6/Drivers/STM32N6xx_HAL_Driver/Src/stm32n6xx_hal.c ****   */
 320:STM32Cube_FW_N6/Drivers/STM32N6xx_HAL_Driver/Src/stm32n6xx_hal.c **** uint32_t HAL_GetTickPrio(void)
 321:STM32Cube_FW_N6/Drivers/STM32N6xx_HAL_Driver/Src/stm32n6xx_hal.c **** {
 398              		.loc 1 321 1 is_stmt 1 view -0
 399              		.cfi_startproc
 400              		@ args = 0, pretend = 0, frame = 0
 401              		@ frame_needed = 0, uses_anonymous_args = 0
 402              		@ link register save eliminated.
 322:STM32Cube_FW_N6/Drivers/STM32N6xx_HAL_Driver/Src/stm32n6xx_hal.c ****   return uwTickPrio;
 403              		.loc 1 322 3 view .LVU107
 323:STM32Cube_FW_N6/Drivers/STM32N6xx_HAL_Driver/Src/stm32n6xx_hal.c **** }
 404              		.loc 1 323 1 is_stmt 0 view .LVU108
 405 0000 014B     		ldr	r3, .L22
 406 0002 1868     		ldr	r0, [r3]
ARM GAS  C:\Users\DJESSOU\AppData\Local\Temp\ccIfw9Ia.s 			page 15


 407 0004 7047     		bx	lr
 408              	.L23:
 409 0006 00BF     		.align	2
 410              	.L22:
 411 0008 00000000 		.word	uwTickPrio
 412              		.cfi_endproc
 413              	.LFE869:
 415              		.section	.rodata.HAL_SetTickFreq.str1.1,"aMS",%progbits,1
 416              	.LC0:
 417 0000 53544D33 		.ascii	"STM32Cube_FW_N6/Drivers/STM32N6xx_HAL_Driver/Src/st"
 417      32437562 
 417      655F4657 
 417      5F4E362F 
 417      44726976 
 418 0033 6D33326E 		.ascii	"m32n6xx_hal.c\000"
 418      3678785F 
 418      68616C2E 
 418      6300
 419              		.section	.text.HAL_SetTickFreq,"ax",%progbits
 420              		.align	1
 421              		.global	HAL_SetTickFreq
 422              		.syntax unified
 423              		.thumb
 424              		.thumb_func
 426              	HAL_SetTickFreq:
 427              	.LVL13:
 428              	.LFB870:
 324:STM32Cube_FW_N6/Drivers/STM32N6xx_HAL_Driver/Src/stm32n6xx_hal.c **** 
 325:STM32Cube_FW_N6/Drivers/STM32N6xx_HAL_Driver/Src/stm32n6xx_hal.c **** /**
 326:STM32Cube_FW_N6/Drivers/STM32N6xx_HAL_Driver/Src/stm32n6xx_hal.c ****   * @brief Set new tick Freq.
 327:STM32Cube_FW_N6/Drivers/STM32N6xx_HAL_Driver/Src/stm32n6xx_hal.c ****   * @param Freq Tick frequency, value of @ref HAL_TickFreqTypeDef.
 328:STM32Cube_FW_N6/Drivers/STM32N6xx_HAL_Driver/Src/stm32n6xx_hal.c ****   * @retval HAL status
 329:STM32Cube_FW_N6/Drivers/STM32N6xx_HAL_Driver/Src/stm32n6xx_hal.c ****   */
 330:STM32Cube_FW_N6/Drivers/STM32N6xx_HAL_Driver/Src/stm32n6xx_hal.c **** HAL_StatusTypeDef HAL_SetTickFreq(HAL_TickFreqTypeDef Freq)
 331:STM32Cube_FW_N6/Drivers/STM32N6xx_HAL_Driver/Src/stm32n6xx_hal.c **** {
 429              		.loc 1 331 1 is_stmt 1 view -0
 430              		.cfi_startproc
 431              		@ args = 0, pretend = 0, frame = 0
 432              		@ frame_needed = 0, uses_anonymous_args = 0
 332:STM32Cube_FW_N6/Drivers/STM32N6xx_HAL_Driver/Src/stm32n6xx_hal.c ****   HAL_StatusTypeDef status  = HAL_OK;
 433              		.loc 1 332 3 view .LVU110
 333:STM32Cube_FW_N6/Drivers/STM32N6xx_HAL_Driver/Src/stm32n6xx_hal.c ****   HAL_TickFreqTypeDef prevTickFreq;
 434              		.loc 1 333 3 view .LVU111
 334:STM32Cube_FW_N6/Drivers/STM32N6xx_HAL_Driver/Src/stm32n6xx_hal.c **** 
 335:STM32Cube_FW_N6/Drivers/STM32N6xx_HAL_Driver/Src/stm32n6xx_hal.c ****   assert_param(IS_TICKFREQ(Freq));
 435              		.loc 1 335 3 view .LVU112
 436 0000 6428     		cmp	r0, #100
 331:STM32Cube_FW_N6/Drivers/STM32N6xx_HAL_Driver/Src/stm32n6xx_hal.c ****   HAL_StatusTypeDef status  = HAL_OK;
 437              		.loc 1 331 1 is_stmt 0 view .LVU113
 438 0002 70B5     		push	{r4, r5, r6, lr}
 439              		.cfi_def_cfa_offset 16
 440              		.cfi_offset 4, -16
 441              		.cfi_offset 5, -12
 442              		.cfi_offset 6, -8
 443              		.cfi_offset 14, -4
 331:STM32Cube_FW_N6/Drivers/STM32N6xx_HAL_Driver/Src/stm32n6xx_hal.c ****   HAL_StatusTypeDef status  = HAL_OK;
 444              		.loc 1 331 1 view .LVU114
ARM GAS  C:\Users\DJESSOU\AppData\Local\Temp\ccIfw9Ia.s 			page 16


 445 0004 0446     		mov	r4, r0
 446              		.loc 1 335 3 view .LVU115
 447 0006 08D0     		beq	.L25
 448              		.loc 1 335 3 discriminator 1 view .LVU116
 449 0008 0A28     		cmp	r0, #10
 450 000a 06D0     		beq	.L25
 451              		.loc 1 335 3 discriminator 2 view .LVU117
 452 000c 0128     		cmp	r0, #1
 453 000e 04D0     		beq	.L25
 454              		.loc 1 335 3 discriminator 3 view .LVU118
 455 0010 40F24F11 		movw	r1, #335
 456 0014 0848     		ldr	r0, .L39
 457              	.LVL14:
 458              		.loc 1 335 3 discriminator 3 view .LVU119
 459 0016 FFF7FEFF 		bl	assert_failed
 460              	.LVL15:
 461              	.L25:
 336:STM32Cube_FW_N6/Drivers/STM32N6xx_HAL_Driver/Src/stm32n6xx_hal.c **** 
 337:STM32Cube_FW_N6/Drivers/STM32N6xx_HAL_Driver/Src/stm32n6xx_hal.c ****   if (uwTickFreq != Freq)
 462              		.loc 1 337 3 is_stmt 1 view .LVU120
 463              		.loc 1 337 18 is_stmt 0 view .LVU121
 464 001a 084D     		ldr	r5, .L39+4
 465 001c 2E78     		ldrb	r6, [r5]	@ zero_extendqisi2
 466              		.loc 1 337 6 view .LVU122
 467 001e A642     		cmp	r6, r4
 468 0020 07D0     		beq	.L29
 338:STM32Cube_FW_N6/Drivers/STM32N6xx_HAL_Driver/Src/stm32n6xx_hal.c ****   {
 339:STM32Cube_FW_N6/Drivers/STM32N6xx_HAL_Driver/Src/stm32n6xx_hal.c ****     /* Back up uwTickFreq frequency */
 340:STM32Cube_FW_N6/Drivers/STM32N6xx_HAL_Driver/Src/stm32n6xx_hal.c ****     prevTickFreq = uwTickFreq;
 469              		.loc 1 340 5 is_stmt 1 view .LVU123
 470              	.LVL16:
 341:STM32Cube_FW_N6/Drivers/STM32N6xx_HAL_Driver/Src/stm32n6xx_hal.c **** 
 342:STM32Cube_FW_N6/Drivers/STM32N6xx_HAL_Driver/Src/stm32n6xx_hal.c ****     /* Update uwTickFreq global variable used by HAL_InitTick() */
 343:STM32Cube_FW_N6/Drivers/STM32N6xx_HAL_Driver/Src/stm32n6xx_hal.c ****     uwTickFreq = Freq;
 471              		.loc 1 343 5 view .LVU124
 344:STM32Cube_FW_N6/Drivers/STM32N6xx_HAL_Driver/Src/stm32n6xx_hal.c **** 
 345:STM32Cube_FW_N6/Drivers/STM32N6xx_HAL_Driver/Src/stm32n6xx_hal.c ****     /* Apply the new tick Freq  */
 346:STM32Cube_FW_N6/Drivers/STM32N6xx_HAL_Driver/Src/stm32n6xx_hal.c ****     status = HAL_InitTick(uwTickPrio);
 472              		.loc 1 346 14 is_stmt 0 view .LVU125
 473 0022 074B     		ldr	r3, .L39+8
 343:STM32Cube_FW_N6/Drivers/STM32N6xx_HAL_Driver/Src/stm32n6xx_hal.c **** 
 474              		.loc 1 343 16 view .LVU126
 475 0024 2C70     		strb	r4, [r5]
 476              		.loc 1 346 5 is_stmt 1 view .LVU127
 477              		.loc 1 346 14 is_stmt 0 view .LVU128
 478 0026 1868     		ldr	r0, [r3]
 479 0028 FFF7FEFF 		bl	HAL_InitTick
 480              	.LVL17:
 347:STM32Cube_FW_N6/Drivers/STM32N6xx_HAL_Driver/Src/stm32n6xx_hal.c ****     if (status != HAL_OK)
 481              		.loc 1 347 5 is_stmt 1 view .LVU129
 482              		.loc 1 347 8 is_stmt 0 view .LVU130
 483 002c 00B1     		cbz	r0, .L26
 348:STM32Cube_FW_N6/Drivers/STM32N6xx_HAL_Driver/Src/stm32n6xx_hal.c ****     {
 349:STM32Cube_FW_N6/Drivers/STM32N6xx_HAL_Driver/Src/stm32n6xx_hal.c ****       /* Restore previous tick frequency */
 350:STM32Cube_FW_N6/Drivers/STM32N6xx_HAL_Driver/Src/stm32n6xx_hal.c ****       uwTickFreq = prevTickFreq;
 484              		.loc 1 350 7 is_stmt 1 view .LVU131
 485              		.loc 1 350 18 is_stmt 0 view .LVU132
ARM GAS  C:\Users\DJESSOU\AppData\Local\Temp\ccIfw9Ia.s 			page 17


 486 002e 2E70     		strb	r6, [r5]
 487              	.LVL18:
 488              	.L26:
 351:STM32Cube_FW_N6/Drivers/STM32N6xx_HAL_Driver/Src/stm32n6xx_hal.c ****     }
 352:STM32Cube_FW_N6/Drivers/STM32N6xx_HAL_Driver/Src/stm32n6xx_hal.c ****   }
 353:STM32Cube_FW_N6/Drivers/STM32N6xx_HAL_Driver/Src/stm32n6xx_hal.c **** 
 354:STM32Cube_FW_N6/Drivers/STM32N6xx_HAL_Driver/Src/stm32n6xx_hal.c ****   return status;
 489              		.loc 1 354 3 is_stmt 1 view .LVU133
 355:STM32Cube_FW_N6/Drivers/STM32N6xx_HAL_Driver/Src/stm32n6xx_hal.c **** }
 490              		.loc 1 355 1 is_stmt 0 view .LVU134
 491 0030 70BD     		pop	{r4, r5, r6, pc}
 492              	.LVL19:
 493              	.L29:
 332:STM32Cube_FW_N6/Drivers/STM32N6xx_HAL_Driver/Src/stm32n6xx_hal.c ****   HAL_TickFreqTypeDef prevTickFreq;
 494              		.loc 1 332 21 view .LVU135
 495 0032 0020     		movs	r0, #0
 496 0034 FCE7     		b	.L26
 497              	.L40:
 498 0036 00BF     		.align	2
 499              	.L39:
 500 0038 00000000 		.word	.LC0
 501 003c 00000000 		.word	uwTickFreq
 502 0040 00000000 		.word	uwTickPrio
 503              		.cfi_endproc
 504              	.LFE870:
 506              		.section	.text.HAL_GetTickFreq,"ax",%progbits
 507              		.align	1
 508              		.global	HAL_GetTickFreq
 509              		.syntax unified
 510              		.thumb
 511              		.thumb_func
 513              	HAL_GetTickFreq:
 514              	.LFB871:
 356:STM32Cube_FW_N6/Drivers/STM32N6xx_HAL_Driver/Src/stm32n6xx_hal.c **** 
 357:STM32Cube_FW_N6/Drivers/STM32N6xx_HAL_Driver/Src/stm32n6xx_hal.c **** /**
 358:STM32Cube_FW_N6/Drivers/STM32N6xx_HAL_Driver/Src/stm32n6xx_hal.c ****   * @brief Return tick frequency.
 359:STM32Cube_FW_N6/Drivers/STM32N6xx_HAL_Driver/Src/stm32n6xx_hal.c ****   * @retval Tick frequency.
 360:STM32Cube_FW_N6/Drivers/STM32N6xx_HAL_Driver/Src/stm32n6xx_hal.c ****   *         Value of @ref HAL_TickFreqTypeDef.
 361:STM32Cube_FW_N6/Drivers/STM32N6xx_HAL_Driver/Src/stm32n6xx_hal.c ****   */
 362:STM32Cube_FW_N6/Drivers/STM32N6xx_HAL_Driver/Src/stm32n6xx_hal.c **** HAL_TickFreqTypeDef HAL_GetTickFreq(void)
 363:STM32Cube_FW_N6/Drivers/STM32N6xx_HAL_Driver/Src/stm32n6xx_hal.c **** {
 515              		.loc 1 363 1 is_stmt 1 view -0
 516              		.cfi_startproc
 517              		@ args = 0, pretend = 0, frame = 0
 518              		@ frame_needed = 0, uses_anonymous_args = 0
 519              		@ link register save eliminated.
 364:STM32Cube_FW_N6/Drivers/STM32N6xx_HAL_Driver/Src/stm32n6xx_hal.c ****   return uwTickFreq;
 520              		.loc 1 364 3 view .LVU137
 365:STM32Cube_FW_N6/Drivers/STM32N6xx_HAL_Driver/Src/stm32n6xx_hal.c **** }
 521              		.loc 1 365 1 is_stmt 0 view .LVU138
 522 0000 014B     		ldr	r3, .L42
 523 0002 1878     		ldrb	r0, [r3]	@ zero_extendqisi2
 524 0004 7047     		bx	lr
 525              	.L43:
 526 0006 00BF     		.align	2
 527              	.L42:
 528 0008 00000000 		.word	uwTickFreq
ARM GAS  C:\Users\DJESSOU\AppData\Local\Temp\ccIfw9Ia.s 			page 18


 529              		.cfi_endproc
 530              	.LFE871:
 532              		.section	.text.HAL_Delay,"ax",%progbits
 533              		.align	1
 534              		.weak	HAL_Delay
 535              		.syntax unified
 536              		.thumb
 537              		.thumb_func
 539              	HAL_Delay:
 540              	.LVL20:
 541              	.LFB872:
 366:STM32Cube_FW_N6/Drivers/STM32N6xx_HAL_Driver/Src/stm32n6xx_hal.c **** 
 367:STM32Cube_FW_N6/Drivers/STM32N6xx_HAL_Driver/Src/stm32n6xx_hal.c **** /**
 368:STM32Cube_FW_N6/Drivers/STM32N6xx_HAL_Driver/Src/stm32n6xx_hal.c ****   * @brief This function provides minimum delay (in milliseconds) based
 369:STM32Cube_FW_N6/Drivers/STM32N6xx_HAL_Driver/Src/stm32n6xx_hal.c ****   *        on variable incremented.
 370:STM32Cube_FW_N6/Drivers/STM32N6xx_HAL_Driver/Src/stm32n6xx_hal.c ****   * @note In the default implementation , SysTick timer is the source of time base.
 371:STM32Cube_FW_N6/Drivers/STM32N6xx_HAL_Driver/Src/stm32n6xx_hal.c ****   *       It is used to generate interrupts at regular time intervals where uwTick
 372:STM32Cube_FW_N6/Drivers/STM32N6xx_HAL_Driver/Src/stm32n6xx_hal.c ****   *       is incremented.
 373:STM32Cube_FW_N6/Drivers/STM32N6xx_HAL_Driver/Src/stm32n6xx_hal.c ****   * @note This function is declared as __weak to be overwritten in case of other
 374:STM32Cube_FW_N6/Drivers/STM32N6xx_HAL_Driver/Src/stm32n6xx_hal.c ****   *       implementations in user file.
 375:STM32Cube_FW_N6/Drivers/STM32N6xx_HAL_Driver/Src/stm32n6xx_hal.c ****   * @param Delay Specifies the delay time length, in milliseconds.
 376:STM32Cube_FW_N6/Drivers/STM32N6xx_HAL_Driver/Src/stm32n6xx_hal.c ****   * @retval None
 377:STM32Cube_FW_N6/Drivers/STM32N6xx_HAL_Driver/Src/stm32n6xx_hal.c ****   */
 378:STM32Cube_FW_N6/Drivers/STM32N6xx_HAL_Driver/Src/stm32n6xx_hal.c **** __weak void HAL_Delay(uint32_t Delay)
 379:STM32Cube_FW_N6/Drivers/STM32N6xx_HAL_Driver/Src/stm32n6xx_hal.c **** {
 542              		.loc 1 379 1 is_stmt 1 view -0
 543              		.cfi_startproc
 544              		@ args = 0, pretend = 0, frame = 0
 545              		@ frame_needed = 0, uses_anonymous_args = 0
 380:STM32Cube_FW_N6/Drivers/STM32N6xx_HAL_Driver/Src/stm32n6xx_hal.c ****   uint32_t tickstart = HAL_GetTick();
 546              		.loc 1 380 3 view .LVU140
 379:STM32Cube_FW_N6/Drivers/STM32N6xx_HAL_Driver/Src/stm32n6xx_hal.c ****   uint32_t tickstart = HAL_GetTick();
 547              		.loc 1 379 1 is_stmt 0 view .LVU141
 548 0000 38B5     		push	{r3, r4, r5, lr}
 549              		.cfi_def_cfa_offset 16
 550              		.cfi_offset 3, -16
 551              		.cfi_offset 4, -12
 552              		.cfi_offset 5, -8
 553              		.cfi_offset 14, -4
 379:STM32Cube_FW_N6/Drivers/STM32N6xx_HAL_Driver/Src/stm32n6xx_hal.c ****   uint32_t tickstart = HAL_GetTick();
 554              		.loc 1 379 1 view .LVU142
 555 0002 0446     		mov	r4, r0
 556              		.loc 1 380 24 view .LVU143
 557 0004 FFF7FEFF 		bl	HAL_GetTick
 558              	.LVL21:
 559              		.loc 1 380 24 view .LVU144
 560 0008 0546     		mov	r5, r0
 561              	.LVL22:
 381:STM32Cube_FW_N6/Drivers/STM32N6xx_HAL_Driver/Src/stm32n6xx_hal.c ****   uint32_t wait = Delay;
 562              		.loc 1 381 3 is_stmt 1 view .LVU145
 382:STM32Cube_FW_N6/Drivers/STM32N6xx_HAL_Driver/Src/stm32n6xx_hal.c **** 
 383:STM32Cube_FW_N6/Drivers/STM32N6xx_HAL_Driver/Src/stm32n6xx_hal.c ****   /* Add a freq to guarantee minimum wait */
 384:STM32Cube_FW_N6/Drivers/STM32N6xx_HAL_Driver/Src/stm32n6xx_hal.c ****   if (wait < HAL_MAX_DELAY)
 563              		.loc 1 384 3 view .LVU146
 564              		.loc 1 384 6 is_stmt 0 view .LVU147
 565 000a 631C     		adds	r3, r4, #1
 385:STM32Cube_FW_N6/Drivers/STM32N6xx_HAL_Driver/Src/stm32n6xx_hal.c ****   {
ARM GAS  C:\Users\DJESSOU\AppData\Local\Temp\ccIfw9Ia.s 			page 19


 386:STM32Cube_FW_N6/Drivers/STM32N6xx_HAL_Driver/Src/stm32n6xx_hal.c ****     wait += (uint32_t)(uwTickFreq);
 566              		.loc 1 386 5 is_stmt 1 view .LVU148
 567              		.loc 1 386 13 is_stmt 0 view .LVU149
 568 000c 1EBF     		ittt	ne
 569 000e 044B     		ldrne	r3, .L51
 570 0010 1B78     		ldrbne	r3, [r3]	@ zero_extendqisi2
 571              		.loc 1 386 10 view .LVU150
 572 0012 E418     		addne	r4, r4, r3
 573              	.LVL23:
 574              	.L46:
 387:STM32Cube_FW_N6/Drivers/STM32N6xx_HAL_Driver/Src/stm32n6xx_hal.c ****   }
 388:STM32Cube_FW_N6/Drivers/STM32N6xx_HAL_Driver/Src/stm32n6xx_hal.c **** 
 389:STM32Cube_FW_N6/Drivers/STM32N6xx_HAL_Driver/Src/stm32n6xx_hal.c ****   while ((HAL_GetTick() - tickstart) < wait)
 390:STM32Cube_FW_N6/Drivers/STM32N6xx_HAL_Driver/Src/stm32n6xx_hal.c ****   {
 391:STM32Cube_FW_N6/Drivers/STM32N6xx_HAL_Driver/Src/stm32n6xx_hal.c ****   }
 575              		.loc 1 391 3 is_stmt 1 view .LVU151
 389:STM32Cube_FW_N6/Drivers/STM32N6xx_HAL_Driver/Src/stm32n6xx_hal.c ****   {
 576              		.loc 1 389 38 discriminator 1 view .LVU152
 389:STM32Cube_FW_N6/Drivers/STM32N6xx_HAL_Driver/Src/stm32n6xx_hal.c ****   {
 577              		.loc 1 389 11 is_stmt 0 discriminator 1 view .LVU153
 578 0014 FFF7FEFF 		bl	HAL_GetTick
 579              	.LVL24:
 389:STM32Cube_FW_N6/Drivers/STM32N6xx_HAL_Driver/Src/stm32n6xx_hal.c ****   {
 580              		.loc 1 389 25 discriminator 1 view .LVU154
 581 0018 431B     		subs	r3, r0, r5
 389:STM32Cube_FW_N6/Drivers/STM32N6xx_HAL_Driver/Src/stm32n6xx_hal.c ****   {
 582              		.loc 1 389 38 discriminator 1 view .LVU155
 583 001a A342     		cmp	r3, r4
 584 001c FAD3     		bcc	.L46
 392:STM32Cube_FW_N6/Drivers/STM32N6xx_HAL_Driver/Src/stm32n6xx_hal.c **** }
 585              		.loc 1 392 1 view .LVU156
 586 001e 38BD     		pop	{r3, r4, r5, pc}
 587              	.LVL25:
 588              	.L52:
 589              		.loc 1 392 1 view .LVU157
 590              		.align	2
 591              	.L51:
 592 0020 00000000 		.word	uwTickFreq
 593              		.cfi_endproc
 594              	.LFE872:
 596              		.section	.text.HAL_SuspendTick,"ax",%progbits
 597              		.align	1
 598              		.weak	HAL_SuspendTick
 599              		.syntax unified
 600              		.thumb
 601              		.thumb_func
 603              	HAL_SuspendTick:
 604              	.LFB873:
 393:STM32Cube_FW_N6/Drivers/STM32N6xx_HAL_Driver/Src/stm32n6xx_hal.c **** 
 394:STM32Cube_FW_N6/Drivers/STM32N6xx_HAL_Driver/Src/stm32n6xx_hal.c **** /**
 395:STM32Cube_FW_N6/Drivers/STM32N6xx_HAL_Driver/Src/stm32n6xx_hal.c ****   * @brief Suspend Tick increment.
 396:STM32Cube_FW_N6/Drivers/STM32N6xx_HAL_Driver/Src/stm32n6xx_hal.c ****   * @note In the default implementation , SysTick timer is the source of time base. It is
 397:STM32Cube_FW_N6/Drivers/STM32N6xx_HAL_Driver/Src/stm32n6xx_hal.c ****   *       used to generate interrupts at regular time intervals. Once HAL_SuspendTick()
 398:STM32Cube_FW_N6/Drivers/STM32N6xx_HAL_Driver/Src/stm32n6xx_hal.c ****   *       is called, the SysTick interrupt will be disabled and so Tick increment
 399:STM32Cube_FW_N6/Drivers/STM32N6xx_HAL_Driver/Src/stm32n6xx_hal.c ****   *       is suspended.
 400:STM32Cube_FW_N6/Drivers/STM32N6xx_HAL_Driver/Src/stm32n6xx_hal.c ****   * @note This function is declared as __weak to be overwritten in case of other
 401:STM32Cube_FW_N6/Drivers/STM32N6xx_HAL_Driver/Src/stm32n6xx_hal.c ****   *       implementations in user file.
ARM GAS  C:\Users\DJESSOU\AppData\Local\Temp\ccIfw9Ia.s 			page 20


 402:STM32Cube_FW_N6/Drivers/STM32N6xx_HAL_Driver/Src/stm32n6xx_hal.c ****   * @retval None
 403:STM32Cube_FW_N6/Drivers/STM32N6xx_HAL_Driver/Src/stm32n6xx_hal.c ****   */
 404:STM32Cube_FW_N6/Drivers/STM32N6xx_HAL_Driver/Src/stm32n6xx_hal.c **** __weak void HAL_SuspendTick(void)
 405:STM32Cube_FW_N6/Drivers/STM32N6xx_HAL_Driver/Src/stm32n6xx_hal.c **** {
 605              		.loc 1 405 1 is_stmt 1 view -0
 606              		.cfi_startproc
 607              		@ args = 0, pretend = 0, frame = 0
 608              		@ frame_needed = 0, uses_anonymous_args = 0
 609              		@ link register save eliminated.
 406:STM32Cube_FW_N6/Drivers/STM32N6xx_HAL_Driver/Src/stm32n6xx_hal.c ****   /* Disable SysTick Interrupt */
 407:STM32Cube_FW_N6/Drivers/STM32N6xx_HAL_Driver/Src/stm32n6xx_hal.c ****   SysTick->CTRL &= ~SysTick_CTRL_TICKINT_Msk;
 610              		.loc 1 407 3 view .LVU159
 611              		.loc 1 407 10 is_stmt 0 view .LVU160
 612 0000 4FF0E022 		mov	r2, #-536813568
 613 0004 1369     		ldr	r3, [r2, #16]
 614              		.loc 1 407 17 view .LVU161
 615 0006 23F00203 		bic	r3, r3, #2
 616 000a 1361     		str	r3, [r2, #16]
 408:STM32Cube_FW_N6/Drivers/STM32N6xx_HAL_Driver/Src/stm32n6xx_hal.c **** }
 617              		.loc 1 408 1 view .LVU162
 618 000c 7047     		bx	lr
 619              		.cfi_endproc
 620              	.LFE873:
 622              		.section	.text.HAL_ResumeTick,"ax",%progbits
 623              		.align	1
 624              		.weak	HAL_ResumeTick
 625              		.syntax unified
 626              		.thumb
 627              		.thumb_func
 629              	HAL_ResumeTick:
 630              	.LFB874:
 409:STM32Cube_FW_N6/Drivers/STM32N6xx_HAL_Driver/Src/stm32n6xx_hal.c **** 
 410:STM32Cube_FW_N6/Drivers/STM32N6xx_HAL_Driver/Src/stm32n6xx_hal.c **** /**
 411:STM32Cube_FW_N6/Drivers/STM32N6xx_HAL_Driver/Src/stm32n6xx_hal.c ****   * @brief Resume Tick increment.
 412:STM32Cube_FW_N6/Drivers/STM32N6xx_HAL_Driver/Src/stm32n6xx_hal.c ****   * @note In the default implementation , SysTick timer is the source of time base. It is
 413:STM32Cube_FW_N6/Drivers/STM32N6xx_HAL_Driver/Src/stm32n6xx_hal.c ****   *       used to generate interrupts at regular time intervals. Once HAL_ResumeTick()
 414:STM32Cube_FW_N6/Drivers/STM32N6xx_HAL_Driver/Src/stm32n6xx_hal.c ****   *       is called, the SysTick interrupt will be enabled and so Tick increment
 415:STM32Cube_FW_N6/Drivers/STM32N6xx_HAL_Driver/Src/stm32n6xx_hal.c ****   *       is resumed.
 416:STM32Cube_FW_N6/Drivers/STM32N6xx_HAL_Driver/Src/stm32n6xx_hal.c ****   * @note This function is declared as __weak to be overwritten in case of other
 417:STM32Cube_FW_N6/Drivers/STM32N6xx_HAL_Driver/Src/stm32n6xx_hal.c ****   *       implementations in user file.
 418:STM32Cube_FW_N6/Drivers/STM32N6xx_HAL_Driver/Src/stm32n6xx_hal.c ****   * @retval None
 419:STM32Cube_FW_N6/Drivers/STM32N6xx_HAL_Driver/Src/stm32n6xx_hal.c ****   */
 420:STM32Cube_FW_N6/Drivers/STM32N6xx_HAL_Driver/Src/stm32n6xx_hal.c **** __weak void HAL_ResumeTick(void)
 421:STM32Cube_FW_N6/Drivers/STM32N6xx_HAL_Driver/Src/stm32n6xx_hal.c **** {
 631              		.loc 1 421 1 is_stmt 1 view -0
 632              		.cfi_startproc
 633              		@ args = 0, pretend = 0, frame = 0
 634              		@ frame_needed = 0, uses_anonymous_args = 0
 635              		@ link register save eliminated.
 422:STM32Cube_FW_N6/Drivers/STM32N6xx_HAL_Driver/Src/stm32n6xx_hal.c ****   /* Enable SysTick Interrupt */
 423:STM32Cube_FW_N6/Drivers/STM32N6xx_HAL_Driver/Src/stm32n6xx_hal.c ****   SysTick->CTRL  |= SysTick_CTRL_TICKINT_Msk;
 636              		.loc 1 423 3 view .LVU164
 637              		.loc 1 423 10 is_stmt 0 view .LVU165
 638 0000 4FF0E022 		mov	r2, #-536813568
 639 0004 1369     		ldr	r3, [r2, #16]
 640              		.loc 1 423 18 view .LVU166
 641 0006 43F00203 		orr	r3, r3, #2
ARM GAS  C:\Users\DJESSOU\AppData\Local\Temp\ccIfw9Ia.s 			page 21


 642 000a 1361     		str	r3, [r2, #16]
 424:STM32Cube_FW_N6/Drivers/STM32N6xx_HAL_Driver/Src/stm32n6xx_hal.c **** }
 643              		.loc 1 424 1 view .LVU167
 644 000c 7047     		bx	lr
 645              		.cfi_endproc
 646              	.LFE874:
 648              		.section	.text.HAL_GetHalVersion,"ax",%progbits
 649              		.align	1
 650              		.global	HAL_GetHalVersion
 651              		.syntax unified
 652              		.thumb
 653              		.thumb_func
 655              	HAL_GetHalVersion:
 656              	.LFB875:
 425:STM32Cube_FW_N6/Drivers/STM32N6xx_HAL_Driver/Src/stm32n6xx_hal.c **** 
 426:STM32Cube_FW_N6/Drivers/STM32N6xx_HAL_Driver/Src/stm32n6xx_hal.c **** /**
 427:STM32Cube_FW_N6/Drivers/STM32N6xx_HAL_Driver/Src/stm32n6xx_hal.c ****   * @brief  Returns the HAL revision
 428:STM32Cube_FW_N6/Drivers/STM32N6xx_HAL_Driver/Src/stm32n6xx_hal.c ****   * @retval version : 0xXYZR (8bits for each decimal, R for RC)
 429:STM32Cube_FW_N6/Drivers/STM32N6xx_HAL_Driver/Src/stm32n6xx_hal.c ****   */
 430:STM32Cube_FW_N6/Drivers/STM32N6xx_HAL_Driver/Src/stm32n6xx_hal.c **** uint32_t HAL_GetHalVersion(void)
 431:STM32Cube_FW_N6/Drivers/STM32N6xx_HAL_Driver/Src/stm32n6xx_hal.c **** {
 657              		.loc 1 431 1 is_stmt 1 view -0
 658              		.cfi_startproc
 659              		@ args = 0, pretend = 0, frame = 0
 660              		@ frame_needed = 0, uses_anonymous_args = 0
 661              		@ link register save eliminated.
 432:STM32Cube_FW_N6/Drivers/STM32N6xx_HAL_Driver/Src/stm32n6xx_hal.c ****   return __STM32N6xx_HAL_VERSION;
 662              		.loc 1 432 3 view .LVU169
 433:STM32Cube_FW_N6/Drivers/STM32N6xx_HAL_Driver/Src/stm32n6xx_hal.c **** }
 663              		.loc 1 433 1 is_stmt 0 view .LVU170
 664 0000 0048     		ldr	r0, .L56
 665 0002 7047     		bx	lr
 666              	.L57:
 667              		.align	2
 668              	.L56:
 669 0004 00000301 		.word	16973824
 670              		.cfi_endproc
 671              	.LFE875:
 673              		.section	.text.HAL_GetREVID,"ax",%progbits
 674              		.align	1
 675              		.global	HAL_GetREVID
 676              		.syntax unified
 677              		.thumb
 678              		.thumb_func
 680              	HAL_GetREVID:
 681              	.LFB876:
 434:STM32Cube_FW_N6/Drivers/STM32N6xx_HAL_Driver/Src/stm32n6xx_hal.c **** 
 435:STM32Cube_FW_N6/Drivers/STM32N6xx_HAL_Driver/Src/stm32n6xx_hal.c **** /**
 436:STM32Cube_FW_N6/Drivers/STM32N6xx_HAL_Driver/Src/stm32n6xx_hal.c ****   * @brief  Returns the device revision identifier
 437:STM32Cube_FW_N6/Drivers/STM32N6xx_HAL_Driver/Src/stm32n6xx_hal.c ****   * @note Returned Revision ID can be
 438:STM32Cube_FW_N6/Drivers/STM32N6xx_HAL_Driver/Src/stm32n6xx_hal.c ****   *       0x00000100 for Cut1.0
 439:STM32Cube_FW_N6/Drivers/STM32N6xx_HAL_Driver/Src/stm32n6xx_hal.c ****   *       0x00000101 for Cut1.1
 440:STM32Cube_FW_N6/Drivers/STM32N6xx_HAL_Driver/Src/stm32n6xx_hal.c ****   *       0x00000200 for Cut2.0
 441:STM32Cube_FW_N6/Drivers/STM32N6xx_HAL_Driver/Src/stm32n6xx_hal.c ****   * @retval Device revision identifier
 442:STM32Cube_FW_N6/Drivers/STM32N6xx_HAL_Driver/Src/stm32n6xx_hal.c ****   */
 443:STM32Cube_FW_N6/Drivers/STM32N6xx_HAL_Driver/Src/stm32n6xx_hal.c **** uint32_t HAL_GetREVID(void)
 444:STM32Cube_FW_N6/Drivers/STM32N6xx_HAL_Driver/Src/stm32n6xx_hal.c **** {
ARM GAS  C:\Users\DJESSOU\AppData\Local\Temp\ccIfw9Ia.s 			page 22


 682              		.loc 1 444 1 is_stmt 1 view -0
 683              		.cfi_startproc
 684              		@ args = 0, pretend = 0, frame = 0
 685              		@ frame_needed = 0, uses_anonymous_args = 0
 686              		@ link register save eliminated.
 445:STM32Cube_FW_N6/Drivers/STM32N6xx_HAL_Driver/Src/stm32n6xx_hal.c ****   return *(uint32_t *)(REVID_BASE);
 687              		.loc 1 445 3 view .LVU172
 446:STM32Cube_FW_N6/Drivers/STM32N6xx_HAL_Driver/Src/stm32n6xx_hal.c **** }
 688              		.loc 1 446 1 is_stmt 0 view .LVU173
 689 0000 014B     		ldr	r3, .L59
 690 0002 5868     		ldr	r0, [r3, #4]
 691 0004 7047     		bx	lr
 692              	.L60:
 693 0006 00BF     		.align	2
 694              	.L59:
 695 0008 00100018 		.word	402657280
 696              		.cfi_endproc
 697              	.LFE876:
 699              		.section	.text.HAL_GetDEVID,"ax",%progbits
 700              		.align	1
 701              		.global	HAL_GetDEVID
 702              		.syntax unified
 703              		.thumb
 704              		.thumb_func
 706              	HAL_GetDEVID:
 707              	.LFB877:
 447:STM32Cube_FW_N6/Drivers/STM32N6xx_HAL_Driver/Src/stm32n6xx_hal.c **** 
 448:STM32Cube_FW_N6/Drivers/STM32N6xx_HAL_Driver/Src/stm32n6xx_hal.c **** #if defined(CPU_IN_SECURE_STATE)
 449:STM32Cube_FW_N6/Drivers/STM32N6xx_HAL_Driver/Src/stm32n6xx_hal.c **** /**
 450:STM32Cube_FW_N6/Drivers/STM32N6xx_HAL_Driver/Src/stm32n6xx_hal.c ****   * @brief  Returns the device identifier
 451:STM32Cube_FW_N6/Drivers/STM32N6xx_HAL_Driver/Src/stm32n6xx_hal.c ****   * @note This function can only be used if the HAL BSEC module is enabled in the hal configuration
 452:STM32Cube_FW_N6/Drivers/STM32N6xx_HAL_Driver/Src/stm32n6xx_hal.c ****   *       The BSEC clock must be enabled before calling this function
 453:STM32Cube_FW_N6/Drivers/STM32N6xx_HAL_Driver/Src/stm32n6xx_hal.c ****   *       Returned Device ID can be
 454:STM32Cube_FW_N6/Drivers/STM32N6xx_HAL_Driver/Src/stm32n6xx_hal.c ****   *       0x00006200 for STM32N645xx
 455:STM32Cube_FW_N6/Drivers/STM32N6xx_HAL_Driver/Src/stm32n6xx_hal.c ****   *       0x00006000 for STM32N655xx
 456:STM32Cube_FW_N6/Drivers/STM32N6xx_HAL_Driver/Src/stm32n6xx_hal.c ****   *       0x00002200 for STM32N647xx
 457:STM32Cube_FW_N6/Drivers/STM32N6xx_HAL_Driver/Src/stm32n6xx_hal.c ****   *       0x00002000 for STM32N657xx
 458:STM32Cube_FW_N6/Drivers/STM32N6xx_HAL_Driver/Src/stm32n6xx_hal.c ****   *       0xFFFFFFFF if an error occurs
 459:STM32Cube_FW_N6/Drivers/STM32N6xx_HAL_Driver/Src/stm32n6xx_hal.c ****   * @retval Device identifier
 460:STM32Cube_FW_N6/Drivers/STM32N6xx_HAL_Driver/Src/stm32n6xx_hal.c ****   */
 461:STM32Cube_FW_N6/Drivers/STM32N6xx_HAL_Driver/Src/stm32n6xx_hal.c **** uint32_t HAL_GetDEVID(void)
 462:STM32Cube_FW_N6/Drivers/STM32N6xx_HAL_Driver/Src/stm32n6xx_hal.c **** {
 708              		.loc 1 462 1 is_stmt 1 view -0
 709              		.cfi_startproc
 710              		@ args = 0, pretend = 0, frame = 16
 711              		@ frame_needed = 0, uses_anonymous_args = 0
 463:STM32Cube_FW_N6/Drivers/STM32N6xx_HAL_Driver/Src/stm32n6xx_hal.c **** #if defined(HAL_BSEC_MODULE_ENABLED)
 464:STM32Cube_FW_N6/Drivers/STM32N6xx_HAL_Driver/Src/stm32n6xx_hal.c **** #define BSEC_FUSE_ADDRESS               9U
 465:STM32Cube_FW_N6/Drivers/STM32N6xx_HAL_Driver/Src/stm32n6xx_hal.c ****   uint32_t data;
 712              		.loc 1 465 3 view .LVU175
 466:STM32Cube_FW_N6/Drivers/STM32N6xx_HAL_Driver/Src/stm32n6xx_hal.c ****   if(__HAL_RCC_BSEC_IS_CLK_ENABLED() == 0UL){
 713              		.loc 1 466 3 view .LVU176
 714              	.LBB9:
 715              	.LBI9:
 716              		.file 2 "STM32Cube_FW_N6/Drivers/STM32N6xx_HAL_Driver/Inc/stm32n6xx_ll_bus.h"
   1:STM32Cube_FW_N6/Drivers/STM32N6xx_HAL_Driver/Inc/stm32n6xx_ll_bus.h **** /**
   2:STM32Cube_FW_N6/Drivers/STM32N6xx_HAL_Driver/Inc/stm32n6xx_ll_bus.h ****   ******************************************************************************
ARM GAS  C:\Users\DJESSOU\AppData\Local\Temp\ccIfw9Ia.s 			page 23


   3:STM32Cube_FW_N6/Drivers/STM32N6xx_HAL_Driver/Inc/stm32n6xx_ll_bus.h ****   * @file    stm32n6xx_ll_bus.h
   4:STM32Cube_FW_N6/Drivers/STM32N6xx_HAL_Driver/Inc/stm32n6xx_ll_bus.h ****   * @author  MCD Application Team
   5:STM32Cube_FW_N6/Drivers/STM32N6xx_HAL_Driver/Inc/stm32n6xx_ll_bus.h ****   * @brief   Header file of BUS LL module.
   6:STM32Cube_FW_N6/Drivers/STM32N6xx_HAL_Driver/Inc/stm32n6xx_ll_bus.h ****   ******************************************************************************
   7:STM32Cube_FW_N6/Drivers/STM32N6xx_HAL_Driver/Inc/stm32n6xx_ll_bus.h ****   * @attention
   8:STM32Cube_FW_N6/Drivers/STM32N6xx_HAL_Driver/Inc/stm32n6xx_ll_bus.h ****   *
   9:STM32Cube_FW_N6/Drivers/STM32N6xx_HAL_Driver/Inc/stm32n6xx_ll_bus.h ****   * Copyright (c) 2023 STMicroelectronics.
  10:STM32Cube_FW_N6/Drivers/STM32N6xx_HAL_Driver/Inc/stm32n6xx_ll_bus.h ****   * All rights reserved.
  11:STM32Cube_FW_N6/Drivers/STM32N6xx_HAL_Driver/Inc/stm32n6xx_ll_bus.h ****   *
  12:STM32Cube_FW_N6/Drivers/STM32N6xx_HAL_Driver/Inc/stm32n6xx_ll_bus.h ****   * This software is licensed under terms that can be found in the LICENSE file
  13:STM32Cube_FW_N6/Drivers/STM32N6xx_HAL_Driver/Inc/stm32n6xx_ll_bus.h ****   * in the root directory of this software component.
  14:STM32Cube_FW_N6/Drivers/STM32N6xx_HAL_Driver/Inc/stm32n6xx_ll_bus.h ****   * If no LICENSE file comes with this software, it is provided AS-IS.
  15:STM32Cube_FW_N6/Drivers/STM32N6xx_HAL_Driver/Inc/stm32n6xx_ll_bus.h ****   *
  16:STM32Cube_FW_N6/Drivers/STM32N6xx_HAL_Driver/Inc/stm32n6xx_ll_bus.h ****   ******************************************************************************
  17:STM32Cube_FW_N6/Drivers/STM32N6xx_HAL_Driver/Inc/stm32n6xx_ll_bus.h ****   @verbatim
  18:STM32Cube_FW_N6/Drivers/STM32N6xx_HAL_Driver/Inc/stm32n6xx_ll_bus.h ****                       ##### RCC Limitations #####
  19:STM32Cube_FW_N6/Drivers/STM32N6xx_HAL_Driver/Inc/stm32n6xx_ll_bus.h ****   ==============================================================================
  20:STM32Cube_FW_N6/Drivers/STM32N6xx_HAL_Driver/Inc/stm32n6xx_ll_bus.h ****     [..]
  21:STM32Cube_FW_N6/Drivers/STM32N6xx_HAL_Driver/Inc/stm32n6xx_ll_bus.h ****       A delay between an RCC peripheral clock enable and the effective peripheral
  22:STM32Cube_FW_N6/Drivers/STM32N6xx_HAL_Driver/Inc/stm32n6xx_ll_bus.h ****       enabling should be taken into account in order to manage the peripheral read/write
  23:STM32Cube_FW_N6/Drivers/STM32N6xx_HAL_Driver/Inc/stm32n6xx_ll_bus.h ****       from/to registers.
  24:STM32Cube_FW_N6/Drivers/STM32N6xx_HAL_Driver/Inc/stm32n6xx_ll_bus.h ****       (+) This delay depends on the peripheral mapping.
  25:STM32Cube_FW_N6/Drivers/STM32N6xx_HAL_Driver/Inc/stm32n6xx_ll_bus.h ****         (++) AHB & APB peripherals, 1 dummy read is necessary
  26:STM32Cube_FW_N6/Drivers/STM32N6xx_HAL_Driver/Inc/stm32n6xx_ll_bus.h **** 
  27:STM32Cube_FW_N6/Drivers/STM32N6xx_HAL_Driver/Inc/stm32n6xx_ll_bus.h ****     [..]
  28:STM32Cube_FW_N6/Drivers/STM32N6xx_HAL_Driver/Inc/stm32n6xx_ll_bus.h ****       Workarounds:
  29:STM32Cube_FW_N6/Drivers/STM32N6xx_HAL_Driver/Inc/stm32n6xx_ll_bus.h ****       (#) For AHB & APB peripherals, a dummy read to the peripheral register has been
  30:STM32Cube_FW_N6/Drivers/STM32N6xx_HAL_Driver/Inc/stm32n6xx_ll_bus.h ****           inserted in each LL_{BUS}_GRP{x}_EnableClock() function.
  31:STM32Cube_FW_N6/Drivers/STM32N6xx_HAL_Driver/Inc/stm32n6xx_ll_bus.h **** 
  32:STM32Cube_FW_N6/Drivers/STM32N6xx_HAL_Driver/Inc/stm32n6xx_ll_bus.h ****   @endverbatim
  33:STM32Cube_FW_N6/Drivers/STM32N6xx_HAL_Driver/Inc/stm32n6xx_ll_bus.h ****   ******************************************************************************
  34:STM32Cube_FW_N6/Drivers/STM32N6xx_HAL_Driver/Inc/stm32n6xx_ll_bus.h ****   */
  35:STM32Cube_FW_N6/Drivers/STM32N6xx_HAL_Driver/Inc/stm32n6xx_ll_bus.h **** 
  36:STM32Cube_FW_N6/Drivers/STM32N6xx_HAL_Driver/Inc/stm32n6xx_ll_bus.h **** /* Define to prevent recursive inclusion -------------------------------------*/
  37:STM32Cube_FW_N6/Drivers/STM32N6xx_HAL_Driver/Inc/stm32n6xx_ll_bus.h **** #ifndef STM32N6xx_LL_BUS_H
  38:STM32Cube_FW_N6/Drivers/STM32N6xx_HAL_Driver/Inc/stm32n6xx_ll_bus.h **** #define STM32N6xx_LL_BUS_H
  39:STM32Cube_FW_N6/Drivers/STM32N6xx_HAL_Driver/Inc/stm32n6xx_ll_bus.h **** 
  40:STM32Cube_FW_N6/Drivers/STM32N6xx_HAL_Driver/Inc/stm32n6xx_ll_bus.h **** #ifdef __cplusplus
  41:STM32Cube_FW_N6/Drivers/STM32N6xx_HAL_Driver/Inc/stm32n6xx_ll_bus.h **** extern "C" {
  42:STM32Cube_FW_N6/Drivers/STM32N6xx_HAL_Driver/Inc/stm32n6xx_ll_bus.h **** #endif
  43:STM32Cube_FW_N6/Drivers/STM32N6xx_HAL_Driver/Inc/stm32n6xx_ll_bus.h **** 
  44:STM32Cube_FW_N6/Drivers/STM32N6xx_HAL_Driver/Inc/stm32n6xx_ll_bus.h **** /* Includes ------------------------------------------------------------------*/
  45:STM32Cube_FW_N6/Drivers/STM32N6xx_HAL_Driver/Inc/stm32n6xx_ll_bus.h **** #include "stm32n6xx.h"
  46:STM32Cube_FW_N6/Drivers/STM32N6xx_HAL_Driver/Inc/stm32n6xx_ll_bus.h **** 
  47:STM32Cube_FW_N6/Drivers/STM32N6xx_HAL_Driver/Inc/stm32n6xx_ll_bus.h **** /** @addtogroup STM32N6xx_LL_Driver
  48:STM32Cube_FW_N6/Drivers/STM32N6xx_HAL_Driver/Inc/stm32n6xx_ll_bus.h ****   * @{
  49:STM32Cube_FW_N6/Drivers/STM32N6xx_HAL_Driver/Inc/stm32n6xx_ll_bus.h ****   */
  50:STM32Cube_FW_N6/Drivers/STM32N6xx_HAL_Driver/Inc/stm32n6xx_ll_bus.h **** #if defined(RCC)
  51:STM32Cube_FW_N6/Drivers/STM32N6xx_HAL_Driver/Inc/stm32n6xx_ll_bus.h **** 
  52:STM32Cube_FW_N6/Drivers/STM32N6xx_HAL_Driver/Inc/stm32n6xx_ll_bus.h **** /** @defgroup BUS_LL BUS
  53:STM32Cube_FW_N6/Drivers/STM32N6xx_HAL_Driver/Inc/stm32n6xx_ll_bus.h ****   * @{
  54:STM32Cube_FW_N6/Drivers/STM32N6xx_HAL_Driver/Inc/stm32n6xx_ll_bus.h ****   */
  55:STM32Cube_FW_N6/Drivers/STM32N6xx_HAL_Driver/Inc/stm32n6xx_ll_bus.h **** 
  56:STM32Cube_FW_N6/Drivers/STM32N6xx_HAL_Driver/Inc/stm32n6xx_ll_bus.h **** /* Private variables ---------------------------------------------------------*/
  57:STM32Cube_FW_N6/Drivers/STM32N6xx_HAL_Driver/Inc/stm32n6xx_ll_bus.h **** 
  58:STM32Cube_FW_N6/Drivers/STM32N6xx_HAL_Driver/Inc/stm32n6xx_ll_bus.h **** /* Private constants ---------------------------------------------------------*/
  59:STM32Cube_FW_N6/Drivers/STM32N6xx_HAL_Driver/Inc/stm32n6xx_ll_bus.h **** 
ARM GAS  C:\Users\DJESSOU\AppData\Local\Temp\ccIfw9Ia.s 			page 24


  60:STM32Cube_FW_N6/Drivers/STM32N6xx_HAL_Driver/Inc/stm32n6xx_ll_bus.h **** /* Private macros ------------------------------------------------------------*/
  61:STM32Cube_FW_N6/Drivers/STM32N6xx_HAL_Driver/Inc/stm32n6xx_ll_bus.h **** 
  62:STM32Cube_FW_N6/Drivers/STM32N6xx_HAL_Driver/Inc/stm32n6xx_ll_bus.h **** /* Exported types ------------------------------------------------------------*/
  63:STM32Cube_FW_N6/Drivers/STM32N6xx_HAL_Driver/Inc/stm32n6xx_ll_bus.h **** 
  64:STM32Cube_FW_N6/Drivers/STM32N6xx_HAL_Driver/Inc/stm32n6xx_ll_bus.h **** /* Exported constants --------------------------------------------------------*/
  65:STM32Cube_FW_N6/Drivers/STM32N6xx_HAL_Driver/Inc/stm32n6xx_ll_bus.h **** /** @defgroup BUS_LL_Exported_Constants BUS Exported Constants
  66:STM32Cube_FW_N6/Drivers/STM32N6xx_HAL_Driver/Inc/stm32n6xx_ll_bus.h ****   * @{
  67:STM32Cube_FW_N6/Drivers/STM32N6xx_HAL_Driver/Inc/stm32n6xx_ll_bus.h ****   */
  68:STM32Cube_FW_N6/Drivers/STM32N6xx_HAL_Driver/Inc/stm32n6xx_ll_bus.h **** 
  69:STM32Cube_FW_N6/Drivers/STM32N6xx_HAL_Driver/Inc/stm32n6xx_ll_bus.h **** /** @defgroup BUS_LL_EC_AXI  AXI
  70:STM32Cube_FW_N6/Drivers/STM32N6xx_HAL_Driver/Inc/stm32n6xx_ll_bus.h ****   * @{
  71:STM32Cube_FW_N6/Drivers/STM32N6xx_HAL_Driver/Inc/stm32n6xx_ll_bus.h ****   */
  72:STM32Cube_FW_N6/Drivers/STM32N6xx_HAL_Driver/Inc/stm32n6xx_ll_bus.h **** #define LL_ACLKN                           RCC_BUSENR_ACLKNEN
  73:STM32Cube_FW_N6/Drivers/STM32N6xx_HAL_Driver/Inc/stm32n6xx_ll_bus.h **** #define LL_ACLKNC                          RCC_BUSENR_ACLKNCEN
  74:STM32Cube_FW_N6/Drivers/STM32N6xx_HAL_Driver/Inc/stm32n6xx_ll_bus.h **** #define LL_AHBM                            RCC_BUSENR_AHBMEN
  75:STM32Cube_FW_N6/Drivers/STM32N6xx_HAL_Driver/Inc/stm32n6xx_ll_bus.h **** #define LL_AHB1                            RCC_BUSENR_AHB1EN
  76:STM32Cube_FW_N6/Drivers/STM32N6xx_HAL_Driver/Inc/stm32n6xx_ll_bus.h **** #define LL_AHB2                            RCC_BUSENR_AHB2EN
  77:STM32Cube_FW_N6/Drivers/STM32N6xx_HAL_Driver/Inc/stm32n6xx_ll_bus.h **** #define LL_AHB3                            RCC_BUSENR_AHB3EN
  78:STM32Cube_FW_N6/Drivers/STM32N6xx_HAL_Driver/Inc/stm32n6xx_ll_bus.h **** #define LL_AHB4                            RCC_BUSENR_AHB4EN
  79:STM32Cube_FW_N6/Drivers/STM32N6xx_HAL_Driver/Inc/stm32n6xx_ll_bus.h **** #define LL_AHB5                            RCC_BUSENR_AHB5EN
  80:STM32Cube_FW_N6/Drivers/STM32N6xx_HAL_Driver/Inc/stm32n6xx_ll_bus.h **** #define LL_APB1                            RCC_BUSENR_APB1EN
  81:STM32Cube_FW_N6/Drivers/STM32N6xx_HAL_Driver/Inc/stm32n6xx_ll_bus.h **** #define LL_APB2                            RCC_BUSENR_APB2EN
  82:STM32Cube_FW_N6/Drivers/STM32N6xx_HAL_Driver/Inc/stm32n6xx_ll_bus.h **** #define LL_APB3                            RCC_BUSENR_APB3EN
  83:STM32Cube_FW_N6/Drivers/STM32N6xx_HAL_Driver/Inc/stm32n6xx_ll_bus.h **** #define LL_APB4                            RCC_BUSENR_APB4EN
  84:STM32Cube_FW_N6/Drivers/STM32N6xx_HAL_Driver/Inc/stm32n6xx_ll_bus.h **** #define LL_APB5                            RCC_BUSENR_APB5EN
  85:STM32Cube_FW_N6/Drivers/STM32N6xx_HAL_Driver/Inc/stm32n6xx_ll_bus.h **** /**
  86:STM32Cube_FW_N6/Drivers/STM32N6xx_HAL_Driver/Inc/stm32n6xx_ll_bus.h ****   * @}
  87:STM32Cube_FW_N6/Drivers/STM32N6xx_HAL_Driver/Inc/stm32n6xx_ll_bus.h ****   */
  88:STM32Cube_FW_N6/Drivers/STM32N6xx_HAL_Driver/Inc/stm32n6xx_ll_bus.h **** 
  89:STM32Cube_FW_N6/Drivers/STM32N6xx_HAL_Driver/Inc/stm32n6xx_ll_bus.h **** /** @defgroup BUS_LL_EC_MEM  MEM
  90:STM32Cube_FW_N6/Drivers/STM32N6xx_HAL_Driver/Inc/stm32n6xx_ll_bus.h ****   * @{
  91:STM32Cube_FW_N6/Drivers/STM32N6xx_HAL_Driver/Inc/stm32n6xx_ll_bus.h ****   */
  92:STM32Cube_FW_N6/Drivers/STM32N6xx_HAL_Driver/Inc/stm32n6xx_ll_bus.h **** #define LL_MEM_AXISRAM1                    RCC_MEMENR_AXISRAM1EN
  93:STM32Cube_FW_N6/Drivers/STM32N6xx_HAL_Driver/Inc/stm32n6xx_ll_bus.h **** #define LL_MEM_AXISRAM2                    RCC_MEMENR_AXISRAM2EN
  94:STM32Cube_FW_N6/Drivers/STM32N6xx_HAL_Driver/Inc/stm32n6xx_ll_bus.h **** #define LL_MEM_AXISRAM3                    RCC_MEMENR_AXISRAM3EN
  95:STM32Cube_FW_N6/Drivers/STM32N6xx_HAL_Driver/Inc/stm32n6xx_ll_bus.h **** #define LL_MEM_AXISRAM4                    RCC_MEMENR_AXISRAM4EN
  96:STM32Cube_FW_N6/Drivers/STM32N6xx_HAL_Driver/Inc/stm32n6xx_ll_bus.h **** #define LL_MEM_AXISRAM5                    RCC_MEMENR_AXISRAM5EN
  97:STM32Cube_FW_N6/Drivers/STM32N6xx_HAL_Driver/Inc/stm32n6xx_ll_bus.h **** #define LL_MEM_AXISRAM6                    RCC_MEMENR_AXISRAM6EN
  98:STM32Cube_FW_N6/Drivers/STM32N6xx_HAL_Driver/Inc/stm32n6xx_ll_bus.h **** #define LL_MEM_AHBSRAM1                    RCC_MEMENR_AHBSRAM1EN
  99:STM32Cube_FW_N6/Drivers/STM32N6xx_HAL_Driver/Inc/stm32n6xx_ll_bus.h **** #define LL_MEM_AHBSRAM2                    RCC_MEMENR_AHBSRAM2EN
 100:STM32Cube_FW_N6/Drivers/STM32N6xx_HAL_Driver/Inc/stm32n6xx_ll_bus.h **** #define LL_MEM_BKPSRAM                     RCC_MEMENR_BKPSRAMEN
 101:STM32Cube_FW_N6/Drivers/STM32N6xx_HAL_Driver/Inc/stm32n6xx_ll_bus.h **** #define LL_MEM_FLEXRAM                     RCC_MEMENR_FLEXRAMEN
 102:STM32Cube_FW_N6/Drivers/STM32N6xx_HAL_Driver/Inc/stm32n6xx_ll_bus.h **** #define LL_MEM_CACHEAXIRAM                 RCC_MEMENR_CACHEAXIRAMEN
 103:STM32Cube_FW_N6/Drivers/STM32N6xx_HAL_Driver/Inc/stm32n6xx_ll_bus.h **** #define LL_MEM_VENCRAM                     RCC_MEMENR_VENCRAMEN
 104:STM32Cube_FW_N6/Drivers/STM32N6xx_HAL_Driver/Inc/stm32n6xx_ll_bus.h **** #define LL_MEM_BOOTROM                     RCC_MEMENR_BOOTROMEN
 105:STM32Cube_FW_N6/Drivers/STM32N6xx_HAL_Driver/Inc/stm32n6xx_ll_bus.h **** /**
 106:STM32Cube_FW_N6/Drivers/STM32N6xx_HAL_Driver/Inc/stm32n6xx_ll_bus.h ****   * @}
 107:STM32Cube_FW_N6/Drivers/STM32N6xx_HAL_Driver/Inc/stm32n6xx_ll_bus.h ****   */
 108:STM32Cube_FW_N6/Drivers/STM32N6xx_HAL_Driver/Inc/stm32n6xx_ll_bus.h **** 
 109:STM32Cube_FW_N6/Drivers/STM32N6xx_HAL_Driver/Inc/stm32n6xx_ll_bus.h **** /** @defgroup BUS_LL_EC_AHB1_GRP1_PERIPH  AHB1 GRP1 PERIPH
 110:STM32Cube_FW_N6/Drivers/STM32N6xx_HAL_Driver/Inc/stm32n6xx_ll_bus.h ****   * @{
 111:STM32Cube_FW_N6/Drivers/STM32N6xx_HAL_Driver/Inc/stm32n6xx_ll_bus.h ****   */
 112:STM32Cube_FW_N6/Drivers/STM32N6xx_HAL_Driver/Inc/stm32n6xx_ll_bus.h **** #define LL_AHB1_GRP1_PERIPH_ADC12          RCC_AHB1ENR_ADC12EN
 113:STM32Cube_FW_N6/Drivers/STM32N6xx_HAL_Driver/Inc/stm32n6xx_ll_bus.h **** #define LL_AHB1_GRP1_PERIPH_GPDMA1         RCC_AHB1ENR_GPDMA1EN
 114:STM32Cube_FW_N6/Drivers/STM32N6xx_HAL_Driver/Inc/stm32n6xx_ll_bus.h **** #define LL_AHB1_GRP1_PERIPH_ALL            (LL_AHB1_GRP1_PERIPH_ADC12 | LL_AHB1_GRP1_PERIPH_GPDMA1)
 115:STM32Cube_FW_N6/Drivers/STM32N6xx_HAL_Driver/Inc/stm32n6xx_ll_bus.h **** /**
 116:STM32Cube_FW_N6/Drivers/STM32N6xx_HAL_Driver/Inc/stm32n6xx_ll_bus.h ****   * @}
ARM GAS  C:\Users\DJESSOU\AppData\Local\Temp\ccIfw9Ia.s 			page 25


 117:STM32Cube_FW_N6/Drivers/STM32N6xx_HAL_Driver/Inc/stm32n6xx_ll_bus.h ****   */
 118:STM32Cube_FW_N6/Drivers/STM32N6xx_HAL_Driver/Inc/stm32n6xx_ll_bus.h **** 
 119:STM32Cube_FW_N6/Drivers/STM32N6xx_HAL_Driver/Inc/stm32n6xx_ll_bus.h **** /** @defgroup BUS_LL_EC_AHB2_GRP1_PERIPH  AHB2 GRP1 PERIPH
 120:STM32Cube_FW_N6/Drivers/STM32N6xx_HAL_Driver/Inc/stm32n6xx_ll_bus.h ****   * @{
 121:STM32Cube_FW_N6/Drivers/STM32N6xx_HAL_Driver/Inc/stm32n6xx_ll_bus.h ****   */
 122:STM32Cube_FW_N6/Drivers/STM32N6xx_HAL_Driver/Inc/stm32n6xx_ll_bus.h **** #define LL_AHB2_GRP1_PERIPH_ADF1           RCC_AHB2ENR_ADF1EN
 123:STM32Cube_FW_N6/Drivers/STM32N6xx_HAL_Driver/Inc/stm32n6xx_ll_bus.h **** #define LL_AHB2_GRP1_PERIPH_MDF1           RCC_AHB2ENR_MDF1EN
 124:STM32Cube_FW_N6/Drivers/STM32N6xx_HAL_Driver/Inc/stm32n6xx_ll_bus.h **** #define LL_AHB2_GRP1_PERIPH_RAMCFG         RCC_AHB2ENR_RAMCFGEN
 125:STM32Cube_FW_N6/Drivers/STM32N6xx_HAL_Driver/Inc/stm32n6xx_ll_bus.h **** #define LL_AHB2_GRP1_PERIPH_ALL            (LL_AHB2_GRP1_PERIPH_ADF1 | LL_AHB2_GRP1_PERIPH_MDF1 | \
 126:STM32Cube_FW_N6/Drivers/STM32N6xx_HAL_Driver/Inc/stm32n6xx_ll_bus.h ****                                             LL_AHB2_GRP1_PERIPH_RAMCFG)
 127:STM32Cube_FW_N6/Drivers/STM32N6xx_HAL_Driver/Inc/stm32n6xx_ll_bus.h **** /**
 128:STM32Cube_FW_N6/Drivers/STM32N6xx_HAL_Driver/Inc/stm32n6xx_ll_bus.h ****   * @}
 129:STM32Cube_FW_N6/Drivers/STM32N6xx_HAL_Driver/Inc/stm32n6xx_ll_bus.h ****   */
 130:STM32Cube_FW_N6/Drivers/STM32N6xx_HAL_Driver/Inc/stm32n6xx_ll_bus.h **** 
 131:STM32Cube_FW_N6/Drivers/STM32N6xx_HAL_Driver/Inc/stm32n6xx_ll_bus.h **** /** @defgroup BUS_LL_EC_AHB3_GRP1_PERIPH  AHB3 GRP1 PERIPH
 132:STM32Cube_FW_N6/Drivers/STM32N6xx_HAL_Driver/Inc/stm32n6xx_ll_bus.h ****   * @{
 133:STM32Cube_FW_N6/Drivers/STM32N6xx_HAL_Driver/Inc/stm32n6xx_ll_bus.h ****   */
 134:STM32Cube_FW_N6/Drivers/STM32N6xx_HAL_Driver/Inc/stm32n6xx_ll_bus.h **** #if defined(CRYP)
 135:STM32Cube_FW_N6/Drivers/STM32N6xx_HAL_Driver/Inc/stm32n6xx_ll_bus.h **** #define LL_AHB3_GRP1_PERIPH_CRYP           RCC_AHB3ENR_CRYPEN
 136:STM32Cube_FW_N6/Drivers/STM32N6xx_HAL_Driver/Inc/stm32n6xx_ll_bus.h **** #else
 137:STM32Cube_FW_N6/Drivers/STM32N6xx_HAL_Driver/Inc/stm32n6xx_ll_bus.h **** #define LL_AHB3_GRP1_PERIPH_CRYP
 138:STM32Cube_FW_N6/Drivers/STM32N6xx_HAL_Driver/Inc/stm32n6xx_ll_bus.h **** #endif /* CRYP */
 139:STM32Cube_FW_N6/Drivers/STM32N6xx_HAL_Driver/Inc/stm32n6xx_ll_bus.h **** #define LL_AHB3_GRP1_PERIPH_HASH           RCC_AHB3ENR_HASHEN
 140:STM32Cube_FW_N6/Drivers/STM32N6xx_HAL_Driver/Inc/stm32n6xx_ll_bus.h **** #define LL_AHB3_GRP1_PERIPH_IAC            RCC_AHB3ENR_IACEN
 141:STM32Cube_FW_N6/Drivers/STM32N6xx_HAL_Driver/Inc/stm32n6xx_ll_bus.h **** #if defined(PKA)
 142:STM32Cube_FW_N6/Drivers/STM32N6xx_HAL_Driver/Inc/stm32n6xx_ll_bus.h **** #define LL_AHB3_GRP1_PERIPH_PKA            RCC_AHB3ENR_PKAEN
 143:STM32Cube_FW_N6/Drivers/STM32N6xx_HAL_Driver/Inc/stm32n6xx_ll_bus.h **** #else
 144:STM32Cube_FW_N6/Drivers/STM32N6xx_HAL_Driver/Inc/stm32n6xx_ll_bus.h **** #define LL_AHB3_GRP1_PERIPH_PKA
 145:STM32Cube_FW_N6/Drivers/STM32N6xx_HAL_Driver/Inc/stm32n6xx_ll_bus.h **** #endif /* PKA */
 146:STM32Cube_FW_N6/Drivers/STM32N6xx_HAL_Driver/Inc/stm32n6xx_ll_bus.h **** #define LL_AHB3_GRP1_PERIPH_RIFSC          RCC_AHB3ENR_RIFSCEN
 147:STM32Cube_FW_N6/Drivers/STM32N6xx_HAL_Driver/Inc/stm32n6xx_ll_bus.h **** #define LL_AHB3_GRP1_PERIPH_RISAF          RCC_AHB3ENR_RISAFEN
 148:STM32Cube_FW_N6/Drivers/STM32N6xx_HAL_Driver/Inc/stm32n6xx_ll_bus.h **** #define LL_AHB3_GRP1_PERIPH_RNG            RCC_AHB3ENR_RNGEN
 149:STM32Cube_FW_N6/Drivers/STM32N6xx_HAL_Driver/Inc/stm32n6xx_ll_bus.h **** #if defined(SAES)
 150:STM32Cube_FW_N6/Drivers/STM32N6xx_HAL_Driver/Inc/stm32n6xx_ll_bus.h **** #define LL_AHB3_GRP1_PERIPH_SAES           RCC_AHB3ENR_SAESEN
 151:STM32Cube_FW_N6/Drivers/STM32N6xx_HAL_Driver/Inc/stm32n6xx_ll_bus.h **** #else
 152:STM32Cube_FW_N6/Drivers/STM32N6xx_HAL_Driver/Inc/stm32n6xx_ll_bus.h **** #define LL_AHB3_GRP1_PERIPH_SAES
 153:STM32Cube_FW_N6/Drivers/STM32N6xx_HAL_Driver/Inc/stm32n6xx_ll_bus.h **** #endif /* SAES */
 154:STM32Cube_FW_N6/Drivers/STM32N6xx_HAL_Driver/Inc/stm32n6xx_ll_bus.h **** #define LL_AHB3_GRP1_PERIPH_ALL            (LL_AHB3_GRP1_PERIPH_CRYP  | LL_AHB3_GRP1_PERIPH_HASH  |
 155:STM32Cube_FW_N6/Drivers/STM32N6xx_HAL_Driver/Inc/stm32n6xx_ll_bus.h ****                                             LL_AHB3_GRP1_PERIPH_IAC   | LL_AHB3_GRP1_PERIPH_PKA   |
 156:STM32Cube_FW_N6/Drivers/STM32N6xx_HAL_Driver/Inc/stm32n6xx_ll_bus.h ****                                             LL_AHB3_GRP1_PERIPH_RIFSC | LL_AHB3_GRP1_PERIPH_RISAF |
 157:STM32Cube_FW_N6/Drivers/STM32N6xx_HAL_Driver/Inc/stm32n6xx_ll_bus.h ****                                             LL_AHB3_GRP1_PERIPH_RNG   | LL_AHB3_GRP1_PERIPH_SAES)
 158:STM32Cube_FW_N6/Drivers/STM32N6xx_HAL_Driver/Inc/stm32n6xx_ll_bus.h **** /**
 159:STM32Cube_FW_N6/Drivers/STM32N6xx_HAL_Driver/Inc/stm32n6xx_ll_bus.h ****   * @}
 160:STM32Cube_FW_N6/Drivers/STM32N6xx_HAL_Driver/Inc/stm32n6xx_ll_bus.h ****   */
 161:STM32Cube_FW_N6/Drivers/STM32N6xx_HAL_Driver/Inc/stm32n6xx_ll_bus.h **** 
 162:STM32Cube_FW_N6/Drivers/STM32N6xx_HAL_Driver/Inc/stm32n6xx_ll_bus.h **** /** @defgroup BUS_LL_EC_AHB4_GRP1_PERIPH  AHB4 GRP1 PERIPH
 163:STM32Cube_FW_N6/Drivers/STM32N6xx_HAL_Driver/Inc/stm32n6xx_ll_bus.h ****   * @{
 164:STM32Cube_FW_N6/Drivers/STM32N6xx_HAL_Driver/Inc/stm32n6xx_ll_bus.h ****   */
 165:STM32Cube_FW_N6/Drivers/STM32N6xx_HAL_Driver/Inc/stm32n6xx_ll_bus.h **** #define LL_AHB4_GRP1_PERIPH_CRC            RCC_AHB4ENR_CRCEN
 166:STM32Cube_FW_N6/Drivers/STM32N6xx_HAL_Driver/Inc/stm32n6xx_ll_bus.h **** #define LL_AHB4_GRP1_PERIPH_GPIOA          RCC_AHB4ENR_GPIOAEN
 167:STM32Cube_FW_N6/Drivers/STM32N6xx_HAL_Driver/Inc/stm32n6xx_ll_bus.h **** #define LL_AHB4_GRP1_PERIPH_GPIOB          RCC_AHB4ENR_GPIOBEN
 168:STM32Cube_FW_N6/Drivers/STM32N6xx_HAL_Driver/Inc/stm32n6xx_ll_bus.h **** #define LL_AHB4_GRP1_PERIPH_GPIOC          RCC_AHB4ENR_GPIOCEN
 169:STM32Cube_FW_N6/Drivers/STM32N6xx_HAL_Driver/Inc/stm32n6xx_ll_bus.h **** #define LL_AHB4_GRP1_PERIPH_GPIOD          RCC_AHB4ENR_GPIODEN
 170:STM32Cube_FW_N6/Drivers/STM32N6xx_HAL_Driver/Inc/stm32n6xx_ll_bus.h **** #define LL_AHB4_GRP1_PERIPH_GPIOE          RCC_AHB4ENR_GPIOEEN
 171:STM32Cube_FW_N6/Drivers/STM32N6xx_HAL_Driver/Inc/stm32n6xx_ll_bus.h **** #define LL_AHB4_GRP1_PERIPH_GPIOF          RCC_AHB4ENR_GPIOFEN
 172:STM32Cube_FW_N6/Drivers/STM32N6xx_HAL_Driver/Inc/stm32n6xx_ll_bus.h **** #define LL_AHB4_GRP1_PERIPH_GPIOG          RCC_AHB4ENR_GPIOGEN
 173:STM32Cube_FW_N6/Drivers/STM32N6xx_HAL_Driver/Inc/stm32n6xx_ll_bus.h **** #define LL_AHB4_GRP1_PERIPH_GPIOH          RCC_AHB4ENR_GPIOHEN
ARM GAS  C:\Users\DJESSOU\AppData\Local\Temp\ccIfw9Ia.s 			page 26


 174:STM32Cube_FW_N6/Drivers/STM32N6xx_HAL_Driver/Inc/stm32n6xx_ll_bus.h **** #define LL_AHB4_GRP1_PERIPH_GPION          RCC_AHB4ENR_GPIONEN
 175:STM32Cube_FW_N6/Drivers/STM32N6xx_HAL_Driver/Inc/stm32n6xx_ll_bus.h **** #define LL_AHB4_GRP1_PERIPH_GPIOO          RCC_AHB4ENR_GPIOOEN
 176:STM32Cube_FW_N6/Drivers/STM32N6xx_HAL_Driver/Inc/stm32n6xx_ll_bus.h **** #define LL_AHB4_GRP1_PERIPH_GPIOP          RCC_AHB4ENR_GPIOPEN
 177:STM32Cube_FW_N6/Drivers/STM32N6xx_HAL_Driver/Inc/stm32n6xx_ll_bus.h **** #define LL_AHB4_GRP1_PERIPH_GPIOQ          RCC_AHB4ENR_GPIOQEN
 178:STM32Cube_FW_N6/Drivers/STM32N6xx_HAL_Driver/Inc/stm32n6xx_ll_bus.h **** #define LL_AHB4_GRP1_PERIPH_PWR            RCC_AHB4ENR_PWREN
 179:STM32Cube_FW_N6/Drivers/STM32N6xx_HAL_Driver/Inc/stm32n6xx_ll_bus.h **** #define LL_AHB4_GRP1_PERIPH_ALL            (LL_AHB4_GRP1_PERIPH_CRC   | LL_AHB4_GRP1_PERIPH_GPIOA |
 180:STM32Cube_FW_N6/Drivers/STM32N6xx_HAL_Driver/Inc/stm32n6xx_ll_bus.h ****                                             LL_AHB4_GRP1_PERIPH_GPIOB | LL_AHB4_GRP1_PERIPH_GPIOC |
 181:STM32Cube_FW_N6/Drivers/STM32N6xx_HAL_Driver/Inc/stm32n6xx_ll_bus.h ****                                             LL_AHB4_GRP1_PERIPH_GPIOD | LL_AHB4_GRP1_PERIPH_GPIOE |
 182:STM32Cube_FW_N6/Drivers/STM32N6xx_HAL_Driver/Inc/stm32n6xx_ll_bus.h ****                                             LL_AHB4_GRP1_PERIPH_GPIOF | LL_AHB4_GRP1_PERIPH_GPIOG |
 183:STM32Cube_FW_N6/Drivers/STM32N6xx_HAL_Driver/Inc/stm32n6xx_ll_bus.h ****                                             LL_AHB4_GRP1_PERIPH_GPIOH | LL_AHB4_GRP1_PERIPH_GPION |
 184:STM32Cube_FW_N6/Drivers/STM32N6xx_HAL_Driver/Inc/stm32n6xx_ll_bus.h ****                                             LL_AHB4_GRP1_PERIPH_GPIOO | LL_AHB4_GRP1_PERIPH_GPIOP |
 185:STM32Cube_FW_N6/Drivers/STM32N6xx_HAL_Driver/Inc/stm32n6xx_ll_bus.h ****                                             LL_AHB4_GRP1_PERIPH_GPIOQ | LL_AHB4_GRP1_PERIPH_PWR)
 186:STM32Cube_FW_N6/Drivers/STM32N6xx_HAL_Driver/Inc/stm32n6xx_ll_bus.h **** /**
 187:STM32Cube_FW_N6/Drivers/STM32N6xx_HAL_Driver/Inc/stm32n6xx_ll_bus.h ****   * @}
 188:STM32Cube_FW_N6/Drivers/STM32N6xx_HAL_Driver/Inc/stm32n6xx_ll_bus.h ****   */
 189:STM32Cube_FW_N6/Drivers/STM32N6xx_HAL_Driver/Inc/stm32n6xx_ll_bus.h **** 
 190:STM32Cube_FW_N6/Drivers/STM32N6xx_HAL_Driver/Inc/stm32n6xx_ll_bus.h **** /** @defgroup BUS_LL_EC_AHB5_GRP1_PERIPH  AHB5 GRP1 PERIPH
 191:STM32Cube_FW_N6/Drivers/STM32N6xx_HAL_Driver/Inc/stm32n6xx_ll_bus.h ****   * @{
 192:STM32Cube_FW_N6/Drivers/STM32N6xx_HAL_Driver/Inc/stm32n6xx_ll_bus.h ****   */
 193:STM32Cube_FW_N6/Drivers/STM32N6xx_HAL_Driver/Inc/stm32n6xx_ll_bus.h **** #define LL_AHB5_GRP1_PERIPH_DMA2D             RCC_AHB5ENR_DMA2DEN
 194:STM32Cube_FW_N6/Drivers/STM32N6xx_HAL_Driver/Inc/stm32n6xx_ll_bus.h **** #define LL_AHB5_GRP1_PERIPH_ETH1              RCC_AHB5ENR_ETH1EN
 195:STM32Cube_FW_N6/Drivers/STM32N6xx_HAL_Driver/Inc/stm32n6xx_ll_bus.h **** #define LL_AHB5_GRP1_PERIPH_ETH1MAC           RCC_AHB5ENR_ETH1MACEN
 196:STM32Cube_FW_N6/Drivers/STM32N6xx_HAL_Driver/Inc/stm32n6xx_ll_bus.h **** #define LL_AHB5_GRP1_PERIPH_ETH1TX            RCC_AHB5ENR_ETH1TXEN
 197:STM32Cube_FW_N6/Drivers/STM32N6xx_HAL_Driver/Inc/stm32n6xx_ll_bus.h **** #define LL_AHB5_GRP1_PERIPH_ETH1RX            RCC_AHB5ENR_ETH1RXEN
 198:STM32Cube_FW_N6/Drivers/STM32N6xx_HAL_Driver/Inc/stm32n6xx_ll_bus.h **** #define LL_AHB5_GRP1_PERIPH_FMC               RCC_AHB5ENR_FMCEN
 199:STM32Cube_FW_N6/Drivers/STM32N6xx_HAL_Driver/Inc/stm32n6xx_ll_bus.h **** #define LL_AHB5_GRP1_PERIPH_GFXMMU            RCC_AHB5ENR_GFXMMUEN
 200:STM32Cube_FW_N6/Drivers/STM32N6xx_HAL_Driver/Inc/stm32n6xx_ll_bus.h **** #define LL_AHB5_GRP1_PERIPH_GPU2D             RCC_AHB5ENR_GPU2DEN
 201:STM32Cube_FW_N6/Drivers/STM32N6xx_HAL_Driver/Inc/stm32n6xx_ll_bus.h **** #define LL_AHB5_GRP1_PERIPH_HPDMA1            RCC_AHB5ENR_HPDMA1EN
 202:STM32Cube_FW_N6/Drivers/STM32N6xx_HAL_Driver/Inc/stm32n6xx_ll_bus.h **** #define LL_AHB5_GRP1_PERIPH_XSPI1             RCC_AHB5ENR_XSPI1EN
 203:STM32Cube_FW_N6/Drivers/STM32N6xx_HAL_Driver/Inc/stm32n6xx_ll_bus.h **** #define LL_AHB5_GRP1_PERIPH_XSPI2             RCC_AHB5ENR_XSPI2EN
 204:STM32Cube_FW_N6/Drivers/STM32N6xx_HAL_Driver/Inc/stm32n6xx_ll_bus.h **** #define LL_AHB5_GRP1_PERIPH_XSPI3             RCC_AHB5ENR_XSPI3EN
 205:STM32Cube_FW_N6/Drivers/STM32N6xx_HAL_Driver/Inc/stm32n6xx_ll_bus.h **** #define LL_AHB5_GRP1_PERIPH_XSPIM             RCC_AHB5ENR_XSPIMEN
 206:STM32Cube_FW_N6/Drivers/STM32N6xx_HAL_Driver/Inc/stm32n6xx_ll_bus.h **** #define LL_AHB5_GRP1_PERIPH_JPEG              RCC_AHB5ENR_JPEGEN
 207:STM32Cube_FW_N6/Drivers/STM32N6xx_HAL_Driver/Inc/stm32n6xx_ll_bus.h **** #define LL_AHB5_GRP1_PERIPH_MCE1              RCC_AHB5ENR_MCE1EN
 208:STM32Cube_FW_N6/Drivers/STM32N6xx_HAL_Driver/Inc/stm32n6xx_ll_bus.h **** #define LL_AHB5_GRP1_PERIPH_MCE2              RCC_AHB5ENR_MCE2EN
 209:STM32Cube_FW_N6/Drivers/STM32N6xx_HAL_Driver/Inc/stm32n6xx_ll_bus.h **** #define LL_AHB5_GRP1_PERIPH_MCE3              RCC_AHB5ENR_MCE3EN
 210:STM32Cube_FW_N6/Drivers/STM32N6xx_HAL_Driver/Inc/stm32n6xx_ll_bus.h **** #define LL_AHB5_GRP1_PERIPH_MCE4              RCC_AHB5ENR_MCE4EN
 211:STM32Cube_FW_N6/Drivers/STM32N6xx_HAL_Driver/Inc/stm32n6xx_ll_bus.h **** #define LL_AHB5_GRP1_PERIPH_CACHEAXI          RCC_AHB5ENR_CACHEAXIEN
 212:STM32Cube_FW_N6/Drivers/STM32N6xx_HAL_Driver/Inc/stm32n6xx_ll_bus.h **** #define LL_AHB5_GRP1_PERIPH_NPU               RCC_AHB5ENR_NPUEN
 213:STM32Cube_FW_N6/Drivers/STM32N6xx_HAL_Driver/Inc/stm32n6xx_ll_bus.h **** #define LL_AHB5_GRP1_PERIPH_OTG1              RCC_AHB5ENR_OTG1EN
 214:STM32Cube_FW_N6/Drivers/STM32N6xx_HAL_Driver/Inc/stm32n6xx_ll_bus.h **** #define LL_AHB5_GRP1_PERIPH_OTG2              RCC_AHB5ENR_OTG2EN
 215:STM32Cube_FW_N6/Drivers/STM32N6xx_HAL_Driver/Inc/stm32n6xx_ll_bus.h **** #define LL_AHB5_GRP1_PERIPH_OTGPHY1           RCC_AHB5ENR_OTGPHY1EN
 216:STM32Cube_FW_N6/Drivers/STM32N6xx_HAL_Driver/Inc/stm32n6xx_ll_bus.h **** #define LL_AHB5_GRP1_PERIPH_OTGPHY2           RCC_AHB5ENR_OTGPHY2EN
 217:STM32Cube_FW_N6/Drivers/STM32N6xx_HAL_Driver/Inc/stm32n6xx_ll_bus.h **** #define LL_AHB5_GRP1_PERIPH_OTG1PHYCTL        RCC_AHB5RSTR_OTG1PHYCTLRST
 218:STM32Cube_FW_N6/Drivers/STM32N6xx_HAL_Driver/Inc/stm32n6xx_ll_bus.h **** #define LL_AHB5_GRP1_PERIPH_OTG2PHYCTL        RCC_AHB5RSTR_OTG2PHYCTLRST
 219:STM32Cube_FW_N6/Drivers/STM32N6xx_HAL_Driver/Inc/stm32n6xx_ll_bus.h **** #define LL_AHB5_GRP1_PERIPH_PSSI              RCC_AHB5ENR_PSSIEN
 220:STM32Cube_FW_N6/Drivers/STM32N6xx_HAL_Driver/Inc/stm32n6xx_ll_bus.h **** #define LL_AHB5_GRP1_PERIPH_SDMMC1            RCC_AHB5ENR_SDMMC1EN
 221:STM32Cube_FW_N6/Drivers/STM32N6xx_HAL_Driver/Inc/stm32n6xx_ll_bus.h **** #define LL_AHB5_GRP1_PERIPH_SDMMC2            RCC_AHB5ENR_SDMMC2EN
 222:STM32Cube_FW_N6/Drivers/STM32N6xx_HAL_Driver/Inc/stm32n6xx_ll_bus.h **** #define LL_AHB5_GRP1_PERIPH_ALL            (LL_AHB5_GRP1_PERIPH_DMA2D    | LL_AHB5_GRP1_PERIPH_ETH1
 223:STM32Cube_FW_N6/Drivers/STM32N6xx_HAL_Driver/Inc/stm32n6xx_ll_bus.h ****                                             LL_AHB5_GRP1_PERIPH_ETH1MAC  | LL_AHB5_GRP1_PERIPH_ETH1
 224:STM32Cube_FW_N6/Drivers/STM32N6xx_HAL_Driver/Inc/stm32n6xx_ll_bus.h ****                                             LL_AHB5_GRP1_PERIPH_ETH1RX   | LL_AHB5_GRP1_PERIPH_FMC 
 225:STM32Cube_FW_N6/Drivers/STM32N6xx_HAL_Driver/Inc/stm32n6xx_ll_bus.h ****                                             LL_AHB5_GRP1_PERIPH_GFXMMU   | LL_AHB5_GRP1_PERIPH_GPU2
 226:STM32Cube_FW_N6/Drivers/STM32N6xx_HAL_Driver/Inc/stm32n6xx_ll_bus.h ****                                             LL_AHB5_GRP1_PERIPH_HPDMA1   | LL_AHB5_GRP1_PERIPH_XSPI
 227:STM32Cube_FW_N6/Drivers/STM32N6xx_HAL_Driver/Inc/stm32n6xx_ll_bus.h ****                                             LL_AHB5_GRP1_PERIPH_XSPI2    | LL_AHB5_GRP1_PERIPH_XSPI
 228:STM32Cube_FW_N6/Drivers/STM32N6xx_HAL_Driver/Inc/stm32n6xx_ll_bus.h ****                                             LL_AHB5_GRP1_PERIPH_XSPIM    | LL_AHB5_GRP1_PERIPH_JPEG
 229:STM32Cube_FW_N6/Drivers/STM32N6xx_HAL_Driver/Inc/stm32n6xx_ll_bus.h ****                                             LL_AHB5_GRP1_PERIPH_MCE1     | LL_AHB5_GRP1_PERIPH_MCE2
 230:STM32Cube_FW_N6/Drivers/STM32N6xx_HAL_Driver/Inc/stm32n6xx_ll_bus.h ****                                             LL_AHB5_GRP1_PERIPH_MCE3     | LL_AHB5_GRP1_PERIPH_MCE4
ARM GAS  C:\Users\DJESSOU\AppData\Local\Temp\ccIfw9Ia.s 			page 27


 231:STM32Cube_FW_N6/Drivers/STM32N6xx_HAL_Driver/Inc/stm32n6xx_ll_bus.h ****                                             LL_AHB5_GRP1_PERIPH_CACHEAXI | LL_AHB5_GRP1_PERIPH_NPU 
 232:STM32Cube_FW_N6/Drivers/STM32N6xx_HAL_Driver/Inc/stm32n6xx_ll_bus.h ****                                             LL_AHB5_GRP1_PERIPH_OTG1     | LL_AHB5_GRP1_PERIPH_OTG2
 233:STM32Cube_FW_N6/Drivers/STM32N6xx_HAL_Driver/Inc/stm32n6xx_ll_bus.h ****                                             LL_AHB5_GRP1_PERIPH_OTGPHY1  | LL_AHB5_GRP1_PERIPH_OTGP
 234:STM32Cube_FW_N6/Drivers/STM32N6xx_HAL_Driver/Inc/stm32n6xx_ll_bus.h ****                                             LL_AHB5_GRP1_PERIPH_PSSI     | LL_AHB5_GRP1_PERIPH_SDMM
 235:STM32Cube_FW_N6/Drivers/STM32N6xx_HAL_Driver/Inc/stm32n6xx_ll_bus.h ****                                             LL_AHB5_GRP1_PERIPH_SDMMC2)
 236:STM32Cube_FW_N6/Drivers/STM32N6xx_HAL_Driver/Inc/stm32n6xx_ll_bus.h **** /**
 237:STM32Cube_FW_N6/Drivers/STM32N6xx_HAL_Driver/Inc/stm32n6xx_ll_bus.h ****   * @}
 238:STM32Cube_FW_N6/Drivers/STM32N6xx_HAL_Driver/Inc/stm32n6xx_ll_bus.h ****   */
 239:STM32Cube_FW_N6/Drivers/STM32N6xx_HAL_Driver/Inc/stm32n6xx_ll_bus.h **** 
 240:STM32Cube_FW_N6/Drivers/STM32N6xx_HAL_Driver/Inc/stm32n6xx_ll_bus.h **** /** @defgroup BUS_LL_EC_APB1_GRP1_PERIPH  APB1 GRP1 PERIPH
 241:STM32Cube_FW_N6/Drivers/STM32N6xx_HAL_Driver/Inc/stm32n6xx_ll_bus.h ****   * @{
 242:STM32Cube_FW_N6/Drivers/STM32N6xx_HAL_Driver/Inc/stm32n6xx_ll_bus.h ****   */
 243:STM32Cube_FW_N6/Drivers/STM32N6xx_HAL_Driver/Inc/stm32n6xx_ll_bus.h **** #define LL_APB1_GRP1_PERIPH_I2C1           RCC_APB1ENR1_I2C1EN
 244:STM32Cube_FW_N6/Drivers/STM32N6xx_HAL_Driver/Inc/stm32n6xx_ll_bus.h **** #define LL_APB1_GRP1_PERIPH_I2C2           RCC_APB1ENR1_I2C2EN
 245:STM32Cube_FW_N6/Drivers/STM32N6xx_HAL_Driver/Inc/stm32n6xx_ll_bus.h **** #define LL_APB1_GRP1_PERIPH_I2C3           RCC_APB1ENR1_I2C3EN
 246:STM32Cube_FW_N6/Drivers/STM32N6xx_HAL_Driver/Inc/stm32n6xx_ll_bus.h **** #define LL_APB1_GRP1_PERIPH_I3C1           RCC_APB1ENR1_I3C1EN
 247:STM32Cube_FW_N6/Drivers/STM32N6xx_HAL_Driver/Inc/stm32n6xx_ll_bus.h **** #define LL_APB1_GRP1_PERIPH_I3C2           RCC_APB1ENR1_I3C2EN
 248:STM32Cube_FW_N6/Drivers/STM32N6xx_HAL_Driver/Inc/stm32n6xx_ll_bus.h **** #define LL_APB1_GRP1_PERIPH_LPTIM1         RCC_APB1ENR1_LPTIM1EN
 249:STM32Cube_FW_N6/Drivers/STM32N6xx_HAL_Driver/Inc/stm32n6xx_ll_bus.h **** #define LL_APB1_GRP1_PERIPH_SPDIFRX1       RCC_APB1ENR1_SPDIFRX1EN
 250:STM32Cube_FW_N6/Drivers/STM32N6xx_HAL_Driver/Inc/stm32n6xx_ll_bus.h **** #define LL_APB1_GRP1_PERIPH_SPI2           RCC_APB1ENR1_SPI2EN
 251:STM32Cube_FW_N6/Drivers/STM32N6xx_HAL_Driver/Inc/stm32n6xx_ll_bus.h **** #define LL_APB1_GRP1_PERIPH_SPI3           RCC_APB1ENR1_SPI3EN
 252:STM32Cube_FW_N6/Drivers/STM32N6xx_HAL_Driver/Inc/stm32n6xx_ll_bus.h **** #define LL_APB1_GRP1_PERIPH_TIM2           RCC_APB1ENR1_TIM2EN
 253:STM32Cube_FW_N6/Drivers/STM32N6xx_HAL_Driver/Inc/stm32n6xx_ll_bus.h **** #define LL_APB1_GRP1_PERIPH_TIM3           RCC_APB1ENR1_TIM3EN
 254:STM32Cube_FW_N6/Drivers/STM32N6xx_HAL_Driver/Inc/stm32n6xx_ll_bus.h **** #define LL_APB1_GRP1_PERIPH_TIM4           RCC_APB1ENR1_TIM4EN
 255:STM32Cube_FW_N6/Drivers/STM32N6xx_HAL_Driver/Inc/stm32n6xx_ll_bus.h **** #define LL_APB1_GRP1_PERIPH_TIM5           RCC_APB1ENR1_TIM5EN
 256:STM32Cube_FW_N6/Drivers/STM32N6xx_HAL_Driver/Inc/stm32n6xx_ll_bus.h **** #define LL_APB1_GRP1_PERIPH_TIM6           RCC_APB1ENR1_TIM6EN
 257:STM32Cube_FW_N6/Drivers/STM32N6xx_HAL_Driver/Inc/stm32n6xx_ll_bus.h **** #define LL_APB1_GRP1_PERIPH_TIM7           RCC_APB1ENR1_TIM7EN
 258:STM32Cube_FW_N6/Drivers/STM32N6xx_HAL_Driver/Inc/stm32n6xx_ll_bus.h **** #define LL_APB1_GRP1_PERIPH_TIM10          RCC_APB1ENR1_TIM10EN
 259:STM32Cube_FW_N6/Drivers/STM32N6xx_HAL_Driver/Inc/stm32n6xx_ll_bus.h **** #define LL_APB1_GRP1_PERIPH_TIM11          RCC_APB1ENR1_TIM11EN
 260:STM32Cube_FW_N6/Drivers/STM32N6xx_HAL_Driver/Inc/stm32n6xx_ll_bus.h **** #define LL_APB1_GRP1_PERIPH_TIM12          RCC_APB1ENR1_TIM12EN
 261:STM32Cube_FW_N6/Drivers/STM32N6xx_HAL_Driver/Inc/stm32n6xx_ll_bus.h **** #define LL_APB1_GRP1_PERIPH_TIM13          RCC_APB1ENR1_TIM13EN
 262:STM32Cube_FW_N6/Drivers/STM32N6xx_HAL_Driver/Inc/stm32n6xx_ll_bus.h **** #define LL_APB1_GRP1_PERIPH_TIM14          RCC_APB1ENR1_TIM14EN
 263:STM32Cube_FW_N6/Drivers/STM32N6xx_HAL_Driver/Inc/stm32n6xx_ll_bus.h **** #define LL_APB1_GRP1_PERIPH_USART2         RCC_APB1ENR1_USART2EN
 264:STM32Cube_FW_N6/Drivers/STM32N6xx_HAL_Driver/Inc/stm32n6xx_ll_bus.h **** #define LL_APB1_GRP1_PERIPH_USART3         RCC_APB1ENR1_USART3EN
 265:STM32Cube_FW_N6/Drivers/STM32N6xx_HAL_Driver/Inc/stm32n6xx_ll_bus.h **** #define LL_APB1_GRP1_PERIPH_UART4          RCC_APB1ENR1_UART4EN
 266:STM32Cube_FW_N6/Drivers/STM32N6xx_HAL_Driver/Inc/stm32n6xx_ll_bus.h **** #define LL_APB1_GRP1_PERIPH_UART5          RCC_APB1ENR1_UART5EN
 267:STM32Cube_FW_N6/Drivers/STM32N6xx_HAL_Driver/Inc/stm32n6xx_ll_bus.h **** #define LL_APB1_GRP1_PERIPH_UART7          RCC_APB1ENR1_UART7EN
 268:STM32Cube_FW_N6/Drivers/STM32N6xx_HAL_Driver/Inc/stm32n6xx_ll_bus.h **** #define LL_APB1_GRP1_PERIPH_UART8          RCC_APB1ENR1_UART8EN
 269:STM32Cube_FW_N6/Drivers/STM32N6xx_HAL_Driver/Inc/stm32n6xx_ll_bus.h **** #define LL_APB1_GRP1_PERIPH_WWDG           RCC_APB1ENR1_WWDGEN
 270:STM32Cube_FW_N6/Drivers/STM32N6xx_HAL_Driver/Inc/stm32n6xx_ll_bus.h **** #define LL_APB1_GRP1_PERIPH_ALL            (LL_APB1_GRP1_PERIPH_I2C1     | LL_APB1_GRP1_PERIPH_I2C2
 271:STM32Cube_FW_N6/Drivers/STM32N6xx_HAL_Driver/Inc/stm32n6xx_ll_bus.h ****                                             LL_APB1_GRP1_PERIPH_I2C3     | LL_APB1_GRP1_PERIPH_I3C1
 272:STM32Cube_FW_N6/Drivers/STM32N6xx_HAL_Driver/Inc/stm32n6xx_ll_bus.h ****                                             LL_APB1_GRP1_PERIPH_I3C2     | LL_APB1_GRP1_PERIPH_LPTI
 273:STM32Cube_FW_N6/Drivers/STM32N6xx_HAL_Driver/Inc/stm32n6xx_ll_bus.h ****                                             LL_APB1_GRP1_PERIPH_SPDIFRX1 | LL_APB1_GRP1_PERIPH_SPI2
 274:STM32Cube_FW_N6/Drivers/STM32N6xx_HAL_Driver/Inc/stm32n6xx_ll_bus.h ****                                             LL_APB1_GRP1_PERIPH_SPI3     | LL_APB1_GRP1_PERIPH_TIM2
 275:STM32Cube_FW_N6/Drivers/STM32N6xx_HAL_Driver/Inc/stm32n6xx_ll_bus.h ****                                             LL_APB1_GRP1_PERIPH_TIM3     | LL_APB1_GRP1_PERIPH_TIM4
 276:STM32Cube_FW_N6/Drivers/STM32N6xx_HAL_Driver/Inc/stm32n6xx_ll_bus.h ****                                             LL_APB1_GRP1_PERIPH_TIM5     | LL_APB1_GRP1_PERIPH_TIM6
 277:STM32Cube_FW_N6/Drivers/STM32N6xx_HAL_Driver/Inc/stm32n6xx_ll_bus.h ****                                             LL_APB1_GRP1_PERIPH_TIM7     | LL_APB1_GRP1_PERIPH_TIM1
 278:STM32Cube_FW_N6/Drivers/STM32N6xx_HAL_Driver/Inc/stm32n6xx_ll_bus.h ****                                             LL_APB1_GRP1_PERIPH_TIM11    | LL_APB1_GRP1_PERIPH_TIM1
 279:STM32Cube_FW_N6/Drivers/STM32N6xx_HAL_Driver/Inc/stm32n6xx_ll_bus.h ****                                             LL_APB1_GRP1_PERIPH_TIM13    | LL_APB1_GRP1_PERIPH_TIM1
 280:STM32Cube_FW_N6/Drivers/STM32N6xx_HAL_Driver/Inc/stm32n6xx_ll_bus.h ****                                             LL_APB1_GRP1_PERIPH_USART2   | LL_APB1_GRP1_PERIPH_USAR
 281:STM32Cube_FW_N6/Drivers/STM32N6xx_HAL_Driver/Inc/stm32n6xx_ll_bus.h ****                                             LL_APB1_GRP1_PERIPH_UART4    | LL_APB1_GRP1_PERIPH_UART
 282:STM32Cube_FW_N6/Drivers/STM32N6xx_HAL_Driver/Inc/stm32n6xx_ll_bus.h ****                                             LL_APB1_GRP1_PERIPH_UART7    | LL_APB1_GRP1_PERIPH_UART
 283:STM32Cube_FW_N6/Drivers/STM32N6xx_HAL_Driver/Inc/stm32n6xx_ll_bus.h ****                                             LL_APB1_GRP1_PERIPH_WWDG)
 284:STM32Cube_FW_N6/Drivers/STM32N6xx_HAL_Driver/Inc/stm32n6xx_ll_bus.h **** /**
 285:STM32Cube_FW_N6/Drivers/STM32N6xx_HAL_Driver/Inc/stm32n6xx_ll_bus.h ****   * @}
 286:STM32Cube_FW_N6/Drivers/STM32N6xx_HAL_Driver/Inc/stm32n6xx_ll_bus.h ****   */
 287:STM32Cube_FW_N6/Drivers/STM32N6xx_HAL_Driver/Inc/stm32n6xx_ll_bus.h **** 
ARM GAS  C:\Users\DJESSOU\AppData\Local\Temp\ccIfw9Ia.s 			page 28


 288:STM32Cube_FW_N6/Drivers/STM32N6xx_HAL_Driver/Inc/stm32n6xx_ll_bus.h **** /** @defgroup BUS_LL_EC_APB1_GRP2_PERIPH  APB1 GRP2 PERIPH
 289:STM32Cube_FW_N6/Drivers/STM32N6xx_HAL_Driver/Inc/stm32n6xx_ll_bus.h ****   * @{
 290:STM32Cube_FW_N6/Drivers/STM32N6xx_HAL_Driver/Inc/stm32n6xx_ll_bus.h ****   */
 291:STM32Cube_FW_N6/Drivers/STM32N6xx_HAL_Driver/Inc/stm32n6xx_ll_bus.h **** #define LL_APB1_GRP2_PERIPH_FDCAN          RCC_APB1ENR2_FDCANEN
 292:STM32Cube_FW_N6/Drivers/STM32N6xx_HAL_Driver/Inc/stm32n6xx_ll_bus.h **** #define LL_APB1_GRP2_PERIPH_MDIOS          RCC_APB1ENR2_MDIOSEN
 293:STM32Cube_FW_N6/Drivers/STM32N6xx_HAL_Driver/Inc/stm32n6xx_ll_bus.h **** #define LL_APB1_GRP2_PERIPH_UCPD1          RCC_APB1ENR2_UCPD1EN
 294:STM32Cube_FW_N6/Drivers/STM32N6xx_HAL_Driver/Inc/stm32n6xx_ll_bus.h **** #define LL_APB1_GRP2_PERIPH_ALL            (LL_APB1_GRP2_PERIPH_FDCAN | LL_APB1_GRP2_PERIPH_MDIOS |
 295:STM32Cube_FW_N6/Drivers/STM32N6xx_HAL_Driver/Inc/stm32n6xx_ll_bus.h ****                                             LL_APB1_GRP2_PERIPH_UCPD1)
 296:STM32Cube_FW_N6/Drivers/STM32N6xx_HAL_Driver/Inc/stm32n6xx_ll_bus.h **** /**
 297:STM32Cube_FW_N6/Drivers/STM32N6xx_HAL_Driver/Inc/stm32n6xx_ll_bus.h ****   * @}
 298:STM32Cube_FW_N6/Drivers/STM32N6xx_HAL_Driver/Inc/stm32n6xx_ll_bus.h ****   */
 299:STM32Cube_FW_N6/Drivers/STM32N6xx_HAL_Driver/Inc/stm32n6xx_ll_bus.h **** 
 300:STM32Cube_FW_N6/Drivers/STM32N6xx_HAL_Driver/Inc/stm32n6xx_ll_bus.h **** /** @defgroup BUS_LL_EC_APB2_GRP1_PERIPH  APB2 GRP1 PERIPH
 301:STM32Cube_FW_N6/Drivers/STM32N6xx_HAL_Driver/Inc/stm32n6xx_ll_bus.h ****   * @{
 302:STM32Cube_FW_N6/Drivers/STM32N6xx_HAL_Driver/Inc/stm32n6xx_ll_bus.h ****   */
 303:STM32Cube_FW_N6/Drivers/STM32N6xx_HAL_Driver/Inc/stm32n6xx_ll_bus.h **** #define LL_APB2_GRP1_PERIPH_SAI1           RCC_APB2ENR_SAI1EN
 304:STM32Cube_FW_N6/Drivers/STM32N6xx_HAL_Driver/Inc/stm32n6xx_ll_bus.h **** #define LL_APB2_GRP1_PERIPH_SAI2           RCC_APB2ENR_SAI2EN
 305:STM32Cube_FW_N6/Drivers/STM32N6xx_HAL_Driver/Inc/stm32n6xx_ll_bus.h **** #define LL_APB2_GRP1_PERIPH_SPI1           RCC_APB2ENR_SPI1EN
 306:STM32Cube_FW_N6/Drivers/STM32N6xx_HAL_Driver/Inc/stm32n6xx_ll_bus.h **** #define LL_APB2_GRP1_PERIPH_SPI4           RCC_APB2ENR_SPI4EN
 307:STM32Cube_FW_N6/Drivers/STM32N6xx_HAL_Driver/Inc/stm32n6xx_ll_bus.h **** #define LL_APB2_GRP1_PERIPH_SPI5           RCC_APB2ENR_SPI5EN
 308:STM32Cube_FW_N6/Drivers/STM32N6xx_HAL_Driver/Inc/stm32n6xx_ll_bus.h **** #define LL_APB2_GRP1_PERIPH_TIM1           RCC_APB2ENR_TIM1EN
 309:STM32Cube_FW_N6/Drivers/STM32N6xx_HAL_Driver/Inc/stm32n6xx_ll_bus.h **** #define LL_APB2_GRP1_PERIPH_TIM8           RCC_APB2ENR_TIM8EN
 310:STM32Cube_FW_N6/Drivers/STM32N6xx_HAL_Driver/Inc/stm32n6xx_ll_bus.h **** #define LL_APB2_GRP1_PERIPH_TIM9           RCC_APB2ENR_TIM9EN
 311:STM32Cube_FW_N6/Drivers/STM32N6xx_HAL_Driver/Inc/stm32n6xx_ll_bus.h **** #define LL_APB2_GRP1_PERIPH_TIM15          RCC_APB2ENR_TIM15EN
 312:STM32Cube_FW_N6/Drivers/STM32N6xx_HAL_Driver/Inc/stm32n6xx_ll_bus.h **** #define LL_APB2_GRP1_PERIPH_TIM16          RCC_APB2ENR_TIM16EN
 313:STM32Cube_FW_N6/Drivers/STM32N6xx_HAL_Driver/Inc/stm32n6xx_ll_bus.h **** #define LL_APB2_GRP1_PERIPH_TIM17          RCC_APB2ENR_TIM17EN
 314:STM32Cube_FW_N6/Drivers/STM32N6xx_HAL_Driver/Inc/stm32n6xx_ll_bus.h **** #define LL_APB2_GRP1_PERIPH_TIM18          RCC_APB2ENR_TIM18EN
 315:STM32Cube_FW_N6/Drivers/STM32N6xx_HAL_Driver/Inc/stm32n6xx_ll_bus.h **** #define LL_APB2_GRP1_PERIPH_USART1         RCC_APB2ENR_USART1EN
 316:STM32Cube_FW_N6/Drivers/STM32N6xx_HAL_Driver/Inc/stm32n6xx_ll_bus.h **** #define LL_APB2_GRP1_PERIPH_USART6         RCC_APB2ENR_USART6EN
 317:STM32Cube_FW_N6/Drivers/STM32N6xx_HAL_Driver/Inc/stm32n6xx_ll_bus.h **** #define LL_APB2_GRP1_PERIPH_UART9          RCC_APB2ENR_UART9EN
 318:STM32Cube_FW_N6/Drivers/STM32N6xx_HAL_Driver/Inc/stm32n6xx_ll_bus.h **** #define LL_APB2_GRP1_PERIPH_USART10        RCC_APB2ENR_USART10EN
 319:STM32Cube_FW_N6/Drivers/STM32N6xx_HAL_Driver/Inc/stm32n6xx_ll_bus.h **** #define LL_APB2_GRP1_PERIPH_ALL            (LL_APB2_GRP1_PERIPH_SAI1   | LL_APB2_GRP1_PERIPH_SAI2  
 320:STM32Cube_FW_N6/Drivers/STM32N6xx_HAL_Driver/Inc/stm32n6xx_ll_bus.h ****                                             LL_APB2_GRP1_PERIPH_SPI1   | LL_APB2_GRP1_PERIPH_SPI4  
 321:STM32Cube_FW_N6/Drivers/STM32N6xx_HAL_Driver/Inc/stm32n6xx_ll_bus.h ****                                             LL_APB2_GRP1_PERIPH_SPI5   | LL_APB2_GRP1_PERIPH_TIM1  
 322:STM32Cube_FW_N6/Drivers/STM32N6xx_HAL_Driver/Inc/stm32n6xx_ll_bus.h ****                                             LL_APB2_GRP1_PERIPH_TIM8   | LL_APB2_GRP1_PERIPH_TIM9  
 323:STM32Cube_FW_N6/Drivers/STM32N6xx_HAL_Driver/Inc/stm32n6xx_ll_bus.h ****                                             LL_APB2_GRP1_PERIPH_TIM15  | LL_APB2_GRP1_PERIPH_TIM16 
 324:STM32Cube_FW_N6/Drivers/STM32N6xx_HAL_Driver/Inc/stm32n6xx_ll_bus.h ****                                             LL_APB2_GRP1_PERIPH_TIM17  | LL_APB2_GRP1_PERIPH_TIM18 
 325:STM32Cube_FW_N6/Drivers/STM32N6xx_HAL_Driver/Inc/stm32n6xx_ll_bus.h ****                                             LL_APB2_GRP1_PERIPH_USART1 | LL_APB2_GRP1_PERIPH_USART6
 326:STM32Cube_FW_N6/Drivers/STM32N6xx_HAL_Driver/Inc/stm32n6xx_ll_bus.h ****                                             LL_APB2_GRP1_PERIPH_UART9  | LL_APB2_GRP1_PERIPH_USART1
 327:STM32Cube_FW_N6/Drivers/STM32N6xx_HAL_Driver/Inc/stm32n6xx_ll_bus.h **** /**
 328:STM32Cube_FW_N6/Drivers/STM32N6xx_HAL_Driver/Inc/stm32n6xx_ll_bus.h ****   * @}
 329:STM32Cube_FW_N6/Drivers/STM32N6xx_HAL_Driver/Inc/stm32n6xx_ll_bus.h ****   */
 330:STM32Cube_FW_N6/Drivers/STM32N6xx_HAL_Driver/Inc/stm32n6xx_ll_bus.h **** 
 331:STM32Cube_FW_N6/Drivers/STM32N6xx_HAL_Driver/Inc/stm32n6xx_ll_bus.h **** /** @defgroup BUS_LL_EC_APB4_GRP1_PERIPH  APB4 GRP1 PERIPH
 332:STM32Cube_FW_N6/Drivers/STM32N6xx_HAL_Driver/Inc/stm32n6xx_ll_bus.h ****   * @{
 333:STM32Cube_FW_N6/Drivers/STM32N6xx_HAL_Driver/Inc/stm32n6xx_ll_bus.h ****   */
 334:STM32Cube_FW_N6/Drivers/STM32N6xx_HAL_Driver/Inc/stm32n6xx_ll_bus.h **** #define LL_APB4_GRP1_PERIPH_HDP            RCC_APB4ENR1_HDPEN
 335:STM32Cube_FW_N6/Drivers/STM32N6xx_HAL_Driver/Inc/stm32n6xx_ll_bus.h **** #define LL_APB4_GRP1_PERIPH_I2C4           RCC_APB4ENR1_I2C4EN
 336:STM32Cube_FW_N6/Drivers/STM32N6xx_HAL_Driver/Inc/stm32n6xx_ll_bus.h **** #define LL_APB4_GRP1_PERIPH_LPTIM2         RCC_APB4ENR1_LPTIM2EN
 337:STM32Cube_FW_N6/Drivers/STM32N6xx_HAL_Driver/Inc/stm32n6xx_ll_bus.h **** #define LL_APB4_GRP1_PERIPH_LPTIM3         RCC_APB4ENR1_LPTIM3EN
 338:STM32Cube_FW_N6/Drivers/STM32N6xx_HAL_Driver/Inc/stm32n6xx_ll_bus.h **** #define LL_APB4_GRP1_PERIPH_LPTIM4         RCC_APB4ENR1_LPTIM4EN
 339:STM32Cube_FW_N6/Drivers/STM32N6xx_HAL_Driver/Inc/stm32n6xx_ll_bus.h **** #define LL_APB4_GRP1_PERIPH_LPTIM5         RCC_APB4ENR1_LPTIM5EN
 340:STM32Cube_FW_N6/Drivers/STM32N6xx_HAL_Driver/Inc/stm32n6xx_ll_bus.h **** #define LL_APB4_GRP1_PERIPH_LPUART1        RCC_APB4ENR1_LPUART1EN
 341:STM32Cube_FW_N6/Drivers/STM32N6xx_HAL_Driver/Inc/stm32n6xx_ll_bus.h **** #define LL_APB4_GRP1_PERIPH_RTC            RCC_APB4ENR1_RTCEN
 342:STM32Cube_FW_N6/Drivers/STM32N6xx_HAL_Driver/Inc/stm32n6xx_ll_bus.h **** #define LL_APB4_GRP1_PERIPH_RTCAPB         RCC_APB4ENR1_RTCAPBEN
 343:STM32Cube_FW_N6/Drivers/STM32N6xx_HAL_Driver/Inc/stm32n6xx_ll_bus.h **** #define LL_APB4_GRP1_PERIPH_SPI6           RCC_APB4ENR1_SPI6EN
 344:STM32Cube_FW_N6/Drivers/STM32N6xx_HAL_Driver/Inc/stm32n6xx_ll_bus.h **** #define LL_APB4_GRP1_PERIPH_VREFBUF        RCC_APB4ENR1_VREFBUFEN
ARM GAS  C:\Users\DJESSOU\AppData\Local\Temp\ccIfw9Ia.s 			page 29


 345:STM32Cube_FW_N6/Drivers/STM32N6xx_HAL_Driver/Inc/stm32n6xx_ll_bus.h **** #define LL_APB4_GRP1_PERIPH_ALL            (LL_APB4_GRP1_PERIPH_HDP     | LL_APB4_GRP1_PERIPH_I2C4 
 346:STM32Cube_FW_N6/Drivers/STM32N6xx_HAL_Driver/Inc/stm32n6xx_ll_bus.h ****                                             LL_APB4_GRP1_PERIPH_LPTIM2  | LL_APB4_GRP1_PERIPH_LPTIM
 347:STM32Cube_FW_N6/Drivers/STM32N6xx_HAL_Driver/Inc/stm32n6xx_ll_bus.h ****                                             LL_APB4_GRP1_PERIPH_LPTIM4  | LL_APB4_GRP1_PERIPH_LPTIM
 348:STM32Cube_FW_N6/Drivers/STM32N6xx_HAL_Driver/Inc/stm32n6xx_ll_bus.h ****                                             LL_APB4_GRP1_PERIPH_LPUART1 | LL_APB4_GRP1_PERIPH_RTC  
 349:STM32Cube_FW_N6/Drivers/STM32N6xx_HAL_Driver/Inc/stm32n6xx_ll_bus.h ****                                             LL_APB4_GRP1_PERIPH_RTCAPB  | LL_APB4_GRP1_PERIPH_SPI6 
 350:STM32Cube_FW_N6/Drivers/STM32N6xx_HAL_Driver/Inc/stm32n6xx_ll_bus.h ****                                             LL_APB4_GRP1_PERIPH_VREFBUF)
 351:STM32Cube_FW_N6/Drivers/STM32N6xx_HAL_Driver/Inc/stm32n6xx_ll_bus.h **** /**
 352:STM32Cube_FW_N6/Drivers/STM32N6xx_HAL_Driver/Inc/stm32n6xx_ll_bus.h ****   * @}
 353:STM32Cube_FW_N6/Drivers/STM32N6xx_HAL_Driver/Inc/stm32n6xx_ll_bus.h ****   */
 354:STM32Cube_FW_N6/Drivers/STM32N6xx_HAL_Driver/Inc/stm32n6xx_ll_bus.h **** 
 355:STM32Cube_FW_N6/Drivers/STM32N6xx_HAL_Driver/Inc/stm32n6xx_ll_bus.h **** /** @defgroup BUS_LL_EC_APB4_GRP2_PERIPH  APB4 GRP2 PERIPH
 356:STM32Cube_FW_N6/Drivers/STM32N6xx_HAL_Driver/Inc/stm32n6xx_ll_bus.h ****   * @{
 357:STM32Cube_FW_N6/Drivers/STM32N6xx_HAL_Driver/Inc/stm32n6xx_ll_bus.h ****   */
 358:STM32Cube_FW_N6/Drivers/STM32N6xx_HAL_Driver/Inc/stm32n6xx_ll_bus.h **** #define LL_APB4_GRP2_PERIPH_BSEC           RCC_APB4ENR2_BSECEN
 359:STM32Cube_FW_N6/Drivers/STM32N6xx_HAL_Driver/Inc/stm32n6xx_ll_bus.h **** #define LL_APB4_GRP2_PERIPH_DTS            RCC_APB4ENR2_DTSEN
 360:STM32Cube_FW_N6/Drivers/STM32N6xx_HAL_Driver/Inc/stm32n6xx_ll_bus.h **** #define LL_APB4_GRP2_PERIPH_SYSCFG         RCC_APB4ENR2_SYSCFGEN
 361:STM32Cube_FW_N6/Drivers/STM32N6xx_HAL_Driver/Inc/stm32n6xx_ll_bus.h **** #define LL_APB4_GRP2_PERIPH_ALL            (LL_APB4_GRP2_PERIPH_BSEC | LL_APB4_GRP2_PERIPH_DTS | \
 362:STM32Cube_FW_N6/Drivers/STM32N6xx_HAL_Driver/Inc/stm32n6xx_ll_bus.h ****                                             LL_APB4_GRP2_PERIPH_SYSCFG)
 363:STM32Cube_FW_N6/Drivers/STM32N6xx_HAL_Driver/Inc/stm32n6xx_ll_bus.h **** /**
 364:STM32Cube_FW_N6/Drivers/STM32N6xx_HAL_Driver/Inc/stm32n6xx_ll_bus.h ****   * @}
 365:STM32Cube_FW_N6/Drivers/STM32N6xx_HAL_Driver/Inc/stm32n6xx_ll_bus.h ****   */
 366:STM32Cube_FW_N6/Drivers/STM32N6xx_HAL_Driver/Inc/stm32n6xx_ll_bus.h **** 
 367:STM32Cube_FW_N6/Drivers/STM32N6xx_HAL_Driver/Inc/stm32n6xx_ll_bus.h **** /** @defgroup BUS_LL_EC_APB5_GRP1_PERIPH  APB5 GRP1 PERIPH
 368:STM32Cube_FW_N6/Drivers/STM32N6xx_HAL_Driver/Inc/stm32n6xx_ll_bus.h ****   * @{
 369:STM32Cube_FW_N6/Drivers/STM32N6xx_HAL_Driver/Inc/stm32n6xx_ll_bus.h ****   */
 370:STM32Cube_FW_N6/Drivers/STM32N6xx_HAL_Driver/Inc/stm32n6xx_ll_bus.h **** #define LL_APB5_GRP1_PERIPH_CSI            RCC_APB5ENR_CSIEN
 371:STM32Cube_FW_N6/Drivers/STM32N6xx_HAL_Driver/Inc/stm32n6xx_ll_bus.h **** #define LL_APB5_GRP1_PERIPH_DCMIPP         RCC_APB5ENR_DCMIPPEN
 372:STM32Cube_FW_N6/Drivers/STM32N6xx_HAL_Driver/Inc/stm32n6xx_ll_bus.h **** #define LL_APB5_GRP1_PERIPH_GFXTIM         RCC_APB5ENR_GFXTIMEN
 373:STM32Cube_FW_N6/Drivers/STM32N6xx_HAL_Driver/Inc/stm32n6xx_ll_bus.h **** #define LL_APB5_GRP1_PERIPH_LTDC           RCC_APB5ENR_LTDCEN
 374:STM32Cube_FW_N6/Drivers/STM32N6xx_HAL_Driver/Inc/stm32n6xx_ll_bus.h **** #if defined(VENC)
 375:STM32Cube_FW_N6/Drivers/STM32N6xx_HAL_Driver/Inc/stm32n6xx_ll_bus.h **** #define LL_APB5_GRP1_PERIPH_VENC           RCC_APB5ENR_VENCEN
 376:STM32Cube_FW_N6/Drivers/STM32N6xx_HAL_Driver/Inc/stm32n6xx_ll_bus.h **** #else
 377:STM32Cube_FW_N6/Drivers/STM32N6xx_HAL_Driver/Inc/stm32n6xx_ll_bus.h **** #define LL_APB5_GRP1_PERIPH_VENC
 378:STM32Cube_FW_N6/Drivers/STM32N6xx_HAL_Driver/Inc/stm32n6xx_ll_bus.h **** #endif /* VENC */
 379:STM32Cube_FW_N6/Drivers/STM32N6xx_HAL_Driver/Inc/stm32n6xx_ll_bus.h **** #define LL_APB5_GRP1_PERIPH_ALL            (LL_APB5_GRP1_PERIPH_CSI    | LL_APB5_GRP1_PERIPH_DCMIPP
 380:STM32Cube_FW_N6/Drivers/STM32N6xx_HAL_Driver/Inc/stm32n6xx_ll_bus.h ****                                             LL_APB5_GRP1_PERIPH_GFXTIM | LL_APB5_GRP1_PERIPH_LTDC  
 381:STM32Cube_FW_N6/Drivers/STM32N6xx_HAL_Driver/Inc/stm32n6xx_ll_bus.h ****                                             LL_APB5_GRP1_PERIPH_VENC)
 382:STM32Cube_FW_N6/Drivers/STM32N6xx_HAL_Driver/Inc/stm32n6xx_ll_bus.h **** /**
 383:STM32Cube_FW_N6/Drivers/STM32N6xx_HAL_Driver/Inc/stm32n6xx_ll_bus.h ****   * @}
 384:STM32Cube_FW_N6/Drivers/STM32N6xx_HAL_Driver/Inc/stm32n6xx_ll_bus.h ****   */
 385:STM32Cube_FW_N6/Drivers/STM32N6xx_HAL_Driver/Inc/stm32n6xx_ll_bus.h **** 
 386:STM32Cube_FW_N6/Drivers/STM32N6xx_HAL_Driver/Inc/stm32n6xx_ll_bus.h **** /** @defgroup BUS_LL_EC_MISC  MISC
 387:STM32Cube_FW_N6/Drivers/STM32N6xx_HAL_Driver/Inc/stm32n6xx_ll_bus.h ****   * @{
 388:STM32Cube_FW_N6/Drivers/STM32N6xx_HAL_Driver/Inc/stm32n6xx_ll_bus.h ****   */
 389:STM32Cube_FW_N6/Drivers/STM32N6xx_HAL_Driver/Inc/stm32n6xx_ll_bus.h **** #define LL_DBG                             RCC_MISCENR_DBGEN
 390:STM32Cube_FW_N6/Drivers/STM32N6xx_HAL_Driver/Inc/stm32n6xx_ll_bus.h **** #define LL_MCO1                            RCC_MISCENR_MCO1EN
 391:STM32Cube_FW_N6/Drivers/STM32N6xx_HAL_Driver/Inc/stm32n6xx_ll_bus.h **** #define LL_MCO2                            RCC_MISCENR_MCO2EN
 392:STM32Cube_FW_N6/Drivers/STM32N6xx_HAL_Driver/Inc/stm32n6xx_ll_bus.h **** #define LL_XSPIPHYCOMP                     RCC_MISCENR_XSPIPHYCOMPEN
 393:STM32Cube_FW_N6/Drivers/STM32N6xx_HAL_Driver/Inc/stm32n6xx_ll_bus.h **** #define LL_XSPIPHY1                        RCC_MISCRSTR_XSPIPHY1RST
 394:STM32Cube_FW_N6/Drivers/STM32N6xx_HAL_Driver/Inc/stm32n6xx_ll_bus.h **** #define LL_XSPIPHY2                        RCC_MISCRSTR_XSPIPHY2RST
 395:STM32Cube_FW_N6/Drivers/STM32N6xx_HAL_Driver/Inc/stm32n6xx_ll_bus.h **** #define LL_PER                             RCC_MISCENR_PEREN
 396:STM32Cube_FW_N6/Drivers/STM32N6xx_HAL_Driver/Inc/stm32n6xx_ll_bus.h **** #define LL_SDMMC1DLL                       RCC_MISCRSTR_SDMMC1DLLRST
 397:STM32Cube_FW_N6/Drivers/STM32N6xx_HAL_Driver/Inc/stm32n6xx_ll_bus.h **** #define LL_SDMMC2DLL                       RCC_MISCRSTR_SDMMC2DLLRST
 398:STM32Cube_FW_N6/Drivers/STM32N6xx_HAL_Driver/Inc/stm32n6xx_ll_bus.h **** /**
 399:STM32Cube_FW_N6/Drivers/STM32N6xx_HAL_Driver/Inc/stm32n6xx_ll_bus.h ****   * @}
 400:STM32Cube_FW_N6/Drivers/STM32N6xx_HAL_Driver/Inc/stm32n6xx_ll_bus.h ****   */
 401:STM32Cube_FW_N6/Drivers/STM32N6xx_HAL_Driver/Inc/stm32n6xx_ll_bus.h **** 
ARM GAS  C:\Users\DJESSOU\AppData\Local\Temp\ccIfw9Ia.s 			page 30


 402:STM32Cube_FW_N6/Drivers/STM32N6xx_HAL_Driver/Inc/stm32n6xx_ll_bus.h **** /**
 403:STM32Cube_FW_N6/Drivers/STM32N6xx_HAL_Driver/Inc/stm32n6xx_ll_bus.h ****   * @}
 404:STM32Cube_FW_N6/Drivers/STM32N6xx_HAL_Driver/Inc/stm32n6xx_ll_bus.h ****   */
 405:STM32Cube_FW_N6/Drivers/STM32N6xx_HAL_Driver/Inc/stm32n6xx_ll_bus.h **** 
 406:STM32Cube_FW_N6/Drivers/STM32N6xx_HAL_Driver/Inc/stm32n6xx_ll_bus.h **** /* Exported macros -----------------------------------------------------------*/
 407:STM32Cube_FW_N6/Drivers/STM32N6xx_HAL_Driver/Inc/stm32n6xx_ll_bus.h **** 
 408:STM32Cube_FW_N6/Drivers/STM32N6xx_HAL_Driver/Inc/stm32n6xx_ll_bus.h **** /* Exported functions --------------------------------------------------------*/
 409:STM32Cube_FW_N6/Drivers/STM32N6xx_HAL_Driver/Inc/stm32n6xx_ll_bus.h **** 
 410:STM32Cube_FW_N6/Drivers/STM32N6xx_HAL_Driver/Inc/stm32n6xx_ll_bus.h **** /** @defgroup BUS_LL_Exported_Functions BUS Exported Functions
 411:STM32Cube_FW_N6/Drivers/STM32N6xx_HAL_Driver/Inc/stm32n6xx_ll_bus.h ****   * @{
 412:STM32Cube_FW_N6/Drivers/STM32N6xx_HAL_Driver/Inc/stm32n6xx_ll_bus.h ****   */
 413:STM32Cube_FW_N6/Drivers/STM32N6xx_HAL_Driver/Inc/stm32n6xx_ll_bus.h **** 
 414:STM32Cube_FW_N6/Drivers/STM32N6xx_HAL_Driver/Inc/stm32n6xx_ll_bus.h **** /** @defgroup BUS_LL_EF_BUS BUS
 415:STM32Cube_FW_N6/Drivers/STM32N6xx_HAL_Driver/Inc/stm32n6xx_ll_bus.h ****   * @{
 416:STM32Cube_FW_N6/Drivers/STM32N6xx_HAL_Driver/Inc/stm32n6xx_ll_bus.h ****   */
 417:STM32Cube_FW_N6/Drivers/STM32N6xx_HAL_Driver/Inc/stm32n6xx_ll_bus.h **** 
 418:STM32Cube_FW_N6/Drivers/STM32N6xx_HAL_Driver/Inc/stm32n6xx_ll_bus.h **** /**
 419:STM32Cube_FW_N6/Drivers/STM32N6xx_HAL_Driver/Inc/stm32n6xx_ll_bus.h ****   * @brief  Enable AXI bus clock.
 420:STM32Cube_FW_N6/Drivers/STM32N6xx_HAL_Driver/Inc/stm32n6xx_ll_bus.h ****   * @rmtoll BUSENSR      ACLKNENS      LL_BUS_EnableClock\n
 421:STM32Cube_FW_N6/Drivers/STM32N6xx_HAL_Driver/Inc/stm32n6xx_ll_bus.h ****   *         BUSENSR      ACLKNCENS     LL_BUS_EnableClock\n
 422:STM32Cube_FW_N6/Drivers/STM32N6xx_HAL_Driver/Inc/stm32n6xx_ll_bus.h ****   *         BUSENSR      AHBMENS       LL_BUS_EnableClock\n
 423:STM32Cube_FW_N6/Drivers/STM32N6xx_HAL_Driver/Inc/stm32n6xx_ll_bus.h ****   *         BUSENSR      AHB1ENS       LL_BUS_EnableClock\n
 424:STM32Cube_FW_N6/Drivers/STM32N6xx_HAL_Driver/Inc/stm32n6xx_ll_bus.h ****   *         BUSENSR      AHB2ENS       LL_BUS_EnableClock\n
 425:STM32Cube_FW_N6/Drivers/STM32N6xx_HAL_Driver/Inc/stm32n6xx_ll_bus.h ****   *         BUSENSR      AHB3ENS       LL_BUS_EnableClock\n
 426:STM32Cube_FW_N6/Drivers/STM32N6xx_HAL_Driver/Inc/stm32n6xx_ll_bus.h ****   *         BUSENSR      AHB4ENS       LL_BUS_EnableClock\n
 427:STM32Cube_FW_N6/Drivers/STM32N6xx_HAL_Driver/Inc/stm32n6xx_ll_bus.h ****   *         BUSENSR      AHB5ENS       LL_BUS_EnableClock\n
 428:STM32Cube_FW_N6/Drivers/STM32N6xx_HAL_Driver/Inc/stm32n6xx_ll_bus.h ****   *         BUSENSR      APB1ENS       LL_BUS_EnableClock\n
 429:STM32Cube_FW_N6/Drivers/STM32N6xx_HAL_Driver/Inc/stm32n6xx_ll_bus.h ****   *         BUSENSR      APB2ENS       LL_BUS_EnableClock\n
 430:STM32Cube_FW_N6/Drivers/STM32N6xx_HAL_Driver/Inc/stm32n6xx_ll_bus.h ****   *         BUSENSR      APB3ENS       LL_BUS_EnableClock\n
 431:STM32Cube_FW_N6/Drivers/STM32N6xx_HAL_Driver/Inc/stm32n6xx_ll_bus.h ****   *         BUSENSR      APB4ENS       LL_BUS_EnableClock\n
 432:STM32Cube_FW_N6/Drivers/STM32N6xx_HAL_Driver/Inc/stm32n6xx_ll_bus.h ****   *         BUSENSR      APB5ENS       LL_BUS_EnableClock
 433:STM32Cube_FW_N6/Drivers/STM32N6xx_HAL_Driver/Inc/stm32n6xx_ll_bus.h ****   * @param  Bus This parameter can be a combination of the following values:
 434:STM32Cube_FW_N6/Drivers/STM32N6xx_HAL_Driver/Inc/stm32n6xx_ll_bus.h ****   *         @arg @ref LL_ACLKN
 435:STM32Cube_FW_N6/Drivers/STM32N6xx_HAL_Driver/Inc/stm32n6xx_ll_bus.h ****   *         @arg @ref LL_ACLKNC
 436:STM32Cube_FW_N6/Drivers/STM32N6xx_HAL_Driver/Inc/stm32n6xx_ll_bus.h ****   *         @arg @ref LL_AHBM
 437:STM32Cube_FW_N6/Drivers/STM32N6xx_HAL_Driver/Inc/stm32n6xx_ll_bus.h ****   *         @arg @ref LL_AHB1
 438:STM32Cube_FW_N6/Drivers/STM32N6xx_HAL_Driver/Inc/stm32n6xx_ll_bus.h ****   *         @arg @ref LL_AHB2
 439:STM32Cube_FW_N6/Drivers/STM32N6xx_HAL_Driver/Inc/stm32n6xx_ll_bus.h ****   *         @arg @ref LL_AHB3
 440:STM32Cube_FW_N6/Drivers/STM32N6xx_HAL_Driver/Inc/stm32n6xx_ll_bus.h ****   *         @arg @ref LL_AHB4
 441:STM32Cube_FW_N6/Drivers/STM32N6xx_HAL_Driver/Inc/stm32n6xx_ll_bus.h ****   *         @arg @ref LL_AHB5
 442:STM32Cube_FW_N6/Drivers/STM32N6xx_HAL_Driver/Inc/stm32n6xx_ll_bus.h ****   *         @arg @ref LL_APB1
 443:STM32Cube_FW_N6/Drivers/STM32N6xx_HAL_Driver/Inc/stm32n6xx_ll_bus.h ****   *         @arg @ref LL_APB2
 444:STM32Cube_FW_N6/Drivers/STM32N6xx_HAL_Driver/Inc/stm32n6xx_ll_bus.h ****   *         @arg @ref LL_APB3
 445:STM32Cube_FW_N6/Drivers/STM32N6xx_HAL_Driver/Inc/stm32n6xx_ll_bus.h ****   *         @arg @ref LL_APB4
 446:STM32Cube_FW_N6/Drivers/STM32N6xx_HAL_Driver/Inc/stm32n6xx_ll_bus.h ****   *         @arg @ref LL_APB5
 447:STM32Cube_FW_N6/Drivers/STM32N6xx_HAL_Driver/Inc/stm32n6xx_ll_bus.h ****   * @retval None
 448:STM32Cube_FW_N6/Drivers/STM32N6xx_HAL_Driver/Inc/stm32n6xx_ll_bus.h ****   */
 449:STM32Cube_FW_N6/Drivers/STM32N6xx_HAL_Driver/Inc/stm32n6xx_ll_bus.h **** __STATIC_INLINE void LL_BUS_EnableClock(uint32_t Bus)
 450:STM32Cube_FW_N6/Drivers/STM32N6xx_HAL_Driver/Inc/stm32n6xx_ll_bus.h **** {
 451:STM32Cube_FW_N6/Drivers/STM32N6xx_HAL_Driver/Inc/stm32n6xx_ll_bus.h ****   __IO uint32_t tmpreg;
 452:STM32Cube_FW_N6/Drivers/STM32N6xx_HAL_Driver/Inc/stm32n6xx_ll_bus.h ****   WRITE_REG(RCC->BUSENSR, Bus);
 453:STM32Cube_FW_N6/Drivers/STM32N6xx_HAL_Driver/Inc/stm32n6xx_ll_bus.h ****   /* Delay after an RCC bus clock enabling */
 454:STM32Cube_FW_N6/Drivers/STM32N6xx_HAL_Driver/Inc/stm32n6xx_ll_bus.h ****   tmpreg = READ_REG(RCC->BUSENR);
 455:STM32Cube_FW_N6/Drivers/STM32N6xx_HAL_Driver/Inc/stm32n6xx_ll_bus.h ****   (void)tmpreg;
 456:STM32Cube_FW_N6/Drivers/STM32N6xx_HAL_Driver/Inc/stm32n6xx_ll_bus.h **** }
 457:STM32Cube_FW_N6/Drivers/STM32N6xx_HAL_Driver/Inc/stm32n6xx_ll_bus.h **** 
 458:STM32Cube_FW_N6/Drivers/STM32N6xx_HAL_Driver/Inc/stm32n6xx_ll_bus.h **** /**
ARM GAS  C:\Users\DJESSOU\AppData\Local\Temp\ccIfw9Ia.s 			page 31


 459:STM32Cube_FW_N6/Drivers/STM32N6xx_HAL_Driver/Inc/stm32n6xx_ll_bus.h ****   * @brief  Check if AXI bus clock is enabled or not
 460:STM32Cube_FW_N6/Drivers/STM32N6xx_HAL_Driver/Inc/stm32n6xx_ll_bus.h ****   * @rmtoll BUSENR       ACLKNEN       LL_BUS_IsEnabledClock\n
 461:STM32Cube_FW_N6/Drivers/STM32N6xx_HAL_Driver/Inc/stm32n6xx_ll_bus.h ****   *         BUSENR       ACLKNCEN      LL_BUS_IsEnabledClock\n
 462:STM32Cube_FW_N6/Drivers/STM32N6xx_HAL_Driver/Inc/stm32n6xx_ll_bus.h ****   *         BUSENR       AHBMEN        LL_BUS_IsEnabledClock\n
 463:STM32Cube_FW_N6/Drivers/STM32N6xx_HAL_Driver/Inc/stm32n6xx_ll_bus.h ****   *         BUSENR       AHB1EN        LL_BUS_IsEnabledClock\n
 464:STM32Cube_FW_N6/Drivers/STM32N6xx_HAL_Driver/Inc/stm32n6xx_ll_bus.h ****   *         BUSENR       AHB2EN        LL_BUS_IsEnabledClock\n
 465:STM32Cube_FW_N6/Drivers/STM32N6xx_HAL_Driver/Inc/stm32n6xx_ll_bus.h ****   *         BUSENR       AHB3EN        LL_BUS_IsEnabledClock\n
 466:STM32Cube_FW_N6/Drivers/STM32N6xx_HAL_Driver/Inc/stm32n6xx_ll_bus.h ****   *         BUSENR       AHB4EN        LL_BUS_IsEnabledClock\n
 467:STM32Cube_FW_N6/Drivers/STM32N6xx_HAL_Driver/Inc/stm32n6xx_ll_bus.h ****   *         BUSENR       AHB5EN        LL_BUS_IsEnabledClock\n
 468:STM32Cube_FW_N6/Drivers/STM32N6xx_HAL_Driver/Inc/stm32n6xx_ll_bus.h ****   *         BUSENR       APB1EN        LL_BUS_IsEnabledClock\n
 469:STM32Cube_FW_N6/Drivers/STM32N6xx_HAL_Driver/Inc/stm32n6xx_ll_bus.h ****   *         BUSENR       APB2EN        LL_BUS_IsEnabledClock\n
 470:STM32Cube_FW_N6/Drivers/STM32N6xx_HAL_Driver/Inc/stm32n6xx_ll_bus.h ****   *         BUSENR       APB3EN        LL_BUS_IsEnabledClock\n
 471:STM32Cube_FW_N6/Drivers/STM32N6xx_HAL_Driver/Inc/stm32n6xx_ll_bus.h ****   *         BUSENR       APB4EN        LL_BUS_IsEnabledClock\n
 472:STM32Cube_FW_N6/Drivers/STM32N6xx_HAL_Driver/Inc/stm32n6xx_ll_bus.h ****   *         BUSENR       APB5EN        LL_BUS_IsEnabledClock
 473:STM32Cube_FW_N6/Drivers/STM32N6xx_HAL_Driver/Inc/stm32n6xx_ll_bus.h ****   * @param  Bus This parameter can be a combination of the following values:
 474:STM32Cube_FW_N6/Drivers/STM32N6xx_HAL_Driver/Inc/stm32n6xx_ll_bus.h ****   *         @arg @ref LL_ACLKN
 475:STM32Cube_FW_N6/Drivers/STM32N6xx_HAL_Driver/Inc/stm32n6xx_ll_bus.h ****   *         @arg @ref LL_ACLKNC
 476:STM32Cube_FW_N6/Drivers/STM32N6xx_HAL_Driver/Inc/stm32n6xx_ll_bus.h ****   *         @arg @ref LL_AHBM
 477:STM32Cube_FW_N6/Drivers/STM32N6xx_HAL_Driver/Inc/stm32n6xx_ll_bus.h ****   *         @arg @ref LL_AHB1
 478:STM32Cube_FW_N6/Drivers/STM32N6xx_HAL_Driver/Inc/stm32n6xx_ll_bus.h ****   *         @arg @ref LL_AHB2
 479:STM32Cube_FW_N6/Drivers/STM32N6xx_HAL_Driver/Inc/stm32n6xx_ll_bus.h ****   *         @arg @ref LL_AHB3
 480:STM32Cube_FW_N6/Drivers/STM32N6xx_HAL_Driver/Inc/stm32n6xx_ll_bus.h ****   *         @arg @ref LL_AHB4
 481:STM32Cube_FW_N6/Drivers/STM32N6xx_HAL_Driver/Inc/stm32n6xx_ll_bus.h ****   *         @arg @ref LL_AHB5
 482:STM32Cube_FW_N6/Drivers/STM32N6xx_HAL_Driver/Inc/stm32n6xx_ll_bus.h ****   *         @arg @ref LL_APB1
 483:STM32Cube_FW_N6/Drivers/STM32N6xx_HAL_Driver/Inc/stm32n6xx_ll_bus.h ****   *         @arg @ref LL_APB2
 484:STM32Cube_FW_N6/Drivers/STM32N6xx_HAL_Driver/Inc/stm32n6xx_ll_bus.h ****   *         @arg @ref LL_APB3
 485:STM32Cube_FW_N6/Drivers/STM32N6xx_HAL_Driver/Inc/stm32n6xx_ll_bus.h ****   *         @arg @ref LL_APB4
 486:STM32Cube_FW_N6/Drivers/STM32N6xx_HAL_Driver/Inc/stm32n6xx_ll_bus.h ****   *         @arg @ref LL_APB5
 487:STM32Cube_FW_N6/Drivers/STM32N6xx_HAL_Driver/Inc/stm32n6xx_ll_bus.h ****   * @retval uint32_t
 488:STM32Cube_FW_N6/Drivers/STM32N6xx_HAL_Driver/Inc/stm32n6xx_ll_bus.h ****   */
 489:STM32Cube_FW_N6/Drivers/STM32N6xx_HAL_Driver/Inc/stm32n6xx_ll_bus.h **** __STATIC_INLINE uint32_t LL_BUS_IsEnabledClock(uint32_t Bus)
 490:STM32Cube_FW_N6/Drivers/STM32N6xx_HAL_Driver/Inc/stm32n6xx_ll_bus.h **** {
 491:STM32Cube_FW_N6/Drivers/STM32N6xx_HAL_Driver/Inc/stm32n6xx_ll_bus.h ****   return ((READ_BIT(RCC->BUSENR, Bus) == Bus) ? 1UL : 0UL);
 492:STM32Cube_FW_N6/Drivers/STM32N6xx_HAL_Driver/Inc/stm32n6xx_ll_bus.h **** }
 493:STM32Cube_FW_N6/Drivers/STM32N6xx_HAL_Driver/Inc/stm32n6xx_ll_bus.h **** 
 494:STM32Cube_FW_N6/Drivers/STM32N6xx_HAL_Driver/Inc/stm32n6xx_ll_bus.h **** /**
 495:STM32Cube_FW_N6/Drivers/STM32N6xx_HAL_Driver/Inc/stm32n6xx_ll_bus.h ****   * @brief  Disable AXI bus clock.
 496:STM32Cube_FW_N6/Drivers/STM32N6xx_HAL_Driver/Inc/stm32n6xx_ll_bus.h ****   * @rmtoll BUSENCR      ACLKNENC      LL_BUS_DisableClock\n
 497:STM32Cube_FW_N6/Drivers/STM32N6xx_HAL_Driver/Inc/stm32n6xx_ll_bus.h ****   *         BUSENCR      ACLKNCENC     LL_BUS_DisableClock\n
 498:STM32Cube_FW_N6/Drivers/STM32N6xx_HAL_Driver/Inc/stm32n6xx_ll_bus.h ****   *         BUSENCR      AHBMENC       LL_BUS_DisableClock\n
 499:STM32Cube_FW_N6/Drivers/STM32N6xx_HAL_Driver/Inc/stm32n6xx_ll_bus.h ****   *         BUSENCR      AHB1ENC       LL_BUS_DisableClock\n
 500:STM32Cube_FW_N6/Drivers/STM32N6xx_HAL_Driver/Inc/stm32n6xx_ll_bus.h ****   *         BUSENCR      AHB2ENC       LL_BUS_DisableClock\n
 501:STM32Cube_FW_N6/Drivers/STM32N6xx_HAL_Driver/Inc/stm32n6xx_ll_bus.h ****   *         BUSENCR      AHB3ENC       LL_BUS_DisableClock\n
 502:STM32Cube_FW_N6/Drivers/STM32N6xx_HAL_Driver/Inc/stm32n6xx_ll_bus.h ****   *         BUSENCR      AHB4ENC       LL_BUS_DisableClock\n
 503:STM32Cube_FW_N6/Drivers/STM32N6xx_HAL_Driver/Inc/stm32n6xx_ll_bus.h ****   *         BUSENCR      AHB5ENC       LL_BUS_DisableClock\n
 504:STM32Cube_FW_N6/Drivers/STM32N6xx_HAL_Driver/Inc/stm32n6xx_ll_bus.h ****   *         BUSENCR      APB1ENC       LL_BUS_DisableClock\n
 505:STM32Cube_FW_N6/Drivers/STM32N6xx_HAL_Driver/Inc/stm32n6xx_ll_bus.h ****   *         BUSENCR      APB2ENC       LL_BUS_DisableClock\n
 506:STM32Cube_FW_N6/Drivers/STM32N6xx_HAL_Driver/Inc/stm32n6xx_ll_bus.h ****   *         BUSENCR      APB3ENC       LL_BUS_DisableClock\n
 507:STM32Cube_FW_N6/Drivers/STM32N6xx_HAL_Driver/Inc/stm32n6xx_ll_bus.h ****   *         BUSENCR      APB4ENC       LL_BUS_DisableClock\n
 508:STM32Cube_FW_N6/Drivers/STM32N6xx_HAL_Driver/Inc/stm32n6xx_ll_bus.h ****   *         BUSENCR      APB5ENC       LL_BUS_DisableClock
 509:STM32Cube_FW_N6/Drivers/STM32N6xx_HAL_Driver/Inc/stm32n6xx_ll_bus.h ****   * @param  Bus This parameter can be a combination of the following values:
 510:STM32Cube_FW_N6/Drivers/STM32N6xx_HAL_Driver/Inc/stm32n6xx_ll_bus.h ****   *         @arg @ref LL_ACLKN
 511:STM32Cube_FW_N6/Drivers/STM32N6xx_HAL_Driver/Inc/stm32n6xx_ll_bus.h ****   *         @arg @ref LL_ACLKNC
 512:STM32Cube_FW_N6/Drivers/STM32N6xx_HAL_Driver/Inc/stm32n6xx_ll_bus.h ****   *         @arg @ref LL_AHBM
 513:STM32Cube_FW_N6/Drivers/STM32N6xx_HAL_Driver/Inc/stm32n6xx_ll_bus.h ****   *         @arg @ref LL_AHB1
 514:STM32Cube_FW_N6/Drivers/STM32N6xx_HAL_Driver/Inc/stm32n6xx_ll_bus.h ****   *         @arg @ref LL_AHB2
 515:STM32Cube_FW_N6/Drivers/STM32N6xx_HAL_Driver/Inc/stm32n6xx_ll_bus.h ****   *         @arg @ref LL_AHB3
ARM GAS  C:\Users\DJESSOU\AppData\Local\Temp\ccIfw9Ia.s 			page 32


 516:STM32Cube_FW_N6/Drivers/STM32N6xx_HAL_Driver/Inc/stm32n6xx_ll_bus.h ****   *         @arg @ref LL_AHB4
 517:STM32Cube_FW_N6/Drivers/STM32N6xx_HAL_Driver/Inc/stm32n6xx_ll_bus.h ****   *         @arg @ref LL_AHB5
 518:STM32Cube_FW_N6/Drivers/STM32N6xx_HAL_Driver/Inc/stm32n6xx_ll_bus.h ****   *         @arg @ref LL_APB1
 519:STM32Cube_FW_N6/Drivers/STM32N6xx_HAL_Driver/Inc/stm32n6xx_ll_bus.h ****   *         @arg @ref LL_APB2
 520:STM32Cube_FW_N6/Drivers/STM32N6xx_HAL_Driver/Inc/stm32n6xx_ll_bus.h ****   *         @arg @ref LL_APB3
 521:STM32Cube_FW_N6/Drivers/STM32N6xx_HAL_Driver/Inc/stm32n6xx_ll_bus.h ****   *         @arg @ref LL_APB4
 522:STM32Cube_FW_N6/Drivers/STM32N6xx_HAL_Driver/Inc/stm32n6xx_ll_bus.h ****   *         @arg @ref LL_APB5
 523:STM32Cube_FW_N6/Drivers/STM32N6xx_HAL_Driver/Inc/stm32n6xx_ll_bus.h ****   * @retval None
 524:STM32Cube_FW_N6/Drivers/STM32N6xx_HAL_Driver/Inc/stm32n6xx_ll_bus.h ****   */
 525:STM32Cube_FW_N6/Drivers/STM32N6xx_HAL_Driver/Inc/stm32n6xx_ll_bus.h **** __STATIC_INLINE void LL_BUS_DisableClock(uint32_t Bus)
 526:STM32Cube_FW_N6/Drivers/STM32N6xx_HAL_Driver/Inc/stm32n6xx_ll_bus.h **** {
 527:STM32Cube_FW_N6/Drivers/STM32N6xx_HAL_Driver/Inc/stm32n6xx_ll_bus.h ****   WRITE_REG(RCC->BUSENCR, Bus);
 528:STM32Cube_FW_N6/Drivers/STM32N6xx_HAL_Driver/Inc/stm32n6xx_ll_bus.h **** }
 529:STM32Cube_FW_N6/Drivers/STM32N6xx_HAL_Driver/Inc/stm32n6xx_ll_bus.h **** 
 530:STM32Cube_FW_N6/Drivers/STM32N6xx_HAL_Driver/Inc/stm32n6xx_ll_bus.h **** /**
 531:STM32Cube_FW_N6/Drivers/STM32N6xx_HAL_Driver/Inc/stm32n6xx_ll_bus.h ****   * @brief  Enable AXI bus clock during Low Power mode.
 532:STM32Cube_FW_N6/Drivers/STM32N6xx_HAL_Driver/Inc/stm32n6xx_ll_bus.h ****   * @rmtoll BUSLPENSR    ACLKNLPENS    LL_BUS_EnableClockLowPower\n
 533:STM32Cube_FW_N6/Drivers/STM32N6xx_HAL_Driver/Inc/stm32n6xx_ll_bus.h ****   *         BUSLPENSR    ACLKNCLPENS   LL_BUS_EnableClockLowPower\n
 534:STM32Cube_FW_N6/Drivers/STM32N6xx_HAL_Driver/Inc/stm32n6xx_ll_bus.h ****   *         BUSLPENSR    AHBMLPENS     LL_BUS_EnableClockLowPower\n
 535:STM32Cube_FW_N6/Drivers/STM32N6xx_HAL_Driver/Inc/stm32n6xx_ll_bus.h ****   *         BUSLPENSR    AHB1LPENS     LL_BUS_EnableClockLowPower\n
 536:STM32Cube_FW_N6/Drivers/STM32N6xx_HAL_Driver/Inc/stm32n6xx_ll_bus.h ****   *         BUSLPENSR    AHB2LPENS     LL_BUS_EnableClockLowPower\n
 537:STM32Cube_FW_N6/Drivers/STM32N6xx_HAL_Driver/Inc/stm32n6xx_ll_bus.h ****   *         BUSLPENSR    AHB3LPENS     LL_BUS_EnableClockLowPower\n
 538:STM32Cube_FW_N6/Drivers/STM32N6xx_HAL_Driver/Inc/stm32n6xx_ll_bus.h ****   *         BUSLPENSR    AHB4LPENS     LL_BUS_EnableClockLowPower\n
 539:STM32Cube_FW_N6/Drivers/STM32N6xx_HAL_Driver/Inc/stm32n6xx_ll_bus.h ****   *         BUSLPENSR    AHB5LPENS     LL_BUS_EnableClockLowPower\n
 540:STM32Cube_FW_N6/Drivers/STM32N6xx_HAL_Driver/Inc/stm32n6xx_ll_bus.h ****   *         BUSLPENSR    APB1LPENS     LL_BUS_EnableClockLowPower\n
 541:STM32Cube_FW_N6/Drivers/STM32N6xx_HAL_Driver/Inc/stm32n6xx_ll_bus.h ****   *         BUSLPENSR    APB2LPENS     LL_BUS_EnableClockLowPower\n
 542:STM32Cube_FW_N6/Drivers/STM32N6xx_HAL_Driver/Inc/stm32n6xx_ll_bus.h ****   *         BUSLPENSR    APB3LPENS     LL_BUS_EnableClockLowPower\n
 543:STM32Cube_FW_N6/Drivers/STM32N6xx_HAL_Driver/Inc/stm32n6xx_ll_bus.h ****   *         BUSLPENSR    APB4LPENS     LL_BUS_EnableClockLowPower\n
 544:STM32Cube_FW_N6/Drivers/STM32N6xx_HAL_Driver/Inc/stm32n6xx_ll_bus.h ****   *         BUSLPENSR    APB5LPENS     LL_BUS_EnableClockLowPower
 545:STM32Cube_FW_N6/Drivers/STM32N6xx_HAL_Driver/Inc/stm32n6xx_ll_bus.h ****   * @param  Bus This parameter can be a combination of the following values:
 546:STM32Cube_FW_N6/Drivers/STM32N6xx_HAL_Driver/Inc/stm32n6xx_ll_bus.h ****   *         @arg @ref LL_ACLKN
 547:STM32Cube_FW_N6/Drivers/STM32N6xx_HAL_Driver/Inc/stm32n6xx_ll_bus.h ****   *         @arg @ref LL_ACLKNC
 548:STM32Cube_FW_N6/Drivers/STM32N6xx_HAL_Driver/Inc/stm32n6xx_ll_bus.h ****   *         @arg @ref LL_AHBM
 549:STM32Cube_FW_N6/Drivers/STM32N6xx_HAL_Driver/Inc/stm32n6xx_ll_bus.h ****   *         @arg @ref LL_AHB1
 550:STM32Cube_FW_N6/Drivers/STM32N6xx_HAL_Driver/Inc/stm32n6xx_ll_bus.h ****   *         @arg @ref LL_AHB2
 551:STM32Cube_FW_N6/Drivers/STM32N6xx_HAL_Driver/Inc/stm32n6xx_ll_bus.h ****   *         @arg @ref LL_AHB3
 552:STM32Cube_FW_N6/Drivers/STM32N6xx_HAL_Driver/Inc/stm32n6xx_ll_bus.h ****   *         @arg @ref LL_AHB4
 553:STM32Cube_FW_N6/Drivers/STM32N6xx_HAL_Driver/Inc/stm32n6xx_ll_bus.h ****   *         @arg @ref LL_AHB5
 554:STM32Cube_FW_N6/Drivers/STM32N6xx_HAL_Driver/Inc/stm32n6xx_ll_bus.h ****   *         @arg @ref LL_APB1
 555:STM32Cube_FW_N6/Drivers/STM32N6xx_HAL_Driver/Inc/stm32n6xx_ll_bus.h ****   *         @arg @ref LL_APB2
 556:STM32Cube_FW_N6/Drivers/STM32N6xx_HAL_Driver/Inc/stm32n6xx_ll_bus.h ****   *         @arg @ref LL_APB3
 557:STM32Cube_FW_N6/Drivers/STM32N6xx_HAL_Driver/Inc/stm32n6xx_ll_bus.h ****   *         @arg @ref LL_APB4
 558:STM32Cube_FW_N6/Drivers/STM32N6xx_HAL_Driver/Inc/stm32n6xx_ll_bus.h ****   *         @arg @ref LL_APB5
 559:STM32Cube_FW_N6/Drivers/STM32N6xx_HAL_Driver/Inc/stm32n6xx_ll_bus.h ****   * @retval None
 560:STM32Cube_FW_N6/Drivers/STM32N6xx_HAL_Driver/Inc/stm32n6xx_ll_bus.h ****   */
 561:STM32Cube_FW_N6/Drivers/STM32N6xx_HAL_Driver/Inc/stm32n6xx_ll_bus.h **** __STATIC_INLINE void LL_BUS_EnableClockLowPower(uint32_t Bus)
 562:STM32Cube_FW_N6/Drivers/STM32N6xx_HAL_Driver/Inc/stm32n6xx_ll_bus.h **** {
 563:STM32Cube_FW_N6/Drivers/STM32N6xx_HAL_Driver/Inc/stm32n6xx_ll_bus.h ****   __IO uint32_t tmpreg;
 564:STM32Cube_FW_N6/Drivers/STM32N6xx_HAL_Driver/Inc/stm32n6xx_ll_bus.h ****   WRITE_REG(RCC->BUSLPENSR, Bus);
 565:STM32Cube_FW_N6/Drivers/STM32N6xx_HAL_Driver/Inc/stm32n6xx_ll_bus.h ****   /* Delay after an RCC bus clock enabling */
 566:STM32Cube_FW_N6/Drivers/STM32N6xx_HAL_Driver/Inc/stm32n6xx_ll_bus.h ****   tmpreg = READ_REG(RCC->BUSLPENR);
 567:STM32Cube_FW_N6/Drivers/STM32N6xx_HAL_Driver/Inc/stm32n6xx_ll_bus.h ****   (void)tmpreg;
 568:STM32Cube_FW_N6/Drivers/STM32N6xx_HAL_Driver/Inc/stm32n6xx_ll_bus.h **** }
 569:STM32Cube_FW_N6/Drivers/STM32N6xx_HAL_Driver/Inc/stm32n6xx_ll_bus.h **** 
 570:STM32Cube_FW_N6/Drivers/STM32N6xx_HAL_Driver/Inc/stm32n6xx_ll_bus.h **** /**
 571:STM32Cube_FW_N6/Drivers/STM32N6xx_HAL_Driver/Inc/stm32n6xx_ll_bus.h ****   * @brief  Check if AXI bus clock during Low Power mode is enabled or not
 572:STM32Cube_FW_N6/Drivers/STM32N6xx_HAL_Driver/Inc/stm32n6xx_ll_bus.h ****   * @rmtoll BUSLPENR       ACLKNLPEN       LL_BUS_IsEnabledClockLowPower\n
ARM GAS  C:\Users\DJESSOU\AppData\Local\Temp\ccIfw9Ia.s 			page 33


 573:STM32Cube_FW_N6/Drivers/STM32N6xx_HAL_Driver/Inc/stm32n6xx_ll_bus.h ****   *         BUSLPENR       ACLKNCLPEN      LL_BUS_IsEnabledClockLowPower\n
 574:STM32Cube_FW_N6/Drivers/STM32N6xx_HAL_Driver/Inc/stm32n6xx_ll_bus.h ****   *         BUSLPENR       AHBMLPEN        LL_BUS_IsEnabledClockLowPower\n
 575:STM32Cube_FW_N6/Drivers/STM32N6xx_HAL_Driver/Inc/stm32n6xx_ll_bus.h ****   *         BUSLPENR       AHB1LPEN        LL_BUS_IsEnabledClockLowPower\n
 576:STM32Cube_FW_N6/Drivers/STM32N6xx_HAL_Driver/Inc/stm32n6xx_ll_bus.h ****   *         BUSLPENR       AHB2LPEN        LL_BUS_IsEnabledClockLowPower\n
 577:STM32Cube_FW_N6/Drivers/STM32N6xx_HAL_Driver/Inc/stm32n6xx_ll_bus.h ****   *         BUSLPENR       AHB3LPEN        LL_BUS_IsEnabledClockLowPower\n
 578:STM32Cube_FW_N6/Drivers/STM32N6xx_HAL_Driver/Inc/stm32n6xx_ll_bus.h ****   *         BUSLPENR       AHB4LPEN        LL_BUS_IsEnabledClockLowPower\n
 579:STM32Cube_FW_N6/Drivers/STM32N6xx_HAL_Driver/Inc/stm32n6xx_ll_bus.h ****   *         BUSLPENR       AHB5LPEN        LL_BUS_IsEnabledClockLowPower\n
 580:STM32Cube_FW_N6/Drivers/STM32N6xx_HAL_Driver/Inc/stm32n6xx_ll_bus.h ****   *         BUSLPENR       APB1LPEN        LL_BUS_IsEnabledClockLowPower\n
 581:STM32Cube_FW_N6/Drivers/STM32N6xx_HAL_Driver/Inc/stm32n6xx_ll_bus.h ****   *         BUSLPENR       APB2LPEN        LL_BUS_IsEnabledClockLowPower\n
 582:STM32Cube_FW_N6/Drivers/STM32N6xx_HAL_Driver/Inc/stm32n6xx_ll_bus.h ****   *         BUSLPENR       APB3LPEN        LL_BUS_IsEnabledClockLowPower\n
 583:STM32Cube_FW_N6/Drivers/STM32N6xx_HAL_Driver/Inc/stm32n6xx_ll_bus.h ****   *         BUSLPENR       APB4LPEN        LL_BUS_IsEnabledClockLowPower\n
 584:STM32Cube_FW_N6/Drivers/STM32N6xx_HAL_Driver/Inc/stm32n6xx_ll_bus.h ****   *         BUSLPENR       APB5LPEN        LL_BUS_IsEnabledClockLowPower
 585:STM32Cube_FW_N6/Drivers/STM32N6xx_HAL_Driver/Inc/stm32n6xx_ll_bus.h ****   * @param  Bus This parameter can be a combination of the following values:
 586:STM32Cube_FW_N6/Drivers/STM32N6xx_HAL_Driver/Inc/stm32n6xx_ll_bus.h ****   *         @arg @ref LL_ACLKN
 587:STM32Cube_FW_N6/Drivers/STM32N6xx_HAL_Driver/Inc/stm32n6xx_ll_bus.h ****   *         @arg @ref LL_ACLKNC
 588:STM32Cube_FW_N6/Drivers/STM32N6xx_HAL_Driver/Inc/stm32n6xx_ll_bus.h ****   *         @arg @ref LL_AHBM
 589:STM32Cube_FW_N6/Drivers/STM32N6xx_HAL_Driver/Inc/stm32n6xx_ll_bus.h ****   *         @arg @ref LL_AHB1
 590:STM32Cube_FW_N6/Drivers/STM32N6xx_HAL_Driver/Inc/stm32n6xx_ll_bus.h ****   *         @arg @ref LL_AHB2
 591:STM32Cube_FW_N6/Drivers/STM32N6xx_HAL_Driver/Inc/stm32n6xx_ll_bus.h ****   *         @arg @ref LL_AHB3
 592:STM32Cube_FW_N6/Drivers/STM32N6xx_HAL_Driver/Inc/stm32n6xx_ll_bus.h ****   *         @arg @ref LL_AHB4
 593:STM32Cube_FW_N6/Drivers/STM32N6xx_HAL_Driver/Inc/stm32n6xx_ll_bus.h ****   *         @arg @ref LL_AHB5
 594:STM32Cube_FW_N6/Drivers/STM32N6xx_HAL_Driver/Inc/stm32n6xx_ll_bus.h ****   *         @arg @ref LL_APB1
 595:STM32Cube_FW_N6/Drivers/STM32N6xx_HAL_Driver/Inc/stm32n6xx_ll_bus.h ****   *         @arg @ref LL_APB2
 596:STM32Cube_FW_N6/Drivers/STM32N6xx_HAL_Driver/Inc/stm32n6xx_ll_bus.h ****   *         @arg @ref LL_APB3
 597:STM32Cube_FW_N6/Drivers/STM32N6xx_HAL_Driver/Inc/stm32n6xx_ll_bus.h ****   *         @arg @ref LL_APB4
 598:STM32Cube_FW_N6/Drivers/STM32N6xx_HAL_Driver/Inc/stm32n6xx_ll_bus.h ****   *         @arg @ref LL_APB5
 599:STM32Cube_FW_N6/Drivers/STM32N6xx_HAL_Driver/Inc/stm32n6xx_ll_bus.h ****   * @retval uint32_t
 600:STM32Cube_FW_N6/Drivers/STM32N6xx_HAL_Driver/Inc/stm32n6xx_ll_bus.h ****   */
 601:STM32Cube_FW_N6/Drivers/STM32N6xx_HAL_Driver/Inc/stm32n6xx_ll_bus.h **** __STATIC_INLINE uint32_t LL_BUS_IsEnabledClockLowPower(uint32_t Bus)
 602:STM32Cube_FW_N6/Drivers/STM32N6xx_HAL_Driver/Inc/stm32n6xx_ll_bus.h **** {
 603:STM32Cube_FW_N6/Drivers/STM32N6xx_HAL_Driver/Inc/stm32n6xx_ll_bus.h ****   return ((READ_BIT(RCC->BUSLPENR, Bus) == Bus) ? 1UL : 0UL);
 604:STM32Cube_FW_N6/Drivers/STM32N6xx_HAL_Driver/Inc/stm32n6xx_ll_bus.h **** }
 605:STM32Cube_FW_N6/Drivers/STM32N6xx_HAL_Driver/Inc/stm32n6xx_ll_bus.h **** 
 606:STM32Cube_FW_N6/Drivers/STM32N6xx_HAL_Driver/Inc/stm32n6xx_ll_bus.h **** /**
 607:STM32Cube_FW_N6/Drivers/STM32N6xx_HAL_Driver/Inc/stm32n6xx_ll_bus.h ****   * @brief  Disable AXI bus clock during Low Power mode.
 608:STM32Cube_FW_N6/Drivers/STM32N6xx_HAL_Driver/Inc/stm32n6xx_ll_bus.h ****   * @rmtoll BUSLPENCR    ACLKNLPENC    LL_BUS_DisableClockLowPower\n
 609:STM32Cube_FW_N6/Drivers/STM32N6xx_HAL_Driver/Inc/stm32n6xx_ll_bus.h ****   *         BUSLPENCR    ACLKNCLPENC   LL_BUS_DisableClockLowPower\n
 610:STM32Cube_FW_N6/Drivers/STM32N6xx_HAL_Driver/Inc/stm32n6xx_ll_bus.h ****   *         BUSLPENCR    AHBMLPENC     LL_BUS_DisableClockLowPower\n
 611:STM32Cube_FW_N6/Drivers/STM32N6xx_HAL_Driver/Inc/stm32n6xx_ll_bus.h ****   *         BUSLPENCR    AHB1LPENC     LL_BUS_DisableClockLowPower\n
 612:STM32Cube_FW_N6/Drivers/STM32N6xx_HAL_Driver/Inc/stm32n6xx_ll_bus.h ****   *         BUSLPENCR    AHB2LPENC     LL_BUS_DisableClockLowPower\n
 613:STM32Cube_FW_N6/Drivers/STM32N6xx_HAL_Driver/Inc/stm32n6xx_ll_bus.h ****   *         BUSLPENCR    AHB3LPENC     LL_BUS_DisableClockLowPower\n
 614:STM32Cube_FW_N6/Drivers/STM32N6xx_HAL_Driver/Inc/stm32n6xx_ll_bus.h ****   *         BUSLPENCR    AHB4LPENC     LL_BUS_DisableClockLowPower\n
 615:STM32Cube_FW_N6/Drivers/STM32N6xx_HAL_Driver/Inc/stm32n6xx_ll_bus.h ****   *         BUSLPENCR    AHB5LPENC     LL_BUS_DisableClockLowPower\n
 616:STM32Cube_FW_N6/Drivers/STM32N6xx_HAL_Driver/Inc/stm32n6xx_ll_bus.h ****   *         BUSLPENCR    APB1LPENC     LL_BUS_DisableClockLowPower\n
 617:STM32Cube_FW_N6/Drivers/STM32N6xx_HAL_Driver/Inc/stm32n6xx_ll_bus.h ****   *         BUSLPENCR    APB2LPENC     LL_BUS_DisableClockLowPower\n
 618:STM32Cube_FW_N6/Drivers/STM32N6xx_HAL_Driver/Inc/stm32n6xx_ll_bus.h ****   *         BUSLPENCR    APB3LPENC     LL_BUS_DisableClockLowPower\n
 619:STM32Cube_FW_N6/Drivers/STM32N6xx_HAL_Driver/Inc/stm32n6xx_ll_bus.h ****   *         BUSLPENCR    APB4LPENC     LL_BUS_DisableClockLowPower\n
 620:STM32Cube_FW_N6/Drivers/STM32N6xx_HAL_Driver/Inc/stm32n6xx_ll_bus.h ****   *         BUSLPENCR    APB5LPENC     LL_BUS_DisableClockLowPower
 621:STM32Cube_FW_N6/Drivers/STM32N6xx_HAL_Driver/Inc/stm32n6xx_ll_bus.h ****   * @param  Bus This parameter can be a combination of the following values:
 622:STM32Cube_FW_N6/Drivers/STM32N6xx_HAL_Driver/Inc/stm32n6xx_ll_bus.h ****   *         @arg @ref LL_ACLKN
 623:STM32Cube_FW_N6/Drivers/STM32N6xx_HAL_Driver/Inc/stm32n6xx_ll_bus.h ****   *         @arg @ref LL_ACLKNC
 624:STM32Cube_FW_N6/Drivers/STM32N6xx_HAL_Driver/Inc/stm32n6xx_ll_bus.h ****   *         @arg @ref LL_AHBM
 625:STM32Cube_FW_N6/Drivers/STM32N6xx_HAL_Driver/Inc/stm32n6xx_ll_bus.h ****   *         @arg @ref LL_AHB1
 626:STM32Cube_FW_N6/Drivers/STM32N6xx_HAL_Driver/Inc/stm32n6xx_ll_bus.h ****   *         @arg @ref LL_AHB2
 627:STM32Cube_FW_N6/Drivers/STM32N6xx_HAL_Driver/Inc/stm32n6xx_ll_bus.h ****   *         @arg @ref LL_AHB3
 628:STM32Cube_FW_N6/Drivers/STM32N6xx_HAL_Driver/Inc/stm32n6xx_ll_bus.h ****   *         @arg @ref LL_AHB4
 629:STM32Cube_FW_N6/Drivers/STM32N6xx_HAL_Driver/Inc/stm32n6xx_ll_bus.h ****   *         @arg @ref LL_AHB5
ARM GAS  C:\Users\DJESSOU\AppData\Local\Temp\ccIfw9Ia.s 			page 34


 630:STM32Cube_FW_N6/Drivers/STM32N6xx_HAL_Driver/Inc/stm32n6xx_ll_bus.h ****   *         @arg @ref LL_APB1
 631:STM32Cube_FW_N6/Drivers/STM32N6xx_HAL_Driver/Inc/stm32n6xx_ll_bus.h ****   *         @arg @ref LL_APB2
 632:STM32Cube_FW_N6/Drivers/STM32N6xx_HAL_Driver/Inc/stm32n6xx_ll_bus.h ****   *         @arg @ref LL_APB3
 633:STM32Cube_FW_N6/Drivers/STM32N6xx_HAL_Driver/Inc/stm32n6xx_ll_bus.h ****   *         @arg @ref LL_APB4
 634:STM32Cube_FW_N6/Drivers/STM32N6xx_HAL_Driver/Inc/stm32n6xx_ll_bus.h ****   *         @arg @ref LL_APB5
 635:STM32Cube_FW_N6/Drivers/STM32N6xx_HAL_Driver/Inc/stm32n6xx_ll_bus.h ****   * @retval None
 636:STM32Cube_FW_N6/Drivers/STM32N6xx_HAL_Driver/Inc/stm32n6xx_ll_bus.h ****   */
 637:STM32Cube_FW_N6/Drivers/STM32N6xx_HAL_Driver/Inc/stm32n6xx_ll_bus.h **** __STATIC_INLINE void LL_BUS_DisableClockLowPower(uint32_t Bus)
 638:STM32Cube_FW_N6/Drivers/STM32N6xx_HAL_Driver/Inc/stm32n6xx_ll_bus.h **** {
 639:STM32Cube_FW_N6/Drivers/STM32N6xx_HAL_Driver/Inc/stm32n6xx_ll_bus.h ****   WRITE_REG(RCC->BUSLPENCR, Bus);
 640:STM32Cube_FW_N6/Drivers/STM32N6xx_HAL_Driver/Inc/stm32n6xx_ll_bus.h **** }
 641:STM32Cube_FW_N6/Drivers/STM32N6xx_HAL_Driver/Inc/stm32n6xx_ll_bus.h **** 
 642:STM32Cube_FW_N6/Drivers/STM32N6xx_HAL_Driver/Inc/stm32n6xx_ll_bus.h **** /**
 643:STM32Cube_FW_N6/Drivers/STM32N6xx_HAL_Driver/Inc/stm32n6xx_ll_bus.h ****   * @}
 644:STM32Cube_FW_N6/Drivers/STM32N6xx_HAL_Driver/Inc/stm32n6xx_ll_bus.h ****   */
 645:STM32Cube_FW_N6/Drivers/STM32N6xx_HAL_Driver/Inc/stm32n6xx_ll_bus.h **** 
 646:STM32Cube_FW_N6/Drivers/STM32N6xx_HAL_Driver/Inc/stm32n6xx_ll_bus.h **** /** @defgroup BUS_LL_EF_MEM MEM
 647:STM32Cube_FW_N6/Drivers/STM32N6xx_HAL_Driver/Inc/stm32n6xx_ll_bus.h ****   * @{
 648:STM32Cube_FW_N6/Drivers/STM32N6xx_HAL_Driver/Inc/stm32n6xx_ll_bus.h ****   */
 649:STM32Cube_FW_N6/Drivers/STM32N6xx_HAL_Driver/Inc/stm32n6xx_ll_bus.h **** 
 650:STM32Cube_FW_N6/Drivers/STM32N6xx_HAL_Driver/Inc/stm32n6xx_ll_bus.h **** /**
 651:STM32Cube_FW_N6/Drivers/STM32N6xx_HAL_Driver/Inc/stm32n6xx_ll_bus.h ****   * @brief  Enable memories clock.
 652:STM32Cube_FW_N6/Drivers/STM32N6xx_HAL_Driver/Inc/stm32n6xx_ll_bus.h ****   * @rmtoll MEMENSR      AXISRAM1ENS   LL_MEM_EnableClock\n
 653:STM32Cube_FW_N6/Drivers/STM32N6xx_HAL_Driver/Inc/stm32n6xx_ll_bus.h ****   *         MEMENSR      AXISRAM2ENS   LL_MEM_EnableClock\n
 654:STM32Cube_FW_N6/Drivers/STM32N6xx_HAL_Driver/Inc/stm32n6xx_ll_bus.h ****   *         MEMENSR      AXISRAM3ENS   LL_MEM_EnableClock\n
 655:STM32Cube_FW_N6/Drivers/STM32N6xx_HAL_Driver/Inc/stm32n6xx_ll_bus.h ****   *         MEMENSR      AXISRAM4ENS   LL_MEM_EnableClock\n
 656:STM32Cube_FW_N6/Drivers/STM32N6xx_HAL_Driver/Inc/stm32n6xx_ll_bus.h ****   *         MEMENSR      AXISRAM5ENS   LL_MEM_EnableClock\n
 657:STM32Cube_FW_N6/Drivers/STM32N6xx_HAL_Driver/Inc/stm32n6xx_ll_bus.h ****   *         MEMENSR      AXISRAM6ENS   LL_MEM_EnableClock\n
 658:STM32Cube_FW_N6/Drivers/STM32N6xx_HAL_Driver/Inc/stm32n6xx_ll_bus.h ****   *         MEMENSR      AHBSRAM1ENS   LL_MEM_EnableClock\n
 659:STM32Cube_FW_N6/Drivers/STM32N6xx_HAL_Driver/Inc/stm32n6xx_ll_bus.h ****   *         MEMENSR      AHBSRAM2ENS   LL_MEM_EnableClock\n
 660:STM32Cube_FW_N6/Drivers/STM32N6xx_HAL_Driver/Inc/stm32n6xx_ll_bus.h ****   *         MEMENSR      BKPSRAMENS    LL_MEM_EnableClock\n
 661:STM32Cube_FW_N6/Drivers/STM32N6xx_HAL_Driver/Inc/stm32n6xx_ll_bus.h ****   *         MEMENSR      FLEXRAMENS    LL_MEM_EnableClock\n
 662:STM32Cube_FW_N6/Drivers/STM32N6xx_HAL_Driver/Inc/stm32n6xx_ll_bus.h ****   *         MEMENSR      CACHEAXIRAMENS LL_MEM_EnableClock\n
 663:STM32Cube_FW_N6/Drivers/STM32N6xx_HAL_Driver/Inc/stm32n6xx_ll_bus.h ****   *         MEMENSR      VENCRAMENS    LL_MEM_EnableClock
 664:STM32Cube_FW_N6/Drivers/STM32N6xx_HAL_Driver/Inc/stm32n6xx_ll_bus.h ****   * @param  Memories This parameter can be a combination of the following values:
 665:STM32Cube_FW_N6/Drivers/STM32N6xx_HAL_Driver/Inc/stm32n6xx_ll_bus.h ****   *         @arg @ref LL_MEM_AXISRAM1
 666:STM32Cube_FW_N6/Drivers/STM32N6xx_HAL_Driver/Inc/stm32n6xx_ll_bus.h ****   *         @arg @ref LL_MEM_AXISRAM2
 667:STM32Cube_FW_N6/Drivers/STM32N6xx_HAL_Driver/Inc/stm32n6xx_ll_bus.h ****   *         @arg @ref LL_MEM_AXISRAM3
 668:STM32Cube_FW_N6/Drivers/STM32N6xx_HAL_Driver/Inc/stm32n6xx_ll_bus.h ****   *         @arg @ref LL_MEM_AXISRAM4
 669:STM32Cube_FW_N6/Drivers/STM32N6xx_HAL_Driver/Inc/stm32n6xx_ll_bus.h ****   *         @arg @ref LL_MEM_AXISRAM5
 670:STM32Cube_FW_N6/Drivers/STM32N6xx_HAL_Driver/Inc/stm32n6xx_ll_bus.h ****   *         @arg @ref LL_MEM_AXISRAM6
 671:STM32Cube_FW_N6/Drivers/STM32N6xx_HAL_Driver/Inc/stm32n6xx_ll_bus.h ****   *         @arg @ref LL_MEM_AHBSRAM1
 672:STM32Cube_FW_N6/Drivers/STM32N6xx_HAL_Driver/Inc/stm32n6xx_ll_bus.h ****   *         @arg @ref LL_MEM_AHBSRAM2
 673:STM32Cube_FW_N6/Drivers/STM32N6xx_HAL_Driver/Inc/stm32n6xx_ll_bus.h ****   *         @arg @ref LL_MEM_BKPSRAM
 674:STM32Cube_FW_N6/Drivers/STM32N6xx_HAL_Driver/Inc/stm32n6xx_ll_bus.h ****   *         @arg @ref LL_MEM_FLEXRAM
 675:STM32Cube_FW_N6/Drivers/STM32N6xx_HAL_Driver/Inc/stm32n6xx_ll_bus.h ****   *         @arg @ref LL_MEM_CACHEAXIRAM
 676:STM32Cube_FW_N6/Drivers/STM32N6xx_HAL_Driver/Inc/stm32n6xx_ll_bus.h ****   *         @arg @ref LL_MEM_VENCRAM
 677:STM32Cube_FW_N6/Drivers/STM32N6xx_HAL_Driver/Inc/stm32n6xx_ll_bus.h ****   * @retval None
 678:STM32Cube_FW_N6/Drivers/STM32N6xx_HAL_Driver/Inc/stm32n6xx_ll_bus.h ****   */
 679:STM32Cube_FW_N6/Drivers/STM32N6xx_HAL_Driver/Inc/stm32n6xx_ll_bus.h **** __STATIC_INLINE void LL_MEM_EnableClock(uint32_t Memories)
 680:STM32Cube_FW_N6/Drivers/STM32N6xx_HAL_Driver/Inc/stm32n6xx_ll_bus.h **** {
 681:STM32Cube_FW_N6/Drivers/STM32N6xx_HAL_Driver/Inc/stm32n6xx_ll_bus.h ****   __IO uint32_t tmpreg;
 682:STM32Cube_FW_N6/Drivers/STM32N6xx_HAL_Driver/Inc/stm32n6xx_ll_bus.h ****   WRITE_REG(RCC->MEMENSR, Memories);
 683:STM32Cube_FW_N6/Drivers/STM32N6xx_HAL_Driver/Inc/stm32n6xx_ll_bus.h ****   /* Delay after an RCC memories clock enabling */
 684:STM32Cube_FW_N6/Drivers/STM32N6xx_HAL_Driver/Inc/stm32n6xx_ll_bus.h ****   tmpreg = READ_REG(RCC->MEMENR);
 685:STM32Cube_FW_N6/Drivers/STM32N6xx_HAL_Driver/Inc/stm32n6xx_ll_bus.h ****   (void)tmpreg;
 686:STM32Cube_FW_N6/Drivers/STM32N6xx_HAL_Driver/Inc/stm32n6xx_ll_bus.h **** }
ARM GAS  C:\Users\DJESSOU\AppData\Local\Temp\ccIfw9Ia.s 			page 35


 687:STM32Cube_FW_N6/Drivers/STM32N6xx_HAL_Driver/Inc/stm32n6xx_ll_bus.h **** 
 688:STM32Cube_FW_N6/Drivers/STM32N6xx_HAL_Driver/Inc/stm32n6xx_ll_bus.h **** /**
 689:STM32Cube_FW_N6/Drivers/STM32N6xx_HAL_Driver/Inc/stm32n6xx_ll_bus.h ****   * @brief  Check if memory clock is enabled or not
 690:STM32Cube_FW_N6/Drivers/STM32N6xx_HAL_Driver/Inc/stm32n6xx_ll_bus.h ****   * @rmtoll MEMENR       AXISRAM1EN    LL_MEM_IsEnabledClock\n
 691:STM32Cube_FW_N6/Drivers/STM32N6xx_HAL_Driver/Inc/stm32n6xx_ll_bus.h ****   *         MEMENR       AXISRAM2EN    LL_MEM_IsEnabledClock\n
 692:STM32Cube_FW_N6/Drivers/STM32N6xx_HAL_Driver/Inc/stm32n6xx_ll_bus.h ****   *         MEMENR       AXISRAM3EN    LL_MEM_IsEnabledClock\n
 693:STM32Cube_FW_N6/Drivers/STM32N6xx_HAL_Driver/Inc/stm32n6xx_ll_bus.h ****   *         MEMENR       AXISRAM4EN    LL_MEM_IsEnabledClock\n
 694:STM32Cube_FW_N6/Drivers/STM32N6xx_HAL_Driver/Inc/stm32n6xx_ll_bus.h ****   *         MEMENR       AXISRAM5EN    LL_MEM_IsEnabledClock\n
 695:STM32Cube_FW_N6/Drivers/STM32N6xx_HAL_Driver/Inc/stm32n6xx_ll_bus.h ****   *         MEMENR       AXISRAM6EN    LL_MEM_IsEnabledClock\n
 696:STM32Cube_FW_N6/Drivers/STM32N6xx_HAL_Driver/Inc/stm32n6xx_ll_bus.h ****   *         MEMENR       AHBSRAM1EN    LL_MEM_IsEnabledClock\n
 697:STM32Cube_FW_N6/Drivers/STM32N6xx_HAL_Driver/Inc/stm32n6xx_ll_bus.h ****   *         MEMENR       AHBSRAM2EN    LL_MEM_IsEnabledClock\n
 698:STM32Cube_FW_N6/Drivers/STM32N6xx_HAL_Driver/Inc/stm32n6xx_ll_bus.h ****   *         MEMENR       BKPSRAMEN     LL_MEM_IsEnabledClock\n
 699:STM32Cube_FW_N6/Drivers/STM32N6xx_HAL_Driver/Inc/stm32n6xx_ll_bus.h ****   *         MEMENR       FLEXRAMEN     LL_MEM_IsEnabledClock\n
 700:STM32Cube_FW_N6/Drivers/STM32N6xx_HAL_Driver/Inc/stm32n6xx_ll_bus.h ****   *         MEMENR       CACHEAXIRAMEN LL_MEM_IsEnabledClock\n
 701:STM32Cube_FW_N6/Drivers/STM32N6xx_HAL_Driver/Inc/stm32n6xx_ll_bus.h ****   *         MEMENR       VENCRAMEN     LL_MEM_IsEnabledClock
 702:STM32Cube_FW_N6/Drivers/STM32N6xx_HAL_Driver/Inc/stm32n6xx_ll_bus.h ****   * @param  Memories This parameter can be a combination of the following values:
 703:STM32Cube_FW_N6/Drivers/STM32N6xx_HAL_Driver/Inc/stm32n6xx_ll_bus.h ****   *         @arg @ref LL_MEM_AXISRAM1
 704:STM32Cube_FW_N6/Drivers/STM32N6xx_HAL_Driver/Inc/stm32n6xx_ll_bus.h ****   *         @arg @ref LL_MEM_AXISRAM2
 705:STM32Cube_FW_N6/Drivers/STM32N6xx_HAL_Driver/Inc/stm32n6xx_ll_bus.h ****   *         @arg @ref LL_MEM_AXISRAM3
 706:STM32Cube_FW_N6/Drivers/STM32N6xx_HAL_Driver/Inc/stm32n6xx_ll_bus.h ****   *         @arg @ref LL_MEM_AXISRAM4
 707:STM32Cube_FW_N6/Drivers/STM32N6xx_HAL_Driver/Inc/stm32n6xx_ll_bus.h ****   *         @arg @ref LL_MEM_AXISRAM5
 708:STM32Cube_FW_N6/Drivers/STM32N6xx_HAL_Driver/Inc/stm32n6xx_ll_bus.h ****   *         @arg @ref LL_MEM_AXISRAM6
 709:STM32Cube_FW_N6/Drivers/STM32N6xx_HAL_Driver/Inc/stm32n6xx_ll_bus.h ****   *         @arg @ref LL_MEM_AHBSRAM1
 710:STM32Cube_FW_N6/Drivers/STM32N6xx_HAL_Driver/Inc/stm32n6xx_ll_bus.h ****   *         @arg @ref LL_MEM_AHBSRAM2
 711:STM32Cube_FW_N6/Drivers/STM32N6xx_HAL_Driver/Inc/stm32n6xx_ll_bus.h ****   *         @arg @ref LL_MEM_BKPSRAM
 712:STM32Cube_FW_N6/Drivers/STM32N6xx_HAL_Driver/Inc/stm32n6xx_ll_bus.h ****   *         @arg @ref LL_MEM_FLEXRAM
 713:STM32Cube_FW_N6/Drivers/STM32N6xx_HAL_Driver/Inc/stm32n6xx_ll_bus.h ****   *         @arg @ref LL_MEM_CACHEAXIRAM
 714:STM32Cube_FW_N6/Drivers/STM32N6xx_HAL_Driver/Inc/stm32n6xx_ll_bus.h ****   *         @arg @ref LL_MEM_VENCRAM
 715:STM32Cube_FW_N6/Drivers/STM32N6xx_HAL_Driver/Inc/stm32n6xx_ll_bus.h ****   * @retval uint32_t
 716:STM32Cube_FW_N6/Drivers/STM32N6xx_HAL_Driver/Inc/stm32n6xx_ll_bus.h ****   */
 717:STM32Cube_FW_N6/Drivers/STM32N6xx_HAL_Driver/Inc/stm32n6xx_ll_bus.h **** __STATIC_INLINE uint32_t LL_MEM_IsEnabledClock(uint32_t Memories)
 718:STM32Cube_FW_N6/Drivers/STM32N6xx_HAL_Driver/Inc/stm32n6xx_ll_bus.h **** {
 719:STM32Cube_FW_N6/Drivers/STM32N6xx_HAL_Driver/Inc/stm32n6xx_ll_bus.h ****   return ((READ_BIT(RCC->MEMENR, Memories) == Memories) ? 1UL : 0UL);
 720:STM32Cube_FW_N6/Drivers/STM32N6xx_HAL_Driver/Inc/stm32n6xx_ll_bus.h **** }
 721:STM32Cube_FW_N6/Drivers/STM32N6xx_HAL_Driver/Inc/stm32n6xx_ll_bus.h **** 
 722:STM32Cube_FW_N6/Drivers/STM32N6xx_HAL_Driver/Inc/stm32n6xx_ll_bus.h **** /**
 723:STM32Cube_FW_N6/Drivers/STM32N6xx_HAL_Driver/Inc/stm32n6xx_ll_bus.h ****   * @brief  Disable memories clock.
 724:STM32Cube_FW_N6/Drivers/STM32N6xx_HAL_Driver/Inc/stm32n6xx_ll_bus.h ****   * @rmtoll MEMENCR      AXISRAM1ENC   LL_MEM_DisableClock\n
 725:STM32Cube_FW_N6/Drivers/STM32N6xx_HAL_Driver/Inc/stm32n6xx_ll_bus.h ****   *         MEMENCR      AXISRAM2ENC   LL_MEM_DisableClock\n
 726:STM32Cube_FW_N6/Drivers/STM32N6xx_HAL_Driver/Inc/stm32n6xx_ll_bus.h ****   *         MEMENCR      AXISRAM3ENC   LL_MEM_DisableClock\n
 727:STM32Cube_FW_N6/Drivers/STM32N6xx_HAL_Driver/Inc/stm32n6xx_ll_bus.h ****   *         MEMENCR      AXISRAM4ENC   LL_MEM_DisableClock\n
 728:STM32Cube_FW_N6/Drivers/STM32N6xx_HAL_Driver/Inc/stm32n6xx_ll_bus.h ****   *         MEMENCR      AXISRAM5ENC   LL_MEM_DisableClock\n
 729:STM32Cube_FW_N6/Drivers/STM32N6xx_HAL_Driver/Inc/stm32n6xx_ll_bus.h ****   *         MEMENCR      AXISRAM6ENC   LL_MEM_DisableClock\n
 730:STM32Cube_FW_N6/Drivers/STM32N6xx_HAL_Driver/Inc/stm32n6xx_ll_bus.h ****   *         MEMENCR      AHBSRAM1ENC   LL_MEM_DisableClock\n
 731:STM32Cube_FW_N6/Drivers/STM32N6xx_HAL_Driver/Inc/stm32n6xx_ll_bus.h ****   *         MEMENCR      AHBSRAM2ENC   LL_MEM_DisableClock\n
 732:STM32Cube_FW_N6/Drivers/STM32N6xx_HAL_Driver/Inc/stm32n6xx_ll_bus.h ****   *         MEMENCR      BKPSRAMENC    LL_MEM_DisableClock\n
 733:STM32Cube_FW_N6/Drivers/STM32N6xx_HAL_Driver/Inc/stm32n6xx_ll_bus.h ****   *         MEMENCR      FLEXRAMENC    LL_MEM_DisableClock\n
 734:STM32Cube_FW_N6/Drivers/STM32N6xx_HAL_Driver/Inc/stm32n6xx_ll_bus.h ****   *         MEMENCR      CACHEAXIRAMENC LL_MEM_DisableClock\n
 735:STM32Cube_FW_N6/Drivers/STM32N6xx_HAL_Driver/Inc/stm32n6xx_ll_bus.h ****   *         MEMENCR      VENCRAMENC    LL_MEM_DisableClock
 736:STM32Cube_FW_N6/Drivers/STM32N6xx_HAL_Driver/Inc/stm32n6xx_ll_bus.h ****   * @param  Memories This parameter can be a combination of the following values:
 737:STM32Cube_FW_N6/Drivers/STM32N6xx_HAL_Driver/Inc/stm32n6xx_ll_bus.h ****   *         @arg @ref LL_MEM_AXISRAM1
 738:STM32Cube_FW_N6/Drivers/STM32N6xx_HAL_Driver/Inc/stm32n6xx_ll_bus.h ****   *         @arg @ref LL_MEM_AXISRAM2
 739:STM32Cube_FW_N6/Drivers/STM32N6xx_HAL_Driver/Inc/stm32n6xx_ll_bus.h ****   *         @arg @ref LL_MEM_AXISRAM3
 740:STM32Cube_FW_N6/Drivers/STM32N6xx_HAL_Driver/Inc/stm32n6xx_ll_bus.h ****   *         @arg @ref LL_MEM_AXISRAM4
 741:STM32Cube_FW_N6/Drivers/STM32N6xx_HAL_Driver/Inc/stm32n6xx_ll_bus.h ****   *         @arg @ref LL_MEM_AXISRAM5
 742:STM32Cube_FW_N6/Drivers/STM32N6xx_HAL_Driver/Inc/stm32n6xx_ll_bus.h ****   *         @arg @ref LL_MEM_AXISRAM6
 743:STM32Cube_FW_N6/Drivers/STM32N6xx_HAL_Driver/Inc/stm32n6xx_ll_bus.h ****   *         @arg @ref LL_MEM_AHBSRAM1
ARM GAS  C:\Users\DJESSOU\AppData\Local\Temp\ccIfw9Ia.s 			page 36


 744:STM32Cube_FW_N6/Drivers/STM32N6xx_HAL_Driver/Inc/stm32n6xx_ll_bus.h ****   *         @arg @ref LL_MEM_AHBSRAM2
 745:STM32Cube_FW_N6/Drivers/STM32N6xx_HAL_Driver/Inc/stm32n6xx_ll_bus.h ****   *         @arg @ref LL_MEM_BKPSRAM
 746:STM32Cube_FW_N6/Drivers/STM32N6xx_HAL_Driver/Inc/stm32n6xx_ll_bus.h ****   *         @arg @ref LL_MEM_FLEXRAM
 747:STM32Cube_FW_N6/Drivers/STM32N6xx_HAL_Driver/Inc/stm32n6xx_ll_bus.h ****   *         @arg @ref LL_MEM_CACHEAXIRAM
 748:STM32Cube_FW_N6/Drivers/STM32N6xx_HAL_Driver/Inc/stm32n6xx_ll_bus.h ****   *         @arg @ref LL_MEM_VENCRAM
 749:STM32Cube_FW_N6/Drivers/STM32N6xx_HAL_Driver/Inc/stm32n6xx_ll_bus.h ****   * @retval None
 750:STM32Cube_FW_N6/Drivers/STM32N6xx_HAL_Driver/Inc/stm32n6xx_ll_bus.h ****   */
 751:STM32Cube_FW_N6/Drivers/STM32N6xx_HAL_Driver/Inc/stm32n6xx_ll_bus.h **** __STATIC_INLINE void LL_MEM_DisableClock(uint32_t Memories)
 752:STM32Cube_FW_N6/Drivers/STM32N6xx_HAL_Driver/Inc/stm32n6xx_ll_bus.h **** {
 753:STM32Cube_FW_N6/Drivers/STM32N6xx_HAL_Driver/Inc/stm32n6xx_ll_bus.h ****   WRITE_REG(RCC->MEMENCR, Memories);
 754:STM32Cube_FW_N6/Drivers/STM32N6xx_HAL_Driver/Inc/stm32n6xx_ll_bus.h **** }
 755:STM32Cube_FW_N6/Drivers/STM32N6xx_HAL_Driver/Inc/stm32n6xx_ll_bus.h **** 
 756:STM32Cube_FW_N6/Drivers/STM32N6xx_HAL_Driver/Inc/stm32n6xx_ll_bus.h **** /**
 757:STM32Cube_FW_N6/Drivers/STM32N6xx_HAL_Driver/Inc/stm32n6xx_ll_bus.h ****   * @brief  Enable memories clock during Low Power mode.
 758:STM32Cube_FW_N6/Drivers/STM32N6xx_HAL_Driver/Inc/stm32n6xx_ll_bus.h ****   * @rmtoll MEMLPENSR    AXISRAM1LPENS LL_MEM_EnableClockLowPower\n
 759:STM32Cube_FW_N6/Drivers/STM32N6xx_HAL_Driver/Inc/stm32n6xx_ll_bus.h ****   *         MEMLPENSR    AXISRAM2LPENS LL_MEM_EnableClockLowPower\n
 760:STM32Cube_FW_N6/Drivers/STM32N6xx_HAL_Driver/Inc/stm32n6xx_ll_bus.h ****   *         MEMLPENSR    AXISRAM3LPENS LL_MEM_EnableClockLowPower\n
 761:STM32Cube_FW_N6/Drivers/STM32N6xx_HAL_Driver/Inc/stm32n6xx_ll_bus.h ****   *         MEMLPENSR    AXISRAM4LPENS LL_MEM_EnableClockLowPower\n
 762:STM32Cube_FW_N6/Drivers/STM32N6xx_HAL_Driver/Inc/stm32n6xx_ll_bus.h ****   *         MEMLPENSR    AXISRAM5LPENS LL_MEM_EnableClockLowPower\n
 763:STM32Cube_FW_N6/Drivers/STM32N6xx_HAL_Driver/Inc/stm32n6xx_ll_bus.h ****   *         MEMLPENSR    AXISRAM6LPENS LL_MEM_EnableClockLowPower\n
 764:STM32Cube_FW_N6/Drivers/STM32N6xx_HAL_Driver/Inc/stm32n6xx_ll_bus.h ****   *         MEMLPENSR    AHBSRAM1LPENS LL_MEM_EnableClockLowPower\n
 765:STM32Cube_FW_N6/Drivers/STM32N6xx_HAL_Driver/Inc/stm32n6xx_ll_bus.h ****   *         MEMLPENSR    AHBSRAM2LPENS LL_MEM_EnableClockLowPower\n
 766:STM32Cube_FW_N6/Drivers/STM32N6xx_HAL_Driver/Inc/stm32n6xx_ll_bus.h ****   *         MEMLPENSR    BKPSRAMLPENS  LL_MEM_EnableClockLowPower\n
 767:STM32Cube_FW_N6/Drivers/STM32N6xx_HAL_Driver/Inc/stm32n6xx_ll_bus.h ****   *         MEMLPENSR    FLEXRAMLPENS  LL_MEM_EnableClockLowPower\n
 768:STM32Cube_FW_N6/Drivers/STM32N6xx_HAL_Driver/Inc/stm32n6xx_ll_bus.h ****   *         MEMLPENSR    CACHEAXIRAMLPENS LL_MEM_EnableClockLowPower\n
 769:STM32Cube_FW_N6/Drivers/STM32N6xx_HAL_Driver/Inc/stm32n6xx_ll_bus.h ****   *         MEMLPENSR    VENCRAMLPENS  LL_MEM_EnableClockLowPower
 770:STM32Cube_FW_N6/Drivers/STM32N6xx_HAL_Driver/Inc/stm32n6xx_ll_bus.h ****   * @param  Memories This parameter can be a combination of the following values:
 771:STM32Cube_FW_N6/Drivers/STM32N6xx_HAL_Driver/Inc/stm32n6xx_ll_bus.h ****   *         @arg @ref LL_MEM_AXISRAM1
 772:STM32Cube_FW_N6/Drivers/STM32N6xx_HAL_Driver/Inc/stm32n6xx_ll_bus.h ****   *         @arg @ref LL_MEM_AXISRAM2
 773:STM32Cube_FW_N6/Drivers/STM32N6xx_HAL_Driver/Inc/stm32n6xx_ll_bus.h ****   *         @arg @ref LL_MEM_AXISRAM3
 774:STM32Cube_FW_N6/Drivers/STM32N6xx_HAL_Driver/Inc/stm32n6xx_ll_bus.h ****   *         @arg @ref LL_MEM_AXISRAM4
 775:STM32Cube_FW_N6/Drivers/STM32N6xx_HAL_Driver/Inc/stm32n6xx_ll_bus.h ****   *         @arg @ref LL_MEM_AXISRAM5
 776:STM32Cube_FW_N6/Drivers/STM32N6xx_HAL_Driver/Inc/stm32n6xx_ll_bus.h ****   *         @arg @ref LL_MEM_AXISRAM6
 777:STM32Cube_FW_N6/Drivers/STM32N6xx_HAL_Driver/Inc/stm32n6xx_ll_bus.h ****   *         @arg @ref LL_MEM_AHBSRAM1
 778:STM32Cube_FW_N6/Drivers/STM32N6xx_HAL_Driver/Inc/stm32n6xx_ll_bus.h ****   *         @arg @ref LL_MEM_AHBSRAM2
 779:STM32Cube_FW_N6/Drivers/STM32N6xx_HAL_Driver/Inc/stm32n6xx_ll_bus.h ****   *         @arg @ref LL_MEM_BKPSRAM
 780:STM32Cube_FW_N6/Drivers/STM32N6xx_HAL_Driver/Inc/stm32n6xx_ll_bus.h ****   *         @arg @ref LL_MEM_FLEXRAM
 781:STM32Cube_FW_N6/Drivers/STM32N6xx_HAL_Driver/Inc/stm32n6xx_ll_bus.h ****   *         @arg @ref LL_MEM_CACHEAXIRAM
 782:STM32Cube_FW_N6/Drivers/STM32N6xx_HAL_Driver/Inc/stm32n6xx_ll_bus.h ****   *         @arg @ref LL_MEM_VENCRAM
 783:STM32Cube_FW_N6/Drivers/STM32N6xx_HAL_Driver/Inc/stm32n6xx_ll_bus.h ****   * @retval None
 784:STM32Cube_FW_N6/Drivers/STM32N6xx_HAL_Driver/Inc/stm32n6xx_ll_bus.h ****   */
 785:STM32Cube_FW_N6/Drivers/STM32N6xx_HAL_Driver/Inc/stm32n6xx_ll_bus.h **** __STATIC_INLINE void LL_MEM_EnableClockLowPower(uint32_t Memories)
 786:STM32Cube_FW_N6/Drivers/STM32N6xx_HAL_Driver/Inc/stm32n6xx_ll_bus.h **** {
 787:STM32Cube_FW_N6/Drivers/STM32N6xx_HAL_Driver/Inc/stm32n6xx_ll_bus.h ****   __IO uint32_t tmpreg;
 788:STM32Cube_FW_N6/Drivers/STM32N6xx_HAL_Driver/Inc/stm32n6xx_ll_bus.h ****   WRITE_REG(RCC->MEMLPENSR, Memories);
 789:STM32Cube_FW_N6/Drivers/STM32N6xx_HAL_Driver/Inc/stm32n6xx_ll_bus.h ****   /* Delay after an RCC memories clock enabling */
 790:STM32Cube_FW_N6/Drivers/STM32N6xx_HAL_Driver/Inc/stm32n6xx_ll_bus.h ****   tmpreg = READ_REG(RCC->MEMLPENR);
 791:STM32Cube_FW_N6/Drivers/STM32N6xx_HAL_Driver/Inc/stm32n6xx_ll_bus.h ****   (void)tmpreg;
 792:STM32Cube_FW_N6/Drivers/STM32N6xx_HAL_Driver/Inc/stm32n6xx_ll_bus.h **** }
 793:STM32Cube_FW_N6/Drivers/STM32N6xx_HAL_Driver/Inc/stm32n6xx_ll_bus.h **** 
 794:STM32Cube_FW_N6/Drivers/STM32N6xx_HAL_Driver/Inc/stm32n6xx_ll_bus.h **** /**
 795:STM32Cube_FW_N6/Drivers/STM32N6xx_HAL_Driver/Inc/stm32n6xx_ll_bus.h ****   * @brief  Check if memories clock during Low Power mode is enabled or not .
 796:STM32Cube_FW_N6/Drivers/STM32N6xx_HAL_Driver/Inc/stm32n6xx_ll_bus.h ****   * @rmtoll MEMLPENR      AXISRAM1LPEN    LL_MEM_IsEnabledClockLowPower\n
 797:STM32Cube_FW_N6/Drivers/STM32N6xx_HAL_Driver/Inc/stm32n6xx_ll_bus.h ****   *         MEMLPENR      AXISRAM2LPEN    LL_MEM_IsEnabledClockLowPower\n
 798:STM32Cube_FW_N6/Drivers/STM32N6xx_HAL_Driver/Inc/stm32n6xx_ll_bus.h ****   *         MEMLPENR      AXISRAM3LPEN    LL_MEM_IsEnabledClockLowPower\n
 799:STM32Cube_FW_N6/Drivers/STM32N6xx_HAL_Driver/Inc/stm32n6xx_ll_bus.h ****   *         MEMLPENR      AXISRAM4LPEN    LL_MEM_IsEnabledClockLowPower\n
 800:STM32Cube_FW_N6/Drivers/STM32N6xx_HAL_Driver/Inc/stm32n6xx_ll_bus.h ****   *         MEMLPENR      AXISRAM5LPEN    LL_MEM_IsEnabledClockLowPower\n
ARM GAS  C:\Users\DJESSOU\AppData\Local\Temp\ccIfw9Ia.s 			page 37


 801:STM32Cube_FW_N6/Drivers/STM32N6xx_HAL_Driver/Inc/stm32n6xx_ll_bus.h ****   *         MEMLPENR      AXISRAM6LPEN    LL_MEM_IsEnabledClockLowPower\n
 802:STM32Cube_FW_N6/Drivers/STM32N6xx_HAL_Driver/Inc/stm32n6xx_ll_bus.h ****   *         MEMLPENR      AHBSRAM1LPEN    LL_MEM_IsEnabledClockLowPower\n
 803:STM32Cube_FW_N6/Drivers/STM32N6xx_HAL_Driver/Inc/stm32n6xx_ll_bus.h ****   *         MEMLPENR      AHBSRAM2LPEN    LL_MEM_IsEnabledClockLowPower\n
 804:STM32Cube_FW_N6/Drivers/STM32N6xx_HAL_Driver/Inc/stm32n6xx_ll_bus.h ****   *         MEMLPENR      BKPSRAMLPEN     LL_MEM_IsEnabledClockLowPower\n
 805:STM32Cube_FW_N6/Drivers/STM32N6xx_HAL_Driver/Inc/stm32n6xx_ll_bus.h ****   *         MEMLPENR      FLEXRAMLPEN     LL_MEM_IsEnabledClockLowPower\n
 806:STM32Cube_FW_N6/Drivers/STM32N6xx_HAL_Driver/Inc/stm32n6xx_ll_bus.h ****   *         MEMLPENR      CACHEAXIRAMLPEN LL_MEM_IsEnabledClockLowPower\n
 807:STM32Cube_FW_N6/Drivers/STM32N6xx_HAL_Driver/Inc/stm32n6xx_ll_bus.h ****   *         MEMLPENR      VENCRAMLPEN     LL_MEM_IsEnabledClockLowPower
 808:STM32Cube_FW_N6/Drivers/STM32N6xx_HAL_Driver/Inc/stm32n6xx_ll_bus.h ****   * @param  Memories This parameter can be a combination of the following values:
 809:STM32Cube_FW_N6/Drivers/STM32N6xx_HAL_Driver/Inc/stm32n6xx_ll_bus.h ****   *         @arg @ref LL_MEM_AXISRAM1
 810:STM32Cube_FW_N6/Drivers/STM32N6xx_HAL_Driver/Inc/stm32n6xx_ll_bus.h ****   *         @arg @ref LL_MEM_AXISRAM2
 811:STM32Cube_FW_N6/Drivers/STM32N6xx_HAL_Driver/Inc/stm32n6xx_ll_bus.h ****   *         @arg @ref LL_MEM_AXISRAM3
 812:STM32Cube_FW_N6/Drivers/STM32N6xx_HAL_Driver/Inc/stm32n6xx_ll_bus.h ****   *         @arg @ref LL_MEM_AXISRAM4
 813:STM32Cube_FW_N6/Drivers/STM32N6xx_HAL_Driver/Inc/stm32n6xx_ll_bus.h ****   *         @arg @ref LL_MEM_AXISRAM5
 814:STM32Cube_FW_N6/Drivers/STM32N6xx_HAL_Driver/Inc/stm32n6xx_ll_bus.h ****   *         @arg @ref LL_MEM_AXISRAM6
 815:STM32Cube_FW_N6/Drivers/STM32N6xx_HAL_Driver/Inc/stm32n6xx_ll_bus.h ****   *         @arg @ref LL_MEM_AHBSRAM1
 816:STM32Cube_FW_N6/Drivers/STM32N6xx_HAL_Driver/Inc/stm32n6xx_ll_bus.h ****   *         @arg @ref LL_MEM_AHBSRAM2
 817:STM32Cube_FW_N6/Drivers/STM32N6xx_HAL_Driver/Inc/stm32n6xx_ll_bus.h ****   *         @arg @ref LL_MEM_BKPSRAM
 818:STM32Cube_FW_N6/Drivers/STM32N6xx_HAL_Driver/Inc/stm32n6xx_ll_bus.h ****   *         @arg @ref LL_MEM_FLEXRAM
 819:STM32Cube_FW_N6/Drivers/STM32N6xx_HAL_Driver/Inc/stm32n6xx_ll_bus.h ****   *         @arg @ref LL_MEM_CACHEAXIRAM
 820:STM32Cube_FW_N6/Drivers/STM32N6xx_HAL_Driver/Inc/stm32n6xx_ll_bus.h ****   *         @arg @ref LL_MEM_VENCRAM
 821:STM32Cube_FW_N6/Drivers/STM32N6xx_HAL_Driver/Inc/stm32n6xx_ll_bus.h ****   * @retval None
 822:STM32Cube_FW_N6/Drivers/STM32N6xx_HAL_Driver/Inc/stm32n6xx_ll_bus.h ****   */
 823:STM32Cube_FW_N6/Drivers/STM32N6xx_HAL_Driver/Inc/stm32n6xx_ll_bus.h **** __STATIC_INLINE uint32_t LL_MEM_IsEnabledClockLowPower(uint32_t Memories)
 824:STM32Cube_FW_N6/Drivers/STM32N6xx_HAL_Driver/Inc/stm32n6xx_ll_bus.h **** {
 825:STM32Cube_FW_N6/Drivers/STM32N6xx_HAL_Driver/Inc/stm32n6xx_ll_bus.h ****   return ((READ_BIT(RCC->MEMLPENR, Memories) == Memories) ? 1UL : 0UL);
 826:STM32Cube_FW_N6/Drivers/STM32N6xx_HAL_Driver/Inc/stm32n6xx_ll_bus.h **** }
 827:STM32Cube_FW_N6/Drivers/STM32N6xx_HAL_Driver/Inc/stm32n6xx_ll_bus.h **** 
 828:STM32Cube_FW_N6/Drivers/STM32N6xx_HAL_Driver/Inc/stm32n6xx_ll_bus.h **** /**
 829:STM32Cube_FW_N6/Drivers/STM32N6xx_HAL_Driver/Inc/stm32n6xx_ll_bus.h ****   * @brief  Disable memories clock during Low Power mode.
 830:STM32Cube_FW_N6/Drivers/STM32N6xx_HAL_Driver/Inc/stm32n6xx_ll_bus.h ****   * @rmtoll MEMLPENCR    AXISRAM1LPENC LL_MEM_DisableClockLowPower\n
 831:STM32Cube_FW_N6/Drivers/STM32N6xx_HAL_Driver/Inc/stm32n6xx_ll_bus.h ****   *         MEMLPENCR    AXISRAM2LPENC LL_MEM_DisableClockLowPower\n
 832:STM32Cube_FW_N6/Drivers/STM32N6xx_HAL_Driver/Inc/stm32n6xx_ll_bus.h ****   *         MEMLPENCR    AXISRAM3LPENC LL_MEM_DisableClockLowPower\n
 833:STM32Cube_FW_N6/Drivers/STM32N6xx_HAL_Driver/Inc/stm32n6xx_ll_bus.h ****   *         MEMLPENCR    AXISRAM4LPENC LL_MEM_DisableClockLowPower\n
 834:STM32Cube_FW_N6/Drivers/STM32N6xx_HAL_Driver/Inc/stm32n6xx_ll_bus.h ****   *         MEMLPENCR    AXISRAM5LPENC LL_MEM_DisableClockLowPower\n
 835:STM32Cube_FW_N6/Drivers/STM32N6xx_HAL_Driver/Inc/stm32n6xx_ll_bus.h ****   *         MEMLPENCR    AXISRAM6LPENC LL_MEM_DisableClockLowPower\n
 836:STM32Cube_FW_N6/Drivers/STM32N6xx_HAL_Driver/Inc/stm32n6xx_ll_bus.h ****   *         MEMLPENCR    AHBSRAM1LPENC LL_MEM_DisableClockLowPower\n
 837:STM32Cube_FW_N6/Drivers/STM32N6xx_HAL_Driver/Inc/stm32n6xx_ll_bus.h ****   *         MEMLPENCR    AHBSRAM2LPENC LL_MEM_DisableClockLowPower\n
 838:STM32Cube_FW_N6/Drivers/STM32N6xx_HAL_Driver/Inc/stm32n6xx_ll_bus.h ****   *         MEMLPENCR    BKPSRAMLPENC  LL_MEM_DisableClockLowPower\n
 839:STM32Cube_FW_N6/Drivers/STM32N6xx_HAL_Driver/Inc/stm32n6xx_ll_bus.h ****   *         MEMLPENCR    FLEXRAMLPENC  LL_MEM_DisableClockLowPower\n
 840:STM32Cube_FW_N6/Drivers/STM32N6xx_HAL_Driver/Inc/stm32n6xx_ll_bus.h ****   *         MEMLPENCR    CACHEAXIRAMLPENC LL_MEM_DisableClockLowPower\n
 841:STM32Cube_FW_N6/Drivers/STM32N6xx_HAL_Driver/Inc/stm32n6xx_ll_bus.h ****   *         MEMLPENCR    VENCRAMLPENC  LL_MEM_DisableClockLowPower
 842:STM32Cube_FW_N6/Drivers/STM32N6xx_HAL_Driver/Inc/stm32n6xx_ll_bus.h ****   * @param  Memories This parameter can be a combination of the following values:
 843:STM32Cube_FW_N6/Drivers/STM32N6xx_HAL_Driver/Inc/stm32n6xx_ll_bus.h ****   *         @arg @ref LL_MEM_AXISRAM1
 844:STM32Cube_FW_N6/Drivers/STM32N6xx_HAL_Driver/Inc/stm32n6xx_ll_bus.h ****   *         @arg @ref LL_MEM_AXISRAM2
 845:STM32Cube_FW_N6/Drivers/STM32N6xx_HAL_Driver/Inc/stm32n6xx_ll_bus.h ****   *         @arg @ref LL_MEM_AXISRAM3
 846:STM32Cube_FW_N6/Drivers/STM32N6xx_HAL_Driver/Inc/stm32n6xx_ll_bus.h ****   *         @arg @ref LL_MEM_AXISRAM4
 847:STM32Cube_FW_N6/Drivers/STM32N6xx_HAL_Driver/Inc/stm32n6xx_ll_bus.h ****   *         @arg @ref LL_MEM_AXISRAM5
 848:STM32Cube_FW_N6/Drivers/STM32N6xx_HAL_Driver/Inc/stm32n6xx_ll_bus.h ****   *         @arg @ref LL_MEM_AXISRAM6
 849:STM32Cube_FW_N6/Drivers/STM32N6xx_HAL_Driver/Inc/stm32n6xx_ll_bus.h ****   *         @arg @ref LL_MEM_AHBSRAM1
 850:STM32Cube_FW_N6/Drivers/STM32N6xx_HAL_Driver/Inc/stm32n6xx_ll_bus.h ****   *         @arg @ref LL_MEM_AHBSRAM2
 851:STM32Cube_FW_N6/Drivers/STM32N6xx_HAL_Driver/Inc/stm32n6xx_ll_bus.h ****   *         @arg @ref LL_MEM_BKPSRAM
 852:STM32Cube_FW_N6/Drivers/STM32N6xx_HAL_Driver/Inc/stm32n6xx_ll_bus.h ****   *         @arg @ref LL_MEM_FLEXRAM
 853:STM32Cube_FW_N6/Drivers/STM32N6xx_HAL_Driver/Inc/stm32n6xx_ll_bus.h ****   *         @arg @ref LL_MEM_CACHEAXIRAM
 854:STM32Cube_FW_N6/Drivers/STM32N6xx_HAL_Driver/Inc/stm32n6xx_ll_bus.h ****   *         @arg @ref LL_MEM_VENCRAM
 855:STM32Cube_FW_N6/Drivers/STM32N6xx_HAL_Driver/Inc/stm32n6xx_ll_bus.h ****   * @retval None
 856:STM32Cube_FW_N6/Drivers/STM32N6xx_HAL_Driver/Inc/stm32n6xx_ll_bus.h ****   */
 857:STM32Cube_FW_N6/Drivers/STM32N6xx_HAL_Driver/Inc/stm32n6xx_ll_bus.h **** __STATIC_INLINE void LL_MEM_DisableClockLowPower(uint32_t Memories)
ARM GAS  C:\Users\DJESSOU\AppData\Local\Temp\ccIfw9Ia.s 			page 38


 858:STM32Cube_FW_N6/Drivers/STM32N6xx_HAL_Driver/Inc/stm32n6xx_ll_bus.h **** {
 859:STM32Cube_FW_N6/Drivers/STM32N6xx_HAL_Driver/Inc/stm32n6xx_ll_bus.h ****   WRITE_REG(RCC->MEMLPENCR, Memories);
 860:STM32Cube_FW_N6/Drivers/STM32N6xx_HAL_Driver/Inc/stm32n6xx_ll_bus.h **** }
 861:STM32Cube_FW_N6/Drivers/STM32N6xx_HAL_Driver/Inc/stm32n6xx_ll_bus.h **** 
 862:STM32Cube_FW_N6/Drivers/STM32N6xx_HAL_Driver/Inc/stm32n6xx_ll_bus.h **** /**
 863:STM32Cube_FW_N6/Drivers/STM32N6xx_HAL_Driver/Inc/stm32n6xx_ll_bus.h ****   * @}
 864:STM32Cube_FW_N6/Drivers/STM32N6xx_HAL_Driver/Inc/stm32n6xx_ll_bus.h ****   */
 865:STM32Cube_FW_N6/Drivers/STM32N6xx_HAL_Driver/Inc/stm32n6xx_ll_bus.h **** 
 866:STM32Cube_FW_N6/Drivers/STM32N6xx_HAL_Driver/Inc/stm32n6xx_ll_bus.h **** /** @defgroup BUS_LL_EF_AHB1 AHB1
 867:STM32Cube_FW_N6/Drivers/STM32N6xx_HAL_Driver/Inc/stm32n6xx_ll_bus.h ****   * @{
 868:STM32Cube_FW_N6/Drivers/STM32N6xx_HAL_Driver/Inc/stm32n6xx_ll_bus.h ****   */
 869:STM32Cube_FW_N6/Drivers/STM32N6xx_HAL_Driver/Inc/stm32n6xx_ll_bus.h **** 
 870:STM32Cube_FW_N6/Drivers/STM32N6xx_HAL_Driver/Inc/stm32n6xx_ll_bus.h **** /**
 871:STM32Cube_FW_N6/Drivers/STM32N6xx_HAL_Driver/Inc/stm32n6xx_ll_bus.h ****   * @brief  Enable AHB1 peripherals clock.
 872:STM32Cube_FW_N6/Drivers/STM32N6xx_HAL_Driver/Inc/stm32n6xx_ll_bus.h ****   * @rmtoll AHB1ENSR     GPDMA1ENS     LL_AHB1_GRP1_EnableClock\n
 873:STM32Cube_FW_N6/Drivers/STM32N6xx_HAL_Driver/Inc/stm32n6xx_ll_bus.h ****   *         AHB1ENSR     ADC12ENS      LL_AHB1_GRP1_EnableClock
 874:STM32Cube_FW_N6/Drivers/STM32N6xx_HAL_Driver/Inc/stm32n6xx_ll_bus.h ****   * @param  Periphs This parameter can be a combination of the following values:
 875:STM32Cube_FW_N6/Drivers/STM32N6xx_HAL_Driver/Inc/stm32n6xx_ll_bus.h ****   *         @arg @ref LL_AHB1_GRP1_PERIPH_GPDMA1
 876:STM32Cube_FW_N6/Drivers/STM32N6xx_HAL_Driver/Inc/stm32n6xx_ll_bus.h ****   *         @arg @ref LL_AHB1_GRP1_PERIPH_ADC12
 877:STM32Cube_FW_N6/Drivers/STM32N6xx_HAL_Driver/Inc/stm32n6xx_ll_bus.h ****   * @retval None
 878:STM32Cube_FW_N6/Drivers/STM32N6xx_HAL_Driver/Inc/stm32n6xx_ll_bus.h ****   */
 879:STM32Cube_FW_N6/Drivers/STM32N6xx_HAL_Driver/Inc/stm32n6xx_ll_bus.h **** __STATIC_INLINE void LL_AHB1_GRP1_EnableClock(uint32_t Periphs)
 880:STM32Cube_FW_N6/Drivers/STM32N6xx_HAL_Driver/Inc/stm32n6xx_ll_bus.h **** {
 881:STM32Cube_FW_N6/Drivers/STM32N6xx_HAL_Driver/Inc/stm32n6xx_ll_bus.h ****   __IO uint32_t tmpreg;
 882:STM32Cube_FW_N6/Drivers/STM32N6xx_HAL_Driver/Inc/stm32n6xx_ll_bus.h ****   WRITE_REG(RCC->AHB1ENSR, Periphs);
 883:STM32Cube_FW_N6/Drivers/STM32N6xx_HAL_Driver/Inc/stm32n6xx_ll_bus.h ****   /* Delay after an RCC peripheral clock enabling */
 884:STM32Cube_FW_N6/Drivers/STM32N6xx_HAL_Driver/Inc/stm32n6xx_ll_bus.h ****   tmpreg = READ_REG(RCC->AHB1ENR);
 885:STM32Cube_FW_N6/Drivers/STM32N6xx_HAL_Driver/Inc/stm32n6xx_ll_bus.h ****   (void)tmpreg;
 886:STM32Cube_FW_N6/Drivers/STM32N6xx_HAL_Driver/Inc/stm32n6xx_ll_bus.h **** }
 887:STM32Cube_FW_N6/Drivers/STM32N6xx_HAL_Driver/Inc/stm32n6xx_ll_bus.h **** 
 888:STM32Cube_FW_N6/Drivers/STM32N6xx_HAL_Driver/Inc/stm32n6xx_ll_bus.h **** /**
 889:STM32Cube_FW_N6/Drivers/STM32N6xx_HAL_Driver/Inc/stm32n6xx_ll_bus.h ****   * @brief  Check if AHB1 peripheral clock is enabled or not
 890:STM32Cube_FW_N6/Drivers/STM32N6xx_HAL_Driver/Inc/stm32n6xx_ll_bus.h ****   * @rmtoll AHB1ENR      GPDMA1EN      LL_AHB1_GRP1_IsEnabledClock\n
 891:STM32Cube_FW_N6/Drivers/STM32N6xx_HAL_Driver/Inc/stm32n6xx_ll_bus.h ****   *         AHB1ENR      ADC12EN       LL_AHB1_GRP1_IsEnabledClock
 892:STM32Cube_FW_N6/Drivers/STM32N6xx_HAL_Driver/Inc/stm32n6xx_ll_bus.h ****   * @param  Periphs This parameter can be a combination of the following values:
 893:STM32Cube_FW_N6/Drivers/STM32N6xx_HAL_Driver/Inc/stm32n6xx_ll_bus.h ****   *         @arg @ref LL_AHB1_GRP1_PERIPH_GPDMA1
 894:STM32Cube_FW_N6/Drivers/STM32N6xx_HAL_Driver/Inc/stm32n6xx_ll_bus.h ****   *         @arg @ref LL_AHB1_GRP1_PERIPH_ADC12
 895:STM32Cube_FW_N6/Drivers/STM32N6xx_HAL_Driver/Inc/stm32n6xx_ll_bus.h ****   * @retval uint32_t
 896:STM32Cube_FW_N6/Drivers/STM32N6xx_HAL_Driver/Inc/stm32n6xx_ll_bus.h ****   */
 897:STM32Cube_FW_N6/Drivers/STM32N6xx_HAL_Driver/Inc/stm32n6xx_ll_bus.h **** __STATIC_INLINE uint32_t LL_AHB1_GRP1_IsEnabledClock(uint32_t Periphs)
 898:STM32Cube_FW_N6/Drivers/STM32N6xx_HAL_Driver/Inc/stm32n6xx_ll_bus.h **** {
 899:STM32Cube_FW_N6/Drivers/STM32N6xx_HAL_Driver/Inc/stm32n6xx_ll_bus.h ****   return ((READ_BIT(RCC->AHB1ENR, Periphs) == Periphs) ? 1UL : 0UL);
 900:STM32Cube_FW_N6/Drivers/STM32N6xx_HAL_Driver/Inc/stm32n6xx_ll_bus.h **** }
 901:STM32Cube_FW_N6/Drivers/STM32N6xx_HAL_Driver/Inc/stm32n6xx_ll_bus.h **** 
 902:STM32Cube_FW_N6/Drivers/STM32N6xx_HAL_Driver/Inc/stm32n6xx_ll_bus.h **** /**
 903:STM32Cube_FW_N6/Drivers/STM32N6xx_HAL_Driver/Inc/stm32n6xx_ll_bus.h ****   * @brief  Disable AHB1 peripherals clock.
 904:STM32Cube_FW_N6/Drivers/STM32N6xx_HAL_Driver/Inc/stm32n6xx_ll_bus.h ****   * @rmtoll AHB1ENCR     GPDMA1ENC     LL_AHB1_GRP1_DisableClock\n
 905:STM32Cube_FW_N6/Drivers/STM32N6xx_HAL_Driver/Inc/stm32n6xx_ll_bus.h ****   *         AHB1ENCR     ADC12ENC      LL_AHB1_GRP1_DisableClock
 906:STM32Cube_FW_N6/Drivers/STM32N6xx_HAL_Driver/Inc/stm32n6xx_ll_bus.h ****   * @param  Periphs This parameter can be a combination of the following values:
 907:STM32Cube_FW_N6/Drivers/STM32N6xx_HAL_Driver/Inc/stm32n6xx_ll_bus.h ****   *         @arg @ref LL_AHB1_GRP1_PERIPH_GPDMA1
 908:STM32Cube_FW_N6/Drivers/STM32N6xx_HAL_Driver/Inc/stm32n6xx_ll_bus.h ****   *         @arg @ref LL_AHB1_GRP1_PERIPH_ADC12
 909:STM32Cube_FW_N6/Drivers/STM32N6xx_HAL_Driver/Inc/stm32n6xx_ll_bus.h ****   * @retval None
 910:STM32Cube_FW_N6/Drivers/STM32N6xx_HAL_Driver/Inc/stm32n6xx_ll_bus.h ****   */
 911:STM32Cube_FW_N6/Drivers/STM32N6xx_HAL_Driver/Inc/stm32n6xx_ll_bus.h **** __STATIC_INLINE void LL_AHB1_GRP1_DisableClock(uint32_t Periphs)
 912:STM32Cube_FW_N6/Drivers/STM32N6xx_HAL_Driver/Inc/stm32n6xx_ll_bus.h **** {
 913:STM32Cube_FW_N6/Drivers/STM32N6xx_HAL_Driver/Inc/stm32n6xx_ll_bus.h ****   WRITE_REG(RCC->AHB1ENCR, Periphs);
 914:STM32Cube_FW_N6/Drivers/STM32N6xx_HAL_Driver/Inc/stm32n6xx_ll_bus.h **** }
ARM GAS  C:\Users\DJESSOU\AppData\Local\Temp\ccIfw9Ia.s 			page 39


 915:STM32Cube_FW_N6/Drivers/STM32N6xx_HAL_Driver/Inc/stm32n6xx_ll_bus.h **** 
 916:STM32Cube_FW_N6/Drivers/STM32N6xx_HAL_Driver/Inc/stm32n6xx_ll_bus.h **** /**
 917:STM32Cube_FW_N6/Drivers/STM32N6xx_HAL_Driver/Inc/stm32n6xx_ll_bus.h ****   * @brief  Force AHB1 peripherals reset.
 918:STM32Cube_FW_N6/Drivers/STM32N6xx_HAL_Driver/Inc/stm32n6xx_ll_bus.h ****   * @rmtoll AHB1RSTSR    GPDMA1RSTS    LL_AHB1_GRP1_ForceReset\n
 919:STM32Cube_FW_N6/Drivers/STM32N6xx_HAL_Driver/Inc/stm32n6xx_ll_bus.h ****   *         AHB1RSTSR    ADC12RSTS     LL_AHB1_GRP1_ForceReset
 920:STM32Cube_FW_N6/Drivers/STM32N6xx_HAL_Driver/Inc/stm32n6xx_ll_bus.h ****   * @param  Periphs This parameter can be a combination of the following values:
 921:STM32Cube_FW_N6/Drivers/STM32N6xx_HAL_Driver/Inc/stm32n6xx_ll_bus.h ****   *         @arg @ref LL_AHB1_GRP1_PERIPH_GPDMA1
 922:STM32Cube_FW_N6/Drivers/STM32N6xx_HAL_Driver/Inc/stm32n6xx_ll_bus.h ****   *         @arg @ref LL_AHB1_GRP1_PERIPH_ADC12
 923:STM32Cube_FW_N6/Drivers/STM32N6xx_HAL_Driver/Inc/stm32n6xx_ll_bus.h ****   * @retval None
 924:STM32Cube_FW_N6/Drivers/STM32N6xx_HAL_Driver/Inc/stm32n6xx_ll_bus.h ****   */
 925:STM32Cube_FW_N6/Drivers/STM32N6xx_HAL_Driver/Inc/stm32n6xx_ll_bus.h **** __STATIC_INLINE void LL_AHB1_GRP1_ForceReset(uint32_t Periphs)
 926:STM32Cube_FW_N6/Drivers/STM32N6xx_HAL_Driver/Inc/stm32n6xx_ll_bus.h **** {
 927:STM32Cube_FW_N6/Drivers/STM32N6xx_HAL_Driver/Inc/stm32n6xx_ll_bus.h ****   WRITE_REG(RCC->AHB1RSTSR, Periphs);
 928:STM32Cube_FW_N6/Drivers/STM32N6xx_HAL_Driver/Inc/stm32n6xx_ll_bus.h **** }
 929:STM32Cube_FW_N6/Drivers/STM32N6xx_HAL_Driver/Inc/stm32n6xx_ll_bus.h **** 
 930:STM32Cube_FW_N6/Drivers/STM32N6xx_HAL_Driver/Inc/stm32n6xx_ll_bus.h **** /**
 931:STM32Cube_FW_N6/Drivers/STM32N6xx_HAL_Driver/Inc/stm32n6xx_ll_bus.h ****   * @brief  Release AHB1 peripherals reset.
 932:STM32Cube_FW_N6/Drivers/STM32N6xx_HAL_Driver/Inc/stm32n6xx_ll_bus.h ****   * @rmtoll AHB1RSTCR    GPDMA1RSTC    LL_AHB1_GRP1_ReleaseReset\n
 933:STM32Cube_FW_N6/Drivers/STM32N6xx_HAL_Driver/Inc/stm32n6xx_ll_bus.h ****   *         AHB1RSTCR    ADC12RSTC     LL_AHB1_GRP1_ReleaseReset
 934:STM32Cube_FW_N6/Drivers/STM32N6xx_HAL_Driver/Inc/stm32n6xx_ll_bus.h ****   * @param  Periphs This parameter can be a combination of the following values:
 935:STM32Cube_FW_N6/Drivers/STM32N6xx_HAL_Driver/Inc/stm32n6xx_ll_bus.h ****   *         @arg @ref LL_AHB1_GRP1_PERIPH_GPDMA1
 936:STM32Cube_FW_N6/Drivers/STM32N6xx_HAL_Driver/Inc/stm32n6xx_ll_bus.h ****   *         @arg @ref LL_AHB1_GRP1_PERIPH_ADC12
 937:STM32Cube_FW_N6/Drivers/STM32N6xx_HAL_Driver/Inc/stm32n6xx_ll_bus.h ****   * @retval None
 938:STM32Cube_FW_N6/Drivers/STM32N6xx_HAL_Driver/Inc/stm32n6xx_ll_bus.h ****   */
 939:STM32Cube_FW_N6/Drivers/STM32N6xx_HAL_Driver/Inc/stm32n6xx_ll_bus.h **** __STATIC_INLINE void LL_AHB1_GRP1_ReleaseReset(uint32_t Periphs)
 940:STM32Cube_FW_N6/Drivers/STM32N6xx_HAL_Driver/Inc/stm32n6xx_ll_bus.h **** {
 941:STM32Cube_FW_N6/Drivers/STM32N6xx_HAL_Driver/Inc/stm32n6xx_ll_bus.h ****   WRITE_REG(RCC->AHB1RSTCR, Periphs);
 942:STM32Cube_FW_N6/Drivers/STM32N6xx_HAL_Driver/Inc/stm32n6xx_ll_bus.h **** }
 943:STM32Cube_FW_N6/Drivers/STM32N6xx_HAL_Driver/Inc/stm32n6xx_ll_bus.h **** 
 944:STM32Cube_FW_N6/Drivers/STM32N6xx_HAL_Driver/Inc/stm32n6xx_ll_bus.h **** /**
 945:STM32Cube_FW_N6/Drivers/STM32N6xx_HAL_Driver/Inc/stm32n6xx_ll_bus.h ****   * @brief  Enable AHB1 peripherals clock during Low Power mode.
 946:STM32Cube_FW_N6/Drivers/STM32N6xx_HAL_Driver/Inc/stm32n6xx_ll_bus.h ****   * @rmtoll AHB1LPENSR   GPDMA1LPENS   LL_AHB1_GRP1_EnableClockLowPower\n
 947:STM32Cube_FW_N6/Drivers/STM32N6xx_HAL_Driver/Inc/stm32n6xx_ll_bus.h ****   *         AHB1LPENSR   ADC12LPENS    LL_AHB1_GRP1_EnableClockLowPower
 948:STM32Cube_FW_N6/Drivers/STM32N6xx_HAL_Driver/Inc/stm32n6xx_ll_bus.h ****   * @param  Periphs This parameter can be a combination of the following values:
 949:STM32Cube_FW_N6/Drivers/STM32N6xx_HAL_Driver/Inc/stm32n6xx_ll_bus.h ****   *         @arg @ref LL_AHB1_GRP1_PERIPH_GPDMA1
 950:STM32Cube_FW_N6/Drivers/STM32N6xx_HAL_Driver/Inc/stm32n6xx_ll_bus.h ****   *         @arg @ref LL_AHB1_GRP1_PERIPH_ADC12
 951:STM32Cube_FW_N6/Drivers/STM32N6xx_HAL_Driver/Inc/stm32n6xx_ll_bus.h ****   * @retval None
 952:STM32Cube_FW_N6/Drivers/STM32N6xx_HAL_Driver/Inc/stm32n6xx_ll_bus.h ****   */
 953:STM32Cube_FW_N6/Drivers/STM32N6xx_HAL_Driver/Inc/stm32n6xx_ll_bus.h **** __STATIC_INLINE void LL_AHB1_GRP1_EnableClockLowPower(uint32_t Periphs)
 954:STM32Cube_FW_N6/Drivers/STM32N6xx_HAL_Driver/Inc/stm32n6xx_ll_bus.h **** {
 955:STM32Cube_FW_N6/Drivers/STM32N6xx_HAL_Driver/Inc/stm32n6xx_ll_bus.h ****   __IO uint32_t tmpreg;
 956:STM32Cube_FW_N6/Drivers/STM32N6xx_HAL_Driver/Inc/stm32n6xx_ll_bus.h ****   WRITE_REG(RCC->AHB1LPENSR, Periphs);
 957:STM32Cube_FW_N6/Drivers/STM32N6xx_HAL_Driver/Inc/stm32n6xx_ll_bus.h ****   /* Delay after an RCC peripheral clock enabling */
 958:STM32Cube_FW_N6/Drivers/STM32N6xx_HAL_Driver/Inc/stm32n6xx_ll_bus.h ****   tmpreg = READ_REG(RCC->AHB1LPENR);
 959:STM32Cube_FW_N6/Drivers/STM32N6xx_HAL_Driver/Inc/stm32n6xx_ll_bus.h ****   (void)tmpreg;
 960:STM32Cube_FW_N6/Drivers/STM32N6xx_HAL_Driver/Inc/stm32n6xx_ll_bus.h **** }
 961:STM32Cube_FW_N6/Drivers/STM32N6xx_HAL_Driver/Inc/stm32n6xx_ll_bus.h **** 
 962:STM32Cube_FW_N6/Drivers/STM32N6xx_HAL_Driver/Inc/stm32n6xx_ll_bus.h **** /**
 963:STM32Cube_FW_N6/Drivers/STM32N6xx_HAL_Driver/Inc/stm32n6xx_ll_bus.h ****   * @brief  Check if AHB1 peripheral clock during Low Power mode is enabled or not .
 964:STM32Cube_FW_N6/Drivers/STM32N6xx_HAL_Driver/Inc/stm32n6xx_ll_bus.h ****   * @rmtoll AHB1LPENR    GPDMA1LPEN    LL_AHB1_GRP1_IsEnabledClockLowPower\n
 965:STM32Cube_FW_N6/Drivers/STM32N6xx_HAL_Driver/Inc/stm32n6xx_ll_bus.h ****   *         AHB1LPENR    ADC12LPEN     LL_AHB1_GRP1_IsEnabledClockLowPower
 966:STM32Cube_FW_N6/Drivers/STM32N6xx_HAL_Driver/Inc/stm32n6xx_ll_bus.h ****   * @param  Periphs This parameter can be a combination of the following values:
 967:STM32Cube_FW_N6/Drivers/STM32N6xx_HAL_Driver/Inc/stm32n6xx_ll_bus.h ****   *         @arg @ref LL_AHB1_GRP1_PERIPH_GPDMA1
 968:STM32Cube_FW_N6/Drivers/STM32N6xx_HAL_Driver/Inc/stm32n6xx_ll_bus.h ****   *         @arg @ref LL_AHB1_GRP1_PERIPH_ADC12
 969:STM32Cube_FW_N6/Drivers/STM32N6xx_HAL_Driver/Inc/stm32n6xx_ll_bus.h ****   * @retval uint32_t
 970:STM32Cube_FW_N6/Drivers/STM32N6xx_HAL_Driver/Inc/stm32n6xx_ll_bus.h ****   */
 971:STM32Cube_FW_N6/Drivers/STM32N6xx_HAL_Driver/Inc/stm32n6xx_ll_bus.h **** __STATIC_INLINE uint32_t LL_AHB1_GRP1_IsEnabledClockLowPower(uint32_t Periphs)
ARM GAS  C:\Users\DJESSOU\AppData\Local\Temp\ccIfw9Ia.s 			page 40


 972:STM32Cube_FW_N6/Drivers/STM32N6xx_HAL_Driver/Inc/stm32n6xx_ll_bus.h **** {
 973:STM32Cube_FW_N6/Drivers/STM32N6xx_HAL_Driver/Inc/stm32n6xx_ll_bus.h ****   return ((READ_BIT(RCC->AHB1LPENR, Periphs) == Periphs) ? 1UL : 0UL);
 974:STM32Cube_FW_N6/Drivers/STM32N6xx_HAL_Driver/Inc/stm32n6xx_ll_bus.h **** }
 975:STM32Cube_FW_N6/Drivers/STM32N6xx_HAL_Driver/Inc/stm32n6xx_ll_bus.h **** 
 976:STM32Cube_FW_N6/Drivers/STM32N6xx_HAL_Driver/Inc/stm32n6xx_ll_bus.h **** /**
 977:STM32Cube_FW_N6/Drivers/STM32N6xx_HAL_Driver/Inc/stm32n6xx_ll_bus.h ****   * @brief  Disable AHB1 peripherals clock during Low Power mode.
 978:STM32Cube_FW_N6/Drivers/STM32N6xx_HAL_Driver/Inc/stm32n6xx_ll_bus.h ****   * @rmtoll AHB1LPENCR   GPDMA1LPENC   LL_AHB1_GRP1_DisableClockLowPower\n
 979:STM32Cube_FW_N6/Drivers/STM32N6xx_HAL_Driver/Inc/stm32n6xx_ll_bus.h ****   *         AHB1LPENCR   ADC12LPENC    LL_AHB1_GRP1_DisableClockLowPower
 980:STM32Cube_FW_N6/Drivers/STM32N6xx_HAL_Driver/Inc/stm32n6xx_ll_bus.h ****   * @param  Periphs This parameter can be a combination of the following values:
 981:STM32Cube_FW_N6/Drivers/STM32N6xx_HAL_Driver/Inc/stm32n6xx_ll_bus.h ****   *         @arg @ref LL_AHB1_GRP1_PERIPH_GPDMA1
 982:STM32Cube_FW_N6/Drivers/STM32N6xx_HAL_Driver/Inc/stm32n6xx_ll_bus.h ****   *         @arg @ref LL_AHB1_GRP1_PERIPH_ADC12
 983:STM32Cube_FW_N6/Drivers/STM32N6xx_HAL_Driver/Inc/stm32n6xx_ll_bus.h ****   * @retval None
 984:STM32Cube_FW_N6/Drivers/STM32N6xx_HAL_Driver/Inc/stm32n6xx_ll_bus.h ****   */
 985:STM32Cube_FW_N6/Drivers/STM32N6xx_HAL_Driver/Inc/stm32n6xx_ll_bus.h **** __STATIC_INLINE void LL_AHB1_GRP1_DisableClockLowPower(uint32_t Periphs)
 986:STM32Cube_FW_N6/Drivers/STM32N6xx_HAL_Driver/Inc/stm32n6xx_ll_bus.h **** {
 987:STM32Cube_FW_N6/Drivers/STM32N6xx_HAL_Driver/Inc/stm32n6xx_ll_bus.h ****   WRITE_REG(RCC->AHB1LPENCR, Periphs);
 988:STM32Cube_FW_N6/Drivers/STM32N6xx_HAL_Driver/Inc/stm32n6xx_ll_bus.h **** }
 989:STM32Cube_FW_N6/Drivers/STM32N6xx_HAL_Driver/Inc/stm32n6xx_ll_bus.h **** 
 990:STM32Cube_FW_N6/Drivers/STM32N6xx_HAL_Driver/Inc/stm32n6xx_ll_bus.h **** /**
 991:STM32Cube_FW_N6/Drivers/STM32N6xx_HAL_Driver/Inc/stm32n6xx_ll_bus.h ****   * @}
 992:STM32Cube_FW_N6/Drivers/STM32N6xx_HAL_Driver/Inc/stm32n6xx_ll_bus.h ****   */
 993:STM32Cube_FW_N6/Drivers/STM32N6xx_HAL_Driver/Inc/stm32n6xx_ll_bus.h **** 
 994:STM32Cube_FW_N6/Drivers/STM32N6xx_HAL_Driver/Inc/stm32n6xx_ll_bus.h **** /** @defgroup BUS_LL_EF_AHB2 AHB2
 995:STM32Cube_FW_N6/Drivers/STM32N6xx_HAL_Driver/Inc/stm32n6xx_ll_bus.h ****   * @{
 996:STM32Cube_FW_N6/Drivers/STM32N6xx_HAL_Driver/Inc/stm32n6xx_ll_bus.h ****   */
 997:STM32Cube_FW_N6/Drivers/STM32N6xx_HAL_Driver/Inc/stm32n6xx_ll_bus.h **** 
 998:STM32Cube_FW_N6/Drivers/STM32N6xx_HAL_Driver/Inc/stm32n6xx_ll_bus.h **** /**
 999:STM32Cube_FW_N6/Drivers/STM32N6xx_HAL_Driver/Inc/stm32n6xx_ll_bus.h ****   * @brief  Enable AHB2 peripherals clock.
1000:STM32Cube_FW_N6/Drivers/STM32N6xx_HAL_Driver/Inc/stm32n6xx_ll_bus.h ****   * @rmtoll AHB2ENSR     RAMCFGENS     LL_AHB2_GRP1_EnableClock\n
1001:STM32Cube_FW_N6/Drivers/STM32N6xx_HAL_Driver/Inc/stm32n6xx_ll_bus.h ****   *         AHB2ENSR     MDF1ENS       LL_AHB2_GRP1_EnableClock\n
1002:STM32Cube_FW_N6/Drivers/STM32N6xx_HAL_Driver/Inc/stm32n6xx_ll_bus.h ****   *         AHB2ENSR     ADF1ENS       LL_AHB2_GRP1_EnableClock
1003:STM32Cube_FW_N6/Drivers/STM32N6xx_HAL_Driver/Inc/stm32n6xx_ll_bus.h ****   * @param  Periphs This parameter can be a combination of the following values:
1004:STM32Cube_FW_N6/Drivers/STM32N6xx_HAL_Driver/Inc/stm32n6xx_ll_bus.h ****   *         @arg @ref LL_AHB2_GRP1_PERIPH_RAMCFG
1005:STM32Cube_FW_N6/Drivers/STM32N6xx_HAL_Driver/Inc/stm32n6xx_ll_bus.h ****   *         @arg @ref LL_AHB2_GRP1_PERIPH_MDF1
1006:STM32Cube_FW_N6/Drivers/STM32N6xx_HAL_Driver/Inc/stm32n6xx_ll_bus.h ****   *         @arg @ref LL_AHB2_GRP1_PERIPH_ADF1
1007:STM32Cube_FW_N6/Drivers/STM32N6xx_HAL_Driver/Inc/stm32n6xx_ll_bus.h ****   * @retval None
1008:STM32Cube_FW_N6/Drivers/STM32N6xx_HAL_Driver/Inc/stm32n6xx_ll_bus.h ****   */
1009:STM32Cube_FW_N6/Drivers/STM32N6xx_HAL_Driver/Inc/stm32n6xx_ll_bus.h **** __STATIC_INLINE void LL_AHB2_GRP1_EnableClock(uint32_t Periphs)
1010:STM32Cube_FW_N6/Drivers/STM32N6xx_HAL_Driver/Inc/stm32n6xx_ll_bus.h **** {
1011:STM32Cube_FW_N6/Drivers/STM32N6xx_HAL_Driver/Inc/stm32n6xx_ll_bus.h ****   __IO uint32_t tmpreg;
1012:STM32Cube_FW_N6/Drivers/STM32N6xx_HAL_Driver/Inc/stm32n6xx_ll_bus.h ****   WRITE_REG(RCC->AHB2ENSR, Periphs);
1013:STM32Cube_FW_N6/Drivers/STM32N6xx_HAL_Driver/Inc/stm32n6xx_ll_bus.h ****   /* Delay after an RCC peripheral clock enabling */
1014:STM32Cube_FW_N6/Drivers/STM32N6xx_HAL_Driver/Inc/stm32n6xx_ll_bus.h ****   tmpreg = READ_REG(RCC->AHB2ENR);
1015:STM32Cube_FW_N6/Drivers/STM32N6xx_HAL_Driver/Inc/stm32n6xx_ll_bus.h ****   (void)tmpreg;
1016:STM32Cube_FW_N6/Drivers/STM32N6xx_HAL_Driver/Inc/stm32n6xx_ll_bus.h **** }
1017:STM32Cube_FW_N6/Drivers/STM32N6xx_HAL_Driver/Inc/stm32n6xx_ll_bus.h **** 
1018:STM32Cube_FW_N6/Drivers/STM32N6xx_HAL_Driver/Inc/stm32n6xx_ll_bus.h **** /**
1019:STM32Cube_FW_N6/Drivers/STM32N6xx_HAL_Driver/Inc/stm32n6xx_ll_bus.h ****   * @brief  Check if AHB2 peripheral clock is enabled or not
1020:STM32Cube_FW_N6/Drivers/STM32N6xx_HAL_Driver/Inc/stm32n6xx_ll_bus.h ****   * @rmtoll AHB2ENR      RAMCFGEN      LL_AHB2_GRP1_IsEnabledClock\n
1021:STM32Cube_FW_N6/Drivers/STM32N6xx_HAL_Driver/Inc/stm32n6xx_ll_bus.h ****   *         AHB2ENR      MDF1EN        LL_AHB2_GRP1_IsEnabledClock\n
1022:STM32Cube_FW_N6/Drivers/STM32N6xx_HAL_Driver/Inc/stm32n6xx_ll_bus.h ****   *         AHB2ENR      ADF1EN        LL_AHB2_GRP1_IsEnabledClock
1023:STM32Cube_FW_N6/Drivers/STM32N6xx_HAL_Driver/Inc/stm32n6xx_ll_bus.h ****   * @param  Periphs This parameter can be a combination of the following values:
1024:STM32Cube_FW_N6/Drivers/STM32N6xx_HAL_Driver/Inc/stm32n6xx_ll_bus.h ****   *         @arg @ref LL_AHB2_GRP1_PERIPH_RAMCFG
1025:STM32Cube_FW_N6/Drivers/STM32N6xx_HAL_Driver/Inc/stm32n6xx_ll_bus.h ****   *         @arg @ref LL_AHB2_GRP1_PERIPH_MDF1
1026:STM32Cube_FW_N6/Drivers/STM32N6xx_HAL_Driver/Inc/stm32n6xx_ll_bus.h ****   *         @arg @ref LL_AHB2_GRP1_PERIPH_ADF1
1027:STM32Cube_FW_N6/Drivers/STM32N6xx_HAL_Driver/Inc/stm32n6xx_ll_bus.h ****   * @retval uint32_t
1028:STM32Cube_FW_N6/Drivers/STM32N6xx_HAL_Driver/Inc/stm32n6xx_ll_bus.h ****   */
ARM GAS  C:\Users\DJESSOU\AppData\Local\Temp\ccIfw9Ia.s 			page 41


1029:STM32Cube_FW_N6/Drivers/STM32N6xx_HAL_Driver/Inc/stm32n6xx_ll_bus.h **** __STATIC_INLINE uint32_t LL_AHB2_GRP1_IsEnabledClock(uint32_t Periphs)
1030:STM32Cube_FW_N6/Drivers/STM32N6xx_HAL_Driver/Inc/stm32n6xx_ll_bus.h **** {
1031:STM32Cube_FW_N6/Drivers/STM32N6xx_HAL_Driver/Inc/stm32n6xx_ll_bus.h ****   return ((READ_BIT(RCC->AHB2ENR, Periphs) == Periphs) ? 1UL : 0UL);
1032:STM32Cube_FW_N6/Drivers/STM32N6xx_HAL_Driver/Inc/stm32n6xx_ll_bus.h **** }
1033:STM32Cube_FW_N6/Drivers/STM32N6xx_HAL_Driver/Inc/stm32n6xx_ll_bus.h **** 
1034:STM32Cube_FW_N6/Drivers/STM32N6xx_HAL_Driver/Inc/stm32n6xx_ll_bus.h **** /**
1035:STM32Cube_FW_N6/Drivers/STM32N6xx_HAL_Driver/Inc/stm32n6xx_ll_bus.h ****   * @brief  Disable AHB2 peripherals clock.
1036:STM32Cube_FW_N6/Drivers/STM32N6xx_HAL_Driver/Inc/stm32n6xx_ll_bus.h ****   * @rmtoll AHB2ENCR     RAMCFGENC     LL_AHB2_GRP1_DisableClock\n
1037:STM32Cube_FW_N6/Drivers/STM32N6xx_HAL_Driver/Inc/stm32n6xx_ll_bus.h ****   *         AHB2ENCR     MDF1ENC       LL_AHB2_GRP1_DisableClock\n
1038:STM32Cube_FW_N6/Drivers/STM32N6xx_HAL_Driver/Inc/stm32n6xx_ll_bus.h ****   *         AHB2ENCR     ADF1ENC       LL_AHB2_GRP1_DisableClock
1039:STM32Cube_FW_N6/Drivers/STM32N6xx_HAL_Driver/Inc/stm32n6xx_ll_bus.h ****   * @param  Periphs This parameter can be a combination of the following values:
1040:STM32Cube_FW_N6/Drivers/STM32N6xx_HAL_Driver/Inc/stm32n6xx_ll_bus.h ****   *         @arg @ref LL_AHB2_GRP1_PERIPH_RAMCFG
1041:STM32Cube_FW_N6/Drivers/STM32N6xx_HAL_Driver/Inc/stm32n6xx_ll_bus.h ****   *         @arg @ref LL_AHB2_GRP1_PERIPH_MDF1
1042:STM32Cube_FW_N6/Drivers/STM32N6xx_HAL_Driver/Inc/stm32n6xx_ll_bus.h ****   *         @arg @ref LL_AHB2_GRP1_PERIPH_ADF1
1043:STM32Cube_FW_N6/Drivers/STM32N6xx_HAL_Driver/Inc/stm32n6xx_ll_bus.h ****   * @retval None
1044:STM32Cube_FW_N6/Drivers/STM32N6xx_HAL_Driver/Inc/stm32n6xx_ll_bus.h ****   */
1045:STM32Cube_FW_N6/Drivers/STM32N6xx_HAL_Driver/Inc/stm32n6xx_ll_bus.h **** __STATIC_INLINE void LL_AHB2_GRP1_DisableClock(uint32_t Periphs)
1046:STM32Cube_FW_N6/Drivers/STM32N6xx_HAL_Driver/Inc/stm32n6xx_ll_bus.h **** {
1047:STM32Cube_FW_N6/Drivers/STM32N6xx_HAL_Driver/Inc/stm32n6xx_ll_bus.h ****   WRITE_REG(RCC->AHB2ENCR, Periphs);
1048:STM32Cube_FW_N6/Drivers/STM32N6xx_HAL_Driver/Inc/stm32n6xx_ll_bus.h **** }
1049:STM32Cube_FW_N6/Drivers/STM32N6xx_HAL_Driver/Inc/stm32n6xx_ll_bus.h **** 
1050:STM32Cube_FW_N6/Drivers/STM32N6xx_HAL_Driver/Inc/stm32n6xx_ll_bus.h **** /**
1051:STM32Cube_FW_N6/Drivers/STM32N6xx_HAL_Driver/Inc/stm32n6xx_ll_bus.h ****   * @brief  Force AHB2 peripherals reset.
1052:STM32Cube_FW_N6/Drivers/STM32N6xx_HAL_Driver/Inc/stm32n6xx_ll_bus.h ****   * @rmtoll AHB2RSTSR    RAMCFGRSTS     LL_AHB2_GRP1_ForceReset\n
1053:STM32Cube_FW_N6/Drivers/STM32N6xx_HAL_Driver/Inc/stm32n6xx_ll_bus.h ****   *         AHB2RSTSR    MDF1RSTS       LL_AHB2_GRP1_ForceReset\n
1054:STM32Cube_FW_N6/Drivers/STM32N6xx_HAL_Driver/Inc/stm32n6xx_ll_bus.h ****   *         AHB2RSTSR    ADF1RSTS       LL_AHB2_GRP1_ForceReset
1055:STM32Cube_FW_N6/Drivers/STM32N6xx_HAL_Driver/Inc/stm32n6xx_ll_bus.h ****   * @param  Periphs This parameter can be a combination of the following values:
1056:STM32Cube_FW_N6/Drivers/STM32N6xx_HAL_Driver/Inc/stm32n6xx_ll_bus.h ****   *         @arg @ref LL_AHB2_GRP1_PERIPH_RAMCFG
1057:STM32Cube_FW_N6/Drivers/STM32N6xx_HAL_Driver/Inc/stm32n6xx_ll_bus.h ****   *         @arg @ref LL_AHB2_GRP1_PERIPH_MDF1
1058:STM32Cube_FW_N6/Drivers/STM32N6xx_HAL_Driver/Inc/stm32n6xx_ll_bus.h ****   *         @arg @ref LL_AHB2_GRP1_PERIPH_ADF1
1059:STM32Cube_FW_N6/Drivers/STM32N6xx_HAL_Driver/Inc/stm32n6xx_ll_bus.h ****   * @retval None
1060:STM32Cube_FW_N6/Drivers/STM32N6xx_HAL_Driver/Inc/stm32n6xx_ll_bus.h ****   */
1061:STM32Cube_FW_N6/Drivers/STM32N6xx_HAL_Driver/Inc/stm32n6xx_ll_bus.h **** __STATIC_INLINE void LL_AHB2_GRP1_ForceReset(uint32_t Periphs)
1062:STM32Cube_FW_N6/Drivers/STM32N6xx_HAL_Driver/Inc/stm32n6xx_ll_bus.h **** {
1063:STM32Cube_FW_N6/Drivers/STM32N6xx_HAL_Driver/Inc/stm32n6xx_ll_bus.h ****   WRITE_REG(RCC->AHB2RSTSR, Periphs);
1064:STM32Cube_FW_N6/Drivers/STM32N6xx_HAL_Driver/Inc/stm32n6xx_ll_bus.h **** }
1065:STM32Cube_FW_N6/Drivers/STM32N6xx_HAL_Driver/Inc/stm32n6xx_ll_bus.h **** 
1066:STM32Cube_FW_N6/Drivers/STM32N6xx_HAL_Driver/Inc/stm32n6xx_ll_bus.h **** /**
1067:STM32Cube_FW_N6/Drivers/STM32N6xx_HAL_Driver/Inc/stm32n6xx_ll_bus.h ****   * @brief  Release AHB2 peripherals reset.
1068:STM32Cube_FW_N6/Drivers/STM32N6xx_HAL_Driver/Inc/stm32n6xx_ll_bus.h ****   * @rmtoll AHB2RSTCR     RAMCFGRSTC    LL_AHB2_GRP1_ReleaseReset\n
1069:STM32Cube_FW_N6/Drivers/STM32N6xx_HAL_Driver/Inc/stm32n6xx_ll_bus.h ****   *         AHB2RSTCR     MDF1RSTC      LL_AHB2_GRP1_ReleaseReset\n
1070:STM32Cube_FW_N6/Drivers/STM32N6xx_HAL_Driver/Inc/stm32n6xx_ll_bus.h ****   *         AHB2RSTCR     ADF1RSTC      LL_AHB2_GRP1_ReleaseReset
1071:STM32Cube_FW_N6/Drivers/STM32N6xx_HAL_Driver/Inc/stm32n6xx_ll_bus.h ****   * @param  Periphs This parameter can be a combination of the following values:
1072:STM32Cube_FW_N6/Drivers/STM32N6xx_HAL_Driver/Inc/stm32n6xx_ll_bus.h ****   *         @arg @ref LL_AHB2_GRP1_PERIPH_RAMCFG
1073:STM32Cube_FW_N6/Drivers/STM32N6xx_HAL_Driver/Inc/stm32n6xx_ll_bus.h ****   *         @arg @ref LL_AHB2_GRP1_PERIPH_MDF1
1074:STM32Cube_FW_N6/Drivers/STM32N6xx_HAL_Driver/Inc/stm32n6xx_ll_bus.h ****   *         @arg @ref LL_AHB2_GRP1_PERIPH_ADF1
1075:STM32Cube_FW_N6/Drivers/STM32N6xx_HAL_Driver/Inc/stm32n6xx_ll_bus.h ****   * @retval None
1076:STM32Cube_FW_N6/Drivers/STM32N6xx_HAL_Driver/Inc/stm32n6xx_ll_bus.h ****   */
1077:STM32Cube_FW_N6/Drivers/STM32N6xx_HAL_Driver/Inc/stm32n6xx_ll_bus.h **** __STATIC_INLINE void LL_AHB2_GRP1_ReleaseReset(uint32_t Periphs)
1078:STM32Cube_FW_N6/Drivers/STM32N6xx_HAL_Driver/Inc/stm32n6xx_ll_bus.h **** {
1079:STM32Cube_FW_N6/Drivers/STM32N6xx_HAL_Driver/Inc/stm32n6xx_ll_bus.h ****   WRITE_REG(RCC->AHB2RSTCR, Periphs);
1080:STM32Cube_FW_N6/Drivers/STM32N6xx_HAL_Driver/Inc/stm32n6xx_ll_bus.h **** }
1081:STM32Cube_FW_N6/Drivers/STM32N6xx_HAL_Driver/Inc/stm32n6xx_ll_bus.h **** 
1082:STM32Cube_FW_N6/Drivers/STM32N6xx_HAL_Driver/Inc/stm32n6xx_ll_bus.h **** /**
1083:STM32Cube_FW_N6/Drivers/STM32N6xx_HAL_Driver/Inc/stm32n6xx_ll_bus.h ****   * @brief  Enable AHB2 peripherals clock during Low Power mode.
1084:STM32Cube_FW_N6/Drivers/STM32N6xx_HAL_Driver/Inc/stm32n6xx_ll_bus.h ****   * @rmtoll AHB2LPENSR   RAMCFGLPENC   LL_AHB2_GRP1_EnableClockLowPower\n
1085:STM32Cube_FW_N6/Drivers/STM32N6xx_HAL_Driver/Inc/stm32n6xx_ll_bus.h ****   *         AHB2LPENSR   MDF1LPENC     LL_AHB2_GRP1_EnableClockLowPower\n
ARM GAS  C:\Users\DJESSOU\AppData\Local\Temp\ccIfw9Ia.s 			page 42


1086:STM32Cube_FW_N6/Drivers/STM32N6xx_HAL_Driver/Inc/stm32n6xx_ll_bus.h ****   *         AHB2LPENSR   ADF1LPENC     LL_AHB2_GRP1_EnableClockLowPower
1087:STM32Cube_FW_N6/Drivers/STM32N6xx_HAL_Driver/Inc/stm32n6xx_ll_bus.h ****   * @param  Periphs This parameter can be a combination of the following values:
1088:STM32Cube_FW_N6/Drivers/STM32N6xx_HAL_Driver/Inc/stm32n6xx_ll_bus.h ****   *         @arg @ref LL_AHB2_GRP1_PERIPH_RAMCFG
1089:STM32Cube_FW_N6/Drivers/STM32N6xx_HAL_Driver/Inc/stm32n6xx_ll_bus.h ****   *         @arg @ref LL_AHB2_GRP1_PERIPH_MDF1
1090:STM32Cube_FW_N6/Drivers/STM32N6xx_HAL_Driver/Inc/stm32n6xx_ll_bus.h ****   *         @arg @ref LL_AHB2_GRP1_PERIPH_ADF1
1091:STM32Cube_FW_N6/Drivers/STM32N6xx_HAL_Driver/Inc/stm32n6xx_ll_bus.h ****   * @retval None
1092:STM32Cube_FW_N6/Drivers/STM32N6xx_HAL_Driver/Inc/stm32n6xx_ll_bus.h ****   */
1093:STM32Cube_FW_N6/Drivers/STM32N6xx_HAL_Driver/Inc/stm32n6xx_ll_bus.h **** __STATIC_INLINE void LL_AHB2_GRP1_EnableClockLowPower(uint32_t Periphs)
1094:STM32Cube_FW_N6/Drivers/STM32N6xx_HAL_Driver/Inc/stm32n6xx_ll_bus.h **** {
1095:STM32Cube_FW_N6/Drivers/STM32N6xx_HAL_Driver/Inc/stm32n6xx_ll_bus.h ****   __IO uint32_t tmpreg;
1096:STM32Cube_FW_N6/Drivers/STM32N6xx_HAL_Driver/Inc/stm32n6xx_ll_bus.h ****   WRITE_REG(RCC->AHB2LPENSR, Periphs);
1097:STM32Cube_FW_N6/Drivers/STM32N6xx_HAL_Driver/Inc/stm32n6xx_ll_bus.h ****   /* Delay after an RCC peripheral clock enabling */
1098:STM32Cube_FW_N6/Drivers/STM32N6xx_HAL_Driver/Inc/stm32n6xx_ll_bus.h ****   tmpreg = READ_REG(RCC->AHB2LPENR);
1099:STM32Cube_FW_N6/Drivers/STM32N6xx_HAL_Driver/Inc/stm32n6xx_ll_bus.h ****   (void)tmpreg;
1100:STM32Cube_FW_N6/Drivers/STM32N6xx_HAL_Driver/Inc/stm32n6xx_ll_bus.h **** }
1101:STM32Cube_FW_N6/Drivers/STM32N6xx_HAL_Driver/Inc/stm32n6xx_ll_bus.h **** 
1102:STM32Cube_FW_N6/Drivers/STM32N6xx_HAL_Driver/Inc/stm32n6xx_ll_bus.h **** /**
1103:STM32Cube_FW_N6/Drivers/STM32N6xx_HAL_Driver/Inc/stm32n6xx_ll_bus.h ****   * @brief  Check if AHB2 peripheral clock during Low Power mode is enabled or not .
1104:STM32Cube_FW_N6/Drivers/STM32N6xx_HAL_Driver/Inc/stm32n6xx_ll_bus.h ****   * @rmtoll AHB2LPENR    RAMCFGLPEN    LL_AHB2_GRP1_IsEnabledClockLowPower\n
1105:STM32Cube_FW_N6/Drivers/STM32N6xx_HAL_Driver/Inc/stm32n6xx_ll_bus.h ****   *         AHB2LPENR    MDF1LPEN      LL_AHB2_GRP1_IsEnabledClockLowPower\n
1106:STM32Cube_FW_N6/Drivers/STM32N6xx_HAL_Driver/Inc/stm32n6xx_ll_bus.h ****   *         AHB2LPENR    ADF1LPEN      LL_AHB2_GRP1_IsEnabledClockLowPower
1107:STM32Cube_FW_N6/Drivers/STM32N6xx_HAL_Driver/Inc/stm32n6xx_ll_bus.h ****   * @param  Periphs This parameter can be a combination of the following values:
1108:STM32Cube_FW_N6/Drivers/STM32N6xx_HAL_Driver/Inc/stm32n6xx_ll_bus.h ****   *         @arg @ref LL_AHB2_GRP1_PERIPH_RAMCFG
1109:STM32Cube_FW_N6/Drivers/STM32N6xx_HAL_Driver/Inc/stm32n6xx_ll_bus.h ****   *         @arg @ref LL_AHB2_GRP1_PERIPH_MDF1
1110:STM32Cube_FW_N6/Drivers/STM32N6xx_HAL_Driver/Inc/stm32n6xx_ll_bus.h ****   *         @arg @ref LL_AHB2_GRP1_PERIPH_ADF1
1111:STM32Cube_FW_N6/Drivers/STM32N6xx_HAL_Driver/Inc/stm32n6xx_ll_bus.h ****   * @retval uint32_t
1112:STM32Cube_FW_N6/Drivers/STM32N6xx_HAL_Driver/Inc/stm32n6xx_ll_bus.h ****   */
1113:STM32Cube_FW_N6/Drivers/STM32N6xx_HAL_Driver/Inc/stm32n6xx_ll_bus.h **** __STATIC_INLINE uint32_t LL_AHB2_GRP1_IsEnabledClockLowPower(uint32_t Periphs)
1114:STM32Cube_FW_N6/Drivers/STM32N6xx_HAL_Driver/Inc/stm32n6xx_ll_bus.h **** {
1115:STM32Cube_FW_N6/Drivers/STM32N6xx_HAL_Driver/Inc/stm32n6xx_ll_bus.h ****   return ((READ_BIT(RCC->AHB2LPENR, Periphs) == Periphs) ? 1UL : 0UL);
1116:STM32Cube_FW_N6/Drivers/STM32N6xx_HAL_Driver/Inc/stm32n6xx_ll_bus.h **** }
1117:STM32Cube_FW_N6/Drivers/STM32N6xx_HAL_Driver/Inc/stm32n6xx_ll_bus.h **** 
1118:STM32Cube_FW_N6/Drivers/STM32N6xx_HAL_Driver/Inc/stm32n6xx_ll_bus.h **** /**
1119:STM32Cube_FW_N6/Drivers/STM32N6xx_HAL_Driver/Inc/stm32n6xx_ll_bus.h ****   * @brief  Disable AHB2 peripherals clock during Low Power mode.
1120:STM32Cube_FW_N6/Drivers/STM32N6xx_HAL_Driver/Inc/stm32n6xx_ll_bus.h ****   * @rmtoll AHB2LPENCR   RAMCFGLPENC   LL_AHB2_GRP1_DisableClockLowPower\n
1121:STM32Cube_FW_N6/Drivers/STM32N6xx_HAL_Driver/Inc/stm32n6xx_ll_bus.h ****   *         AHB2LPENCR   MDF1LPENC     LL_AHB2_GRP1_DisableClockLowPower\n
1122:STM32Cube_FW_N6/Drivers/STM32N6xx_HAL_Driver/Inc/stm32n6xx_ll_bus.h ****   *         AHB2LPENCR   ADF1LPENC     LL_AHB2_GRP1_DisableClockLowPower
1123:STM32Cube_FW_N6/Drivers/STM32N6xx_HAL_Driver/Inc/stm32n6xx_ll_bus.h ****   * @param  Periphs This parameter can be a combination of the following values:
1124:STM32Cube_FW_N6/Drivers/STM32N6xx_HAL_Driver/Inc/stm32n6xx_ll_bus.h ****   *         @arg @ref LL_AHB2_GRP1_PERIPH_RAMCFG
1125:STM32Cube_FW_N6/Drivers/STM32N6xx_HAL_Driver/Inc/stm32n6xx_ll_bus.h ****   *         @arg @ref LL_AHB2_GRP1_PERIPH_MDF1
1126:STM32Cube_FW_N6/Drivers/STM32N6xx_HAL_Driver/Inc/stm32n6xx_ll_bus.h ****   *         @arg @ref LL_AHB2_GRP1_PERIPH_ADF1
1127:STM32Cube_FW_N6/Drivers/STM32N6xx_HAL_Driver/Inc/stm32n6xx_ll_bus.h ****   * @retval None
1128:STM32Cube_FW_N6/Drivers/STM32N6xx_HAL_Driver/Inc/stm32n6xx_ll_bus.h ****   */
1129:STM32Cube_FW_N6/Drivers/STM32N6xx_HAL_Driver/Inc/stm32n6xx_ll_bus.h **** __STATIC_INLINE void LL_AHB2_GRP1_DisableClockLowPower(uint32_t Periphs)
1130:STM32Cube_FW_N6/Drivers/STM32N6xx_HAL_Driver/Inc/stm32n6xx_ll_bus.h **** {
1131:STM32Cube_FW_N6/Drivers/STM32N6xx_HAL_Driver/Inc/stm32n6xx_ll_bus.h ****   WRITE_REG(RCC->AHB2LPENCR, Periphs);
1132:STM32Cube_FW_N6/Drivers/STM32N6xx_HAL_Driver/Inc/stm32n6xx_ll_bus.h **** }
1133:STM32Cube_FW_N6/Drivers/STM32N6xx_HAL_Driver/Inc/stm32n6xx_ll_bus.h **** 
1134:STM32Cube_FW_N6/Drivers/STM32N6xx_HAL_Driver/Inc/stm32n6xx_ll_bus.h **** /**
1135:STM32Cube_FW_N6/Drivers/STM32N6xx_HAL_Driver/Inc/stm32n6xx_ll_bus.h ****   * @}
1136:STM32Cube_FW_N6/Drivers/STM32N6xx_HAL_Driver/Inc/stm32n6xx_ll_bus.h ****   */
1137:STM32Cube_FW_N6/Drivers/STM32N6xx_HAL_Driver/Inc/stm32n6xx_ll_bus.h **** 
1138:STM32Cube_FW_N6/Drivers/STM32N6xx_HAL_Driver/Inc/stm32n6xx_ll_bus.h **** /** @defgroup BUS_LL_EF_AHB3 AHB3
1139:STM32Cube_FW_N6/Drivers/STM32N6xx_HAL_Driver/Inc/stm32n6xx_ll_bus.h ****   * @{
1140:STM32Cube_FW_N6/Drivers/STM32N6xx_HAL_Driver/Inc/stm32n6xx_ll_bus.h ****   */
1141:STM32Cube_FW_N6/Drivers/STM32N6xx_HAL_Driver/Inc/stm32n6xx_ll_bus.h **** 
1142:STM32Cube_FW_N6/Drivers/STM32N6xx_HAL_Driver/Inc/stm32n6xx_ll_bus.h **** /**
ARM GAS  C:\Users\DJESSOU\AppData\Local\Temp\ccIfw9Ia.s 			page 43


1143:STM32Cube_FW_N6/Drivers/STM32N6xx_HAL_Driver/Inc/stm32n6xx_ll_bus.h ****   * @brief  Enable AHB3 peripherals clock.
1144:STM32Cube_FW_N6/Drivers/STM32N6xx_HAL_Driver/Inc/stm32n6xx_ll_bus.h ****   * @rmtoll AHB3ENSR     RNGENS        LL_AHB3_GRP1_EnableClock\n
1145:STM32Cube_FW_N6/Drivers/STM32N6xx_HAL_Driver/Inc/stm32n6xx_ll_bus.h ****   *         AHB3ENSR     HASHENS       LL_AHB3_GRP1_EnableClock\n
1146:STM32Cube_FW_N6/Drivers/STM32N6xx_HAL_Driver/Inc/stm32n6xx_ll_bus.h ****   *         AHB3ENSR     CRYPENS       LL_AHB3_GRP1_EnableClock\n  (*)
1147:STM32Cube_FW_N6/Drivers/STM32N6xx_HAL_Driver/Inc/stm32n6xx_ll_bus.h ****   *         AHB3ENSR     SAESENS       LL_AHB3_GRP1_EnableClock\n  (*)
1148:STM32Cube_FW_N6/Drivers/STM32N6xx_HAL_Driver/Inc/stm32n6xx_ll_bus.h ****   *         AHB3ENSR     PKAENS        LL_AHB3_GRP1_EnableClock\n
1149:STM32Cube_FW_N6/Drivers/STM32N6xx_HAL_Driver/Inc/stm32n6xx_ll_bus.h ****   *         AHB3ENSR     RIFSCENS      LL_AHB3_GRP1_EnableClock\n
1150:STM32Cube_FW_N6/Drivers/STM32N6xx_HAL_Driver/Inc/stm32n6xx_ll_bus.h ****   *         AHB3ENSR     RISAFENS      LL_AHB3_GRP1_EnableClock\n
1151:STM32Cube_FW_N6/Drivers/STM32N6xx_HAL_Driver/Inc/stm32n6xx_ll_bus.h ****   *         AHB3ENSR     IACENS        LL_AHB3_GRP1_EnableClock
1152:STM32Cube_FW_N6/Drivers/STM32N6xx_HAL_Driver/Inc/stm32n6xx_ll_bus.h ****   * @param  Periphs This parameter can be a combination of the following values:
1153:STM32Cube_FW_N6/Drivers/STM32N6xx_HAL_Driver/Inc/stm32n6xx_ll_bus.h ****   *         @arg @ref LL_AHB3_GRP1_PERIPH_RNG
1154:STM32Cube_FW_N6/Drivers/STM32N6xx_HAL_Driver/Inc/stm32n6xx_ll_bus.h ****   *         @arg @ref LL_AHB3_GRP1_PERIPH_HASH
1155:STM32Cube_FW_N6/Drivers/STM32N6xx_HAL_Driver/Inc/stm32n6xx_ll_bus.h ****   *         @arg @ref LL_AHB3_GRP1_PERIPH_CRYP (*)
1156:STM32Cube_FW_N6/Drivers/STM32N6xx_HAL_Driver/Inc/stm32n6xx_ll_bus.h ****   *         @arg @ref LL_AHB3_GRP1_PERIPH_SAES (*)
1157:STM32Cube_FW_N6/Drivers/STM32N6xx_HAL_Driver/Inc/stm32n6xx_ll_bus.h ****   *         @arg @ref LL_AHB3_GRP1_PERIPH_PKA
1158:STM32Cube_FW_N6/Drivers/STM32N6xx_HAL_Driver/Inc/stm32n6xx_ll_bus.h ****   *         @arg @ref LL_AHB3_GRP1_PERIPH_RIFSC
1159:STM32Cube_FW_N6/Drivers/STM32N6xx_HAL_Driver/Inc/stm32n6xx_ll_bus.h ****   *         @arg @ref LL_AHB3_GRP1_PERIPH_RISAF
1160:STM32Cube_FW_N6/Drivers/STM32N6xx_HAL_Driver/Inc/stm32n6xx_ll_bus.h ****   *         @arg @ref LL_AHB3_GRP1_PERIPH_IAC
1161:STM32Cube_FW_N6/Drivers/STM32N6xx_HAL_Driver/Inc/stm32n6xx_ll_bus.h ****   *
1162:STM32Cube_FW_N6/Drivers/STM32N6xx_HAL_Driver/Inc/stm32n6xx_ll_bus.h ****   *         (*) value not defined in all devices.
1163:STM32Cube_FW_N6/Drivers/STM32N6xx_HAL_Driver/Inc/stm32n6xx_ll_bus.h ****   * @retval None
1164:STM32Cube_FW_N6/Drivers/STM32N6xx_HAL_Driver/Inc/stm32n6xx_ll_bus.h ****   */
1165:STM32Cube_FW_N6/Drivers/STM32N6xx_HAL_Driver/Inc/stm32n6xx_ll_bus.h **** __STATIC_INLINE void LL_AHB3_GRP1_EnableClock(uint32_t Periphs)
1166:STM32Cube_FW_N6/Drivers/STM32N6xx_HAL_Driver/Inc/stm32n6xx_ll_bus.h **** {
1167:STM32Cube_FW_N6/Drivers/STM32N6xx_HAL_Driver/Inc/stm32n6xx_ll_bus.h ****   __IO uint32_t tmpreg;
1168:STM32Cube_FW_N6/Drivers/STM32N6xx_HAL_Driver/Inc/stm32n6xx_ll_bus.h ****   WRITE_REG(RCC->AHB3ENSR, Periphs);
1169:STM32Cube_FW_N6/Drivers/STM32N6xx_HAL_Driver/Inc/stm32n6xx_ll_bus.h ****   /* Delay after an RCC peripheral clock enabling */
1170:STM32Cube_FW_N6/Drivers/STM32N6xx_HAL_Driver/Inc/stm32n6xx_ll_bus.h ****   tmpreg = READ_REG(RCC->AHB3ENR);
1171:STM32Cube_FW_N6/Drivers/STM32N6xx_HAL_Driver/Inc/stm32n6xx_ll_bus.h ****   (void)tmpreg;
1172:STM32Cube_FW_N6/Drivers/STM32N6xx_HAL_Driver/Inc/stm32n6xx_ll_bus.h **** }
1173:STM32Cube_FW_N6/Drivers/STM32N6xx_HAL_Driver/Inc/stm32n6xx_ll_bus.h **** 
1174:STM32Cube_FW_N6/Drivers/STM32N6xx_HAL_Driver/Inc/stm32n6xx_ll_bus.h **** /**
1175:STM32Cube_FW_N6/Drivers/STM32N6xx_HAL_Driver/Inc/stm32n6xx_ll_bus.h ****   * @brief  Check if AHB3 peripheral clock is enabled or not
1176:STM32Cube_FW_N6/Drivers/STM32N6xx_HAL_Driver/Inc/stm32n6xx_ll_bus.h ****   * @rmtoll AHB3ENR      RNGEN         LL_AHB3_GRP1_IsEnabledClock\n
1177:STM32Cube_FW_N6/Drivers/STM32N6xx_HAL_Driver/Inc/stm32n6xx_ll_bus.h ****   *         AHB3ENR      HASHEN        LL_AHB3_GRP1_IsEnabledClock\n
1178:STM32Cube_FW_N6/Drivers/STM32N6xx_HAL_Driver/Inc/stm32n6xx_ll_bus.h ****   *         AHB3ENR      CRYPEN        LL_AHB3_GRP1_IsEnabledClock\n  (*)
1179:STM32Cube_FW_N6/Drivers/STM32N6xx_HAL_Driver/Inc/stm32n6xx_ll_bus.h ****   *         AHB3ENR      SAESEN        LL_AHB3_GRP1_IsEnabledClock\n  (*)
1180:STM32Cube_FW_N6/Drivers/STM32N6xx_HAL_Driver/Inc/stm32n6xx_ll_bus.h ****   *         AHB3ENR      PKAEN         LL_AHB3_GRP1_IsEnabledClock\n
1181:STM32Cube_FW_N6/Drivers/STM32N6xx_HAL_Driver/Inc/stm32n6xx_ll_bus.h ****   *         AHB3ENR      RIFSCEN       LL_AHB3_GRP1_IsEnabledClock\n
1182:STM32Cube_FW_N6/Drivers/STM32N6xx_HAL_Driver/Inc/stm32n6xx_ll_bus.h ****   *         AHB3ENR      RISAFEN       LL_AHB3_GRP1_IsEnabledClock\n
1183:STM32Cube_FW_N6/Drivers/STM32N6xx_HAL_Driver/Inc/stm32n6xx_ll_bus.h ****   *         AHB3ENR      IACEN         LL_AHB3_GRP1_IsEnabledClock
1184:STM32Cube_FW_N6/Drivers/STM32N6xx_HAL_Driver/Inc/stm32n6xx_ll_bus.h ****   * @param  Periphs This parameter can be a combination of the following values:
1185:STM32Cube_FW_N6/Drivers/STM32N6xx_HAL_Driver/Inc/stm32n6xx_ll_bus.h ****   *         @arg @ref LL_AHB3_GRP1_PERIPH_RNG
1186:STM32Cube_FW_N6/Drivers/STM32N6xx_HAL_Driver/Inc/stm32n6xx_ll_bus.h ****   *         @arg @ref LL_AHB3_GRP1_PERIPH_HASH
1187:STM32Cube_FW_N6/Drivers/STM32N6xx_HAL_Driver/Inc/stm32n6xx_ll_bus.h ****   *         @arg @ref LL_AHB3_GRP1_PERIPH_CRYP (*)
1188:STM32Cube_FW_N6/Drivers/STM32N6xx_HAL_Driver/Inc/stm32n6xx_ll_bus.h ****   *         @arg @ref LL_AHB3_GRP1_PERIPH_SAES (*)
1189:STM32Cube_FW_N6/Drivers/STM32N6xx_HAL_Driver/Inc/stm32n6xx_ll_bus.h ****   *         @arg @ref LL_AHB3_GRP1_PERIPH_PKA
1190:STM32Cube_FW_N6/Drivers/STM32N6xx_HAL_Driver/Inc/stm32n6xx_ll_bus.h ****   *         @arg @ref LL_AHB3_GRP1_PERIPH_RIFSC
1191:STM32Cube_FW_N6/Drivers/STM32N6xx_HAL_Driver/Inc/stm32n6xx_ll_bus.h ****   *         @arg @ref LL_AHB3_GRP1_PERIPH_RISAF
1192:STM32Cube_FW_N6/Drivers/STM32N6xx_HAL_Driver/Inc/stm32n6xx_ll_bus.h ****   *         @arg @ref LL_AHB3_GRP1_PERIPH_IAC
1193:STM32Cube_FW_N6/Drivers/STM32N6xx_HAL_Driver/Inc/stm32n6xx_ll_bus.h ****   *
1194:STM32Cube_FW_N6/Drivers/STM32N6xx_HAL_Driver/Inc/stm32n6xx_ll_bus.h ****   *         (*) value not defined in all devices.
1195:STM32Cube_FW_N6/Drivers/STM32N6xx_HAL_Driver/Inc/stm32n6xx_ll_bus.h ****   * @retval uint32_t
1196:STM32Cube_FW_N6/Drivers/STM32N6xx_HAL_Driver/Inc/stm32n6xx_ll_bus.h ****   */
1197:STM32Cube_FW_N6/Drivers/STM32N6xx_HAL_Driver/Inc/stm32n6xx_ll_bus.h **** __STATIC_INLINE uint32_t LL_AHB3_GRP1_IsEnabledClock(uint32_t Periphs)
1198:STM32Cube_FW_N6/Drivers/STM32N6xx_HAL_Driver/Inc/stm32n6xx_ll_bus.h **** {
1199:STM32Cube_FW_N6/Drivers/STM32N6xx_HAL_Driver/Inc/stm32n6xx_ll_bus.h ****   return ((READ_BIT(RCC->AHB3ENR, Periphs) == Periphs) ? 1UL : 0UL);
ARM GAS  C:\Users\DJESSOU\AppData\Local\Temp\ccIfw9Ia.s 			page 44


1200:STM32Cube_FW_N6/Drivers/STM32N6xx_HAL_Driver/Inc/stm32n6xx_ll_bus.h **** }
1201:STM32Cube_FW_N6/Drivers/STM32N6xx_HAL_Driver/Inc/stm32n6xx_ll_bus.h **** 
1202:STM32Cube_FW_N6/Drivers/STM32N6xx_HAL_Driver/Inc/stm32n6xx_ll_bus.h **** /**
1203:STM32Cube_FW_N6/Drivers/STM32N6xx_HAL_Driver/Inc/stm32n6xx_ll_bus.h ****   * @brief  Disable AHB3 peripherals clock.
1204:STM32Cube_FW_N6/Drivers/STM32N6xx_HAL_Driver/Inc/stm32n6xx_ll_bus.h ****   * @rmtoll AHB3ENCR     RNGENC        LL_AHB3_GRP1_DisableClock\n
1205:STM32Cube_FW_N6/Drivers/STM32N6xx_HAL_Driver/Inc/stm32n6xx_ll_bus.h ****   *         AHB3ENCR     HASHENC       LL_AHB3_GRP1_DisableClock\n
1206:STM32Cube_FW_N6/Drivers/STM32N6xx_HAL_Driver/Inc/stm32n6xx_ll_bus.h ****   *         AHB3ENCR     CRYPENC       LL_AHB3_GRP1_DisableClock\n  (*)
1207:STM32Cube_FW_N6/Drivers/STM32N6xx_HAL_Driver/Inc/stm32n6xx_ll_bus.h ****   *         AHB3ENCR     SAESENC       LL_AHB3_GRP1_DisableClock\n  (*)
1208:STM32Cube_FW_N6/Drivers/STM32N6xx_HAL_Driver/Inc/stm32n6xx_ll_bus.h ****   *         AHB3ENCR     PKAENC        LL_AHB3_GRP1_DisableClock\n
1209:STM32Cube_FW_N6/Drivers/STM32N6xx_HAL_Driver/Inc/stm32n6xx_ll_bus.h ****   *         AHB3ENCR     RIFSCENC      LL_AHB3_GRP1_DisableClock\n
1210:STM32Cube_FW_N6/Drivers/STM32N6xx_HAL_Driver/Inc/stm32n6xx_ll_bus.h ****   *         AHB3ENCR     RISAFENC      LL_AHB3_GRP1_DisableClock\n
1211:STM32Cube_FW_N6/Drivers/STM32N6xx_HAL_Driver/Inc/stm32n6xx_ll_bus.h ****   *         AHB3ENCR     IACENC        LL_AHB3_GRP1_DisableClock
1212:STM32Cube_FW_N6/Drivers/STM32N6xx_HAL_Driver/Inc/stm32n6xx_ll_bus.h ****   * @param  Periphs This parameter can be a combination of the following values:
1213:STM32Cube_FW_N6/Drivers/STM32N6xx_HAL_Driver/Inc/stm32n6xx_ll_bus.h ****   *         @arg @ref LL_AHB3_GRP1_PERIPH_RNG
1214:STM32Cube_FW_N6/Drivers/STM32N6xx_HAL_Driver/Inc/stm32n6xx_ll_bus.h ****   *         @arg @ref LL_AHB3_GRP1_PERIPH_HASH
1215:STM32Cube_FW_N6/Drivers/STM32N6xx_HAL_Driver/Inc/stm32n6xx_ll_bus.h ****   *         @arg @ref LL_AHB3_GRP1_PERIPH_CRYP (*)
1216:STM32Cube_FW_N6/Drivers/STM32N6xx_HAL_Driver/Inc/stm32n6xx_ll_bus.h ****   *         @arg @ref LL_AHB3_GRP1_PERIPH_SAES (*)
1217:STM32Cube_FW_N6/Drivers/STM32N6xx_HAL_Driver/Inc/stm32n6xx_ll_bus.h ****   *         @arg @ref LL_AHB3_GRP1_PERIPH_PKA
1218:STM32Cube_FW_N6/Drivers/STM32N6xx_HAL_Driver/Inc/stm32n6xx_ll_bus.h ****   *         @arg @ref LL_AHB3_GRP1_PERIPH_RIFSC
1219:STM32Cube_FW_N6/Drivers/STM32N6xx_HAL_Driver/Inc/stm32n6xx_ll_bus.h ****   *         @arg @ref LL_AHB3_GRP1_PERIPH_RISAF
1220:STM32Cube_FW_N6/Drivers/STM32N6xx_HAL_Driver/Inc/stm32n6xx_ll_bus.h ****   *         @arg @ref LL_AHB3_GRP1_PERIPH_IAC
1221:STM32Cube_FW_N6/Drivers/STM32N6xx_HAL_Driver/Inc/stm32n6xx_ll_bus.h ****   *
1222:STM32Cube_FW_N6/Drivers/STM32N6xx_HAL_Driver/Inc/stm32n6xx_ll_bus.h ****   *         (*) value not defined in all devices.
1223:STM32Cube_FW_N6/Drivers/STM32N6xx_HAL_Driver/Inc/stm32n6xx_ll_bus.h ****   * @retval None
1224:STM32Cube_FW_N6/Drivers/STM32N6xx_HAL_Driver/Inc/stm32n6xx_ll_bus.h ****   */
1225:STM32Cube_FW_N6/Drivers/STM32N6xx_HAL_Driver/Inc/stm32n6xx_ll_bus.h **** __STATIC_INLINE void LL_AHB3_GRP1_DisableClock(uint32_t Periphs)
1226:STM32Cube_FW_N6/Drivers/STM32N6xx_HAL_Driver/Inc/stm32n6xx_ll_bus.h **** {
1227:STM32Cube_FW_N6/Drivers/STM32N6xx_HAL_Driver/Inc/stm32n6xx_ll_bus.h ****   WRITE_REG(RCC->AHB3ENCR, Periphs);
1228:STM32Cube_FW_N6/Drivers/STM32N6xx_HAL_Driver/Inc/stm32n6xx_ll_bus.h **** }
1229:STM32Cube_FW_N6/Drivers/STM32N6xx_HAL_Driver/Inc/stm32n6xx_ll_bus.h **** 
1230:STM32Cube_FW_N6/Drivers/STM32N6xx_HAL_Driver/Inc/stm32n6xx_ll_bus.h **** /**
1231:STM32Cube_FW_N6/Drivers/STM32N6xx_HAL_Driver/Inc/stm32n6xx_ll_bus.h ****   * @brief  Force AHB3 peripherals reset.
1232:STM32Cube_FW_N6/Drivers/STM32N6xx_HAL_Driver/Inc/stm32n6xx_ll_bus.h ****   * @rmtoll AHB3RSTSR    RNGRSTS       LL_AHB3_GRP1_ForceReset\n
1233:STM32Cube_FW_N6/Drivers/STM32N6xx_HAL_Driver/Inc/stm32n6xx_ll_bus.h ****   *         AHB3RSTSR    HASHRSTS      LL_AHB3_GRP1_ForceReset\n
1234:STM32Cube_FW_N6/Drivers/STM32N6xx_HAL_Driver/Inc/stm32n6xx_ll_bus.h ****   *         AHB3RSTSR    CRYPRSTS      LL_AHB3_GRP1_ForceReset\n  (*)
1235:STM32Cube_FW_N6/Drivers/STM32N6xx_HAL_Driver/Inc/stm32n6xx_ll_bus.h ****   *         AHB3RSTSR    SAESRSTS      LL_AHB3_GRP1_ForceReset\n  (*)
1236:STM32Cube_FW_N6/Drivers/STM32N6xx_HAL_Driver/Inc/stm32n6xx_ll_bus.h ****   *         AHB3RSTSR    PKARSTS       LL_AHB3_GRP1_ForceReset\n
1237:STM32Cube_FW_N6/Drivers/STM32N6xx_HAL_Driver/Inc/stm32n6xx_ll_bus.h ****   *         AHB3RSTSR    IACRSTS       LL_AHB3_GRP1_ForceReset
1238:STM32Cube_FW_N6/Drivers/STM32N6xx_HAL_Driver/Inc/stm32n6xx_ll_bus.h ****   * @param  Periphs This parameter can be a combination of the following values:
1239:STM32Cube_FW_N6/Drivers/STM32N6xx_HAL_Driver/Inc/stm32n6xx_ll_bus.h ****   *         @arg @ref LL_AHB3_GRP1_PERIPH_RNG
1240:STM32Cube_FW_N6/Drivers/STM32N6xx_HAL_Driver/Inc/stm32n6xx_ll_bus.h ****   *         @arg @ref LL_AHB3_GRP1_PERIPH_HASH
1241:STM32Cube_FW_N6/Drivers/STM32N6xx_HAL_Driver/Inc/stm32n6xx_ll_bus.h ****   *         @arg @ref LL_AHB3_GRP1_PERIPH_CRYP (*)
1242:STM32Cube_FW_N6/Drivers/STM32N6xx_HAL_Driver/Inc/stm32n6xx_ll_bus.h ****   *         @arg @ref LL_AHB3_GRP1_PERIPH_SAES (*)
1243:STM32Cube_FW_N6/Drivers/STM32N6xx_HAL_Driver/Inc/stm32n6xx_ll_bus.h ****   *         @arg @ref LL_AHB3_GRP1_PERIPH_PKA
1244:STM32Cube_FW_N6/Drivers/STM32N6xx_HAL_Driver/Inc/stm32n6xx_ll_bus.h ****   *         @arg @ref LL_AHB3_GRP1_PERIPH_IAC
1245:STM32Cube_FW_N6/Drivers/STM32N6xx_HAL_Driver/Inc/stm32n6xx_ll_bus.h ****   *
1246:STM32Cube_FW_N6/Drivers/STM32N6xx_HAL_Driver/Inc/stm32n6xx_ll_bus.h ****   *         (*) value not defined in all devices.
1247:STM32Cube_FW_N6/Drivers/STM32N6xx_HAL_Driver/Inc/stm32n6xx_ll_bus.h ****   * @retval None
1248:STM32Cube_FW_N6/Drivers/STM32N6xx_HAL_Driver/Inc/stm32n6xx_ll_bus.h ****   */
1249:STM32Cube_FW_N6/Drivers/STM32N6xx_HAL_Driver/Inc/stm32n6xx_ll_bus.h **** __STATIC_INLINE void LL_AHB3_GRP1_ForceReset(uint32_t Periphs)
1250:STM32Cube_FW_N6/Drivers/STM32N6xx_HAL_Driver/Inc/stm32n6xx_ll_bus.h **** {
1251:STM32Cube_FW_N6/Drivers/STM32N6xx_HAL_Driver/Inc/stm32n6xx_ll_bus.h ****   WRITE_REG(RCC->AHB3RSTSR, Periphs);
1252:STM32Cube_FW_N6/Drivers/STM32N6xx_HAL_Driver/Inc/stm32n6xx_ll_bus.h **** }
1253:STM32Cube_FW_N6/Drivers/STM32N6xx_HAL_Driver/Inc/stm32n6xx_ll_bus.h **** 
1254:STM32Cube_FW_N6/Drivers/STM32N6xx_HAL_Driver/Inc/stm32n6xx_ll_bus.h **** /**
1255:STM32Cube_FW_N6/Drivers/STM32N6xx_HAL_Driver/Inc/stm32n6xx_ll_bus.h ****   * @brief  Release AHB3 peripherals reset.
1256:STM32Cube_FW_N6/Drivers/STM32N6xx_HAL_Driver/Inc/stm32n6xx_ll_bus.h ****   * @rmtoll AHB3RSTCR    RNGRSTC       LL_AHB3_GRP1_ReleaseReset\n
ARM GAS  C:\Users\DJESSOU\AppData\Local\Temp\ccIfw9Ia.s 			page 45


1257:STM32Cube_FW_N6/Drivers/STM32N6xx_HAL_Driver/Inc/stm32n6xx_ll_bus.h ****   *         AHB3RSTCR    HASHRSTC      LL_AHB3_GRP1_ReleaseReset\n
1258:STM32Cube_FW_N6/Drivers/STM32N6xx_HAL_Driver/Inc/stm32n6xx_ll_bus.h ****   *         AHB3RSTCR    CRYPRSTC      LL_AHB3_GRP1_ReleaseReset\n  (*)
1259:STM32Cube_FW_N6/Drivers/STM32N6xx_HAL_Driver/Inc/stm32n6xx_ll_bus.h ****   *         AHB3RSTCR    SAESRSTC      LL_AHB3_GRP1_ReleaseReset\n  (*)
1260:STM32Cube_FW_N6/Drivers/STM32N6xx_HAL_Driver/Inc/stm32n6xx_ll_bus.h ****   *         AHB3RSTCR    PKARSTC       LL_AHB3_GRP1_ReleaseReset\n
1261:STM32Cube_FW_N6/Drivers/STM32N6xx_HAL_Driver/Inc/stm32n6xx_ll_bus.h ****   *         AHB3RSTCR    IACRSTC       LL_AHB3_GRP1_ReleaseReset
1262:STM32Cube_FW_N6/Drivers/STM32N6xx_HAL_Driver/Inc/stm32n6xx_ll_bus.h ****   * @param  Periphs This parameter can be a combination of the following values:
1263:STM32Cube_FW_N6/Drivers/STM32N6xx_HAL_Driver/Inc/stm32n6xx_ll_bus.h ****   *         @arg @ref LL_AHB3_GRP1_PERIPH_RNG
1264:STM32Cube_FW_N6/Drivers/STM32N6xx_HAL_Driver/Inc/stm32n6xx_ll_bus.h ****   *         @arg @ref LL_AHB3_GRP1_PERIPH_HASH
1265:STM32Cube_FW_N6/Drivers/STM32N6xx_HAL_Driver/Inc/stm32n6xx_ll_bus.h ****   *         @arg @ref LL_AHB3_GRP1_PERIPH_CRYP (*)
1266:STM32Cube_FW_N6/Drivers/STM32N6xx_HAL_Driver/Inc/stm32n6xx_ll_bus.h ****   *         @arg @ref LL_AHB3_GRP1_PERIPH_SAES (*)
1267:STM32Cube_FW_N6/Drivers/STM32N6xx_HAL_Driver/Inc/stm32n6xx_ll_bus.h ****   *         @arg @ref LL_AHB3_GRP1_PERIPH_PKA
1268:STM32Cube_FW_N6/Drivers/STM32N6xx_HAL_Driver/Inc/stm32n6xx_ll_bus.h ****   *         @arg @ref LL_AHB3_GRP1_PERIPH_IAC
1269:STM32Cube_FW_N6/Drivers/STM32N6xx_HAL_Driver/Inc/stm32n6xx_ll_bus.h ****   *
1270:STM32Cube_FW_N6/Drivers/STM32N6xx_HAL_Driver/Inc/stm32n6xx_ll_bus.h ****   *         (*) value not defined in all devices.
1271:STM32Cube_FW_N6/Drivers/STM32N6xx_HAL_Driver/Inc/stm32n6xx_ll_bus.h ****   * @retval None
1272:STM32Cube_FW_N6/Drivers/STM32N6xx_HAL_Driver/Inc/stm32n6xx_ll_bus.h ****   */
1273:STM32Cube_FW_N6/Drivers/STM32N6xx_HAL_Driver/Inc/stm32n6xx_ll_bus.h **** __STATIC_INLINE void LL_AHB3_GRP1_ReleaseReset(uint32_t Periphs)
1274:STM32Cube_FW_N6/Drivers/STM32N6xx_HAL_Driver/Inc/stm32n6xx_ll_bus.h **** {
1275:STM32Cube_FW_N6/Drivers/STM32N6xx_HAL_Driver/Inc/stm32n6xx_ll_bus.h ****   WRITE_REG(RCC->AHB3RSTCR, Periphs);
1276:STM32Cube_FW_N6/Drivers/STM32N6xx_HAL_Driver/Inc/stm32n6xx_ll_bus.h **** }
1277:STM32Cube_FW_N6/Drivers/STM32N6xx_HAL_Driver/Inc/stm32n6xx_ll_bus.h **** 
1278:STM32Cube_FW_N6/Drivers/STM32N6xx_HAL_Driver/Inc/stm32n6xx_ll_bus.h **** /**
1279:STM32Cube_FW_N6/Drivers/STM32N6xx_HAL_Driver/Inc/stm32n6xx_ll_bus.h ****   * @brief  Enable AHB3 peripherals clock during Low Power mode.
1280:STM32Cube_FW_N6/Drivers/STM32N6xx_HAL_Driver/Inc/stm32n6xx_ll_bus.h ****   * @rmtoll AHB3LPENSR   RNGLPENS      LL_AHB3_GRP1_EnableClockLowPower\n
1281:STM32Cube_FW_N6/Drivers/STM32N6xx_HAL_Driver/Inc/stm32n6xx_ll_bus.h ****   *         AHB3LPENSR   HASHLPENS     LL_AHB3_GRP1_EnableClockLowPower\n
1282:STM32Cube_FW_N6/Drivers/STM32N6xx_HAL_Driver/Inc/stm32n6xx_ll_bus.h ****   *         AHB3LPENSR   CRYPLPENS     LL_AHB3_GRP1_EnableClockLowPower\n  (*)
1283:STM32Cube_FW_N6/Drivers/STM32N6xx_HAL_Driver/Inc/stm32n6xx_ll_bus.h ****   *         AHB3LPENSR   SAESLPENS     LL_AHB3_GRP1_EnableClockLowPower\n  (*)
1284:STM32Cube_FW_N6/Drivers/STM32N6xx_HAL_Driver/Inc/stm32n6xx_ll_bus.h ****   *         AHB3LPENSR   PKALPENS      LL_AHB3_GRP1_EnableClockLowPower\n
1285:STM32Cube_FW_N6/Drivers/STM32N6xx_HAL_Driver/Inc/stm32n6xx_ll_bus.h ****   *         AHB3LPENSR   RIFSCLPENS    LL_AHB3_GRP1_EnableClockLowPower\n
1286:STM32Cube_FW_N6/Drivers/STM32N6xx_HAL_Driver/Inc/stm32n6xx_ll_bus.h ****   *         AHB3LPENSR   RISAFLPENS    LL_AHB3_GRP1_EnableClockLowPower\n
1287:STM32Cube_FW_N6/Drivers/STM32N6xx_HAL_Driver/Inc/stm32n6xx_ll_bus.h ****   *         AHB3LPENSR   IACLPENS      LL_AHB3_GRP1_EnableClockLowPower
1288:STM32Cube_FW_N6/Drivers/STM32N6xx_HAL_Driver/Inc/stm32n6xx_ll_bus.h ****   * @param  Periphs This parameter can be a combination of the following values:
1289:STM32Cube_FW_N6/Drivers/STM32N6xx_HAL_Driver/Inc/stm32n6xx_ll_bus.h ****   *         @arg @ref LL_AHB3_GRP1_PERIPH_RNG
1290:STM32Cube_FW_N6/Drivers/STM32N6xx_HAL_Driver/Inc/stm32n6xx_ll_bus.h ****   *         @arg @ref LL_AHB3_GRP1_PERIPH_HASH
1291:STM32Cube_FW_N6/Drivers/STM32N6xx_HAL_Driver/Inc/stm32n6xx_ll_bus.h ****   *         @arg @ref LL_AHB3_GRP1_PERIPH_CRYP (*)
1292:STM32Cube_FW_N6/Drivers/STM32N6xx_HAL_Driver/Inc/stm32n6xx_ll_bus.h ****   *         @arg @ref LL_AHB3_GRP1_PERIPH_SAES (*)
1293:STM32Cube_FW_N6/Drivers/STM32N6xx_HAL_Driver/Inc/stm32n6xx_ll_bus.h ****   *         @arg @ref LL_AHB3_GRP1_PERIPH_PKA
1294:STM32Cube_FW_N6/Drivers/STM32N6xx_HAL_Driver/Inc/stm32n6xx_ll_bus.h ****   *         @arg @ref LL_AHB3_GRP1_PERIPH_RIFSC
1295:STM32Cube_FW_N6/Drivers/STM32N6xx_HAL_Driver/Inc/stm32n6xx_ll_bus.h ****   *         @arg @ref LL_AHB3_GRP1_PERIPH_RISAF
1296:STM32Cube_FW_N6/Drivers/STM32N6xx_HAL_Driver/Inc/stm32n6xx_ll_bus.h ****   *         @arg @ref LL_AHB3_GRP1_PERIPH_IAC
1297:STM32Cube_FW_N6/Drivers/STM32N6xx_HAL_Driver/Inc/stm32n6xx_ll_bus.h ****   *
1298:STM32Cube_FW_N6/Drivers/STM32N6xx_HAL_Driver/Inc/stm32n6xx_ll_bus.h ****   *         (*) value not defined in all devices.
1299:STM32Cube_FW_N6/Drivers/STM32N6xx_HAL_Driver/Inc/stm32n6xx_ll_bus.h ****   * @retval None
1300:STM32Cube_FW_N6/Drivers/STM32N6xx_HAL_Driver/Inc/stm32n6xx_ll_bus.h ****   */
1301:STM32Cube_FW_N6/Drivers/STM32N6xx_HAL_Driver/Inc/stm32n6xx_ll_bus.h **** __STATIC_INLINE void LL_AHB3_GRP1_EnableClockLowPower(uint32_t Periphs)
1302:STM32Cube_FW_N6/Drivers/STM32N6xx_HAL_Driver/Inc/stm32n6xx_ll_bus.h **** {
1303:STM32Cube_FW_N6/Drivers/STM32N6xx_HAL_Driver/Inc/stm32n6xx_ll_bus.h ****   __IO uint32_t tmpreg;
1304:STM32Cube_FW_N6/Drivers/STM32N6xx_HAL_Driver/Inc/stm32n6xx_ll_bus.h ****   WRITE_REG(RCC->AHB3LPENSR, Periphs);
1305:STM32Cube_FW_N6/Drivers/STM32N6xx_HAL_Driver/Inc/stm32n6xx_ll_bus.h ****   /* Delay after an RCC peripheral clock enabling */
1306:STM32Cube_FW_N6/Drivers/STM32N6xx_HAL_Driver/Inc/stm32n6xx_ll_bus.h ****   tmpreg = READ_REG(RCC->AHB3LPENR);
1307:STM32Cube_FW_N6/Drivers/STM32N6xx_HAL_Driver/Inc/stm32n6xx_ll_bus.h ****   (void)tmpreg;
1308:STM32Cube_FW_N6/Drivers/STM32N6xx_HAL_Driver/Inc/stm32n6xx_ll_bus.h **** }
1309:STM32Cube_FW_N6/Drivers/STM32N6xx_HAL_Driver/Inc/stm32n6xx_ll_bus.h **** 
1310:STM32Cube_FW_N6/Drivers/STM32N6xx_HAL_Driver/Inc/stm32n6xx_ll_bus.h **** /**
1311:STM32Cube_FW_N6/Drivers/STM32N6xx_HAL_Driver/Inc/stm32n6xx_ll_bus.h ****   * @brief  Check if AHB3 peripheral clock during Low Power mode is enabled or not .
1312:STM32Cube_FW_N6/Drivers/STM32N6xx_HAL_Driver/Inc/stm32n6xx_ll_bus.h ****   * @rmtoll AHB3LPENR    RNGLPEN       LL_AHB3_GRP1_IsEnabledClockLowPower\n
1313:STM32Cube_FW_N6/Drivers/STM32N6xx_HAL_Driver/Inc/stm32n6xx_ll_bus.h ****   *         AHB3LPENR    HASHLPEN      LL_AHB3_GRP1_IsEnabledClockLowPower\n
ARM GAS  C:\Users\DJESSOU\AppData\Local\Temp\ccIfw9Ia.s 			page 46


1314:STM32Cube_FW_N6/Drivers/STM32N6xx_HAL_Driver/Inc/stm32n6xx_ll_bus.h ****   *         AHB3LPENR    CRYPLPEN      LL_AHB3_GRP1_IsEnabledClockLowPower\n  (*)
1315:STM32Cube_FW_N6/Drivers/STM32N6xx_HAL_Driver/Inc/stm32n6xx_ll_bus.h ****   *         AHB3LPENR    SAESLPEN      LL_AHB3_GRP1_IsEnabledClockLowPower\n  (*)
1316:STM32Cube_FW_N6/Drivers/STM32N6xx_HAL_Driver/Inc/stm32n6xx_ll_bus.h ****   *         AHB3LPENR    PKALPEN       LL_AHB3_GRP1_IsEnabledClockLowPower\n
1317:STM32Cube_FW_N6/Drivers/STM32N6xx_HAL_Driver/Inc/stm32n6xx_ll_bus.h ****   *         AHB3LPENR    RIFSCLPEN     LL_AHB3_GRP1_IsEnabledClockLowPower\n
1318:STM32Cube_FW_N6/Drivers/STM32N6xx_HAL_Driver/Inc/stm32n6xx_ll_bus.h ****   *         AHB3LPENR    RISAFLPEN     LL_AHB3_GRP1_IsEnabledClockLowPower\n
1319:STM32Cube_FW_N6/Drivers/STM32N6xx_HAL_Driver/Inc/stm32n6xx_ll_bus.h ****   *         AHB3LPENR    IACLPEN       LL_AHB3_GRP1_IsEnabledClockLowPower
1320:STM32Cube_FW_N6/Drivers/STM32N6xx_HAL_Driver/Inc/stm32n6xx_ll_bus.h ****   * @param  Periphs This parameter can be a combination of the following values:
