ARM GAS  C:\Users\DJESSOU\AppData\Local\Temp\ccEz5zGK.s 			page 1


   1              		.arch armv8.1-m.main
   2              		.fpu fpv5-d16
   3              		.arch_extension dsp
   4              		.arch_extension fp
   5              		.arch_extension fp.dp
   6              		.arch_extension mve
   7              		.arch_extension mve.fp
   8              		.eabi_attribute 5, "cortex-m55"
   9              		.eabi_attribute 28, 1
  10              		.eabi_attribute 20, 1
  11              		.eabi_attribute 21, 1
  12              		.eabi_attribute 23, 3
  13              		.eabi_attribute 24, 1
  14              		.eabi_attribute 25, 1
  15              		.eabi_attribute 26, 1
  16              		.eabi_attribute 30, 4
  17              		.eabi_attribute 34, 1
  18              		.eabi_attribute 38, 1
  19              		.eabi_attribute 18, 4
  20              		.file	"stm32n6xx_hal_dma.c"
  21              		.text
  22              	.Ltext0:
  23              		.cfi_sections	.debug_frame
  24              		.file 1 "STM32Cube_FW_N6/Drivers/STM32N6xx_HAL_Driver/Src/stm32n6xx_hal_dma.c"
  25              		.section	.rodata.HAL_DMA_Init.str1.1,"aMS",%progbits,1
  26              	.LC0:
  27 0000 53544D33 		.ascii	"STM32Cube_FW_N6/Drivers/STM32N6xx_HAL_Driver/Src/st"
  27      32437562 
  27      655F4657 
  27      5F4E362F 
  27      44726976 
  28 0033 6D33326E 		.ascii	"m32n6xx_hal_dma.c\000"
  28      3678785F 
  28      68616C5F 
  28      646D612E 
  28      6300
  29              		.section	.text.HAL_DMA_Init,"ax",%progbits
  30              		.align	1
  31              		.global	HAL_DMA_Init
  32              		.syntax unified
  33              		.thumb
  34              		.thumb_func
  36              	HAL_DMA_Init:
  37              	.LVL0:
  38              	.LFB862:
   1:STM32Cube_FW_N6/Drivers/STM32N6xx_HAL_Driver/Src/stm32n6xx_hal_dma.c **** /**
   2:STM32Cube_FW_N6/Drivers/STM32N6xx_HAL_Driver/Src/stm32n6xx_hal_dma.c ****   *************************************************************************************************
   3:STM32Cube_FW_N6/Drivers/STM32N6xx_HAL_Driver/Src/stm32n6xx_hal_dma.c ****   * @file    stm32n6xx_hal_dma.c
   4:STM32Cube_FW_N6/Drivers/STM32N6xx_HAL_Driver/Src/stm32n6xx_hal_dma.c ****   * @author  MCD Application Team
   5:STM32Cube_FW_N6/Drivers/STM32N6xx_HAL_Driver/Src/stm32n6xx_hal_dma.c ****   * @brief   This file provides firmware functions to manage the following functionalities of the D
   6:STM32Cube_FW_N6/Drivers/STM32N6xx_HAL_Driver/Src/stm32n6xx_hal_dma.c ****   *          (DMA) peripheral:
   7:STM32Cube_FW_N6/Drivers/STM32N6xx_HAL_Driver/Src/stm32n6xx_hal_dma.c ****   *            + Initialization/De-Initialization Functions
   8:STM32Cube_FW_N6/Drivers/STM32N6xx_HAL_Driver/Src/stm32n6xx_hal_dma.c ****   *            + I/O Operation Functions
   9:STM32Cube_FW_N6/Drivers/STM32N6xx_HAL_Driver/Src/stm32n6xx_hal_dma.c ****   *            + State and Errors Functions
  10:STM32Cube_FW_N6/Drivers/STM32N6xx_HAL_Driver/Src/stm32n6xx_hal_dma.c ****   *            + DMA Attributes Functions
  11:STM32Cube_FW_N6/Drivers/STM32N6xx_HAL_Driver/Src/stm32n6xx_hal_dma.c ****   *
  12:STM32Cube_FW_N6/Drivers/STM32N6xx_HAL_Driver/Src/stm32n6xx_hal_dma.c ****   *************************************************************************************************
ARM GAS  C:\Users\DJESSOU\AppData\Local\Temp\ccEz5zGK.s 			page 2


  13:STM32Cube_FW_N6/Drivers/STM32N6xx_HAL_Driver/Src/stm32n6xx_hal_dma.c ****   * @attention
  14:STM32Cube_FW_N6/Drivers/STM32N6xx_HAL_Driver/Src/stm32n6xx_hal_dma.c ****   *
  15:STM32Cube_FW_N6/Drivers/STM32N6xx_HAL_Driver/Src/stm32n6xx_hal_dma.c ****   * Copyright (c) 2023 STMicroelectronics.
  16:STM32Cube_FW_N6/Drivers/STM32N6xx_HAL_Driver/Src/stm32n6xx_hal_dma.c ****   * All rights reserved.
  17:STM32Cube_FW_N6/Drivers/STM32N6xx_HAL_Driver/Src/stm32n6xx_hal_dma.c ****   *
  18:STM32Cube_FW_N6/Drivers/STM32N6xx_HAL_Driver/Src/stm32n6xx_hal_dma.c ****   * This software is licensed under terms that can be found in the LICENSE file
  19:STM32Cube_FW_N6/Drivers/STM32N6xx_HAL_Driver/Src/stm32n6xx_hal_dma.c ****   * in the root directory of this software component.
  20:STM32Cube_FW_N6/Drivers/STM32N6xx_HAL_Driver/Src/stm32n6xx_hal_dma.c ****   * If no LICENSE file comes with this software, it is provided AS-IS.
  21:STM32Cube_FW_N6/Drivers/STM32N6xx_HAL_Driver/Src/stm32n6xx_hal_dma.c ****   *
  22:STM32Cube_FW_N6/Drivers/STM32N6xx_HAL_Driver/Src/stm32n6xx_hal_dma.c ****   *************************************************************************************************
  23:STM32Cube_FW_N6/Drivers/STM32N6xx_HAL_Driver/Src/stm32n6xx_hal_dma.c ****   @verbatim
  24:STM32Cube_FW_N6/Drivers/STM32N6xx_HAL_Driver/Src/stm32n6xx_hal_dma.c ****   =================================================================================================
  25:STM32Cube_FW_N6/Drivers/STM32N6xx_HAL_Driver/Src/stm32n6xx_hal_dma.c ****                        ##### How to use this driver #####
  26:STM32Cube_FW_N6/Drivers/STM32N6xx_HAL_Driver/Src/stm32n6xx_hal_dma.c ****   =================================================================================================
  27:STM32Cube_FW_N6/Drivers/STM32N6xx_HAL_Driver/Src/stm32n6xx_hal_dma.c ****   [..]
  28:STM32Cube_FW_N6/Drivers/STM32N6xx_HAL_Driver/Src/stm32n6xx_hal_dma.c ****    (#) GPDMA and HPDMA are made available on this series.
  29:STM32Cube_FW_N6/Drivers/STM32N6xx_HAL_Driver/Src/stm32n6xx_hal_dma.c ****        Transfer could be done thanks to AXI or AHB ports.
  30:STM32Cube_FW_N6/Drivers/STM32N6xx_HAL_Driver/Src/stm32n6xx_hal_dma.c **** 
  31:STM32Cube_FW_N6/Drivers/STM32N6xx_HAL_Driver/Src/stm32n6xx_hal_dma.c ****        HPDMA support transmission through:
  32:STM32Cube_FW_N6/Drivers/STM32N6xx_HAL_Driver/Src/stm32n6xx_hal_dma.c ****          AXI port 0.
  33:STM32Cube_FW_N6/Drivers/STM32N6xx_HAL_Driver/Src/stm32n6xx_hal_dma.c ****          AHB port 1.
  34:STM32Cube_FW_N6/Drivers/STM32N6xx_HAL_Driver/Src/stm32n6xx_hal_dma.c ****        GPDMA allows transmission through:
  35:STM32Cube_FW_N6/Drivers/STM32N6xx_HAL_Driver/Src/stm32n6xx_hal_dma.c ****          GPDMA_P = port-0.
  36:STM32Cube_FW_N6/Drivers/STM32N6xx_HAL_Driver/Src/stm32n6xx_hal_dma.c ****          GPDMA_M = port-1
  37:STM32Cube_FW_N6/Drivers/STM32N6xx_HAL_Driver/Src/stm32n6xx_hal_dma.c **** 
  38:STM32Cube_FW_N6/Drivers/STM32N6xx_HAL_Driver/Src/stm32n6xx_hal_dma.c ****        The supported configurations for GPDMA and HPDMA can be found
  39:STM32Cube_FW_N6/Drivers/STM32N6xx_HAL_Driver/Src/stm32n6xx_hal_dma.c ****        in the Connectivity matrix table of the reference manual.
  40:STM32Cube_FW_N6/Drivers/STM32N6xx_HAL_Driver/Src/stm32n6xx_hal_dma.c ****        Mind that DTCM and ITCM can be only be accessed thanks to HPDMA
  41:STM32Cube_FW_N6/Drivers/STM32N6xx_HAL_Driver/Src/stm32n6xx_hal_dma.c ****        AXI port 0.
  42:STM32Cube_FW_N6/Drivers/STM32N6xx_HAL_Driver/Src/stm32n6xx_hal_dma.c ****     [..]
  43:STM32Cube_FW_N6/Drivers/STM32N6xx_HAL_Driver/Src/stm32n6xx_hal_dma.c ****       DMA transfer modes are divided to 2 major categories :
  44:STM32Cube_FW_N6/Drivers/STM32N6xx_HAL_Driver/Src/stm32n6xx_hal_dma.c ****           (+) Normal transfers (legacy)
  45:STM32Cube_FW_N6/Drivers/STM32N6xx_HAL_Driver/Src/stm32n6xx_hal_dma.c ****           (+) Linked-list transfers
  46:STM32Cube_FW_N6/Drivers/STM32N6xx_HAL_Driver/Src/stm32n6xx_hal_dma.c **** 
  47:STM32Cube_FW_N6/Drivers/STM32N6xx_HAL_Driver/Src/stm32n6xx_hal_dma.c ****     [..]
  48:STM32Cube_FW_N6/Drivers/STM32N6xx_HAL_Driver/Src/stm32n6xx_hal_dma.c ****       Normal transfers mode is initialized via the standard module and linked-list mode is configur
  49:STM32Cube_FW_N6/Drivers/STM32N6xx_HAL_Driver/Src/stm32n6xx_hal_dma.c ****       module.
  50:STM32Cube_FW_N6/Drivers/STM32N6xx_HAL_Driver/Src/stm32n6xx_hal_dma.c **** 
  51:STM32Cube_FW_N6/Drivers/STM32N6xx_HAL_Driver/Src/stm32n6xx_hal_dma.c ****     [..]
  52:STM32Cube_FW_N6/Drivers/STM32N6xx_HAL_Driver/Src/stm32n6xx_hal_dma.c ****       Additionally to linked-list capability, all advanced DMA features are managed and configured 
  53:STM32Cube_FW_N6/Drivers/STM32N6xx_HAL_Driver/Src/stm32n6xx_hal_dma.c ****       module as extensions to normal mode.
  54:STM32Cube_FW_N6/Drivers/STM32N6xx_HAL_Driver/Src/stm32n6xx_hal_dma.c ****       Advanced features are :
  55:STM32Cube_FW_N6/Drivers/STM32N6xx_HAL_Driver/Src/stm32n6xx_hal_dma.c ****           (+) Repeated block feature.
  56:STM32Cube_FW_N6/Drivers/STM32N6xx_HAL_Driver/Src/stm32n6xx_hal_dma.c ****           (+) Trigger feature.
  57:STM32Cube_FW_N6/Drivers/STM32N6xx_HAL_Driver/Src/stm32n6xx_hal_dma.c ****           (+) Data handling feature.
  58:STM32Cube_FW_N6/Drivers/STM32N6xx_HAL_Driver/Src/stm32n6xx_hal_dma.c **** 
  59:STM32Cube_FW_N6/Drivers/STM32N6xx_HAL_Driver/Src/stm32n6xx_hal_dma.c ****     [..]
  60:STM32Cube_FW_N6/Drivers/STM32N6xx_HAL_Driver/Src/stm32n6xx_hal_dma.c ****       DMA Legacy circular transfer, is replaced by circular linked-list configuration.
  61:STM32Cube_FW_N6/Drivers/STM32N6xx_HAL_Driver/Src/stm32n6xx_hal_dma.c **** 
  62:STM32Cube_FW_N6/Drivers/STM32N6xx_HAL_Driver/Src/stm32n6xx_hal_dma.c **** 
  63:STM32Cube_FW_N6/Drivers/STM32N6xx_HAL_Driver/Src/stm32n6xx_hal_dma.c ****     *** Initialization and De-Initialization ***
  64:STM32Cube_FW_N6/Drivers/STM32N6xx_HAL_Driver/Src/stm32n6xx_hal_dma.c ****     ============================================
  65:STM32Cube_FW_N6/Drivers/STM32N6xx_HAL_Driver/Src/stm32n6xx_hal_dma.c ****     [..]
  66:STM32Cube_FW_N6/Drivers/STM32N6xx_HAL_Driver/Src/stm32n6xx_hal_dma.c ****       For a given channel, enable and configure the peripheral to be connected to the DMA Channel (
  67:STM32Cube_FW_N6/Drivers/STM32N6xx_HAL_Driver/Src/stm32n6xx_hal_dma.c ****       SRAM/FLASH memories: no initialization is necessary) please refer to Reference manual for con
  68:STM32Cube_FW_N6/Drivers/STM32N6xx_HAL_Driver/Src/stm32n6xx_hal_dma.c ****       peripherals and DMA requests.
  69:STM32Cube_FW_N6/Drivers/STM32N6xx_HAL_Driver/Src/stm32n6xx_hal_dma.c **** 
ARM GAS  C:\Users\DJESSOU\AppData\Local\Temp\ccEz5zGK.s 			page 3


  70:STM32Cube_FW_N6/Drivers/STM32N6xx_HAL_Driver/Src/stm32n6xx_hal_dma.c ****     [..]
  71:STM32Cube_FW_N6/Drivers/STM32N6xx_HAL_Driver/Src/stm32n6xx_hal_dma.c ****       For a given channel, use HAL_DMA_Init function to program the required configuration for norm
  72:STM32Cube_FW_N6/Drivers/STM32N6xx_HAL_Driver/Src/stm32n6xx_hal_dma.c ****       the following parameters:
  73:STM32Cube_FW_N6/Drivers/STM32N6xx_HAL_Driver/Src/stm32n6xx_hal_dma.c **** 
  74:STM32Cube_FW_N6/Drivers/STM32N6xx_HAL_Driver/Src/stm32n6xx_hal_dma.c ****           (+) Request               : Specifies the DMA channel request
  75:STM32Cube_FW_N6/Drivers/STM32N6xx_HAL_Driver/Src/stm32n6xx_hal_dma.c ****               Request parameters    :
  76:STM32Cube_FW_N6/Drivers/STM32N6xx_HAL_Driver/Src/stm32n6xx_hal_dma.c ****               (++) can be a value of DMA_Request_Selection
  77:STM32Cube_FW_N6/Drivers/STM32N6xx_HAL_Driver/Src/stm32n6xx_hal_dma.c **** 
  78:STM32Cube_FW_N6/Drivers/STM32N6xx_HAL_Driver/Src/stm32n6xx_hal_dma.c ****           (+) BlkHWRequest          : Specifies the Block hardware request mode for DMA channel
  79:STM32Cube_FW_N6/Drivers/STM32N6xx_HAL_Driver/Src/stm32n6xx_hal_dma.c ****               (++) can be a value of DMA_Block_Request
  80:STM32Cube_FW_N6/Drivers/STM32N6xx_HAL_Driver/Src/stm32n6xx_hal_dma.c **** 
  81:STM32Cube_FW_N6/Drivers/STM32N6xx_HAL_Driver/Src/stm32n6xx_hal_dma.c ****           (+) Direction             : Specifies the transfer direction for DMA channel
  82:STM32Cube_FW_N6/Drivers/STM32N6xx_HAL_Driver/Src/stm32n6xx_hal_dma.c ****               (++) can be a value of DMA_Transfer_Direction
  83:STM32Cube_FW_N6/Drivers/STM32N6xx_HAL_Driver/Src/stm32n6xx_hal_dma.c **** 
  84:STM32Cube_FW_N6/Drivers/STM32N6xx_HAL_Driver/Src/stm32n6xx_hal_dma.c ****           (+) SrcInc                : Specifies the source increment mode for the DMA channel
  85:STM32Cube_FW_N6/Drivers/STM32N6xx_HAL_Driver/Src/stm32n6xx_hal_dma.c ****               (++) can be a value of DMA_Source_Increment_Mode
  86:STM32Cube_FW_N6/Drivers/STM32N6xx_HAL_Driver/Src/stm32n6xx_hal_dma.c **** 
  87:STM32Cube_FW_N6/Drivers/STM32N6xx_HAL_Driver/Src/stm32n6xx_hal_dma.c ****           (+) DestInc               : Specifies the destination increment mode for the DMA channel
  88:STM32Cube_FW_N6/Drivers/STM32N6xx_HAL_Driver/Src/stm32n6xx_hal_dma.c ****               (++) can be a value of DMA_Destination_Increment_Mode
  89:STM32Cube_FW_N6/Drivers/STM32N6xx_HAL_Driver/Src/stm32n6xx_hal_dma.c **** 
  90:STM32Cube_FW_N6/Drivers/STM32N6xx_HAL_Driver/Src/stm32n6xx_hal_dma.c ****           (+) SrcDataWidth          : Specifies the source data width for the DMA channel
  91:STM32Cube_FW_N6/Drivers/STM32N6xx_HAL_Driver/Src/stm32n6xx_hal_dma.c ****               (++) can be a value of DMA_Source_Data_Width
  92:STM32Cube_FW_N6/Drivers/STM32N6xx_HAL_Driver/Src/stm32n6xx_hal_dma.c **** 
  93:STM32Cube_FW_N6/Drivers/STM32N6xx_HAL_Driver/Src/stm32n6xx_hal_dma.c ****           (+) DestDataWidth         : Specifies the destination data width for the DMA channel
  94:STM32Cube_FW_N6/Drivers/STM32N6xx_HAL_Driver/Src/stm32n6xx_hal_dma.c ****               (++) can be a value of DMA_Destination_Data_Width
  95:STM32Cube_FW_N6/Drivers/STM32N6xx_HAL_Driver/Src/stm32n6xx_hal_dma.c **** 
  96:STM32Cube_FW_N6/Drivers/STM32N6xx_HAL_Driver/Src/stm32n6xx_hal_dma.c ****           (+) Priority              : Specifies the priority for the DMA channel
  97:STM32Cube_FW_N6/Drivers/STM32N6xx_HAL_Driver/Src/stm32n6xx_hal_dma.c ****               (++) can be a value of DMA_Priority_Level
  98:STM32Cube_FW_N6/Drivers/STM32N6xx_HAL_Driver/Src/stm32n6xx_hal_dma.c **** 
  99:STM32Cube_FW_N6/Drivers/STM32N6xx_HAL_Driver/Src/stm32n6xx_hal_dma.c ****           (+) SrcBurstLength        : Specifies the source burst length (number of beats) for the D
 100:STM32Cube_FW_N6/Drivers/STM32N6xx_HAL_Driver/Src/stm32n6xx_hal_dma.c ****               (++) can be a value of between 1 and 64
 101:STM32Cube_FW_N6/Drivers/STM32N6xx_HAL_Driver/Src/stm32n6xx_hal_dma.c **** 
 102:STM32Cube_FW_N6/Drivers/STM32N6xx_HAL_Driver/Src/stm32n6xx_hal_dma.c ****           (+) DestBurstLength       : Specifies the destination burst length (number of beats) for 
 103:STM32Cube_FW_N6/Drivers/STM32N6xx_HAL_Driver/Src/stm32n6xx_hal_dma.c ****               (++) can be a value of between 1 and 64
 104:STM32Cube_FW_N6/Drivers/STM32N6xx_HAL_Driver/Src/stm32n6xx_hal_dma.c **** 
 105:STM32Cube_FW_N6/Drivers/STM32N6xx_HAL_Driver/Src/stm32n6xx_hal_dma.c ****           (+) TransferAllocatedPort : Specifies the source and destination allocated ports
 106:STM32Cube_FW_N6/Drivers/STM32N6xx_HAL_Driver/Src/stm32n6xx_hal_dma.c ****               (++) can be a value of DMA_Transfer_Allocated_Port
 107:STM32Cube_FW_N6/Drivers/STM32N6xx_HAL_Driver/Src/stm32n6xx_hal_dma.c **** 
 108:STM32Cube_FW_N6/Drivers/STM32N6xx_HAL_Driver/Src/stm32n6xx_hal_dma.c ****           (+) TransferEventMode     : Specifies the transfer event mode for the DMA channel
 109:STM32Cube_FW_N6/Drivers/STM32N6xx_HAL_Driver/Src/stm32n6xx_hal_dma.c ****               (++) can be a value of DMA_Transfer_Event_Mode
 110:STM32Cube_FW_N6/Drivers/STM32N6xx_HAL_Driver/Src/stm32n6xx_hal_dma.c **** 
 111:STM32Cube_FW_N6/Drivers/STM32N6xx_HAL_Driver/Src/stm32n6xx_hal_dma.c ****           (+) Mode                  : Specifies the transfer mode for the DMA channel
 112:STM32Cube_FW_N6/Drivers/STM32N6xx_HAL_Driver/Src/stm32n6xx_hal_dma.c ****               (++) can be one of the following modes :
 113:STM32Cube_FW_N6/Drivers/STM32N6xx_HAL_Driver/Src/stm32n6xx_hal_dma.c ****                   (+++) DMA_NORMAL : Normal Mode
 114:STM32Cube_FW_N6/Drivers/STM32N6xx_HAL_Driver/Src/stm32n6xx_hal_dma.c ****                   (+++) DMA_PFCTRL : Peripheral Flow Control (peripheral early termination) Mode
 115:STM32Cube_FW_N6/Drivers/STM32N6xx_HAL_Driver/Src/stm32n6xx_hal_dma.c **** 
 116:STM32Cube_FW_N6/Drivers/STM32N6xx_HAL_Driver/Src/stm32n6xx_hal_dma.c ****     *** Polling mode IO operation ***
 117:STM32Cube_FW_N6/Drivers/STM32N6xx_HAL_Driver/Src/stm32n6xx_hal_dma.c ****     =================================
 118:STM32Cube_FW_N6/Drivers/STM32N6xx_HAL_Driver/Src/stm32n6xx_hal_dma.c ****     [..]
 119:STM32Cube_FW_N6/Drivers/STM32N6xx_HAL_Driver/Src/stm32n6xx_hal_dma.c ****           (+) Use HAL_DMA_Start() to start a DMA normal transfer after the configuration of source 
 120:STM32Cube_FW_N6/Drivers/STM32N6xx_HAL_Driver/Src/stm32n6xx_hal_dma.c ****               address and the size of data to be transferred.
 121:STM32Cube_FW_N6/Drivers/STM32N6xx_HAL_Driver/Src/stm32n6xx_hal_dma.c **** 
 122:STM32Cube_FW_N6/Drivers/STM32N6xx_HAL_Driver/Src/stm32n6xx_hal_dma.c ****           (+) Use HAL_DMA_PollForTransfer() to poll for selected transfer level. In this case a fix
 123:STM32Cube_FW_N6/Drivers/STM32N6xx_HAL_Driver/Src/stm32n6xx_hal_dma.c ****               configured by User depending on his application.
 124:STM32Cube_FW_N6/Drivers/STM32N6xx_HAL_Driver/Src/stm32n6xx_hal_dma.c ****               Transfer level can be :
 125:STM32Cube_FW_N6/Drivers/STM32N6xx_HAL_Driver/Src/stm32n6xx_hal_dma.c ****               (++) HAL_DMA_HALF_TRANSFER
 126:STM32Cube_FW_N6/Drivers/STM32N6xx_HAL_Driver/Src/stm32n6xx_hal_dma.c ****               (++) HAL_DMA_FULL_TRANSFER
ARM GAS  C:\Users\DJESSOU\AppData\Local\Temp\ccEz5zGK.s 			page 4


 127:STM32Cube_FW_N6/Drivers/STM32N6xx_HAL_Driver/Src/stm32n6xx_hal_dma.c ****               For circular transfer, this API returns an HAL_ERROR with HAL_DMA_ERROR_NOT_SUPPORTED
 128:STM32Cube_FW_N6/Drivers/STM32N6xx_HAL_Driver/Src/stm32n6xx_hal_dma.c **** 
 129:STM32Cube_FW_N6/Drivers/STM32N6xx_HAL_Driver/Src/stm32n6xx_hal_dma.c ****           (+) Use HAL_DMA_Abort() function to abort any ongoing DMA transfer in blocking mode.
 130:STM32Cube_FW_N6/Drivers/STM32N6xx_HAL_Driver/Src/stm32n6xx_hal_dma.c ****               This API returns HAL_ERROR when there is no ongoing transfer or timeout is reached wh
 131:STM32Cube_FW_N6/Drivers/STM32N6xx_HAL_Driver/Src/stm32n6xx_hal_dma.c ****               channel. (This API should not be called from an interrupt service routine)
 132:STM32Cube_FW_N6/Drivers/STM32N6xx_HAL_Driver/Src/stm32n6xx_hal_dma.c **** 
 133:STM32Cube_FW_N6/Drivers/STM32N6xx_HAL_Driver/Src/stm32n6xx_hal_dma.c **** 
 134:STM32Cube_FW_N6/Drivers/STM32N6xx_HAL_Driver/Src/stm32n6xx_hal_dma.c ****     *** Interrupt mode IO operation ***
 135:STM32Cube_FW_N6/Drivers/STM32N6xx_HAL_Driver/Src/stm32n6xx_hal_dma.c ****     ===================================
 136:STM32Cube_FW_N6/Drivers/STM32N6xx_HAL_Driver/Src/stm32n6xx_hal_dma.c ****     [..]
 137:STM32Cube_FW_N6/Drivers/STM32N6xx_HAL_Driver/Src/stm32n6xx_hal_dma.c ****           (+) Configure the DMA interrupt priority using HAL_NVIC_SetPriority()
 138:STM32Cube_FW_N6/Drivers/STM32N6xx_HAL_Driver/Src/stm32n6xx_hal_dma.c **** 
 139:STM32Cube_FW_N6/Drivers/STM32N6xx_HAL_Driver/Src/stm32n6xx_hal_dma.c ****           (+) Enable the DMA IRQ handler using HAL_NVIC_EnableIRQ()
 140:STM32Cube_FW_N6/Drivers/STM32N6xx_HAL_Driver/Src/stm32n6xx_hal_dma.c **** 
 141:STM32Cube_FW_N6/Drivers/STM32N6xx_HAL_Driver/Src/stm32n6xx_hal_dma.c ****           (+) Use HAL_DMA_RegisterCallback() function to register user callbacks from the following
 142:STM32Cube_FW_N6/Drivers/STM32N6xx_HAL_Driver/Src/stm32n6xx_hal_dma.c ****               (++) XferCpltCallback     : transfer complete callback.
 143:STM32Cube_FW_N6/Drivers/STM32N6xx_HAL_Driver/Src/stm32n6xx_hal_dma.c ****               (++) XferHalfCpltCallback : half transfer complete callback.
 144:STM32Cube_FW_N6/Drivers/STM32N6xx_HAL_Driver/Src/stm32n6xx_hal_dma.c ****               (++) XferErrorCallback    : transfer error callback.
 145:STM32Cube_FW_N6/Drivers/STM32N6xx_HAL_Driver/Src/stm32n6xx_hal_dma.c ****               (++) XferAbortCallback    : transfer abort complete callback.
 146:STM32Cube_FW_N6/Drivers/STM32N6xx_HAL_Driver/Src/stm32n6xx_hal_dma.c ****               (++) XferSuspendCallback  : transfer suspend complete callback.
 147:STM32Cube_FW_N6/Drivers/STM32N6xx_HAL_Driver/Src/stm32n6xx_hal_dma.c **** 
 148:STM32Cube_FW_N6/Drivers/STM32N6xx_HAL_Driver/Src/stm32n6xx_hal_dma.c ****           (+) Use HAL_DMA_Start_IT() to start the DMA transfer after the enable of DMA interrupts a
 149:STM32Cube_FW_N6/Drivers/STM32N6xx_HAL_Driver/Src/stm32n6xx_hal_dma.c ****               of source address,destination address and the size of data to be transferred.
 150:STM32Cube_FW_N6/Drivers/STM32N6xx_HAL_Driver/Src/stm32n6xx_hal_dma.c **** 
 151:STM32Cube_FW_N6/Drivers/STM32N6xx_HAL_Driver/Src/stm32n6xx_hal_dma.c ****           (+) Use HAL_DMA_IRQHandler() called under DMA_IRQHandler() interrupt subroutine to handle
 152:STM32Cube_FW_N6/Drivers/STM32N6xx_HAL_Driver/Src/stm32n6xx_hal_dma.c **** 
 153:STM32Cube_FW_N6/Drivers/STM32N6xx_HAL_Driver/Src/stm32n6xx_hal_dma.c ****           (+) Use HAL_DMA_Abort_IT() function to abort any on-going DMA transfer in non-blocking mo
 154:STM32Cube_FW_N6/Drivers/STM32N6xx_HAL_Driver/Src/stm32n6xx_hal_dma.c ****               This API will suspend immediately the DMA channel execution. When the transfer is eff
 155:STM32Cube_FW_N6/Drivers/STM32N6xx_HAL_Driver/Src/stm32n6xx_hal_dma.c ****               an interrupt is generated and HAL_DMA_IRQHandler() will reset the channel and execute
 156:STM32Cube_FW_N6/Drivers/STM32N6xx_HAL_Driver/Src/stm32n6xx_hal_dma.c ****               XferAbortCallback. (This API could be called from an interrupt service routine)
 157:STM32Cube_FW_N6/Drivers/STM32N6xx_HAL_Driver/Src/stm32n6xx_hal_dma.c **** 
 158:STM32Cube_FW_N6/Drivers/STM32N6xx_HAL_Driver/Src/stm32n6xx_hal_dma.c **** 
 159:STM32Cube_FW_N6/Drivers/STM32N6xx_HAL_Driver/Src/stm32n6xx_hal_dma.c ****     *** State and errors ***
 160:STM32Cube_FW_N6/Drivers/STM32N6xx_HAL_Driver/Src/stm32n6xx_hal_dma.c ****     ========================
 161:STM32Cube_FW_N6/Drivers/STM32N6xx_HAL_Driver/Src/stm32n6xx_hal_dma.c ****     [..]
 162:STM32Cube_FW_N6/Drivers/STM32N6xx_HAL_Driver/Src/stm32n6xx_hal_dma.c ****           (+) Use HAL_DMA_GetState() function to get the DMA state.
 163:STM32Cube_FW_N6/Drivers/STM32N6xx_HAL_Driver/Src/stm32n6xx_hal_dma.c ****           (+) Use HAL_DMA_GetError() function to get the DMA error code.
 164:STM32Cube_FW_N6/Drivers/STM32N6xx_HAL_Driver/Src/stm32n6xx_hal_dma.c **** 
 165:STM32Cube_FW_N6/Drivers/STM32N6xx_HAL_Driver/Src/stm32n6xx_hal_dma.c **** 
 166:STM32Cube_FW_N6/Drivers/STM32N6xx_HAL_Driver/Src/stm32n6xx_hal_dma.c ****     *** Security and privilege attributes ***
 167:STM32Cube_FW_N6/Drivers/STM32N6xx_HAL_Driver/Src/stm32n6xx_hal_dma.c ****     =========================================
 168:STM32Cube_FW_N6/Drivers/STM32N6xx_HAL_Driver/Src/stm32n6xx_hal_dma.c ****     [..]
 169:STM32Cube_FW_N6/Drivers/STM32N6xx_HAL_Driver/Src/stm32n6xx_hal_dma.c ****           (+) Use HAL_DMA_ConfigChannelAttributes() function to configure DMA channel security and 
 170:STM32Cube_FW_N6/Drivers/STM32N6xx_HAL_Driver/Src/stm32n6xx_hal_dma.c ****               (++) Security  : at channel level, at source level and at destination level.
 171:STM32Cube_FW_N6/Drivers/STM32N6xx_HAL_Driver/Src/stm32n6xx_hal_dma.c ****               (++) Privilege : at channel level.
 172:STM32Cube_FW_N6/Drivers/STM32N6xx_HAL_Driver/Src/stm32n6xx_hal_dma.c ****           (+) Use HAL_DMA_GetConfigChannelAttributes() function to get the DMA channel attributes.
 173:STM32Cube_FW_N6/Drivers/STM32N6xx_HAL_Driver/Src/stm32n6xx_hal_dma.c ****           (+) Use HAL_DMA_LockChannelAttributes() function to lock the DMA channel security and pri
 174:STM32Cube_FW_N6/Drivers/STM32N6xx_HAL_Driver/Src/stm32n6xx_hal_dma.c ****               configuration. This API can be called once after each system boot.
 175:STM32Cube_FW_N6/Drivers/STM32N6xx_HAL_Driver/Src/stm32n6xx_hal_dma.c ****               If called again, HAL_DMA_ConfigChannelAttributes() API has no effect.
 176:STM32Cube_FW_N6/Drivers/STM32N6xx_HAL_Driver/Src/stm32n6xx_hal_dma.c ****               Unlock is done either by a system boot or a by an RCC reset.
 177:STM32Cube_FW_N6/Drivers/STM32N6xx_HAL_Driver/Src/stm32n6xx_hal_dma.c ****           (+) Use HAL_DMA_GetLockChannelAttributes() function to get the attributes lock status.
 178:STM32Cube_FW_N6/Drivers/STM32N6xx_HAL_Driver/Src/stm32n6xx_hal_dma.c ****           (+) Use HAL_DMA_SetIsolationAttributes() function to configure the HPDMA channel isolatio
 179:STM32Cube_FW_N6/Drivers/STM32N6xx_HAL_Driver/Src/stm32n6xx_hal_dma.c ****           (+) Use HAL_DMA_GetIsolationAttributes() function to get the HPDMA channel isolation attr
 180:STM32Cube_FW_N6/Drivers/STM32N6xx_HAL_Driver/Src/stm32n6xx_hal_dma.c **** 
 181:STM32Cube_FW_N6/Drivers/STM32N6xx_HAL_Driver/Src/stm32n6xx_hal_dma.c ****     *** Isolation attributes ***
 182:STM32Cube_FW_N6/Drivers/STM32N6xx_HAL_Driver/Src/stm32n6xx_hal_dma.c ****     ==================================
 183:STM32Cube_FW_N6/Drivers/STM32N6xx_HAL_Driver/Src/stm32n6xx_hal_dma.c ****     It is recommended to always enable the isolation feature of the DMA (CFEN = 1) of the HPDMA cha
ARM GAS  C:\Users\DJESSOU\AppData\Local\Temp\ccEz5zGK.s 			page 5


 184:STM32Cube_FW_N6/Drivers/STM32N6xx_HAL_Driver/Src/stm32n6xx_hal_dma.c ****     The default isolation shall be 1. i.e. the Cortex CID.
 185:STM32Cube_FW_N6/Drivers/STM32N6xx_HAL_Driver/Src/stm32n6xx_hal_dma.c ****     Indeed, should the isolation bit CFEN be equal to 0, a default isolation CID is still carried o
 186:STM32Cube_FW_N6/Drivers/STM32N6xx_HAL_Driver/Src/stm32n6xx_hal_dma.c ****     the CID generated by a channel access is zero-ed when CFEN=0, even if SCID is different from 00
 187:STM32Cube_FW_N6/Drivers/STM32N6xx_HAL_Driver/Src/stm32n6xx_hal_dma.c **** 
 188:STM32Cube_FW_N6/Drivers/STM32N6xx_HAL_Driver/Src/stm32n6xx_hal_dma.c ****     Similarly, it is recommended that all RIMU related IP (SDMMC, OTG, ETH, GPU, DMA2D, ...) to alw
 189:STM32Cube_FW_N6/Drivers/STM32N6xx_HAL_Driver/Src/stm32n6xx_hal_dma.c ****     generate (CID = 1).
 190:STM32Cube_FW_N6/Drivers/STM32N6xx_HAL_Driver/Src/stm32n6xx_hal_dma.c **** 
 191:STM32Cube_FW_N6/Drivers/STM32N6xx_HAL_Driver/Src/stm32n6xx_hal_dma.c ****     *** DMA HAL driver macros list ***
 192:STM32Cube_FW_N6/Drivers/STM32N6xx_HAL_Driver/Src/stm32n6xx_hal_dma.c ****     ==================================
 193:STM32Cube_FW_N6/Drivers/STM32N6xx_HAL_Driver/Src/stm32n6xx_hal_dma.c ****     [..]
 194:STM32Cube_FW_N6/Drivers/STM32N6xx_HAL_Driver/Src/stm32n6xx_hal_dma.c ****       Below the list of most used macros in DMA HAL driver.
 195:STM32Cube_FW_N6/Drivers/STM32N6xx_HAL_Driver/Src/stm32n6xx_hal_dma.c **** 
 196:STM32Cube_FW_N6/Drivers/STM32N6xx_HAL_Driver/Src/stm32n6xx_hal_dma.c ****           (+) __HAL_DMA_ENABLE        : Enable the specified DMA Channel.
 197:STM32Cube_FW_N6/Drivers/STM32N6xx_HAL_Driver/Src/stm32n6xx_hal_dma.c ****           (+) __HAL_DMA_DISABLE       : Disable the specified DMA Channel.
 198:STM32Cube_FW_N6/Drivers/STM32N6xx_HAL_Driver/Src/stm32n6xx_hal_dma.c ****           (+) __HAL_DMA_GET_FLAG      : Get the DMA Channel pending flags.
 199:STM32Cube_FW_N6/Drivers/STM32N6xx_HAL_Driver/Src/stm32n6xx_hal_dma.c ****           (+) __HAL_DMA_CLEAR_FLAG    : Clear the DMA Channel pending flags.
 200:STM32Cube_FW_N6/Drivers/STM32N6xx_HAL_Driver/Src/stm32n6xx_hal_dma.c ****           (+) __HAL_DMA_ENABLE_IT     : Enable the specified DMA Channel interrupts.
 201:STM32Cube_FW_N6/Drivers/STM32N6xx_HAL_Driver/Src/stm32n6xx_hal_dma.c ****           (+) __HAL_DMA_DISABLE_IT    : Disable the specified DMA Channel interrupts.
 202:STM32Cube_FW_N6/Drivers/STM32N6xx_HAL_Driver/Src/stm32n6xx_hal_dma.c ****           (+) __HAL_DMA_GET_IT_SOURCE : Check whether the specified DMA Channel interrupt has occur
 203:STM32Cube_FW_N6/Drivers/STM32N6xx_HAL_Driver/Src/stm32n6xx_hal_dma.c **** 
 204:STM32Cube_FW_N6/Drivers/STM32N6xx_HAL_Driver/Src/stm32n6xx_hal_dma.c ****     *** Valid burst length ***
 205:STM32Cube_FW_N6/Drivers/STM32N6xx_HAL_Driver/Src/stm32n6xx_hal_dma.c ****     ==================================
 206:STM32Cube_FW_N6/Drivers/STM32N6xx_HAL_Driver/Src/stm32n6xx_hal_dma.c ****     [..]
 207:STM32Cube_FW_N6/Drivers/STM32N6xx_HAL_Driver/Src/stm32n6xx_hal_dma.c ****       HPDMA allowed AXI maximum burst length
 208:STM32Cube_FW_N6/Drivers/STM32N6xx_HAL_Driver/Src/stm32n6xx_hal_dma.c ****     (+) The maximum allowed AXI burst length shall not exceed 16.
 209:STM32Cube_FW_N6/Drivers/STM32N6xx_HAL_Driver/Src/stm32n6xx_hal_dma.c ****             (++) If either selected source or destination length is above 16, HAL_DMA_Init will ret
 210:STM32Cube_FW_N6/Drivers/STM32N6xx_HAL_Driver/Src/stm32n6xx_hal_dma.c **** 
 211:STM32Cube_FW_N6/Drivers/STM32N6xx_HAL_Driver/Src/stm32n6xx_hal_dma.c ****     [..]
 212:STM32Cube_FW_N6/Drivers/STM32N6xx_HAL_Driver/Src/stm32n6xx_hal_dma.c ****      (@) You can refer to the header file of the DMA HAL driver for more useful macros.
 213:STM32Cube_FW_N6/Drivers/STM32N6xx_HAL_Driver/Src/stm32n6xx_hal_dma.c **** 
 214:STM32Cube_FW_N6/Drivers/STM32N6xx_HAL_Driver/Src/stm32n6xx_hal_dma.c ****     @endverbatim
 215:STM32Cube_FW_N6/Drivers/STM32N6xx_HAL_Driver/Src/stm32n6xx_hal_dma.c ****   *************************************************************************************************
 216:STM32Cube_FW_N6/Drivers/STM32N6xx_HAL_Driver/Src/stm32n6xx_hal_dma.c ****   */
 217:STM32Cube_FW_N6/Drivers/STM32N6xx_HAL_Driver/Src/stm32n6xx_hal_dma.c **** 
 218:STM32Cube_FW_N6/Drivers/STM32N6xx_HAL_Driver/Src/stm32n6xx_hal_dma.c **** /* Includes ---------------------------------------------------------------------------------------
 219:STM32Cube_FW_N6/Drivers/STM32N6xx_HAL_Driver/Src/stm32n6xx_hal_dma.c **** #include "stm32n6xx_hal.h"
 220:STM32Cube_FW_N6/Drivers/STM32N6xx_HAL_Driver/Src/stm32n6xx_hal_dma.c **** 
 221:STM32Cube_FW_N6/Drivers/STM32N6xx_HAL_Driver/Src/stm32n6xx_hal_dma.c **** /** @addtogroup STM32N6xx_HAL_Driver
 222:STM32Cube_FW_N6/Drivers/STM32N6xx_HAL_Driver/Src/stm32n6xx_hal_dma.c ****   * @{
 223:STM32Cube_FW_N6/Drivers/STM32N6xx_HAL_Driver/Src/stm32n6xx_hal_dma.c ****   */
 224:STM32Cube_FW_N6/Drivers/STM32N6xx_HAL_Driver/Src/stm32n6xx_hal_dma.c **** 
 225:STM32Cube_FW_N6/Drivers/STM32N6xx_HAL_Driver/Src/stm32n6xx_hal_dma.c **** /** @defgroup DMA DMA
 226:STM32Cube_FW_N6/Drivers/STM32N6xx_HAL_Driver/Src/stm32n6xx_hal_dma.c ****   * @brief DMA HAL module driver
 227:STM32Cube_FW_N6/Drivers/STM32N6xx_HAL_Driver/Src/stm32n6xx_hal_dma.c ****   * @{
 228:STM32Cube_FW_N6/Drivers/STM32N6xx_HAL_Driver/Src/stm32n6xx_hal_dma.c ****   */
 229:STM32Cube_FW_N6/Drivers/STM32N6xx_HAL_Driver/Src/stm32n6xx_hal_dma.c **** 
 230:STM32Cube_FW_N6/Drivers/STM32N6xx_HAL_Driver/Src/stm32n6xx_hal_dma.c **** #ifdef HAL_DMA_MODULE_ENABLED
 231:STM32Cube_FW_N6/Drivers/STM32N6xx_HAL_Driver/Src/stm32n6xx_hal_dma.c **** 
 232:STM32Cube_FW_N6/Drivers/STM32N6xx_HAL_Driver/Src/stm32n6xx_hal_dma.c **** /* Private typedef --------------------------------------------------------------------------------
 233:STM32Cube_FW_N6/Drivers/STM32N6xx_HAL_Driver/Src/stm32n6xx_hal_dma.c **** /* Private constants ------------------------------------------------------------------------------
 234:STM32Cube_FW_N6/Drivers/STM32N6xx_HAL_Driver/Src/stm32n6xx_hal_dma.c **** /* Private macro ----------------------------------------------------------------------------------
 235:STM32Cube_FW_N6/Drivers/STM32N6xx_HAL_Driver/Src/stm32n6xx_hal_dma.c **** /* Private variables ------------------------------------------------------------------------------
 236:STM32Cube_FW_N6/Drivers/STM32N6xx_HAL_Driver/Src/stm32n6xx_hal_dma.c **** /* Private function prototypes --------------------------------------------------------------------
 237:STM32Cube_FW_N6/Drivers/STM32N6xx_HAL_Driver/Src/stm32n6xx_hal_dma.c **** static void DMA_SetConfig(DMA_HandleTypeDef const *const hdma,
 238:STM32Cube_FW_N6/Drivers/STM32N6xx_HAL_Driver/Src/stm32n6xx_hal_dma.c ****                           uint32_t SrcAddress,
 239:STM32Cube_FW_N6/Drivers/STM32N6xx_HAL_Driver/Src/stm32n6xx_hal_dma.c ****                           uint32_t DstAddress,
 240:STM32Cube_FW_N6/Drivers/STM32N6xx_HAL_Driver/Src/stm32n6xx_hal_dma.c ****                           uint32_t SrcDataSize);
ARM GAS  C:\Users\DJESSOU\AppData\Local\Temp\ccEz5zGK.s 			page 6


 241:STM32Cube_FW_N6/Drivers/STM32N6xx_HAL_Driver/Src/stm32n6xx_hal_dma.c **** static void DMA_Init(DMA_HandleTypeDef const *const hdma);
 242:STM32Cube_FW_N6/Drivers/STM32N6xx_HAL_Driver/Src/stm32n6xx_hal_dma.c **** 
 243:STM32Cube_FW_N6/Drivers/STM32N6xx_HAL_Driver/Src/stm32n6xx_hal_dma.c **** /* Exported functions -----------------------------------------------------------------------------
 244:STM32Cube_FW_N6/Drivers/STM32N6xx_HAL_Driver/Src/stm32n6xx_hal_dma.c **** 
 245:STM32Cube_FW_N6/Drivers/STM32N6xx_HAL_Driver/Src/stm32n6xx_hal_dma.c **** /** @addtogroup DMA_Exported_Functions DMA Exported Functions
 246:STM32Cube_FW_N6/Drivers/STM32N6xx_HAL_Driver/Src/stm32n6xx_hal_dma.c ****   * @{
 247:STM32Cube_FW_N6/Drivers/STM32N6xx_HAL_Driver/Src/stm32n6xx_hal_dma.c ****   */
 248:STM32Cube_FW_N6/Drivers/STM32N6xx_HAL_Driver/Src/stm32n6xx_hal_dma.c **** 
 249:STM32Cube_FW_N6/Drivers/STM32N6xx_HAL_Driver/Src/stm32n6xx_hal_dma.c **** /** @addtogroup DMA_Exported_Functions_Group1
 250:STM32Cube_FW_N6/Drivers/STM32N6xx_HAL_Driver/Src/stm32n6xx_hal_dma.c ****   *
 251:STM32Cube_FW_N6/Drivers/STM32N6xx_HAL_Driver/Src/stm32n6xx_hal_dma.c **** @verbatim
 252:STM32Cube_FW_N6/Drivers/STM32N6xx_HAL_Driver/Src/stm32n6xx_hal_dma.c ****   =================================================================================================
 253:STM32Cube_FW_N6/Drivers/STM32N6xx_HAL_Driver/Src/stm32n6xx_hal_dma.c ****                        ##### Initialization and de-initialization functions #####
 254:STM32Cube_FW_N6/Drivers/STM32N6xx_HAL_Driver/Src/stm32n6xx_hal_dma.c ****   =================================================================================================
 255:STM32Cube_FW_N6/Drivers/STM32N6xx_HAL_Driver/Src/stm32n6xx_hal_dma.c ****     [..]
 256:STM32Cube_FW_N6/Drivers/STM32N6xx_HAL_Driver/Src/stm32n6xx_hal_dma.c ****       This section provides functions allowing to initialize and de-initialize the DMA channel in n
 257:STM32Cube_FW_N6/Drivers/STM32N6xx_HAL_Driver/Src/stm32n6xx_hal_dma.c **** 
 258:STM32Cube_FW_N6/Drivers/STM32N6xx_HAL_Driver/Src/stm32n6xx_hal_dma.c ****     [..]
 259:STM32Cube_FW_N6/Drivers/STM32N6xx_HAL_Driver/Src/stm32n6xx_hal_dma.c ****       (+) The HAL_DMA_Init() function follows the DMA channel configuration procedures as described
 260:STM32Cube_FW_N6/Drivers/STM32N6xx_HAL_Driver/Src/stm32n6xx_hal_dma.c ****       (+) The HAL_DMA_DeInit() function allows to de-initialize the DMA channel.
 261:STM32Cube_FW_N6/Drivers/STM32N6xx_HAL_Driver/Src/stm32n6xx_hal_dma.c **** 
 262:STM32Cube_FW_N6/Drivers/STM32N6xx_HAL_Driver/Src/stm32n6xx_hal_dma.c **** @endverbatim
 263:STM32Cube_FW_N6/Drivers/STM32N6xx_HAL_Driver/Src/stm32n6xx_hal_dma.c ****   * @{
 264:STM32Cube_FW_N6/Drivers/STM32N6xx_HAL_Driver/Src/stm32n6xx_hal_dma.c ****   */
 265:STM32Cube_FW_N6/Drivers/STM32N6xx_HAL_Driver/Src/stm32n6xx_hal_dma.c **** 
 266:STM32Cube_FW_N6/Drivers/STM32N6xx_HAL_Driver/Src/stm32n6xx_hal_dma.c **** /**
 267:STM32Cube_FW_N6/Drivers/STM32N6xx_HAL_Driver/Src/stm32n6xx_hal_dma.c ****   * @brief  Initialize the DMA channel in normal mode according to the specified parameters in the 
 268:STM32Cube_FW_N6/Drivers/STM32N6xx_HAL_Driver/Src/stm32n6xx_hal_dma.c ****   *         create the associated handle.
 269:STM32Cube_FW_N6/Drivers/STM32N6xx_HAL_Driver/Src/stm32n6xx_hal_dma.c ****   * @note   Warning: the maximum allowed AXI burst length shall not exceed 16.
 270:STM32Cube_FW_N6/Drivers/STM32N6xx_HAL_Driver/Src/stm32n6xx_hal_dma.c ****   *         Otherwise, an error will be returned and no initialization performed.
 271:STM32Cube_FW_N6/Drivers/STM32N6xx_HAL_Driver/Src/stm32n6xx_hal_dma.c ****   * @param  hdma : Pointer to a DMA_HandleTypeDef structure that contains the configuration informa
 272:STM32Cube_FW_N6/Drivers/STM32N6xx_HAL_Driver/Src/stm32n6xx_hal_dma.c ****   *                specified DMA Channel.
 273:STM32Cube_FW_N6/Drivers/STM32N6xx_HAL_Driver/Src/stm32n6xx_hal_dma.c ****   * @retval HAL status.
 274:STM32Cube_FW_N6/Drivers/STM32N6xx_HAL_Driver/Src/stm32n6xx_hal_dma.c ****   */
 275:STM32Cube_FW_N6/Drivers/STM32N6xx_HAL_Driver/Src/stm32n6xx_hal_dma.c **** HAL_StatusTypeDef HAL_DMA_Init(DMA_HandleTypeDef *const hdma)
 276:STM32Cube_FW_N6/Drivers/STM32N6xx_HAL_Driver/Src/stm32n6xx_hal_dma.c **** {
  39              		.loc 1 276 1 view -0
  40              		.cfi_startproc
  41              		@ args = 0, pretend = 0, frame = 0
  42              		@ frame_needed = 0, uses_anonymous_args = 0
 277:STM32Cube_FW_N6/Drivers/STM32N6xx_HAL_Driver/Src/stm32n6xx_hal_dma.c ****   /* Get tick number */
 278:STM32Cube_FW_N6/Drivers/STM32N6xx_HAL_Driver/Src/stm32n6xx_hal_dma.c ****   uint32_t tickstart = HAL_GetTick();
  43              		.loc 1 278 3 view .LVU1
 276:STM32Cube_FW_N6/Drivers/STM32N6xx_HAL_Driver/Src/stm32n6xx_hal_dma.c ****   /* Get tick number */
  44              		.loc 1 276 1 is_stmt 0 view .LVU2
  45 0000 F8B5     		push	{r3, r4, r5, r6, r7, lr}
  46              		.cfi_def_cfa_offset 24
  47              		.cfi_offset 3, -24
  48              		.cfi_offset 4, -20
  49              		.cfi_offset 5, -16
  50              		.cfi_offset 6, -12
  51              		.cfi_offset 7, -8
  52              		.cfi_offset 14, -4
 276:STM32Cube_FW_N6/Drivers/STM32N6xx_HAL_Driver/Src/stm32n6xx_hal_dma.c ****   /* Get tick number */
  53              		.loc 1 276 1 view .LVU3
  54 0002 0446     		mov	r4, r0
  55              		.loc 1 278 24 view .LVU4
ARM GAS  C:\Users\DJESSOU\AppData\Local\Temp\ccEz5zGK.s 			page 7


  56 0004 FFF7FEFF 		bl	HAL_GetTick
  57              	.LVL1:
  58              		.loc 1 278 24 view .LVU5
  59 0008 0646     		mov	r6, r0
  60              	.LVL2:
 279:STM32Cube_FW_N6/Drivers/STM32N6xx_HAL_Driver/Src/stm32n6xx_hal_dma.c **** 
 280:STM32Cube_FW_N6/Drivers/STM32N6xx_HAL_Driver/Src/stm32n6xx_hal_dma.c ****   /* Check the DMA peripheral handle parameter */
 281:STM32Cube_FW_N6/Drivers/STM32N6xx_HAL_Driver/Src/stm32n6xx_hal_dma.c ****   if (hdma == NULL)
  61              		.loc 1 281 3 is_stmt 1 view .LVU6
  62              		.loc 1 281 6 is_stmt 0 view .LVU7
  63 000a 002C     		cmp	r4, #0
  64 000c 00F04287 		beq	.L3
 282:STM32Cube_FW_N6/Drivers/STM32N6xx_HAL_Driver/Src/stm32n6xx_hal_dma.c ****   {
 283:STM32Cube_FW_N6/Drivers/STM32N6xx_HAL_Driver/Src/stm32n6xx_hal_dma.c ****     return HAL_ERROR;
 284:STM32Cube_FW_N6/Drivers/STM32N6xx_HAL_Driver/Src/stm32n6xx_hal_dma.c ****   }
 285:STM32Cube_FW_N6/Drivers/STM32N6xx_HAL_Driver/Src/stm32n6xx_hal_dma.c **** 
 286:STM32Cube_FW_N6/Drivers/STM32N6xx_HAL_Driver/Src/stm32n6xx_hal_dma.c ****   /* Check the parameters */
 287:STM32Cube_FW_N6/Drivers/STM32N6xx_HAL_Driver/Src/stm32n6xx_hal_dma.c ****   assert_param(IS_DMA_ALL_INSTANCE(hdma->Instance));
  65              		.loc 1 287 3 is_stmt 1 view .LVU8
  66 0010 2368     		ldr	r3, [r4]
  67 0012 BF4F     		ldr	r7, .L69
  68 0014 BB42     		cmp	r3, r7
  69 0016 00F04381 		beq	.L4
  70              		.loc 1 287 3 is_stmt 0 discriminator 1 view .LVU9
  71 001a BE4A     		ldr	r2, .L69+4
  72 001c 9342     		cmp	r3, r2
  73 001e 00F03F81 		beq	.L4
  74              		.loc 1 287 3 discriminator 2 view .LVU10
  75 0022 02F18052 		add	r2, r2, #268435456
  76 0026 8032     		adds	r2, r2, #128
  77 0028 9342     		cmp	r3, r2
  78 002a 00F03981 		beq	.L4
  79              		.loc 1 287 3 discriminator 3 view .LVU11
  80 002e 02F17042 		add	r2, r2, #-268435456
  81 0032 9342     		cmp	r3, r2
  82 0034 00F03481 		beq	.L4
  83              		.loc 1 287 3 discriminator 4 view .LVU12
  84 0038 02F18052 		add	r2, r2, #268435456
  85 003c 8032     		adds	r2, r2, #128
  86 003e 9342     		cmp	r3, r2
  87 0040 00F02E81 		beq	.L4
  88              		.loc 1 287 3 discriminator 5 view .LVU13
  89 0044 02F17042 		add	r2, r2, #-268435456
  90 0048 9342     		cmp	r3, r2
  91 004a 00F02981 		beq	.L4
  92              		.loc 1 287 3 discriminator 6 view .LVU14
  93 004e 02F18052 		add	r2, r2, #268435456
  94 0052 8032     		adds	r2, r2, #128
  95 0054 9342     		cmp	r3, r2
  96 0056 00F02381 		beq	.L4
  97              		.loc 1 287 3 discriminator 7 view .LVU15
  98 005a 02F17042 		add	r2, r2, #-268435456
  99 005e 9342     		cmp	r3, r2
 100 0060 00F01E81 		beq	.L4
 101              		.loc 1 287 3 discriminator 8 view .LVU16
 102 0064 02F18052 		add	r2, r2, #268435456
 103 0068 8032     		adds	r2, r2, #128
ARM GAS  C:\Users\DJESSOU\AppData\Local\Temp\ccEz5zGK.s 			page 8


 104 006a 9342     		cmp	r3, r2
 105 006c 00F01881 		beq	.L4
 106              		.loc 1 287 3 discriminator 9 view .LVU17
 107 0070 02F17042 		add	r2, r2, #-268435456
 108 0074 9342     		cmp	r3, r2
 109 0076 00F01381 		beq	.L4
 110              		.loc 1 287 3 discriminator 10 view .LVU18
 111 007a 02F18052 		add	r2, r2, #268435456
 112 007e 8032     		adds	r2, r2, #128
 113 0080 9342     		cmp	r3, r2
 114 0082 00F00D81 		beq	.L4
 115              		.loc 1 287 3 discriminator 11 view .LVU19
 116 0086 02F17042 		add	r2, r2, #-268435456
 117 008a 9342     		cmp	r3, r2
 118 008c 00F00881 		beq	.L4
 119              		.loc 1 287 3 discriminator 12 view .LVU20
 120 0090 02F18052 		add	r2, r2, #268435456
 121 0094 8032     		adds	r2, r2, #128
 122 0096 9342     		cmp	r3, r2
 123 0098 00F00281 		beq	.L4
 124              		.loc 1 287 3 discriminator 13 view .LVU21
 125 009c 02F17042 		add	r2, r2, #-268435456
 126 00a0 9342     		cmp	r3, r2
 127 00a2 00F0FD80 		beq	.L4
 128              		.loc 1 287 3 discriminator 14 view .LVU22
 129 00a6 02F18052 		add	r2, r2, #268435456
 130 00aa 8032     		adds	r2, r2, #128
 131 00ac 9342     		cmp	r3, r2
 132 00ae 00F0F780 		beq	.L4
 133              		.loc 1 287 3 discriminator 15 view .LVU23
 134 00b2 02F17042 		add	r2, r2, #-268435456
 135 00b6 9342     		cmp	r3, r2
 136 00b8 00F0F280 		beq	.L4
 137              		.loc 1 287 3 discriminator 16 view .LVU24
 138 00bc 02F18052 		add	r2, r2, #268435456
 139 00c0 8032     		adds	r2, r2, #128
 140 00c2 9342     		cmp	r3, r2
 141 00c4 00F0EC80 		beq	.L4
 142              		.loc 1 287 3 discriminator 17 view .LVU25
 143 00c8 02F17042 		add	r2, r2, #-268435456
 144 00cc 9342     		cmp	r3, r2
 145 00ce 00F0E780 		beq	.L4
 146              		.loc 1 287 3 discriminator 18 view .LVU26
 147 00d2 02F18052 		add	r2, r2, #268435456
 148 00d6 8032     		adds	r2, r2, #128
 149 00d8 9342     		cmp	r3, r2
 150 00da 00F0E180 		beq	.L4
 151              		.loc 1 287 3 discriminator 19 view .LVU27
 152 00de 02F17042 		add	r2, r2, #-268435456
 153 00e2 9342     		cmp	r3, r2
 154 00e4 00F0DC80 		beq	.L4
 155              		.loc 1 287 3 discriminator 20 view .LVU28
 156 00e8 02F18052 		add	r2, r2, #268435456
 157 00ec 8032     		adds	r2, r2, #128
 158 00ee 9342     		cmp	r3, r2
 159 00f0 00F0D680 		beq	.L4
 160              		.loc 1 287 3 discriminator 21 view .LVU29
ARM GAS  C:\Users\DJESSOU\AppData\Local\Temp\ccEz5zGK.s 			page 9


 161 00f4 02F17042 		add	r2, r2, #-268435456
 162 00f8 9342     		cmp	r3, r2
 163 00fa 00F0D180 		beq	.L4
 164              		.loc 1 287 3 discriminator 22 view .LVU30
 165 00fe 02F18052 		add	r2, r2, #268435456
 166 0102 8032     		adds	r2, r2, #128
 167 0104 9342     		cmp	r3, r2
 168 0106 00F0CB80 		beq	.L4
 169              		.loc 1 287 3 discriminator 23 view .LVU31
 170 010a 02F17042 		add	r2, r2, #-268435456
 171 010e 9342     		cmp	r3, r2
 172 0110 00F0C680 		beq	.L4
 173              		.loc 1 287 3 discriminator 24 view .LVU32
 174 0114 02F18052 		add	r2, r2, #268435456
 175 0118 8032     		adds	r2, r2, #128
 176 011a 9342     		cmp	r3, r2
 177 011c 00F0C080 		beq	.L4
 178              		.loc 1 287 3 discriminator 25 view .LVU33
 179 0120 02F17042 		add	r2, r2, #-268435456
 180 0124 9342     		cmp	r3, r2
 181 0126 00F0BB80 		beq	.L4
 182              		.loc 1 287 3 discriminator 26 view .LVU34
 183 012a 02F18052 		add	r2, r2, #268435456
 184 012e 8032     		adds	r2, r2, #128
 185 0130 9342     		cmp	r3, r2
 186 0132 00F0B580 		beq	.L4
 187              		.loc 1 287 3 discriminator 27 view .LVU35
 188 0136 02F17042 		add	r2, r2, #-268435456
 189 013a 9342     		cmp	r3, r2
 190 013c 00F0B080 		beq	.L4
 191              		.loc 1 287 3 discriminator 28 view .LVU36
 192 0140 02F18052 		add	r2, r2, #268435456
 193 0144 8032     		adds	r2, r2, #128
 194 0146 9342     		cmp	r3, r2
 195 0148 00F0AA80 		beq	.L4
 196              		.loc 1 287 3 discriminator 29 view .LVU37
 197 014c 02F17042 		add	r2, r2, #-268435456
 198 0150 9342     		cmp	r3, r2
 199 0152 00F0A580 		beq	.L4
 200              		.loc 1 287 3 discriminator 30 view .LVU38
 201 0156 02F18052 		add	r2, r2, #268435456
 202 015a 8032     		adds	r2, r2, #128
 203 015c 9342     		cmp	r3, r2
 204 015e 00F09F80 		beq	.L4
 205              		.loc 1 287 3 discriminator 31 view .LVU39
 206 0162 02F17042 		add	r2, r2, #-268435456
 207 0166 9342     		cmp	r3, r2
 208 0168 00F09A80 		beq	.L4
 209              		.loc 1 287 3 discriminator 32 view .LVU40
 210 016c 02F1C052 		add	r2, r2, #402653184
 211 0170 A2F5BC52 		sub	r2, r2, #6016
 212 0174 9342     		cmp	r3, r2
 213 0176 00F09380 		beq	.L4
 214              		.loc 1 287 3 discriminator 33 view .LVU41
 215 017a 02F17042 		add	r2, r2, #-268435456
 216 017e 9342     		cmp	r3, r2
 217 0180 00F08E80 		beq	.L4
ARM GAS  C:\Users\DJESSOU\AppData\Local\Temp\ccEz5zGK.s 			page 10


 218              		.loc 1 287 3 discriminator 34 view .LVU42
 219 0184 02F18052 		add	r2, r2, #268435456
 220 0188 8032     		adds	r2, r2, #128
 221 018a 9342     		cmp	r3, r2
 222 018c 00F08880 		beq	.L4
 223              		.loc 1 287 3 discriminator 35 view .LVU43
 224 0190 02F17042 		add	r2, r2, #-268435456
 225 0194 9342     		cmp	r3, r2
 226 0196 00F08380 		beq	.L4
 227              		.loc 1 287 3 discriminator 36 view .LVU44
 228 019a 02F18052 		add	r2, r2, #268435456
 229 019e 8032     		adds	r2, r2, #128
 230 01a0 9342     		cmp	r3, r2
 231 01a2 7DD0     		beq	.L4
 232              		.loc 1 287 3 discriminator 37 view .LVU45
 233 01a4 02F17042 		add	r2, r2, #-268435456
 234 01a8 9342     		cmp	r3, r2
 235 01aa 79D0     		beq	.L4
 236              		.loc 1 287 3 discriminator 38 view .LVU46
 237 01ac 02F18052 		add	r2, r2, #268435456
 238 01b0 8032     		adds	r2, r2, #128
 239 01b2 9342     		cmp	r3, r2
 240 01b4 74D0     		beq	.L4
 241              		.loc 1 287 3 discriminator 39 view .LVU47
 242 01b6 02F17042 		add	r2, r2, #-268435456
 243 01ba 9342     		cmp	r3, r2
 244 01bc 70D0     		beq	.L4
 245              		.loc 1 287 3 discriminator 40 view .LVU48
 246 01be 02F18052 		add	r2, r2, #268435456
 247 01c2 8032     		adds	r2, r2, #128
 248 01c4 9342     		cmp	r3, r2
 249 01c6 6BD0     		beq	.L4
 250              		.loc 1 287 3 discriminator 41 view .LVU49
 251 01c8 02F17042 		add	r2, r2, #-268435456
 252 01cc 9342     		cmp	r3, r2
 253 01ce 67D0     		beq	.L4
 254              		.loc 1 287 3 discriminator 42 view .LVU50
 255 01d0 02F18052 		add	r2, r2, #268435456
 256 01d4 8032     		adds	r2, r2, #128
 257 01d6 9342     		cmp	r3, r2
 258 01d8 62D0     		beq	.L4
 259              		.loc 1 287 3 discriminator 43 view .LVU51
 260 01da 02F17042 		add	r2, r2, #-268435456
 261 01de 9342     		cmp	r3, r2
 262 01e0 5ED0     		beq	.L4
 263              		.loc 1 287 3 discriminator 44 view .LVU52
 264 01e2 02F18052 		add	r2, r2, #268435456
 265 01e6 8032     		adds	r2, r2, #128
 266 01e8 9342     		cmp	r3, r2
 267 01ea 59D0     		beq	.L4
 268              		.loc 1 287 3 discriminator 45 view .LVU53
 269 01ec 02F17042 		add	r2, r2, #-268435456
 270 01f0 9342     		cmp	r3, r2
 271 01f2 55D0     		beq	.L4
 272              		.loc 1 287 3 discriminator 46 view .LVU54
 273 01f4 02F18052 		add	r2, r2, #268435456
 274 01f8 8032     		adds	r2, r2, #128
ARM GAS  C:\Users\DJESSOU\AppData\Local\Temp\ccEz5zGK.s 			page 11


 275 01fa 9342     		cmp	r3, r2
 276 01fc 50D0     		beq	.L4
 277              		.loc 1 287 3 discriminator 47 view .LVU55
 278 01fe 02F17042 		add	r2, r2, #-268435456
 279 0202 9342     		cmp	r3, r2
 280 0204 4CD0     		beq	.L4
 281              		.loc 1 287 3 discriminator 48 view .LVU56
 282 0206 02F18052 		add	r2, r2, #268435456
 283 020a 8032     		adds	r2, r2, #128
 284 020c 9342     		cmp	r3, r2
 285 020e 47D0     		beq	.L4
 286              		.loc 1 287 3 discriminator 49 view .LVU57
 287 0210 02F17042 		add	r2, r2, #-268435456
 288 0214 9342     		cmp	r3, r2
 289 0216 43D0     		beq	.L4
 290              		.loc 1 287 3 discriminator 50 view .LVU58
 291 0218 02F18052 		add	r2, r2, #268435456
 292 021c 8032     		adds	r2, r2, #128
 293 021e 9342     		cmp	r3, r2
 294 0220 3ED0     		beq	.L4
 295              		.loc 1 287 3 discriminator 51 view .LVU59
 296 0222 02F17042 		add	r2, r2, #-268435456
 297 0226 9342     		cmp	r3, r2
 298 0228 3AD0     		beq	.L4
 299              		.loc 1 287 3 discriminator 52 view .LVU60
 300 022a 02F18052 		add	r2, r2, #268435456
 301 022e 8032     		adds	r2, r2, #128
 302 0230 9342     		cmp	r3, r2
 303 0232 35D0     		beq	.L4
 304              		.loc 1 287 3 discriminator 53 view .LVU61
 305 0234 02F17042 		add	r2, r2, #-268435456
 306 0238 9342     		cmp	r3, r2
 307 023a 31D0     		beq	.L4
 308              		.loc 1 287 3 discriminator 54 view .LVU62
 309 023c 02F18052 		add	r2, r2, #268435456
 310 0240 8032     		adds	r2, r2, #128
 311 0242 9342     		cmp	r3, r2
 312 0244 2CD0     		beq	.L4
 313              		.loc 1 287 3 discriminator 55 view .LVU63
 314 0246 02F17042 		add	r2, r2, #-268435456
 315 024a 9342     		cmp	r3, r2
 316 024c 28D0     		beq	.L4
 317              		.loc 1 287 3 discriminator 56 view .LVU64
 318 024e 02F18052 		add	r2, r2, #268435456
 319 0252 8032     		adds	r2, r2, #128
 320 0254 9342     		cmp	r3, r2
 321 0256 23D0     		beq	.L4
 322              		.loc 1 287 3 discriminator 57 view .LVU65
 323 0258 02F17042 		add	r2, r2, #-268435456
 324 025c 9342     		cmp	r3, r2
 325 025e 1FD0     		beq	.L4
 326              		.loc 1 287 3 discriminator 58 view .LVU66
 327 0260 02F18052 		add	r2, r2, #268435456
 328 0264 8032     		adds	r2, r2, #128
 329 0266 9342     		cmp	r3, r2
 330 0268 1AD0     		beq	.L4
 331              		.loc 1 287 3 discriminator 59 view .LVU67
ARM GAS  C:\Users\DJESSOU\AppData\Local\Temp\ccEz5zGK.s 			page 12


 332 026a 02F17042 		add	r2, r2, #-268435456
 333 026e 9342     		cmp	r3, r2
 334 0270 16D0     		beq	.L4
 335              		.loc 1 287 3 discriminator 60 view .LVU68
 336 0272 02F18052 		add	r2, r2, #268435456
 337 0276 8032     		adds	r2, r2, #128
 338 0278 9342     		cmp	r3, r2
 339 027a 11D0     		beq	.L4
 340              		.loc 1 287 3 discriminator 61 view .LVU69
 341 027c 02F17042 		add	r2, r2, #-268435456
 342 0280 9342     		cmp	r3, r2
 343 0282 0DD0     		beq	.L4
 344              		.loc 1 287 3 discriminator 62 view .LVU70
 345 0284 02F18052 		add	r2, r2, #268435456
 346 0288 8032     		adds	r2, r2, #128
 347 028a 9342     		cmp	r3, r2
 348 028c 08D0     		beq	.L4
 349              		.loc 1 287 3 discriminator 63 view .LVU71
 350 028e 02F17042 		add	r2, r2, #-268435456
 351 0292 9342     		cmp	r3, r2
 352 0294 04D0     		beq	.L4
 353              		.loc 1 287 3 discriminator 64 view .LVU72
 354 0296 40F21F11 		movw	r1, #287
 355 029a 1F48     		ldr	r0, .L69+8
 356              	.LVL3:
 357              		.loc 1 287 3 discriminator 64 view .LVU73
 358 029c FFF7FEFF 		bl	assert_failed
 359              	.LVL4:
 360              	.L4:
 288:STM32Cube_FW_N6/Drivers/STM32N6xx_HAL_Driver/Src/stm32n6xx_hal_dma.c ****   assert_param(IS_DMA_DIRECTION(hdma->Init.Direction));
 361              		.loc 1 288 3 is_stmt 1 view .LVU74
 362 02a0 E368     		ldr	r3, [r4, #12]
 363 02a2 33F48062 		bics	r2, r3, #1024
 364 02a6 40F08185 		bne	.L5
 365              	.L10:
 289:STM32Cube_FW_N6/Drivers/STM32N6xx_HAL_Driver/Src/stm32n6xx_hal_dma.c ****   if (hdma->Init.Direction != DMA_MEMORY_TO_MEMORY)
 290:STM32Cube_FW_N6/Drivers/STM32N6xx_HAL_Driver/Src/stm32n6xx_hal_dma.c ****   {
 291:STM32Cube_FW_N6/Drivers/STM32N6xx_HAL_Driver/Src/stm32n6xx_hal_dma.c ****     assert_param(IS_DMA_REQUEST(hdma->Init.Request));
 366              		.loc 1 291 5 view .LVU75
 367 02aa 6368     		ldr	r3, [r4, #4]
 368 02ac B3F5007F 		cmp	r3, #512
 369 02b0 40F08C85 		bne	.L6
 370              	.L9:
 292:STM32Cube_FW_N6/Drivers/STM32N6xx_HAL_Driver/Src/stm32n6xx_hal_dma.c ****   }
 293:STM32Cube_FW_N6/Drivers/STM32N6xx_HAL_Driver/Src/stm32n6xx_hal_dma.c ****   assert_param(IS_DMA_BLOCK_HW_REQUEST(hdma->Init.BlkHWRequest));
 371              		.loc 1 293 3 view .LVU76
 372 02b4 A368     		ldr	r3, [r4, #8]
 373 02b6 33F40063 		bics	r3, r3, #2048
 374 02ba 04D0     		beq	.L11
 375              		.loc 1 293 3 is_stmt 0 discriminator 2 view .LVU77
 376 02bc 40F22511 		movw	r1, #293
 377 02c0 1548     		ldr	r0, .L69+8
 378 02c2 FFF7FEFF 		bl	assert_failed
 379              	.LVL5:
 380              	.L11:
 294:STM32Cube_FW_N6/Drivers/STM32N6xx_HAL_Driver/Src/stm32n6xx_hal_dma.c ****   assert_param(IS_DMA_SOURCE_INC(hdma->Init.SrcInc));
 381              		.loc 1 294 3 is_stmt 1 view .LVU78
ARM GAS  C:\Users\DJESSOU\AppData\Local\Temp\ccEz5zGK.s 			page 13


 382 02c6 2369     		ldr	r3, [r4, #16]
 383 02c8 33F00803 		bics	r3, r3, #8
 384 02cc 04D0     		beq	.L12
 385              		.loc 1 294 3 is_stmt 0 discriminator 2 view .LVU79
 386 02ce 4FF49371 		mov	r1, #294
 387 02d2 1148     		ldr	r0, .L69+8
 388 02d4 FFF7FEFF 		bl	assert_failed
 389              	.LVL6:
 390              	.L12:
 295:STM32Cube_FW_N6/Drivers/STM32N6xx_HAL_Driver/Src/stm32n6xx_hal_dma.c ****   assert_param(IS_DMA_DESTINATION_INC(hdma->Init.DestInc));
 391              		.loc 1 295 3 is_stmt 1 view .LVU80
 392 02d8 6369     		ldr	r3, [r4, #20]
 393 02da 33F40023 		bics	r3, r3, #524288
 394 02de 04D0     		beq	.L13
 395              		.loc 1 295 3 is_stmt 0 discriminator 2 view .LVU81
 396 02e0 40F22711 		movw	r1, #295
 397 02e4 0C48     		ldr	r0, .L69+8
 398 02e6 FFF7FEFF 		bl	assert_failed
 399              	.LVL7:
 400              	.L13:
 296:STM32Cube_FW_N6/Drivers/STM32N6xx_HAL_Driver/Src/stm32n6xx_hal_dma.c ****   assert_param(IS_DMA_SOURCE_DATA_WIDTH(hdma->Init.SrcDataWidth));
 401              		.loc 1 296 3 is_stmt 1 view .LVU82
 402 02ea A369     		ldr	r3, [r4, #24]
 403 02ec 032B     		cmp	r3, #3
 404 02ee 04D9     		bls	.L14
 405              		.loc 1 296 3 is_stmt 0 discriminator 1 view .LVU83
 406 02f0 4FF49471 		mov	r1, #296
 407 02f4 0848     		ldr	r0, .L69+8
 408 02f6 FFF7FEFF 		bl	assert_failed
 409              	.LVL8:
 410              	.L14:
 297:STM32Cube_FW_N6/Drivers/STM32N6xx_HAL_Driver/Src/stm32n6xx_hal_dma.c ****   assert_param(IS_DMA_DESTINATION_DATA_WIDTH(hdma->Init.DestDataWidth));
 411              		.loc 1 297 3 is_stmt 1 view .LVU84
 412 02fa E369     		ldr	r3, [r4, #28]
 413 02fc 33F44033 		bics	r3, r3, #196608
 414 0300 0CD0     		beq	.L15
 415              		.loc 1 297 3 is_stmt 0 discriminator 4 view .LVU85
 416 0302 40F22911 		movw	r1, #297
 417 0306 0448     		ldr	r0, .L69+8
 418 0308 FFF7FEFF 		bl	assert_failed
 419              	.LVL9:
 420 030c 06E0     		b	.L70
 421              	.L71:
 422 030e 00BF     		.align	2
 423              	.L69:
 424 0310 50100250 		.word	1342312528
 425 0314 50100240 		.word	1073877072
 426 0318 00000000 		.word	.LC0
 427              	.L70:
 428              	.L15:
 298:STM32Cube_FW_N6/Drivers/STM32N6xx_HAL_Driver/Src/stm32n6xx_hal_dma.c ****   assert_param(IS_DMA_PRIORITY(hdma->Init.Priority));
 429              		.loc 1 298 3 is_stmt 1 view .LVU86
 430 031c 236A     		ldr	r3, [r4, #32]
 431 031e 33F44003 		bics	r3, r3, #12582912
 432 0322 04D0     		beq	.L16
 433              		.loc 1 298 3 is_stmt 0 discriminator 4 view .LVU87
 434 0324 4FF49571 		mov	r1, #298
ARM GAS  C:\Users\DJESSOU\AppData\Local\Temp\ccEz5zGK.s 			page 14


 435 0328 BD48     		ldr	r0, .L72
 436 032a FFF7FEFF 		bl	assert_failed
 437              	.LVL10:
 438              	.L16:
 299:STM32Cube_FW_N6/Drivers/STM32N6xx_HAL_Driver/Src/stm32n6xx_hal_dma.c ****   assert_param(IS_DMA_TCEM_EVENT_MODE(hdma->Init.TransferEventMode));
 439              		.loc 1 299 3 is_stmt 1 view .LVU88
 440 032e 236B     		ldr	r3, [r4, #48]
 441 0330 33F04043 		bics	r3, r3, #-1073741824
 442 0334 04D0     		beq	.L17
 443              		.loc 1 299 3 is_stmt 0 discriminator 4 view .LVU89
 444 0336 40F22B11 		movw	r1, #299
 445 033a B948     		ldr	r0, .L72
 446 033c FFF7FEFF 		bl	assert_failed
 447              	.LVL11:
 448              	.L17:
 300:STM32Cube_FW_N6/Drivers/STM32N6xx_HAL_Driver/Src/stm32n6xx_hal_dma.c ****   assert_param(IS_DMA_MODE(hdma->Init.Mode));
 449              		.loc 1 300 3 is_stmt 1 view .LVU90
 450 0340 636B     		ldr	r3, [r4, #52]
 451 0342 B84D     		ldr	r5, .L72+4
 452 0344 3BB1     		cbz	r3, .L19
 453              		.loc 1 300 3 is_stmt 0 discriminator 1 view .LVU91
 454 0346 B3F5805F 		cmp	r3, #4096
 455 034a 40F04985 		bne	.L20
 456              	.L23:
 301:STM32Cube_FW_N6/Drivers/STM32N6xx_HAL_Driver/Src/stm32n6xx_hal_dma.c ****   if (hdma->Init.Mode == DMA_PFCTRL)
 302:STM32Cube_FW_N6/Drivers/STM32N6xx_HAL_Driver/Src/stm32n6xx_hal_dma.c ****   {
 303:STM32Cube_FW_N6/Drivers/STM32N6xx_HAL_Driver/Src/stm32n6xx_hal_dma.c ****     assert_param(IS_DMA_PFREQ_INSTANCE(hdma->Instance));
 457              		.loc 1 303 5 is_stmt 1 view .LVU92
 458 034e 2368     		ldr	r3, [r4]
 459 0350 BB42     		cmp	r3, r7
 460 0352 40F05185 		bne	.L21
 461              	.L19:
 304:STM32Cube_FW_N6/Drivers/STM32N6xx_HAL_Driver/Src/stm32n6xx_hal_dma.c ****   }
 305:STM32Cube_FW_N6/Drivers/STM32N6xx_HAL_Driver/Src/stm32n6xx_hal_dma.c ****   /* Check DMA channel instance */
 306:STM32Cube_FW_N6/Drivers/STM32N6xx_HAL_Driver/Src/stm32n6xx_hal_dma.c ****   if ((IS_HPDMA_INSTANCE(hdma->Instance) != 0U) || (IS_GPDMA_INSTANCE(hdma->Instance) != 0U))
 462              		.loc 1 306 3 view .LVU93
 463              		.loc 1 306 8 is_stmt 0 view .LVU94
 464 0356 2368     		ldr	r3, [r4]
 465 0358 AB42     		cmp	r3, r5
 466 035a 00F03C81 		beq	.L24
 467              		.loc 1 306 8 discriminator 2 view .LVU95
 468 035e B24A     		ldr	r2, .L72+8
 469 0360 9342     		cmp	r3, r2
 470 0362 00F03881 		beq	.L24
 471              		.loc 1 306 8 discriminator 4 view .LVU96
 472 0366 02F18052 		add	r2, r2, #268435456
 473 036a 8032     		adds	r2, r2, #128
 474 036c 9342     		cmp	r3, r2
 475 036e 00F03281 		beq	.L24
 476              		.loc 1 306 8 discriminator 6 view .LVU97
 477 0372 02F17042 		add	r2, r2, #-268435456
 478 0376 9342     		cmp	r3, r2
 479 0378 00F02D81 		beq	.L24
 480              		.loc 1 306 8 discriminator 8 view .LVU98
 481 037c 02F18052 		add	r2, r2, #268435456
 482 0380 8032     		adds	r2, r2, #128
 483 0382 9342     		cmp	r3, r2
ARM GAS  C:\Users\DJESSOU\AppData\Local\Temp\ccEz5zGK.s 			page 15


 484 0384 00F02781 		beq	.L24
 485              		.loc 1 306 8 discriminator 10 view .LVU99
 486 0388 02F17042 		add	r2, r2, #-268435456
 487 038c 9342     		cmp	r3, r2
 488 038e 00F02281 		beq	.L24
 489              		.loc 1 306 8 discriminator 12 view .LVU100
 490 0392 02F18052 		add	r2, r2, #268435456
 491 0396 8032     		adds	r2, r2, #128
 492 0398 9342     		cmp	r3, r2
 493 039a 00F01C81 		beq	.L24
 494              		.loc 1 306 8 discriminator 14 view .LVU101
 495 039e 02F17042 		add	r2, r2, #-268435456
 496 03a2 9342     		cmp	r3, r2
 497 03a4 00F01781 		beq	.L24
 498              		.loc 1 306 8 discriminator 16 view .LVU102
 499 03a8 02F18052 		add	r2, r2, #268435456
 500 03ac 8032     		adds	r2, r2, #128
 501 03ae 9342     		cmp	r3, r2
 502 03b0 00F01181 		beq	.L24
 503              		.loc 1 306 8 discriminator 18 view .LVU103
 504 03b4 02F17042 		add	r2, r2, #-268435456
 505 03b8 9342     		cmp	r3, r2
 506 03ba 00F00C81 		beq	.L24
 507              		.loc 1 306 8 discriminator 20 view .LVU104
 508 03be 02F18052 		add	r2, r2, #268435456
 509 03c2 8032     		adds	r2, r2, #128
 510 03c4 9342     		cmp	r3, r2
 511 03c6 00F00681 		beq	.L24
 512              		.loc 1 306 8 discriminator 22 view .LVU105
 513 03ca 02F17042 		add	r2, r2, #-268435456
 514 03ce 9342     		cmp	r3, r2
 515 03d0 00F00181 		beq	.L24
 516              		.loc 1 306 8 discriminator 24 view .LVU106
 517 03d4 02F18052 		add	r2, r2, #268435456
 518 03d8 8032     		adds	r2, r2, #128
 519 03da 9342     		cmp	r3, r2
 520 03dc 00F0FB80 		beq	.L24
 521              		.loc 1 306 8 discriminator 26 view .LVU107
 522 03e0 02F17042 		add	r2, r2, #-268435456
 523 03e4 9342     		cmp	r3, r2
 524 03e6 00F0F680 		beq	.L24
 525              		.loc 1 306 8 discriminator 28 view .LVU108
 526 03ea 02F18052 		add	r2, r2, #268435456
 527 03ee 8032     		adds	r2, r2, #128
 528 03f0 9342     		cmp	r3, r2
 529 03f2 00F0F080 		beq	.L24
 530              		.loc 1 306 8 discriminator 30 view .LVU109
 531 03f6 02F17042 		add	r2, r2, #-268435456
 532 03fa 9342     		cmp	r3, r2
 533 03fc 00F0EB80 		beq	.L24
 534              		.loc 1 306 8 discriminator 32 view .LVU110
 535 0400 02F18052 		add	r2, r2, #268435456
 536 0404 8032     		adds	r2, r2, #128
 537 0406 9342     		cmp	r3, r2
 538 0408 00F0E580 		beq	.L24
 539              		.loc 1 306 8 discriminator 34 view .LVU111
 540 040c 02F17042 		add	r2, r2, #-268435456
ARM GAS  C:\Users\DJESSOU\AppData\Local\Temp\ccEz5zGK.s 			page 16


 541 0410 9342     		cmp	r3, r2
 542 0412 00F0E080 		beq	.L24
 543              		.loc 1 306 8 discriminator 36 view .LVU112
 544 0416 02F18052 		add	r2, r2, #268435456
 545 041a 8032     		adds	r2, r2, #128
 546 041c 9342     		cmp	r3, r2
 547 041e 00F0DA80 		beq	.L24
 548              		.loc 1 306 8 discriminator 38 view .LVU113
 549 0422 02F17042 		add	r2, r2, #-268435456
 550 0426 9342     		cmp	r3, r2
 551 0428 00F0D580 		beq	.L24
 552              		.loc 1 306 8 discriminator 40 view .LVU114
 553 042c 02F18052 		add	r2, r2, #268435456
 554 0430 8032     		adds	r2, r2, #128
 555 0432 9342     		cmp	r3, r2
 556 0434 00F0CF80 		beq	.L24
 557              		.loc 1 306 8 discriminator 42 view .LVU115
 558 0438 02F17042 		add	r2, r2, #-268435456
 559 043c 9342     		cmp	r3, r2
 560 043e 00F0CA80 		beq	.L24
 561              		.loc 1 306 8 discriminator 44 view .LVU116
 562 0442 02F18052 		add	r2, r2, #268435456
 563 0446 8032     		adds	r2, r2, #128
 564 0448 9342     		cmp	r3, r2
 565 044a 00F0C480 		beq	.L24
 566              		.loc 1 306 8 discriminator 46 view .LVU117
 567 044e 02F17042 		add	r2, r2, #-268435456
 568 0452 9342     		cmp	r3, r2
 569 0454 00F0BF80 		beq	.L24
 570              		.loc 1 306 8 discriminator 48 view .LVU118
 571 0458 02F18052 		add	r2, r2, #268435456
 572 045c 8032     		adds	r2, r2, #128
 573 045e 9342     		cmp	r3, r2
 574 0460 00F0B980 		beq	.L24
 575              		.loc 1 306 8 discriminator 50 view .LVU119
 576 0464 02F17042 		add	r2, r2, #-268435456
 577 0468 9342     		cmp	r3, r2
 578 046a 00F0B480 		beq	.L24
 579              		.loc 1 306 8 discriminator 52 view .LVU120
 580 046e 02F18052 		add	r2, r2, #268435456
 581 0472 8032     		adds	r2, r2, #128
 582 0474 9342     		cmp	r3, r2
 583 0476 00F0AE80 		beq	.L24
 584              		.loc 1 306 8 discriminator 54 view .LVU121
 585 047a 02F17042 		add	r2, r2, #-268435456
 586 047e 9342     		cmp	r3, r2
 587 0480 00F0A980 		beq	.L24
 588              		.loc 1 306 8 discriminator 56 view .LVU122
 589 0484 02F18052 		add	r2, r2, #268435456
 590 0488 8032     		adds	r2, r2, #128
 591 048a 9342     		cmp	r3, r2
 592 048c 00F0A380 		beq	.L24
 593              		.loc 1 306 8 discriminator 58 view .LVU123
 594 0490 02F17042 		add	r2, r2, #-268435456
 595 0494 9342     		cmp	r3, r2
 596 0496 00F09E80 		beq	.L24
 597              		.loc 1 306 8 discriminator 60 view .LVU124
ARM GAS  C:\Users\DJESSOU\AppData\Local\Temp\ccEz5zGK.s 			page 17


 598 049a 02F18052 		add	r2, r2, #268435456
 599 049e 8032     		adds	r2, r2, #128
 600 04a0 9342     		cmp	r3, r2
 601 04a2 00F09880 		beq	.L24
 602              		.loc 1 306 8 discriminator 62 view .LVU125
 603 04a6 02F17042 		add	r2, r2, #-268435456
 604 04aa 9342     		cmp	r3, r2
 605 04ac 00F09380 		beq	.L24
 606              		.loc 1 306 53 discriminator 67 view .LVU126
 607 04b0 02F10822 		add	r2, r2, #134219776
 608 04b4 8032     		adds	r2, r2, #128
 609 04b6 9342     		cmp	r3, r2
 610 04b8 00F08D80 		beq	.L24
 611              		.loc 1 306 53 discriminator 69 view .LVU127
 612 04bc 02F17042 		add	r2, r2, #-268435456
 613 04c0 9342     		cmp	r3, r2
 614 04c2 00F08880 		beq	.L24
 615              		.loc 1 306 53 discriminator 71 view .LVU128
 616 04c6 02F18052 		add	r2, r2, #268435456
 617 04ca 8032     		adds	r2, r2, #128
 618 04cc 9342     		cmp	r3, r2
 619 04ce 00F08280 		beq	.L24
 620              		.loc 1 306 53 discriminator 73 view .LVU129
 621 04d2 02F17042 		add	r2, r2, #-268435456
 622 04d6 9342     		cmp	r3, r2
 623 04d8 7DD0     		beq	.L24
 624              		.loc 1 306 53 discriminator 75 view .LVU130
 625 04da 02F18052 		add	r2, r2, #268435456
 626 04de 8032     		adds	r2, r2, #128
 627 04e0 9342     		cmp	r3, r2
 628 04e2 78D0     		beq	.L24
 629              		.loc 1 306 53 discriminator 77 view .LVU131
 630 04e4 02F17042 		add	r2, r2, #-268435456
 631 04e8 9342     		cmp	r3, r2
 632 04ea 74D0     		beq	.L24
 633              		.loc 1 306 53 discriminator 79 view .LVU132
 634 04ec 02F18052 		add	r2, r2, #268435456
 635 04f0 8032     		adds	r2, r2, #128
 636 04f2 9342     		cmp	r3, r2
 637 04f4 6FD0     		beq	.L24
 638              		.loc 1 306 53 discriminator 81 view .LVU133
 639 04f6 02F17042 		add	r2, r2, #-268435456
 640 04fa 9342     		cmp	r3, r2
 641 04fc 6BD0     		beq	.L24
 642              		.loc 1 306 53 discriminator 83 view .LVU134
 643 04fe 02F18052 		add	r2, r2, #268435456
 644 0502 8032     		adds	r2, r2, #128
 645 0504 9342     		cmp	r3, r2
 646 0506 66D0     		beq	.L24
 647              		.loc 1 306 53 discriminator 85 view .LVU135
 648 0508 02F17042 		add	r2, r2, #-268435456
 649 050c 9342     		cmp	r3, r2
 650 050e 62D0     		beq	.L24
 651              		.loc 1 306 53 discriminator 87 view .LVU136
 652 0510 02F18052 		add	r2, r2, #268435456
 653 0514 8032     		adds	r2, r2, #128
 654 0516 9342     		cmp	r3, r2
ARM GAS  C:\Users\DJESSOU\AppData\Local\Temp\ccEz5zGK.s 			page 18


 655 0518 5DD0     		beq	.L24
 656              		.loc 1 306 53 discriminator 89 view .LVU137
 657 051a 02F17042 		add	r2, r2, #-268435456
 658 051e 9342     		cmp	r3, r2
 659 0520 59D0     		beq	.L24
 660              		.loc 1 306 53 discriminator 91 view .LVU138
 661 0522 02F18052 		add	r2, r2, #268435456
 662 0526 8032     		adds	r2, r2, #128
 663 0528 9342     		cmp	r3, r2
 664 052a 54D0     		beq	.L24
 665              		.loc 1 306 53 discriminator 93 view .LVU139
 666 052c 02F17042 		add	r2, r2, #-268435456
 667 0530 9342     		cmp	r3, r2
 668 0532 50D0     		beq	.L24
 669              		.loc 1 306 53 discriminator 95 view .LVU140
 670 0534 02F18052 		add	r2, r2, #268435456
 671 0538 8032     		adds	r2, r2, #128
 672 053a 9342     		cmp	r3, r2
 673 053c 4BD0     		beq	.L24
 674              		.loc 1 306 53 discriminator 97 view .LVU141
 675 053e 02F17042 		add	r2, r2, #-268435456
 676 0542 9342     		cmp	r3, r2
 677 0544 47D0     		beq	.L24
 678              		.loc 1 306 53 discriminator 99 view .LVU142
 679 0546 02F18052 		add	r2, r2, #268435456
 680 054a 8032     		adds	r2, r2, #128
 681 054c 9342     		cmp	r3, r2
 682 054e 42D0     		beq	.L24
 683              		.loc 1 306 53 discriminator 101 view .LVU143
 684 0550 02F17042 		add	r2, r2, #-268435456
 685 0554 9342     		cmp	r3, r2
 686 0556 3ED0     		beq	.L24
 687              		.loc 1 306 53 discriminator 103 view .LVU144
 688 0558 02F18052 		add	r2, r2, #268435456
 689 055c 8032     		adds	r2, r2, #128
 690 055e 9342     		cmp	r3, r2
 691 0560 39D0     		beq	.L24
 692              		.loc 1 306 53 discriminator 105 view .LVU145
 693 0562 02F17042 		add	r2, r2, #-268435456
 694 0566 9342     		cmp	r3, r2
 695 0568 35D0     		beq	.L24
 696              		.loc 1 306 53 discriminator 107 view .LVU146
 697 056a 02F18052 		add	r2, r2, #268435456
 698 056e 8032     		adds	r2, r2, #128
 699 0570 9342     		cmp	r3, r2
 700 0572 30D0     		beq	.L24
 701              		.loc 1 306 53 discriminator 109 view .LVU147
 702 0574 02F17042 		add	r2, r2, #-268435456
 703 0578 9342     		cmp	r3, r2
 704 057a 2CD0     		beq	.L24
 705              		.loc 1 306 53 discriminator 111 view .LVU148
 706 057c 02F18052 		add	r2, r2, #268435456
 707 0580 8032     		adds	r2, r2, #128
 708 0582 9342     		cmp	r3, r2
 709 0584 27D0     		beq	.L24
 710              		.loc 1 306 53 discriminator 113 view .LVU149
 711 0586 02F17042 		add	r2, r2, #-268435456
ARM GAS  C:\Users\DJESSOU\AppData\Local\Temp\ccEz5zGK.s 			page 19


 712 058a 9342     		cmp	r3, r2
 713 058c 23D0     		beq	.L24
 714              		.loc 1 306 53 discriminator 115 view .LVU150
 715 058e 02F18052 		add	r2, r2, #268435456
 716 0592 8032     		adds	r2, r2, #128
 717 0594 9342     		cmp	r3, r2
 718 0596 1ED0     		beq	.L24
 719              		.loc 1 306 53 discriminator 117 view .LVU151
 720 0598 02F17042 		add	r2, r2, #-268435456
 721 059c 9342     		cmp	r3, r2
 722 059e 1AD0     		beq	.L24
 723              		.loc 1 306 53 discriminator 119 view .LVU152
 724 05a0 02F18052 		add	r2, r2, #268435456
 725 05a4 8032     		adds	r2, r2, #128
 726 05a6 9342     		cmp	r3, r2
 727 05a8 15D0     		beq	.L24
 728              		.loc 1 306 53 discriminator 121 view .LVU153
 729 05aa 02F17042 		add	r2, r2, #-268435456
 730 05ae 9342     		cmp	r3, r2
 731 05b0 11D0     		beq	.L24
 732              		.loc 1 306 53 discriminator 123 view .LVU154
 733 05b2 02F18052 		add	r2, r2, #268435456
 734 05b6 8032     		adds	r2, r2, #128
 735 05b8 9342     		cmp	r3, r2
 736 05ba 0CD0     		beq	.L24
 737              		.loc 1 306 53 discriminator 125 view .LVU155
 738 05bc 02F17042 		add	r2, r2, #-268435456
 739 05c0 9342     		cmp	r3, r2
 740 05c2 08D0     		beq	.L24
 741              		.loc 1 306 53 discriminator 127 view .LVU156
 742 05c4 02F18052 		add	r2, r2, #268435456
 743 05c8 8032     		adds	r2, r2, #128
 744 05ca 9342     		cmp	r3, r2
 745 05cc 03D0     		beq	.L24
 746              		.loc 1 306 53 discriminator 129 view .LVU157
 747 05ce 02F17042 		add	r2, r2, #-268435456
 748 05d2 9342     		cmp	r3, r2
 749 05d4 1AD1     		bne	.L25
 750              	.L24:
 307:STM32Cube_FW_N6/Drivers/STM32N6xx_HAL_Driver/Src/stm32n6xx_hal_dma.c ****   {
 308:STM32Cube_FW_N6/Drivers/STM32N6xx_HAL_Driver/Src/stm32n6xx_hal_dma.c ****     assert_param(IS_DMA_BURST_LENGTH(hdma->Init.SrcBurstLength));
 751              		.loc 1 308 5 is_stmt 1 view .LVU158
 752 05d6 636A     		ldr	r3, [r4, #36]
 753 05d8 013B     		subs	r3, r3, #1
 754 05da 3F2B     		cmp	r3, #63
 755 05dc 04D9     		bls	.L26
 756              		.loc 1 308 5 is_stmt 0 discriminator 1 view .LVU159
 757 05de 4FF49A71 		mov	r1, #308
 758 05e2 0F48     		ldr	r0, .L72
 759 05e4 FFF7FEFF 		bl	assert_failed
 760              	.LVL12:
 761              	.L26:
 309:STM32Cube_FW_N6/Drivers/STM32N6xx_HAL_Driver/Src/stm32n6xx_hal_dma.c ****     assert_param(IS_DMA_BURST_LENGTH(hdma->Init.DestBurstLength));
 762              		.loc 1 309 5 is_stmt 1 view .LVU160
 763 05e8 A36A     		ldr	r3, [r4, #40]
 764 05ea 013B     		subs	r3, r3, #1
 765 05ec 3F2B     		cmp	r3, #63
ARM GAS  C:\Users\DJESSOU\AppData\Local\Temp\ccEz5zGK.s 			page 20


 766 05ee 04D9     		bls	.L27
 767              		.loc 1 309 5 is_stmt 0 discriminator 1 view .LVU161
 768 05f0 40F23511 		movw	r1, #309
 769 05f4 0A48     		ldr	r0, .L72
 770 05f6 FFF7FEFF 		bl	assert_failed
 771              	.LVL13:
 772              	.L27:
 310:STM32Cube_FW_N6/Drivers/STM32N6xx_HAL_Driver/Src/stm32n6xx_hal_dma.c ****     assert_param(IS_DMA_TRANSFER_ALLOCATED_PORT(hdma->Init.TransferAllocatedPort));
 773              		.loc 1 310 5 is_stmt 1 view .LVU162
 774 05fa E36A     		ldr	r3, [r4, #44]
 775 05fc 33F04023 		bics	r3, r3, #1073758208
 776 0600 04D0     		beq	.L25
 777              		.loc 1 310 5 is_stmt 0 discriminator 1 view .LVU163
 778 0602 4FF49B71 		mov	r1, #310
 779 0606 0648     		ldr	r0, .L72
 780 0608 FFF7FEFF 		bl	assert_failed
 781              	.LVL14:
 782              	.L25:
 311:STM32Cube_FW_N6/Drivers/STM32N6xx_HAL_Driver/Src/stm32n6xx_hal_dma.c ****   }
 312:STM32Cube_FW_N6/Drivers/STM32N6xx_HAL_Driver/Src/stm32n6xx_hal_dma.c **** 
 313:STM32Cube_FW_N6/Drivers/STM32N6xx_HAL_Driver/Src/stm32n6xx_hal_dma.c ****   /* Check if the burst length may face DMA AXI limitation */
 314:STM32Cube_FW_N6/Drivers/STM32N6xx_HAL_Driver/Src/stm32n6xx_hal_dma.c ****   if (IS_HPDMA_INSTANCE(hdma->Instance) != 0U)
 783              		.loc 1 314 3 is_stmt 1 view .LVU164
 784              		.loc 1 314 7 is_stmt 0 view .LVU165
 785 060c 2368     		ldr	r3, [r4]
 786 060e AB42     		cmp	r3, r5
 787 0610 00F09480 		beq	.L29
 788              		.loc 1 314 7 discriminator 2 view .LVU166
 789 0614 044A     		ldr	r2, .L72+8
 790 0616 9342     		cmp	r3, r2
 791 0618 00F09080 		beq	.L29
 792 061c 06E0     		b	.L73
 793              	.L74:
 794 061e 00BF     		.align	2
 795              	.L72:
 796 0620 00000000 		.word	.LC0
 797 0624 50000258 		.word	1476526160
 798 0628 50000248 		.word	1208090704
 799              	.L73:
 800              		.loc 1 314 7 discriminator 4 view .LVU167
 801 062c 02F18052 		add	r2, r2, #268435456
 802 0630 8032     		adds	r2, r2, #128
 803 0632 9342     		cmp	r3, r2
 804 0634 00F08280 		beq	.L29
 805              		.loc 1 314 7 discriminator 6 view .LVU168
 806 0638 02F17042 		add	r2, r2, #-268435456
 807 063c 9342     		cmp	r3, r2
 808 063e 7DD0     		beq	.L29
 809              		.loc 1 314 7 discriminator 8 view .LVU169
 810 0640 02F18052 		add	r2, r2, #268435456
 811 0644 8032     		adds	r2, r2, #128
 812 0646 9342     		cmp	r3, r2
 813 0648 78D0     		beq	.L29
 814              		.loc 1 314 7 discriminator 10 view .LVU170
 815 064a 02F17042 		add	r2, r2, #-268435456
 816 064e 9342     		cmp	r3, r2
 817 0650 74D0     		beq	.L29
ARM GAS  C:\Users\DJESSOU\AppData\Local\Temp\ccEz5zGK.s 			page 21


 818              		.loc 1 314 7 discriminator 12 view .LVU171
 819 0652 02F18052 		add	r2, r2, #268435456
 820 0656 8032     		adds	r2, r2, #128
 821 0658 9342     		cmp	r3, r2
 822 065a 6FD0     		beq	.L29
 823              		.loc 1 314 7 discriminator 14 view .LVU172
 824 065c 02F17042 		add	r2, r2, #-268435456
 825 0660 9342     		cmp	r3, r2
 826 0662 6BD0     		beq	.L29
 827              		.loc 1 314 7 discriminator 16 view .LVU173
 828 0664 02F18052 		add	r2, r2, #268435456
 829 0668 8032     		adds	r2, r2, #128
 830 066a 9342     		cmp	r3, r2
 831 066c 66D0     		beq	.L29
 832              		.loc 1 314 7 discriminator 18 view .LVU174
 833 066e 02F17042 		add	r2, r2, #-268435456
 834 0672 9342     		cmp	r3, r2
 835 0674 62D0     		beq	.L29
 836              		.loc 1 314 7 discriminator 20 view .LVU175
 837 0676 02F18052 		add	r2, r2, #268435456
 838 067a 8032     		adds	r2, r2, #128
 839 067c 9342     		cmp	r3, r2
 840 067e 5DD0     		beq	.L29
 841              		.loc 1 314 7 discriminator 22 view .LVU176
 842 0680 02F17042 		add	r2, r2, #-268435456
 843 0684 9342     		cmp	r3, r2
 844 0686 59D0     		beq	.L29
 845              		.loc 1 314 7 discriminator 24 view .LVU177
 846 0688 02F18052 		add	r2, r2, #268435456
 847 068c 8032     		adds	r2, r2, #128
 848 068e 9342     		cmp	r3, r2
 849 0690 54D0     		beq	.L29
 850              		.loc 1 314 7 discriminator 26 view .LVU178
 851 0692 02F17042 		add	r2, r2, #-268435456
 852 0696 9342     		cmp	r3, r2
 853 0698 50D0     		beq	.L29
 854              		.loc 1 314 7 discriminator 28 view .LVU179
 855 069a 02F18052 		add	r2, r2, #268435456
 856 069e 8032     		adds	r2, r2, #128
 857 06a0 9342     		cmp	r3, r2
 858 06a2 4BD0     		beq	.L29
 859              		.loc 1 314 7 discriminator 30 view .LVU180
 860 06a4 02F17042 		add	r2, r2, #-268435456
 861 06a8 9342     		cmp	r3, r2
 862 06aa 47D0     		beq	.L29
 863              		.loc 1 314 7 discriminator 32 view .LVU181
 864 06ac 02F18052 		add	r2, r2, #268435456
 865 06b0 8032     		adds	r2, r2, #128
 866 06b2 9342     		cmp	r3, r2
 867 06b4 42D0     		beq	.L29
 868              		.loc 1 314 7 discriminator 34 view .LVU182
 869 06b6 02F17042 		add	r2, r2, #-268435456
 870 06ba 9342     		cmp	r3, r2
 871 06bc 3ED0     		beq	.L29
 872              		.loc 1 314 7 discriminator 36 view .LVU183
 873 06be 02F18052 		add	r2, r2, #268435456
 874 06c2 8032     		adds	r2, r2, #128
ARM GAS  C:\Users\DJESSOU\AppData\Local\Temp\ccEz5zGK.s 			page 22


 875 06c4 9342     		cmp	r3, r2
 876 06c6 39D0     		beq	.L29
 877              		.loc 1 314 7 discriminator 38 view .LVU184
 878 06c8 02F17042 		add	r2, r2, #-268435456
 879 06cc 9342     		cmp	r3, r2
 880 06ce 35D0     		beq	.L29
 881              		.loc 1 314 7 discriminator 40 view .LVU185
 882 06d0 02F18052 		add	r2, r2, #268435456
 883 06d4 8032     		adds	r2, r2, #128
 884 06d6 9342     		cmp	r3, r2
 885 06d8 30D0     		beq	.L29
 886              		.loc 1 314 7 discriminator 42 view .LVU186
 887 06da 02F17042 		add	r2, r2, #-268435456
 888 06de 9342     		cmp	r3, r2
 889 06e0 2CD0     		beq	.L29
 890              		.loc 1 314 7 discriminator 44 view .LVU187
 891 06e2 02F18052 		add	r2, r2, #268435456
 892 06e6 8032     		adds	r2, r2, #128
 893 06e8 9342     		cmp	r3, r2
 894 06ea 27D0     		beq	.L29
 895              		.loc 1 314 7 discriminator 46 view .LVU188
 896 06ec 02F17042 		add	r2, r2, #-268435456
 897 06f0 9342     		cmp	r3, r2
 898 06f2 23D0     		beq	.L29
 899              		.loc 1 314 7 discriminator 48 view .LVU189
 900 06f4 02F18052 		add	r2, r2, #268435456
 901 06f8 8032     		adds	r2, r2, #128
 902 06fa 9342     		cmp	r3, r2
 903 06fc 1ED0     		beq	.L29
 904              		.loc 1 314 7 discriminator 50 view .LVU190
 905 06fe 02F17042 		add	r2, r2, #-268435456
 906 0702 9342     		cmp	r3, r2
 907 0704 1AD0     		beq	.L29
 908              		.loc 1 314 7 discriminator 52 view .LVU191
 909 0706 02F18052 		add	r2, r2, #268435456
 910 070a 8032     		adds	r2, r2, #128
 911 070c 9342     		cmp	r3, r2
 912 070e 15D0     		beq	.L29
 913              		.loc 1 314 7 discriminator 54 view .LVU192
 914 0710 02F17042 		add	r2, r2, #-268435456
 915 0714 9342     		cmp	r3, r2
 916 0716 11D0     		beq	.L29
 917              		.loc 1 314 7 discriminator 56 view .LVU193
 918 0718 02F18052 		add	r2, r2, #268435456
 919 071c 8032     		adds	r2, r2, #128
 920 071e 9342     		cmp	r3, r2
 921 0720 0CD0     		beq	.L29
 922              		.loc 1 314 7 discriminator 58 view .LVU194
 923 0722 02F17042 		add	r2, r2, #-268435456
 924 0726 9342     		cmp	r3, r2
 925 0728 08D0     		beq	.L29
 926              		.loc 1 314 7 discriminator 60 view .LVU195
 927 072a 02F18052 		add	r2, r2, #268435456
 928 072e 8032     		adds	r2, r2, #128
 929 0730 9342     		cmp	r3, r2
 930 0732 03D0     		beq	.L29
 931              		.loc 1 314 7 discriminator 62 view .LVU196
ARM GAS  C:\Users\DJESSOU\AppData\Local\Temp\ccEz5zGK.s 			page 23


 932 0734 02F17042 		add	r2, r2, #-268435456
 933 0738 9342     		cmp	r3, r2
 934 073a 0CD1     		bne	.L30
 935              	.L29:
 315:STM32Cube_FW_N6/Drivers/STM32N6xx_HAL_Driver/Src/stm32n6xx_hal_dma.c ****   {
 316:STM32Cube_FW_N6/Drivers/STM32N6xx_HAL_Driver/Src/stm32n6xx_hal_dma.c ****     if (((hdma->Init.TransferAllocatedPort & DMA_CTR1_SAP) == DMA_SRC_ALLOCATED_PORT0) &&
 936              		.loc 1 316 5 is_stmt 1 view .LVU197
 937              		.loc 1 316 21 is_stmt 0 view .LVU198
 938 073c E26A     		ldr	r2, [r4, #44]
 939              		.loc 1 316 8 view .LVU199
 940 073e 5004     		lsls	r0, r2, #17
 941 0740 03D4     		bmi	.L31
 942              		.loc 1 316 88 discriminator 1 view .LVU200
 943 0742 616A     		ldr	r1, [r4, #36]
 944 0744 1029     		cmp	r1, #16
 945 0746 00F2A583 		bhi	.L3
 946              	.L31:
 317:STM32Cube_FW_N6/Drivers/STM32N6xx_HAL_Driver/Src/stm32n6xx_hal_dma.c ****         (hdma->Init.SrcBurstLength > 16U))
 318:STM32Cube_FW_N6/Drivers/STM32N6xx_HAL_Driver/Src/stm32n6xx_hal_dma.c ****     {
 319:STM32Cube_FW_N6/Drivers/STM32N6xx_HAL_Driver/Src/stm32n6xx_hal_dma.c ****       return HAL_ERROR;
 320:STM32Cube_FW_N6/Drivers/STM32N6xx_HAL_Driver/Src/stm32n6xx_hal_dma.c ****     }
 321:STM32Cube_FW_N6/Drivers/STM32N6xx_HAL_Driver/Src/stm32n6xx_hal_dma.c ****     if (((hdma->Init.TransferAllocatedPort & DMA_CTR1_DAP) == DMA_DEST_ALLOCATED_PORT0) &&
 947              		.loc 1 321 5 is_stmt 1 view .LVU201
 948              		.loc 1 321 8 is_stmt 0 view .LVU202
 949 074a 5100     		lsls	r1, r2, #1
 950 074c 03D4     		bmi	.L30
 951              		.loc 1 321 89 discriminator 1 view .LVU203
 952 074e A26A     		ldr	r2, [r4, #40]
 953 0750 102A     		cmp	r2, #16
 954 0752 00F29F83 		bhi	.L3
 955              	.L30:
 322:STM32Cube_FW_N6/Drivers/STM32N6xx_HAL_Driver/Src/stm32n6xx_hal_dma.c ****         (hdma->Init.DestBurstLength > 16U))
 323:STM32Cube_FW_N6/Drivers/STM32N6xx_HAL_Driver/Src/stm32n6xx_hal_dma.c ****     {
 324:STM32Cube_FW_N6/Drivers/STM32N6xx_HAL_Driver/Src/stm32n6xx_hal_dma.c ****       return HAL_ERROR;
 325:STM32Cube_FW_N6/Drivers/STM32N6xx_HAL_Driver/Src/stm32n6xx_hal_dma.c ****     }
 326:STM32Cube_FW_N6/Drivers/STM32N6xx_HAL_Driver/Src/stm32n6xx_hal_dma.c ****   }
 327:STM32Cube_FW_N6/Drivers/STM32N6xx_HAL_Driver/Src/stm32n6xx_hal_dma.c **** 
 328:STM32Cube_FW_N6/Drivers/STM32N6xx_HAL_Driver/Src/stm32n6xx_hal_dma.c ****   /* Allocate lock resource */
 329:STM32Cube_FW_N6/Drivers/STM32N6xx_HAL_Driver/Src/stm32n6xx_hal_dma.c ****   __HAL_UNLOCK(hdma);
 956              		.loc 1 329 3 is_stmt 1 view .LVU204
 957              		.loc 1 329 3 view .LVU205
 958 0756 0022     		movs	r2, #0
 330:STM32Cube_FW_N6/Drivers/STM32N6xx_HAL_Driver/Src/stm32n6xx_hal_dma.c **** 
 331:STM32Cube_FW_N6/Drivers/STM32N6xx_HAL_Driver/Src/stm32n6xx_hal_dma.c ****   /* Initialize the callbacks */
 332:STM32Cube_FW_N6/Drivers/STM32N6xx_HAL_Driver/Src/stm32n6xx_hal_dma.c ****   if (hdma->State == HAL_DMA_STATE_RESET)
 959              		.loc 1 332 11 is_stmt 0 view .LVU206
 960 0758 94F85410 		ldrb	r1, [r4, #84]	@ zero_extendqisi2
 329:STM32Cube_FW_N6/Drivers/STM32N6xx_HAL_Driver/Src/stm32n6xx_hal_dma.c **** 
 961              		.loc 1 329 3 view .LVU207
 962 075c 84F84C20 		strb	r2, [r4, #76]
 329:STM32Cube_FW_N6/Drivers/STM32N6xx_HAL_Driver/Src/stm32n6xx_hal_dma.c **** 
 963              		.loc 1 329 3 is_stmt 1 view .LVU208
 964              		.loc 1 332 3 view .LVU209
 965              		.loc 1 332 6 is_stmt 0 view .LVU210
 966 0760 01F0FF02 		and	r2, r1, #255
 967 0764 21B9     		cbnz	r1, .L33
 333:STM32Cube_FW_N6/Drivers/STM32N6xx_HAL_Driver/Src/stm32n6xx_hal_dma.c ****   {
ARM GAS  C:\Users\DJESSOU\AppData\Local\Temp\ccEz5zGK.s 			page 24


 334:STM32Cube_FW_N6/Drivers/STM32N6xx_HAL_Driver/Src/stm32n6xx_hal_dma.c ****     /* Clean all callbacks */
 335:STM32Cube_FW_N6/Drivers/STM32N6xx_HAL_Driver/Src/stm32n6xx_hal_dma.c ****     hdma->XferCpltCallback     = NULL;
 968              		.loc 1 335 5 is_stmt 1 view .LVU211
 336:STM32Cube_FW_N6/Drivers/STM32N6xx_HAL_Driver/Src/stm32n6xx_hal_dma.c ****     hdma->XferHalfCpltCallback = NULL;
 969              		.loc 1 336 32 is_stmt 0 view .LVU212
 970 0766 C4E91822 		strd	r2, r2, [r4, #96]
 337:STM32Cube_FW_N6/Drivers/STM32N6xx_HAL_Driver/Src/stm32n6xx_hal_dma.c ****     hdma->XferErrorCallback    = NULL;
 971              		.loc 1 337 5 is_stmt 1 view .LVU213
 338:STM32Cube_FW_N6/Drivers/STM32N6xx_HAL_Driver/Src/stm32n6xx_hal_dma.c ****     hdma->XferAbortCallback    = NULL;
 972              		.loc 1 338 32 is_stmt 0 view .LVU214
 973 076a C4E91A22 		strd	r2, r2, [r4, #104]
 339:STM32Cube_FW_N6/Drivers/STM32N6xx_HAL_Driver/Src/stm32n6xx_hal_dma.c ****     hdma->XferSuspendCallback  = NULL;
 974              		.loc 1 339 5 is_stmt 1 view .LVU215
 975              		.loc 1 339 32 is_stmt 0 view .LVU216
 976 076e 2267     		str	r2, [r4, #112]
 977              	.L33:
 340:STM32Cube_FW_N6/Drivers/STM32N6xx_HAL_Driver/Src/stm32n6xx_hal_dma.c ****   }
 341:STM32Cube_FW_N6/Drivers/STM32N6xx_HAL_Driver/Src/stm32n6xx_hal_dma.c **** 
 342:STM32Cube_FW_N6/Drivers/STM32N6xx_HAL_Driver/Src/stm32n6xx_hal_dma.c ****   /* Update the DMA channel state */
 343:STM32Cube_FW_N6/Drivers/STM32N6xx_HAL_Driver/Src/stm32n6xx_hal_dma.c ****   hdma->State = HAL_DMA_STATE_BUSY;
 978              		.loc 1 343 3 is_stmt 1 view .LVU217
 979              		.loc 1 343 15 is_stmt 0 view .LVU218
 980 0770 0222     		movs	r2, #2
 981 0772 84F85420 		strb	r2, [r4, #84]
 344:STM32Cube_FW_N6/Drivers/STM32N6xx_HAL_Driver/Src/stm32n6xx_hal_dma.c **** 
 345:STM32Cube_FW_N6/Drivers/STM32N6xx_HAL_Driver/Src/stm32n6xx_hal_dma.c ****   /* Disable the DMA channel */
 346:STM32Cube_FW_N6/Drivers/STM32N6xx_HAL_Driver/Src/stm32n6xx_hal_dma.c ****   __HAL_DMA_DISABLE(hdma);
 982              		.loc 1 346 3 is_stmt 1 view .LVU219
 983 0776 5A69     		ldr	r2, [r3, #20]
 984 0778 42F00602 		orr	r2, r2, #6
 985 077c 5A61     		str	r2, [r3, #20]
 347:STM32Cube_FW_N6/Drivers/STM32N6xx_HAL_Driver/Src/stm32n6xx_hal_dma.c **** 
 348:STM32Cube_FW_N6/Drivers/STM32N6xx_HAL_Driver/Src/stm32n6xx_hal_dma.c ****   /* Check if the DMA channel is effectively disabled */
 349:STM32Cube_FW_N6/Drivers/STM32N6xx_HAL_Driver/Src/stm32n6xx_hal_dma.c ****   while ((hdma->Instance->CCR & DMA_CCR_EN) != 0U)
 986              		.loc 1 349 3 view .LVU220
 987              	.L34:
 988              		.loc 1 349 45 view .LVU221
 989              		.loc 1 349 15 is_stmt 0 view .LVU222
 990 077e 2368     		ldr	r3, [r4]
 991              		.loc 1 349 25 view .LVU223
 992 0780 5A69     		ldr	r2, [r3, #20]
 993              		.loc 1 349 45 view .LVU224
 994 0782 D207     		lsls	r2, r2, #31
 995 0784 00F17B83 		bmi	.L36
 350:STM32Cube_FW_N6/Drivers/STM32N6xx_HAL_Driver/Src/stm32n6xx_hal_dma.c ****   {
 351:STM32Cube_FW_N6/Drivers/STM32N6xx_HAL_Driver/Src/stm32n6xx_hal_dma.c ****     /* Check for the Timeout */
 352:STM32Cube_FW_N6/Drivers/STM32N6xx_HAL_Driver/Src/stm32n6xx_hal_dma.c ****     if ((HAL_GetTick() - tickstart) > HAL_TIMEOUT_DMA_ABORT)
 353:STM32Cube_FW_N6/Drivers/STM32N6xx_HAL_Driver/Src/stm32n6xx_hal_dma.c ****     {
 354:STM32Cube_FW_N6/Drivers/STM32N6xx_HAL_Driver/Src/stm32n6xx_hal_dma.c ****       /* Update the DMA channel error code */
 355:STM32Cube_FW_N6/Drivers/STM32N6xx_HAL_Driver/Src/stm32n6xx_hal_dma.c ****       hdma->ErrorCode = HAL_DMA_ERROR_TIMEOUT;
 356:STM32Cube_FW_N6/Drivers/STM32N6xx_HAL_Driver/Src/stm32n6xx_hal_dma.c **** 
 357:STM32Cube_FW_N6/Drivers/STM32N6xx_HAL_Driver/Src/stm32n6xx_hal_dma.c ****       /* Update the DMA channel state */
 358:STM32Cube_FW_N6/Drivers/STM32N6xx_HAL_Driver/Src/stm32n6xx_hal_dma.c ****       hdma->State = HAL_DMA_STATE_ERROR;
 359:STM32Cube_FW_N6/Drivers/STM32N6xx_HAL_Driver/Src/stm32n6xx_hal_dma.c **** 
 360:STM32Cube_FW_N6/Drivers/STM32N6xx_HAL_Driver/Src/stm32n6xx_hal_dma.c ****       return HAL_ERROR;
 361:STM32Cube_FW_N6/Drivers/STM32N6xx_HAL_Driver/Src/stm32n6xx_hal_dma.c ****     }
 362:STM32Cube_FW_N6/Drivers/STM32N6xx_HAL_Driver/Src/stm32n6xx_hal_dma.c ****   }
ARM GAS  C:\Users\DJESSOU\AppData\Local\Temp\ccEz5zGK.s 			page 25


 363:STM32Cube_FW_N6/Drivers/STM32N6xx_HAL_Driver/Src/stm32n6xx_hal_dma.c **** 
 364:STM32Cube_FW_N6/Drivers/STM32N6xx_HAL_Driver/Src/stm32n6xx_hal_dma.c ****   /* Initialize the DMA channel registers */
 365:STM32Cube_FW_N6/Drivers/STM32N6xx_HAL_Driver/Src/stm32n6xx_hal_dma.c ****   DMA_Init(hdma);
 996              		.loc 1 365 3 is_stmt 1 view .LVU225
 997              	.LVL15:
 998              	.LBB4:
 999              	.LBI4:
 366:STM32Cube_FW_N6/Drivers/STM32N6xx_HAL_Driver/Src/stm32n6xx_hal_dma.c **** 
 367:STM32Cube_FW_N6/Drivers/STM32N6xx_HAL_Driver/Src/stm32n6xx_hal_dma.c ****   /* Update DMA channel operation mode */
 368:STM32Cube_FW_N6/Drivers/STM32N6xx_HAL_Driver/Src/stm32n6xx_hal_dma.c ****   hdma->Mode = hdma->Init.Mode;
 369:STM32Cube_FW_N6/Drivers/STM32N6xx_HAL_Driver/Src/stm32n6xx_hal_dma.c **** 
 370:STM32Cube_FW_N6/Drivers/STM32N6xx_HAL_Driver/Src/stm32n6xx_hal_dma.c ****   /* Update the DMA channel error code */
 371:STM32Cube_FW_N6/Drivers/STM32N6xx_HAL_Driver/Src/stm32n6xx_hal_dma.c ****   hdma->ErrorCode = HAL_DMA_ERROR_NONE;
 372:STM32Cube_FW_N6/Drivers/STM32N6xx_HAL_Driver/Src/stm32n6xx_hal_dma.c **** 
 373:STM32Cube_FW_N6/Drivers/STM32N6xx_HAL_Driver/Src/stm32n6xx_hal_dma.c ****   /* Update the DMA channel state */
 374:STM32Cube_FW_N6/Drivers/STM32N6xx_HAL_Driver/Src/stm32n6xx_hal_dma.c ****   hdma->State = HAL_DMA_STATE_READY;
 375:STM32Cube_FW_N6/Drivers/STM32N6xx_HAL_Driver/Src/stm32n6xx_hal_dma.c **** 
 376:STM32Cube_FW_N6/Drivers/STM32N6xx_HAL_Driver/Src/stm32n6xx_hal_dma.c ****   return HAL_OK;
 377:STM32Cube_FW_N6/Drivers/STM32N6xx_HAL_Driver/Src/stm32n6xx_hal_dma.c **** }
 378:STM32Cube_FW_N6/Drivers/STM32N6xx_HAL_Driver/Src/stm32n6xx_hal_dma.c **** 
 379:STM32Cube_FW_N6/Drivers/STM32N6xx_HAL_Driver/Src/stm32n6xx_hal_dma.c **** /**
 380:STM32Cube_FW_N6/Drivers/STM32N6xx_HAL_Driver/Src/stm32n6xx_hal_dma.c ****   * @brief  DeInitialize the DMA channel when it is configured in normal mode.
 381:STM32Cube_FW_N6/Drivers/STM32N6xx_HAL_Driver/Src/stm32n6xx_hal_dma.c ****   * @param  hdma : Pointer to a DMA_HandleTypeDef structure that contains the configuration informa
 382:STM32Cube_FW_N6/Drivers/STM32N6xx_HAL_Driver/Src/stm32n6xx_hal_dma.c ****   *                specified DMA Channel.
 383:STM32Cube_FW_N6/Drivers/STM32N6xx_HAL_Driver/Src/stm32n6xx_hal_dma.c ****   * @retval HAL status.
 384:STM32Cube_FW_N6/Drivers/STM32N6xx_HAL_Driver/Src/stm32n6xx_hal_dma.c ****   */
 385:STM32Cube_FW_N6/Drivers/STM32N6xx_HAL_Driver/Src/stm32n6xx_hal_dma.c **** HAL_StatusTypeDef HAL_DMA_DeInit(DMA_HandleTypeDef *const hdma)
 386:STM32Cube_FW_N6/Drivers/STM32N6xx_HAL_Driver/Src/stm32n6xx_hal_dma.c **** {
 387:STM32Cube_FW_N6/Drivers/STM32N6xx_HAL_Driver/Src/stm32n6xx_hal_dma.c ****   uint32_t tickstart = HAL_GetTick();
 388:STM32Cube_FW_N6/Drivers/STM32N6xx_HAL_Driver/Src/stm32n6xx_hal_dma.c **** 
 389:STM32Cube_FW_N6/Drivers/STM32N6xx_HAL_Driver/Src/stm32n6xx_hal_dma.c ****   /* Check the DMA peripheral handle parameter */
 390:STM32Cube_FW_N6/Drivers/STM32N6xx_HAL_Driver/Src/stm32n6xx_hal_dma.c ****   if (hdma == NULL)
 391:STM32Cube_FW_N6/Drivers/STM32N6xx_HAL_Driver/Src/stm32n6xx_hal_dma.c ****   {
 392:STM32Cube_FW_N6/Drivers/STM32N6xx_HAL_Driver/Src/stm32n6xx_hal_dma.c ****     return HAL_ERROR;
 393:STM32Cube_FW_N6/Drivers/STM32N6xx_HAL_Driver/Src/stm32n6xx_hal_dma.c ****   }
 394:STM32Cube_FW_N6/Drivers/STM32N6xx_HAL_Driver/Src/stm32n6xx_hal_dma.c **** 
 395:STM32Cube_FW_N6/Drivers/STM32N6xx_HAL_Driver/Src/stm32n6xx_hal_dma.c ****   /* Check the parameters */
 396:STM32Cube_FW_N6/Drivers/STM32N6xx_HAL_Driver/Src/stm32n6xx_hal_dma.c ****   assert_param(IS_DMA_ALL_INSTANCE(hdma->Instance));
 397:STM32Cube_FW_N6/Drivers/STM32N6xx_HAL_Driver/Src/stm32n6xx_hal_dma.c ****   /* Disable the selected DMA Channel */
 398:STM32Cube_FW_N6/Drivers/STM32N6xx_HAL_Driver/Src/stm32n6xx_hal_dma.c ****   __HAL_DMA_DISABLE(hdma);
 399:STM32Cube_FW_N6/Drivers/STM32N6xx_HAL_Driver/Src/stm32n6xx_hal_dma.c **** 
 400:STM32Cube_FW_N6/Drivers/STM32N6xx_HAL_Driver/Src/stm32n6xx_hal_dma.c ****   /* Check if the DMA channel is effectively disabled */
 401:STM32Cube_FW_N6/Drivers/STM32N6xx_HAL_Driver/Src/stm32n6xx_hal_dma.c ****   while ((hdma->Instance->CCR & DMA_CCR_EN) != 0U)
 402:STM32Cube_FW_N6/Drivers/STM32N6xx_HAL_Driver/Src/stm32n6xx_hal_dma.c ****   {
 403:STM32Cube_FW_N6/Drivers/STM32N6xx_HAL_Driver/Src/stm32n6xx_hal_dma.c ****     /* Check for the Timeout */
 404:STM32Cube_FW_N6/Drivers/STM32N6xx_HAL_Driver/Src/stm32n6xx_hal_dma.c ****     if ((HAL_GetTick() - tickstart) > HAL_TIMEOUT_DMA_ABORT)
 405:STM32Cube_FW_N6/Drivers/STM32N6xx_HAL_Driver/Src/stm32n6xx_hal_dma.c ****     {
 406:STM32Cube_FW_N6/Drivers/STM32N6xx_HAL_Driver/Src/stm32n6xx_hal_dma.c ****       /* Update the DMA channel error code */
 407:STM32Cube_FW_N6/Drivers/STM32N6xx_HAL_Driver/Src/stm32n6xx_hal_dma.c ****       hdma->ErrorCode = HAL_DMA_ERROR_TIMEOUT;
 408:STM32Cube_FW_N6/Drivers/STM32N6xx_HAL_Driver/Src/stm32n6xx_hal_dma.c **** 
 409:STM32Cube_FW_N6/Drivers/STM32N6xx_HAL_Driver/Src/stm32n6xx_hal_dma.c ****       /* Update the DMA channel state */
 410:STM32Cube_FW_N6/Drivers/STM32N6xx_HAL_Driver/Src/stm32n6xx_hal_dma.c ****       hdma->State = HAL_DMA_STATE_ERROR;
 411:STM32Cube_FW_N6/Drivers/STM32N6xx_HAL_Driver/Src/stm32n6xx_hal_dma.c **** 
 412:STM32Cube_FW_N6/Drivers/STM32N6xx_HAL_Driver/Src/stm32n6xx_hal_dma.c ****       return HAL_ERROR;
 413:STM32Cube_FW_N6/Drivers/STM32N6xx_HAL_Driver/Src/stm32n6xx_hal_dma.c ****     }
 414:STM32Cube_FW_N6/Drivers/STM32N6xx_HAL_Driver/Src/stm32n6xx_hal_dma.c ****   }
 415:STM32Cube_FW_N6/Drivers/STM32N6xx_HAL_Driver/Src/stm32n6xx_hal_dma.c **** 
ARM GAS  C:\Users\DJESSOU\AppData\Local\Temp\ccEz5zGK.s 			page 26


 416:STM32Cube_FW_N6/Drivers/STM32N6xx_HAL_Driver/Src/stm32n6xx_hal_dma.c ****   /* Reset DMA Channel registers */
 417:STM32Cube_FW_N6/Drivers/STM32N6xx_HAL_Driver/Src/stm32n6xx_hal_dma.c ****   hdma->Instance->CLBAR = 0U;
 418:STM32Cube_FW_N6/Drivers/STM32N6xx_HAL_Driver/Src/stm32n6xx_hal_dma.c ****   hdma->Instance->CCR   = 0U;
 419:STM32Cube_FW_N6/Drivers/STM32N6xx_HAL_Driver/Src/stm32n6xx_hal_dma.c ****   /* As secure, privilege and CID configuration, bit field DSEC and SSEC are managed in   */
 420:STM32Cube_FW_N6/Drivers/STM32N6xx_HAL_Driver/Src/stm32n6xx_hal_dma.c ****   /* HAL_DMA_ConfigChannelAttributes function, so it mustn't be cleaned in HAL_DMA_DeInit */
 421:STM32Cube_FW_N6/Drivers/STM32N6xx_HAL_Driver/Src/stm32n6xx_hal_dma.c ****   hdma->Instance->CTR1  = hdma->Instance->CTR1 & (0U | DMA_CTR1_DSEC | DMA_CTR1_SSEC);
 422:STM32Cube_FW_N6/Drivers/STM32N6xx_HAL_Driver/Src/stm32n6xx_hal_dma.c ****   hdma->Instance->CTR2  = 0U;
 423:STM32Cube_FW_N6/Drivers/STM32N6xx_HAL_Driver/Src/stm32n6xx_hal_dma.c ****   hdma->Instance->CBR1  = 0U;
 424:STM32Cube_FW_N6/Drivers/STM32N6xx_HAL_Driver/Src/stm32n6xx_hal_dma.c ****   hdma->Instance->CSAR  = 0U;
 425:STM32Cube_FW_N6/Drivers/STM32N6xx_HAL_Driver/Src/stm32n6xx_hal_dma.c ****   hdma->Instance->CDAR  = 0U;
 426:STM32Cube_FW_N6/Drivers/STM32N6xx_HAL_Driver/Src/stm32n6xx_hal_dma.c ****   hdma->Instance->CLLR  = 0U;
 427:STM32Cube_FW_N6/Drivers/STM32N6xx_HAL_Driver/Src/stm32n6xx_hal_dma.c **** 
 428:STM32Cube_FW_N6/Drivers/STM32N6xx_HAL_Driver/Src/stm32n6xx_hal_dma.c ****   /* Reset 2D Addressing registers */
 429:STM32Cube_FW_N6/Drivers/STM32N6xx_HAL_Driver/Src/stm32n6xx_hal_dma.c ****   if (IS_DMA_2D_ADDRESSING_INSTANCE(hdma->Instance) != 0U)
 430:STM32Cube_FW_N6/Drivers/STM32N6xx_HAL_Driver/Src/stm32n6xx_hal_dma.c ****   {
 431:STM32Cube_FW_N6/Drivers/STM32N6xx_HAL_Driver/Src/stm32n6xx_hal_dma.c ****     hdma->Instance->CTR3 = 0U;
 432:STM32Cube_FW_N6/Drivers/STM32N6xx_HAL_Driver/Src/stm32n6xx_hal_dma.c ****     hdma->Instance->CBR2 = 0U;
 433:STM32Cube_FW_N6/Drivers/STM32N6xx_HAL_Driver/Src/stm32n6xx_hal_dma.c ****   }
 434:STM32Cube_FW_N6/Drivers/STM32N6xx_HAL_Driver/Src/stm32n6xx_hal_dma.c **** 
 435:STM32Cube_FW_N6/Drivers/STM32N6xx_HAL_Driver/Src/stm32n6xx_hal_dma.c ****   /* Clear all flags */
 436:STM32Cube_FW_N6/Drivers/STM32N6xx_HAL_Driver/Src/stm32n6xx_hal_dma.c ****   __HAL_DMA_CLEAR_FLAG(hdma, (DMA_FLAG_TC | DMA_FLAG_HT | DMA_FLAG_DTE | DMA_FLAG_ULE | DMA_FLAG_US
 437:STM32Cube_FW_N6/Drivers/STM32N6xx_HAL_Driver/Src/stm32n6xx_hal_dma.c ****                               DMA_FLAG_TO));
 438:STM32Cube_FW_N6/Drivers/STM32N6xx_HAL_Driver/Src/stm32n6xx_hal_dma.c **** 
 439:STM32Cube_FW_N6/Drivers/STM32N6xx_HAL_Driver/Src/stm32n6xx_hal_dma.c ****   /* Clean all callbacks */
 440:STM32Cube_FW_N6/Drivers/STM32N6xx_HAL_Driver/Src/stm32n6xx_hal_dma.c ****   hdma->XferCpltCallback     = NULL;
 441:STM32Cube_FW_N6/Drivers/STM32N6xx_HAL_Driver/Src/stm32n6xx_hal_dma.c ****   hdma->XferHalfCpltCallback = NULL;
 442:STM32Cube_FW_N6/Drivers/STM32N6xx_HAL_Driver/Src/stm32n6xx_hal_dma.c ****   hdma->XferErrorCallback    = NULL;
 443:STM32Cube_FW_N6/Drivers/STM32N6xx_HAL_Driver/Src/stm32n6xx_hal_dma.c ****   hdma->XferAbortCallback    = NULL;
 444:STM32Cube_FW_N6/Drivers/STM32N6xx_HAL_Driver/Src/stm32n6xx_hal_dma.c ****   hdma->XferSuspendCallback  = NULL;
 445:STM32Cube_FW_N6/Drivers/STM32N6xx_HAL_Driver/Src/stm32n6xx_hal_dma.c **** 
 446:STM32Cube_FW_N6/Drivers/STM32N6xx_HAL_Driver/Src/stm32n6xx_hal_dma.c ****   /* Clean DMA queue */
 447:STM32Cube_FW_N6/Drivers/STM32N6xx_HAL_Driver/Src/stm32n6xx_hal_dma.c ****   hdma->LinkedListQueue = NULL;
 448:STM32Cube_FW_N6/Drivers/STM32N6xx_HAL_Driver/Src/stm32n6xx_hal_dma.c **** 
 449:STM32Cube_FW_N6/Drivers/STM32N6xx_HAL_Driver/Src/stm32n6xx_hal_dma.c ****   /* Clean DMA parent */
 450:STM32Cube_FW_N6/Drivers/STM32N6xx_HAL_Driver/Src/stm32n6xx_hal_dma.c ****   if (hdma->Parent != NULL)
 451:STM32Cube_FW_N6/Drivers/STM32N6xx_HAL_Driver/Src/stm32n6xx_hal_dma.c ****   {
 452:STM32Cube_FW_N6/Drivers/STM32N6xx_HAL_Driver/Src/stm32n6xx_hal_dma.c ****     hdma->Parent = NULL;
 453:STM32Cube_FW_N6/Drivers/STM32N6xx_HAL_Driver/Src/stm32n6xx_hal_dma.c ****   }
 454:STM32Cube_FW_N6/Drivers/STM32N6xx_HAL_Driver/Src/stm32n6xx_hal_dma.c **** 
 455:STM32Cube_FW_N6/Drivers/STM32N6xx_HAL_Driver/Src/stm32n6xx_hal_dma.c ****   /* Update DMA channel operation mode */
 456:STM32Cube_FW_N6/Drivers/STM32N6xx_HAL_Driver/Src/stm32n6xx_hal_dma.c ****   hdma->Mode = DMA_NORMAL;
 457:STM32Cube_FW_N6/Drivers/STM32N6xx_HAL_Driver/Src/stm32n6xx_hal_dma.c **** 
 458:STM32Cube_FW_N6/Drivers/STM32N6xx_HAL_Driver/Src/stm32n6xx_hal_dma.c ****   /* Update the DMA channel error code */
 459:STM32Cube_FW_N6/Drivers/STM32N6xx_HAL_Driver/Src/stm32n6xx_hal_dma.c ****   hdma->ErrorCode = HAL_DMA_ERROR_NONE;
 460:STM32Cube_FW_N6/Drivers/STM32N6xx_HAL_Driver/Src/stm32n6xx_hal_dma.c **** 
 461:STM32Cube_FW_N6/Drivers/STM32N6xx_HAL_Driver/Src/stm32n6xx_hal_dma.c ****   /* Update the DMA channel state */
 462:STM32Cube_FW_N6/Drivers/STM32N6xx_HAL_Driver/Src/stm32n6xx_hal_dma.c ****   hdma->State = HAL_DMA_STATE_RESET;
 463:STM32Cube_FW_N6/Drivers/STM32N6xx_HAL_Driver/Src/stm32n6xx_hal_dma.c **** 
 464:STM32Cube_FW_N6/Drivers/STM32N6xx_HAL_Driver/Src/stm32n6xx_hal_dma.c ****   /* Release Lock */
 465:STM32Cube_FW_N6/Drivers/STM32N6xx_HAL_Driver/Src/stm32n6xx_hal_dma.c ****   __HAL_UNLOCK(hdma);
 466:STM32Cube_FW_N6/Drivers/STM32N6xx_HAL_Driver/Src/stm32n6xx_hal_dma.c **** 
 467:STM32Cube_FW_N6/Drivers/STM32N6xx_HAL_Driver/Src/stm32n6xx_hal_dma.c ****   return HAL_OK;
 468:STM32Cube_FW_N6/Drivers/STM32N6xx_HAL_Driver/Src/stm32n6xx_hal_dma.c **** }
 469:STM32Cube_FW_N6/Drivers/STM32N6xx_HAL_Driver/Src/stm32n6xx_hal_dma.c **** /**
 470:STM32Cube_FW_N6/Drivers/STM32N6xx_HAL_Driver/Src/stm32n6xx_hal_dma.c ****   * @}
 471:STM32Cube_FW_N6/Drivers/STM32N6xx_HAL_Driver/Src/stm32n6xx_hal_dma.c ****   */
 472:STM32Cube_FW_N6/Drivers/STM32N6xx_HAL_Driver/Src/stm32n6xx_hal_dma.c **** 
ARM GAS  C:\Users\DJESSOU\AppData\Local\Temp\ccEz5zGK.s 			page 27


 473:STM32Cube_FW_N6/Drivers/STM32N6xx_HAL_Driver/Src/stm32n6xx_hal_dma.c **** /** @addtogroup DMA_Exported_Functions_Group2
 474:STM32Cube_FW_N6/Drivers/STM32N6xx_HAL_Driver/Src/stm32n6xx_hal_dma.c ****   *
 475:STM32Cube_FW_N6/Drivers/STM32N6xx_HAL_Driver/Src/stm32n6xx_hal_dma.c **** @verbatim
 476:STM32Cube_FW_N6/Drivers/STM32N6xx_HAL_Driver/Src/stm32n6xx_hal_dma.c ****   =================================================================================================
 477:STM32Cube_FW_N6/Drivers/STM32N6xx_HAL_Driver/Src/stm32n6xx_hal_dma.c ****                                 ##### IO operation functions #####
 478:STM32Cube_FW_N6/Drivers/STM32N6xx_HAL_Driver/Src/stm32n6xx_hal_dma.c ****   =================================================================================================
 479:STM32Cube_FW_N6/Drivers/STM32N6xx_HAL_Driver/Src/stm32n6xx_hal_dma.c ****     [..]
 480:STM32Cube_FW_N6/Drivers/STM32N6xx_HAL_Driver/Src/stm32n6xx_hal_dma.c ****       This section provides functions allowing to :
 481:STM32Cube_FW_N6/Drivers/STM32N6xx_HAL_Driver/Src/stm32n6xx_hal_dma.c ****       (+) Configure the source, destination address and data size and Start DMA transfer in normal 
 482:STM32Cube_FW_N6/Drivers/STM32N6xx_HAL_Driver/Src/stm32n6xx_hal_dma.c ****       (+) Abort DMA transfer
 483:STM32Cube_FW_N6/Drivers/STM32N6xx_HAL_Driver/Src/stm32n6xx_hal_dma.c ****       (+) Poll for transfer complete
 484:STM32Cube_FW_N6/Drivers/STM32N6xx_HAL_Driver/Src/stm32n6xx_hal_dma.c ****       (+) Handle DMA interrupt request
 485:STM32Cube_FW_N6/Drivers/STM32N6xx_HAL_Driver/Src/stm32n6xx_hal_dma.c ****       (+) Register and Unregister DMA callbacks
 486:STM32Cube_FW_N6/Drivers/STM32N6xx_HAL_Driver/Src/stm32n6xx_hal_dma.c **** 
 487:STM32Cube_FW_N6/Drivers/STM32N6xx_HAL_Driver/Src/stm32n6xx_hal_dma.c ****     [..]
 488:STM32Cube_FW_N6/Drivers/STM32N6xx_HAL_Driver/Src/stm32n6xx_hal_dma.c ****       (+) The HAL_DMA_Start() function allows to start the DMA channel transfer in normal mode (Blo
 489:STM32Cube_FW_N6/Drivers/STM32N6xx_HAL_Driver/Src/stm32n6xx_hal_dma.c ****       (+) The HAL_DMA_Start_IT() function allows to start the DMA channel transfer in normal mode (
 490:STM32Cube_FW_N6/Drivers/STM32N6xx_HAL_Driver/Src/stm32n6xx_hal_dma.c ****       (+) The HAL_DMA_Abort() function allows to abort any on-going transfer (Blocking mode).
 491:STM32Cube_FW_N6/Drivers/STM32N6xx_HAL_Driver/Src/stm32n6xx_hal_dma.c ****       (+) The HAL_DMA_Abort_IT() function allows to abort any on-going transfer (Non-blocking mode)
 492:STM32Cube_FW_N6/Drivers/STM32N6xx_HAL_Driver/Src/stm32n6xx_hal_dma.c ****       (+) The HAL_DMA_PollForTransfer() function allows to poll on half transfer and transfer compl
 493:STM32Cube_FW_N6/Drivers/STM32N6xx_HAL_Driver/Src/stm32n6xx_hal_dma.c ****           This API cannot be used for circular transfers.
 494:STM32Cube_FW_N6/Drivers/STM32N6xx_HAL_Driver/Src/stm32n6xx_hal_dma.c ****       (+) The HAL_DMA_IRQHandler() function allows to handle any DMA channel interrupt (Non-blockin
 495:STM32Cube_FW_N6/Drivers/STM32N6xx_HAL_Driver/Src/stm32n6xx_hal_dma.c ****       (+) The HAL_DMA_RegisterCallback() and HAL_DMA_UnRegisterCallback() functions allow respectiv
 496:STM32Cube_FW_N6/Drivers/STM32N6xx_HAL_Driver/Src/stm32n6xx_hal_dma.c ****           unregister user customized callbacks.
 497:STM32Cube_FW_N6/Drivers/STM32N6xx_HAL_Driver/Src/stm32n6xx_hal_dma.c ****           User callbacks are called under HAL_DMA_IRQHandler().
 498:STM32Cube_FW_N6/Drivers/STM32N6xx_HAL_Driver/Src/stm32n6xx_hal_dma.c **** 
 499:STM32Cube_FW_N6/Drivers/STM32N6xx_HAL_Driver/Src/stm32n6xx_hal_dma.c **** @endverbatim
 500:STM32Cube_FW_N6/Drivers/STM32N6xx_HAL_Driver/Src/stm32n6xx_hal_dma.c ****   * @{
 501:STM32Cube_FW_N6/Drivers/STM32N6xx_HAL_Driver/Src/stm32n6xx_hal_dma.c ****   */
 502:STM32Cube_FW_N6/Drivers/STM32N6xx_HAL_Driver/Src/stm32n6xx_hal_dma.c **** 
 503:STM32Cube_FW_N6/Drivers/STM32N6xx_HAL_Driver/Src/stm32n6xx_hal_dma.c **** /**
 504:STM32Cube_FW_N6/Drivers/STM32N6xx_HAL_Driver/Src/stm32n6xx_hal_dma.c ****   * @brief  Start the DMA channel transfer in normal mode (Blocking mode).
 505:STM32Cube_FW_N6/Drivers/STM32N6xx_HAL_Driver/Src/stm32n6xx_hal_dma.c ****   * @param  hdma        : Pointer to a DMA_HandleTypeDef structure that contains the configuration 
 506:STM32Cube_FW_N6/Drivers/STM32N6xx_HAL_Driver/Src/stm32n6xx_hal_dma.c ****   *                       the specified DMA Channel.
 507:STM32Cube_FW_N6/Drivers/STM32N6xx_HAL_Driver/Src/stm32n6xx_hal_dma.c ****   * @param  SrcAddress  : The source data address.
 508:STM32Cube_FW_N6/Drivers/STM32N6xx_HAL_Driver/Src/stm32n6xx_hal_dma.c ****   * @param  DstAddress  : The destination data address.
 509:STM32Cube_FW_N6/Drivers/STM32N6xx_HAL_Driver/Src/stm32n6xx_hal_dma.c ****   * @param  SrcDataSize : The length of data to be transferred from source to destination in bytes.
 510:STM32Cube_FW_N6/Drivers/STM32N6xx_HAL_Driver/Src/stm32n6xx_hal_dma.c ****   * @retval HAL status.
 511:STM32Cube_FW_N6/Drivers/STM32N6xx_HAL_Driver/Src/stm32n6xx_hal_dma.c ****   */
 512:STM32Cube_FW_N6/Drivers/STM32N6xx_HAL_Driver/Src/stm32n6xx_hal_dma.c **** HAL_StatusTypeDef HAL_DMA_Start(DMA_HandleTypeDef *const hdma,
 513:STM32Cube_FW_N6/Drivers/STM32N6xx_HAL_Driver/Src/stm32n6xx_hal_dma.c ****                                 uint32_t SrcAddress,
 514:STM32Cube_FW_N6/Drivers/STM32N6xx_HAL_Driver/Src/stm32n6xx_hal_dma.c ****                                 uint32_t DstAddress,
 515:STM32Cube_FW_N6/Drivers/STM32N6xx_HAL_Driver/Src/stm32n6xx_hal_dma.c ****                                 uint32_t SrcDataSize)
 516:STM32Cube_FW_N6/Drivers/STM32N6xx_HAL_Driver/Src/stm32n6xx_hal_dma.c **** {
 517:STM32Cube_FW_N6/Drivers/STM32N6xx_HAL_Driver/Src/stm32n6xx_hal_dma.c ****   /* Check the DMA peripheral handle parameter */
 518:STM32Cube_FW_N6/Drivers/STM32N6xx_HAL_Driver/Src/stm32n6xx_hal_dma.c ****   if (hdma == NULL)
 519:STM32Cube_FW_N6/Drivers/STM32N6xx_HAL_Driver/Src/stm32n6xx_hal_dma.c ****   {
 520:STM32Cube_FW_N6/Drivers/STM32N6xx_HAL_Driver/Src/stm32n6xx_hal_dma.c ****     return HAL_ERROR;
 521:STM32Cube_FW_N6/Drivers/STM32N6xx_HAL_Driver/Src/stm32n6xx_hal_dma.c ****   }
 522:STM32Cube_FW_N6/Drivers/STM32N6xx_HAL_Driver/Src/stm32n6xx_hal_dma.c **** 
 523:STM32Cube_FW_N6/Drivers/STM32N6xx_HAL_Driver/Src/stm32n6xx_hal_dma.c ****   /* Check the parameters */
 524:STM32Cube_FW_N6/Drivers/STM32N6xx_HAL_Driver/Src/stm32n6xx_hal_dma.c ****   assert_param(IS_DMA_BLOCK_SIZE(SrcDataSize));
 525:STM32Cube_FW_N6/Drivers/STM32N6xx_HAL_Driver/Src/stm32n6xx_hal_dma.c **** 
 526:STM32Cube_FW_N6/Drivers/STM32N6xx_HAL_Driver/Src/stm32n6xx_hal_dma.c ****   /* Process locked */
 527:STM32Cube_FW_N6/Drivers/STM32N6xx_HAL_Driver/Src/stm32n6xx_hal_dma.c ****   __HAL_LOCK(hdma);
 528:STM32Cube_FW_N6/Drivers/STM32N6xx_HAL_Driver/Src/stm32n6xx_hal_dma.c **** 
 529:STM32Cube_FW_N6/Drivers/STM32N6xx_HAL_Driver/Src/stm32n6xx_hal_dma.c ****   /* Check DMA channel state */
ARM GAS  C:\Users\DJESSOU\AppData\Local\Temp\ccEz5zGK.s 			page 28


 530:STM32Cube_FW_N6/Drivers/STM32N6xx_HAL_Driver/Src/stm32n6xx_hal_dma.c ****   if (hdma->State == HAL_DMA_STATE_READY)
 531:STM32Cube_FW_N6/Drivers/STM32N6xx_HAL_Driver/Src/stm32n6xx_hal_dma.c ****   {
 532:STM32Cube_FW_N6/Drivers/STM32N6xx_HAL_Driver/Src/stm32n6xx_hal_dma.c ****     /* Update the DMA channel state */
 533:STM32Cube_FW_N6/Drivers/STM32N6xx_HAL_Driver/Src/stm32n6xx_hal_dma.c ****     hdma->State = HAL_DMA_STATE_BUSY;
 534:STM32Cube_FW_N6/Drivers/STM32N6xx_HAL_Driver/Src/stm32n6xx_hal_dma.c **** 
 535:STM32Cube_FW_N6/Drivers/STM32N6xx_HAL_Driver/Src/stm32n6xx_hal_dma.c ****     /* Update the DMA channel error code */
 536:STM32Cube_FW_N6/Drivers/STM32N6xx_HAL_Driver/Src/stm32n6xx_hal_dma.c ****     hdma->ErrorCode = HAL_DMA_ERROR_NONE;
 537:STM32Cube_FW_N6/Drivers/STM32N6xx_HAL_Driver/Src/stm32n6xx_hal_dma.c **** 
 538:STM32Cube_FW_N6/Drivers/STM32N6xx_HAL_Driver/Src/stm32n6xx_hal_dma.c ****     /* Configure the source address, destination address, the data size and clear flags */
 539:STM32Cube_FW_N6/Drivers/STM32N6xx_HAL_Driver/Src/stm32n6xx_hal_dma.c ****     DMA_SetConfig(hdma, SrcAddress, DstAddress, SrcDataSize);
 540:STM32Cube_FW_N6/Drivers/STM32N6xx_HAL_Driver/Src/stm32n6xx_hal_dma.c **** 
 541:STM32Cube_FW_N6/Drivers/STM32N6xx_HAL_Driver/Src/stm32n6xx_hal_dma.c ****     /* Enable DMA channel */
 542:STM32Cube_FW_N6/Drivers/STM32N6xx_HAL_Driver/Src/stm32n6xx_hal_dma.c ****     __HAL_DMA_ENABLE(hdma);
 543:STM32Cube_FW_N6/Drivers/STM32N6xx_HAL_Driver/Src/stm32n6xx_hal_dma.c ****   }
 544:STM32Cube_FW_N6/Drivers/STM32N6xx_HAL_Driver/Src/stm32n6xx_hal_dma.c ****   else
 545:STM32Cube_FW_N6/Drivers/STM32N6xx_HAL_Driver/Src/stm32n6xx_hal_dma.c ****   {
 546:STM32Cube_FW_N6/Drivers/STM32N6xx_HAL_Driver/Src/stm32n6xx_hal_dma.c ****     /* Update the DMA channel error code */
 547:STM32Cube_FW_N6/Drivers/STM32N6xx_HAL_Driver/Src/stm32n6xx_hal_dma.c ****     hdma->ErrorCode = HAL_DMA_ERROR_BUSY;
 548:STM32Cube_FW_N6/Drivers/STM32N6xx_HAL_Driver/Src/stm32n6xx_hal_dma.c **** 
 549:STM32Cube_FW_N6/Drivers/STM32N6xx_HAL_Driver/Src/stm32n6xx_hal_dma.c ****     /* Process unlocked */
 550:STM32Cube_FW_N6/Drivers/STM32N6xx_HAL_Driver/Src/stm32n6xx_hal_dma.c ****     __HAL_UNLOCK(hdma);
 551:STM32Cube_FW_N6/Drivers/STM32N6xx_HAL_Driver/Src/stm32n6xx_hal_dma.c **** 
 552:STM32Cube_FW_N6/Drivers/STM32N6xx_HAL_Driver/Src/stm32n6xx_hal_dma.c ****     return HAL_ERROR;
 553:STM32Cube_FW_N6/Drivers/STM32N6xx_HAL_Driver/Src/stm32n6xx_hal_dma.c ****   }
 554:STM32Cube_FW_N6/Drivers/STM32N6xx_HAL_Driver/Src/stm32n6xx_hal_dma.c **** 
 555:STM32Cube_FW_N6/Drivers/STM32N6xx_HAL_Driver/Src/stm32n6xx_hal_dma.c ****   return HAL_OK;
 556:STM32Cube_FW_N6/Drivers/STM32N6xx_HAL_Driver/Src/stm32n6xx_hal_dma.c **** }
 557:STM32Cube_FW_N6/Drivers/STM32N6xx_HAL_Driver/Src/stm32n6xx_hal_dma.c **** 
 558:STM32Cube_FW_N6/Drivers/STM32N6xx_HAL_Driver/Src/stm32n6xx_hal_dma.c **** /**
 559:STM32Cube_FW_N6/Drivers/STM32N6xx_HAL_Driver/Src/stm32n6xx_hal_dma.c ****   * @brief  Starts the DMA channel transfer in normal mode with interrupts enabled (Non-blocking mo
 560:STM32Cube_FW_N6/Drivers/STM32N6xx_HAL_Driver/Src/stm32n6xx_hal_dma.c ****   * @param  hdma         : Pointer to a DMA_HandleTypeDef structure that contains the configuration
 561:STM32Cube_FW_N6/Drivers/STM32N6xx_HAL_Driver/Src/stm32n6xx_hal_dma.c ****   *                        specified DMA Channel.
 562:STM32Cube_FW_N6/Drivers/STM32N6xx_HAL_Driver/Src/stm32n6xx_hal_dma.c ****   * @param  SrcAddress   : The source data address.
 563:STM32Cube_FW_N6/Drivers/STM32N6xx_HAL_Driver/Src/stm32n6xx_hal_dma.c ****   * @param  DstAddress   : The destination data address.
 564:STM32Cube_FW_N6/Drivers/STM32N6xx_HAL_Driver/Src/stm32n6xx_hal_dma.c ****   * @param  SrcDataSize  : The length of data to be transferred from source to destination in bytes
 565:STM32Cube_FW_N6/Drivers/STM32N6xx_HAL_Driver/Src/stm32n6xx_hal_dma.c ****   * @retval HAL status.
 566:STM32Cube_FW_N6/Drivers/STM32N6xx_HAL_Driver/Src/stm32n6xx_hal_dma.c ****   */
 567:STM32Cube_FW_N6/Drivers/STM32N6xx_HAL_Driver/Src/stm32n6xx_hal_dma.c **** HAL_StatusTypeDef HAL_DMA_Start_IT(DMA_HandleTypeDef *const hdma,
 568:STM32Cube_FW_N6/Drivers/STM32N6xx_HAL_Driver/Src/stm32n6xx_hal_dma.c ****                                    uint32_t SrcAddress,
 569:STM32Cube_FW_N6/Drivers/STM32N6xx_HAL_Driver/Src/stm32n6xx_hal_dma.c ****                                    uint32_t DstAddress,
 570:STM32Cube_FW_N6/Drivers/STM32N6xx_HAL_Driver/Src/stm32n6xx_hal_dma.c ****                                    uint32_t SrcDataSize)
 571:STM32Cube_FW_N6/Drivers/STM32N6xx_HAL_Driver/Src/stm32n6xx_hal_dma.c **** {
 572:STM32Cube_FW_N6/Drivers/STM32N6xx_HAL_Driver/Src/stm32n6xx_hal_dma.c ****   /* Check the DMA peripheral handle parameter */
 573:STM32Cube_FW_N6/Drivers/STM32N6xx_HAL_Driver/Src/stm32n6xx_hal_dma.c ****   if (hdma == NULL)
 574:STM32Cube_FW_N6/Drivers/STM32N6xx_HAL_Driver/Src/stm32n6xx_hal_dma.c ****   {
 575:STM32Cube_FW_N6/Drivers/STM32N6xx_HAL_Driver/Src/stm32n6xx_hal_dma.c ****     return HAL_ERROR;
 576:STM32Cube_FW_N6/Drivers/STM32N6xx_HAL_Driver/Src/stm32n6xx_hal_dma.c ****   }
 577:STM32Cube_FW_N6/Drivers/STM32N6xx_HAL_Driver/Src/stm32n6xx_hal_dma.c **** 
 578:STM32Cube_FW_N6/Drivers/STM32N6xx_HAL_Driver/Src/stm32n6xx_hal_dma.c ****   /* Check the parameters */
 579:STM32Cube_FW_N6/Drivers/STM32N6xx_HAL_Driver/Src/stm32n6xx_hal_dma.c ****   assert_param(IS_DMA_BLOCK_SIZE(SrcDataSize));
 580:STM32Cube_FW_N6/Drivers/STM32N6xx_HAL_Driver/Src/stm32n6xx_hal_dma.c **** 
 581:STM32Cube_FW_N6/Drivers/STM32N6xx_HAL_Driver/Src/stm32n6xx_hal_dma.c ****   /* Process locked */
 582:STM32Cube_FW_N6/Drivers/STM32N6xx_HAL_Driver/Src/stm32n6xx_hal_dma.c ****   __HAL_LOCK(hdma);
 583:STM32Cube_FW_N6/Drivers/STM32N6xx_HAL_Driver/Src/stm32n6xx_hal_dma.c **** 
 584:STM32Cube_FW_N6/Drivers/STM32N6xx_HAL_Driver/Src/stm32n6xx_hal_dma.c ****   /* Check DMA channel state */
 585:STM32Cube_FW_N6/Drivers/STM32N6xx_HAL_Driver/Src/stm32n6xx_hal_dma.c ****   if (hdma->State == HAL_DMA_STATE_READY)
 586:STM32Cube_FW_N6/Drivers/STM32N6xx_HAL_Driver/Src/stm32n6xx_hal_dma.c ****   {
ARM GAS  C:\Users\DJESSOU\AppData\Local\Temp\ccEz5zGK.s 			page 29


 587:STM32Cube_FW_N6/Drivers/STM32N6xx_HAL_Driver/Src/stm32n6xx_hal_dma.c ****     /* Update the DMA channel state */
 588:STM32Cube_FW_N6/Drivers/STM32N6xx_HAL_Driver/Src/stm32n6xx_hal_dma.c ****     hdma->State = HAL_DMA_STATE_BUSY;
 589:STM32Cube_FW_N6/Drivers/STM32N6xx_HAL_Driver/Src/stm32n6xx_hal_dma.c **** 
 590:STM32Cube_FW_N6/Drivers/STM32N6xx_HAL_Driver/Src/stm32n6xx_hal_dma.c ****     /* Update the DMA channel error code */
 591:STM32Cube_FW_N6/Drivers/STM32N6xx_HAL_Driver/Src/stm32n6xx_hal_dma.c ****     hdma->ErrorCode = HAL_DMA_ERROR_NONE;
 592:STM32Cube_FW_N6/Drivers/STM32N6xx_HAL_Driver/Src/stm32n6xx_hal_dma.c **** 
 593:STM32Cube_FW_N6/Drivers/STM32N6xx_HAL_Driver/Src/stm32n6xx_hal_dma.c ****     /* Configure the source address, destination address, the data size and clear flags */
 594:STM32Cube_FW_N6/Drivers/STM32N6xx_HAL_Driver/Src/stm32n6xx_hal_dma.c ****     DMA_SetConfig(hdma, SrcAddress, DstAddress, SrcDataSize);
 595:STM32Cube_FW_N6/Drivers/STM32N6xx_HAL_Driver/Src/stm32n6xx_hal_dma.c **** 
 596:STM32Cube_FW_N6/Drivers/STM32N6xx_HAL_Driver/Src/stm32n6xx_hal_dma.c ****     /* Enable common interrupts: Transfer Complete and Transfer Errors ITs */
 597:STM32Cube_FW_N6/Drivers/STM32N6xx_HAL_Driver/Src/stm32n6xx_hal_dma.c ****     __HAL_DMA_ENABLE_IT(hdma, (DMA_IT_TC | DMA_IT_DTE | DMA_IT_ULE | DMA_IT_USE | DMA_IT_TO));
 598:STM32Cube_FW_N6/Drivers/STM32N6xx_HAL_Driver/Src/stm32n6xx_hal_dma.c **** 
 599:STM32Cube_FW_N6/Drivers/STM32N6xx_HAL_Driver/Src/stm32n6xx_hal_dma.c ****     /* Check half transfer complete callback */
 600:STM32Cube_FW_N6/Drivers/STM32N6xx_HAL_Driver/Src/stm32n6xx_hal_dma.c ****     if (hdma->XferHalfCpltCallback != NULL)
 601:STM32Cube_FW_N6/Drivers/STM32N6xx_HAL_Driver/Src/stm32n6xx_hal_dma.c ****     {
 602:STM32Cube_FW_N6/Drivers/STM32N6xx_HAL_Driver/Src/stm32n6xx_hal_dma.c ****       /* If Half Transfer complete callback is set, enable the corresponding IT */
 603:STM32Cube_FW_N6/Drivers/STM32N6xx_HAL_Driver/Src/stm32n6xx_hal_dma.c ****       __HAL_DMA_ENABLE_IT(hdma, DMA_IT_HT);
 604:STM32Cube_FW_N6/Drivers/STM32N6xx_HAL_Driver/Src/stm32n6xx_hal_dma.c ****     }
 605:STM32Cube_FW_N6/Drivers/STM32N6xx_HAL_Driver/Src/stm32n6xx_hal_dma.c **** 
 606:STM32Cube_FW_N6/Drivers/STM32N6xx_HAL_Driver/Src/stm32n6xx_hal_dma.c ****     /* Check Half suspend callback */
 607:STM32Cube_FW_N6/Drivers/STM32N6xx_HAL_Driver/Src/stm32n6xx_hal_dma.c ****     if (hdma->XferSuspendCallback != NULL)
 608:STM32Cube_FW_N6/Drivers/STM32N6xx_HAL_Driver/Src/stm32n6xx_hal_dma.c ****     {
 609:STM32Cube_FW_N6/Drivers/STM32N6xx_HAL_Driver/Src/stm32n6xx_hal_dma.c ****       /* If Transfer suspend callback is set, enable the corresponding IT */
 610:STM32Cube_FW_N6/Drivers/STM32N6xx_HAL_Driver/Src/stm32n6xx_hal_dma.c ****       __HAL_DMA_ENABLE_IT(hdma, DMA_IT_SUSP);
 611:STM32Cube_FW_N6/Drivers/STM32N6xx_HAL_Driver/Src/stm32n6xx_hal_dma.c ****     }
 612:STM32Cube_FW_N6/Drivers/STM32N6xx_HAL_Driver/Src/stm32n6xx_hal_dma.c **** 
 613:STM32Cube_FW_N6/Drivers/STM32N6xx_HAL_Driver/Src/stm32n6xx_hal_dma.c ****     /* Enable DMA channel */
 614:STM32Cube_FW_N6/Drivers/STM32N6xx_HAL_Driver/Src/stm32n6xx_hal_dma.c ****     __HAL_DMA_ENABLE(hdma);
 615:STM32Cube_FW_N6/Drivers/STM32N6xx_HAL_Driver/Src/stm32n6xx_hal_dma.c ****   }
 616:STM32Cube_FW_N6/Drivers/STM32N6xx_HAL_Driver/Src/stm32n6xx_hal_dma.c ****   else
 617:STM32Cube_FW_N6/Drivers/STM32N6xx_HAL_Driver/Src/stm32n6xx_hal_dma.c ****   {
 618:STM32Cube_FW_N6/Drivers/STM32N6xx_HAL_Driver/Src/stm32n6xx_hal_dma.c ****     /* Update the DMA channel error code */
 619:STM32Cube_FW_N6/Drivers/STM32N6xx_HAL_Driver/Src/stm32n6xx_hal_dma.c ****     hdma->ErrorCode = HAL_DMA_ERROR_BUSY;
 620:STM32Cube_FW_N6/Drivers/STM32N6xx_HAL_Driver/Src/stm32n6xx_hal_dma.c **** 
 621:STM32Cube_FW_N6/Drivers/STM32N6xx_HAL_Driver/Src/stm32n6xx_hal_dma.c ****     /* Process unlocked */
 622:STM32Cube_FW_N6/Drivers/STM32N6xx_HAL_Driver/Src/stm32n6xx_hal_dma.c ****     __HAL_UNLOCK(hdma);
 623:STM32Cube_FW_N6/Drivers/STM32N6xx_HAL_Driver/Src/stm32n6xx_hal_dma.c **** 
 624:STM32Cube_FW_N6/Drivers/STM32N6xx_HAL_Driver/Src/stm32n6xx_hal_dma.c ****     return HAL_ERROR;
 625:STM32Cube_FW_N6/Drivers/STM32N6xx_HAL_Driver/Src/stm32n6xx_hal_dma.c ****   }
 626:STM32Cube_FW_N6/Drivers/STM32N6xx_HAL_Driver/Src/stm32n6xx_hal_dma.c **** 
 627:STM32Cube_FW_N6/Drivers/STM32N6xx_HAL_Driver/Src/stm32n6xx_hal_dma.c ****   return HAL_OK;
 628:STM32Cube_FW_N6/Drivers/STM32N6xx_HAL_Driver/Src/stm32n6xx_hal_dma.c **** }
 629:STM32Cube_FW_N6/Drivers/STM32N6xx_HAL_Driver/Src/stm32n6xx_hal_dma.c **** 
 630:STM32Cube_FW_N6/Drivers/STM32N6xx_HAL_Driver/Src/stm32n6xx_hal_dma.c **** /**
 631:STM32Cube_FW_N6/Drivers/STM32N6xx_HAL_Driver/Src/stm32n6xx_hal_dma.c ****   * @brief  Abort any on-going DMA channel transfer (Blocking mode).
 632:STM32Cube_FW_N6/Drivers/STM32N6xx_HAL_Driver/Src/stm32n6xx_hal_dma.c ****   * @param  hdma : Pointer to a DMA_HandleTypeDef structure that contains the configuration informa
 633:STM32Cube_FW_N6/Drivers/STM32N6xx_HAL_Driver/Src/stm32n6xx_hal_dma.c ****   *                specified DMA Channel.
 634:STM32Cube_FW_N6/Drivers/STM32N6xx_HAL_Driver/Src/stm32n6xx_hal_dma.c ****   * @note   After suspending a DMA channel, a wait until the DMA channel is effectively stopped is 
 635:STM32Cube_FW_N6/Drivers/STM32N6xx_HAL_Driver/Src/stm32n6xx_hal_dma.c ****   *         is suspended while a data transfer is on-going, the current data will be transferred an
 636:STM32Cube_FW_N6/Drivers/STM32N6xx_HAL_Driver/Src/stm32n6xx_hal_dma.c ****   *         effectively suspended only after the transfer of any on-going data is finished.
 637:STM32Cube_FW_N6/Drivers/STM32N6xx_HAL_Driver/Src/stm32n6xx_hal_dma.c ****   * @retval HAL status.
 638:STM32Cube_FW_N6/Drivers/STM32N6xx_HAL_Driver/Src/stm32n6xx_hal_dma.c ****   */
 639:STM32Cube_FW_N6/Drivers/STM32N6xx_HAL_Driver/Src/stm32n6xx_hal_dma.c **** HAL_StatusTypeDef HAL_DMA_Abort(DMA_HandleTypeDef *const hdma)
 640:STM32Cube_FW_N6/Drivers/STM32N6xx_HAL_Driver/Src/stm32n6xx_hal_dma.c **** {
 641:STM32Cube_FW_N6/Drivers/STM32N6xx_HAL_Driver/Src/stm32n6xx_hal_dma.c ****   /* Get tick number */
 642:STM32Cube_FW_N6/Drivers/STM32N6xx_HAL_Driver/Src/stm32n6xx_hal_dma.c ****   uint32_t tickstart =  HAL_GetTick();
 643:STM32Cube_FW_N6/Drivers/STM32N6xx_HAL_Driver/Src/stm32n6xx_hal_dma.c **** 
ARM GAS  C:\Users\DJESSOU\AppData\Local\Temp\ccEz5zGK.s 			page 30


 644:STM32Cube_FW_N6/Drivers/STM32N6xx_HAL_Driver/Src/stm32n6xx_hal_dma.c ****   /* Check the DMA peripheral handle parameter */
 645:STM32Cube_FW_N6/Drivers/STM32N6xx_HAL_Driver/Src/stm32n6xx_hal_dma.c ****   if (hdma == NULL)
 646:STM32Cube_FW_N6/Drivers/STM32N6xx_HAL_Driver/Src/stm32n6xx_hal_dma.c ****   {
 647:STM32Cube_FW_N6/Drivers/STM32N6xx_HAL_Driver/Src/stm32n6xx_hal_dma.c ****     return HAL_ERROR;
 648:STM32Cube_FW_N6/Drivers/STM32N6xx_HAL_Driver/Src/stm32n6xx_hal_dma.c ****   }
 649:STM32Cube_FW_N6/Drivers/STM32N6xx_HAL_Driver/Src/stm32n6xx_hal_dma.c **** 
 650:STM32Cube_FW_N6/Drivers/STM32N6xx_HAL_Driver/Src/stm32n6xx_hal_dma.c ****   /* Check DMA channel state */
 651:STM32Cube_FW_N6/Drivers/STM32N6xx_HAL_Driver/Src/stm32n6xx_hal_dma.c ****   if (hdma->State != HAL_DMA_STATE_BUSY)
 652:STM32Cube_FW_N6/Drivers/STM32N6xx_HAL_Driver/Src/stm32n6xx_hal_dma.c ****   {
 653:STM32Cube_FW_N6/Drivers/STM32N6xx_HAL_Driver/Src/stm32n6xx_hal_dma.c ****     /* Update the DMA channel error code */
 654:STM32Cube_FW_N6/Drivers/STM32N6xx_HAL_Driver/Src/stm32n6xx_hal_dma.c ****     hdma->ErrorCode = HAL_DMA_ERROR_NO_XFER;
 655:STM32Cube_FW_N6/Drivers/STM32N6xx_HAL_Driver/Src/stm32n6xx_hal_dma.c **** 
 656:STM32Cube_FW_N6/Drivers/STM32N6xx_HAL_Driver/Src/stm32n6xx_hal_dma.c ****     /* Process Unlocked */
 657:STM32Cube_FW_N6/Drivers/STM32N6xx_HAL_Driver/Src/stm32n6xx_hal_dma.c ****     __HAL_UNLOCK(hdma);
 658:STM32Cube_FW_N6/Drivers/STM32N6xx_HAL_Driver/Src/stm32n6xx_hal_dma.c **** 
 659:STM32Cube_FW_N6/Drivers/STM32N6xx_HAL_Driver/Src/stm32n6xx_hal_dma.c ****     return HAL_ERROR;
 660:STM32Cube_FW_N6/Drivers/STM32N6xx_HAL_Driver/Src/stm32n6xx_hal_dma.c ****   }
 661:STM32Cube_FW_N6/Drivers/STM32N6xx_HAL_Driver/Src/stm32n6xx_hal_dma.c ****   else
 662:STM32Cube_FW_N6/Drivers/STM32N6xx_HAL_Driver/Src/stm32n6xx_hal_dma.c ****   {
 663:STM32Cube_FW_N6/Drivers/STM32N6xx_HAL_Driver/Src/stm32n6xx_hal_dma.c ****     /* Suspend the channel */
 664:STM32Cube_FW_N6/Drivers/STM32N6xx_HAL_Driver/Src/stm32n6xx_hal_dma.c ****     hdma->Instance->CCR |= DMA_CCR_SUSP;
 665:STM32Cube_FW_N6/Drivers/STM32N6xx_HAL_Driver/Src/stm32n6xx_hal_dma.c **** 
 666:STM32Cube_FW_N6/Drivers/STM32N6xx_HAL_Driver/Src/stm32n6xx_hal_dma.c ****     /* Update the DMA channel state */
 667:STM32Cube_FW_N6/Drivers/STM32N6xx_HAL_Driver/Src/stm32n6xx_hal_dma.c ****     hdma->State = HAL_DMA_STATE_SUSPEND;
 668:STM32Cube_FW_N6/Drivers/STM32N6xx_HAL_Driver/Src/stm32n6xx_hal_dma.c **** 
 669:STM32Cube_FW_N6/Drivers/STM32N6xx_HAL_Driver/Src/stm32n6xx_hal_dma.c ****     /* Check if the DMA Channel is suspended */
 670:STM32Cube_FW_N6/Drivers/STM32N6xx_HAL_Driver/Src/stm32n6xx_hal_dma.c ****     while ((hdma->Instance->CSR & DMA_CSR_SUSPF) == 0U)
 671:STM32Cube_FW_N6/Drivers/STM32N6xx_HAL_Driver/Src/stm32n6xx_hal_dma.c ****     {
 672:STM32Cube_FW_N6/Drivers/STM32N6xx_HAL_Driver/Src/stm32n6xx_hal_dma.c ****       /* Check for the Timeout */
 673:STM32Cube_FW_N6/Drivers/STM32N6xx_HAL_Driver/Src/stm32n6xx_hal_dma.c ****       if ((HAL_GetTick() - tickstart) > HAL_TIMEOUT_DMA_ABORT)
 674:STM32Cube_FW_N6/Drivers/STM32N6xx_HAL_Driver/Src/stm32n6xx_hal_dma.c ****       {
 675:STM32Cube_FW_N6/Drivers/STM32N6xx_HAL_Driver/Src/stm32n6xx_hal_dma.c ****         /* Update the DMA channel error code */
 676:STM32Cube_FW_N6/Drivers/STM32N6xx_HAL_Driver/Src/stm32n6xx_hal_dma.c ****         hdma->ErrorCode |= HAL_DMA_ERROR_TIMEOUT;
 677:STM32Cube_FW_N6/Drivers/STM32N6xx_HAL_Driver/Src/stm32n6xx_hal_dma.c **** 
 678:STM32Cube_FW_N6/Drivers/STM32N6xx_HAL_Driver/Src/stm32n6xx_hal_dma.c ****         /* Update the DMA channel state */
 679:STM32Cube_FW_N6/Drivers/STM32N6xx_HAL_Driver/Src/stm32n6xx_hal_dma.c ****         hdma->State = HAL_DMA_STATE_ERROR;
 680:STM32Cube_FW_N6/Drivers/STM32N6xx_HAL_Driver/Src/stm32n6xx_hal_dma.c **** 
 681:STM32Cube_FW_N6/Drivers/STM32N6xx_HAL_Driver/Src/stm32n6xx_hal_dma.c ****         /* Check DMA channel transfer mode */
 682:STM32Cube_FW_N6/Drivers/STM32N6xx_HAL_Driver/Src/stm32n6xx_hal_dma.c ****         if ((hdma->Mode & DMA_LINKEDLIST) == DMA_LINKEDLIST)
 683:STM32Cube_FW_N6/Drivers/STM32N6xx_HAL_Driver/Src/stm32n6xx_hal_dma.c ****         {
 684:STM32Cube_FW_N6/Drivers/STM32N6xx_HAL_Driver/Src/stm32n6xx_hal_dma.c ****           /* Update the linked-list queue state */
 685:STM32Cube_FW_N6/Drivers/STM32N6xx_HAL_Driver/Src/stm32n6xx_hal_dma.c ****           hdma->LinkedListQueue->State = HAL_DMA_QUEUE_STATE_READY;
 686:STM32Cube_FW_N6/Drivers/STM32N6xx_HAL_Driver/Src/stm32n6xx_hal_dma.c ****         }
 687:STM32Cube_FW_N6/Drivers/STM32N6xx_HAL_Driver/Src/stm32n6xx_hal_dma.c **** 
 688:STM32Cube_FW_N6/Drivers/STM32N6xx_HAL_Driver/Src/stm32n6xx_hal_dma.c ****         /* Process Unlocked */
 689:STM32Cube_FW_N6/Drivers/STM32N6xx_HAL_Driver/Src/stm32n6xx_hal_dma.c ****         __HAL_UNLOCK(hdma);
 690:STM32Cube_FW_N6/Drivers/STM32N6xx_HAL_Driver/Src/stm32n6xx_hal_dma.c **** 
 691:STM32Cube_FW_N6/Drivers/STM32N6xx_HAL_Driver/Src/stm32n6xx_hal_dma.c ****         return HAL_ERROR;
 692:STM32Cube_FW_N6/Drivers/STM32N6xx_HAL_Driver/Src/stm32n6xx_hal_dma.c ****       }
 693:STM32Cube_FW_N6/Drivers/STM32N6xx_HAL_Driver/Src/stm32n6xx_hal_dma.c ****     }
 694:STM32Cube_FW_N6/Drivers/STM32N6xx_HAL_Driver/Src/stm32n6xx_hal_dma.c **** 
 695:STM32Cube_FW_N6/Drivers/STM32N6xx_HAL_Driver/Src/stm32n6xx_hal_dma.c ****     /* Reset the channel */
 696:STM32Cube_FW_N6/Drivers/STM32N6xx_HAL_Driver/Src/stm32n6xx_hal_dma.c ****     hdma->Instance->CCR |= DMA_CCR_RESET;
 697:STM32Cube_FW_N6/Drivers/STM32N6xx_HAL_Driver/Src/stm32n6xx_hal_dma.c **** 
 698:STM32Cube_FW_N6/Drivers/STM32N6xx_HAL_Driver/Src/stm32n6xx_hal_dma.c ****     /* Update the DMA channel state */
 699:STM32Cube_FW_N6/Drivers/STM32N6xx_HAL_Driver/Src/stm32n6xx_hal_dma.c ****     hdma->State = HAL_DMA_STATE_ABORT;
 700:STM32Cube_FW_N6/Drivers/STM32N6xx_HAL_Driver/Src/stm32n6xx_hal_dma.c **** 
ARM GAS  C:\Users\DJESSOU\AppData\Local\Temp\ccEz5zGK.s 			page 31


 701:STM32Cube_FW_N6/Drivers/STM32N6xx_HAL_Driver/Src/stm32n6xx_hal_dma.c ****     /* Clear all status flags */
 702:STM32Cube_FW_N6/Drivers/STM32N6xx_HAL_Driver/Src/stm32n6xx_hal_dma.c ****     __HAL_DMA_CLEAR_FLAG(hdma, (DMA_FLAG_TC | DMA_FLAG_HT | DMA_FLAG_DTE | DMA_FLAG_ULE | DMA_FLAG_
 703:STM32Cube_FW_N6/Drivers/STM32N6xx_HAL_Driver/Src/stm32n6xx_hal_dma.c ****                                 DMA_FLAG_TO));
 704:STM32Cube_FW_N6/Drivers/STM32N6xx_HAL_Driver/Src/stm32n6xx_hal_dma.c **** 
 705:STM32Cube_FW_N6/Drivers/STM32N6xx_HAL_Driver/Src/stm32n6xx_hal_dma.c ****     /* Update the DMA channel state */
 706:STM32Cube_FW_N6/Drivers/STM32N6xx_HAL_Driver/Src/stm32n6xx_hal_dma.c ****     hdma->State = HAL_DMA_STATE_READY;
 707:STM32Cube_FW_N6/Drivers/STM32N6xx_HAL_Driver/Src/stm32n6xx_hal_dma.c **** 
 708:STM32Cube_FW_N6/Drivers/STM32N6xx_HAL_Driver/Src/stm32n6xx_hal_dma.c ****     /* Check DMA channel transfer mode */
 709:STM32Cube_FW_N6/Drivers/STM32N6xx_HAL_Driver/Src/stm32n6xx_hal_dma.c ****     if ((hdma->Mode & DMA_LINKEDLIST) == DMA_LINKEDLIST)
 710:STM32Cube_FW_N6/Drivers/STM32N6xx_HAL_Driver/Src/stm32n6xx_hal_dma.c ****     {
 711:STM32Cube_FW_N6/Drivers/STM32N6xx_HAL_Driver/Src/stm32n6xx_hal_dma.c ****       /* Update the linked-list queue state */
 712:STM32Cube_FW_N6/Drivers/STM32N6xx_HAL_Driver/Src/stm32n6xx_hal_dma.c ****       hdma->LinkedListQueue->State = HAL_DMA_QUEUE_STATE_READY;
 713:STM32Cube_FW_N6/Drivers/STM32N6xx_HAL_Driver/Src/stm32n6xx_hal_dma.c **** 
 714:STM32Cube_FW_N6/Drivers/STM32N6xx_HAL_Driver/Src/stm32n6xx_hal_dma.c ****       /* Clear remaining data size to ensure loading linked-list from memory next start */
 715:STM32Cube_FW_N6/Drivers/STM32N6xx_HAL_Driver/Src/stm32n6xx_hal_dma.c ****       hdma->Instance->CBR1 = 0U;
 716:STM32Cube_FW_N6/Drivers/STM32N6xx_HAL_Driver/Src/stm32n6xx_hal_dma.c ****     }
 717:STM32Cube_FW_N6/Drivers/STM32N6xx_HAL_Driver/Src/stm32n6xx_hal_dma.c **** 
 718:STM32Cube_FW_N6/Drivers/STM32N6xx_HAL_Driver/Src/stm32n6xx_hal_dma.c ****     /* Process Unlocked */
 719:STM32Cube_FW_N6/Drivers/STM32N6xx_HAL_Driver/Src/stm32n6xx_hal_dma.c ****     __HAL_UNLOCK(hdma);
 720:STM32Cube_FW_N6/Drivers/STM32N6xx_HAL_Driver/Src/stm32n6xx_hal_dma.c ****   }
 721:STM32Cube_FW_N6/Drivers/STM32N6xx_HAL_Driver/Src/stm32n6xx_hal_dma.c **** 
 722:STM32Cube_FW_N6/Drivers/STM32N6xx_HAL_Driver/Src/stm32n6xx_hal_dma.c ****   return HAL_OK;
 723:STM32Cube_FW_N6/Drivers/STM32N6xx_HAL_Driver/Src/stm32n6xx_hal_dma.c **** }
 724:STM32Cube_FW_N6/Drivers/STM32N6xx_HAL_Driver/Src/stm32n6xx_hal_dma.c **** 
 725:STM32Cube_FW_N6/Drivers/STM32N6xx_HAL_Driver/Src/stm32n6xx_hal_dma.c **** /**
 726:STM32Cube_FW_N6/Drivers/STM32N6xx_HAL_Driver/Src/stm32n6xx_hal_dma.c ****   * @brief  Abort any on-going DMA channel transfer in interrupt mode (Non-blocking mode).
 727:STM32Cube_FW_N6/Drivers/STM32N6xx_HAL_Driver/Src/stm32n6xx_hal_dma.c ****   * @param  hdma : Pointer to a DMA_HandleTypeDef structure that contains the configuration informa
 728:STM32Cube_FW_N6/Drivers/STM32N6xx_HAL_Driver/Src/stm32n6xx_hal_dma.c ****   *                specified DMA Channel.
 729:STM32Cube_FW_N6/Drivers/STM32N6xx_HAL_Driver/Src/stm32n6xx_hal_dma.c ****   * @retval HAL status.
 730:STM32Cube_FW_N6/Drivers/STM32N6xx_HAL_Driver/Src/stm32n6xx_hal_dma.c ****   */
 731:STM32Cube_FW_N6/Drivers/STM32N6xx_HAL_Driver/Src/stm32n6xx_hal_dma.c **** HAL_StatusTypeDef HAL_DMA_Abort_IT(DMA_HandleTypeDef *const hdma)
 732:STM32Cube_FW_N6/Drivers/STM32N6xx_HAL_Driver/Src/stm32n6xx_hal_dma.c **** {
 733:STM32Cube_FW_N6/Drivers/STM32N6xx_HAL_Driver/Src/stm32n6xx_hal_dma.c ****   /* Check the DMA peripheral handle parameter */
 734:STM32Cube_FW_N6/Drivers/STM32N6xx_HAL_Driver/Src/stm32n6xx_hal_dma.c ****   if (hdma == NULL)
 735:STM32Cube_FW_N6/Drivers/STM32N6xx_HAL_Driver/Src/stm32n6xx_hal_dma.c ****   {
 736:STM32Cube_FW_N6/Drivers/STM32N6xx_HAL_Driver/Src/stm32n6xx_hal_dma.c ****     return HAL_ERROR;
 737:STM32Cube_FW_N6/Drivers/STM32N6xx_HAL_Driver/Src/stm32n6xx_hal_dma.c ****   }
 738:STM32Cube_FW_N6/Drivers/STM32N6xx_HAL_Driver/Src/stm32n6xx_hal_dma.c **** 
 739:STM32Cube_FW_N6/Drivers/STM32N6xx_HAL_Driver/Src/stm32n6xx_hal_dma.c ****   /* Check DMA channel state */
 740:STM32Cube_FW_N6/Drivers/STM32N6xx_HAL_Driver/Src/stm32n6xx_hal_dma.c ****   if (hdma->State != HAL_DMA_STATE_BUSY)
 741:STM32Cube_FW_N6/Drivers/STM32N6xx_HAL_Driver/Src/stm32n6xx_hal_dma.c ****   {
 742:STM32Cube_FW_N6/Drivers/STM32N6xx_HAL_Driver/Src/stm32n6xx_hal_dma.c ****     /* Update the DMA channel error code */
 743:STM32Cube_FW_N6/Drivers/STM32N6xx_HAL_Driver/Src/stm32n6xx_hal_dma.c ****     hdma->ErrorCode = HAL_DMA_ERROR_NO_XFER;
 744:STM32Cube_FW_N6/Drivers/STM32N6xx_HAL_Driver/Src/stm32n6xx_hal_dma.c **** 
 745:STM32Cube_FW_N6/Drivers/STM32N6xx_HAL_Driver/Src/stm32n6xx_hal_dma.c ****     return HAL_ERROR;
 746:STM32Cube_FW_N6/Drivers/STM32N6xx_HAL_Driver/Src/stm32n6xx_hal_dma.c ****   }
 747:STM32Cube_FW_N6/Drivers/STM32N6xx_HAL_Driver/Src/stm32n6xx_hal_dma.c ****   else
 748:STM32Cube_FW_N6/Drivers/STM32N6xx_HAL_Driver/Src/stm32n6xx_hal_dma.c ****   {
 749:STM32Cube_FW_N6/Drivers/STM32N6xx_HAL_Driver/Src/stm32n6xx_hal_dma.c ****     /* Update the DMA channel state */
 750:STM32Cube_FW_N6/Drivers/STM32N6xx_HAL_Driver/Src/stm32n6xx_hal_dma.c ****     hdma->State = HAL_DMA_STATE_ABORT;
 751:STM32Cube_FW_N6/Drivers/STM32N6xx_HAL_Driver/Src/stm32n6xx_hal_dma.c **** 
 752:STM32Cube_FW_N6/Drivers/STM32N6xx_HAL_Driver/Src/stm32n6xx_hal_dma.c ****     /* Suspend the channel and activate suspend interrupt */
 753:STM32Cube_FW_N6/Drivers/STM32N6xx_HAL_Driver/Src/stm32n6xx_hal_dma.c ****     hdma->Instance->CCR |= (DMA_CCR_SUSP | DMA_CCR_SUSPIE);
 754:STM32Cube_FW_N6/Drivers/STM32N6xx_HAL_Driver/Src/stm32n6xx_hal_dma.c ****   }
 755:STM32Cube_FW_N6/Drivers/STM32N6xx_HAL_Driver/Src/stm32n6xx_hal_dma.c **** 
 756:STM32Cube_FW_N6/Drivers/STM32N6xx_HAL_Driver/Src/stm32n6xx_hal_dma.c ****   return HAL_OK;
 757:STM32Cube_FW_N6/Drivers/STM32N6xx_HAL_Driver/Src/stm32n6xx_hal_dma.c **** }
ARM GAS  C:\Users\DJESSOU\AppData\Local\Temp\ccEz5zGK.s 			page 32


 758:STM32Cube_FW_N6/Drivers/STM32N6xx_HAL_Driver/Src/stm32n6xx_hal_dma.c **** 
 759:STM32Cube_FW_N6/Drivers/STM32N6xx_HAL_Driver/Src/stm32n6xx_hal_dma.c **** /**
 760:STM32Cube_FW_N6/Drivers/STM32N6xx_HAL_Driver/Src/stm32n6xx_hal_dma.c ****   * @brief  Polling for transfer status (Blocking mode).
 761:STM32Cube_FW_N6/Drivers/STM32N6xx_HAL_Driver/Src/stm32n6xx_hal_dma.c ****   * @param  hdma          : Pointer to a DMA_HandleTypeDef structure that contains the configuratio
 762:STM32Cube_FW_N6/Drivers/STM32N6xx_HAL_Driver/Src/stm32n6xx_hal_dma.c ****   *                         specified DMA Channel.
 763:STM32Cube_FW_N6/Drivers/STM32N6xx_HAL_Driver/Src/stm32n6xx_hal_dma.c ****   * @param  CompleteLevel : Specifies the DMA level complete.
 764:STM32Cube_FW_N6/Drivers/STM32N6xx_HAL_Driver/Src/stm32n6xx_hal_dma.c ****   * @param  Timeout       : Timeout duration.
 765:STM32Cube_FW_N6/Drivers/STM32N6xx_HAL_Driver/Src/stm32n6xx_hal_dma.c ****   * @retval HAL status
 766:STM32Cube_FW_N6/Drivers/STM32N6xx_HAL_Driver/Src/stm32n6xx_hal_dma.c ****   */
 767:STM32Cube_FW_N6/Drivers/STM32N6xx_HAL_Driver/Src/stm32n6xx_hal_dma.c **** HAL_StatusTypeDef HAL_DMA_PollForTransfer(DMA_HandleTypeDef *const hdma,
 768:STM32Cube_FW_N6/Drivers/STM32N6xx_HAL_Driver/Src/stm32n6xx_hal_dma.c ****                                           HAL_DMA_LevelCompleteTypeDef CompleteLevel,
 769:STM32Cube_FW_N6/Drivers/STM32N6xx_HAL_Driver/Src/stm32n6xx_hal_dma.c ****                                           uint32_t Timeout)
 770:STM32Cube_FW_N6/Drivers/STM32N6xx_HAL_Driver/Src/stm32n6xx_hal_dma.c **** {
 771:STM32Cube_FW_N6/Drivers/STM32N6xx_HAL_Driver/Src/stm32n6xx_hal_dma.c ****   /* Get tick number */
 772:STM32Cube_FW_N6/Drivers/STM32N6xx_HAL_Driver/Src/stm32n6xx_hal_dma.c ****   uint32_t tickstart = HAL_GetTick();
 773:STM32Cube_FW_N6/Drivers/STM32N6xx_HAL_Driver/Src/stm32n6xx_hal_dma.c ****   uint32_t level_flag;
 774:STM32Cube_FW_N6/Drivers/STM32N6xx_HAL_Driver/Src/stm32n6xx_hal_dma.c ****   uint32_t tmp_csr;
 775:STM32Cube_FW_N6/Drivers/STM32N6xx_HAL_Driver/Src/stm32n6xx_hal_dma.c **** 
 776:STM32Cube_FW_N6/Drivers/STM32N6xx_HAL_Driver/Src/stm32n6xx_hal_dma.c ****   /* Check the DMA peripheral handle parameter */
 777:STM32Cube_FW_N6/Drivers/STM32N6xx_HAL_Driver/Src/stm32n6xx_hal_dma.c ****   if (hdma == NULL)
 778:STM32Cube_FW_N6/Drivers/STM32N6xx_HAL_Driver/Src/stm32n6xx_hal_dma.c ****   {
 779:STM32Cube_FW_N6/Drivers/STM32N6xx_HAL_Driver/Src/stm32n6xx_hal_dma.c ****     return HAL_ERROR;
 780:STM32Cube_FW_N6/Drivers/STM32N6xx_HAL_Driver/Src/stm32n6xx_hal_dma.c ****   }
 781:STM32Cube_FW_N6/Drivers/STM32N6xx_HAL_Driver/Src/stm32n6xx_hal_dma.c **** 
 782:STM32Cube_FW_N6/Drivers/STM32N6xx_HAL_Driver/Src/stm32n6xx_hal_dma.c ****   /* Check the parameters */
 783:STM32Cube_FW_N6/Drivers/STM32N6xx_HAL_Driver/Src/stm32n6xx_hal_dma.c ****   assert_param(IS_DMA_LEVEL_COMPLETE(CompleteLevel));
 784:STM32Cube_FW_N6/Drivers/STM32N6xx_HAL_Driver/Src/stm32n6xx_hal_dma.c **** 
 785:STM32Cube_FW_N6/Drivers/STM32N6xx_HAL_Driver/Src/stm32n6xx_hal_dma.c ****   /* Check DMA channel state */
 786:STM32Cube_FW_N6/Drivers/STM32N6xx_HAL_Driver/Src/stm32n6xx_hal_dma.c ****   if (hdma->State != HAL_DMA_STATE_BUSY)
 787:STM32Cube_FW_N6/Drivers/STM32N6xx_HAL_Driver/Src/stm32n6xx_hal_dma.c ****   {
 788:STM32Cube_FW_N6/Drivers/STM32N6xx_HAL_Driver/Src/stm32n6xx_hal_dma.c ****     /* Update the DMA channel error code */
 789:STM32Cube_FW_N6/Drivers/STM32N6xx_HAL_Driver/Src/stm32n6xx_hal_dma.c ****     hdma->ErrorCode = HAL_DMA_ERROR_NO_XFER;
 790:STM32Cube_FW_N6/Drivers/STM32N6xx_HAL_Driver/Src/stm32n6xx_hal_dma.c **** 
 791:STM32Cube_FW_N6/Drivers/STM32N6xx_HAL_Driver/Src/stm32n6xx_hal_dma.c ****     /* Process Unlocked */
 792:STM32Cube_FW_N6/Drivers/STM32N6xx_HAL_Driver/Src/stm32n6xx_hal_dma.c ****     __HAL_UNLOCK(hdma);
 793:STM32Cube_FW_N6/Drivers/STM32N6xx_HAL_Driver/Src/stm32n6xx_hal_dma.c **** 
 794:STM32Cube_FW_N6/Drivers/STM32N6xx_HAL_Driver/Src/stm32n6xx_hal_dma.c ****     return HAL_ERROR;
 795:STM32Cube_FW_N6/Drivers/STM32N6xx_HAL_Driver/Src/stm32n6xx_hal_dma.c ****   }
 796:STM32Cube_FW_N6/Drivers/STM32N6xx_HAL_Driver/Src/stm32n6xx_hal_dma.c **** 
 797:STM32Cube_FW_N6/Drivers/STM32N6xx_HAL_Driver/Src/stm32n6xx_hal_dma.c ****   /* Polling mode is not supported in circular mode */
 798:STM32Cube_FW_N6/Drivers/STM32N6xx_HAL_Driver/Src/stm32n6xx_hal_dma.c ****   if ((hdma->Mode & DMA_LINKEDLIST_CIRCULAR) == DMA_LINKEDLIST_CIRCULAR)
 799:STM32Cube_FW_N6/Drivers/STM32N6xx_HAL_Driver/Src/stm32n6xx_hal_dma.c ****   {
 800:STM32Cube_FW_N6/Drivers/STM32N6xx_HAL_Driver/Src/stm32n6xx_hal_dma.c ****     /* Update the DMA channel error code */
 801:STM32Cube_FW_N6/Drivers/STM32N6xx_HAL_Driver/Src/stm32n6xx_hal_dma.c ****     hdma->ErrorCode = HAL_DMA_ERROR_NOT_SUPPORTED;
 802:STM32Cube_FW_N6/Drivers/STM32N6xx_HAL_Driver/Src/stm32n6xx_hal_dma.c **** 
 803:STM32Cube_FW_N6/Drivers/STM32N6xx_HAL_Driver/Src/stm32n6xx_hal_dma.c ****     return HAL_ERROR;
 804:STM32Cube_FW_N6/Drivers/STM32N6xx_HAL_Driver/Src/stm32n6xx_hal_dma.c ****   }
 805:STM32Cube_FW_N6/Drivers/STM32N6xx_HAL_Driver/Src/stm32n6xx_hal_dma.c **** 
 806:STM32Cube_FW_N6/Drivers/STM32N6xx_HAL_Driver/Src/stm32n6xx_hal_dma.c ****   /* Get the level transfer complete flag */
 807:STM32Cube_FW_N6/Drivers/STM32N6xx_HAL_Driver/Src/stm32n6xx_hal_dma.c ****   level_flag = ((CompleteLevel == HAL_DMA_FULL_TRANSFER) ? DMA_FLAG_IDLE : DMA_FLAG_HT);
 808:STM32Cube_FW_N6/Drivers/STM32N6xx_HAL_Driver/Src/stm32n6xx_hal_dma.c **** 
 809:STM32Cube_FW_N6/Drivers/STM32N6xx_HAL_Driver/Src/stm32n6xx_hal_dma.c ****   /* Get DMA channel status */
 810:STM32Cube_FW_N6/Drivers/STM32N6xx_HAL_Driver/Src/stm32n6xx_hal_dma.c ****   tmp_csr = hdma->Instance->CSR;
 811:STM32Cube_FW_N6/Drivers/STM32N6xx_HAL_Driver/Src/stm32n6xx_hal_dma.c **** 
 812:STM32Cube_FW_N6/Drivers/STM32N6xx_HAL_Driver/Src/stm32n6xx_hal_dma.c ****   while ((tmp_csr & level_flag) == 0U)
 813:STM32Cube_FW_N6/Drivers/STM32N6xx_HAL_Driver/Src/stm32n6xx_hal_dma.c ****   {
 814:STM32Cube_FW_N6/Drivers/STM32N6xx_HAL_Driver/Src/stm32n6xx_hal_dma.c ****     /* Check for the timeout */
ARM GAS  C:\Users\DJESSOU\AppData\Local\Temp\ccEz5zGK.s 			page 33


 815:STM32Cube_FW_N6/Drivers/STM32N6xx_HAL_Driver/Src/stm32n6xx_hal_dma.c ****     if (Timeout != HAL_MAX_DELAY)
 816:STM32Cube_FW_N6/Drivers/STM32N6xx_HAL_Driver/Src/stm32n6xx_hal_dma.c ****     {
 817:STM32Cube_FW_N6/Drivers/STM32N6xx_HAL_Driver/Src/stm32n6xx_hal_dma.c ****       if (((HAL_GetTick() - tickstart) > Timeout) || (Timeout == 0U))
 818:STM32Cube_FW_N6/Drivers/STM32N6xx_HAL_Driver/Src/stm32n6xx_hal_dma.c ****       {
 819:STM32Cube_FW_N6/Drivers/STM32N6xx_HAL_Driver/Src/stm32n6xx_hal_dma.c ****         /* Update the DMA channel error code */
 820:STM32Cube_FW_N6/Drivers/STM32N6xx_HAL_Driver/Src/stm32n6xx_hal_dma.c ****         hdma->ErrorCode |= HAL_DMA_ERROR_TIMEOUT;
 821:STM32Cube_FW_N6/Drivers/STM32N6xx_HAL_Driver/Src/stm32n6xx_hal_dma.c **** 
 822:STM32Cube_FW_N6/Drivers/STM32N6xx_HAL_Driver/Src/stm32n6xx_hal_dma.c ****         /*
 823:STM32Cube_FW_N6/Drivers/STM32N6xx_HAL_Driver/Src/stm32n6xx_hal_dma.c ****           If timeout, abort the current transfer.
 824:STM32Cube_FW_N6/Drivers/STM32N6xx_HAL_Driver/Src/stm32n6xx_hal_dma.c ****           Note that the Abort function will
 825:STM32Cube_FW_N6/Drivers/STM32N6xx_HAL_Driver/Src/stm32n6xx_hal_dma.c ****           - Clear all transfer flags.
 826:STM32Cube_FW_N6/Drivers/STM32N6xx_HAL_Driver/Src/stm32n6xx_hal_dma.c ****           - Unlock.
 827:STM32Cube_FW_N6/Drivers/STM32N6xx_HAL_Driver/Src/stm32n6xx_hal_dma.c ****           - Set the State.
 828:STM32Cube_FW_N6/Drivers/STM32N6xx_HAL_Driver/Src/stm32n6xx_hal_dma.c ****         */
 829:STM32Cube_FW_N6/Drivers/STM32N6xx_HAL_Driver/Src/stm32n6xx_hal_dma.c ****         (void)HAL_DMA_Abort(hdma);
 830:STM32Cube_FW_N6/Drivers/STM32N6xx_HAL_Driver/Src/stm32n6xx_hal_dma.c **** 
 831:STM32Cube_FW_N6/Drivers/STM32N6xx_HAL_Driver/Src/stm32n6xx_hal_dma.c ****         return HAL_ERROR;
 832:STM32Cube_FW_N6/Drivers/STM32N6xx_HAL_Driver/Src/stm32n6xx_hal_dma.c ****       }
 833:STM32Cube_FW_N6/Drivers/STM32N6xx_HAL_Driver/Src/stm32n6xx_hal_dma.c ****     }
 834:STM32Cube_FW_N6/Drivers/STM32N6xx_HAL_Driver/Src/stm32n6xx_hal_dma.c **** 
 835:STM32Cube_FW_N6/Drivers/STM32N6xx_HAL_Driver/Src/stm32n6xx_hal_dma.c ****     /* Get a newer CSR register value */
 836:STM32Cube_FW_N6/Drivers/STM32N6xx_HAL_Driver/Src/stm32n6xx_hal_dma.c ****     tmp_csr = hdma->Instance->CSR;
 837:STM32Cube_FW_N6/Drivers/STM32N6xx_HAL_Driver/Src/stm32n6xx_hal_dma.c ****   }
 838:STM32Cube_FW_N6/Drivers/STM32N6xx_HAL_Driver/Src/stm32n6xx_hal_dma.c **** 
 839:STM32Cube_FW_N6/Drivers/STM32N6xx_HAL_Driver/Src/stm32n6xx_hal_dma.c ****   /* Check trigger overrun flag */
 840:STM32Cube_FW_N6/Drivers/STM32N6xx_HAL_Driver/Src/stm32n6xx_hal_dma.c ****   if ((tmp_csr & DMA_FLAG_TO) != 0U)
 841:STM32Cube_FW_N6/Drivers/STM32N6xx_HAL_Driver/Src/stm32n6xx_hal_dma.c ****   {
 842:STM32Cube_FW_N6/Drivers/STM32N6xx_HAL_Driver/Src/stm32n6xx_hal_dma.c ****     /* Update the DMA channel error code */
 843:STM32Cube_FW_N6/Drivers/STM32N6xx_HAL_Driver/Src/stm32n6xx_hal_dma.c ****     hdma->ErrorCode |= HAL_DMA_ERROR_TO;
 844:STM32Cube_FW_N6/Drivers/STM32N6xx_HAL_Driver/Src/stm32n6xx_hal_dma.c **** 
 845:STM32Cube_FW_N6/Drivers/STM32N6xx_HAL_Driver/Src/stm32n6xx_hal_dma.c ****     /* Clear the error flag */
 846:STM32Cube_FW_N6/Drivers/STM32N6xx_HAL_Driver/Src/stm32n6xx_hal_dma.c ****     __HAL_DMA_CLEAR_FLAG(hdma, DMA_FLAG_TO);
 847:STM32Cube_FW_N6/Drivers/STM32N6xx_HAL_Driver/Src/stm32n6xx_hal_dma.c ****   }
 848:STM32Cube_FW_N6/Drivers/STM32N6xx_HAL_Driver/Src/stm32n6xx_hal_dma.c **** 
 849:STM32Cube_FW_N6/Drivers/STM32N6xx_HAL_Driver/Src/stm32n6xx_hal_dma.c ****   /* Check error flags */
 850:STM32Cube_FW_N6/Drivers/STM32N6xx_HAL_Driver/Src/stm32n6xx_hal_dma.c ****   if ((tmp_csr & (DMA_FLAG_DTE | DMA_FLAG_ULE | DMA_FLAG_USE)) != 0U)
 851:STM32Cube_FW_N6/Drivers/STM32N6xx_HAL_Driver/Src/stm32n6xx_hal_dma.c ****   {
 852:STM32Cube_FW_N6/Drivers/STM32N6xx_HAL_Driver/Src/stm32n6xx_hal_dma.c ****     /* Check the data transfer error flag */
 853:STM32Cube_FW_N6/Drivers/STM32N6xx_HAL_Driver/Src/stm32n6xx_hal_dma.c ****     if ((tmp_csr & DMA_FLAG_DTE) != 0U)
 854:STM32Cube_FW_N6/Drivers/STM32N6xx_HAL_Driver/Src/stm32n6xx_hal_dma.c ****     {
 855:STM32Cube_FW_N6/Drivers/STM32N6xx_HAL_Driver/Src/stm32n6xx_hal_dma.c ****       /* Update the DMA channel error code */
 856:STM32Cube_FW_N6/Drivers/STM32N6xx_HAL_Driver/Src/stm32n6xx_hal_dma.c ****       hdma->ErrorCode |= HAL_DMA_ERROR_DTE;
 857:STM32Cube_FW_N6/Drivers/STM32N6xx_HAL_Driver/Src/stm32n6xx_hal_dma.c **** 
 858:STM32Cube_FW_N6/Drivers/STM32N6xx_HAL_Driver/Src/stm32n6xx_hal_dma.c ****       /* Clear the error flag */
 859:STM32Cube_FW_N6/Drivers/STM32N6xx_HAL_Driver/Src/stm32n6xx_hal_dma.c ****       __HAL_DMA_CLEAR_FLAG(hdma, DMA_FLAG_DTE);
 860:STM32Cube_FW_N6/Drivers/STM32N6xx_HAL_Driver/Src/stm32n6xx_hal_dma.c ****     }
 861:STM32Cube_FW_N6/Drivers/STM32N6xx_HAL_Driver/Src/stm32n6xx_hal_dma.c **** 
 862:STM32Cube_FW_N6/Drivers/STM32N6xx_HAL_Driver/Src/stm32n6xx_hal_dma.c ****     /* Check the update link error flag */
 863:STM32Cube_FW_N6/Drivers/STM32N6xx_HAL_Driver/Src/stm32n6xx_hal_dma.c ****     if ((tmp_csr & DMA_FLAG_ULE) != 0U)
 864:STM32Cube_FW_N6/Drivers/STM32N6xx_HAL_Driver/Src/stm32n6xx_hal_dma.c ****     {
 865:STM32Cube_FW_N6/Drivers/STM32N6xx_HAL_Driver/Src/stm32n6xx_hal_dma.c ****       /* Update the DMA channel error code */
 866:STM32Cube_FW_N6/Drivers/STM32N6xx_HAL_Driver/Src/stm32n6xx_hal_dma.c ****       hdma->ErrorCode |= HAL_DMA_ERROR_ULE;
 867:STM32Cube_FW_N6/Drivers/STM32N6xx_HAL_Driver/Src/stm32n6xx_hal_dma.c **** 
 868:STM32Cube_FW_N6/Drivers/STM32N6xx_HAL_Driver/Src/stm32n6xx_hal_dma.c ****       /* Clear the error flag */
 869:STM32Cube_FW_N6/Drivers/STM32N6xx_HAL_Driver/Src/stm32n6xx_hal_dma.c ****       __HAL_DMA_CLEAR_FLAG(hdma, DMA_FLAG_ULE);
 870:STM32Cube_FW_N6/Drivers/STM32N6xx_HAL_Driver/Src/stm32n6xx_hal_dma.c ****     }
 871:STM32Cube_FW_N6/Drivers/STM32N6xx_HAL_Driver/Src/stm32n6xx_hal_dma.c **** 
ARM GAS  C:\Users\DJESSOU\AppData\Local\Temp\ccEz5zGK.s 			page 34


 872:STM32Cube_FW_N6/Drivers/STM32N6xx_HAL_Driver/Src/stm32n6xx_hal_dma.c ****     /* Check the user setting error flag */
 873:STM32Cube_FW_N6/Drivers/STM32N6xx_HAL_Driver/Src/stm32n6xx_hal_dma.c ****     if ((tmp_csr & DMA_FLAG_USE) != 0U)
 874:STM32Cube_FW_N6/Drivers/STM32N6xx_HAL_Driver/Src/stm32n6xx_hal_dma.c ****     {
 875:STM32Cube_FW_N6/Drivers/STM32N6xx_HAL_Driver/Src/stm32n6xx_hal_dma.c ****       /* Update the DMA channel error code */
 876:STM32Cube_FW_N6/Drivers/STM32N6xx_HAL_Driver/Src/stm32n6xx_hal_dma.c ****       hdma->ErrorCode |= HAL_DMA_ERROR_USE;
 877:STM32Cube_FW_N6/Drivers/STM32N6xx_HAL_Driver/Src/stm32n6xx_hal_dma.c **** 
 878:STM32Cube_FW_N6/Drivers/STM32N6xx_HAL_Driver/Src/stm32n6xx_hal_dma.c ****       /* Clear the error flag */
 879:STM32Cube_FW_N6/Drivers/STM32N6xx_HAL_Driver/Src/stm32n6xx_hal_dma.c ****       __HAL_DMA_CLEAR_FLAG(hdma, DMA_FLAG_USE);
 880:STM32Cube_FW_N6/Drivers/STM32N6xx_HAL_Driver/Src/stm32n6xx_hal_dma.c ****     }
 881:STM32Cube_FW_N6/Drivers/STM32N6xx_HAL_Driver/Src/stm32n6xx_hal_dma.c **** 
 882:STM32Cube_FW_N6/Drivers/STM32N6xx_HAL_Driver/Src/stm32n6xx_hal_dma.c ****     /* Reset the channel */
 883:STM32Cube_FW_N6/Drivers/STM32N6xx_HAL_Driver/Src/stm32n6xx_hal_dma.c ****     hdma->Instance->CCR |= DMA_CCR_RESET;
 884:STM32Cube_FW_N6/Drivers/STM32N6xx_HAL_Driver/Src/stm32n6xx_hal_dma.c **** 
 885:STM32Cube_FW_N6/Drivers/STM32N6xx_HAL_Driver/Src/stm32n6xx_hal_dma.c ****     /* Update the DMA channel state */
 886:STM32Cube_FW_N6/Drivers/STM32N6xx_HAL_Driver/Src/stm32n6xx_hal_dma.c ****     hdma->State = HAL_DMA_STATE_READY;
 887:STM32Cube_FW_N6/Drivers/STM32N6xx_HAL_Driver/Src/stm32n6xx_hal_dma.c **** 
 888:STM32Cube_FW_N6/Drivers/STM32N6xx_HAL_Driver/Src/stm32n6xx_hal_dma.c ****     /* Check DMA channel transfer mode */
 889:STM32Cube_FW_N6/Drivers/STM32N6xx_HAL_Driver/Src/stm32n6xx_hal_dma.c ****     if ((hdma->Mode & DMA_LINKEDLIST) == DMA_LINKEDLIST)
 890:STM32Cube_FW_N6/Drivers/STM32N6xx_HAL_Driver/Src/stm32n6xx_hal_dma.c ****     {
 891:STM32Cube_FW_N6/Drivers/STM32N6xx_HAL_Driver/Src/stm32n6xx_hal_dma.c ****       /* Update the linked-list queue state */
 892:STM32Cube_FW_N6/Drivers/STM32N6xx_HAL_Driver/Src/stm32n6xx_hal_dma.c ****       hdma->LinkedListQueue->State = HAL_DMA_QUEUE_STATE_READY;
 893:STM32Cube_FW_N6/Drivers/STM32N6xx_HAL_Driver/Src/stm32n6xx_hal_dma.c ****     }
 894:STM32Cube_FW_N6/Drivers/STM32N6xx_HAL_Driver/Src/stm32n6xx_hal_dma.c **** 
 895:STM32Cube_FW_N6/Drivers/STM32N6xx_HAL_Driver/Src/stm32n6xx_hal_dma.c ****     /* Process Unlocked */
 896:STM32Cube_FW_N6/Drivers/STM32N6xx_HAL_Driver/Src/stm32n6xx_hal_dma.c ****     __HAL_UNLOCK(hdma);
 897:STM32Cube_FW_N6/Drivers/STM32N6xx_HAL_Driver/Src/stm32n6xx_hal_dma.c **** 
 898:STM32Cube_FW_N6/Drivers/STM32N6xx_HAL_Driver/Src/stm32n6xx_hal_dma.c ****     return HAL_ERROR;
 899:STM32Cube_FW_N6/Drivers/STM32N6xx_HAL_Driver/Src/stm32n6xx_hal_dma.c ****   }
 900:STM32Cube_FW_N6/Drivers/STM32N6xx_HAL_Driver/Src/stm32n6xx_hal_dma.c **** 
 901:STM32Cube_FW_N6/Drivers/STM32N6xx_HAL_Driver/Src/stm32n6xx_hal_dma.c ****   /* Clear the transfer level flag */
 902:STM32Cube_FW_N6/Drivers/STM32N6xx_HAL_Driver/Src/stm32n6xx_hal_dma.c ****   if (CompleteLevel == HAL_DMA_HALF_TRANSFER)
 903:STM32Cube_FW_N6/Drivers/STM32N6xx_HAL_Driver/Src/stm32n6xx_hal_dma.c ****   {
 904:STM32Cube_FW_N6/Drivers/STM32N6xx_HAL_Driver/Src/stm32n6xx_hal_dma.c ****     /* Clear the Half Transfer flag */
 905:STM32Cube_FW_N6/Drivers/STM32N6xx_HAL_Driver/Src/stm32n6xx_hal_dma.c ****     __HAL_DMA_CLEAR_FLAG(hdma, DMA_FLAG_HT);
 906:STM32Cube_FW_N6/Drivers/STM32N6xx_HAL_Driver/Src/stm32n6xx_hal_dma.c ****   }
 907:STM32Cube_FW_N6/Drivers/STM32N6xx_HAL_Driver/Src/stm32n6xx_hal_dma.c ****   else if (CompleteLevel == HAL_DMA_FULL_TRANSFER)
 908:STM32Cube_FW_N6/Drivers/STM32N6xx_HAL_Driver/Src/stm32n6xx_hal_dma.c ****   {
 909:STM32Cube_FW_N6/Drivers/STM32N6xx_HAL_Driver/Src/stm32n6xx_hal_dma.c ****     /* Clear the transfer flags */
 910:STM32Cube_FW_N6/Drivers/STM32N6xx_HAL_Driver/Src/stm32n6xx_hal_dma.c ****     __HAL_DMA_CLEAR_FLAG(hdma, (DMA_FLAG_TC | DMA_FLAG_HT));
 911:STM32Cube_FW_N6/Drivers/STM32N6xx_HAL_Driver/Src/stm32n6xx_hal_dma.c **** 
 912:STM32Cube_FW_N6/Drivers/STM32N6xx_HAL_Driver/Src/stm32n6xx_hal_dma.c ****     /* Update the DMA channel state */
 913:STM32Cube_FW_N6/Drivers/STM32N6xx_HAL_Driver/Src/stm32n6xx_hal_dma.c ****     hdma->State = HAL_DMA_STATE_READY;
 914:STM32Cube_FW_N6/Drivers/STM32N6xx_HAL_Driver/Src/stm32n6xx_hal_dma.c **** 
 915:STM32Cube_FW_N6/Drivers/STM32N6xx_HAL_Driver/Src/stm32n6xx_hal_dma.c ****     /* Check DMA channel transfer mode */
 916:STM32Cube_FW_N6/Drivers/STM32N6xx_HAL_Driver/Src/stm32n6xx_hal_dma.c ****     if ((hdma->Mode & DMA_LINKEDLIST) == DMA_LINKEDLIST)
 917:STM32Cube_FW_N6/Drivers/STM32N6xx_HAL_Driver/Src/stm32n6xx_hal_dma.c ****     {
 918:STM32Cube_FW_N6/Drivers/STM32N6xx_HAL_Driver/Src/stm32n6xx_hal_dma.c ****       /* Update the linked-list queue state */
 919:STM32Cube_FW_N6/Drivers/STM32N6xx_HAL_Driver/Src/stm32n6xx_hal_dma.c ****       hdma->LinkedListQueue->State = HAL_DMA_QUEUE_STATE_READY;
 920:STM32Cube_FW_N6/Drivers/STM32N6xx_HAL_Driver/Src/stm32n6xx_hal_dma.c ****     }
 921:STM32Cube_FW_N6/Drivers/STM32N6xx_HAL_Driver/Src/stm32n6xx_hal_dma.c **** 
 922:STM32Cube_FW_N6/Drivers/STM32N6xx_HAL_Driver/Src/stm32n6xx_hal_dma.c ****     /* Process unlocked */
 923:STM32Cube_FW_N6/Drivers/STM32N6xx_HAL_Driver/Src/stm32n6xx_hal_dma.c ****     __HAL_UNLOCK(hdma);
 924:STM32Cube_FW_N6/Drivers/STM32N6xx_HAL_Driver/Src/stm32n6xx_hal_dma.c ****   }
 925:STM32Cube_FW_N6/Drivers/STM32N6xx_HAL_Driver/Src/stm32n6xx_hal_dma.c ****   else
 926:STM32Cube_FW_N6/Drivers/STM32N6xx_HAL_Driver/Src/stm32n6xx_hal_dma.c ****   {
 927:STM32Cube_FW_N6/Drivers/STM32N6xx_HAL_Driver/Src/stm32n6xx_hal_dma.c ****     return HAL_ERROR;
 928:STM32Cube_FW_N6/Drivers/STM32N6xx_HAL_Driver/Src/stm32n6xx_hal_dma.c ****   }
ARM GAS  C:\Users\DJESSOU\AppData\Local\Temp\ccEz5zGK.s 			page 35


 929:STM32Cube_FW_N6/Drivers/STM32N6xx_HAL_Driver/Src/stm32n6xx_hal_dma.c **** 
 930:STM32Cube_FW_N6/Drivers/STM32N6xx_HAL_Driver/Src/stm32n6xx_hal_dma.c ****   return HAL_OK;
 931:STM32Cube_FW_N6/Drivers/STM32N6xx_HAL_Driver/Src/stm32n6xx_hal_dma.c **** }
 932:STM32Cube_FW_N6/Drivers/STM32N6xx_HAL_Driver/Src/stm32n6xx_hal_dma.c **** 
 933:STM32Cube_FW_N6/Drivers/STM32N6xx_HAL_Driver/Src/stm32n6xx_hal_dma.c **** /**
 934:STM32Cube_FW_N6/Drivers/STM32N6xx_HAL_Driver/Src/stm32n6xx_hal_dma.c ****   * @brief  Handle DMA interrupt request (Non-blocking mode).
 935:STM32Cube_FW_N6/Drivers/STM32N6xx_HAL_Driver/Src/stm32n6xx_hal_dma.c ****   * @param  hdma : Pointer to a DMA_HandleTypeDef structure that contains the configuration informa
 936:STM32Cube_FW_N6/Drivers/STM32N6xx_HAL_Driver/Src/stm32n6xx_hal_dma.c ****   *                specified DMA Channel.
 937:STM32Cube_FW_N6/Drivers/STM32N6xx_HAL_Driver/Src/stm32n6xx_hal_dma.c ****   * @retval None.
 938:STM32Cube_FW_N6/Drivers/STM32N6xx_HAL_Driver/Src/stm32n6xx_hal_dma.c ****   */
 939:STM32Cube_FW_N6/Drivers/STM32N6xx_HAL_Driver/Src/stm32n6xx_hal_dma.c **** void HAL_DMA_IRQHandler(DMA_HandleTypeDef *const hdma)
 940:STM32Cube_FW_N6/Drivers/STM32N6xx_HAL_Driver/Src/stm32n6xx_hal_dma.c **** {
 941:STM32Cube_FW_N6/Drivers/STM32N6xx_HAL_Driver/Src/stm32n6xx_hal_dma.c ****   const DMA_TypeDef *p_dma_instance = GET_DMA_INSTANCE(hdma);
 942:STM32Cube_FW_N6/Drivers/STM32N6xx_HAL_Driver/Src/stm32n6xx_hal_dma.c ****   uint32_t global_it_flag =  1UL << (GET_DMA_CHANNEL(hdma) & 0x1FU);
 943:STM32Cube_FW_N6/Drivers/STM32N6xx_HAL_Driver/Src/stm32n6xx_hal_dma.c ****   uint32_t global_active_flag_ns = IS_DMA_GLOBAL_ACTIVE_FLAG_NS(p_dma_instance, global_it_flag);
 944:STM32Cube_FW_N6/Drivers/STM32N6xx_HAL_Driver/Src/stm32n6xx_hal_dma.c **** #if defined (CPU_IN_SECURE_STATE)
 945:STM32Cube_FW_N6/Drivers/STM32N6xx_HAL_Driver/Src/stm32n6xx_hal_dma.c ****   uint32_t global_active_flag_s = IS_DMA_GLOBAL_ACTIVE_FLAG_S(p_dma_instance, global_it_flag);
 946:STM32Cube_FW_N6/Drivers/STM32N6xx_HAL_Driver/Src/stm32n6xx_hal_dma.c **** #endif /* CPU_IN_SECURE_STATE */
 947:STM32Cube_FW_N6/Drivers/STM32N6xx_HAL_Driver/Src/stm32n6xx_hal_dma.c **** 
 948:STM32Cube_FW_N6/Drivers/STM32N6xx_HAL_Driver/Src/stm32n6xx_hal_dma.c ****   /* Global Interrupt Flag management *************************************************************
 949:STM32Cube_FW_N6/Drivers/STM32N6xx_HAL_Driver/Src/stm32n6xx_hal_dma.c **** #if defined (CPU_IN_SECURE_STATE)
 950:STM32Cube_FW_N6/Drivers/STM32N6xx_HAL_Driver/Src/stm32n6xx_hal_dma.c ****   if ((global_active_flag_s == 0U) && (global_active_flag_ns == 0U))
 951:STM32Cube_FW_N6/Drivers/STM32N6xx_HAL_Driver/Src/stm32n6xx_hal_dma.c **** #else
 952:STM32Cube_FW_N6/Drivers/STM32N6xx_HAL_Driver/Src/stm32n6xx_hal_dma.c ****   if (global_active_flag_ns == 0U)
 953:STM32Cube_FW_N6/Drivers/STM32N6xx_HAL_Driver/Src/stm32n6xx_hal_dma.c **** #endif /* CPU_IN_SECURE_STATE */
 954:STM32Cube_FW_N6/Drivers/STM32N6xx_HAL_Driver/Src/stm32n6xx_hal_dma.c ****   {
 955:STM32Cube_FW_N6/Drivers/STM32N6xx_HAL_Driver/Src/stm32n6xx_hal_dma.c ****     return; /* the global interrupt flag for the current channel is down , nothing to do */
 956:STM32Cube_FW_N6/Drivers/STM32N6xx_HAL_Driver/Src/stm32n6xx_hal_dma.c ****   }
 957:STM32Cube_FW_N6/Drivers/STM32N6xx_HAL_Driver/Src/stm32n6xx_hal_dma.c **** 
 958:STM32Cube_FW_N6/Drivers/STM32N6xx_HAL_Driver/Src/stm32n6xx_hal_dma.c ****   /* Data Transfer Error Interrupt management *****************************************************
 959:STM32Cube_FW_N6/Drivers/STM32N6xx_HAL_Driver/Src/stm32n6xx_hal_dma.c ****   if (__HAL_DMA_GET_FLAG(hdma, DMA_FLAG_DTE) != 0U)
 960:STM32Cube_FW_N6/Drivers/STM32N6xx_HAL_Driver/Src/stm32n6xx_hal_dma.c ****   {
 961:STM32Cube_FW_N6/Drivers/STM32N6xx_HAL_Driver/Src/stm32n6xx_hal_dma.c ****     /* Check if interrupt source is enabled */
 962:STM32Cube_FW_N6/Drivers/STM32N6xx_HAL_Driver/Src/stm32n6xx_hal_dma.c ****     if (__HAL_DMA_GET_IT_SOURCE(hdma, DMA_IT_DTE) != 0U)
 963:STM32Cube_FW_N6/Drivers/STM32N6xx_HAL_Driver/Src/stm32n6xx_hal_dma.c ****     {
 964:STM32Cube_FW_N6/Drivers/STM32N6xx_HAL_Driver/Src/stm32n6xx_hal_dma.c ****       /* Clear the transfer error flag */
 965:STM32Cube_FW_N6/Drivers/STM32N6xx_HAL_Driver/Src/stm32n6xx_hal_dma.c ****       __HAL_DMA_CLEAR_FLAG(hdma, DMA_FLAG_DTE);
 966:STM32Cube_FW_N6/Drivers/STM32N6xx_HAL_Driver/Src/stm32n6xx_hal_dma.c **** 
 967:STM32Cube_FW_N6/Drivers/STM32N6xx_HAL_Driver/Src/stm32n6xx_hal_dma.c ****       /* Update the DMA channel error code */
 968:STM32Cube_FW_N6/Drivers/STM32N6xx_HAL_Driver/Src/stm32n6xx_hal_dma.c ****       hdma->ErrorCode |= HAL_DMA_ERROR_DTE;
 969:STM32Cube_FW_N6/Drivers/STM32N6xx_HAL_Driver/Src/stm32n6xx_hal_dma.c ****     }
 970:STM32Cube_FW_N6/Drivers/STM32N6xx_HAL_Driver/Src/stm32n6xx_hal_dma.c ****   }
 971:STM32Cube_FW_N6/Drivers/STM32N6xx_HAL_Driver/Src/stm32n6xx_hal_dma.c **** 
 972:STM32Cube_FW_N6/Drivers/STM32N6xx_HAL_Driver/Src/stm32n6xx_hal_dma.c ****   /* Update Linked-list Error Interrupt management ************************************************
 973:STM32Cube_FW_N6/Drivers/STM32N6xx_HAL_Driver/Src/stm32n6xx_hal_dma.c ****   if (__HAL_DMA_GET_FLAG(hdma, DMA_FLAG_ULE) != 0U)
 974:STM32Cube_FW_N6/Drivers/STM32N6xx_HAL_Driver/Src/stm32n6xx_hal_dma.c ****   {
 975:STM32Cube_FW_N6/Drivers/STM32N6xx_HAL_Driver/Src/stm32n6xx_hal_dma.c ****     /* Check if interrupt source is enabled */
 976:STM32Cube_FW_N6/Drivers/STM32N6xx_HAL_Driver/Src/stm32n6xx_hal_dma.c ****     if (__HAL_DMA_GET_IT_SOURCE(hdma, DMA_IT_ULE) != 0U)
 977:STM32Cube_FW_N6/Drivers/STM32N6xx_HAL_Driver/Src/stm32n6xx_hal_dma.c ****     {
 978:STM32Cube_FW_N6/Drivers/STM32N6xx_HAL_Driver/Src/stm32n6xx_hal_dma.c ****       /* Clear the update linked-list error flag */
 979:STM32Cube_FW_N6/Drivers/STM32N6xx_HAL_Driver/Src/stm32n6xx_hal_dma.c ****       __HAL_DMA_CLEAR_FLAG(hdma, DMA_FLAG_ULE);
 980:STM32Cube_FW_N6/Drivers/STM32N6xx_HAL_Driver/Src/stm32n6xx_hal_dma.c **** 
 981:STM32Cube_FW_N6/Drivers/STM32N6xx_HAL_Driver/Src/stm32n6xx_hal_dma.c ****       /* Update the DMA channel error code */
 982:STM32Cube_FW_N6/Drivers/STM32N6xx_HAL_Driver/Src/stm32n6xx_hal_dma.c ****       hdma->ErrorCode |= HAL_DMA_ERROR_ULE;
 983:STM32Cube_FW_N6/Drivers/STM32N6xx_HAL_Driver/Src/stm32n6xx_hal_dma.c ****     }
 984:STM32Cube_FW_N6/Drivers/STM32N6xx_HAL_Driver/Src/stm32n6xx_hal_dma.c ****   }
 985:STM32Cube_FW_N6/Drivers/STM32N6xx_HAL_Driver/Src/stm32n6xx_hal_dma.c **** 
ARM GAS  C:\Users\DJESSOU\AppData\Local\Temp\ccEz5zGK.s 			page 36


 986:STM32Cube_FW_N6/Drivers/STM32N6xx_HAL_Driver/Src/stm32n6xx_hal_dma.c ****   /* User Setting Error Interrupt management ******************************************************
 987:STM32Cube_FW_N6/Drivers/STM32N6xx_HAL_Driver/Src/stm32n6xx_hal_dma.c ****   if (__HAL_DMA_GET_FLAG(hdma, DMA_FLAG_USE) != 0U)
 988:STM32Cube_FW_N6/Drivers/STM32N6xx_HAL_Driver/Src/stm32n6xx_hal_dma.c ****   {
 989:STM32Cube_FW_N6/Drivers/STM32N6xx_HAL_Driver/Src/stm32n6xx_hal_dma.c ****     /* Check if interrupt source is enabled */
 990:STM32Cube_FW_N6/Drivers/STM32N6xx_HAL_Driver/Src/stm32n6xx_hal_dma.c ****     if (__HAL_DMA_GET_IT_SOURCE(hdma, DMA_IT_USE) != 0U)
 991:STM32Cube_FW_N6/Drivers/STM32N6xx_HAL_Driver/Src/stm32n6xx_hal_dma.c ****     {
 992:STM32Cube_FW_N6/Drivers/STM32N6xx_HAL_Driver/Src/stm32n6xx_hal_dma.c ****       /* Clear the user setting error flag */
 993:STM32Cube_FW_N6/Drivers/STM32N6xx_HAL_Driver/Src/stm32n6xx_hal_dma.c ****       __HAL_DMA_CLEAR_FLAG(hdma, DMA_FLAG_USE);
 994:STM32Cube_FW_N6/Drivers/STM32N6xx_HAL_Driver/Src/stm32n6xx_hal_dma.c **** 
 995:STM32Cube_FW_N6/Drivers/STM32N6xx_HAL_Driver/Src/stm32n6xx_hal_dma.c ****       /* Update the DMA channel error code */
 996:STM32Cube_FW_N6/Drivers/STM32N6xx_HAL_Driver/Src/stm32n6xx_hal_dma.c ****       hdma->ErrorCode |= HAL_DMA_ERROR_USE;
 997:STM32Cube_FW_N6/Drivers/STM32N6xx_HAL_Driver/Src/stm32n6xx_hal_dma.c ****     }
 998:STM32Cube_FW_N6/Drivers/STM32N6xx_HAL_Driver/Src/stm32n6xx_hal_dma.c ****   }
 999:STM32Cube_FW_N6/Drivers/STM32N6xx_HAL_Driver/Src/stm32n6xx_hal_dma.c **** 
1000:STM32Cube_FW_N6/Drivers/STM32N6xx_HAL_Driver/Src/stm32n6xx_hal_dma.c ****   /* Trigger Overrun Interrupt management *********************************************************
1001:STM32Cube_FW_N6/Drivers/STM32N6xx_HAL_Driver/Src/stm32n6xx_hal_dma.c ****   if (__HAL_DMA_GET_FLAG(hdma, DMA_FLAG_TO) != 0U)
1002:STM32Cube_FW_N6/Drivers/STM32N6xx_HAL_Driver/Src/stm32n6xx_hal_dma.c ****   {
1003:STM32Cube_FW_N6/Drivers/STM32N6xx_HAL_Driver/Src/stm32n6xx_hal_dma.c ****     /* Check if interrupt source is enabled */
1004:STM32Cube_FW_N6/Drivers/STM32N6xx_HAL_Driver/Src/stm32n6xx_hal_dma.c ****     if (__HAL_DMA_GET_IT_SOURCE(hdma, DMA_IT_TO) != 0U)
1005:STM32Cube_FW_N6/Drivers/STM32N6xx_HAL_Driver/Src/stm32n6xx_hal_dma.c ****     {
1006:STM32Cube_FW_N6/Drivers/STM32N6xx_HAL_Driver/Src/stm32n6xx_hal_dma.c ****       /* Clear the trigger overrun flag */
1007:STM32Cube_FW_N6/Drivers/STM32N6xx_HAL_Driver/Src/stm32n6xx_hal_dma.c ****       __HAL_DMA_CLEAR_FLAG(hdma, DMA_FLAG_TO);
1008:STM32Cube_FW_N6/Drivers/STM32N6xx_HAL_Driver/Src/stm32n6xx_hal_dma.c **** 
1009:STM32Cube_FW_N6/Drivers/STM32N6xx_HAL_Driver/Src/stm32n6xx_hal_dma.c ****       /* Update the DMA channel error code */
1010:STM32Cube_FW_N6/Drivers/STM32N6xx_HAL_Driver/Src/stm32n6xx_hal_dma.c ****       hdma->ErrorCode |= HAL_DMA_ERROR_TO;
1011:STM32Cube_FW_N6/Drivers/STM32N6xx_HAL_Driver/Src/stm32n6xx_hal_dma.c ****     }
1012:STM32Cube_FW_N6/Drivers/STM32N6xx_HAL_Driver/Src/stm32n6xx_hal_dma.c ****   }
1013:STM32Cube_FW_N6/Drivers/STM32N6xx_HAL_Driver/Src/stm32n6xx_hal_dma.c **** 
1014:STM32Cube_FW_N6/Drivers/STM32N6xx_HAL_Driver/Src/stm32n6xx_hal_dma.c ****   /* Half Transfer Complete Interrupt management **************************************************
1015:STM32Cube_FW_N6/Drivers/STM32N6xx_HAL_Driver/Src/stm32n6xx_hal_dma.c ****   if (__HAL_DMA_GET_FLAG(hdma, DMA_FLAG_HT) != 0U)
1016:STM32Cube_FW_N6/Drivers/STM32N6xx_HAL_Driver/Src/stm32n6xx_hal_dma.c ****   {
1017:STM32Cube_FW_N6/Drivers/STM32N6xx_HAL_Driver/Src/stm32n6xx_hal_dma.c ****     /* Check if interrupt source is enabled */
1018:STM32Cube_FW_N6/Drivers/STM32N6xx_HAL_Driver/Src/stm32n6xx_hal_dma.c ****     if (__HAL_DMA_GET_IT_SOURCE(hdma, DMA_IT_HT) != 0U)
1019:STM32Cube_FW_N6/Drivers/STM32N6xx_HAL_Driver/Src/stm32n6xx_hal_dma.c ****     {
1020:STM32Cube_FW_N6/Drivers/STM32N6xx_HAL_Driver/Src/stm32n6xx_hal_dma.c ****       /* Clear the half transfer flag */
1021:STM32Cube_FW_N6/Drivers/STM32N6xx_HAL_Driver/Src/stm32n6xx_hal_dma.c ****       __HAL_DMA_CLEAR_FLAG(hdma, DMA_FLAG_HT);
1022:STM32Cube_FW_N6/Drivers/STM32N6xx_HAL_Driver/Src/stm32n6xx_hal_dma.c **** 
1023:STM32Cube_FW_N6/Drivers/STM32N6xx_HAL_Driver/Src/stm32n6xx_hal_dma.c ****       /* Check half transfer complete callback */
1024:STM32Cube_FW_N6/Drivers/STM32N6xx_HAL_Driver/Src/stm32n6xx_hal_dma.c ****       if (hdma->XferHalfCpltCallback != NULL)
1025:STM32Cube_FW_N6/Drivers/STM32N6xx_HAL_Driver/Src/stm32n6xx_hal_dma.c ****       {
1026:STM32Cube_FW_N6/Drivers/STM32N6xx_HAL_Driver/Src/stm32n6xx_hal_dma.c ****         /* Half transfer callback */
1027:STM32Cube_FW_N6/Drivers/STM32N6xx_HAL_Driver/Src/stm32n6xx_hal_dma.c ****         hdma->XferHalfCpltCallback(hdma);
1028:STM32Cube_FW_N6/Drivers/STM32N6xx_HAL_Driver/Src/stm32n6xx_hal_dma.c ****       }
1029:STM32Cube_FW_N6/Drivers/STM32N6xx_HAL_Driver/Src/stm32n6xx_hal_dma.c ****     }
1030:STM32Cube_FW_N6/Drivers/STM32N6xx_HAL_Driver/Src/stm32n6xx_hal_dma.c ****   }
1031:STM32Cube_FW_N6/Drivers/STM32N6xx_HAL_Driver/Src/stm32n6xx_hal_dma.c **** 
1032:STM32Cube_FW_N6/Drivers/STM32N6xx_HAL_Driver/Src/stm32n6xx_hal_dma.c ****   /* Suspend Transfer Interrupt management ********************************************************
1033:STM32Cube_FW_N6/Drivers/STM32N6xx_HAL_Driver/Src/stm32n6xx_hal_dma.c ****   if (__HAL_DMA_GET_FLAG(hdma, DMA_FLAG_SUSP) != 0U)
1034:STM32Cube_FW_N6/Drivers/STM32N6xx_HAL_Driver/Src/stm32n6xx_hal_dma.c ****   {
1035:STM32Cube_FW_N6/Drivers/STM32N6xx_HAL_Driver/Src/stm32n6xx_hal_dma.c ****     /* Check if interrupt source is enabled */
1036:STM32Cube_FW_N6/Drivers/STM32N6xx_HAL_Driver/Src/stm32n6xx_hal_dma.c ****     if (__HAL_DMA_GET_IT_SOURCE(hdma, DMA_IT_SUSP) != 0U)
1037:STM32Cube_FW_N6/Drivers/STM32N6xx_HAL_Driver/Src/stm32n6xx_hal_dma.c ****     {
1038:STM32Cube_FW_N6/Drivers/STM32N6xx_HAL_Driver/Src/stm32n6xx_hal_dma.c ****       /* Clear the block transfer complete flag */
1039:STM32Cube_FW_N6/Drivers/STM32N6xx_HAL_Driver/Src/stm32n6xx_hal_dma.c ****       __HAL_DMA_CLEAR_FLAG(hdma, DMA_FLAG_SUSP);
1040:STM32Cube_FW_N6/Drivers/STM32N6xx_HAL_Driver/Src/stm32n6xx_hal_dma.c **** 
1041:STM32Cube_FW_N6/Drivers/STM32N6xx_HAL_Driver/Src/stm32n6xx_hal_dma.c ****       /* Check DMA channel state */
1042:STM32Cube_FW_N6/Drivers/STM32N6xx_HAL_Driver/Src/stm32n6xx_hal_dma.c ****       if (hdma->State == HAL_DMA_STATE_ABORT)
ARM GAS  C:\Users\DJESSOU\AppData\Local\Temp\ccEz5zGK.s 			page 37


1043:STM32Cube_FW_N6/Drivers/STM32N6xx_HAL_Driver/Src/stm32n6xx_hal_dma.c ****       {
1044:STM32Cube_FW_N6/Drivers/STM32N6xx_HAL_Driver/Src/stm32n6xx_hal_dma.c ****         /* Disable the suspend transfer interrupt */
1045:STM32Cube_FW_N6/Drivers/STM32N6xx_HAL_Driver/Src/stm32n6xx_hal_dma.c ****         __HAL_DMA_DISABLE_IT(hdma, DMA_IT_SUSP);
1046:STM32Cube_FW_N6/Drivers/STM32N6xx_HAL_Driver/Src/stm32n6xx_hal_dma.c **** 
1047:STM32Cube_FW_N6/Drivers/STM32N6xx_HAL_Driver/Src/stm32n6xx_hal_dma.c ****         /* Reset the channel internal state and reset the FIFO */
1048:STM32Cube_FW_N6/Drivers/STM32N6xx_HAL_Driver/Src/stm32n6xx_hal_dma.c ****         hdma->Instance->CCR |= DMA_CCR_RESET;
1049:STM32Cube_FW_N6/Drivers/STM32N6xx_HAL_Driver/Src/stm32n6xx_hal_dma.c **** 
1050:STM32Cube_FW_N6/Drivers/STM32N6xx_HAL_Driver/Src/stm32n6xx_hal_dma.c ****         /* Update the DMA channel state */
1051:STM32Cube_FW_N6/Drivers/STM32N6xx_HAL_Driver/Src/stm32n6xx_hal_dma.c ****         hdma->State = HAL_DMA_STATE_READY;
1052:STM32Cube_FW_N6/Drivers/STM32N6xx_HAL_Driver/Src/stm32n6xx_hal_dma.c **** 
1053:STM32Cube_FW_N6/Drivers/STM32N6xx_HAL_Driver/Src/stm32n6xx_hal_dma.c ****         /* Check DMA channel transfer mode */
1054:STM32Cube_FW_N6/Drivers/STM32N6xx_HAL_Driver/Src/stm32n6xx_hal_dma.c ****         if ((hdma->Mode & DMA_LINKEDLIST) == DMA_LINKEDLIST)
1055:STM32Cube_FW_N6/Drivers/STM32N6xx_HAL_Driver/Src/stm32n6xx_hal_dma.c ****         {
1056:STM32Cube_FW_N6/Drivers/STM32N6xx_HAL_Driver/Src/stm32n6xx_hal_dma.c ****           /* Update the linked-list queue state */
1057:STM32Cube_FW_N6/Drivers/STM32N6xx_HAL_Driver/Src/stm32n6xx_hal_dma.c ****           hdma->LinkedListQueue->State = HAL_DMA_QUEUE_STATE_READY;
1058:STM32Cube_FW_N6/Drivers/STM32N6xx_HAL_Driver/Src/stm32n6xx_hal_dma.c **** 
1059:STM32Cube_FW_N6/Drivers/STM32N6xx_HAL_Driver/Src/stm32n6xx_hal_dma.c ****           /* Clear remaining data size to ensure loading linked-list from memory next start */
1060:STM32Cube_FW_N6/Drivers/STM32N6xx_HAL_Driver/Src/stm32n6xx_hal_dma.c ****           hdma->Instance->CBR1 = 0U;
1061:STM32Cube_FW_N6/Drivers/STM32N6xx_HAL_Driver/Src/stm32n6xx_hal_dma.c ****         }
1062:STM32Cube_FW_N6/Drivers/STM32N6xx_HAL_Driver/Src/stm32n6xx_hal_dma.c **** 
1063:STM32Cube_FW_N6/Drivers/STM32N6xx_HAL_Driver/Src/stm32n6xx_hal_dma.c ****         /* Process Unlocked */
1064:STM32Cube_FW_N6/Drivers/STM32N6xx_HAL_Driver/Src/stm32n6xx_hal_dma.c ****         __HAL_UNLOCK(hdma);
1065:STM32Cube_FW_N6/Drivers/STM32N6xx_HAL_Driver/Src/stm32n6xx_hal_dma.c **** 
1066:STM32Cube_FW_N6/Drivers/STM32N6xx_HAL_Driver/Src/stm32n6xx_hal_dma.c ****         /* Check transfer abort callback */
1067:STM32Cube_FW_N6/Drivers/STM32N6xx_HAL_Driver/Src/stm32n6xx_hal_dma.c ****         if (hdma->XferAbortCallback != NULL)
1068:STM32Cube_FW_N6/Drivers/STM32N6xx_HAL_Driver/Src/stm32n6xx_hal_dma.c ****         {
1069:STM32Cube_FW_N6/Drivers/STM32N6xx_HAL_Driver/Src/stm32n6xx_hal_dma.c ****           /* Transfer abort callback */
1070:STM32Cube_FW_N6/Drivers/STM32N6xx_HAL_Driver/Src/stm32n6xx_hal_dma.c ****           hdma->XferAbortCallback(hdma);
1071:STM32Cube_FW_N6/Drivers/STM32N6xx_HAL_Driver/Src/stm32n6xx_hal_dma.c ****         }
1072:STM32Cube_FW_N6/Drivers/STM32N6xx_HAL_Driver/Src/stm32n6xx_hal_dma.c **** 
1073:STM32Cube_FW_N6/Drivers/STM32N6xx_HAL_Driver/Src/stm32n6xx_hal_dma.c ****         return;
1074:STM32Cube_FW_N6/Drivers/STM32N6xx_HAL_Driver/Src/stm32n6xx_hal_dma.c ****       }
1075:STM32Cube_FW_N6/Drivers/STM32N6xx_HAL_Driver/Src/stm32n6xx_hal_dma.c ****       else
1076:STM32Cube_FW_N6/Drivers/STM32N6xx_HAL_Driver/Src/stm32n6xx_hal_dma.c ****       {
1077:STM32Cube_FW_N6/Drivers/STM32N6xx_HAL_Driver/Src/stm32n6xx_hal_dma.c ****         /* Update the DMA channel state */
1078:STM32Cube_FW_N6/Drivers/STM32N6xx_HAL_Driver/Src/stm32n6xx_hal_dma.c ****         hdma->State = HAL_DMA_STATE_SUSPEND;
1079:STM32Cube_FW_N6/Drivers/STM32N6xx_HAL_Driver/Src/stm32n6xx_hal_dma.c **** 
1080:STM32Cube_FW_N6/Drivers/STM32N6xx_HAL_Driver/Src/stm32n6xx_hal_dma.c ****         /* Check transfer suspend callback */
1081:STM32Cube_FW_N6/Drivers/STM32N6xx_HAL_Driver/Src/stm32n6xx_hal_dma.c ****         if (hdma->XferSuspendCallback != NULL)
1082:STM32Cube_FW_N6/Drivers/STM32N6xx_HAL_Driver/Src/stm32n6xx_hal_dma.c ****         {
1083:STM32Cube_FW_N6/Drivers/STM32N6xx_HAL_Driver/Src/stm32n6xx_hal_dma.c ****           /* Transfer suspend callback */
1084:STM32Cube_FW_N6/Drivers/STM32N6xx_HAL_Driver/Src/stm32n6xx_hal_dma.c ****           hdma->XferSuspendCallback(hdma);
1085:STM32Cube_FW_N6/Drivers/STM32N6xx_HAL_Driver/Src/stm32n6xx_hal_dma.c ****         }
1086:STM32Cube_FW_N6/Drivers/STM32N6xx_HAL_Driver/Src/stm32n6xx_hal_dma.c ****       }
1087:STM32Cube_FW_N6/Drivers/STM32N6xx_HAL_Driver/Src/stm32n6xx_hal_dma.c ****     }
1088:STM32Cube_FW_N6/Drivers/STM32N6xx_HAL_Driver/Src/stm32n6xx_hal_dma.c ****   }
1089:STM32Cube_FW_N6/Drivers/STM32N6xx_HAL_Driver/Src/stm32n6xx_hal_dma.c **** 
1090:STM32Cube_FW_N6/Drivers/STM32N6xx_HAL_Driver/Src/stm32n6xx_hal_dma.c ****   /* Transfer Complete Interrupt management *******************************************************
1091:STM32Cube_FW_N6/Drivers/STM32N6xx_HAL_Driver/Src/stm32n6xx_hal_dma.c ****   if (__HAL_DMA_GET_FLAG(hdma, DMA_FLAG_TC) != 0U)
1092:STM32Cube_FW_N6/Drivers/STM32N6xx_HAL_Driver/Src/stm32n6xx_hal_dma.c ****   {
1093:STM32Cube_FW_N6/Drivers/STM32N6xx_HAL_Driver/Src/stm32n6xx_hal_dma.c ****     /* Check if interrupt source is enabled */
1094:STM32Cube_FW_N6/Drivers/STM32N6xx_HAL_Driver/Src/stm32n6xx_hal_dma.c ****     if (__HAL_DMA_GET_IT_SOURCE(hdma, DMA_IT_TC) != 0U)
1095:STM32Cube_FW_N6/Drivers/STM32N6xx_HAL_Driver/Src/stm32n6xx_hal_dma.c ****     {
1096:STM32Cube_FW_N6/Drivers/STM32N6xx_HAL_Driver/Src/stm32n6xx_hal_dma.c ****       /* Check DMA channel transfer mode */
1097:STM32Cube_FW_N6/Drivers/STM32N6xx_HAL_Driver/Src/stm32n6xx_hal_dma.c ****       if ((hdma->Mode & DMA_LINKEDLIST) == DMA_LINKEDLIST)
1098:STM32Cube_FW_N6/Drivers/STM32N6xx_HAL_Driver/Src/stm32n6xx_hal_dma.c ****       {
1099:STM32Cube_FW_N6/Drivers/STM32N6xx_HAL_Driver/Src/stm32n6xx_hal_dma.c ****         /* If linked-list transfer */
ARM GAS  C:\Users\DJESSOU\AppData\Local\Temp\ccEz5zGK.s 			page 38


1100:STM32Cube_FW_N6/Drivers/STM32N6xx_HAL_Driver/Src/stm32n6xx_hal_dma.c ****         if (hdma->Instance->CLLR == 0U)
1101:STM32Cube_FW_N6/Drivers/STM32N6xx_HAL_Driver/Src/stm32n6xx_hal_dma.c ****         {
1102:STM32Cube_FW_N6/Drivers/STM32N6xx_HAL_Driver/Src/stm32n6xx_hal_dma.c ****           if (hdma->Instance->CBR1 == 0U)
1103:STM32Cube_FW_N6/Drivers/STM32N6xx_HAL_Driver/Src/stm32n6xx_hal_dma.c ****           {
1104:STM32Cube_FW_N6/Drivers/STM32N6xx_HAL_Driver/Src/stm32n6xx_hal_dma.c ****             /* Update the DMA channel state */
1105:STM32Cube_FW_N6/Drivers/STM32N6xx_HAL_Driver/Src/stm32n6xx_hal_dma.c ****             hdma->State = HAL_DMA_STATE_READY;
1106:STM32Cube_FW_N6/Drivers/STM32N6xx_HAL_Driver/Src/stm32n6xx_hal_dma.c **** 
1107:STM32Cube_FW_N6/Drivers/STM32N6xx_HAL_Driver/Src/stm32n6xx_hal_dma.c ****             /* Update the linked-list queue state */
1108:STM32Cube_FW_N6/Drivers/STM32N6xx_HAL_Driver/Src/stm32n6xx_hal_dma.c ****             hdma->LinkedListQueue->State = HAL_DMA_QUEUE_STATE_READY;
1109:STM32Cube_FW_N6/Drivers/STM32N6xx_HAL_Driver/Src/stm32n6xx_hal_dma.c ****           }
1110:STM32Cube_FW_N6/Drivers/STM32N6xx_HAL_Driver/Src/stm32n6xx_hal_dma.c ****         }
1111:STM32Cube_FW_N6/Drivers/STM32N6xx_HAL_Driver/Src/stm32n6xx_hal_dma.c ****       }
1112:STM32Cube_FW_N6/Drivers/STM32N6xx_HAL_Driver/Src/stm32n6xx_hal_dma.c ****       else
1113:STM32Cube_FW_N6/Drivers/STM32N6xx_HAL_Driver/Src/stm32n6xx_hal_dma.c ****       {
1114:STM32Cube_FW_N6/Drivers/STM32N6xx_HAL_Driver/Src/stm32n6xx_hal_dma.c ****         /* If normal transfer */
1115:STM32Cube_FW_N6/Drivers/STM32N6xx_HAL_Driver/Src/stm32n6xx_hal_dma.c ****         if (hdma->Instance->CBR1 == 0U)
1116:STM32Cube_FW_N6/Drivers/STM32N6xx_HAL_Driver/Src/stm32n6xx_hal_dma.c ****         {
1117:STM32Cube_FW_N6/Drivers/STM32N6xx_HAL_Driver/Src/stm32n6xx_hal_dma.c ****           /* Update the DMA channel state */
1118:STM32Cube_FW_N6/Drivers/STM32N6xx_HAL_Driver/Src/stm32n6xx_hal_dma.c ****           hdma->State = HAL_DMA_STATE_READY;
1119:STM32Cube_FW_N6/Drivers/STM32N6xx_HAL_Driver/Src/stm32n6xx_hal_dma.c ****         }
1120:STM32Cube_FW_N6/Drivers/STM32N6xx_HAL_Driver/Src/stm32n6xx_hal_dma.c ****       }
1121:STM32Cube_FW_N6/Drivers/STM32N6xx_HAL_Driver/Src/stm32n6xx_hal_dma.c **** 
1122:STM32Cube_FW_N6/Drivers/STM32N6xx_HAL_Driver/Src/stm32n6xx_hal_dma.c ****       /* Clear TC and HT transfer flags */
1123:STM32Cube_FW_N6/Drivers/STM32N6xx_HAL_Driver/Src/stm32n6xx_hal_dma.c ****       __HAL_DMA_CLEAR_FLAG(hdma, (DMA_FLAG_TC | DMA_FLAG_HT));
1124:STM32Cube_FW_N6/Drivers/STM32N6xx_HAL_Driver/Src/stm32n6xx_hal_dma.c **** 
1125:STM32Cube_FW_N6/Drivers/STM32N6xx_HAL_Driver/Src/stm32n6xx_hal_dma.c ****       /* Process Unlocked */
1126:STM32Cube_FW_N6/Drivers/STM32N6xx_HAL_Driver/Src/stm32n6xx_hal_dma.c ****       __HAL_UNLOCK(hdma);
1127:STM32Cube_FW_N6/Drivers/STM32N6xx_HAL_Driver/Src/stm32n6xx_hal_dma.c **** 
1128:STM32Cube_FW_N6/Drivers/STM32N6xx_HAL_Driver/Src/stm32n6xx_hal_dma.c ****       /* Check transfer complete callback */
1129:STM32Cube_FW_N6/Drivers/STM32N6xx_HAL_Driver/Src/stm32n6xx_hal_dma.c ****       if (hdma->XferCpltCallback != NULL)
1130:STM32Cube_FW_N6/Drivers/STM32N6xx_HAL_Driver/Src/stm32n6xx_hal_dma.c ****       {
1131:STM32Cube_FW_N6/Drivers/STM32N6xx_HAL_Driver/Src/stm32n6xx_hal_dma.c ****         /* Channel Transfer Complete callback */
1132:STM32Cube_FW_N6/Drivers/STM32N6xx_HAL_Driver/Src/stm32n6xx_hal_dma.c ****         hdma->XferCpltCallback(hdma);
1133:STM32Cube_FW_N6/Drivers/STM32N6xx_HAL_Driver/Src/stm32n6xx_hal_dma.c ****       }
1134:STM32Cube_FW_N6/Drivers/STM32N6xx_HAL_Driver/Src/stm32n6xx_hal_dma.c ****     }
1135:STM32Cube_FW_N6/Drivers/STM32N6xx_HAL_Driver/Src/stm32n6xx_hal_dma.c ****   }
1136:STM32Cube_FW_N6/Drivers/STM32N6xx_HAL_Driver/Src/stm32n6xx_hal_dma.c **** 
1137:STM32Cube_FW_N6/Drivers/STM32N6xx_HAL_Driver/Src/stm32n6xx_hal_dma.c ****   /* Manage error case ****************************************************************************
1138:STM32Cube_FW_N6/Drivers/STM32N6xx_HAL_Driver/Src/stm32n6xx_hal_dma.c ****   if (hdma->ErrorCode != HAL_DMA_ERROR_NONE)
1139:STM32Cube_FW_N6/Drivers/STM32N6xx_HAL_Driver/Src/stm32n6xx_hal_dma.c ****   {
1140:STM32Cube_FW_N6/Drivers/STM32N6xx_HAL_Driver/Src/stm32n6xx_hal_dma.c ****     /* Reset the channel internal state and reset the FIFO */
1141:STM32Cube_FW_N6/Drivers/STM32N6xx_HAL_Driver/Src/stm32n6xx_hal_dma.c ****     hdma->Instance->CCR |= DMA_CCR_RESET;
1142:STM32Cube_FW_N6/Drivers/STM32N6xx_HAL_Driver/Src/stm32n6xx_hal_dma.c **** 
1143:STM32Cube_FW_N6/Drivers/STM32N6xx_HAL_Driver/Src/stm32n6xx_hal_dma.c ****     /* Update the DMA channel state */
1144:STM32Cube_FW_N6/Drivers/STM32N6xx_HAL_Driver/Src/stm32n6xx_hal_dma.c ****     hdma->State = HAL_DMA_STATE_READY;
1145:STM32Cube_FW_N6/Drivers/STM32N6xx_HAL_Driver/Src/stm32n6xx_hal_dma.c **** 
1146:STM32Cube_FW_N6/Drivers/STM32N6xx_HAL_Driver/Src/stm32n6xx_hal_dma.c ****     /* Check DMA channel transfer mode */
1147:STM32Cube_FW_N6/Drivers/STM32N6xx_HAL_Driver/Src/stm32n6xx_hal_dma.c ****     if ((hdma->Mode & DMA_LINKEDLIST) == DMA_LINKEDLIST)
1148:STM32Cube_FW_N6/Drivers/STM32N6xx_HAL_Driver/Src/stm32n6xx_hal_dma.c ****     {
1149:STM32Cube_FW_N6/Drivers/STM32N6xx_HAL_Driver/Src/stm32n6xx_hal_dma.c ****       /* Update the linked-list queue state */
1150:STM32Cube_FW_N6/Drivers/STM32N6xx_HAL_Driver/Src/stm32n6xx_hal_dma.c ****       hdma->LinkedListQueue->State = HAL_DMA_QUEUE_STATE_READY;
1151:STM32Cube_FW_N6/Drivers/STM32N6xx_HAL_Driver/Src/stm32n6xx_hal_dma.c ****     }
1152:STM32Cube_FW_N6/Drivers/STM32N6xx_HAL_Driver/Src/stm32n6xx_hal_dma.c **** 
1153:STM32Cube_FW_N6/Drivers/STM32N6xx_HAL_Driver/Src/stm32n6xx_hal_dma.c ****     /* Process Unlocked */
1154:STM32Cube_FW_N6/Drivers/STM32N6xx_HAL_Driver/Src/stm32n6xx_hal_dma.c ****     __HAL_UNLOCK(hdma);
1155:STM32Cube_FW_N6/Drivers/STM32N6xx_HAL_Driver/Src/stm32n6xx_hal_dma.c **** 
1156:STM32Cube_FW_N6/Drivers/STM32N6xx_HAL_Driver/Src/stm32n6xx_hal_dma.c ****     /* Check transfer error callback */
ARM GAS  C:\Users\DJESSOU\AppData\Local\Temp\ccEz5zGK.s 			page 39


1157:STM32Cube_FW_N6/Drivers/STM32N6xx_HAL_Driver/Src/stm32n6xx_hal_dma.c ****     if (hdma->XferErrorCallback != NULL)
1158:STM32Cube_FW_N6/Drivers/STM32N6xx_HAL_Driver/Src/stm32n6xx_hal_dma.c ****     {
1159:STM32Cube_FW_N6/Drivers/STM32N6xx_HAL_Driver/Src/stm32n6xx_hal_dma.c ****       /* Transfer error callback */
1160:STM32Cube_FW_N6/Drivers/STM32N6xx_HAL_Driver/Src/stm32n6xx_hal_dma.c ****       hdma->XferErrorCallback(hdma);
1161:STM32Cube_FW_N6/Drivers/STM32N6xx_HAL_Driver/Src/stm32n6xx_hal_dma.c ****     }
1162:STM32Cube_FW_N6/Drivers/STM32N6xx_HAL_Driver/Src/stm32n6xx_hal_dma.c ****   }
1163:STM32Cube_FW_N6/Drivers/STM32N6xx_HAL_Driver/Src/stm32n6xx_hal_dma.c **** }
1164:STM32Cube_FW_N6/Drivers/STM32N6xx_HAL_Driver/Src/stm32n6xx_hal_dma.c **** 
1165:STM32Cube_FW_N6/Drivers/STM32N6xx_HAL_Driver/Src/stm32n6xx_hal_dma.c **** /**
1166:STM32Cube_FW_N6/Drivers/STM32N6xx_HAL_Driver/Src/stm32n6xx_hal_dma.c ****   * @brief  Register callback according to specified ID.
1167:STM32Cube_FW_N6/Drivers/STM32N6xx_HAL_Driver/Src/stm32n6xx_hal_dma.c ****   * @note   The HAL_DMA_RegisterCallback() may be called before HAL_DMA_Init() in HAL_DMA_STATE_RES
1168:STM32Cube_FW_N6/Drivers/STM32N6xx_HAL_Driver/Src/stm32n6xx_hal_dma.c ****   *         to register callbacks for HAL_DMA_MSPINIT_CB_ID and HAL_DMA_MSPDEINIT_CB_ID.
1169:STM32Cube_FW_N6/Drivers/STM32N6xx_HAL_Driver/Src/stm32n6xx_hal_dma.c ****   * @param  hdma       : Pointer to a DMA_HandleTypeDef structure that contains the configuration i
1170:STM32Cube_FW_N6/Drivers/STM32N6xx_HAL_Driver/Src/stm32n6xx_hal_dma.c ****   *                      specified DMA Channel.
1171:STM32Cube_FW_N6/Drivers/STM32N6xx_HAL_Driver/Src/stm32n6xx_hal_dma.c ****   * @param  CallbackID : User Callback identifier which could be a value of HAL_DMA_CallbackIDTypeD
1172:STM32Cube_FW_N6/Drivers/STM32N6xx_HAL_Driver/Src/stm32n6xx_hal_dma.c ****   * @param  pCallback  : Pointer to private callback function.
1173:STM32Cube_FW_N6/Drivers/STM32N6xx_HAL_Driver/Src/stm32n6xx_hal_dma.c ****   * @retval HAL status.
1174:STM32Cube_FW_N6/Drivers/STM32N6xx_HAL_Driver/Src/stm32n6xx_hal_dma.c ****   */
1175:STM32Cube_FW_N6/Drivers/STM32N6xx_HAL_Driver/Src/stm32n6xx_hal_dma.c **** HAL_StatusTypeDef HAL_DMA_RegisterCallback(DMA_HandleTypeDef *const hdma,
1176:STM32Cube_FW_N6/Drivers/STM32N6xx_HAL_Driver/Src/stm32n6xx_hal_dma.c ****                                            HAL_DMA_CallbackIDTypeDef CallbackID,
1177:STM32Cube_FW_N6/Drivers/STM32N6xx_HAL_Driver/Src/stm32n6xx_hal_dma.c ****                                            void (*const pCallback)(DMA_HandleTypeDef *const _hdma))
1178:STM32Cube_FW_N6/Drivers/STM32N6xx_HAL_Driver/Src/stm32n6xx_hal_dma.c **** {
1179:STM32Cube_FW_N6/Drivers/STM32N6xx_HAL_Driver/Src/stm32n6xx_hal_dma.c ****   HAL_StatusTypeDef status = HAL_OK;
1180:STM32Cube_FW_N6/Drivers/STM32N6xx_HAL_Driver/Src/stm32n6xx_hal_dma.c **** 
1181:STM32Cube_FW_N6/Drivers/STM32N6xx_HAL_Driver/Src/stm32n6xx_hal_dma.c ****   /* Check the DMA peripheral handle parameter */
1182:STM32Cube_FW_N6/Drivers/STM32N6xx_HAL_Driver/Src/stm32n6xx_hal_dma.c ****   if (hdma == NULL)
1183:STM32Cube_FW_N6/Drivers/STM32N6xx_HAL_Driver/Src/stm32n6xx_hal_dma.c ****   {
1184:STM32Cube_FW_N6/Drivers/STM32N6xx_HAL_Driver/Src/stm32n6xx_hal_dma.c ****     return HAL_ERROR;
1185:STM32Cube_FW_N6/Drivers/STM32N6xx_HAL_Driver/Src/stm32n6xx_hal_dma.c ****   }
1186:STM32Cube_FW_N6/Drivers/STM32N6xx_HAL_Driver/Src/stm32n6xx_hal_dma.c **** 
1187:STM32Cube_FW_N6/Drivers/STM32N6xx_HAL_Driver/Src/stm32n6xx_hal_dma.c ****   /* Check DMA channel state */
1188:STM32Cube_FW_N6/Drivers/STM32N6xx_HAL_Driver/Src/stm32n6xx_hal_dma.c ****   if (hdma->State == HAL_DMA_STATE_READY)
1189:STM32Cube_FW_N6/Drivers/STM32N6xx_HAL_Driver/Src/stm32n6xx_hal_dma.c ****   {
1190:STM32Cube_FW_N6/Drivers/STM32N6xx_HAL_Driver/Src/stm32n6xx_hal_dma.c ****     /* Check callback ID */
1191:STM32Cube_FW_N6/Drivers/STM32N6xx_HAL_Driver/Src/stm32n6xx_hal_dma.c ****     switch (CallbackID)
1192:STM32Cube_FW_N6/Drivers/STM32N6xx_HAL_Driver/Src/stm32n6xx_hal_dma.c ****     {
1193:STM32Cube_FW_N6/Drivers/STM32N6xx_HAL_Driver/Src/stm32n6xx_hal_dma.c ****       case HAL_DMA_XFER_CPLT_CB_ID:
1194:STM32Cube_FW_N6/Drivers/STM32N6xx_HAL_Driver/Src/stm32n6xx_hal_dma.c ****       {
1195:STM32Cube_FW_N6/Drivers/STM32N6xx_HAL_Driver/Src/stm32n6xx_hal_dma.c ****         /* Register transfer complete callback */
1196:STM32Cube_FW_N6/Drivers/STM32N6xx_HAL_Driver/Src/stm32n6xx_hal_dma.c ****         hdma->XferCpltCallback = pCallback;
1197:STM32Cube_FW_N6/Drivers/STM32N6xx_HAL_Driver/Src/stm32n6xx_hal_dma.c ****         break;
1198:STM32Cube_FW_N6/Drivers/STM32N6xx_HAL_Driver/Src/stm32n6xx_hal_dma.c ****       }
1199:STM32Cube_FW_N6/Drivers/STM32N6xx_HAL_Driver/Src/stm32n6xx_hal_dma.c **** 
1200:STM32Cube_FW_N6/Drivers/STM32N6xx_HAL_Driver/Src/stm32n6xx_hal_dma.c ****       case HAL_DMA_XFER_HALFCPLT_CB_ID:
1201:STM32Cube_FW_N6/Drivers/STM32N6xx_HAL_Driver/Src/stm32n6xx_hal_dma.c ****       {
1202:STM32Cube_FW_N6/Drivers/STM32N6xx_HAL_Driver/Src/stm32n6xx_hal_dma.c ****         /* Register half transfer callback */
1203:STM32Cube_FW_N6/Drivers/STM32N6xx_HAL_Driver/Src/stm32n6xx_hal_dma.c ****         hdma->XferHalfCpltCallback = pCallback;
1204:STM32Cube_FW_N6/Drivers/STM32N6xx_HAL_Driver/Src/stm32n6xx_hal_dma.c ****         break;
1205:STM32Cube_FW_N6/Drivers/STM32N6xx_HAL_Driver/Src/stm32n6xx_hal_dma.c ****       }
1206:STM32Cube_FW_N6/Drivers/STM32N6xx_HAL_Driver/Src/stm32n6xx_hal_dma.c **** 
1207:STM32Cube_FW_N6/Drivers/STM32N6xx_HAL_Driver/Src/stm32n6xx_hal_dma.c ****       case HAL_DMA_XFER_ERROR_CB_ID:
1208:STM32Cube_FW_N6/Drivers/STM32N6xx_HAL_Driver/Src/stm32n6xx_hal_dma.c ****       {
1209:STM32Cube_FW_N6/Drivers/STM32N6xx_HAL_Driver/Src/stm32n6xx_hal_dma.c ****         /* Register transfer error callback */
1210:STM32Cube_FW_N6/Drivers/STM32N6xx_HAL_Driver/Src/stm32n6xx_hal_dma.c ****         hdma->XferErrorCallback = pCallback;
1211:STM32Cube_FW_N6/Drivers/STM32N6xx_HAL_Driver/Src/stm32n6xx_hal_dma.c ****         break;
1212:STM32Cube_FW_N6/Drivers/STM32N6xx_HAL_Driver/Src/stm32n6xx_hal_dma.c ****       }
1213:STM32Cube_FW_N6/Drivers/STM32N6xx_HAL_Driver/Src/stm32n6xx_hal_dma.c **** 
ARM GAS  C:\Users\DJESSOU\AppData\Local\Temp\ccEz5zGK.s 			page 40


1214:STM32Cube_FW_N6/Drivers/STM32N6xx_HAL_Driver/Src/stm32n6xx_hal_dma.c ****       case HAL_DMA_XFER_ABORT_CB_ID:
1215:STM32Cube_FW_N6/Drivers/STM32N6xx_HAL_Driver/Src/stm32n6xx_hal_dma.c ****       {
1216:STM32Cube_FW_N6/Drivers/STM32N6xx_HAL_Driver/Src/stm32n6xx_hal_dma.c ****         /* Register abort callback */
1217:STM32Cube_FW_N6/Drivers/STM32N6xx_HAL_Driver/Src/stm32n6xx_hal_dma.c ****         hdma->XferAbortCallback = pCallback;
1218:STM32Cube_FW_N6/Drivers/STM32N6xx_HAL_Driver/Src/stm32n6xx_hal_dma.c ****         break;
1219:STM32Cube_FW_N6/Drivers/STM32N6xx_HAL_Driver/Src/stm32n6xx_hal_dma.c ****       }
1220:STM32Cube_FW_N6/Drivers/STM32N6xx_HAL_Driver/Src/stm32n6xx_hal_dma.c **** 
1221:STM32Cube_FW_N6/Drivers/STM32N6xx_HAL_Driver/Src/stm32n6xx_hal_dma.c ****       case HAL_DMA_XFER_SUSPEND_CB_ID:
1222:STM32Cube_FW_N6/Drivers/STM32N6xx_HAL_Driver/Src/stm32n6xx_hal_dma.c ****       {
1223:STM32Cube_FW_N6/Drivers/STM32N6xx_HAL_Driver/Src/stm32n6xx_hal_dma.c ****         /* Register suspend callback */
1224:STM32Cube_FW_N6/Drivers/STM32N6xx_HAL_Driver/Src/stm32n6xx_hal_dma.c ****         hdma->XferSuspendCallback = pCallback;
1225:STM32Cube_FW_N6/Drivers/STM32N6xx_HAL_Driver/Src/stm32n6xx_hal_dma.c ****         break;
1226:STM32Cube_FW_N6/Drivers/STM32N6xx_HAL_Driver/Src/stm32n6xx_hal_dma.c ****       }
1227:STM32Cube_FW_N6/Drivers/STM32N6xx_HAL_Driver/Src/stm32n6xx_hal_dma.c **** 
1228:STM32Cube_FW_N6/Drivers/STM32N6xx_HAL_Driver/Src/stm32n6xx_hal_dma.c ****       default:
1229:STM32Cube_FW_N6/Drivers/STM32N6xx_HAL_Driver/Src/stm32n6xx_hal_dma.c ****       {
1230:STM32Cube_FW_N6/Drivers/STM32N6xx_HAL_Driver/Src/stm32n6xx_hal_dma.c ****         /* Update error status */
1231:STM32Cube_FW_N6/Drivers/STM32N6xx_HAL_Driver/Src/stm32n6xx_hal_dma.c ****         status = HAL_ERROR;
1232:STM32Cube_FW_N6/Drivers/STM32N6xx_HAL_Driver/Src/stm32n6xx_hal_dma.c ****         break;
1233:STM32Cube_FW_N6/Drivers/STM32N6xx_HAL_Driver/Src/stm32n6xx_hal_dma.c ****       }
1234:STM32Cube_FW_N6/Drivers/STM32N6xx_HAL_Driver/Src/stm32n6xx_hal_dma.c ****     }
1235:STM32Cube_FW_N6/Drivers/STM32N6xx_HAL_Driver/Src/stm32n6xx_hal_dma.c ****   }
1236:STM32Cube_FW_N6/Drivers/STM32N6xx_HAL_Driver/Src/stm32n6xx_hal_dma.c ****   else
1237:STM32Cube_FW_N6/Drivers/STM32N6xx_HAL_Driver/Src/stm32n6xx_hal_dma.c ****   {
1238:STM32Cube_FW_N6/Drivers/STM32N6xx_HAL_Driver/Src/stm32n6xx_hal_dma.c ****     /* Update error status */
1239:STM32Cube_FW_N6/Drivers/STM32N6xx_HAL_Driver/Src/stm32n6xx_hal_dma.c ****     status =  HAL_ERROR;
1240:STM32Cube_FW_N6/Drivers/STM32N6xx_HAL_Driver/Src/stm32n6xx_hal_dma.c ****   }
1241:STM32Cube_FW_N6/Drivers/STM32N6xx_HAL_Driver/Src/stm32n6xx_hal_dma.c **** 
1242:STM32Cube_FW_N6/Drivers/STM32N6xx_HAL_Driver/Src/stm32n6xx_hal_dma.c ****   return status;
1243:STM32Cube_FW_N6/Drivers/STM32N6xx_HAL_Driver/Src/stm32n6xx_hal_dma.c **** }
1244:STM32Cube_FW_N6/Drivers/STM32N6xx_HAL_Driver/Src/stm32n6xx_hal_dma.c **** 
1245:STM32Cube_FW_N6/Drivers/STM32N6xx_HAL_Driver/Src/stm32n6xx_hal_dma.c **** /**
1246:STM32Cube_FW_N6/Drivers/STM32N6xx_HAL_Driver/Src/stm32n6xx_hal_dma.c ****   * @brief  Unregister callback according to specified ID.
1247:STM32Cube_FW_N6/Drivers/STM32N6xx_HAL_Driver/Src/stm32n6xx_hal_dma.c ****   * @note   The HAL_DMA_UnRegisterCallback() may be called before HAL_DMA_Init() in HAL_DMA_STATE_R
1248:STM32Cube_FW_N6/Drivers/STM32N6xx_HAL_Driver/Src/stm32n6xx_hal_dma.c ****   *         to un-register callbacks for HAL_DMA_MSPINIT_CB_ID and HAL_DMA_MSPDEINIT_CB_ID.
1249:STM32Cube_FW_N6/Drivers/STM32N6xx_HAL_Driver/Src/stm32n6xx_hal_dma.c ****   * @param  hdma       : Pointer to a DMA_HandleTypeDef structure that contains the configuration i
1250:STM32Cube_FW_N6/Drivers/STM32N6xx_HAL_Driver/Src/stm32n6xx_hal_dma.c ****   *                      specified DMA Channel.
1251:STM32Cube_FW_N6/Drivers/STM32N6xx_HAL_Driver/Src/stm32n6xx_hal_dma.c ****   * @param  CallbackID : User Callback identifier which could be a value of HAL_DMA_CallbackIDTypeD
1252:STM32Cube_FW_N6/Drivers/STM32N6xx_HAL_Driver/Src/stm32n6xx_hal_dma.c ****   * @retval HAL status.
1253:STM32Cube_FW_N6/Drivers/STM32N6xx_HAL_Driver/Src/stm32n6xx_hal_dma.c ****   */
1254:STM32Cube_FW_N6/Drivers/STM32N6xx_HAL_Driver/Src/stm32n6xx_hal_dma.c **** HAL_StatusTypeDef HAL_DMA_UnRegisterCallback(DMA_HandleTypeDef *const hdma,
1255:STM32Cube_FW_N6/Drivers/STM32N6xx_HAL_Driver/Src/stm32n6xx_hal_dma.c ****                                              HAL_DMA_CallbackIDTypeDef CallbackID)
1256:STM32Cube_FW_N6/Drivers/STM32N6xx_HAL_Driver/Src/stm32n6xx_hal_dma.c **** {
1257:STM32Cube_FW_N6/Drivers/STM32N6xx_HAL_Driver/Src/stm32n6xx_hal_dma.c ****   HAL_StatusTypeDef status = HAL_OK;
1258:STM32Cube_FW_N6/Drivers/STM32N6xx_HAL_Driver/Src/stm32n6xx_hal_dma.c **** 
1259:STM32Cube_FW_N6/Drivers/STM32N6xx_HAL_Driver/Src/stm32n6xx_hal_dma.c ****   /* Check the DMA peripheral handle parameter */
1260:STM32Cube_FW_N6/Drivers/STM32N6xx_HAL_Driver/Src/stm32n6xx_hal_dma.c ****   if (hdma == NULL)
1261:STM32Cube_FW_N6/Drivers/STM32N6xx_HAL_Driver/Src/stm32n6xx_hal_dma.c ****   {
1262:STM32Cube_FW_N6/Drivers/STM32N6xx_HAL_Driver/Src/stm32n6xx_hal_dma.c ****     return HAL_ERROR;
1263:STM32Cube_FW_N6/Drivers/STM32N6xx_HAL_Driver/Src/stm32n6xx_hal_dma.c ****   }
1264:STM32Cube_FW_N6/Drivers/STM32N6xx_HAL_Driver/Src/stm32n6xx_hal_dma.c **** 
1265:STM32Cube_FW_N6/Drivers/STM32N6xx_HAL_Driver/Src/stm32n6xx_hal_dma.c ****   /* Check DMA channel state */
1266:STM32Cube_FW_N6/Drivers/STM32N6xx_HAL_Driver/Src/stm32n6xx_hal_dma.c ****   if (hdma->State == HAL_DMA_STATE_READY)
1267:STM32Cube_FW_N6/Drivers/STM32N6xx_HAL_Driver/Src/stm32n6xx_hal_dma.c ****   {
1268:STM32Cube_FW_N6/Drivers/STM32N6xx_HAL_Driver/Src/stm32n6xx_hal_dma.c ****     /* Check callback ID */
1269:STM32Cube_FW_N6/Drivers/STM32N6xx_HAL_Driver/Src/stm32n6xx_hal_dma.c ****     switch (CallbackID)
1270:STM32Cube_FW_N6/Drivers/STM32N6xx_HAL_Driver/Src/stm32n6xx_hal_dma.c ****     {
ARM GAS  C:\Users\DJESSOU\AppData\Local\Temp\ccEz5zGK.s 			page 41


1271:STM32Cube_FW_N6/Drivers/STM32N6xx_HAL_Driver/Src/stm32n6xx_hal_dma.c ****       case HAL_DMA_XFER_CPLT_CB_ID:
1272:STM32Cube_FW_N6/Drivers/STM32N6xx_HAL_Driver/Src/stm32n6xx_hal_dma.c ****       {
1273:STM32Cube_FW_N6/Drivers/STM32N6xx_HAL_Driver/Src/stm32n6xx_hal_dma.c ****         /* UnRegister transfer complete callback */
1274:STM32Cube_FW_N6/Drivers/STM32N6xx_HAL_Driver/Src/stm32n6xx_hal_dma.c ****         hdma->XferCpltCallback = NULL;
1275:STM32Cube_FW_N6/Drivers/STM32N6xx_HAL_Driver/Src/stm32n6xx_hal_dma.c ****         break;
1276:STM32Cube_FW_N6/Drivers/STM32N6xx_HAL_Driver/Src/stm32n6xx_hal_dma.c ****       }
1277:STM32Cube_FW_N6/Drivers/STM32N6xx_HAL_Driver/Src/stm32n6xx_hal_dma.c **** 
1278:STM32Cube_FW_N6/Drivers/STM32N6xx_HAL_Driver/Src/stm32n6xx_hal_dma.c ****       case HAL_DMA_XFER_HALFCPLT_CB_ID:
1279:STM32Cube_FW_N6/Drivers/STM32N6xx_HAL_Driver/Src/stm32n6xx_hal_dma.c ****       {
1280:STM32Cube_FW_N6/Drivers/STM32N6xx_HAL_Driver/Src/stm32n6xx_hal_dma.c ****         /* UnRegister half transfer callback */
1281:STM32Cube_FW_N6/Drivers/STM32N6xx_HAL_Driver/Src/stm32n6xx_hal_dma.c ****         hdma->XferHalfCpltCallback = NULL;
1282:STM32Cube_FW_N6/Drivers/STM32N6xx_HAL_Driver/Src/stm32n6xx_hal_dma.c ****         break;
1283:STM32Cube_FW_N6/Drivers/STM32N6xx_HAL_Driver/Src/stm32n6xx_hal_dma.c ****       }
1284:STM32Cube_FW_N6/Drivers/STM32N6xx_HAL_Driver/Src/stm32n6xx_hal_dma.c **** 
1285:STM32Cube_FW_N6/Drivers/STM32N6xx_HAL_Driver/Src/stm32n6xx_hal_dma.c ****       case HAL_DMA_XFER_ERROR_CB_ID:
1286:STM32Cube_FW_N6/Drivers/STM32N6xx_HAL_Driver/Src/stm32n6xx_hal_dma.c ****       {
1287:STM32Cube_FW_N6/Drivers/STM32N6xx_HAL_Driver/Src/stm32n6xx_hal_dma.c ****         /* UnRegister transfer error callback */
1288:STM32Cube_FW_N6/Drivers/STM32N6xx_HAL_Driver/Src/stm32n6xx_hal_dma.c ****         hdma->XferErrorCallback = NULL;
1289:STM32Cube_FW_N6/Drivers/STM32N6xx_HAL_Driver/Src/stm32n6xx_hal_dma.c ****         break;
1290:STM32Cube_FW_N6/Drivers/STM32N6xx_HAL_Driver/Src/stm32n6xx_hal_dma.c ****       }
1291:STM32Cube_FW_N6/Drivers/STM32N6xx_HAL_Driver/Src/stm32n6xx_hal_dma.c **** 
1292:STM32Cube_FW_N6/Drivers/STM32N6xx_HAL_Driver/Src/stm32n6xx_hal_dma.c ****       case HAL_DMA_XFER_ABORT_CB_ID:
1293:STM32Cube_FW_N6/Drivers/STM32N6xx_HAL_Driver/Src/stm32n6xx_hal_dma.c ****       {
1294:STM32Cube_FW_N6/Drivers/STM32N6xx_HAL_Driver/Src/stm32n6xx_hal_dma.c ****         /* UnRegister abort callback */
1295:STM32Cube_FW_N6/Drivers/STM32N6xx_HAL_Driver/Src/stm32n6xx_hal_dma.c ****         hdma->XferAbortCallback = NULL;
1296:STM32Cube_FW_N6/Drivers/STM32N6xx_HAL_Driver/Src/stm32n6xx_hal_dma.c ****         break;
1297:STM32Cube_FW_N6/Drivers/STM32N6xx_HAL_Driver/Src/stm32n6xx_hal_dma.c ****       }
1298:STM32Cube_FW_N6/Drivers/STM32N6xx_HAL_Driver/Src/stm32n6xx_hal_dma.c **** 
1299:STM32Cube_FW_N6/Drivers/STM32N6xx_HAL_Driver/Src/stm32n6xx_hal_dma.c ****       case HAL_DMA_XFER_SUSPEND_CB_ID:
1300:STM32Cube_FW_N6/Drivers/STM32N6xx_HAL_Driver/Src/stm32n6xx_hal_dma.c ****       {
1301:STM32Cube_FW_N6/Drivers/STM32N6xx_HAL_Driver/Src/stm32n6xx_hal_dma.c ****         /* UnRegister suspend callback */
1302:STM32Cube_FW_N6/Drivers/STM32N6xx_HAL_Driver/Src/stm32n6xx_hal_dma.c ****         hdma->XferSuspendCallback = NULL;
1303:STM32Cube_FW_N6/Drivers/STM32N6xx_HAL_Driver/Src/stm32n6xx_hal_dma.c ****         break;
1304:STM32Cube_FW_N6/Drivers/STM32N6xx_HAL_Driver/Src/stm32n6xx_hal_dma.c ****       }
1305:STM32Cube_FW_N6/Drivers/STM32N6xx_HAL_Driver/Src/stm32n6xx_hal_dma.c **** 
1306:STM32Cube_FW_N6/Drivers/STM32N6xx_HAL_Driver/Src/stm32n6xx_hal_dma.c ****       case HAL_DMA_XFER_ALL_CB_ID:
1307:STM32Cube_FW_N6/Drivers/STM32N6xx_HAL_Driver/Src/stm32n6xx_hal_dma.c ****       {
1308:STM32Cube_FW_N6/Drivers/STM32N6xx_HAL_Driver/Src/stm32n6xx_hal_dma.c ****         /* UnRegister all available callbacks */
1309:STM32Cube_FW_N6/Drivers/STM32N6xx_HAL_Driver/Src/stm32n6xx_hal_dma.c ****         hdma->XferCpltCallback     = NULL;
1310:STM32Cube_FW_N6/Drivers/STM32N6xx_HAL_Driver/Src/stm32n6xx_hal_dma.c ****         hdma->XferHalfCpltCallback = NULL;
1311:STM32Cube_FW_N6/Drivers/STM32N6xx_HAL_Driver/Src/stm32n6xx_hal_dma.c ****         hdma->XferErrorCallback    = NULL;
1312:STM32Cube_FW_N6/Drivers/STM32N6xx_HAL_Driver/Src/stm32n6xx_hal_dma.c ****         hdma->XferAbortCallback    = NULL;
1313:STM32Cube_FW_N6/Drivers/STM32N6xx_HAL_Driver/Src/stm32n6xx_hal_dma.c ****         hdma->XferSuspendCallback  = NULL;
1314:STM32Cube_FW_N6/Drivers/STM32N6xx_HAL_Driver/Src/stm32n6xx_hal_dma.c ****         break;
1315:STM32Cube_FW_N6/Drivers/STM32N6xx_HAL_Driver/Src/stm32n6xx_hal_dma.c ****       }
1316:STM32Cube_FW_N6/Drivers/STM32N6xx_HAL_Driver/Src/stm32n6xx_hal_dma.c **** 
1317:STM32Cube_FW_N6/Drivers/STM32N6xx_HAL_Driver/Src/stm32n6xx_hal_dma.c ****       default:
1318:STM32Cube_FW_N6/Drivers/STM32N6xx_HAL_Driver/Src/stm32n6xx_hal_dma.c ****       {
1319:STM32Cube_FW_N6/Drivers/STM32N6xx_HAL_Driver/Src/stm32n6xx_hal_dma.c ****         /* Update error status */
1320:STM32Cube_FW_N6/Drivers/STM32N6xx_HAL_Driver/Src/stm32n6xx_hal_dma.c ****         status = HAL_ERROR;
1321:STM32Cube_FW_N6/Drivers/STM32N6xx_HAL_Driver/Src/stm32n6xx_hal_dma.c ****         break;
1322:STM32Cube_FW_N6/Drivers/STM32N6xx_HAL_Driver/Src/stm32n6xx_hal_dma.c ****       }
1323:STM32Cube_FW_N6/Drivers/STM32N6xx_HAL_Driver/Src/stm32n6xx_hal_dma.c ****     }
1324:STM32Cube_FW_N6/Drivers/STM32N6xx_HAL_Driver/Src/stm32n6xx_hal_dma.c ****   }
1325:STM32Cube_FW_N6/Drivers/STM32N6xx_HAL_Driver/Src/stm32n6xx_hal_dma.c ****   else
1326:STM32Cube_FW_N6/Drivers/STM32N6xx_HAL_Driver/Src/stm32n6xx_hal_dma.c ****   {
1327:STM32Cube_FW_N6/Drivers/STM32N6xx_HAL_Driver/Src/stm32n6xx_hal_dma.c ****     /* Update error status */
ARM GAS  C:\Users\DJESSOU\AppData\Local\Temp\ccEz5zGK.s 			page 42


1328:STM32Cube_FW_N6/Drivers/STM32N6xx_HAL_Driver/Src/stm32n6xx_hal_dma.c ****     status = HAL_ERROR;
1329:STM32Cube_FW_N6/Drivers/STM32N6xx_HAL_Driver/Src/stm32n6xx_hal_dma.c ****   }
1330:STM32Cube_FW_N6/Drivers/STM32N6xx_HAL_Driver/Src/stm32n6xx_hal_dma.c **** 
1331:STM32Cube_FW_N6/Drivers/STM32N6xx_HAL_Driver/Src/stm32n6xx_hal_dma.c ****   return status;
1332:STM32Cube_FW_N6/Drivers/STM32N6xx_HAL_Driver/Src/stm32n6xx_hal_dma.c **** }
1333:STM32Cube_FW_N6/Drivers/STM32N6xx_HAL_Driver/Src/stm32n6xx_hal_dma.c **** /**
1334:STM32Cube_FW_N6/Drivers/STM32N6xx_HAL_Driver/Src/stm32n6xx_hal_dma.c ****   * @}
1335:STM32Cube_FW_N6/Drivers/STM32N6xx_HAL_Driver/Src/stm32n6xx_hal_dma.c ****   */
1336:STM32Cube_FW_N6/Drivers/STM32N6xx_HAL_Driver/Src/stm32n6xx_hal_dma.c **** 
1337:STM32Cube_FW_N6/Drivers/STM32N6xx_HAL_Driver/Src/stm32n6xx_hal_dma.c **** /** @addtogroup DMA_Exported_Functions_Group3
1338:STM32Cube_FW_N6/Drivers/STM32N6xx_HAL_Driver/Src/stm32n6xx_hal_dma.c ****   *
1339:STM32Cube_FW_N6/Drivers/STM32N6xx_HAL_Driver/Src/stm32n6xx_hal_dma.c **** @verbatim
1340:STM32Cube_FW_N6/Drivers/STM32N6xx_HAL_Driver/Src/stm32n6xx_hal_dma.c ****   =================================================================================================
1341:STM32Cube_FW_N6/Drivers/STM32N6xx_HAL_Driver/Src/stm32n6xx_hal_dma.c ****                               ##### State and Errors functions #####
1342:STM32Cube_FW_N6/Drivers/STM32N6xx_HAL_Driver/Src/stm32n6xx_hal_dma.c ****   =================================================================================================
1343:STM32Cube_FW_N6/Drivers/STM32N6xx_HAL_Driver/Src/stm32n6xx_hal_dma.c ****     [..]
1344:STM32Cube_FW_N6/Drivers/STM32N6xx_HAL_Driver/Src/stm32n6xx_hal_dma.c ****       This section provides functions allowing to :
1345:STM32Cube_FW_N6/Drivers/STM32N6xx_HAL_Driver/Src/stm32n6xx_hal_dma.c ****       (+) Check the DMA state
1346:STM32Cube_FW_N6/Drivers/STM32N6xx_HAL_Driver/Src/stm32n6xx_hal_dma.c ****       (+) Get error code
1347:STM32Cube_FW_N6/Drivers/STM32N6xx_HAL_Driver/Src/stm32n6xx_hal_dma.c **** 
1348:STM32Cube_FW_N6/Drivers/STM32N6xx_HAL_Driver/Src/stm32n6xx_hal_dma.c ****     [..]
1349:STM32Cube_FW_N6/Drivers/STM32N6xx_HAL_Driver/Src/stm32n6xx_hal_dma.c ****       (+) The HAL_DMA_GetState() function allows to get the DMA channel state.
1350:STM32Cube_FW_N6/Drivers/STM32N6xx_HAL_Driver/Src/stm32n6xx_hal_dma.c ****       (+) The HAL_DMA_DeInit() function allows to get the DMA channel error code.
1351:STM32Cube_FW_N6/Drivers/STM32N6xx_HAL_Driver/Src/stm32n6xx_hal_dma.c **** 
1352:STM32Cube_FW_N6/Drivers/STM32N6xx_HAL_Driver/Src/stm32n6xx_hal_dma.c **** @endverbatim
1353:STM32Cube_FW_N6/Drivers/STM32N6xx_HAL_Driver/Src/stm32n6xx_hal_dma.c ****   * @{
1354:STM32Cube_FW_N6/Drivers/STM32N6xx_HAL_Driver/Src/stm32n6xx_hal_dma.c ****   */
1355:STM32Cube_FW_N6/Drivers/STM32N6xx_HAL_Driver/Src/stm32n6xx_hal_dma.c **** 
1356:STM32Cube_FW_N6/Drivers/STM32N6xx_HAL_Driver/Src/stm32n6xx_hal_dma.c **** /**
1357:STM32Cube_FW_N6/Drivers/STM32N6xx_HAL_Driver/Src/stm32n6xx_hal_dma.c ****   * @brief  Returns the DMA channel state.
1358:STM32Cube_FW_N6/Drivers/STM32N6xx_HAL_Driver/Src/stm32n6xx_hal_dma.c ****   * @param  hdma : Pointer to a DMA_HandleTypeDef structure that contains the configuration informa
1359:STM32Cube_FW_N6/Drivers/STM32N6xx_HAL_Driver/Src/stm32n6xx_hal_dma.c ****   *                specified DMA Channel.
1360:STM32Cube_FW_N6/Drivers/STM32N6xx_HAL_Driver/Src/stm32n6xx_hal_dma.c ****   * @retval DMA state.
1361:STM32Cube_FW_N6/Drivers/STM32N6xx_HAL_Driver/Src/stm32n6xx_hal_dma.c ****   */
1362:STM32Cube_FW_N6/Drivers/STM32N6xx_HAL_Driver/Src/stm32n6xx_hal_dma.c **** HAL_DMA_StateTypeDef HAL_DMA_GetState(DMA_HandleTypeDef const *const hdma)
1363:STM32Cube_FW_N6/Drivers/STM32N6xx_HAL_Driver/Src/stm32n6xx_hal_dma.c **** {
1364:STM32Cube_FW_N6/Drivers/STM32N6xx_HAL_Driver/Src/stm32n6xx_hal_dma.c ****   /* Return the DMA channel state */
1365:STM32Cube_FW_N6/Drivers/STM32N6xx_HAL_Driver/Src/stm32n6xx_hal_dma.c ****   return hdma->State;
1366:STM32Cube_FW_N6/Drivers/STM32N6xx_HAL_Driver/Src/stm32n6xx_hal_dma.c **** }
1367:STM32Cube_FW_N6/Drivers/STM32N6xx_HAL_Driver/Src/stm32n6xx_hal_dma.c **** 
1368:STM32Cube_FW_N6/Drivers/STM32N6xx_HAL_Driver/Src/stm32n6xx_hal_dma.c **** /**
1369:STM32Cube_FW_N6/Drivers/STM32N6xx_HAL_Driver/Src/stm32n6xx_hal_dma.c ****   * @brief  Return the DMA channel error code.
1370:STM32Cube_FW_N6/Drivers/STM32N6xx_HAL_Driver/Src/stm32n6xx_hal_dma.c ****   * @param  hdma : Pointer to a DMA_HandleTypeDef structure that contains the configuration informa
1371:STM32Cube_FW_N6/Drivers/STM32N6xx_HAL_Driver/Src/stm32n6xx_hal_dma.c ****   *                specified DMA Channel.
1372:STM32Cube_FW_N6/Drivers/STM32N6xx_HAL_Driver/Src/stm32n6xx_hal_dma.c ****   * @retval DMA Error Code.
1373:STM32Cube_FW_N6/Drivers/STM32N6xx_HAL_Driver/Src/stm32n6xx_hal_dma.c ****   */
1374:STM32Cube_FW_N6/Drivers/STM32N6xx_HAL_Driver/Src/stm32n6xx_hal_dma.c **** uint32_t HAL_DMA_GetError(DMA_HandleTypeDef const *const hdma)
1375:STM32Cube_FW_N6/Drivers/STM32N6xx_HAL_Driver/Src/stm32n6xx_hal_dma.c **** {
1376:STM32Cube_FW_N6/Drivers/STM32N6xx_HAL_Driver/Src/stm32n6xx_hal_dma.c ****   /* Return the DMA channel error code */
1377:STM32Cube_FW_N6/Drivers/STM32N6xx_HAL_Driver/Src/stm32n6xx_hal_dma.c ****   return hdma->ErrorCode;
1378:STM32Cube_FW_N6/Drivers/STM32N6xx_HAL_Driver/Src/stm32n6xx_hal_dma.c **** }
1379:STM32Cube_FW_N6/Drivers/STM32N6xx_HAL_Driver/Src/stm32n6xx_hal_dma.c **** /**
1380:STM32Cube_FW_N6/Drivers/STM32N6xx_HAL_Driver/Src/stm32n6xx_hal_dma.c ****   * @}
1381:STM32Cube_FW_N6/Drivers/STM32N6xx_HAL_Driver/Src/stm32n6xx_hal_dma.c ****   */
1382:STM32Cube_FW_N6/Drivers/STM32N6xx_HAL_Driver/Src/stm32n6xx_hal_dma.c **** 
1383:STM32Cube_FW_N6/Drivers/STM32N6xx_HAL_Driver/Src/stm32n6xx_hal_dma.c **** /** @addtogroup DMA_Exported_Functions_Group4
1384:STM32Cube_FW_N6/Drivers/STM32N6xx_HAL_Driver/Src/stm32n6xx_hal_dma.c ****   *
ARM GAS  C:\Users\DJESSOU\AppData\Local\Temp\ccEz5zGK.s 			page 43


1385:STM32Cube_FW_N6/Drivers/STM32N6xx_HAL_Driver/Src/stm32n6xx_hal_dma.c **** @verbatim
1386:STM32Cube_FW_N6/Drivers/STM32N6xx_HAL_Driver/Src/stm32n6xx_hal_dma.c ****   =================================================================================================
1387:STM32Cube_FW_N6/Drivers/STM32N6xx_HAL_Driver/Src/stm32n6xx_hal_dma.c ****                            ##### DMA Attributes functions #####
1388:STM32Cube_FW_N6/Drivers/STM32N6xx_HAL_Driver/Src/stm32n6xx_hal_dma.c ****   =================================================================================================
1389:STM32Cube_FW_N6/Drivers/STM32N6xx_HAL_Driver/Src/stm32n6xx_hal_dma.c ****     [..]
1390:STM32Cube_FW_N6/Drivers/STM32N6xx_HAL_Driver/Src/stm32n6xx_hal_dma.c ****       This section provides functions allowing to :
1391:STM32Cube_FW_N6/Drivers/STM32N6xx_HAL_Driver/Src/stm32n6xx_hal_dma.c ****       (+) Configure DMA channel secure and privilege attributes.
1392:STM32Cube_FW_N6/Drivers/STM32N6xx_HAL_Driver/Src/stm32n6xx_hal_dma.c ****       (+) Get DMA channel secure and privilege attributes.
1393:STM32Cube_FW_N6/Drivers/STM32N6xx_HAL_Driver/Src/stm32n6xx_hal_dma.c ****       (+) Lock DMA channel secure and privilege attributes configuration.
1394:STM32Cube_FW_N6/Drivers/STM32N6xx_HAL_Driver/Src/stm32n6xx_hal_dma.c ****       (+) Check whether DMA channel secure and privilege attributes configuration is locked or not.
1395:STM32Cube_FW_N6/Drivers/STM32N6xx_HAL_Driver/Src/stm32n6xx_hal_dma.c **** 
1396:STM32Cube_FW_N6/Drivers/STM32N6xx_HAL_Driver/Src/stm32n6xx_hal_dma.c ****     [..]
1397:STM32Cube_FW_N6/Drivers/STM32N6xx_HAL_Driver/Src/stm32n6xx_hal_dma.c ****       (+) The HAL_DMA_ConfigChannelAttributes() function allows to configure DMA channel security a
1398:STM32Cube_FW_N6/Drivers/STM32N6xx_HAL_Driver/Src/stm32n6xx_hal_dma.c ****           attributes.
1399:STM32Cube_FW_N6/Drivers/STM32N6xx_HAL_Driver/Src/stm32n6xx_hal_dma.c ****       (+) The HAL_DMA_GetConfigChannelAttributes() function allows to get DMA channel security and 
1400:STM32Cube_FW_N6/Drivers/STM32N6xx_HAL_Driver/Src/stm32n6xx_hal_dma.c ****           configuration.
1401:STM32Cube_FW_N6/Drivers/STM32N6xx_HAL_Driver/Src/stm32n6xx_hal_dma.c ****       (+) The HAL_DMA_LockChannelAttributes() function allows to lock the DMA channel security and 
1402:STM32Cube_FW_N6/Drivers/STM32N6xx_HAL_Driver/Src/stm32n6xx_hal_dma.c ****       (+) The HAL_DMA_GetLockChannelAttributes() function allows to get the DMA channel security an
1403:STM32Cube_FW_N6/Drivers/STM32N6xx_HAL_Driver/Src/stm32n6xx_hal_dma.c ****           attributes lock status.
1404:STM32Cube_FW_N6/Drivers/STM32N6xx_HAL_Driver/Src/stm32n6xx_hal_dma.c **** 
1405:STM32Cube_FW_N6/Drivers/STM32N6xx_HAL_Driver/Src/stm32n6xx_hal_dma.c **** @endverbatim
1406:STM32Cube_FW_N6/Drivers/STM32N6xx_HAL_Driver/Src/stm32n6xx_hal_dma.c ****   * @{
1407:STM32Cube_FW_N6/Drivers/STM32N6xx_HAL_Driver/Src/stm32n6xx_hal_dma.c ****   */
1408:STM32Cube_FW_N6/Drivers/STM32N6xx_HAL_Driver/Src/stm32n6xx_hal_dma.c **** 
1409:STM32Cube_FW_N6/Drivers/STM32N6xx_HAL_Driver/Src/stm32n6xx_hal_dma.c **** /**
1410:STM32Cube_FW_N6/Drivers/STM32N6xx_HAL_Driver/Src/stm32n6xx_hal_dma.c ****   * @brief  Configure the DMA channel security and privilege attribute(s).
1411:STM32Cube_FW_N6/Drivers/STM32N6xx_HAL_Driver/Src/stm32n6xx_hal_dma.c ****   * @note   These attributes cannot be modified when the corresponding lock state is enabled.
1412:STM32Cube_FW_N6/Drivers/STM32N6xx_HAL_Driver/Src/stm32n6xx_hal_dma.c ****   * @param  hdma              : Pointer to a DMA_HandleTypeDef structure that contains the configur
1413:STM32Cube_FW_N6/Drivers/STM32N6xx_HAL_Driver/Src/stm32n6xx_hal_dma.c ****   *                             the specified DMA Channel.
1414:STM32Cube_FW_N6/Drivers/STM32N6xx_HAL_Driver/Src/stm32n6xx_hal_dma.c ****   * @param  ChannelAttributes : Specifies the DMA channel secure/privilege attributes.
1415:STM32Cube_FW_N6/Drivers/STM32N6xx_HAL_Driver/Src/stm32n6xx_hal_dma.c ****   *                             This parameter can be a one or a combination of @ref DMA_Channel_At
1416:STM32Cube_FW_N6/Drivers/STM32N6xx_HAL_Driver/Src/stm32n6xx_hal_dma.c ****   * @retval HAL Status.
1417:STM32Cube_FW_N6/Drivers/STM32N6xx_HAL_Driver/Src/stm32n6xx_hal_dma.c ****   */
1418:STM32Cube_FW_N6/Drivers/STM32N6xx_HAL_Driver/Src/stm32n6xx_hal_dma.c **** HAL_StatusTypeDef HAL_DMA_ConfigChannelAttributes(DMA_HandleTypeDef *const hdma, uint32_t ChannelAt
1419:STM32Cube_FW_N6/Drivers/STM32N6xx_HAL_Driver/Src/stm32n6xx_hal_dma.c **** {
1420:STM32Cube_FW_N6/Drivers/STM32N6xx_HAL_Driver/Src/stm32n6xx_hal_dma.c ****   DMA_TypeDef *p_dma_instance;
1421:STM32Cube_FW_N6/Drivers/STM32N6xx_HAL_Driver/Src/stm32n6xx_hal_dma.c ****   uint32_t channel_idx;
1422:STM32Cube_FW_N6/Drivers/STM32N6xx_HAL_Driver/Src/stm32n6xx_hal_dma.c **** 
1423:STM32Cube_FW_N6/Drivers/STM32N6xx_HAL_Driver/Src/stm32n6xx_hal_dma.c ****   /* Check the DMA peripheral handle parameter */
1424:STM32Cube_FW_N6/Drivers/STM32N6xx_HAL_Driver/Src/stm32n6xx_hal_dma.c ****   if (hdma == NULL)
1425:STM32Cube_FW_N6/Drivers/STM32N6xx_HAL_Driver/Src/stm32n6xx_hal_dma.c ****   {
1426:STM32Cube_FW_N6/Drivers/STM32N6xx_HAL_Driver/Src/stm32n6xx_hal_dma.c ****     return HAL_ERROR;
1427:STM32Cube_FW_N6/Drivers/STM32N6xx_HAL_Driver/Src/stm32n6xx_hal_dma.c ****   }
1428:STM32Cube_FW_N6/Drivers/STM32N6xx_HAL_Driver/Src/stm32n6xx_hal_dma.c **** 
1429:STM32Cube_FW_N6/Drivers/STM32N6xx_HAL_Driver/Src/stm32n6xx_hal_dma.c ****   /* Check the parameters */
1430:STM32Cube_FW_N6/Drivers/STM32N6xx_HAL_Driver/Src/stm32n6xx_hal_dma.c ****   assert_param(IS_DMA_ATTRIBUTES(ChannelAttributes));
1431:STM32Cube_FW_N6/Drivers/STM32N6xx_HAL_Driver/Src/stm32n6xx_hal_dma.c **** 
1432:STM32Cube_FW_N6/Drivers/STM32N6xx_HAL_Driver/Src/stm32n6xx_hal_dma.c ****   /* Get DMA instance */
1433:STM32Cube_FW_N6/Drivers/STM32N6xx_HAL_Driver/Src/stm32n6xx_hal_dma.c ****   p_dma_instance = GET_DMA_INSTANCE(hdma);
1434:STM32Cube_FW_N6/Drivers/STM32N6xx_HAL_Driver/Src/stm32n6xx_hal_dma.c **** 
1435:STM32Cube_FW_N6/Drivers/STM32N6xx_HAL_Driver/Src/stm32n6xx_hal_dma.c ****   /* Get channel index */
1436:STM32Cube_FW_N6/Drivers/STM32N6xx_HAL_Driver/Src/stm32n6xx_hal_dma.c ****   channel_idx = 1UL << (GET_DMA_CHANNEL(hdma) & 0x1FU);
1437:STM32Cube_FW_N6/Drivers/STM32N6xx_HAL_Driver/Src/stm32n6xx_hal_dma.c **** 
1438:STM32Cube_FW_N6/Drivers/STM32N6xx_HAL_Driver/Src/stm32n6xx_hal_dma.c ****   /* Check DMA channel privilege attribute management */
1439:STM32Cube_FW_N6/Drivers/STM32N6xx_HAL_Driver/Src/stm32n6xx_hal_dma.c ****   if ((ChannelAttributes & DMA_CHANNEL_ATTR_PRIV_MASK) == DMA_CHANNEL_ATTR_PRIV_MASK)
1440:STM32Cube_FW_N6/Drivers/STM32N6xx_HAL_Driver/Src/stm32n6xx_hal_dma.c ****   {
1441:STM32Cube_FW_N6/Drivers/STM32N6xx_HAL_Driver/Src/stm32n6xx_hal_dma.c ****     /* Configure DMA channel privilege attribute */
ARM GAS  C:\Users\DJESSOU\AppData\Local\Temp\ccEz5zGK.s 			page 44


1442:STM32Cube_FW_N6/Drivers/STM32N6xx_HAL_Driver/Src/stm32n6xx_hal_dma.c ****     if ((ChannelAttributes & DMA_CHANNEL_PRIV) == DMA_CHANNEL_PRIV)
1443:STM32Cube_FW_N6/Drivers/STM32N6xx_HAL_Driver/Src/stm32n6xx_hal_dma.c ****     {
1444:STM32Cube_FW_N6/Drivers/STM32N6xx_HAL_Driver/Src/stm32n6xx_hal_dma.c ****       p_dma_instance->PRIVCFGR |= channel_idx;
1445:STM32Cube_FW_N6/Drivers/STM32N6xx_HAL_Driver/Src/stm32n6xx_hal_dma.c ****     }
1446:STM32Cube_FW_N6/Drivers/STM32N6xx_HAL_Driver/Src/stm32n6xx_hal_dma.c ****     else
1447:STM32Cube_FW_N6/Drivers/STM32N6xx_HAL_Driver/Src/stm32n6xx_hal_dma.c ****     {
1448:STM32Cube_FW_N6/Drivers/STM32N6xx_HAL_Driver/Src/stm32n6xx_hal_dma.c ****       p_dma_instance->PRIVCFGR &= (~channel_idx);
1449:STM32Cube_FW_N6/Drivers/STM32N6xx_HAL_Driver/Src/stm32n6xx_hal_dma.c ****     }
1450:STM32Cube_FW_N6/Drivers/STM32N6xx_HAL_Driver/Src/stm32n6xx_hal_dma.c ****   }
1451:STM32Cube_FW_N6/Drivers/STM32N6xx_HAL_Driver/Src/stm32n6xx_hal_dma.c **** 
1452:STM32Cube_FW_N6/Drivers/STM32N6xx_HAL_Driver/Src/stm32n6xx_hal_dma.c **** #if defined (CPU_IN_SECURE_STATE)
1453:STM32Cube_FW_N6/Drivers/STM32N6xx_HAL_Driver/Src/stm32n6xx_hal_dma.c ****   /* Check DMA channel security attribute management */
1454:STM32Cube_FW_N6/Drivers/STM32N6xx_HAL_Driver/Src/stm32n6xx_hal_dma.c ****   if ((ChannelAttributes & DMA_CHANNEL_ATTR_SEC_MASK) == DMA_CHANNEL_ATTR_SEC_MASK)
1455:STM32Cube_FW_N6/Drivers/STM32N6xx_HAL_Driver/Src/stm32n6xx_hal_dma.c ****   {
1456:STM32Cube_FW_N6/Drivers/STM32N6xx_HAL_Driver/Src/stm32n6xx_hal_dma.c ****     /* Configure DMA channel security attribute */
1457:STM32Cube_FW_N6/Drivers/STM32N6xx_HAL_Driver/Src/stm32n6xx_hal_dma.c ****     if ((ChannelAttributes & DMA_CHANNEL_SEC) == DMA_CHANNEL_SEC)
1458:STM32Cube_FW_N6/Drivers/STM32N6xx_HAL_Driver/Src/stm32n6xx_hal_dma.c ****     {
1459:STM32Cube_FW_N6/Drivers/STM32N6xx_HAL_Driver/Src/stm32n6xx_hal_dma.c ****       p_dma_instance->SECCFGR |= channel_idx;
1460:STM32Cube_FW_N6/Drivers/STM32N6xx_HAL_Driver/Src/stm32n6xx_hal_dma.c ****     }
1461:STM32Cube_FW_N6/Drivers/STM32N6xx_HAL_Driver/Src/stm32n6xx_hal_dma.c ****     else
1462:STM32Cube_FW_N6/Drivers/STM32N6xx_HAL_Driver/Src/stm32n6xx_hal_dma.c ****     {
1463:STM32Cube_FW_N6/Drivers/STM32N6xx_HAL_Driver/Src/stm32n6xx_hal_dma.c ****       p_dma_instance->SECCFGR &= (~channel_idx);
1464:STM32Cube_FW_N6/Drivers/STM32N6xx_HAL_Driver/Src/stm32n6xx_hal_dma.c ****     }
1465:STM32Cube_FW_N6/Drivers/STM32N6xx_HAL_Driver/Src/stm32n6xx_hal_dma.c ****   }
1466:STM32Cube_FW_N6/Drivers/STM32N6xx_HAL_Driver/Src/stm32n6xx_hal_dma.c **** 
1467:STM32Cube_FW_N6/Drivers/STM32N6xx_HAL_Driver/Src/stm32n6xx_hal_dma.c ****   /* Channel source security attribute management */
1468:STM32Cube_FW_N6/Drivers/STM32N6xx_HAL_Driver/Src/stm32n6xx_hal_dma.c ****   if ((ChannelAttributes & DMA_CHANNEL_ATTR_SEC_SRC_MASK) == DMA_CHANNEL_ATTR_SEC_SRC_MASK)
1469:STM32Cube_FW_N6/Drivers/STM32N6xx_HAL_Driver/Src/stm32n6xx_hal_dma.c ****   {
1470:STM32Cube_FW_N6/Drivers/STM32N6xx_HAL_Driver/Src/stm32n6xx_hal_dma.c ****     /* Configure DMA channel source security attribute */
1471:STM32Cube_FW_N6/Drivers/STM32N6xx_HAL_Driver/Src/stm32n6xx_hal_dma.c ****     if ((ChannelAttributes & DMA_CHANNEL_SRC_SEC) == DMA_CHANNEL_SRC_SEC)
1472:STM32Cube_FW_N6/Drivers/STM32N6xx_HAL_Driver/Src/stm32n6xx_hal_dma.c ****     {
1473:STM32Cube_FW_N6/Drivers/STM32N6xx_HAL_Driver/Src/stm32n6xx_hal_dma.c ****       hdma->Instance->CTR1 |= DMA_CTR1_SSEC;
1474:STM32Cube_FW_N6/Drivers/STM32N6xx_HAL_Driver/Src/stm32n6xx_hal_dma.c ****     }
1475:STM32Cube_FW_N6/Drivers/STM32N6xx_HAL_Driver/Src/stm32n6xx_hal_dma.c ****     else
1476:STM32Cube_FW_N6/Drivers/STM32N6xx_HAL_Driver/Src/stm32n6xx_hal_dma.c ****     {
1477:STM32Cube_FW_N6/Drivers/STM32N6xx_HAL_Driver/Src/stm32n6xx_hal_dma.c ****       hdma->Instance->CTR1 &= (~DMA_CTR1_SSEC);
1478:STM32Cube_FW_N6/Drivers/STM32N6xx_HAL_Driver/Src/stm32n6xx_hal_dma.c ****     }
1479:STM32Cube_FW_N6/Drivers/STM32N6xx_HAL_Driver/Src/stm32n6xx_hal_dma.c ****   }
1480:STM32Cube_FW_N6/Drivers/STM32N6xx_HAL_Driver/Src/stm32n6xx_hal_dma.c **** 
1481:STM32Cube_FW_N6/Drivers/STM32N6xx_HAL_Driver/Src/stm32n6xx_hal_dma.c ****   /* Channel destination security attribute management */
1482:STM32Cube_FW_N6/Drivers/STM32N6xx_HAL_Driver/Src/stm32n6xx_hal_dma.c ****   if ((ChannelAttributes & DMA_CHANNEL_ATTR_SEC_DEST_MASK) == DMA_CHANNEL_ATTR_SEC_DEST_MASK)
1483:STM32Cube_FW_N6/Drivers/STM32N6xx_HAL_Driver/Src/stm32n6xx_hal_dma.c ****   {
1484:STM32Cube_FW_N6/Drivers/STM32N6xx_HAL_Driver/Src/stm32n6xx_hal_dma.c ****     /* Configure DMA channel destination security attribute */
1485:STM32Cube_FW_N6/Drivers/STM32N6xx_HAL_Driver/Src/stm32n6xx_hal_dma.c ****     if ((ChannelAttributes & DMA_CHANNEL_DEST_SEC) == DMA_CHANNEL_DEST_SEC)
1486:STM32Cube_FW_N6/Drivers/STM32N6xx_HAL_Driver/Src/stm32n6xx_hal_dma.c ****     {
1487:STM32Cube_FW_N6/Drivers/STM32N6xx_HAL_Driver/Src/stm32n6xx_hal_dma.c ****       hdma->Instance->CTR1 |= DMA_CTR1_DSEC;
1488:STM32Cube_FW_N6/Drivers/STM32N6xx_HAL_Driver/Src/stm32n6xx_hal_dma.c ****     }
1489:STM32Cube_FW_N6/Drivers/STM32N6xx_HAL_Driver/Src/stm32n6xx_hal_dma.c ****     else
1490:STM32Cube_FW_N6/Drivers/STM32N6xx_HAL_Driver/Src/stm32n6xx_hal_dma.c ****     {
1491:STM32Cube_FW_N6/Drivers/STM32N6xx_HAL_Driver/Src/stm32n6xx_hal_dma.c ****       hdma->Instance->CTR1 &= (~DMA_CTR1_DSEC);
1492:STM32Cube_FW_N6/Drivers/STM32N6xx_HAL_Driver/Src/stm32n6xx_hal_dma.c ****     }
1493:STM32Cube_FW_N6/Drivers/STM32N6xx_HAL_Driver/Src/stm32n6xx_hal_dma.c ****   }
1494:STM32Cube_FW_N6/Drivers/STM32N6xx_HAL_Driver/Src/stm32n6xx_hal_dma.c **** #endif /* CPU_IN_SECURE_STATE */
1495:STM32Cube_FW_N6/Drivers/STM32N6xx_HAL_Driver/Src/stm32n6xx_hal_dma.c **** 
1496:STM32Cube_FW_N6/Drivers/STM32N6xx_HAL_Driver/Src/stm32n6xx_hal_dma.c ****   return HAL_OK;
1497:STM32Cube_FW_N6/Drivers/STM32N6xx_HAL_Driver/Src/stm32n6xx_hal_dma.c **** }
1498:STM32Cube_FW_N6/Drivers/STM32N6xx_HAL_Driver/Src/stm32n6xx_hal_dma.c **** 
ARM GAS  C:\Users\DJESSOU\AppData\Local\Temp\ccEz5zGK.s 			page 45


1499:STM32Cube_FW_N6/Drivers/STM32N6xx_HAL_Driver/Src/stm32n6xx_hal_dma.c **** /**
1500:STM32Cube_FW_N6/Drivers/STM32N6xx_HAL_Driver/Src/stm32n6xx_hal_dma.c ****   * @brief  Get the DMA channel security and privilege attributes.
1501:STM32Cube_FW_N6/Drivers/STM32N6xx_HAL_Driver/Src/stm32n6xx_hal_dma.c ****   * @param  hdma               : Pointer to a DMA_HandleTypeDef structure that contains the configu
1502:STM32Cube_FW_N6/Drivers/STM32N6xx_HAL_Driver/Src/stm32n6xx_hal_dma.c ****   *                              for the specified DMA Channel.
1503:STM32Cube_FW_N6/Drivers/STM32N6xx_HAL_Driver/Src/stm32n6xx_hal_dma.c ****   * @param  pChannelAttributes : Pointer to the returned attributes.
1504:STM32Cube_FW_N6/Drivers/STM32N6xx_HAL_Driver/Src/stm32n6xx_hal_dma.c ****   * @retval HAL Status.
1505:STM32Cube_FW_N6/Drivers/STM32N6xx_HAL_Driver/Src/stm32n6xx_hal_dma.c ****   */
1506:STM32Cube_FW_N6/Drivers/STM32N6xx_HAL_Driver/Src/stm32n6xx_hal_dma.c **** HAL_StatusTypeDef HAL_DMA_GetConfigChannelAttributes(DMA_HandleTypeDef const *const hdma,
1507:STM32Cube_FW_N6/Drivers/STM32N6xx_HAL_Driver/Src/stm32n6xx_hal_dma.c ****                                                      uint32_t *const pChannelAttributes)
1508:STM32Cube_FW_N6/Drivers/STM32N6xx_HAL_Driver/Src/stm32n6xx_hal_dma.c **** {
1509:STM32Cube_FW_N6/Drivers/STM32N6xx_HAL_Driver/Src/stm32n6xx_hal_dma.c ****   const DMA_TypeDef *p_dma_instance;
1510:STM32Cube_FW_N6/Drivers/STM32N6xx_HAL_Driver/Src/stm32n6xx_hal_dma.c ****   uint32_t attributes;
1511:STM32Cube_FW_N6/Drivers/STM32N6xx_HAL_Driver/Src/stm32n6xx_hal_dma.c ****   uint32_t channel_idx;
1512:STM32Cube_FW_N6/Drivers/STM32N6xx_HAL_Driver/Src/stm32n6xx_hal_dma.c **** 
1513:STM32Cube_FW_N6/Drivers/STM32N6xx_HAL_Driver/Src/stm32n6xx_hal_dma.c ****   /* Check the DMA peripheral handle and channel attributes parameters */
1514:STM32Cube_FW_N6/Drivers/STM32N6xx_HAL_Driver/Src/stm32n6xx_hal_dma.c ****   if ((hdma == NULL) || (pChannelAttributes == NULL))
1515:STM32Cube_FW_N6/Drivers/STM32N6xx_HAL_Driver/Src/stm32n6xx_hal_dma.c ****   {
1516:STM32Cube_FW_N6/Drivers/STM32N6xx_HAL_Driver/Src/stm32n6xx_hal_dma.c ****     return HAL_ERROR;
1517:STM32Cube_FW_N6/Drivers/STM32N6xx_HAL_Driver/Src/stm32n6xx_hal_dma.c ****   }
1518:STM32Cube_FW_N6/Drivers/STM32N6xx_HAL_Driver/Src/stm32n6xx_hal_dma.c **** 
1519:STM32Cube_FW_N6/Drivers/STM32N6xx_HAL_Driver/Src/stm32n6xx_hal_dma.c ****   /* Get DMA instance */
1520:STM32Cube_FW_N6/Drivers/STM32N6xx_HAL_Driver/Src/stm32n6xx_hal_dma.c ****   p_dma_instance = GET_DMA_INSTANCE(hdma);
1521:STM32Cube_FW_N6/Drivers/STM32N6xx_HAL_Driver/Src/stm32n6xx_hal_dma.c **** 
1522:STM32Cube_FW_N6/Drivers/STM32N6xx_HAL_Driver/Src/stm32n6xx_hal_dma.c ****   /* Get channel index */
1523:STM32Cube_FW_N6/Drivers/STM32N6xx_HAL_Driver/Src/stm32n6xx_hal_dma.c ****   channel_idx = 1UL << (GET_DMA_CHANNEL(hdma) & 0x1FU);
1524:STM32Cube_FW_N6/Drivers/STM32N6xx_HAL_Driver/Src/stm32n6xx_hal_dma.c **** 
1525:STM32Cube_FW_N6/Drivers/STM32N6xx_HAL_Driver/Src/stm32n6xx_hal_dma.c ****   /* Get DMA channel privilege attribute */
1526:STM32Cube_FW_N6/Drivers/STM32N6xx_HAL_Driver/Src/stm32n6xx_hal_dma.c ****   attributes = ((p_dma_instance->PRIVCFGR & channel_idx) == 0U) ? DMA_CHANNEL_NPRIV : DMA_CHANNEL_P
1527:STM32Cube_FW_N6/Drivers/STM32N6xx_HAL_Driver/Src/stm32n6xx_hal_dma.c **** 
1528:STM32Cube_FW_N6/Drivers/STM32N6xx_HAL_Driver/Src/stm32n6xx_hal_dma.c ****   /* Get DMA channel security attribute */
1529:STM32Cube_FW_N6/Drivers/STM32N6xx_HAL_Driver/Src/stm32n6xx_hal_dma.c ****   attributes |= ((p_dma_instance->SECCFGR & channel_idx) == 0U) ? DMA_CHANNEL_NSEC : DMA_CHANNEL_SE
1530:STM32Cube_FW_N6/Drivers/STM32N6xx_HAL_Driver/Src/stm32n6xx_hal_dma.c **** 
1531:STM32Cube_FW_N6/Drivers/STM32N6xx_HAL_Driver/Src/stm32n6xx_hal_dma.c ****   /* Get DMA channel source security attribute */
1532:STM32Cube_FW_N6/Drivers/STM32N6xx_HAL_Driver/Src/stm32n6xx_hal_dma.c ****   attributes |= ((hdma->Instance->CTR1 & DMA_CTR1_SSEC) == 0U) ? DMA_CHANNEL_SRC_NSEC : DMA_CHANNEL
1533:STM32Cube_FW_N6/Drivers/STM32N6xx_HAL_Driver/Src/stm32n6xx_hal_dma.c **** 
1534:STM32Cube_FW_N6/Drivers/STM32N6xx_HAL_Driver/Src/stm32n6xx_hal_dma.c ****   /* Get DMA channel destination security attribute */
1535:STM32Cube_FW_N6/Drivers/STM32N6xx_HAL_Driver/Src/stm32n6xx_hal_dma.c ****   attributes |= ((hdma->Instance->CTR1 & DMA_CTR1_DSEC) == 0U) ? DMA_CHANNEL_DEST_NSEC : DMA_CHANNE
1536:STM32Cube_FW_N6/Drivers/STM32N6xx_HAL_Driver/Src/stm32n6xx_hal_dma.c **** 
1537:STM32Cube_FW_N6/Drivers/STM32N6xx_HAL_Driver/Src/stm32n6xx_hal_dma.c ****   /* return value */
1538:STM32Cube_FW_N6/Drivers/STM32N6xx_HAL_Driver/Src/stm32n6xx_hal_dma.c ****   *pChannelAttributes = attributes;
1539:STM32Cube_FW_N6/Drivers/STM32N6xx_HAL_Driver/Src/stm32n6xx_hal_dma.c **** 
1540:STM32Cube_FW_N6/Drivers/STM32N6xx_HAL_Driver/Src/stm32n6xx_hal_dma.c ****   return HAL_OK;
1541:STM32Cube_FW_N6/Drivers/STM32N6xx_HAL_Driver/Src/stm32n6xx_hal_dma.c **** }
1542:STM32Cube_FW_N6/Drivers/STM32N6xx_HAL_Driver/Src/stm32n6xx_hal_dma.c **** 
1543:STM32Cube_FW_N6/Drivers/STM32N6xx_HAL_Driver/Src/stm32n6xx_hal_dma.c **** #if defined (CPU_IN_SECURE_STATE)
1544:STM32Cube_FW_N6/Drivers/STM32N6xx_HAL_Driver/Src/stm32n6xx_hal_dma.c **** /**
1545:STM32Cube_FW_N6/Drivers/STM32N6xx_HAL_Driver/Src/stm32n6xx_hal_dma.c ****   * @brief  Set the DMA channel filtering CID (Isolation configuration). It can be
1546:STM32Cube_FW_N6/Drivers/STM32N6xx_HAL_Driver/Src/stm32n6xx_hal_dma.c ****   *             - static: the CID passed as parameter is programmed;
1547:STM32Cube_FW_N6/Drivers/STM32N6xx_HAL_Driver/Src/stm32n6xx_hal_dma.c ****   *             - disabled: the whole register is cleared.
1548:STM32Cube_FW_N6/Drivers/STM32N6xx_HAL_Driver/Src/stm32n6xx_hal_dma.c ****   * @param  hdma    : Pointer to a DMA_HandleTypeDef structure that contains the configuration info
1549:STM32Cube_FW_N6/Drivers/STM32N6xx_HAL_Driver/Src/stm32n6xx_hal_dma.c ****   *                of the HPDMA channel.
1550:STM32Cube_FW_N6/Drivers/STM32N6xx_HAL_Driver/Src/stm32n6xx_hal_dma.c ****   * @param  pConfig : Pointer on the DMA Isolation structure
1551:STM32Cube_FW_N6/Drivers/STM32N6xx_HAL_Driver/Src/stm32n6xx_hal_dma.c ****   * @retval None
1552:STM32Cube_FW_N6/Drivers/STM32N6xx_HAL_Driver/Src/stm32n6xx_hal_dma.c ****   */
1553:STM32Cube_FW_N6/Drivers/STM32N6xx_HAL_Driver/Src/stm32n6xx_hal_dma.c **** HAL_StatusTypeDef HAL_DMA_SetIsolationAttributes(DMA_HandleTypeDef *const hdma,
1554:STM32Cube_FW_N6/Drivers/STM32N6xx_HAL_Driver/Src/stm32n6xx_hal_dma.c ****                                                  DMA_IsolationConfigTypeDef const *const pConfig)
1555:STM32Cube_FW_N6/Drivers/STM32N6xx_HAL_Driver/Src/stm32n6xx_hal_dma.c **** {
ARM GAS  C:\Users\DJESSOU\AppData\Local\Temp\ccEz5zGK.s 			page 46


1556:STM32Cube_FW_N6/Drivers/STM32N6xx_HAL_Driver/Src/stm32n6xx_hal_dma.c ****   /* Check the DMA peripheral handle parameter */
1557:STM32Cube_FW_N6/Drivers/STM32N6xx_HAL_Driver/Src/stm32n6xx_hal_dma.c ****   if ((hdma == NULL) || (pConfig == NULL))
1558:STM32Cube_FW_N6/Drivers/STM32N6xx_HAL_Driver/Src/stm32n6xx_hal_dma.c ****   {
1559:STM32Cube_FW_N6/Drivers/STM32N6xx_HAL_Driver/Src/stm32n6xx_hal_dma.c ****     return HAL_ERROR;
1560:STM32Cube_FW_N6/Drivers/STM32N6xx_HAL_Driver/Src/stm32n6xx_hal_dma.c ****   }
1561:STM32Cube_FW_N6/Drivers/STM32N6xx_HAL_Driver/Src/stm32n6xx_hal_dma.c **** 
1562:STM32Cube_FW_N6/Drivers/STM32N6xx_HAL_Driver/Src/stm32n6xx_hal_dma.c ****   /* Check the parameters */
1563:STM32Cube_FW_N6/Drivers/STM32N6xx_HAL_Driver/Src/stm32n6xx_hal_dma.c ****   assert_param(IS_HPDMA_INSTANCE(hdma->Instance));
1564:STM32Cube_FW_N6/Drivers/STM32N6xx_HAL_Driver/Src/stm32n6xx_hal_dma.c ****   assert_param(IS_DMA_ISOLATION_MODE(pConfig->CidFiltering));
1565:STM32Cube_FW_N6/Drivers/STM32N6xx_HAL_Driver/Src/stm32n6xx_hal_dma.c ****   assert_param(IS_DMA_ISOLATION_STATIC_CID(pConfig->StaticCid));
1566:STM32Cube_FW_N6/Drivers/STM32N6xx_HAL_Driver/Src/stm32n6xx_hal_dma.c **** 
1567:STM32Cube_FW_N6/Drivers/STM32N6xx_HAL_Driver/Src/stm32n6xx_hal_dma.c ****   /* static CID field value used when filtering is enable */
1568:STM32Cube_FW_N6/Drivers/STM32N6xx_HAL_Driver/Src/stm32n6xx_hal_dma.c ****   if ((pConfig->CidFiltering) == DMA_ISOLATION_ON)
1569:STM32Cube_FW_N6/Drivers/STM32N6xx_HAL_Driver/Src/stm32n6xx_hal_dma.c ****   {
1570:STM32Cube_FW_N6/Drivers/STM32N6xx_HAL_Driver/Src/stm32n6xx_hal_dma.c ****     /* Write static CID configuration */
1571:STM32Cube_FW_N6/Drivers/STM32N6xx_HAL_Driver/Src/stm32n6xx_hal_dma.c ****     hdma->Instance->CCIDCFGR = ((pConfig->StaticCid & DMA_CCIDCFGR_SCID_Msk) | DMA_CCIDCFGR_CFEN);
1572:STM32Cube_FW_N6/Drivers/STM32N6xx_HAL_Driver/Src/stm32n6xx_hal_dma.c ****   }
1573:STM32Cube_FW_N6/Drivers/STM32N6xx_HAL_Driver/Src/stm32n6xx_hal_dma.c ****   else
1574:STM32Cube_FW_N6/Drivers/STM32N6xx_HAL_Driver/Src/stm32n6xx_hal_dma.c ****   {
1575:STM32Cube_FW_N6/Drivers/STM32N6xx_HAL_Driver/Src/stm32n6xx_hal_dma.c ****     /* CID configuration is off */
1576:STM32Cube_FW_N6/Drivers/STM32N6xx_HAL_Driver/Src/stm32n6xx_hal_dma.c ****     hdma->Instance->CCIDCFGR = 0U;
1577:STM32Cube_FW_N6/Drivers/STM32N6xx_HAL_Driver/Src/stm32n6xx_hal_dma.c ****   }
1578:STM32Cube_FW_N6/Drivers/STM32N6xx_HAL_Driver/Src/stm32n6xx_hal_dma.c **** 
1579:STM32Cube_FW_N6/Drivers/STM32N6xx_HAL_Driver/Src/stm32n6xx_hal_dma.c ****   return HAL_OK;
1580:STM32Cube_FW_N6/Drivers/STM32N6xx_HAL_Driver/Src/stm32n6xx_hal_dma.c **** }
1581:STM32Cube_FW_N6/Drivers/STM32N6xx_HAL_Driver/Src/stm32n6xx_hal_dma.c **** #endif /* CPU_IN_SECURE_STATE */
1582:STM32Cube_FW_N6/Drivers/STM32N6xx_HAL_Driver/Src/stm32n6xx_hal_dma.c **** /**
1583:STM32Cube_FW_N6/Drivers/STM32N6xx_HAL_Driver/Src/stm32n6xx_hal_dma.c ****   * @brief  Read the DMA channel filtering CID (Isolation configuration). It can be
1584:STM32Cube_FW_N6/Drivers/STM32N6xx_HAL_Driver/Src/stm32n6xx_hal_dma.c ****   *             - static: the CID passed as parameter is programmed;
1585:STM32Cube_FW_N6/Drivers/STM32N6xx_HAL_Driver/Src/stm32n6xx_hal_dma.c ****   *             - disabled: the whole register is cleared.
1586:STM32Cube_FW_N6/Drivers/STM32N6xx_HAL_Driver/Src/stm32n6xx_hal_dma.c ****   * @param  hdma    : Pointer to a DMA_HandleTypeDef structure that contains the configuration info
1587:STM32Cube_FW_N6/Drivers/STM32N6xx_HAL_Driver/Src/stm32n6xx_hal_dma.c ****   *                of the HPDMA channel.
1588:STM32Cube_FW_N6/Drivers/STM32N6xx_HAL_Driver/Src/stm32n6xx_hal_dma.c ****   * @param  pConfig : Pointer on the DMA Isolation structure
1589:STM32Cube_FW_N6/Drivers/STM32N6xx_HAL_Driver/Src/stm32n6xx_hal_dma.c ****   * @retval None
1590:STM32Cube_FW_N6/Drivers/STM32N6xx_HAL_Driver/Src/stm32n6xx_hal_dma.c ****   */
1591:STM32Cube_FW_N6/Drivers/STM32N6xx_HAL_Driver/Src/stm32n6xx_hal_dma.c **** HAL_StatusTypeDef HAL_DMA_GetIsolationAttributes(DMA_HandleTypeDef const *const hdma,
1592:STM32Cube_FW_N6/Drivers/STM32N6xx_HAL_Driver/Src/stm32n6xx_hal_dma.c ****                                                  DMA_IsolationConfigTypeDef *const pConfig)
1593:STM32Cube_FW_N6/Drivers/STM32N6xx_HAL_Driver/Src/stm32n6xx_hal_dma.c **** {
1594:STM32Cube_FW_N6/Drivers/STM32N6xx_HAL_Driver/Src/stm32n6xx_hal_dma.c ****   uint32_t ccidcfgr;
1595:STM32Cube_FW_N6/Drivers/STM32N6xx_HAL_Driver/Src/stm32n6xx_hal_dma.c **** 
1596:STM32Cube_FW_N6/Drivers/STM32N6xx_HAL_Driver/Src/stm32n6xx_hal_dma.c ****   /* Check the DMA peripheral handle parameter */
1597:STM32Cube_FW_N6/Drivers/STM32N6xx_HAL_Driver/Src/stm32n6xx_hal_dma.c ****   if ((hdma == NULL) || (pConfig == NULL))
1598:STM32Cube_FW_N6/Drivers/STM32N6xx_HAL_Driver/Src/stm32n6xx_hal_dma.c ****   {
1599:STM32Cube_FW_N6/Drivers/STM32N6xx_HAL_Driver/Src/stm32n6xx_hal_dma.c ****     return HAL_ERROR;
1600:STM32Cube_FW_N6/Drivers/STM32N6xx_HAL_Driver/Src/stm32n6xx_hal_dma.c ****   }
1601:STM32Cube_FW_N6/Drivers/STM32N6xx_HAL_Driver/Src/stm32n6xx_hal_dma.c **** 
1602:STM32Cube_FW_N6/Drivers/STM32N6xx_HAL_Driver/Src/stm32n6xx_hal_dma.c ****   ccidcfgr = hdma->Instance->CCIDCFGR;
1603:STM32Cube_FW_N6/Drivers/STM32N6xx_HAL_Driver/Src/stm32n6xx_hal_dma.c **** 
1604:STM32Cube_FW_N6/Drivers/STM32N6xx_HAL_Driver/Src/stm32n6xx_hal_dma.c ****   /* Check the parameters */
1605:STM32Cube_FW_N6/Drivers/STM32N6xx_HAL_Driver/Src/stm32n6xx_hal_dma.c ****   assert_param(IS_HPDMA_INSTANCE(hdma->Instance));
1606:STM32Cube_FW_N6/Drivers/STM32N6xx_HAL_Driver/Src/stm32n6xx_hal_dma.c **** 
1607:STM32Cube_FW_N6/Drivers/STM32N6xx_HAL_Driver/Src/stm32n6xx_hal_dma.c ****   if ((ccidcfgr & DMA_CCIDCFGR_CFEN) == DMA_CCIDCFGR_CFEN)
1608:STM32Cube_FW_N6/Drivers/STM32N6xx_HAL_Driver/Src/stm32n6xx_hal_dma.c ****   {
1609:STM32Cube_FW_N6/Drivers/STM32N6xx_HAL_Driver/Src/stm32n6xx_hal_dma.c ****     pConfig->CidFiltering = DMA_ISOLATION_ON;
1610:STM32Cube_FW_N6/Drivers/STM32N6xx_HAL_Driver/Src/stm32n6xx_hal_dma.c ****   }
1611:STM32Cube_FW_N6/Drivers/STM32N6xx_HAL_Driver/Src/stm32n6xx_hal_dma.c ****   else
1612:STM32Cube_FW_N6/Drivers/STM32N6xx_HAL_Driver/Src/stm32n6xx_hal_dma.c ****   {
ARM GAS  C:\Users\DJESSOU\AppData\Local\Temp\ccEz5zGK.s 			page 47


1613:STM32Cube_FW_N6/Drivers/STM32N6xx_HAL_Driver/Src/stm32n6xx_hal_dma.c ****     pConfig->CidFiltering = DMA_ISOLATION_OFF;
1614:STM32Cube_FW_N6/Drivers/STM32N6xx_HAL_Driver/Src/stm32n6xx_hal_dma.c ****   }
1615:STM32Cube_FW_N6/Drivers/STM32N6xx_HAL_Driver/Src/stm32n6xx_hal_dma.c ****   pConfig->StaticCid = (ccidcfgr & DMA_CCIDCFGR_SCID_Msk);
1616:STM32Cube_FW_N6/Drivers/STM32N6xx_HAL_Driver/Src/stm32n6xx_hal_dma.c **** 
1617:STM32Cube_FW_N6/Drivers/STM32N6xx_HAL_Driver/Src/stm32n6xx_hal_dma.c ****   return HAL_OK;
1618:STM32Cube_FW_N6/Drivers/STM32N6xx_HAL_Driver/Src/stm32n6xx_hal_dma.c **** }
1619:STM32Cube_FW_N6/Drivers/STM32N6xx_HAL_Driver/Src/stm32n6xx_hal_dma.c **** 
1620:STM32Cube_FW_N6/Drivers/STM32N6xx_HAL_Driver/Src/stm32n6xx_hal_dma.c **** #if defined (CPU_IN_SECURE_STATE)
1621:STM32Cube_FW_N6/Drivers/STM32N6xx_HAL_Driver/Src/stm32n6xx_hal_dma.c **** /**
1622:STM32Cube_FW_N6/Drivers/STM32N6xx_HAL_Driver/Src/stm32n6xx_hal_dma.c ****   * @brief  Lock the DMA channel security and privilege attribute(s).
1623:STM32Cube_FW_N6/Drivers/STM32N6xx_HAL_Driver/Src/stm32n6xx_hal_dma.c ****   * @param  hdma : Pointer to a DMA_HandleTypeDef structure that contains the configuration informa
1624:STM32Cube_FW_N6/Drivers/STM32N6xx_HAL_Driver/Src/stm32n6xx_hal_dma.c ****   *                specified DMA Channel.
1625:STM32Cube_FW_N6/Drivers/STM32N6xx_HAL_Driver/Src/stm32n6xx_hal_dma.c ****   * @retval HAL Status.
1626:STM32Cube_FW_N6/Drivers/STM32N6xx_HAL_Driver/Src/stm32n6xx_hal_dma.c ****   */
1627:STM32Cube_FW_N6/Drivers/STM32N6xx_HAL_Driver/Src/stm32n6xx_hal_dma.c **** HAL_StatusTypeDef HAL_DMA_LockChannelAttributes(DMA_HandleTypeDef const *const hdma)
1628:STM32Cube_FW_N6/Drivers/STM32N6xx_HAL_Driver/Src/stm32n6xx_hal_dma.c **** {
1629:STM32Cube_FW_N6/Drivers/STM32N6xx_HAL_Driver/Src/stm32n6xx_hal_dma.c ****   DMA_TypeDef *p_dma_instance;
1630:STM32Cube_FW_N6/Drivers/STM32N6xx_HAL_Driver/Src/stm32n6xx_hal_dma.c ****   uint32_t channel_idx;
1631:STM32Cube_FW_N6/Drivers/STM32N6xx_HAL_Driver/Src/stm32n6xx_hal_dma.c **** 
1632:STM32Cube_FW_N6/Drivers/STM32N6xx_HAL_Driver/Src/stm32n6xx_hal_dma.c ****   /* Check the DMA peripheral handle parameter */
1633:STM32Cube_FW_N6/Drivers/STM32N6xx_HAL_Driver/Src/stm32n6xx_hal_dma.c ****   if (hdma == NULL)
1634:STM32Cube_FW_N6/Drivers/STM32N6xx_HAL_Driver/Src/stm32n6xx_hal_dma.c ****   {
1635:STM32Cube_FW_N6/Drivers/STM32N6xx_HAL_Driver/Src/stm32n6xx_hal_dma.c ****     return HAL_ERROR;
1636:STM32Cube_FW_N6/Drivers/STM32N6xx_HAL_Driver/Src/stm32n6xx_hal_dma.c ****   }
1637:STM32Cube_FW_N6/Drivers/STM32N6xx_HAL_Driver/Src/stm32n6xx_hal_dma.c **** 
1638:STM32Cube_FW_N6/Drivers/STM32N6xx_HAL_Driver/Src/stm32n6xx_hal_dma.c ****   /* Get DMA instance */
1639:STM32Cube_FW_N6/Drivers/STM32N6xx_HAL_Driver/Src/stm32n6xx_hal_dma.c ****   p_dma_instance = GET_DMA_INSTANCE(hdma);
1640:STM32Cube_FW_N6/Drivers/STM32N6xx_HAL_Driver/Src/stm32n6xx_hal_dma.c **** 
1641:STM32Cube_FW_N6/Drivers/STM32N6xx_HAL_Driver/Src/stm32n6xx_hal_dma.c ****   /* Get channel index */
1642:STM32Cube_FW_N6/Drivers/STM32N6xx_HAL_Driver/Src/stm32n6xx_hal_dma.c ****   channel_idx = 1UL << (GET_DMA_CHANNEL(hdma) & 0x1FU);
1643:STM32Cube_FW_N6/Drivers/STM32N6xx_HAL_Driver/Src/stm32n6xx_hal_dma.c **** 
1644:STM32Cube_FW_N6/Drivers/STM32N6xx_HAL_Driver/Src/stm32n6xx_hal_dma.c ****   /* Lock the DMA channel privilege and security attributes */
1645:STM32Cube_FW_N6/Drivers/STM32N6xx_HAL_Driver/Src/stm32n6xx_hal_dma.c ****   p_dma_instance->RCFGLOCKR |= channel_idx;
1646:STM32Cube_FW_N6/Drivers/STM32N6xx_HAL_Driver/Src/stm32n6xx_hal_dma.c **** 
1647:STM32Cube_FW_N6/Drivers/STM32N6xx_HAL_Driver/Src/stm32n6xx_hal_dma.c ****   return HAL_OK;
1648:STM32Cube_FW_N6/Drivers/STM32N6xx_HAL_Driver/Src/stm32n6xx_hal_dma.c **** }
1649:STM32Cube_FW_N6/Drivers/STM32N6xx_HAL_Driver/Src/stm32n6xx_hal_dma.c **** #endif /* CPU_IN_SECURE_STATE */
1650:STM32Cube_FW_N6/Drivers/STM32N6xx_HAL_Driver/Src/stm32n6xx_hal_dma.c **** 
1651:STM32Cube_FW_N6/Drivers/STM32N6xx_HAL_Driver/Src/stm32n6xx_hal_dma.c **** /**
1652:STM32Cube_FW_N6/Drivers/STM32N6xx_HAL_Driver/Src/stm32n6xx_hal_dma.c ****   * @brief  Get the security and privilege attribute lock state of a DMA channel.
1653:STM32Cube_FW_N6/Drivers/STM32N6xx_HAL_Driver/Src/stm32n6xx_hal_dma.c ****   * @param  hdma       : Pointer to a DMA_HandleTypeDef structure that contains the configuration i
1654:STM32Cube_FW_N6/Drivers/STM32N6xx_HAL_Driver/Src/stm32n6xx_hal_dma.c ****   *                      specified DMA Channel.
1655:STM32Cube_FW_N6/Drivers/STM32N6xx_HAL_Driver/Src/stm32n6xx_hal_dma.c ****   * @param  pLockState : Pointer to lock state (returned value can be DMA_CHANNEL_ATTRIBUTE_UNLOCKE
1656:STM32Cube_FW_N6/Drivers/STM32N6xx_HAL_Driver/Src/stm32n6xx_hal_dma.c ****   *                      DMA_CHANNEL_ATTRIBUTE_LOCKED).
1657:STM32Cube_FW_N6/Drivers/STM32N6xx_HAL_Driver/Src/stm32n6xx_hal_dma.c ****   * @retval HAL status.
1658:STM32Cube_FW_N6/Drivers/STM32N6xx_HAL_Driver/Src/stm32n6xx_hal_dma.c ****   */
1659:STM32Cube_FW_N6/Drivers/STM32N6xx_HAL_Driver/Src/stm32n6xx_hal_dma.c **** HAL_StatusTypeDef HAL_DMA_GetLockChannelAttributes(DMA_HandleTypeDef const *const hdma, uint32_t *c
1660:STM32Cube_FW_N6/Drivers/STM32N6xx_HAL_Driver/Src/stm32n6xx_hal_dma.c **** {
1661:STM32Cube_FW_N6/Drivers/STM32N6xx_HAL_Driver/Src/stm32n6xx_hal_dma.c ****   const DMA_TypeDef *p_dma_instance;
1662:STM32Cube_FW_N6/Drivers/STM32N6xx_HAL_Driver/Src/stm32n6xx_hal_dma.c ****   uint32_t channel_idx;
1663:STM32Cube_FW_N6/Drivers/STM32N6xx_HAL_Driver/Src/stm32n6xx_hal_dma.c **** 
1664:STM32Cube_FW_N6/Drivers/STM32N6xx_HAL_Driver/Src/stm32n6xx_hal_dma.c ****   /* Check the DMA peripheral handle and lock state parameters */
1665:STM32Cube_FW_N6/Drivers/STM32N6xx_HAL_Driver/Src/stm32n6xx_hal_dma.c ****   if ((hdma == NULL) || (pLockState == NULL))
1666:STM32Cube_FW_N6/Drivers/STM32N6xx_HAL_Driver/Src/stm32n6xx_hal_dma.c ****   {
1667:STM32Cube_FW_N6/Drivers/STM32N6xx_HAL_Driver/Src/stm32n6xx_hal_dma.c ****     return HAL_ERROR;
1668:STM32Cube_FW_N6/Drivers/STM32N6xx_HAL_Driver/Src/stm32n6xx_hal_dma.c ****   }
1669:STM32Cube_FW_N6/Drivers/STM32N6xx_HAL_Driver/Src/stm32n6xx_hal_dma.c **** 
ARM GAS  C:\Users\DJESSOU\AppData\Local\Temp\ccEz5zGK.s 			page 48


1670:STM32Cube_FW_N6/Drivers/STM32N6xx_HAL_Driver/Src/stm32n6xx_hal_dma.c ****   /* Get DMA instance */
1671:STM32Cube_FW_N6/Drivers/STM32N6xx_HAL_Driver/Src/stm32n6xx_hal_dma.c ****   p_dma_instance = GET_DMA_INSTANCE(hdma);
1672:STM32Cube_FW_N6/Drivers/STM32N6xx_HAL_Driver/Src/stm32n6xx_hal_dma.c **** 
1673:STM32Cube_FW_N6/Drivers/STM32N6xx_HAL_Driver/Src/stm32n6xx_hal_dma.c ****   /* Get channel index */
1674:STM32Cube_FW_N6/Drivers/STM32N6xx_HAL_Driver/Src/stm32n6xx_hal_dma.c ****   channel_idx = 1UL << (GET_DMA_CHANNEL(hdma) & 0x1FU);
1675:STM32Cube_FW_N6/Drivers/STM32N6xx_HAL_Driver/Src/stm32n6xx_hal_dma.c **** 
1676:STM32Cube_FW_N6/Drivers/STM32N6xx_HAL_Driver/Src/stm32n6xx_hal_dma.c ****   /* Get channel lock attribute state */
1677:STM32Cube_FW_N6/Drivers/STM32N6xx_HAL_Driver/Src/stm32n6xx_hal_dma.c ****   *pLockState = ((p_dma_instance->RCFGLOCKR & channel_idx) == 0U) ? DMA_CHANNEL_ATTRIBUTE_UNLOCKED 
1678:STM32Cube_FW_N6/Drivers/STM32N6xx_HAL_Driver/Src/stm32n6xx_hal_dma.c ****                 DMA_CHANNEL_ATTRIBUTE_LOCKED;
1679:STM32Cube_FW_N6/Drivers/STM32N6xx_HAL_Driver/Src/stm32n6xx_hal_dma.c **** 
1680:STM32Cube_FW_N6/Drivers/STM32N6xx_HAL_Driver/Src/stm32n6xx_hal_dma.c ****   return HAL_OK;
1681:STM32Cube_FW_N6/Drivers/STM32N6xx_HAL_Driver/Src/stm32n6xx_hal_dma.c **** }
1682:STM32Cube_FW_N6/Drivers/STM32N6xx_HAL_Driver/Src/stm32n6xx_hal_dma.c **** /**
1683:STM32Cube_FW_N6/Drivers/STM32N6xx_HAL_Driver/Src/stm32n6xx_hal_dma.c ****   * @}
1684:STM32Cube_FW_N6/Drivers/STM32N6xx_HAL_Driver/Src/stm32n6xx_hal_dma.c ****   */
1685:STM32Cube_FW_N6/Drivers/STM32N6xx_HAL_Driver/Src/stm32n6xx_hal_dma.c **** 
1686:STM32Cube_FW_N6/Drivers/STM32N6xx_HAL_Driver/Src/stm32n6xx_hal_dma.c **** /**
1687:STM32Cube_FW_N6/Drivers/STM32N6xx_HAL_Driver/Src/stm32n6xx_hal_dma.c ****   * @}
1688:STM32Cube_FW_N6/Drivers/STM32N6xx_HAL_Driver/Src/stm32n6xx_hal_dma.c ****   */
1689:STM32Cube_FW_N6/Drivers/STM32N6xx_HAL_Driver/Src/stm32n6xx_hal_dma.c **** 
1690:STM32Cube_FW_N6/Drivers/STM32N6xx_HAL_Driver/Src/stm32n6xx_hal_dma.c **** 
1691:STM32Cube_FW_N6/Drivers/STM32N6xx_HAL_Driver/Src/stm32n6xx_hal_dma.c **** /* Private functions ------------------------------------------------------------------------------
1692:STM32Cube_FW_N6/Drivers/STM32N6xx_HAL_Driver/Src/stm32n6xx_hal_dma.c **** /** @defgroup DMA_Private_Functions DMA Private Functions
1693:STM32Cube_FW_N6/Drivers/STM32N6xx_HAL_Driver/Src/stm32n6xx_hal_dma.c ****   * @brief    DMA Private Functions
1694:STM32Cube_FW_N6/Drivers/STM32N6xx_HAL_Driver/Src/stm32n6xx_hal_dma.c ****   * @{
1695:STM32Cube_FW_N6/Drivers/STM32N6xx_HAL_Driver/Src/stm32n6xx_hal_dma.c ****   */
1696:STM32Cube_FW_N6/Drivers/STM32N6xx_HAL_Driver/Src/stm32n6xx_hal_dma.c **** 
1697:STM32Cube_FW_N6/Drivers/STM32N6xx_HAL_Driver/Src/stm32n6xx_hal_dma.c **** /**
1698:STM32Cube_FW_N6/Drivers/STM32N6xx_HAL_Driver/Src/stm32n6xx_hal_dma.c ****   * @brief  Set the DMA channel normal transfer parameters.
1699:STM32Cube_FW_N6/Drivers/STM32N6xx_HAL_Driver/Src/stm32n6xx_hal_dma.c ****   * @param  hdma        : Pointer to a DMA_HandleTypeDef structure that contains the configuration 
1700:STM32Cube_FW_N6/Drivers/STM32N6xx_HAL_Driver/Src/stm32n6xx_hal_dma.c ****   *                       specified DMA Channel.
1701:STM32Cube_FW_N6/Drivers/STM32N6xx_HAL_Driver/Src/stm32n6xx_hal_dma.c ****   * @param  SrcAddress  : The source data address.
1702:STM32Cube_FW_N6/Drivers/STM32N6xx_HAL_Driver/Src/stm32n6xx_hal_dma.c ****   * @param  DstAddress  : The destination data address.
1703:STM32Cube_FW_N6/Drivers/STM32N6xx_HAL_Driver/Src/stm32n6xx_hal_dma.c ****   * @param  SrcDataSize : The length of data to be transferred from source to destination in bytes.
1704:STM32Cube_FW_N6/Drivers/STM32N6xx_HAL_Driver/Src/stm32n6xx_hal_dma.c ****   * @retval None.
1705:STM32Cube_FW_N6/Drivers/STM32N6xx_HAL_Driver/Src/stm32n6xx_hal_dma.c ****   */
1706:STM32Cube_FW_N6/Drivers/STM32N6xx_HAL_Driver/Src/stm32n6xx_hal_dma.c **** static void DMA_SetConfig(DMA_HandleTypeDef const *const hdma,
1707:STM32Cube_FW_N6/Drivers/STM32N6xx_HAL_Driver/Src/stm32n6xx_hal_dma.c ****                           uint32_t SrcAddress,
1708:STM32Cube_FW_N6/Drivers/STM32N6xx_HAL_Driver/Src/stm32n6xx_hal_dma.c ****                           uint32_t DstAddress,
1709:STM32Cube_FW_N6/Drivers/STM32N6xx_HAL_Driver/Src/stm32n6xx_hal_dma.c ****                           uint32_t SrcDataSize)
1710:STM32Cube_FW_N6/Drivers/STM32N6xx_HAL_Driver/Src/stm32n6xx_hal_dma.c **** {
1711:STM32Cube_FW_N6/Drivers/STM32N6xx_HAL_Driver/Src/stm32n6xx_hal_dma.c ****   /* Configure the DMA channel data size */
1712:STM32Cube_FW_N6/Drivers/STM32N6xx_HAL_Driver/Src/stm32n6xx_hal_dma.c ****   MODIFY_REG(hdma->Instance->CBR1, DMA_CBR1_BNDT, (SrcDataSize & DMA_CBR1_BNDT));
1713:STM32Cube_FW_N6/Drivers/STM32N6xx_HAL_Driver/Src/stm32n6xx_hal_dma.c **** 
1714:STM32Cube_FW_N6/Drivers/STM32N6xx_HAL_Driver/Src/stm32n6xx_hal_dma.c ****   /* Clear all interrupt flags */
1715:STM32Cube_FW_N6/Drivers/STM32N6xx_HAL_Driver/Src/stm32n6xx_hal_dma.c ****   __HAL_DMA_CLEAR_FLAG(hdma, DMA_FLAG_TC | DMA_FLAG_HT | DMA_FLAG_DTE | DMA_FLAG_ULE | DMA_FLAG_USE
1716:STM32Cube_FW_N6/Drivers/STM32N6xx_HAL_Driver/Src/stm32n6xx_hal_dma.c ****                        DMA_FLAG_TO);
1717:STM32Cube_FW_N6/Drivers/STM32N6xx_HAL_Driver/Src/stm32n6xx_hal_dma.c **** 
1718:STM32Cube_FW_N6/Drivers/STM32N6xx_HAL_Driver/Src/stm32n6xx_hal_dma.c ****   /* Configure DMA channel source address */
1719:STM32Cube_FW_N6/Drivers/STM32N6xx_HAL_Driver/Src/stm32n6xx_hal_dma.c ****   hdma->Instance->CSAR = SrcAddress;
1720:STM32Cube_FW_N6/Drivers/STM32N6xx_HAL_Driver/Src/stm32n6xx_hal_dma.c **** 
1721:STM32Cube_FW_N6/Drivers/STM32N6xx_HAL_Driver/Src/stm32n6xx_hal_dma.c ****   /* Configure DMA channel destination address */
1722:STM32Cube_FW_N6/Drivers/STM32N6xx_HAL_Driver/Src/stm32n6xx_hal_dma.c ****   hdma->Instance->CDAR = DstAddress;
1723:STM32Cube_FW_N6/Drivers/STM32N6xx_HAL_Driver/Src/stm32n6xx_hal_dma.c **** }
1724:STM32Cube_FW_N6/Drivers/STM32N6xx_HAL_Driver/Src/stm32n6xx_hal_dma.c **** 
1725:STM32Cube_FW_N6/Drivers/STM32N6xx_HAL_Driver/Src/stm32n6xx_hal_dma.c **** /**
1726:STM32Cube_FW_N6/Drivers/STM32N6xx_HAL_Driver/Src/stm32n6xx_hal_dma.c ****   * @brief  Initialize the DMA channel in normal mode according to the specified parameters in the 
ARM GAS  C:\Users\DJESSOU\AppData\Local\Temp\ccEz5zGK.s 			page 49


1727:STM32Cube_FW_N6/Drivers/STM32N6xx_HAL_Driver/Src/stm32n6xx_hal_dma.c ****   * @param  hdma : pointer to a DMA_HandleTypeDef structure that contains the configuration informa
1728:STM32Cube_FW_N6/Drivers/STM32N6xx_HAL_Driver/Src/stm32n6xx_hal_dma.c ****   *                specified DMA Channel.
1729:STM32Cube_FW_N6/Drivers/STM32N6xx_HAL_Driver/Src/stm32n6xx_hal_dma.c ****   * @retval None.
1730:STM32Cube_FW_N6/Drivers/STM32N6xx_HAL_Driver/Src/stm32n6xx_hal_dma.c ****   */
1731:STM32Cube_FW_N6/Drivers/STM32N6xx_HAL_Driver/Src/stm32n6xx_hal_dma.c **** static void DMA_Init(DMA_HandleTypeDef const *const hdma)
 1000              		.loc 1 1731 13 view .LVU226
 1001              	.LBB5:
1732:STM32Cube_FW_N6/Drivers/STM32N6xx_HAL_Driver/Src/stm32n6xx_hal_dma.c **** {
1733:STM32Cube_FW_N6/Drivers/STM32N6xx_HAL_Driver/Src/stm32n6xx_hal_dma.c ****   uint32_t tmpreg;
 1002              		.loc 1 1733 3 view .LVU227
1734:STM32Cube_FW_N6/Drivers/STM32N6xx_HAL_Driver/Src/stm32n6xx_hal_dma.c **** 
1735:STM32Cube_FW_N6/Drivers/STM32N6xx_HAL_Driver/Src/stm32n6xx_hal_dma.c ****   /* Prepare DMA Channel Control Register (CCR) value *********************************************
1736:STM32Cube_FW_N6/Drivers/STM32N6xx_HAL_Driver/Src/stm32n6xx_hal_dma.c ****   tmpreg = hdma->Init.Priority;
 1003              		.loc 1 1736 3 view .LVU228
1737:STM32Cube_FW_N6/Drivers/STM32N6xx_HAL_Driver/Src/stm32n6xx_hal_dma.c **** 
1738:STM32Cube_FW_N6/Drivers/STM32N6xx_HAL_Driver/Src/stm32n6xx_hal_dma.c ****   /* Write DMA Channel Control Register (CCR) */
1739:STM32Cube_FW_N6/Drivers/STM32N6xx_HAL_Driver/Src/stm32n6xx_hal_dma.c ****   MODIFY_REG(hdma->Instance->CCR, DMA_CCR_PRIO | DMA_CCR_LAP | DMA_CCR_LSM, tmpreg);
 1004              		.loc 1 1739 3 view .LVU229
 1005 0788 5A69     		ldr	r2, [r3, #20]
 1006 078a 216A     		ldr	r1, [r4, #32]
 1007 078c 22F44302 		bic	r2, r2, #12779520
 1008 0790 0A43     		orrs	r2, r2, r1
 1009 0792 5A61     		str	r2, [r3, #20]
1740:STM32Cube_FW_N6/Drivers/STM32N6xx_HAL_Driver/Src/stm32n6xx_hal_dma.c **** 
1741:STM32Cube_FW_N6/Drivers/STM32N6xx_HAL_Driver/Src/stm32n6xx_hal_dma.c ****   /* Prepare DMA Channel Transfer Register (CTR1) value *******************************************
1742:STM32Cube_FW_N6/Drivers/STM32N6xx_HAL_Driver/Src/stm32n6xx_hal_dma.c ****   tmpreg = hdma->Init.DestInc | hdma->Init.DestDataWidth | hdma->Init.SrcInc | hdma->Init.SrcDataWi
 1010              		.loc 1 1742 3 view .LVU230
 1011              		.loc 1 1742 31 is_stmt 0 view .LVU231
 1012 0794 E169     		ldr	r1, [r4, #28]
 1013 0796 6269     		ldr	r2, [r4, #20]
1743:STM32Cube_FW_N6/Drivers/STM32N6xx_HAL_Driver/Src/stm32n6xx_hal_dma.c **** 
1744:STM32Cube_FW_N6/Drivers/STM32N6xx_HAL_Driver/Src/stm32n6xx_hal_dma.c ****   /* Add parameters specific to HPDMA and GPDMA */
1745:STM32Cube_FW_N6/Drivers/STM32N6xx_HAL_Driver/Src/stm32n6xx_hal_dma.c ****   if ((IS_HPDMA_INSTANCE(hdma->Instance) != 0U) || (IS_GPDMA_INSTANCE(hdma->Instance) != 0U))
 1014              		.loc 1 1745 8 view .LVU232
 1015 0798 AB42     		cmp	r3, r5
1742:STM32Cube_FW_N6/Drivers/STM32N6xx_HAL_Driver/Src/stm32n6xx_hal_dma.c **** 
 1016              		.loc 1 1742 31 view .LVU233
 1017 079a 42EA0102 		orr	r2, r2, r1
1742:STM32Cube_FW_N6/Drivers/STM32N6xx_HAL_Driver/Src/stm32n6xx_hal_dma.c **** 
 1018              		.loc 1 1742 58 view .LVU234
 1019 079e 2169     		ldr	r1, [r4, #16]
 1020 07a0 42EA0102 		orr	r2, r2, r1
1742:STM32Cube_FW_N6/Drivers/STM32N6xx_HAL_Driver/Src/stm32n6xx_hal_dma.c **** 
 1021              		.loc 1 1742 10 view .LVU235
 1022 07a4 A169     		ldr	r1, [r4, #24]
 1023 07a6 42EA0102 		orr	r2, r2, r1
 1024              	.LVL16:
 1025              		.loc 1 1745 3 is_stmt 1 view .LVU236
 1026              		.loc 1 1745 8 is_stmt 0 view .LVU237
 1027 07aa 00F03C81 		beq	.L37
 1028              		.loc 1 1745 8 discriminator 2 view .LVU238
 1029 07ae C449     		ldr	r1, .L75
 1030 07b0 8B42     		cmp	r3, r1
 1031 07b2 00F03881 		beq	.L37
 1032              		.loc 1 1745 8 discriminator 4 view .LVU239
 1033 07b6 01F18051 		add	r1, r1, #268435456
 1034 07ba 8031     		adds	r1, r1, #128
ARM GAS  C:\Users\DJESSOU\AppData\Local\Temp\ccEz5zGK.s 			page 50


 1035 07bc 8B42     		cmp	r3, r1
 1036 07be 00F03281 		beq	.L37
 1037              		.loc 1 1745 8 discriminator 6 view .LVU240
 1038 07c2 01F17041 		add	r1, r1, #-268435456
 1039 07c6 8B42     		cmp	r3, r1
 1040 07c8 00F02D81 		beq	.L37
 1041              		.loc 1 1745 8 discriminator 8 view .LVU241
 1042 07cc 01F18051 		add	r1, r1, #268435456
 1043 07d0 8031     		adds	r1, r1, #128
 1044 07d2 8B42     		cmp	r3, r1
 1045 07d4 00F02781 		beq	.L37
 1046              		.loc 1 1745 8 discriminator 10 view .LVU242
 1047 07d8 01F17041 		add	r1, r1, #-268435456
 1048 07dc 8B42     		cmp	r3, r1
 1049 07de 00F02281 		beq	.L37
 1050              		.loc 1 1745 8 discriminator 12 view .LVU243
 1051 07e2 01F18051 		add	r1, r1, #268435456
 1052 07e6 8031     		adds	r1, r1, #128
 1053 07e8 8B42     		cmp	r3, r1
 1054 07ea 00F01C81 		beq	.L37
 1055              		.loc 1 1745 8 discriminator 14 view .LVU244
 1056 07ee 01F17041 		add	r1, r1, #-268435456
 1057 07f2 8B42     		cmp	r3, r1
 1058 07f4 00F01781 		beq	.L37
 1059              		.loc 1 1745 8 discriminator 16 view .LVU245
 1060 07f8 01F18051 		add	r1, r1, #268435456
 1061 07fc 8031     		adds	r1, r1, #128
 1062 07fe 8B42     		cmp	r3, r1
 1063 0800 00F01181 		beq	.L37
 1064              		.loc 1 1745 8 discriminator 18 view .LVU246
 1065 0804 01F17041 		add	r1, r1, #-268435456
 1066 0808 8B42     		cmp	r3, r1
 1067 080a 00F00C81 		beq	.L37
 1068              		.loc 1 1745 8 discriminator 20 view .LVU247
 1069 080e 01F18051 		add	r1, r1, #268435456
 1070 0812 8031     		adds	r1, r1, #128
 1071 0814 8B42     		cmp	r3, r1
 1072 0816 00F00681 		beq	.L37
 1073              		.loc 1 1745 8 discriminator 22 view .LVU248
 1074 081a 01F17041 		add	r1, r1, #-268435456
 1075 081e 8B42     		cmp	r3, r1
 1076 0820 00F00181 		beq	.L37
 1077              		.loc 1 1745 8 discriminator 24 view .LVU249
 1078 0824 01F18051 		add	r1, r1, #268435456
 1079 0828 8031     		adds	r1, r1, #128
 1080 082a 8B42     		cmp	r3, r1
 1081 082c 00F0FB80 		beq	.L37
 1082              		.loc 1 1745 8 discriminator 26 view .LVU250
 1083 0830 01F17041 		add	r1, r1, #-268435456
 1084 0834 8B42     		cmp	r3, r1
 1085 0836 00F0F680 		beq	.L37
 1086              		.loc 1 1745 8 discriminator 28 view .LVU251
 1087 083a 01F18051 		add	r1, r1, #268435456
 1088 083e 8031     		adds	r1, r1, #128
 1089 0840 8B42     		cmp	r3, r1
 1090 0842 00F0F080 		beq	.L37
 1091              		.loc 1 1745 8 discriminator 30 view .LVU252
ARM GAS  C:\Users\DJESSOU\AppData\Local\Temp\ccEz5zGK.s 			page 51


 1092 0846 01F17041 		add	r1, r1, #-268435456
 1093 084a 8B42     		cmp	r3, r1
 1094 084c 00F0EB80 		beq	.L37
 1095              		.loc 1 1745 8 discriminator 32 view .LVU253
 1096 0850 01F18051 		add	r1, r1, #268435456
 1097 0854 8031     		adds	r1, r1, #128
 1098 0856 8B42     		cmp	r3, r1
 1099 0858 00F0E580 		beq	.L37
 1100              		.loc 1 1745 8 discriminator 34 view .LVU254
 1101 085c 01F17041 		add	r1, r1, #-268435456
 1102 0860 8B42     		cmp	r3, r1
 1103 0862 00F0E080 		beq	.L37
 1104              		.loc 1 1745 8 discriminator 36 view .LVU255
 1105 0866 01F18051 		add	r1, r1, #268435456
 1106 086a 8031     		adds	r1, r1, #128
 1107 086c 8B42     		cmp	r3, r1
 1108 086e 00F0DA80 		beq	.L37
 1109              		.loc 1 1745 8 discriminator 38 view .LVU256
 1110 0872 01F17041 		add	r1, r1, #-268435456
 1111 0876 8B42     		cmp	r3, r1
 1112 0878 00F0D580 		beq	.L37
 1113              		.loc 1 1745 8 discriminator 40 view .LVU257
 1114 087c 01F18051 		add	r1, r1, #268435456
 1115 0880 8031     		adds	r1, r1, #128
 1116 0882 8B42     		cmp	r3, r1
 1117 0884 00F0CF80 		beq	.L37
 1118              		.loc 1 1745 8 discriminator 42 view .LVU258
 1119 0888 01F17041 		add	r1, r1, #-268435456
 1120 088c 8B42     		cmp	r3, r1
 1121 088e 00F0CA80 		beq	.L37
 1122              		.loc 1 1745 8 discriminator 44 view .LVU259
 1123 0892 01F18051 		add	r1, r1, #268435456
 1124 0896 8031     		adds	r1, r1, #128
 1125 0898 8B42     		cmp	r3, r1
 1126 089a 00F0C480 		beq	.L37
 1127              		.loc 1 1745 8 discriminator 46 view .LVU260
 1128 089e 01F17041 		add	r1, r1, #-268435456
 1129 08a2 8B42     		cmp	r3, r1
 1130 08a4 00F0BF80 		beq	.L37
 1131              		.loc 1 1745 8 discriminator 48 view .LVU261
 1132 08a8 01F18051 		add	r1, r1, #268435456
 1133 08ac 8031     		adds	r1, r1, #128
 1134 08ae 8B42     		cmp	r3, r1
 1135 08b0 00F0B980 		beq	.L37
 1136              		.loc 1 1745 8 discriminator 50 view .LVU262
 1137 08b4 01F17041 		add	r1, r1, #-268435456
 1138 08b8 8B42     		cmp	r3, r1
 1139 08ba 00F0B480 		beq	.L37
 1140              		.loc 1 1745 8 discriminator 52 view .LVU263
 1141 08be 01F18051 		add	r1, r1, #268435456
 1142 08c2 8031     		adds	r1, r1, #128
 1143 08c4 8B42     		cmp	r3, r1
 1144 08c6 00F0AE80 		beq	.L37
 1145              		.loc 1 1745 8 discriminator 54 view .LVU264
 1146 08ca 01F17041 		add	r1, r1, #-268435456
 1147 08ce 8B42     		cmp	r3, r1
 1148 08d0 00F0A980 		beq	.L37
ARM GAS  C:\Users\DJESSOU\AppData\Local\Temp\ccEz5zGK.s 			page 52


 1149              		.loc 1 1745 8 discriminator 56 view .LVU265
 1150 08d4 01F18051 		add	r1, r1, #268435456
 1151 08d8 8031     		adds	r1, r1, #128
 1152 08da 8B42     		cmp	r3, r1
 1153 08dc 00F0A380 		beq	.L37
 1154              		.loc 1 1745 8 discriminator 58 view .LVU266
 1155 08e0 01F17041 		add	r1, r1, #-268435456
 1156 08e4 8B42     		cmp	r3, r1
 1157 08e6 00F09E80 		beq	.L37
 1158              		.loc 1 1745 8 discriminator 60 view .LVU267
 1159 08ea 01F18051 		add	r1, r1, #268435456
 1160 08ee 8031     		adds	r1, r1, #128
 1161 08f0 8B42     		cmp	r3, r1
 1162 08f2 00F09880 		beq	.L37
 1163              		.loc 1 1745 8 discriminator 62 view .LVU268
 1164 08f6 01F17041 		add	r1, r1, #-268435456
 1165 08fa 8B42     		cmp	r3, r1
 1166 08fc 00F09380 		beq	.L37
 1167              		.loc 1 1745 53 discriminator 67 view .LVU269
 1168 0900 01F10821 		add	r1, r1, #134219776
 1169 0904 8031     		adds	r1, r1, #128
 1170 0906 8B42     		cmp	r3, r1
 1171 0908 00F08D80 		beq	.L37
 1172              		.loc 1 1745 53 discriminator 69 view .LVU270
 1173 090c 01F17041 		add	r1, r1, #-268435456
 1174 0910 8B42     		cmp	r3, r1
 1175 0912 00F08880 		beq	.L37
 1176              		.loc 1 1745 53 discriminator 71 view .LVU271
 1177 0916 01F18051 		add	r1, r1, #268435456
 1178 091a 8031     		adds	r1, r1, #128
 1179 091c 8B42     		cmp	r3, r1
 1180 091e 00F08280 		beq	.L37
 1181              		.loc 1 1745 53 discriminator 73 view .LVU272
 1182 0922 01F17041 		add	r1, r1, #-268435456
 1183 0926 8B42     		cmp	r3, r1
 1184 0928 7DD0     		beq	.L37
 1185              		.loc 1 1745 53 discriminator 75 view .LVU273
 1186 092a 01F18051 		add	r1, r1, #268435456
 1187 092e 8031     		adds	r1, r1, #128
 1188 0930 8B42     		cmp	r3, r1
 1189 0932 78D0     		beq	.L37
 1190              		.loc 1 1745 53 discriminator 77 view .LVU274
 1191 0934 01F17041 		add	r1, r1, #-268435456
 1192 0938 8B42     		cmp	r3, r1
 1193 093a 74D0     		beq	.L37
 1194              		.loc 1 1745 53 discriminator 79 view .LVU275
 1195 093c 01F18051 		add	r1, r1, #268435456
 1196 0940 8031     		adds	r1, r1, #128
 1197 0942 8B42     		cmp	r3, r1
 1198 0944 6FD0     		beq	.L37
 1199              		.loc 1 1745 53 discriminator 81 view .LVU276
 1200 0946 01F17041 		add	r1, r1, #-268435456
 1201 094a 8B42     		cmp	r3, r1
 1202 094c 6BD0     		beq	.L37
 1203              		.loc 1 1745 53 discriminator 83 view .LVU277
 1204 094e 01F18051 		add	r1, r1, #268435456
 1205 0952 8031     		adds	r1, r1, #128
ARM GAS  C:\Users\DJESSOU\AppData\Local\Temp\ccEz5zGK.s 			page 53


