ARM GAS  C:\Users\DJESSOU\AppData\Local\Temp\ccR55SEh.s 			page 1


   1              		.arch armv8.1-m.main
   2              		.fpu fpv5-d16
   3              		.arch_extension dsp
   4              		.arch_extension fp
   5              		.arch_extension fp.dp
   6              		.arch_extension mve
   7              		.arch_extension mve.fp
   8              		.eabi_attribute 5, "cortex-m55"
   9              		.eabi_attribute 28, 1
  10              		.eabi_attribute 20, 1
  11              		.eabi_attribute 21, 1
  12              		.eabi_attribute 23, 3
  13              		.eabi_attribute 24, 1
  14              		.eabi_attribute 25, 1
  15              		.eabi_attribute 26, 1
  16              		.eabi_attribute 30, 4
  17              		.eabi_attribute 34, 1
  18              		.eabi_attribute 38, 1
  19              		.eabi_attribute 18, 4
  20              		.file	"stm32_lcd.c"
  21              		.text
  22              	.Ltext0:
  23              		.cfi_sections	.debug_frame
  24              		.file 1 "STM32Cube_FW_N6/Utilities/lcd/stm32_lcd.c"
  25              		.section	.text.UTIL_LCD_SetFuncDriver,"ax",%progbits
  26              		.align	1
  27              		.global	UTIL_LCD_SetFuncDriver
  28              		.syntax unified
  29              		.thumb
  30              		.thumb_func
  32              	UTIL_LCD_SetFuncDriver:
  33              	.LVL0:
  34              	.LFB0:
   1:STM32Cube_FW_N6/Utilities/lcd/stm32_lcd.c **** /**
   2:STM32Cube_FW_N6/Utilities/lcd/stm32_lcd.c ****   ******************************************************************************
   3:STM32Cube_FW_N6/Utilities/lcd/stm32_lcd.c ****   * @file    stm32_lcd.c
   4:STM32Cube_FW_N6/Utilities/lcd/stm32_lcd.c ****   * @author  MCD Application Team
   5:STM32Cube_FW_N6/Utilities/lcd/stm32_lcd.c ****   * @brief   This file includes the basic functionalities to drive LCD
   6:STM32Cube_FW_N6/Utilities/lcd/stm32_lcd.c ****   ******************************************************************************
   7:STM32Cube_FW_N6/Utilities/lcd/stm32_lcd.c ****   * @attention
   8:STM32Cube_FW_N6/Utilities/lcd/stm32_lcd.c ****   *
   9:STM32Cube_FW_N6/Utilities/lcd/stm32_lcd.c ****   * Copyright (c) 2019-2024 STMicroelectronics.
  10:STM32Cube_FW_N6/Utilities/lcd/stm32_lcd.c ****   * All rights reserved.
  11:STM32Cube_FW_N6/Utilities/lcd/stm32_lcd.c ****   *
  12:STM32Cube_FW_N6/Utilities/lcd/stm32_lcd.c ****   * This software is licensed under terms that can be found in the LICENSE file
  13:STM32Cube_FW_N6/Utilities/lcd/stm32_lcd.c ****   * in the root directory of this software component.
  14:STM32Cube_FW_N6/Utilities/lcd/stm32_lcd.c ****   * If no LICENSE file comes with this software, it is provided AS-IS.
  15:STM32Cube_FW_N6/Utilities/lcd/stm32_lcd.c ****   *
  16:STM32Cube_FW_N6/Utilities/lcd/stm32_lcd.c ****   ******************************************************************************
  17:STM32Cube_FW_N6/Utilities/lcd/stm32_lcd.c ****   */
  18:STM32Cube_FW_N6/Utilities/lcd/stm32_lcd.c **** 
  19:STM32Cube_FW_N6/Utilities/lcd/stm32_lcd.c **** /* File Info: ------------------------------------------------------------------
  20:STM32Cube_FW_N6/Utilities/lcd/stm32_lcd.c ****                                    User NOTES
  21:STM32Cube_FW_N6/Utilities/lcd/stm32_lcd.c **** 1. How To use this driver:
  22:STM32Cube_FW_N6/Utilities/lcd/stm32_lcd.c **** --------------------------
  23:STM32Cube_FW_N6/Utilities/lcd/stm32_lcd.c ****    - This driver is a generic driver that provides basic display services. It should
  24:STM32Cube_FW_N6/Utilities/lcd/stm32_lcd.c ****      be used by any platform once LCD is initialized and following draw methods are
ARM GAS  C:\Users\DJESSOU\AppData\Local\Temp\ccR55SEh.s 			page 2


  25:STM32Cube_FW_N6/Utilities/lcd/stm32_lcd.c ****      registered:
  26:STM32Cube_FW_N6/Utilities/lcd/stm32_lcd.c ****          BSP_LCD_DrawBitmap
  27:STM32Cube_FW_N6/Utilities/lcd/stm32_lcd.c ****          BSP_LCD_DrawHLine
  28:STM32Cube_FW_N6/Utilities/lcd/stm32_lcd.c ****          BSP_LCD_DrawVLine
  29:STM32Cube_FW_N6/Utilities/lcd/stm32_lcd.c ****          BSP_LCD_FillRect
  30:STM32Cube_FW_N6/Utilities/lcd/stm32_lcd.c ****          BSP_LCD_ReadPixel
  31:STM32Cube_FW_N6/Utilities/lcd/stm32_lcd.c ****          BSP_LCD_WritePixel
  32:STM32Cube_FW_N6/Utilities/lcd/stm32_lcd.c ****          BSP_LCD_GetXSize
  33:STM32Cube_FW_N6/Utilities/lcd/stm32_lcd.c ****          BSP_LCD_GetYSize
  34:STM32Cube_FW_N6/Utilities/lcd/stm32_lcd.c ****          BSP_LCD_SetActiveLayer
  35:STM32Cube_FW_N6/Utilities/lcd/stm32_lcd.c **** 
  36:STM32Cube_FW_N6/Utilities/lcd/stm32_lcd.c ****    - At application level, once the LCD is initialized, user should call UTIL_LCD_SetFuncDriver()
  37:STM32Cube_FW_N6/Utilities/lcd/stm32_lcd.c ****      API to link board LCD drivers to BASIC GUI LCD drivers.
  38:STM32Cube_FW_N6/Utilities/lcd/stm32_lcd.c ****      User can then call the BASIC GUI services:
  39:STM32Cube_FW_N6/Utilities/lcd/stm32_lcd.c ****          UTIL_LCD_SetFuncDriver()
  40:STM32Cube_FW_N6/Utilities/lcd/stm32_lcd.c ****          UTIL_LCD_SetLayer()
  41:STM32Cube_FW_N6/Utilities/lcd/stm32_lcd.c ****          UTIL_LCD_SetDevice()
  42:STM32Cube_FW_N6/Utilities/lcd/stm32_lcd.c ****          UTIL_LCD_SetTextColor()
  43:STM32Cube_FW_N6/Utilities/lcd/stm32_lcd.c ****          UTIL_LCD_GetTextColor()
  44:STM32Cube_FW_N6/Utilities/lcd/stm32_lcd.c ****          UTIL_LCD_SetBackColor()
  45:STM32Cube_FW_N6/Utilities/lcd/stm32_lcd.c ****          UTIL_LCD_GetBackColor()
  46:STM32Cube_FW_N6/Utilities/lcd/stm32_lcd.c ****          UTIL_LCD_SetFont()
  47:STM32Cube_FW_N6/Utilities/lcd/stm32_lcd.c ****          UTIL_LCD_GetFont()
  48:STM32Cube_FW_N6/Utilities/lcd/stm32_lcd.c ****          UTIL_LCD_Clear)
  49:STM32Cube_FW_N6/Utilities/lcd/stm32_lcd.c ****          UTIL_LCD_ClearStringLine()
  50:STM32Cube_FW_N6/Utilities/lcd/stm32_lcd.c ****          UTIL_LCD_DisplayStringAtLine()
  51:STM32Cube_FW_N6/Utilities/lcd/stm32_lcd.c ****          UTIL_LCD_DisplayStringAt()
  52:STM32Cube_FW_N6/Utilities/lcd/stm32_lcd.c ****          UTIL_LCD_DisplayChar()
  53:STM32Cube_FW_N6/Utilities/lcd/stm32_lcd.c ****          UTIL_LCD_GetPixel()
  54:STM32Cube_FW_N6/Utilities/lcd/stm32_lcd.c ****          UTIL_LCD_SetPixel()
  55:STM32Cube_FW_N6/Utilities/lcd/stm32_lcd.c ****          UTIL_LCD_FillRGBRect()
  56:STM32Cube_FW_N6/Utilities/lcd/stm32_lcd.c ****          UTIL_LCD_DrawHLine()
  57:STM32Cube_FW_N6/Utilities/lcd/stm32_lcd.c ****          UTIL_LCD_DrawVLine()
  58:STM32Cube_FW_N6/Utilities/lcd/stm32_lcd.c ****          UTIL_LCD_DrawBitmap()
  59:STM32Cube_FW_N6/Utilities/lcd/stm32_lcd.c ****          UTIL_LCD_FillRect()
  60:STM32Cube_FW_N6/Utilities/lcd/stm32_lcd.c ****          UTIL_LCD_DrawLine()
  61:STM32Cube_FW_N6/Utilities/lcd/stm32_lcd.c ****          UTIL_LCD_DrawRect()
  62:STM32Cube_FW_N6/Utilities/lcd/stm32_lcd.c ****          UTIL_LCD_DrawCircle()
  63:STM32Cube_FW_N6/Utilities/lcd/stm32_lcd.c ****          UTIL_LCD_DrawPolygon()
  64:STM32Cube_FW_N6/Utilities/lcd/stm32_lcd.c ****          UTIL_LCD_DrawEllipse()
  65:STM32Cube_FW_N6/Utilities/lcd/stm32_lcd.c ****          UTIL_LCD_FillCircle()
  66:STM32Cube_FW_N6/Utilities/lcd/stm32_lcd.c ****          UTIL_LCD_FillPolygon()
  67:STM32Cube_FW_N6/Utilities/lcd/stm32_lcd.c ****          UTIL_LCD_FillEllipse()
  68:STM32Cube_FW_N6/Utilities/lcd/stm32_lcd.c **** ------------------------------------------------------------------------------*/
  69:STM32Cube_FW_N6/Utilities/lcd/stm32_lcd.c **** 
  70:STM32Cube_FW_N6/Utilities/lcd/stm32_lcd.c **** /* Includes ------------------------------------------------------------------*/
  71:STM32Cube_FW_N6/Utilities/lcd/stm32_lcd.c **** #include "stm32_lcd.h"
  72:STM32Cube_FW_N6/Utilities/lcd/stm32_lcd.c **** #include "../Fonts/font24.c"
  73:STM32Cube_FW_N6/Utilities/lcd/stm32_lcd.c **** #include "../Fonts/font20.c"
  74:STM32Cube_FW_N6/Utilities/lcd/stm32_lcd.c **** #include "../Fonts/font16.c"
  75:STM32Cube_FW_N6/Utilities/lcd/stm32_lcd.c **** #include "../Fonts/font12.c"
  76:STM32Cube_FW_N6/Utilities/lcd/stm32_lcd.c **** #include "../Fonts/font8.c"
  77:STM32Cube_FW_N6/Utilities/lcd/stm32_lcd.c **** 
  78:STM32Cube_FW_N6/Utilities/lcd/stm32_lcd.c **** /** @addtogroup Utilities
  79:STM32Cube_FW_N6/Utilities/lcd/stm32_lcd.c ****   * @{
  80:STM32Cube_FW_N6/Utilities/lcd/stm32_lcd.c ****   */
  81:STM32Cube_FW_N6/Utilities/lcd/stm32_lcd.c **** 
ARM GAS  C:\Users\DJESSOU\AppData\Local\Temp\ccR55SEh.s 			page 3


  82:STM32Cube_FW_N6/Utilities/lcd/stm32_lcd.c **** /** @addtogroup STM32_EVAL
  83:STM32Cube_FW_N6/Utilities/lcd/stm32_lcd.c ****   * @{
  84:STM32Cube_FW_N6/Utilities/lcd/stm32_lcd.c ****   */
  85:STM32Cube_FW_N6/Utilities/lcd/stm32_lcd.c **** 
  86:STM32Cube_FW_N6/Utilities/lcd/stm32_lcd.c **** /** @addtogroup Common
  87:STM32Cube_FW_N6/Utilities/lcd/stm32_lcd.c ****   * @{
  88:STM32Cube_FW_N6/Utilities/lcd/stm32_lcd.c ****   */
  89:STM32Cube_FW_N6/Utilities/lcd/stm32_lcd.c **** 
  90:STM32Cube_FW_N6/Utilities/lcd/stm32_lcd.c **** /** @defgroup STM32_LCD STM32 LCD Utility
  91:STM32Cube_FW_N6/Utilities/lcd/stm32_lcd.c ****   * @{
  92:STM32Cube_FW_N6/Utilities/lcd/stm32_lcd.c ****   */
  93:STM32Cube_FW_N6/Utilities/lcd/stm32_lcd.c **** 
  94:STM32Cube_FW_N6/Utilities/lcd/stm32_lcd.c **** #ifndef UTIL_LCD_MAX_LAYERS_NBR
  95:STM32Cube_FW_N6/Utilities/lcd/stm32_lcd.c ****   #define UTIL_LCD_MAX_LAYERS_NBR    2U
  96:STM32Cube_FW_N6/Utilities/lcd/stm32_lcd.c **** #endif
  97:STM32Cube_FW_N6/Utilities/lcd/stm32_lcd.c **** 
  98:STM32Cube_FW_N6/Utilities/lcd/stm32_lcd.c **** /** @defgroup UTIL_LCD_Private_Macros STM32 LCD Utility Private Macros
  99:STM32Cube_FW_N6/Utilities/lcd/stm32_lcd.c ****   * @{
 100:STM32Cube_FW_N6/Utilities/lcd/stm32_lcd.c ****   */
 101:STM32Cube_FW_N6/Utilities/lcd/stm32_lcd.c **** #define ABS(X)                 ((X) > 0 ? (X) : -(X))
 102:STM32Cube_FW_N6/Utilities/lcd/stm32_lcd.c **** #define POLY_X(Z)              ((int32_t)((Points + (Z))->X))
 103:STM32Cube_FW_N6/Utilities/lcd/stm32_lcd.c **** #define POLY_Y(Z)              ((int32_t)((Points + (Z))->Y))
 104:STM32Cube_FW_N6/Utilities/lcd/stm32_lcd.c **** 
 105:STM32Cube_FW_N6/Utilities/lcd/stm32_lcd.c **** #define CONVERTARGB88882RGB565(Color)((((Color & 0xFFU) >> 3) & 0x1FU) |\
 106:STM32Cube_FW_N6/Utilities/lcd/stm32_lcd.c ****                                      (((((Color & 0xFF00U) >> 8) >>2) & 0x3FU) << 5) |\
 107:STM32Cube_FW_N6/Utilities/lcd/stm32_lcd.c ****                                      (((((Color & 0xFF0000U) >> 16) >>3) & 0x1FU) << 11))
 108:STM32Cube_FW_N6/Utilities/lcd/stm32_lcd.c **** 
 109:STM32Cube_FW_N6/Utilities/lcd/stm32_lcd.c **** #define CONVERTARGB88882ARGB4444(Color)((((Color & 0xFFU) >> 4) & 0xFU) |\
 110:STM32Cube_FW_N6/Utilities/lcd/stm32_lcd.c ****                                        (((((Color & 0xFF00U) >> 8) >> 4) & 0xFU) << 4) |\
 111:STM32Cube_FW_N6/Utilities/lcd/stm32_lcd.c ****                                        (((((Color & 0xFF0000U) >> 16) >> 4) & 0xFU) << 8) | \
 112:STM32Cube_FW_N6/Utilities/lcd/stm32_lcd.c ****                                        (((((Color & 0xFF000000U) >> 24) >> 4) & 0xFU) << 12))
 113:STM32Cube_FW_N6/Utilities/lcd/stm32_lcd.c **** 
 114:STM32Cube_FW_N6/Utilities/lcd/stm32_lcd.c **** #define CONVERTRGB5652ARGB8888(Color)(((((((Color >> 11) & 0x1FU) * 527) + 23) >> 6) << 16) |\
 115:STM32Cube_FW_N6/Utilities/lcd/stm32_lcd.c ****                                      ((((((Color >> 5) & 0x3FU) * 259) + 33) >> 6) << 8) |\
 116:STM32Cube_FW_N6/Utilities/lcd/stm32_lcd.c ****                                      ((((Color & 0x1FU) * 527) + 23) >> 6) | 0xFF000000)
 117:STM32Cube_FW_N6/Utilities/lcd/stm32_lcd.c **** 
 118:STM32Cube_FW_N6/Utilities/lcd/stm32_lcd.c **** #define CONVERTARGB44442ARGB8888(Color)(((((Color >> 12U) & 0xFU) * 17U) << 24U) |\
 119:STM32Cube_FW_N6/Utilities/lcd/stm32_lcd.c ****                                         ((((Color >>  8U) & 0xFU) * 17U) << 16U) |\
 120:STM32Cube_FW_N6/Utilities/lcd/stm32_lcd.c ****                                         ((((Color >>  4U) & 0xFU) * 17U) << 8U) |\
 121:STM32Cube_FW_N6/Utilities/lcd/stm32_lcd.c ****                                         ((((Color >>  0U) & 0xFU) * 17U) << 0U))
 122:STM32Cube_FW_N6/Utilities/lcd/stm32_lcd.c **** 
 123:STM32Cube_FW_N6/Utilities/lcd/stm32_lcd.c **** #define CONVERTRGB8882ARGB8888(Color)(Color | 0xFF000000U)
 124:STM32Cube_FW_N6/Utilities/lcd/stm32_lcd.c **** 
 125:STM32Cube_FW_N6/Utilities/lcd/stm32_lcd.c **** #define CONVERTARGB88882RGB888(Color)(Color & 0x00FFFFFFU)
 126:STM32Cube_FW_N6/Utilities/lcd/stm32_lcd.c **** 
 127:STM32Cube_FW_N6/Utilities/lcd/stm32_lcd.c **** /**
 128:STM32Cube_FW_N6/Utilities/lcd/stm32_lcd.c ****   * @}
 129:STM32Cube_FW_N6/Utilities/lcd/stm32_lcd.c ****   */
 130:STM32Cube_FW_N6/Utilities/lcd/stm32_lcd.c **** 
 131:STM32Cube_FW_N6/Utilities/lcd/stm32_lcd.c **** /** @defgroup UTIL_LCD_Private_Types STM32 LCD Utility Private Types
 132:STM32Cube_FW_N6/Utilities/lcd/stm32_lcd.c ****   * @{
 133:STM32Cube_FW_N6/Utilities/lcd/stm32_lcd.c ****   */
 134:STM32Cube_FW_N6/Utilities/lcd/stm32_lcd.c **** typedef struct
 135:STM32Cube_FW_N6/Utilities/lcd/stm32_lcd.c **** {
 136:STM32Cube_FW_N6/Utilities/lcd/stm32_lcd.c ****   uint32_t x1;
 137:STM32Cube_FW_N6/Utilities/lcd/stm32_lcd.c ****   uint32_t y1;
 138:STM32Cube_FW_N6/Utilities/lcd/stm32_lcd.c ****   uint32_t x2;
ARM GAS  C:\Users\DJESSOU\AppData\Local\Temp\ccR55SEh.s 			page 4


 139:STM32Cube_FW_N6/Utilities/lcd/stm32_lcd.c ****   uint32_t y2;
 140:STM32Cube_FW_N6/Utilities/lcd/stm32_lcd.c ****   uint32_t x3;
 141:STM32Cube_FW_N6/Utilities/lcd/stm32_lcd.c ****   uint32_t y3;
 142:STM32Cube_FW_N6/Utilities/lcd/stm32_lcd.c **** }Triangle_Positions_t;
 143:STM32Cube_FW_N6/Utilities/lcd/stm32_lcd.c **** 
 144:STM32Cube_FW_N6/Utilities/lcd/stm32_lcd.c **** /**
 145:STM32Cube_FW_N6/Utilities/lcd/stm32_lcd.c ****   * @}
 146:STM32Cube_FW_N6/Utilities/lcd/stm32_lcd.c ****   */
 147:STM32Cube_FW_N6/Utilities/lcd/stm32_lcd.c **** 
 148:STM32Cube_FW_N6/Utilities/lcd/stm32_lcd.c **** /** @defgroup UTIL_LCD_Private_Variables STM32 LCD Utility Private Variables
 149:STM32Cube_FW_N6/Utilities/lcd/stm32_lcd.c ****   * @{
 150:STM32Cube_FW_N6/Utilities/lcd/stm32_lcd.c ****   */
 151:STM32Cube_FW_N6/Utilities/lcd/stm32_lcd.c **** 
 152:STM32Cube_FW_N6/Utilities/lcd/stm32_lcd.c **** /**
 153:STM32Cube_FW_N6/Utilities/lcd/stm32_lcd.c ****   * @brief  Current Drawing Layer properties variable
 154:STM32Cube_FW_N6/Utilities/lcd/stm32_lcd.c ****   */
 155:STM32Cube_FW_N6/Utilities/lcd/stm32_lcd.c **** static UTIL_LCD_Ctx_t DrawProp[UTIL_LCD_MAX_LAYERS_NBR];
 156:STM32Cube_FW_N6/Utilities/lcd/stm32_lcd.c **** static LCD_UTILS_Drv_t FuncDriver;
 157:STM32Cube_FW_N6/Utilities/lcd/stm32_lcd.c **** 
 158:STM32Cube_FW_N6/Utilities/lcd/stm32_lcd.c **** /**
 159:STM32Cube_FW_N6/Utilities/lcd/stm32_lcd.c ****   * @}
 160:STM32Cube_FW_N6/Utilities/lcd/stm32_lcd.c ****   */
 161:STM32Cube_FW_N6/Utilities/lcd/stm32_lcd.c **** 
 162:STM32Cube_FW_N6/Utilities/lcd/stm32_lcd.c **** /** @defgroup UTIL_LCD_Private_FunctionPrototypes STM32 LCD Utility Private FunctionPrototypes
 163:STM32Cube_FW_N6/Utilities/lcd/stm32_lcd.c ****   * @{
 164:STM32Cube_FW_N6/Utilities/lcd/stm32_lcd.c ****   */
 165:STM32Cube_FW_N6/Utilities/lcd/stm32_lcd.c **** static void DrawChar(uint32_t Xpos, uint32_t Ypos, const uint8_t *pData);
 166:STM32Cube_FW_N6/Utilities/lcd/stm32_lcd.c **** static void FillTriangle(Triangle_Positions_t *Positions, uint32_t Color);
 167:STM32Cube_FW_N6/Utilities/lcd/stm32_lcd.c **** /**
 168:STM32Cube_FW_N6/Utilities/lcd/stm32_lcd.c ****   * @}
 169:STM32Cube_FW_N6/Utilities/lcd/stm32_lcd.c ****   */
 170:STM32Cube_FW_N6/Utilities/lcd/stm32_lcd.c **** 
 171:STM32Cube_FW_N6/Utilities/lcd/stm32_lcd.c **** /** @defgroup UTIL_LCD_Exported_Functions STM32 LCD Utility Exported Functions
 172:STM32Cube_FW_N6/Utilities/lcd/stm32_lcd.c ****   * @{
 173:STM32Cube_FW_N6/Utilities/lcd/stm32_lcd.c ****   */
 174:STM32Cube_FW_N6/Utilities/lcd/stm32_lcd.c **** 
 175:STM32Cube_FW_N6/Utilities/lcd/stm32_lcd.c **** /**
 176:STM32Cube_FW_N6/Utilities/lcd/stm32_lcd.c ****   * @brief  Link board LCD drivers to STM32 LCD Utility drivers
 177:STM32Cube_FW_N6/Utilities/lcd/stm32_lcd.c ****   * @param  pDrv Structure of LCD functions
 178:STM32Cube_FW_N6/Utilities/lcd/stm32_lcd.c ****   */
 179:STM32Cube_FW_N6/Utilities/lcd/stm32_lcd.c **** void UTIL_LCD_SetFuncDriver(const LCD_UTILS_Drv_t *pDrv)
 180:STM32Cube_FW_N6/Utilities/lcd/stm32_lcd.c **** {
  35              		.loc 1 180 1 view -0
  36              		.cfi_startproc
  37              		@ args = 0, pretend = 0, frame = 0
  38              		@ frame_needed = 0, uses_anonymous_args = 0
 181:STM32Cube_FW_N6/Utilities/lcd/stm32_lcd.c ****   FuncDriver.DrawBitmap     = pDrv->DrawBitmap;
  39              		.loc 1 181 3 view .LVU1
 180:STM32Cube_FW_N6/Utilities/lcd/stm32_lcd.c ****   FuncDriver.DrawBitmap     = pDrv->DrawBitmap;
  40              		.loc 1 180 1 is_stmt 0 view .LVU2
  41 0000 70B5     		push	{r4, r5, r6, lr}
  42              		.cfi_def_cfa_offset 16
  43              		.cfi_offset 4, -16
  44              		.cfi_offset 5, -12
  45              		.cfi_offset 6, -8
  46              		.cfi_offset 14, -4
 182:STM32Cube_FW_N6/Utilities/lcd/stm32_lcd.c ****   FuncDriver.FillRGBRect    = pDrv->FillRGBRect;
ARM GAS  C:\Users\DJESSOU\AppData\Local\Temp\ccR55SEh.s 			page 5


 183:STM32Cube_FW_N6/Utilities/lcd/stm32_lcd.c ****   FuncDriver.DrawHLine      = pDrv->DrawHLine;
 184:STM32Cube_FW_N6/Utilities/lcd/stm32_lcd.c ****   FuncDriver.DrawVLine      = pDrv->DrawVLine;
 185:STM32Cube_FW_N6/Utilities/lcd/stm32_lcd.c ****   FuncDriver.FillRect       = pDrv->FillRect;
 186:STM32Cube_FW_N6/Utilities/lcd/stm32_lcd.c ****   FuncDriver.GetPixel       = pDrv->GetPixel;
 187:STM32Cube_FW_N6/Utilities/lcd/stm32_lcd.c ****   FuncDriver.SetPixel       = pDrv->SetPixel;
 188:STM32Cube_FW_N6/Utilities/lcd/stm32_lcd.c ****   FuncDriver.GetXSize       = pDrv->GetXSize;
 189:STM32Cube_FW_N6/Utilities/lcd/stm32_lcd.c ****   FuncDriver.GetYSize       = pDrv->GetYSize;
 190:STM32Cube_FW_N6/Utilities/lcd/stm32_lcd.c ****   FuncDriver.SetLayer       = pDrv->SetLayer;
 191:STM32Cube_FW_N6/Utilities/lcd/stm32_lcd.c ****   FuncDriver.GetFormat      = pDrv->GetFormat;
 192:STM32Cube_FW_N6/Utilities/lcd/stm32_lcd.c **** 
 193:STM32Cube_FW_N6/Utilities/lcd/stm32_lcd.c ****   DrawProp->LcdLayer = 0;
  47              		.loc 1 193 22 view .LVU3
  48 0002 0026     		movs	r6, #0
 181:STM32Cube_FW_N6/Utilities/lcd/stm32_lcd.c ****   FuncDriver.FillRGBRect    = pDrv->FillRGBRect;
  49              		.loc 1 181 29 view .LVU4
  50 0004 164C     		ldr	r4, .L2
  51 0006 0368     		ldr	r3, [r0]
 189:STM32Cube_FW_N6/Utilities/lcd/stm32_lcd.c ****   FuncDriver.SetLayer       = pDrv->SetLayer;
  52              		.loc 1 189 29 view .LVU5
  53 0008 026A     		ldr	r2, [r0, #32]
 181:STM32Cube_FW_N6/Utilities/lcd/stm32_lcd.c ****   FuncDriver.FillRGBRect    = pDrv->FillRGBRect;
  54              		.loc 1 181 29 view .LVU6
  55 000a 2360     		str	r3, [r4]
 182:STM32Cube_FW_N6/Utilities/lcd/stm32_lcd.c ****   FuncDriver.FillRGBRect    = pDrv->FillRGBRect;
  56              		.loc 1 182 3 is_stmt 1 view .LVU7
 182:STM32Cube_FW_N6/Utilities/lcd/stm32_lcd.c ****   FuncDriver.FillRGBRect    = pDrv->FillRGBRect;
  57              		.loc 1 182 29 is_stmt 0 view .LVU8
  58 000c 4368     		ldr	r3, [r0, #4]
 189:STM32Cube_FW_N6/Utilities/lcd/stm32_lcd.c ****   FuncDriver.SetLayer       = pDrv->SetLayer;
  59              		.loc 1 189 29 view .LVU9
  60 000e 2262     		str	r2, [r4, #32]
 182:STM32Cube_FW_N6/Utilities/lcd/stm32_lcd.c ****   FuncDriver.FillRGBRect    = pDrv->FillRGBRect;
  61              		.loc 1 182 29 view .LVU10
  62 0010 6360     		str	r3, [r4, #4]
 183:STM32Cube_FW_N6/Utilities/lcd/stm32_lcd.c ****   FuncDriver.DrawVLine      = pDrv->DrawVLine;
  63              		.loc 1 183 3 is_stmt 1 view .LVU11
 183:STM32Cube_FW_N6/Utilities/lcd/stm32_lcd.c ****   FuncDriver.DrawVLine      = pDrv->DrawVLine;
  64              		.loc 1 183 29 is_stmt 0 view .LVU12
  65 0012 8368     		ldr	r3, [r0, #8]
 190:STM32Cube_FW_N6/Utilities/lcd/stm32_lcd.c ****   FuncDriver.GetFormat      = pDrv->GetFormat;
  66              		.loc 1 190 29 view .LVU13
  67 0014 426A     		ldr	r2, [r0, #36]
 183:STM32Cube_FW_N6/Utilities/lcd/stm32_lcd.c ****   FuncDriver.DrawVLine      = pDrv->DrawVLine;
  68              		.loc 1 183 29 view .LVU14
  69 0016 A360     		str	r3, [r4, #8]
 184:STM32Cube_FW_N6/Utilities/lcd/stm32_lcd.c ****   FuncDriver.FillRect       = pDrv->FillRect;
  70              		.loc 1 184 3 is_stmt 1 view .LVU15
 184:STM32Cube_FW_N6/Utilities/lcd/stm32_lcd.c ****   FuncDriver.FillRect       = pDrv->FillRect;
  71              		.loc 1 184 29 is_stmt 0 view .LVU16
  72 0018 C368     		ldr	r3, [r0, #12]
  73              		.loc 1 193 22 view .LVU17
  74 001a 124D     		ldr	r5, .L2+4
 184:STM32Cube_FW_N6/Utilities/lcd/stm32_lcd.c ****   FuncDriver.FillRect       = pDrv->FillRect;
  75              		.loc 1 184 29 view .LVU18
  76 001c E360     		str	r3, [r4, #12]
 185:STM32Cube_FW_N6/Utilities/lcd/stm32_lcd.c ****   FuncDriver.GetPixel       = pDrv->GetPixel;
  77              		.loc 1 185 3 is_stmt 1 view .LVU19
ARM GAS  C:\Users\DJESSOU\AppData\Local\Temp\ccR55SEh.s 			page 6


 185:STM32Cube_FW_N6/Utilities/lcd/stm32_lcd.c ****   FuncDriver.GetPixel       = pDrv->GetPixel;
  78              		.loc 1 185 29 is_stmt 0 view .LVU20
  79 001e 0369     		ldr	r3, [r0, #16]
 190:STM32Cube_FW_N6/Utilities/lcd/stm32_lcd.c ****   FuncDriver.GetFormat      = pDrv->GetFormat;
  80              		.loc 1 190 29 view .LVU21
  81 0020 6262     		str	r2, [r4, #36]
 185:STM32Cube_FW_N6/Utilities/lcd/stm32_lcd.c ****   FuncDriver.GetPixel       = pDrv->GetPixel;
  82              		.loc 1 185 29 view .LVU22
  83 0022 2361     		str	r3, [r4, #16]
 186:STM32Cube_FW_N6/Utilities/lcd/stm32_lcd.c ****   FuncDriver.SetPixel       = pDrv->SetPixel;
  84              		.loc 1 186 3 is_stmt 1 view .LVU23
 186:STM32Cube_FW_N6/Utilities/lcd/stm32_lcd.c ****   FuncDriver.SetPixel       = pDrv->SetPixel;
  85              		.loc 1 186 29 is_stmt 0 view .LVU24
  86 0024 4369     		ldr	r3, [r0, #20]
 191:STM32Cube_FW_N6/Utilities/lcd/stm32_lcd.c **** 
  87              		.loc 1 191 29 view .LVU25
  88 0026 826A     		ldr	r2, [r0, #40]
 186:STM32Cube_FW_N6/Utilities/lcd/stm32_lcd.c ****   FuncDriver.SetPixel       = pDrv->SetPixel;
  89              		.loc 1 186 29 view .LVU26
  90 0028 6361     		str	r3, [r4, #20]
 187:STM32Cube_FW_N6/Utilities/lcd/stm32_lcd.c ****   FuncDriver.GetXSize       = pDrv->GetXSize;
  91              		.loc 1 187 3 is_stmt 1 view .LVU27
 187:STM32Cube_FW_N6/Utilities/lcd/stm32_lcd.c ****   FuncDriver.GetXSize       = pDrv->GetXSize;
  92              		.loc 1 187 29 is_stmt 0 view .LVU28
  93 002a 8369     		ldr	r3, [r0, #24]
 194:STM32Cube_FW_N6/Utilities/lcd/stm32_lcd.c ****   DrawProp->LcdDevice = 0;
 195:STM32Cube_FW_N6/Utilities/lcd/stm32_lcd.c ****   FuncDriver.GetXSize(0, &DrawProp[DrawProp->LcdLayer].LcdXsize);
  94              		.loc 1 195 3 view .LVU29
  95 002c 05F11401 		add	r1, r5, #20
 187:STM32Cube_FW_N6/Utilities/lcd/stm32_lcd.c ****   FuncDriver.GetXSize       = pDrv->GetXSize;
  96              		.loc 1 187 29 view .LVU30
  97 0030 A361     		str	r3, [r4, #24]
 188:STM32Cube_FW_N6/Utilities/lcd/stm32_lcd.c ****   FuncDriver.GetYSize       = pDrv->GetYSize;
  98              		.loc 1 188 3 is_stmt 1 view .LVU31
 188:STM32Cube_FW_N6/Utilities/lcd/stm32_lcd.c ****   FuncDriver.GetYSize       = pDrv->GetYSize;
  99              		.loc 1 188 35 is_stmt 0 view .LVU32
 100 0032 C369     		ldr	r3, [r0, #28]
 194:STM32Cube_FW_N6/Utilities/lcd/stm32_lcd.c ****   DrawProp->LcdDevice = 0;
 101              		.loc 1 194 23 view .LVU33
 102 0034 C5E90366 		strd	r6, r6, [r5, #12]
 103              		.loc 1 195 3 view .LVU34
 104 0038 3046     		mov	r0, r6
 105              	.LVL1:
 188:STM32Cube_FW_N6/Utilities/lcd/stm32_lcd.c ****   FuncDriver.GetYSize       = pDrv->GetYSize;
 106              		.loc 1 188 29 view .LVU35
 107 003a E361     		str	r3, [r4, #28]
 189:STM32Cube_FW_N6/Utilities/lcd/stm32_lcd.c ****   FuncDriver.SetLayer       = pDrv->SetLayer;
 108              		.loc 1 189 3 is_stmt 1 view .LVU36
 190:STM32Cube_FW_N6/Utilities/lcd/stm32_lcd.c ****   FuncDriver.GetFormat      = pDrv->GetFormat;
 109              		.loc 1 190 3 view .LVU37
 191:STM32Cube_FW_N6/Utilities/lcd/stm32_lcd.c **** 
 110              		.loc 1 191 3 view .LVU38
 191:STM32Cube_FW_N6/Utilities/lcd/stm32_lcd.c **** 
 111              		.loc 1 191 29 is_stmt 0 view .LVU39
 112 003c A262     		str	r2, [r4, #40]
 193:STM32Cube_FW_N6/Utilities/lcd/stm32_lcd.c ****   DrawProp->LcdDevice = 0;
 113              		.loc 1 193 3 is_stmt 1 view .LVU40
ARM GAS  C:\Users\DJESSOU\AppData\Local\Temp\ccR55SEh.s 			page 7


 114              		.loc 1 195 3 view .LVU41
 115 003e 9847     		blx	r3
 116              	.LVL2:
 196:STM32Cube_FW_N6/Utilities/lcd/stm32_lcd.c ****   FuncDriver.GetYSize(0, &DrawProp[DrawProp->LcdLayer].LcdYsize);
 117              		.loc 1 196 3 view .LVU42
 118 0040 E968     		ldr	r1, [r5, #12]
 119 0042 236A     		ldr	r3, [r4, #32]
 120 0044 05EB4111 		add	r1, r5, r1, lsl #5
 121 0048 3046     		mov	r0, r6
 122 004a 1831     		adds	r1, r1, #24
 123 004c 9847     		blx	r3
 124              	.LVL3:
 197:STM32Cube_FW_N6/Utilities/lcd/stm32_lcd.c ****   FuncDriver.GetFormat(0, &DrawProp[DrawProp->LcdLayer].LcdPixelFormat);
 125              		.loc 1 197 3 view .LVU43
 126 004e EB68     		ldr	r3, [r5, #12]
 127 0050 3046     		mov	r0, r6
 128 0052 05EB4311 		add	r1, r5, r3, lsl #5
 129 0056 1C31     		adds	r1, r1, #28
 130 0058 A36A     		ldr	r3, [r4, #40]
 198:STM32Cube_FW_N6/Utilities/lcd/stm32_lcd.c **** }
 131              		.loc 1 198 1 is_stmt 0 view .LVU44
 132 005a BDE87040 		pop	{r4, r5, r6, lr}
 133              		.cfi_restore 14
 134              		.cfi_restore 6
 135              		.cfi_restore 5
 136              		.cfi_restore 4
 137              		.cfi_def_cfa_offset 0
 197:STM32Cube_FW_N6/Utilities/lcd/stm32_lcd.c ****   FuncDriver.GetFormat(0, &DrawProp[DrawProp->LcdLayer].LcdPixelFormat);
 138              		.loc 1 197 3 view .LVU45
 139 005e 1847     		bx	r3
 140              	.LVL4:
 141              	.L3:
 142              		.align	2
 143              	.L2:
 144 0060 00000000 		.word	FuncDriver
 145 0064 00000000 		.word	DrawProp
 146              		.cfi_endproc
 147              	.LFE0:
 149              		.section	.text.UTIL_LCD_SetLayer,"ax",%progbits
 150              		.align	1
 151              		.global	UTIL_LCD_SetLayer
 152              		.syntax unified
 153              		.thumb
 154              		.thumb_func
 156              	UTIL_LCD_SetLayer:
 157              	.LVL5:
 158              	.LFB1:
 199:STM32Cube_FW_N6/Utilities/lcd/stm32_lcd.c **** 
 200:STM32Cube_FW_N6/Utilities/lcd/stm32_lcd.c **** /**
 201:STM32Cube_FW_N6/Utilities/lcd/stm32_lcd.c ****   * @brief  Set the LCD layer.
 202:STM32Cube_FW_N6/Utilities/lcd/stm32_lcd.c ****   * @param  Layer  LCD layer
 203:STM32Cube_FW_N6/Utilities/lcd/stm32_lcd.c ****   */
 204:STM32Cube_FW_N6/Utilities/lcd/stm32_lcd.c **** void UTIL_LCD_SetLayer(uint32_t Layer)
 205:STM32Cube_FW_N6/Utilities/lcd/stm32_lcd.c **** {
 159              		.loc 1 205 1 is_stmt 1 view -0
 160              		.cfi_startproc
 161              		@ args = 0, pretend = 0, frame = 0
ARM GAS  C:\Users\DJESSOU\AppData\Local\Temp\ccR55SEh.s 			page 8


 162              		@ frame_needed = 0, uses_anonymous_args = 0
 206:STM32Cube_FW_N6/Utilities/lcd/stm32_lcd.c ****   if(FuncDriver.SetLayer != NULL)
 163              		.loc 1 206 3 view .LVU47
 205:STM32Cube_FW_N6/Utilities/lcd/stm32_lcd.c ****   if(FuncDriver.SetLayer != NULL)
 164              		.loc 1 205 1 is_stmt 0 view .LVU48
 165 0000 70B5     		push	{r4, r5, r6, lr}
 166              		.cfi_def_cfa_offset 16
 167              		.cfi_offset 4, -16
 168              		.cfi_offset 5, -12
 169              		.cfi_offset 6, -8
 170              		.cfi_offset 14, -4
 171              		.loc 1 206 16 view .LVU49
 172 0002 104E     		ldr	r6, .L8
 205:STM32Cube_FW_N6/Utilities/lcd/stm32_lcd.c ****   if(FuncDriver.SetLayer != NULL)
 173              		.loc 1 205 1 view .LVU50
 174 0004 0546     		mov	r5, r0
 175              		.loc 1 206 16 view .LVU51
 176 0006 736A     		ldr	r3, [r6, #36]
 177              		.loc 1 206 5 view .LVU52
 178 0008 DBB1     		cbz	r3, .L4
 207:STM32Cube_FW_N6/Utilities/lcd/stm32_lcd.c ****   {
 208:STM32Cube_FW_N6/Utilities/lcd/stm32_lcd.c ****     if(FuncDriver.SetLayer(DrawProp->LcdDevice, Layer) == 0)
 179              		.loc 1 208 5 is_stmt 1 view .LVU53
 180              		.loc 1 208 8 is_stmt 0 view .LVU54
 181 000a 0F4C     		ldr	r4, .L8+4
 182 000c 0146     		mov	r1, r0
 183 000e 2069     		ldr	r0, [r4, #16]
 184              	.LVL6:
 185              		.loc 1 208 8 view .LVU55
 186 0010 9847     		blx	r3
 187              	.LVL7:
 188              		.loc 1 208 7 discriminator 1 view .LVU56
 189 0012 B0B9     		cbnz	r0, .L4
 209:STM32Cube_FW_N6/Utilities/lcd/stm32_lcd.c ****     {
 210:STM32Cube_FW_N6/Utilities/lcd/stm32_lcd.c ****       DrawProp->LcdLayer = Layer;
 190              		.loc 1 210 7 is_stmt 1 view .LVU57
 211:STM32Cube_FW_N6/Utilities/lcd/stm32_lcd.c ****       FuncDriver.GetXSize(DrawProp->LcdDevice, &DrawProp[DrawProp->LcdLayer].LcdXsize);
 191              		.loc 1 211 7 is_stmt 0 view .LVU58
 192 0014 04EB4511 		add	r1, r4, r5, lsl #5
 193 0018 F369     		ldr	r3, [r6, #28]
 194 001a 2069     		ldr	r0, [r4, #16]
 210:STM32Cube_FW_N6/Utilities/lcd/stm32_lcd.c ****       FuncDriver.GetXSize(DrawProp->LcdDevice, &DrawProp[DrawProp->LcdLayer].LcdXsize);
 195              		.loc 1 210 26 view .LVU59
 196 001c E560     		str	r5, [r4, #12]
 197              		.loc 1 211 7 is_stmt 1 view .LVU60
 198 001e 1431     		adds	r1, r1, #20
 199 0020 9847     		blx	r3
 200              	.LVL8:
 212:STM32Cube_FW_N6/Utilities/lcd/stm32_lcd.c ****       FuncDriver.GetYSize(DrawProp->LcdDevice, &DrawProp[DrawProp->LcdLayer].LcdYsize);
 201              		.loc 1 212 7 view .LVU61
 202 0022 E168     		ldr	r1, [r4, #12]
 203 0024 336A     		ldr	r3, [r6, #32]
 204 0026 04EB4111 		add	r1, r4, r1, lsl #5
 205 002a 2069     		ldr	r0, [r4, #16]
 206 002c 1831     		adds	r1, r1, #24
 207 002e 9847     		blx	r3
 208              	.LVL9:
ARM GAS  C:\Users\DJESSOU\AppData\Local\Temp\ccR55SEh.s 			page 9


 213:STM32Cube_FW_N6/Utilities/lcd/stm32_lcd.c ****       FuncDriver.GetFormat(DrawProp->LcdDevice, &DrawProp[DrawProp->LcdLayer].LcdPixelFormat);
 209              		.loc 1 213 7 view .LVU62
 210 0030 E168     		ldr	r1, [r4, #12]
 211 0032 B36A     		ldr	r3, [r6, #40]
 212 0034 04EB4111 		add	r1, r4, r1, lsl #5
 213 0038 2069     		ldr	r0, [r4, #16]
 214 003a 1C31     		adds	r1, r1, #28
 214:STM32Cube_FW_N6/Utilities/lcd/stm32_lcd.c ****     }
 215:STM32Cube_FW_N6/Utilities/lcd/stm32_lcd.c ****   }
 216:STM32Cube_FW_N6/Utilities/lcd/stm32_lcd.c **** }
 215              		.loc 1 216 1 is_stmt 0 view .LVU63
 216 003c BDE87040 		pop	{r4, r5, r6, lr}
 217              		.cfi_remember_state
 218              		.cfi_restore 14
 219              		.cfi_restore 6
 220              		.cfi_restore 5
 221              		.cfi_restore 4
 222              		.cfi_def_cfa_offset 0
 223              	.LVL10:
 213:STM32Cube_FW_N6/Utilities/lcd/stm32_lcd.c ****       FuncDriver.GetFormat(DrawProp->LcdDevice, &DrawProp[DrawProp->LcdLayer].LcdPixelFormat);
 224              		.loc 1 213 7 view .LVU64
 225 0040 1847     		bx	r3
 226              	.LVL11:
 227              	.L4:
 228              		.cfi_restore_state
 229              		.loc 1 216 1 view .LVU65
 230 0042 70BD     		pop	{r4, r5, r6, pc}
 231              	.LVL12:
 232              	.L9:
 233              		.loc 1 216 1 view .LVU66
 234              		.align	2
 235              	.L8:
 236 0044 00000000 		.word	FuncDriver
 237 0048 00000000 		.word	DrawProp
 238              		.cfi_endproc
 239              	.LFE1:
 241              		.section	.text.UTIL_LCD_SetDevice,"ax",%progbits
 242              		.align	1
 243              		.global	UTIL_LCD_SetDevice
 244              		.syntax unified
 245              		.thumb
 246              		.thumb_func
 248              	UTIL_LCD_SetDevice:
 249              	.LVL13:
 250              	.LFB2:
 217:STM32Cube_FW_N6/Utilities/lcd/stm32_lcd.c **** 
 218:STM32Cube_FW_N6/Utilities/lcd/stm32_lcd.c **** /**
 219:STM32Cube_FW_N6/Utilities/lcd/stm32_lcd.c ****   * @brief  Set the LCD instance to be used.
 220:STM32Cube_FW_N6/Utilities/lcd/stm32_lcd.c ****   * @param  Device  LCD instance
 221:STM32Cube_FW_N6/Utilities/lcd/stm32_lcd.c ****   */
 222:STM32Cube_FW_N6/Utilities/lcd/stm32_lcd.c **** void UTIL_LCD_SetDevice(uint32_t Device)
 223:STM32Cube_FW_N6/Utilities/lcd/stm32_lcd.c **** {
 251              		.loc 1 223 1 is_stmt 1 view -0
 252              		.cfi_startproc
 253              		@ args = 0, pretend = 0, frame = 0
 254              		@ frame_needed = 0, uses_anonymous_args = 0
 224:STM32Cube_FW_N6/Utilities/lcd/stm32_lcd.c ****   DrawProp->LcdDevice = Device;
ARM GAS  C:\Users\DJESSOU\AppData\Local\Temp\ccR55SEh.s 			page 10


 255              		.loc 1 224 3 view .LVU68
 223:STM32Cube_FW_N6/Utilities/lcd/stm32_lcd.c ****   DrawProp->LcdDevice = Device;
 256              		.loc 1 223 1 is_stmt 0 view .LVU69
 257 0000 70B5     		push	{r4, r5, r6, lr}
 258              		.cfi_def_cfa_offset 16
 259              		.cfi_offset 4, -16
 260              		.cfi_offset 5, -12
 261              		.cfi_offset 6, -8
 262              		.cfi_offset 14, -4
 223:STM32Cube_FW_N6/Utilities/lcd/stm32_lcd.c ****   DrawProp->LcdDevice = Device;
 263              		.loc 1 223 1 view .LVU70
 264 0002 0446     		mov	r4, r0
 265              		.loc 1 224 23 view .LVU71
 266 0004 064D     		ldr	r5, .L11
 225:STM32Cube_FW_N6/Utilities/lcd/stm32_lcd.c ****   FuncDriver.GetXSize(Device, &DrawProp->LcdXsize);
 267              		.loc 1 225 13 view .LVU72
 268 0006 074E     		ldr	r6, .L11+4
 269              		.loc 1 225 3 view .LVU73
 270 0008 05F11401 		add	r1, r5, #20
 271 000c F369     		ldr	r3, [r6, #28]
 224:STM32Cube_FW_N6/Utilities/lcd/stm32_lcd.c ****   DrawProp->LcdDevice = Device;
 272              		.loc 1 224 23 view .LVU74
 273 000e 2861     		str	r0, [r5, #16]
 274              		.loc 1 225 3 is_stmt 1 view .LVU75
 275 0010 9847     		blx	r3
 276              	.LVL14:
 226:STM32Cube_FW_N6/Utilities/lcd/stm32_lcd.c ****   FuncDriver.GetYSize(Device, &DrawProp->LcdYsize);
 277              		.loc 1 226 3 view .LVU76
 278 0012 2046     		mov	r0, r4
 279 0014 336A     		ldr	r3, [r6, #32]
 280 0016 05F11801 		add	r1, r5, #24
 227:STM32Cube_FW_N6/Utilities/lcd/stm32_lcd.c **** }
 281              		.loc 1 227 1 is_stmt 0 view .LVU77
 282 001a BDE87040 		pop	{r4, r5, r6, lr}
 283              		.cfi_restore 14
 284              		.cfi_restore 6
 285              		.cfi_restore 5
 286              		.cfi_restore 4
 287              		.cfi_def_cfa_offset 0
 288              	.LVL15:
 226:STM32Cube_FW_N6/Utilities/lcd/stm32_lcd.c ****   FuncDriver.GetYSize(Device, &DrawProp->LcdYsize);
 289              		.loc 1 226 3 view .LVU78
 290 001e 1847     		bx	r3
 291              	.LVL16:
 292              	.L12:
 226:STM32Cube_FW_N6/Utilities/lcd/stm32_lcd.c ****   FuncDriver.GetYSize(Device, &DrawProp->LcdYsize);
 293              		.loc 1 226 3 view .LVU79
 294              		.align	2
 295              	.L11:
 296 0020 00000000 		.word	DrawProp
 297 0024 00000000 		.word	FuncDriver
 298              		.cfi_endproc
 299              	.LFE2:
 301              		.section	.text.UTIL_LCD_SetTextColor,"ax",%progbits
 302              		.align	1
 303              		.global	UTIL_LCD_SetTextColor
 304              		.syntax unified
ARM GAS  C:\Users\DJESSOU\AppData\Local\Temp\ccR55SEh.s 			page 11


 305              		.thumb
 306              		.thumb_func
 308              	UTIL_LCD_SetTextColor:
 309              	.LVL17:
 310              	.LFB3:
 228:STM32Cube_FW_N6/Utilities/lcd/stm32_lcd.c **** 
 229:STM32Cube_FW_N6/Utilities/lcd/stm32_lcd.c **** /**
 230:STM32Cube_FW_N6/Utilities/lcd/stm32_lcd.c ****   * @brief  Sets the LCD text color.
 231:STM32Cube_FW_N6/Utilities/lcd/stm32_lcd.c ****   * @param  Color  Text color code
 232:STM32Cube_FW_N6/Utilities/lcd/stm32_lcd.c ****   */
 233:STM32Cube_FW_N6/Utilities/lcd/stm32_lcd.c **** void UTIL_LCD_SetTextColor(uint32_t Color)
 234:STM32Cube_FW_N6/Utilities/lcd/stm32_lcd.c **** {
 311              		.loc 1 234 1 is_stmt 1 view -0
 312              		.cfi_startproc
 313              		@ args = 0, pretend = 0, frame = 0
 314              		@ frame_needed = 0, uses_anonymous_args = 0
 315              		@ link register save eliminated.
 235:STM32Cube_FW_N6/Utilities/lcd/stm32_lcd.c ****   DrawProp[DrawProp->LcdLayer].TextColor = Color;
 316              		.loc 1 235 3 view .LVU81
 317              		.loc 1 235 42 is_stmt 0 view .LVU82
 318 0000 024A     		ldr	r2, .L14
 319 0002 D368     		ldr	r3, [r2, #12]
 320 0004 5B01     		lsls	r3, r3, #5
 321 0006 D050     		str	r0, [r2, r3]
 236:STM32Cube_FW_N6/Utilities/lcd/stm32_lcd.c **** }
 322              		.loc 1 236 1 view .LVU83
 323 0008 7047     		bx	lr
 324              	.L15:
 325 000a 00BF     		.align	2
 326              	.L14:
 327 000c 00000000 		.word	DrawProp
 328              		.cfi_endproc
 329              	.LFE3:
 331              		.section	.text.UTIL_LCD_GetTextColor,"ax",%progbits
 332              		.align	1
 333              		.global	UTIL_LCD_GetTextColor
 334              		.syntax unified
 335              		.thumb
 336              		.thumb_func
 338              	UTIL_LCD_GetTextColor:
 339              	.LFB4:
 237:STM32Cube_FW_N6/Utilities/lcd/stm32_lcd.c **** 
 238:STM32Cube_FW_N6/Utilities/lcd/stm32_lcd.c **** /**
 239:STM32Cube_FW_N6/Utilities/lcd/stm32_lcd.c ****   * @brief  Gets the LCD text color.
 240:STM32Cube_FW_N6/Utilities/lcd/stm32_lcd.c ****   * @retval Used text color.
 241:STM32Cube_FW_N6/Utilities/lcd/stm32_lcd.c ****   */
 242:STM32Cube_FW_N6/Utilities/lcd/stm32_lcd.c **** uint32_t UTIL_LCD_GetTextColor(void)
 243:STM32Cube_FW_N6/Utilities/lcd/stm32_lcd.c **** {
 340              		.loc 1 243 1 is_stmt 1 view -0
 341              		.cfi_startproc
 342              		@ args = 0, pretend = 0, frame = 0
 343              		@ frame_needed = 0, uses_anonymous_args = 0
 344              		@ link register save eliminated.
 244:STM32Cube_FW_N6/Utilities/lcd/stm32_lcd.c ****   return DrawProp[DrawProp->LcdLayer].TextColor;
 345              		.loc 1 244 3 view .LVU85
 346              		.loc 1 244 38 is_stmt 0 view .LVU86
 347 0000 024A     		ldr	r2, .L17
ARM GAS  C:\Users\DJESSOU\AppData\Local\Temp\ccR55SEh.s 			page 12


 348 0002 D368     		ldr	r3, [r2, #12]
 349 0004 5B01     		lsls	r3, r3, #5
 245:STM32Cube_FW_N6/Utilities/lcd/stm32_lcd.c **** }
 350              		.loc 1 245 1 view .LVU87
 351 0006 D058     		ldr	r0, [r2, r3]
 352 0008 7047     		bx	lr
 353              	.L18:
 354 000a 00BF     		.align	2
 355              	.L17:
 356 000c 00000000 		.word	DrawProp
 357              		.cfi_endproc
 358              	.LFE4:
 360              		.section	.text.UTIL_LCD_SetBackColor,"ax",%progbits
 361              		.align	1
 362              		.global	UTIL_LCD_SetBackColor
 363              		.syntax unified
 364              		.thumb
 365              		.thumb_func
 367              	UTIL_LCD_SetBackColor:
 368              	.LVL18:
 369              	.LFB5:
 246:STM32Cube_FW_N6/Utilities/lcd/stm32_lcd.c **** 
 247:STM32Cube_FW_N6/Utilities/lcd/stm32_lcd.c **** /**
 248:STM32Cube_FW_N6/Utilities/lcd/stm32_lcd.c ****   * @brief  Sets the LCD background color.
 249:STM32Cube_FW_N6/Utilities/lcd/stm32_lcd.c ****   * @param  Color  Layer background color code
 250:STM32Cube_FW_N6/Utilities/lcd/stm32_lcd.c ****   */
 251:STM32Cube_FW_N6/Utilities/lcd/stm32_lcd.c **** void UTIL_LCD_SetBackColor(uint32_t Color)
 252:STM32Cube_FW_N6/Utilities/lcd/stm32_lcd.c **** {
 370              		.loc 1 252 1 is_stmt 1 view -0
 371              		.cfi_startproc
 372              		@ args = 0, pretend = 0, frame = 0
 373              		@ frame_needed = 0, uses_anonymous_args = 0
 374              		@ link register save eliminated.
 253:STM32Cube_FW_N6/Utilities/lcd/stm32_lcd.c ****   DrawProp[DrawProp->LcdLayer].BackColor = Color;
 375              		.loc 1 253 3 view .LVU89
 376              		.loc 1 253 42 is_stmt 0 view .LVU90
 377 0000 024B     		ldr	r3, .L20
 378 0002 DA68     		ldr	r2, [r3, #12]
 379 0004 03EB4213 		add	r3, r3, r2, lsl #5
 380 0008 5860     		str	r0, [r3, #4]
 254:STM32Cube_FW_N6/Utilities/lcd/stm32_lcd.c **** }
 381              		.loc 1 254 1 view .LVU91
 382 000a 7047     		bx	lr
 383              	.L21:
 384              		.align	2
 385              	.L20:
 386 000c 00000000 		.word	DrawProp
 387              		.cfi_endproc
 388              	.LFE5:
 390              		.section	.text.UTIL_LCD_GetBackColor,"ax",%progbits
 391              		.align	1
 392              		.global	UTIL_LCD_GetBackColor
 393              		.syntax unified
 394              		.thumb
 395              		.thumb_func
 397              	UTIL_LCD_GetBackColor:
 398              	.LFB6:
ARM GAS  C:\Users\DJESSOU\AppData\Local\Temp\ccR55SEh.s 			page 13


 255:STM32Cube_FW_N6/Utilities/lcd/stm32_lcd.c **** 
 256:STM32Cube_FW_N6/Utilities/lcd/stm32_lcd.c **** /**
 257:STM32Cube_FW_N6/Utilities/lcd/stm32_lcd.c ****   * @brief  Gets the LCD background color.
 258:STM32Cube_FW_N6/Utilities/lcd/stm32_lcd.c ****   * @retval Used background color
 259:STM32Cube_FW_N6/Utilities/lcd/stm32_lcd.c ****   */
 260:STM32Cube_FW_N6/Utilities/lcd/stm32_lcd.c **** uint32_t UTIL_LCD_GetBackColor(void)
 261:STM32Cube_FW_N6/Utilities/lcd/stm32_lcd.c **** {
 399              		.loc 1 261 1 is_stmt 1 view -0
 400              		.cfi_startproc
 401              		@ args = 0, pretend = 0, frame = 0
 402              		@ frame_needed = 0, uses_anonymous_args = 0
 403              		@ link register save eliminated.
 262:STM32Cube_FW_N6/Utilities/lcd/stm32_lcd.c ****   return DrawProp[DrawProp->LcdLayer].BackColor;
 404              		.loc 1 262 3 view .LVU93
 405              		.loc 1 262 38 is_stmt 0 view .LVU94
 406 0000 024B     		ldr	r3, .L23
 407 0002 DA68     		ldr	r2, [r3, #12]
 408 0004 03EB4213 		add	r3, r3, r2, lsl #5
 263:STM32Cube_FW_N6/Utilities/lcd/stm32_lcd.c **** }
 409              		.loc 1 263 1 view .LVU95
 410 0008 5868     		ldr	r0, [r3, #4]
 411 000a 7047     		bx	lr
 412              	.L24:
 413              		.align	2
 414              	.L23:
 415 000c 00000000 		.word	DrawProp
 416              		.cfi_endproc
 417              	.LFE6:
 419              		.section	.text.UTIL_LCD_SetFont,"ax",%progbits
 420              		.align	1
 421              		.global	UTIL_LCD_SetFont
 422              		.syntax unified
 423              		.thumb
 424              		.thumb_func
 426              	UTIL_LCD_SetFont:
 427              	.LVL19:
 428              	.LFB7:
 264:STM32Cube_FW_N6/Utilities/lcd/stm32_lcd.c **** 
 265:STM32Cube_FW_N6/Utilities/lcd/stm32_lcd.c **** /**
 266:STM32Cube_FW_N6/Utilities/lcd/stm32_lcd.c ****   * @brief  Sets the LCD text font.
 267:STM32Cube_FW_N6/Utilities/lcd/stm32_lcd.c ****   * @param  fonts  Layer font to be used
 268:STM32Cube_FW_N6/Utilities/lcd/stm32_lcd.c ****   */
 269:STM32Cube_FW_N6/Utilities/lcd/stm32_lcd.c **** void UTIL_LCD_SetFont(sFONT *fonts)
 270:STM32Cube_FW_N6/Utilities/lcd/stm32_lcd.c **** {
 429              		.loc 1 270 1 is_stmt 1 view -0
 430              		.cfi_startproc
 431              		@ args = 0, pretend = 0, frame = 0
 432              		@ frame_needed = 0, uses_anonymous_args = 0
 433              		@ link register save eliminated.
 271:STM32Cube_FW_N6/Utilities/lcd/stm32_lcd.c ****   DrawProp[DrawProp->LcdLayer].pFont = fonts;
 434              		.loc 1 271 3 view .LVU97
 435              		.loc 1 271 38 is_stmt 0 view .LVU98
 436 0000 024B     		ldr	r3, .L26
 437 0002 DA68     		ldr	r2, [r3, #12]
 438 0004 03EB4213 		add	r3, r3, r2, lsl #5
 439 0008 9860     		str	r0, [r3, #8]
 272:STM32Cube_FW_N6/Utilities/lcd/stm32_lcd.c **** }
ARM GAS  C:\Users\DJESSOU\AppData\Local\Temp\ccR55SEh.s 			page 14


 440              		.loc 1 272 1 view .LVU99
 441 000a 7047     		bx	lr
 442              	.L27:
 443              		.align	2
 444              	.L26:
 445 000c 00000000 		.word	DrawProp
 446              		.cfi_endproc
 447              	.LFE7:
 449              		.section	.text.UTIL_LCD_GetFont,"ax",%progbits
 450              		.align	1
 451              		.global	UTIL_LCD_GetFont
 452              		.syntax unified
 453              		.thumb
 454              		.thumb_func
 456              	UTIL_LCD_GetFont:
 457              	.LFB8:
 273:STM32Cube_FW_N6/Utilities/lcd/stm32_lcd.c **** 
 274:STM32Cube_FW_N6/Utilities/lcd/stm32_lcd.c **** /**
 275:STM32Cube_FW_N6/Utilities/lcd/stm32_lcd.c ****   * @brief  Gets the LCD text font.
 276:STM32Cube_FW_N6/Utilities/lcd/stm32_lcd.c ****   * @retval Used layer font
 277:STM32Cube_FW_N6/Utilities/lcd/stm32_lcd.c ****   */
 278:STM32Cube_FW_N6/Utilities/lcd/stm32_lcd.c **** sFONT *UTIL_LCD_GetFont(void)
 279:STM32Cube_FW_N6/Utilities/lcd/stm32_lcd.c **** {
 458              		.loc 1 279 1 is_stmt 1 view -0
 459              		.cfi_startproc
 460              		@ args = 0, pretend = 0, frame = 0
 461              		@ frame_needed = 0, uses_anonymous_args = 0
 462              		@ link register save eliminated.
 280:STM32Cube_FW_N6/Utilities/lcd/stm32_lcd.c ****   return DrawProp[DrawProp->LcdLayer].pFont;
 463              		.loc 1 280 3 view .LVU101
 464              		.loc 1 280 38 is_stmt 0 view .LVU102
 465 0000 024B     		ldr	r3, .L29
 466 0002 DA68     		ldr	r2, [r3, #12]
 467 0004 03EB4213 		add	r3, r3, r2, lsl #5
 281:STM32Cube_FW_N6/Utilities/lcd/stm32_lcd.c **** }
 468              		.loc 1 281 1 view .LVU103
 469 0008 9868     		ldr	r0, [r3, #8]
 470 000a 7047     		bx	lr
 471              	.L30:
 472              		.align	2
 473              	.L29:
 474 000c 00000000 		.word	DrawProp
 475              		.cfi_endproc
 476              	.LFE8:
 478              		.section	.text.UTIL_LCD_FillRGBRect,"ax",%progbits
 479              		.align	1
 480              		.global	UTIL_LCD_FillRGBRect
 481              		.syntax unified
 482              		.thumb
 483              		.thumb_func
 485              	UTIL_LCD_FillRGBRect:
 486              	.LVL20:
 487              	.LFB9:
 282:STM32Cube_FW_N6/Utilities/lcd/stm32_lcd.c **** 
 283:STM32Cube_FW_N6/Utilities/lcd/stm32_lcd.c **** /**
 284:STM32Cube_FW_N6/Utilities/lcd/stm32_lcd.c ****   * @brief  Draws a RGB rectangle in currently active layer.
 285:STM32Cube_FW_N6/Utilities/lcd/stm32_lcd.c ****   * @param  pData   Pointer to RGB rectangle data
ARM GAS  C:\Users\DJESSOU\AppData\Local\Temp\ccR55SEh.s 			page 15


 286:STM32Cube_FW_N6/Utilities/lcd/stm32_lcd.c ****   * @param  Xpos    X position
 287:STM32Cube_FW_N6/Utilities/lcd/stm32_lcd.c ****   * @param  Ypos    Y position
 288:STM32Cube_FW_N6/Utilities/lcd/stm32_lcd.c ****   * @param  Length  Line length
 289:STM32Cube_FW_N6/Utilities/lcd/stm32_lcd.c ****   */
 290:STM32Cube_FW_N6/Utilities/lcd/stm32_lcd.c **** void UTIL_LCD_FillRGBRect(uint32_t Xpos, uint32_t Ypos, uint8_t *pData, uint32_t Width, uint32_t He
 291:STM32Cube_FW_N6/Utilities/lcd/stm32_lcd.c **** {
 488              		.loc 1 291 1 is_stmt 1 view -0
 489              		.cfi_startproc
 490              		@ args = 4, pretend = 0, frame = 0
 491              		@ frame_needed = 0, uses_anonymous_args = 0
 292:STM32Cube_FW_N6/Utilities/lcd/stm32_lcd.c ****   /* Write RGB rectangle data */
 293:STM32Cube_FW_N6/Utilities/lcd/stm32_lcd.c ****   FuncDriver.FillRGBRect(DrawProp->LcdDevice, Xpos, Ypos, pData, Width, Height);
 492              		.loc 1 293 3 view .LVU105
 291:STM32Cube_FW_N6/Utilities/lcd/stm32_lcd.c ****   /* Write RGB rectangle data */
 493              		.loc 1 291 1 is_stmt 0 view .LVU106
 494 0000 13B5     		push	{r0, r1, r4, lr}
 495              		.cfi_def_cfa_offset 16
 496              		.cfi_offset 4, -8
 497              		.cfi_offset 14, -4
 498              		.loc 1 293 3 view .LVU107
 499 0002 049C     		ldr	r4, [sp, #16]
 500 0004 CDE90034 		strd	r3, r4, [sp]
 501 0008 044B     		ldr	r3, .L32
 502              	.LVL21:
 503              		.loc 1 293 3 view .LVU108
 504 000a 5C68     		ldr	r4, [r3, #4]
 505 000c 1346     		mov	r3, r2
 506 000e 0A46     		mov	r2, r1
 507              	.LVL22:
 508              		.loc 1 293 3 view .LVU109
 509 0010 0146     		mov	r1, r0
 510              	.LVL23:
 511              		.loc 1 293 3 view .LVU110
 512 0012 0348     		ldr	r0, .L32+4
 513              	.LVL24:
 514              		.loc 1 293 3 view .LVU111
 515 0014 0069     		ldr	r0, [r0, #16]
 516 0016 A047     		blx	r4
 517              	.LVL25:
 294:STM32Cube_FW_N6/Utilities/lcd/stm32_lcd.c **** }
 518              		.loc 1 294 1 view .LVU112
 519 0018 02B0     		add	sp, sp, #8
 520              		.cfi_def_cfa_offset 8
 521              		@ sp needed
 522 001a 10BD     		pop	{r4, pc}
 523              	.LVL26:
 524              	.L33:
 525              		.loc 1 294 1 view .LVU113
 526              		.align	2
 527              	.L32:
 528 001c 00000000 		.word	FuncDriver
 529 0020 00000000 		.word	DrawProp
 530              		.cfi_endproc
 531              	.LFE9:
 533              		.section	.text.UTIL_LCD_DrawHLine,"ax",%progbits
 534              		.align	1
 535              		.global	UTIL_LCD_DrawHLine
ARM GAS  C:\Users\DJESSOU\AppData\Local\Temp\ccR55SEh.s 			page 16


 536              		.syntax unified
 537              		.thumb
 538              		.thumb_func
 540              	UTIL_LCD_DrawHLine:
 541              	.LVL27:
 542              	.LFB10:
 295:STM32Cube_FW_N6/Utilities/lcd/stm32_lcd.c **** 
 296:STM32Cube_FW_N6/Utilities/lcd/stm32_lcd.c **** /**
 297:STM32Cube_FW_N6/Utilities/lcd/stm32_lcd.c ****   * @brief  Draws an horizontal line in currently active layer.
 298:STM32Cube_FW_N6/Utilities/lcd/stm32_lcd.c ****   * @param  Xpos    X position
 299:STM32Cube_FW_N6/Utilities/lcd/stm32_lcd.c ****   * @param  Ypos    Y position
 300:STM32Cube_FW_N6/Utilities/lcd/stm32_lcd.c ****   * @param  Length  Line length
 301:STM32Cube_FW_N6/Utilities/lcd/stm32_lcd.c ****   * @param  Color   Draw color
 302:STM32Cube_FW_N6/Utilities/lcd/stm32_lcd.c ****   */
 303:STM32Cube_FW_N6/Utilities/lcd/stm32_lcd.c **** void UTIL_LCD_DrawHLine(uint32_t Xpos, uint32_t Ypos, uint32_t Length, uint32_t Color)
 304:STM32Cube_FW_N6/Utilities/lcd/stm32_lcd.c **** {
 543              		.loc 1 304 1 is_stmt 1 view -0
 544              		.cfi_startproc
 545              		@ args = 0, pretend = 0, frame = 0
 546              		@ frame_needed = 0, uses_anonymous_args = 0
 305:STM32Cube_FW_N6/Utilities/lcd/stm32_lcd.c ****   /* Write line */
 306:STM32Cube_FW_N6/Utilities/lcd/stm32_lcd.c ****   if(DrawProp[DrawProp->LcdLayer].LcdPixelFormat == LCD_PIXEL_FORMAT_RGB565)
 547              		.loc 1 306 3 view .LVU115
 304:STM32Cube_FW_N6/Utilities/lcd/stm32_lcd.c ****   /* Write line */
 548              		.loc 1 304 1 is_stmt 0 view .LVU116
 549 0000 F7B5     		push	{r0, r1, r2, r4, r5, r6, r7, lr}
 550              		.cfi_def_cfa_offset 32
 551              		.cfi_offset 4, -20
 552              		.cfi_offset 5, -16
 553              		.cfi_offset 6, -12
 554              		.cfi_offset 7, -8
 555              		.cfi_offset 14, -4
 304:STM32Cube_FW_N6/Utilities/lcd/stm32_lcd.c ****   /* Write line */
 556              		.loc 1 304 1 view .LVU117
 557 0002 0646     		mov	r6, r0
 558              		.loc 1 306 34 view .LVU118
 559 0004 1748     		ldr	r0, .L41
 560              	.LVL28:
 307:STM32Cube_FW_N6/Utilities/lcd/stm32_lcd.c ****   {
 308:STM32Cube_FW_N6/Utilities/lcd/stm32_lcd.c ****     FuncDriver.DrawHLine(DrawProp->LcdDevice, Xpos, Ypos, Length, CONVERTARGB88882RGB565(Color));
 561              		.loc 1 308 15 view .LVU119
 562 0006 184D     		ldr	r5, .L41+4
 306:STM32Cube_FW_N6/Utilities/lcd/stm32_lcd.c ****   {
 563              		.loc 1 306 34 view .LVU120
 564 0008 C468     		ldr	r4, [r0, #12]
 565              		.loc 1 308 15 view .LVU121
 566 000a AD68     		ldr	r5, [r5, #8]
 306:STM32Cube_FW_N6/Utilities/lcd/stm32_lcd.c ****   {
 567              		.loc 1 306 34 view .LVU122
 568 000c 00EB4414 		add	r4, r0, r4, lsl #5
 569 0010 E469     		ldr	r4, [r4, #28]
 570              		.loc 1 308 5 view .LVU123
 571 0012 0069     		ldr	r0, [r0, #16]
 306:STM32Cube_FW_N6/Utilities/lcd/stm32_lcd.c ****   {
 572              		.loc 1 306 5 view .LVU124
 573 0014 022C     		cmp	r4, #2
 574 0016 10D1     		bne	.L35
ARM GAS  C:\Users\DJESSOU\AppData\Local\Temp\ccR55SEh.s 			page 17


 575              		.loc 1 308 5 is_stmt 1 view .LVU125
 576              		.loc 1 308 67 is_stmt 0 view .LVU126
 577 0018 5C09     		lsrs	r4, r3, #5
 578 001a 1F0A     		lsrs	r7, r3, #8
 579 001c 04F4FC64 		and	r4, r4, #2016
 580 0020 07F47847 		and	r7, r7, #63488
 581              		.loc 1 308 5 view .LVU127
 582 0024 3C43     		orrs	r4, r4, r7
 583              		.loc 1 308 67 view .LVU128
 584 0026 C3F3C403 		ubfx	r3, r3, #3, #5
 585              	.LVL29:
 586              	.L40:
 309:STM32Cube_FW_N6/Utilities/lcd/stm32_lcd.c ****   }
 310:STM32Cube_FW_N6/Utilities/lcd/stm32_lcd.c ****   else if(DrawProp[DrawProp->LcdLayer].LcdPixelFormat == LCD_PIXEL_FORMAT_RGB888)
 311:STM32Cube_FW_N6/Utilities/lcd/stm32_lcd.c ****   {
 312:STM32Cube_FW_N6/Utilities/lcd/stm32_lcd.c ****     FuncDriver.DrawHLine(DrawProp->LcdDevice, Xpos, Ypos, Length, CONVERTARGB88882RGB888(Color));
 313:STM32Cube_FW_N6/Utilities/lcd/stm32_lcd.c ****   }
 314:STM32Cube_FW_N6/Utilities/lcd/stm32_lcd.c ****   else if(DrawProp[DrawProp->LcdLayer].LcdPixelFormat == LCD_PIXEL_FORMAT_ARGB4444)
 315:STM32Cube_FW_N6/Utilities/lcd/stm32_lcd.c ****   {
 316:STM32Cube_FW_N6/Utilities/lcd/stm32_lcd.c ****     FuncDriver.DrawHLine(DrawProp->LcdDevice, Xpos, Ypos, Length, CONVERTARGB88882ARGB4444(Color));
 587              		.loc 1 316 5 view .LVU129
 588 002a 1C43     		orrs	r4, r4, r3
 589 002c 0094     		str	r4, [sp]
 590              	.L39:
 317:STM32Cube_FW_N6/Utilities/lcd/stm32_lcd.c ****   }
 318:STM32Cube_FW_N6/Utilities/lcd/stm32_lcd.c ****   else /*LCD_PIXEL_FORMAT_ARGB8888*/
 319:STM32Cube_FW_N6/Utilities/lcd/stm32_lcd.c ****   {
 320:STM32Cube_FW_N6/Utilities/lcd/stm32_lcd.c ****     FuncDriver.DrawHLine(DrawProp->LcdDevice, Xpos, Ypos, Length, Color);
 591              		.loc 1 320 5 view .LVU130
 592 002e 1346     		mov	r3, r2
 593 0030 0A46     		mov	r2, r1
 594              	.LVL30:
 595              		.loc 1 320 5 view .LVU131
 596 0032 3146     		mov	r1, r6
 597              	.LVL31:
 598              		.loc 1 320 5 view .LVU132
 599 0034 A847     		blx	r5
 600              	.LVL32:
 321:STM32Cube_FW_N6/Utilities/lcd/stm32_lcd.c ****   }
 322:STM32Cube_FW_N6/Utilities/lcd/stm32_lcd.c **** }
 601              		.loc 1 322 1 view .LVU133
 602 0036 03B0     		add	sp, sp, #12
 603              		.cfi_remember_state
 604              		.cfi_def_cfa_offset 20
 605              		@ sp needed
 606 0038 F0BD     		pop	{r4, r5, r6, r7, pc}
 607              	.LVL33:
 608              	.L35:
 609              		.cfi_restore_state
 310:STM32Cube_FW_N6/Utilities/lcd/stm32_lcd.c ****   {
 610              		.loc 1 310 8 is_stmt 1 view .LVU134
 310:STM32Cube_FW_N6/Utilities/lcd/stm32_lcd.c ****   {
 611              		.loc 1 310 10 is_stmt 0 view .LVU135
 612 003a 012C     		cmp	r4, #1
 613 003c 03D1     		bne	.L37
 312:STM32Cube_FW_N6/Utilities/lcd/stm32_lcd.c ****   }
 614              		.loc 1 312 5 is_stmt 1 view .LVU136
ARM GAS  C:\Users\DJESSOU\AppData\Local\Temp\ccR55SEh.s 			page 18


 615 003e 23F07F43 		bic	r3, r3, #-16777216
 616              	.LVL34:
 617              	.L38:
 320:STM32Cube_FW_N6/Utilities/lcd/stm32_lcd.c ****   }
 618              		.loc 1 320 5 view .LVU137
 619 0042 0093     		str	r3, [sp]
 620 0044 F3E7     		b	.L39
 621              	.LVL35:
 622              	.L37:
 314:STM32Cube_FW_N6/Utilities/lcd/stm32_lcd.c ****   {
 623              		.loc 1 314 8 view .LVU138
 314:STM32Cube_FW_N6/Utilities/lcd/stm32_lcd.c ****   {
 624              		.loc 1 314 10 is_stmt 0 view .LVU139
 625 0046 042C     		cmp	r4, #4
 626 0048 FBD1     		bne	.L38
 316:STM32Cube_FW_N6/Utilities/lcd/stm32_lcd.c ****   }
 627              		.loc 1 316 5 is_stmt 1 view .LVU140
 316:STM32Cube_FW_N6/Utilities/lcd/stm32_lcd.c ****   }
 628              		.loc 1 316 67 is_stmt 0 view .LVU141
 629 004a 1F0F     		lsrs	r7, r3, #28
 630 004c C3F30314 		ubfx	r4, r3, #4, #4
 316:STM32Cube_FW_N6/Utilities/lcd/stm32_lcd.c ****   }
 631              		.loc 1 316 5 view .LVU142
 632 0050 44EA0734 		orr	r4, r4, r7, lsl #12
 316:STM32Cube_FW_N6/Utilities/lcd/stm32_lcd.c ****   }
 633              		.loc 1 316 67 view .LVU143
 634 0054 1F0A     		lsrs	r7, r3, #8
 635 0056 07F0F007 		and	r7, r7, #240
 636 005a 1B0B     		lsrs	r3, r3, #12
 637              	.LVL36:
 316:STM32Cube_FW_N6/Utilities/lcd/stm32_lcd.c ****   }
 638              		.loc 1 316 5 view .LVU144
 639 005c 3C43     		orrs	r4, r4, r7
 316:STM32Cube_FW_N6/Utilities/lcd/stm32_lcd.c ****   }
 640              		.loc 1 316 67 view .LVU145
 641 005e 03F47063 		and	r3, r3, #3840
 642 0062 E2E7     		b	.L40
 643              	.L42:
 644              		.align	2
 645              	.L41:
 646 0064 00000000 		.word	DrawProp
 647 0068 00000000 		.word	FuncDriver
 648              		.cfi_endproc
 649              	.LFE10:
 651              		.section	.text.UTIL_LCD_DrawVLine,"ax",%progbits
 652              		.align	1
 653              		.global	UTIL_LCD_DrawVLine
 654              		.syntax unified
 655              		.thumb
 656              		.thumb_func
 658              	UTIL_LCD_DrawVLine:
 659              	.LVL37:
 660              	.LFB11:
 323:STM32Cube_FW_N6/Utilities/lcd/stm32_lcd.c **** 
 324:STM32Cube_FW_N6/Utilities/lcd/stm32_lcd.c **** /**
 325:STM32Cube_FW_N6/Utilities/lcd/stm32_lcd.c ****   * @brief  Draws a vertical line in currently active layer.
 326:STM32Cube_FW_N6/Utilities/lcd/stm32_lcd.c ****   * @param  Xpos    X position
ARM GAS  C:\Users\DJESSOU\AppData\Local\Temp\ccR55SEh.s 			page 19


 327:STM32Cube_FW_N6/Utilities/lcd/stm32_lcd.c ****   * @param  Ypos    Y position
 328:STM32Cube_FW_N6/Utilities/lcd/stm32_lcd.c ****   * @param  Length  Line length
 329:STM32Cube_FW_N6/Utilities/lcd/stm32_lcd.c ****   * @param  Color   Draw color
 330:STM32Cube_FW_N6/Utilities/lcd/stm32_lcd.c ****   */
 331:STM32Cube_FW_N6/Utilities/lcd/stm32_lcd.c **** void UTIL_LCD_DrawVLine(uint32_t Xpos, uint32_t Ypos, uint32_t Length, uint32_t Color)
 332:STM32Cube_FW_N6/Utilities/lcd/stm32_lcd.c **** {
 661              		.loc 1 332 1 is_stmt 1 view -0
 662              		.cfi_startproc
 663              		@ args = 0, pretend = 0, frame = 0
 664              		@ frame_needed = 0, uses_anonymous_args = 0
 333:STM32Cube_FW_N6/Utilities/lcd/stm32_lcd.c ****   /* Write line */
 334:STM32Cube_FW_N6/Utilities/lcd/stm32_lcd.c ****   if(DrawProp[DrawProp->LcdLayer].LcdPixelFormat == LCD_PIXEL_FORMAT_RGB565)
 665              		.loc 1 334 3 view .LVU147
 332:STM32Cube_FW_N6/Utilities/lcd/stm32_lcd.c ****   /* Write line */
 666              		.loc 1 332 1 is_stmt 0 view .LVU148
 667 0000 F7B5     		push	{r0, r1, r2, r4, r5, r6, r7, lr}
 668              		.cfi_def_cfa_offset 32
 669              		.cfi_offset 4, -20
 670              		.cfi_offset 5, -16
 671              		.cfi_offset 6, -12
 672              		.cfi_offset 7, -8
 673              		.cfi_offset 14, -4
 332:STM32Cube_FW_N6/Utilities/lcd/stm32_lcd.c ****   /* Write line */
 674              		.loc 1 332 1 view .LVU149
 675 0002 0646     		mov	r6, r0
 676              		.loc 1 334 34 view .LVU150
 677 0004 1748     		ldr	r0, .L50
 678              	.LVL38:
 335:STM32Cube_FW_N6/Utilities/lcd/stm32_lcd.c ****   {
 336:STM32Cube_FW_N6/Utilities/lcd/stm32_lcd.c ****     FuncDriver.DrawVLine(DrawProp->LcdDevice, Xpos, Ypos, Length, CONVERTARGB88882RGB565(Color));
 679              		.loc 1 336 15 view .LVU151
 680 0006 184D     		ldr	r5, .L50+4
 334:STM32Cube_FW_N6/Utilities/lcd/stm32_lcd.c ****   {
 681              		.loc 1 334 34 view .LVU152
 682 0008 C468     		ldr	r4, [r0, #12]
 683              		.loc 1 336 15 view .LVU153
 684 000a ED68     		ldr	r5, [r5, #12]
 334:STM32Cube_FW_N6/Utilities/lcd/stm32_lcd.c ****   {
 685              		.loc 1 334 34 view .LVU154
 686 000c 00EB4414 		add	r4, r0, r4, lsl #5
 687 0010 E469     		ldr	r4, [r4, #28]
 688              		.loc 1 336 5 view .LVU155
 689 0012 0069     		ldr	r0, [r0, #16]
 334:STM32Cube_FW_N6/Utilities/lcd/stm32_lcd.c ****   {
 690              		.loc 1 334 5 view .LVU156
 691 0014 022C     		cmp	r4, #2
 692 0016 10D1     		bne	.L44
 693              		.loc 1 336 5 is_stmt 1 view .LVU157
 694              		.loc 1 336 67 is_stmt 0 view .LVU158
 695 0018 5C09     		lsrs	r4, r3, #5
 696 001a 1F0A     		lsrs	r7, r3, #8
 697 001c 04F4FC64 		and	r4, r4, #2016
 698 0020 07F47847 		and	r7, r7, #63488
 699              		.loc 1 336 5 view .LVU159
 700 0024 3C43     		orrs	r4, r4, r7
 701              		.loc 1 336 67 view .LVU160
 702 0026 C3F3C403 		ubfx	r3, r3, #3, #5
ARM GAS  C:\Users\DJESSOU\AppData\Local\Temp\ccR55SEh.s 			page 20


 703              	.LVL39:
 704              	.L49:
 337:STM32Cube_FW_N6/Utilities/lcd/stm32_lcd.c ****   }
 338:STM32Cube_FW_N6/Utilities/lcd/stm32_lcd.c ****   else if(DrawProp[DrawProp->LcdLayer].LcdPixelFormat == LCD_PIXEL_FORMAT_RGB888)
 339:STM32Cube_FW_N6/Utilities/lcd/stm32_lcd.c ****   {
 340:STM32Cube_FW_N6/Utilities/lcd/stm32_lcd.c ****     FuncDriver.DrawVLine(DrawProp->LcdDevice, Xpos, Ypos, Length, CONVERTARGB88882RGB888(Color));
 341:STM32Cube_FW_N6/Utilities/lcd/stm32_lcd.c ****   }
 342:STM32Cube_FW_N6/Utilities/lcd/stm32_lcd.c ****   else if(DrawProp[DrawProp->LcdLayer].LcdPixelFormat == LCD_PIXEL_FORMAT_ARGB4444)
 343:STM32Cube_FW_N6/Utilities/lcd/stm32_lcd.c ****   {
 344:STM32Cube_FW_N6/Utilities/lcd/stm32_lcd.c ****     FuncDriver.DrawVLine(DrawProp->LcdDevice, Xpos, Ypos, Length, CONVERTARGB88882ARGB4444(Color));
 705              		.loc 1 344 5 view .LVU161
 706 002a 1C43     		orrs	r4, r4, r3
 707 002c 0094     		str	r4, [sp]
 708              	.L48:
 345:STM32Cube_FW_N6/Utilities/lcd/stm32_lcd.c ****   }
 346:STM32Cube_FW_N6/Utilities/lcd/stm32_lcd.c ****   else /*LCD_PIXEL_FORMAT_ARGB888*/
 347:STM32Cube_FW_N6/Utilities/lcd/stm32_lcd.c ****   {
 348:STM32Cube_FW_N6/Utilities/lcd/stm32_lcd.c ****     FuncDriver.DrawVLine(DrawProp->LcdDevice, Xpos, Ypos, Length, Color);
 709              		.loc 1 348 5 view .LVU162
 710 002e 1346     		mov	r3, r2
 711 0030 0A46     		mov	r2, r1
 712              	.LVL40:
 713              		.loc 1 348 5 view .LVU163
 714 0032 3146     		mov	r1, r6
 715              	.LVL41:
 716              		.loc 1 348 5 view .LVU164
 717 0034 A847     		blx	r5
 718              	.LVL42:
 349:STM32Cube_FW_N6/Utilities/lcd/stm32_lcd.c ****   }
 350:STM32Cube_FW_N6/Utilities/lcd/stm32_lcd.c **** }
 719              		.loc 1 350 1 view .LVU165
 720 0036 03B0     		add	sp, sp, #12
 721              		.cfi_remember_state
 722              		.cfi_def_cfa_offset 20
 723              		@ sp needed
 724 0038 F0BD     		pop	{r4, r5, r6, r7, pc}
 725              	.LVL43:
 726              	.L44:
 727              		.cfi_restore_state
 338:STM32Cube_FW_N6/Utilities/lcd/stm32_lcd.c ****   {
 728              		.loc 1 338 8 is_stmt 1 view .LVU166
 338:STM32Cube_FW_N6/Utilities/lcd/stm32_lcd.c ****   {
 729              		.loc 1 338 10 is_stmt 0 view .LVU167
 730 003a 012C     		cmp	r4, #1
 731 003c 03D1     		bne	.L46
 340:STM32Cube_FW_N6/Utilities/lcd/stm32_lcd.c ****   }
 732              		.loc 1 340 5 is_stmt 1 view .LVU168
 733 003e 23F07F43 		bic	r3, r3, #-16777216
 734              	.LVL44:
 735              	.L47:
 348:STM32Cube_FW_N6/Utilities/lcd/stm32_lcd.c ****   }
 736              		.loc 1 348 5 view .LVU169
 737 0042 0093     		str	r3, [sp]
 738 0044 F3E7     		b	.L48
 739              	.LVL45:
 740              	.L46:
 342:STM32Cube_FW_N6/Utilities/lcd/stm32_lcd.c ****   {
ARM GAS  C:\Users\DJESSOU\AppData\Local\Temp\ccR55SEh.s 			page 21


 741              		.loc 1 342 8 view .LVU170
 342:STM32Cube_FW_N6/Utilities/lcd/stm32_lcd.c ****   {
 742              		.loc 1 342 10 is_stmt 0 view .LVU171
 743 0046 042C     		cmp	r4, #4
 744 0048 FBD1     		bne	.L47
 344:STM32Cube_FW_N6/Utilities/lcd/stm32_lcd.c ****   }
 745              		.loc 1 344 5 is_stmt 1 view .LVU172
 344:STM32Cube_FW_N6/Utilities/lcd/stm32_lcd.c ****   }
 746              		.loc 1 344 67 is_stmt 0 view .LVU173
 747 004a 1F0F     		lsrs	r7, r3, #28
 748 004c C3F30314 		ubfx	r4, r3, #4, #4
 344:STM32Cube_FW_N6/Utilities/lcd/stm32_lcd.c ****   }
 749              		.loc 1 344 5 view .LVU174
 750 0050 44EA0734 		orr	r4, r4, r7, lsl #12
 344:STM32Cube_FW_N6/Utilities/lcd/stm32_lcd.c ****   }
 751              		.loc 1 344 67 view .LVU175
 752 0054 1F0A     		lsrs	r7, r3, #8
 753 0056 07F0F007 		and	r7, r7, #240
 754 005a 1B0B     		lsrs	r3, r3, #12
 755              	.LVL46:
 344:STM32Cube_FW_N6/Utilities/lcd/stm32_lcd.c ****   }
 756              		.loc 1 344 5 view .LVU176
 757 005c 3C43     		orrs	r4, r4, r7
 344:STM32Cube_FW_N6/Utilities/lcd/stm32_lcd.c ****   }
 758              		.loc 1 344 67 view .LVU177
 759 005e 03F47063 		and	r3, r3, #3840
 760 0062 E2E7     		b	.L49
 761              	.L51:
 762              		.align	2
 763              	.L50:
 764 0064 00000000 		.word	DrawProp
 765 0068 00000000 		.word	FuncDriver
 766              		.cfi_endproc
 767              	.LFE11:
 769              		.section	.text.UTIL_LCD_GetPixel,"ax",%progbits
 770              		.align	1
 771              		.global	UTIL_LCD_GetPixel
 772              		.syntax unified
 773              		.thumb
 774              		.thumb_func
 776              	UTIL_LCD_GetPixel:
 777              	.LVL47:
 778              	.LFB12:
 351:STM32Cube_FW_N6/Utilities/lcd/stm32_lcd.c **** 
 352:STM32Cube_FW_N6/Utilities/lcd/stm32_lcd.c **** /**
 353:STM32Cube_FW_N6/Utilities/lcd/stm32_lcd.c ****   * @brief  Read an LCD pixel.
 354:STM32Cube_FW_N6/Utilities/lcd/stm32_lcd.c ****   * @param  Xpos     X position
 355:STM32Cube_FW_N6/Utilities/lcd/stm32_lcd.c ****   * @param  Ypos     Y position
 356:STM32Cube_FW_N6/Utilities/lcd/stm32_lcd.c ****   * @retval Color    pixel color
 357:STM32Cube_FW_N6/Utilities/lcd/stm32_lcd.c ****   */
 358:STM32Cube_FW_N6/Utilities/lcd/stm32_lcd.c **** void UTIL_LCD_GetPixel(uint16_t Xpos, uint16_t Ypos, uint32_t *Color)
 359:STM32Cube_FW_N6/Utilities/lcd/stm32_lcd.c **** {
 779              		.loc 1 359 1 is_stmt 1 view -0
 780              		.cfi_startproc
 781              		@ args = 0, pretend = 0, frame = 0
 782              		@ frame_needed = 0, uses_anonymous_args = 0
 360:STM32Cube_FW_N6/Utilities/lcd/stm32_lcd.c ****   /* Get Pixel */
ARM GAS  C:\Users\DJESSOU\AppData\Local\Temp\ccR55SEh.s 			page 22


 361:STM32Cube_FW_N6/Utilities/lcd/stm32_lcd.c ****   FuncDriver.GetPixel(DrawProp->LcdDevice, Xpos, Ypos, Color);
 783              		.loc 1 361 3 view .LVU179
 359:STM32Cube_FW_N6/Utilities/lcd/stm32_lcd.c ****   /* Get Pixel */
 784              		.loc 1 359 1 is_stmt 0 view .LVU180
 785 0000 70B5     		push	{r4, r5, r6, lr}
 786              		.cfi_def_cfa_offset 16
 787              		.cfi_offset 4, -16
 788              		.cfi_offset 5, -12
 789              		.cfi_offset 6, -8
 790              		.cfi_offset 14, -4
 791              		.loc 1 361 13 view .LVU181
 792 0002 264B     		ldr	r3, .L57
 793              		.loc 1 361 3 view .LVU182
 794 0004 264D     		ldr	r5, .L57+4
 795 0006 5E69     		ldr	r6, [r3, #20]
 359:STM32Cube_FW_N6/Utilities/lcd/stm32_lcd.c ****   /* Get Pixel */
 796              		.loc 1 359 1 view .LVU183
 797 0008 1446     		mov	r4, r2
 798              		.loc 1 361 3 view .LVU184
 799 000a 1346     		mov	r3, r2
 800 000c 0A46     		mov	r2, r1
 801              	.LVL48:
 802              		.loc 1 361 3 view .LVU185
 803 000e 0146     		mov	r1, r0
 804              	.LVL49:
 805              		.loc 1 361 3 view .LVU186
 806 0010 2869     		ldr	r0, [r5, #16]
 807              	.LVL50:
 808              		.loc 1 361 3 view .LVU187
 809 0012 B047     		blx	r6
 810              	.LVL51:
 362:STM32Cube_FW_N6/Utilities/lcd/stm32_lcd.c ****   if(DrawProp[DrawProp->LcdLayer].LcdPixelFormat == LCD_PIXEL_FORMAT_RGB565)
 811              		.loc 1 362 3 is_stmt 1 view .LVU188
 812              		.loc 1 362 34 is_stmt 0 view .LVU189
 813 0014 EB68     		ldr	r3, [r5, #12]
 814 0016 05EB4315 		add	r5, r5, r3, lsl #5
 815 001a EB69     		ldr	r3, [r5, #28]
 816              		.loc 1 362 5 view .LVU190
 817 001c 022B     		cmp	r3, #2
 818 001e 1BD1     		bne	.L53
 363:STM32Cube_FW_N6/Utilities/lcd/stm32_lcd.c ****   {
 364:STM32Cube_FW_N6/Utilities/lcd/stm32_lcd.c ****     *Color = CONVERTRGB5652ARGB8888(*Color);
 819              		.loc 1 364 5 is_stmt 1 view .LVU191
 820              		.loc 1 364 14 is_stmt 0 view .LVU192
 821 0020 40F20315 		movw	r5, #259
 822 0024 40F20F20 		movw	r0, #527
 823 0028 2368     		ldr	r3, [r4]
 824 002a C3F34511 		ubfx	r1, r3, #5, #6
 825 002e C3F3C422 		ubfx	r2, r3, #11, #5
 826 0032 6943     		muls	r1, r5, r1
 827 0034 4243     		muls	r2, r0, r2
 828 0036 03F01F03 		and	r3, r3, #31
 829 003a 4343     		muls	r3, r0, r3
 830 003c 2131     		adds	r1, r1, #33
 831 003e 1732     		adds	r2, r2, #23
 832 0040 8909     		lsrs	r1, r1, #6
 833 0042 9209     		lsrs	r2, r2, #6
ARM GAS  C:\Users\DJESSOU\AppData\Local\Temp\ccR55SEh.s 			page 23


 834 0044 0902     		lsls	r1, r1, #8
 835 0046 41EA0241 		orr	r1, r1, r2, lsl #16
 836 004a 1733     		adds	r3, r3, #23
 837 004c 41EA9311 		orr	r1, r1, r3, lsr #6
 838 0050 41F07F41 		orr	r1, r1, #-16777216
 839              		.loc 1 364 12 view .LVU193
 840 0054 2160     		str	r1, [r4]
 841              	.L52:
 365:STM32Cube_FW_N6/Utilities/lcd/stm32_lcd.c ****   }
 366:STM32Cube_FW_N6/Utilities/lcd/stm32_lcd.c ****   else if(DrawProp[DrawProp->LcdLayer].LcdPixelFormat == LCD_PIXEL_FORMAT_RGB888)
 367:STM32Cube_FW_N6/Utilities/lcd/stm32_lcd.c ****   {
 368:STM32Cube_FW_N6/Utilities/lcd/stm32_lcd.c ****     *Color = CONVERTRGB8882ARGB8888(*Color);
 369:STM32Cube_FW_N6/Utilities/lcd/stm32_lcd.c ****   }
 370:STM32Cube_FW_N6/Utilities/lcd/stm32_lcd.c ****   else if(DrawProp[DrawProp->LcdLayer].LcdPixelFormat == LCD_PIXEL_FORMAT_ARGB4444)
 371:STM32Cube_FW_N6/Utilities/lcd/stm32_lcd.c ****   {
 372:STM32Cube_FW_N6/Utilities/lcd/stm32_lcd.c ****     *Color = CONVERTARGB44442ARGB8888(*Color);
 373:STM32Cube_FW_N6/Utilities/lcd/stm32_lcd.c ****   }
 374:STM32Cube_FW_N6/Utilities/lcd/stm32_lcd.c **** }
 842              		.loc 1 374 1 view .LVU194
 843 0056 70BD     		pop	{r4, r5, r6, pc}
 844              	.LVL52:
 845              	.L53:
 366:STM32Cube_FW_N6/Utilities/lcd/stm32_lcd.c ****   {
 846              		.loc 1 366 8 is_stmt 1 view .LVU195
 366:STM32Cube_FW_N6/Utilities/lcd/stm32_lcd.c ****   {
 847              		.loc 1 366 10 is_stmt 0 view .LVU196
 848 0058 012B     		cmp	r3, #1
 849 005a 04D1     		bne	.L55
 368:STM32Cube_FW_N6/Utilities/lcd/stm32_lcd.c ****   }
 850              		.loc 1 368 5 is_stmt 1 view .LVU197
 368:STM32Cube_FW_N6/Utilities/lcd/stm32_lcd.c ****   }
 851              		.loc 1 368 14 is_stmt 0 view .LVU198
 852 005c 2368     		ldr	r3, [r4]
 853 005e 43F07F43 		orr	r3, r3, #-16777216
 854              	.L56:
 372:STM32Cube_FW_N6/Utilities/lcd/stm32_lcd.c ****   }
 855              		.loc 1 372 12 view .LVU199
 856 0062 2360     		str	r3, [r4]
 857              		.loc 1 374 1 view .LVU200
 858 0064 F7E7     		b	.L52
 859              	.L55:
 370:STM32Cube_FW_N6/Utilities/lcd/stm32_lcd.c ****   {
 860              		.loc 1 370 8 is_stmt 1 view .LVU201
 370:STM32Cube_FW_N6/Utilities/lcd/stm32_lcd.c ****   {
 861              		.loc 1 370 10 is_stmt 0 view .LVU202
 862 0066 042B     		cmp	r3, #4
 863 0068 F5D1     		bne	.L52
 372:STM32Cube_FW_N6/Utilities/lcd/stm32_lcd.c ****   }
 864              		.loc 1 372 5 is_stmt 1 view .LVU203
 372:STM32Cube_FW_N6/Utilities/lcd/stm32_lcd.c ****   }
 865              		.loc 1 372 14 is_stmt 0 view .LVU204
 866 006a 2268     		ldr	r2, [r4]
 867 006c C2F30333 		ubfx	r3, r2, #12, #4
 868 0070 03EB0311 		add	r1, r3, r3, lsl #4
 869 0074 C2F30323 		ubfx	r3, r2, #8, #4
 870 0078 03EB0313 		add	r3, r3, r3, lsl #4
 871 007c 1B04     		lsls	r3, r3, #16
ARM GAS  C:\Users\DJESSOU\AppData\Local\Temp\ccR55SEh.s 			page 24


 872 007e 43EA0163 		orr	r3, r3, r1, lsl #24
 873 0082 02F00F01 		and	r1, r2, #15
 874 0086 01EB0111 		add	r1, r1, r1, lsl #4
 875 008a 0B43     		orrs	r3, r3, r1
 876 008c C2F30311 		ubfx	r1, r2, #4, #4
 877 0090 02F0F002 		and	r2, r2, #240
 878 0094 0A44     		add	r2, r2, r1
 879 0096 43EA0223 		orr	r3, r3, r2, lsl #8
 880 009a E2E7     		b	.L56
 881              	.L58:
 882              		.align	2
 883              	.L57:
 884 009c 00000000 		.word	FuncDriver
 885 00a0 00000000 		.word	DrawProp
 886              		.cfi_endproc
 887              	.LFE12:
 889              		.section	.text.UTIL_LCD_SetPixel,"ax",%progbits
 890              		.align	1
 891              		.global	UTIL_LCD_SetPixel
 892              		.syntax unified
 893              		.thumb
 894              		.thumb_func
 896              	UTIL_LCD_SetPixel:
 897              	.LVL53:
 898              	.LFB13:
 375:STM32Cube_FW_N6/Utilities/lcd/stm32_lcd.c **** 
 376:STM32Cube_FW_N6/Utilities/lcd/stm32_lcd.c **** /**
 377:STM32Cube_FW_N6/Utilities/lcd/stm32_lcd.c ****   * @brief  Draws a pixel on LCD.
 378:STM32Cube_FW_N6/Utilities/lcd/stm32_lcd.c ****   * @param  Xpos     X position
 379:STM32Cube_FW_N6/Utilities/lcd/stm32_lcd.c ****   * @param  Ypos     Y position
 380:STM32Cube_FW_N6/Utilities/lcd/stm32_lcd.c ****   * @param  Color    Pixel color
 381:STM32Cube_FW_N6/Utilities/lcd/stm32_lcd.c ****   */
 382:STM32Cube_FW_N6/Utilities/lcd/stm32_lcd.c **** void UTIL_LCD_SetPixel(uint16_t Xpos, uint16_t Ypos, uint32_t Color)
 383:STM32Cube_FW_N6/Utilities/lcd/stm32_lcd.c **** {
 899              		.loc 1 383 1 is_stmt 1 view -0
 900              		.cfi_startproc
 901              		@ args = 0, pretend = 0, frame = 0
 902              		@ frame_needed = 0, uses_anonymous_args = 0
 903              		@ link register save eliminated.
 384:STM32Cube_FW_N6/Utilities/lcd/stm32_lcd.c ****   /* Set Pixel */
 385:STM32Cube_FW_N6/Utilities/lcd/stm32_lcd.c ****   if(DrawProp[DrawProp->LcdLayer].LcdPixelFormat == LCD_PIXEL_FORMAT_RGB565)
 904              		.loc 1 385 3 view .LVU206
 383:STM32Cube_FW_N6/Utilities/lcd/stm32_lcd.c ****   /* Set Pixel */
 905              		.loc 1 383 1 is_stmt 0 view .LVU207
 906 0000 70B4     		push	{r4, r5, r6}
 907              		.cfi_def_cfa_offset 12
 908              		.cfi_offset 4, -12
 909              		.cfi_offset 5, -8
 910              		.cfi_offset 6, -4
 383:STM32Cube_FW_N6/Utilities/lcd/stm32_lcd.c ****   /* Set Pixel */
 911              		.loc 1 383 1 view .LVU208
 912 0002 0646     		mov	r6, r0
 913              		.loc 1 385 34 view .LVU209
 914 0004 1648     		ldr	r0, .L64
 915              	.LVL54:
 383:STM32Cube_FW_N6/Utilities/lcd/stm32_lcd.c ****   /* Set Pixel */
 916              		.loc 1 383 1 view .LVU210
ARM GAS  C:\Users\DJESSOU\AppData\Local\Temp\ccR55SEh.s 			page 25


 917 0006 1346     		mov	r3, r2
 918              		.loc 1 385 34 view .LVU211
 919 0008 C268     		ldr	r2, [r0, #12]
 920              	.LVL55:
 386:STM32Cube_FW_N6/Utilities/lcd/stm32_lcd.c ****   {
 387:STM32Cube_FW_N6/Utilities/lcd/stm32_lcd.c ****     FuncDriver.SetPixel(DrawProp->LcdDevice, Xpos, Ypos, CONVERTARGB88882RGB565(Color));
 921              		.loc 1 387 15 view .LVU212
 922 000a 164C     		ldr	r4, .L64+4
 385:STM32Cube_FW_N6/Utilities/lcd/stm32_lcd.c ****   {
 923              		.loc 1 385 34 view .LVU213
 924 000c 00EB4212 		add	r2, r0, r2, lsl #5
 925 0010 D269     		ldr	r2, [r2, #28]
 926              		.loc 1 387 15 view .LVU214
 927 0012 A569     		ldr	r5, [r4, #24]
 385:STM32Cube_FW_N6/Utilities/lcd/stm32_lcd.c ****   {
 928              		.loc 1 385 5 view .LVU215
 929 0014 022A     		cmp	r2, #2
 930              		.loc 1 387 5 view .LVU216
 931 0016 0069     		ldr	r0, [r0, #16]
 385:STM32Cube_FW_N6/Utilities/lcd/stm32_lcd.c ****   {
 932              		.loc 1 385 5 view .LVU217
 933 0018 0AD1     		bne	.L60
 934              		.loc 1 387 5 is_stmt 1 view .LVU218
 935              		.loc 1 387 58 is_stmt 0 view .LVU219
 936 001a 5C09     		lsrs	r4, r3, #5
 937 001c 1A0A     		lsrs	r2, r3, #8
 938 001e 04F4FC64 		and	r4, r4, #2016
 939 0022 02F47842 		and	r2, r2, #63488
 940              		.loc 1 387 5 view .LVU220
 941 0026 1443     		orrs	r4, r4, r2
 942              		.loc 1 387 58 view .LVU221
 943 0028 C3F3C403 		ubfx	r3, r3, #3, #5
 944              	.LVL56:
 945              	.L63:
 388:STM32Cube_FW_N6/Utilities/lcd/stm32_lcd.c ****   }
 389:STM32Cube_FW_N6/Utilities/lcd/stm32_lcd.c ****   else if(DrawProp[DrawProp->LcdLayer].LcdPixelFormat == LCD_PIXEL_FORMAT_RGB888)
 390:STM32Cube_FW_N6/Utilities/lcd/stm32_lcd.c ****   {
 391:STM32Cube_FW_N6/Utilities/lcd/stm32_lcd.c ****     FuncDriver.SetPixel(DrawProp->LcdDevice, Xpos, Ypos, CONVERTARGB88882RGB888(Color));
 392:STM32Cube_FW_N6/Utilities/lcd/stm32_lcd.c ****   }
 393:STM32Cube_FW_N6/Utilities/lcd/stm32_lcd.c ****   else if(DrawProp[DrawProp->LcdLayer].LcdPixelFormat == LCD_PIXEL_FORMAT_ARGB4444)
 394:STM32Cube_FW_N6/Utilities/lcd/stm32_lcd.c ****   {
 395:STM32Cube_FW_N6/Utilities/lcd/stm32_lcd.c ****     FuncDriver.SetPixel(DrawProp->LcdDevice, Xpos, Ypos, CONVERTARGB88882ARGB4444(Color));
 946              		.loc 1 395 5 view .LVU222
 947 002c 2343     		orrs	r3, r3, r4
 948 002e 03E0     		b	.L62
 949              	.LVL57:
 950              	.L60:
 389:STM32Cube_FW_N6/Utilities/lcd/stm32_lcd.c ****   {
 951              		.loc 1 389 8 is_stmt 1 view .LVU223
 389:STM32Cube_FW_N6/Utilities/lcd/stm32_lcd.c ****   {
 952              		.loc 1 389 10 is_stmt 0 view .LVU224
 953 0030 012A     		cmp	r2, #1
 954 0032 06D1     		bne	.L61
 391:STM32Cube_FW_N6/Utilities/lcd/stm32_lcd.c ****   }
 955              		.loc 1 391 5 is_stmt 1 view .LVU225
 956 0034 23F07F43 		bic	r3, r3, #-16777216
 957              	.LVL58:
ARM GAS  C:\Users\DJESSOU\AppData\Local\Temp\ccR55SEh.s 			page 26


 958              	.L62:
 396:STM32Cube_FW_N6/Utilities/lcd/stm32_lcd.c ****   }
 397:STM32Cube_FW_N6/Utilities/lcd/stm32_lcd.c ****   else /*LCD_PIXEL_FORMAT_ARGB888*/
 398:STM32Cube_FW_N6/Utilities/lcd/stm32_lcd.c ****   {
 399:STM32Cube_FW_N6/Utilities/lcd/stm32_lcd.c ****     FuncDriver.SetPixel(DrawProp->LcdDevice, Xpos, Ypos, Color);
 959              		.loc 1 399 5 view .LVU226
 960 0038 0A46     		mov	r2, r1
 961 003a AC46     		mov	ip, r5
 962 003c 3146     		mov	r1, r6
 963              	.LVL59:
 400:STM32Cube_FW_N6/Utilities/lcd/stm32_lcd.c ****   }
 401:STM32Cube_FW_N6/Utilities/lcd/stm32_lcd.c **** }
 964              		.loc 1 401 1 is_stmt 0 view .LVU227
 965 003e 70BC     		pop	{r4, r5, r6}
 966              		.cfi_remember_state
 967              		.cfi_restore 6
 968              		.cfi_restore 5
 969              		.cfi_restore 4
 970              		.cfi_def_cfa_offset 0
 971              	.LVL60:
 399:STM32Cube_FW_N6/Utilities/lcd/stm32_lcd.c ****   }
 972              		.loc 1 399 5 view .LVU228
 973 0040 6047     		bx	ip
 974              	.LVL61:
 975              	.L61:
 976              		.cfi_restore_state
 393:STM32Cube_FW_N6/Utilities/lcd/stm32_lcd.c ****   {
 977              		.loc 1 393 8 is_stmt 1 view .LVU229
 393:STM32Cube_FW_N6/Utilities/lcd/stm32_lcd.c ****   {
 978              		.loc 1 393 10 is_stmt 0 view .LVU230
 979 0042 042A     		cmp	r2, #4
 980 0044 F8D1     		bne	.L62
 395:STM32Cube_FW_N6/Utilities/lcd/stm32_lcd.c ****   }
 981              		.loc 1 395 5 is_stmt 1 view .LVU231
 395:STM32Cube_FW_N6/Utilities/lcd/stm32_lcd.c ****   }
 982              		.loc 1 395 58 is_stmt 0 view .LVU232
 983 0046 1A0F     		lsrs	r2, r3, #28
 984 0048 C3F30314 		ubfx	r4, r3, #4, #4
 395:STM32Cube_FW_N6/Utilities/lcd/stm32_lcd.c ****   }
 985              		.loc 1 395 5 view .LVU233
 986 004c 44EA0234 		orr	r4, r4, r2, lsl #12
 395:STM32Cube_FW_N6/Utilities/lcd/stm32_lcd.c ****   }
 987              		.loc 1 395 58 view .LVU234
 988 0050 1A0A     		lsrs	r2, r3, #8
 989 0052 02F0F002 		and	r2, r2, #240
 990 0056 1B0B     		lsrs	r3, r3, #12
 991              	.LVL62:
 395:STM32Cube_FW_N6/Utilities/lcd/stm32_lcd.c ****   }
 992              		.loc 1 395 5 view .LVU235
 993 0058 1443     		orrs	r4, r4, r2
 395:STM32Cube_FW_N6/Utilities/lcd/stm32_lcd.c ****   }
 994              		.loc 1 395 58 view .LVU236
 995 005a 03F47063 		and	r3, r3, #3840
 996 005e E5E7     		b	.L63
 997              	.L65:
 998              		.align	2
 999              	.L64:
ARM GAS  C:\Users\DJESSOU\AppData\Local\Temp\ccR55SEh.s 			page 27


 1000 0060 00000000 		.word	DrawProp
 1001 0064 00000000 		.word	FuncDriver
 1002              		.cfi_endproc
 1003              	.LFE13:
 1005              		.section	.text.UTIL_LCD_DisplayChar,"ax",%progbits
 1006              		.align	1
 1007              		.global	UTIL_LCD_DisplayChar
 1008              		.syntax unified
 1009              		.thumb
 1010              		.thumb_func
 1012              	UTIL_LCD_DisplayChar:
 1013              	.LVL63:
 1014              	.LFB16:
 402:STM32Cube_FW_N6/Utilities/lcd/stm32_lcd.c **** 
 403:STM32Cube_FW_N6/Utilities/lcd/stm32_lcd.c **** /**
 404:STM32Cube_FW_N6/Utilities/lcd/stm32_lcd.c ****   * @brief  Clears the whole currently active layer of LTDC.
 405:STM32Cube_FW_N6/Utilities/lcd/stm32_lcd.c ****   * @param  Color  Color of the background
 406:STM32Cube_FW_N6/Utilities/lcd/stm32_lcd.c ****   */
 407:STM32Cube_FW_N6/Utilities/lcd/stm32_lcd.c **** void UTIL_LCD_Clear(uint32_t Color)
 408:STM32Cube_FW_N6/Utilities/lcd/stm32_lcd.c **** {
 409:STM32Cube_FW_N6/Utilities/lcd/stm32_lcd.c ****   /* Clear the LCD */
 410:STM32Cube_FW_N6/Utilities/lcd/stm32_lcd.c ****   UTIL_LCD_FillRect(0, 0, DrawProp[DrawProp->LcdLayer].LcdXsize, DrawProp[DrawProp->LcdLayer].LcdYs
 411:STM32Cube_FW_N6/Utilities/lcd/stm32_lcd.c **** }
 412:STM32Cube_FW_N6/Utilities/lcd/stm32_lcd.c **** 
 413:STM32Cube_FW_N6/Utilities/lcd/stm32_lcd.c **** /**
 414:STM32Cube_FW_N6/Utilities/lcd/stm32_lcd.c ****   * @brief  Clears the selected line in currently active layer.
 415:STM32Cube_FW_N6/Utilities/lcd/stm32_lcd.c ****   * @param  Line  Line to be cleared
 416:STM32Cube_FW_N6/Utilities/lcd/stm32_lcd.c ****   */
 417:STM32Cube_FW_N6/Utilities/lcd/stm32_lcd.c **** void UTIL_LCD_ClearStringLine(uint32_t Line)
 418:STM32Cube_FW_N6/Utilities/lcd/stm32_lcd.c **** {
 419:STM32Cube_FW_N6/Utilities/lcd/stm32_lcd.c ****   /* Draw rectangle with background color */
 420:STM32Cube_FW_N6/Utilities/lcd/stm32_lcd.c ****   UTIL_LCD_FillRect(0, (Line * DrawProp[DrawProp->LcdLayer].pFont->Height), DrawProp[DrawProp->LcdL
 421:STM32Cube_FW_N6/Utilities/lcd/stm32_lcd.c **** }
 422:STM32Cube_FW_N6/Utilities/lcd/stm32_lcd.c **** 
 423:STM32Cube_FW_N6/Utilities/lcd/stm32_lcd.c **** /**
 424:STM32Cube_FW_N6/Utilities/lcd/stm32_lcd.c ****   * @brief  Displays one character in currently active layer.
 425:STM32Cube_FW_N6/Utilities/lcd/stm32_lcd.c ****   * @param  Xpos Start column address
 426:STM32Cube_FW_N6/Utilities/lcd/stm32_lcd.c ****   * @param  Ypos Line where to display the character shape.
 427:STM32Cube_FW_N6/Utilities/lcd/stm32_lcd.c ****   * @param  Ascii Character ascii code
 428:STM32Cube_FW_N6/Utilities/lcd/stm32_lcd.c ****   *           This parameter must be a number between Min_Data = 0x20 and Max_Data = 0x7E
 429:STM32Cube_FW_N6/Utilities/lcd/stm32_lcd.c ****   */
 430:STM32Cube_FW_N6/Utilities/lcd/stm32_lcd.c **** void UTIL_LCD_DisplayChar(uint32_t Xpos, uint32_t Ypos, uint8_t Ascii)
 431:STM32Cube_FW_N6/Utilities/lcd/stm32_lcd.c **** {
 1015              		.loc 1 431 1 is_stmt 1 view -0
 1016              		.cfi_startproc
 1017              		@ args = 0, pretend = 0, frame = 128
 1018              		@ frame_needed = 0, uses_anonymous_args = 0
 432:STM32Cube_FW_N6/Utilities/lcd/stm32_lcd.c ****   DrawChar(Xpos, Ypos, &DrawProp[DrawProp->LcdLayer].pFont->table[(Ascii-' ') *\
 1019              		.loc 1 432 3 view .LVU238
 431:STM32Cube_FW_N6/Utilities/lcd/stm32_lcd.c ****   DrawChar(Xpos, Ypos, &DrawProp[DrawProp->LcdLayer].pFont->table[(Ascii-' ') *\
 1020              		.loc 1 431 1 is_stmt 0 view .LVU239
 1021 0000 2DE9F04F 		push	{r4, r5, r6, r7, r8, r9, r10, fp, lr}
 1022              		.cfi_def_cfa_offset 36
 1023              		.cfi_offset 4, -36
 1024              		.cfi_offset 5, -32
 1025              		.cfi_offset 6, -28
 1026              		.cfi_offset 7, -24
ARM GAS  C:\Users\DJESSOU\AppData\Local\Temp\ccR55SEh.s 			page 28


 1027              		.cfi_offset 8, -20
 1028              		.cfi_offset 9, -16
 1029              		.cfi_offset 10, -12
 1030              		.cfi_offset 11, -8
 1031              		.cfi_offset 14, -4
 1032              		.loc 1 432 53 view .LVU240
 1033 0004 DFF8E081 		ldr	r8, .L102
 431:STM32Cube_FW_N6/Utilities/lcd/stm32_lcd.c ****   DrawChar(Xpos, Ypos, &DrawProp[DrawProp->LcdLayer].pFont->table[(Ascii-' ') *\
 1034              		.loc 1 431 1 view .LVU241
 1035 0008 A3B0     		sub	sp, sp, #140
 1036              		.cfi_def_cfa_offset 176
 1037              		.loc 1 432 53 view .LVU242
 1038 000a D8F80C30 		ldr	r3, [r8, #12]
 431:STM32Cube_FW_N6/Utilities/lcd/stm32_lcd.c ****   DrawChar(Xpos, Ypos, &DrawProp[DrawProp->LcdLayer].pFont->table[(Ascii-' ') *\
 1039              		.loc 1 431 1 view .LVU243
 1040 000e 0891     		str	r1, [sp, #32]
 1041              		.loc 1 432 53 view .LVU244
 1042 0010 08EB4313 		add	r3, r8, r3, lsl #5
 1043 0014 9968     		ldr	r1, [r3, #8]
 1044              	.LVL64:
 431:STM32Cube_FW_N6/Utilities/lcd/stm32_lcd.c ****   DrawChar(Xpos, Ypos, &DrawProp[DrawProp->LcdLayer].pFont->table[(Ascii-' ') *\
 1045              		.loc 1 431 1 view .LVU245
 1046 0016 0590     		str	r0, [sp, #20]
 433:STM32Cube_FW_N6/Utilities/lcd/stm32_lcd.c ****   DrawProp[DrawProp->LcdLayer].pFont->Height * ((DrawProp[DrawProp->LcdLayer].pFont->Width + 7) / 8
 1047              		.loc 1 433 37 view .LVU246
 1048 0018 CB88     		ldrh	r3, [r1, #6]
 1049              		.loc 1 433 84 view .LVU247
 1050 001a 8C88     		ldrh	r4, [r1, #4]
 1051              	.LVL65:
 1052              	.LBB4:
 1053              	.LBI4:
 434:STM32Cube_FW_N6/Utilities/lcd/stm32_lcd.c **** }
 435:STM32Cube_FW_N6/Utilities/lcd/stm32_lcd.c **** 
 436:STM32Cube_FW_N6/Utilities/lcd/stm32_lcd.c **** /**
 437:STM32Cube_FW_N6/Utilities/lcd/stm32_lcd.c ****   * @brief  Displays characters in currently active layer.
 438:STM32Cube_FW_N6/Utilities/lcd/stm32_lcd.c ****   * @param  Xpos X position (in pixel)
 439:STM32Cube_FW_N6/Utilities/lcd/stm32_lcd.c ****   * @param  Ypos Y position (in pixel)
 440:STM32Cube_FW_N6/Utilities/lcd/stm32_lcd.c ****   * @param  Text Pointer to string to display on LCD
 441:STM32Cube_FW_N6/Utilities/lcd/stm32_lcd.c ****   * @param  Mode Display mode
 442:STM32Cube_FW_N6/Utilities/lcd/stm32_lcd.c ****   *          This parameter can be one of the following values:
 443:STM32Cube_FW_N6/Utilities/lcd/stm32_lcd.c ****   *            @arg  CENTER_MODE
 444:STM32Cube_FW_N6/Utilities/lcd/stm32_lcd.c ****   *            @arg  RIGHT_MODE
 445:STM32Cube_FW_N6/Utilities/lcd/stm32_lcd.c ****   *            @arg  LEFT_MODE
 446:STM32Cube_FW_N6/Utilities/lcd/stm32_lcd.c ****   */
 447:STM32Cube_FW_N6/Utilities/lcd/stm32_lcd.c **** void UTIL_LCD_DisplayStringAt(uint32_t Xpos, uint32_t Ypos, uint8_t *Text, Text_AlignModeTypdef Mod
 448:STM32Cube_FW_N6/Utilities/lcd/stm32_lcd.c **** {
 449:STM32Cube_FW_N6/Utilities/lcd/stm32_lcd.c ****   uint32_t refcolumn = 1, i = 0;
 450:STM32Cube_FW_N6/Utilities/lcd/stm32_lcd.c ****   uint32_t size = 0, xsize = 0;
 451:STM32Cube_FW_N6/Utilities/lcd/stm32_lcd.c ****   uint8_t  *ptr = Text;
 452:STM32Cube_FW_N6/Utilities/lcd/stm32_lcd.c **** 
 453:STM32Cube_FW_N6/Utilities/lcd/stm32_lcd.c ****   /* Get the text size */
 454:STM32Cube_FW_N6/Utilities/lcd/stm32_lcd.c ****   while (*ptr++) size ++ ;
 455:STM32Cube_FW_N6/Utilities/lcd/stm32_lcd.c **** 
 456:STM32Cube_FW_N6/Utilities/lcd/stm32_lcd.c ****   /* Characters number per line */
 457:STM32Cube_FW_N6/Utilities/lcd/stm32_lcd.c ****   xsize = (DrawProp[DrawProp->LcdLayer].LcdXsize/DrawProp[DrawProp->LcdLayer].pFont->Width);
 458:STM32Cube_FW_N6/Utilities/lcd/stm32_lcd.c **** 
 459:STM32Cube_FW_N6/Utilities/lcd/stm32_lcd.c ****   switch (Mode)
ARM GAS  C:\Users\DJESSOU\AppData\Local\Temp\ccR55SEh.s 			page 29


 460:STM32Cube_FW_N6/Utilities/lcd/stm32_lcd.c ****   {
 461:STM32Cube_FW_N6/Utilities/lcd/stm32_lcd.c ****   case CENTER_MODE:
 462:STM32Cube_FW_N6/Utilities/lcd/stm32_lcd.c ****     {
 463:STM32Cube_FW_N6/Utilities/lcd/stm32_lcd.c ****       refcolumn = Xpos + ((xsize - size)* DrawProp[DrawProp->LcdLayer].pFont->Width) / 2;
 464:STM32Cube_FW_N6/Utilities/lcd/stm32_lcd.c ****       break;
 465:STM32Cube_FW_N6/Utilities/lcd/stm32_lcd.c ****     }
 466:STM32Cube_FW_N6/Utilities/lcd/stm32_lcd.c ****   case LEFT_MODE:
 467:STM32Cube_FW_N6/Utilities/lcd/stm32_lcd.c ****     {
 468:STM32Cube_FW_N6/Utilities/lcd/stm32_lcd.c ****       refcolumn = Xpos;
 469:STM32Cube_FW_N6/Utilities/lcd/stm32_lcd.c ****       break;
 470:STM32Cube_FW_N6/Utilities/lcd/stm32_lcd.c ****     }
 471:STM32Cube_FW_N6/Utilities/lcd/stm32_lcd.c ****   case RIGHT_MODE:
 472:STM32Cube_FW_N6/Utilities/lcd/stm32_lcd.c ****     {
 473:STM32Cube_FW_N6/Utilities/lcd/stm32_lcd.c ****       refcolumn = - Xpos + ((xsize - size)*DrawProp[DrawProp->LcdLayer].pFont->Width);
 474:STM32Cube_FW_N6/Utilities/lcd/stm32_lcd.c ****       break;
 475:STM32Cube_FW_N6/Utilities/lcd/stm32_lcd.c ****     }
 476:STM32Cube_FW_N6/Utilities/lcd/stm32_lcd.c ****   default:
 477:STM32Cube_FW_N6/Utilities/lcd/stm32_lcd.c ****     {
 478:STM32Cube_FW_N6/Utilities/lcd/stm32_lcd.c ****       refcolumn = Xpos;
 479:STM32Cube_FW_N6/Utilities/lcd/stm32_lcd.c ****       break;
 480:STM32Cube_FW_N6/Utilities/lcd/stm32_lcd.c ****     }
 481:STM32Cube_FW_N6/Utilities/lcd/stm32_lcd.c ****   }
 482:STM32Cube_FW_N6/Utilities/lcd/stm32_lcd.c **** 
 483:STM32Cube_FW_N6/Utilities/lcd/stm32_lcd.c ****   /* Check that the Start column is located in the screen */
 484:STM32Cube_FW_N6/Utilities/lcd/stm32_lcd.c ****   if ((refcolumn < 1) || (refcolumn >= 0x8000))
 485:STM32Cube_FW_N6/Utilities/lcd/stm32_lcd.c ****   {
 486:STM32Cube_FW_N6/Utilities/lcd/stm32_lcd.c ****     refcolumn = 1;
 487:STM32Cube_FW_N6/Utilities/lcd/stm32_lcd.c ****   }
 488:STM32Cube_FW_N6/Utilities/lcd/stm32_lcd.c **** 
 489:STM32Cube_FW_N6/Utilities/lcd/stm32_lcd.c ****   /* Send the string character by character on LCD */
 490:STM32Cube_FW_N6/Utilities/lcd/stm32_lcd.c ****   while ((*Text != 0) & (((DrawProp[DrawProp->LcdLayer].LcdXsize - (i*DrawProp[DrawProp->LcdLayer].
 491:STM32Cube_FW_N6/Utilities/lcd/stm32_lcd.c ****   {
 492:STM32Cube_FW_N6/Utilities/lcd/stm32_lcd.c ****     /* Display one character on LCD */
 493:STM32Cube_FW_N6/Utilities/lcd/stm32_lcd.c ****     UTIL_LCD_DisplayChar(refcolumn, Ypos, *Text);
 494:STM32Cube_FW_N6/Utilities/lcd/stm32_lcd.c ****     /* Decrement the column position by 16 */
 495:STM32Cube_FW_N6/Utilities/lcd/stm32_lcd.c ****     refcolumn += DrawProp[DrawProp->LcdLayer].pFont->Width;
 496:STM32Cube_FW_N6/Utilities/lcd/stm32_lcd.c **** 
 497:STM32Cube_FW_N6/Utilities/lcd/stm32_lcd.c ****     /* Point on the next character */
 498:STM32Cube_FW_N6/Utilities/lcd/stm32_lcd.c ****     Text++;
 499:STM32Cube_FW_N6/Utilities/lcd/stm32_lcd.c ****     i++;
 500:STM32Cube_FW_N6/Utilities/lcd/stm32_lcd.c ****   }
 501:STM32Cube_FW_N6/Utilities/lcd/stm32_lcd.c **** }
 502:STM32Cube_FW_N6/Utilities/lcd/stm32_lcd.c **** 
 503:STM32Cube_FW_N6/Utilities/lcd/stm32_lcd.c **** /**
 504:STM32Cube_FW_N6/Utilities/lcd/stm32_lcd.c ****   * @brief  Displays a maximum of 60 characters on the LCD.
 505:STM32Cube_FW_N6/Utilities/lcd/stm32_lcd.c ****   * @param  Line: Line where to display the character shape
 506:STM32Cube_FW_N6/Utilities/lcd/stm32_lcd.c ****   * @param  ptr: Pointer to string to display on LCD
 507:STM32Cube_FW_N6/Utilities/lcd/stm32_lcd.c ****   */
 508:STM32Cube_FW_N6/Utilities/lcd/stm32_lcd.c **** void UTIL_LCD_DisplayStringAtLine(uint32_t Line, uint8_t *ptr)
 509:STM32Cube_FW_N6/Utilities/lcd/stm32_lcd.c **** {
 510:STM32Cube_FW_N6/Utilities/lcd/stm32_lcd.c ****   UTIL_LCD_DisplayStringAt(0, LINE(Line), ptr, LEFT_MODE);
 511:STM32Cube_FW_N6/Utilities/lcd/stm32_lcd.c **** }
 512:STM32Cube_FW_N6/Utilities/lcd/stm32_lcd.c **** 
 513:STM32Cube_FW_N6/Utilities/lcd/stm32_lcd.c **** /**
 514:STM32Cube_FW_N6/Utilities/lcd/stm32_lcd.c ****   * @brief  Draws an uni-line (between two points) in currently active layer.
 515:STM32Cube_FW_N6/Utilities/lcd/stm32_lcd.c ****   * @param  Xpos1 Point 1 X position
 516:STM32Cube_FW_N6/Utilities/lcd/stm32_lcd.c ****   * @param  Ypos1 Point 1 Y position
ARM GAS  C:\Users\DJESSOU\AppData\Local\Temp\ccR55SEh.s 			page 30


 517:STM32Cube_FW_N6/Utilities/lcd/stm32_lcd.c ****   * @param  Xpos2 Point 2 X position
 518:STM32Cube_FW_N6/Utilities/lcd/stm32_lcd.c ****   * @param  Ypos2 Point 2 Y position
 519:STM32Cube_FW_N6/Utilities/lcd/stm32_lcd.c ****   * @param  Color Draw color
 520:STM32Cube_FW_N6/Utilities/lcd/stm32_lcd.c ****   */
 521:STM32Cube_FW_N6/Utilities/lcd/stm32_lcd.c **** void UTIL_LCD_DrawLine(uint32_t Xpos1, uint32_t Ypos1, uint32_t Xpos2, uint32_t Ypos2, uint32_t Col
 522:STM32Cube_FW_N6/Utilities/lcd/stm32_lcd.c **** {
 523:STM32Cube_FW_N6/Utilities/lcd/stm32_lcd.c ****   int16_t deltax = 0, deltay = 0, x = 0, y = 0, xinc1 = 0, xinc2 = 0,
 524:STM32Cube_FW_N6/Utilities/lcd/stm32_lcd.c ****   yinc1 = 0, yinc2 = 0, den = 0, num = 0, numadd = 0, numpixels = 0,
 525:STM32Cube_FW_N6/Utilities/lcd/stm32_lcd.c ****   curpixel = 0;
 526:STM32Cube_FW_N6/Utilities/lcd/stm32_lcd.c ****   int32_t x_diff, y_diff;
 527:STM32Cube_FW_N6/Utilities/lcd/stm32_lcd.c **** 
 528:STM32Cube_FW_N6/Utilities/lcd/stm32_lcd.c ****   x_diff = Xpos2 - Xpos1;
 529:STM32Cube_FW_N6/Utilities/lcd/stm32_lcd.c ****   y_diff = Ypos2 - Ypos1;
 530:STM32Cube_FW_N6/Utilities/lcd/stm32_lcd.c **** 
 531:STM32Cube_FW_N6/Utilities/lcd/stm32_lcd.c ****   deltax = ABS(x_diff);         /* The absolute difference between the x's */
 532:STM32Cube_FW_N6/Utilities/lcd/stm32_lcd.c ****   deltay = ABS(y_diff);         /* The absolute difference between the y's */
 533:STM32Cube_FW_N6/Utilities/lcd/stm32_lcd.c ****   x = Xpos1;                       /* Start x off at the first pixel */
 534:STM32Cube_FW_N6/Utilities/lcd/stm32_lcd.c ****   y = Ypos1;                       /* Start y off at the first pixel */
 535:STM32Cube_FW_N6/Utilities/lcd/stm32_lcd.c **** 
 536:STM32Cube_FW_N6/Utilities/lcd/stm32_lcd.c ****   if (Xpos2 >= Xpos1)                 /* The x-values are increasing */
 537:STM32Cube_FW_N6/Utilities/lcd/stm32_lcd.c ****   {
 538:STM32Cube_FW_N6/Utilities/lcd/stm32_lcd.c ****     xinc1 = 1;
 539:STM32Cube_FW_N6/Utilities/lcd/stm32_lcd.c ****     xinc2 = 1;
 540:STM32Cube_FW_N6/Utilities/lcd/stm32_lcd.c ****   }
 541:STM32Cube_FW_N6/Utilities/lcd/stm32_lcd.c ****   else                          /* The x-values are decreasing */
 542:STM32Cube_FW_N6/Utilities/lcd/stm32_lcd.c ****   {
 543:STM32Cube_FW_N6/Utilities/lcd/stm32_lcd.c ****     xinc1 = -1;
 544:STM32Cube_FW_N6/Utilities/lcd/stm32_lcd.c ****     xinc2 = -1;
 545:STM32Cube_FW_N6/Utilities/lcd/stm32_lcd.c ****   }
 546:STM32Cube_FW_N6/Utilities/lcd/stm32_lcd.c **** 
 547:STM32Cube_FW_N6/Utilities/lcd/stm32_lcd.c ****   if (Ypos2 >= Ypos1)                 /* The y-values are increasing */
 548:STM32Cube_FW_N6/Utilities/lcd/stm32_lcd.c ****   {
 549:STM32Cube_FW_N6/Utilities/lcd/stm32_lcd.c ****     yinc1 = 1;
 550:STM32Cube_FW_N6/Utilities/lcd/stm32_lcd.c ****     yinc2 = 1;
 551:STM32Cube_FW_N6/Utilities/lcd/stm32_lcd.c ****   }
 552:STM32Cube_FW_N6/Utilities/lcd/stm32_lcd.c ****   else                          /* The y-values are decreasing */
 553:STM32Cube_FW_N6/Utilities/lcd/stm32_lcd.c ****   {
 554:STM32Cube_FW_N6/Utilities/lcd/stm32_lcd.c ****     yinc1 = -1;
 555:STM32Cube_FW_N6/Utilities/lcd/stm32_lcd.c ****     yinc2 = -1;
 556:STM32Cube_FW_N6/Utilities/lcd/stm32_lcd.c ****   }
 557:STM32Cube_FW_N6/Utilities/lcd/stm32_lcd.c **** 
 558:STM32Cube_FW_N6/Utilities/lcd/stm32_lcd.c ****   if (deltax >= deltay)         /* There is at least one x-value for every y-value */
 559:STM32Cube_FW_N6/Utilities/lcd/stm32_lcd.c ****   {
 560:STM32Cube_FW_N6/Utilities/lcd/stm32_lcd.c ****     xinc1 = 0;                  /* Don't change the x when numerator >= denominator */
 561:STM32Cube_FW_N6/Utilities/lcd/stm32_lcd.c ****     yinc2 = 0;                  /* Don't change the y for every iteration */
 562:STM32Cube_FW_N6/Utilities/lcd/stm32_lcd.c ****     den = deltax;
 563:STM32Cube_FW_N6/Utilities/lcd/stm32_lcd.c ****     num = deltax / 2;
 564:STM32Cube_FW_N6/Utilities/lcd/stm32_lcd.c ****     numadd = deltay;
 565:STM32Cube_FW_N6/Utilities/lcd/stm32_lcd.c ****     numpixels = deltax;         /* There are more x-values than y-values */
 566:STM32Cube_FW_N6/Utilities/lcd/stm32_lcd.c ****   }
 567:STM32Cube_FW_N6/Utilities/lcd/stm32_lcd.c ****   else                          /* There is at least one y-value for every x-value */
 568:STM32Cube_FW_N6/Utilities/lcd/stm32_lcd.c ****   {
 569:STM32Cube_FW_N6/Utilities/lcd/stm32_lcd.c ****     xinc2 = 0;                  /* Don't change the x for every iteration */
 570:STM32Cube_FW_N6/Utilities/lcd/stm32_lcd.c ****     yinc1 = 0;                  /* Don't change the y when numerator >= denominator */
 571:STM32Cube_FW_N6/Utilities/lcd/stm32_lcd.c ****     den = deltay;
 572:STM32Cube_FW_N6/Utilities/lcd/stm32_lcd.c ****     num = deltay / 2;
 573:STM32Cube_FW_N6/Utilities/lcd/stm32_lcd.c ****     numadd = deltax;
ARM GAS  C:\Users\DJESSOU\AppData\Local\Temp\ccR55SEh.s 			page 31


 574:STM32Cube_FW_N6/Utilities/lcd/stm32_lcd.c ****     numpixels = deltay;         /* There are more y-values than x-values */
 575:STM32Cube_FW_N6/Utilities/lcd/stm32_lcd.c ****   }
 576:STM32Cube_FW_N6/Utilities/lcd/stm32_lcd.c **** 
 577:STM32Cube_FW_N6/Utilities/lcd/stm32_lcd.c ****   for (curpixel = 0; curpixel <= numpixels; curpixel++)
 578:STM32Cube_FW_N6/Utilities/lcd/stm32_lcd.c ****   {
 579:STM32Cube_FW_N6/Utilities/lcd/stm32_lcd.c ****     UTIL_LCD_SetPixel(x, y, Color);   /* Draw the current pixel */
 580:STM32Cube_FW_N6/Utilities/lcd/stm32_lcd.c ****     num += numadd;                            /* Increase the numerator by the top of the fraction 
 581:STM32Cube_FW_N6/Utilities/lcd/stm32_lcd.c ****     if (num >= den)                           /* Check if numerator >= denominator */
 582:STM32Cube_FW_N6/Utilities/lcd/stm32_lcd.c ****     {
 583:STM32Cube_FW_N6/Utilities/lcd/stm32_lcd.c ****       num -= den;                             /* Calculate the new numerator value */
 584:STM32Cube_FW_N6/Utilities/lcd/stm32_lcd.c ****       x += xinc1;                             /* Change the x as appropriate */
 585:STM32Cube_FW_N6/Utilities/lcd/stm32_lcd.c ****       y += yinc1;                             /* Change the y as appropriate */
 586:STM32Cube_FW_N6/Utilities/lcd/stm32_lcd.c ****     }
 587:STM32Cube_FW_N6/Utilities/lcd/stm32_lcd.c ****     x += xinc2;                               /* Change the x as appropriate */
 588:STM32Cube_FW_N6/Utilities/lcd/stm32_lcd.c ****     y += yinc2;                               /* Change the y as appropriate */
 589:STM32Cube_FW_N6/Utilities/lcd/stm32_lcd.c ****   }
 590:STM32Cube_FW_N6/Utilities/lcd/stm32_lcd.c **** }
 591:STM32Cube_FW_N6/Utilities/lcd/stm32_lcd.c **** 
 592:STM32Cube_FW_N6/Utilities/lcd/stm32_lcd.c **** /**
 593:STM32Cube_FW_N6/Utilities/lcd/stm32_lcd.c ****   * @brief  Draws a rectangle in currently active layer.
 594:STM32Cube_FW_N6/Utilities/lcd/stm32_lcd.c ****   * @param  Xpos X position
 595:STM32Cube_FW_N6/Utilities/lcd/stm32_lcd.c ****   * @param  Ypos Y position
 596:STM32Cube_FW_N6/Utilities/lcd/stm32_lcd.c ****   * @param  Width  Rectangle width
 597:STM32Cube_FW_N6/Utilities/lcd/stm32_lcd.c ****   * @param  Height Rectangle height
 598:STM32Cube_FW_N6/Utilities/lcd/stm32_lcd.c ****   * @param  Color  Draw color
 599:STM32Cube_FW_N6/Utilities/lcd/stm32_lcd.c ****   */
 600:STM32Cube_FW_N6/Utilities/lcd/stm32_lcd.c **** void UTIL_LCD_DrawRect(uint32_t Xpos, uint32_t Ypos, uint32_t Width, uint32_t Height, uint32_t Colo
 601:STM32Cube_FW_N6/Utilities/lcd/stm32_lcd.c **** {
 602:STM32Cube_FW_N6/Utilities/lcd/stm32_lcd.c ****   /* Draw horizontal lines */
 603:STM32Cube_FW_N6/Utilities/lcd/stm32_lcd.c ****   UTIL_LCD_DrawHLine(Xpos, Ypos, Width, Color);
 604:STM32Cube_FW_N6/Utilities/lcd/stm32_lcd.c ****   UTIL_LCD_DrawHLine(Xpos, (Ypos+ Height - 1U), Width, Color);
 605:STM32Cube_FW_N6/Utilities/lcd/stm32_lcd.c **** 
 606:STM32Cube_FW_N6/Utilities/lcd/stm32_lcd.c ****   /* Draw vertical lines */
 607:STM32Cube_FW_N6/Utilities/lcd/stm32_lcd.c ****   UTIL_LCD_DrawVLine(Xpos, Ypos, Height, Color);
 608:STM32Cube_FW_N6/Utilities/lcd/stm32_lcd.c ****   UTIL_LCD_DrawVLine((Xpos + Width - 1U), Ypos, Height, Color);
 609:STM32Cube_FW_N6/Utilities/lcd/stm32_lcd.c **** }
 610:STM32Cube_FW_N6/Utilities/lcd/stm32_lcd.c **** 
 611:STM32Cube_FW_N6/Utilities/lcd/stm32_lcd.c **** /**
 612:STM32Cube_FW_N6/Utilities/lcd/stm32_lcd.c ****   * @brief  Draws a circle in currently active layer.
 613:STM32Cube_FW_N6/Utilities/lcd/stm32_lcd.c ****   * @param  Xpos    X position
 614:STM32Cube_FW_N6/Utilities/lcd/stm32_lcd.c ****   * @param  Ypos    Y position
 615:STM32Cube_FW_N6/Utilities/lcd/stm32_lcd.c ****   * @param  Radius  Circle radius
 616:STM32Cube_FW_N6/Utilities/lcd/stm32_lcd.c ****   * @param  Color   Draw color
 617:STM32Cube_FW_N6/Utilities/lcd/stm32_lcd.c ****   */
 618:STM32Cube_FW_N6/Utilities/lcd/stm32_lcd.c **** void UTIL_LCD_DrawCircle(uint32_t Xpos, uint32_t Ypos, uint32_t Radius, uint32_t Color)
 619:STM32Cube_FW_N6/Utilities/lcd/stm32_lcd.c **** {
 620:STM32Cube_FW_N6/Utilities/lcd/stm32_lcd.c ****   int32_t   decision;  /* Decision Variable */
 621:STM32Cube_FW_N6/Utilities/lcd/stm32_lcd.c ****   uint32_t  current_x; /* Current X Value */
 622:STM32Cube_FW_N6/Utilities/lcd/stm32_lcd.c ****   uint32_t  current_y; /* Current Y Value */
 623:STM32Cube_FW_N6/Utilities/lcd/stm32_lcd.c **** 
 624:STM32Cube_FW_N6/Utilities/lcd/stm32_lcd.c ****   decision = 3 - (Radius << 1);
 625:STM32Cube_FW_N6/Utilities/lcd/stm32_lcd.c ****   current_x = 0;
 626:STM32Cube_FW_N6/Utilities/lcd/stm32_lcd.c ****   current_y = Radius;
 627:STM32Cube_FW_N6/Utilities/lcd/stm32_lcd.c **** 
 628:STM32Cube_FW_N6/Utilities/lcd/stm32_lcd.c ****   while (current_x <= current_y)
 629:STM32Cube_FW_N6/Utilities/lcd/stm32_lcd.c ****   {
 630:STM32Cube_FW_N6/Utilities/lcd/stm32_lcd.c ****     if((Ypos - current_y) < DrawProp[DrawProp->LcdLayer].LcdYsize)
ARM GAS  C:\Users\DJESSOU\AppData\Local\Temp\ccR55SEh.s 			page 32


 631:STM32Cube_FW_N6/Utilities/lcd/stm32_lcd.c ****     {
 632:STM32Cube_FW_N6/Utilities/lcd/stm32_lcd.c ****       if((Xpos + current_x) < DrawProp[DrawProp->LcdLayer].LcdXsize)
 633:STM32Cube_FW_N6/Utilities/lcd/stm32_lcd.c ****       {
 634:STM32Cube_FW_N6/Utilities/lcd/stm32_lcd.c ****         UTIL_LCD_SetPixel((Xpos + current_x), (Ypos - current_y), Color);
 635:STM32Cube_FW_N6/Utilities/lcd/stm32_lcd.c ****       }
 636:STM32Cube_FW_N6/Utilities/lcd/stm32_lcd.c ****       if((Xpos - current_x) < DrawProp[DrawProp->LcdLayer].LcdXsize)
 637:STM32Cube_FW_N6/Utilities/lcd/stm32_lcd.c ****       {
 638:STM32Cube_FW_N6/Utilities/lcd/stm32_lcd.c ****         UTIL_LCD_SetPixel((Xpos - current_x), (Ypos - current_y), Color);
 639:STM32Cube_FW_N6/Utilities/lcd/stm32_lcd.c ****       }
 640:STM32Cube_FW_N6/Utilities/lcd/stm32_lcd.c ****     }
 641:STM32Cube_FW_N6/Utilities/lcd/stm32_lcd.c **** 
 642:STM32Cube_FW_N6/Utilities/lcd/stm32_lcd.c ****     if((Ypos - current_x) < DrawProp[DrawProp->LcdLayer].LcdYsize)
 643:STM32Cube_FW_N6/Utilities/lcd/stm32_lcd.c ****     {
 644:STM32Cube_FW_N6/Utilities/lcd/stm32_lcd.c ****       if((Xpos + current_y) < DrawProp[DrawProp->LcdLayer].LcdXsize)
 645:STM32Cube_FW_N6/Utilities/lcd/stm32_lcd.c ****       {
 646:STM32Cube_FW_N6/Utilities/lcd/stm32_lcd.c ****         UTIL_LCD_SetPixel((Xpos + current_y), (Ypos - current_x), Color);
 647:STM32Cube_FW_N6/Utilities/lcd/stm32_lcd.c ****       }
 648:STM32Cube_FW_N6/Utilities/lcd/stm32_lcd.c ****       if((Xpos - current_y) < DrawProp[DrawProp->LcdLayer].LcdXsize)
 649:STM32Cube_FW_N6/Utilities/lcd/stm32_lcd.c ****       {
 650:STM32Cube_FW_N6/Utilities/lcd/stm32_lcd.c ****         UTIL_LCD_SetPixel((Xpos - current_y), (Ypos - current_x), Color);
 651:STM32Cube_FW_N6/Utilities/lcd/stm32_lcd.c ****       }
 652:STM32Cube_FW_N6/Utilities/lcd/stm32_lcd.c ****     }
 653:STM32Cube_FW_N6/Utilities/lcd/stm32_lcd.c **** 
 654:STM32Cube_FW_N6/Utilities/lcd/stm32_lcd.c ****     if((Ypos + current_y) < DrawProp[DrawProp->LcdLayer].LcdYsize)
 655:STM32Cube_FW_N6/Utilities/lcd/stm32_lcd.c ****     {
 656:STM32Cube_FW_N6/Utilities/lcd/stm32_lcd.c ****       if((Xpos + current_x) < DrawProp[DrawProp->LcdLayer].LcdXsize)
 657:STM32Cube_FW_N6/Utilities/lcd/stm32_lcd.c ****       {
 658:STM32Cube_FW_N6/Utilities/lcd/stm32_lcd.c ****         UTIL_LCD_SetPixel((Xpos + current_x), (Ypos + current_y), Color);
 659:STM32Cube_FW_N6/Utilities/lcd/stm32_lcd.c ****       }
 660:STM32Cube_FW_N6/Utilities/lcd/stm32_lcd.c ****       if((Xpos - current_x) < DrawProp[DrawProp->LcdLayer].LcdXsize)
 661:STM32Cube_FW_N6/Utilities/lcd/stm32_lcd.c ****       {
 662:STM32Cube_FW_N6/Utilities/lcd/stm32_lcd.c ****         UTIL_LCD_SetPixel((Xpos - current_x), (Ypos + current_y), Color);
 663:STM32Cube_FW_N6/Utilities/lcd/stm32_lcd.c ****       }
 664:STM32Cube_FW_N6/Utilities/lcd/stm32_lcd.c ****     }
 665:STM32Cube_FW_N6/Utilities/lcd/stm32_lcd.c **** 
 666:STM32Cube_FW_N6/Utilities/lcd/stm32_lcd.c ****     if((Ypos + current_x) < DrawProp[DrawProp->LcdLayer].LcdYsize)
 667:STM32Cube_FW_N6/Utilities/lcd/stm32_lcd.c ****     {
 668:STM32Cube_FW_N6/Utilities/lcd/stm32_lcd.c ****       if((Xpos + current_y) < DrawProp[DrawProp->LcdLayer].LcdXsize)
 669:STM32Cube_FW_N6/Utilities/lcd/stm32_lcd.c ****       {
 670:STM32Cube_FW_N6/Utilities/lcd/stm32_lcd.c ****         UTIL_LCD_SetPixel((Xpos + current_y), (Ypos + current_x), Color);
 671:STM32Cube_FW_N6/Utilities/lcd/stm32_lcd.c ****       }
 672:STM32Cube_FW_N6/Utilities/lcd/stm32_lcd.c ****       if((Xpos - current_y) < DrawProp[DrawProp->LcdLayer].LcdXsize)
 673:STM32Cube_FW_N6/Utilities/lcd/stm32_lcd.c ****       {
 674:STM32Cube_FW_N6/Utilities/lcd/stm32_lcd.c ****         UTIL_LCD_SetPixel((Xpos - current_y), (Ypos + current_x), Color);
 675:STM32Cube_FW_N6/Utilities/lcd/stm32_lcd.c ****       }
 676:STM32Cube_FW_N6/Utilities/lcd/stm32_lcd.c ****     }
 677:STM32Cube_FW_N6/Utilities/lcd/stm32_lcd.c **** 
 678:STM32Cube_FW_N6/Utilities/lcd/stm32_lcd.c ****     if (decision < 0)
 679:STM32Cube_FW_N6/Utilities/lcd/stm32_lcd.c ****     {
 680:STM32Cube_FW_N6/Utilities/lcd/stm32_lcd.c ****       decision += (current_x << 2) + 6;
 681:STM32Cube_FW_N6/Utilities/lcd/stm32_lcd.c ****     }
 682:STM32Cube_FW_N6/Utilities/lcd/stm32_lcd.c ****     else
 683:STM32Cube_FW_N6/Utilities/lcd/stm32_lcd.c ****     {
 684:STM32Cube_FW_N6/Utilities/lcd/stm32_lcd.c ****       decision += ((current_x - current_y) << 2) + 10;
 685:STM32Cube_FW_N6/Utilities/lcd/stm32_lcd.c ****       current_y--;
 686:STM32Cube_FW_N6/Utilities/lcd/stm32_lcd.c ****     }
 687:STM32Cube_FW_N6/Utilities/lcd/stm32_lcd.c ****     current_x++;
ARM GAS  C:\Users\DJESSOU\AppData\Local\Temp\ccR55SEh.s 			page 33


 688:STM32Cube_FW_N6/Utilities/lcd/stm32_lcd.c ****   }
 689:STM32Cube_FW_N6/Utilities/lcd/stm32_lcd.c **** }
 690:STM32Cube_FW_N6/Utilities/lcd/stm32_lcd.c **** 
 691:STM32Cube_FW_N6/Utilities/lcd/stm32_lcd.c **** /**
 692:STM32Cube_FW_N6/Utilities/lcd/stm32_lcd.c ****   * @brief  Draws an poly-line (between many points) in currently active layer.
 693:STM32Cube_FW_N6/Utilities/lcd/stm32_lcd.c ****   * @param  Points      Pointer to the points array
 694:STM32Cube_FW_N6/Utilities/lcd/stm32_lcd.c ****   * @param  PointCount  Number of points
 695:STM32Cube_FW_N6/Utilities/lcd/stm32_lcd.c ****   * @param  Color       Draw color
 696:STM32Cube_FW_N6/Utilities/lcd/stm32_lcd.c ****   */
 697:STM32Cube_FW_N6/Utilities/lcd/stm32_lcd.c **** void UTIL_LCD_DrawPolygon(pPoint Points, uint32_t PointCount, uint32_t Color)
 698:STM32Cube_FW_N6/Utilities/lcd/stm32_lcd.c **** {
 699:STM32Cube_FW_N6/Utilities/lcd/stm32_lcd.c ****   int16_t x_pos = 0, y_pos = 0;
 700:STM32Cube_FW_N6/Utilities/lcd/stm32_lcd.c **** 
 701:STM32Cube_FW_N6/Utilities/lcd/stm32_lcd.c ****   if(PointCount < 2)
 702:STM32Cube_FW_N6/Utilities/lcd/stm32_lcd.c ****   {
 703:STM32Cube_FW_N6/Utilities/lcd/stm32_lcd.c ****     return;
 704:STM32Cube_FW_N6/Utilities/lcd/stm32_lcd.c ****   }
 705:STM32Cube_FW_N6/Utilities/lcd/stm32_lcd.c **** 
 706:STM32Cube_FW_N6/Utilities/lcd/stm32_lcd.c ****   UTIL_LCD_DrawLine(Points->X, Points->Y, (Points+PointCount-1)->X, (Points+PointCount-1)->Y, Color
 707:STM32Cube_FW_N6/Utilities/lcd/stm32_lcd.c **** 
 708:STM32Cube_FW_N6/Utilities/lcd/stm32_lcd.c ****   while(--PointCount)
 709:STM32Cube_FW_N6/Utilities/lcd/stm32_lcd.c ****   {
 710:STM32Cube_FW_N6/Utilities/lcd/stm32_lcd.c ****     x_pos = Points->X;
 711:STM32Cube_FW_N6/Utilities/lcd/stm32_lcd.c ****     y_pos = Points->Y;
 712:STM32Cube_FW_N6/Utilities/lcd/stm32_lcd.c ****     Points++;
 713:STM32Cube_FW_N6/Utilities/lcd/stm32_lcd.c ****     UTIL_LCD_DrawLine(x_pos, y_pos, Points->X, Points->Y, Color);
 714:STM32Cube_FW_N6/Utilities/lcd/stm32_lcd.c ****   }
 715:STM32Cube_FW_N6/Utilities/lcd/stm32_lcd.c **** }
 716:STM32Cube_FW_N6/Utilities/lcd/stm32_lcd.c **** 
 717:STM32Cube_FW_N6/Utilities/lcd/stm32_lcd.c **** /**
 718:STM32Cube_FW_N6/Utilities/lcd/stm32_lcd.c ****   * @brief  Draws an ellipse on LCD in currently active layer.
 719:STM32Cube_FW_N6/Utilities/lcd/stm32_lcd.c ****   * @param  Xpos    X position
 720:STM32Cube_FW_N6/Utilities/lcd/stm32_lcd.c ****   * @param  Ypos    Y position
 721:STM32Cube_FW_N6/Utilities/lcd/stm32_lcd.c ****   * @param  XRadius Ellipse X radius
 722:STM32Cube_FW_N6/Utilities/lcd/stm32_lcd.c ****   * @param  YRadius Ellipse Y radius
 723:STM32Cube_FW_N6/Utilities/lcd/stm32_lcd.c ****   * @param  Color   Draw color
 724:STM32Cube_FW_N6/Utilities/lcd/stm32_lcd.c ****   */
 725:STM32Cube_FW_N6/Utilities/lcd/stm32_lcd.c **** void UTIL_LCD_DrawEllipse(int Xpos, int Ypos, int XRadius, int YRadius, uint32_t Color)
 726:STM32Cube_FW_N6/Utilities/lcd/stm32_lcd.c **** {
 727:STM32Cube_FW_N6/Utilities/lcd/stm32_lcd.c ****   int x_pos = 0, y_pos = -YRadius, err = 2-2*XRadius, e2;
 728:STM32Cube_FW_N6/Utilities/lcd/stm32_lcd.c ****   float k = 0, rad1 = 0, rad2 = 0;
 729:STM32Cube_FW_N6/Utilities/lcd/stm32_lcd.c **** 
 730:STM32Cube_FW_N6/Utilities/lcd/stm32_lcd.c ****   rad1 = XRadius;
 731:STM32Cube_FW_N6/Utilities/lcd/stm32_lcd.c ****   rad2 = YRadius;
 732:STM32Cube_FW_N6/Utilities/lcd/stm32_lcd.c **** 
 733:STM32Cube_FW_N6/Utilities/lcd/stm32_lcd.c ****   k = (float)(rad2/rad1);
 734:STM32Cube_FW_N6/Utilities/lcd/stm32_lcd.c **** 
 735:STM32Cube_FW_N6/Utilities/lcd/stm32_lcd.c ****   do
 736:STM32Cube_FW_N6/Utilities/lcd/stm32_lcd.c ****   {
 737:STM32Cube_FW_N6/Utilities/lcd/stm32_lcd.c ****     UTIL_LCD_SetPixel((Xpos-(uint32_t)(x_pos/k)), (Ypos + y_pos), Color);
 738:STM32Cube_FW_N6/Utilities/lcd/stm32_lcd.c ****     UTIL_LCD_SetPixel((Xpos+(uint32_t)(x_pos/k)), (Ypos + y_pos), Color);
 739:STM32Cube_FW_N6/Utilities/lcd/stm32_lcd.c ****     UTIL_LCD_SetPixel((Xpos+(uint32_t)(x_pos/k)), (Ypos - y_pos), Color);
 740:STM32Cube_FW_N6/Utilities/lcd/stm32_lcd.c ****     UTIL_LCD_SetPixel((Xpos-(uint32_t)(x_pos/k)), (Ypos - y_pos), Color);
 741:STM32Cube_FW_N6/Utilities/lcd/stm32_lcd.c **** 
 742:STM32Cube_FW_N6/Utilities/lcd/stm32_lcd.c ****     e2 = err;
 743:STM32Cube_FW_N6/Utilities/lcd/stm32_lcd.c ****     if (e2 <= x_pos)
 744:STM32Cube_FW_N6/Utilities/lcd/stm32_lcd.c ****     {
ARM GAS  C:\Users\DJESSOU\AppData\Local\Temp\ccR55SEh.s 			page 34


 745:STM32Cube_FW_N6/Utilities/lcd/stm32_lcd.c ****       err += ++x_pos*2+1;
 746:STM32Cube_FW_N6/Utilities/lcd/stm32_lcd.c ****       if (-y_pos == x_pos && e2 <= y_pos) e2 = 0;
 747:STM32Cube_FW_N6/Utilities/lcd/stm32_lcd.c ****     }
 748:STM32Cube_FW_N6/Utilities/lcd/stm32_lcd.c ****     if (e2 > y_pos)
 749:STM32Cube_FW_N6/Utilities/lcd/stm32_lcd.c ****     {
 750:STM32Cube_FW_N6/Utilities/lcd/stm32_lcd.c ****       err += ++y_pos*2+1;
 751:STM32Cube_FW_N6/Utilities/lcd/stm32_lcd.c ****     }
 752:STM32Cube_FW_N6/Utilities/lcd/stm32_lcd.c ****   }while (y_pos <= 0);
 753:STM32Cube_FW_N6/Utilities/lcd/stm32_lcd.c **** }
 754:STM32Cube_FW_N6/Utilities/lcd/stm32_lcd.c **** 
 755:STM32Cube_FW_N6/Utilities/lcd/stm32_lcd.c **** /**
 756:STM32Cube_FW_N6/Utilities/lcd/stm32_lcd.c ****   * @brief  Draws a bitmap picture loaded in the internal Flash (32 bpp) in currently active layer.
 757:STM32Cube_FW_N6/Utilities/lcd/stm32_lcd.c ****   * @param  Xpos  Bmp X position in the LCD
 758:STM32Cube_FW_N6/Utilities/lcd/stm32_lcd.c ****   * @param  Ypos  Bmp Y position in the LCD
 759:STM32Cube_FW_N6/Utilities/lcd/stm32_lcd.c ****   * @param  pData Pointer to Bmp picture address in the internal Flash
 760:STM32Cube_FW_N6/Utilities/lcd/stm32_lcd.c ****   */
 761:STM32Cube_FW_N6/Utilities/lcd/stm32_lcd.c **** void UTIL_LCD_DrawBitmap(uint32_t Xpos, uint32_t Ypos, uint8_t *pData)
 762:STM32Cube_FW_N6/Utilities/lcd/stm32_lcd.c **** {
 763:STM32Cube_FW_N6/Utilities/lcd/stm32_lcd.c ****   FuncDriver.DrawBitmap(DrawProp->LcdDevice, Xpos, Ypos, pData);
 764:STM32Cube_FW_N6/Utilities/lcd/stm32_lcd.c **** }
 765:STM32Cube_FW_N6/Utilities/lcd/stm32_lcd.c **** 
 766:STM32Cube_FW_N6/Utilities/lcd/stm32_lcd.c **** /**
 767:STM32Cube_FW_N6/Utilities/lcd/stm32_lcd.c ****   * @brief  Draws a full rectangle in currently active layer.
 768:STM32Cube_FW_N6/Utilities/lcd/stm32_lcd.c ****   * @param  Xpos   X position
 769:STM32Cube_FW_N6/Utilities/lcd/stm32_lcd.c ****   * @param  Ypos   Y position
 770:STM32Cube_FW_N6/Utilities/lcd/stm32_lcd.c ****   * @param  Width  Rectangle width
 771:STM32Cube_FW_N6/Utilities/lcd/stm32_lcd.c ****   * @param  Height Rectangle height
 772:STM32Cube_FW_N6/Utilities/lcd/stm32_lcd.c ****   * @param  Color  Draw color
 773:STM32Cube_FW_N6/Utilities/lcd/stm32_lcd.c ****   */
 774:STM32Cube_FW_N6/Utilities/lcd/stm32_lcd.c **** void UTIL_LCD_FillRect(uint32_t Xpos, uint32_t Ypos, uint32_t Width, uint32_t Height, uint32_t Colo
 775:STM32Cube_FW_N6/Utilities/lcd/stm32_lcd.c **** {
 776:STM32Cube_FW_N6/Utilities/lcd/stm32_lcd.c ****   /* Fill the rectangle */
 777:STM32Cube_FW_N6/Utilities/lcd/stm32_lcd.c ****   if(DrawProp[DrawProp->LcdLayer].LcdPixelFormat == LCD_PIXEL_FORMAT_RGB565)
 778:STM32Cube_FW_N6/Utilities/lcd/stm32_lcd.c ****   {
 779:STM32Cube_FW_N6/Utilities/lcd/stm32_lcd.c ****     FuncDriver.FillRect(DrawProp->LcdDevice, Xpos, Ypos, Width, Height, CONVERTARGB88882RGB565(Colo
 780:STM32Cube_FW_N6/Utilities/lcd/stm32_lcd.c ****   }
 781:STM32Cube_FW_N6/Utilities/lcd/stm32_lcd.c ****   else if(DrawProp[DrawProp->LcdLayer].LcdPixelFormat == LCD_PIXEL_FORMAT_RGB888)
 782:STM32Cube_FW_N6/Utilities/lcd/stm32_lcd.c ****   {
 783:STM32Cube_FW_N6/Utilities/lcd/stm32_lcd.c ****     FuncDriver.FillRect(DrawProp->LcdDevice, Xpos, Ypos, Width, Height, CONVERTARGB88882RGB888(Colo
 784:STM32Cube_FW_N6/Utilities/lcd/stm32_lcd.c ****   }
 785:STM32Cube_FW_N6/Utilities/lcd/stm32_lcd.c ****   else if(DrawProp[DrawProp->LcdLayer].LcdPixelFormat == LCD_PIXEL_FORMAT_ARGB4444)
 786:STM32Cube_FW_N6/Utilities/lcd/stm32_lcd.c ****   {
 787:STM32Cube_FW_N6/Utilities/lcd/stm32_lcd.c ****     FuncDriver.FillRect(DrawProp->LcdDevice, Xpos, Ypos, Width, Height, CONVERTARGB88882ARGB4444(Co
 788:STM32Cube_FW_N6/Utilities/lcd/stm32_lcd.c ****   }
 789:STM32Cube_FW_N6/Utilities/lcd/stm32_lcd.c ****   else /*LCD_PIXEL_FORMAT_ARGB8888*/
 790:STM32Cube_FW_N6/Utilities/lcd/stm32_lcd.c ****   {
 791:STM32Cube_FW_N6/Utilities/lcd/stm32_lcd.c ****     FuncDriver.FillRect(DrawProp->LcdDevice, Xpos, Ypos, Width, Height, Color);
 792:STM32Cube_FW_N6/Utilities/lcd/stm32_lcd.c ****   }
 793:STM32Cube_FW_N6/Utilities/lcd/stm32_lcd.c **** }
 794:STM32Cube_FW_N6/Utilities/lcd/stm32_lcd.c **** 
 795:STM32Cube_FW_N6/Utilities/lcd/stm32_lcd.c **** /**
 796:STM32Cube_FW_N6/Utilities/lcd/stm32_lcd.c ****   * @brief  Draws a full circle in currently active layer.
 797:STM32Cube_FW_N6/Utilities/lcd/stm32_lcd.c ****   * @param  Xpos   X position
 798:STM32Cube_FW_N6/Utilities/lcd/stm32_lcd.c ****   * @param  Ypos   Y position
 799:STM32Cube_FW_N6/Utilities/lcd/stm32_lcd.c ****   * @param  Radius Circle radius
 800:STM32Cube_FW_N6/Utilities/lcd/stm32_lcd.c ****   * @param  Color  Draw color
 801:STM32Cube_FW_N6/Utilities/lcd/stm32_lcd.c ****   */
ARM GAS  C:\Users\DJESSOU\AppData\Local\Temp\ccR55SEh.s 			page 35


 802:STM32Cube_FW_N6/Utilities/lcd/stm32_lcd.c **** void UTIL_LCD_FillCircle(uint32_t Xpos, uint32_t Ypos, uint32_t Radius, uint32_t Color)
 803:STM32Cube_FW_N6/Utilities/lcd/stm32_lcd.c **** {
 804:STM32Cube_FW_N6/Utilities/lcd/stm32_lcd.c ****   int32_t   decision;  /* Decision Variable */
 805:STM32Cube_FW_N6/Utilities/lcd/stm32_lcd.c ****   uint32_t  current_x; /* Current X Value */
 806:STM32Cube_FW_N6/Utilities/lcd/stm32_lcd.c ****   uint32_t  current_y; /* Current Y Value */
 807:STM32Cube_FW_N6/Utilities/lcd/stm32_lcd.c **** 
 808:STM32Cube_FW_N6/Utilities/lcd/stm32_lcd.c ****   decision = 3 - (Radius << 1);
 809:STM32Cube_FW_N6/Utilities/lcd/stm32_lcd.c **** 
 810:STM32Cube_FW_N6/Utilities/lcd/stm32_lcd.c ****   current_x = 0;
 811:STM32Cube_FW_N6/Utilities/lcd/stm32_lcd.c ****   current_y = Radius;
 812:STM32Cube_FW_N6/Utilities/lcd/stm32_lcd.c **** 
 813:STM32Cube_FW_N6/Utilities/lcd/stm32_lcd.c ****   while (current_x <= current_y)
 814:STM32Cube_FW_N6/Utilities/lcd/stm32_lcd.c ****   {
 815:STM32Cube_FW_N6/Utilities/lcd/stm32_lcd.c ****     if(current_y > 0)
 816:STM32Cube_FW_N6/Utilities/lcd/stm32_lcd.c ****     {
 817:STM32Cube_FW_N6/Utilities/lcd/stm32_lcd.c ****       if(current_y >= Xpos)
 818:STM32Cube_FW_N6/Utilities/lcd/stm32_lcd.c ****       {
 819:STM32Cube_FW_N6/Utilities/lcd/stm32_lcd.c ****         UTIL_LCD_DrawHLine(0, Ypos + current_x, 2*current_y - (current_y - Xpos), Color);
 820:STM32Cube_FW_N6/Utilities/lcd/stm32_lcd.c ****         UTIL_LCD_DrawHLine(0, Ypos - current_x, 2*current_y - (current_y - Xpos), Color);
 821:STM32Cube_FW_N6/Utilities/lcd/stm32_lcd.c ****       }
 822:STM32Cube_FW_N6/Utilities/lcd/stm32_lcd.c ****       else
 823:STM32Cube_FW_N6/Utilities/lcd/stm32_lcd.c ****       {
 824:STM32Cube_FW_N6/Utilities/lcd/stm32_lcd.c ****         UTIL_LCD_DrawHLine(Xpos - current_y, Ypos + current_x, 2*current_y, Color);
 825:STM32Cube_FW_N6/Utilities/lcd/stm32_lcd.c ****         UTIL_LCD_DrawHLine(Xpos - current_y, Ypos - current_x, 2*current_y, Color);
 826:STM32Cube_FW_N6/Utilities/lcd/stm32_lcd.c ****       }
 827:STM32Cube_FW_N6/Utilities/lcd/stm32_lcd.c ****     }
 828:STM32Cube_FW_N6/Utilities/lcd/stm32_lcd.c **** 
 829:STM32Cube_FW_N6/Utilities/lcd/stm32_lcd.c ****     if(current_x > 0)
 830:STM32Cube_FW_N6/Utilities/lcd/stm32_lcd.c ****     {
 831:STM32Cube_FW_N6/Utilities/lcd/stm32_lcd.c ****       if(current_x >= Xpos)
 832:STM32Cube_FW_N6/Utilities/lcd/stm32_lcd.c ****       {
 833:STM32Cube_FW_N6/Utilities/lcd/stm32_lcd.c ****         UTIL_LCD_DrawHLine(0, Ypos - current_y, 2*current_x - (current_x - Xpos), Color);
 834:STM32Cube_FW_N6/Utilities/lcd/stm32_lcd.c ****         UTIL_LCD_DrawHLine(0, Ypos + current_y, 2*current_x - (current_x - Xpos), Color);
 835:STM32Cube_FW_N6/Utilities/lcd/stm32_lcd.c ****       }
 836:STM32Cube_FW_N6/Utilities/lcd/stm32_lcd.c ****       else
 837:STM32Cube_FW_N6/Utilities/lcd/stm32_lcd.c ****       {
 838:STM32Cube_FW_N6/Utilities/lcd/stm32_lcd.c ****         UTIL_LCD_DrawHLine(Xpos - current_x, Ypos - current_y, 2*current_x, Color);
 839:STM32Cube_FW_N6/Utilities/lcd/stm32_lcd.c ****         UTIL_LCD_DrawHLine(Xpos - current_x, Ypos + current_y, 2*current_x, Color);
 840:STM32Cube_FW_N6/Utilities/lcd/stm32_lcd.c ****       }
 841:STM32Cube_FW_N6/Utilities/lcd/stm32_lcd.c ****     }
 842:STM32Cube_FW_N6/Utilities/lcd/stm32_lcd.c ****     if (decision < 0)
 843:STM32Cube_FW_N6/Utilities/lcd/stm32_lcd.c ****     {
 844:STM32Cube_FW_N6/Utilities/lcd/stm32_lcd.c ****       decision += (current_x << 2) + 6;
 845:STM32Cube_FW_N6/Utilities/lcd/stm32_lcd.c ****     }
 846:STM32Cube_FW_N6/Utilities/lcd/stm32_lcd.c ****     else
 847:STM32Cube_FW_N6/Utilities/lcd/stm32_lcd.c ****     {
 848:STM32Cube_FW_N6/Utilities/lcd/stm32_lcd.c ****       decision += ((current_x - current_y) << 2) + 10;
 849:STM32Cube_FW_N6/Utilities/lcd/stm32_lcd.c ****       current_y--;
 850:STM32Cube_FW_N6/Utilities/lcd/stm32_lcd.c ****     }
 851:STM32Cube_FW_N6/Utilities/lcd/stm32_lcd.c ****     current_x++;
 852:STM32Cube_FW_N6/Utilities/lcd/stm32_lcd.c ****   }
 853:STM32Cube_FW_N6/Utilities/lcd/stm32_lcd.c **** 
 854:STM32Cube_FW_N6/Utilities/lcd/stm32_lcd.c ****   UTIL_LCD_DrawCircle(Xpos, Ypos, Radius, Color);
 855:STM32Cube_FW_N6/Utilities/lcd/stm32_lcd.c **** }
 856:STM32Cube_FW_N6/Utilities/lcd/stm32_lcd.c **** 
 857:STM32Cube_FW_N6/Utilities/lcd/stm32_lcd.c **** /**
 858:STM32Cube_FW_N6/Utilities/lcd/stm32_lcd.c ****   * @brief  Draws a full poly-line (between many points) in currently active layer.
ARM GAS  C:\Users\DJESSOU\AppData\Local\Temp\ccR55SEh.s 			page 36


 859:STM32Cube_FW_N6/Utilities/lcd/stm32_lcd.c ****   * @param  Points     Pointer to the points array
 860:STM32Cube_FW_N6/Utilities/lcd/stm32_lcd.c ****   * @param  PointCount Number of points
 861:STM32Cube_FW_N6/Utilities/lcd/stm32_lcd.c ****   * @param  Color      Draw color
 862:STM32Cube_FW_N6/Utilities/lcd/stm32_lcd.c ****   */
 863:STM32Cube_FW_N6/Utilities/lcd/stm32_lcd.c **** void UTIL_LCD_FillPolygon(pPoint Points, uint32_t PointCount, uint32_t Color)
 864:STM32Cube_FW_N6/Utilities/lcd/stm32_lcd.c **** {
 865:STM32Cube_FW_N6/Utilities/lcd/stm32_lcd.c ****   int16_t X = 0, Y = 0, X2 = 0, Y2 = 0, x_center = 0, y_center = 0, x_first = 0, y_first = 0, pixel
 866:STM32Cube_FW_N6/Utilities/lcd/stm32_lcd.c ****   uint32_t  image_left = 0, image_right = 0, image_top = 0, image_bottom = 0;
 867:STM32Cube_FW_N6/Utilities/lcd/stm32_lcd.c ****   Triangle_Positions_t positions;
 868:STM32Cube_FW_N6/Utilities/lcd/stm32_lcd.c **** 
 869:STM32Cube_FW_N6/Utilities/lcd/stm32_lcd.c ****   image_left = image_right = Points->X;
 870:STM32Cube_FW_N6/Utilities/lcd/stm32_lcd.c ****   image_top= image_bottom = Points->Y;
 871:STM32Cube_FW_N6/Utilities/lcd/stm32_lcd.c **** 
 872:STM32Cube_FW_N6/Utilities/lcd/stm32_lcd.c ****   for(counter = 1; counter < PointCount; counter++)
 873:STM32Cube_FW_N6/Utilities/lcd/stm32_lcd.c ****   {
 874:STM32Cube_FW_N6/Utilities/lcd/stm32_lcd.c ****     pixel_x = POLY_X(counter);
 875:STM32Cube_FW_N6/Utilities/lcd/stm32_lcd.c ****     if(pixel_x < image_left)
 876:STM32Cube_FW_N6/Utilities/lcd/stm32_lcd.c ****     {
 877:STM32Cube_FW_N6/Utilities/lcd/stm32_lcd.c ****       image_left = pixel_x;
 878:STM32Cube_FW_N6/Utilities/lcd/stm32_lcd.c ****     }
 879:STM32Cube_FW_N6/Utilities/lcd/stm32_lcd.c ****     if(pixel_x > image_right)
 880:STM32Cube_FW_N6/Utilities/lcd/stm32_lcd.c ****     {
 881:STM32Cube_FW_N6/Utilities/lcd/stm32_lcd.c ****       image_right = pixel_x;
 882:STM32Cube_FW_N6/Utilities/lcd/stm32_lcd.c ****     }
 883:STM32Cube_FW_N6/Utilities/lcd/stm32_lcd.c **** 
 884:STM32Cube_FW_N6/Utilities/lcd/stm32_lcd.c ****     pixel_y = POLY_Y(counter);
 885:STM32Cube_FW_N6/Utilities/lcd/stm32_lcd.c ****     if(pixel_y < image_top)
 886:STM32Cube_FW_N6/Utilities/lcd/stm32_lcd.c ****     {
 887:STM32Cube_FW_N6/Utilities/lcd/stm32_lcd.c ****       image_top = pixel_y;
 888:STM32Cube_FW_N6/Utilities/lcd/stm32_lcd.c ****     }
 889:STM32Cube_FW_N6/Utilities/lcd/stm32_lcd.c ****     if(pixel_y > image_bottom)
 890:STM32Cube_FW_N6/Utilities/lcd/stm32_lcd.c ****     {
 891:STM32Cube_FW_N6/Utilities/lcd/stm32_lcd.c ****       image_bottom = pixel_y;
 892:STM32Cube_FW_N6/Utilities/lcd/stm32_lcd.c ****     }
 893:STM32Cube_FW_N6/Utilities/lcd/stm32_lcd.c ****   }
 894:STM32Cube_FW_N6/Utilities/lcd/stm32_lcd.c **** 
 895:STM32Cube_FW_N6/Utilities/lcd/stm32_lcd.c ****   if(PointCount < 2)
 896:STM32Cube_FW_N6/Utilities/lcd/stm32_lcd.c ****   {
 897:STM32Cube_FW_N6/Utilities/lcd/stm32_lcd.c ****     return;
 898:STM32Cube_FW_N6/Utilities/lcd/stm32_lcd.c ****   }
 899:STM32Cube_FW_N6/Utilities/lcd/stm32_lcd.c **** 
 900:STM32Cube_FW_N6/Utilities/lcd/stm32_lcd.c ****   x_center = (image_left + image_right)/2;
 901:STM32Cube_FW_N6/Utilities/lcd/stm32_lcd.c ****   y_center = (image_bottom + image_top)/2;
 902:STM32Cube_FW_N6/Utilities/lcd/stm32_lcd.c **** 
 903:STM32Cube_FW_N6/Utilities/lcd/stm32_lcd.c ****   x_first = Points->X;
 904:STM32Cube_FW_N6/Utilities/lcd/stm32_lcd.c ****   y_first = Points->Y;
 905:STM32Cube_FW_N6/Utilities/lcd/stm32_lcd.c **** 
 906:STM32Cube_FW_N6/Utilities/lcd/stm32_lcd.c ****   while(--PointCount)
 907:STM32Cube_FW_N6/Utilities/lcd/stm32_lcd.c ****   {
 908:STM32Cube_FW_N6/Utilities/lcd/stm32_lcd.c ****     X = Points->X;
 909:STM32Cube_FW_N6/Utilities/lcd/stm32_lcd.c ****     Y = Points->Y;
 910:STM32Cube_FW_N6/Utilities/lcd/stm32_lcd.c ****     Points++;
 911:STM32Cube_FW_N6/Utilities/lcd/stm32_lcd.c ****     X2 = Points->X;
 912:STM32Cube_FW_N6/Utilities/lcd/stm32_lcd.c ****     Y2 = Points->Y;
 913:STM32Cube_FW_N6/Utilities/lcd/stm32_lcd.c ****     positions.x1 = X;
 914:STM32Cube_FW_N6/Utilities/lcd/stm32_lcd.c ****     positions.y1 = Y;
 915:STM32Cube_FW_N6/Utilities/lcd/stm32_lcd.c ****     positions.x2 = X2;
ARM GAS  C:\Users\DJESSOU\AppData\Local\Temp\ccR55SEh.s 			page 37


 916:STM32Cube_FW_N6/Utilities/lcd/stm32_lcd.c ****     positions.y2 = Y2;
 917:STM32Cube_FW_N6/Utilities/lcd/stm32_lcd.c ****     positions.x3 = x_center;
 918:STM32Cube_FW_N6/Utilities/lcd/stm32_lcd.c ****     positions.y3 = y_center;
 919:STM32Cube_FW_N6/Utilities/lcd/stm32_lcd.c ****     FillTriangle(&positions, Color);
 920:STM32Cube_FW_N6/Utilities/lcd/stm32_lcd.c **** 
 921:STM32Cube_FW_N6/Utilities/lcd/stm32_lcd.c ****     positions.x2 = x_center;
 922:STM32Cube_FW_N6/Utilities/lcd/stm32_lcd.c ****     positions.y2 = y_center;
 923:STM32Cube_FW_N6/Utilities/lcd/stm32_lcd.c ****     positions.x3 = X2;
 924:STM32Cube_FW_N6/Utilities/lcd/stm32_lcd.c ****     positions.y3 = Y2;
 925:STM32Cube_FW_N6/Utilities/lcd/stm32_lcd.c ****     FillTriangle(&positions, Color);
 926:STM32Cube_FW_N6/Utilities/lcd/stm32_lcd.c **** 
 927:STM32Cube_FW_N6/Utilities/lcd/stm32_lcd.c ****     positions.x1 = x_center;
 928:STM32Cube_FW_N6/Utilities/lcd/stm32_lcd.c ****     positions.y1 = y_center;
 929:STM32Cube_FW_N6/Utilities/lcd/stm32_lcd.c ****     positions.x2 = X2;
 930:STM32Cube_FW_N6/Utilities/lcd/stm32_lcd.c ****     positions.y2 = Y2;
 931:STM32Cube_FW_N6/Utilities/lcd/stm32_lcd.c ****     positions.x3 = X;
 932:STM32Cube_FW_N6/Utilities/lcd/stm32_lcd.c ****     positions.y3 = Y;
 933:STM32Cube_FW_N6/Utilities/lcd/stm32_lcd.c ****     FillTriangle(&positions, Color);
 934:STM32Cube_FW_N6/Utilities/lcd/stm32_lcd.c ****   }
 935:STM32Cube_FW_N6/Utilities/lcd/stm32_lcd.c **** 
 936:STM32Cube_FW_N6/Utilities/lcd/stm32_lcd.c ****     positions.x1 = x_first;
 937:STM32Cube_FW_N6/Utilities/lcd/stm32_lcd.c ****     positions.y1 = y_first;
 938:STM32Cube_FW_N6/Utilities/lcd/stm32_lcd.c ****     positions.x2 = X2;
 939:STM32Cube_FW_N6/Utilities/lcd/stm32_lcd.c ****     positions.y2 = Y2;
 940:STM32Cube_FW_N6/Utilities/lcd/stm32_lcd.c ****     positions.x3 = x_center;
 941:STM32Cube_FW_N6/Utilities/lcd/stm32_lcd.c ****     positions.y3 = y_center;
 942:STM32Cube_FW_N6/Utilities/lcd/stm32_lcd.c ****     FillTriangle(&positions, Color);
 943:STM32Cube_FW_N6/Utilities/lcd/stm32_lcd.c **** 
 944:STM32Cube_FW_N6/Utilities/lcd/stm32_lcd.c ****     positions.x2 = x_center;
 945:STM32Cube_FW_N6/Utilities/lcd/stm32_lcd.c ****     positions.y2 = y_center;
 946:STM32Cube_FW_N6/Utilities/lcd/stm32_lcd.c ****     positions.x3 = X2;
 947:STM32Cube_FW_N6/Utilities/lcd/stm32_lcd.c ****     positions.y3 = Y2;
 948:STM32Cube_FW_N6/Utilities/lcd/stm32_lcd.c ****     FillTriangle(&positions, Color);
 949:STM32Cube_FW_N6/Utilities/lcd/stm32_lcd.c **** 
 950:STM32Cube_FW_N6/Utilities/lcd/stm32_lcd.c ****     positions.x1 = x_center;
 951:STM32Cube_FW_N6/Utilities/lcd/stm32_lcd.c ****     positions.y1 = y_center;
 952:STM32Cube_FW_N6/Utilities/lcd/stm32_lcd.c ****     positions.x2 = X2;
 953:STM32Cube_FW_N6/Utilities/lcd/stm32_lcd.c ****     positions.y2 = Y2;
 954:STM32Cube_FW_N6/Utilities/lcd/stm32_lcd.c ****     positions.x3 = x_first;
 955:STM32Cube_FW_N6/Utilities/lcd/stm32_lcd.c ****     positions.y3 = y_first;
 956:STM32Cube_FW_N6/Utilities/lcd/stm32_lcd.c ****     FillTriangle(&positions, Color);
 957:STM32Cube_FW_N6/Utilities/lcd/stm32_lcd.c **** }
 958:STM32Cube_FW_N6/Utilities/lcd/stm32_lcd.c **** 
 959:STM32Cube_FW_N6/Utilities/lcd/stm32_lcd.c **** /**
 960:STM32Cube_FW_N6/Utilities/lcd/stm32_lcd.c ****   * @brief  Draws a full ellipse in currently active layer.
 961:STM32Cube_FW_N6/Utilities/lcd/stm32_lcd.c ****   * @param  Xpos    X position
 962:STM32Cube_FW_N6/Utilities/lcd/stm32_lcd.c ****   * @param  Ypos    Y position
 963:STM32Cube_FW_N6/Utilities/lcd/stm32_lcd.c ****   * @param  XRadius Ellipse X radius
 964:STM32Cube_FW_N6/Utilities/lcd/stm32_lcd.c ****   * @param  YRadius Ellipse Y radius
 965:STM32Cube_FW_N6/Utilities/lcd/stm32_lcd.c ****   * @param  Color   Draw color
 966:STM32Cube_FW_N6/Utilities/lcd/stm32_lcd.c ****   */
 967:STM32Cube_FW_N6/Utilities/lcd/stm32_lcd.c **** void UTIL_LCD_FillEllipse(int Xpos, int Ypos, int XRadius, int YRadius, uint32_t Color)
 968:STM32Cube_FW_N6/Utilities/lcd/stm32_lcd.c **** {
 969:STM32Cube_FW_N6/Utilities/lcd/stm32_lcd.c ****   int x_pos = 0, y_pos = -YRadius, err = 2-2*XRadius, e2;
 970:STM32Cube_FW_N6/Utilities/lcd/stm32_lcd.c ****   float k = 0, rad1 = 0, rad2 = 0;
 971:STM32Cube_FW_N6/Utilities/lcd/stm32_lcd.c **** 
 972:STM32Cube_FW_N6/Utilities/lcd/stm32_lcd.c ****   rad1 = XRadius;
ARM GAS  C:\Users\DJESSOU\AppData\Local\Temp\ccR55SEh.s 			page 38


 973:STM32Cube_FW_N6/Utilities/lcd/stm32_lcd.c ****   rad2 = YRadius;
 974:STM32Cube_FW_N6/Utilities/lcd/stm32_lcd.c **** 
 975:STM32Cube_FW_N6/Utilities/lcd/stm32_lcd.c ****   k = (float)(rad2/rad1);
 976:STM32Cube_FW_N6/Utilities/lcd/stm32_lcd.c **** 
 977:STM32Cube_FW_N6/Utilities/lcd/stm32_lcd.c ****   do
 978:STM32Cube_FW_N6/Utilities/lcd/stm32_lcd.c ****   {
 979:STM32Cube_FW_N6/Utilities/lcd/stm32_lcd.c ****     UTIL_LCD_DrawHLine((Xpos-(uint32_t)(x_pos/k)), (Ypos + y_pos), (2*(uint32_t)(x_pos/k) + 1), Col
 980:STM32Cube_FW_N6/Utilities/lcd/stm32_lcd.c ****     UTIL_LCD_DrawHLine((Xpos-(uint32_t)(x_pos/k)), (Ypos - y_pos), (2*(uint32_t)(x_pos/k) + 1), Col
 981:STM32Cube_FW_N6/Utilities/lcd/stm32_lcd.c **** 
 982:STM32Cube_FW_N6/Utilities/lcd/stm32_lcd.c ****     e2 = err;
 983:STM32Cube_FW_N6/Utilities/lcd/stm32_lcd.c ****     if (e2 <= x_pos)
 984:STM32Cube_FW_N6/Utilities/lcd/stm32_lcd.c ****     {
 985:STM32Cube_FW_N6/Utilities/lcd/stm32_lcd.c ****       err += ++x_pos*2+1;
 986:STM32Cube_FW_N6/Utilities/lcd/stm32_lcd.c ****       if (-y_pos == x_pos && e2 <= y_pos) e2 = 0;
 987:STM32Cube_FW_N6/Utilities/lcd/stm32_lcd.c ****     }
 988:STM32Cube_FW_N6/Utilities/lcd/stm32_lcd.c ****     if (e2 > y_pos) err += ++y_pos*2+1;
 989:STM32Cube_FW_N6/Utilities/lcd/stm32_lcd.c ****   }
 990:STM32Cube_FW_N6/Utilities/lcd/stm32_lcd.c ****   while (y_pos <= 0);
 991:STM32Cube_FW_N6/Utilities/lcd/stm32_lcd.c **** }
 992:STM32Cube_FW_N6/Utilities/lcd/stm32_lcd.c **** 
 993:STM32Cube_FW_N6/Utilities/lcd/stm32_lcd.c **** /**
 994:STM32Cube_FW_N6/Utilities/lcd/stm32_lcd.c ****   * @brief  Draws a character on LCD.
 995:STM32Cube_FW_N6/Utilities/lcd/stm32_lcd.c ****   * @param  Xpos  Line where to display the character shape
 996:STM32Cube_FW_N6/Utilities/lcd/stm32_lcd.c ****   * @param  Ypos  Start column address
 997:STM32Cube_FW_N6/Utilities/lcd/stm32_lcd.c ****   * @param  pData Pointer to the character data
 998:STM32Cube_FW_N6/Utilities/lcd/stm32_lcd.c ****   */
 999:STM32Cube_FW_N6/Utilities/lcd/stm32_lcd.c **** static void DrawChar(uint32_t Xpos, uint32_t Ypos, const uint8_t *pData)
 1054              		.loc 1 999 13 is_stmt 1 view .LVU248
 1055              	.LBB5:
1000:STM32Cube_FW_N6/Utilities/lcd/stm32_lcd.c **** {
1001:STM32Cube_FW_N6/Utilities/lcd/stm32_lcd.c ****   uint32_t i = 0, j = 0, offset;
 1056              		.loc 1 1001 3 view .LVU249
1002:STM32Cube_FW_N6/Utilities/lcd/stm32_lcd.c ****   uint32_t height, width;
 1057              		.loc 1 1002 3 view .LVU250
1003:STM32Cube_FW_N6/Utilities/lcd/stm32_lcd.c ****   uint8_t  *pchar;
 1058              		.loc 1 1003 3 view .LVU251
1004:STM32Cube_FW_N6/Utilities/lcd/stm32_lcd.c ****   uint32_t line;
 1059              		.loc 1 1004 3 view .LVU252
1005:STM32Cube_FW_N6/Utilities/lcd/stm32_lcd.c **** 
1006:STM32Cube_FW_N6/Utilities/lcd/stm32_lcd.c ****   height = DrawProp[DrawProp->LcdLayer].pFont->Height;
 1060              		.loc 1 1006 3 view .LVU253
1007:STM32Cube_FW_N6/Utilities/lcd/stm32_lcd.c ****   width  = DrawProp[DrawProp->LcdLayer].pFont->Width;
 1061              		.loc 1 1007 3 view .LVU254
1008:STM32Cube_FW_N6/Utilities/lcd/stm32_lcd.c **** 
1009:STM32Cube_FW_N6/Utilities/lcd/stm32_lcd.c ****   uint8_t rgb8[24*4];
 1062              		.loc 1 1009 3 view .LVU255
1010:STM32Cube_FW_N6/Utilities/lcd/stm32_lcd.c ****   uint16_t* rgb16 = (uint16_t*)rgb8;
 1063              		.loc 1 1010 3 view .LVU256
1011:STM32Cube_FW_N6/Utilities/lcd/stm32_lcd.c ****   uint32_t* argb32 = (uint32_t*)rgb8;
 1064              		.loc 1 1011 3 view .LVU257
1012:STM32Cube_FW_N6/Utilities/lcd/stm32_lcd.c ****   uint16_t* argb4444 = (uint16_t*)rgb8;
 1065              		.loc 1 1012 3 view .LVU258
1013:STM32Cube_FW_N6/Utilities/lcd/stm32_lcd.c **** 
1014:STM32Cube_FW_N6/Utilities/lcd/stm32_lcd.c ****   offset =  8 *((width + 7)/8) -  width ;
 1066              		.loc 1 1014 3 view .LVU259
 1067              	.LBE5:
 1068              	.LBE4:
ARM GAS  C:\Users\DJESSOU\AppData\Local\Temp\ccR55SEh.s 			page 39


 433:STM32Cube_FW_N6/Utilities/lcd/stm32_lcd.c **** }
 1069              		.loc 1 433 37 is_stmt 0 view .LVU260
 1070 001c 0793     		str	r3, [sp, #28]
 1071              	.LVL66:
 1072              	.LBB9:
 1073              	.LBB6:
 1074              		.loc 1 1014 24 view .LVU261
 1075 001e E31D     		adds	r3, r4, #7
 1076              	.LVL67:
 1077              		.loc 1 1014 15 view .LVU262
 1078 0020 23F00700 		bic	r0, r3, #7
 1079              	.LVL68:
 1080              		.loc 1 1014 15 view .LVU263
 1081 0024 0390     		str	r0, [sp, #12]
 1082              	.LVL69:
1015:STM32Cube_FW_N6/Utilities/lcd/stm32_lcd.c **** 
1016:STM32Cube_FW_N6/Utilities/lcd/stm32_lcd.c ****   for(i = 0; i < height; i++)
 1083              		.loc 1 1016 3 is_stmt 1 view .LVU264
1017:STM32Cube_FW_N6/Utilities/lcd/stm32_lcd.c ****   {
1018:STM32Cube_FW_N6/Utilities/lcd/stm32_lcd.c ****     pchar = ((uint8_t *)pData + (width + 7)/8 * i);
 1084              		.loc 1 1018 44 is_stmt 0 view .LVU265
 1085 0026 D808     		lsrs	r0, r3, #3
 1086              	.LVL70:
 1087              		.loc 1 1018 44 view .LVU266
 1088 0028 0690     		str	r0, [sp, #24]
1019:STM32Cube_FW_N6/Utilities/lcd/stm32_lcd.c **** 
1020:STM32Cube_FW_N6/Utilities/lcd/stm32_lcd.c ****     switch(((width + 7)/8))
1021:STM32Cube_FW_N6/Utilities/lcd/stm32_lcd.c ****     {
1022:STM32Cube_FW_N6/Utilities/lcd/stm32_lcd.c **** 
1023:STM32Cube_FW_N6/Utilities/lcd/stm32_lcd.c ****     case 1:
1024:STM32Cube_FW_N6/Utilities/lcd/stm32_lcd.c ****       line =  pchar[0];
1025:STM32Cube_FW_N6/Utilities/lcd/stm32_lcd.c ****       break;
1026:STM32Cube_FW_N6/Utilities/lcd/stm32_lcd.c **** 
1027:STM32Cube_FW_N6/Utilities/lcd/stm32_lcd.c ****     case 2:
1028:STM32Cube_FW_N6/Utilities/lcd/stm32_lcd.c ****       line =  (pchar[0]<< 8) | pchar[1];
1029:STM32Cube_FW_N6/Utilities/lcd/stm32_lcd.c ****       break;
1030:STM32Cube_FW_N6/Utilities/lcd/stm32_lcd.c **** 
1031:STM32Cube_FW_N6/Utilities/lcd/stm32_lcd.c ****     case 3:
1032:STM32Cube_FW_N6/Utilities/lcd/stm32_lcd.c ****     default:
1033:STM32Cube_FW_N6/Utilities/lcd/stm32_lcd.c ****       line =  (pchar[0]<< 16) | (pchar[1]<< 8) | pchar[2];
1034:STM32Cube_FW_N6/Utilities/lcd/stm32_lcd.c ****       break;
1035:STM32Cube_FW_N6/Utilities/lcd/stm32_lcd.c ****     }
1036:STM32Cube_FW_N6/Utilities/lcd/stm32_lcd.c **** 
1037:STM32Cube_FW_N6/Utilities/lcd/stm32_lcd.c ****     if(DrawProp[DrawProp->LcdLayer].LcdPixelFormat == LCD_PIXEL_FORMAT_RGB565)
1038:STM32Cube_FW_N6/Utilities/lcd/stm32_lcd.c ****     {
1039:STM32Cube_FW_N6/Utilities/lcd/stm32_lcd.c ****       for (j = 0; j < width; j++)
1040:STM32Cube_FW_N6/Utilities/lcd/stm32_lcd.c ****       {
1041:STM32Cube_FW_N6/Utilities/lcd/stm32_lcd.c ****         if(line & (1 << (width- j + offset- 1)))
1042:STM32Cube_FW_N6/Utilities/lcd/stm32_lcd.c ****         {
1043:STM32Cube_FW_N6/Utilities/lcd/stm32_lcd.c ****           rgb16[j] = CONVERTARGB88882RGB565(DrawProp[DrawProp->LcdLayer].TextColor);
1044:STM32Cube_FW_N6/Utilities/lcd/stm32_lcd.c ****         }
1045:STM32Cube_FW_N6/Utilities/lcd/stm32_lcd.c ****         else
1046:STM32Cube_FW_N6/Utilities/lcd/stm32_lcd.c ****         {
1047:STM32Cube_FW_N6/Utilities/lcd/stm32_lcd.c ****           rgb16[j] = CONVERTARGB88882RGB565(DrawProp[DrawProp->LcdLayer].BackColor);
1048:STM32Cube_FW_N6/Utilities/lcd/stm32_lcd.c ****         }
1049:STM32Cube_FW_N6/Utilities/lcd/stm32_lcd.c ****       }
1050:STM32Cube_FW_N6/Utilities/lcd/stm32_lcd.c ****       UTIL_LCD_FillRGBRect(Xpos,  Ypos++, &rgb8[0], width, 1);
ARM GAS  C:\Users\DJESSOU\AppData\Local\Temp\ccR55SEh.s 			page 40


1051:STM32Cube_FW_N6/Utilities/lcd/stm32_lcd.c ****     }
1052:STM32Cube_FW_N6/Utilities/lcd/stm32_lcd.c ****     else if(DrawProp[DrawProp->LcdLayer].LcdPixelFormat == LCD_PIXEL_FORMAT_RGB888)
1053:STM32Cube_FW_N6/Utilities/lcd/stm32_lcd.c ****     {
1054:STM32Cube_FW_N6/Utilities/lcd/stm32_lcd.c ****       for (j = 0; j < width*3; j = j+ 3)
 1089              		.loc 1 1054 28 discriminator 1 view .LVU267
 1090 002a 04EB4400 		add	r0, r4, r4, lsl #1
 1091 002e 0990     		str	r0, [sp, #36]
 1092 0030 0898     		ldr	r0, [sp, #32]
 1093              	.LBE6:
 1094              	.LBE9:
 432:STM32Cube_FW_N6/Utilities/lcd/stm32_lcd.c ****   DrawProp[DrawProp->LcdLayer].pFont->Height * ((DrawProp[DrawProp->LcdLayer].pFont->Width + 7) / 8
 1095              		.loc 1 432 73 view .LVU268
 1096 0032 203A     		subs	r2, r2, #32
 1097              	.LVL71:
 432:STM32Cube_FW_N6/Utilities/lcd/stm32_lcd.c ****   DrawProp[DrawProp->LcdLayer].pFont->Height * ((DrawProp[DrawProp->LcdLayer].pFont->Width + 7) / 8
 1098              		.loc 1 432 73 view .LVU269
 1099 0034 0130     		adds	r0, r0, #1
 1100 0036 0490     		str	r0, [sp, #16]
 432:STM32Cube_FW_N6/Utilities/lcd/stm32_lcd.c ****   DrawProp[DrawProp->LcdLayer].pFont->Height * ((DrawProp[DrawProp->LcdLayer].pFont->Width + 7) / 8
 1101              		.loc 1 432 79 view .LVU270
 1102 0038 0798     		ldr	r0, [sp, #28]
 1103 003a 0D68     		ldr	r5, [r1]
 1104 003c 4243     		muls	r2, r0, r2
 433:STM32Cube_FW_N6/Utilities/lcd/stm32_lcd.c **** }
 1105              		.loc 1 433 97 view .LVU271
 1106 003e DB10     		asrs	r3, r3, #3
 1107              	.LVL72:
 433:STM32Cube_FW_N6/Utilities/lcd/stm32_lcd.c **** }
 1108              		.loc 1 433 97 view .LVU272
 1109 0040 03FB0255 		mla	r5, r3, r2, r5
 1110              	.LVL73:
 1111              	.L67:
 433:STM32Cube_FW_N6/Utilities/lcd/stm32_lcd.c **** }
 1112              		.loc 1 433 97 view .LVU273
 1113 0044 049B     		ldr	r3, [sp, #16]
 1114              	.LBB10:
 1115              	.LBB7:
1016:STM32Cube_FW_N6/Utilities/lcd/stm32_lcd.c ****   {
 1116              		.loc 1 1016 16 discriminator 1 view .LVU274
 1117 0046 089A     		ldr	r2, [sp, #32]
 1118 0048 591E     		subs	r1, r3, #1
 1119              	.LVL74:
1016:STM32Cube_FW_N6/Utilities/lcd/stm32_lcd.c ****   {
 1120              		.loc 1 1016 16 is_stmt 1 discriminator 1 view .LVU275
 1121 004a 9B1A     		subs	r3, r3, r2
 1122              	.LVL75:
1016:STM32Cube_FW_N6/Utilities/lcd/stm32_lcd.c ****   {
 1123              		.loc 1 1016 16 is_stmt 0 discriminator 1 view .LVU276
 1124 004c 079A     		ldr	r2, [sp, #28]
 1125              	.LVL76:
1016:STM32Cube_FW_N6/Utilities/lcd/stm32_lcd.c ****   {
 1126              		.loc 1 1016 16 discriminator 1 view .LVU277
 1127 004e 013B     		subs	r3, r3, #1
 1128 0050 9A42     		cmp	r2, r3
 1129 0052 02D8     		bhi	.L91
 1130              	.LBE7:
 1131              	.LBE10:
ARM GAS  C:\Users\DJESSOU\AppData\Local\Temp\ccR55SEh.s 			page 41


 434:STM32Cube_FW_N6/Utilities/lcd/stm32_lcd.c **** 
 1132              		.loc 1 434 1 view .LVU278
 1133 0054 23B0     		add	sp, sp, #140
 1134              		.cfi_remember_state
 1135              		.cfi_def_cfa_offset 36
 1136              		@ sp needed
 1137 0056 BDE8F08F 		pop	{r4, r5, r6, r7, r8, r9, r10, fp, pc}
 1138              	.LVL77:
 1139              	.L91:
 1140              		.cfi_restore_state
 1141              	.LBB11:
 1142              	.LBB8:
1018:STM32Cube_FW_N6/Utilities/lcd/stm32_lcd.c **** 
 1143              		.loc 1 1018 5 is_stmt 1 view .LVU279
1020:STM32Cube_FW_N6/Utilities/lcd/stm32_lcd.c ****     {
 1144              		.loc 1 1020 5 view .LVU280
 1145 005a 0698     		ldr	r0, [sp, #24]
1024:STM32Cube_FW_N6/Utilities/lcd/stm32_lcd.c ****       break;
 1146              		.loc 1 1024 20 is_stmt 0 view .LVU281
 1147 005c 2B78     		ldrb	r3, [r5]	@ zero_extendqisi2
1020:STM32Cube_FW_N6/Utilities/lcd/stm32_lcd.c ****     {
 1148              		.loc 1 1020 5 view .LVU282
 1149 005e 0128     		cmp	r0, #1
1024:STM32Cube_FW_N6/Utilities/lcd/stm32_lcd.c ****       break;
 1150              		.loc 1 1024 12 view .LVU283
 1151 0060 1A46     		mov	r2, r3
1020:STM32Cube_FW_N6/Utilities/lcd/stm32_lcd.c ****     {
 1152              		.loc 1 1020 5 view .LVU284
 1153 0062 04D0     		beq	.L71
 1154 0064 0228     		cmp	r0, #2
 1155 0066 27D1     		bne	.L95
1028:STM32Cube_FW_N6/Utilities/lcd/stm32_lcd.c ****       break;
 1156              		.loc 1 1028 7 is_stmt 1 view .LVU285
1028:STM32Cube_FW_N6/Utilities/lcd/stm32_lcd.c ****       break;
 1157              		.loc 1 1028 12 is_stmt 0 view .LVU286
 1158 0068 2A88     		ldrh	r2, [r5]	@ unaligned
 1159 006a 52BA     		rev16	r2, r2
 1160 006c 92B2     		uxth	r2, r2
 1161              	.LVL78:
1029:STM32Cube_FW_N6/Utilities/lcd/stm32_lcd.c **** 
 1162              		.loc 1 1029 7 is_stmt 1 view .LVU287
 1163              	.L71:
1037:STM32Cube_FW_N6/Utilities/lcd/stm32_lcd.c ****     {
 1164              		.loc 1 1037 5 view .LVU288
1037:STM32Cube_FW_N6/Utilities/lcd/stm32_lcd.c ****     {
 1165              		.loc 1 1037 25 is_stmt 0 view .LVU289
 1166 006e D8F80C00 		ldr	r0, [r8, #12]
1037:STM32Cube_FW_N6/Utilities/lcd/stm32_lcd.c ****     {
 1167              		.loc 1 1037 36 view .LVU290
 1168 0072 08EB4010 		add	r0, r8, r0, lsl #5
 1169 0076 C769     		ldr	r7, [r0, #28]
1037:STM32Cube_FW_N6/Utilities/lcd/stm32_lcd.c ****     {
 1170              		.loc 1 1037 7 view .LVU291
 1171 0078 022F     		cmp	r7, #2
 1172 007a 3CD1     		bne	.L72
 1173 007c 4FF0010C 		mov	ip, #1
1041:STM32Cube_FW_N6/Utilities/lcd/stm32_lcd.c ****         {
ARM GAS  C:\Users\DJESSOU\AppData\Local\Temp\ccR55SEh.s 			page 42


 1174              		.loc 1 1041 43 view .LVU292
 1175 0080 039B     		ldr	r3, [sp, #12]
1039:STM32Cube_FW_N6/Utilities/lcd/stm32_lcd.c ****       {
 1176              		.loc 1 1039 14 view .LVU293
 1177 0082 4FF0000E 		mov	lr, #0
1041:STM32Cube_FW_N6/Utilities/lcd/stm32_lcd.c ****         {
 1178              		.loc 1 1041 43 view .LVU294
 1179 0086 03F1FF3A 		add	r10, r3, #-1
 1180 008a 6346     		mov	r3, ip
 1181 008c 7445     		cmp	r4, lr
 1182 008e 04EB0306 		add	r6, r4, r3
 1183 0092 08BF     		it	eq
 1184 0094 6646     		moveq	r6, ip
 1185 0096 0DF12809 		add	r9, sp, #40
 1186              	.LVL79:
 1187              	.L73:
1039:STM32Cube_FW_N6/Utilities/lcd/stm32_lcd.c ****       {
 1188              		.loc 1 1039 21 is_stmt 1 discriminator 1 view .LVU295
 1189 009a 013E     		subs	r6, r6, #1
 1190 009c 13D1     		bne	.L76
 1191              	.L101:
1055:STM32Cube_FW_N6/Utilities/lcd/stm32_lcd.c ****       {
1056:STM32Cube_FW_N6/Utilities/lcd/stm32_lcd.c ****         if(line & (1 << (width- j/3 + offset- 1)))
1057:STM32Cube_FW_N6/Utilities/lcd/stm32_lcd.c ****         {
1058:STM32Cube_FW_N6/Utilities/lcd/stm32_lcd.c ****           rgb8[j] = CONVERTARGB88882RGB888((DrawProp[DrawProp->LcdLayer].TextColor)) & 0xFFU;
1059:STM32Cube_FW_N6/Utilities/lcd/stm32_lcd.c ****           rgb8[j + 1U] = (CONVERTARGB88882RGB888((DrawProp[DrawProp->LcdLayer].TextColor)) >> 8) & 
1060:STM32Cube_FW_N6/Utilities/lcd/stm32_lcd.c ****           rgb8[j + 2U] = (CONVERTARGB88882RGB888((DrawProp[DrawProp->LcdLayer].TextColor)) >> 16) &
1061:STM32Cube_FW_N6/Utilities/lcd/stm32_lcd.c ****         }
1062:STM32Cube_FW_N6/Utilities/lcd/stm32_lcd.c ****         else
1063:STM32Cube_FW_N6/Utilities/lcd/stm32_lcd.c ****         {
1064:STM32Cube_FW_N6/Utilities/lcd/stm32_lcd.c ****           rgb8[j] = CONVERTARGB88882RGB888((DrawProp[DrawProp->LcdLayer].BackColor)) & 0xFFU;
1065:STM32Cube_FW_N6/Utilities/lcd/stm32_lcd.c ****           rgb8[j + 1U] = (CONVERTARGB88882RGB888((DrawProp[DrawProp->LcdLayer].BackColor)) >> 8) & 
1066:STM32Cube_FW_N6/Utilities/lcd/stm32_lcd.c ****           rgb8[j + 2U] = (CONVERTARGB88882RGB888((DrawProp[DrawProp->LcdLayer].BackColor)) >> 16) &
1067:STM32Cube_FW_N6/Utilities/lcd/stm32_lcd.c ****         }
1068:STM32Cube_FW_N6/Utilities/lcd/stm32_lcd.c ****       }
1069:STM32Cube_FW_N6/Utilities/lcd/stm32_lcd.c **** 
1070:STM32Cube_FW_N6/Utilities/lcd/stm32_lcd.c ****       UTIL_LCD_FillRGBRect(Xpos,  Ypos++, &rgb8[0], width, 1);
1071:STM32Cube_FW_N6/Utilities/lcd/stm32_lcd.c ****     }
1072:STM32Cube_FW_N6/Utilities/lcd/stm32_lcd.c ****     else if(DrawProp[DrawProp->LcdLayer].LcdPixelFormat == LCD_PIXEL_FORMAT_ARGB4444)
1073:STM32Cube_FW_N6/Utilities/lcd/stm32_lcd.c ****     {
1074:STM32Cube_FW_N6/Utilities/lcd/stm32_lcd.c ****       for (j = 0; j < width; j++)
1075:STM32Cube_FW_N6/Utilities/lcd/stm32_lcd.c ****       {
1076:STM32Cube_FW_N6/Utilities/lcd/stm32_lcd.c ****         if(line & (1 << (width- j + offset- 1)))
1077:STM32Cube_FW_N6/Utilities/lcd/stm32_lcd.c ****         {
1078:STM32Cube_FW_N6/Utilities/lcd/stm32_lcd.c ****           argb4444[j] = CONVERTARGB88882ARGB4444(DrawProp[DrawProp->LcdLayer].TextColor);
1079:STM32Cube_FW_N6/Utilities/lcd/stm32_lcd.c ****         }
1080:STM32Cube_FW_N6/Utilities/lcd/stm32_lcd.c ****         else
1081:STM32Cube_FW_N6/Utilities/lcd/stm32_lcd.c ****         {
1082:STM32Cube_FW_N6/Utilities/lcd/stm32_lcd.c ****           argb4444[j] = CONVERTARGB88882ARGB4444(DrawProp[DrawProp->LcdLayer].BackColor);
1083:STM32Cube_FW_N6/Utilities/lcd/stm32_lcd.c ****         }
1084:STM32Cube_FW_N6/Utilities/lcd/stm32_lcd.c ****       }
1085:STM32Cube_FW_N6/Utilities/lcd/stm32_lcd.c ****       UTIL_LCD_FillRGBRect(Xpos,  Ypos++, (uint8_t*)&argb4444[0], width, 1);
 1192              		.loc 1 1085 7 view .LVU296
 1193              	.LVL80:
 1194              		.loc 1 1085 7 is_stmt 0 view .LVU297
 1195 009e CDF800C0 		str	ip, [sp]
 1196              	.LVL81:
ARM GAS  C:\Users\DJESSOU\AppData\Local\Temp\ccR55SEh.s 			page 43


 1197              	.L99:
1086:STM32Cube_FW_N6/Utilities/lcd/stm32_lcd.c ****     }
1087:STM32Cube_FW_N6/Utilities/lcd/stm32_lcd.c ****     else /*LCD_PIXEL_FORMAT_ARGB888*/
1088:STM32Cube_FW_N6/Utilities/lcd/stm32_lcd.c ****     {
1089:STM32Cube_FW_N6/Utilities/lcd/stm32_lcd.c ****       for (j = 0; j < width; j++)
1090:STM32Cube_FW_N6/Utilities/lcd/stm32_lcd.c ****       {
1091:STM32Cube_FW_N6/Utilities/lcd/stm32_lcd.c ****         if(line & (1 << (width- j + offset- 1)))
1092:STM32Cube_FW_N6/Utilities/lcd/stm32_lcd.c ****         {
1093:STM32Cube_FW_N6/Utilities/lcd/stm32_lcd.c ****           argb32[j] = DrawProp[DrawProp->LcdLayer].TextColor;
1094:STM32Cube_FW_N6/Utilities/lcd/stm32_lcd.c ****         }
1095:STM32Cube_FW_N6/Utilities/lcd/stm32_lcd.c ****         else
1096:STM32Cube_FW_N6/Utilities/lcd/stm32_lcd.c ****         {
1097:STM32Cube_FW_N6/Utilities/lcd/stm32_lcd.c ****           argb32[j] = DrawProp[DrawProp->LcdLayer].BackColor;
1098:STM32Cube_FW_N6/Utilities/lcd/stm32_lcd.c ****         }
1099:STM32Cube_FW_N6/Utilities/lcd/stm32_lcd.c ****       }
1100:STM32Cube_FW_N6/Utilities/lcd/stm32_lcd.c ****       UTIL_LCD_FillRGBRect(Xpos,  Ypos++, &rgb8[0], width, 1);
 1198              		.loc 1 1100 7 view .LVU298
 1199 00a2 2346     		mov	r3, r4
 1200 00a4 0598     		ldr	r0, [sp, #20]
 1201 00a6 0AAA     		add	r2, sp, #40
 1202              	.LVL82:
 1203              		.loc 1 1100 7 view .LVU299
 1204 00a8 FFF7FEFF 		bl	UTIL_LCD_FillRGBRect
 1205              	.LVL83:
1016:STM32Cube_FW_N6/Utilities/lcd/stm32_lcd.c ****   {
 1206              		.loc 1 1016 27 is_stmt 1 discriminator 2 view .LVU300
1016:STM32Cube_FW_N6/Utilities/lcd/stm32_lcd.c ****   {
 1207              		.loc 1 1016 27 is_stmt 0 discriminator 2 view .LVU301
 1208 00ac 049B     		ldr	r3, [sp, #16]
 1209 00ae 0133     		adds	r3, r3, #1
 1210 00b0 0493     		str	r3, [sp, #16]
 1211              	.LVL84:
1016:STM32Cube_FW_N6/Utilities/lcd/stm32_lcd.c ****   {
 1212              		.loc 1 1016 27 discriminator 2 view .LVU302
 1213 00b2 069B     		ldr	r3, [sp, #24]
 1214              	.LVL85:
1016:STM32Cube_FW_N6/Utilities/lcd/stm32_lcd.c ****   {
 1215              		.loc 1 1016 27 discriminator 2 view .LVU303
 1216 00b4 1D44     		add	r5, r5, r3
 1217              	.LVL86:
1016:STM32Cube_FW_N6/Utilities/lcd/stm32_lcd.c ****   {
 1218              		.loc 1 1016 27 discriminator 2 view .LVU304
 1219 00b6 C5E7     		b	.L67
 1220              	.LVL87:
 1221              	.L95:
1033:STM32Cube_FW_N6/Utilities/lcd/stm32_lcd.c ****       break;
 1222              		.loc 1 1033 7 is_stmt 1 view .LVU305
1033:STM32Cube_FW_N6/Utilities/lcd/stm32_lcd.c ****       break;
 1223              		.loc 1 1033 39 is_stmt 0 view .LVU306
 1224 00b8 6A78     		ldrb	r2, [r5, #1]	@ zero_extendqisi2
1033:STM32Cube_FW_N6/Utilities/lcd/stm32_lcd.c ****       break;
 1225              		.loc 1 1033 24 view .LVU307
 1226 00ba 1B04     		lsls	r3, r3, #16
1033:STM32Cube_FW_N6/Utilities/lcd/stm32_lcd.c ****       break;
 1227              		.loc 1 1033 31 view .LVU308
 1228 00bc 43EA0223 		orr	r3, r3, r2, lsl #8
1033:STM32Cube_FW_N6/Utilities/lcd/stm32_lcd.c ****       break;
ARM GAS  C:\Users\DJESSOU\AppData\Local\Temp\ccR55SEh.s 			page 44


 1229              		.loc 1 1033 55 view .LVU309
 1230 00c0 AA78     		ldrb	r2, [r5, #2]	@ zero_extendqisi2
1033:STM32Cube_FW_N6/Utilities/lcd/stm32_lcd.c ****       break;
 1231              		.loc 1 1033 48 view .LVU310
 1232 00c2 1A43     		orrs	r2, r2, r3
 1233              	.LVL88:
1034:STM32Cube_FW_N6/Utilities/lcd/stm32_lcd.c ****     }
 1234              		.loc 1 1034 7 is_stmt 1 view .LVU311
 1235 00c4 D3E7     		b	.L71
 1236              	.LVL89:
 1237              	.L76:
1041:STM32Cube_FW_N6/Utilities/lcd/stm32_lcd.c ****         {
 1238              		.loc 1 1041 9 view .LVU312
1041:STM32Cube_FW_N6/Utilities/lcd/stm32_lcd.c ****         {
 1239              		.loc 1 1041 43 is_stmt 0 view .LVU313
 1240 00c6 AAEB0E03 		sub	r3, r10, lr
1041:STM32Cube_FW_N6/Utilities/lcd/stm32_lcd.c ****         {
 1241              		.loc 1 1041 22 view .LVU314
 1242 00ca 0CFA03F3 		lsl	r3, ip, r3
1041:STM32Cube_FW_N6/Utilities/lcd/stm32_lcd.c ****         {
 1243              		.loc 1 1041 11 view .LVU315
 1244 00ce 1342     		tst	r3, r2
1043:STM32Cube_FW_N6/Utilities/lcd/stm32_lcd.c ****         }
 1245              		.loc 1 1043 11 is_stmt 1 view .LVU316
1043:STM32Cube_FW_N6/Utilities/lcd/stm32_lcd.c ****         }
 1246              		.loc 1 1043 22 is_stmt 0 view .LVU317
 1247 00d0 14BF     		ite	ne
 1248 00d2 0768     		ldrne	r7, [r0]
1047:STM32Cube_FW_N6/Utilities/lcd/stm32_lcd.c ****         }
 1249              		.loc 1 1047 11 is_stmt 1 view .LVU318
1047:STM32Cube_FW_N6/Utilities/lcd/stm32_lcd.c ****         }
 1250              		.loc 1 1047 22 is_stmt 0 view .LVU319
 1251 00d4 4768     		ldreq	r7, [r0, #4]
1039:STM32Cube_FW_N6/Utilities/lcd/stm32_lcd.c ****       {
 1252              		.loc 1 1039 31 discriminator 2 view .LVU320
 1253 00d6 0EF1010E 		add	lr, lr, #1
 1254              	.LVL90:
1047:STM32Cube_FW_N6/Utilities/lcd/stm32_lcd.c ****         }
 1255              		.loc 1 1047 22 view .LVU321
 1256 00da C7F3C403 		ubfx	r3, r7, #3, #5
 1257 00de 4FEAD74B 		lsr	fp, r7, #19
 1258 00e2 7F09     		lsrs	r7, r7, #5
 1259 00e4 43EACB23 		orr	r3, r3, fp, lsl #11
 1260 00e8 07F4FC67 		and	r7, r7, #2016
 1261 00ec 3B43     		orrs	r3, r3, r7
 1262 00ee 9BB2     		uxth	r3, r3
1043:STM32Cube_FW_N6/Utilities/lcd/stm32_lcd.c ****         }
 1263              		.loc 1 1043 20 view .LVU322
 1264 00f0 29F8023B 		strh	r3, [r9], #2	@ movhi
1039:STM32Cube_FW_N6/Utilities/lcd/stm32_lcd.c ****       {
 1265              		.loc 1 1039 31 is_stmt 1 discriminator 2 view .LVU323
 1266              	.LVL91:
1039:STM32Cube_FW_N6/Utilities/lcd/stm32_lcd.c ****       {
 1267              		.loc 1 1039 31 is_stmt 0 discriminator 2 view .LVU324
 1268 00f4 D1E7     		b	.L73
 1269              	.LVL92:
 1270              	.L72:
ARM GAS  C:\Users\DJESSOU\AppData\Local\Temp\ccR55SEh.s 			page 45


1052:STM32Cube_FW_N6/Utilities/lcd/stm32_lcd.c ****     {
 1271              		.loc 1 1052 10 is_stmt 1 view .LVU325
1052:STM32Cube_FW_N6/Utilities/lcd/stm32_lcd.c ****     {
 1272              		.loc 1 1052 12 is_stmt 0 view .LVU326
 1273 00f6 012F     		cmp	r7, #1
 1274 00f8 26D1     		bne	.L78
1054:STM32Cube_FW_N6/Utilities/lcd/stm32_lcd.c ****       {
 1275              		.loc 1 1054 14 view .LVU327
 1276 00fa 4FF0000C 		mov	ip, #0
1056:STM32Cube_FW_N6/Utilities/lcd/stm32_lcd.c ****         {
 1277              		.loc 1 1056 34 view .LVU328
 1278 00fe 4FF0030B 		mov	fp, #3
1056:STM32Cube_FW_N6/Utilities/lcd/stm32_lcd.c ****         {
 1279              		.loc 1 1056 45 view .LVU329
 1280 0102 039B     		ldr	r3, [sp, #12]
 1281 0104 0AAE     		add	r6, sp, #40
 1282              	.LVL93:
1056:STM32Cube_FW_N6/Utilities/lcd/stm32_lcd.c ****         {
 1283              		.loc 1 1056 45 view .LVU330
 1284 0106 03F1FF3A 		add	r10, r3, #-1
 1285              	.LVL94:
 1286              	.L79:
1054:STM32Cube_FW_N6/Utilities/lcd/stm32_lcd.c ****       {
 1287              		.loc 1 1054 21 is_stmt 1 discriminator 1 view .LVU331
 1288 010a 099B     		ldr	r3, [sp, #36]
 1289 010c 9C45     		cmp	ip, r3
 1290 010e 02D3     		bcc	.L82
 1291              	.LVL95:
 1292              	.L100:
 1293              		.loc 1 1100 7 view .LVU332
 1294              		.loc 1 1100 7 is_stmt 0 view .LVU333
 1295 0110 0123     		movs	r3, #1
 1296 0112 0093     		str	r3, [sp]
 1297 0114 C5E7     		b	.L99
 1298              	.LVL96:
 1299              	.L82:
1056:STM32Cube_FW_N6/Utilities/lcd/stm32_lcd.c ****         {
 1300              		.loc 1 1056 9 is_stmt 1 view .LVU334
1056:STM32Cube_FW_N6/Utilities/lcd/stm32_lcd.c ****         {
 1301              		.loc 1 1056 34 is_stmt 0 view .LVU335
 1302 0116 BCFBFBF3 		udiv	r3, ip, fp
1056:STM32Cube_FW_N6/Utilities/lcd/stm32_lcd.c ****         {
 1303              		.loc 1 1056 45 view .LVU336
 1304 011a AAEB0303 		sub	r3, r10, r3
1056:STM32Cube_FW_N6/Utilities/lcd/stm32_lcd.c ****         {
 1305              		.loc 1 1056 22 view .LVU337
 1306 011e 07FA03F3 		lsl	r3, r7, r3
1056:STM32Cube_FW_N6/Utilities/lcd/stm32_lcd.c ****         {
 1307              		.loc 1 1056 11 view .LVU338
 1308 0122 1342     		tst	r3, r2
1058:STM32Cube_FW_N6/Utilities/lcd/stm32_lcd.c ****           rgb8[j + 1U] = (CONVERTARGB88882RGB888((DrawProp[DrawProp->LcdLayer].TextColor)) >> 8) & 
 1309              		.loc 1 1058 11 is_stmt 1 view .LVU339
1058:STM32Cube_FW_N6/Utilities/lcd/stm32_lcd.c ****           rgb8[j + 1U] = (CONVERTARGB88882RGB888((DrawProp[DrawProp->LcdLayer].TextColor)) >> 8) & 
 1310              		.loc 1 1058 21 is_stmt 0 view .LVU340
 1311 0124 14BF     		ite	ne
 1312 0126 0368     		ldrne	r3, [r0]
1064:STM32Cube_FW_N6/Utilities/lcd/stm32_lcd.c ****           rgb8[j + 1U] = (CONVERTARGB88882RGB888((DrawProp[DrawProp->LcdLayer].BackColor)) >> 8) & 
ARM GAS  C:\Users\DJESSOU\AppData\Local\Temp\ccR55SEh.s 			page 46


 1313              		.loc 1 1064 11 is_stmt 1 view .LVU341
1064:STM32Cube_FW_N6/Utilities/lcd/stm32_lcd.c ****           rgb8[j + 1U] = (CONVERTARGB88882RGB888((DrawProp[DrawProp->LcdLayer].BackColor)) >> 8) & 
 1314              		.loc 1 1064 21 is_stmt 0 view .LVU342
 1315 0128 4368     		ldreq	r3, [r0, #4]
1054:STM32Cube_FW_N6/Utilities/lcd/stm32_lcd.c ****       {
 1316              		.loc 1 1054 34 discriminator 2 view .LVU343
 1317 012a 0CF1030C 		add	ip, ip, #3
 1318              	.LVL97:
1064:STM32Cube_FW_N6/Utilities/lcd/stm32_lcd.c ****           rgb8[j + 1U] = (CONVERTARGB88882RGB888((DrawProp[DrawProp->LcdLayer].BackColor)) >> 8) & 
 1319              		.loc 1 1064 19 view .LVU344
 1320 012e 5FFA83F9 		uxtb	r9, r3
1065:STM32Cube_FW_N6/Utilities/lcd/stm32_lcd.c ****           rgb8[j + 2U] = (CONVERTARGB88882RGB888((DrawProp[DrawProp->LcdLayer].BackColor)) >> 16) &
 1321              		.loc 1 1065 11 is_stmt 1 view .LVU345
1065:STM32Cube_FW_N6/Utilities/lcd/stm32_lcd.c ****           rgb8[j + 2U] = (CONVERTARGB88882RGB888((DrawProp[DrawProp->LcdLayer].BackColor)) >> 16) &
 1322              		.loc 1 1065 24 is_stmt 0 view .LVU346
 1323 0132 C3F3072E 		ubfx	lr, r3, #8, #8
1066:STM32Cube_FW_N6/Utilities/lcd/stm32_lcd.c ****         }
 1324              		.loc 1 1066 11 is_stmt 1 view .LVU347
1066:STM32Cube_FW_N6/Utilities/lcd/stm32_lcd.c ****         }
 1325              		.loc 1 1066 24 is_stmt 0 view .LVU348
 1326 0136 C3F30743 		ubfx	r3, r3, #16, #8
1058:STM32Cube_FW_N6/Utilities/lcd/stm32_lcd.c ****           rgb8[j + 1U] = (CONVERTARGB88882RGB888((DrawProp[DrawProp->LcdLayer].TextColor)) >> 8) & 
 1327              		.loc 1 1058 19 view .LVU349
 1328 013a 86F80090 		strb	r9, [r6]
1059:STM32Cube_FW_N6/Utilities/lcd/stm32_lcd.c ****           rgb8[j + 2U] = (CONVERTARGB88882RGB888((DrawProp[DrawProp->LcdLayer].TextColor)) >> 16) &
 1329              		.loc 1 1059 24 view .LVU350
 1330 013e 86F801E0 		strb	lr, [r6, #1]
1060:STM32Cube_FW_N6/Utilities/lcd/stm32_lcd.c ****         }
 1331              		.loc 1 1060 24 view .LVU351
 1332 0142 B370     		strb	r3, [r6, #2]
1054:STM32Cube_FW_N6/Utilities/lcd/stm32_lcd.c ****       {
 1333              		.loc 1 1054 34 is_stmt 1 discriminator 2 view .LVU352
 1334              	.LVL98:
1054:STM32Cube_FW_N6/Utilities/lcd/stm32_lcd.c ****       {
 1335              		.loc 1 1054 34 is_stmt 0 discriminator 2 view .LVU353
 1336 0144 0336     		adds	r6, r6, #3
 1337 0146 E0E7     		b	.L79
 1338              	.LVL99:
 1339              	.L78:
1072:STM32Cube_FW_N6/Utilities/lcd/stm32_lcd.c ****     {
 1340              		.loc 1 1072 10 is_stmt 1 view .LVU354
1072:STM32Cube_FW_N6/Utilities/lcd/stm32_lcd.c ****     {
 1341              		.loc 1 1072 12 is_stmt 0 view .LVU355
 1342 0148 042F     		cmp	r7, #4
 1343 014a 1FD0     		beq	.L83
1091:STM32Cube_FW_N6/Utilities/lcd/stm32_lcd.c ****         {
 1344              		.loc 1 1091 22 view .LVU356
 1345 014c 4FF0010A 		mov	r10, #1
1089:STM32Cube_FW_N6/Utilities/lcd/stm32_lcd.c ****       {
 1346              		.loc 1 1089 14 view .LVU357
 1347 0150 0027     		movs	r7, #0
 1348 0152 5646     		mov	r6, r10
1091:STM32Cube_FW_N6/Utilities/lcd/stm32_lcd.c ****         {
 1349              		.loc 1 1091 43 view .LVU358
 1350 0154 039B     		ldr	r3, [sp, #12]
 1351 0156 BC42     		cmp	r4, r7
 1352 0158 03F1FF3B 		add	fp, r3, #-1
ARM GAS  C:\Users\DJESSOU\AppData\Local\Temp\ccR55SEh.s 			page 47


 1353 015c 04EB0603 		add	r3, r4, r6
 1354 0160 14BF     		ite	ne
 1355 0162 9C46     		movne	ip, r3
 1356 0164 D446     		moveq	ip, r10
 1357 0166 0DF12809 		add	r9, sp, #40
 1358              	.LVL100:
 1359              	.L84:
1089:STM32Cube_FW_N6/Utilities/lcd/stm32_lcd.c ****       {
 1360              		.loc 1 1089 21 is_stmt 1 discriminator 1 view .LVU359
 1361 016a BCF1010C 		subs	ip, ip, #1
 1362 016e CFD0     		beq	.L100
1091:STM32Cube_FW_N6/Utilities/lcd/stm32_lcd.c ****         {
 1363              		.loc 1 1091 9 view .LVU360
1091:STM32Cube_FW_N6/Utilities/lcd/stm32_lcd.c ****         {
 1364              		.loc 1 1091 43 is_stmt 0 view .LVU361
 1365 0170 ABEB070E 		sub	lr, fp, r7
1091:STM32Cube_FW_N6/Utilities/lcd/stm32_lcd.c ****         {
 1366              		.loc 1 1091 11 view .LVU362
 1367 0174 4368     		ldr	r3, [r0, #4]
1091:STM32Cube_FW_N6/Utilities/lcd/stm32_lcd.c ****         {
 1368              		.loc 1 1091 22 view .LVU363
 1369 0176 0AFA0EFE 		lsl	lr, r10, lr
1091:STM32Cube_FW_N6/Utilities/lcd/stm32_lcd.c ****         {
 1370              		.loc 1 1091 11 view .LVU364
 1371 017a 1EEA020F 		tst	lr, r2
1093:STM32Cube_FW_N6/Utilities/lcd/stm32_lcd.c ****         }
 1372              		.loc 1 1093 51 view .LVU365
 1373 017e 0668     		ldr	r6, [r0]
1091:STM32Cube_FW_N6/Utilities/lcd/stm32_lcd.c ****         {
 1374              		.loc 1 1091 11 view .LVU366
 1375 0180 08BF     		it	eq
 1376 0182 1E46     		moveq	r6, r3
1089:STM32Cube_FW_N6/Utilities/lcd/stm32_lcd.c ****       {
 1377              		.loc 1 1089 31 discriminator 2 view .LVU367
 1378 0184 0137     		adds	r7, r7, #1
 1379              	.LVL101:
1093:STM32Cube_FW_N6/Utilities/lcd/stm32_lcd.c ****         }
 1380              		.loc 1 1093 21 view .LVU368
 1381 0186 49F8046B 		str	r6, [r9], #4
1089:STM32Cube_FW_N6/Utilities/lcd/stm32_lcd.c ****       {
 1382              		.loc 1 1089 31 is_stmt 1 discriminator 2 view .LVU369
 1383              	.LVL102:
1089:STM32Cube_FW_N6/Utilities/lcd/stm32_lcd.c ****       {
 1384              		.loc 1 1089 31 is_stmt 0 discriminator 2 view .LVU370
 1385 018a EEE7     		b	.L84
 1386              	.LVL103:
 1387              	.L83:
1089:STM32Cube_FW_N6/Utilities/lcd/stm32_lcd.c ****       {
 1388              		.loc 1 1089 31 discriminator 2 view .LVU371
 1389 018c 4FF0010C 		mov	ip, #1
1076:STM32Cube_FW_N6/Utilities/lcd/stm32_lcd.c ****         {
 1390              		.loc 1 1076 43 view .LVU372
 1391 0190 039B     		ldr	r3, [sp, #12]
1074:STM32Cube_FW_N6/Utilities/lcd/stm32_lcd.c ****       {
 1392              		.loc 1 1074 14 view .LVU373
 1393 0192 4FF0000E 		mov	lr, #0
1076:STM32Cube_FW_N6/Utilities/lcd/stm32_lcd.c ****         {
ARM GAS  C:\Users\DJESSOU\AppData\Local\Temp\ccR55SEh.s 			page 48


 1394              		.loc 1 1076 43 view .LVU374
 1395 0196 03F1FF3B 		add	fp, r3, #-1
 1396 019a 6346     		mov	r3, ip
 1397 019c 7445     		cmp	r4, lr
 1398 019e 04EB0306 		add	r6, r4, r3
 1399 01a2 08BF     		it	eq
 1400 01a4 6646     		moveq	r6, ip
 1401 01a6 0DF1280A 		add	r10, sp, #40
 1402              	.LVL104:
 1403              	.L85:
1074:STM32Cube_FW_N6/Utilities/lcd/stm32_lcd.c ****       {
 1404              		.loc 1 1074 21 is_stmt 1 discriminator 1 view .LVU375
 1405 01aa 013E     		subs	r6, r6, #1
 1406 01ac 3FF477AF 		beq	.L101
1076:STM32Cube_FW_N6/Utilities/lcd/stm32_lcd.c ****         {
 1407              		.loc 1 1076 9 view .LVU376
1076:STM32Cube_FW_N6/Utilities/lcd/stm32_lcd.c ****         {
 1408              		.loc 1 1076 43 is_stmt 0 view .LVU377
 1409 01b0 ABEB0E03 		sub	r3, fp, lr
1076:STM32Cube_FW_N6/Utilities/lcd/stm32_lcd.c ****         {
 1410              		.loc 1 1076 22 view .LVU378
 1411 01b4 0CFA03F3 		lsl	r3, ip, r3
1076:STM32Cube_FW_N6/Utilities/lcd/stm32_lcd.c ****         {
 1412              		.loc 1 1076 11 view .LVU379
 1413 01b8 1342     		tst	r3, r2
1078:STM32Cube_FW_N6/Utilities/lcd/stm32_lcd.c ****         }
 1414              		.loc 1 1078 11 is_stmt 1 view .LVU380
1078:STM32Cube_FW_N6/Utilities/lcd/stm32_lcd.c ****         }
 1415              		.loc 1 1078 25 is_stmt 0 view .LVU381
 1416 01ba 14BF     		ite	ne
 1417 01bc 0768     		ldrne	r7, [r0]
1082:STM32Cube_FW_N6/Utilities/lcd/stm32_lcd.c ****         }
 1418              		.loc 1 1082 11 is_stmt 1 view .LVU382
1082:STM32Cube_FW_N6/Utilities/lcd/stm32_lcd.c ****         }
 1419              		.loc 1 1082 25 is_stmt 0 view .LVU383
 1420 01be 4768     		ldreq	r7, [r0, #4]
1074:STM32Cube_FW_N6/Utilities/lcd/stm32_lcd.c ****       {
 1421              		.loc 1 1074 31 discriminator 2 view .LVU384
 1422 01c0 0EF1010E 		add	lr, lr, #1
 1423              	.LVL105:
1082:STM32Cube_FW_N6/Utilities/lcd/stm32_lcd.c ****         }
 1424              		.loc 1 1082 25 view .LVU385
 1425 01c4 3B0F     		lsrs	r3, r7, #28
 1426 01c6 C7F30319 		ubfx	r9, r7, #4, #4
 1427 01ca 49EA0339 		orr	r9, r9, r3, lsl #12
 1428 01ce 3B0A     		lsrs	r3, r7, #8
 1429 01d0 03F0F003 		and	r3, r3, #240
 1430 01d4 3F0B     		lsrs	r7, r7, #12
 1431 01d6 49EA0303 		orr	r3, r9, r3
 1432 01da 07F47067 		and	r7, r7, #3840
 1433 01de 3B43     		orrs	r3, r3, r7
1078:STM32Cube_FW_N6/Utilities/lcd/stm32_lcd.c ****         }
 1434              		.loc 1 1078 23 view .LVU386
 1435 01e0 2AF8023B 		strh	r3, [r10], #2	@ movhi
1074:STM32Cube_FW_N6/Utilities/lcd/stm32_lcd.c ****       {
 1436              		.loc 1 1074 31 is_stmt 1 discriminator 2 view .LVU387
 1437              	.LVL106:
ARM GAS  C:\Users\DJESSOU\AppData\Local\Temp\ccR55SEh.s 			page 49


1074:STM32Cube_FW_N6/Utilities/lcd/stm32_lcd.c ****       {
 1438              		.loc 1 1074 31 is_stmt 0 discriminator 2 view .LVU388
 1439 01e4 E1E7     		b	.L85
 1440              	.L103:
 1441 01e6 00BF     		.align	2
 1442              	.L102:
 1443 01e8 00000000 		.word	DrawProp
 1444              	.LBE8:
 1445              	.LBE11:
 1446              		.cfi_endproc
 1447              	.LFE16:
 1449              		.section	.text.UTIL_LCD_DisplayStringAt,"ax",%progbits
 1450              		.align	1
 1451              		.global	UTIL_LCD_DisplayStringAt
 1452              		.syntax unified
 1453              		.thumb
 1454              		.thumb_func
 1456              	UTIL_LCD_DisplayStringAt:
 1457              	.LVL107:
 1458              	.LFB17:
 448:STM32Cube_FW_N6/Utilities/lcd/stm32_lcd.c ****   uint32_t refcolumn = 1, i = 0;
 1459              		.loc 1 448 1 is_stmt 1 view -0
 1460              		.cfi_startproc
 1461              		@ args = 0, pretend = 0, frame = 0
 1462              		@ frame_needed = 0, uses_anonymous_args = 0
 449:STM32Cube_FW_N6/Utilities/lcd/stm32_lcd.c ****   uint32_t size = 0, xsize = 0;
 1463              		.loc 1 449 3 view .LVU390
 450:STM32Cube_FW_N6/Utilities/lcd/stm32_lcd.c ****   uint8_t  *ptr = Text;
 1464              		.loc 1 450 3 view .LVU391
 451:STM32Cube_FW_N6/Utilities/lcd/stm32_lcd.c **** 
 1465              		.loc 1 451 3 view .LVU392
 454:STM32Cube_FW_N6/Utilities/lcd/stm32_lcd.c **** 
 1466              		.loc 1 454 3 view .LVU393
 448:STM32Cube_FW_N6/Utilities/lcd/stm32_lcd.c ****   uint32_t refcolumn = 1, i = 0;
 1467              		.loc 1 448 1 is_stmt 0 view .LVU394
 1468 0000 2DE9F843 		push	{r3, r4, r5, r6, r7, r8, r9, lr}
 1469              		.cfi_def_cfa_offset 32
 1470              		.cfi_offset 3, -32
 1471              		.cfi_offset 4, -28
 1472              		.cfi_offset 5, -24
 1473              		.cfi_offset 6, -20
 1474              		.cfi_offset 7, -16
 1475              		.cfi_offset 8, -12
 1476              		.cfi_offset 9, -8
 1477              		.cfi_offset 14, -4
 457:STM32Cube_FW_N6/Utilities/lcd/stm32_lcd.c **** 
 1478              		.loc 1 457 29 view .LVU395
 1479 0004 DFF88880 		ldr	r8, .L116
 448:STM32Cube_FW_N6/Utilities/lcd/stm32_lcd.c ****   uint32_t refcolumn = 1, i = 0;
 1480              		.loc 1 448 1 view .LVU396
 1481 0008 0546     		mov	r5, r0
 454:STM32Cube_FW_N6/Utilities/lcd/stm32_lcd.c **** 
 1482              		.loc 1 454 10 discriminator 1 view .LVU397
 1483 000a 1046     		mov	r0, r2
 1484              	.LVL108:
 448:STM32Cube_FW_N6/Utilities/lcd/stm32_lcd.c ****   uint32_t refcolumn = 1, i = 0;
 1485              		.loc 1 448 1 view .LVU398
ARM GAS  C:\Users\DJESSOU\AppData\Local\Temp\ccR55SEh.s 			page 50


 1486 000c 9946     		mov	r9, r3
 1487 000e 1646     		mov	r6, r2
 1488 0010 0F46     		mov	r7, r1
 454:STM32Cube_FW_N6/Utilities/lcd/stm32_lcd.c **** 
 1489              		.loc 1 454 10 discriminator 1 view .LVU399
 1490 0012 FFF7FEFF 		bl	strlen
 1491              	.LVL109:
 457:STM32Cube_FW_N6/Utilities/lcd/stm32_lcd.c **** 
 1492              		.loc 1 457 3 is_stmt 1 view .LVU400
 457:STM32Cube_FW_N6/Utilities/lcd/stm32_lcd.c **** 
 1493              		.loc 1 457 29 is_stmt 0 view .LVU401
 1494 0016 D8F80C30 		ldr	r3, [r8, #12]
 459:STM32Cube_FW_N6/Utilities/lcd/stm32_lcd.c ****   {
 1495              		.loc 1 459 3 view .LVU402
 1496 001a B9F1010F 		cmp	r9, #1
 457:STM32Cube_FW_N6/Utilities/lcd/stm32_lcd.c **** 
 1497              		.loc 1 457 78 view .LVU403
 1498 001e 08EB4313 		add	r3, r8, r3, lsl #5
 457:STM32Cube_FW_N6/Utilities/lcd/stm32_lcd.c **** 
 1499              		.loc 1 457 84 view .LVU404
 1500 0022 9A68     		ldr	r2, [r3, #8]
 457:STM32Cube_FW_N6/Utilities/lcd/stm32_lcd.c **** 
 1501              		.loc 1 457 9 view .LVU405
 1502 0024 5C69     		ldr	r4, [r3, #20]
 457:STM32Cube_FW_N6/Utilities/lcd/stm32_lcd.c **** 
 1503              		.loc 1 457 84 view .LVU406
 1504 0026 9288     		ldrh	r2, [r2, #4]
 457:STM32Cube_FW_N6/Utilities/lcd/stm32_lcd.c **** 
 1505              		.loc 1 457 9 view .LVU407
 1506 0028 B4FBF2F4 		udiv	r4, r4, r2
 1507              	.LVL110:
 459:STM32Cube_FW_N6/Utilities/lcd/stm32_lcd.c ****   {
 1508              		.loc 1 459 3 is_stmt 1 view .LVU408
 473:STM32Cube_FW_N6/Utilities/lcd/stm32_lcd.c ****       break;
 1509              		.loc 1 473 17 is_stmt 0 view .LVU409
 1510 002c A4EB0004 		sub	r4, r4, r0
 1511              	.LVL111:
 473:STM32Cube_FW_N6/Utilities/lcd/stm32_lcd.c ****       break;
 1512              		.loc 1 473 17 view .LVU410
 1513 0030 02FB04F4 		mul	r4, r2, r4
 459:STM32Cube_FW_N6/Utilities/lcd/stm32_lcd.c ****   {
 1514              		.loc 1 459 3 view .LVU411
 1515 0034 1BD0     		beq	.L105
 473:STM32Cube_FW_N6/Utilities/lcd/stm32_lcd.c ****       break;
 1516              		.loc 1 473 17 view .LVU412
 1517 0036 641B     		subs	r4, r4, r5
 1518 0038 B9F1020F 		cmp	r9, #2
 1519 003c 08BF     		it	eq
 1520 003e 2546     		moveq	r5, r4
 1521              	.LVL112:
 1522              	.L107:
 484:STM32Cube_FW_N6/Utilities/lcd/stm32_lcd.c ****   {
 1523              		.loc 1 484 3 is_stmt 1 view .LVU413
 484:STM32Cube_FW_N6/Utilities/lcd/stm32_lcd.c ****   {
 1524              		.loc 1 484 6 is_stmt 0 view .LVU414
 1525 0040 47F6FE73 		movw	r3, #32766
 1526              	.LVL113:
ARM GAS  C:\Users\DJESSOU\AppData\Local\Temp\ccR55SEh.s 			page 51


 484:STM32Cube_FW_N6/Utilities/lcd/stm32_lcd.c ****   {
 1527              		.loc 1 484 23 view .LVU415
 1528 0044 6A1E     		subs	r2, r5, #1
 1529              	.LVL114:
 486:STM32Cube_FW_N6/Utilities/lcd/stm32_lcd.c ****   }
 1530              		.loc 1 486 15 view .LVU416
 1531 0046 9A42     		cmp	r2, r3
 1532 0048 88BF     		it	hi
 1533 004a 0125     		movhi	r5, #1
 1534              	.LVL115:
 486:STM32Cube_FW_N6/Utilities/lcd/stm32_lcd.c ****   }
 1535              		.loc 1 486 15 view .LVU417
 1536 004c 0024     		movs	r4, #0
 1537              	.LVL116:
 1538              	.L109:
 490:STM32Cube_FW_N6/Utilities/lcd/stm32_lcd.c ****   {
 1539              		.loc 1 490 10 is_stmt 1 view .LVU418
 490:STM32Cube_FW_N6/Utilities/lcd/stm32_lcd.c ****   {
 1540              		.loc 1 490 45 is_stmt 0 view .LVU419
 1541 004e D8F80C30 		ldr	r3, [r8, #12]
 490:STM32Cube_FW_N6/Utilities/lcd/stm32_lcd.c ****   {
 1542              		.loc 1 490 11 view .LVU420
 1543 0052 325D     		ldrb	r2, [r6, r4]	@ zero_extendqisi2
 490:STM32Cube_FW_N6/Utilities/lcd/stm32_lcd.c ****   {
 1544              		.loc 1 490 99 view .LVU421
 1545 0054 08EB4313 		add	r3, r8, r3, lsl #5
 490:STM32Cube_FW_N6/Utilities/lcd/stm32_lcd.c ****   {
 1546              		.loc 1 490 105 view .LVU422
 1547 0058 9968     		ldr	r1, [r3, #8]
 490:STM32Cube_FW_N6/Utilities/lcd/stm32_lcd.c ****   {
 1548              		.loc 1 490 66 view .LVU423
 1549 005a 5B69     		ldr	r3, [r3, #20]
 490:STM32Cube_FW_N6/Utilities/lcd/stm32_lcd.c ****   {
 1550              		.loc 1 490 105 view .LVU424
 1551 005c 8988     		ldrh	r1, [r1, #4]
 490:STM32Cube_FW_N6/Utilities/lcd/stm32_lcd.c ****   {
 1552              		.loc 1 490 66 view .LVU425
 1553 005e 04FB1133 		mls	r3, r4, r1, r3
 490:STM32Cube_FW_N6/Utilities/lcd/stm32_lcd.c ****   {
 1554              		.loc 1 490 115 view .LVU426
 1555 0062 9BB2     		uxth	r3, r3
 490:STM32Cube_FW_N6/Utilities/lcd/stm32_lcd.c ****   {
 1556              		.loc 1 490 10 view .LVU427
 1557 0064 9942     		cmp	r1, r3
 1558 0066 00D8     		bhi	.L104
 1559 0068 22B9     		cbnz	r2, .L110
 1560              	.L104:
 501:STM32Cube_FW_N6/Utilities/lcd/stm32_lcd.c **** 
 1561              		.loc 1 501 1 view .LVU428
 1562 006a BDE8F883 		pop	{r3, r4, r5, r6, r7, r8, r9, pc}
 1563              	.LVL117:
 1564              	.L105:
 463:STM32Cube_FW_N6/Utilities/lcd/stm32_lcd.c ****       break;
 1565              		.loc 1 463 7 is_stmt 1 view .LVU429
 463:STM32Cube_FW_N6/Utilities/lcd/stm32_lcd.c ****       break;
 1566              		.loc 1 463 17 is_stmt 0 view .LVU430
 1567 006e 05EB5405 		add	r5, r5, r4, lsr #1
ARM GAS  C:\Users\DJESSOU\AppData\Local\Temp\ccR55SEh.s 			page 52


 1568              	.LVL118:
 464:STM32Cube_FW_N6/Utilities/lcd/stm32_lcd.c ****     }
 1569              		.loc 1 464 7 is_stmt 1 view .LVU431
 1570 0072 E5E7     		b	.L107
 1571              	.LVL119:
 1572              	.L110:
 493:STM32Cube_FW_N6/Utilities/lcd/stm32_lcd.c ****     /* Decrement the column position by 16 */
 1573              		.loc 1 493 5 view .LVU432
 1574 0074 2846     		mov	r0, r5
 1575 0076 3946     		mov	r1, r7
 1576 0078 FFF7FEFF 		bl	UTIL_LCD_DisplayChar
 1577              	.LVL120:
 495:STM32Cube_FW_N6/Utilities/lcd/stm32_lcd.c **** 
 1578              		.loc 1 495 5 view .LVU433
 495:STM32Cube_FW_N6/Utilities/lcd/stm32_lcd.c **** 
 1579              		.loc 1 495 46 is_stmt 0 view .LVU434
 1580 007c D8F80C30 		ldr	r3, [r8, #12]
 499:STM32Cube_FW_N6/Utilities/lcd/stm32_lcd.c ****   }
 1581              		.loc 1 499 6 view .LVU435
 1582 0080 0134     		adds	r4, r4, #1
 1583              	.LVL121:
 495:STM32Cube_FW_N6/Utilities/lcd/stm32_lcd.c **** 
 1584              		.loc 1 495 46 view .LVU436
 1585 0082 08EB4313 		add	r3, r8, r3, lsl #5
 495:STM32Cube_FW_N6/Utilities/lcd/stm32_lcd.c **** 
 1586              		.loc 1 495 52 view .LVU437
 1587 0086 9B68     		ldr	r3, [r3, #8]
 1588 0088 9B88     		ldrh	r3, [r3, #4]
 495:STM32Cube_FW_N6/Utilities/lcd/stm32_lcd.c **** 
 1589              		.loc 1 495 15 view .LVU438
 1590 008a 1D44     		add	r5, r5, r3
 1591              	.LVL122:
 498:STM32Cube_FW_N6/Utilities/lcd/stm32_lcd.c ****     i++;
 1592              		.loc 1 498 5 is_stmt 1 view .LVU439
 499:STM32Cube_FW_N6/Utilities/lcd/stm32_lcd.c ****   }
 1593              		.loc 1 499 5 view .LVU440
 499:STM32Cube_FW_N6/Utilities/lcd/stm32_lcd.c ****   }
 1594              		.loc 1 499 5 is_stmt 0 view .LVU441
 1595 008c DFE7     		b	.L109
 1596              	.L117:
 1597 008e 00BF     		.align	2
 1598              	.L116:
 1599 0090 00000000 		.word	DrawProp
 1600              		.cfi_endproc
 1601              	.LFE17:
 1603              		.section	.text.UTIL_LCD_DisplayStringAtLine,"ax",%progbits
 1604              		.align	1
 1605              		.global	UTIL_LCD_DisplayStringAtLine
 1606              		.syntax unified
 1607              		.thumb
 1608              		.thumb_func
 1610              	UTIL_LCD_DisplayStringAtLine:
 1611              	.LVL123:
 1612              	.LFB18:
 509:STM32Cube_FW_N6/Utilities/lcd/stm32_lcd.c ****   UTIL_LCD_DisplayStringAt(0, LINE(Line), ptr, LEFT_MODE);
 1613              		.loc 1 509 1 is_stmt 1 view -0
 1614              		.cfi_startproc
ARM GAS  C:\Users\DJESSOU\AppData\Local\Temp\ccR55SEh.s 			page 53


 1615              		@ args = 0, pretend = 0, frame = 0
 1616              		@ frame_needed = 0, uses_anonymous_args = 0
 510:STM32Cube_FW_N6/Utilities/lcd/stm32_lcd.c **** }
 1617              		.loc 1 510 3 view .LVU443
 509:STM32Cube_FW_N6/Utilities/lcd/stm32_lcd.c ****   UTIL_LCD_DisplayStringAt(0, LINE(Line), ptr, LEFT_MODE);
 1618              		.loc 1 509 1 is_stmt 0 view .LVU444
 1619 0000 10B5     		push	{r4, lr}
 1620              		.cfi_def_cfa_offset 8
 1621              		.cfi_offset 4, -8
 1622              		.cfi_offset 14, -4
 509:STM32Cube_FW_N6/Utilities/lcd/stm32_lcd.c ****   UTIL_LCD_DisplayStringAt(0, LINE(Line), ptr, LEFT_MODE);
 1623              		.loc 1 509 1 view .LVU445
 1624 0002 0446     		mov	r4, r0
 510:STM32Cube_FW_N6/Utilities/lcd/stm32_lcd.c **** }
 1625              		.loc 1 510 31 view .LVU446
 1626 0004 FFF7FEFF 		bl	UTIL_LCD_GetFont
 1627              	.LVL124:
 510:STM32Cube_FW_N6/Utilities/lcd/stm32_lcd.c **** }
 1628              		.loc 1 510 31 discriminator 1 view .LVU447
 1629 0008 C088     		ldrh	r0, [r0, #6]
 510:STM32Cube_FW_N6/Utilities/lcd/stm32_lcd.c **** }
 1630              		.loc 1 510 3 discriminator 1 view .LVU448
 1631 000a 0A46     		mov	r2, r1
 1632 000c 0323     		movs	r3, #3
 1633 000e 04FB00F1 		mul	r1, r4, r0
 1634              	.LVL125:
 511:STM32Cube_FW_N6/Utilities/lcd/stm32_lcd.c **** 
 1635              		.loc 1 511 1 view .LVU449
 1636 0012 BDE81040 		pop	{r4, lr}
 1637              		.cfi_restore 14
 1638              		.cfi_restore 4
 1639              		.cfi_def_cfa_offset 0
 1640              	.LVL126:
 510:STM32Cube_FW_N6/Utilities/lcd/stm32_lcd.c **** }
 1641              		.loc 1 510 3 discriminator 1 view .LVU450
 1642 0016 0020     		movs	r0, #0
 1643 0018 FFF7FEBF 		b	UTIL_LCD_DisplayStringAt
 1644              	.LVL127:
 510:STM32Cube_FW_N6/Utilities/lcd/stm32_lcd.c **** }
 1645              		.loc 1 510 3 discriminator 1 view .LVU451
 1646              		.cfi_endproc
 1647              	.LFE18:
 1649              		.section	.text.UTIL_LCD_DrawLine,"ax",%progbits
 1650              		.align	1
 1651              		.global	UTIL_LCD_DrawLine
 1652              		.syntax unified
 1653              		.thumb
 1654              		.thumb_func
 1656              	UTIL_LCD_DrawLine:
 1657              	.LVL128:
 1658              	.LFB19:
 522:STM32Cube_FW_N6/Utilities/lcd/stm32_lcd.c ****   int16_t deltax = 0, deltay = 0, x = 0, y = 0, xinc1 = 0, xinc2 = 0,
 1659              		.loc 1 522 1 is_stmt 1 view -0
 1660              		.cfi_startproc
 1661              		@ args = 4, pretend = 0, frame = 16
 1662              		@ frame_needed = 0, uses_anonymous_args = 0
 523:STM32Cube_FW_N6/Utilities/lcd/stm32_lcd.c ****   yinc1 = 0, yinc2 = 0, den = 0, num = 0, numadd = 0, numpixels = 0,
ARM GAS  C:\Users\DJESSOU\AppData\Local\Temp\ccR55SEh.s 			page 54


 1663              		.loc 1 523 3 view .LVU453
 526:STM32Cube_FW_N6/Utilities/lcd/stm32_lcd.c **** 
 1664              		.loc 1 526 3 view .LVU454
 528:STM32Cube_FW_N6/Utilities/lcd/stm32_lcd.c ****   y_diff = Ypos2 - Ypos1;
 1665              		.loc 1 528 3 view .LVU455
 529:STM32Cube_FW_N6/Utilities/lcd/stm32_lcd.c **** 
 1666              		.loc 1 529 3 view .LVU456
 531:STM32Cube_FW_N6/Utilities/lcd/stm32_lcd.c ****   deltay = ABS(y_diff);         /* The absolute difference between the y's */
 1667              		.loc 1 531 3 view .LVU457
 522:STM32Cube_FW_N6/Utilities/lcd/stm32_lcd.c ****   int16_t deltax = 0, deltay = 0, x = 0, y = 0, xinc1 = 0, xinc2 = 0,
 1668              		.loc 1 522 1 is_stmt 0 view .LVU458
 1669 0000 2DE9F04F 		push	{r4, r5, r6, r7, r8, r9, r10, fp, lr}
 1670              		.cfi_def_cfa_offset 36
 1671              		.cfi_offset 4, -36
 1672              		.cfi_offset 5, -32
 1673              		.cfi_offset 6, -28
 1674              		.cfi_offset 7, -24
 1675              		.cfi_offset 8, -20
 1676              		.cfi_offset 9, -16
 1677              		.cfi_offset 10, -12
 1678              		.cfi_offset 11, -8
 1679              		.cfi_offset 14, -4
 528:STM32Cube_FW_N6/Utilities/lcd/stm32_lcd.c ****   y_diff = Ypos2 - Ypos1;
 1680              		.loc 1 528 18 view .LVU459
 1681 0004 141A     		subs	r4, r2, r0
 1682              	.LVL129:
 531:STM32Cube_FW_N6/Utilities/lcd/stm32_lcd.c ****   deltay = ABS(y_diff);         /* The absolute difference between the y's */
 1683              		.loc 1 531 12 view .LVU460
 1684 0006 002C     		cmp	r4, #0
 529:STM32Cube_FW_N6/Utilities/lcd/stm32_lcd.c **** 
 1685              		.loc 1 529 18 view .LVU461
 1686 0008 A3EB0106 		sub	r6, r3, r1
 1687              	.LVL130:
 531:STM32Cube_FW_N6/Utilities/lcd/stm32_lcd.c ****   deltay = ABS(y_diff);         /* The absolute difference between the y's */
 1688              		.loc 1 531 12 view .LVU462
 1689 000c B8BF     		it	lt
 1690 000e 6442     		rsblt	r4, r4, #0
 1691              	.LVL131:
 532:STM32Cube_FW_N6/Utilities/lcd/stm32_lcd.c ****   x = Xpos1;                       /* Start x off at the first pixel */
 1692              		.loc 1 532 12 view .LVU463
 1693 0010 002E     		cmp	r6, #0
 1694 0012 B8BF     		it	lt
 1695 0014 7642     		rsblt	r6, r6, #0
 1696              	.LVL132:
 538:STM32Cube_FW_N6/Utilities/lcd/stm32_lcd.c ****     xinc2 = 1;
 1697              		.loc 1 538 11 view .LVU464
 1698 0016 8242     		cmp	r2, r0
 1699 0018 34BF     		ite	cc
 1700 001a 4FF0FF39 		movcc	r9, #-1
 1701 001e 4FF00109 		movcs	r9, #1
 531:STM32Cube_FW_N6/Utilities/lcd/stm32_lcd.c ****   deltay = ABS(y_diff);         /* The absolute difference between the y's */
 1702              		.loc 1 531 10 view .LVU465
 1703 0022 24B2     		sxth	r4, r4
 1704              	.LVL133:
 532:STM32Cube_FW_N6/Utilities/lcd/stm32_lcd.c ****   x = Xpos1;                       /* Start x off at the first pixel */
 1705              		.loc 1 532 3 is_stmt 1 view .LVU466
 549:STM32Cube_FW_N6/Utilities/lcd/stm32_lcd.c ****     yinc2 = 1;
ARM GAS  C:\Users\DJESSOU\AppData\Local\Temp\ccR55SEh.s 			page 55


 1706              		.loc 1 549 11 is_stmt 0 view .LVU467
 1707 0024 8B42     		cmp	r3, r1
 532:STM32Cube_FW_N6/Utilities/lcd/stm32_lcd.c ****   x = Xpos1;                       /* Start x off at the first pixel */
 1708              		.loc 1 532 10 view .LVU468
 1709 0026 36B2     		sxth	r6, r6
 1710              	.LVL134:
 533:STM32Cube_FW_N6/Utilities/lcd/stm32_lcd.c ****   y = Ypos1;                       /* Start y off at the first pixel */
 1711              		.loc 1 533 3 is_stmt 1 view .LVU469
 549:STM32Cube_FW_N6/Utilities/lcd/stm32_lcd.c ****     yinc2 = 1;
 1712              		.loc 1 549 11 is_stmt 0 view .LVU470
 1713 0028 34BF     		ite	cc
 1714 002a 4FF0FF3A 		movcc	r10, #-1
 1715 002e 4FF0010A 		movcs	r10, #1
 558:STM32Cube_FW_N6/Utilities/lcd/stm32_lcd.c ****   {
 1716              		.loc 1 558 6 view .LVU471
 1717 0032 B442     		cmp	r4, r6
 522:STM32Cube_FW_N6/Utilities/lcd/stm32_lcd.c ****   int16_t deltax = 0, deltay = 0, x = 0, y = 0, xinc1 = 0, xinc2 = 0,
 1718              		.loc 1 522 1 view .LVU472
 1719 0034 85B0     		sub	sp, sp, #20
 1720              		.cfi_def_cfa_offset 56
 533:STM32Cube_FW_N6/Utilities/lcd/stm32_lcd.c ****   y = Ypos1;                       /* Start y off at the first pixel */
 1721              		.loc 1 533 5 view .LVU473
 1722 0036 07B2     		sxth	r7, r0
 1723              	.LVL135:
 534:STM32Cube_FW_N6/Utilities/lcd/stm32_lcd.c **** 
 1724              		.loc 1 534 3 is_stmt 1 view .LVU474
 534:STM32Cube_FW_N6/Utilities/lcd/stm32_lcd.c **** 
 1725              		.loc 1 534 5 is_stmt 0 view .LVU475
 1726 0038 0FFA81F8 		sxth	r8, r1
 1727              	.LVL136:
 536:STM32Cube_FW_N6/Utilities/lcd/stm32_lcd.c ****   {
 1728              		.loc 1 536 3 is_stmt 1 view .LVU476
 547:STM32Cube_FW_N6/Utilities/lcd/stm32_lcd.c ****   {
 1729              		.loc 1 547 3 view .LVU477
 558:STM32Cube_FW_N6/Utilities/lcd/stm32_lcd.c ****   {
 1730              		.loc 1 558 3 view .LVU478
 558:STM32Cube_FW_N6/Utilities/lcd/stm32_lcd.c ****   {
 1731              		.loc 1 558 6 is_stmt 0 view .LVU479
 1732 003c 10DB     		blt	.L122
 560:STM32Cube_FW_N6/Utilities/lcd/stm32_lcd.c ****     yinc2 = 0;                  /* Don't change the y for every iteration */
 1733              		.loc 1 560 5 is_stmt 1 view .LVU480
 1734              	.LVL137:
 561:STM32Cube_FW_N6/Utilities/lcd/stm32_lcd.c ****     den = deltax;
 1735              		.loc 1 561 5 view .LVU481
 562:STM32Cube_FW_N6/Utilities/lcd/stm32_lcd.c ****     num = deltax / 2;
 1736              		.loc 1 562 5 view .LVU482
 563:STM32Cube_FW_N6/Utilities/lcd/stm32_lcd.c ****     numadd = deltay;
 1737              		.loc 1 563 5 view .LVU483
 1738 003e CDF80090 		str	r9, [sp]
 561:STM32Cube_FW_N6/Utilities/lcd/stm32_lcd.c ****     den = deltax;
 1739              		.loc 1 561 11 is_stmt 0 view .LVU484
 1740 0042 4FF00009 		mov	r9, #0
 1741              	.LVL138:
 560:STM32Cube_FW_N6/Utilities/lcd/stm32_lcd.c ****     yinc2 = 0;                  /* Don't change the y for every iteration */
 1742              		.loc 1 560 11 view .LVU485
 1743 0046 4B46     		mov	r3, r9
 1744              	.LVL139:
ARM GAS  C:\Users\DJESSOU\AppData\Local\Temp\ccR55SEh.s 			page 56


 563:STM32Cube_FW_N6/Utilities/lcd/stm32_lcd.c ****     numadd = deltay;
 1745              		.loc 1 563 9 view .LVU486
 1746 0048 04EBD475 		add	r5, r4, r4, lsr #31
 1747 004c 6D10     		asrs	r5, r5, #1
 1748              	.LVL140:
 564:STM32Cube_FW_N6/Utilities/lcd/stm32_lcd.c ****     numpixels = deltax;         /* There are more x-values than y-values */
 1749              		.loc 1 564 5 is_stmt 1 view .LVU487
 565:STM32Cube_FW_N6/Utilities/lcd/stm32_lcd.c ****   }
 1750              		.loc 1 565 5 view .LVU488
 1751              	.L123:
 577:STM32Cube_FW_N6/Utilities/lcd/stm32_lcd.c ****   {
 1752              		.loc 1 577 3 view .LVU489
 577:STM32Cube_FW_N6/Utilities/lcd/stm32_lcd.c ****   {
 1753              		.loc 1 577 3 is_stmt 0 view .LVU490
 1754 004e 4FF0000B 		mov	fp, #0
 1755              	.LVL141:
 1756              	.L124:
 577:STM32Cube_FW_N6/Utilities/lcd/stm32_lcd.c ****   {
 1757              		.loc 1 577 31 is_stmt 1 discriminator 1 view .LVU491
 1758 0052 0FFA8BF2 		sxth	r2, fp
 1759 0056 9442     		cmp	r4, r2
 1760 0058 0FDA     		bge	.L126
 590:STM32Cube_FW_N6/Utilities/lcd/stm32_lcd.c **** 
 1761              		.loc 1 590 1 is_stmt 0 view .LVU492
 1762 005a 05B0     		add	sp, sp, #20
 1763              		.cfi_remember_state
 1764              		.cfi_def_cfa_offset 36
 1765              	.LVL142:
 590:STM32Cube_FW_N6/Utilities/lcd/stm32_lcd.c **** 
 1766              		.loc 1 590 1 view .LVU493
 1767              		@ sp needed
 1768 005c BDE8F08F 		pop	{r4, r5, r6, r7, r8, r9, r10, fp, pc}
 1769              	.LVL143:
 1770              	.L122:
 1771              		.cfi_restore_state
 569:STM32Cube_FW_N6/Utilities/lcd/stm32_lcd.c ****     yinc1 = 0;                  /* Don't change the y when numerator >= denominator */
 1772              		.loc 1 569 5 is_stmt 1 view .LVU494
 570:STM32Cube_FW_N6/Utilities/lcd/stm32_lcd.c ****     den = deltay;
 1773              		.loc 1 570 5 view .LVU495
 571:STM32Cube_FW_N6/Utilities/lcd/stm32_lcd.c ****     num = deltay / 2;
 1774              		.loc 1 571 5 view .LVU496
 572:STM32Cube_FW_N6/Utilities/lcd/stm32_lcd.c ****     numadd = deltax;
 1775              		.loc 1 572 5 view .LVU497
 572:STM32Cube_FW_N6/Utilities/lcd/stm32_lcd.c ****     numadd = deltax;
 1776              		.loc 1 572 9 is_stmt 0 view .LVU498
 1777 0060 2346     		mov	r3, r4
 1778              	.LVL144:
 572:STM32Cube_FW_N6/Utilities/lcd/stm32_lcd.c ****     numadd = deltax;
 1779              		.loc 1 572 9 view .LVU499
 1780 0062 06EBD675 		add	r5, r6, r6, lsr #31
 571:STM32Cube_FW_N6/Utilities/lcd/stm32_lcd.c ****     num = deltay / 2;
 1781              		.loc 1 571 9 view .LVU500
 1782 0066 3446     		mov	r4, r6
 1783              	.LVL145:
 573:STM32Cube_FW_N6/Utilities/lcd/stm32_lcd.c ****     numpixels = deltay;         /* There are more y-values than x-values */
 1784              		.loc 1 573 12 view .LVU501
 1785 0068 1E46     		mov	r6, r3
ARM GAS  C:\Users\DJESSOU\AppData\Local\Temp\ccR55SEh.s 			page 57


 1786              	.LVL146:
 572:STM32Cube_FW_N6/Utilities/lcd/stm32_lcd.c ****     numadd = deltax;
 1787              		.loc 1 572 9 view .LVU502
 1788 006a 5346     		mov	r3, r10
 1789              	.LVL147:
 570:STM32Cube_FW_N6/Utilities/lcd/stm32_lcd.c ****     den = deltay;
 1790              		.loc 1 570 11 view .LVU503
 1791 006c 4FF0000A 		mov	r10, #0
 1792              	.LVL148:
 572:STM32Cube_FW_N6/Utilities/lcd/stm32_lcd.c ****     numadd = deltax;
 1793              		.loc 1 572 9 view .LVU504
 1794 0070 45F34F05 		sbfx	r5, r5, #1, #16
 1795              	.LVL149:
 573:STM32Cube_FW_N6/Utilities/lcd/stm32_lcd.c ****     numpixels = deltay;         /* There are more y-values than x-values */
 1796              		.loc 1 573 5 is_stmt 1 view .LVU505
 574:STM32Cube_FW_N6/Utilities/lcd/stm32_lcd.c ****   }
 1797              		.loc 1 574 5 view .LVU506
 569:STM32Cube_FW_N6/Utilities/lcd/stm32_lcd.c ****     yinc1 = 0;                  /* Don't change the y when numerator >= denominator */
 1798              		.loc 1 569 11 is_stmt 0 view .LVU507
 1799 0074 CDF800A0 		str	r10, [sp]
 1800 0078 E9E7     		b	.L123
 1801              	.LVL150:
 1802              	.L126:
 579:STM32Cube_FW_N6/Utilities/lcd/stm32_lcd.c ****     num += numadd;                            /* Increase the numerator by the top of the fraction 
 1803              		.loc 1 579 5 view .LVU508
 1804 007a 0E9A     		ldr	r2, [sp, #56]
 1805 007c B8B2     		uxth	r0, r7
 1806 007e 1FFA88F1 		uxth	r1, r8
 580:STM32Cube_FW_N6/Utilities/lcd/stm32_lcd.c ****     if (num >= den)                           /* Check if numerator >= denominator */
 1807              		.loc 1 580 9 view .LVU509
 1808 0082 3544     		add	r5, r5, r6
 1809              	.LVL151:
 580:STM32Cube_FW_N6/Utilities/lcd/stm32_lcd.c ****     if (num >= den)                           /* Check if numerator >= denominator */
 1810              		.loc 1 580 9 view .LVU510
 1811 0084 0393     		str	r3, [sp, #12]
 579:STM32Cube_FW_N6/Utilities/lcd/stm32_lcd.c ****     num += numadd;                            /* Increase the numerator by the top of the fraction 
 1812              		.loc 1 579 5 is_stmt 1 view .LVU511
 1813 0086 CDE90101 		strd	r0, r1, [sp, #4]
 1814 008a FFF7FEFF 		bl	UTIL_LCD_SetPixel
 1815              	.LVL152:
 580:STM32Cube_FW_N6/Utilities/lcd/stm32_lcd.c ****     if (num >= den)                           /* Check if numerator >= denominator */
 1816              		.loc 1 580 5 view .LVU512
 580:STM32Cube_FW_N6/Utilities/lcd/stm32_lcd.c ****     if (num >= den)                           /* Check if numerator >= denominator */
 1817              		.loc 1 580 9 is_stmt 0 view .LVU513
 1818 008e AAB2     		uxth	r2, r5
 1819 0090 2DB2     		sxth	r5, r5
 1820              	.LVL153:
 581:STM32Cube_FW_N6/Utilities/lcd/stm32_lcd.c ****     {
 1821              		.loc 1 581 5 is_stmt 1 view .LVU514
 581:STM32Cube_FW_N6/Utilities/lcd/stm32_lcd.c ****     {
 1822              		.loc 1 581 8 is_stmt 0 view .LVU515
 1823 0092 AC42     		cmp	r4, r5
 1824 0094 039B     		ldr	r3, [sp, #12]
 1825 0096 08DC     		bgt	.L125
 583:STM32Cube_FW_N6/Utilities/lcd/stm32_lcd.c ****       x += xinc1;                             /* Change the x as appropriate */
 1826              		.loc 1 583 7 is_stmt 1 view .LVU516
 584:STM32Cube_FW_N6/Utilities/lcd/stm32_lcd.c ****       y += yinc1;                             /* Change the y as appropriate */
ARM GAS  C:\Users\DJESSOU\AppData\Local\Temp\ccR55SEh.s 			page 58


 1827              		.loc 1 584 9 is_stmt 0 view .LVU517
 1828 0098 0198     		ldr	r0, [sp, #4]
 585:STM32Cube_FW_N6/Utilities/lcd/stm32_lcd.c ****     }
 1829              		.loc 1 585 9 view .LVU518
 1830 009a 0299     		ldr	r1, [sp, #8]
 583:STM32Cube_FW_N6/Utilities/lcd/stm32_lcd.c ****       x += xinc1;                             /* Change the x as appropriate */
 1831              		.loc 1 583 11 view .LVU519
 1832 009c 121B     		subs	r2, r2, r4
 584:STM32Cube_FW_N6/Utilities/lcd/stm32_lcd.c ****       y += yinc1;                             /* Change the y as appropriate */
 1833              		.loc 1 584 9 view .LVU520
 1834 009e 4844     		add	r0, r0, r9
 585:STM32Cube_FW_N6/Utilities/lcd/stm32_lcd.c ****     }
 1835              		.loc 1 585 9 view .LVU521
 1836 00a0 5144     		add	r1, r1, r10
 583:STM32Cube_FW_N6/Utilities/lcd/stm32_lcd.c ****       x += xinc1;                             /* Change the x as appropriate */
 1837              		.loc 1 583 11 view .LVU522
 1838 00a2 15B2     		sxth	r5, r2
 1839              	.LVL154:
 584:STM32Cube_FW_N6/Utilities/lcd/stm32_lcd.c ****       y += yinc1;                             /* Change the y as appropriate */
 1840              		.loc 1 584 7 is_stmt 1 view .LVU523
 584:STM32Cube_FW_N6/Utilities/lcd/stm32_lcd.c ****       y += yinc1;                             /* Change the y as appropriate */
 1841              		.loc 1 584 9 is_stmt 0 view .LVU524
 1842 00a4 07B2     		sxth	r7, r0
 1843              	.LVL155:
 585:STM32Cube_FW_N6/Utilities/lcd/stm32_lcd.c ****     }
 1844              		.loc 1 585 7 is_stmt 1 view .LVU525
 585:STM32Cube_FW_N6/Utilities/lcd/stm32_lcd.c ****     }
 1845              		.loc 1 585 9 is_stmt 0 view .LVU526
 1846 00a6 0FFA81F8 		sxth	r8, r1
 1847              	.LVL156:
 1848              	.L125:
 587:STM32Cube_FW_N6/Utilities/lcd/stm32_lcd.c ****     y += yinc2;                               /* Change the y as appropriate */
 1849              		.loc 1 587 5 is_stmt 1 view .LVU527
 587:STM32Cube_FW_N6/Utilities/lcd/stm32_lcd.c ****     y += yinc2;                               /* Change the y as appropriate */
 1850              		.loc 1 587 7 is_stmt 0 view .LVU528
 1851 00aa 009A     		ldr	r2, [sp]
 588:STM32Cube_FW_N6/Utilities/lcd/stm32_lcd.c ****   }
 1852              		.loc 1 588 7 view .LVU529
 1853 00ac 9844     		add	r8, r8, r3
 1854              	.LVL157:
 587:STM32Cube_FW_N6/Utilities/lcd/stm32_lcd.c ****     y += yinc2;                               /* Change the y as appropriate */
 1855              		.loc 1 587 7 view .LVU530
 1856 00ae 1744     		add	r7, r7, r2
 1857              	.LVL158:
 587:STM32Cube_FW_N6/Utilities/lcd/stm32_lcd.c ****     y += yinc2;                               /* Change the y as appropriate */
 1858              		.loc 1 587 7 view .LVU531
 1859 00b0 3FB2     		sxth	r7, r7
 1860              	.LVL159:
 588:STM32Cube_FW_N6/Utilities/lcd/stm32_lcd.c ****   }
 1861              		.loc 1 588 5 is_stmt 1 view .LVU532
 588:STM32Cube_FW_N6/Utilities/lcd/stm32_lcd.c ****   }
 1862              		.loc 1 588 7 is_stmt 0 view .LVU533
 1863 00b2 0FFA88F8 		sxth	r8, r8
 1864              	.LVL160:
 577:STM32Cube_FW_N6/Utilities/lcd/stm32_lcd.c ****   {
 1865              		.loc 1 577 53 is_stmt 1 discriminator 2 view .LVU534
 577:STM32Cube_FW_N6/Utilities/lcd/stm32_lcd.c ****   {
ARM GAS  C:\Users\DJESSOU\AppData\Local\Temp\ccR55SEh.s 			page 59


 1866              		.loc 1 577 53 is_stmt 0 discriminator 2 view .LVU535
 1867 00b6 0BF1010B 		add	fp, fp, #1
 1868              	.LVL161:
 577:STM32Cube_FW_N6/Utilities/lcd/stm32_lcd.c ****   {
 1869              		.loc 1 577 53 discriminator 2 view .LVU536
 1870 00ba CAE7     		b	.L124
 1871              		.cfi_endproc
 1872              	.LFE19:
 1874              		.section	.text.FillTriangle,"ax",%progbits
 1875              		.align	1
 1876              		.syntax unified
 1877              		.thumb
 1878              		.thumb_func
 1880              	FillTriangle:
 1881              	.LVL162:
 1882              	.LFB30:
1101:STM32Cube_FW_N6/Utilities/lcd/stm32_lcd.c ****     }
1102:STM32Cube_FW_N6/Utilities/lcd/stm32_lcd.c ****   }
1103:STM32Cube_FW_N6/Utilities/lcd/stm32_lcd.c **** }
1104:STM32Cube_FW_N6/Utilities/lcd/stm32_lcd.c **** 
1105:STM32Cube_FW_N6/Utilities/lcd/stm32_lcd.c **** /**
1106:STM32Cube_FW_N6/Utilities/lcd/stm32_lcd.c ****   * @brief  Fills a triangle (between 3 points).
1107:STM32Cube_FW_N6/Utilities/lcd/stm32_lcd.c ****   * @param  Positions  pointer to riangle coordinates
1108:STM32Cube_FW_N6/Utilities/lcd/stm32_lcd.c ****   * @param  Color      Draw color
1109:STM32Cube_FW_N6/Utilities/lcd/stm32_lcd.c ****   */
1110:STM32Cube_FW_N6/Utilities/lcd/stm32_lcd.c **** static void FillTriangle(Triangle_Positions_t *Positions, uint32_t Color)
1111:STM32Cube_FW_N6/Utilities/lcd/stm32_lcd.c **** {
 1883              		.loc 1 1111 1 is_stmt 1 view -0
 1884              		.cfi_startproc
 1885              		@ args = 0, pretend = 0, frame = 16
 1886              		@ frame_needed = 0, uses_anonymous_args = 0
1112:STM32Cube_FW_N6/Utilities/lcd/stm32_lcd.c ****   int16_t deltax = 0, deltay = 0, x = 0, y = 0, xinc1 = 0, xinc2 = 0,
 1887              		.loc 1 1112 3 view .LVU538
1113:STM32Cube_FW_N6/Utilities/lcd/stm32_lcd.c ****   yinc1 = 0, yinc2 = 0, den = 0, num = 0, numadd = 0, numpixels = 0,
1114:STM32Cube_FW_N6/Utilities/lcd/stm32_lcd.c ****   curpixel = 0;
1115:STM32Cube_FW_N6/Utilities/lcd/stm32_lcd.c ****   int32_t x_diff, y_diff;
 1888              		.loc 1 1115 3 view .LVU539
1116:STM32Cube_FW_N6/Utilities/lcd/stm32_lcd.c **** 
1117:STM32Cube_FW_N6/Utilities/lcd/stm32_lcd.c ****   x_diff = Positions->x2 - Positions->x1;
 1889              		.loc 1 1117 3 view .LVU540
 1890              		.loc 1 1117 21 is_stmt 0 view .LVU541
 1891 0000 D0F808C0 		ldr	ip, [r0, #8]
 1892              		.loc 1 1117 37 view .LVU542
 1893 0004 0268     		ldr	r2, [r0]
 1894              	.LVL163:
1118:STM32Cube_FW_N6/Utilities/lcd/stm32_lcd.c ****   y_diff = Positions->y2 - Positions->y1;
 1895              		.loc 1 1118 3 is_stmt 1 view .LVU543
1111:STM32Cube_FW_N6/Utilities/lcd/stm32_lcd.c ****   int16_t deltax = 0, deltay = 0, x = 0, y = 0, xinc1 = 0, xinc2 = 0,
 1896              		.loc 1 1111 1 is_stmt 0 view .LVU544
 1897 0006 2DE9F04F 		push	{r4, r5, r6, r7, r8, r9, r10, fp, lr}
 1898              		.cfi_def_cfa_offset 36
 1899              		.cfi_offset 4, -36
 1900              		.cfi_offset 5, -32
 1901              		.cfi_offset 6, -28
 1902              		.cfi_offset 7, -24
 1903              		.cfi_offset 8, -20
 1904              		.cfi_offset 9, -16
ARM GAS  C:\Users\DJESSOU\AppData\Local\Temp\ccR55SEh.s 			page 60


 1905              		.cfi_offset 10, -12
 1906              		.cfi_offset 11, -8
 1907              		.cfi_offset 14, -4
 1908              		.loc 1 1118 37 view .LVU545
 1909 000a 4368     		ldr	r3, [r0, #4]
 1910              		.loc 1 1118 21 view .LVU546
 1911 000c C568     		ldr	r5, [r0, #12]
 1912              	.LVL164:
1119:STM32Cube_FW_N6/Utilities/lcd/stm32_lcd.c **** 
1120:STM32Cube_FW_N6/Utilities/lcd/stm32_lcd.c ****   deltax = ABS(x_diff);         /* The absolute difference between the x's */
 1913              		.loc 1 1120 3 is_stmt 1 view .LVU547
1117:STM32Cube_FW_N6/Utilities/lcd/stm32_lcd.c ****   y_diff = Positions->y2 - Positions->y1;
 1914              		.loc 1 1117 26 is_stmt 0 view .LVU548
 1915 000e ACEB0204 		sub	r4, ip, r2
 1916              	.LVL165:
 1917              		.loc 1 1120 12 view .LVU549
 1918 0012 002C     		cmp	r4, #0
1118:STM32Cube_FW_N6/Utilities/lcd/stm32_lcd.c **** 
 1919              		.loc 1 1118 26 view .LVU550
 1920 0014 A5EB0306 		sub	r6, r5, r3
 1921              	.LVL166:
 1922              		.loc 1 1120 12 view .LVU551
 1923 0018 B8BF     		it	lt
 1924 001a 6442     		rsblt	r4, r4, #0
 1925              	.LVL167:
1121:STM32Cube_FW_N6/Utilities/lcd/stm32_lcd.c ****   deltay = ABS(y_diff);         /* The absolute difference between the y's */
 1926              		.loc 1 1121 12 view .LVU552
 1927 001c 002E     		cmp	r6, #0
 1928 001e B8BF     		it	lt
 1929 0020 7642     		rsblt	r6, r6, #0
 1930              	.LVL168:
1122:STM32Cube_FW_N6/Utilities/lcd/stm32_lcd.c ****   x = Positions->x1;                       /* Start x off at the first pixel */
1123:STM32Cube_FW_N6/Utilities/lcd/stm32_lcd.c ****   y = Positions->y1;                       /* Start y off at the first pixel */
1124:STM32Cube_FW_N6/Utilities/lcd/stm32_lcd.c **** 
1125:STM32Cube_FW_N6/Utilities/lcd/stm32_lcd.c ****   if (Positions->x2 >= Positions->x1)                 /* The x-values are increasing */
1126:STM32Cube_FW_N6/Utilities/lcd/stm32_lcd.c ****   {
1127:STM32Cube_FW_N6/Utilities/lcd/stm32_lcd.c ****     xinc1 = 1;
 1931              		.loc 1 1127 11 view .LVU553
 1932 0022 9445     		cmp	ip, r2
 1933 0024 34BF     		ite	cc
 1934 0026 4FF0FF38 		movcc	r8, #-1
 1935 002a 4FF00108 		movcs	r8, #1
1120:STM32Cube_FW_N6/Utilities/lcd/stm32_lcd.c ****   deltay = ABS(y_diff);         /* The absolute difference between the y's */
 1936              		.loc 1 1120 10 view .LVU554
 1937 002e 24B2     		sxth	r4, r4
 1938              	.LVL169:
1121:STM32Cube_FW_N6/Utilities/lcd/stm32_lcd.c ****   deltay = ABS(y_diff);         /* The absolute difference between the y's */
 1939              		.loc 1 1121 3 is_stmt 1 view .LVU555
1128:STM32Cube_FW_N6/Utilities/lcd/stm32_lcd.c ****     xinc2 = 1;
1129:STM32Cube_FW_N6/Utilities/lcd/stm32_lcd.c ****   }
1130:STM32Cube_FW_N6/Utilities/lcd/stm32_lcd.c ****   else                          /* The x-values are decreasing */
1131:STM32Cube_FW_N6/Utilities/lcd/stm32_lcd.c ****   {
1132:STM32Cube_FW_N6/Utilities/lcd/stm32_lcd.c ****     xinc1 = -1;
1133:STM32Cube_FW_N6/Utilities/lcd/stm32_lcd.c ****     xinc2 = -1;
1134:STM32Cube_FW_N6/Utilities/lcd/stm32_lcd.c ****   }
1135:STM32Cube_FW_N6/Utilities/lcd/stm32_lcd.c **** 
1136:STM32Cube_FW_N6/Utilities/lcd/stm32_lcd.c ****   if (Positions->y2 >= Positions->y1)                 /* The y-values are increasing */
ARM GAS  C:\Users\DJESSOU\AppData\Local\Temp\ccR55SEh.s 			page 61


1137:STM32Cube_FW_N6/Utilities/lcd/stm32_lcd.c ****   {
1138:STM32Cube_FW_N6/Utilities/lcd/stm32_lcd.c ****     yinc1 = 1;
 1940              		.loc 1 1138 11 is_stmt 0 view .LVU556
 1941 0030 9D42     		cmp	r5, r3
1121:STM32Cube_FW_N6/Utilities/lcd/stm32_lcd.c ****   x = Positions->x1;                       /* Start x off at the first pixel */
 1942              		.loc 1 1121 10 view .LVU557
 1943 0032 36B2     		sxth	r6, r6
 1944              	.LVL170:
1122:STM32Cube_FW_N6/Utilities/lcd/stm32_lcd.c ****   y = Positions->y1;                       /* Start y off at the first pixel */
 1945              		.loc 1 1122 3 is_stmt 1 view .LVU558
 1946              		.loc 1 1138 11 is_stmt 0 view .LVU559
 1947 0034 34BF     		ite	cc
 1948 0036 4FF0FF39 		movcc	r9, #-1
 1949 003a 4FF00109 		movcs	r9, #1
1111:STM32Cube_FW_N6/Utilities/lcd/stm32_lcd.c ****   int16_t deltax = 0, deltay = 0, x = 0, y = 0, xinc1 = 0, xinc2 = 0,
 1950              		.loc 1 1111 1 view .LVU560
 1951 003e 87B0     		sub	sp, sp, #28
 1952              		.cfi_def_cfa_offset 64
1139:STM32Cube_FW_N6/Utilities/lcd/stm32_lcd.c ****     yinc2 = 1;
1140:STM32Cube_FW_N6/Utilities/lcd/stm32_lcd.c ****   }
1141:STM32Cube_FW_N6/Utilities/lcd/stm32_lcd.c ****   else                          /* The y-values are decreasing */
1142:STM32Cube_FW_N6/Utilities/lcd/stm32_lcd.c ****   {
1143:STM32Cube_FW_N6/Utilities/lcd/stm32_lcd.c ****     yinc1 = -1;
1144:STM32Cube_FW_N6/Utilities/lcd/stm32_lcd.c ****     yinc2 = -1;
1145:STM32Cube_FW_N6/Utilities/lcd/stm32_lcd.c ****   }
1146:STM32Cube_FW_N6/Utilities/lcd/stm32_lcd.c **** 
1147:STM32Cube_FW_N6/Utilities/lcd/stm32_lcd.c ****   if (deltax >= deltay)         /* There is at least one x-value for every y-value */
 1953              		.loc 1 1147 6 view .LVU561
 1954 0040 B442     		cmp	r4, r6
1111:STM32Cube_FW_N6/Utilities/lcd/stm32_lcd.c ****   int16_t deltax = 0, deltay = 0, x = 0, y = 0, xinc1 = 0, xinc2 = 0,
 1955              		.loc 1 1111 1 view .LVU562
 1956 0042 0746     		mov	r7, r0
 1957 0044 0391     		str	r1, [sp, #12]
1122:STM32Cube_FW_N6/Utilities/lcd/stm32_lcd.c ****   y = Positions->y1;                       /* Start y off at the first pixel */
 1958              		.loc 1 1122 5 view .LVU563
 1959 0046 10B2     		sxth	r0, r2
 1960              	.LVL171:
1123:STM32Cube_FW_N6/Utilities/lcd/stm32_lcd.c **** 
 1961              		.loc 1 1123 3 is_stmt 1 view .LVU564
1123:STM32Cube_FW_N6/Utilities/lcd/stm32_lcd.c **** 
 1962              		.loc 1 1123 5 is_stmt 0 view .LVU565
 1963 0048 19B2     		sxth	r1, r3
 1964              	.LVL172:
1125:STM32Cube_FW_N6/Utilities/lcd/stm32_lcd.c ****   {
 1965              		.loc 1 1125 3 is_stmt 1 view .LVU566
1136:STM32Cube_FW_N6/Utilities/lcd/stm32_lcd.c ****   {
 1966              		.loc 1 1136 3 view .LVU567
 1967              		.loc 1 1147 3 view .LVU568
 1968              		.loc 1 1147 6 is_stmt 0 view .LVU569
 1969 004a 10DB     		blt	.L132
1148:STM32Cube_FW_N6/Utilities/lcd/stm32_lcd.c ****   {
1149:STM32Cube_FW_N6/Utilities/lcd/stm32_lcd.c ****     xinc1 = 0;                  /* Don't change the x when numerator >= denominator */
 1970              		.loc 1 1149 5 is_stmt 1 view .LVU570
 1971              	.LVL173:
1150:STM32Cube_FW_N6/Utilities/lcd/stm32_lcd.c ****     yinc2 = 0;                  /* Don't change the y for every iteration */
 1972              		.loc 1 1150 5 view .LVU571
1151:STM32Cube_FW_N6/Utilities/lcd/stm32_lcd.c ****     den = deltax;
ARM GAS  C:\Users\DJESSOU\AppData\Local\Temp\ccR55SEh.s 			page 62


 1973              		.loc 1 1151 5 view .LVU572
1152:STM32Cube_FW_N6/Utilities/lcd/stm32_lcd.c ****     num = deltax / 2;
 1974              		.loc 1 1152 5 view .LVU573
 1975 004c CDF80880 		str	r8, [sp, #8]
1150:STM32Cube_FW_N6/Utilities/lcd/stm32_lcd.c ****     yinc2 = 0;                  /* Don't change the y for every iteration */
 1976              		.loc 1 1150 11 is_stmt 0 view .LVU574
 1977 0050 4FF00008 		mov	r8, #0
 1978              	.LVL174:
1149:STM32Cube_FW_N6/Utilities/lcd/stm32_lcd.c ****     yinc2 = 0;                  /* Don't change the y for every iteration */
 1979              		.loc 1 1149 11 view .LVU575
 1980 0054 C346     		mov	fp, r8
 1981              		.loc 1 1152 9 view .LVU576
 1982 0056 04EBD475 		add	r5, r4, r4, lsr #31
 1983              	.LVL175:
 1984              		.loc 1 1152 9 view .LVU577
 1985 005a 6D10     		asrs	r5, r5, #1
 1986              	.LVL176:
1153:STM32Cube_FW_N6/Utilities/lcd/stm32_lcd.c ****     numadd = deltay;
 1987              		.loc 1 1153 5 is_stmt 1 view .LVU578
1154:STM32Cube_FW_N6/Utilities/lcd/stm32_lcd.c ****     numpixels = deltax;         /* There are more x-values than y-values */
 1988              		.loc 1 1154 5 view .LVU579
 1989              	.L133:
1155:STM32Cube_FW_N6/Utilities/lcd/stm32_lcd.c ****   }
1156:STM32Cube_FW_N6/Utilities/lcd/stm32_lcd.c ****   else                          /* There is at least one y-value for every x-value */
1157:STM32Cube_FW_N6/Utilities/lcd/stm32_lcd.c ****   {
1158:STM32Cube_FW_N6/Utilities/lcd/stm32_lcd.c ****     xinc2 = 0;                  /* Don't change the x for every iteration */
1159:STM32Cube_FW_N6/Utilities/lcd/stm32_lcd.c ****     yinc1 = 0;                  /* Don't change the y when numerator >= denominator */
1160:STM32Cube_FW_N6/Utilities/lcd/stm32_lcd.c ****     den = deltay;
1161:STM32Cube_FW_N6/Utilities/lcd/stm32_lcd.c ****     num = deltay / 2;
1162:STM32Cube_FW_N6/Utilities/lcd/stm32_lcd.c ****     numadd = deltax;
1163:STM32Cube_FW_N6/Utilities/lcd/stm32_lcd.c ****     numpixels = deltay;         /* There are more y-values than x-values */
1164:STM32Cube_FW_N6/Utilities/lcd/stm32_lcd.c ****   }
1165:STM32Cube_FW_N6/Utilities/lcd/stm32_lcd.c **** 
1166:STM32Cube_FW_N6/Utilities/lcd/stm32_lcd.c ****   for (curpixel = 0; curpixel <= numpixels; curpixel++)
 1990              		.loc 1 1166 3 view .LVU580
 1991              		.loc 1 1166 3 is_stmt 0 view .LVU581
 1992 005c 4FF0000A 		mov	r10, #0
 1993              	.LVL177:
 1994              	.L134:
 1995              		.loc 1 1166 31 is_stmt 1 discriminator 1 view .LVU582
 1996 0060 0FFA8AF3 		sxth	r3, r10
 1997 0064 9C42     		cmp	r4, r3
 1998 0066 0FDA     		bge	.L136
1167:STM32Cube_FW_N6/Utilities/lcd/stm32_lcd.c ****   {
1168:STM32Cube_FW_N6/Utilities/lcd/stm32_lcd.c ****     UTIL_LCD_DrawLine(x, y, Positions->x3, Positions->y3, Color);
1169:STM32Cube_FW_N6/Utilities/lcd/stm32_lcd.c **** 
1170:STM32Cube_FW_N6/Utilities/lcd/stm32_lcd.c ****     num += numadd;              /* Increase the numerator by the top of the fraction */
1171:STM32Cube_FW_N6/Utilities/lcd/stm32_lcd.c ****     if (num >= den)             /* Check if numerator >= denominator */
1172:STM32Cube_FW_N6/Utilities/lcd/stm32_lcd.c ****     {
1173:STM32Cube_FW_N6/Utilities/lcd/stm32_lcd.c ****       num -= den;               /* Calculate the new numerator value */
1174:STM32Cube_FW_N6/Utilities/lcd/stm32_lcd.c ****       x += xinc1;               /* Change the x as appropriate */
1175:STM32Cube_FW_N6/Utilities/lcd/stm32_lcd.c ****       y += yinc1;               /* Change the y as appropriate */
1176:STM32Cube_FW_N6/Utilities/lcd/stm32_lcd.c ****     }
1177:STM32Cube_FW_N6/Utilities/lcd/stm32_lcd.c ****     x += xinc2;                 /* Change the x as appropriate */
1178:STM32Cube_FW_N6/Utilities/lcd/stm32_lcd.c ****     y += yinc2;                 /* Change the y as appropriate */
1179:STM32Cube_FW_N6/Utilities/lcd/stm32_lcd.c ****   }
1180:STM32Cube_FW_N6/Utilities/lcd/stm32_lcd.c **** }
ARM GAS  C:\Users\DJESSOU\AppData\Local\Temp\ccR55SEh.s 			page 63


 1999              		.loc 1 1180 1 is_stmt 0 view .LVU583
 2000 0068 07B0     		add	sp, sp, #28
 2001              		.cfi_remember_state
 2002              		.cfi_def_cfa_offset 36
 2003              		@ sp needed
 2004 006a BDE8F08F 		pop	{r4, r5, r6, r7, r8, r9, r10, fp, pc}
 2005              	.LVL178:
 2006              	.L132:
 2007              		.cfi_restore_state
1158:STM32Cube_FW_N6/Utilities/lcd/stm32_lcd.c ****     yinc1 = 0;                  /* Don't change the y when numerator >= denominator */
 2008              		.loc 1 1158 5 is_stmt 1 view .LVU584
1159:STM32Cube_FW_N6/Utilities/lcd/stm32_lcd.c ****     den = deltay;
 2009              		.loc 1 1159 5 view .LVU585
1160:STM32Cube_FW_N6/Utilities/lcd/stm32_lcd.c ****     num = deltay / 2;
 2010              		.loc 1 1160 5 view .LVU586
1161:STM32Cube_FW_N6/Utilities/lcd/stm32_lcd.c ****     numadd = deltax;
 2011              		.loc 1 1161 5 view .LVU587
1161:STM32Cube_FW_N6/Utilities/lcd/stm32_lcd.c ****     numadd = deltax;
 2012              		.loc 1 1161 9 is_stmt 0 view .LVU588
 2013 006e 2346     		mov	r3, r4
 2014              	.LVL179:
1161:STM32Cube_FW_N6/Utilities/lcd/stm32_lcd.c ****     numadd = deltax;
 2015              		.loc 1 1161 9 view .LVU589
 2016 0070 CB46     		mov	fp, r9
1159:STM32Cube_FW_N6/Utilities/lcd/stm32_lcd.c ****     den = deltay;
 2017              		.loc 1 1159 11 view .LVU590
 2018 0072 4FF00009 		mov	r9, #0
 2019              	.LVL180:
1161:STM32Cube_FW_N6/Utilities/lcd/stm32_lcd.c ****     numadd = deltax;
 2020              		.loc 1 1161 9 view .LVU591
 2021 0076 06EBD675 		add	r5, r6, r6, lsr #31
 2022              	.LVL181:
1160:STM32Cube_FW_N6/Utilities/lcd/stm32_lcd.c ****     num = deltay / 2;
 2023              		.loc 1 1160 9 view .LVU592
 2024 007a 3446     		mov	r4, r6
 2025              	.LVL182:
1161:STM32Cube_FW_N6/Utilities/lcd/stm32_lcd.c ****     numadd = deltax;
 2026              		.loc 1 1161 9 view .LVU593
 2027 007c 45F34F05 		sbfx	r5, r5, #1, #16
 2028              	.LVL183:
1162:STM32Cube_FW_N6/Utilities/lcd/stm32_lcd.c ****     numpixels = deltay;         /* There are more y-values than x-values */
 2029              		.loc 1 1162 5 is_stmt 1 view .LVU594
1163:STM32Cube_FW_N6/Utilities/lcd/stm32_lcd.c ****   }
 2030              		.loc 1 1163 5 view .LVU595
1162:STM32Cube_FW_N6/Utilities/lcd/stm32_lcd.c ****     numpixels = deltay;         /* There are more y-values than x-values */
 2031              		.loc 1 1162 12 is_stmt 0 view .LVU596
 2032 0080 1E46     		mov	r6, r3
 2033              	.LVL184:
1158:STM32Cube_FW_N6/Utilities/lcd/stm32_lcd.c ****     yinc1 = 0;                  /* Don't change the y when numerator >= denominator */
 2034              		.loc 1 1158 11 view .LVU597
 2035 0082 CDF80890 		str	r9, [sp, #8]
 2036 0086 E9E7     		b	.L133
 2037              	.LVL185:
 2038              	.L136:
1168:STM32Cube_FW_N6/Utilities/lcd/stm32_lcd.c **** 
 2039              		.loc 1 1168 5 is_stmt 1 view .LVU598
 2040 0088 039B     		ldr	r3, [sp, #12]
ARM GAS  C:\Users\DJESSOU\AppData\Local\Temp\ccR55SEh.s 			page 64


1170:STM32Cube_FW_N6/Utilities/lcd/stm32_lcd.c ****     if (num >= den)             /* Check if numerator >= denominator */
 2041              		.loc 1 1170 9 is_stmt 0 view .LVU599
 2042 008a 3544     		add	r5, r5, r6
 2043              	.LVL186:
1168:STM32Cube_FW_N6/Utilities/lcd/stm32_lcd.c **** 
 2044              		.loc 1 1168 5 view .LVU600
 2045 008c 0093     		str	r3, [sp]
 2046 008e D7E90423 		ldrd	r2, r3, [r7, #16]
 2047 0092 CDE90401 		strd	r0, r1, [sp, #16]
 2048 0096 FFF7FEFF 		bl	UTIL_LCD_DrawLine
 2049              	.LVL187:
1170:STM32Cube_FW_N6/Utilities/lcd/stm32_lcd.c ****     if (num >= den)             /* Check if numerator >= denominator */
 2050              		.loc 1 1170 5 is_stmt 1 view .LVU601
1171:STM32Cube_FW_N6/Utilities/lcd/stm32_lcd.c ****     {
 2051              		.loc 1 1171 8 is_stmt 0 view .LVU602
 2052 009a DDE90401 		ldrd	r0, r1, [sp, #16]
1170:STM32Cube_FW_N6/Utilities/lcd/stm32_lcd.c ****     if (num >= den)             /* Check if numerator >= denominator */
 2053              		.loc 1 1170 9 view .LVU603
 2054 009e ABB2     		uxth	r3, r5
 2055 00a0 2DB2     		sxth	r5, r5
 2056              	.LVL188:
1171:STM32Cube_FW_N6/Utilities/lcd/stm32_lcd.c ****     {
 2057              		.loc 1 1171 5 is_stmt 1 view .LVU604
1171:STM32Cube_FW_N6/Utilities/lcd/stm32_lcd.c ****     {
 2058              		.loc 1 1171 8 is_stmt 0 view .LVU605
 2059 00a2 AC42     		cmp	r4, r5
 2060 00a4 05DC     		bgt	.L135
1173:STM32Cube_FW_N6/Utilities/lcd/stm32_lcd.c ****       x += xinc1;               /* Change the x as appropriate */
 2061              		.loc 1 1173 7 is_stmt 1 view .LVU606
1173:STM32Cube_FW_N6/Utilities/lcd/stm32_lcd.c ****       x += xinc1;               /* Change the x as appropriate */
 2062              		.loc 1 1173 11 is_stmt 0 view .LVU607
 2063 00a6 1B1B     		subs	r3, r3, r4
1174:STM32Cube_FW_N6/Utilities/lcd/stm32_lcd.c ****       y += yinc1;               /* Change the y as appropriate */
 2064              		.loc 1 1174 9 view .LVU608
 2065 00a8 4044     		add	r0, r0, r8
1175:STM32Cube_FW_N6/Utilities/lcd/stm32_lcd.c ****     }
 2066              		.loc 1 1175 9 view .LVU609
 2067 00aa 4944     		add	r1, r1, r9
1173:STM32Cube_FW_N6/Utilities/lcd/stm32_lcd.c ****       x += xinc1;               /* Change the x as appropriate */
 2068              		.loc 1 1173 11 view .LVU610
 2069 00ac 1DB2     		sxth	r5, r3
 2070              	.LVL189:
1174:STM32Cube_FW_N6/Utilities/lcd/stm32_lcd.c ****       y += yinc1;               /* Change the y as appropriate */
 2071              		.loc 1 1174 7 is_stmt 1 view .LVU611
1174:STM32Cube_FW_N6/Utilities/lcd/stm32_lcd.c ****       y += yinc1;               /* Change the y as appropriate */
 2072              		.loc 1 1174 9 is_stmt 0 view .LVU612
 2073 00ae 00B2     		sxth	r0, r0
 2074              	.LVL190:
1175:STM32Cube_FW_N6/Utilities/lcd/stm32_lcd.c ****     }
 2075              		.loc 1 1175 7 is_stmt 1 view .LVU613
1175:STM32Cube_FW_N6/Utilities/lcd/stm32_lcd.c ****     }
 2076              		.loc 1 1175 9 is_stmt 0 view .LVU614
 2077 00b0 09B2     		sxth	r1, r1
 2078              	.LVL191:
 2079              	.L135:
1177:STM32Cube_FW_N6/Utilities/lcd/stm32_lcd.c ****     y += yinc2;                 /* Change the y as appropriate */
 2080              		.loc 1 1177 5 is_stmt 1 view .LVU615
ARM GAS  C:\Users\DJESSOU\AppData\Local\Temp\ccR55SEh.s 			page 65


1177:STM32Cube_FW_N6/Utilities/lcd/stm32_lcd.c ****     y += yinc2;                 /* Change the y as appropriate */
 2081              		.loc 1 1177 7 is_stmt 0 view .LVU616
 2082 00b2 029B     		ldr	r3, [sp, #8]
1178:STM32Cube_FW_N6/Utilities/lcd/stm32_lcd.c ****   }
 2083              		.loc 1 1178 7 view .LVU617
 2084 00b4 5944     		add	r1, r1, fp
 2085              	.LVL192:
1177:STM32Cube_FW_N6/Utilities/lcd/stm32_lcd.c ****     y += yinc2;                 /* Change the y as appropriate */
 2086              		.loc 1 1177 7 view .LVU618
 2087 00b6 1844     		add	r0, r0, r3
 2088              	.LVL193:
1177:STM32Cube_FW_N6/Utilities/lcd/stm32_lcd.c ****     y += yinc2;                 /* Change the y as appropriate */
 2089              		.loc 1 1177 7 view .LVU619
 2090 00b8 00B2     		sxth	r0, r0
 2091              	.LVL194:
1178:STM32Cube_FW_N6/Utilities/lcd/stm32_lcd.c ****   }
 2092              		.loc 1 1178 5 is_stmt 1 view .LVU620
1178:STM32Cube_FW_N6/Utilities/lcd/stm32_lcd.c ****   }
 2093              		.loc 1 1178 7 is_stmt 0 view .LVU621
 2094 00ba 09B2     		sxth	r1, r1
 2095              	.LVL195:
1166:STM32Cube_FW_N6/Utilities/lcd/stm32_lcd.c ****   {
 2096              		.loc 1 1166 53 is_stmt 1 discriminator 2 view .LVU622
1166:STM32Cube_FW_N6/Utilities/lcd/stm32_lcd.c ****   {
 2097              		.loc 1 1166 53 is_stmt 0 discriminator 2 view .LVU623
 2098 00bc 0AF1010A 		add	r10, r10, #1
 2099              	.LVL196:
1166:STM32Cube_FW_N6/Utilities/lcd/stm32_lcd.c ****   {
 2100              		.loc 1 1166 53 discriminator 2 view .LVU624
 2101 00c0 CEE7     		b	.L134
 2102              		.cfi_endproc
 2103              	.LFE30:
 2105              		.section	.text.UTIL_LCD_DrawRect,"ax",%progbits
 2106              		.align	1
 2107              		.global	UTIL_LCD_DrawRect
 2108              		.syntax unified
 2109              		.thumb
 2110              		.thumb_func
 2112              	UTIL_LCD_DrawRect:
 2113              	.LVL197:
 2114              	.LFB20:
 601:STM32Cube_FW_N6/Utilities/lcd/stm32_lcd.c ****   /* Draw horizontal lines */
 2115              		.loc 1 601 1 is_stmt 1 view -0
 2116              		.cfi_startproc
 2117              		@ args = 4, pretend = 0, frame = 0
 2118              		@ frame_needed = 0, uses_anonymous_args = 0
 603:STM32Cube_FW_N6/Utilities/lcd/stm32_lcd.c ****   UTIL_LCD_DrawHLine(Xpos, (Ypos+ Height - 1U), Width, Color);
 2119              		.loc 1 603 3 view .LVU626
 601:STM32Cube_FW_N6/Utilities/lcd/stm32_lcd.c ****   /* Draw horizontal lines */
 2120              		.loc 1 601 1 is_stmt 0 view .LVU627
 2121 0000 2DE9F041 		push	{r4, r5, r6, r7, r8, lr}
 2122              		.cfi_def_cfa_offset 24
 2123              		.cfi_offset 4, -24
 2124              		.cfi_offset 5, -20
 2125              		.cfi_offset 6, -16
 2126              		.cfi_offset 7, -12
 2127              		.cfi_offset 8, -8
ARM GAS  C:\Users\DJESSOU\AppData\Local\Temp\ccR55SEh.s 			page 66


 2128              		.cfi_offset 14, -4
 601:STM32Cube_FW_N6/Utilities/lcd/stm32_lcd.c ****   /* Draw horizontal lines */
 2129              		.loc 1 601 1 view .LVU628
 2130 0004 1F46     		mov	r7, r3
 2131 0006 0E46     		mov	r6, r1
 2132 0008 0546     		mov	r5, r0
 2133 000a 1446     		mov	r4, r2
 2134 000c DDF81880 		ldr	r8, [sp, #24]
 603:STM32Cube_FW_N6/Utilities/lcd/stm32_lcd.c ****   UTIL_LCD_DrawHLine(Xpos, (Ypos+ Height - 1U), Width, Color);
 2135              		.loc 1 603 3 view .LVU629
 2136 0010 4346     		mov	r3, r8
 2137              	.LVL198:
 603:STM32Cube_FW_N6/Utilities/lcd/stm32_lcd.c ****   UTIL_LCD_DrawHLine(Xpos, (Ypos+ Height - 1U), Width, Color);
 2138              		.loc 1 603 3 view .LVU630
 2139 0012 FFF7FEFF 		bl	UTIL_LCD_DrawHLine
 2140              	.LVL199:
 604:STM32Cube_FW_N6/Utilities/lcd/stm32_lcd.c **** 
 2141              		.loc 1 604 3 is_stmt 1 view .LVU631
 2142 0016 791E     		subs	r1, r7, #1
 2143 0018 4346     		mov	r3, r8
 2144 001a 2246     		mov	r2, r4
 2145 001c 2846     		mov	r0, r5
 2146 001e 3144     		add	r1, r1, r6
 2147 0020 FFF7FEFF 		bl	UTIL_LCD_DrawHLine
 2148              	.LVL200:
 607:STM32Cube_FW_N6/Utilities/lcd/stm32_lcd.c ****   UTIL_LCD_DrawVLine((Xpos + Width - 1U), Ypos, Height, Color);
 2149              		.loc 1 607 3 view .LVU632
 608:STM32Cube_FW_N6/Utilities/lcd/stm32_lcd.c **** }
 2150              		.loc 1 608 3 is_stmt 0 view .LVU633
 2151 0024 013C     		subs	r4, r4, #1
 2152              	.LVL201:
 607:STM32Cube_FW_N6/Utilities/lcd/stm32_lcd.c ****   UTIL_LCD_DrawVLine((Xpos + Width - 1U), Ypos, Height, Color);
 2153              		.loc 1 607 3 view .LVU634
 2154 0026 4346     		mov	r3, r8
 2155 0028 3A46     		mov	r2, r7
 2156 002a 3146     		mov	r1, r6
 2157 002c 2846     		mov	r0, r5
 2158 002e FFF7FEFF 		bl	UTIL_LCD_DrawVLine
 2159              	.LVL202:
 608:STM32Cube_FW_N6/Utilities/lcd/stm32_lcd.c **** }
 2160              		.loc 1 608 3 is_stmt 1 view .LVU635
 2161 0032 4346     		mov	r3, r8
 2162 0034 3A46     		mov	r2, r7
 2163 0036 3146     		mov	r1, r6
 2164 0038 6019     		adds	r0, r4, r5
 609:STM32Cube_FW_N6/Utilities/lcd/stm32_lcd.c **** 
 2165              		.loc 1 609 1 is_stmt 0 view .LVU636
 2166 003a BDE8F041 		pop	{r4, r5, r6, r7, r8, lr}
 2167              		.cfi_restore 14
 2168              		.cfi_restore 8
 2169              		.cfi_restore 7
 2170              		.cfi_restore 6
 2171              		.cfi_restore 5
 2172              		.cfi_restore 4
 2173              		.cfi_def_cfa_offset 0
 2174              	.LVL203:
 608:STM32Cube_FW_N6/Utilities/lcd/stm32_lcd.c **** }
ARM GAS  C:\Users\DJESSOU\AppData\Local\Temp\ccR55SEh.s 			page 67


 2175              		.loc 1 608 3 view .LVU637
 2176 003e FFF7FEBF 		b	UTIL_LCD_DrawVLine
 2177              	.LVL204:
 608:STM32Cube_FW_N6/Utilities/lcd/stm32_lcd.c **** }
 2178              		.loc 1 608 3 view .LVU638
 2179              		.cfi_endproc
 2180              	.LFE20:
 2182              		.section	.text.UTIL_LCD_DrawCircle,"ax",%progbits
 2183              		.align	1
 2184              		.global	UTIL_LCD_DrawCircle
 2185              		.syntax unified
 2186              		.thumb
 2187              		.thumb_func
 2189              	UTIL_LCD_DrawCircle:
 2190              	.LVL205:
 2191              	.LFB21:
 619:STM32Cube_FW_N6/Utilities/lcd/stm32_lcd.c ****   int32_t   decision;  /* Decision Variable */
 2192              		.loc 1 619 1 is_stmt 1 view -0
 2193              		.cfi_startproc
 2194              		@ args = 0, pretend = 0, frame = 0
 2195              		@ frame_needed = 0, uses_anonymous_args = 0
 620:STM32Cube_FW_N6/Utilities/lcd/stm32_lcd.c ****   uint32_t  current_x; /* Current X Value */
 2196              		.loc 1 620 3 view .LVU640
 621:STM32Cube_FW_N6/Utilities/lcd/stm32_lcd.c ****   uint32_t  current_y; /* Current Y Value */
 2197              		.loc 1 621 3 view .LVU641
 622:STM32Cube_FW_N6/Utilities/lcd/stm32_lcd.c **** 
 2198              		.loc 1 622 3 view .LVU642
 624:STM32Cube_FW_N6/Utilities/lcd/stm32_lcd.c ****   current_x = 0;
 2199              		.loc 1 624 3 view .LVU643
 619:STM32Cube_FW_N6/Utilities/lcd/stm32_lcd.c ****   int32_t   decision;  /* Decision Variable */
 2200              		.loc 1 619 1 is_stmt 0 view .LVU644
 2201 0000 2DE9F84F 		push	{r3, r4, r5, r6, r7, r8, r9, r10, fp, lr}
 2202              		.cfi_def_cfa_offset 40
 2203              		.cfi_offset 3, -40
 2204              		.cfi_offset 4, -36
 2205              		.cfi_offset 5, -32
 2206              		.cfi_offset 6, -28
 2207              		.cfi_offset 7, -24
 2208              		.cfi_offset 8, -20
 2209              		.cfi_offset 9, -16
 2210              		.cfi_offset 10, -12
 2211              		.cfi_offset 11, -8
 2212              		.cfi_offset 14, -4
 619:STM32Cube_FW_N6/Utilities/lcd/stm32_lcd.c ****   int32_t   decision;  /* Decision Variable */
 2213              		.loc 1 619 1 view .LVU645
 2214 0004 8046     		mov	r8, r0
 2215 0006 8A46     		mov	r10, r1
 2216 0008 1546     		mov	r5, r2
 2217 000a 9946     		mov	r9, r3
 625:STM32Cube_FW_N6/Utilities/lcd/stm32_lcd.c ****   current_y = Radius;
 2218              		.loc 1 625 13 view .LVU646
 2219 000c 0026     		movs	r6, #0
 624:STM32Cube_FW_N6/Utilities/lcd/stm32_lcd.c ****   current_x = 0;
 2220              		.loc 1 624 26 view .LVU647
 2221 000e 5700     		lsls	r7, r2, #1
 630:STM32Cube_FW_N6/Utilities/lcd/stm32_lcd.c ****     {
 2222              		.loc 1 630 46 view .LVU648
ARM GAS  C:\Users\DJESSOU\AppData\Local\Temp\ccR55SEh.s 			page 68


 2223 0010 4D4C     		ldr	r4, .L161
 624:STM32Cube_FW_N6/Utilities/lcd/stm32_lcd.c ****   current_x = 0;
 2224              		.loc 1 624 16 view .LVU649
 2225 0012 C7F10307 		rsb	r7, r7, #3
 2226              	.LVL206:
 625:STM32Cube_FW_N6/Utilities/lcd/stm32_lcd.c ****   current_y = Radius;
 2227              		.loc 1 625 3 is_stmt 1 view .LVU650
 626:STM32Cube_FW_N6/Utilities/lcd/stm32_lcd.c **** 
 2228              		.loc 1 626 3 view .LVU651
 628:STM32Cube_FW_N6/Utilities/lcd/stm32_lcd.c ****   {
 2229              		.loc 1 628 3 view .LVU652
 628:STM32Cube_FW_N6/Utilities/lcd/stm32_lcd.c ****   {
 2230              		.loc 1 628 20 view .LVU653
 2231              	.L159:
 630:STM32Cube_FW_N6/Utilities/lcd/stm32_lcd.c ****     {
 2232              		.loc 1 630 5 view .LVU654
 630:STM32Cube_FW_N6/Utilities/lcd/stm32_lcd.c ****     {
 2233              		.loc 1 630 46 is_stmt 0 view .LVU655
 2234 0016 E368     		ldr	r3, [r4, #12]
 630:STM32Cube_FW_N6/Utilities/lcd/stm32_lcd.c ****     {
 2235              		.loc 1 630 14 view .LVU656
 2236 0018 AAEB050B 		sub	fp, r10, r5
 630:STM32Cube_FW_N6/Utilities/lcd/stm32_lcd.c ****     {
 2237              		.loc 1 630 57 view .LVU657
 2238 001c 04EB4313 		add	r3, r4, r3, lsl #5
 630:STM32Cube_FW_N6/Utilities/lcd/stm32_lcd.c ****     {
 2239              		.loc 1 630 7 view .LVU658
 2240 0020 9A69     		ldr	r2, [r3, #24]
 2241 0022 9345     		cmp	fp, r2
 2242 0024 18D2     		bcs	.L142
 632:STM32Cube_FW_N6/Utilities/lcd/stm32_lcd.c ****       {
 2243              		.loc 1 632 7 is_stmt 1 view .LVU659
 632:STM32Cube_FW_N6/Utilities/lcd/stm32_lcd.c ****       {
 2244              		.loc 1 632 9 is_stmt 0 view .LVU660
 2245 0026 5B69     		ldr	r3, [r3, #20]
 2246 0028 08EB0600 		add	r0, r8, r6
 2247 002c 8342     		cmp	r3, r0
 2248 002e 05D9     		bls	.L143
 634:STM32Cube_FW_N6/Utilities/lcd/stm32_lcd.c ****       }
 2249              		.loc 1 634 9 is_stmt 1 view .LVU661
 2250 0030 4A46     		mov	r2, r9
 2251 0032 1FFA8BF1 		uxth	r1, fp
 2252 0036 80B2     		uxth	r0, r0
 2253 0038 FFF7FEFF 		bl	UTIL_LCD_SetPixel
 2254              	.LVL207:
 2255              	.L143:
 636:STM32Cube_FW_N6/Utilities/lcd/stm32_lcd.c ****       {
 2256              		.loc 1 636 7 view .LVU662
 636:STM32Cube_FW_N6/Utilities/lcd/stm32_lcd.c ****       {
 2257              		.loc 1 636 59 is_stmt 0 view .LVU663
 2258 003c E368     		ldr	r3, [r4, #12]
 636:STM32Cube_FW_N6/Utilities/lcd/stm32_lcd.c ****       {
 2259              		.loc 1 636 9 view .LVU664
 2260 003e A8EB0600 		sub	r0, r8, r6
 636:STM32Cube_FW_N6/Utilities/lcd/stm32_lcd.c ****       {
 2261              		.loc 1 636 59 view .LVU665
 2262 0042 04EB4313 		add	r3, r4, r3, lsl #5
ARM GAS  C:\Users\DJESSOU\AppData\Local\Temp\ccR55SEh.s 			page 69


 636:STM32Cube_FW_N6/Utilities/lcd/stm32_lcd.c ****       {
 2263              		.loc 1 636 9 view .LVU666
 2264 0046 5B69     		ldr	r3, [r3, #20]
 2265 0048 8342     		cmp	r3, r0
 2266 004a 05D9     		bls	.L142
 638:STM32Cube_FW_N6/Utilities/lcd/stm32_lcd.c ****       }
 2267              		.loc 1 638 9 is_stmt 1 view .LVU667
 2268 004c 4A46     		mov	r2, r9
 2269 004e 1FFA8BF1 		uxth	r1, fp
 2270 0052 80B2     		uxth	r0, r0
 2271 0054 FFF7FEFF 		bl	UTIL_LCD_SetPixel
 2272              	.LVL208:
 2273              	.L142:
 642:STM32Cube_FW_N6/Utilities/lcd/stm32_lcd.c ****     {
 2274              		.loc 1 642 5 view .LVU668
 642:STM32Cube_FW_N6/Utilities/lcd/stm32_lcd.c ****     {
 2275              		.loc 1 642 46 is_stmt 0 view .LVU669
 2276 0058 E368     		ldr	r3, [r4, #12]
 642:STM32Cube_FW_N6/Utilities/lcd/stm32_lcd.c ****     {
 2277              		.loc 1 642 7 view .LVU670
 2278 005a AAEB060B 		sub	fp, r10, r6
 642:STM32Cube_FW_N6/Utilities/lcd/stm32_lcd.c ****     {
 2279              		.loc 1 642 57 view .LVU671
 2280 005e 04EB4313 		add	r3, r4, r3, lsl #5
 642:STM32Cube_FW_N6/Utilities/lcd/stm32_lcd.c ****     {
 2281              		.loc 1 642 7 view .LVU672
 2282 0062 9A69     		ldr	r2, [r3, #24]
 2283 0064 5A45     		cmp	r2, fp
 2284 0066 18D9     		bls	.L146
 644:STM32Cube_FW_N6/Utilities/lcd/stm32_lcd.c ****       {
 2285              		.loc 1 644 7 is_stmt 1 view .LVU673
 644:STM32Cube_FW_N6/Utilities/lcd/stm32_lcd.c ****       {
 2286              		.loc 1 644 9 is_stmt 0 view .LVU674
 2287 0068 5B69     		ldr	r3, [r3, #20]
 644:STM32Cube_FW_N6/Utilities/lcd/stm32_lcd.c ****       {
 2288              		.loc 1 644 16 view .LVU675
 2289 006a 08EB0500 		add	r0, r8, r5
 644:STM32Cube_FW_N6/Utilities/lcd/stm32_lcd.c ****       {
 2290              		.loc 1 644 9 view .LVU676
 2291 006e 9842     		cmp	r0, r3
 2292 0070 05D2     		bcs	.L147
 646:STM32Cube_FW_N6/Utilities/lcd/stm32_lcd.c ****       }
 2293              		.loc 1 646 9 is_stmt 1 view .LVU677
 2294 0072 4A46     		mov	r2, r9
 2295 0074 1FFA8BF1 		uxth	r1, fp
 2296 0078 80B2     		uxth	r0, r0
 2297 007a FFF7FEFF 		bl	UTIL_LCD_SetPixel
 2298              	.LVL209:
 2299              	.L147:
 648:STM32Cube_FW_N6/Utilities/lcd/stm32_lcd.c ****       {
 2300              		.loc 1 648 7 view .LVU678
 648:STM32Cube_FW_N6/Utilities/lcd/stm32_lcd.c ****       {
 2301              		.loc 1 648 59 is_stmt 0 view .LVU679
 2302 007e E368     		ldr	r3, [r4, #12]
 648:STM32Cube_FW_N6/Utilities/lcd/stm32_lcd.c ****       {
 2303              		.loc 1 648 16 view .LVU680
 2304 0080 A8EB0500 		sub	r0, r8, r5
ARM GAS  C:\Users\DJESSOU\AppData\Local\Temp\ccR55SEh.s 			page 70


 648:STM32Cube_FW_N6/Utilities/lcd/stm32_lcd.c ****       {
 2305              		.loc 1 648 59 view .LVU681
 2306 0084 04EB4313 		add	r3, r4, r3, lsl #5
 648:STM32Cube_FW_N6/Utilities/lcd/stm32_lcd.c ****       {
 2307              		.loc 1 648 9 view .LVU682
 2308 0088 5B69     		ldr	r3, [r3, #20]
 2309 008a 9842     		cmp	r0, r3
 2310 008c 05D2     		bcs	.L146
 650:STM32Cube_FW_N6/Utilities/lcd/stm32_lcd.c ****       }
 2311              		.loc 1 650 9 is_stmt 1 view .LVU683
 2312 008e 4A46     		mov	r2, r9
 2313 0090 1FFA8BF1 		uxth	r1, fp
 2314 0094 80B2     		uxth	r0, r0
 2315 0096 FFF7FEFF 		bl	UTIL_LCD_SetPixel
 2316              	.LVL210:
 2317              	.L146:
 654:STM32Cube_FW_N6/Utilities/lcd/stm32_lcd.c ****     {
 2318              		.loc 1 654 5 view .LVU684
 654:STM32Cube_FW_N6/Utilities/lcd/stm32_lcd.c ****     {
 2319              		.loc 1 654 46 is_stmt 0 view .LVU685
 2320 009a E368     		ldr	r3, [r4, #12]
 654:STM32Cube_FW_N6/Utilities/lcd/stm32_lcd.c ****     {
 2321              		.loc 1 654 14 view .LVU686
 2322 009c 0AEB050B 		add	fp, r10, r5
 654:STM32Cube_FW_N6/Utilities/lcd/stm32_lcd.c ****     {
 2323              		.loc 1 654 57 view .LVU687
 2324 00a0 04EB4313 		add	r3, r4, r3, lsl #5
 654:STM32Cube_FW_N6/Utilities/lcd/stm32_lcd.c ****     {
 2325              		.loc 1 654 7 view .LVU688
 2326 00a4 9A69     		ldr	r2, [r3, #24]
 2327 00a6 9345     		cmp	fp, r2
 2328 00a8 18D2     		bcs	.L150
 656:STM32Cube_FW_N6/Utilities/lcd/stm32_lcd.c ****       {
 2329              		.loc 1 656 7 is_stmt 1 view .LVU689
 656:STM32Cube_FW_N6/Utilities/lcd/stm32_lcd.c ****       {
 2330              		.loc 1 656 9 is_stmt 0 view .LVU690
 2331 00aa 5B69     		ldr	r3, [r3, #20]
 2332 00ac 08EB0600 		add	r0, r8, r6
 2333 00b0 8342     		cmp	r3, r0
 2334 00b2 05D9     		bls	.L151
 658:STM32Cube_FW_N6/Utilities/lcd/stm32_lcd.c ****       }
 2335              		.loc 1 658 9 is_stmt 1 view .LVU691
 2336 00b4 4A46     		mov	r2, r9
 2337 00b6 1FFA8BF1 		uxth	r1, fp
 2338 00ba 80B2     		uxth	r0, r0
 2339 00bc FFF7FEFF 		bl	UTIL_LCD_SetPixel
 2340              	.LVL211:
 2341              	.L151:
 660:STM32Cube_FW_N6/Utilities/lcd/stm32_lcd.c ****       {
 2342              		.loc 1 660 7 view .LVU692
 660:STM32Cube_FW_N6/Utilities/lcd/stm32_lcd.c ****       {
 2343              		.loc 1 660 59 is_stmt 0 view .LVU693
 2344 00c0 E368     		ldr	r3, [r4, #12]
 660:STM32Cube_FW_N6/Utilities/lcd/stm32_lcd.c ****       {
 2345              		.loc 1 660 9 view .LVU694
 2346 00c2 A8EB0600 		sub	r0, r8, r6
 660:STM32Cube_FW_N6/Utilities/lcd/stm32_lcd.c ****       {
ARM GAS  C:\Users\DJESSOU\AppData\Local\Temp\ccR55SEh.s 			page 71


 2347              		.loc 1 660 59 view .LVU695
 2348 00c6 04EB4313 		add	r3, r4, r3, lsl #5
 660:STM32Cube_FW_N6/Utilities/lcd/stm32_lcd.c ****       {
 2349              		.loc 1 660 9 view .LVU696
 2350 00ca 5B69     		ldr	r3, [r3, #20]
 2351 00cc 8342     		cmp	r3, r0
 2352 00ce 05D9     		bls	.L150
 662:STM32Cube_FW_N6/Utilities/lcd/stm32_lcd.c ****       }
 2353              		.loc 1 662 9 is_stmt 1 view .LVU697
 2354 00d0 4A46     		mov	r2, r9
 2355 00d2 1FFA8BF1 		uxth	r1, fp
 2356 00d6 80B2     		uxth	r0, r0
 2357 00d8 FFF7FEFF 		bl	UTIL_LCD_SetPixel
 2358              	.LVL212:
 2359              	.L150:
 666:STM32Cube_FW_N6/Utilities/lcd/stm32_lcd.c ****     {
 2360              		.loc 1 666 5 view .LVU698
 666:STM32Cube_FW_N6/Utilities/lcd/stm32_lcd.c ****     {
 2361              		.loc 1 666 46 is_stmt 0 view .LVU699
 2362 00dc E368     		ldr	r3, [r4, #12]
 666:STM32Cube_FW_N6/Utilities/lcd/stm32_lcd.c ****     {
 2363              		.loc 1 666 7 view .LVU700
 2364 00de 0AEB060B 		add	fp, r10, r6
 666:STM32Cube_FW_N6/Utilities/lcd/stm32_lcd.c ****     {
 2365              		.loc 1 666 57 view .LVU701
 2366 00e2 04EB4313 		add	r3, r4, r3, lsl #5
 666:STM32Cube_FW_N6/Utilities/lcd/stm32_lcd.c ****     {
 2367              		.loc 1 666 7 view .LVU702
 2368 00e6 9A69     		ldr	r2, [r3, #24]
 2369 00e8 5A45     		cmp	r2, fp
 2370 00ea 18D9     		bls	.L154
 668:STM32Cube_FW_N6/Utilities/lcd/stm32_lcd.c ****       {
 2371              		.loc 1 668 7 is_stmt 1 view .LVU703
 668:STM32Cube_FW_N6/Utilities/lcd/stm32_lcd.c ****       {
 2372              		.loc 1 668 9 is_stmt 0 view .LVU704
 2373 00ec 5B69     		ldr	r3, [r3, #20]
 668:STM32Cube_FW_N6/Utilities/lcd/stm32_lcd.c ****       {
 2374              		.loc 1 668 16 view .LVU705
 2375 00ee 08EB0500 		add	r0, r8, r5
 668:STM32Cube_FW_N6/Utilities/lcd/stm32_lcd.c ****       {
 2376              		.loc 1 668 9 view .LVU706
 2377 00f2 9842     		cmp	r0, r3
 2378 00f4 05D2     		bcs	.L155
 670:STM32Cube_FW_N6/Utilities/lcd/stm32_lcd.c ****       }
 2379              		.loc 1 670 9 is_stmt 1 view .LVU707
 2380 00f6 4A46     		mov	r2, r9
 2381 00f8 1FFA8BF1 		uxth	r1, fp
 2382 00fc 80B2     		uxth	r0, r0
 2383 00fe FFF7FEFF 		bl	UTIL_LCD_SetPixel
 2384              	.LVL213:
 2385              	.L155:
 672:STM32Cube_FW_N6/Utilities/lcd/stm32_lcd.c ****       {
 2386              		.loc 1 672 7 view .LVU708
 672:STM32Cube_FW_N6/Utilities/lcd/stm32_lcd.c ****       {
 2387              		.loc 1 672 59 is_stmt 0 view .LVU709
 2388 0102 E368     		ldr	r3, [r4, #12]
 672:STM32Cube_FW_N6/Utilities/lcd/stm32_lcd.c ****       {
ARM GAS  C:\Users\DJESSOU\AppData\Local\Temp\ccR55SEh.s 			page 72


 2389              		.loc 1 672 16 view .LVU710
 2390 0104 A8EB0500 		sub	r0, r8, r5
 672:STM32Cube_FW_N6/Utilities/lcd/stm32_lcd.c ****       {
 2391              		.loc 1 672 59 view .LVU711
 2392 0108 04EB4313 		add	r3, r4, r3, lsl #5
 672:STM32Cube_FW_N6/Utilities/lcd/stm32_lcd.c ****       {
 2393              		.loc 1 672 9 view .LVU712
 2394 010c 5B69     		ldr	r3, [r3, #20]
 2395 010e 9842     		cmp	r0, r3
 2396 0110 05D2     		bcs	.L154
 674:STM32Cube_FW_N6/Utilities/lcd/stm32_lcd.c ****       }
 2397              		.loc 1 674 9 is_stmt 1 view .LVU713
 2398 0112 4A46     		mov	r2, r9
 2399 0114 1FFA8BF1 		uxth	r1, fp
 2400 0118 80B2     		uxth	r0, r0
 2401 011a FFF7FEFF 		bl	UTIL_LCD_SetPixel
 2402              	.LVL214:
 2403              	.L154:
 678:STM32Cube_FW_N6/Utilities/lcd/stm32_lcd.c ****     {
 2404              		.loc 1 678 5 view .LVU714
 678:STM32Cube_FW_N6/Utilities/lcd/stm32_lcd.c ****     {
 2405              		.loc 1 678 8 is_stmt 0 view .LVU715
 2406 011e 002F     		cmp	r7, #0
 680:STM32Cube_FW_N6/Utilities/lcd/stm32_lcd.c ****     }
 2407              		.loc 1 680 7 is_stmt 1 view .LVU716
 680:STM32Cube_FW_N6/Utilities/lcd/stm32_lcd.c ****     }
 2408              		.loc 1 680 16 is_stmt 0 view .LVU717
 2409 0120 B5BF     		itete	lt
 2410 0122 0637     		addlt	r7, r7, #6
 2411              	.LVL215:
 684:STM32Cube_FW_N6/Utilities/lcd/stm32_lcd.c ****       current_y--;
 2412              		.loc 1 684 31 view .LVU718
 2413 0124 731B     		subge	r3, r6, r5
 680:STM32Cube_FW_N6/Utilities/lcd/stm32_lcd.c ****     }
 2414              		.loc 1 680 16 view .LVU719
 2415 0126 07EB8607 		addlt	r7, r7, r6, lsl #2
 2416              	.LVL216:
 684:STM32Cube_FW_N6/Utilities/lcd/stm32_lcd.c ****       current_y--;
 2417              		.loc 1 684 7 is_stmt 1 view .LVU720
 684:STM32Cube_FW_N6/Utilities/lcd/stm32_lcd.c ****       current_y--;
 2418              		.loc 1 684 16 is_stmt 0 view .LVU721
 2419 012a 0A37     		addge	r7, r7, #10
 2420              	.LVL217:
 685:STM32Cube_FW_N6/Utilities/lcd/stm32_lcd.c ****     }
 2421              		.loc 1 685 16 view .LVU722
 2422 012c A8BF     		it	ge
 2423 012e 05F1FF35 		addge	r5, r5, #-1
 2424              	.LVL218:
 687:STM32Cube_FW_N6/Utilities/lcd/stm32_lcd.c ****   }
 2425              		.loc 1 687 14 view .LVU723
 2426 0132 06F10106 		add	r6, r6, #1
 2427              	.LVL219:
 684:STM32Cube_FW_N6/Utilities/lcd/stm32_lcd.c ****       current_y--;
 2428              		.loc 1 684 16 view .LVU724
 2429 0136 A8BF     		it	ge
 2430 0138 07EB8307 		addge	r7, r7, r3, lsl #2
 2431              	.LVL220:
ARM GAS  C:\Users\DJESSOU\AppData\Local\Temp\ccR55SEh.s 			page 73


 685:STM32Cube_FW_N6/Utilities/lcd/stm32_lcd.c ****     }
 2432              		.loc 1 685 7 is_stmt 1 view .LVU725
 687:STM32Cube_FW_N6/Utilities/lcd/stm32_lcd.c ****   }
 2433              		.loc 1 687 5 view .LVU726
 628:STM32Cube_FW_N6/Utilities/lcd/stm32_lcd.c ****   {
 2434              		.loc 1 628 20 view .LVU727
 2435 013c B542     		cmp	r5, r6
 2436 013e BFF46AAF 		bcs	.L159
 689:STM32Cube_FW_N6/Utilities/lcd/stm32_lcd.c **** 
 2437              		.loc 1 689 1 is_stmt 0 view .LVU728
 2438 0142 BDE8F88F 		pop	{r3, r4, r5, r6, r7, r8, r9, r10, fp, pc}
 2439              	.LVL221:
 2440              	.L162:
 689:STM32Cube_FW_N6/Utilities/lcd/stm32_lcd.c **** 
 2441              		.loc 1 689 1 view .LVU729
 2442 0146 00BF     		.align	2
 2443              	.L161:
 2444 0148 00000000 		.word	DrawProp
 2445              		.cfi_endproc
 2446              	.LFE21:
 2448              		.section	.text.UTIL_LCD_DrawPolygon,"ax",%progbits
 2449              		.align	1
 2450              		.global	UTIL_LCD_DrawPolygon
 2451              		.syntax unified
 2452              		.thumb
 2453              		.thumb_func
 2455              	UTIL_LCD_DrawPolygon:
 2456              	.LVL222:
 2457              	.LFB22:
 698:STM32Cube_FW_N6/Utilities/lcd/stm32_lcd.c ****   int16_t x_pos = 0, y_pos = 0;
 2458              		.loc 1 698 1 is_stmt 1 view -0
 2459              		.cfi_startproc
 2460              		@ args = 0, pretend = 0, frame = 0
 2461              		@ frame_needed = 0, uses_anonymous_args = 0
 699:STM32Cube_FW_N6/Utilities/lcd/stm32_lcd.c **** 
 2462              		.loc 1 699 3 view .LVU731
 701:STM32Cube_FW_N6/Utilities/lcd/stm32_lcd.c ****   {
 2463              		.loc 1 701 3 view .LVU732
 701:STM32Cube_FW_N6/Utilities/lcd/stm32_lcd.c ****   {
 2464              		.loc 1 701 5 is_stmt 0 view .LVU733
 2465 0000 0129     		cmp	r1, #1
 698:STM32Cube_FW_N6/Utilities/lcd/stm32_lcd.c ****   int16_t x_pos = 0, y_pos = 0;
 2466              		.loc 1 698 1 view .LVU734
 2467 0002 73B5     		push	{r0, r1, r4, r5, r6, lr}
 2468              		.cfi_def_cfa_offset 24
 2469              		.cfi_offset 4, -16
 2470              		.cfi_offset 5, -12
 2471              		.cfi_offset 6, -8
 2472              		.cfi_offset 14, -4
 698:STM32Cube_FW_N6/Utilities/lcd/stm32_lcd.c ****   int16_t x_pos = 0, y_pos = 0;
 2473              		.loc 1 698 1 view .LVU735
 2474 0004 0446     		mov	r4, r0
 2475 0006 0D46     		mov	r5, r1
 2476 0008 1646     		mov	r6, r2
 701:STM32Cube_FW_N6/Utilities/lcd/stm32_lcd.c ****   {
 2477              		.loc 1 701 5 view .LVU736
 2478 000a 1FD9     		bls	.L163
ARM GAS  C:\Users\DJESSOU\AppData\Local\Temp\ccR55SEh.s 			page 74


 706:STM32Cube_FW_N6/Utilities/lcd/stm32_lcd.c **** 
 2479              		.loc 1 706 3 is_stmt 1 view .LVU737
 706:STM32Cube_FW_N6/Utilities/lcd/stm32_lcd.c **** 
 2480              		.loc 1 706 61 is_stmt 0 view .LVU738
 2481 000c 01F18041 		add	r1, r1, #1073741824
 2482              	.LVL223:
 706:STM32Cube_FW_N6/Utilities/lcd/stm32_lcd.c **** 
 2483              		.loc 1 706 61 view .LVU739
 2484 0010 0139     		subs	r1, r1, #1
 706:STM32Cube_FW_N6/Utilities/lcd/stm32_lcd.c **** 
 2485              		.loc 1 706 3 view .LVU740
 2486 0012 0092     		str	r2, [sp]
 706:STM32Cube_FW_N6/Utilities/lcd/stm32_lcd.c **** 
 2487              		.loc 1 706 61 view .LVU741
 2488 0014 00EB8103 		add	r3, r0, r1, lsl #2
 706:STM32Cube_FW_N6/Utilities/lcd/stm32_lcd.c **** 
 2489              		.loc 1 706 3 view .LVU742
 2490 0018 30F92120 		ldrsh	r2, [r0, r1, lsl #2]
 2491              	.LVL224:
 706:STM32Cube_FW_N6/Utilities/lcd/stm32_lcd.c **** 
 2492              		.loc 1 706 3 view .LVU743
 2493 001c B3F90230 		ldrsh	r3, [r3, #2]
 2494 0020 B0F90210 		ldrsh	r1, [r0, #2]
 2495 0024 34F9040B 		ldrsh	r0, [r4], #4
 2496              	.LVL225:
 706:STM32Cube_FW_N6/Utilities/lcd/stm32_lcd.c **** 
 2497              		.loc 1 706 3 view .LVU744
 2498 0028 FFF7FEFF 		bl	UTIL_LCD_DrawLine
 2499              	.LVL226:
 708:STM32Cube_FW_N6/Utilities/lcd/stm32_lcd.c ****   {
 2500              		.loc 1 708 3 is_stmt 1 view .LVU745
 708:STM32Cube_FW_N6/Utilities/lcd/stm32_lcd.c ****   {
 2501              		.loc 1 708 9 view .LVU746
 2502 002c 013D     		subs	r5, r5, #1
 2503              	.LVL227:
 2504              	.L165:
 710:STM32Cube_FW_N6/Utilities/lcd/stm32_lcd.c ****     y_pos = Points->Y;
 2505              		.loc 1 710 5 view .LVU747
 711:STM32Cube_FW_N6/Utilities/lcd/stm32_lcd.c ****     Points++;
 2506              		.loc 1 711 5 view .LVU748
 712:STM32Cube_FW_N6/Utilities/lcd/stm32_lcd.c ****     UTIL_LCD_DrawLine(x_pos, y_pos, Points->X, Points->Y, Color);
 2507              		.loc 1 712 5 view .LVU749
 713:STM32Cube_FW_N6/Utilities/lcd/stm32_lcd.c ****   }
 2508              		.loc 1 713 5 view .LVU750
 2509 002e B4F90230 		ldrsh	r3, [r4, #2]
 2510 0032 34F9021C 		ldrsh	r1, [r4, #-2]
 2511 0036 34F9040C 		ldrsh	r0, [r4, #-4]
 2512 003a 0096     		str	r6, [sp]
 2513              	.LVL228:
 713:STM32Cube_FW_N6/Utilities/lcd/stm32_lcd.c ****   }
 2514              		.loc 1 713 5 is_stmt 0 view .LVU751
 2515 003c B4F90020 		ldrsh	r2, [r4]
 2516 0040 FFF7FEFF 		bl	UTIL_LCD_DrawLine
 2517              	.LVL229:
 708:STM32Cube_FW_N6/Utilities/lcd/stm32_lcd.c ****   {
 2518              		.loc 1 708 9 is_stmt 1 view .LVU752
 708:STM32Cube_FW_N6/Utilities/lcd/stm32_lcd.c ****   {
ARM GAS  C:\Users\DJESSOU\AppData\Local\Temp\ccR55SEh.s 			page 75


 2519              		.loc 1 708 9 is_stmt 0 view .LVU753
 2520 0044 013D     		subs	r5, r5, #1
 2521              	.LVL230:
 708:STM32Cube_FW_N6/Utilities/lcd/stm32_lcd.c ****   {
 2522              		.loc 1 708 9 view .LVU754
 2523 0046 04F10404 		add	r4, r4, #4
 2524              	.LVL231:
 708:STM32Cube_FW_N6/Utilities/lcd/stm32_lcd.c ****   {
 2525              		.loc 1 708 9 view .LVU755
 2526 004a F0D1     		bne	.L165
 2527              	.LVL232:
 2528              	.L163:
 715:STM32Cube_FW_N6/Utilities/lcd/stm32_lcd.c **** 
 2529              		.loc 1 715 1 view .LVU756
 2530 004c 02B0     		add	sp, sp, #8
 2531              		.cfi_def_cfa_offset 16
 2532              		@ sp needed
 2533 004e 70BD     		pop	{r4, r5, r6, pc}
 715:STM32Cube_FW_N6/Utilities/lcd/stm32_lcd.c **** 
 2534              		.loc 1 715 1 view .LVU757
 2535              		.cfi_endproc
 2536              	.LFE22:
 2538              		.section	.text.UTIL_LCD_DrawEllipse,"ax",%progbits
 2539              		.align	1
 2540              		.global	UTIL_LCD_DrawEllipse
 2541              		.syntax unified
 2542              		.thumb
 2543              		.thumb_func
 2545              	UTIL_LCD_DrawEllipse:
 2546              	.LVL233:
 2547              	.LFB23:
 726:STM32Cube_FW_N6/Utilities/lcd/stm32_lcd.c ****   int x_pos = 0, y_pos = -YRadius, err = 2-2*XRadius, e2;
 2548              		.loc 1 726 1 is_stmt 1 view -0
 2549              		.cfi_startproc
 2550              		@ args = 4, pretend = 0, frame = 8
 2551              		@ frame_needed = 0, uses_anonymous_args = 0
 727:STM32Cube_FW_N6/Utilities/lcd/stm32_lcd.c ****   float k = 0, rad1 = 0, rad2 = 0;
 2552              		.loc 1 727 3 view .LVU759
 731:STM32Cube_FW_N6/Utilities/lcd/stm32_lcd.c **** 
 2553              		.loc 1 731 8 is_stmt 0 view .LVU760
 2554 0000 07EE903A 		vmov	s15, r3	@ int
 2555 0004 B8EEE77A 		vcvt.f32.s32	s14, s15
 730:STM32Cube_FW_N6/Utilities/lcd/stm32_lcd.c ****   rad2 = YRadius;
 2556              		.loc 1 730 8 view .LVU761
 2557 0008 07EE902A 		vmov	s15, r2	@ int
 2558 000c F8EEE77A 		vcvt.f32.s32	s15, s15
 726:STM32Cube_FW_N6/Utilities/lcd/stm32_lcd.c ****   int x_pos = 0, y_pos = -YRadius, err = 2-2*XRadius, e2;
 2559              		.loc 1 726 1 view .LVU762
 2560 0010 2DE9F04F 		push	{r4, r5, r6, r7, r8, r9, r10, fp, lr}
 2561              		.cfi_def_cfa_offset 36
 2562              		.cfi_offset 4, -36
 2563              		.cfi_offset 5, -32
 2564              		.cfi_offset 6, -28
 2565              		.cfi_offset 7, -24
 2566              		.cfi_offset 8, -20
 2567              		.cfi_offset 9, -16
 2568              		.cfi_offset 10, -12
ARM GAS  C:\Users\DJESSOU\AppData\Local\Temp\ccR55SEh.s 			page 76


 2569              		.cfi_offset 11, -8
 2570              		.cfi_offset 14, -4
 2571 0014 2DED028B 		vpush.64	{d8}
 2572              		.cfi_def_cfa_offset 44
 2573              		.cfi_offset 80, -44
 2574              		.cfi_offset 81, -40
 727:STM32Cube_FW_N6/Utilities/lcd/stm32_lcd.c ****   float k = 0, rad1 = 0, rad2 = 0;
 2575              		.loc 1 727 7 view .LVU763
 2576 0018 4FF00008 		mov	r8, #0
 733:STM32Cube_FW_N6/Utilities/lcd/stm32_lcd.c **** 
 2577              		.loc 1 733 5 view .LVU764
 2578 001c 87EE278A 		vdiv.f32	s16, s14, s15
 726:STM32Cube_FW_N6/Utilities/lcd/stm32_lcd.c ****   int x_pos = 0, y_pos = -YRadius, err = 2-2*XRadius, e2;
 2579              		.loc 1 726 1 view .LVU765
 2580 0020 83B0     		sub	sp, sp, #12
 2581              		.cfi_def_cfa_offset 56
 727:STM32Cube_FW_N6/Utilities/lcd/stm32_lcd.c ****   float k = 0, rad1 = 0, rad2 = 0;
 2582              		.loc 1 727 43 view .LVU766
 2583 0022 C2F10105 		rsb	r5, r2, #1
 726:STM32Cube_FW_N6/Utilities/lcd/stm32_lcd.c ****   int x_pos = 0, y_pos = -YRadius, err = 2-2*XRadius, e2;
 2584              		.loc 1 726 1 view .LVU767
 2585 0026 DDF838B0 		ldr	fp, [sp, #56]
 727:STM32Cube_FW_N6/Utilities/lcd/stm32_lcd.c ****   float k = 0, rad1 = 0, rad2 = 0;
 2586              		.loc 1 727 18 view .LVU768
 2587 002a 5E42     		rsbs	r6, r3, #0
 2588              	.LVL234:
 727:STM32Cube_FW_N6/Utilities/lcd/stm32_lcd.c ****   float k = 0, rad1 = 0, rad2 = 0;
 2589              		.loc 1 727 36 view .LVU769
 2590 002c 6D00     		lsls	r5, r5, #1
 2591              	.LVL235:
 728:STM32Cube_FW_N6/Utilities/lcd/stm32_lcd.c **** 
 2592              		.loc 1 728 3 is_stmt 1 view .LVU770
 730:STM32Cube_FW_N6/Utilities/lcd/stm32_lcd.c ****   rad2 = YRadius;
 2593              		.loc 1 730 3 view .LVU771
 731:STM32Cube_FW_N6/Utilities/lcd/stm32_lcd.c **** 
 2594              		.loc 1 731 3 view .LVU772
 733:STM32Cube_FW_N6/Utilities/lcd/stm32_lcd.c **** 
 2595              		.loc 1 733 3 view .LVU773
 737:STM32Cube_FW_N6/Utilities/lcd/stm32_lcd.c ****     UTIL_LCD_SetPixel((Xpos+(uint32_t)(x_pos/k)), (Ypos + y_pos), Color);
 2596              		.loc 1 737 5 is_stmt 0 view .LVU774
 2597 002e 1FFA80F9 		uxth	r9, r0
 2598 0032 1FFA81FA 		uxth	r10, r1
 2599              	.LVL236:
 2600              	.L171:
 735:STM32Cube_FW_N6/Utilities/lcd/stm32_lcd.c ****   {
 2601              		.loc 1 735 3 is_stmt 1 view .LVU775
 737:STM32Cube_FW_N6/Utilities/lcd/stm32_lcd.c ****     UTIL_LCD_SetPixel((Xpos+(uint32_t)(x_pos/k)), (Ypos + y_pos), Color);
 2602              		.loc 1 737 5 view .LVU776
 737:STM32Cube_FW_N6/Utilities/lcd/stm32_lcd.c ****     UTIL_LCD_SetPixel((Xpos+(uint32_t)(x_pos/k)), (Ypos + y_pos), Color);
 2603              		.loc 1 737 45 is_stmt 0 view .LVU777
 2604 0036 07EE908A 		vmov	s15, r8	@ int
 2605 003a B8EEE77A 		vcvt.f32.s32	s14, s15
 2606 003e C7EE087A 		vdiv.f32	s15, s14, s16
 737:STM32Cube_FW_N6/Utilities/lcd/stm32_lcd.c ****     UTIL_LCD_SetPixel((Xpos+(uint32_t)(x_pos/k)), (Ypos + y_pos), Color);
 2607              		.loc 1 737 29 view .LVU778
 2608 0042 FCEEE77A 		vcvt.u32.f32	s15, s15
 737:STM32Cube_FW_N6/Utilities/lcd/stm32_lcd.c ****     UTIL_LCD_SetPixel((Xpos+(uint32_t)(x_pos/k)), (Ypos + y_pos), Color);
ARM GAS  C:\Users\DJESSOU\AppData\Local\Temp\ccR55SEh.s 			page 77


 2609              		.loc 1 737 5 view .LVU779
 2610 0046 17EE903A 		vmov	r3, s15	@ int
 2611 004a 9CB2     		uxth	r4, r3
 2612 004c A9EB0403 		sub	r3, r9, r4
 2613 0050 9BB2     		uxth	r3, r3
 2614 0052 B7B2     		uxth	r7, r6
 2615 0054 1AFA86F1 		uxtah	r1, r10, r6
 738:STM32Cube_FW_N6/Utilities/lcd/stm32_lcd.c ****     UTIL_LCD_SetPixel((Xpos+(uint32_t)(x_pos/k)), (Ypos - y_pos), Color);
 2616              		.loc 1 738 5 view .LVU780
 2617 0058 4C44     		add	r4, r4, r9
 737:STM32Cube_FW_N6/Utilities/lcd/stm32_lcd.c ****     UTIL_LCD_SetPixel((Xpos+(uint32_t)(x_pos/k)), (Ypos + y_pos), Color);
 2618              		.loc 1 737 5 view .LVU781
 2619 005a 1846     		mov	r0, r3
 2620 005c 89B2     		uxth	r1, r1
 2621 005e 5A46     		mov	r2, fp
 738:STM32Cube_FW_N6/Utilities/lcd/stm32_lcd.c ****     UTIL_LCD_SetPixel((Xpos+(uint32_t)(x_pos/k)), (Ypos - y_pos), Color);
 2622              		.loc 1 738 5 view .LVU782
 2623 0060 A4B2     		uxth	r4, r4
 739:STM32Cube_FW_N6/Utilities/lcd/stm32_lcd.c ****     UTIL_LCD_SetPixel((Xpos-(uint32_t)(x_pos/k)), (Ypos - y_pos), Color);
 2624              		.loc 1 739 5 view .LVU783
 2625 0062 AAEB0707 		sub	r7, r10, r7
 737:STM32Cube_FW_N6/Utilities/lcd/stm32_lcd.c ****     UTIL_LCD_SetPixel((Xpos+(uint32_t)(x_pos/k)), (Ypos + y_pos), Color);
 2626              		.loc 1 737 5 view .LVU784
 2627 0066 0093     		str	r3, [sp]
 2628 0068 0191     		str	r1, [sp, #4]
 739:STM32Cube_FW_N6/Utilities/lcd/stm32_lcd.c ****     UTIL_LCD_SetPixel((Xpos-(uint32_t)(x_pos/k)), (Ypos - y_pos), Color);
 2629              		.loc 1 739 5 view .LVU785
 2630 006a BFB2     		uxth	r7, r7
 737:STM32Cube_FW_N6/Utilities/lcd/stm32_lcd.c ****     UTIL_LCD_SetPixel((Xpos+(uint32_t)(x_pos/k)), (Ypos + y_pos), Color);
 2631              		.loc 1 737 5 view .LVU786
 2632 006c FFF7FEFF 		bl	UTIL_LCD_SetPixel
 2633              	.LVL237:
 738:STM32Cube_FW_N6/Utilities/lcd/stm32_lcd.c ****     UTIL_LCD_SetPixel((Xpos+(uint32_t)(x_pos/k)), (Ypos - y_pos), Color);
 2634              		.loc 1 738 5 is_stmt 1 view .LVU787
 2635 0070 5A46     		mov	r2, fp
 2636 0072 2046     		mov	r0, r4
 2637 0074 0199     		ldr	r1, [sp, #4]
 2638 0076 FFF7FEFF 		bl	UTIL_LCD_SetPixel
 2639              	.LVL238:
 739:STM32Cube_FW_N6/Utilities/lcd/stm32_lcd.c ****     UTIL_LCD_SetPixel((Xpos-(uint32_t)(x_pos/k)), (Ypos - y_pos), Color);
 2640              		.loc 1 739 5 view .LVU788
 2641 007a 5A46     		mov	r2, fp
 2642 007c 3946     		mov	r1, r7
 2643 007e 2046     		mov	r0, r4
 2644 0080 FFF7FEFF 		bl	UTIL_LCD_SetPixel
 2645              	.LVL239:
 740:STM32Cube_FW_N6/Utilities/lcd/stm32_lcd.c **** 
 2646              		.loc 1 740 5 view .LVU789
 2647 0084 009B     		ldr	r3, [sp]
 2648 0086 5A46     		mov	r2, fp
 2649 0088 3946     		mov	r1, r7
 2650 008a 1846     		mov	r0, r3
 2651 008c FFF7FEFF 		bl	UTIL_LCD_SetPixel
 2652              	.LVL240:
 742:STM32Cube_FW_N6/Utilities/lcd/stm32_lcd.c ****     if (e2 <= x_pos)
 2653              		.loc 1 742 5 view .LVU790
 743:STM32Cube_FW_N6/Utilities/lcd/stm32_lcd.c ****     {
ARM GAS  C:\Users\DJESSOU\AppData\Local\Temp\ccR55SEh.s 			page 78


 2654              		.loc 1 743 5 view .LVU791
 743:STM32Cube_FW_N6/Utilities/lcd/stm32_lcd.c ****     {
 2655              		.loc 1 743 8 is_stmt 0 view .LVU792
 2656 0090 A845     		cmp	r8, r5
 2657 0092 18DB     		blt	.L172
 745:STM32Cube_FW_N6/Utilities/lcd/stm32_lcd.c ****       if (-y_pos == x_pos && e2 <= y_pos) e2 = 0;
 2658              		.loc 1 745 7 is_stmt 1 view .LVU793
 745:STM32Cube_FW_N6/Utilities/lcd/stm32_lcd.c ****       if (-y_pos == x_pos && e2 <= y_pos) e2 = 0;
 2659              		.loc 1 745 23 is_stmt 0 view .LVU794
 2660 0094 08F10108 		add	r8, r8, #1
 2661              	.LVL241:
 745:STM32Cube_FW_N6/Utilities/lcd/stm32_lcd.c ****       if (-y_pos == x_pos && e2 <= y_pos) e2 = 0;
 2662              		.loc 1 745 23 view .LVU795
 2663 0098 05EB4803 		add	r3, r5, r8, lsl #1
 746:STM32Cube_FW_N6/Utilities/lcd/stm32_lcd.c ****     }
 2664              		.loc 1 746 10 view .LVU796
 2665 009c 18EB060F 		cmn	r8, r6
 745:STM32Cube_FW_N6/Utilities/lcd/stm32_lcd.c ****       if (-y_pos == x_pos && e2 <= y_pos) e2 = 0;
 2666              		.loc 1 745 11 view .LVU797
 2667 00a0 03F10103 		add	r3, r3, #1
 2668              	.LVL242:
 746:STM32Cube_FW_N6/Utilities/lcd/stm32_lcd.c ****     }
 2669              		.loc 1 746 7 is_stmt 1 view .LVU798
 746:STM32Cube_FW_N6/Utilities/lcd/stm32_lcd.c ****     }
 2670              		.loc 1 746 10 is_stmt 0 view .LVU799
 2671 00a4 02D1     		bne	.L168
 746:STM32Cube_FW_N6/Utilities/lcd/stm32_lcd.c ****     }
 2672              		.loc 1 746 27 discriminator 1 view .LVU800
 2673 00a6 AE42     		cmp	r6, r5
 2674 00a8 02DB     		blt	.L169
 746:STM32Cube_FW_N6/Utilities/lcd/stm32_lcd.c ****     }
 2675              		.loc 1 746 46 discriminator 2 view .LVU801
 2676 00aa 0025     		movs	r5, #0
 2677              	.LVL243:
 2678              	.L168:
 748:STM32Cube_FW_N6/Utilities/lcd/stm32_lcd.c ****     {
 2679              		.loc 1 748 5 is_stmt 1 view .LVU802
 748:STM32Cube_FW_N6/Utilities/lcd/stm32_lcd.c ****     {
 2680              		.loc 1 748 8 is_stmt 0 view .LVU803
 2681 00ac AE42     		cmp	r6, r5
 2682 00ae 0CDA     		bge	.L173
 2683              	.L169:
 2684              	.LVL244:
 750:STM32Cube_FW_N6/Utilities/lcd/stm32_lcd.c ****     }
 2685              		.loc 1 750 7 is_stmt 1 view .LVU804
 750:STM32Cube_FW_N6/Utilities/lcd/stm32_lcd.c ****     }
 2686              		.loc 1 750 23 is_stmt 0 view .LVU805
 2687 00b0 0136     		adds	r6, r6, #1
 2688              	.LVL245:
 750:STM32Cube_FW_N6/Utilities/lcd/stm32_lcd.c ****     }
 2689              		.loc 1 750 23 view .LVU806
 2690 00b2 03EB4603 		add	r3, r3, r6, lsl #1
 750:STM32Cube_FW_N6/Utilities/lcd/stm32_lcd.c ****     }
 2691              		.loc 1 750 11 view .LVU807
 2692 00b6 5D1C     		adds	r5, r3, #1
 2693              	.LVL246:
 2694              	.L170:
ARM GAS  C:\Users\DJESSOU\AppData\Local\Temp\ccR55SEh.s 			page 79


 752:STM32Cube_FW_N6/Utilities/lcd/stm32_lcd.c **** }
 2695              		.loc 1 752 17 is_stmt 1 view .LVU808
 2696 00b8 002E     		cmp	r6, #0
 2697 00ba BCDD     		ble	.L171
 753:STM32Cube_FW_N6/Utilities/lcd/stm32_lcd.c **** 
 2698              		.loc 1 753 1 is_stmt 0 view .LVU809
 2699 00bc 03B0     		add	sp, sp, #12
 2700              		.cfi_remember_state
 2701              		.cfi_def_cfa_offset 44
 2702              		@ sp needed
 2703 00be BDEC028B 		vldm	sp!, {d8}
 2704              		.cfi_restore 80
 2705              		.cfi_restore 81
 2706              		.cfi_def_cfa_offset 36
 2707              	.LVL247:
 753:STM32Cube_FW_N6/Utilities/lcd/stm32_lcd.c **** 
 2708              		.loc 1 753 1 view .LVU810
 2709 00c2 BDE8F08F 		pop	{r4, r5, r6, r7, r8, r9, r10, fp, pc}
 2710              	.LVL248:
 2711              	.L172:
 2712              		.cfi_restore_state
 753:STM32Cube_FW_N6/Utilities/lcd/stm32_lcd.c **** 
 2713              		.loc 1 753 1 view .LVU811
 2714 00c6 2B46     		mov	r3, r5
 2715 00c8 F0E7     		b	.L168
 2716              	.LVL249:
 2717              	.L173:
 753:STM32Cube_FW_N6/Utilities/lcd/stm32_lcd.c **** 
 2718              		.loc 1 753 1 view .LVU812
 2719 00ca 1D46     		mov	r5, r3
 2720              	.LVL250:
 753:STM32Cube_FW_N6/Utilities/lcd/stm32_lcd.c **** 
 2721              		.loc 1 753 1 view .LVU813
 2722 00cc F4E7     		b	.L170
 2723              		.cfi_endproc
 2724              	.LFE23:
 2726              		.section	.text.UTIL_LCD_DrawBitmap,"ax",%progbits
 2727              		.align	1
 2728              		.global	UTIL_LCD_DrawBitmap
 2729              		.syntax unified
 2730              		.thumb
 2731              		.thumb_func
 2733              	UTIL_LCD_DrawBitmap:
 2734              	.LVL251:
 2735              	.LFB24:
 762:STM32Cube_FW_N6/Utilities/lcd/stm32_lcd.c ****   FuncDriver.DrawBitmap(DrawProp->LcdDevice, Xpos, Ypos, pData);
 2736              		.loc 1 762 1 is_stmt 1 view -0
 2737              		.cfi_startproc
 2738              		@ args = 0, pretend = 0, frame = 0
 2739              		@ frame_needed = 0, uses_anonymous_args = 0
 2740              		@ link register save eliminated.
 763:STM32Cube_FW_N6/Utilities/lcd/stm32_lcd.c **** }
 2741              		.loc 1 763 3 view .LVU815
 762:STM32Cube_FW_N6/Utilities/lcd/stm32_lcd.c ****   FuncDriver.DrawBitmap(DrawProp->LcdDevice, Xpos, Ypos, pData);
 2742              		.loc 1 762 1 is_stmt 0 view .LVU816
 2743 0000 1346     		mov	r3, r2
 763:STM32Cube_FW_N6/Utilities/lcd/stm32_lcd.c **** }
ARM GAS  C:\Users\DJESSOU\AppData\Local\Temp\ccR55SEh.s 			page 80


 2744              		.loc 1 763 13 view .LVU817
 2745 0002 054A     		ldr	r2, .L176
 2746              	.LVL252:
 762:STM32Cube_FW_N6/Utilities/lcd/stm32_lcd.c ****   FuncDriver.DrawBitmap(DrawProp->LcdDevice, Xpos, Ypos, pData);
 2747              		.loc 1 762 1 view .LVU818
 2748 0004 10B4     		push	{r4}
 2749              		.cfi_def_cfa_offset 4
 2750              		.cfi_offset 4, -4
 763:STM32Cube_FW_N6/Utilities/lcd/stm32_lcd.c **** }
 2751              		.loc 1 763 3 view .LVU819
 2752 0006 1468     		ldr	r4, [r2]
 2753 0008 0A46     		mov	r2, r1
 2754 000a 0146     		mov	r1, r0
 2755              	.LVL253:
 763:STM32Cube_FW_N6/Utilities/lcd/stm32_lcd.c **** }
 2756              		.loc 1 763 3 view .LVU820
 2757 000c 0348     		ldr	r0, .L176+4
 2758              	.LVL254:
 763:STM32Cube_FW_N6/Utilities/lcd/stm32_lcd.c **** }
 2759              		.loc 1 763 3 view .LVU821
 2760 000e A446     		mov	ip, r4
 2761 0010 0069     		ldr	r0, [r0, #16]
 764:STM32Cube_FW_N6/Utilities/lcd/stm32_lcd.c **** 
 2762              		.loc 1 764 1 view .LVU822
 2763 0012 5DF8044B 		ldr	r4, [sp], #4
 2764              		.cfi_restore 4
 2765              		.cfi_def_cfa_offset 0
 763:STM32Cube_FW_N6/Utilities/lcd/stm32_lcd.c **** }
 2766              		.loc 1 763 3 view .LVU823
 2767 0016 6047     		bx	ip
 2768              	.LVL255:
 2769              	.L177:
 763:STM32Cube_FW_N6/Utilities/lcd/stm32_lcd.c **** }
 2770              		.loc 1 763 3 view .LVU824
 2771              		.align	2
 2772              	.L176:
 2773 0018 00000000 		.word	FuncDriver
 2774 001c 00000000 		.word	DrawProp
 2775              		.cfi_endproc
 2776              	.LFE24:
 2778              		.section	.text.UTIL_LCD_FillRect,"ax",%progbits
 2779              		.align	1
 2780              		.global	UTIL_LCD_FillRect
 2781              		.syntax unified
 2782              		.thumb
 2783              		.thumb_func
 2785              	UTIL_LCD_FillRect:
 2786              	.LVL256:
 2787              	.LFB25:
 775:STM32Cube_FW_N6/Utilities/lcd/stm32_lcd.c ****   /* Fill the rectangle */
 2788              		.loc 1 775 1 is_stmt 1 view -0
 2789              		.cfi_startproc
 2790              		@ args = 4, pretend = 0, frame = 0
 2791              		@ frame_needed = 0, uses_anonymous_args = 0
 777:STM32Cube_FW_N6/Utilities/lcd/stm32_lcd.c ****   {
 2792              		.loc 1 777 3 view .LVU826
 775:STM32Cube_FW_N6/Utilities/lcd/stm32_lcd.c ****   /* Fill the rectangle */
ARM GAS  C:\Users\DJESSOU\AppData\Local\Temp\ccR55SEh.s 			page 81


 2793              		.loc 1 775 1 is_stmt 0 view .LVU827
 2794 0000 F7B5     		push	{r0, r1, r2, r4, r5, r6, r7, lr}
 2795              		.cfi_def_cfa_offset 32
 2796              		.cfi_offset 4, -20
 2797              		.cfi_offset 5, -16
 2798              		.cfi_offset 6, -12
 2799              		.cfi_offset 7, -8
 2800              		.cfi_offset 14, -4
 775:STM32Cube_FW_N6/Utilities/lcd/stm32_lcd.c ****   /* Fill the rectangle */
 2801              		.loc 1 775 1 view .LVU828
 2802 0002 0746     		mov	r7, r0
 777:STM32Cube_FW_N6/Utilities/lcd/stm32_lcd.c ****   {
 2803              		.loc 1 777 34 view .LVU829
 2804 0004 1A48     		ldr	r0, .L184
 2805              	.LVL257:
 779:STM32Cube_FW_N6/Utilities/lcd/stm32_lcd.c ****   }
 2806              		.loc 1 779 15 view .LVU830
 2807 0006 1B4E     		ldr	r6, .L184+4
 777:STM32Cube_FW_N6/Utilities/lcd/stm32_lcd.c ****   {
 2808              		.loc 1 777 34 view .LVU831
 2809 0008 C568     		ldr	r5, [r0, #12]
 775:STM32Cube_FW_N6/Utilities/lcd/stm32_lcd.c ****   /* Fill the rectangle */
 2810              		.loc 1 775 1 view .LVU832
 2811 000a 089C     		ldr	r4, [sp, #32]
 777:STM32Cube_FW_N6/Utilities/lcd/stm32_lcd.c ****   {
 2812              		.loc 1 777 34 view .LVU833
 2813 000c 00EB4515 		add	r5, r0, r5, lsl #5
 2814 0010 ED69     		ldr	r5, [r5, #28]
 779:STM32Cube_FW_N6/Utilities/lcd/stm32_lcd.c ****   }
 2815              		.loc 1 779 15 view .LVU834
 2816 0012 3669     		ldr	r6, [r6, #16]
 777:STM32Cube_FW_N6/Utilities/lcd/stm32_lcd.c ****   {
 2817              		.loc 1 777 5 view .LVU835
 2818 0014 022D     		cmp	r5, #2
 779:STM32Cube_FW_N6/Utilities/lcd/stm32_lcd.c ****   }
 2819              		.loc 1 779 5 view .LVU836
 2820 0016 0069     		ldr	r0, [r0, #16]
 777:STM32Cube_FW_N6/Utilities/lcd/stm32_lcd.c ****   {
 2821              		.loc 1 777 5 view .LVU837
 2822 0018 0CD1     		bne	.L179
 779:STM32Cube_FW_N6/Utilities/lcd/stm32_lcd.c ****   }
 2823              		.loc 1 779 5 is_stmt 1 view .LVU838
 779:STM32Cube_FW_N6/Utilities/lcd/stm32_lcd.c ****   }
 2824              		.loc 1 779 73 is_stmt 0 view .LVU839
 2825 001a 6509     		lsrs	r5, r4, #5
 2826 001c 4FEA142C 		lsr	ip, r4, #8
 2827 0020 05F4FC65 		and	r5, r5, #2016
 2828 0024 0CF4784C 		and	ip, ip, #63488
 779:STM32Cube_FW_N6/Utilities/lcd/stm32_lcd.c ****   }
 2829              		.loc 1 779 5 view .LVU840
 2830 0028 45EA0C05 		orr	r5, r5, ip
 779:STM32Cube_FW_N6/Utilities/lcd/stm32_lcd.c ****   }
 2831              		.loc 1 779 73 view .LVU841
 2832 002c C4F3C404 		ubfx	r4, r4, #3, #5
 2833              	.L183:
 787:STM32Cube_FW_N6/Utilities/lcd/stm32_lcd.c ****   }
 2834              		.loc 1 787 5 view .LVU842
ARM GAS  C:\Users\DJESSOU\AppData\Local\Temp\ccR55SEh.s 			page 82


 2835 0030 2C43     		orrs	r4, r4, r5
 2836 0032 03E0     		b	.L182
 2837              	.L179:
 781:STM32Cube_FW_N6/Utilities/lcd/stm32_lcd.c ****   {
 2838              		.loc 1 781 8 is_stmt 1 view .LVU843
 781:STM32Cube_FW_N6/Utilities/lcd/stm32_lcd.c ****   {
 2839              		.loc 1 781 10 is_stmt 0 view .LVU844
 2840 0034 012D     		cmp	r5, #1
 2841 0036 09D1     		bne	.L181
 783:STM32Cube_FW_N6/Utilities/lcd/stm32_lcd.c ****   }
 2842              		.loc 1 783 5 is_stmt 1 view .LVU845
 2843 0038 24F07F44 		bic	r4, r4, #-16777216
 2844              	.L182:
 791:STM32Cube_FW_N6/Utilities/lcd/stm32_lcd.c ****   }
 2845              		.loc 1 791 5 view .LVU846
 2846 003c CDE90034 		strd	r3, r4, [sp]
 2847 0040 1346     		mov	r3, r2
 2848              	.LVL258:
 791:STM32Cube_FW_N6/Utilities/lcd/stm32_lcd.c ****   }
 2849              		.loc 1 791 5 is_stmt 0 view .LVU847
 2850 0042 0A46     		mov	r2, r1
 2851              	.LVL259:
 791:STM32Cube_FW_N6/Utilities/lcd/stm32_lcd.c ****   }
 2852              		.loc 1 791 5 view .LVU848
 2853 0044 3946     		mov	r1, r7
 2854              	.LVL260:
 791:STM32Cube_FW_N6/Utilities/lcd/stm32_lcd.c ****   }
 2855              		.loc 1 791 5 view .LVU849
 2856 0046 B047     		blx	r6
 2857              	.LVL261:
 793:STM32Cube_FW_N6/Utilities/lcd/stm32_lcd.c **** 
 2858              		.loc 1 793 1 view .LVU850
 2859 0048 03B0     		add	sp, sp, #12
 2860              		.cfi_remember_state
 2861              		.cfi_def_cfa_offset 20
 2862              		@ sp needed
 2863 004a F0BD     		pop	{r4, r5, r6, r7, pc}
 2864              	.LVL262:
 2865              	.L181:
 2866              		.cfi_restore_state
 785:STM32Cube_FW_N6/Utilities/lcd/stm32_lcd.c ****   {
 2867              		.loc 1 785 8 is_stmt 1 view .LVU851
 785:STM32Cube_FW_N6/Utilities/lcd/stm32_lcd.c ****   {
 2868              		.loc 1 785 10 is_stmt 0 view .LVU852
 2869 004c 042D     		cmp	r5, #4
 2870 004e F5D1     		bne	.L182
 787:STM32Cube_FW_N6/Utilities/lcd/stm32_lcd.c ****   }
 2871              		.loc 1 787 5 is_stmt 1 view .LVU853
 787:STM32Cube_FW_N6/Utilities/lcd/stm32_lcd.c ****   }
 2872              		.loc 1 787 73 is_stmt 0 view .LVU854
 2873 0050 4FEA147C 		lsr	ip, r4, #28
 2874 0054 C4F30315 		ubfx	r5, r4, #4, #4
 787:STM32Cube_FW_N6/Utilities/lcd/stm32_lcd.c ****   }
 2875              		.loc 1 787 5 view .LVU855
 2876 0058 45EA0C35 		orr	r5, r5, ip, lsl #12
 787:STM32Cube_FW_N6/Utilities/lcd/stm32_lcd.c ****   }
 2877              		.loc 1 787 73 view .LVU856
ARM GAS  C:\Users\DJESSOU\AppData\Local\Temp\ccR55SEh.s 			page 83


 2878 005c 4FEA142C 		lsr	ip, r4, #8
 2879 0060 0CF0F00C 		and	ip, ip, #240
 2880 0064 240B     		lsrs	r4, r4, #12
 787:STM32Cube_FW_N6/Utilities/lcd/stm32_lcd.c ****   }
 2881              		.loc 1 787 5 view .LVU857
 2882 0066 45EA0C05 		orr	r5, r5, ip
 787:STM32Cube_FW_N6/Utilities/lcd/stm32_lcd.c ****   }
 2883              		.loc 1 787 73 view .LVU858
 2884 006a 04F47064 		and	r4, r4, #3840
 2885 006e DFE7     		b	.L183
 2886              	.L185:
 2887              		.align	2
 2888              	.L184:
 2889 0070 00000000 		.word	DrawProp
 2890 0074 00000000 		.word	FuncDriver
 2891              		.cfi_endproc
 2892              	.LFE25:
 2894              		.section	.text.UTIL_LCD_Clear,"ax",%progbits
 2895              		.align	1
 2896              		.global	UTIL_LCD_Clear
 2897              		.syntax unified
 2898              		.thumb
 2899              		.thumb_func
 2901              	UTIL_LCD_Clear:
 2902              	.LVL263:
 2903              	.LFB14:
 408:STM32Cube_FW_N6/Utilities/lcd/stm32_lcd.c ****   /* Clear the LCD */
 2904              		.loc 1 408 1 is_stmt 1 view -0
 2905              		.cfi_startproc
 2906              		@ args = 0, pretend = 0, frame = 0
 2907              		@ frame_needed = 0, uses_anonymous_args = 0
 410:STM32Cube_FW_N6/Utilities/lcd/stm32_lcd.c **** }
 2908              		.loc 1 410 3 view .LVU860
 408:STM32Cube_FW_N6/Utilities/lcd/stm32_lcd.c ****   /* Clear the LCD */
 2909              		.loc 1 408 1 is_stmt 0 view .LVU861
 2910 0000 07B5     		push	{r0, r1, r2, lr}
 2911              		.cfi_def_cfa_offset 16
 2912              		.cfi_offset 14, -4
 410:STM32Cube_FW_N6/Utilities/lcd/stm32_lcd.c **** }
 2913              		.loc 1 410 3 view .LVU862
 2914 0002 0021     		movs	r1, #0
 410:STM32Cube_FW_N6/Utilities/lcd/stm32_lcd.c **** }
 2915              		.loc 1 410 44 view .LVU863
 2916 0004 064A     		ldr	r2, .L187
 2917 0006 D368     		ldr	r3, [r2, #12]
 410:STM32Cube_FW_N6/Utilities/lcd/stm32_lcd.c **** }
 2918              		.loc 1 410 3 view .LVU864
 2919 0008 0090     		str	r0, [sp]
 2920 000a 02EB4312 		add	r2, r2, r3, lsl #5
 2921 000e 0846     		mov	r0, r1
 2922              	.LVL264:
 410:STM32Cube_FW_N6/Utilities/lcd/stm32_lcd.c **** }
 2923              		.loc 1 410 3 view .LVU865
 2924 0010 D2E90523 		ldrd	r2, r3, [r2, #20]
 2925 0014 FFF7FEFF 		bl	UTIL_LCD_FillRect
 2926              	.LVL265:
 411:STM32Cube_FW_N6/Utilities/lcd/stm32_lcd.c **** 
ARM GAS  C:\Users\DJESSOU\AppData\Local\Temp\ccR55SEh.s 			page 84


 2927              		.loc 1 411 1 view .LVU866
 2928 0018 03B0     		add	sp, sp, #12
 2929              		.cfi_def_cfa_offset 4
 2930              		@ sp needed
 2931 001a 5DF804FB 		ldr	pc, [sp], #4
 2932              	.L188:
 2933 001e 00BF     		.align	2
 2934              	.L187:
 2935 0020 00000000 		.word	DrawProp
 2936              		.cfi_endproc
 2937              	.LFE14:
 2939              		.section	.text.UTIL_LCD_ClearStringLine,"ax",%progbits
 2940              		.align	1
 2941              		.global	UTIL_LCD_ClearStringLine
 2942              		.syntax unified
 2943              		.thumb
 2944              		.thumb_func
 2946              	UTIL_LCD_ClearStringLine:
 2947              	.LVL266:
 2948              	.LFB15:
 418:STM32Cube_FW_N6/Utilities/lcd/stm32_lcd.c ****   /* Draw rectangle with background color */
 2949              		.loc 1 418 1 is_stmt 1 view -0
 2950              		.cfi_startproc
 2951              		@ args = 0, pretend = 0, frame = 0
 2952              		@ frame_needed = 0, uses_anonymous_args = 0
 420:STM32Cube_FW_N6/Utilities/lcd/stm32_lcd.c **** }
 2953              		.loc 1 420 3 view .LVU868
 418:STM32Cube_FW_N6/Utilities/lcd/stm32_lcd.c ****   /* Draw rectangle with background color */
 2954              		.loc 1 418 1 is_stmt 0 view .LVU869
 2955 0000 07B5     		push	{r0, r1, r2, lr}
 2956              		.cfi_def_cfa_offset 16
 2957              		.cfi_offset 14, -4
 420:STM32Cube_FW_N6/Utilities/lcd/stm32_lcd.c **** }
 2958              		.loc 1 420 49 view .LVU870
 2959 0002 084A     		ldr	r2, .L190
 2960 0004 D368     		ldr	r3, [r2, #12]
 420:STM32Cube_FW_N6/Utilities/lcd/stm32_lcd.c **** }
 2961              		.loc 1 420 60 view .LVU871
 2962 0006 02EB4312 		add	r2, r2, r3, lsl #5
 420:STM32Cube_FW_N6/Utilities/lcd/stm32_lcd.c **** }
 2963              		.loc 1 420 66 view .LVU872
 2964 000a 9368     		ldr	r3, [r2, #8]
 420:STM32Cube_FW_N6/Utilities/lcd/stm32_lcd.c **** }
 2965              		.loc 1 420 3 view .LVU873
 2966 000c 5168     		ldr	r1, [r2, #4]
 420:STM32Cube_FW_N6/Utilities/lcd/stm32_lcd.c **** }
 2967              		.loc 1 420 66 view .LVU874
 2968 000e DB88     		ldrh	r3, [r3, #6]
 420:STM32Cube_FW_N6/Utilities/lcd/stm32_lcd.c **** }
 2969              		.loc 1 420 3 view .LVU875
 2970 0010 0091     		str	r1, [sp]
 2971 0012 5269     		ldr	r2, [r2, #20]
 2972 0014 00FB03F1 		mul	r1, r0, r3
 2973 0018 0020     		movs	r0, #0
 2974              	.LVL267:
 420:STM32Cube_FW_N6/Utilities/lcd/stm32_lcd.c **** }
 2975              		.loc 1 420 3 view .LVU876
ARM GAS  C:\Users\DJESSOU\AppData\Local\Temp\ccR55SEh.s 			page 85


 2976 001a FFF7FEFF 		bl	UTIL_LCD_FillRect
 2977              	.LVL268:
 421:STM32Cube_FW_N6/Utilities/lcd/stm32_lcd.c **** 
 2978              		.loc 1 421 1 view .LVU877
 2979 001e 03B0     		add	sp, sp, #12
 2980              		.cfi_def_cfa_offset 4
 2981              		@ sp needed
 2982 0020 5DF804FB 		ldr	pc, [sp], #4
 2983              	.L191:
 2984              		.align	2
 2985              	.L190:
 2986 0024 00000000 		.word	DrawProp
 2987              		.cfi_endproc
 2988              	.LFE15:
 2990              		.section	.text.UTIL_LCD_FillCircle,"ax",%progbits
 2991              		.align	1
 2992              		.global	UTIL_LCD_FillCircle
 2993              		.syntax unified
 2994              		.thumb
 2995              		.thumb_func
 2997              	UTIL_LCD_FillCircle:
 2998              	.LVL269:
 2999              	.LFB26:
 803:STM32Cube_FW_N6/Utilities/lcd/stm32_lcd.c ****   int32_t   decision;  /* Decision Variable */
 3000              		.loc 1 803 1 is_stmt 1 view -0
 3001              		.cfi_startproc
 3002              		@ args = 0, pretend = 0, frame = 8
 3003              		@ frame_needed = 0, uses_anonymous_args = 0
 804:STM32Cube_FW_N6/Utilities/lcd/stm32_lcd.c ****   uint32_t  current_x; /* Current X Value */
 3004              		.loc 1 804 3 view .LVU879
 805:STM32Cube_FW_N6/Utilities/lcd/stm32_lcd.c ****   uint32_t  current_y; /* Current Y Value */
 3005              		.loc 1 805 3 view .LVU880
 806:STM32Cube_FW_N6/Utilities/lcd/stm32_lcd.c **** 
 3006              		.loc 1 806 3 view .LVU881
 808:STM32Cube_FW_N6/Utilities/lcd/stm32_lcd.c **** 
 3007              		.loc 1 808 3 view .LVU882
 803:STM32Cube_FW_N6/Utilities/lcd/stm32_lcd.c ****   int32_t   decision;  /* Decision Variable */
 3008              		.loc 1 803 1 is_stmt 0 view .LVU883
 3009 0000 2DE9F74F 		push	{r0, r1, r2, r4, r5, r6, r7, r8, r9, r10, fp, lr}
 3010              		.cfi_def_cfa_offset 48
 3011              		.cfi_offset 4, -36
 3012              		.cfi_offset 5, -32
 3013              		.cfi_offset 6, -28
 3014              		.cfi_offset 7, -24
 3015              		.cfi_offset 8, -20
 3016              		.cfi_offset 9, -16
 3017              		.cfi_offset 10, -12
 3018              		.cfi_offset 11, -8
 3019              		.cfi_offset 14, -4
 803:STM32Cube_FW_N6/Utilities/lcd/stm32_lcd.c ****   int32_t   decision;  /* Decision Variable */
 3020              		.loc 1 803 1 view .LVU884
 3021 0004 8046     		mov	r8, r0
 3022 0006 8946     		mov	r9, r1
 3023 0008 9246     		mov	r10, r2
 3024 000a 1D46     		mov	r5, r3
 811:STM32Cube_FW_N6/Utilities/lcd/stm32_lcd.c **** 
 3025              		.loc 1 811 13 view .LVU885
ARM GAS  C:\Users\DJESSOU\AppData\Local\Temp\ccR55SEh.s 			page 86


 3026 000c 1646     		mov	r6, r2
 810:STM32Cube_FW_N6/Utilities/lcd/stm32_lcd.c ****   current_y = Radius;
 3027              		.loc 1 810 13 view .LVU886
 3028 000e 0024     		movs	r4, #0
 808:STM32Cube_FW_N6/Utilities/lcd/stm32_lcd.c **** 
 3029              		.loc 1 808 26 view .LVU887
 3030 0010 5700     		lsls	r7, r2, #1
 808:STM32Cube_FW_N6/Utilities/lcd/stm32_lcd.c **** 
 3031              		.loc 1 808 16 view .LVU888
 3032 0012 C7F10307 		rsb	r7, r7, #3
 3033              	.LVL270:
 810:STM32Cube_FW_N6/Utilities/lcd/stm32_lcd.c ****   current_y = Radius;
 3034              		.loc 1 810 3 is_stmt 1 view .LVU889
 811:STM32Cube_FW_N6/Utilities/lcd/stm32_lcd.c **** 
 3035              		.loc 1 811 3 view .LVU890
 813:STM32Cube_FW_N6/Utilities/lcd/stm32_lcd.c ****   {
 3036              		.loc 1 813 3 view .LVU891
 813:STM32Cube_FW_N6/Utilities/lcd/stm32_lcd.c ****   {
 3037              		.loc 1 813 20 view .LVU892
 3038              	.L199:
 815:STM32Cube_FW_N6/Utilities/lcd/stm32_lcd.c ****     {
 3039              		.loc 1 815 5 view .LVU893
 815:STM32Cube_FW_N6/Utilities/lcd/stm32_lcd.c ****     {
 3040              		.loc 1 815 7 is_stmt 0 view .LVU894
 3041 0016 96B1     		cbz	r6, .L193
 817:STM32Cube_FW_N6/Utilities/lcd/stm32_lcd.c ****       {
 3042              		.loc 1 817 7 is_stmt 1 view .LVU895
 817:STM32Cube_FW_N6/Utilities/lcd/stm32_lcd.c ****       {
 3043              		.loc 1 817 9 is_stmt 0 view .LVU896
 3044 0018 B045     		cmp	r8, r6
 819:STM32Cube_FW_N6/Utilities/lcd/stm32_lcd.c ****         UTIL_LCD_DrawHLine(0, Ypos - current_x, 2*current_y - (current_y - Xpos), Color);
 3045              		.loc 1 819 9 view .LVU897
 3046 001a 09EB0401 		add	r1, r9, r4
 820:STM32Cube_FW_N6/Utilities/lcd/stm32_lcd.c ****       }
 3047              		.loc 1 820 9 view .LVU898
 3048 001e A9EB040B 		sub	fp, r9, r4
 817:STM32Cube_FW_N6/Utilities/lcd/stm32_lcd.c ****       {
 3049              		.loc 1 817 9 view .LVU899
 3050 0022 3AD8     		bhi	.L194
 819:STM32Cube_FW_N6/Utilities/lcd/stm32_lcd.c ****         UTIL_LCD_DrawHLine(0, Ypos - current_x, 2*current_y - (current_y - Xpos), Color);
 3051              		.loc 1 819 9 is_stmt 1 view .LVU900
 3052 0024 08EB0602 		add	r2, r8, r6
 3053 0028 2B46     		mov	r3, r5
 3054 002a 0020     		movs	r0, #0
 3055 002c 0092     		str	r2, [sp]
 3056 002e FFF7FEFF 		bl	UTIL_LCD_DrawHLine
 3057              	.LVL271:
 820:STM32Cube_FW_N6/Utilities/lcd/stm32_lcd.c ****       }
 3058              		.loc 1 820 9 view .LVU901
 3059 0032 2B46     		mov	r3, r5
 3060 0034 5946     		mov	r1, fp
 3061 0036 0020     		movs	r0, #0
 3062 0038 009A     		ldr	r2, [sp]
 3063              	.LVL272:
 3064              	.L207:
 825:STM32Cube_FW_N6/Utilities/lcd/stm32_lcd.c ****       }
 3065              		.loc 1 825 9 is_stmt 0 view .LVU902
ARM GAS  C:\Users\DJESSOU\AppData\Local\Temp\ccR55SEh.s 			page 87


 3066 003a FFF7FEFF 		bl	UTIL_LCD_DrawHLine
 3067              	.LVL273:
 3068              	.L193:
 829:STM32Cube_FW_N6/Utilities/lcd/stm32_lcd.c ****     {
 3069              		.loc 1 829 5 is_stmt 1 view .LVU903
 829:STM32Cube_FW_N6/Utilities/lcd/stm32_lcd.c ****     {
 3070              		.loc 1 829 7 is_stmt 0 view .LVU904
 3071 003e 94B1     		cbz	r4, .L195
 831:STM32Cube_FW_N6/Utilities/lcd/stm32_lcd.c ****       {
 3072              		.loc 1 831 7 is_stmt 1 view .LVU905
 831:STM32Cube_FW_N6/Utilities/lcd/stm32_lcd.c ****       {
 3073              		.loc 1 831 9 is_stmt 0 view .LVU906
 3074 0040 A045     		cmp	r8, r4
 833:STM32Cube_FW_N6/Utilities/lcd/stm32_lcd.c ****         UTIL_LCD_DrawHLine(0, Ypos + current_y, 2*current_x - (current_x - Xpos), Color);
 3075              		.loc 1 833 9 view .LVU907
 3076 0042 A9EB0601 		sub	r1, r9, r6
 834:STM32Cube_FW_N6/Utilities/lcd/stm32_lcd.c ****       }
 3077              		.loc 1 834 9 view .LVU908
 3078 0046 09EB060B 		add	fp, r9, r6
 831:STM32Cube_FW_N6/Utilities/lcd/stm32_lcd.c ****       {
 3079              		.loc 1 831 9 view .LVU909
 3080 004a 33D8     		bhi	.L196
 833:STM32Cube_FW_N6/Utilities/lcd/stm32_lcd.c ****         UTIL_LCD_DrawHLine(0, Ypos + current_y, 2*current_x - (current_x - Xpos), Color);
 3081              		.loc 1 833 9 is_stmt 1 view .LVU910
 3082 004c 08EB0402 		add	r2, r8, r4
 3083 0050 2B46     		mov	r3, r5
 3084 0052 0020     		movs	r0, #0
 3085 0054 0092     		str	r2, [sp]
 3086 0056 FFF7FEFF 		bl	UTIL_LCD_DrawHLine
 3087              	.LVL274:
 834:STM32Cube_FW_N6/Utilities/lcd/stm32_lcd.c ****       }
 3088              		.loc 1 834 9 view .LVU911
 3089 005a 2B46     		mov	r3, r5
 3090 005c 5946     		mov	r1, fp
 3091 005e 0020     		movs	r0, #0
 3092 0060 009A     		ldr	r2, [sp]
 3093              	.LVL275:
 3094              	.L208:
 839:STM32Cube_FW_N6/Utilities/lcd/stm32_lcd.c ****       }
 3095              		.loc 1 839 9 is_stmt 0 view .LVU912
 3096 0062 FFF7FEFF 		bl	UTIL_LCD_DrawHLine
 3097              	.LVL276:
 3098              	.L195:
 842:STM32Cube_FW_N6/Utilities/lcd/stm32_lcd.c ****     {
 3099              		.loc 1 842 5 is_stmt 1 view .LVU913
 842:STM32Cube_FW_N6/Utilities/lcd/stm32_lcd.c ****     {
 3100              		.loc 1 842 8 is_stmt 0 view .LVU914
 3101 0066 002F     		cmp	r7, #0
 844:STM32Cube_FW_N6/Utilities/lcd/stm32_lcd.c ****     }
 3102              		.loc 1 844 7 is_stmt 1 view .LVU915
 844:STM32Cube_FW_N6/Utilities/lcd/stm32_lcd.c ****     }
 3103              		.loc 1 844 16 is_stmt 0 view .LVU916
 3104 0068 B5BF     		itete	lt
 3105 006a 0637     		addlt	r7, r7, #6
 3106              	.LVL277:
 848:STM32Cube_FW_N6/Utilities/lcd/stm32_lcd.c ****       current_y--;
 3107              		.loc 1 848 31 view .LVU917
ARM GAS  C:\Users\DJESSOU\AppData\Local\Temp\ccR55SEh.s 			page 88


 3108 006c A31B     		subge	r3, r4, r6
 844:STM32Cube_FW_N6/Utilities/lcd/stm32_lcd.c ****     }
 3109              		.loc 1 844 16 view .LVU918
 3110 006e 07EB8407 		addlt	r7, r7, r4, lsl #2
 3111              	.LVL278:
 848:STM32Cube_FW_N6/Utilities/lcd/stm32_lcd.c ****       current_y--;
 3112              		.loc 1 848 7 is_stmt 1 view .LVU919
 848:STM32Cube_FW_N6/Utilities/lcd/stm32_lcd.c ****       current_y--;
 3113              		.loc 1 848 16 is_stmt 0 view .LVU920
 3114 0072 0A37     		addge	r7, r7, #10
 3115              	.LVL279:
 849:STM32Cube_FW_N6/Utilities/lcd/stm32_lcd.c ****     }
 3116              		.loc 1 849 16 view .LVU921
 3117 0074 A8BF     		it	ge
 3118 0076 06F1FF36 		addge	r6, r6, #-1
 3119              	.LVL280:
 851:STM32Cube_FW_N6/Utilities/lcd/stm32_lcd.c ****   }
 3120              		.loc 1 851 14 view .LVU922
 3121 007a 04F10104 		add	r4, r4, #1
 3122              	.LVL281:
 848:STM32Cube_FW_N6/Utilities/lcd/stm32_lcd.c ****       current_y--;
 3123              		.loc 1 848 16 view .LVU923
 3124 007e A8BF     		it	ge
 3125 0080 07EB8307 		addge	r7, r7, r3, lsl #2
 3126              	.LVL282:
 849:STM32Cube_FW_N6/Utilities/lcd/stm32_lcd.c ****     }
 3127              		.loc 1 849 7 is_stmt 1 view .LVU924
 851:STM32Cube_FW_N6/Utilities/lcd/stm32_lcd.c ****   }
 3128              		.loc 1 851 5 view .LVU925
 813:STM32Cube_FW_N6/Utilities/lcd/stm32_lcd.c ****   {
 3129              		.loc 1 813 20 view .LVU926
 3130 0084 A642     		cmp	r6, r4
 3131 0086 C6D2     		bcs	.L199
 854:STM32Cube_FW_N6/Utilities/lcd/stm32_lcd.c **** }
 3132              		.loc 1 854 3 view .LVU927
 3133 0088 2B46     		mov	r3, r5
 3134 008a 5246     		mov	r2, r10
 3135 008c 4946     		mov	r1, r9
 3136 008e 4046     		mov	r0, r8
 855:STM32Cube_FW_N6/Utilities/lcd/stm32_lcd.c **** 
 3137              		.loc 1 855 1 is_stmt 0 view .LVU928
 3138 0090 03B0     		add	sp, sp, #12
 3139              		.cfi_remember_state
 3140              		.cfi_def_cfa_offset 36
 3141              		@ sp needed
 3142 0092 BDE8F04F 		pop	{r4, r5, r6, r7, r8, r9, r10, fp, lr}
 3143              		.cfi_restore 14
 3144              		.cfi_restore 11
 3145              		.cfi_restore 10
 3146              		.cfi_restore 9
 3147              		.cfi_restore 8
 3148              		.cfi_restore 7
 3149              		.cfi_restore 6
 3150              		.cfi_restore 5
 3151              		.cfi_restore 4
 3152              		.cfi_def_cfa_offset 0
 3153              	.LVL283:
ARM GAS  C:\Users\DJESSOU\AppData\Local\Temp\ccR55SEh.s 			page 89


 854:STM32Cube_FW_N6/Utilities/lcd/stm32_lcd.c **** }
 3154              		.loc 1 854 3 view .LVU929
 3155 0096 FFF7FEBF 		b	UTIL_LCD_DrawCircle
 3156              	.LVL284:
 3157              	.L194:
 3158              		.cfi_restore_state
 819:STM32Cube_FW_N6/Utilities/lcd/stm32_lcd.c ****         UTIL_LCD_DrawHLine(0, Ypos - current_x, 2*current_y - (current_y - Xpos), Color);
 3159              		.loc 1 819 50 view .LVU930
 3160 009a 7200     		lsls	r2, r6, #1
 824:STM32Cube_FW_N6/Utilities/lcd/stm32_lcd.c ****         UTIL_LCD_DrawHLine(Xpos - current_y, Ypos - current_x, 2*current_y, Color);
 3161              		.loc 1 824 9 is_stmt 1 view .LVU931
 3162 009c A8EB0600 		sub	r0, r8, r6
 3163 00a0 2B46     		mov	r3, r5
 3164 00a2 CDE90002 		strd	r0, r2, [sp]
 3165 00a6 FFF7FEFF 		bl	UTIL_LCD_DrawHLine
 3166              	.LVL285:
 825:STM32Cube_FW_N6/Utilities/lcd/stm32_lcd.c ****       }
 3167              		.loc 1 825 9 view .LVU932
 3168 00aa 2B46     		mov	r3, r5
 3169 00ac 5946     		mov	r1, fp
 3170 00ae 019A     		ldr	r2, [sp, #4]
 3171 00b0 0098     		ldr	r0, [sp]
 3172 00b2 C2E7     		b	.L207
 3173              	.L196:
 825:STM32Cube_FW_N6/Utilities/lcd/stm32_lcd.c ****       }
 3174              		.loc 1 825 9 is_stmt 0 view .LVU933
 3175 00b4 6200     		lsls	r2, r4, #1
 838:STM32Cube_FW_N6/Utilities/lcd/stm32_lcd.c ****         UTIL_LCD_DrawHLine(Xpos - current_x, Ypos + current_y, 2*current_x, Color);
 3176              		.loc 1 838 9 is_stmt 1 view .LVU934
 3177 00b6 A8EB0400 		sub	r0, r8, r4
 3178 00ba 2B46     		mov	r3, r5
 3179 00bc CDE90002 		strd	r0, r2, [sp]
 3180 00c0 FFF7FEFF 		bl	UTIL_LCD_DrawHLine
 3181              	.LVL286:
 839:STM32Cube_FW_N6/Utilities/lcd/stm32_lcd.c ****       }
 3182              		.loc 1 839 9 view .LVU935
 3183 00c4 2B46     		mov	r3, r5
 3184 00c6 5946     		mov	r1, fp
 3185 00c8 019A     		ldr	r2, [sp, #4]
 3186 00ca 0098     		ldr	r0, [sp]
 3187 00cc C9E7     		b	.L208
 3188              		.cfi_endproc
 3189              	.LFE26:
 3191              		.section	.text.UTIL_LCD_FillPolygon,"ax",%progbits
 3192              		.align	1
 3193              		.global	UTIL_LCD_FillPolygon
 3194              		.syntax unified
 3195              		.thumb
 3196              		.thumb_func
 3198              	UTIL_LCD_FillPolygon:
 3199              	.LVL287:
 3200              	.LFB27:
 864:STM32Cube_FW_N6/Utilities/lcd/stm32_lcd.c ****   int16_t X = 0, Y = 0, X2 = 0, Y2 = 0, x_center = 0, y_center = 0, x_first = 0, y_first = 0, pixel
 3201              		.loc 1 864 1 view -0
 3202              		.cfi_startproc
 3203              		@ args = 0, pretend = 0, frame = 40
 3204              		@ frame_needed = 0, uses_anonymous_args = 0
ARM GAS  C:\Users\DJESSOU\AppData\Local\Temp\ccR55SEh.s 			page 90


 865:STM32Cube_FW_N6/Utilities/lcd/stm32_lcd.c ****   uint32_t  image_left = 0, image_right = 0, image_top = 0, image_bottom = 0;
 3205              		.loc 1 865 3 view .LVU937
 866:STM32Cube_FW_N6/Utilities/lcd/stm32_lcd.c ****   Triangle_Positions_t positions;
 3206              		.loc 1 866 3 view .LVU938
 867:STM32Cube_FW_N6/Utilities/lcd/stm32_lcd.c **** 
 3207              		.loc 1 867 3 view .LVU939
 869:STM32Cube_FW_N6/Utilities/lcd/stm32_lcd.c ****   image_top= image_bottom = Points->Y;
 3208              		.loc 1 869 3 view .LVU940
 864:STM32Cube_FW_N6/Utilities/lcd/stm32_lcd.c ****   int16_t X = 0, Y = 0, X2 = 0, Y2 = 0, x_center = 0, y_center = 0, x_first = 0, y_first = 0, pixel
 3209              		.loc 1 864 1 is_stmt 0 view .LVU941
 3210 0000 2DE9F04F 		push	{r4, r5, r6, r7, r8, r9, r10, fp, lr}
 3211              		.cfi_def_cfa_offset 36
 3212              		.cfi_offset 4, -36
 3213              		.cfi_offset 5, -32
 3214              		.cfi_offset 6, -28
 3215              		.cfi_offset 7, -24
 3216              		.cfi_offset 8, -20
 3217              		.cfi_offset 9, -16
 3218              		.cfi_offset 10, -12
 3219              		.cfi_offset 11, -8
 3220              		.cfi_offset 14, -4
 869:STM32Cube_FW_N6/Utilities/lcd/stm32_lcd.c ****   image_top= image_bottom = Points->Y;
 3221              		.loc 1 869 28 view .LVU942
 3222 0004 B0F900B0 		ldrsh	fp, [r0]
 3223              	.LVL288:
 870:STM32Cube_FW_N6/Utilities/lcd/stm32_lcd.c **** 
 3224              		.loc 1 870 3 is_stmt 1 view .LVU943
 870:STM32Cube_FW_N6/Utilities/lcd/stm32_lcd.c **** 
 3225              		.loc 1 870 27 is_stmt 0 view .LVU944
 3226 0008 B0F902A0 		ldrsh	r10, [r0, #2]
 3227              	.LVL289:
 872:STM32Cube_FW_N6/Utilities/lcd/stm32_lcd.c ****   {
 3228              		.loc 1 872 3 is_stmt 1 view .LVU945
 864:STM32Cube_FW_N6/Utilities/lcd/stm32_lcd.c ****   int16_t X = 0, Y = 0, X2 = 0, Y2 = 0, x_center = 0, y_center = 0, x_first = 0, y_first = 0, pixel
 3229              		.loc 1 864 1 is_stmt 0 view .LVU946
 3230 000c 1746     		mov	r7, r2
 870:STM32Cube_FW_N6/Utilities/lcd/stm32_lcd.c **** 
 3231              		.loc 1 870 12 view .LVU947
 3232 000e 5546     		mov	r5, r10
 870:STM32Cube_FW_N6/Utilities/lcd/stm32_lcd.c **** 
 3233              		.loc 1 870 27 view .LVU948
 3234 0010 5246     		mov	r2, r10
 3235              	.LVL290:
 869:STM32Cube_FW_N6/Utilities/lcd/stm32_lcd.c ****   image_top= image_bottom = Points->Y;
 3236              		.loc 1 869 28 view .LVU949
 3237 0012 5C46     		mov	r4, fp
 869:STM32Cube_FW_N6/Utilities/lcd/stm32_lcd.c ****   image_top= image_bottom = Points->Y;
 3238              		.loc 1 869 14 view .LVU950
 3239 0014 5E46     		mov	r6, fp
 872:STM32Cube_FW_N6/Utilities/lcd/stm32_lcd.c ****   {
 3240              		.loc 1 872 15 view .LVU951
 3241 0016 0123     		movs	r3, #1
 864:STM32Cube_FW_N6/Utilities/lcd/stm32_lcd.c ****   int16_t X = 0, Y = 0, X2 = 0, Y2 = 0, x_center = 0, y_center = 0, x_first = 0, y_first = 0, pixel
 3242              		.loc 1 864 1 view .LVU952
 3243 0018 8BB0     		sub	sp, sp, #44
 3244              		.cfi_def_cfa_offset 80
 3245              	.LVL291:
ARM GAS  C:\Users\DJESSOU\AppData\Local\Temp\ccR55SEh.s 			page 91


 3246              	.L210:
 872:STM32Cube_FW_N6/Utilities/lcd/stm32_lcd.c ****   {
 3247              		.loc 1 872 28 is_stmt 1 discriminator 1 view .LVU953
 3248 001a 8B42     		cmp	r3, r1
 3249 001c 54D3     		bcc	.L211
 895:STM32Cube_FW_N6/Utilities/lcd/stm32_lcd.c ****   {
 3250              		.loc 1 895 3 view .LVU954
 895:STM32Cube_FW_N6/Utilities/lcd/stm32_lcd.c ****   {
 3251              		.loc 1 895 5 is_stmt 0 view .LVU955
 3252 001e 0129     		cmp	r1, #1
 3253 0020 4FD9     		bls	.L209
 900:STM32Cube_FW_N6/Utilities/lcd/stm32_lcd.c ****   y_center = (image_bottom + image_top)/2;
 3254              		.loc 1 900 3 is_stmt 1 view .LVU956
 900:STM32Cube_FW_N6/Utilities/lcd/stm32_lcd.c ****   y_center = (image_bottom + image_top)/2;
 3255              		.loc 1 900 26 is_stmt 0 view .LVU957
 3256 0022 2644     		add	r6, r6, r4
 3257              	.LVL292:
 901:STM32Cube_FW_N6/Utilities/lcd/stm32_lcd.c **** 
 3258              		.loc 1 901 28 view .LVU958
 3259 0024 1544     		add	r5, r5, r2
 3260              	.LVL293:
 906:STM32Cube_FW_N6/Utilities/lcd/stm32_lcd.c ****   {
 3261              		.loc 1 906 9 view .LVU959
 3262 0026 4B1E     		subs	r3, r1, #1
 3263              	.LVL294:
 900:STM32Cube_FW_N6/Utilities/lcd/stm32_lcd.c ****   y_center = (image_bottom + image_top)/2;
 3264              		.loc 1 900 12 view .LVU960
 3265 0028 46F34F06 		sbfx	r6, r6, #1, #16
 3266              	.LVL295:
 901:STM32Cube_FW_N6/Utilities/lcd/stm32_lcd.c **** 
 3267              		.loc 1 901 3 is_stmt 1 view .LVU961
 901:STM32Cube_FW_N6/Utilities/lcd/stm32_lcd.c **** 
 3268              		.loc 1 901 12 is_stmt 0 view .LVU962
 3269 002c 45F34F05 		sbfx	r5, r5, #1, #16
 3270              	.LVL296:
 903:STM32Cube_FW_N6/Utilities/lcd/stm32_lcd.c ****   y_first = Points->Y;
 3271              		.loc 1 903 3 is_stmt 1 view .LVU963
 904:STM32Cube_FW_N6/Utilities/lcd/stm32_lcd.c **** 
 3272              		.loc 1 904 3 view .LVU964
 906:STM32Cube_FW_N6/Utilities/lcd/stm32_lcd.c ****   {
 3273              		.loc 1 906 3 view .LVU965
 906:STM32Cube_FW_N6/Utilities/lcd/stm32_lcd.c ****   {
 3274              		.loc 1 906 9 view .LVU966
 3275 0030 0193     		str	r3, [sp, #4]
 3276              	.LVL297:
 906:STM32Cube_FW_N6/Utilities/lcd/stm32_lcd.c ****   {
 3277              		.loc 1 906 9 is_stmt 0 view .LVU967
 3278 0032 041D     		adds	r4, r0, #4
 3279              	.LVL298:
 3280              	.L213:
 908:STM32Cube_FW_N6/Utilities/lcd/stm32_lcd.c ****     Y = Points->Y;
 3281              		.loc 1 908 5 is_stmt 1 view .LVU968
 909:STM32Cube_FW_N6/Utilities/lcd/stm32_lcd.c ****     Points++;
 3282              		.loc 1 909 5 view .LVU969
 909:STM32Cube_FW_N6/Utilities/lcd/stm32_lcd.c ****     Points++;
 3283              		.loc 1 909 7 is_stmt 0 view .LVU970
 3284 0034 34F9023C 		ldrsh	r3, [r4, #-2]
ARM GAS  C:\Users\DJESSOU\AppData\Local\Temp\ccR55SEh.s 			page 92


 3285              	.LVL299:
 910:STM32Cube_FW_N6/Utilities/lcd/stm32_lcd.c ****     X2 = Points->X;
 3286              		.loc 1 910 5 is_stmt 1 view .LVU971
 911:STM32Cube_FW_N6/Utilities/lcd/stm32_lcd.c ****     Y2 = Points->Y;
 3287              		.loc 1 911 5 view .LVU972
 911:STM32Cube_FW_N6/Utilities/lcd/stm32_lcd.c ****     Y2 = Points->Y;
 3288              		.loc 1 911 8 is_stmt 0 view .LVU973
 3289 0038 B4F90090 		ldrsh	r9, [r4]
 3290              	.LVL300:
 912:STM32Cube_FW_N6/Utilities/lcd/stm32_lcd.c ****     positions.x1 = X;
 3291              		.loc 1 912 5 is_stmt 1 view .LVU974
 912:STM32Cube_FW_N6/Utilities/lcd/stm32_lcd.c ****     positions.x1 = X;
 3292              		.loc 1 912 8 is_stmt 0 view .LVU975
 3293 003c B4F90280 		ldrsh	r8, [r4, #2]
 3294              	.LVL301:
 913:STM32Cube_FW_N6/Utilities/lcd/stm32_lcd.c ****     positions.y1 = Y;
 3295              		.loc 1 913 5 is_stmt 1 view .LVU976
 913:STM32Cube_FW_N6/Utilities/lcd/stm32_lcd.c ****     positions.y1 = Y;
 3296              		.loc 1 913 18 is_stmt 0 view .LVU977
 3297 0040 34F9042C 		ldrsh	r2, [r4, #-4]
 919:STM32Cube_FW_N6/Utilities/lcd/stm32_lcd.c **** 
 3298              		.loc 1 919 5 view .LVU978
 3299 0044 3946     		mov	r1, r7
 3300 0046 04A8     		add	r0, sp, #16
 913:STM32Cube_FW_N6/Utilities/lcd/stm32_lcd.c ****     positions.y1 = Y;
 3301              		.loc 1 913 18 view .LVU979
 3302 0048 CDE90322 		strd	r2, r2, [sp, #12]
 914:STM32Cube_FW_N6/Utilities/lcd/stm32_lcd.c ****     positions.x2 = X2;
 3303              		.loc 1 914 5 is_stmt 1 view .LVU980
 914:STM32Cube_FW_N6/Utilities/lcd/stm32_lcd.c ****     positions.x2 = X2;
 3304              		.loc 1 914 18 is_stmt 0 view .LVU981
 3305 004c 0593     		str	r3, [sp, #20]
 3306 004e 0293     		str	r3, [sp, #8]
 915:STM32Cube_FW_N6/Utilities/lcd/stm32_lcd.c ****     positions.y2 = Y2;
 3307              		.loc 1 915 5 is_stmt 1 view .LVU982
 916:STM32Cube_FW_N6/Utilities/lcd/stm32_lcd.c ****     positions.x3 = x_center;
 3308              		.loc 1 916 18 is_stmt 0 view .LVU983
 3309 0050 CDE90698 		strd	r9, r8, [sp, #24]
 917:STM32Cube_FW_N6/Utilities/lcd/stm32_lcd.c ****     positions.y3 = y_center;
 3310              		.loc 1 917 5 is_stmt 1 view .LVU984
 918:STM32Cube_FW_N6/Utilities/lcd/stm32_lcd.c ****     FillTriangle(&positions, Color);
 3311              		.loc 1 918 18 is_stmt 0 view .LVU985
 3312 0054 CDE90865 		strd	r6, r5, [sp, #32]
 919:STM32Cube_FW_N6/Utilities/lcd/stm32_lcd.c **** 
 3313              		.loc 1 919 5 is_stmt 1 view .LVU986
 3314 0058 FFF7FEFF 		bl	FillTriangle
 3315              	.LVL302:
 921:STM32Cube_FW_N6/Utilities/lcd/stm32_lcd.c ****     positions.y2 = y_center;
 3316              		.loc 1 921 5 view .LVU987
 925:STM32Cube_FW_N6/Utilities/lcd/stm32_lcd.c **** 
 3317              		.loc 1 925 5 is_stmt 0 view .LVU988
 3318 005c 3946     		mov	r1, r7
 3319 005e 04A8     		add	r0, sp, #16
 922:STM32Cube_FW_N6/Utilities/lcd/stm32_lcd.c ****     positions.x3 = X2;
 3320              		.loc 1 922 18 view .LVU989
 3321 0060 CDE90665 		strd	r6, r5, [sp, #24]
 923:STM32Cube_FW_N6/Utilities/lcd/stm32_lcd.c ****     positions.y3 = Y2;
ARM GAS  C:\Users\DJESSOU\AppData\Local\Temp\ccR55SEh.s 			page 93


 3322              		.loc 1 923 5 is_stmt 1 view .LVU990
 924:STM32Cube_FW_N6/Utilities/lcd/stm32_lcd.c ****     FillTriangle(&positions, Color);
 3323              		.loc 1 924 18 is_stmt 0 view .LVU991
 3324 0064 CDE90898 		strd	r9, r8, [sp, #32]
 925:STM32Cube_FW_N6/Utilities/lcd/stm32_lcd.c **** 
 3325              		.loc 1 925 5 is_stmt 1 view .LVU992
 3326 0068 FFF7FEFF 		bl	FillTriangle
 3327              	.LVL303:
 927:STM32Cube_FW_N6/Utilities/lcd/stm32_lcd.c ****     positions.y1 = y_center;
 3328              		.loc 1 927 5 view .LVU993
 932:STM32Cube_FW_N6/Utilities/lcd/stm32_lcd.c ****     FillTriangle(&positions, Color);
 3329              		.loc 1 932 18 is_stmt 0 view .LVU994
 3330 006c 029B     		ldr	r3, [sp, #8]
 931:STM32Cube_FW_N6/Utilities/lcd/stm32_lcd.c ****     positions.y3 = Y;
 3331              		.loc 1 931 18 view .LVU995
 3332 006e 039A     		ldr	r2, [sp, #12]
 933:STM32Cube_FW_N6/Utilities/lcd/stm32_lcd.c ****   }
 3333              		.loc 1 933 5 view .LVU996
 3334 0070 3946     		mov	r1, r7
 3335 0072 04A8     		add	r0, sp, #16
 932:STM32Cube_FW_N6/Utilities/lcd/stm32_lcd.c ****     FillTriangle(&positions, Color);
 3336              		.loc 1 932 18 view .LVU997
 3337 0074 0993     		str	r3, [sp, #36]
 928:STM32Cube_FW_N6/Utilities/lcd/stm32_lcd.c ****     positions.x2 = X2;
 3338              		.loc 1 928 18 view .LVU998
 3339 0076 CDE90465 		strd	r6, r5, [sp, #16]
 929:STM32Cube_FW_N6/Utilities/lcd/stm32_lcd.c ****     positions.y2 = Y2;
 3340              		.loc 1 929 5 is_stmt 1 view .LVU999
 930:STM32Cube_FW_N6/Utilities/lcd/stm32_lcd.c ****     positions.x3 = X;
 3341              		.loc 1 930 18 is_stmt 0 view .LVU1000
 3342 007a CDE90698 		strd	r9, r8, [sp, #24]
 931:STM32Cube_FW_N6/Utilities/lcd/stm32_lcd.c ****     positions.y3 = Y;
 3343              		.loc 1 931 5 is_stmt 1 view .LVU1001
 931:STM32Cube_FW_N6/Utilities/lcd/stm32_lcd.c ****     positions.y3 = Y;
 3344              		.loc 1 931 18 is_stmt 0 view .LVU1002
 3345 007e 0892     		str	r2, [sp, #32]
 932:STM32Cube_FW_N6/Utilities/lcd/stm32_lcd.c ****     FillTriangle(&positions, Color);
 3346              		.loc 1 932 5 is_stmt 1 view .LVU1003
 933:STM32Cube_FW_N6/Utilities/lcd/stm32_lcd.c ****   }
 3347              		.loc 1 933 5 view .LVU1004
 3348 0080 FFF7FEFF 		bl	FillTriangle
 3349              	.LVL304:
 906:STM32Cube_FW_N6/Utilities/lcd/stm32_lcd.c ****   {
 3350              		.loc 1 906 9 view .LVU1005
 906:STM32Cube_FW_N6/Utilities/lcd/stm32_lcd.c ****   {
 3351              		.loc 1 906 9 is_stmt 0 view .LVU1006
 3352 0084 019B     		ldr	r3, [sp, #4]
 3353 0086 0434     		adds	r4, r4, #4
 3354              	.LVL305:
 906:STM32Cube_FW_N6/Utilities/lcd/stm32_lcd.c ****   {
 3355              		.loc 1 906 9 view .LVU1007
 3356 0088 013B     		subs	r3, r3, #1
 3357              	.LVL306:
 906:STM32Cube_FW_N6/Utilities/lcd/stm32_lcd.c ****   {
 3358              		.loc 1 906 9 view .LVU1008
 3359 008a 0193     		str	r3, [sp, #4]
 3360 008c D2D1     		bne	.L213
ARM GAS  C:\Users\DJESSOU\AppData\Local\Temp\ccR55SEh.s 			page 94


 936:STM32Cube_FW_N6/Utilities/lcd/stm32_lcd.c ****     positions.y1 = y_first;
 3361              		.loc 1 936 5 is_stmt 1 view .LVU1009
 942:STM32Cube_FW_N6/Utilities/lcd/stm32_lcd.c **** 
 3362              		.loc 1 942 5 is_stmt 0 view .LVU1010
 3363 008e 3946     		mov	r1, r7
 3364 0090 04A8     		add	r0, sp, #16
 937:STM32Cube_FW_N6/Utilities/lcd/stm32_lcd.c ****     positions.x2 = X2;
 3365              		.loc 1 937 18 view .LVU1011
 3366 0092 CDE904BA 		strd	fp, r10, [sp, #16]
 938:STM32Cube_FW_N6/Utilities/lcd/stm32_lcd.c ****     positions.y2 = Y2;
 3367              		.loc 1 938 5 is_stmt 1 view .LVU1012
 939:STM32Cube_FW_N6/Utilities/lcd/stm32_lcd.c ****     positions.x3 = x_center;
 3368              		.loc 1 939 5 view .LVU1013
 940:STM32Cube_FW_N6/Utilities/lcd/stm32_lcd.c ****     positions.y3 = y_center;
 3369              		.loc 1 940 5 view .LVU1014
 941:STM32Cube_FW_N6/Utilities/lcd/stm32_lcd.c ****     FillTriangle(&positions, Color);
 3370              		.loc 1 941 18 is_stmt 0 view .LVU1015
 3371 0096 CDE90865 		strd	r6, r5, [sp, #32]
 942:STM32Cube_FW_N6/Utilities/lcd/stm32_lcd.c **** 
 3372              		.loc 1 942 5 is_stmt 1 view .LVU1016
 3373 009a FFF7FEFF 		bl	FillTriangle
 3374              	.LVL307:
 944:STM32Cube_FW_N6/Utilities/lcd/stm32_lcd.c ****     positions.y2 = y_center;
 3375              		.loc 1 944 5 view .LVU1017
 948:STM32Cube_FW_N6/Utilities/lcd/stm32_lcd.c **** 
 3376              		.loc 1 948 5 is_stmt 0 view .LVU1018
 3377 009e 3946     		mov	r1, r7
 3378 00a0 04A8     		add	r0, sp, #16
 945:STM32Cube_FW_N6/Utilities/lcd/stm32_lcd.c ****     positions.x3 = X2;
 3379              		.loc 1 945 18 view .LVU1019
 3380 00a2 CDE90665 		strd	r6, r5, [sp, #24]
 946:STM32Cube_FW_N6/Utilities/lcd/stm32_lcd.c ****     positions.y3 = Y2;
 3381              		.loc 1 946 5 is_stmt 1 view .LVU1020
 947:STM32Cube_FW_N6/Utilities/lcd/stm32_lcd.c ****     FillTriangle(&positions, Color);
 3382              		.loc 1 947 18 is_stmt 0 view .LVU1021
 3383 00a6 CDE90898 		strd	r9, r8, [sp, #32]
 948:STM32Cube_FW_N6/Utilities/lcd/stm32_lcd.c **** 
 3384              		.loc 1 948 5 is_stmt 1 view .LVU1022
 3385 00aa FFF7FEFF 		bl	FillTriangle
 3386              	.LVL308:
 950:STM32Cube_FW_N6/Utilities/lcd/stm32_lcd.c ****     positions.y1 = y_center;
 3387              		.loc 1 950 5 view .LVU1023
 956:STM32Cube_FW_N6/Utilities/lcd/stm32_lcd.c **** }
 3388              		.loc 1 956 5 is_stmt 0 view .LVU1024
 3389 00ae 3946     		mov	r1, r7
 3390 00b0 04A8     		add	r0, sp, #16
 951:STM32Cube_FW_N6/Utilities/lcd/stm32_lcd.c ****     positions.x2 = X2;
 3391              		.loc 1 951 18 view .LVU1025
 3392 00b2 CDE90465 		strd	r6, r5, [sp, #16]
 952:STM32Cube_FW_N6/Utilities/lcd/stm32_lcd.c ****     positions.y2 = Y2;
 3393              		.loc 1 952 5 is_stmt 1 view .LVU1026
 953:STM32Cube_FW_N6/Utilities/lcd/stm32_lcd.c ****     positions.x3 = x_first;
 3394              		.loc 1 953 18 is_stmt 0 view .LVU1027
 3395 00b6 CDE90698 		strd	r9, r8, [sp, #24]
 954:STM32Cube_FW_N6/Utilities/lcd/stm32_lcd.c ****     positions.y3 = y_first;
 3396              		.loc 1 954 5 is_stmt 1 view .LVU1028
 955:STM32Cube_FW_N6/Utilities/lcd/stm32_lcd.c ****     FillTriangle(&positions, Color);
ARM GAS  C:\Users\DJESSOU\AppData\Local\Temp\ccR55SEh.s 			page 95


 3397              		.loc 1 955 18 is_stmt 0 view .LVU1029
 3398 00ba CDE908BA 		strd	fp, r10, [sp, #32]
 956:STM32Cube_FW_N6/Utilities/lcd/stm32_lcd.c **** }
 3399              		.loc 1 956 5 is_stmt 1 view .LVU1030
 3400 00be FFF7FEFF 		bl	FillTriangle
 3401              	.LVL309:
 3402              	.L209:
 957:STM32Cube_FW_N6/Utilities/lcd/stm32_lcd.c **** 
 3403              		.loc 1 957 1 is_stmt 0 view .LVU1031
 3404 00c2 0BB0     		add	sp, sp, #44
 3405              		.cfi_remember_state
 3406              		.cfi_def_cfa_offset 36
 3407              		@ sp needed
 3408 00c4 BDE8F08F 		pop	{r4, r5, r6, r7, r8, r9, r10, fp, pc}
 3409              	.LVL310:
 3410              	.L211:
 3411              		.cfi_restore_state
 874:STM32Cube_FW_N6/Utilities/lcd/stm32_lcd.c ****     if(pixel_x < image_left)
 3412              		.loc 1 874 5 is_stmt 1 view .LVU1032
 875:STM32Cube_FW_N6/Utilities/lcd/stm32_lcd.c ****     {
 3413              		.loc 1 875 16 is_stmt 0 view .LVU1033
 3414 00c8 30F923C0 		ldrsh	ip, [r0, r3, lsl #2]
 874:STM32Cube_FW_N6/Utilities/lcd/stm32_lcd.c ****     if(pixel_x < image_left)
 3415              		.loc 1 874 15 view .LVU1034
 3416 00cc 00EB830E 		add	lr, r0, r3, lsl #2
 3417              	.LVL311:
 875:STM32Cube_FW_N6/Utilities/lcd/stm32_lcd.c ****     {
 3418              		.loc 1 875 5 is_stmt 1 view .LVU1035
 875:STM32Cube_FW_N6/Utilities/lcd/stm32_lcd.c ****     {
 3419              		.loc 1 875 7 is_stmt 0 view .LVU1036
 3420 00d0 6645     		cmp	r6, ip
 3421 00d2 28BF     		it	cs
 3422 00d4 6646     		movcs	r6, ip
 3423              	.LVL312:
 879:STM32Cube_FW_N6/Utilities/lcd/stm32_lcd.c ****     {
 3424              		.loc 1 879 5 is_stmt 1 view .LVU1037
 879:STM32Cube_FW_N6/Utilities/lcd/stm32_lcd.c ****     {
 3425              		.loc 1 879 7 is_stmt 0 view .LVU1038
 3426 00d6 6445     		cmp	r4, ip
 3427 00d8 38BF     		it	cc
 3428 00da 6446     		movcc	r4, ip
 3429              	.LVL313:
 884:STM32Cube_FW_N6/Utilities/lcd/stm32_lcd.c ****     if(pixel_y < image_top)
 3430              		.loc 1 884 5 is_stmt 1 view .LVU1039
 885:STM32Cube_FW_N6/Utilities/lcd/stm32_lcd.c ****     {
 3431              		.loc 1 885 5 view .LVU1040
 885:STM32Cube_FW_N6/Utilities/lcd/stm32_lcd.c ****     {
 3432              		.loc 1 885 16 is_stmt 0 view .LVU1041
 3433 00dc BEF902C0 		ldrsh	ip, [lr, #2]
 3434 00e0 0133     		adds	r3, r3, #1
 3435              	.LVL314:
 885:STM32Cube_FW_N6/Utilities/lcd/stm32_lcd.c ****     {
 3436              		.loc 1 885 7 view .LVU1042
 3437 00e2 6545     		cmp	r5, ip
 3438 00e4 28BF     		it	cs
 3439 00e6 6546     		movcs	r5, ip
 3440              	.LVL315:
ARM GAS  C:\Users\DJESSOU\AppData\Local\Temp\ccR55SEh.s 			page 96


 889:STM32Cube_FW_N6/Utilities/lcd/stm32_lcd.c ****     {
 3441              		.loc 1 889 5 is_stmt 1 view .LVU1043
 889:STM32Cube_FW_N6/Utilities/lcd/stm32_lcd.c ****     {
 3442              		.loc 1 889 7 is_stmt 0 view .LVU1044
 3443 00e8 6245     		cmp	r2, ip
 3444 00ea 38BF     		it	cc
 3445 00ec 6246     		movcc	r2, ip
 3446              	.LVL316:
 872:STM32Cube_FW_N6/Utilities/lcd/stm32_lcd.c ****   {
 3447              		.loc 1 872 49 is_stmt 1 discriminator 2 view .LVU1045
 3448 00ee 1BB2     		sxth	r3, r3
 3449              	.LVL317:
 872:STM32Cube_FW_N6/Utilities/lcd/stm32_lcd.c ****   {
 3450              		.loc 1 872 49 is_stmt 0 discriminator 2 view .LVU1046
 3451 00f0 93E7     		b	.L210
 3452              		.cfi_endproc
 3453              	.LFE27:
 3455              		.section	.text.UTIL_LCD_FillEllipse,"ax",%progbits
 3456              		.align	1
 3457              		.global	UTIL_LCD_FillEllipse
 3458              		.syntax unified
 3459              		.thumb
 3460              		.thumb_func
 3462              	UTIL_LCD_FillEllipse:
 3463              	.LVL318:
 3464              	.LFB28:
 968:STM32Cube_FW_N6/Utilities/lcd/stm32_lcd.c ****   int x_pos = 0, y_pos = -YRadius, err = 2-2*XRadius, e2;
 3465              		.loc 1 968 1 is_stmt 1 view -0
 3466              		.cfi_startproc
 3467              		@ args = 4, pretend = 0, frame = 0
 3468              		@ frame_needed = 0, uses_anonymous_args = 0
 969:STM32Cube_FW_N6/Utilities/lcd/stm32_lcd.c ****   float k = 0, rad1 = 0, rad2 = 0;
 3469              		.loc 1 969 3 view .LVU1048
 973:STM32Cube_FW_N6/Utilities/lcd/stm32_lcd.c **** 
 3470              		.loc 1 973 8 is_stmt 0 view .LVU1049
 3471 0000 07EE903A 		vmov	s15, r3	@ int
 3472 0004 B8EEE77A 		vcvt.f32.s32	s14, s15
 972:STM32Cube_FW_N6/Utilities/lcd/stm32_lcd.c ****   rad2 = YRadius;
 3473              		.loc 1 972 8 view .LVU1050
 3474 0008 07EE902A 		vmov	s15, r2	@ int
 3475 000c F8EEE77A 		vcvt.f32.s32	s15, s15
 968:STM32Cube_FW_N6/Utilities/lcd/stm32_lcd.c ****   int x_pos = 0, y_pos = -YRadius, err = 2-2*XRadius, e2;
 3476              		.loc 1 968 1 view .LVU1051
 3477 0010 2DE9F84F 		push	{r3, r4, r5, r6, r7, r8, r9, r10, fp, lr}
 3478              		.cfi_def_cfa_offset 40
 3479              		.cfi_offset 3, -40
 3480              		.cfi_offset 4, -36
 3481              		.cfi_offset 5, -32
 3482              		.cfi_offset 6, -28
 3483              		.cfi_offset 7, -24
 3484              		.cfi_offset 8, -20
 3485              		.cfi_offset 9, -16
 3486              		.cfi_offset 10, -12
 3487              		.cfi_offset 11, -8
 3488              		.cfi_offset 14, -4
 3489 0014 8146     		mov	r9, r0
 3490 0016 2DED028B 		vpush.64	{d8}
ARM GAS  C:\Users\DJESSOU\AppData\Local\Temp\ccR55SEh.s 			page 97


 3491              		.cfi_def_cfa_offset 48
 3492              		.cfi_offset 80, -48
 3493              		.cfi_offset 81, -44
 968:STM32Cube_FW_N6/Utilities/lcd/stm32_lcd.c ****   int x_pos = 0, y_pos = -YRadius, err = 2-2*XRadius, e2;
 3494              		.loc 1 968 1 view .LVU1052
 3495 001a 8846     		mov	r8, r1
 975:STM32Cube_FW_N6/Utilities/lcd/stm32_lcd.c **** 
 3496              		.loc 1 975 5 view .LVU1053
 3497 001c 87EE278A 		vdiv.f32	s16, s14, s15
 969:STM32Cube_FW_N6/Utilities/lcd/stm32_lcd.c ****   float k = 0, rad1 = 0, rad2 = 0;
 3498              		.loc 1 969 7 view .LVU1054
 3499 0020 0027     		movs	r7, #0
 969:STM32Cube_FW_N6/Utilities/lcd/stm32_lcd.c ****   float k = 0, rad1 = 0, rad2 = 0;
 3500              		.loc 1 969 43 view .LVU1055
 3501 0022 C2F10104 		rsb	r4, r2, #1
 968:STM32Cube_FW_N6/Utilities/lcd/stm32_lcd.c ****   int x_pos = 0, y_pos = -YRadius, err = 2-2*XRadius, e2;
 3502              		.loc 1 968 1 view .LVU1056
 3503 0026 DDF830A0 		ldr	r10, [sp, #48]
 969:STM32Cube_FW_N6/Utilities/lcd/stm32_lcd.c ****   float k = 0, rad1 = 0, rad2 = 0;
 3504              		.loc 1 969 18 view .LVU1057
 3505 002a 5D42     		rsbs	r5, r3, #0
 3506              	.LVL319:
 969:STM32Cube_FW_N6/Utilities/lcd/stm32_lcd.c ****   float k = 0, rad1 = 0, rad2 = 0;
 3507              		.loc 1 969 36 view .LVU1058
 3508 002c 6400     		lsls	r4, r4, #1
 3509              	.LVL320:
 970:STM32Cube_FW_N6/Utilities/lcd/stm32_lcd.c **** 
 3510              		.loc 1 970 3 is_stmt 1 view .LVU1059
 972:STM32Cube_FW_N6/Utilities/lcd/stm32_lcd.c ****   rad2 = YRadius;
 3511              		.loc 1 972 3 view .LVU1060
 973:STM32Cube_FW_N6/Utilities/lcd/stm32_lcd.c **** 
 3512              		.loc 1 973 3 view .LVU1061
 975:STM32Cube_FW_N6/Utilities/lcd/stm32_lcd.c **** 
 3513              		.loc 1 975 3 view .LVU1062
 3514              	.L219:
 977:STM32Cube_FW_N6/Utilities/lcd/stm32_lcd.c ****   {
 3515              		.loc 1 977 3 view .LVU1063
 979:STM32Cube_FW_N6/Utilities/lcd/stm32_lcd.c ****     UTIL_LCD_DrawHLine((Xpos-(uint32_t)(x_pos/k)), (Ypos - y_pos), (2*(uint32_t)(x_pos/k) + 1), Col
 3516              		.loc 1 979 5 view .LVU1064
 979:STM32Cube_FW_N6/Utilities/lcd/stm32_lcd.c ****     UTIL_LCD_DrawHLine((Xpos-(uint32_t)(x_pos/k)), (Ypos - y_pos), (2*(uint32_t)(x_pos/k) + 1), Col
 3517              		.loc 1 979 46 is_stmt 0 view .LVU1065
 3518 002e 07EE907A 		vmov	s15, r7	@ int
 3519 0032 B8EEE77A 		vcvt.f32.s32	s14, s15
 3520 0036 C7EE087A 		vdiv.f32	s15, s14, s16
 979:STM32Cube_FW_N6/Utilities/lcd/stm32_lcd.c ****     UTIL_LCD_DrawHLine((Xpos-(uint32_t)(x_pos/k)), (Ypos - y_pos), (2*(uint32_t)(x_pos/k) + 1), Col
 3521              		.loc 1 979 30 view .LVU1066
 3522 003a FCEEE77A 		vcvt.u32.f32	s15, s15
 3523 003e 17EE906A 		vmov	r6, s15	@ int
 979:STM32Cube_FW_N6/Utilities/lcd/stm32_lcd.c ****     UTIL_LCD_DrawHLine((Xpos-(uint32_t)(x_pos/k)), (Ypos - y_pos), (2*(uint32_t)(x_pos/k) + 1), Col
 3524              		.loc 1 979 5 view .LVU1067
 3525 0042 A9EB060B 		sub	fp, r9, r6
 979:STM32Cube_FW_N6/Utilities/lcd/stm32_lcd.c ****     UTIL_LCD_DrawHLine((Xpos-(uint32_t)(x_pos/k)), (Ypos - y_pos), (2*(uint32_t)(x_pos/k) + 1), Col
 3526              		.loc 1 979 70 view .LVU1068
 3527 0046 7600     		lsls	r6, r6, #1
 979:STM32Cube_FW_N6/Utilities/lcd/stm32_lcd.c ****     UTIL_LCD_DrawHLine((Xpos-(uint32_t)(x_pos/k)), (Ypos - y_pos), (2*(uint32_t)(x_pos/k) + 1), Col
 3528              		.loc 1 979 5 view .LVU1069
 3529 0048 0136     		adds	r6, r6, #1
ARM GAS  C:\Users\DJESSOU\AppData\Local\Temp\ccR55SEh.s 			page 98


 3530 004a 5346     		mov	r3, r10
 3531 004c 3246     		mov	r2, r6
 3532 004e 5846     		mov	r0, fp
 3533 0050 05EB0801 		add	r1, r5, r8
 3534 0054 FFF7FEFF 		bl	UTIL_LCD_DrawHLine
 3535              	.LVL321:
 980:STM32Cube_FW_N6/Utilities/lcd/stm32_lcd.c **** 
 3536              		.loc 1 980 5 is_stmt 1 view .LVU1070
 3537 0058 5346     		mov	r3, r10
 3538 005a 3246     		mov	r2, r6
 3539 005c 5846     		mov	r0, fp
 3540 005e A8EB0501 		sub	r1, r8, r5
 3541 0062 FFF7FEFF 		bl	UTIL_LCD_DrawHLine
 3542              	.LVL322:
 982:STM32Cube_FW_N6/Utilities/lcd/stm32_lcd.c ****     if (e2 <= x_pos)
 3543              		.loc 1 982 5 view .LVU1071
 983:STM32Cube_FW_N6/Utilities/lcd/stm32_lcd.c ****     {
 3544              		.loc 1 983 5 view .LVU1072
 983:STM32Cube_FW_N6/Utilities/lcd/stm32_lcd.c ****     {
 3545              		.loc 1 983 8 is_stmt 0 view .LVU1073
 3546 0066 A742     		cmp	r7, r4
 3547 0068 15DB     		blt	.L220
 985:STM32Cube_FW_N6/Utilities/lcd/stm32_lcd.c ****       if (-y_pos == x_pos && e2 <= y_pos) e2 = 0;
 3548              		.loc 1 985 7 is_stmt 1 view .LVU1074
 985:STM32Cube_FW_N6/Utilities/lcd/stm32_lcd.c ****       if (-y_pos == x_pos && e2 <= y_pos) e2 = 0;
 3549              		.loc 1 985 23 is_stmt 0 view .LVU1075
 3550 006a 0137     		adds	r7, r7, #1
 3551              	.LVL323:
 985:STM32Cube_FW_N6/Utilities/lcd/stm32_lcd.c ****       if (-y_pos == x_pos && e2 <= y_pos) e2 = 0;
 3552              		.loc 1 985 23 view .LVU1076
 3553 006c 04EB4703 		add	r3, r4, r7, lsl #1
 986:STM32Cube_FW_N6/Utilities/lcd/stm32_lcd.c ****     }
 3554              		.loc 1 986 10 view .LVU1077
 3555 0070 EF42     		cmn	r7, r5
 985:STM32Cube_FW_N6/Utilities/lcd/stm32_lcd.c ****       if (-y_pos == x_pos && e2 <= y_pos) e2 = 0;
 3556              		.loc 1 985 11 view .LVU1078
 3557 0072 03F10103 		add	r3, r3, #1
 3558              	.LVL324:
 986:STM32Cube_FW_N6/Utilities/lcd/stm32_lcd.c ****     }
 3559              		.loc 1 986 7 is_stmt 1 view .LVU1079
 986:STM32Cube_FW_N6/Utilities/lcd/stm32_lcd.c ****     }
 3560              		.loc 1 986 10 is_stmt 0 view .LVU1080
 3561 0076 02D1     		bne	.L216
 986:STM32Cube_FW_N6/Utilities/lcd/stm32_lcd.c ****     }
 3562              		.loc 1 986 27 discriminator 1 view .LVU1081
 3563 0078 A542     		cmp	r5, r4
 3564 007a 02DB     		blt	.L217
 986:STM32Cube_FW_N6/Utilities/lcd/stm32_lcd.c ****     }
 3565              		.loc 1 986 46 discriminator 2 view .LVU1082
 3566 007c 0024     		movs	r4, #0
 3567              	.LVL325:
 3568              	.L216:
 988:STM32Cube_FW_N6/Utilities/lcd/stm32_lcd.c ****   }
 3569              		.loc 1 988 5 is_stmt 1 view .LVU1083
 988:STM32Cube_FW_N6/Utilities/lcd/stm32_lcd.c ****   }
 3570              		.loc 1 988 8 is_stmt 0 view .LVU1084
 3571 007e A542     		cmp	r5, r4
ARM GAS  C:\Users\DJESSOU\AppData\Local\Temp\ccR55SEh.s 			page 99


 3572 0080 0BDA     		bge	.L221
 3573              	.L217:
 3574              	.LVL326:
 988:STM32Cube_FW_N6/Utilities/lcd/stm32_lcd.c ****   }
 3575              		.loc 1 988 21 is_stmt 1 discriminator 1 view .LVU1085
 988:STM32Cube_FW_N6/Utilities/lcd/stm32_lcd.c ****   }
 3576              		.loc 1 988 37 is_stmt 0 discriminator 1 view .LVU1086
 3577 0082 0135     		adds	r5, r5, #1
 3578              	.LVL327:
 988:STM32Cube_FW_N6/Utilities/lcd/stm32_lcd.c ****   }
 3579              		.loc 1 988 37 discriminator 1 view .LVU1087
 3580 0084 03EB4503 		add	r3, r3, r5, lsl #1
 988:STM32Cube_FW_N6/Utilities/lcd/stm32_lcd.c ****   }
 3581              		.loc 1 988 25 discriminator 1 view .LVU1088
 3582 0088 5C1C     		adds	r4, r3, #1
 3583              	.LVL328:
 3584              	.L218:
 990:STM32Cube_FW_N6/Utilities/lcd/stm32_lcd.c **** }
 3585              		.loc 1 990 16 is_stmt 1 view .LVU1089
 3586 008a 002D     		cmp	r5, #0
 3587 008c CFDD     		ble	.L219
 991:STM32Cube_FW_N6/Utilities/lcd/stm32_lcd.c **** 
 3588              		.loc 1 991 1 is_stmt 0 view .LVU1090
 3589 008e BDEC028B 		vldm	sp!, {d8}
 3590              		.cfi_remember_state
 3591              		.cfi_restore 80
 3592              		.cfi_restore 81
 3593              		.cfi_def_cfa_offset 40
 3594              	.LVL329:
 991:STM32Cube_FW_N6/Utilities/lcd/stm32_lcd.c **** 
 3595              		.loc 1 991 1 view .LVU1091
 3596 0092 BDE8F88F 		pop	{r3, r4, r5, r6, r7, r8, r9, r10, fp, pc}
 3597              	.LVL330:
 3598              	.L220:
 3599              		.cfi_restore_state
 991:STM32Cube_FW_N6/Utilities/lcd/stm32_lcd.c **** 
 3600              		.loc 1 991 1 view .LVU1092
 3601 0096 2346     		mov	r3, r4
 3602 0098 F1E7     		b	.L216
 3603              	.LVL331:
 3604              	.L221:
 991:STM32Cube_FW_N6/Utilities/lcd/stm32_lcd.c **** 
 3605              		.loc 1 991 1 view .LVU1093
 3606 009a 1C46     		mov	r4, r3
 3607              	.LVL332:
 991:STM32Cube_FW_N6/Utilities/lcd/stm32_lcd.c **** 
 3608              		.loc 1 991 1 view .LVU1094
 3609 009c F5E7     		b	.L218
 3610              		.cfi_endproc
 3611              	.LFE28:
 3613              		.section	.bss.FuncDriver,"aw",%nobits
 3614              		.align	2
 3617              	FuncDriver:
 3618 0000 00000000 		.space	44
 3618      00000000 
 3618      00000000 
 3618      00000000 
ARM GAS  C:\Users\DJESSOU\AppData\Local\Temp\ccR55SEh.s 			page 100


 3618      00000000 
 3619              		.section	.bss.DrawProp,"aw",%nobits
 3620              		.align	2
 3623              	DrawProp:
 3624 0000 00000000 		.space	64
 3624      00000000 
 3624      00000000 
 3624      00000000 
 3624      00000000 
 3625              		.global	Font8
 3626              		.section	.data.Font8,"aw"
 3627              		.align	2
 3630              	Font8:
 3631 0000 00000000 		.word	Font8_Table
 3632 0004 0500     		.short	5
 3633 0006 0800     		.short	8
 3634              		.global	Font8_Table
 3635              		.section	.rodata.Font8_Table,"a"
 3638              	Font8_Table:
 3639 0000 00000000 		.ascii	"\000\000\000\000\000\000\000\000    \000 \000\000PP"
 3639      00000000 
 3639      20202020 
 3639      00200000 
 3639      5050
 3640 0012 00000000 		.ascii	"\000\000\000\000\000\000(P\370P\370P\240\000 0`0\020"
 3640      00002850 
 3640      F850F850 
 3640      A0002030 
 3640      603010
 3641 0025 60200020 		.ascii	"` \000  \030`\020\020\000\000\0008 `Px\000\000   \000"
 3641      20186010 
 3641      10000000 
 3641      38206050 
 3641      78000020 
 3642 003c 00000000 		.ascii	"\000\000\000\000\020     \020\000@     @\000 p P\000"
 3642      10202020 
 3642      20201000 
 3642      40202020 
 3642      20204000 
 3643 0055 00000000 		.ascii	"\000\000\000\000  \370  \000\000\000\000\000\000\020"
 3643      2020F820 
 3643      20000000 
 3643      00000010 
 3644 0065 20200000 		.ascii	"  \000\000\000\000p\000\000\000\000\000\000\000\000"
 3644      00007000 
 3644      00000000 
 3644      000000
 3645 0074 00200000 		.ascii	"\000 \000\000\020   @@\200\000 PPPP \000\000`    \370"
 3645      10202020 
 3645      40408000 
 3645      20505050 
 3645      50200000 
 3646 008e 00002050 		.ascii	"\000\000 P  @p\000\000 P\020 \020`\000\000\0200Px\020"
 3646      20204070 
 3646      00002050 
 3646      10201060 
 3646      00001030 
ARM GAS  C:\Users\DJESSOU\AppData\Local\Temp\ccR55SEh.s 			page 101


 3647 00a5 38000070 		.ascii	"8\000\000p@`\020P \000\0000@`PP`\000\000pP\020   \000"
 3647      40601050 
 3647      20000030 
 3647      40605050 
 3647      60000070 
 3648 00bf 00205020 		.ascii	"\000 P PP \000\0000PP0\020`\000\000\000\000 \000\000"
 3648      50502000 
 3648      00305050 
 3648      30106000 
 3648      00000020 
 3649 00d5 20000000 		.ascii	" \000\000\000\000\020\000\020 \000\000\000\020 \300"
 3649      00100010 
 3649      20000000 
 3649      1020C0
 3650 00e4 20100000 		.ascii	" \020\000\000\000p\000p\000\000\000\000\000@ \030 @"
 3650      00700070 
 3650      00000000 
 3650      00402018 
 3650      2040
 3651 00f6 00002050 		.ascii	"\000\000 P\020 \000 \000\0000HHXH@8\000` Pp\210\330"
 3651      10200020 
 3651      00003048 
 3651      48584840 
 3651      38006020 
 3652 010e 0000F048 		.ascii	"\000\000\360HpHH\360\000\000pP@@@0\000\000\360HHHH\360"
 3652      704848F0 
 3652      00007050 
 3652      40404030 
 3652      0000F048 
 3653 0126 0000F848 		.ascii	"\000\000\370H`@H\370\000\000\370H`@@\340\000\000p@@"
 3653      604048F8 
 3653      0000F848 
 3653      604040E0 
 3653      00007040 
 3654 013b 58503000 		.ascii	"XP0\000\000\350HxHH\350\000\000p    p\000\0008\020\020"
 3654      00E84878 
 3654      4848E800 
 3654      00702020 
 3654      20207000 
 3655 0153 50502000 		.ascii	"PP \000\000\330P`pP\330\000\000\340@@@H\370\000\000"
 3655      00D85060 
 3655      7050D800 
 3655      00E04040 
 3655      4048F800 
 3656 0168 D8D8D8A8 		.ascii	"\330\330\330\250\210\330\000\000\330hhXX\350\000\000"
 3656      88D80000 
 3656      D8686858 
 3656      58E80000 
 3657 0178 30484848 		.ascii	"0HHHH0\000\000\360HHp@\340\000\0000HHHH0\030\000\360"
 3657      48300000 
 3657      F0484870 
 3657      40E00000 
 3657      30484848 
 3658 0191 48487048 		.ascii	"HHpH\350\000\000pP \020Pp\000\000\370\250   p\000\000"
 3658      E8000070 
 3658      50201050 
 3658      700000F8 
ARM GAS  C:\Users\DJESSOU\AppData\Local\Temp\ccR55SEh.s 			page 102


 3658      A8202020 
 3659 01a8 D8484848 		.ascii	"\330HHHH0\000\000\330\210HPP0\000\000\330\210\250\250"
 3659      48300000 
 3659      D8884850 
 3659      50300000 
 3659      D888A8A8 
 3660 01bc A8500000 		.ascii	"\250P\000\000\330P  P\330\000\000\330\210P  p\000\000"
 3660      D8502020 
 3660      50D80000 
 3660      D8885020 
 3660      20700000 
 3661 01d0 78481020 		.ascii	"xH\020 Hx\000\0000     0\000\200@@   \020\000`     "
 3661      48780000 
 3661      30202020 
 3661      20203000 
 3661      80404020 
 3662 01ee 60002020 		.ascii	"`\000  P\000\000\000\000\000\000\000\000\000\000\000"
 3662      50000000 
 3662      00000000 
 3662      00000000 
 3663 01fe 00F82010 		.ascii	"\000\370 \020\000\000\000\000\000\000\000\0000\020p"
 3663      00000000 
 3663      00000000 
 3663      301070
 3664 020d 780000C0 		.ascii	"x\000\000\300@pHH\360\000\000\000\000p@@p\000\000\030"
 3664      40704848 
 3664      F0000000 
 3664      00704040 
 3664      70000018 
 3665 0221 08384848 		.ascii	"\0108HH8\000\000\000\000pp@0\000\000\020 p  p\000\000"
 3665      38000000 
 3665      00707040 
 3665      30000010 
 3665      20702020 
 3666 0238 00003848 		.ascii	"\000\0008HH8\0100\300@pHH\350\000\000 \000`  p\000\000"
 3666      48380830 
 3666      C0407048 
 3666      48E80000 
 3666      20006020 
 3667 0250 20007010 		.ascii	" \000p\020\020\020\020p\300@XpP\330\000\000`    p\000"
 3667      10101070 
 3667      C0405870 
 3667      50D80000 
 3667      60202020 
 3668 0267 000000D0 		.ascii	"\000\000\000\320\250\250\250\000\000\000\000\360HH\310"
 3668      A8A8A800 
 3668      000000F0 
 3668      4848C8
 3669 0276 00000000 		.ascii	"\000\000\000\0000HH0\000\000\000\000\360HHp@\340\000"
 3669      30484830 
 3669      00000000 
 3669      F0484870 
 3669      40E000
 3670 0289 00384848 		.ascii	"\0008HH8\010\030\000\000x  p\000\000\000\0000 \020`"
 3670      38081800 
 3670      00782020 
 3670      70000000 
ARM GAS  C:\Users\DJESSOU\AppData\Local\Temp\ccR55SEh.s 			page 103


 3670      00302010 
 3671 029e 00000040 		.ascii	"\000\000\000@\360@H0\000\000\000\000\330HH8\000\000"
 3671      F0404830 
 3671      00000000 
 3671      D8484838 
 3671      0000
 3672 02b0 0000C848 		.ascii	"\000\000\310H00\000\000\000\000\330\250\250P\000\000"
 3672      30300000 
 3672      0000D8A8 
 3672      A8500000 
 3673 02c0 00004830 		.ascii	"\000\000H00H\000\000\000\000\330PP  `\000\000xP(x\000"
 3673      30480000 
 3673      0000D850 
 3673      50202060 
 3673      00007850 
 3674 02d7 00102020 		.ascii	"\000\020  `  \020\000       \000@  0  @\000\000\000"
 3674      60202010 
 3674      00202020 
 3674      20202020 
 3674      00402020 
 3675 02f2 00285000 		.ascii	"\000(P\000\000\000"
 3675      0000
 3676              		.global	Font12
 3677              		.section	.data.Font12,"aw"
 3678              		.align	2
 3681              	Font12:
 3682 0000 00000000 		.word	Font12_Table
 3683 0004 0700     		.short	7
 3684 0006 0C00     		.short	12
 3685              		.global	Font12_Table
 3686              		.section	.rodata.Font12_Table,"a"
 3689              	Font12_Table:
 3690 0000 00000000 		.ascii	"\000\000\000\000\000\000\000\000\000\000\000\000\000"
 3690      00000000 
 3690      00000000 
 3690      00
 3691 000d 10101010 		.ascii	"\020\020\020\020\020\000\000\020\000\000\000\000lHH"
 3691      10000010 
 3691      00000000 
 3691      6C4848
 3692 001c 00000000 		.ascii	"\000\000\000\000\000\000\000\000\000\024\024(|(|(PP"
 3692      00000000 
 3692      00141428 
 3692      7C287C28 
 3692      5050
 3693 002e 00000010 		.ascii	"\000\000\000\0208@@8Hp\020\020\000\000\000 P \014p\010"
 3693      38404038 
 3693      48701010 
 3693      00000020 
 3693      50200C70 
 3694 0043 14080000 		.ascii	"\024\010\000\000\000\000\000\000\030  TH4\000\000\000"
 3694      00000000 
 3694      18202054 
 3694      48340000 
 3694      00
 3695 0054 00101010 		.ascii	"\000\020\020\020\020\000\000\000\000\000\000\000\000"
 3695      10000000 
ARM GAS  C:\Users\DJESSOU\AppData\Local\Temp\ccR55SEh.s 			page 104


 3695      00000000 
 3695      00
 3696 0061 08081010 		.ascii	"\010\010\020\020\020\020\020\020\010\010\000\000  \020"
 3696      10101010 
 3696      08080000 
 3696      202010
 3697 0070 10101010 		.ascii	"\020\020\020\020\020  \000\000\020|\020((\000\000\000"
 3697      10202000 
 3697      00107C10 
 3697      28280000 
 3697      00
 3698 0081 00000000 		.ascii	"\000\000\000\000\000\020\020\020\376\020\020\020\000"
 3698      00101010 
 3698      FE101010 
 3698      00
 3699 008e 00000000 		.ascii	"\000\000\000\000\000\000\000\000\000\030\0200 \000\000"
 3699      00000000 
 3699      00181030 
 3699      200000
 3700 009d 00000000 		.ascii	"\000\000\000\000|\000\000\000\000\000\000\000\000\000"
 3700      7C000000 
 3700      00000000 
 3700      0000
 3701 00ab 00000000 		.ascii	"\000\000\000\00000\000\000\000\000\004\004\010\010\020"
 3701      30300000 
 3701      00000404 
 3701      080810
 3702 00ba 10202040 		.ascii	"\020  @\000\000\0008DDDDDD8\000\000\000\0000\020\020"
 3702      00000038 
 3702      44444444 
 3702      44443800 
 3702      00000030 
 3703 00d0 10101010 		.ascii	"\020\020\020\020|\000\000\000\0008D\004\010\020 D|\000"
 3703      7C000000 
 3703      00384404 
 3703      08102044 
 3703      7C00
 3704 00e2 00000038 		.ascii	"\000\000\0008D\004\030\004\004D8\000\000\000\000\014"
 3704      44041804 
 3704      04443800 
 3704      0000000C 
 3705 00f2 14142444 		.ascii	"\024\024$D~\004\016\000\000\000\000<  8\004\004D8\000"
 3705      7E040E00 
 3705      0000003C 
 3705      20203804 
 3705      04443800 
 3706 0106 0000001C 		.ascii	"\000\000\000\034 @xDDD8\000\000\000\000|D\004\010\010"
 3706      20407844 
 3706      44443800 
 3706      0000007C 
 3706      44040808 
 3707 011a 08101000 		.ascii	"\010\020\020\000\000\000\0008DD8DDD8\000\000\000\000"
 3707      00000038 
 3707      44443844 
 3707      44443800 
 3707      000000
 3708 012d 38444444 		.ascii	"8DDD<\004\010p\000\000\000\000\000\00000\000\00000\000"
ARM GAS  C:\Users\DJESSOU\AppData\Local\Temp\ccR55SEh.s 			page 105


 3708      3C040870 
 3708      00000000 
 3708      00003030 
 3708      00003030 
 3709 0142 00000000 		.ascii	"\000\000\000\000\000\030\030\000\000\0300 \000\000\000"
 3709      00181800 
 3709      00183020 
 3709      000000
 3710 0151 000C1060 		.ascii	"\000\014\020`\200`\020\014\000\000\000\000\000\000\000"
 3710      8060100C 
 3710      00000000 
 3710      000000
 3711 0160 7C007C00 		.ascii	"|\000|\000\000\000\000\000\000\000\300 \030\004\030"
 3711      00000000 
 3711      0000C020 
 3711      180418
 3712 016f 20C00000 		.ascii	" \300\000\000\000\000\000\030$\004\010\020\0000\000"
 3712      00000018 
 3712      24040810 
 3712      003000
 3713 017e 00003844 		.ascii	"\000\0008DDLTTL@D8\000\000\0000\020(((|D\356\000\000"
 3713      444C5454 
 3713      4C404438 
 3713      00000030 
 3713      10282828 
 3714 0197 0000F844 		.ascii	"\000\000\370DDxDDD\370\000\000\000\000<D@@@@D8\000\000"
 3714      44784444 
 3714      44F80000 
 3714      00003C44 
 3714      40404040 
 3715 01af 0000F048 		.ascii	"\000\000\360HDDDDH\360\000\000\000\000\374DPpP@D\374"
 3715      44444444 
 3715      48F00000 
 3715      0000FC44 
 3715      50705040 
 3716 01c5 00000000 		.ascii	"\000\000\000\000~\"(8(  p\000\000\000\000<D@@NDD8\000"
 3716      7E222838 
 3716      28202070 
 3716      00000000 
 3716      3C444040 
 3717 01de 000000EE 		.ascii	"\000\000\000\356DD|DDD\356\000\000\000\000|\020\020"
 3717      44447C44 
 3717      4444EE00 
 3717      0000007C 
 3717      1010
 3718 01f0 10101010 		.ascii	"\020\020\020\020|\000\000\000\000<\010\010\010HHH0\000"
 3718      7C000000 
 3718      003C0808 
 3718      08484848 
 3718      3000
 3719 0202 000000EE 		.ascii	"\000\000\000\356DHPpHD\346\000\000\000\000p    $$|\000"
 3719      44485070 
 3719      4844E600 
 3719      00000070 
 3719      20202020 
 3720 021a 000000EE 		.ascii	"\000\000\000\356llTTDD\356\000\000\000\000\356ddTTT"
 3720      6C6C5454 
ARM GAS  C:\Users\DJESSOU\AppData\Local\Temp\ccR55SEh.s 			page 106


 3720      4444EE00 
 3720      000000EE 
 3720      64645454 
 3721 022f 4CEC0000 		.ascii	"L\354\000\000\000\0008DDDDDD8\000\000\000\000x$$$8 "
 3721      00003844 
 3721      44444444 
 3721      44380000 
 3721      00007824 
 3722 0247 20700000 		.ascii	" p\000\000\000\0008DDDDDD8\034\000\000\000\370DDDxH"
 3722      00003844 
 3722      44444444 
 3722      44381C00 
 3722      0000F844 
 3723 025f 44E20000 		.ascii	"D\342\000\000\000\0004L@8\004\004dX\000\000\000\000"
 3723      0000344C 
 3723      40380404 
 3723      64580000 
 3723      0000
 3724 0271 FE921010 		.ascii	"\376\222\020\020\020\020\0208\000\000\000\000\356DD"
 3724      10101038 
 3724      00000000 
 3724      EE4444
 3725 0280 44444444 		.ascii	"DDDD8\000\000\000\000\356DD(((\020\020\000\000\000\000"
 3725      38000000 
 3725      00EE4444 
 3725      28282810 
 3725      10000000 
 3726 0295 EE444454 		.ascii	"\356DDTTTT(\000\000\000\000\306D(\020\020(D\306\000"
 3726      54545428 
 3726      00000000 
 3726      C6442810 
 3726      102844C6 
 3727 02aa 000000EE 		.ascii	"\000\000\000\356D((\020\020\0208\000\000\000\000|D\010"
 3727      44282810 
 3727      10103800 
 3727      0000007C 
 3727      4408
 3728 02bc 10102044 		.ascii	"\020\020 D|\000\000\000\0008        8\000\000@   \020"
 3728      7C000000 
 3728      00382020 
 3728      20202020 
 3728      20203800 
 3729 02d6 10080808 		.ascii	"\020\010\010\010\000\000\0008\010\010\010\010\010\010"
 3729      00000038 
 3729      08080808 
 3729      0808
 3730 02e4 08083800 		.ascii	"\010\0108\000\000\020\020(D\000\000\000\000\000\000"
 3730      00101028 
 3730      44000000 
 3730      000000
 3731 02f3 00000000 		.ascii	"\000\000\000\000\000\000\000\000\000\000\000\000\376"
 3731      00000000 
 3731      00000000 
 3731      FE
 3732 0300 00100800 		.ascii	"\000\020\010\000\000\000\000\000\000\000\000\000\000"
 3732      00000000 
 3732      00000000 
ARM GAS  C:\Users\DJESSOU\AppData\Local\Temp\ccR55SEh.s 			page 107


 3732      00
 3733 030d 00003844 		.ascii	"\000\0008D<DD>\000\000\000\000\300@XdDDD\370\000\000"
 3733      3C44443E 
 3733      00000000 
 3733      C0405864 
 3733      444444F8 
 3734 0323 00000000 		.ascii	"\000\000\000\000<D@@D8\000\000\000\000\014\0044LDDD"
 3734      3C444040 
 3734      44380000 
 3734      00000C04 
 3734      344C4444 
 3735 0338 3E000000 		.ascii	">\000\000\000\000\000\0008D|@@<\000\000\000\000\034"
 3735      00000038 
 3735      447C4040 
 3735      3C000000 
 3735      001C
 3736 034a 207C2020 		.ascii	" |    |\000\000\000\000\000\0006LDDD<\0048\000\000\300"
 3736      20207C00 
 3736      00000000 
 3736      00364C44 
 3736      44443C04 
 3737 0362 40586444 		.ascii	"@XdDDD\356\000\000\000\000\020\000p\020\020\020\020"
 3737      4444EE00 
 3737      00000010 
 3737      00701010 
 3737      1010
 3738 0374 7C000000 		.ascii	"|\000\000\000\000\020\000x\010\010\010\010\010\010p"
 3738      00100078 
 3738      08080808 
 3738      080870
 3739 0383 0000C040 		.ascii	"\000\000\300@\\HpPH\334\000\000\000\0000\020\020\020"
 3739      5C487050 
 3739      48DC0000 
 3739      00003010 
 3739      1010
 3740 0395 1010107C 		.ascii	"\020\020\020|\000\000\000\000\000\000\350TTTT\376\000"
 3740      00000000 
 3740      0000E854 
 3740      545454FE 
 3740      00
 3741 03a6 00000000 		.ascii	"\000\000\000\000\000\330dDDD\356\000\000\000\000\000"
 3741      00D86444 
 3741      4444EE00 
 3741      00000000 
 3742 03b6 00384444 		.ascii	"\0008DDDD8\000\000\000\000\000\000\330dDDDx@\340\000"
 3742      44443800 
 3742      00000000 
 3742      00D86444 
 3742      44447840 
 3743 03cc 00000036 		.ascii	"\000\000\0006LDDD<\004\016\000\000\000\000l0   |\000"
 3743      4C444444 
 3743      3C040E00 
 3743      0000006C 
 3743      30202020 
 3744 03e2 00000000 		.ascii	"\000\000\000\000\000<D8\004Dx\000\000\000\000\000 |"
 3744      003C4438 
 3744      04447800 
ARM GAS  C:\Users\DJESSOU\AppData\Local\Temp\ccR55SEh.s 			page 108


 3744      00000000 
 3744      207C
 3745 03f4 20202022 		.ascii	"   \"\034\000\000\000\000\000\000\314DDDL6\000\000\000"
 3745      1C000000 
 3745      000000CC 
 3745      4444444C 
 3745      36000000 
 3746 0408 000000EE 		.ascii	"\000\000\000\356DD((\020\000\000\000\000\000\000\356"
 3746      44442828 
 3746      10000000 
 3746      000000EE 
 3747 0418 44545454 		.ascii	"DTTT(\000\000\000\000\000\000\314H00H\314\000\000\000"
 3747      28000000 
 3747      000000CC 
 3747      48303048 
 3747      CC000000 
 3748 042c 000000EE 		.ascii	"\000\000\000\356D$(\030\020\020x\000\000\000\000|H\020"
 3748      44242818 
 3748      10107800 
 3748      0000007C 
 3748      4810
 3749 043e 20447C00 		.ascii	" D|\000\000\000\000\010\020\020\020\020 \020\020\020"
 3749      00000008 
 3749      10101010 
 3749      20101010 
 3750 044e 08000010 		.ascii	"\010\000\000\020\020\020\020\020\020\020\020\020\000"
 3750      10101010 
 3750      10101010 
 3750      00
 3751 045b 00002010 		.ascii	"\000\000 \020\020\020\020\010\020\020\020 \000\000\000"
 3751      10101008 
 3751      10101020 
 3751      000000
 3752 046a 00000024 		.ascii	"\000\000\000$X\000\000\000\000\000"
 3752      58000000 
 3752      0000
 3753              		.global	Font16
 3754              		.section	.data.Font16,"aw"
 3755              		.align	2
 3758              	Font16:
 3759 0000 00000000 		.word	Font16_Table
 3760 0004 0B00     		.short	11
 3761 0006 1000     		.short	16
 3762              		.global	Font16_Table
 3763              		.section	.rodata.Font16_Table,"a"
 3766              	Font16_Table:
 3767 0000 00000000 		.ascii	"\000\000\000\000\000\000\000\000\000\000\000\000\000"
 3767      00000000 
 3767      00000000 
 3767      00
 3768 000d 00000000 		.ascii	"\000\000\000\000\000\000\000\000\000\000\000\000\000"
 3768      00000000 
 3768      00000000 
 3768      00
 3769 001a 00000000 		.ascii	"\000\000\000\000\000\000\000\000\014\000\014\000\014"
 3769      00000000 
 3769      0C000C00 
ARM GAS  C:\Users\DJESSOU\AppData\Local\Temp\ccR55SEh.s 			page 109


 3769      0C
 3770 0027 000C000C 		.ascii	"\000\014\000\014\000\014\000\014\000\014\000\000\000"
 3770      000C000C 
 3770      000C0000 
 3770      00
 3771 0034 0C000000 		.ascii	"\014\000\000\000\000\000\000\000\000\000\000\000\000"
 3771      00000000 
 3771      00000000 
 3771      00
 3772 0041 0000001D 		.ascii	"\000\000\000\035\300\035\300\010\200\010\200\010\200"
 3772      C01DC008 
 3772      80088008 
 3772      80
 3773 004e 00000000 		.ascii	"\000\000\000\000\000\000\000\000\000\000\000\000\000"
 3773      00000000 
 3773      00000000 
 3773      00
 3774 005b 00000000 		.ascii	"\000\000\000\000\000\000\000\015\200\015\200\015\200"
 3774      0000000D 
 3774      800D800D 
 3774      80
 3775 0068 0D803FC0 		.ascii	"\015\200?\300\033\000?\300\033\000\033\000\033\000\033"
 3775      1B003FC0 
 3775      1B001B00 
 3775      1B001B
 3776 0077 00000000 		.ascii	"\000\000\000\000\000\000\000\000\000\004\000\037\200"
 3776      00000000 
 3776      0004001F 
 3776      80
 3777 0084 31803180 		.ascii	"1\2001\2008\000\036\000\017\000\003\2001\2001\200?\000"
 3777      38001E00 
 3777      0F000380 
 3777      31803180 
 3777      3F00
 3778 0096 04000400 		.ascii	"\004\000\004\000\000\000\000\000\000\000\000\000\030"
 3778      00000000 
 3778      00000000 
 3778      18
 3779 00a3 00240024 		.ascii	"\000$\000$\000\030\300\007\200\036\0001\200\002@\002"
 3779      0018C007 
 3779      801E0031 
 3779      80024002 
 3780 00b3 40018000 		.ascii	"@\001\200\000\000\000\000\000\000\000\000\000\000\000"
 3780      00000000 
 3780      00000000 
 3780      0000
 3781 00c1 0000000F 		.ascii	"\000\000\000\017\000\030\000\030\000\030\000\014\000"
 3781      00180018 
 3781      0018000C 
 3781      00
 3782 00ce 1D803700 		.ascii	"\035\2007\0003\000\035\200\000\000\000\000\000\000\000"
 3782      33001D80 
 3782      00000000 
 3782      000000
 3783 00dd 00000000 		.ascii	"\000\000\000\000\000\000\000\007\000\007\000\002\000"
 3783      00000007 
 3783      00070002 
ARM GAS  C:\Users\DJESSOU\AppData\Local\Temp\ccR55SEh.s 			page 110


 3783      00
 3784 00ea 02000200 		.ascii	"\002\000\002\000\000\000\000\000\000\000\000\000\000"
 3784      00000000 
 3784      00000000 
 3784      00
 3785 00f7 00000000 		.ascii	"\000\000\000\000\000\000\000\000\000\000\000\003\000"
 3785      00000000 
 3785      00000003 
 3785      00
 3786 0104 03000600 		.ascii	"\003\000\006\000\016\000\014\000\014\000\014\000\014"
 3786      0E000C00 
 3786      0C000C00 
 3786      0C
 3787 0111 000E0006 		.ascii	"\000\016\000\006\000\003\000\003\000\000\000\000\000"
 3787      00030003 
 3787      00000000 
 3787      00
 3788 011e 00000000 		.ascii	"\000\000\000\000\030\000\030\000\014\000\006\000\006"
 3788      18001800 
 3788      0C000600 
 3788      06
 3789 012b 00060006 		.ascii	"\000\006\000\006\000\006\000\006\000\014\000\034\000"
 3789      00060006 
 3789      000C001C 
 3789      00
 3790 0138 18000000 		.ascii	"\030\000\000\000\000\000\000\000\000\000\006\000\006"
 3790      00000000 
 3790      00000600 
 3790      06
 3791 0145 003FC03F 		.ascii	"\000?\300?\300\017\000\037\200\031\200\000\000\000\000"
 3791      C00F001F 
 3791      80198000 
 3791      000000
 3792 0154 00000000 		.ascii	"\000\000\000\000\000\000\000\000\000\000\000\000\000"
 3792      00000000 
 3792      00000000 
 3792      00
 3793 0161 00000000 		.ascii	"\000\000\000\000\000\004\000\004\000\004\000?\200\004"
 3793      00040004 
 3793      0004003F 
 3793      8004
 3794 016f 00040004 		.ascii	"\000\004\000\004\000\000\000\000\000\000\000\000\000"
 3794      00000000 
 3794      00000000 
 3794      00
 3795 017c 00000000 		.ascii	"\000\000\000\000\000\000\000\000\000\000\000\000\000"
 3795      00000000 
 3795      00000000 
 3795      00
 3796 0189 00000000 		.ascii	"\000\000\000\000\000\000\000\000\000\006\000\004\000"
 3796      00000000 
 3796      00060004 
 3796      00
 3797 0196 0C000800 		.ascii	"\014\000\010\000\010\000\000\000\000\000\000\000\000"
 3797      08000000 
 3797      00000000 
 3797      00
ARM GAS  C:\Users\DJESSOU\AppData\Local\Temp\ccR55SEh.s 			page 111


 3798 01a3 00000000 		.ascii	"\000\000\000\000\000\000\000\000\000?\200\000\000\000"
 3798      00000000 
 3798      003F8000 
 3798      0000
 3799 01b1 00000000 		.ascii	"\000\000\000\000\000\000\000\000\000\000\000\000\000"
 3799      00000000 
 3799      00000000 
 3799      00
 3800 01be 00000000 		.ascii	"\000\000\000\000\000\000\000\000\000\000\000\000\000"
 3800      00000000 
 3800      00000000 
 3800      00
 3801 01cb 00000000 		.ascii	"\000\000\000\000\000\000\000\014\000\014\000\000\000"
 3801      0000000C 
 3801      000C0000 
 3801      00
 3802 01d8 00000000 		.ascii	"\000\000\000\000\000\000\000\000\000\300\000\300\001"
 3802      00000000 
 3802      00C000C0 
 3802      01
 3803 01e5 80018003 		.ascii	"\200\001\200\003\000\003\000\006\000\014\000\014\000"
 3803      00030006 
 3803      000C000C 
 3803      00
 3804 01f2 18001800 		.ascii	"\030\000\030\0000\0000\000\000\000\000\000\000\000\000"
 3804      30003000 
 3804      00000000 
 3804      000000
 3805 0201 000E001B 		.ascii	"\000\016\000\033\0001\2001\2001\2001\2001\2001\200\033"
 3805      00318031 
 3805      80318031 
 3805      80318031 
 3805      801B
 3806 0213 000E0000 		.ascii	"\000\016\000\000\000\000\000\000\000\000\000\000\000"
 3806      00000000 
 3806      00000000 
 3806      00
 3807 0220 00000600 		.ascii	"\000\000\006\000>\000\006\000\006\000\006\000\006\000"
 3807      3E000600 
 3807      06000600 
 3807      0600
 3808 022e 06000600 		.ascii	"\006\000\006\000\006\000?\300\000\000\000\000\000\000"
 3808      06003FC0 
 3808      00000000 
 3808      0000
 3809 023c 00000000 		.ascii	"\000\000\000\000\000\000\017\000\031\2001\2001\200\003"
 3809      00000F00 
 3809      19803180 
 3809      318003
 3810 024b 0006000C 		.ascii	"\000\006\000\014\000\030\0000\000?\200\000\000\000\000"
 3810      00180030 
 3810      003F8000 
 3810      000000
 3811 025a 00000000 		.ascii	"\000\000\000\000\000\000\000\000?\000a\200\001\200\003"
 3811      00000000 
 3811      3F006180 
 3811      018003
ARM GAS  C:\Users\DJESSOU\AppData\Local\Temp\ccR55SEh.s 			page 112


 3812 0269 001F0003 		.ascii	"\000\037\000\003\200\001\200\001\200a\200?\000\000\000"
 3812      80018001 
 3812      8061803F 
 3812      000000
 3813 0278 00000000 		.ascii	"\000\000\000\000\000\000\000\000\000\000\007\000\007"
 3813      00000000 
 3813      00000700 
 3813      07
 3814 0285 000F000B 		.ascii	"\000\017\000\013\000\033\000\023\0003\000?\200\003\000"
 3814      001B0013 
 3814      0033003F 
 3814      800300
 3815 0294 0F800000 		.ascii	"\017\200\000\000\000\000\000\000\000\000\000\000\000"
 3815      00000000 
 3815      00000000 
 3815      00
 3816 02a1 001F8018 		.ascii	"\000\037\200\030\000\030\000\030\000\037\000\021\200"
 3816      00180018 
 3816      001F0011 
 3816      80
 3817 02ae 01800180 		.ascii	"\001\200\001\200!\200\037\000\000\000\000\000\000\000"
 3817      21801F00 
 3817      00000000 
 3817      0000
 3818 02bc 00000000 		.ascii	"\000\000\000\000\000\000\007\200\034\000\030\0000\000"
 3818      00000780 
 3818      1C001800 
 3818      3000
 3819 02ca 37003980 		.ascii	"7\0009\2001\2001\200\031\200\017\000\000\000\000\000"
 3819      31803180 
 3819      19800F00 
 3819      00000000 
 3820 02da 00000000 		.ascii	"\000\000\000\000\000\000\000\000\177\000C\000\003\000"
 3820      00000000 
 3820      7F004300 
 3820      0300
 3821 02e8 06000600 		.ascii	"\006\000\006\000\006\000\006\000\014\000\014\000\014"
 3821      06000600 
 3821      0C000C00 
 3821      0C
 3822 02f5 00000000 		.ascii	"\000\000\000\000\000\000\000\000\000\000\000\000\000"
 3822      00000000 
 3822      00000000 
 3822      00
 3823 0302 1F003180 		.ascii	"\037\0001\2001\2001\200\037\0001\2001\2001\2001\200"
 3823      31803180 
 3823      1F003180 
 3823      31803180 
 3823      3180
 3824 0314 1F000000 		.ascii	"\037\000\000\000\000\000\000\000\000\000\000\000\000"
 3824      00000000 
 3824      00000000 
 3824      00
 3825 0321 001E0033 		.ascii	"\000\036\0003\0001\2001\2003\200\035\200\001\200\003"
 3825      00318031 
 3825      8033801D 
 3825      80018003 
ARM GAS  C:\Users\DJESSOU\AppData\Local\Temp\ccR55SEh.s 			page 113


 3826 0331 0007003C 		.ascii	"\000\007\000<\000\000\000\000\000\000\000\000\000\000"
 3826      00000000 
 3826      00000000 
 3826      0000
 3827 033f 00000000 		.ascii	"\000\000\000\000\000\000\000\000\000\014\000\014\000"
 3827      00000000 
 3827      000C000C 
 3827      00
 3828 034c 00000000 		.ascii	"\000\000\000\000\000\000\014\000\014\000\000\000\000"
 3828      00000C00 
 3828      0C000000 
 3828      00
 3829 0359 00000000 		.ascii	"\000\000\000\000\000\000\000\000\000\000\000\000\000"
 3829      00000000 
 3829      00000000 
 3829      00
 3830 0366 00000300 		.ascii	"\000\000\003\000\003\000\000\000\000\000\000\000\006"
 3830      03000000 
 3830      00000000 
 3830      06
 3831 0373 00040008 		.ascii	"\000\004\000\010\000\010\000\000\000\000\000\000\000"
 3831      00080000 
 3831      00000000 
 3831      00
 3832 0380 00000000 		.ascii	"\000\000\000\000\000\300\003\000\004\000\030\000`\000"
 3832      00C00300 
 3832      04001800 
 3832      6000
 3833 038e 18000400 		.ascii	"\030\000\004\000\003\000\000\300\000\000\000\000\000"
 3833      030000C0 
 3833      00000000 
 3833      00
 3834 039b 00000000 		.ascii	"\000\000\000\000\000\000\000\000\000\000\000\000\000"
 3834      00000000 
 3834      00000000 
 3834      00
 3835 03a8 00007FC0 		.ascii	"\000\000\177\300\000\000\177\300\000\000\000\000\000"
 3835      00007FC0 
 3835      00000000 
 3835      00
 3836 03b5 00000000 		.ascii	"\000\000\000\000\000\000\000\000\000\000\000\000\000"
 3836      00000000 
 3836      00000000 
 3836      00
 3837 03c2 00006000 		.ascii	"\000\000`\000\030\000\004\000\003\000\000\300\003\000"
 3837      18000400 
 3837      030000C0 
 3837      0300
 3838 03d0 04001800 		.ascii	"\004\000\030\000`\000\000\000\000\000\000\000\000\000"
 3838      60000000 
 3838      00000000 
 3838      0000
 3839 03de 00000000 		.ascii	"\000\000\000\000\000\000\037\0001\2001\200\001\200\007"
 3839      00001F00 
 3839      31803180 
 3839      018007
 3840 03ed 000C000C 		.ascii	"\000\014\000\014\000\000\000\014\000\000\000\000\000"
ARM GAS  C:\Users\DJESSOU\AppData\Local\Temp\ccR55SEh.s 			page 114


 3840      0000000C 
 3840      00000000 
 3840      00
 3841 03fa 00000000 		.ascii	"\000\000\000\000\000\000\000\000\016\000\021\000!\000"
 3841      00000000 
 3841      0E001100 
 3841      2100
 3842 0408 21002700 		.ascii	"!\000'\000)\000)\000'\000 \000\021\000\016\000\000\000"
 3842      29002900 
 3842      27002000 
 3842      11000E00 
 3842      0000
 3843 041a 00000000 		.ascii	"\000\000\000\000\000\000\000\000\000\000?\000\017\000"
 3843      00000000 
 3843      00003F00 
 3843      0F00
 3844 0428 09001980 		.ascii	"\011\000\031\200\031\200\037\2000\3000\300y\340\000"
 3844      19801F80 
 3844      30C030C0 
 3844      79E000
 3845 0437 00000000 		.ascii	"\000\000\000\000\000\000\000\000\000\000\000\000\000"
 3845      00000000 
 3845      00000000 
 3845      00
 3846 0444 7F003180 		.ascii	"\177\0001\2001\2001\200?\0001\2001\2001\200\177\000"
 3846      31803180 
 3846      3F003180 
 3846      31803180 
 3846      7F00
 3847 0456 00000000 		.ascii	"\000\000\000\000\000\000\000\000\000\000\000\000\000"
 3847      00000000 
 3847      00000000 
 3847      00
 3848 0463 001F4030 		.ascii	"\000\037@0\300`@`\000`\000`\000`@0\200\037\000\000\000"
 3848      C0604060 
 3848      00600060 
 3848      00604030 
 3848      801F0000 
 3849 0478 00000000 		.ascii	"\000\000\000\000\000\000\000\000\000\000\000\000\177"
 3849      00000000 
 3849      00000000 
 3849      7F
 3850 0485 00318030 		.ascii	"\0001\2000\3000\3000\3000\3000\3001\200\177\000\000"
 3850      C030C030 
 3850      C030C030 
 3850      C031807F 
 3850      0000
 3851 0497 00000000 		.ascii	"\000\000\000\000\000\000\000\000\000\000\000\000\000"
 3851      00000000 
 3851      00000000 
 3851      00
 3852 04a4 7F803080 		.ascii	"\177\2000\2000\2002\000>\0002\0000\2000\200\177\200"
 3852      30803200 
 3852      3E003200 
 3852      30803080 
 3852      7F80
 3853 04b6 00000000 		.ascii	"\000\000\000\000\000\000\000\000\000\000\000\000\000"
ARM GAS  C:\Users\DJESSOU\AppData\Local\Temp\ccR55SEh.s 			page 115


 3853      00000000 
 3853      00000000 
 3853      00
 3854 04c3 007FC030 		.ascii	"\000\177\3000@0@2\000>\0002\0000\0000\000|\000\000\000"
 3854      40304032 
 3854      003E0032 
 3854      00300030 
 3854      007C0000 
 3855 04d8 00000000 		.ascii	"\000\000\000\000\000\000\000\000\000\000\000\000\036"
 3855      00000000 
 3855      00000000 
 3855      1E
 3856 04e5 80318060 		.ascii	"\2001\200`\200`\000`\000g\300a\2001\200\037\000\000"
 3856      80600060 
 3856      0067C061 
 3856      8031801F 
 3856      0000
 3857 04f7 00000000 		.ascii	"\000\000\000\000\000\000\000\000\000\000\000\000\000"
 3857      00000000 
 3857      00000000 
 3857      00
 3858 0504 7BC03180 		.ascii	"{\3001\2001\2001\200?\2001\2001\2001\200{\300\000\000"
 3858      31803180 
 3858      3F803180 
 3858      31803180 
 3858      7BC00000 
 3859 0518 00000000 		.ascii	"\000\000\000\000\000\000\000\000\000\000\000\000?\300"
 3859      00000000 
 3859      00000000 
 3859      3FC0
 3860 0526 06000600 		.ascii	"\006\000\006\000\006\000\006\000\006\000\006\000\006"
 3860      06000600 
 3860      06000600 
 3860      06
 3861 0533 003FC000 		.ascii	"\000?\300\000\000\000\000\000\000\000\000\000\000\000"
 3861      00000000 
 3861      00000000 
 3861      0000
 3862 0541 0000001F 		.ascii	"\000\000\000\037\300\003\000\003\000\003\000\003\000"
 3862      C0030003 
 3862      00030003 
 3862      00
 3863 054e 63006300 		.ascii	"c\000c\000c\000>\000\000\000\000\000\000\000\000\000"
 3863      63003E00 
 3863      00000000 
 3863      00000000 
 3864 055e 00000000 		.ascii	"\000\000\000\000\000\000{\3001\2003\0006\000<\000>\000"
 3864      00007BC0 
 3864      31803300 
 3864      36003C00 
 3864      3E00
 3865 0570 33003180 		.ascii	"3\0001\200y\300\000\000\000\000\000\000\000\000\000"
 3865      79C00000 
 3865      00000000 
 3865      000000
 3866 057f 00000000 		.ascii	"\000\000\000\000\000~\000\030\000\030\000\030\000\030"
 3866      007E0018 
ARM GAS  C:\Users\DJESSOU\AppData\Local\Temp\ccR55SEh.s 			page 116


 3866      00180018 
 3866      0018
 3867 058d 00184018 		.ascii	"\000\030@\030@\030@\177\300\000\000\000\000\000\000"
 3867      4018407F 
 3867      C0000000 
 3867      000000
 3868 059c 00000000 		.ascii	"\000\000\000\000\000\000\000\000\340\340`\300q\300{"
 3868      00000000 
 3868      E0E060C0 
 3868      71C07B
 3869 05ab C06AC06E 		.ascii	"\300j\300n\300d\300`\300\373\340\000\000\000\000\000"
 3869      C064C060 
 3869      C0FBE000 
 3869      00000000 
 3870 05bb 00000000 		.ascii	"\000\000\000\000\000\000\000\000\000s\3001\2009\200"
 3870      00000000 
 3870      0073C031 
 3870      803980
 3871 05ca 3D803580 		.ascii	"=\2005\2007\2003\2001\200y\200\000\000\000\000\000\000"
 3871      37803380 
 3871      31807980 
 3871      00000000 
 3871      0000
 3872 05dc 00000000 		.ascii	"\000\000\000\000\000\000\000\000\037\0001\200`\300`"
 3872      00000000 
 3872      1F003180 
 3872      60C060
 3873 05eb C060C060 		.ascii	"\300`\300`\300`\3001\200\037\000\000\000\000\000\000"
 3873      C060C031 
 3873      801F0000 
 3873      00000000 
 3874 05fb 00000000 		.ascii	"\000\000\000\000\000\000\000\000\000\177\0001\2001\200"
 3874      00000000 
 3874      007F0031 
 3874      803180
 3875 060a 31803180 		.ascii	"1\2001\200?\0000\0000\000~\000\000\000\000\000\000\000"
 3875      3F003000 
 3875      30007E00 
 3875      00000000 
 3875      0000
 3876 061c 00000000 		.ascii	"\000\000\000\000\000\000\000\000\037\0001\200`\300`"
 3876      00000000 
 3876      1F003180 
 3876      60C060
 3877 062b C060C060 		.ascii	"\300`\300`\300`\3001\200\037\000\014\300\037\200\000"
 3877      C060C031 
 3877      801F000C 
 3877      C01F8000 
 3878 063b 00000000 		.ascii	"\000\000\000\000\000\000\000\000\000\177\0001\2001\200"
 3878      00000000 
 3878      007F0031 
 3878      803180
 3879 064a 31803E00 		.ascii	"1\200>\0003\0001\2001\200|\340\000\000\000\000\000\000"
 3879      33003180 
 3879      31807CE0 
 3879      00000000 
 3879      0000
ARM GAS  C:\Users\DJESSOU\AppData\Local\Temp\ccR55SEh.s 			page 117


 3880 065c 00000000 		.ascii	"\000\000\000\000\000\000\000\000\037\2001\2001\2008"
 3880      00000000 
 3880      1F803180 
 3880      318038
 3881 066b 001F0003 		.ascii	"\000\037\000\003\2001\2001\200?\000\000\000\000\000"
 3881      80318031 
 3881      803F0000 
 3881      000000
 3882 067a 00000000 		.ascii	"\000\000\000\000\000\000\000\000\000\000\177\200L\200"
 3882      00000000 
 3882      00007F80 
 3882      4C80
 3883 0688 4C804C80 		.ascii	"L\200L\200\014\000\014\000\014\000\014\000?\000\000"
 3883      0C000C00 
 3883      0C000C00 
 3883      3F0000
 3884 0697 00000000 		.ascii	"\000\000\000\000\000\000\000\000\000\000\000\000\000"
 3884      00000000 
 3884      00000000 
 3884      00
 3885 06a4 7BC03180 		.ascii	"{\3001\2001\2001\2001\2001\2001\2001\200\037\000\000"
 3885      31803180 
 3885      31803180 
 3885      31803180 
 3885      1F0000
 3886 06b7 00000000 		.ascii	"\000\000\000\000\000\000\000\000\000\000\000\000\000"
 3886      00000000 
 3886      00000000 
 3886      00
 3887 06c4 7BC03180 		.ascii	"{\3001\2001\200\033\000\033\000\033\000\012\000\016"
 3887      31801B00 
 3887      1B001B00 
 3887      0A000E
 3888 06d3 000E0000 		.ascii	"\000\016\000\000\000\000\000\000\000\000\000\000\000"
 3888      00000000 
 3888      00000000 
 3888      00
 3889 06e0 00000000 		.ascii	"\000\000\000\000\373\340`\300d\300n\300n\300*\200;\200"
 3889      FBE060C0 
 3889      64C06EC0 
 3889      6EC02A80 
 3889      3B80
 3890 06f2 3B803180 		.ascii	";\2001\200\000\000\000\000\000\000\000\000\000\000\000"
 3890      00000000 
 3890      00000000 
 3890      000000
 3891 0701 0000007B 		.ascii	"\000\000\000{\3001\200\033\000\016\000\016\000\016\000"
 3891      C031801B 
 3891      000E000E 
 3891      000E00
 3892 0710 1B003180 		.ascii	"\033\0001\200{\300\000\000\000\000\000\000\000\000\000"
 3892      7BC00000 
 3892      00000000 
 3892      000000
 3893 071f 00000000 		.ascii	"\000\000\000\000\000y\3400\300\031\200\017\000\006\000"
 3893      0079E030 
 3893      C019800F 
ARM GAS  C:\Users\DJESSOU\AppData\Local\Temp\ccR55SEh.s 			page 118


 3893      000600
 3894 072e 06000600 		.ascii	"\006\000\006\000\006\000\037\200\000\000\000\000\000"
 3894      06001F80 
 3894      00000000 
 3894      00
 3895 073b 00000000 		.ascii	"\000\000\000\000\000\000\000\000\000?\200!\200#\000"
 3895      00000000 
 3895      003F8021 
 3895      802300
 3896 074a 06000400 		.ascii	"\006\000\004\000\014\000\030\2000\200?\200\000\000\000"
 3896      0C001880 
 3896      30803F80 
 3896      000000
 3897 0759 00000000 		.ascii	"\000\000\000\000\000\000\000\000\000\007\200\006\000"
 3897      00000000 
 3897      00078006 
 3897      00
 3898 0766 06000600 		.ascii	"\006\000\006\000\006\000\006\000\006\000\006\000\006"
 3898      06000600 
 3898      06000600 
 3898      06
 3899 0773 00060006 		.ascii	"\000\006\000\006\000\007\200\000\000\000\000\000\000"
 3899      00078000 
 3899      00000000 
 3899      00
 3900 0780 30003000 		.ascii	"0\0000\000\030\000\030\000\014\000\014\000\006\000\003"
 3900      18001800 
 3900      0C000C00 
 3900      060003
 3901 078f 00030001 		.ascii	"\000\003\000\001\200\001\200\000\300\000\300\000\000"
 3901      80018000 
 3901      C000C000 
 3901      00
 3902 079c 00000000 		.ascii	"\000\000\000\000\000\000\036\000\006\000\006\000\006"
 3902      00001E00 
 3902      06000600 
 3902      06
 3903 07a9 00060006 		.ascii	"\000\006\000\006\000\006\000\006\000\006\000\006\000"
 3903      00060006 
 3903      00060006 
 3903      00
 3904 07b6 06001E00 		.ascii	"\006\000\036\000\000\000\000\000\000\000\004\000\012"
 3904      00000000 
 3904      00000400 
 3904      0A
 3905 07c3 000A0011 		.ascii	"\000\012\000\021\000 \200 \200\000\000\000\000"
 3905      00208020 
 3905      80000000 
 3905      00
 3906 07d0 00000000 		.ascii	"\000\000\000\000\000\000\000\000\000\000\000\000\000"
 3906      00000000 
 3906      00000000 
 3906      00
 3907 07dd 00000000 		.ascii	"\000\000\000\000\000\000\000\000\000\000\000\000\000"
 3907      00000000 
 3907      00000000 
 3907      00
ARM GAS  C:\Users\DJESSOU\AppData\Local\Temp\ccR55SEh.s 			page 119


 3908 07ea 00000000 		.ascii	"\000\000\000\000\000\000\000\000\000\000\000\000\000"
 3908      00000000 
 3908      00000000 
 3908      00
 3909 07f7 00000000 		.ascii	"\000\000\000\000\000\000\000\377\340\010\000\004\000"
 3909      000000FF 
 3909      E0080004 
 3909      00
 3910 0804 02000000 		.ascii	"\002\000\000\000\000\000\000\000\000\000\000\000\000"
 3910      00000000 
 3910      00000000 
 3910      00
 3911 0811 00000000 		.ascii	"\000\000\000\000\000\000\000\000\000\000\000\000\000"
 3911      00000000 
 3911      00000000 
 3911      00
 3912 081e 00000000 		.ascii	"\000\000\000\000\000\000\000\000\000\000\037\000\001"
 3912      00000000 
 3912      00001F00 
 3912      01
 3913 082b 8001801F 		.ascii	"\200\001\200\037\2001\2003\200\035\300\000\000\000\000"
 3913      80318033 
 3913      801DC000 
 3913      000000
 3914 083a 00000000 		.ascii	"\000\000\000\000\000\000\000\000p\0000\0000\0007\000"
 3914      00000000 
 3914      70003000 
 3914      30003700 
 3915 084a 398030C0 		.ascii	"9\2000\3000\3000\3009\200w\000\000\000\000\000\000\000"
 3915      30C030C0 
 3915      39807700 
 3915      00000000 
 3915      0000
 3916 085c 00000000 		.ascii	"\000\000\000\000\000\000\000\000\000\000\000\000\036"
 3916      00000000 
 3916      00000000 
 3916      1E
 3917 0869 80318060 		.ascii	"\2001\200`\200`\000`\2001\200\037\000\000\000\000\000"
 3917      80600060 
 3917      8031801F 
 3917      00000000 
 3917      00
 3918 087a 00000000 		.ascii	"\000\000\000\000\000\000\000\000\003\200\001\200\001"
 3918      00000000 
 3918      03800180 
 3918      01
 3919 0887 801D8033 		.ascii	"\200\035\2003\200a\200a\200a\2003\200\035\300\000\000"
 3919      80618061 
 3919      80618033 
 3919      801DC000 
 3919      00
 3920 0898 00000000 		.ascii	"\000\000\000\000\000\000\000\000\000\000\000\000\000"
 3920      00000000 
 3920      00000000 
 3920      00
 3921 08a5 0000001F 		.ascii	"\000\000\000\037\0001\200`\300\177\300`\0000\300\037"
 3921      00318060 
ARM GAS  C:\Users\DJESSOU\AppData\Local\Temp\ccR55SEh.s 			page 120


 3921      C07FC060 
 3921      0030C01F 
 3922 08b5 80000000 		.ascii	"\200\000\000\000\000\000\000\000\000\000\000\000\000"
 3922      00000000 
 3922      00000000 
 3922      00
 3923 08c2 07E00C00 		.ascii	"\007\340\014\000\014\000?\200\014\000\014\000\014\000"
 3923      0C003F80 
 3923      0C000C00 
 3923      0C00
 3924 08d0 0C000C00 		.ascii	"\014\000\014\000?\200\000\000\000\000\000\000\000\000"
 3924      3F800000 
 3924      00000000 
 3924      0000
 3925 08de 00000000 		.ascii	"\000\000\000\000\000\000\000\000\000\000\035\3003\200"
 3925      00000000 
 3925      00001DC0 
 3925      3380
 3926 08ec 61806180 		.ascii	"a\200a\200a\2003\200\035\200\001\200\001\200\037\000"
 3926      61803380 
 3926      1D800180 
 3926      01801F00 
 3927 08fc 00000000 		.ascii	"\000\000\000\000\000\000p\0000\0000\0007\0009\2001\200"
 3927      00007000 
 3927      30003000 
 3927      37003980 
 3927      3180
 3928 090e 31803180 		.ascii	"1\2001\2001\200{\300\000\000\000\000\000\000\000\000"
 3928      31807BC0 
 3928      00000000 
 3928      00000000 
 3929 091e 00000000 		.ascii	"\000\000\000\000\006\000\006\000\000\000\036\000\006"
 3929      06000600 
 3929      00001E00 
 3929      06
 3930 092b 00060006 		.ascii	"\000\006\000\006\000\006\000\006\000?\300\000\000\000"
 3930      00060006 
 3930      003FC000 
 3930      0000
 3931 0939 00000000 		.ascii	"\000\000\000\000\000\000\000\000\000\006\000\006\000"
 3931      00000000 
 3931      00060006 
 3931      00
 3932 0946 00003F00 		.ascii	"\000\000?\000\003\000\003\000\003\000\003\000\003\000"
 3932      03000300 
 3932      03000300 
 3932      0300
 3933 0954 03000300 		.ascii	"\003\000\003\000\003\000>\000\000\000\000\000\000\000"
 3933      03003E00 
 3933      00000000 
 3933      0000
 3934 0962 70003000 		.ascii	"p\0000\0000\0007\2006\000<\000<\0006\0003\000w\300\000"
 3934      30003780 
 3934      36003C00 
 3934      3C003600 
 3934      330077C0 
 3935 0977 00000000 		.ascii	"\000\000\000\000\000\000\000\000\000\000\000\036\000"
ARM GAS  C:\Users\DJESSOU\AppData\Local\Temp\ccR55SEh.s 			page 121


 3935      00000000 
 3935      0000001E 
 3935      00
 3936 0984 06000600 		.ascii	"\006\000\006\000\006\000\006\000\006\000\006\000\006"
 3936      06000600 
 3936      06000600 
 3936      06
 3937 0991 0006003F 		.ascii	"\000\006\000?\300\000\000\000\000\000\000\000\000\000"
 3937      C0000000 
 3937      00000000 
 3937      0000
 3938 099f 00000000 		.ascii	"\000\000\000\000\000\000\000\000\000\177\2006\3006\300"
 3938      00000000 
 3938      007F8036 
 3938      C036C0
 3939 09ae 36C036C0 		.ascii	"6\3006\3006\300v\340\000\000\000\000\000\000\000\000"
 3939      36C076E0 
 3939      00000000 
 3939      00000000 
 3940 09be 00000000 		.ascii	"\000\000\000\000\000\000\000\000\000\000w\0009\2001"
 3940      00000000 
 3940      00007700 
 3940      398031
 3941 09cd 80318031 		.ascii	"\2001\2001\2001\200{\300\000\000\000\000\000\000\000"
 3941      8031807B 
 3941      C0000000 
 3941      00000000 
 3942 09dd 00000000 		.ascii	"\000\000\000\000\000\000\000\000\000\000\000\037\000"
 3942      00000000 
 3942      0000001F 
 3942      00
 3943 09ea 318060C0 		.ascii	"1\200`\300`\300`\3001\200\037\000\000\000\000\000\000"
 3943      60C060C0 
 3943      31801F00 
 3943      00000000 
 3943      00
 3944 09fb 00000000 		.ascii	"\000\000\000\000\000\000\000\000\000\000\000\000\000"
 3944      00000000 
 3944      00000000 
 3944      00
 3945 0a08 77003980 		.ascii	"w\0009\2000\3000\3000\3009\2007\0000\0000\000|\000\000"
 3945      30C030C0 
 3945      30C03980 
 3945      37003000 
 3945      30007C00 
 3946 0a1d 00000000 		.ascii	"\000\000\000\000\000\000\000\000\000\000\000\035\300"
 3946      00000000 
 3946      0000001D 
 3946      C0
 3947 0a2a 33806180 		.ascii	"3\200a\200a\200a\2003\200\035\200\001\200\001\200\007"
 3947      61806180 
 3947      33801D80 
 3947      01800180 
 3947      07
 3948 0a3b C0000000 		.ascii	"\300\000\000\000\000\000\000\000\000\000\000\000\000"
 3948      00000000 
 3948      00000000 
ARM GAS  C:\Users\DJESSOU\AppData\Local\Temp\ccR55SEh.s 			page 122


 3948      00
 3949 0a48 7B801CC0 		.ascii	"{\200\034\300\030\000\030\000\030\000\030\000\177\000"
 3949      18001800 
 3949      18001800 
 3949      7F00
 3950 0a56 00000000 		.ascii	"\000\000\000\000\000\000\000\000\000\000\000\000\000"
 3950      00000000 
 3950      00000000 
 3950      00
 3951 0a63 00000000 		.ascii	"\000\000\000\000\000\037\2001\200<\000\037\000\003\200"
 3951      001F8031 
 3951      803C001F 
 3951      000380
 3952 0a72 31803F00 		.ascii	"1\200?\000\000\000\000\000\000\000\000\000\000\000\000"
 3952      00000000 
 3952      00000000 
 3952      000000
 3953 0a81 00180018 		.ascii	"\000\030\000\030\000\030\000\177\000\030\000\030\000"
 3953      0018007F 
 3953      00180018 
 3953      00
 3954 0a8e 18001800 		.ascii	"\030\000\030\000\030\200\017\000\000\000\000\000\000"
 3954      18800F00 
 3954      00000000 
 3954      00
 3955 0a9b 00000000 		.ascii	"\000\000\000\000\000\000\000\000\000\000\000\000\000"
 3955      00000000 
 3955      00000000 
 3955      00
 3956 0aa8 73803180 		.ascii	"s\2001\2001\2001\2001\2003\200\035\300\000\000\000\000"
 3956      31803180 
 3956      31803380 
 3956      1DC00000 
 3956      0000
 3957 0aba 00000000 		.ascii	"\000\000\000\000\000\000\000\000\000\000\000\000\000"
 3957      00000000 
 3957      00000000 
 3957      00
 3958 0ac7 007BC031 		.ascii	"\000{\3001\2001\200\033\000\033\000\016\000\016\000"
 3958      8031801B 
 3958      001B000E 
 3958      000E00
 3959 0ad6 00000000 		.ascii	"\000\000\000\000\000\000\000\000\000\000\000\000\000"
 3959      00000000 
 3959      00000000 
 3959      00
 3960 0ae3 00000000 		.ascii	"\000\000\000\000\000\361\340`\300d\300n\300;\200;\200"
 3960      00F1E060 
 3960      C064C06E 
 3960      C03B803B 
 3960      80
 3961 0af4 31800000 		.ascii	"1\200\000\000\000\000\000\000\000\000\000\000\000\000"
 3961      00000000 
 3961      00000000 
 3961      0000
 3962 0b02 00000000 		.ascii	"\000\000\000\000\000\000{\300\033\000\016\000\016\000"
 3962      00007BC0 
ARM GAS  C:\Users\DJESSOU\AppData\Local\Temp\ccR55SEh.s 			page 123


 3962      1B000E00 
 3962      0E00
 3963 0b10 0E001B00 		.ascii	"\016\000\033\000{\300\000\000\000\000\000\000\000\000"
 3963      7BC00000 
 3963      00000000 
 3963      0000
 3964 0b1e 00000000 		.ascii	"\000\000\000\000\000\000\000\000\000\000y\3400\300\031"
 3964      00000000 
 3964      000079E0 
 3964      30C019
 3965 0b2d 8019800B 		.ascii	"\200\031\200\013\000\017\000\006\000\006\000\014\000"
 3965      000F0006 
 3965      0006000C 
 3965      00
 3966 0b3a 3E000000 		.ascii	">\000\000\000\000\000\000\000\000\000\000\000\000\000"
 3966      00000000 
 3966      00000000 
 3966      0000
 3967 0b48 3F802180 		.ascii	"?\200!\200\003\000\016\000\030\0000\200?\200\000\000"
 3967      03000E00 
 3967      18003080 
 3967      3F800000 
 3968 0b58 00000000 		.ascii	"\000\000\000\000\000\000\000\000\000\000\006\000\014"
 3968      00000000 
 3968      00000600 
 3968      0C
 3969 0b65 000C000C 		.ascii	"\000\014\000\014\000\014\000\014\000\030\000\014\000"
 3969      000C000C 
 3969      0018000C 
 3969      00
 3970 0b72 0C000C00 		.ascii	"\014\000\014\000\014\000\006\000\000\000\000\000\000"
 3970      0C000600 
 3970      00000000 
 3970      00
 3971 0b7f 00000006 		.ascii	"\000\000\000\006\000\006\000\006\000\006\000\006\000"
 3971      00060006 
 3971      00060006 
 3971      00
 3972 0b8c 06000600 		.ascii	"\006\000\006\000\006\000\006\000\006\000\006\000\006"
 3972      06000600 
 3972      06000600 
 3972      06
 3973 0b99 00000000 		.ascii	"\000\000\000\000\000\000\000\000\000\014\000\006\000"
 3973      00000000 
 3973      000C0006 
 3973      00
 3974 0ba6 06000600 		.ascii	"\006\000\006\000\006\000\006\000\003\000\006\000\006"
 3974      06000600 
 3974      03000600 
 3974      06
 3975 0bb3 00060006 		.ascii	"\000\006\000\006\000\014\000\000\000\000\000\000\000"
 3975      000C0000 
 3975      00000000 
 3975      00
 3976 0bc0 00000000 		.ascii	"\000\000\000\000\000\000\000\000\000\000\030\000$\200"
 3976      00000000 
 3976      00001800 
ARM GAS  C:\Users\DJESSOU\AppData\Local\Temp\ccR55SEh.s 			page 124


 3976      2480
 3977 0bce 03000000 		.ascii	"\003\000\000\000\000\000\000\000\000\000\000\000\000"
 3977      00000000 
 3977      00000000 
 3977      00
 3978 0bdb 00000000 		.ascii	"\000\000\000\000\000"
 3978      00
 3979              		.global	Font20
 3980              		.section	.data.Font20,"aw"
 3981              		.align	2
 3984              	Font20:
 3985 0000 00000000 		.word	Font20_Table
 3986 0004 0E00     		.short	14
 3987 0006 1400     		.short	20
 3988              		.global	Font20_Table
 3989              		.section	.rodata.Font20_Table,"a"
 3992              	Font20_Table:
 3993 0000 00000000 		.ascii	"\000\000\000\000\000\000\000\000\000\000\000\000\000"
 3993      00000000 
 3993      00000000 
 3993      00
 3994 000d 00000000 		.ascii	"\000\000\000\000\000\000\000\000\000\000\000\000\000"
 3994      00000000 
 3994      00000000 
 3994      00
 3995 001a 00000000 		.ascii	"\000\000\000\000\000\000\000\000\000\000\000\000\000"
 3995      00000000 
 3995      00000000 
 3995      00
 3996 0027 00000007 		.ascii	"\000\000\000\007\000\007\000\007\000\007\000\007\000"
 3996      00070007 
 3996      00070007 
 3996      00
 3997 0034 07000700 		.ascii	"\007\000\007\000\002\000\002\000\000\000\000\000\007"
 3997      02000200 
 3997      00000000 
 3997      07
 3998 0041 00070000 		.ascii	"\000\007\000\000\000\000\000\000\000\000\000\000\000"
 3998      00000000 
 3998      00000000 
 3998      00
 3999 004e 00000000 		.ascii	"\000\000\000\000\000\000\034\340\034\340\034\340\010"
 3999      00001CE0 
 3999      1CE01CE0 
 3999      08
 4000 005b 40084008 		.ascii	"@\010@\010@\000\000\000\000\000\000\000\000\000\000"
 4000      40000000 
 4000      00000000 
 4000      000000
 4001 006a 00000000 		.ascii	"\000\000\000\000\000\000\000\000\000\000\000\000\000"
 4001      00000000 
 4001      00000000 
 4001      00
 4002 0077 000CC00C 		.ascii	"\000\014\300\014\300\014\300\014\300\014\300?\360?\360"
 4002      C00CC00C 
 4002      C00CC03F 
 4002      F03FF0
ARM GAS  C:\Users\DJESSOU\AppData\Local\Temp\ccR55SEh.s 			page 125


 4003 0086 0CC00CC0 		.ascii	"\014\300\014\300?\360?\360\014\300\014\300\014\300\014"
 4003      3FF03FF0 
 4003      0CC00CC0 
 4003      0CC00C
 4004 0095 C00CC000 		.ascii	"\300\014\300\000\000\000\000\000\000\000\000\003\000"
 4004      00000000 
 4004      00000003 
 4004      00
 4005 00a2 030007E0 		.ascii	"\003\000\007\340\017\340\030`\030\000\037\000\017\300"
 4005      0FE01860 
 4005      18001F00 
 4005      0FC0
 4006 00b0 00E01860 		.ascii	"\000\340\030`\030`\037\300\037\200\003\000\003\000\003"
 4006      18601FC0 
 4006      1F800300 
 4006      030003
 4007 00bf 00000000 		.ascii	"\000\000\000\000\000\000\000\000\000\000\000\034\000"
 4007      00000000 
 4007      0000001C 
 4007      00
 4008 00cc 22002200 		.ascii	"\"\000\"\000\"\000\034`\001\340\017\200<\0001\300\002"
 4008      22001C60 
 4008      01E00F80 
 4008      3C0031C0 
 4008      02
 4009 00dd 20022002 		.ascii	" \002 \002 \001\300\000\000\000\000\000\000\000\000"
 4009      2001C000 
 4009      00000000 
 4009      000000
 4010 00ec 00000000 		.ascii	"\000\000\000\000\000\000\000\000\000\000\003\340\017"
 4010      00000000 
 4010      000003E0 
 4010      0F
 4011 00f9 E00C000C 		.ascii	"\340\014\000\014\000\006\000\0170\037\360\031\340\030"
 4011      0006000F 
 4011      301FF019 
 4011      E018
 4012 0107 C01FF007 		.ascii	"\300\037\360\007\260\000\000\000\000\000\000\000\000"
 4012      B0000000 
 4012      00000000 
 4012      00
 4013 0114 00000000 		.ascii	"\000\000\000\000\000\000\000\000\003\200\003\200\003"
 4013      00000000 
 4013      03800380 
 4013      03
 4014 0121 80010001 		.ascii	"\200\001\000\001\000\001\000\000\000\000\000\000\000"
 4014      00010000 
 4014      00000000 
 4014      00
 4015 012e 00000000 		.ascii	"\000\000\000\000\000\000\000\000\000\000\000\000\000"
 4015      00000000 
 4015      00000000 
 4015      00
 4016 013b 00000000 		.ascii	"\000\000\000\000\000\000\000\000\300\000\300\001\200"
 4016      00000000 
 4016      C000C001 
 4016      80
ARM GAS  C:\Users\DJESSOU\AppData\Local\Temp\ccR55SEh.s 			page 126


 4017 0148 01800180 		.ascii	"\001\200\001\200\003\000\003\000\003\000\003\000\003"
 4017      03000300 
 4017      03000300 
 4017      03
 4018 0155 00030001 		.ascii	"\000\003\000\001\200\001\200\001\200\000\300\000\300"
 4018      80018001 
 4018      8000C000 
 4018      C0
 4019 0162 00000000 		.ascii	"\000\000\000\000\000\000\000\000\014\000\014\000\006"
 4019      00000000 
 4019      0C000C00 
 4019      06
 4020 016f 00060006 		.ascii	"\000\006\000\006\000\003\000\003\000\003\000\003\000"
 4020      00030003 
 4020      00030003 
 4020      00
 4021 017c 03000300 		.ascii	"\003\000\003\000\006\000\006\000\006\000\014\000\014"
 4021      06000600 
 4021      06000C00 
 4021      0C
 4022 0189 00000000 		.ascii	"\000\000\000\000\000\000\000\000\000\003\000\003\000"
 4022      00000000 
 4022      00030003 
 4022      00
 4023 0196 03001B60 		.ascii	"\003\000\033`\037\340\007\200\007\200\017\300\014\300"
 4023      1FE00780 
 4023      07800FC0 
 4023      0CC0
 4024 01a4 00000000 		.ascii	"\000\000\000\000\000\000\000\000\000\000\000\000\000"
 4024      00000000 
 4024      00000000 
 4024      00
 4025 01b1 00000000 		.ascii	"\000\000\000\000\000\000\000\000\000\000\000\000\000"
 4025      00000000 
 4025      00000000 
 4025      00
 4026 01be 03000300 		.ascii	"\003\000\003\000\003\000\003\000?\360?\360\003\000\003"
 4026      03000300 
 4026      3FF03FF0 
 4026      030003
 4027 01cd 00030003 		.ascii	"\000\003\000\003\000\000\000\000\000\000\000\000\000"
 4027      00000000 
 4027      00000000 
 4027      00
 4028 01da 00000000 		.ascii	"\000\000\000\000\000\000\000\000\000\000\000\000\000"
 4028      00000000 
 4028      00000000 
 4028      00
 4029 01e7 00000000 		.ascii	"\000\000\000\000\000\000\000\000\000\000\000\000\000"
 4029      00000000 
 4029      00000000 
 4029      00
 4030 01f4 00000380 		.ascii	"\000\000\003\200\003\000\003\000\006\000\006\000\004"
 4030      03000300 
 4030      06000600 
 4030      04
 4031 0201 00000000 		.ascii	"\000\000\000\000\000\000\000\000\000\000\000\000\000"
ARM GAS  C:\Users\DJESSOU\AppData\Local\Temp\ccR55SEh.s 			page 127


 4031      00000000 
 4031      00000000 
 4031      00
 4032 020e 00000000 		.ascii	"\000\000\000\000\000\000\000\000?\340?\340\000\000\000"
 4032      00000000 
 4032      3FE03FE0 
 4032      000000
 4033 021d 00000000 		.ascii	"\000\000\000\000\000\000\000\000\000\000\000\000\000"
 4033      00000000 
 4033      00000000 
 4033      00
 4034 022a 00000000 		.ascii	"\000\000\000\000\000\000\000\000\000\000\000\000\000"
 4034      00000000 
 4034      00000000 
 4034      00
 4035 0237 00000000 		.ascii	"\000\000\000\000\000\000\000\000\000\000\000\000\000"
 4035      00000000 
 4035      00000000 
 4035      00
 4036 0244 00000380 		.ascii	"\000\000\003\200\003\200\003\200\000\000\000\000\000"
 4036      03800380 
 4036      00000000 
 4036      00
 4037 0251 00000000 		.ascii	"\000\000\000\000\000\000\000\000`\000`\000\300\000\300"
 4037      00000000 
 4037      60006000 
 4037      C000C0
 4038 0260 00C00180 		.ascii	"\000\300\001\200\001\200\003\000\003\000\006\000\006"
 4038      01800300 
 4038      03000600 
 4038      06
 4039 026d 000C000C 		.ascii	"\000\014\000\014\000\014\000\030\000\030\000\000\000"
 4039      000C0018 
 4039      00180000 
 4039      00
 4040 027a 00000000 		.ascii	"\000\000\000\000\000\000\000\000\017\200\037\300\030"
 4040      00000000 
 4040      0F801FC0 
 4040      18
 4041 0287 C0306030 		.ascii	"\3000`0`0`0`0`0`0`\030\300\037\300\017\200\000\000\000"
 4041      60306030 
 4041      60306030 
 4041      60306018 
 4041      C01FC00F 
 4042 029f 00000000 		.ascii	"\000\000\000\000\000\000\000\000\000\000\000\003\000"
 4042      00000000 
 4042      00000003 
 4042      00
 4043 02ac 1F001F00 		.ascii	"\037\000\037\000\003\000\003\000\003\000\003\000\003"
 4043      03000300 
 4043      03000300 
 4043      03
 4044 02b9 00030003 		.ascii	"\000\003\000\003\000\003\000\037\340\037\340\000\000"
 4044      0003001F 
 4044      E01FE000 
 4044      00
 4045 02c6 00000000 		.ascii	"\000\000\000\000\000\000\000\000\000\000\000\000\017"
ARM GAS  C:\Users\DJESSOU\AppData\Local\Temp\ccR55SEh.s 			page 128


 4045      00000000 
 4045      00000000 
 4045      0F
 4046 02d3 801FC038 		.ascii	"\200\037\3008\3400`\000`\000\300\001\200\003\000\006"
 4046      E0306000 
 4046      6000C001 
 4046      80030006 
 4047 02e3 000C0018 		.ascii	"\000\014\000\030\000?\340?\340\000\000\000\000\000\000"
 4047      003FE03F 
 4047      E0000000 
 4047      000000
 4048 02f2 00000000 		.ascii	"\000\000\000\000\000\000\000\000\017\200?\3000\340\000"
 4048      00000000 
 4048      0F803FC0 
 4048      30E000
 4049 0301 6000E007 		.ascii	"`\000\340\007\300\007\300\000\340\000`\000``\340\177"
 4049      C007C000 
 4049      E0006000 
 4049      6060E07F 
 4050 0311 C03F8000 		.ascii	"\300?\200\000\000\000\000\000\000\000\000\000\000\000"
 4050      00000000 
 4050      00000000 
 4050      0000
 4051 031f 00000001 		.ascii	"\000\000\000\001\300\003\300\003\300\006\300\014\300"
 4051      C003C003 
 4051      C006C00C 
 4051      C0
 4052 032c 0CC018C0 		.ascii	"\014\300\030\3000\300?\340?\340\000\300\003\340\003"
 4052      30C03FE0 
 4052      3FE000C0 
 4052      03E003
 4053 033b E0000000 		.ascii	"\340\000\000\000\000\000\000\000\000\000\000\000\000"
 4053      00000000 
 4053      00000000 
 4053      00
 4054 0348 00001FC0 		.ascii	"\000\000\037\300\037\300\030\000\030\000\037\200\037"
 4054      1FC01800 
 4054      18001F80 
 4054      1F
 4055 0355 C018E000 		.ascii	"\300\030\340\000`\000`\000`0\340?\300\037\200\000\000"
 4055      60006000 
 4055      6030E03F 
 4055      C01F8000 
 4055      00
 4056 0366 00000000 		.ascii	"\000\000\000\000\000\000\000\000\000\000\000\000\003"
 4056      00000000 
 4056      00000000 
 4056      03
 4057 0373 E00FE01E 		.ascii	"\340\017\340\036\000\030\0008\0007\200?\3008\3400`0"
 4057      00180038 
 4057      0037803F 
 4057      C038E030 
 4057      6030
 4058 0385 6018E01F 		.ascii	"`\030\340\037\300\007\200\000\000\000\000\000\000\000"
 4058      C0078000 
 4058      00000000 
 4058      0000
ARM GAS  C:\Users\DJESSOU\AppData\Local\Temp\ccR55SEh.s 			page 129


 4059 0393 00000000 		.ascii	"\000\000\000\000\000\000\000?\340?\3400`\000`\000\300"
 4059      0000003F 
 4059      E03FE030 
 4059      60006000 
 4059      C0
 4060 03a4 00C000C0 		.ascii	"\000\300\000\300\001\200\001\200\001\200\003\000\003"
 4060      01800180 
 4060      01800300 
 4060      03
 4061 03b1 00030000 		.ascii	"\000\003\000\000\000\000\000\000\000\000\000\000\000"
 4061      00000000 
 4061      00000000 
 4061      00
 4062 03be 00000000 		.ascii	"\000\000\000\000\017\200\037\3008\3400`8\340\037\300"
 4062      0F801FC0 
 4062      38E03060 
 4062      38E01FC0 
 4063 03ce 1FC038E0 		.ascii	"\037\3008\3400`0`8\340\037\300\017\200\000\000\000\000"
 4063      30603060 
 4063      38E01FC0 
 4063      0F800000 
 4063      0000
 4064 03e0 00000000 		.ascii	"\000\000\000\000\000\000\000\000\000\000\017\000\037"
 4064      00000000 
 4064      00000F00 
 4064      1F
 4065 03ed C038C030 		.ascii	"\3008\3000`0`8\340\037\340\017`\000\340\000\300\003"
 4065      60306038 
 4065      E01FE00F 
 4065      6000E000 
 4065      C003
 4066 03ff C03F803E 		.ascii	"\300?\200>\000\000\000\000\000\000\000\000\000\000\000"
 4066      00000000 
 4066      00000000 
 4066      000000
 4067 040e 00000000 		.ascii	"\000\000\000\000\000\000\000\000\000\000\000\000\003"
 4067      00000000 
 4067      00000000 
 4067      03
 4068 041b 80038003 		.ascii	"\200\003\200\003\200\000\000\000\000\000\000\003\200"
 4068      80000000 
 4068      00000003 
 4068      80
 4069 0428 03800380 		.ascii	"\003\200\003\200\000\000\000\000\000\000\000\000\000"
 4069      00000000 
 4069      00000000 
 4069      00
 4070 0435 00000000 		.ascii	"\000\000\000\000\000\000\000\000\000\000\000\000\000"
 4070      00000000 
 4070      00000000 
 4070      00
 4071 0442 01C001C0 		.ascii	"\001\300\001\300\001\300\000\000\000\000\000\000\003"
 4071      01C00000 
 4071      00000000 
 4071      03
 4072 044f 80030006 		.ascii	"\200\003\000\006\000\006\000\004\000\000\000\000\000"
 4072      00060004 
ARM GAS  C:\Users\DJESSOU\AppData\Local\Temp\ccR55SEh.s 			page 130


 4072      00000000 
 4072      00
 4073 045c 00000000 		.ascii	"\000\000\000\000\000\000\000\000\000\000\0000\000\360"
 4073      00000000 
 4073      00000030 
 4073      00F0
 4074 046a 03C00700 		.ascii	"\003\300\007\000\034\000x\000\034\000\007\000\003\300"
 4074      1C007800 
 4074      1C000700 
 4074      03C0
 4075 0478 00F00030 		.ascii	"\000\360\0000\000\000\000\000\000\000\000\000\000\000"
 4075      00000000 
 4075      00000000 
 4075      0000
 4076 0486 00000000 		.ascii	"\000\000\000\000\000\000\000\000\000\000\000\000\177"
 4076      00000000 
 4076      00000000 
 4076      7F
 4077 0493 F07FF000 		.ascii	"\360\177\360\000\000\000\000\177\360\177\360\000\000"
 4077      0000007F 
 4077      F07FF000 
 4077      00
 4078 04a0 00000000 		.ascii	"\000\000\000\000\000\000\000\000\000\000\000\000\000"
 4078      00000000 
 4078      00000000 
 4078      00
 4079 04ad 00000000 		.ascii	"\000\000\000\000\000\000\000\000\0000\000<\000\017\000"
 4079      00000000 
 4079      0030003C 
 4079      000F00
 4080 04bc 038000E0 		.ascii	"\003\200\000\340\000x\000\340\003\200\017\000<\0000"
 4080      007800E0 
 4080      03800F00 
 4080      3C0030
 4081 04cb 00000000 		.ascii	"\000\000\000\000\000\000\000\000\000\000\000\000\000"
 4081      00000000 
 4081      00000000 
 4081      00
 4082 04d8 00000000 		.ascii	"\000\000\000\000\017\200\037\300\030`\030`\000`\001"
 4082      0F801FC0 
 4082      18601860 
 4082      006001
 4083 04e7 C0038003 		.ascii	"\300\003\200\003\000\000\000\000\000\007\000\007\000"
 4083      00000000 
 4083      00070007 
 4083      00
 4084 04f4 00000000 		.ascii	"\000\000\000\000\000\000\000\000\000\000\000\000\000"
 4084      00000000 
 4084      00000000 
 4084      00
 4085 0501 0003800C 		.ascii	"\000\003\200\014\200\010@\020@\020@\021\300\022@\022"
 4085      80084010 
 4085      40104011 
 4085      C0124012 
 4086 0511 40124011 		.ascii	"@\022@\021\300\020\000\010\000\010@\007\200\000\000"
 4086      C0100008 
 4086      00084007 
ARM GAS  C:\Users\DJESSOU\AppData\Local\Temp\ccR55SEh.s 			page 131


 4086      800000
 4087 0520 00000000 		.ascii	"\000\000\000\000\000\000\000\000\000\000\000\000\037"
 4087      00000000 
 4087      00000000 
 4087      1F
 4088 052d 801F8003 		.ascii	"\200\037\200\003\200\006\300\006\300\014\300\014`\037"
 4088      8006C006 
 4088      C00CC00C 
 4088      601F
 4089 053b E01FE030 		.ascii	"\340\037\34000xxxx\000\000\000\000\000\000\000\000\000"
 4089      30787878 
 4089      78000000 
 4089      00000000 
 4089      0000
 4090 054d 00000000 		.ascii	"\000\000\000\000\000\000\000?\200?\300\030`\030`\030"
 4090      0000003F 
 4090      803FC018 
 4090      60186018 
 4091 055d E01FC01F 		.ascii	"\340\037\300\037\340\030p\0300\0300?\360?\340\000\000"
 4091      E0187018 
 4091      3018303F 
 4091      F03FE000 
 4091      00
 4092 056e 00000000 		.ascii	"\000\000\000\000\000\000\000\000\000\000\000\000\000"
 4092      00000000 
 4092      00000000 
 4092      00
 4093 057b 0007B00F 		.ascii	"\000\007\260\017\360\034p800\0000\0000\0000\00080\034"
 4093      F01C7038 
 4093      30300030 
 4093      00300030 
 4093      0038301C 
 4094 058f 700FE007 		.ascii	"p\017\340\007\300\000\000\000\000\000\000\000\000\000"
 4094      C0000000 
 4094      00000000 
 4094      0000
 4095 059d 00000000 		.ascii	"\000\000\000\000\000\000\000\177\200\177\3000\3400p"
 4095      0000007F 
 4095      807FC030 
 4095      E03070
 4096 05ac 30303030 		.ascii	"000000000p0\340\177\300\177\200\000\000\000\000\000"
 4096      30303030 
 4096      307030E0 
 4096      7FC07F80 
 4096      00000000 
 4097 05c1 00000000 		.ascii	"\000\000\000\000\000\000\000\000\000\000\000?\360?\360"
 4097      00000000 
 4097      0000003F 
 4097      F03FF0
 4098 05d0 18301830 		.ascii	"\0300\0300\031\200\037\200\037\200\031\200\0300\030"
 4098      19801F80 
 4098      1F801980 
 4098      183018
 4099 05df 303FF03F 		.ascii	"0?\360?\360\000\000\000\000\000\000\000\000\000\000"
 4099      F0000000 
 4099      00000000 
 4099      000000
ARM GAS  C:\Users\DJESSOU\AppData\Local\Temp\ccR55SEh.s 			page 132


 4100 05ee 00000000 		.ascii	"\000\000\000\000\000\000?\360?\360\0300\0300\031\200"
 4100      00003FF0 
 4100      3FF01830 
 4100      18301980 
 4101 05fe 1F801F80 		.ascii	"\037\200\037\200\031\200\030\000\030\000?\000?\000\000"
 4101      19801800 
 4101      18003F00 
 4101      3F0000
 4102 060d 00000000 		.ascii	"\000\000\000\000\000\000\000\000\000\000\000\000\000"
 4102      00000000 
 4102      00000000 
 4102      00
 4103 061a 000007B0 		.ascii	"\000\000\007\260\037\360\030p000\0000\0001\3701\370"
 4103      1FF01870 
 4103      30303000 
 4103      300031F8 
 4103      31F8
 4104 062c 30301830 		.ascii	"00\0300\037\360\007\300\000\000\000\000\000\000\000"
 4104      1FF007C0 
 4104      00000000 
 4104      000000
 4105 063b 00000000 		.ascii	"\000\000\000\000\000\000\000\000\000<\360<\360\030`"
 4105      00000000 
 4105      003CF03C 
 4105      F01860
 4106 064a 18601860 		.ascii	"\030`\030`\037\340\037\340\030`\030`\030`<\360<\360"
 4106      1FE01FE0 
 4106      18601860 
 4106      18603CF0 
 4106      3CF0
 4107 065c 00000000 		.ascii	"\000\000\000\000\000\000\000\000\000\000\000\000\000"
 4107      00000000 
 4107      00000000 
 4107      00
 4108 0669 0000001F 		.ascii	"\000\000\000\037\340\037\340\003\000\003\000\003\000"
 4108      E01FE003 
 4108      00030003 
 4108      00
 4109 0676 03000300 		.ascii	"\003\000\003\000\003\000\003\000\003\000\037\340\037"
 4109      03000300 
 4109      03001FE0 
 4109      1F
 4110 0683 E0000000 		.ascii	"\340\000\000\000\000\000\000\000\000\000\000\000\000"
 4110      00000000 
 4110      00000000 
 4110      00
 4111 0690 00000000 		.ascii	"\000\000\000\000\003\370\003\370\000`\000`\000`\000"
 4111      03F803F8 
 4111      00600060 
 4111      006000
 4112 069f 60306030 		.ascii	"`0`0`0`0\340?\300\017\200\000\000\000\000\000\000\000"
 4112      60306030 
 4112      E03FC00F 
 4112      80000000 
 4112      00000000 
 4113 06b3 00000000 		.ascii	"\000\000\000\000\000\000\000\000\000>\370>\370\030\340"
 4113      00000000 
ARM GAS  C:\Users\DJESSOU\AppData\Local\Temp\ccR55SEh.s 			page 133


 4113      003EF83E 
 4113      F818E0
 4114 06c2 19801B00 		.ascii	"\031\200\033\000\037\000\035\200\030\300\030\300\030"
 4114      1F001D80 
 4114      18C018C0 
 4114      18
 4115 06cf 603E783E 		.ascii	"`>x>8\000\000\000\000\000\000\000\000\000\000\000\000"
 4115      38000000 
 4115      00000000 
 4115      00000000 
 4115      00
 4116 06e0 00000000 		.ascii	"\000\000\000\000?\000?\000\014\000\014\000\014\000\014"
 4116      3F003F00 
 4116      0C000C00 
 4116      0C000C
 4117 06ef 000C000C 		.ascii	"\000\014\000\0140\0140\0140?\360?\360\000\000\000\000"
 4117      300C300C 
 4117      303FF03F 
 4117      F0000000 
 4117      00
 4118 0700 00000000 		.ascii	"\000\000\000\000\000\000\000\000\000\000\000\000xxx"
 4118      00000000 
 4118      00000000 
 4118      787878
 4119 070f 7838703C 		.ascii	"x8p<\3604\2607\2607\260303000|\370|\370\000\000\000"
 4119      F034B037 
 4119      B037B033 
 4119      30333030 
 4119      307CF87C 
 4120 0727 00000000 		.ascii	"\000\000\000\000\000\000\000\000\000\000\000\000\000"
 4120      00000000 
 4120      00000000 
 4120      00
 4121 0734 39F03DF0 		.ascii	"9\360=\360\034`\036`\036`\033`\033`\031\340\031\340"
 4121      1C601E60 
 4121      1E601B60 
 4121      1B6019E0 
 4121      19E0
 4122 0746 18E03EE0 		.ascii	"\030\340>\340>`\000\000\000\000\000\000\000\000\000"
 4122      3E600000 
 4122      00000000 
 4122      000000
 4123 0755 00000000 		.ascii	"\000\000\000\000\000\000\000\007\200\017\300\034\340"
 4123      00000007 
 4123      800FC01C 
 4123      E0
 4124 0762 38703030 		.ascii	"8p000000008p\034\340\017\300\007\200\000\000\000\000"
 4124      30303030 
 4124      30303870 
 4124      1CE00FC0 
 4124      07800000 
 4125 0778 00000000 		.ascii	"\000\000\000\000\000\000\000\000\000\000\000\000?\300"
 4125      00000000 
 4125      00000000 
 4125      3FC0
 4126 0786 3FE01870 		.ascii	"?\340\030p\0300\0300\030p\037\340\037\300\030\000\030"
 4126      18301830 
ARM GAS  C:\Users\DJESSOU\AppData\Local\Temp\ccR55SEh.s 			page 134


 4126      18701FE0 
 4126      1FC01800 
 4126      18
 4127 0797 003F003F 		.ascii	"\000?\000?\000\000\000\000\000\000\000\000\000\000\000"
 4127      00000000 
 4127      00000000 
 4127      000000
 4128 07a6 00000000 		.ascii	"\000\000\000\000\000\000\007\200\017\300\034\3408p0"
 4128      00000780 
 4128      0FC01CE0 
 4128      387030
 4129 07b5 30303030 		.ascii	"00000008p\034\340\017\300\007\200\007\260\017\360\014"
 4129      30303038 
 4129      701CE00F 
 4129      C0078007 
 4129      B00FF00C 
 4130 07c9 E0000000 		.ascii	"\340\000\000\000\000\000\000"
 4130      000000
 4131 07d0 00000000 		.ascii	"\000\000\000\000?\300?\340\030p\0300\030p\037\340\037"
 4131      3FC03FE0 
 4131      18701830 
 4131      18701FE0 
 4131      1F
 4132 07e1 C018E018 		.ascii	"\300\030\340\030`\030p>8>\030\000\000\000\000\000\000"
 4132      6018703E 
 4132      383E1800 
 4132      00000000 
 4132      00
 4133 07f2 00000000 		.ascii	"\000\000\000\000\000\000\000\000\000\000\017\260\037"
 4133      00000000 
 4133      00000FB0 
 4133      1F
 4134 07ff F0387030 		.ascii	"\3608p008\000\037\200\007\340\000p008p?\3407\300\000"
 4134      3038001F 
 4134      8007E000 
 4134      70303038 
 4134      703FE037 
 4135 0815 00000000 		.ascii	"\000\000\000\000\000\000\000\000\000\000\000\000\000"
 4135      00000000 
 4135      00000000 
 4135      00
 4136 0822 00003FF0 		.ascii	"\000\000?\360?\360303030\003\000\003\000\003\000\003"
 4136      3FF03330 
 4136      33303330 
 4136      03000300 
 4136      030003
 4137 0835 0003000F 		.ascii	"\000\003\000\017\300\017\300\000\000\000\000\000\000"
 4137      C00FC000 
 4137      00000000 
 4137      00
 4138 0842 00000000 		.ascii	"\000\000\000\000\000\000\000\000\000\000<\360<\360\030"
 4138      00000000 
 4138      00003CF0 
 4138      3CF018
 4139 0851 60186018 		.ascii	"`\030`\030`\030`\030`\030`\030`\034\340\017\300\007"
 4139      60186018 
 4139      60186018 
ARM GAS  C:\Users\DJESSOU\AppData\Local\Temp\ccR55SEh.s 			page 135


 4139      601CE00F 
 4139      C007
 4140 0863 80000000 		.ascii	"\200\000\000\000\000\000\000\000\000\000\000\000\000"
 4140      00000000 
 4140      00000000 
 4140      00
 4141 0870 00000000 		.ascii	"\000\000\000\000x\360x\3600`0`\030\300\030\300\015\200"
 4141      78F078F0 
 4141      30603060 
 4141      18C018C0 
 4141      0D80
 4142 0882 0D800D80 		.ascii	"\015\200\015\200\007\000\007\000\007\000\000\000\000"
 4142      07000700 
 4142      07000000 
 4142      00
 4143 088f 00000000 		.ascii	"\000\000\000\000\000\000\000\000\000\000\000\000\000"
 4143      00000000 
 4143      00000000 
 4143      00
 4144 089c 7C7C7C7C 		.ascii	"||||0\0303\2303\2303\2306\330\026\320\034p\034p\034"
 4144      30183398 
 4144      33983398 
 4144      36D816D0 
 4144      1C701C70 
 4145 08b1 70183000 		.ascii	"p\0300\000\000\000\000\000\000\000\000\000\000\000\000"
 4145      00000000 
 4145      00000000 
 4145      000000
 4146 08c0 00000000 		.ascii	"\000\000\000\000x\360x\3600`\030\300\015\200\007\000"
 4146      78F078F0 
 4146      306018C0 
 4146      0D800700 
 4147 08d0 07000D80 		.ascii	"\007\000\015\200\030\3000`x\360x\360\000\000\000\000"
 4147      18C03060 
 4147      78F078F0 
 4147      00000000 
 4148 08e0 00000000 		.ascii	"\000\000\000\000\000\000\000\000\000\000\000\000<\360"
 4148      00000000 
 4148      00000000 
 4148      3CF0
 4149 08ee 3CF01860 		.ascii	"<\360\030`\014\300\007\200\007\200\003\000\003\000\003"
 4149      0CC00780 
 4149      07800300 
 4149      030003
 4150 08fd 0003000F 		.ascii	"\000\003\000\017\300\017\300\000\000\000\000\000\000"
 4150      C00FC000 
 4150      00000000 
 4150      00
 4151 090a 00000000 		.ascii	"\000\000\000\000\000\000\000\000\000\000\037\340\037"
 4151      00000000 
 4151      00001FE0 
 4151      1F
 4152 0917 E0186018 		.ascii	"\340\030`\030\300\001\200\003\000\003\000\006\000\014"
 4152      C0018003 
 4152      00030006 
 4152      000C
 4153 0925 6018601F 		.ascii	"`\030`\037\340\037\340\000\000\000\000\000\000\000\000"
ARM GAS  C:\Users\DJESSOU\AppData\Local\Temp\ccR55SEh.s 			page 136


 4153      E01FE000 
 4153      00000000 
 4153      000000
 4154 0934 00000000 		.ascii	"\000\000\000\000\000\000\003\300\003\300\003\000\003"
 4154      000003C0 
 4154      03C00300 
 4154      03
 4155 0941 00030003 		.ascii	"\000\003\000\003\000\003\000\003\000\003\000\003\000"
 4155      00030003 
 4155      00030003 
 4155      00
 4156 094e 03000300 		.ascii	"\003\000\003\000\003\000\003\000\003\300\003\300\000"
 4156      03000300 
 4156      03C003C0 
 4156      00
 4157 095b 00000000 		.ascii	"\000\000\000\000\000\030\000\030\000\014\000\014\000"
 4157      00180018 
 4157      000C000C 
 4157      00
 4158 0968 0C000600 		.ascii	"\014\000\006\000\006\000\003\000\003\000\001\200\001"
 4158      06000300 
 4158      03000180 
 4158      01
 4159 0975 8000C000 		.ascii	"\200\000\300\000\300\000\300\000`\000`\000\000\000\000"
 4159      C000C000 
 4159      60006000 
 4159      000000
 4160 0984 00000000 		.ascii	"\000\000\000\000\000\000\017\000\017\000\003\000\003"
 4160      00000F00 
 4160      0F000300 
 4160      03
 4161 0991 00030003 		.ascii	"\000\003\000\003\000\003\000\003\000\003\000\003\000"
 4161      00030003 
 4161      00030003 
 4161      00
 4162 099e 03000300 		.ascii	"\003\000\003\000\003\000\003\000\017\000\017\000\000"
 4162      03000300 
 4162      0F000F00 
 4162      00
 4163 09ab 00000000 		.ascii	"\000\000\000\000\000\000\000\002\000\007\000\015\200"
 4163      00000002 
 4163      0007000D 
 4163      80
 4164 09b8 18C03060 		.ascii	"\030\3000`  \000\000\000\000\000\000\000\000\000\000"
 4164      20200000 
 4164      00000000 
 4164      00000000 
 4165 09c8 00000000 		.ascii	"\000\000\000\000\000\000\000\000\000\000\000\000\000"
 4165      00000000 
 4165      00000000 
 4165      00
 4166 09d5 00000000 		.ascii	"\000\000\000\000\000\000\000\000\000\000\000\000\000"
 4166      00000000 
 4166      00000000 
 4166      00
 4167 09e2 00000000 		.ascii	"\000\000\000\000\000\000\000\000\000\000\000\000\000"
 4167      00000000 
ARM GAS  C:\Users\DJESSOU\AppData\Local\Temp\ccR55SEh.s 			page 137


 4167      00000000 
 4167      00
 4168 09ef 00000000 		.ascii	"\000\000\000\000\000\000\000\000\000\000\000\000\000"
 4168      00000000 
 4168      00000000 
 4168      00
 4169 09fc FFFCFFFC 		.ascii	"\377\374\377\374\000\000\004\000\003\000\000\200\000"
 4169      00000400 
 4169      03000080 
 4169      00
 4170 0a09 00000000 		.ascii	"\000\000\000\000\000\000\000\000\000\000\000\000\000"
 4170      00000000 
 4170      00000000 
 4170      00
 4171 0a16 00000000 		.ascii	"\000\000\000\000\000\000\000\000\000\000\000\000\000"
 4171      00000000 
 4171      00000000 
 4171      00
 4172 0a23 00000000 		.ascii	"\000\000\000\000\000\000\000\000\000\000\000\000\000"
 4172      00000000 
 4172      00000000 
 4172      00
 4173 0a30 00000FC0 		.ascii	"\000\000\017\300\037\340\000`\017\340\037\3408`0\340"
 4173      1FE00060 
 4173      0FE01FE0 
 4173      386030E0 
 4174 0a40 3FF01F70 		.ascii	"?\360\037p\000\000\000\000\000\000\000\000\000\000\000"
 4174      00000000 
 4174      00000000 
 4174      000000
 4175 0a4f 00000070 		.ascii	"\000\000\000p\000p\0000\0000\0007\200?\3408`0000008"
 4175      00700030 
 4175      00300037 
 4175      803FE038 
 4175      60303030 
 4176 0a67 607FE077 		.ascii	"`\177\340w\200\000\000\000\000\000\000\000\000\000\000"
 4176      80000000 
 4176      00000000 
 4176      000000
 4177 0a76 00000000 		.ascii	"\000\000\000\000\000\000\000\000\000\000\000\000\007"
 4177      00000000 
 4177      00000000 
 4177      07
 4178 0a83 B01FF018 		.ascii	"\260\037\360\0300000\0000\00080\037\360\017\300\000"
 4178      30303030 
 4178      00300038 
 4178      301FF00F 
 4178      C000
 4179 0a95 00000000 		.ascii	"\000\000\000\000\000\000\000\000\000\000\000\000\000"
 4179      00000000 
 4179      00000000 
 4179      00
 4180 0aa2 00700070 		.ascii	"\000p\000p\0000\0000\007\260\037\360\030p0000008p\037"
 4180      00300030 
 4180      07B01FF0 
 4180      18703030 
 4180      30303030 
ARM GAS  C:\Users\DJESSOU\AppData\Local\Temp\ccR55SEh.s 			page 138


 4181 0ab9 F807B800 		.ascii	"\370\007\270\000\000\000\000\000\000\000\000\000\000"
 4181      00000000 
 4181      00000000 
 4181      00
 4182 0ac6 00000000 		.ascii	"\000\000\000\000\000\000\000\000\000\000\000\000\007"
 4182      00000000 
 4182      00000000 
 4182      07
 4183 0ad3 801FE018 		.ascii	"\200\037\340\030`?\360?\3600\000\0300\037\360\007\300"
 4183      603FF03F 
 4183      F0300018 
 4183      301FF007 
 4183      C0
 4184 0ae4 00000000 		.ascii	"\000\000\000\000\000\000\000\000\000\000\000\000\000"
 4184      00000000 
 4184      00000000 
 4184      00
 4185 0af1 0003F007 		.ascii	"\000\003\360\007\360\006\000\006\000\037\340\037\340"
 4185      F0060006 
 4185      001FE01F 
 4185      E0
 4186 0afe 06000600 		.ascii	"\006\000\006\000\006\000\006\000\006\000\037\340\037"
 4186      06000600 
 4186      06001FE0 
 4186      1F
 4187 0b0b E0000000 		.ascii	"\340\000\000\000\000\000\000\000\000\000\000\000\000"
 4187      00000000 
 4187      00000000 
 4187      00
 4188 0b18 00000000 		.ascii	"\000\000\000\000\000\000\000\000\000\000\007\270\037"
 4188      00000000 
 4188      000007B8 
 4188      1F
 4189 0b25 F8187030 		.ascii	"\370\030p000000\030p\037\360\007\260\0000\000p\017\340"
 4189      30303030 
 4189      3018701F 
 4189      F007B000 
 4189      3000700F 
 4190 0b3a 0FC00000 		.ascii	"\017\300\000\000\000\000\000\0008\0008\000\030\000\030"
 4190      00000000 
 4190      38003800 
 4190      180018
 4191 0b49 001BC01F 		.ascii	"\000\033\300\037\340\034`\030`\030`\030`\030`<\360<"
 4191      E01C6018 
 4191      60186018 
 4191      6018603C 
 4191      F03C
 4192 0b5b F0000000 		.ascii	"\360\000\000\000\000\000\000\000\000\000\000\000\000"
 4192      00000000 
 4192      00000000 
 4192      00
 4193 0b68 00000300 		.ascii	"\000\000\003\000\003\000\000\000\000\000\037\000\037"
 4193      03000000 
 4193      00001F00 
 4193      1F
 4194 0b75 00030003 		.ascii	"\000\003\000\003\000\003\000\003\000\003\000\037\340"
 4194      00030003 
ARM GAS  C:\Users\DJESSOU\AppData\Local\Temp\ccR55SEh.s 			page 139


 4194      0003001F 
 4194      E0
 4195 0b82 1FE00000 		.ascii	"\037\340\000\000\000\000\000\000\000\000\000\000\000"
 4195      00000000 
 4195      00000000 
 4195      00
 4196 0b8f 00000003 		.ascii	"\000\000\000\003\000\003\000\000\000\000\000\037\300"
 4196      00030000 
 4196      0000001F 
 4196      C0
 4197 0b9c 1FC000C0 		.ascii	"\037\300\000\300\000\300\000\300\000\300\000\300\000"
 4197      00C000C0 
 4197      00C000C0 
 4197      00
 4198 0ba9 C000C000 		.ascii	"\300\000\300\000\300\001\300?\200?\000\000\000\000\000"
 4198      C001C03F 
 4198      803F0000 
 4198      000000
 4199 0bb8 00003800 		.ascii	"\000\0008\0008\000\030\000\030\000\033\340\033\340\033"
 4199      38001800 
 4199      18001BE0 
 4199      1BE01B
 4200 0bc7 001E001E 		.ascii	"\000\036\000\036\000\033\000\031\2009\3609\360\000\000"
 4200      001B0019 
 4200      8039F039 
 4200      F00000
 4201 0bd6 00000000 		.ascii	"\000\000\000\000\000\000\000\000\000\000\000\000\037"
 4201      00000000 
 4201      00000000 
 4201      1F
 4202 0be3 001F0003 		.ascii	"\000\037\000\003\000\003\000\003\000\003\000\003\000"
 4202      00030003 
 4202      00030003 
 4202      00
 4203 0bf0 03000300 		.ascii	"\003\000\003\000\003\000\003\000\037\340\037\340\000"
 4203      03000300 
 4203      1FE01FE0 
 4203      00
 4204 0bfd 00000000 		.ascii	"\000\000\000\000\000\000\000\000\000\000\000\000\000"
 4204      00000000 
 4204      00000000 
 4204      00
 4205 0c0a 00000000 		.ascii	"\000\000\000\000\000\000\000\000~\340\177\360303030"
 4205      00000000 
 4205      7EE07FF0 
 4205      33303330 
 4205      3330
 4206 0c1c 33303330 		.ascii	"3030{\270{\270\000\000\000\000\000\000\000\000\000\000"
 4206      7BB87BB8 
 4206      00000000 
 4206      00000000 
 4206      0000
 4207 0c2e 00000000 		.ascii	"\000\000\000\000\000\000\000\000\000\000\000\000;\300"
 4207      00000000 
 4207      00000000 
 4207      3BC0
 4208 0c3c 3FE01C60 		.ascii	"?\340\034`\030`\030`\030`\030`<\360<\360\000\000\000"
ARM GAS  C:\Users\DJESSOU\AppData\Local\Temp\ccR55SEh.s 			page 140


 4208      18601860 
 4208      18601860 
 4208      3CF03CF0 
 4208      000000
 4209 0c4f 00000000 		.ascii	"\000\000\000\000\000\000\000\000\000\000\000\000\000"
 4209      00000000 
 4209      00000000 
 4209      00
 4210 0c5c 00000000 		.ascii	"\000\000\000\000\000\000\007\200\037\340\030`000000"
 4210      00000780 
 4210      1FE01860 
 4210      30303030 
 4210      3030
 4211 0c6e 18601FE0 		.ascii	"\030`\037\340\007\200\000\000\000\000\000\000\000\000"
 4211      07800000 
 4211      00000000 
 4211      0000
 4212 0c7c 00000000 		.ascii	"\000\000\000\000\000\000\000\000\000\000\000\000\000"
 4212      00000000 
 4212      00000000 
 4212      00
 4213 0c89 0077807F 		.ascii	"\000w\200\177\3408`0000008`?\3407\2000\0000\000|\000"
 4213      E0386030 
 4213      30303030 
 4213      3038603F 
 4213      E0378030 
 4214 0ca2 7C000000 		.ascii	"|\000\000\000\000\000\000\000\000\000\000\000\000\000"
 4214      00000000 
 4214      00000000 
 4214      0000
 4215 0cb0 000007B8 		.ascii	"\000\000\007\270\037\370\030p000000\030p\037\360\007"
 4215      1FF81870 
 4215      30303030 
 4215      30301870 
 4215      1FF007
 4216 0cc3 B0003000 		.ascii	"\260\0000\0000\000\370\000\370\000\000\000\000\000\000"
 4216      3000F800 
 4216      F8000000 
 4216      000000
 4217 0cd2 00000000 		.ascii	"\000\000\000\000\000\000\000\000<\340=\360\0170\016"
 4217      00000000 
 4217      3CE03DF0 
 4217      0F300E
 4218 0ce1 000C000C 		.ascii	"\000\014\000\014\000\014\000?\300?\300\000\000\000\000"
 4218      000C003F 
 4218      C03FC000 
 4218      000000
 4219 0cf0 00000000 		.ascii	"\000\000\000\000\000\000\000\000\000\000\000\000\000"
 4219      00000000 
 4219      00000000 
 4219      00
 4220 0cfd 00000000 		.ascii	"\000\000\000\000\000\007\340\037\340\030`\036\000\017"
 4220      0007E01F 
 4220      E018601E 
 4220      000F
 4221 0d0b C001E018 		.ascii	"\300\001\340\030`\037\340\037\200\000\000\000\000\000"
 4221      601FE01F 
ARM GAS  C:\Users\DJESSOU\AppData\Local\Temp\ccR55SEh.s 			page 141


 4221      80000000 
 4221      0000
 4222 0d19 00000000 		.ascii	"\000\000\000\000\000\000\000\000\000\000\000\014\000"
 4222      00000000 
 4222      0000000C 
 4222      00
 4223 0d26 0C000C00 		.ascii	"\014\000\014\000?\340?\340\014\000\014\000\014\000\014"
 4223      3FE03FE0 
 4223      0C000C00 
 4223      0C000C
 4224 0d35 000C300F 		.ascii	"\000\0140\017\360\007\300\000\000\000\000\000\000\000"
 4224      F007C000 
 4224      00000000 
 4224      0000
 4225 0d43 00000000 		.ascii	"\000\000\000\000\000\000\000\000\000\000\000\000\000"
 4225      00000000 
 4225      00000000 
 4225      00
 4226 0d50 000038E0 		.ascii	"\000\0008\3408\340\030`\030`\030`\030`\030\340\037\360"
 4226      38E01860 
 4226      18601860 
 4226      186018E0 
 4226      1FF0
 4227 0d62 0F700000 		.ascii	"\017p\000\000\000\000\000\000\000\000\000\000\000\000"
 4227      00000000 
 4227      00000000 
 4227      0000
 4228 0d70 00000000 		.ascii	"\000\000\000\000\000\000\000\000\000\000x\360x\3600"
 4228      00000000 
 4228      000078F0 
 4228      78F030
 4229 0d7f 6018C018 		.ascii	"`\030\300\030\300\015\200\015\200\007\000\007\000\000"
 4229      C00D800D 
 4229      80070007 
 4229      0000
 4230 0d8d 00000000 		.ascii	"\000\000\000\000\000\000\000\000\000\000\000\000\000"
 4230      00000000 
 4230      00000000 
 4230      00
 4231 0d9a 00000000 		.ascii	"\000\000\000\000\000\000\000\000x\360x\3602`2`7\340"
 4231      00000000 
 4231      78F078F0 
 4231      32603260 
 4231      37E0
 4232 0dac 1DC01DC0 		.ascii	"\035\300\035\300\030\300\030\300\000\000\000\000\000"
 4232      18C018C0 
 4232      00000000 
 4232      00
 4233 0db9 00000000 		.ascii	"\000\000\000\000\000\000\000\000\000\000\000\000\000"
 4233      00000000 
 4233      00000000 
 4233      00
 4234 0dc6 00000000 		.ascii	"\000\000\000\000<\360<\360\014\300\007\200\003\000\007"
 4234      3CF03CF0 
 4234      0CC00780 
 4234      030007
 4235 0dd5 800CC03C 		.ascii	"\200\014\300<\360<\360\000\000\000\000\000\000\000\000"
ARM GAS  C:\Users\DJESSOU\AppData\Local\Temp\ccR55SEh.s 			page 142


 4235      F03CF000 
 4235      00000000 
 4235      000000
 4236 0de4 00000000 		.ascii	"\000\000\000\000\000\000\000\000\000\000\000\000\000"
 4236      00000000 
 4236      00000000 
 4236      00
 4237 0df1 0078F078 		.ascii	"\000x\360x\3600`\030\300\030\300\015\200\017\200\007"
 4237      F0306018 
 4237      C018C00D 
 4237      800F8007 
 4238 0e01 00060006 		.ascii	"\000\006\000\006\000\014\000\177\000\177\000\000\000"
 4238      000C007F 
 4238      007F0000 
 4238      00
 4239 0e0e 00000000 		.ascii	"\000\000\000\000\000\000\000\000\000\000\000\000\037"
 4239      00000000 
 4239      00000000 
 4239      1F
 4240 0e1b E01FE018 		.ascii	"\340\037\340\030\300\001\200\003\000\006\000\014`\037"
 4240      C0018003 
 4240      0006000C 
 4240      601F
 4241 0e29 E01FE000 		.ascii	"\340\037\340\000\000\000\000\000\000\000\000\000\000"
 4241      00000000 
 4241      00000000 
 4241      00
 4242 0e36 00000000 		.ascii	"\000\000\000\000\001\300\003\300\003\000\003\000\003"
 4242      01C003C0 
 4242      03000300 
 4242      03
 4243 0e43 00030003 		.ascii	"\000\003\000\003\000\007\000\016\000\007\000\003\000"
 4243      0007000E 
 4243      00070003 
 4243      00
 4244 0e50 03000300 		.ascii	"\003\000\003\000\003\000\003\300\001\300\000\000\000"
 4244      030003C0 
 4244      01C00000 
 4244      00
 4245 0e5d 00000000 		.ascii	"\000\000\000\000\000\003\000\003\000\003\000\003\000"
 4245      00030003 
 4245      00030003 
 4245      00
 4246 0e6a 03000300 		.ascii	"\003\000\003\000\003\000\003\000\003\000\003\000\003"
 4246      03000300 
 4246      03000300 
 4246      03
 4247 0e77 00030003 		.ascii	"\000\003\000\003\000\003\000\003\000\003\000\000\000"
 4247      00030003 
 4247      00030000 
 4247      00
 4248 0e84 00000000 		.ascii	"\000\000\000\000\000\000\034\000\036\000\006\000\006"
 4248      00001C00 
 4248      1E000600 
 4248      06
 4249 0e91 00060006 		.ascii	"\000\006\000\006\000\006\000\007\000\003\200\007\000"
 4249      00060007 
ARM GAS  C:\Users\DJESSOU\AppData\Local\Temp\ccR55SEh.s 			page 143


 4249      00038007 
 4249      00
 4250 0e9e 06000600 		.ascii	"\006\000\006\000\006\000\006\000\036\000\034\000\000"
 4250      06000600 
 4250      1E001C00 
 4250      00
 4251 0eab 00000000 		.ascii	"\000\000\000\000\000\000\000\000\000\000\000\000\000"
 4251      00000000 
 4251      00000000 
 4251      00
 4252 0eb8 00000000 		.ascii	"\000\000\000\000\016\000?03\360\001\340\000\000\000"
 4252      0E003F30 
 4252      33F001E0 
 4252      000000
 4253 0ec7 00000000 		.ascii	"\000\000\000\000\000\000\000\000\000\000\000\000\000"
 4253      00000000 
 4253      00000000 
 4253      00
 4254 0ed4 00000000 		.ascii	"\000\000\000\000"
 4255              		.global	Font24
 4256              		.section	.data.Font24,"aw"
 4257              		.align	2
 4260              	Font24:
 4261 0000 00000000 		.word	Font24_Table
 4262 0004 1100     		.short	17
 4263 0006 1800     		.short	24
 4264              		.global	Font24_Table
 4265              		.section	.rodata.Font24_Table,"a"
 4268              	Font24_Table:
 4269 0000 00000000 		.ascii	"\000\000\000\000\000\000\000\000\000\000\000\000\000"
 4269      00000000 
 4269      00000000 
 4269      00
 4270 000d 00000000 		.ascii	"\000\000\000\000\000\000\000\000\000\000\000\000\000"
 4270      00000000 
 4270      00000000 
 4270      00
 4271 001a 00000000 		.ascii	"\000\000\000\000\000\000\000\000\000\000\000\000\000"
 4271      00000000 
 4271      00000000 
 4271      00
 4272 0027 00000000 		.ascii	"\000\000\000\000\000\000\000\000\000\000\000\000\000"
 4272      00000000 
 4272      00000000 
 4272      00
 4273 0034 00000000 		.ascii	"\000\000\000\000\000\000\000\000\000\000\000\000\000"
 4273      00000000 
 4273      00000000 
 4273      00
 4274 0041 00000000 		.ascii	"\000\000\000\000\000\000\000\000\000\000\000\000\000"
 4274      00000000 
 4274      00000000 
 4274      00
 4275 004e 03800003 		.ascii	"\003\200\000\003\200\000\003\200\000\003\200\000\003"
 4275      80000380 
 4275      00038000 
 4275      03
ARM GAS  C:\Users\DJESSOU\AppData\Local\Temp\ccR55SEh.s 			page 144


 4276 005b 80000380 		.ascii	"\200\000\003\200\000\003\200\000\003\200\000\003\200"
 4276      00038000 
 4276      03800003 
 4276      80
 4277 0068 00010000 		.ascii	"\000\001\000\000\001\000\000\000\000\000\000\000\000"
 4277      01000000 
 4277      00000000 
 4277      00
 4278 0075 03800003 		.ascii	"\003\200\000\003\200\000\000\000\000\000\000\000\000"
 4278      80000000 
 4278      00000000 
 4278      00
 4279 0082 00000000 		.ascii	"\000\000\000\000\000\000\000\000\000\000\000\000\000"
 4279      00000000 
 4279      00000000 
 4279      00
 4280 008f 00000000 		.ascii	"\000\000\000\000\000\000\000\000\000\000\016p\000\016"
 4280      00000000 
 4280      00000E70 
 4280      000E
 4281 009d 70000E70 		.ascii	"p\000\016p\000\004 \000\004 \000\004 \000\004 \000\000"
 4281      00042000 
 4281      04200004 
 4281      20000420 
 4281      0000
 4282 00af 00000000 		.ascii	"\000\000\000\000\000\000\000\000\000\000\000\000\000"
 4282      00000000 
 4282      00000000 
 4282      00
 4283 00bc 00000000 		.ascii	"\000\000\000\000\000\000\000\000\000\000\000\000\000"
 4283      00000000 
 4283      00000000 
 4283      00
 4284 00c9 00000000 		.ascii	"\000\000\000\000\000\000\000\000\000\000\000\000\000"
 4284      00000000 
 4284      00000000 
 4284      00
 4285 00d6 00000000 		.ascii	"\000\000\000\000\000\000\000\000\006`\000\006`\000\006"
 4285      00000000 
 4285      06600006 
 4285      600006
 4286 00e5 60000660 		.ascii	"`\000\006`\000\006`\000?\370\000?\370\000\006`\000\014"
 4286      00066000 
 4286      3FF8003F 
 4286      F8000660 
 4286      000C
 4287 00f7 C0003FF8 		.ascii	"\300\000?\370\000?\370\000\014\300\000\014\300\000\014"
 4287      003FF800 
 4287      0CC0000C 
 4287      C0000C
 4288 0106 C0000CC0 		.ascii	"\300\000\014\300\000\014\300\000\000\000\000\000\000"
 4288      000CC000 
 4288      00000000 
 4288      00
 4289 0113 00000000 		.ascii	"\000\000\000\000\000\000\000\000\000\000\000\000\000"
 4289      00000000 
 4289      00000000 
ARM GAS  C:\Users\DJESSOU\AppData\Local\Temp\ccR55SEh.s 			page 145


 4289      00
 4290 0120 00000001 		.ascii	"\000\000\000\001\200\000\001\200\000\007\260\000\017"
 4290      80000180 
 4290      0007B000 
 4290      0F
 4291 012d F0001870 		.ascii	"\360\000\030p\000\030p\000\034\000\000\017\200\000\007"
 4291      00187000 
 4291      1C00000F 
 4291      800007
 4292 013c E00000F0 		.ascii	"\340\000\000\360\000\0300\000\0340\000\034p\000\037"
 4292      00183000 
 4292      1C30001C 
 4292      70001F
 4293 014b E0001BC0 		.ascii	"\340\000\033\300\000\001\200\000\001\200\000\001\200"
 4293      00018000 
 4293      01800001 
 4293      80
 4294 0158 00018000 		.ascii	"\000\001\200\000\000\000\000\000\000\000\000\000\000"
 4294      00000000 
 4294      00000000 
 4294      00
 4295 0165 00000000 		.ascii	"\000\000\000\000\000\000\000\000\000\007\200\000\017"
 4295      00000000 
 4295      00078000 
 4295      0F
 4296 0172 C0001CE0 		.ascii	"\300\000\034\340\000\030`\000\030`\000\034\340\000\017"
 4296      00186000 
 4296      1860001C 
 4296      E0000F
 4297 0181 F80007E0 		.ascii	"\370\000\007\340\000\037\360\000\0078\000\006\030\000"
 4297      001FF000 
 4297      07380006 
 4297      1800
 4298 018f 06180007 		.ascii	"\006\030\000\0078\000\003\360\000\001\340\000\000\000"
 4298      380003F0 
 4298      0001E000 
 4298      0000
 4299 019d 00000000 		.ascii	"\000\000\000\000\000\000\000\000\000\000\000\000\000"
 4299      00000000 
 4299      00000000 
 4299      00
 4300 01aa 00000000 		.ascii	"\000\000\000\000\000\000\000\000\000\000\000\000\000"
 4300      00000000 
 4300      00000000 
 4300      00
 4301 01b7 00000000 		.ascii	"\000\000\000\000\000\003\360\000\007\360\000\014`\000"
 4301      0003F000 
 4301      07F0000C 
 4301      6000
 4302 01c5 0C00000C 		.ascii	"\014\000\000\014\000\000\006\000\000\007\000\000\017"
 4302      00000600 
 4302      00070000 
 4302      0F
 4303 01d2 9C001DFC 		.ascii	"\234\000\035\374\000\030\360\000\030p\000\017\374\000"
 4303      0018F000 
 4303      1870000F 
 4303      FC00
ARM GAS  C:\Users\DJESSOU\AppData\Local\Temp\ccR55SEh.s 			page 146


 4304 01e0 07DC0000 		.ascii	"\007\334\000\000\000\000\000\000\000\000\000\000\000"
 4304      00000000 
 4304      00000000 
 4304      00
 4305 01ed 00000000 		.ascii	"\000\000\000\000\000\000\000\000\000\000\000\000\000"
 4305      00000000 
 4305      00000000 
 4305      00
 4306 01fa 00000000 		.ascii	"\000\000\000\000\000\000\000\003\200\000\003\200\000"
 4306      00000003 
 4306      80000380 
 4306      00
 4307 0207 03800001 		.ascii	"\003\200\000\001\000\000\001\000\000\001\000\000\001"
 4307      00000100 
 4307      00010000 
 4307      01
 4308 0214 00000000 		.ascii	"\000\000\000\000\000\000\000\000\000\000\000\000\000"
 4308      00000000 
 4308      00000000 
 4308      00
 4309 0221 00000000 		.ascii	"\000\000\000\000\000\000\000\000\000\000\000\000\000"
 4309      00000000 
 4309      00000000 
 4309      00
 4310 022e 00000000 		.ascii	"\000\000\000\000\000\000\000\000\000\000\000\000\000"
 4310      00000000 
 4310      00000000 
 4310      00
 4311 023b 00000000 		.ascii	"\000\000\000\000\000\000\000\000\000\000\000\000\030"
 4311      00000000 
 4311      00000000 
 4311      18
 4312 0248 00003800 		.ascii	"\000\0008\000\000p\000\000\360\000\000\340\000\000\340"
 4312      00700000 
 4312      F00000E0 
 4312      0000E0
 4313 0257 0001C000 		.ascii	"\000\001\300\000\001\300\000\001\300\000\001\300\000"
 4313      01C00001 
 4313      C00001C0 
 4313      00
 4314 0264 01C00001 		.ascii	"\001\300\000\001\300\000\000\340\000\000\340\000\000"
 4314      C00000E0 
 4314      0000E000 
 4314      00
 4315 0271 70000070 		.ascii	"p\000\000p\000\0008\000\000\030\000\000\000\000\000"
 4315      00003800 
 4315      00180000 
 4315      000000
 4316 0280 00000000 		.ascii	"\000\000\000\000\000\000\000\000\000\000\000\000\000"
 4316      00000000 
 4316      00000000 
 4316      00
 4317 028d 00180000 		.ascii	"\000\030\000\000\034\000\000\016\000\000\016\000\000"
 4317      1C00000E 
 4317      00000E00 
 4317      00
 4318 029a 07000007 		.ascii	"\007\000\000\007\000\000\003\200\000\003\200\000\003"
ARM GAS  C:\Users\DJESSOU\AppData\Local\Temp\ccR55SEh.s 			page 147


 4318      00000380 
 4318      00038000 
 4318      03
 4319 02a7 80000380 		.ascii	"\200\000\003\200\000\003\200\000\003\200\000\007\000"
 4319      00038000 
 4319      03800007 
 4319      00
 4320 02b4 00070000 		.ascii	"\000\007\000\000\017\000\000\016\000\000\034\000\000"
 4320      0F00000E 
 4320      00001C00 
 4320      00
 4321 02c1 18000000 		.ascii	"\030\000\000\000\000\000\000\000\000\000\000\000\000"
 4321      00000000 
 4321      00000000 
 4321      00
 4322 02ce 00000000 		.ascii	"\000\000\000\000\000\000\000\000\001\200\000\001\200"
 4322      00000000 
 4322      01800001 
 4322      80
 4323 02db 00018000 		.ascii	"\000\001\200\000\035\270\000\037\370\000\007\340\000"
 4323      1DB8001F 
 4323      F80007E0 
 4323      00
 4324 02e8 03C00003 		.ascii	"\003\300\000\003\300\000\006`\000\006`\000\000\000\000"
 4324      C0000660 
 4324      00066000 
 4324      000000
 4325 02f7 00000000 		.ascii	"\000\000\000\000\000\000\000\000\000\000\000\000\000"
 4325      00000000 
 4325      00000000 
 4325      00
 4326 0304 00000000 		.ascii	"\000\000\000\000\000\000\000\000\000\000\000\000\000"
 4326      00000000 
 4326      00000000 
 4326      00
 4327 0311 00000000 		.ascii	"\000\000\000\000\000\000\000\000\000\000\000\000\000"
 4327      00000000 
 4327      00000000 
 4327      00
 4328 031e 00000000 		.ascii	"\000\000\000\000\000\000\001\200\000\001\200\000\001"
 4328      00000180 
 4328      00018000 
 4328      01
 4329 032b 80000180 		.ascii	"\200\000\001\200\000\001\200\000?\374\000?\374\000\001"
 4329      00018000 
 4329      3FFC003F 
 4329      FC0001
 4330 033a 80000180 		.ascii	"\200\000\001\200\000\001\200\000\001\200\000\001\200"
 4330      00018000 
 4330      01800001 
 4330      80
 4331 0347 00000000 		.ascii	"\000\000\000\000\000\000\000\000\000\000\000\000\000"
 4331      00000000 
 4331      00000000 
 4331      00
 4332 0354 00000000 		.ascii	"\000\000\000\000\000\000\000\000\000\000\000\000\000"
 4332      00000000 
ARM GAS  C:\Users\DJESSOU\AppData\Local\Temp\ccR55SEh.s 			page 148


 4332      00000000 
 4332      00
 4333 0361 00000000 		.ascii	"\000\000\000\000\000\000\000\000\000\000\000\000\000"
 4333      00000000 
 4333      00000000 
 4333      00
 4334 036e 00000000 		.ascii	"\000\000\000\000\000\000\000\000\000\000\000\000\000"
 4334      00000000 
 4334      00000000 
 4334      00
 4335 037b 00000000 		.ascii	"\000\000\000\000\000\000\000\000\000\000\000\000\000"
 4335      00000000 
 4335      00000000 
 4335      00
 4336 0388 000000E0 		.ascii	"\000\000\000\340\000\000\300\000\001\300\000\001\200"
 4336      0000C000 
 4336      01C00001 
 4336      80
 4337 0395 00018000 		.ascii	"\000\001\200\000\003\000\000\003\000\000\000\000\000"
 4337      03000003 
 4337      00000000 
 4337      00
 4338 03a2 00000000 		.ascii	"\000\000\000\000\000\000\000\000\000\000\000\000\000"
 4338      00000000 
 4338      00000000 
 4338      00
 4339 03af 00000000 		.ascii	"\000\000\000\000\000\000\000\000\000\000\000\000\000"
 4339      00000000 
 4339      00000000 
 4339      00
 4340 03bc 00000000 		.ascii	"\000\000\000\000\000\000\000\037\370\000\037\370\000"
 4340      0000001F 
 4340      F8001FF8 
 4340      00
 4341 03c9 00000000 		.ascii	"\000\000\000\000\000\000\000\000\000\000\000\000\000"
 4341      00000000 
 4341      00000000 
 4341      00
 4342 03d6 00000000 		.ascii	"\000\000\000\000\000\000\000\000\000\000\000\000\000"
 4342      00000000 
 4342      00000000 
 4342      00
 4343 03e3 00000000 		.ascii	"\000\000\000\000\000\000\000\000\000\000\000\000\000"
 4343      00000000 
 4343      00000000 
 4343      00
 4344 03f0 00000000 		.ascii	"\000\000\000\000\000\000\000\000\000\000\000\000\000"
 4344      00000000 
 4344      00000000 
 4344      00
 4345 03fd 00000000 		.ascii	"\000\000\000\000\000\000\000\000\000\000\000\000\000"
 4345      00000000 
 4345      00000000 
 4345      00
 4346 040a 00000000 		.ascii	"\000\000\000\000\000\000\000\000\000\000\000\000\000"
 4346      00000000 
 4346      00000000 
ARM GAS  C:\Users\DJESSOU\AppData\Local\Temp\ccR55SEh.s 			page 149


 4346      00
 4347 0417 00000003 		.ascii	"\000\000\000\003\300\000\003\300\000\003\300\000\000"
 4347      C00003C0 
 4347      0003C000 
 4347      00
 4348 0424 00000000 		.ascii	"\000\000\000\000\000\000\000\000\000\000\000\000\000"
 4348      00000000 
 4348      00000000 
 4348      00
 4349 0431 00000000 		.ascii	"\000\000\000\000\000\000\000\000\030\000\000\030\000"
 4349      00000000 
 4349      18000018 
 4349      00
 4350 043e 00380000 		.ascii	"\0008\000\0000\000\000p\000\000`\000\000`\000\000\300"
 4350      30000070 
 4350      00006000 
 4350      00600000 
 4350      C0
 4351 044f 0000C000 		.ascii	"\000\000\300\000\001\200\000\001\200\000\003\000\000"
 4351      01800001 
 4351      80000300 
 4351      00
 4352 045c 03000006 		.ascii	"\003\000\000\006\000\000\006\000\000\016\000\000\014"
 4352      00000600 
 4352      000E0000 
 4352      0C
 4353 0469 00001C00 		.ascii	"\000\000\034\000\000\030\000\000\030\000\000\000\000"
 4353      00180000 
 4353      18000000 
 4353      00
 4354 0476 00000000 		.ascii	"\000\000\000\000\000\000\000\000\000\000\000\000\000"
 4354      00000000 
 4354      00000000 
 4354      00
 4355 0483 00000003 		.ascii	"\000\000\000\003\300\000\007\340\000\0140\000\0140\000"
 4355      C00007E0 
 4355      000C3000 
 4355      0C3000
 4356 0492 18180018 		.ascii	"\030\030\000\030\030\000\030\030\000\030\030\000\030"
 4356      18001818 
 4356      00181800 
 4356      18
 4357 049f 18001818 		.ascii	"\030\000\030\030\000\030\030\000\0140\000\0140\000\007"
 4357      00181800 
 4357      0C30000C 
 4357      300007
 4358 04ae E00003C0 		.ascii	"\340\000\003\300\000\000\000\000\000\000\000\000\000"
 4358      00000000 
 4358      00000000 
 4358      00
 4359 04bb 00000000 		.ascii	"\000\000\000\000\000\000\000\000\000\000\000\000\000"
 4359      00000000 
 4359      00000000 
 4359      00
 4360 04c8 00000000 		.ascii	"\000\000\000\000\000\000\000\200\000\007\200\000\037"
 4360      00000080 
 4360      00078000 
ARM GAS  C:\Users\DJESSOU\AppData\Local\Temp\ccR55SEh.s 			page 150


 4360      1F
 4361 04d5 80001D80 		.ascii	"\200\000\035\200\000\001\200\000\001\200\000\001\200"
 4361      00018000 
 4361      01800001 
 4361      80
 4362 04e2 00018000 		.ascii	"\000\001\200\000\001\200\000\001\200\000\001\200\000"
 4362      01800001 
 4362      80000180 
 4362      00
 4363 04ef 01800001 		.ascii	"\001\200\000\001\200\000\037\370\000\037\370\000\000"
 4363      80001FF8 
 4363      001FF800 
 4363      00
 4364 04fc 00000000 		.ascii	"\000\000\000\000\000\000\000\000\000\000\000\000\000"
 4364      00000000 
 4364      00000000 
 4364      00
 4365 0509 00000000 		.ascii	"\000\000\000\000\000\000\000\000\000\000\000\000\000"
 4365      00000000 
 4365      00000000 
 4365      00
 4366 0516 07C0001F 		.ascii	"\007\300\000\037\360\00080\0000\030\0000\030\000\000"
 4366      F0003830 
 4366      00301800 
 4366      30180000 
 4367 0526 18000030 		.ascii	"\030\000\0000\000\000`\000\001\300\000\003\200\000\006"
 4367      00006000 
 4367      01C00003 
 4367      800006
 4368 0535 00000C00 		.ascii	"\000\000\014\000\000\030\000\000?\370\000?\370\000\000"
 4368      00180000 
 4368      3FF8003F 
 4368      F80000
 4369 0544 00000000 		.ascii	"\000\000\000\000\000\000\000\000\000\000\000\000\000"
 4369      00000000 
 4369      00000000 
 4369      00
 4370 0551 00000000 		.ascii	"\000\000\000\000\000\000\000\000\000\000\000\000\000"
 4370      00000000 
 4370      00000000 
 4370      00
 4371 055e 03C0000F 		.ascii	"\003\300\000\017\340\000\014p\000\0000\000\0000\000"
 4371      E0000C70 
 4371      00003000 
 4371      003000
 4372 056d 00600003 		.ascii	"\000`\000\003\300\000\003\340\000\000p\000\000\030\000"
 4372      C00003E0 
 4372      00007000 
 4372      001800
 4373 057c 00180000 		.ascii	"\000\030\000\000\030\000\0308\000\037\360\000\017\300"
 4373      18001838 
 4373      001FF000 
 4373      0FC0
 4374 058a 00000000 		.ascii	"\000\000\000\000\000\000\000\000\000\000\000\000\000"
 4374      00000000 
 4374      00000000 
 4374      00
ARM GAS  C:\Users\DJESSOU\AppData\Local\Temp\ccR55SEh.s 			page 151


 4375 0597 00000000 		.ascii	"\000\000\000\000\000\000\000\000\000\000\000\000\000"
 4375      00000000 
 4375      00000000 
 4375      00
 4376 05a4 000000E0 		.ascii	"\000\000\000\340\000\001\340\000\001\340\000\003`\000"
 4376      0001E000 
 4376      01E00003 
 4376      6000
 4377 05b2 06600006 		.ascii	"\006`\000\006`\000\014`\000\014`\000\030`\0000`\000"
 4377      60000C60 
 4377      000C6000 
 4377      18600030 
 4377      6000
 4378 05c4 3FF8003F 		.ascii	"?\370\000?\370\000\000`\000\003\370\000\003\370\000"
 4378      F8000060 
 4378      0003F800 
 4378      03F800
 4379 05d3 00000000 		.ascii	"\000\000\000\000\000\000\000\000\000\000\000\000\000"
 4379      00000000 
 4379      00000000 
 4379      00
 4380 05e0 00000000 		.ascii	"\000\000\000\000\000\000\000\000\000\000\000\000\000"
 4380      00000000 
 4380      00000000 
 4380      00
 4381 05ed 001FF000 		.ascii	"\000\037\360\000\037\360\000\030\000\000\030\000\000"
 4381      1FF00018 
 4381      00001800 
 4381      00
 4382 05fa 1800001B 		.ascii	"\030\000\000\033\300\000\037\360\000\0340\000\000\030"
 4382      C0001FF0 
 4382      001C3000 
 4382      0018
 4383 0608 00001800 		.ascii	"\000\000\030\000\000\030\000\000\030\00000\000?\360"
 4383      00180000 
 4383      18003030 
 4383      003FF0
 4384 0617 000FC000 		.ascii	"\000\017\300\000\000\000\000\000\000\000\000\000\000"
 4384      00000000 
 4384      00000000 
 4384      00
 4385 0624 00000000 		.ascii	"\000\000\000\000\000\000\000\000\000\000\000\000\000"
 4385      00000000 
 4385      00000000 
 4385      00
 4386 0631 00000000 		.ascii	"\000\000\000\000\000\000\370\000\003\370\000\007\000"
 4386      0000F800 
 4386      03F80007 
 4386      00
 4387 063e 000E0000 		.ascii	"\000\016\000\000\014\000\000\030\000\000\033\300\000"
 4387      0C000018 
 4387      00001BC0 
 4387      00
 4388 064b 1FF0001C 		.ascii	"\037\360\000\0340\000\030\030\000\030\030\000\030\030"
 4388      30001818 
 4388      00181800 
 4388      1818
ARM GAS  C:\Users\DJESSOU\AppData\Local\Temp\ccR55SEh.s 			page 152


 4389 0659 000C3800 		.ascii	"\000\0148\000\017\360\000\003\340\000\000\000\000\000"
 4389      0FF00003 
 4389      E0000000 
 4389      0000
 4390 0667 00000000 		.ascii	"\000\000\000\000\000\000\000\000\000\000\000\000\000"
 4390      00000000 
 4390      00000000 
 4390      00
 4391 0674 00000000 		.ascii	"\000\000\000\000\000\000\000\000\000\000\037\370\000"
 4391      00000000 
 4391      00001FF8 
 4391      00
 4392 0681 1FF80018 		.ascii	"\037\370\000\030\030\000\0308\000\0000\000\0000\000"
 4392      18001838 
 4392      00003000 
 4392      003000
 4393 0690 00700000 		.ascii	"\000p\000\000`\000\000`\000\000\340\000\000\300\000"
 4393      60000060 
 4393      0000E000 
 4393      00C000
 4394 069f 00C00001 		.ascii	"\000\300\000\001\300\000\001\200\000\001\200\000\000"
 4394      C0000180 
 4394      00018000 
 4394      00
 4395 06ac 00000000 		.ascii	"\000\000\000\000\000\000\000\000\000\000\000\000\000"
 4395      00000000 
 4395      00000000 
 4395      00
 4396 06b9 00000000 		.ascii	"\000\000\000\000\000\000\000\000\000\000\000\000\000"
 4396      00000000 
 4396      00000000 
 4396      00
 4397 06c6 07E0000F 		.ascii	"\007\340\000\017\360\000\0348\000\030\030\000\030\030"
 4397      F0001C38 
 4397      00181800 
 4397      1818
 4398 06d4 000C3000 		.ascii	"\000\0140\000\007\340\000\007\340\000\0140\000\030\030"
 4398      07E00007 
 4398      E0000C30 
 4398      001818
 4399 06e3 00181800 		.ascii	"\000\030\030\000\030\030\000\0348\000\017\360\000\007"
 4399      1818001C 
 4399      38000FF0 
 4399      0007
 4400 06f1 E0000000 		.ascii	"\340\000\000\000\000\000\000\000\000\000\000\000\000"
 4400      00000000 
 4400      00000000 
 4400      00
 4401 06fe 00000000 		.ascii	"\000\000\000\000\000\000\000\000\000\000\000\000\000"
 4401      00000000 
 4401      00000000 
 4401      00
 4402 070b 00000007 		.ascii	"\000\000\000\007\300\000\017\360\000\0340\000\030\030"
 4402      C0000FF0 
 4402      001C3000 
 4402      1818
 4403 0719 00181800 		.ascii	"\000\030\030\000\030\030\000\0148\000\017\370\000\003"
ARM GAS  C:\Users\DJESSOU\AppData\Local\Temp\ccR55SEh.s 			page 153


 4403      1818000C 
 4403      38000FF8 
 4403      0003
 4404 0727 D8000018 		.ascii	"\330\000\000\030\000\0000\000\000p\000\000\340\000\037"
 4404      00003000 
 4404      00700000 
 4404      E0001F
 4405 0736 C0001F00 		.ascii	"\300\000\037\000\000\000\000\000\000\000\000\000\000"
 4405      00000000 
 4405      00000000 
 4405      00
 4406 0743 00000000 		.ascii	"\000\000\000\000\000\000\000\000\000\000\000\000\000"
 4406      00000000 
 4406      00000000 
 4406      00
 4407 0750 00000000 		.ascii	"\000\000\000\000\000\000\000\000\000\000\000\000\000"
 4407      00000000 
 4407      00000000 
 4407      00
 4408 075d 00000000 		.ascii	"\000\000\000\000\000\003\300\000\003\300\000\003\300"
 4408      0003C000 
 4408      03C00003 
 4408      C0
 4409 076a 00000000 		.ascii	"\000\000\000\000\000\000\000\000\000\000\000\000\000"
 4409      00000000 
 4409      00000000 
 4409      00
 4410 0777 00000003 		.ascii	"\000\000\000\003\300\000\003\300\000\003\300\000\000"
 4410      C00003C0 
 4410      0003C000 
 4410      00
 4411 0784 00000000 		.ascii	"\000\000\000\000\000\000\000\000\000\000\000\000\000"
 4411      00000000 
 4411      00000000 
 4411      00
 4412 0791 00000000 		.ascii	"\000\000\000\000\000\000\000\000\000\000\000\000\000"
 4412      00000000 
 4412      00000000 
 4412      00
 4413 079e 00000000 		.ascii	"\000\000\000\000\000\000\000\000\000\000\000\000\000"
 4413      00000000 
 4413      00000000 
 4413      00
 4414 07ab F00000F0 		.ascii	"\360\000\000\360\000\000\360\000\000\000\000\000\000"
 4414      0000F000 
 4414      00000000 
 4414      00
 4415 07b8 00000000 		.ascii	"\000\000\000\000\000\000\000\000\340\000\001\300\000"
 4415      00000000 
 4415      E00001C0 
 4415      00
 4416 07c5 01800001 		.ascii	"\001\200\000\001\200\000\003\000\000\002\000"
 4416      80000300 
 4416      000200
 4417 07d0 00000000 		.ascii	"\000\000\000\000\000\000\000\000\000\000\000\000\000"
 4417      00000000 
 4417      00000000 
ARM GAS  C:\Users\DJESSOU\AppData\Local\Temp\ccR55SEh.s 			page 154


 4417      00
 4418 07dd 00000000 		.ascii	"\000\000\000\000\000\000\000\000\000\000\000\000\000"
 4418      00000000 
 4418      00000000 
 4418      00
 4419 07ea 0000001C 		.ascii	"\000\000\000\034\000\000<\000\000\360\000\003\300\000"
 4419      00003C00 
 4419      00F00003 
 4419      C000
 4420 07f8 0F00003C 		.ascii	"\017\000\000<\000\000\360\000\000<\000\000\017\000\000"
 4420      0000F000 
 4420      003C0000 
 4420      0F0000
 4421 0807 03C00000 		.ascii	"\003\300\000\000\360\000\000<\000\000\034\000\000\000"
 4421      F000003C 
 4421      00001C00 
 4421      0000
 4422 0815 00000000 		.ascii	"\000\000\000\000\000\000\000\000\000\000\000\000\000"
 4422      00000000 
 4422      00000000 
 4422      00
 4423 0822 00000000 		.ascii	"\000\000\000\000\000\000\000\000\000\000\000\000\000"
 4423      00000000 
 4423      00000000 
 4423      00
 4424 082f 00000000 		.ascii	"\000\000\000\000\000\000\000\000\000\000\000\000\000"
 4424      00000000 
 4424      00000000 
 4424      00
 4425 083c 007FFC00 		.ascii	"\000\177\374\000\177\374\000\000\000\000\000\000\000"
 4425      7FFC0000 
 4425      00000000 
 4425      00
 4426 0849 7FFC007F 		.ascii	"\177\374\000\177\374\000\000\000\000\000\000\000\000"
 4426      FC000000 
 4426      00000000 
 4426      00
 4427 0856 00000000 		.ascii	"\000\000\000\000\000\000\000\000\000\000\000\000\000"
 4427      00000000 
 4427      00000000 
 4427      00
 4428 0863 00000000 		.ascii	"\000\000\000\000\000\000\000\000\000\000\000\000\000"
 4428      00000000 
 4428      00000000 
 4428      00
 4429 0870 00000000 		.ascii	"\000\000\000\000\000\000\000\000\000\000\000\000p\000"
 4429      00000000 
 4429      00000000 
 4429      7000
 4430 087e 00780000 		.ascii	"\000x\000\000\036\000\000\007\200\000\001\340\000\000"
 4430      1E000007 
 4430      800001E0 
 4430      0000
 4431 088c 7800001E 		.ascii	"x\000\000\036\000\000x\000\001\340\000\007\200\000\036"
 4431      00007800 
 4431      01E00007 
 4431      80001E
ARM GAS  C:\Users\DJESSOU\AppData\Local\Temp\ccR55SEh.s 			page 155


 4432 089b 00007800 		.ascii	"\000\000x\000\000p\000\000\000\000\000\000\000\000\000"
 4432      00700000 
 4432      00000000 
 4432      000000
 4433 08aa 00000000 		.ascii	"\000\000\000\000\000\000\000\000\000\000\000\000\000"
 4433      00000000 
 4433      00000000 
 4433      00
 4434 08b7 00000000 		.ascii	"\000\000\000\000\000\000\000\000\000\000\007\300\000"
 4434      00000000 
 4434      000007C0 
 4434      00
 4435 08c4 0FE00018 		.ascii	"\017\340\000\030p\000\0300\000\0300\000\000p\000\000"
 4435      70001830 
 4435      00183000 
 4435      00700000 
 4436 08d4 E00003C0 		.ascii	"\340\000\003\300\000\003\200\000\003\000\000\000\000"
 4436      00038000 
 4436      03000000 
 4436      00
 4437 08e1 00000000 		.ascii	"\000\000\000\000\007\000\000\007\000\000\000\000\000"
 4437      07000007 
 4437      00000000 
 4437      00
 4438 08ee 00000000 		.ascii	"\000\000\000\000\000\000\000\000\000\000\000\000\000"
 4438      00000000 
 4438      00000000 
 4438      00
 4439 08fb 00000000 		.ascii	"\000\000\000\000\000\000\000\000\000\000\000\003\340"
 4439      00000000 
 4439      00000003 
 4439      E0
 4440 0908 0007F000 		.ascii	"\000\007\360\000\0168\000\014\030\000\030x\000\030\370"
 4440      0E38000C 
 4440      18001878 
 4440      0018F8
 4441 0917 0019D800 		.ascii	"\000\031\330\000\031\230\000\031\230\000\031\230\000"
 4441      19980019 
 4441      98001998 
 4441      00
 4442 0924 18F80018 		.ascii	"\030\370\000\030x\000\030\000\000\014\000\000\016\030"
 4442      78001800 
 4442      000C0000 
 4442      0E18
 4443 0932 0007F800 		.ascii	"\000\007\370\000\003\340\000\000\000\000\000\000\000"
 4443      03E00000 
 4443      00000000 
 4443      00
 4444 093f 00000000 		.ascii	"\000\000\000\000\000\000\000\000\000\000\000\000\000"
 4444      00000000 
 4444      00000000 
 4444      00
 4445 094c 00000000 		.ascii	"\000\000\000\000\000\037\200\000\037\300\000\001\300"
 4445      001F8000 
 4445      1FC00001 
 4445      C0
 4446 0959 00036000 		.ascii	"\000\003`\000\003`\000\0060\000\0060\000\0140\000\017"
ARM GAS  C:\Users\DJESSOU\AppData\Local\Temp\ccR55SEh.s 			page 156


 4446      03600006 
 4446      30000630 
 4446      000C3000 
 4446      0F
 4447 096a F8001FF8 		.ascii	"\370\000\037\370\000\030\014\0000\014\000\374\177\000"
 4447      00180C00 
 4447      300C00FC 
 4447      7F00
 4448 0978 FC7F0000 		.ascii	"\374\177\000\000\000\000\000\000\000\000\000\000\000"
 4448      00000000 
 4448      00000000 
 4448      00
 4449 0985 00000000 		.ascii	"\000\000\000\000\000\000\000\000\000\000\000\000\000"
 4449      00000000 
 4449      00000000 
 4449      00
 4450 0992 00000000 		.ascii	"\000\000\000\000\000\000\000\177\340\000\177\360\000"
 4450      0000007F 
 4450      E0007FF0 
 4450      00
 4451 099f 18380018 		.ascii	"\0308\000\030\030\000\030\030\000\0308\000\037\360\000"
 4451      18001818 
 4451      00183800 
 4451      1FF000
 4452 09ae 1FF80018 		.ascii	"\037\370\000\030\034\000\030\014\000\030\014\000\030"
 4452      1C00180C 
 4452      00180C00 
 4452      18
 4453 09bb 0C007FF8 		.ascii	"\014\000\177\370\000\177\360\000\000\000\000\000\000"
 4453      007FF000 
 4453      00000000 
 4453      00
 4454 09c8 00000000 		.ascii	"\000\000\000\000\000\000\000\000\000\000\000\000\000"
 4454      00000000 
 4454      00000000 
 4454      00
 4455 09d5 00000000 		.ascii	"\000\000\000\000\000\000\000\000\000\000\000\000\003"
 4455      00000000 
 4455      00000000 
 4455      03
 4456 09e2 EC000FFC 		.ascii	"\354\000\017\374\000\034\034\000\030\014\0000\014\000"
 4456      001C1C00 
 4456      180C0030 
 4456      0C00
 4457 09f0 30000030 		.ascii	"0\000\0000\000\0000\000\0000\000\0000\000\000\030\014"
 4457      00003000 
 4457      00300000 
 4457      30000018 
 4457      0C
 4458 0a01 001C1C00 		.ascii	"\000\034\034\000\017\370\000\003\360\000\000\000\000"
 4458      0FF80003 
 4458      F0000000 
 4458      00
 4459 0a0e 00000000 		.ascii	"\000\000\000\000\000\000\000\000\000\000\000\000\000"
 4459      00000000 
 4459      00000000 
 4459      00
ARM GAS  C:\Users\DJESSOU\AppData\Local\Temp\ccR55SEh.s 			page 157


 4460 0a1b 00000000 		.ascii	"\000\000\000\000\000\000\000\000\000\000\000\000\000"
 4460      00000000 
 4460      00000000 
 4460      00
 4461 0a28 007FC000 		.ascii	"\000\177\300\000\177\360\000\0308\000\030\030\000\030"
 4461      7FF00018 
 4461      38001818 
 4461      0018
 4462 0a36 0C00180C 		.ascii	"\014\000\030\014\000\030\014\000\030\014\000\030\014"
 4462      00180C00 
 4462      180C0018 
 4462      0C
 4463 0a43 00180C00 		.ascii	"\000\030\014\000\030\030\000\0308\000\177\360\000\177"
 4463      18180018 
 4463      38007FF0 
 4463      007F
 4464 0a51 E0000000 		.ascii	"\340\000\000\000\000\000\000\000\000\000\000\000\000"
 4464      00000000 
 4464      00000000 
 4464      00
 4465 0a5e 00000000 		.ascii	"\000\000\000\000\000\000\000\000\000\000\000\000\000"
 4465      00000000 
 4465      00000000 
 4465      00
 4466 0a6b 00000000 		.ascii	"\000\000\000\000\000\000\177\370\000\177\370\000\030"
 4466      00007FF8 
 4466      007FF800 
 4466      18
 4467 0a78 18001818 		.ascii	"\030\000\030\030\000\031\230\000\031\200\000\037\200"
 4467      00199800 
 4467      1980001F 
 4467      80
 4468 0a85 001F8000 		.ascii	"\000\037\200\000\031\200\000\031\230\000\030\030\000"
 4468      19800019 
 4468      98001818 
 4468      00
 4469 0a92 1818007F 		.ascii	"\030\030\000\177\370\000\177\370\000\000\000\000\000"
 4469      F8007FF8 
 4469      00000000 
 4469      00
 4470 0a9f 00000000 		.ascii	"\000\000\000\000\000\000\000\000\000\000\000\000\000"
 4470      00000000 
 4470      00000000 
 4470      00
 4471 0aac 00000000 		.ascii	"\000\000\000\000\000\000\000\000\000\000\000\000\000"
 4471      00000000 
 4471      00000000 
 4471      00
 4472 0ab9 3FFC003F 		.ascii	"?\374\000?\374\000\014\014\000\014\014\000\014\314\000"
 4472      FC000C0C 
 4472      000C0C00 
 4472      0CCC00
 4473 0ac8 0CC0000F 		.ascii	"\014\300\000\017\300\000\017\300\000\014\300\000\014"
 4473      C0000FC0 
 4473      000CC000 
 4473      0C
 4474 0ad5 C0000C00 		.ascii	"\300\000\014\000\000\014\000\000?\300\000?\300\000\000"
ARM GAS  C:\Users\DJESSOU\AppData\Local\Temp\ccR55SEh.s 			page 158


 4474      000C0000 
 4474      3FC0003F 
 4474      C00000
 4475 0ae4 00000000 		.ascii	"\000\000\000\000\000\000\000\000\000\000\000\000\000"
 4475      00000000 
 4475      00000000 
 4475      00
 4476 0af1 00000000 		.ascii	"\000\000\000\000\000\000\000\000\000\000\000\000\000"
 4476      00000000 
 4476      00000000 
 4476      00
 4477 0afe 00000003 		.ascii	"\000\000\000\003\354\000\017\374\000\034\034\000\030"
 4477      EC000FFC 
 4477      001C1C00 
 4477      18
 4478 0b0b 0C00300C 		.ascii	"\014\0000\014\0000\000\0000\000\0000\376\0000\376\000"
 4478      00300000 
 4478      30000030 
 4478      FE0030FE 
 4478      00
 4479 0b1c 300C0038 		.ascii	"0\014\0008\014\000\034\034\000\017\374\000\003\360\000"
 4479      0C001C1C 
 4479      000FFC00 
 4479      03F000
 4480 0b2b 00000000 		.ascii	"\000\000\000\000\000\000\000\000\000\000\000\000\000"
 4480      00000000 
 4480      00000000 
 4480      00
 4481 0b38 00000000 		.ascii	"\000\000\000\000\000\000\000\000\000\000\000\000\000"
 4481      00000000 
 4481      00000000 
 4481      00
 4482 0b45 00000000 		.ascii	"\000\000\000\000~~\000~~\000\030\030\000\030\030\000"
 4482      7E7E007E 
 4482      7E001818 
 4482      00181800 
 4483 0b55 18180018 		.ascii	"\030\030\000\030\030\000\037\370\000\037\370\000\030"
 4483      18001FF8 
 4483      001FF800 
 4483      18
 4484 0b62 18001818 		.ascii	"\030\000\030\030\000\030\030\000\030\030\000~~\000~"
 4484      00181800 
 4484      1818007E 
 4484      7E007E
 4485 0b71 7E000000 		.ascii	"~\000\000\000\000\000\000\000\000\000\000\000\000\000"
 4485      00000000 
 4485      00000000 
 4485      0000
 4486 0b7f 00000000 		.ascii	"\000\000\000\000\000\000\000\000\000\000\000\000\000"
 4486      00000000 
 4486      00000000 
 4486      00
 4487 0b8c 00000000 		.ascii	"\000\000\000\000\000\037\370\000\037\370\000\001\200"
 4487      001FF800 
 4487      1FF80001 
 4487      80
 4488 0b99 00018000 		.ascii	"\000\001\200\000\001\200\000\001\200\000\001\200\000"
ARM GAS  C:\Users\DJESSOU\AppData\Local\Temp\ccR55SEh.s 			page 159


 4488      01800001 
 4488      80000180 
 4488      00
 4489 0ba6 01800001 		.ascii	"\001\200\000\001\200\000\001\200\000\001\200\000\001"
 4489      80000180 
 4489      00018000 
 4489      01
 4490 0bb3 80001FF8 		.ascii	"\200\000\037\370\000\037\370\000\000\000\000\000\000"
 4490      001FF800 
 4490      00000000 
 4490      00
 4491 0bc0 00000000 		.ascii	"\000\000\000\000\000\000\000\000\000\000\000\000\000"
 4491      00000000 
 4491      00000000 
 4491      00
 4492 0bcd 00000000 		.ascii	"\000\000\000\000\000\000\000\000\000\000\000\000\007"
 4492      00000000 
 4492      00000000 
 4492      07
 4493 0bda FE0007FE 		.ascii	"\376\000\007\376\000\0000\000\0000\000\0000\000\000"
 4493      00003000 
 4493      00300000 
 4493      300000
 4494 0be9 30000030 		.ascii	"0\000\0000\00000\00000\00000\00000\0000`\000?\340\000"
 4494      00303000 
 4494      30300030 
 4494      30003030 
 4494      00306000 
 4495 0c00 0F800000 		.ascii	"\017\200\000\000\000\000\000\000\000\000\000\000\000"
 4495      00000000 
 4495      00000000 
 4495      00
 4496 0c0d 00000000 		.ascii	"\000\000\000\000\000\000\000\000\000\000\000\000\000"
 4496      00000000 
 4496      00000000 
 4496      00
 4497 0c1a 00000000 		.ascii	"\000\000\000\000\000\000\000\177>\000\177>\000\0300"
 4497      0000007F 
 4497      3E007F3E 
 4497      001830
 4498 0c29 00186000 		.ascii	"\000\030`\000\030\300\000\031\200\000\033\200\000\037"
 4498      18C00019 
 4498      80001B80 
 4498      001F
 4499 0c37 C0001CE0 		.ascii	"\300\000\034\340\000\030p\000\0300\000\0308\000\177"
 4499      00187000 
 4499      18300018 
 4499      38007F
 4500 0c46 1F007F1F 		.ascii	"\037\000\177\037\000\000\000\000\000\000\000\000\000"
 4500      00000000 
 4500      00000000 
 4500      00
 4501 0c53 00000000 		.ascii	"\000\000\000\000\000\000\000\000\000\000\000\000\000"
 4501      00000000 
 4501      00000000 
 4501      00
 4502 0c60 00000000 		.ascii	"\000\000\000\000\000\000\000\000\000\177\200\000\177"
ARM GAS  C:\Users\DJESSOU\AppData\Local\Temp\ccR55SEh.s 			page 160


 4502      00000000 
 4502      007F8000 
 4502      7F
 4503 0c6d 80000C00 		.ascii	"\200\000\014\000\000\014\000\000\014\000\000\014\000"
 4503      000C0000 
 4503      0C00000C 
 4503      00
 4504 0c7a 000C0000 		.ascii	"\000\014\000\000\014\000\000\014\014\000\014\014\000"
 4504      0C00000C 
 4504      0C000C0C 
 4504      00
 4505 0c87 0C0C000C 		.ascii	"\014\014\000\014\014\000\177\374\000\177\374\000\000"
 4505      0C007FFC 
 4505      007FFC00 
 4505      00
 4506 0c94 00000000 		.ascii	"\000\000\000\000\000\000\000\000\000\000\000\000\000"
 4506      00000000 
 4506      00000000 
 4506      00
 4507 0ca1 00000000 		.ascii	"\000\000\000\000\000\000\000\000\000\000\000\000\000"
 4507      00000000 
 4507      00000000 
 4507      00
 4508 0cae 000000F0 		.ascii	"\000\000\000\360\017\000\370\037\0008\034\000<<\000"
 4508      0F00F81F 
 4508      00381C00 
 4508      3C3C00
 4509 0cbd 3C3C0036 		.ascii	"<<\0006l\0006l\0003\314\0003\314\0001\214\0000\014\000"
 4509      6C00366C 
 4509      0033CC00 
 4509      33CC0031 
 4509      8C00300C 
 4510 0cd2 300C00FE 		.ascii	"0\014\000\376\177\000\376\177\000\000\000\000\000\000"
 4510      7F00FE7F 
 4510      00000000 
 4510      0000
 4511 0ce0 00000000 		.ascii	"\000\000\000\000\000\000\000\000\000\000\000\000\000"
 4511      00000000 
 4511      00000000 
 4511      00
 4512 0ced 00000000 		.ascii	"\000\000\000\000\000\000\000\000\000\000\000\000x\376"
 4512      00000000 
 4512      00000000 
 4512      78FE
 4513 0cfb 0078FE00 		.ascii	"\000x\376\000\034\030\000\036\030\000\037\030\000\033"
 4513      1C18001E 
 4513      18001F18 
 4513      001B
 4514 0d09 18001B98 		.ascii	"\030\000\033\230\000\031\330\000\030\330\000\030\370"
 4514      0019D800 
 4514      18D80018 
 4514      F8
 4515 0d16 00187800 		.ascii	"\000\030x\000\0308\000\177\030\000\177\030\000\000\000"
 4515      1838007F 
 4515      18007F18 
 4515      000000
 4516 0d25 00000000 		.ascii	"\000\000\000\000\000\000\000\000\000\000\000\000\000"
ARM GAS  C:\Users\DJESSOU\AppData\Local\Temp\ccR55SEh.s 			page 161


 4516      00000000 
 4516      00000000 
 4516      00
 4517 0d32 00000000 		.ascii	"\000\000\000\000\000\000\000\000\000\000\000\000\000"
 4517      00000000 
 4517      00000000 
 4517      00
 4518 0d3f 000003C0 		.ascii	"\000\000\003\300\000\017\360\000\0348\000\030\030\000"
 4518      000FF000 
 4518      1C380018 
 4518      1800
 4519 0d4d 381C0030 		.ascii	"8\034\0000\014\0000\014\0000\014\0000\014\0008\034\000"
 4519      0C00300C 
 4519      00300C00 
 4519      300C0038 
 4519      1C00
 4520 0d5f 1818001C 		.ascii	"\030\030\000\0348\000\017\360\000\003\300\000\000\000"
 4520      38000FF0 
 4520      0003C000 
 4520      0000
 4521 0d6d 00000000 		.ascii	"\000\000\000\000\000\000\000\000\000\000\000\000\000"
 4521      00000000 
 4521      00000000 
 4521      00
 4522 0d7a 00000000 		.ascii	"\000\000\000\000\000\000\000\000\000\000\000\000\000"
 4522      00000000 
 4522      00000000 
 4522      00
 4523 0d87 00003FF0 		.ascii	"\000\000?\360\000?\370\000\014\034\000\014\014\000\014"
 4523      003FF800 
 4523      0C1C000C 
 4523      0C000C
 4524 0d96 0C000C0C 		.ascii	"\014\000\014\014\000\014\030\000\017\370\000\017\340"
 4524      000C1800 
 4524      0FF8000F 
 4524      E0
 4525 0da3 000C0000 		.ascii	"\000\014\000\000\014\000\000\014\000\000?\300\000?\300"
 4525      0C00000C 
 4525      00003FC0 
 4525      003FC0
 4526 0db2 00000000 		.ascii	"\000\000\000\000\000\000\000\000\000\000\000\000\000"
 4526      00000000 
 4526      00000000 
 4526      00
 4527 0dbf 00000000 		.ascii	"\000\000\000\000\000\000\000\000\000\000\000\000\000"
 4527      00000000 
 4527      00000000 
 4527      00
 4528 0dcc 00000000 		.ascii	"\000\000\000\000\000\003\300\000\017\360\000\0348\000"
 4528      0003C000 
 4528      0FF0001C 
 4528      3800
 4529 0dda 18180038 		.ascii	"\030\030\0008\034\0000\014\0000\014\0000\014\0000\014"
 4529      1C00300C 
 4529      00300C00 
 4529      300C0030 
 4529      0C
ARM GAS  C:\Users\DJESSOU\AppData\Local\Temp\ccR55SEh.s 			page 162


 4530 0deb 00381C00 		.ascii	"\0008\034\000\030\030\000\0348\000\017\360\000\007\300"
 4530      1818001C 
 4530      38000FF0 
 4530      0007C0
 4531 0dfa 0007CC00 		.ascii	"\000\007\314\000\017\374\000\0148\000\000\000\000\000"
 4531      0FFC000C 
 4531      38000000 
 4531      0000
 4532 0e08 00000000 		.ascii	"\000\000\000\000\000\000\000\000\000\000\000\000\000"
 4532      00000000 
 4532      00000000 
 4532      00
 4533 0e15 00000000 		.ascii	"\000\000\000\000\177\340\000\177\360\000\0308\000\030"
 4533      7FE0007F 
 4533      F0001838 
 4533      0018
 4534 0e23 18001818 		.ascii	"\030\000\030\030\000\0308\000\037\360\000\037\300\000"
 4534      00183800 
 4534      1FF0001F 
 4534      C000
 4535 0e31 18E00018 		.ascii	"\030\340\000\030p\000\0300\000\0308\000\177\036\000"
 4535      70001830 
 4535      00183800 
 4535      7F1E00
 4536 0e40 7F0E0000 		.ascii	"\177\016\000\000\000\000\000\000\000\000\000\000\000"
 4536      00000000 
 4536      00000000 
 4536      00
 4537 0e4d 00000000 		.ascii	"\000\000\000\000\000\000\000\000\000\000\000\000\000"
 4537      00000000 
 4537      00000000 
 4537      00
 4538 0e5a 00000000 		.ascii	"\000\000\000\000\000\000\000\007\330\000\017\370\000"
 4538      00000007 
 4538      D8000FF8 
 4538      00
 4539 0e67 1C380018 		.ascii	"\0348\000\030\030\000\030\030\000\036\000\000\017\300"
 4539      18001818 
 4539      001E0000 
 4539      0FC0
 4540 0e75 0003F000 		.ascii	"\000\003\360\000\000x\000\030\030\000\030\030\000\034"
 4540      00780018 
 4540      18001818 
 4540      001C
 4541 0e83 38001FF0 		.ascii	"8\000\037\360\000\033\340\000\000\000\000\000\000\000"
 4541      001BE000 
 4541      00000000 
 4541      0000
 4542 0e91 00000000 		.ascii	"\000\000\000\000\000\000\000\000\000\000\000\000\000"
 4542      00000000 
 4542      00000000 
 4542      00
 4543 0e9e 00000000 		.ascii	"\000\000\000\000\000\000\000\000\000\000\000?\374\000"
 4543      00000000 
 4543      0000003F 
 4543      FC00
 4544 0eac 3FFC0031 		.ascii	"?\374\0001\214\0001\214\0001\214\0001\214\000\001\200"
ARM GAS  C:\Users\DJESSOU\AppData\Local\Temp\ccR55SEh.s 			page 163


 4544      8C00318C 
 4544      00318C00 
 4544      318C0001 
 4544      80
 4545 0ebd 00018000 		.ascii	"\000\001\200\000\001\200\000\001\200\000\001\200\000"
 4545      01800001 
 4545      80000180 
 4545      00
 4546 0eca 0180000F 		.ascii	"\001\200\000\017\360\000\017\360\000\000\000\000\000"
 4546      F0000FF0 
 4546      00000000 
 4546      00
 4547 0ed7 00000000 		.ascii	"\000\000\000\000\000\000\000\000\000\000\000\000\000"
 4547      00000000 
 4547      00000000 
 4547      00
 4548 0ee4 00000000 		.ascii	"\000\000\000\000\000\000\000\000\000\000\000\000\000"
 4548      00000000 
 4548      00000000 
 4548      00
 4549 0ef1 7E7E007E 		.ascii	"~~\000~~\000\030\030\000\030\030\000\030\030\000\030"
 4549      7E001818 
 4549      00181800 
 4549      18180018 
 4550 0f01 18001818 		.ascii	"\030\000\030\030\000\030\030\000\030\030\000\030\030"
 4550      00181800 
 4550      18180018 
 4550      18
 4551 0f0e 00181800 		.ascii	"\000\030\030\000\0140\000\017\360\000\003\300\000\000"
 4551      0C30000F 
 4551      F00003C0 
 4551      0000
 4552 0f1c 00000000 		.ascii	"\000\000\000\000\000\000\000\000\000\000\000\000\000"
 4552      00000000 
 4552      00000000 
 4552      00
 4553 0f29 00000000 		.ascii	"\000\000\000\000\000\000\000\000\000\000\000\000\000"
 4553      00000000 
 4553      00000000 
 4553      00
 4554 0f36 0000007F 		.ascii	"\000\000\000\177\177\000\177\177\000\030\014\000\014"
 4554      7F007F7F 
 4554      00180C00 
 4554      0C
 4555 0f43 18000C18 		.ascii	"\030\000\014\030\000\014\030\000\0060\000\0060\000\003"
 4555      000C1800 
 4555      06300006 
 4555      300003
 4556 0f52 60000360 		.ascii	"`\000\003`\000\003`\000\001\300\000\001\300\000\000"
 4556      00036000 
 4556      01C00001 
 4556      C00000
 4557 0f61 80000000 		.ascii	"\200\000\000\000\000\000\000\000\000\000\000\000\000"
 4557      00000000 
 4557      00000000 
 4557      00
 4558 0f6e 00000000 		.ascii	"\000\000\000\000\000\000\000\000\000\000\000\000\000"
ARM GAS  C:\Users\DJESSOU\AppData\Local\Temp\ccR55SEh.s 			page 164


 4558      00000000 
 4558      00000000 
 4558      00
 4559 0f7b 00000000 		.ascii	"\000\000\000\000\000\000\376?\200\376?\2000\006\000"
 4559      0000FE3F 
 4559      80FE3F80 
 4559      300600
 4560 0f8a 30060030 		.ascii	"0\006\0000\206\000\031\314\000\031\314\000\033l\000"
 4560      860019CC 
 4560      0019CC00 
 4560      1B6C00
 4561 0f99 1B6C001E 		.ascii	"\033l\000\036|\000\016"
 4561      7C000E
 4562 0fa0 38000E38 		.ascii	"8\000\0168\000\014\030\000\014\030\000\000\000\000\000"
 4562      000C1800 
 4562      0C180000 
 4562      000000
 4563 0faf 00000000 		.ascii	"\000\000\000\000\000\000\000\000\000\000\000\000\000"
 4563      00000000 
 4563      00000000 
 4563      00
 4564 0fbc 00000000 		.ascii	"\000\000\000\000\000\000\000\000\000\000\000\000\000"
 4564      00000000 
 4564      00000000 
 4564      00
 4565 0fc9 7E7E007E 		.ascii	"~~\000~~\000\030\030\000\0140\000\006`\000\003\300\000"
 4565      7E001818 
 4565      000C3000 
 4565      06600003 
 4565      C000
 4566 0fdb 01800001 		.ascii	"\001\200\000\001\200\000\003\300\000\006`\000\0140\000"
 4566      800003C0 
 4566      00066000 
 4566      0C3000
 4567 0fea 1818007E 		.ascii	"\030\030\000~~\000~~\000\000\000\000\000\000\000\000"
 4567      7E007E7E 
 4567      00000000 
 4567      00000000 
 4568 0ffa 00000000 		.ascii	"\000\000\000\000\000\000\000\000\000\000\000\000\000"
 4568      00000000 
 4568      00000000 
 4568      00
 4569 1007 00000000 		.ascii	"\000\000\000\000\000\000\000\000\000\000|~\000|~\000"
 4569      00000000 
 4569      00007C7E 
 4569      007C7E00 
 4570 1017 1818000C 		.ascii	"\030\030\000\0140\000\006`\000\006`\000\003\300\000"
 4570      30000660 
 4570      00066000 
 4570      03C000
 4571 1026 01800001 		.ascii	"\001\200\000\001\200\000\001\200\000\001\200\000\001"
 4571      80000180 
 4571      00018000 
 4571      01
 4572 1033 80000FF0 		.ascii	"\200\000\017\360\000\017\360\000\000\000\000\000\000"
 4572      000FF000 
 4572      00000000 
ARM GAS  C:\Users\DJESSOU\AppData\Local\Temp\ccR55SEh.s 			page 165


 4572      00
 4573 1040 00000000 		.ascii	"\000\000\000\000\000\000\000\000\000\000\000\000\000"
 4573      00000000 
 4573      00000000 
 4573      00
 4574 104d 00000000 		.ascii	"\000\000\000\000\000\000\000\000\000\000\000\000\037"
 4574      00000000 
 4574      00000000 
 4574      1F
 4575 105a F8001FF8 		.ascii	"\370\000\037\370\000\030\030\000\0300\000\030`\000\030"
 4575      00181800 
 4575      18300018 
 4575      600018
 4576 1069 C0000180 		.ascii	"\300\000\001\200\000\003\000\000\006\030\000\014\030"
 4576      00030000 
 4576      0618000C 
 4576      18
 4577 1076 00181800 		.ascii	"\000\030\030\0000\030\000?\370\000?\370\000\000\000"
 4577      3018003F 
 4577      F8003FF8 
 4577      000000
 4578 1085 00000000 		.ascii	"\000\000\000\000\000\000\000\000\000\000\000\000\000"
 4578      00000000 
 4578      00000000 
 4578      00
 4579 1092 00000000 		.ascii	"\000\000\000\000\000\000\000\000\000\000\000\000\001"
 4579      00000000 
 4579      00000000 
 4579      01
 4580 109f F00001F0 		.ascii	"\360\000\001\360\000\001\200\000\001\200\000\001\200"
 4580      00018000 
 4580      01800001 
 4580      80
 4581 10ac 00018000 		.ascii	"\000\001\200\000\001\200\000\001\200\000\001\200\000"
 4581      01800001 
 4581      80000180 
 4581      00
 4582 10b9 01800001 		.ascii	"\001\200\000\001\200\000\001\200\000\001\200\000\001"
 4582      80000180 
 4582      00018000 
 4582      01
 4583 10c6 80000180 		.ascii	"\200\000\001\200\000\001\200\000\001\360\000\001\360"
 4583      00018000 
 4583      01F00001 
 4583      F0
 4584 10d3 00000000 		.ascii	"\000\000\000\000\000\000\000\000\000\000\000\000\000"
 4584      00000000 
 4584      00000000 
 4584      00
 4585 10e0 18000018 		.ascii	"\030\000\000\030\000\000\034\000\000\014\000\000\016"
 4585      00001C00 
 4585      000C0000 
 4585      0E
 4586 10ed 00000600 		.ascii	"\000\000\006\000\000\006\000\000\003\000\000\003\000"
 4586      00060000 
 4586      03000003 
 4586      00
ARM GAS  C:\Users\DJESSOU\AppData\Local\Temp\ccR55SEh.s 			page 166


 4587 10fa 00018000 		.ascii	"\000\001\200\000\001\200\000\000\300\000\000\300\000"
 4587      01800000 
 4587      C00000C0 
 4587      00
 4588 1107 00600000 		.ascii	"\000`\000\000`\000\000p\000\0000\000\0008\000\000\030"
 4588      60000070 
 4588      00003000 
 4588      00380000 
 4588      18
 4589 1118 00001800 		.ascii	"\000\000\030\000\000\000\000\000\000\000\000\000\000"
 4589      00000000 
 4589      00000000 
 4589      00
 4590 1125 00000000 		.ascii	"\000\000\000\000\000\000\000\000\000\017\200\000\017"
 4590      00000000 
 4590      000F8000 
 4590      0F
 4591 1132 80000180 		.ascii	"\200\000\001\200\000\001\200\000\001\200\000\001\200"
 4591      00018000 
 4591      01800001 
 4591      80
 4592 113f 00018000 		.ascii	"\000\001\200\000\001\200\000\001\200\000\001\200\000"
 4592      01800001 
 4592      80000180 
 4592      00
 4593 114c 01800001 		.ascii	"\001\200\000\001\200\000\001\200\000\001\200\000\001"
 4593      80000180 
 4593      00018000 
 4593      01
 4594 1159 80000180 		.ascii	"\200\000\001\200\000\017\200\000\017\200\000\000\000"
 4594      000F8000 
 4594      0F800000 
 4594      00
 4595 1166 00000000 		.ascii	"\000\000\000\000\000\000\000\000\000\000\000\000\000"
 4595      00000000 
 4595      00000000 
 4595      00
 4596 1173 00800001 		.ascii	"\000\200\000\001\300\000\003\340\000\007p\000\0060\000"
 4596      C00003E0 
 4596      00077000 
 4596      063000
 4597 1182 0C180018 		.ascii	"\014\030\000\030\014\000\020\004\000\000\000\000\000"
 4597      0C001004 
 4597      00000000 
 4597      00
 4598 118f 00000000 		.ascii	"\000\000\000\000\000\000\000\000\000\000\000\000\000"
 4598      00000000 
 4598      00000000 
 4598      00
 4599 119c 00000000 		.ascii	"\000\000\000\000\000\000\000\000\000\000\000\000\000"
 4599      00000000 
 4599      00000000 
 4599      00
 4600 11a9 00000000 		.ascii	"\000\000\000\000\000\000\000\000\000\000\000\000\000"
 4600      00000000 
 4600      00000000 
 4600      00
ARM GAS  C:\Users\DJESSOU\AppData\Local\Temp\ccR55SEh.s 			page 167


 4601 11b6 00000000 		.ascii	"\000\000\000\000\000\000\000\000\000\000\000\000\000"
 4601      00000000 
 4601      00000000 
 4601      00
 4602 11c3 00000000 		.ascii	"\000\000\000\000\000\000\000\000\000\000\000\000\000"
 4602      00000000 
 4602      00000000 
 4602      00
 4603 11d0 00000000 		.ascii	"\000\000\000\000\000\000\000\000\000\000\000\000\000"
 4603      00000000 
 4603      00000000 
 4603      00
 4604 11dd 00000000 		.ascii	"\000\000\000\000\000\000\000\000\000\000\000\000\000"
 4604      00000000 
 4604      00000000 
 4604      00
 4605 11ea 00000000 		.ascii	"\000\000\000\000\000\000\000\000\000\000\000\000\000"
 4605      00000000 
 4605      00000000 
 4605      00
 4606 11f7 000000FF 		.ascii	"\000\000\000\377\377\000\377\377\000\000\000\000\003"
 4606      FF00FFFF 
 4606      00000000 
 4606      03
 4607 1204 00000380 		.ascii	"\000\000\003\200\000\000\340\000\000`\000\000\000\000"
 4607      0000E000 
 4607      00600000 
 4607      0000
 4608 1212 00000000 		.ascii	"\000\000\000\000\000\000\000\000\000\000\000\000\000"
 4608      00000000 
 4608      00000000 
 4608      00
 4609 121f 00000000 		.ascii	"\000\000\000\000\000\000\000\000\000\000\000\000\000"
 4609      00000000 
 4609      00000000 
 4609      00
 4610 122c 00000000 		.ascii	"\000\000\000\000\000\000\000\000\000\000\000\000\000"
 4610      00000000 
 4610      00000000 
 4610      00
 4611 1239 00000000 		.ascii	"\000\000\000\000\000\000\000\000\000\000\000\000\000"
 4611      00000000 
 4611      00000000 
 4611      00
 4612 1246 00000000 		.ascii	"\000\000\000\000\000\000\000\000\000\000\000\000\000"
 4612      00000000 
 4612      00000000 
 4612      00
 4613 1253 00000000 		.ascii	"\000\000\000\000\000\000\000\017\300\000\037\340\000"
 4613      0000000F 
 4613      C0001FE0 
 4613      00
 4614 1260 00300000 		.ascii	"\0000\000\0000\000\007\360\000\037\360\00080\00000\000"
 4614      300007F0 
 4614      001FF000 
 4614      38300030 
 4614      3000
ARM GAS  C:\Users\DJESSOU\AppData\Local\Temp\ccR55SEh.s 			page 168


 4615 1272 3070001F 		.ascii	"0p\000\037\374\000\017\274\000\000\000\000\000\000\000"
 4615      FC000FBC 
 4615      00000000 
 4615      000000
 4616 1281 00000000 		.ascii	"\000\000\000\000\000\000\000\000\000\000\000\000\000"
 4616      00000000 
 4616      00000000 
 4616      00
 4617 128e 00000000 		.ascii	"\000\000\000\000\000\000\000\000x\000\000x\000\000\030"
 4617      00000000 
 4617      78000078 
 4617      000018
 4618 129d 00001800 		.ascii	"\000\000\030\000\000\033\340\000\037\370\000\034\030"
 4618      001BE000 
 4618      1FF8001C 
 4618      18
 4619 12aa 00180C00 		.ascii	"\000\030\014\000\030\014\000\030\014\000\030\014\000"
 4619      180C0018 
 4619      0C00180C 
 4619      00
 4620 12b7 180C001C 		.ascii	"\030\014\000\034\030\000\177\370\000{\340\000\000\000"
 4620      18007FF8 
 4620      007BE000 
 4620      0000
 4621 12c5 00000000 		.ascii	"\000\000\000\000\000\000\000\000\000\000\000\000\000"
 4621      00000000 
 4621      00000000 
 4621      00
 4622 12d2 00000000 		.ascii	"\000\000\000\000\000\000\000\000\000\000\000\000\000"
 4622      00000000 
 4622      00000000 
 4622      00
 4623 12df 00000000 		.ascii	"\000\000\000\000\000\000\000\000\000\000\000\003\354"
 4623      00000000 
 4623      00000003 
 4623      EC
 4624 12ec 000FFC00 		.ascii	"\000\017\374\000\034\034\0008\014\0000\014\0000\000"
 4624      1C1C0038 
 4624      0C00300C 
 4624      003000
 4625 12fb 00300000 		.ascii	"\0000\000\0008\014\000\034\034\000\017\370\000\003\360"
 4625      380C001C 
 4625      1C000FF8 
 4625      0003F0
 4626 130a 00000000 		.ascii	"\000\000\000\000\000\000\000\000\000\000\000\000\000"
 4626      00000000 
 4626      00000000 
 4626      00
 4627 1317 00000000 		.ascii	"\000\000\000\000\000\000\000\000\000\000\000\000\000"
 4627      00000000 
 4627      00000000 
 4627      00
 4628 1324 00000078 		.ascii	"\000\000\000x\000\000x\000\000\030\000\000\030\000\007"
 4628      00007800 
 4628      00180000 
 4628      180007
 4629 1333 D8001FF8 		.ascii	"\330\000\037\370\000\0308\0000\030\0000\030\0000\030"
ARM GAS  C:\Users\DJESSOU\AppData\Local\Temp\ccR55SEh.s 			page 169


 4629      00183800 
 4629      30180030 
 4629      18003018 
 4630 1343 00301800 		.ascii	"\0000\030\0000\030\000\0308\000\037\376\000\007\336"
 4630      30180018 
 4630      38001FFE 
 4630      0007DE
 4631 1352 00000000 		.ascii	"\000\000\000\000\000\000\000\000\000\000\000\000\000"
 4631      00000000 
 4631      00000000 
 4631      00
 4632 135f 00000000 		.ascii	"\000\000\000\000\000\000\000\000\000\000\000\000\000"
 4632      00000000 
 4632      00000000 
 4632      00
 4633 136c 00000000 		.ascii	"\000\000\000\000\000\000\000\000\000\000\000\000\000"
 4633      00000000 
 4633      00000000 
 4633      00
 4634 1379 0007E000 		.ascii	"\000\007\340\000\037\370\000\030\030\0000\014\000?\374"
 4634      1FF80018 
 4634      1800300C 
 4634      003FFC
 4635 1388 003FFC00 		.ascii	"\000?\374\0000\000\0000\000\000\030\014\000\037\374"
 4635      30000030 
 4635      0000180C 
 4635      001FFC
 4636 1397 0007F000 		.ascii	"\000\007\360\000\000\000\000\000\000\000\000\000\000"
 4636      00000000 
 4636      00000000 
 4636      00
 4637 13a4 00000000 		.ascii	"\000\000\000\000\000\000\000\000\000\000\000\000\000"
 4637      00000000 
 4637      00000000 
 4637      00
 4638 13b1 00000000 		.ascii	"\000\000\000\000\000\001\374\000\003\374\000\006\000"
 4638      0001FC00 
 4638      03FC0006 
 4638      00
 4639 13be 00060000 		.ascii	"\000\006\000\000?\370\000?\370\000\006\000\000\006\000"
 4639      3FF8003F 
 4639      F8000600 
 4639      000600
 4640 13cd 00060000 		.ascii	"\000\006\000\000\006\000\000\006\000\000\006\000\000"
 4640      06000006 
 4640      00000600 
 4640      00
 4641 13da 0600003F 		.ascii	"\006\000\000?\360\000?\360\000\000\000\000\000\000\000"
 4641      F0003FF0 
 4641      00000000 
 4641      000000
 4642 13e9 00000000 		.ascii	"\000\000\000\000\000\000\000\000\000\000\000\000\000"
 4642      00000000 
 4642      00000000 
 4642      00
 4643 13f6 00000000 		.ascii	"\000\000\000\000\000\000\000\000\000\000\000\000\000"
 4643      00000000 
ARM GAS  C:\Users\DJESSOU\AppData\Local\Temp\ccR55SEh.s 			page 170


 4643      00000000 
 4643      00
 4644 1403 00000000 		.ascii	"\000\000\000\000\000\000\000\007\336\000\037\376\000"
 4644      00000007 
 4644      DE001FFE 
 4644      00
 4645 1410 18380030 		.ascii	"\0308\0000\030\0000\030\0000\030\0000\030\0000\030\000"
 4645      18003018 
 4645      00301800 
 4645      30180030 
 4645      1800
 4646 1422 1838001F 		.ascii	"\0308\000\037\370\000\007\330\000\000\030\000\000\030"
 4646      F80007D8 
 4646      00001800 
 4646      0018
 4647 1430 00003800 		.ascii	"\000\0008\000\017\360\000\017\300\000\000\000\000\000"
 4647      0FF0000F 
 4647      C0000000 
 4647      0000
 4648 143e 00000000 		.ascii	"\000\000\000\000\000\000\000\000x\000\000x\000\000\030"
 4648      00000000 
 4648      78000078 
 4648      000018
 4649 144d 00001800 		.ascii	"\000\000\030\000\000\033\340\000\037\360\000\0348\000"
 4649      001BE000 
 4649      1FF0001C 
 4649      3800
 4650 145b 18180018 		.ascii	"\030\030\000\030\030\000\030\030\000\030\030\000\030"
 4650      18001818 
 4650      00181800 
 4650      18
 4651 1468 18001818 		.ascii	"\030\000\030\030\000~~\000~~\000\000\000\000\000\000"
 4651      007E7E00 
 4651      7E7E0000 
 4651      00000000 
 4652 1478 00000000 		.ascii	"\000\000\000\000\000\000\000\000\000\000\000\000\000"
 4652      00000000 
 4652      00000000 
 4652      00
 4653 1485 00000000 		.ascii	"\000\000\000\000\000\000\000\000\000\001\200\000\001"
 4653      00000000 
 4653      00018000 
 4653      01
 4654 1492 80000000 		.ascii	"\200\000\000\000\000\000\000\000\037\200\000\037\200"
 4654      00000000 
 4654      1F80001F 
 4654      80
 4655 149f 00018000 		.ascii	"\000\001\200\000\001\200\000\001\200\000\001\200\000"
 4655      01800001 
 4655      80000180 
 4655      00
 4656 14ac 01800001 		.ascii	"\001\200\000\001\200\000\001\200\000?\374\000?\374\000"
 4656      80000180 
 4656      003FFC00 
 4656      3FFC00
 4657 14bb 00000000 		.ascii	"\000\000\000\000\000\000\000\000\000\000\000\000\000"
 4657      00000000 
ARM GAS  C:\Users\DJESSOU\AppData\Local\Temp\ccR55SEh.s 			page 171


 4657      00000000 
 4657      00
 4658 14c8 00000000 		.ascii	"\000\000\000\000\000\000\000\000\000\000\000\000\000"
 4658      00000000 
 4658      00000000 
 4658      00
 4659 14d5 0000C000 		.ascii	"\000\000\300\000\000\300\000\000\000\000\000\000\000"
 4659      00C00000 
 4659      00000000 
 4659      00
 4660 14e2 1FF0001F 		.ascii	"\037\360\000\037\360\000\0000\000\0000\000\0000\000"
 4660      F0000030 
 4660      00003000 
 4660      003000
 4661 14f1 00300000 		.ascii	"\0000\000\0000\000\0000\000\0000\000\0000\000\0000\000"
 4661      30000030 
 4661      00003000 
 4661      00300000 
 4661      3000
 4662 1503 00300000 		.ascii	"\0000\000\0000\000\000p\000\037\340\000\037\200\000"
 4662      30000070 
 4662      001FE000 
 4662      1F8000
 4663 1512 00000000 		.ascii	"\000\000\000\000\000\000\000\000\000\000\000\000<\000"
 4663      00000000 
 4663      00000000 
 4663      3C00
 4664 1520 003C0000 		.ascii	"\000<\000\000\014\000\000\014\000\000\014\370\000\014"
 4664      0C00000C 
 4664      00000CF8 
 4664      000C
 4665 152e F8000CC0 		.ascii	"\370\000\014\300\000\015\200\000\017\200\000\017\000"
 4665      000D8000 
 4665      0F80000F 
 4665      00
 4666 153b 000F8000 		.ascii	"\000\017\200\000\015\300\000\014\340\000<|\000<|\000"
 4666      0DC0000C 
 4666      E0003C7C 
 4666      003C7C00 
 4667 154b 00000000 		.ascii	"\000\000\000\000\000\000\000\000\000\000\000\000\000"
 4667      00000000 
 4667      00000000 
 4667      00
 4668 1558 00000000 		.ascii	"\000\000\000\000\000\000\000\000\000\000\000\000\000"
 4668      00000000 
 4668      00000000 
 4668      00
 4669 1565 001F8000 		.ascii	"\000\037\200\000\037\200\000\001\200\000\001\200\000"
 4669      1F800001 
 4669      80000180 
 4669      00
 4670 1572 01800001 		.ascii	"\001\200\000\001\200\000\001\200\000\001\200\000\001"
 4670      80000180 
 4670      00018000 
 4670      01
 4671 157f 80000180 		.ascii	"\200\000\001\200\000\001\200\000\001\200\000\001\200"
 4671      00018000 
ARM GAS  C:\Users\DJESSOU\AppData\Local\Temp\ccR55SEh.s 			page 172


 4671      01800001 
 4671      80
 4672 158c 003FFC00 		.ascii	"\000?\374\000?\374\000\000\000\000\000\000\000\000\000"
 4672      3FFC0000 
 4672      00000000 
 4672      000000
 4673 159b 00000000 		.ascii	"\000\000\000\000\000\000\000\000\000\000\000\000\000"
 4673      00000000 
 4673      00000000 
 4673      00
 4674 15a8 00000000 		.ascii	"\000\000\000\000\000\000\000\000\000\000\000\000\000"
 4674      00000000 
 4674      00000000 
 4674      00
 4675 15b5 00000000 		.ascii	"\000\000\000\000\000\367x\000\377\374\0009\314\0001"
 4675      00F77800 
 4675      FFFC0039 
 4675      CC0031
 4676 15c4 8C00318C 		.ascii	"\214\0001\214\0001\214\0001\214\0001\214\0001\214\000"
 4676      00318C00 
 4676      318C0031 
 4676      8C00318C 
 4676      00
 4677 15d5 FDEF00FD 		.ascii	"\375\357\000\375\357\000\000\000\000\000\000\000\000"
 4677      EF000000 
 4677      00000000 
 4677      00
 4678 15e2 00000000 		.ascii	"\000\000\000\000\000\000\000\000\000\000\000\000\000"
 4678      00000000 
 4678      00000000 
 4678      00
 4679 15ef 00000000 		.ascii	"\000\000\000\000\000\000\000\000\000\000\000\000\000"
 4679      00000000 
 4679      00000000 
 4679      00
 4680 15fc 00000000 		.ascii	"\000\000\000\000\000\000{\340\000\177\360\000\0348\000"
 4680      00007BE0 
 4680      007FF000 
 4680      1C3800
 4681 160b 18180018 		.ascii	"\030\030\000\030\030\000\030\030\000\030\030\000\030"
 4681      18001818 
 4681      00181800 
 4681      18
 4682 1618 18001818 		.ascii	"\030\000\030\030\000~~\000~~\000\000\000\000\000\000"
 4682      007E7E00 
 4682      7E7E0000 
 4682      00000000 
 4683 1628 00000000 		.ascii	"\000\000\000\000\000\000\000\000\000\000\000\000\000"
 4683      00000000 
 4683      00000000 
 4683      00
 4684 1635 00000000 		.ascii	"\000\000\000\000\000\000\000\000\000\000\000\000\000"
 4684      00000000 
 4684      00000000 
 4684      00
 4685 1642 00000000 		.ascii	"\000\000\000\000\000\000\000\000\003\300\000\017\360"
 4685      00000000 
ARM GAS  C:\Users\DJESSOU\AppData\Local\Temp\ccR55SEh.s 			page 173


 4685      03C0000F 
 4685      F0
 4686 164f 001C3800 		.ascii	"\000\0348\0008\034\0000\014\0000\014\0000\014\0008\034"
 4686      381C0030 
 4686      0C00300C 
 4686      00300C00 
 4686      381C
 4687 1661 001C3800 		.ascii	"\000\0348\000\017\360\000\003\300\000\000\000\000\000"
 4687      0FF00003 
 4687      C0000000 
 4687      0000
 4688 166f 00000000 		.ascii	"\000\000\000\000\000\000\000\000\000\000\000\000\000"
 4688      00000000 
 4688      00000000 
 4688      00
 4689 167c 00000000 		.ascii	"\000\000\000\000\000\000\000\000\000\000\000\000\000"
 4689      00000000 
 4689      00000000 
 4689      00
 4690 1689 00000000 		.ascii	"\000\000\000\000\000\000\000\000\000{\340\000\177\370"
 4690      00000000 
 4690      007BE000 
 4690      7FF8
 4691 1697 001C1800 		.ascii	"\000\034\030\000\030\014\000\030\014\000\030\014\000"
 4691      180C0018 
 4691      0C00180C 
 4691      00
 4692 16a4 180C0018 		.ascii	"\030\014\000\030\014\000\034\030\000\037\370\000\033"
 4692      0C001C18 
 4692      001FF800 
 4692      1B
 4693 16b1 E0001800 		.ascii	"\340\000\030\000\000\030\000\000\030\000\000\177\000"
 4693      00180000 
 4693      1800007F 
 4693      00
 4694 16be 007F0000 		.ascii	"\000\177\000\000\000\000\000\000\000\000\000\000\000"
 4694      00000000 
 4694      00000000 
 4694      00
 4695 16cb 00000000 		.ascii	"\000\000\000\000\000\000\000\000\000\000\000\000\000"
 4695      00000000 
 4695      00000000 
 4695      00
 4696 16d8 000007DE 		.ascii	"\000\000\007\336\000\037\376\000\0308\0000\030\0000"
 4696      001FFE00 
 4696      18380030 
 4696      180030
 4697 16e7 18003018 		.ascii	"\030\0000\030\0000\030\0000\030\000\0308\000\037\370"
 4697      00301800 
 4697      30180018 
 4697      38001FF8 
 4698 16f7 0007D800 		.ascii	"\000\007\330\000\000\030\000\000\030\000\000\030\000"
 4698      00180000 
 4698      18000018 
 4698      00
 4699 1704 00FE0000 		.ascii	"\000\376\000\000\376\000\000\000\000\000\000\000\000"
 4699      FE000000 
ARM GAS  C:\Users\DJESSOU\AppData\Local\Temp\ccR55SEh.s 			page 174


 4699      00000000 
 4699      00
 4700 1711 00000000 		.ascii	"\000\000\000\000\000\000\000\000\000\000\000\000\000"
 4700      00000000 
 4700      00000000 
 4700      00
 4701 171e 00000000 		.ascii	"\000\000\000\000>x\000>\374\000\007\314\000\007\000"
 4701      3E78003E 
 4701      FC0007CC 
 4701      000700
 4702 172d 00060000 		.ascii	"\000\006\000\000\006\000\000\006\000\000\006\000\000"
 4702      06000006 
 4702      00000600 
 4702      00
 4703 173a 0600003F 		.ascii	"\006\000\000?\360\000?\360\000\000\000\000\000\000\000"
 4703      F0003FF0 
 4703      00000000 
 4703      000000
 4704 1749 00000000 		.ascii	"\000\000\000\000\000\000\000\000\000\000\000\000\000"
 4704      00000000 
 4704      00000000 
 4704      00
 4705 1756 00000000 		.ascii	"\000\000\000\000\000\000\000\000\000\000\000\000\000"
 4705      00000000 
 4705      00000000 
 4705      00
 4706 1763 00000000 		.ascii	"\000\000\000\000\000\000\000\007\370\000\017\370\000"
 4706      00000007 
 4706      F8000FF8 
 4706      00
 4707 1770 18180018 		.ascii	"\030\030\000\030\030\000\037\200\000\017\360\000\000"
 4707      18001F80 
 4707      000FF000 
 4707      00
 4708 177d F8001818 		.ascii	"\370\000\030\030\000\0308\000\037\360\000\037\340\000"
 4708      00183800 
 4708      1FF0001F 
 4708      E000
 4709 178b 00000000 		.ascii	"\000\000\000\000\000\000\000\000\000\000\000\000\000"
 4709      00000000 
 4709      00000000 
 4709      00
 4710 1798 00000000 		.ascii	"\000\000\000\000\000\000\000\000\000\000\000\000\000"
 4710      00000000 
 4710      00000000 
 4710      00
 4711 17a5 000C0000 		.ascii	"\000\014\000\000\014\000\000\014\000\000\014\000\000"
 4711      0C00000C 
 4711      00000C00 
 4711      00
 4712 17b2 3FF0003F 		.ascii	"?\360\000?\360\000\014\000\000\014\000\000\014\000\000"
 4712      F0000C00 
 4712      000C0000 
 4712      0C0000
 4713 17c1 0C00000C 		.ascii	"\014\000\000\014\000\000\014\000\000\014\034\000\007"
 4713      00000C00 
 4713      000C1C00 
ARM GAS  C:\Users\DJESSOU\AppData\Local\Temp\ccR55SEh.s 			page 175


 4713      07
 4714 17ce FC0003F0 		.ascii	"\374\000\003\360\000\000\000\000\000\000\000\000\000"
 4714      00000000 
 4714      00000000 
 4714      00
 4715 17db 00000000 		.ascii	"\000\000\000\000\000\000\000\000\000\000\000\000\000"
 4715      00000000 
 4715      00000000 
 4715      00
 4716 17e8 00000000 		.ascii	"\000\000\000\000\000\000\000\000\000\000\000\000\000"
 4716      00000000 
 4716      00000000 
 4716      00
 4717 17f5 00000000 		.ascii	"\000\000\000\000\000xx\000xx\000\030\030\000\030\030"
 4717      00787800 
 4717      78780018 
 4717      18001818 
 4718 1805 00181800 		.ascii	"\000\030\030\000\030\030\000\030\030\000\030\030\000"
 4718      18180018 
 4718      18001818 
 4718      00
 4719 1812 1838000F 		.ascii	"\0308\000\017\376\000\007\336\000\000\000\000\000\000"
 4719      FE0007DE 
 4719      00000000 
 4719      0000
 4720 1820 00000000 		.ascii	"\000\000\000\000\000\000\000\000\000\000\000\000\000"
 4720      00000000 
 4720      00000000 
 4720      00
 4721 182d 00000000 		.ascii	"\000\000\000\000\000\000\000\000\000\000\000\000\000"
 4721      00000000 
 4721      00000000 
 4721      00
 4722 183a 00000000 		.ascii	"\000\000\000\000\000\000\000\000|>\000|>\000\030\030"
 4722      00000000 
 4722      7C3E007C 
 4722      3E001818 
 4723 184a 00181800 		.ascii	"\000\030\030\000\0140\000\0140\000\006`\000\006`\000"
 4723      0C30000C 
 4723      30000660 
 4723      00066000 
 4724 185a 07E00003 		.ascii	"\007\340\000\003\300\000\003\300\000\000\000\000\000"
 4724      C00003C0 
 4724      00000000 
 4724      00
 4725 1867 00000000 		.ascii	"\000\000\000\000\000\000\000\000\000\000\000\000\000"
 4725      00000000 
 4725      00000000 
 4725      00
 4726 1874 00000000 		.ascii	"\000\000\000\000\000\000\000\000\000\000\000\000\000"
 4726      00000000 
 4726      00000000 
 4726      00
 4727 1881 00000000 		.ascii	"\000\000\000\000\000\000\000\000\000x<\000x<\0001\030"
 4727      00000000 
 4727      00783C00 
 4727      783C0031 
ARM GAS  C:\Users\DJESSOU\AppData\Local\Temp\ccR55SEh.s 			page 176


 4727      18
 4728 1892 00339800 		.ascii	"\0003\230\0003\230\000\032\260\000\036\360\000\036\360"
 4728      3398001A 
 4728      B0001EF0 
 4728      001EF0
 4729 18a1 001C6000 		.ascii	"\000\034`\000\014`\000\014`\000\000\000\000\000\000"
 4729      0C60000C 
 4729      60000000 
 4729      000000
 4730 18b0 00000000 		.ascii	"\000\000\000\000\000\000\000\000\000\000\000\000\000"
 4730      00000000 
 4730      00000000 
 4730      00
 4731 18bd 00000000 		.ascii	"\000\000\000\000\000\000\000\000\000\000\000\000\000"
 4731      00000000 
 4731      00000000 
 4731      00
 4732 18ca 00000000 		.ascii	"\000\000\000\000\000\000\000\000>|\000>|\000\0140\000"
 4732      00000000 
 4732      3E7C003E 
 4732      7C000C30 
 4732      00
 4733 18db 06600003 		.ascii	"\006`\000\003\300\000\001\200\000\003\300\000\006`\000"
 4733      C0000180 
 4733      0003C000 
 4733      066000
 4734 18ea 0C30003E 		.ascii	"\0140\000>|\000>|\000\000\000\000\000\000\000\000\000"
 4734      7C003E7C 
 4734      00000000 
 4734      00000000 
 4734      00
 4735 18fb 00000000 		.ascii	"\000\000\000\000\000\000\000\000\000\000\000\000\000"
 4735      00000000 
 4735      00000000 
 4735      00
 4736 1908 00000000 		.ascii	"\000\000\000\000\000\000\000\000\000\000\000\000\000"
 4736      00000000 
 4736      00000000 
 4736      00
 4737 1915 00000000 		.ascii	"\000\000\000\000\000~\037\000~\037\000\030\014\000\014"
 4737      007E1F00 
 4737      7E1F0018 
 4737      0C000C
 4738 1924 18000C18 		.ascii	"\030\000\014\030\000\0060\000\0060\000\003`\000\003"
 4738      00063000 
 4738      06300003 
 4738      600003
 4739 1933 E00001C0 		.ascii	"\340\000\001\300\000\000\300\000\001\200\000\001\200"
 4739      0000C000 
 4739      01800001 
 4739      80
 4740 1940 00030000 		.ascii	"\000\003\000\000?\300\000?\300\000\000\000\000\000\000"
 4740      3FC0003F 
 4740      C0000000 
 4740      000000
 4741 194f 00000000 		.ascii	"\000\000\000\000\000\000\000\000\000\000\000\000\000"
 4741      00000000 
ARM GAS  C:\Users\DJESSOU\AppData\Local\Temp\ccR55SEh.s 			page 177


 4741      00000000 
 4741      00
 4742 195c 00000000 		.ascii	"\000\000\000\000\000\000\037\370\000\037\370\000\030"
 4742      00001FF8 
 4742      001FF800 
 4742      18
 4743 1969 30001860 		.ascii	"0\000\030`\000\000\300\000\001\200\000\003\000\000\006"
 4743      0000C000 
 4743      01800003 
 4743      000006
 4744 1978 18000C18 		.ascii	"\030\000\014\030\000\037\370\000\037\370\000\000\000"
 4744      001FF800 
 4744      1FF80000 
 4744      00
 4745 1985 00000000 		.ascii	"\000\000\000\000\000\000\000\000\000\000\000\000\000"
 4745      00000000 
 4745      00000000 
 4745      00
 4746 1992 00000000 		.ascii	"\000\000\000\000\000\000\000\000\000\000\000\000\000"
 4746      00000000 
 4746      00000000 
 4746      00
 4747 199f E00001E0 		.ascii	"\340\000\001\340\000\001\200\000\001\200\000\001\200"
 4747      00018000 
 4747      01800001 
 4747      80
 4748 19ac 00018000 		.ascii	"\000\001\200\000\001\200\000\001\200\000\003\200\000"
 4748      01800001 
 4748      80000380 
 4748      00
 4749 19b9 07000003 		.ascii	"\007\000\000\003\200\000\001\200\000\001\200\000\001"
 4749      80000180 
 4749      00018000 
 4749      01
 4750 19c6 80000180 		.ascii	"\200\000\001\200\000\001\200\000\001\340\000\000\340"
 4750      00018000 
 4750      01E00000 
 4750      E0
 4751 19d3 00000000 		.ascii	"\000\000\000\000\000\000\000\000\000\000\000\000\000"
 4751      00000000 
 4751      00000000 
 4751      00
 4752 19e0 00000000 		.ascii	"\000\000\000\000\000\000\001\200\000\001\200\000\001"
 4752      00000180 
 4752      00018000 
 4752      01
 4753 19ed 80000180 		.ascii	"\200\000\001\200\000\001\200\000\001\200\000\001\200"
 4753      00018000 
 4753      01800001 
 4753      80
 4754 19fa 00018000 		.ascii	"\000\001\200\000\001\200\000\001\200\000\001\200\000"
 4754      01800001 
 4754      80000180 
 4754      00
 4755 1a07 01800001 		.ascii	"\001\200\000\001\200\000\001\200\000\001\200\000\001"
 4755      80000180 
 4755      00018000 
ARM GAS  C:\Users\DJESSOU\AppData\Local\Temp\ccR55SEh.s 			page 178


 4755      01
 4756 1a14 80000180 		.ascii	"\200\000\001\200\000\001\200\000\000\000\000\000\000"
 4756      00018000 
 4756      00000000 
 4756      00
 4757 1a21 00000000 		.ascii	"\000\000\000\000\000\000\000\000\000\000\000\000\000"
 4757      00000000 
 4757      00000000 
 4757      00
 4758 1a2e 07000007 		.ascii	"\007\000\000\007\200\000\001\200\000\001\200\000\001"
 4758      80000180 
 4758      00018000 
 4758      01
 4759 1a3b 80000180 		.ascii	"\200\000\001\200\000\001\200\000\001\200\000\001\300"
 4759      00018000 
 4759      01800001 
 4759      C0
 4760 1a48 0000E000 		.ascii	"\000\000\340\000\001\300\000\001\200\000\001\200\000"
 4760      01C00001 
 4760      80000180 
 4760      00
 4761 1a55 01800001 		.ascii	"\001\200\000\001\200\000\001\200\000\007\200\000\007"
 4761      80000180 
 4761      00078000 
 4761      07
 4762 1a62 00000000 		.ascii	"\000\000\000\000\000\000\000\000\000\000\000\000\000"
 4762      00000000 
 4762      00000000 
 4762      00
 4763 1a6f 00000000 		.ascii	"\000\000\000\000\000\000\000\000\000\000\000\000\000"
 4763      00000000 
 4763      00000000 
 4763      00
 4764 1a7c 00000000 		.ascii	"\000\000\000\000\000\000\000\000\000\000\000\000\016"
 4764      00000000 
 4764      00000000 
 4764      0E
 4765 1a89 00001F18 		.ascii	"\000\000\037\030\000;\270\0001\360\000\000\340\000\000"
 4765      003BB800 
 4765      31F00000 
 4765      E00000
 4766 1a98 00000000 		.ascii	"\000\000\000\000\000\000\000\000\000\000\000\000\000"
 4766      00000000 
 4766      00000000 
 4766      00
 4767 1aa5 00000000 		.ascii	"\000\000\000\000\000\000\000\000\000\000\000\000\000"
 4767      00000000 
 4767      00000000 
 4767      00
 4768 1ab2 00000000 		.ascii	"\000\000\000\000\000\000"
 4768      0000
 4769              		.text
 4770              	.Letext0:
 4771              		.file 2 "C:\\ST\\STM32CubeIDE_1.18.1\\STM32CubeIDE\\plugins\\com.st.stm32cube.ide.mcu.externaltool
 4772              		.file 3 "C:\\ST\\STM32CubeIDE_1.18.1\\STM32CubeIDE\\plugins\\com.st.stm32cube.ide.mcu.externaltool
 4773              		.file 4 "STM32Cube_FW_N6/Utilities/lcd/../Fonts/fonts.h"
 4774              		.file 5 "STM32Cube_FW_N6/Drivers/BSP/Components/Common/lcd.h"
ARM GAS  C:\Users\DJESSOU\AppData\Local\Temp\ccR55SEh.s 			page 179


 4775              		.file 6 "STM32Cube_FW_N6/Utilities/lcd/stm32_lcd.h"
 4776              		.file 7 "STM32Cube_FW_N6/Utilities/lcd/../Fonts/font24.c"
 4777              		.file 8 "STM32Cube_FW_N6/Utilities/lcd/../Fonts/font20.c"
 4778              		.file 9 "STM32Cube_FW_N6/Utilities/lcd/../Fonts/font16.c"
 4779              		.file 10 "STM32Cube_FW_N6/Utilities/lcd/../Fonts/font12.c"
 4780              		.file 11 "STM32Cube_FW_N6/Utilities/lcd/../Fonts/font8.c"
 4781              		.file 12 "<built-in>"
ARM GAS  C:\Users\DJESSOU\AppData\Local\Temp\ccR55SEh.s 			page 180


DEFINED SYMBOLS
                            *ABS*:00000000 stm32_lcd.c
C:\Users\DJESSOU\AppData\Local\Temp\ccR55SEh.s:26     .text.UTIL_LCD_SetFuncDriver:00000000 $t
C:\Users\DJESSOU\AppData\Local\Temp\ccR55SEh.s:32     .text.UTIL_LCD_SetFuncDriver:00000000 UTIL_LCD_SetFuncDriver
C:\Users\DJESSOU\AppData\Local\Temp\ccR55SEh.s:144    .text.UTIL_LCD_SetFuncDriver:00000060 $d
C:\Users\DJESSOU\AppData\Local\Temp\ccR55SEh.s:3617   .bss.FuncDriver:00000000 FuncDriver
C:\Users\DJESSOU\AppData\Local\Temp\ccR55SEh.s:3623   .bss.DrawProp:00000000 DrawProp
C:\Users\DJESSOU\AppData\Local\Temp\ccR55SEh.s:150    .text.UTIL_LCD_SetLayer:00000000 $t
C:\Users\DJESSOU\AppData\Local\Temp\ccR55SEh.s:156    .text.UTIL_LCD_SetLayer:00000000 UTIL_LCD_SetLayer
C:\Users\DJESSOU\AppData\Local\Temp\ccR55SEh.s:236    .text.UTIL_LCD_SetLayer:00000044 $d
C:\Users\DJESSOU\AppData\Local\Temp\ccR55SEh.s:242    .text.UTIL_LCD_SetDevice:00000000 $t
C:\Users\DJESSOU\AppData\Local\Temp\ccR55SEh.s:248    .text.UTIL_LCD_SetDevice:00000000 UTIL_LCD_SetDevice
C:\Users\DJESSOU\AppData\Local\Temp\ccR55SEh.s:296    .text.UTIL_LCD_SetDevice:00000020 $d
C:\Users\DJESSOU\AppData\Local\Temp\ccR55SEh.s:302    .text.UTIL_LCD_SetTextColor:00000000 $t
C:\Users\DJESSOU\AppData\Local\Temp\ccR55SEh.s:308    .text.UTIL_LCD_SetTextColor:00000000 UTIL_LCD_SetTextColor
C:\Users\DJESSOU\AppData\Local\Temp\ccR55SEh.s:327    .text.UTIL_LCD_SetTextColor:0000000c $d
C:\Users\DJESSOU\AppData\Local\Temp\ccR55SEh.s:332    .text.UTIL_LCD_GetTextColor:00000000 $t
C:\Users\DJESSOU\AppData\Local\Temp\ccR55SEh.s:338    .text.UTIL_LCD_GetTextColor:00000000 UTIL_LCD_GetTextColor
C:\Users\DJESSOU\AppData\Local\Temp\ccR55SEh.s:356    .text.UTIL_LCD_GetTextColor:0000000c $d
C:\Users\DJESSOU\AppData\Local\Temp\ccR55SEh.s:361    .text.UTIL_LCD_SetBackColor:00000000 $t
C:\Users\DJESSOU\AppData\Local\Temp\ccR55SEh.s:367    .text.UTIL_LCD_SetBackColor:00000000 UTIL_LCD_SetBackColor
C:\Users\DJESSOU\AppData\Local\Temp\ccR55SEh.s:386    .text.UTIL_LCD_SetBackColor:0000000c $d
C:\Users\DJESSOU\AppData\Local\Temp\ccR55SEh.s:391    .text.UTIL_LCD_GetBackColor:00000000 $t
C:\Users\DJESSOU\AppData\Local\Temp\ccR55SEh.s:397    .text.UTIL_LCD_GetBackColor:00000000 UTIL_LCD_GetBackColor
C:\Users\DJESSOU\AppData\Local\Temp\ccR55SEh.s:415    .text.UTIL_LCD_GetBackColor:0000000c $d
C:\Users\DJESSOU\AppData\Local\Temp\ccR55SEh.s:420    .text.UTIL_LCD_SetFont:00000000 $t
C:\Users\DJESSOU\AppData\Local\Temp\ccR55SEh.s:426    .text.UTIL_LCD_SetFont:00000000 UTIL_LCD_SetFont
C:\Users\DJESSOU\AppData\Local\Temp\ccR55SEh.s:445    .text.UTIL_LCD_SetFont:0000000c $d
C:\Users\DJESSOU\AppData\Local\Temp\ccR55SEh.s:450    .text.UTIL_LCD_GetFont:00000000 $t
C:\Users\DJESSOU\AppData\Local\Temp\ccR55SEh.s:456    .text.UTIL_LCD_GetFont:00000000 UTIL_LCD_GetFont
C:\Users\DJESSOU\AppData\Local\Temp\ccR55SEh.s:474    .text.UTIL_LCD_GetFont:0000000c $d
C:\Users\DJESSOU\AppData\Local\Temp\ccR55SEh.s:479    .text.UTIL_LCD_FillRGBRect:00000000 $t
C:\Users\DJESSOU\AppData\Local\Temp\ccR55SEh.s:485    .text.UTIL_LCD_FillRGBRect:00000000 UTIL_LCD_FillRGBRect
C:\Users\DJESSOU\AppData\Local\Temp\ccR55SEh.s:528    .text.UTIL_LCD_FillRGBRect:0000001c $d
C:\Users\DJESSOU\AppData\Local\Temp\ccR55SEh.s:534    .text.UTIL_LCD_DrawHLine:00000000 $t
C:\Users\DJESSOU\AppData\Local\Temp\ccR55SEh.s:540    .text.UTIL_LCD_DrawHLine:00000000 UTIL_LCD_DrawHLine
C:\Users\DJESSOU\AppData\Local\Temp\ccR55SEh.s:646    .text.UTIL_LCD_DrawHLine:00000064 $d
C:\Users\DJESSOU\AppData\Local\Temp\ccR55SEh.s:652    .text.UTIL_LCD_DrawVLine:00000000 $t
C:\Users\DJESSOU\AppData\Local\Temp\ccR55SEh.s:658    .text.UTIL_LCD_DrawVLine:00000000 UTIL_LCD_DrawVLine
C:\Users\DJESSOU\AppData\Local\Temp\ccR55SEh.s:764    .text.UTIL_LCD_DrawVLine:00000064 $d
C:\Users\DJESSOU\AppData\Local\Temp\ccR55SEh.s:770    .text.UTIL_LCD_GetPixel:00000000 $t
C:\Users\DJESSOU\AppData\Local\Temp\ccR55SEh.s:776    .text.UTIL_LCD_GetPixel:00000000 UTIL_LCD_GetPixel
C:\Users\DJESSOU\AppData\Local\Temp\ccR55SEh.s:884    .text.UTIL_LCD_GetPixel:0000009c $d
C:\Users\DJESSOU\AppData\Local\Temp\ccR55SEh.s:890    .text.UTIL_LCD_SetPixel:00000000 $t
C:\Users\DJESSOU\AppData\Local\Temp\ccR55SEh.s:896    .text.UTIL_LCD_SetPixel:00000000 UTIL_LCD_SetPixel
C:\Users\DJESSOU\AppData\Local\Temp\ccR55SEh.s:1000   .text.UTIL_LCD_SetPixel:00000060 $d
C:\Users\DJESSOU\AppData\Local\Temp\ccR55SEh.s:1006   .text.UTIL_LCD_DisplayChar:00000000 $t
C:\Users\DJESSOU\AppData\Local\Temp\ccR55SEh.s:1012   .text.UTIL_LCD_DisplayChar:00000000 UTIL_LCD_DisplayChar
C:\Users\DJESSOU\AppData\Local\Temp\ccR55SEh.s:1443   .text.UTIL_LCD_DisplayChar:000001e8 $d
C:\Users\DJESSOU\AppData\Local\Temp\ccR55SEh.s:1450   .text.UTIL_LCD_DisplayStringAt:00000000 $t
C:\Users\DJESSOU\AppData\Local\Temp\ccR55SEh.s:1456   .text.UTIL_LCD_DisplayStringAt:00000000 UTIL_LCD_DisplayStringAt
C:\Users\DJESSOU\AppData\Local\Temp\ccR55SEh.s:1599   .text.UTIL_LCD_DisplayStringAt:00000090 $d
C:\Users\DJESSOU\AppData\Local\Temp\ccR55SEh.s:1604   .text.UTIL_LCD_DisplayStringAtLine:00000000 $t
C:\Users\DJESSOU\AppData\Local\Temp\ccR55SEh.s:1610   .text.UTIL_LCD_DisplayStringAtLine:00000000 UTIL_LCD_DisplayStringAtLine
C:\Users\DJESSOU\AppData\Local\Temp\ccR55SEh.s:1650   .text.UTIL_LCD_DrawLine:00000000 $t
C:\Users\DJESSOU\AppData\Local\Temp\ccR55SEh.s:1656   .text.UTIL_LCD_DrawLine:00000000 UTIL_LCD_DrawLine
C:\Users\DJESSOU\AppData\Local\Temp\ccR55SEh.s:1875   .text.FillTriangle:00000000 $t
ARM GAS  C:\Users\DJESSOU\AppData\Local\Temp\ccR55SEh.s 			page 181


C:\Users\DJESSOU\AppData\Local\Temp\ccR55SEh.s:1880   .text.FillTriangle:00000000 FillTriangle
C:\Users\DJESSOU\AppData\Local\Temp\ccR55SEh.s:2106   .text.UTIL_LCD_DrawRect:00000000 $t
C:\Users\DJESSOU\AppData\Local\Temp\ccR55SEh.s:2112   .text.UTIL_LCD_DrawRect:00000000 UTIL_LCD_DrawRect
C:\Users\DJESSOU\AppData\Local\Temp\ccR55SEh.s:2183   .text.UTIL_LCD_DrawCircle:00000000 $t
C:\Users\DJESSOU\AppData\Local\Temp\ccR55SEh.s:2189   .text.UTIL_LCD_DrawCircle:00000000 UTIL_LCD_DrawCircle
C:\Users\DJESSOU\AppData\Local\Temp\ccR55SEh.s:2444   .text.UTIL_LCD_DrawCircle:00000148 $d
C:\Users\DJESSOU\AppData\Local\Temp\ccR55SEh.s:2449   .text.UTIL_LCD_DrawPolygon:00000000 $t
C:\Users\DJESSOU\AppData\Local\Temp\ccR55SEh.s:2455   .text.UTIL_LCD_DrawPolygon:00000000 UTIL_LCD_DrawPolygon
C:\Users\DJESSOU\AppData\Local\Temp\ccR55SEh.s:2539   .text.UTIL_LCD_DrawEllipse:00000000 $t
C:\Users\DJESSOU\AppData\Local\Temp\ccR55SEh.s:2545   .text.UTIL_LCD_DrawEllipse:00000000 UTIL_LCD_DrawEllipse
C:\Users\DJESSOU\AppData\Local\Temp\ccR55SEh.s:2727   .text.UTIL_LCD_DrawBitmap:00000000 $t
C:\Users\DJESSOU\AppData\Local\Temp\ccR55SEh.s:2733   .text.UTIL_LCD_DrawBitmap:00000000 UTIL_LCD_DrawBitmap
C:\Users\DJESSOU\AppData\Local\Temp\ccR55SEh.s:2773   .text.UTIL_LCD_DrawBitmap:00000018 $d
C:\Users\DJESSOU\AppData\Local\Temp\ccR55SEh.s:2779   .text.UTIL_LCD_FillRect:00000000 $t
C:\Users\DJESSOU\AppData\Local\Temp\ccR55SEh.s:2785   .text.UTIL_LCD_FillRect:00000000 UTIL_LCD_FillRect
C:\Users\DJESSOU\AppData\Local\Temp\ccR55SEh.s:2889   .text.UTIL_LCD_FillRect:00000070 $d
C:\Users\DJESSOU\AppData\Local\Temp\ccR55SEh.s:2895   .text.UTIL_LCD_Clear:00000000 $t
C:\Users\DJESSOU\AppData\Local\Temp\ccR55SEh.s:2901   .text.UTIL_LCD_Clear:00000000 UTIL_LCD_Clear
C:\Users\DJESSOU\AppData\Local\Temp\ccR55SEh.s:2935   .text.UTIL_LCD_Clear:00000020 $d
C:\Users\DJESSOU\AppData\Local\Temp\ccR55SEh.s:2940   .text.UTIL_LCD_ClearStringLine:00000000 $t
C:\Users\DJESSOU\AppData\Local\Temp\ccR55SEh.s:2946   .text.UTIL_LCD_ClearStringLine:00000000 UTIL_LCD_ClearStringLine
C:\Users\DJESSOU\AppData\Local\Temp\ccR55SEh.s:2986   .text.UTIL_LCD_ClearStringLine:00000024 $d
C:\Users\DJESSOU\AppData\Local\Temp\ccR55SEh.s:2991   .text.UTIL_LCD_FillCircle:00000000 $t
C:\Users\DJESSOU\AppData\Local\Temp\ccR55SEh.s:2997   .text.UTIL_LCD_FillCircle:00000000 UTIL_LCD_FillCircle
C:\Users\DJESSOU\AppData\Local\Temp\ccR55SEh.s:3192   .text.UTIL_LCD_FillPolygon:00000000 $t
C:\Users\DJESSOU\AppData\Local\Temp\ccR55SEh.s:3198   .text.UTIL_LCD_FillPolygon:00000000 UTIL_LCD_FillPolygon
C:\Users\DJESSOU\AppData\Local\Temp\ccR55SEh.s:3456   .text.UTIL_LCD_FillEllipse:00000000 $t
C:\Users\DJESSOU\AppData\Local\Temp\ccR55SEh.s:3462   .text.UTIL_LCD_FillEllipse:00000000 UTIL_LCD_FillEllipse
C:\Users\DJESSOU\AppData\Local\Temp\ccR55SEh.s:3614   .bss.FuncDriver:00000000 $d
C:\Users\DJESSOU\AppData\Local\Temp\ccR55SEh.s:3620   .bss.DrawProp:00000000 $d
C:\Users\DJESSOU\AppData\Local\Temp\ccR55SEh.s:3630   .data.Font8:00000000 Font8
C:\Users\DJESSOU\AppData\Local\Temp\ccR55SEh.s:3627   .data.Font8:00000000 $d
C:\Users\DJESSOU\AppData\Local\Temp\ccR55SEh.s:3638   .rodata.Font8_Table:00000000 Font8_Table
C:\Users\DJESSOU\AppData\Local\Temp\ccR55SEh.s:3681   .data.Font12:00000000 Font12
C:\Users\DJESSOU\AppData\Local\Temp\ccR55SEh.s:3678   .data.Font12:00000000 $d
C:\Users\DJESSOU\AppData\Local\Temp\ccR55SEh.s:3689   .rodata.Font12_Table:00000000 Font12_Table
C:\Users\DJESSOU\AppData\Local\Temp\ccR55SEh.s:3758   .data.Font16:00000000 Font16
C:\Users\DJESSOU\AppData\Local\Temp\ccR55SEh.s:3755   .data.Font16:00000000 $d
C:\Users\DJESSOU\AppData\Local\Temp\ccR55SEh.s:3766   .rodata.Font16_Table:00000000 Font16_Table
C:\Users\DJESSOU\AppData\Local\Temp\ccR55SEh.s:3984   .data.Font20:00000000 Font20
C:\Users\DJESSOU\AppData\Local\Temp\ccR55SEh.s:3981   .data.Font20:00000000 $d
C:\Users\DJESSOU\AppData\Local\Temp\ccR55SEh.s:3992   .rodata.Font20_Table:00000000 Font20_Table
C:\Users\DJESSOU\AppData\Local\Temp\ccR55SEh.s:4260   .data.Font24:00000000 Font24
C:\Users\DJESSOU\AppData\Local\Temp\ccR55SEh.s:4257   .data.Font24:00000000 $d
C:\Users\DJESSOU\AppData\Local\Temp\ccR55SEh.s:4268   .rodata.Font24_Table:00000000 Font24_Table
                           .group:00000000 wm4.0.c530a555507323ed657a04d5a22acbf4
                           .group:00000000 wm4._newlib_version.h.4.411db44ea2338a62eca2f0777f81481b
                           .group:00000000 wm4.features.h.33.e0c9f337c65cb9f22ed5f23d082bc78b
                           .group:00000000 wm4._default_types.h.15.247e5cd201eca3442cbf5404108c4935
                           .group:00000000 wm4._intsup.h.10.48bafbb683905c4daa4565a85aeeb264
                           .group:00000000 wm4._stdint.h.10.c24fa3af3bc1706662bb5593a907e841
                           .group:00000000 wm4.stdint.h.23.d53047a68f4a85177f80b422d52785ed
                           .group:00000000 wm4.lcd.h.21.98701c105e66fef2e089854e5bc0fe32
                           .group:00000000 wm4.stddef.h.39.0dc9006b34572d4d9cae4c8b422c4971
                           .group:00000000 wm4.stm32_lcd.h.55.1a04e503950bf34ef3721d2ebb9542fc

UNDEFINED SYMBOLS
ARM GAS  C:\Users\DJESSOU\AppData\Local\Temp\ccR55SEh.s 			page 182


strlen
