ARM GAS  C:\Users\DJESSOU\AppData\Local\Temp\ccLWLfBx.s 			page 1


   1              		.arch armv8.1-m.main
   2              		.fpu fpv5-d16
   3              		.arch_extension dsp
   4              		.arch_extension fp
   5              		.arch_extension fp.dp
   6              		.arch_extension mve
   7              		.arch_extension mve.fp
   8              		.eabi_attribute 5, "cortex-m55"
   9              		.eabi_attribute 28, 1
  10              		.eabi_attribute 20, 1
  11              		.eabi_attribute 21, 1
  12              		.eabi_attribute 23, 3
  13              		.eabi_attribute 24, 1
  14              		.eabi_attribute 25, 1
  15              		.eabi_attribute 26, 1
  16              		.eabi_attribute 30, 4
  17              		.eabi_attribute 34, 1
  18              		.eabi_attribute 38, 1
  19              		.eabi_attribute 18, 4
  20              		.file	"stm32n6xx_hal_ramcfg.c"
  21              		.text
  22              	.Ltext0:
  23              		.cfi_sections	.debug_frame
  24              		.file 1 "STM32Cube_FW_N6/Drivers/STM32N6xx_HAL_Driver/Src/stm32n6xx_hal_ramcfg.c"
  25              		.section	.text.HAL_RAMCFG_MspInit,"ax",%progbits
  26              		.align	1
  27              		.weak	HAL_RAMCFG_MspInit
  28              		.syntax unified
  29              		.thumb
  30              		.thumb_func
  32              	HAL_RAMCFG_MspInit:
  33              	.LVL0:
  34              	.LFB864:
   1:STM32Cube_FW_N6/Drivers/STM32N6xx_HAL_Driver/Src/stm32n6xx_hal_ramcfg.c **** /**
   2:STM32Cube_FW_N6/Drivers/STM32N6xx_HAL_Driver/Src/stm32n6xx_hal_ramcfg.c ****   ******************************************************************************
   3:STM32Cube_FW_N6/Drivers/STM32N6xx_HAL_Driver/Src/stm32n6xx_hal_ramcfg.c ****   * @file    stm32n6xx_hal_ramcfg.c
   4:STM32Cube_FW_N6/Drivers/STM32N6xx_HAL_Driver/Src/stm32n6xx_hal_ramcfg.c ****   * @author  GPM Application Team
   5:STM32Cube_FW_N6/Drivers/STM32N6xx_HAL_Driver/Src/stm32n6xx_hal_ramcfg.c ****   * @brief   RAMCFG HAL module driver.
   6:STM32Cube_FW_N6/Drivers/STM32N6xx_HAL_Driver/Src/stm32n6xx_hal_ramcfg.c ****   *          This file provides firmware functions to manage the following
   7:STM32Cube_FW_N6/Drivers/STM32N6xx_HAL_Driver/Src/stm32n6xx_hal_ramcfg.c ****   *          functionalities of the RAMs configuration controller peripheral:
   8:STM32Cube_FW_N6/Drivers/STM32N6xx_HAL_Driver/Src/stm32n6xx_hal_ramcfg.c ****   *           + RAMCFG Initialization and De-initialization Functions.
   9:STM32Cube_FW_N6/Drivers/STM32N6xx_HAL_Driver/Src/stm32n6xx_hal_ramcfg.c ****   *           + RAMCFG ECC Operation Functions.
  10:STM32Cube_FW_N6/Drivers/STM32N6xx_HAL_Driver/Src/stm32n6xx_hal_ramcfg.c ****   *           + RAMCFG Erase Operation Functions.
  11:STM32Cube_FW_N6/Drivers/STM32N6xx_HAL_Driver/Src/stm32n6xx_hal_ramcfg.c ****   *           + RAMCFG Handle Interrupt and Callbacks Functions.
  12:STM32Cube_FW_N6/Drivers/STM32N6xx_HAL_Driver/Src/stm32n6xx_hal_ramcfg.c ****   *           + RAMCFG State and Error Functions.
  13:STM32Cube_FW_N6/Drivers/STM32N6xx_HAL_Driver/Src/stm32n6xx_hal_ramcfg.c ****   ******************************************************************************
  14:STM32Cube_FW_N6/Drivers/STM32N6xx_HAL_Driver/Src/stm32n6xx_hal_ramcfg.c ****   * @attention
  15:STM32Cube_FW_N6/Drivers/STM32N6xx_HAL_Driver/Src/stm32n6xx_hal_ramcfg.c ****   *
  16:STM32Cube_FW_N6/Drivers/STM32N6xx_HAL_Driver/Src/stm32n6xx_hal_ramcfg.c ****   * Copyright (c) 2023 STMicroelectronics.
  17:STM32Cube_FW_N6/Drivers/STM32N6xx_HAL_Driver/Src/stm32n6xx_hal_ramcfg.c ****   * All rights reserved.
  18:STM32Cube_FW_N6/Drivers/STM32N6xx_HAL_Driver/Src/stm32n6xx_hal_ramcfg.c ****   *
  19:STM32Cube_FW_N6/Drivers/STM32N6xx_HAL_Driver/Src/stm32n6xx_hal_ramcfg.c ****   * This software is licensed under terms that can be found in the LICENSE file
  20:STM32Cube_FW_N6/Drivers/STM32N6xx_HAL_Driver/Src/stm32n6xx_hal_ramcfg.c ****   * in the root directory of this software component.
  21:STM32Cube_FW_N6/Drivers/STM32N6xx_HAL_Driver/Src/stm32n6xx_hal_ramcfg.c ****   * If no LICENSE file comes with this software, it is provided AS-IS.
  22:STM32Cube_FW_N6/Drivers/STM32N6xx_HAL_Driver/Src/stm32n6xx_hal_ramcfg.c ****   *
  23:STM32Cube_FW_N6/Drivers/STM32N6xx_HAL_Driver/Src/stm32n6xx_hal_ramcfg.c ****   ******************************************************************************
  24:STM32Cube_FW_N6/Drivers/STM32N6xx_HAL_Driver/Src/stm32n6xx_hal_ramcfg.c ****   @verbatim
ARM GAS  C:\Users\DJESSOU\AppData\Local\Temp\ccLWLfBx.s 			page 2


  25:STM32Cube_FW_N6/Drivers/STM32N6xx_HAL_Driver/Src/stm32n6xx_hal_ramcfg.c ****   ==============================================================================
  26:STM32Cube_FW_N6/Drivers/STM32N6xx_HAL_Driver/Src/stm32n6xx_hal_ramcfg.c ****                     ##### RAMCFG Peripheral features #####
  27:STM32Cube_FW_N6/Drivers/STM32N6xx_HAL_Driver/Src/stm32n6xx_hal_ramcfg.c ****   ==============================================================================
  28:STM32Cube_FW_N6/Drivers/STM32N6xx_HAL_Driver/Src/stm32n6xx_hal_ramcfg.c ****   [..]
  29:STM32Cube_FW_N6/Drivers/STM32N6xx_HAL_Driver/Src/stm32n6xx_hal_ramcfg.c ****     (+) Each SRAM is managed by a RAMCFG instance (AHBSRAM1/2, AXISRAM1 to 6,
  30:STM32Cube_FW_N6/Drivers/STM32N6xx_HAL_Driver/Src/stm32n6xx_hal_ramcfg.c ****         BKPSRAM, FLEXRAM, and VENCRAM).
  31:STM32Cube_FW_N6/Drivers/STM32N6xx_HAL_Driver/Src/stm32n6xx_hal_ramcfg.c **** 
  32:STM32Cube_FW_N6/Drivers/STM32N6xx_HAL_Driver/Src/stm32n6xx_hal_ramcfg.c ****     (+) Each SRAM can be erased independently through its RAMCFG instance.
  33:STM32Cube_FW_N6/Drivers/STM32N6xx_HAL_Driver/Src/stm32n6xx_hal_ramcfg.c **** 
  34:STM32Cube_FW_N6/Drivers/STM32N6xx_HAL_Driver/Src/stm32n6xx_hal_ramcfg.c ****     (+) AXISRAM 1 to 6 are the main SRAMs. AHBSRAM1/2 are preferably for DMA-controlled
  35:STM32Cube_FW_N6/Drivers/STM32N6xx_HAL_Driver/Src/stm32n6xx_hal_ramcfg.c ****         peripheral-to-memory data flow.
  36:STM32Cube_FW_N6/Drivers/STM32N6xx_HAL_Driver/Src/stm32n6xx_hal_ramcfg.c ****         AXISRAM 2 to 6 can be shut down when the application is in Run mode.
  37:STM32Cube_FW_N6/Drivers/STM32N6xx_HAL_Driver/Src/stm32n6xx_hal_ramcfg.c **** 
  38:STM32Cube_FW_N6/Drivers/STM32N6xx_HAL_Driver/Src/stm32n6xx_hal_ramcfg.c ****     (+) FLEXMEM can be either allocated as Cortex-M55 TCM, or as system RAM
  39:STM32Cube_FW_N6/Drivers/STM32N6xx_HAL_Driver/Src/stm32n6xx_hal_ramcfg.c ****         (FLEXRAM).
  40:STM32Cube_FW_N6/Drivers/STM32N6xx_HAL_Driver/Src/stm32n6xx_hal_ramcfg.c ****         80 Kbytes of the FLEXMEM are retained in Standby mode, either allocated as
  41:STM32Cube_FW_N6/Drivers/STM32N6xx_HAL_Driver/Src/stm32n6xx_hal_ramcfg.c ****         extended ITCM (64 +16-Kbyte ECC), or allocated as FLEXRAM.
  42:STM32Cube_FW_N6/Drivers/STM32N6xx_HAL_Driver/Src/stm32n6xx_hal_ramcfg.c **** 
  43:STM32Cube_FW_N6/Drivers/STM32N6xx_HAL_Driver/Src/stm32n6xx_hal_ramcfg.c ****     (+) The BKPSRAM content is retained in low-power modes, even when VDD is off
  44:STM32Cube_FW_N6/Drivers/STM32N6xx_HAL_Driver/Src/stm32n6xx_hal_ramcfg.c ****         in VBAT mode. On a tamper event detection, the BKPSRAM content is erased.
  45:STM32Cube_FW_N6/Drivers/STM32N6xx_HAL_Driver/Src/stm32n6xx_hal_ramcfg.c **** 
  46:STM32Cube_FW_N6/Drivers/STM32N6xx_HAL_Driver/Src/stm32n6xx_hal_ramcfg.c ****     (+) The VENCRAM implements hardware and software erases.
  47:STM32Cube_FW_N6/Drivers/STM32N6xx_HAL_Driver/Src/stm32n6xx_hal_ramcfg.c **** 
  48:STM32Cube_FW_N6/Drivers/STM32N6xx_HAL_Driver/Src/stm32n6xx_hal_ramcfg.c ****     (+) FLEXRAM and BKPRAM support ECC correction feature:
  49:STM32Cube_FW_N6/Drivers/STM32N6xx_HAL_Driver/Src/stm32n6xx_hal_ramcfg.c ****              (++) Single error detection and correction with interrupt generation.
  50:STM32Cube_FW_N6/Drivers/STM32N6xx_HAL_Driver/Src/stm32n6xx_hal_ramcfg.c ****              (++) Double error detection with interrupt generation.
  51:STM32Cube_FW_N6/Drivers/STM32N6xx_HAL_Driver/Src/stm32n6xx_hal_ramcfg.c ****              (++) Status with failing address
  52:STM32Cube_FW_N6/Drivers/STM32N6xx_HAL_Driver/Src/stm32n6xx_hal_ramcfg.c ****   ==============================================================================
  53:STM32Cube_FW_N6/Drivers/STM32N6xx_HAL_Driver/Src/stm32n6xx_hal_ramcfg.c ****                         ##### How to use this driver #####
  54:STM32Cube_FW_N6/Drivers/STM32N6xx_HAL_Driver/Src/stm32n6xx_hal_ramcfg.c ****   ==============================================================================
  55:STM32Cube_FW_N6/Drivers/STM32N6xx_HAL_Driver/Src/stm32n6xx_hal_ramcfg.c ****   [..]
  56:STM32Cube_FW_N6/Drivers/STM32N6xx_HAL_Driver/Src/stm32n6xx_hal_ramcfg.c ****     (#) Call HAL_RAMCFG_Init() to initialize the RAMCFG peripheral before using
  57:STM32Cube_FW_N6/Drivers/STM32N6xx_HAL_Driver/Src/stm32n6xx_hal_ramcfg.c ****        any feature. Call HAL_RAMCFG_DeInit() to de-initialize the RAMCFG when
  58:STM32Cube_FW_N6/Drivers/STM32N6xx_HAL_Driver/Src/stm32n6xx_hal_ramcfg.c ****        using this peripheral is no more needed or a hardware issue has occurred.
  59:STM32Cube_FW_N6/Drivers/STM32N6xx_HAL_Driver/Src/stm32n6xx_hal_ramcfg.c ****           (+) HAL_RAMCFG_Init() and HAL_RAMCFG_DeInit() APIs do not change the
  60:STM32Cube_FW_N6/Drivers/STM32N6xx_HAL_Driver/Src/stm32n6xx_hal_ramcfg.c ****               activation status of ECC feature. It is managed by
  61:STM32Cube_FW_N6/Drivers/STM32N6xx_HAL_Driver/Src/stm32n6xx_hal_ramcfg.c ****               HAL_RAMCFG_StartECC(), HAL_RAMCFG_StopECC() or option bytes (When
  62:STM32Cube_FW_N6/Drivers/STM32N6xx_HAL_Driver/Src/stm32n6xx_hal_ramcfg.c ****               available on the device).
  63:STM32Cube_FW_N6/Drivers/STM32N6xx_HAL_Driver/Src/stm32n6xx_hal_ramcfg.c **** 
  64:STM32Cube_FW_N6/Drivers/STM32N6xx_HAL_Driver/Src/stm32n6xx_hal_ramcfg.c ****      *** ECC feature ***
  65:STM32Cube_FW_N6/Drivers/STM32N6xx_HAL_Driver/Src/stm32n6xx_hal_ramcfg.c ****      ===================
  66:STM32Cube_FW_N6/Drivers/STM32N6xx_HAL_Driver/Src/stm32n6xx_hal_ramcfg.c ****     [..]
  67:STM32Cube_FW_N6/Drivers/STM32N6xx_HAL_Driver/Src/stm32n6xx_hal_ramcfg.c ****           (+) Call HAL_RAMCFG_StartECC() and HAL_RAMCFG_StopECC() to enable and
  68:STM32Cube_FW_N6/Drivers/STM32N6xx_HAL_Driver/Src/stm32n6xx_hal_ramcfg.c ****               disable ECC hardware mechanism.
  69:STM32Cube_FW_N6/Drivers/STM32N6xx_HAL_Driver/Src/stm32n6xx_hal_ramcfg.c ****                     (++) When ECC feature is previously enabled (case of option
  70:STM32Cube_FW_N6/Drivers/STM32N6xx_HAL_Driver/Src/stm32n6xx_hal_ramcfg.c ****                          byte activation), calling HAL_RAMCFG_StartECC() is
  71:STM32Cube_FW_N6/Drivers/STM32N6xx_HAL_Driver/Src/stm32n6xx_hal_ramcfg.c ****                          recommended to enable the ECC address latching feature.
  72:STM32Cube_FW_N6/Drivers/STM32N6xx_HAL_Driver/Src/stm32n6xx_hal_ramcfg.c **** 
  73:STM32Cube_FW_N6/Drivers/STM32N6xx_HAL_Driver/Src/stm32n6xx_hal_ramcfg.c ****           (+) Call HAL_RAMCFG_EnableNotification() and HAL_RAMCFG_DisableNotification()
  74:STM32Cube_FW_N6/Drivers/STM32N6xx_HAL_Driver/Src/stm32n6xx_hal_ramcfg.c ****               to enable and disable ECC interrupts. Interrupts can be:
  75:STM32Cube_FW_N6/Drivers/STM32N6xx_HAL_Driver/Src/stm32n6xx_hal_ramcfg.c ****                     (++) Single error interrupt.
  76:STM32Cube_FW_N6/Drivers/STM32N6xx_HAL_Driver/Src/stm32n6xx_hal_ramcfg.c ****                     (++) Double error interrupt.
  77:STM32Cube_FW_N6/Drivers/STM32N6xx_HAL_Driver/Src/stm32n6xx_hal_ramcfg.c ****                     (++) Double error interrupt redirected to Non maskable
  78:STM32Cube_FW_N6/Drivers/STM32N6xx_HAL_Driver/Src/stm32n6xx_hal_ramcfg.c ****                           interrupt (NMI).
  79:STM32Cube_FW_N6/Drivers/STM32N6xx_HAL_Driver/Src/stm32n6xx_hal_ramcfg.c **** 
  80:STM32Cube_FW_N6/Drivers/STM32N6xx_HAL_Driver/Src/stm32n6xx_hal_ramcfg.c ****           (+) Call HAL_RAMCFG_GetSingleErrorAddress() to get the address of the
  81:STM32Cube_FW_N6/Drivers/STM32N6xx_HAL_Driver/Src/stm32n6xx_hal_ramcfg.c ****               last fail RAM word detected (only for single error) and
ARM GAS  C:\Users\DJESSOU\AppData\Local\Temp\ccLWLfBx.s 			page 3


  82:STM32Cube_FW_N6/Drivers/STM32N6xx_HAL_Driver/Src/stm32n6xx_hal_ramcfg.c ****               call HAL_RAMCFG_GetDoubleErrorAddress() to get the address of the
  83:STM32Cube_FW_N6/Drivers/STM32N6xx_HAL_Driver/Src/stm32n6xx_hal_ramcfg.c ****               last fail RAM word detected (only for double error).
  84:STM32Cube_FW_N6/Drivers/STM32N6xx_HAL_Driver/Src/stm32n6xx_hal_ramcfg.c **** 
  85:STM32Cube_FW_N6/Drivers/STM32N6xx_HAL_Driver/Src/stm32n6xx_hal_ramcfg.c ****           (+) Call HAL_RAMCFG_IsECCSingleErrorDetected() to check if an ECC single
  86:STM32Cube_FW_N6/Drivers/STM32N6xx_HAL_Driver/Src/stm32n6xx_hal_ramcfg.c ****               error was detected.
  87:STM32Cube_FW_N6/Drivers/STM32N6xx_HAL_Driver/Src/stm32n6xx_hal_ramcfg.c ****               Call HAL_RAMCFG_IsECCDoubleErrorDetected() to check if an ECC double
  88:STM32Cube_FW_N6/Drivers/STM32N6xx_HAL_Driver/Src/stm32n6xx_hal_ramcfg.c ****               error was detected.
  89:STM32Cube_FW_N6/Drivers/STM32N6xx_HAL_Driver/Src/stm32n6xx_hal_ramcfg.c ****               These APIs are used in silent mode (No ECC interrupt
  90:STM32Cube_FW_N6/Drivers/STM32N6xx_HAL_Driver/Src/stm32n6xx_hal_ramcfg.c ****               is enabled).
  91:STM32Cube_FW_N6/Drivers/STM32N6xx_HAL_Driver/Src/stm32n6xx_hal_ramcfg.c **** 
  92:STM32Cube_FW_N6/Drivers/STM32N6xx_HAL_Driver/Src/stm32n6xx_hal_ramcfg.c ****      *** Erase feature ***
  93:STM32Cube_FW_N6/Drivers/STM32N6xx_HAL_Driver/Src/stm32n6xx_hal_ramcfg.c ****      =====================
  94:STM32Cube_FW_N6/Drivers/STM32N6xx_HAL_Driver/Src/stm32n6xx_hal_ramcfg.c ****     [..]
  95:STM32Cube_FW_N6/Drivers/STM32N6xx_HAL_Driver/Src/stm32n6xx_hal_ramcfg.c ****           (+) Call HAL_RAMCFG_Erase() to launch a hardware erase for the given
  96:STM32Cube_FW_N6/Drivers/STM32N6xx_HAL_Driver/Src/stm32n6xx_hal_ramcfg.c ****               SRAM.
  97:STM32Cube_FW_N6/Drivers/STM32N6xx_HAL_Driver/Src/stm32n6xx_hal_ramcfg.c **** 
  98:STM32Cube_FW_N6/Drivers/STM32N6xx_HAL_Driver/Src/stm32n6xx_hal_ramcfg.c ****           (+) The erase value is equal to 0 when launching erase hardware through
  99:STM32Cube_FW_N6/Drivers/STM32N6xx_HAL_Driver/Src/stm32n6xx_hal_ramcfg.c ****               RAMCFG.
 100:STM32Cube_FW_N6/Drivers/STM32N6xx_HAL_Driver/Src/stm32n6xx_hal_ramcfg.c **** 
 101:STM32Cube_FW_N6/Drivers/STM32N6xx_HAL_Driver/Src/stm32n6xx_hal_ramcfg.c ****           (+) SRAM2 write protected pages are erased when performing an erase
 102:STM32Cube_FW_N6/Drivers/STM32N6xx_HAL_Driver/Src/stm32n6xx_hal_ramcfg.c ****               through RAMCFG.
 103:STM32Cube_FW_N6/Drivers/STM32N6xx_HAL_Driver/Src/stm32n6xx_hal_ramcfg.c **** 
 104:STM32Cube_FW_N6/Drivers/STM32N6xx_HAL_Driver/Src/stm32n6xx_hal_ramcfg.c ****      *** RAMCFG HAL driver macros list ***
 105:STM32Cube_FW_N6/Drivers/STM32N6xx_HAL_Driver/Src/stm32n6xx_hal_ramcfg.c ****      =====================================
 106:STM32Cube_FW_N6/Drivers/STM32N6xx_HAL_Driver/Src/stm32n6xx_hal_ramcfg.c ****      [..]
 107:STM32Cube_FW_N6/Drivers/STM32N6xx_HAL_Driver/Src/stm32n6xx_hal_ramcfg.c ****        Below the list of used macros in RAMCFG HAL driver.
 108:STM32Cube_FW_N6/Drivers/STM32N6xx_HAL_Driver/Src/stm32n6xx_hal_ramcfg.c **** 
 109:STM32Cube_FW_N6/Drivers/STM32N6xx_HAL_Driver/Src/stm32n6xx_hal_ramcfg.c ****       (+) __HAL_RAMCFG_ENABLE_IT     : Enable the specified RAMCFG interrupts.
 110:STM32Cube_FW_N6/Drivers/STM32N6xx_HAL_Driver/Src/stm32n6xx_hal_ramcfg.c ****       (+) __HAL_RAMCFG_DISABLE_IT    : Disable the specified RAMCFG interrupts.
 111:STM32Cube_FW_N6/Drivers/STM32N6xx_HAL_Driver/Src/stm32n6xx_hal_ramcfg.c ****       (+) __HAL_RAMCFG_GET_FLAG      : Get the RAMCFG pending flags.
 112:STM32Cube_FW_N6/Drivers/STM32N6xx_HAL_Driver/Src/stm32n6xx_hal_ramcfg.c ****       (+) __HAL_RAMCFG_CLEAR_FLAG    : Clear the RAMCFG pending flags.
 113:STM32Cube_FW_N6/Drivers/STM32N6xx_HAL_Driver/Src/stm32n6xx_hal_ramcfg.c ****       (+) __HAL_RAMCFG_GET_IT_SOURCE : Check whether the specified RAMCFG
 114:STM32Cube_FW_N6/Drivers/STM32N6xx_HAL_Driver/Src/stm32n6xx_hal_ramcfg.c ****                                        interrupt source is enabled or not.
 115:STM32Cube_FW_N6/Drivers/STM32N6xx_HAL_Driver/Src/stm32n6xx_hal_ramcfg.c ****   @endverbatim
 116:STM32Cube_FW_N6/Drivers/STM32N6xx_HAL_Driver/Src/stm32n6xx_hal_ramcfg.c ****   */
 117:STM32Cube_FW_N6/Drivers/STM32N6xx_HAL_Driver/Src/stm32n6xx_hal_ramcfg.c **** 
 118:STM32Cube_FW_N6/Drivers/STM32N6xx_HAL_Driver/Src/stm32n6xx_hal_ramcfg.c **** /* Includes ------------------------------------------------------------------*/
 119:STM32Cube_FW_N6/Drivers/STM32N6xx_HAL_Driver/Src/stm32n6xx_hal_ramcfg.c **** #include "stm32n6xx_hal.h"
 120:STM32Cube_FW_N6/Drivers/STM32N6xx_HAL_Driver/Src/stm32n6xx_hal_ramcfg.c **** 
 121:STM32Cube_FW_N6/Drivers/STM32N6xx_HAL_Driver/Src/stm32n6xx_hal_ramcfg.c **** /** @addtogroup STM32N6xx_HAL_Driver
 122:STM32Cube_FW_N6/Drivers/STM32N6xx_HAL_Driver/Src/stm32n6xx_hal_ramcfg.c ****   * @{
 123:STM32Cube_FW_N6/Drivers/STM32N6xx_HAL_Driver/Src/stm32n6xx_hal_ramcfg.c ****   */
 124:STM32Cube_FW_N6/Drivers/STM32N6xx_HAL_Driver/Src/stm32n6xx_hal_ramcfg.c **** 
 125:STM32Cube_FW_N6/Drivers/STM32N6xx_HAL_Driver/Src/stm32n6xx_hal_ramcfg.c **** /** @defgroup RAMCFG RAMCFG
 126:STM32Cube_FW_N6/Drivers/STM32N6xx_HAL_Driver/Src/stm32n6xx_hal_ramcfg.c ****   * @brief RAMCFG HAL module driver
 127:STM32Cube_FW_N6/Drivers/STM32N6xx_HAL_Driver/Src/stm32n6xx_hal_ramcfg.c ****   * @{
 128:STM32Cube_FW_N6/Drivers/STM32N6xx_HAL_Driver/Src/stm32n6xx_hal_ramcfg.c ****   */
 129:STM32Cube_FW_N6/Drivers/STM32N6xx_HAL_Driver/Src/stm32n6xx_hal_ramcfg.c **** 
 130:STM32Cube_FW_N6/Drivers/STM32N6xx_HAL_Driver/Src/stm32n6xx_hal_ramcfg.c **** #ifdef HAL_RAMCFG_MODULE_ENABLED
 131:STM32Cube_FW_N6/Drivers/STM32N6xx_HAL_Driver/Src/stm32n6xx_hal_ramcfg.c **** 
 132:STM32Cube_FW_N6/Drivers/STM32N6xx_HAL_Driver/Src/stm32n6xx_hal_ramcfg.c **** /* Private types -------------------------------------------------------------*/
 133:STM32Cube_FW_N6/Drivers/STM32N6xx_HAL_Driver/Src/stm32n6xx_hal_ramcfg.c **** /* Private variables ---------------------------------------------------------*/
 134:STM32Cube_FW_N6/Drivers/STM32N6xx_HAL_Driver/Src/stm32n6xx_hal_ramcfg.c **** /* Private constants ---------------------------------------------------------*/
 135:STM32Cube_FW_N6/Drivers/STM32N6xx_HAL_Driver/Src/stm32n6xx_hal_ramcfg.c **** 
 136:STM32Cube_FW_N6/Drivers/STM32N6xx_HAL_Driver/Src/stm32n6xx_hal_ramcfg.c **** /** @addtogroup RAMCFG_Private_Constants
 137:STM32Cube_FW_N6/Drivers/STM32N6xx_HAL_Driver/Src/stm32n6xx_hal_ramcfg.c ****   * @{
 138:STM32Cube_FW_N6/Drivers/STM32N6xx_HAL_Driver/Src/stm32n6xx_hal_ramcfg.c ****   */
ARM GAS  C:\Users\DJESSOU\AppData\Local\Temp\ccLWLfBx.s 			page 4


 139:STM32Cube_FW_N6/Drivers/STM32N6xx_HAL_Driver/Src/stm32n6xx_hal_ramcfg.c **** #define RAMCFG_TIMEOUT_VALUE 50000U
 140:STM32Cube_FW_N6/Drivers/STM32N6xx_HAL_Driver/Src/stm32n6xx_hal_ramcfg.c **** /**
 141:STM32Cube_FW_N6/Drivers/STM32N6xx_HAL_Driver/Src/stm32n6xx_hal_ramcfg.c ****   * @}
 142:STM32Cube_FW_N6/Drivers/STM32N6xx_HAL_Driver/Src/stm32n6xx_hal_ramcfg.c ****   */
 143:STM32Cube_FW_N6/Drivers/STM32N6xx_HAL_Driver/Src/stm32n6xx_hal_ramcfg.c **** 
 144:STM32Cube_FW_N6/Drivers/STM32N6xx_HAL_Driver/Src/stm32n6xx_hal_ramcfg.c **** /* Private macros ------------------------------------------------------------*/
 145:STM32Cube_FW_N6/Drivers/STM32N6xx_HAL_Driver/Src/stm32n6xx_hal_ramcfg.c **** /* Private functions ---------------------------------------------------------*/
 146:STM32Cube_FW_N6/Drivers/STM32N6xx_HAL_Driver/Src/stm32n6xx_hal_ramcfg.c **** /* Exported functions --------------------------------------------------------*/
 147:STM32Cube_FW_N6/Drivers/STM32N6xx_HAL_Driver/Src/stm32n6xx_hal_ramcfg.c **** 
 148:STM32Cube_FW_N6/Drivers/STM32N6xx_HAL_Driver/Src/stm32n6xx_hal_ramcfg.c **** /** @addtogroup RAMCFG_Exported_Functions
 149:STM32Cube_FW_N6/Drivers/STM32N6xx_HAL_Driver/Src/stm32n6xx_hal_ramcfg.c ****   * @{
 150:STM32Cube_FW_N6/Drivers/STM32N6xx_HAL_Driver/Src/stm32n6xx_hal_ramcfg.c ****   */
 151:STM32Cube_FW_N6/Drivers/STM32N6xx_HAL_Driver/Src/stm32n6xx_hal_ramcfg.c **** 
 152:STM32Cube_FW_N6/Drivers/STM32N6xx_HAL_Driver/Src/stm32n6xx_hal_ramcfg.c **** /** @addtogroup RAMCFG_Exported_Functions_Group1
 153:STM32Cube_FW_N6/Drivers/STM32N6xx_HAL_Driver/Src/stm32n6xx_hal_ramcfg.c ****   *
 154:STM32Cube_FW_N6/Drivers/STM32N6xx_HAL_Driver/Src/stm32n6xx_hal_ramcfg.c **** @verbatim
 155:STM32Cube_FW_N6/Drivers/STM32N6xx_HAL_Driver/Src/stm32n6xx_hal_ramcfg.c ****  ===============================================================================
 156:STM32Cube_FW_N6/Drivers/STM32N6xx_HAL_Driver/Src/stm32n6xx_hal_ramcfg.c ****              ##### Initialization and de-initialization Functions  #####
 157:STM32Cube_FW_N6/Drivers/STM32N6xx_HAL_Driver/Src/stm32n6xx_hal_ramcfg.c ****  ===============================================================================
 158:STM32Cube_FW_N6/Drivers/STM32N6xx_HAL_Driver/Src/stm32n6xx_hal_ramcfg.c ****     [..]
 159:STM32Cube_FW_N6/Drivers/STM32N6xx_HAL_Driver/Src/stm32n6xx_hal_ramcfg.c ****       This section provides functions allowing to initialize and de-initialize the
 160:STM32Cube_FW_N6/Drivers/STM32N6xx_HAL_Driver/Src/stm32n6xx_hal_ramcfg.c ****       RAMCFG instance.
 161:STM32Cube_FW_N6/Drivers/STM32N6xx_HAL_Driver/Src/stm32n6xx_hal_ramcfg.c ****     [..]
 162:STM32Cube_FW_N6/Drivers/STM32N6xx_HAL_Driver/Src/stm32n6xx_hal_ramcfg.c ****       The HAL_RAMCFG_Init() function follows the RAMCFG instance configuration
 163:STM32Cube_FW_N6/Drivers/STM32N6xx_HAL_Driver/Src/stm32n6xx_hal_ramcfg.c ****       procedures as described in the reference manual.
 164:STM32Cube_FW_N6/Drivers/STM32N6xx_HAL_Driver/Src/stm32n6xx_hal_ramcfg.c ****       The HAL_RAMCFG_DeInit() function allows to deinitialize the RAMCFG instance.
 165:STM32Cube_FW_N6/Drivers/STM32N6xx_HAL_Driver/Src/stm32n6xx_hal_ramcfg.c ****       HAL_RAMCFG_Init() and HAL_RAMCFG_DeInit() APIs do not change the activation
 166:STM32Cube_FW_N6/Drivers/STM32N6xx_HAL_Driver/Src/stm32n6xx_hal_ramcfg.c ****       status of ECC feature. It is managed by HAL_RAMCFG_StartECC(),
 167:STM32Cube_FW_N6/Drivers/STM32N6xx_HAL_Driver/Src/stm32n6xx_hal_ramcfg.c ****       HAL_RAMCFG_StopECC() or option bytes (When available on the device).
 168:STM32Cube_FW_N6/Drivers/STM32N6xx_HAL_Driver/Src/stm32n6xx_hal_ramcfg.c **** 
 169:STM32Cube_FW_N6/Drivers/STM32N6xx_HAL_Driver/Src/stm32n6xx_hal_ramcfg.c **** @endverbatim
 170:STM32Cube_FW_N6/Drivers/STM32N6xx_HAL_Driver/Src/stm32n6xx_hal_ramcfg.c ****   * @{
 171:STM32Cube_FW_N6/Drivers/STM32N6xx_HAL_Driver/Src/stm32n6xx_hal_ramcfg.c ****   */
 172:STM32Cube_FW_N6/Drivers/STM32N6xx_HAL_Driver/Src/stm32n6xx_hal_ramcfg.c **** 
 173:STM32Cube_FW_N6/Drivers/STM32N6xx_HAL_Driver/Src/stm32n6xx_hal_ramcfg.c **** /**
 174:STM32Cube_FW_N6/Drivers/STM32N6xx_HAL_Driver/Src/stm32n6xx_hal_ramcfg.c ****   * @brief  Initialize the RAMCFG by clearing flags and disabling interrupts.
 175:STM32Cube_FW_N6/Drivers/STM32N6xx_HAL_Driver/Src/stm32n6xx_hal_ramcfg.c ****   * @param  hramcfg : Pointer to a RAMCFG_HandleTypeDef structure that contains
 176:STM32Cube_FW_N6/Drivers/STM32N6xx_HAL_Driver/Src/stm32n6xx_hal_ramcfg.c ****   *                   the configuration information for the specified RAMCFG
 177:STM32Cube_FW_N6/Drivers/STM32N6xx_HAL_Driver/Src/stm32n6xx_hal_ramcfg.c ****   *                   instance.
 178:STM32Cube_FW_N6/Drivers/STM32N6xx_HAL_Driver/Src/stm32n6xx_hal_ramcfg.c ****   * @retval HAL status.
 179:STM32Cube_FW_N6/Drivers/STM32N6xx_HAL_Driver/Src/stm32n6xx_hal_ramcfg.c ****   */
 180:STM32Cube_FW_N6/Drivers/STM32N6xx_HAL_Driver/Src/stm32n6xx_hal_ramcfg.c **** HAL_StatusTypeDef HAL_RAMCFG_Init(RAMCFG_HandleTypeDef *hramcfg)
 181:STM32Cube_FW_N6/Drivers/STM32N6xx_HAL_Driver/Src/stm32n6xx_hal_ramcfg.c **** {
 182:STM32Cube_FW_N6/Drivers/STM32N6xx_HAL_Driver/Src/stm32n6xx_hal_ramcfg.c ****   /* Check the RAMCFG peripheral handle */
 183:STM32Cube_FW_N6/Drivers/STM32N6xx_HAL_Driver/Src/stm32n6xx_hal_ramcfg.c ****   if (hramcfg == NULL)
 184:STM32Cube_FW_N6/Drivers/STM32N6xx_HAL_Driver/Src/stm32n6xx_hal_ramcfg.c ****   {
 185:STM32Cube_FW_N6/Drivers/STM32N6xx_HAL_Driver/Src/stm32n6xx_hal_ramcfg.c ****     return HAL_ERROR;
 186:STM32Cube_FW_N6/Drivers/STM32N6xx_HAL_Driver/Src/stm32n6xx_hal_ramcfg.c ****   }
 187:STM32Cube_FW_N6/Drivers/STM32N6xx_HAL_Driver/Src/stm32n6xx_hal_ramcfg.c **** 
 188:STM32Cube_FW_N6/Drivers/STM32N6xx_HAL_Driver/Src/stm32n6xx_hal_ramcfg.c ****   /* Check the parameters */
 189:STM32Cube_FW_N6/Drivers/STM32N6xx_HAL_Driver/Src/stm32n6xx_hal_ramcfg.c ****   assert_param(IS_RAMCFG_ALL_INSTANCE(hramcfg->Instance));
 190:STM32Cube_FW_N6/Drivers/STM32N6xx_HAL_Driver/Src/stm32n6xx_hal_ramcfg.c **** 
 191:STM32Cube_FW_N6/Drivers/STM32N6xx_HAL_Driver/Src/stm32n6xx_hal_ramcfg.c ****   /* Update RAMCFG peripheral state */
 192:STM32Cube_FW_N6/Drivers/STM32N6xx_HAL_Driver/Src/stm32n6xx_hal_ramcfg.c ****   hramcfg->State = HAL_RAMCFG_STATE_BUSY;
 193:STM32Cube_FW_N6/Drivers/STM32N6xx_HAL_Driver/Src/stm32n6xx_hal_ramcfg.c **** 
 194:STM32Cube_FW_N6/Drivers/STM32N6xx_HAL_Driver/Src/stm32n6xx_hal_ramcfg.c **** #if (USE_HAL_RAMCFG_REGISTER_CALLBACKS == 1)
 195:STM32Cube_FW_N6/Drivers/STM32N6xx_HAL_Driver/Src/stm32n6xx_hal_ramcfg.c ****   /* Check if a valid MSP API was registered */
ARM GAS  C:\Users\DJESSOU\AppData\Local\Temp\ccLWLfBx.s 			page 5


 196:STM32Cube_FW_N6/Drivers/STM32N6xx_HAL_Driver/Src/stm32n6xx_hal_ramcfg.c ****   if (hramcfg->MspInitCallback == NULL)
 197:STM32Cube_FW_N6/Drivers/STM32N6xx_HAL_Driver/Src/stm32n6xx_hal_ramcfg.c ****   {
 198:STM32Cube_FW_N6/Drivers/STM32N6xx_HAL_Driver/Src/stm32n6xx_hal_ramcfg.c ****     /* Init the low level hardware */
 199:STM32Cube_FW_N6/Drivers/STM32N6xx_HAL_Driver/Src/stm32n6xx_hal_ramcfg.c ****     hramcfg->MspInitCallback = HAL_RAMCFG_MspInit;
 200:STM32Cube_FW_N6/Drivers/STM32N6xx_HAL_Driver/Src/stm32n6xx_hal_ramcfg.c ****   }
 201:STM32Cube_FW_N6/Drivers/STM32N6xx_HAL_Driver/Src/stm32n6xx_hal_ramcfg.c **** 
 202:STM32Cube_FW_N6/Drivers/STM32N6xx_HAL_Driver/Src/stm32n6xx_hal_ramcfg.c ****   /* Init the low level hardware */
 203:STM32Cube_FW_N6/Drivers/STM32N6xx_HAL_Driver/Src/stm32n6xx_hal_ramcfg.c ****   hramcfg->MspInitCallback(hramcfg);
 204:STM32Cube_FW_N6/Drivers/STM32N6xx_HAL_Driver/Src/stm32n6xx_hal_ramcfg.c **** #else
 205:STM32Cube_FW_N6/Drivers/STM32N6xx_HAL_Driver/Src/stm32n6xx_hal_ramcfg.c ****   HAL_RAMCFG_MspInit(hramcfg);
 206:STM32Cube_FW_N6/Drivers/STM32N6xx_HAL_Driver/Src/stm32n6xx_hal_ramcfg.c **** #endif /* USE_HAL_RAMCFG_REGISTER_CALLBACKS */
 207:STM32Cube_FW_N6/Drivers/STM32N6xx_HAL_Driver/Src/stm32n6xx_hal_ramcfg.c **** 
 208:STM32Cube_FW_N6/Drivers/STM32N6xx_HAL_Driver/Src/stm32n6xx_hal_ramcfg.c ****   /* Disable the ECC Address latch */
 209:STM32Cube_FW_N6/Drivers/STM32N6xx_HAL_Driver/Src/stm32n6xx_hal_ramcfg.c ****   hramcfg->Instance->CR &= ~(RAMCFG_CR_ALE);
 210:STM32Cube_FW_N6/Drivers/STM32N6xx_HAL_Driver/Src/stm32n6xx_hal_ramcfg.c **** 
 211:STM32Cube_FW_N6/Drivers/STM32N6xx_HAL_Driver/Src/stm32n6xx_hal_ramcfg.c ****   /* Disable all RAMCFG interrupts */
 212:STM32Cube_FW_N6/Drivers/STM32N6xx_HAL_Driver/Src/stm32n6xx_hal_ramcfg.c ****   __HAL_RAMCFG_DISABLE_IT(hramcfg, RAMCFG_IT_ALL);
 213:STM32Cube_FW_N6/Drivers/STM32N6xx_HAL_Driver/Src/stm32n6xx_hal_ramcfg.c **** 
 214:STM32Cube_FW_N6/Drivers/STM32N6xx_HAL_Driver/Src/stm32n6xx_hal_ramcfg.c ****   /* Clear RAMCFG monitor flags */
 215:STM32Cube_FW_N6/Drivers/STM32N6xx_HAL_Driver/Src/stm32n6xx_hal_ramcfg.c ****   __HAL_RAMCFG_CLEAR_FLAG(hramcfg, RAMCFG_FLAGS_ALL);
 216:STM32Cube_FW_N6/Drivers/STM32N6xx_HAL_Driver/Src/stm32n6xx_hal_ramcfg.c **** 
 217:STM32Cube_FW_N6/Drivers/STM32N6xx_HAL_Driver/Src/stm32n6xx_hal_ramcfg.c ****   /* Initialize the RAMCFG error code */
 218:STM32Cube_FW_N6/Drivers/STM32N6xx_HAL_Driver/Src/stm32n6xx_hal_ramcfg.c ****   hramcfg->ErrorCode = HAL_RAMCFG_ERROR_NONE;
 219:STM32Cube_FW_N6/Drivers/STM32N6xx_HAL_Driver/Src/stm32n6xx_hal_ramcfg.c **** 
 220:STM32Cube_FW_N6/Drivers/STM32N6xx_HAL_Driver/Src/stm32n6xx_hal_ramcfg.c ****   /* Initialize the RAMCFG state */
 221:STM32Cube_FW_N6/Drivers/STM32N6xx_HAL_Driver/Src/stm32n6xx_hal_ramcfg.c ****   hramcfg->State = HAL_RAMCFG_STATE_READY;
 222:STM32Cube_FW_N6/Drivers/STM32N6xx_HAL_Driver/Src/stm32n6xx_hal_ramcfg.c **** 
 223:STM32Cube_FW_N6/Drivers/STM32N6xx_HAL_Driver/Src/stm32n6xx_hal_ramcfg.c ****   return HAL_OK;
 224:STM32Cube_FW_N6/Drivers/STM32N6xx_HAL_Driver/Src/stm32n6xx_hal_ramcfg.c **** }
 225:STM32Cube_FW_N6/Drivers/STM32N6xx_HAL_Driver/Src/stm32n6xx_hal_ramcfg.c **** 
 226:STM32Cube_FW_N6/Drivers/STM32N6xx_HAL_Driver/Src/stm32n6xx_hal_ramcfg.c **** /**
 227:STM32Cube_FW_N6/Drivers/STM32N6xx_HAL_Driver/Src/stm32n6xx_hal_ramcfg.c ****   * @brief  DeInitialize the RAMCFG peripheral.
 228:STM32Cube_FW_N6/Drivers/STM32N6xx_HAL_Driver/Src/stm32n6xx_hal_ramcfg.c ****   * @param  hramcfg : Pointer to a RAMCFG_HandleTypeDef structure that contains
 229:STM32Cube_FW_N6/Drivers/STM32N6xx_HAL_Driver/Src/stm32n6xx_hal_ramcfg.c ****   *                   the configuration information for the specified RAMCFG
 230:STM32Cube_FW_N6/Drivers/STM32N6xx_HAL_Driver/Src/stm32n6xx_hal_ramcfg.c ****   *                   instance.
 231:STM32Cube_FW_N6/Drivers/STM32N6xx_HAL_Driver/Src/stm32n6xx_hal_ramcfg.c ****   * @retval HAL status.
 232:STM32Cube_FW_N6/Drivers/STM32N6xx_HAL_Driver/Src/stm32n6xx_hal_ramcfg.c ****   */
 233:STM32Cube_FW_N6/Drivers/STM32N6xx_HAL_Driver/Src/stm32n6xx_hal_ramcfg.c **** HAL_StatusTypeDef HAL_RAMCFG_DeInit(RAMCFG_HandleTypeDef *hramcfg)
 234:STM32Cube_FW_N6/Drivers/STM32N6xx_HAL_Driver/Src/stm32n6xx_hal_ramcfg.c **** {
 235:STM32Cube_FW_N6/Drivers/STM32N6xx_HAL_Driver/Src/stm32n6xx_hal_ramcfg.c ****   /* Check the RAMCFG peripheral handle */
 236:STM32Cube_FW_N6/Drivers/STM32N6xx_HAL_Driver/Src/stm32n6xx_hal_ramcfg.c ****   if (hramcfg == NULL)
 237:STM32Cube_FW_N6/Drivers/STM32N6xx_HAL_Driver/Src/stm32n6xx_hal_ramcfg.c ****   {
 238:STM32Cube_FW_N6/Drivers/STM32N6xx_HAL_Driver/Src/stm32n6xx_hal_ramcfg.c ****     return HAL_ERROR;
 239:STM32Cube_FW_N6/Drivers/STM32N6xx_HAL_Driver/Src/stm32n6xx_hal_ramcfg.c ****   }
 240:STM32Cube_FW_N6/Drivers/STM32N6xx_HAL_Driver/Src/stm32n6xx_hal_ramcfg.c **** 
 241:STM32Cube_FW_N6/Drivers/STM32N6xx_HAL_Driver/Src/stm32n6xx_hal_ramcfg.c ****   /* Check the parameters */
 242:STM32Cube_FW_N6/Drivers/STM32N6xx_HAL_Driver/Src/stm32n6xx_hal_ramcfg.c ****   assert_param(IS_RAMCFG_ALL_INSTANCE(hramcfg->Instance));
 243:STM32Cube_FW_N6/Drivers/STM32N6xx_HAL_Driver/Src/stm32n6xx_hal_ramcfg.c **** 
 244:STM32Cube_FW_N6/Drivers/STM32N6xx_HAL_Driver/Src/stm32n6xx_hal_ramcfg.c ****   /* Disable the ECC Address latch */
 245:STM32Cube_FW_N6/Drivers/STM32N6xx_HAL_Driver/Src/stm32n6xx_hal_ramcfg.c ****   hramcfg->Instance->CR &= ~(RAMCFG_CR_ALE);
 246:STM32Cube_FW_N6/Drivers/STM32N6xx_HAL_Driver/Src/stm32n6xx_hal_ramcfg.c **** 
 247:STM32Cube_FW_N6/Drivers/STM32N6xx_HAL_Driver/Src/stm32n6xx_hal_ramcfg.c ****   /* Disable all RAMCFG interrupts */
 248:STM32Cube_FW_N6/Drivers/STM32N6xx_HAL_Driver/Src/stm32n6xx_hal_ramcfg.c ****   __HAL_RAMCFG_DISABLE_IT(hramcfg, RAMCFG_IT_ALL);
 249:STM32Cube_FW_N6/Drivers/STM32N6xx_HAL_Driver/Src/stm32n6xx_hal_ramcfg.c **** 
 250:STM32Cube_FW_N6/Drivers/STM32N6xx_HAL_Driver/Src/stm32n6xx_hal_ramcfg.c ****   /* Clear RAMCFG monitor flags */
 251:STM32Cube_FW_N6/Drivers/STM32N6xx_HAL_Driver/Src/stm32n6xx_hal_ramcfg.c ****   __HAL_RAMCFG_CLEAR_FLAG(hramcfg, RAMCFG_FLAGS_ALL);
 252:STM32Cube_FW_N6/Drivers/STM32N6xx_HAL_Driver/Src/stm32n6xx_hal_ramcfg.c **** 
ARM GAS  C:\Users\DJESSOU\AppData\Local\Temp\ccLWLfBx.s 			page 6


 253:STM32Cube_FW_N6/Drivers/STM32N6xx_HAL_Driver/Src/stm32n6xx_hal_ramcfg.c **** #if (USE_HAL_RAMCFG_REGISTER_CALLBACKS == 1)
 254:STM32Cube_FW_N6/Drivers/STM32N6xx_HAL_Driver/Src/stm32n6xx_hal_ramcfg.c ****   /* Check if a valid MSP API was registered */
 255:STM32Cube_FW_N6/Drivers/STM32N6xx_HAL_Driver/Src/stm32n6xx_hal_ramcfg.c ****   if (hramcfg->MspDeInitCallback != NULL)
 256:STM32Cube_FW_N6/Drivers/STM32N6xx_HAL_Driver/Src/stm32n6xx_hal_ramcfg.c ****   {
 257:STM32Cube_FW_N6/Drivers/STM32N6xx_HAL_Driver/Src/stm32n6xx_hal_ramcfg.c ****     /* Init the low level hardware */
 258:STM32Cube_FW_N6/Drivers/STM32N6xx_HAL_Driver/Src/stm32n6xx_hal_ramcfg.c ****     hramcfg->MspDeInitCallback(hramcfg);
 259:STM32Cube_FW_N6/Drivers/STM32N6xx_HAL_Driver/Src/stm32n6xx_hal_ramcfg.c ****   }
 260:STM32Cube_FW_N6/Drivers/STM32N6xx_HAL_Driver/Src/stm32n6xx_hal_ramcfg.c **** 
 261:STM32Cube_FW_N6/Drivers/STM32N6xx_HAL_Driver/Src/stm32n6xx_hal_ramcfg.c ****   /* Clean callbacks */
 262:STM32Cube_FW_N6/Drivers/STM32N6xx_HAL_Driver/Src/stm32n6xx_hal_ramcfg.c ****   hramcfg->DetectSingleErrorCallback = NULL;
 263:STM32Cube_FW_N6/Drivers/STM32N6xx_HAL_Driver/Src/stm32n6xx_hal_ramcfg.c ****   hramcfg->DetectDoubleErrorCallback = NULL;
 264:STM32Cube_FW_N6/Drivers/STM32N6xx_HAL_Driver/Src/stm32n6xx_hal_ramcfg.c **** #else
 265:STM32Cube_FW_N6/Drivers/STM32N6xx_HAL_Driver/Src/stm32n6xx_hal_ramcfg.c ****   HAL_RAMCFG_MspDeInit(hramcfg);
 266:STM32Cube_FW_N6/Drivers/STM32N6xx_HAL_Driver/Src/stm32n6xx_hal_ramcfg.c **** #endif /* USE_HAL_RAMCFG_REGISTER_CALLBACKS */
 267:STM32Cube_FW_N6/Drivers/STM32N6xx_HAL_Driver/Src/stm32n6xx_hal_ramcfg.c **** 
 268:STM32Cube_FW_N6/Drivers/STM32N6xx_HAL_Driver/Src/stm32n6xx_hal_ramcfg.c ****   /* Reset the RAMCFG error code */
 269:STM32Cube_FW_N6/Drivers/STM32N6xx_HAL_Driver/Src/stm32n6xx_hal_ramcfg.c ****   hramcfg->ErrorCode = HAL_RAMCFG_ERROR_NONE;
 270:STM32Cube_FW_N6/Drivers/STM32N6xx_HAL_Driver/Src/stm32n6xx_hal_ramcfg.c **** 
 271:STM32Cube_FW_N6/Drivers/STM32N6xx_HAL_Driver/Src/stm32n6xx_hal_ramcfg.c ****   /* Reset the RAMCFG state */
 272:STM32Cube_FW_N6/Drivers/STM32N6xx_HAL_Driver/Src/stm32n6xx_hal_ramcfg.c ****   hramcfg->State = HAL_RAMCFG_STATE_RESET;
 273:STM32Cube_FW_N6/Drivers/STM32N6xx_HAL_Driver/Src/stm32n6xx_hal_ramcfg.c **** 
 274:STM32Cube_FW_N6/Drivers/STM32N6xx_HAL_Driver/Src/stm32n6xx_hal_ramcfg.c ****   return HAL_OK;
 275:STM32Cube_FW_N6/Drivers/STM32N6xx_HAL_Driver/Src/stm32n6xx_hal_ramcfg.c **** }
 276:STM32Cube_FW_N6/Drivers/STM32N6xx_HAL_Driver/Src/stm32n6xx_hal_ramcfg.c **** 
 277:STM32Cube_FW_N6/Drivers/STM32N6xx_HAL_Driver/Src/stm32n6xx_hal_ramcfg.c **** /**
 278:STM32Cube_FW_N6/Drivers/STM32N6xx_HAL_Driver/Src/stm32n6xx_hal_ramcfg.c ****   * @brief Initialize the RAMCFG MSP.
 279:STM32Cube_FW_N6/Drivers/STM32N6xx_HAL_Driver/Src/stm32n6xx_hal_ramcfg.c ****   * @param hramcfg : Pointer to a RAMCFG_HandleTypeDef structure that contains
 280:STM32Cube_FW_N6/Drivers/STM32N6xx_HAL_Driver/Src/stm32n6xx_hal_ramcfg.c ****   *                  the configuration information for the specified RAMCFG.
 281:STM32Cube_FW_N6/Drivers/STM32N6xx_HAL_Driver/Src/stm32n6xx_hal_ramcfg.c ****   * @retval None.
 282:STM32Cube_FW_N6/Drivers/STM32N6xx_HAL_Driver/Src/stm32n6xx_hal_ramcfg.c ****   */
 283:STM32Cube_FW_N6/Drivers/STM32N6xx_HAL_Driver/Src/stm32n6xx_hal_ramcfg.c **** __weak void HAL_RAMCFG_MspInit(RAMCFG_HandleTypeDef *hramcfg)
 284:STM32Cube_FW_N6/Drivers/STM32N6xx_HAL_Driver/Src/stm32n6xx_hal_ramcfg.c **** {
  35              		.loc 1 284 1 view -0
  36              		.cfi_startproc
  37              		@ args = 0, pretend = 0, frame = 0
  38              		@ frame_needed = 0, uses_anonymous_args = 0
  39              		@ link register save eliminated.
 285:STM32Cube_FW_N6/Drivers/STM32N6xx_HAL_Driver/Src/stm32n6xx_hal_ramcfg.c ****   /* Prevent unused argument(s) compilation warning */
 286:STM32Cube_FW_N6/Drivers/STM32N6xx_HAL_Driver/Src/stm32n6xx_hal_ramcfg.c ****   UNUSED(hramcfg);
  40              		.loc 1 286 3 view .LVU1
 287:STM32Cube_FW_N6/Drivers/STM32N6xx_HAL_Driver/Src/stm32n6xx_hal_ramcfg.c **** 
 288:STM32Cube_FW_N6/Drivers/STM32N6xx_HAL_Driver/Src/stm32n6xx_hal_ramcfg.c ****   /* NOTE : This function should not be modified, when the callback is needed,
 289:STM32Cube_FW_N6/Drivers/STM32N6xx_HAL_Driver/Src/stm32n6xx_hal_ramcfg.c ****             the HAL_RAMCFG_MspInit can be implemented in the user file      */
 290:STM32Cube_FW_N6/Drivers/STM32N6xx_HAL_Driver/Src/stm32n6xx_hal_ramcfg.c **** }
  41              		.loc 1 290 1 is_stmt 0 view .LVU2
  42 0000 7047     		bx	lr
  43              		.cfi_endproc
  44              	.LFE864:
  46              		.section	.rodata.HAL_RAMCFG_Init.str1.1,"aMS",%progbits,1
  47              	.LC0:
  48 0000 53544D33 		.ascii	"STM32Cube_FW_N6/Drivers/STM32N6xx_HAL_Driver/Src/st"
  48      32437562 
  48      655F4657 
  48      5F4E362F 
  48      44726976 
  49 0033 6D33326E 		.ascii	"m32n6xx_hal_ramcfg.c\000"
  49      3678785F 
ARM GAS  C:\Users\DJESSOU\AppData\Local\Temp\ccLWLfBx.s 			page 7


  49      68616C5F 
  49      72616D63 
  49      66672E63 
  50              		.section	.text.HAL_RAMCFG_Init,"ax",%progbits
  51              		.align	1
  52              		.global	HAL_RAMCFG_Init
  53              		.syntax unified
  54              		.thumb
  55              		.thumb_func
  57              	HAL_RAMCFG_Init:
  58              	.LVL1:
  59              	.LFB862:
 181:STM32Cube_FW_N6/Drivers/STM32N6xx_HAL_Driver/Src/stm32n6xx_hal_ramcfg.c ****   /* Check the RAMCFG peripheral handle */
  60              		.loc 1 181 1 is_stmt 1 view -0
  61              		.cfi_startproc
  62              		@ args = 0, pretend = 0, frame = 0
  63              		@ frame_needed = 0, uses_anonymous_args = 0
 183:STM32Cube_FW_N6/Drivers/STM32N6xx_HAL_Driver/Src/stm32n6xx_hal_ramcfg.c ****   {
  64              		.loc 1 183 3 view .LVU4
 181:STM32Cube_FW_N6/Drivers/STM32N6xx_HAL_Driver/Src/stm32n6xx_hal_ramcfg.c ****   /* Check the RAMCFG peripheral handle */
  65              		.loc 1 181 1 is_stmt 0 view .LVU5
  66 0000 10B5     		push	{r4, lr}
  67              		.cfi_def_cfa_offset 8
  68              		.cfi_offset 4, -8
  69              		.cfi_offset 14, -4
 183:STM32Cube_FW_N6/Drivers/STM32N6xx_HAL_Driver/Src/stm32n6xx_hal_ramcfg.c ****   {
  70              		.loc 1 183 6 view .LVU6
  71 0002 0446     		mov	r4, r0
  72 0004 0028     		cmp	r0, #0
  73 0006 78D0     		beq	.L5
 189:STM32Cube_FW_N6/Drivers/STM32N6xx_HAL_Driver/Src/stm32n6xx_hal_ramcfg.c **** 
  74              		.loc 1 189 3 is_stmt 1 view .LVU7
  75 0008 0368     		ldr	r3, [r0]
  76 000a 3D4A     		ldr	r2, .L6
  77 000c 9342     		cmp	r3, r2
  78 000e 5BD0     		beq	.L4
 189:STM32Cube_FW_N6/Drivers/STM32N6xx_HAL_Driver/Src/stm32n6xx_hal_ramcfg.c **** 
  79              		.loc 1 189 3 is_stmt 0 discriminator 1 view .LVU8
  80 0010 02F17042 		add	r2, r2, #-268435456
  81 0014 9342     		cmp	r3, r2
  82 0016 57D0     		beq	.L4
 189:STM32Cube_FW_N6/Drivers/STM32N6xx_HAL_Driver/Src/stm32n6xx_hal_ramcfg.c **** 
  83              		.loc 1 189 3 discriminator 2 view .LVU9
  84 0018 02F18052 		add	r2, r2, #268435456
  85 001c 8032     		adds	r2, r2, #128
  86 001e 9342     		cmp	r3, r2
  87 0020 52D0     		beq	.L4
 189:STM32Cube_FW_N6/Drivers/STM32N6xx_HAL_Driver/Src/stm32n6xx_hal_ramcfg.c **** 
  88              		.loc 1 189 3 discriminator 3 view .LVU10
  89 0022 02F17042 		add	r2, r2, #-268435456
  90 0026 9342     		cmp	r3, r2
  91 0028 4ED0     		beq	.L4
 189:STM32Cube_FW_N6/Drivers/STM32N6xx_HAL_Driver/Src/stm32n6xx_hal_ramcfg.c **** 
  92              		.loc 1 189 3 discriminator 4 view .LVU11
  93 002a 364A     		ldr	r2, .L6+4
  94 002c 9342     		cmp	r3, r2
  95 002e 4BD0     		beq	.L4
ARM GAS  C:\Users\DJESSOU\AppData\Local\Temp\ccLWLfBx.s 			page 8


 189:STM32Cube_FW_N6/Drivers/STM32N6xx_HAL_Driver/Src/stm32n6xx_hal_ramcfg.c **** 
  96              		.loc 1 189 3 discriminator 5 view .LVU12
  97 0030 02F17042 		add	r2, r2, #-268435456
  98 0034 9342     		cmp	r3, r2
  99 0036 47D0     		beq	.L4
 189:STM32Cube_FW_N6/Drivers/STM32N6xx_HAL_Driver/Src/stm32n6xx_hal_ramcfg.c **** 
 100              		.loc 1 189 3 discriminator 6 view .LVU13
 101 0038 02F18052 		add	r2, r2, #268435456
 102 003c 8032     		adds	r2, r2, #128
 103 003e 9342     		cmp	r3, r2
 104 0040 42D0     		beq	.L4
 189:STM32Cube_FW_N6/Drivers/STM32N6xx_HAL_Driver/Src/stm32n6xx_hal_ramcfg.c **** 
 105              		.loc 1 189 3 discriminator 7 view .LVU14
 106 0042 02F17042 		add	r2, r2, #-268435456
 107 0046 9342     		cmp	r3, r2
 108 0048 3ED0     		beq	.L4
 189:STM32Cube_FW_N6/Drivers/STM32N6xx_HAL_Driver/Src/stm32n6xx_hal_ramcfg.c **** 
 109              		.loc 1 189 3 discriminator 8 view .LVU15
 110 004a 02F18052 		add	r2, r2, #268435456
 111 004e 8032     		adds	r2, r2, #128
 112 0050 9342     		cmp	r3, r2
 113 0052 39D0     		beq	.L4
 189:STM32Cube_FW_N6/Drivers/STM32N6xx_HAL_Driver/Src/stm32n6xx_hal_ramcfg.c **** 
 114              		.loc 1 189 3 discriminator 9 view .LVU16
 115 0054 02F17042 		add	r2, r2, #-268435456
 116 0058 9342     		cmp	r3, r2
 117 005a 35D0     		beq	.L4
 189:STM32Cube_FW_N6/Drivers/STM32N6xx_HAL_Driver/Src/stm32n6xx_hal_ramcfg.c **** 
 118              		.loc 1 189 3 discriminator 10 view .LVU17
 119 005c 02F18052 		add	r2, r2, #268435456
 120 0060 8032     		adds	r2, r2, #128
 121 0062 9342     		cmp	r3, r2
 122 0064 30D0     		beq	.L4
 189:STM32Cube_FW_N6/Drivers/STM32N6xx_HAL_Driver/Src/stm32n6xx_hal_ramcfg.c **** 
 123              		.loc 1 189 3 discriminator 11 view .LVU18
 124 0066 02F17042 		add	r2, r2, #-268435456
 125 006a 9342     		cmp	r3, r2
 126 006c 2CD0     		beq	.L4
 189:STM32Cube_FW_N6/Drivers/STM32N6xx_HAL_Driver/Src/stm32n6xx_hal_ramcfg.c **** 
 127              		.loc 1 189 3 discriminator 12 view .LVU19
 128 006e 02F18052 		add	r2, r2, #268435456
 129 0072 8032     		adds	r2, r2, #128
 130 0074 9342     		cmp	r3, r2
 131 0076 27D0     		beq	.L4
 189:STM32Cube_FW_N6/Drivers/STM32N6xx_HAL_Driver/Src/stm32n6xx_hal_ramcfg.c **** 
 132              		.loc 1 189 3 discriminator 13 view .LVU20
 133 0078 02F17042 		add	r2, r2, #-268435456
 134 007c 9342     		cmp	r3, r2
 135 007e 23D0     		beq	.L4
 189:STM32Cube_FW_N6/Drivers/STM32N6xx_HAL_Driver/Src/stm32n6xx_hal_ramcfg.c **** 
 136              		.loc 1 189 3 discriminator 14 view .LVU21
 137 0080 02F18052 		add	r2, r2, #268435456
 138 0084 8032     		adds	r2, r2, #128
 139 0086 9342     		cmp	r3, r2
 140 0088 1ED0     		beq	.L4
 189:STM32Cube_FW_N6/Drivers/STM32N6xx_HAL_Driver/Src/stm32n6xx_hal_ramcfg.c **** 
 141              		.loc 1 189 3 discriminator 15 view .LVU22
ARM GAS  C:\Users\DJESSOU\AppData\Local\Temp\ccLWLfBx.s 			page 9


 142 008a 02F17042 		add	r2, r2, #-268435456
 143 008e 9342     		cmp	r3, r2
 144 0090 1AD0     		beq	.L4
 189:STM32Cube_FW_N6/Drivers/STM32N6xx_HAL_Driver/Src/stm32n6xx_hal_ramcfg.c **** 
 145              		.loc 1 189 3 discriminator 16 view .LVU23
 146 0092 02F18052 		add	r2, r2, #268435456
 147 0096 02F50072 		add	r2, r2, #512
 148 009a 9342     		cmp	r3, r2
 149 009c 14D0     		beq	.L4
 189:STM32Cube_FW_N6/Drivers/STM32N6xx_HAL_Driver/Src/stm32n6xx_hal_ramcfg.c **** 
 150              		.loc 1 189 3 discriminator 17 view .LVU24
 151 009e 02F17042 		add	r2, r2, #-268435456
 152 00a2 9342     		cmp	r3, r2
 153 00a4 10D0     		beq	.L4
 189:STM32Cube_FW_N6/Drivers/STM32N6xx_HAL_Driver/Src/stm32n6xx_hal_ramcfg.c **** 
 154              		.loc 1 189 3 discriminator 18 view .LVU25
 155 00a6 02F18052 		add	r2, r2, #268435456
 156 00aa 8032     		adds	r2, r2, #128
 157 00ac 9342     		cmp	r3, r2
 158 00ae 0BD0     		beq	.L4
 189:STM32Cube_FW_N6/Drivers/STM32N6xx_HAL_Driver/Src/stm32n6xx_hal_ramcfg.c **** 
 159              		.loc 1 189 3 discriminator 19 view .LVU26
 160 00b0 02F17042 		add	r2, r2, #-268435456
 161 00b4 9342     		cmp	r3, r2
 162 00b6 07D0     		beq	.L4
 189:STM32Cube_FW_N6/Drivers/STM32N6xx_HAL_Driver/Src/stm32n6xx_hal_ramcfg.c **** 
 163              		.loc 1 189 3 discriminator 20 view .LVU27
 164 00b8 A2F58072 		sub	r2, r2, #256
 165 00bc 9342     		cmp	r3, r2
 166 00be 03D0     		beq	.L4
 189:STM32Cube_FW_N6/Drivers/STM32N6xx_HAL_Driver/Src/stm32n6xx_hal_ramcfg.c **** 
 167              		.loc 1 189 3 discriminator 22 view .LVU28
 168 00c0 BD21     		movs	r1, #189
 169 00c2 1148     		ldr	r0, .L6+8
 170              	.LVL2:
 189:STM32Cube_FW_N6/Drivers/STM32N6xx_HAL_Driver/Src/stm32n6xx_hal_ramcfg.c **** 
 171              		.loc 1 189 3 discriminator 22 view .LVU29
 172 00c4 FFF7FEFF 		bl	assert_failed
 173              	.LVL3:
 174              	.L4:
 192:STM32Cube_FW_N6/Drivers/STM32N6xx_HAL_Driver/Src/stm32n6xx_hal_ramcfg.c **** 
 175              		.loc 1 192 3 is_stmt 1 view .LVU30
 192:STM32Cube_FW_N6/Drivers/STM32N6xx_HAL_Driver/Src/stm32n6xx_hal_ramcfg.c **** 
 176              		.loc 1 192 18 is_stmt 0 view .LVU31
 177 00c8 0223     		movs	r3, #2
 205:STM32Cube_FW_N6/Drivers/STM32N6xx_HAL_Driver/Src/stm32n6xx_hal_ramcfg.c **** #endif /* USE_HAL_RAMCFG_REGISTER_CALLBACKS */
 178              		.loc 1 205 3 view .LVU32
 179 00ca 2046     		mov	r0, r4
 192:STM32Cube_FW_N6/Drivers/STM32N6xx_HAL_Driver/Src/stm32n6xx_hal_ramcfg.c **** 
 180              		.loc 1 192 18 view .LVU33
 181 00cc 2371     		strb	r3, [r4, #4]
 205:STM32Cube_FW_N6/Drivers/STM32N6xx_HAL_Driver/Src/stm32n6xx_hal_ramcfg.c **** #endif /* USE_HAL_RAMCFG_REGISTER_CALLBACKS */
 182              		.loc 1 205 3 is_stmt 1 view .LVU34
 183 00ce FFF7FEFF 		bl	HAL_RAMCFG_MspInit
 184              	.LVL4:
 209:STM32Cube_FW_N6/Drivers/STM32N6xx_HAL_Driver/Src/stm32n6xx_hal_ramcfg.c **** 
 185              		.loc 1 209 3 view .LVU35
ARM GAS  C:\Users\DJESSOU\AppData\Local\Temp\ccLWLfBx.s 			page 10


 209:STM32Cube_FW_N6/Drivers/STM32N6xx_HAL_Driver/Src/stm32n6xx_hal_ramcfg.c **** 
 186              		.loc 1 209 10 is_stmt 0 view .LVU36
 187 00d2 2368     		ldr	r3, [r4]
 218:STM32Cube_FW_N6/Drivers/STM32N6xx_HAL_Driver/Src/stm32n6xx_hal_ramcfg.c **** 
 188              		.loc 1 218 22 view .LVU37
 189 00d4 0020     		movs	r0, #0
 209:STM32Cube_FW_N6/Drivers/STM32N6xx_HAL_Driver/Src/stm32n6xx_hal_ramcfg.c **** 
 190              		.loc 1 209 20 view .LVU38
 191 00d6 1A68     		ldr	r2, [r3]
 209:STM32Cube_FW_N6/Drivers/STM32N6xx_HAL_Driver/Src/stm32n6xx_hal_ramcfg.c **** 
 192              		.loc 1 209 25 view .LVU39
 193 00d8 22F01002 		bic	r2, r2, #16
 194 00dc 1A60     		str	r2, [r3]
 212:STM32Cube_FW_N6/Drivers/STM32N6xx_HAL_Driver/Src/stm32n6xx_hal_ramcfg.c **** 
 195              		.loc 1 212 3 is_stmt 1 view .LVU40
 196 00de 5A68     		ldr	r2, [r3, #4]
 197 00e0 22F00302 		bic	r2, r2, #3
 198 00e4 5A60     		str	r2, [r3, #4]
 215:STM32Cube_FW_N6/Drivers/STM32N6xx_HAL_Driver/Src/stm32n6xx_hal_ramcfg.c **** 
 199              		.loc 1 215 3 view .LVU41
 200 00e6 5A69     		ldr	r2, [r3, #20]
 201 00e8 42F48172 		orr	r2, r2, #258
 202 00ec 42F00102 		orr	r2, r2, #1
 203 00f0 5A61     		str	r2, [r3, #20]
 218:STM32Cube_FW_N6/Drivers/STM32N6xx_HAL_Driver/Src/stm32n6xx_hal_ramcfg.c **** 
 204              		.loc 1 218 3 view .LVU42
 221:STM32Cube_FW_N6/Drivers/STM32N6xx_HAL_Driver/Src/stm32n6xx_hal_ramcfg.c **** 
 205              		.loc 1 221 18 is_stmt 0 view .LVU43
 206 00f2 0123     		movs	r3, #1
 218:STM32Cube_FW_N6/Drivers/STM32N6xx_HAL_Driver/Src/stm32n6xx_hal_ramcfg.c **** 
 207              		.loc 1 218 22 view .LVU44
 208 00f4 A060     		str	r0, [r4, #8]
 221:STM32Cube_FW_N6/Drivers/STM32N6xx_HAL_Driver/Src/stm32n6xx_hal_ramcfg.c **** 
 209              		.loc 1 221 3 is_stmt 1 view .LVU45
 221:STM32Cube_FW_N6/Drivers/STM32N6xx_HAL_Driver/Src/stm32n6xx_hal_ramcfg.c **** 
 210              		.loc 1 221 18 is_stmt 0 view .LVU46
 211 00f6 2371     		strb	r3, [r4, #4]
 223:STM32Cube_FW_N6/Drivers/STM32N6xx_HAL_Driver/Src/stm32n6xx_hal_ramcfg.c **** }
 212              		.loc 1 223 3 is_stmt 1 view .LVU47
 213              	.L3:
 224:STM32Cube_FW_N6/Drivers/STM32N6xx_HAL_Driver/Src/stm32n6xx_hal_ramcfg.c **** 
 214              		.loc 1 224 1 is_stmt 0 view .LVU48
 215 00f8 10BD     		pop	{r4, pc}
 216              	.LVL5:
 217              	.L5:
 185:STM32Cube_FW_N6/Drivers/STM32N6xx_HAL_Driver/Src/stm32n6xx_hal_ramcfg.c ****   }
 218              		.loc 1 185 12 view .LVU49
 219 00fa 0120     		movs	r0, #1
 220              	.LVL6:
 185:STM32Cube_FW_N6/Drivers/STM32N6xx_HAL_Driver/Src/stm32n6xx_hal_ramcfg.c ****   }
 221              		.loc 1 185 12 view .LVU50
 222 00fc FCE7     		b	.L3
 223              	.L7:
 224 00fe 00BF     		.align	2
 225              	.L6:
 226 0100 00330252 		.word	1375875840
 227 0104 00300252 		.word	1375875072
ARM GAS  C:\Users\DJESSOU\AppData\Local\Temp\ccLWLfBx.s 			page 11


 228 0108 00000000 		.word	.LC0
 229              		.cfi_endproc
 230              	.LFE862:
 232              		.section	.text.HAL_RAMCFG_MspDeInit,"ax",%progbits
 233              		.align	1
 234              		.weak	HAL_RAMCFG_MspDeInit
 235              		.syntax unified
 236              		.thumb
 237              		.thumb_func
 239              	HAL_RAMCFG_MspDeInit:
 240              	.LFB883:
 241              		.cfi_startproc
 291:STM32Cube_FW_N6/Drivers/STM32N6xx_HAL_Driver/Src/stm32n6xx_hal_ramcfg.c **** 
 292:STM32Cube_FW_N6/Drivers/STM32N6xx_HAL_Driver/Src/stm32n6xx_hal_ramcfg.c **** /**
 293:STM32Cube_FW_N6/Drivers/STM32N6xx_HAL_Driver/Src/stm32n6xx_hal_ramcfg.c ****   * @brief DeInitialize the RAMCFG MSP.
 294:STM32Cube_FW_N6/Drivers/STM32N6xx_HAL_Driver/Src/stm32n6xx_hal_ramcfg.c ****   * @param hramcfg : Pointer to a RAMCFG_HandleTypeDef structure that contains
 295:STM32Cube_FW_N6/Drivers/STM32N6xx_HAL_Driver/Src/stm32n6xx_hal_ramcfg.c ****   *                  the configuration information for the specified RAMCFG.
 296:STM32Cube_FW_N6/Drivers/STM32N6xx_HAL_Driver/Src/stm32n6xx_hal_ramcfg.c ****   * @retval None.
 297:STM32Cube_FW_N6/Drivers/STM32N6xx_HAL_Driver/Src/stm32n6xx_hal_ramcfg.c ****   */
 298:STM32Cube_FW_N6/Drivers/STM32N6xx_HAL_Driver/Src/stm32n6xx_hal_ramcfg.c **** __weak void HAL_RAMCFG_MspDeInit(RAMCFG_HandleTypeDef *hramcfg)
 242              		.loc 1 298 13 is_stmt 1 view -0
 243              		@ args = 0, pretend = 0, frame = 0
 244              		@ frame_needed = 0, uses_anonymous_args = 0
 245              		@ link register save eliminated.
 246 0000 7047     		bx	lr
 247              		.cfi_endproc
 248              	.LFE883:
 250              		.section	.text.HAL_RAMCFG_DeInit,"ax",%progbits
 251              		.align	1
 252              		.global	HAL_RAMCFG_DeInit
 253              		.syntax unified
 254              		.thumb
 255              		.thumb_func
 257              	HAL_RAMCFG_DeInit:
 258              	.LVL7:
 259              	.LFB863:
 234:STM32Cube_FW_N6/Drivers/STM32N6xx_HAL_Driver/Src/stm32n6xx_hal_ramcfg.c ****   /* Check the RAMCFG peripheral handle */
 260              		.loc 1 234 1 view -0
 261              		.cfi_startproc
 262              		@ args = 0, pretend = 0, frame = 0
 263              		@ frame_needed = 0, uses_anonymous_args = 0
 236:STM32Cube_FW_N6/Drivers/STM32N6xx_HAL_Driver/Src/stm32n6xx_hal_ramcfg.c ****   {
 264              		.loc 1 236 3 view .LVU53
 234:STM32Cube_FW_N6/Drivers/STM32N6xx_HAL_Driver/Src/stm32n6xx_hal_ramcfg.c ****   /* Check the RAMCFG peripheral handle */
 265              		.loc 1 234 1 is_stmt 0 view .LVU54
 266 0000 10B5     		push	{r4, lr}
 267              		.cfi_def_cfa_offset 8
 268              		.cfi_offset 4, -8
 269              		.cfi_offset 14, -4
 236:STM32Cube_FW_N6/Drivers/STM32N6xx_HAL_Driver/Src/stm32n6xx_hal_ramcfg.c ****   {
 270              		.loc 1 236 6 view .LVU55
 271 0002 0446     		mov	r4, r0
 272 0004 0028     		cmp	r0, #0
 273 0006 75D0     		beq	.L12
 242:STM32Cube_FW_N6/Drivers/STM32N6xx_HAL_Driver/Src/stm32n6xx_hal_ramcfg.c **** 
 274              		.loc 1 242 3 is_stmt 1 view .LVU56
 275 0008 0368     		ldr	r3, [r0]
ARM GAS  C:\Users\DJESSOU\AppData\Local\Temp\ccLWLfBx.s 			page 12


 276 000a 3B4A     		ldr	r2, .L13
 277 000c 9342     		cmp	r3, r2
 278 000e 5BD0     		beq	.L11
 242:STM32Cube_FW_N6/Drivers/STM32N6xx_HAL_Driver/Src/stm32n6xx_hal_ramcfg.c **** 
 279              		.loc 1 242 3 is_stmt 0 discriminator 1 view .LVU57
 280 0010 02F17042 		add	r2, r2, #-268435456
 281 0014 9342     		cmp	r3, r2
 282 0016 57D0     		beq	.L11
 242:STM32Cube_FW_N6/Drivers/STM32N6xx_HAL_Driver/Src/stm32n6xx_hal_ramcfg.c **** 
 283              		.loc 1 242 3 discriminator 2 view .LVU58
 284 0018 02F18052 		add	r2, r2, #268435456
 285 001c 8032     		adds	r2, r2, #128
 286 001e 9342     		cmp	r3, r2
 287 0020 52D0     		beq	.L11
 242:STM32Cube_FW_N6/Drivers/STM32N6xx_HAL_Driver/Src/stm32n6xx_hal_ramcfg.c **** 
 288              		.loc 1 242 3 discriminator 3 view .LVU59
 289 0022 02F17042 		add	r2, r2, #-268435456
 290 0026 9342     		cmp	r3, r2
 291 0028 4ED0     		beq	.L11
 242:STM32Cube_FW_N6/Drivers/STM32N6xx_HAL_Driver/Src/stm32n6xx_hal_ramcfg.c **** 
 292              		.loc 1 242 3 discriminator 4 view .LVU60
 293 002a 344A     		ldr	r2, .L13+4
 294 002c 9342     		cmp	r3, r2
 295 002e 4BD0     		beq	.L11
 242:STM32Cube_FW_N6/Drivers/STM32N6xx_HAL_Driver/Src/stm32n6xx_hal_ramcfg.c **** 
 296              		.loc 1 242 3 discriminator 5 view .LVU61
 297 0030 02F17042 		add	r2, r2, #-268435456
 298 0034 9342     		cmp	r3, r2
 299 0036 47D0     		beq	.L11
 242:STM32Cube_FW_N6/Drivers/STM32N6xx_HAL_Driver/Src/stm32n6xx_hal_ramcfg.c **** 
 300              		.loc 1 242 3 discriminator 6 view .LVU62
 301 0038 02F18052 		add	r2, r2, #268435456
 302 003c 8032     		adds	r2, r2, #128
 303 003e 9342     		cmp	r3, r2
 304 0040 42D0     		beq	.L11
 242:STM32Cube_FW_N6/Drivers/STM32N6xx_HAL_Driver/Src/stm32n6xx_hal_ramcfg.c **** 
 305              		.loc 1 242 3 discriminator 7 view .LVU63
 306 0042 02F17042 		add	r2, r2, #-268435456
 307 0046 9342     		cmp	r3, r2
 308 0048 3ED0     		beq	.L11
 242:STM32Cube_FW_N6/Drivers/STM32N6xx_HAL_Driver/Src/stm32n6xx_hal_ramcfg.c **** 
 309              		.loc 1 242 3 discriminator 8 view .LVU64
 310 004a 02F18052 		add	r2, r2, #268435456
 311 004e 8032     		adds	r2, r2, #128
 312 0050 9342     		cmp	r3, r2
 313 0052 39D0     		beq	.L11
 242:STM32Cube_FW_N6/Drivers/STM32N6xx_HAL_Driver/Src/stm32n6xx_hal_ramcfg.c **** 
 314              		.loc 1 242 3 discriminator 9 view .LVU65
 315 0054 02F17042 		add	r2, r2, #-268435456
 316 0058 9342     		cmp	r3, r2
 317 005a 35D0     		beq	.L11
 242:STM32Cube_FW_N6/Drivers/STM32N6xx_HAL_Driver/Src/stm32n6xx_hal_ramcfg.c **** 
 318              		.loc 1 242 3 discriminator 10 view .LVU66
 319 005c 02F18052 		add	r2, r2, #268435456
 320 0060 8032     		adds	r2, r2, #128
 321 0062 9342     		cmp	r3, r2
 322 0064 30D0     		beq	.L11
ARM GAS  C:\Users\DJESSOU\AppData\Local\Temp\ccLWLfBx.s 			page 13


 242:STM32Cube_FW_N6/Drivers/STM32N6xx_HAL_Driver/Src/stm32n6xx_hal_ramcfg.c **** 
 323              		.loc 1 242 3 discriminator 11 view .LVU67
 324 0066 02F17042 		add	r2, r2, #-268435456
 325 006a 9342     		cmp	r3, r2
 326 006c 2CD0     		beq	.L11
 242:STM32Cube_FW_N6/Drivers/STM32N6xx_HAL_Driver/Src/stm32n6xx_hal_ramcfg.c **** 
 327              		.loc 1 242 3 discriminator 12 view .LVU68
 328 006e 02F18052 		add	r2, r2, #268435456
 329 0072 8032     		adds	r2, r2, #128
 330 0074 9342     		cmp	r3, r2
 331 0076 27D0     		beq	.L11
 242:STM32Cube_FW_N6/Drivers/STM32N6xx_HAL_Driver/Src/stm32n6xx_hal_ramcfg.c **** 
 332              		.loc 1 242 3 discriminator 13 view .LVU69
 333 0078 02F17042 		add	r2, r2, #-268435456
 334 007c 9342     		cmp	r3, r2
 335 007e 23D0     		beq	.L11
 242:STM32Cube_FW_N6/Drivers/STM32N6xx_HAL_Driver/Src/stm32n6xx_hal_ramcfg.c **** 
 336              		.loc 1 242 3 discriminator 14 view .LVU70
 337 0080 02F18052 		add	r2, r2, #268435456
 338 0084 8032     		adds	r2, r2, #128
 339 0086 9342     		cmp	r3, r2
 340 0088 1ED0     		beq	.L11
 242:STM32Cube_FW_N6/Drivers/STM32N6xx_HAL_Driver/Src/stm32n6xx_hal_ramcfg.c **** 
 341              		.loc 1 242 3 discriminator 15 view .LVU71
 342 008a 02F17042 		add	r2, r2, #-268435456
 343 008e 9342     		cmp	r3, r2
 344 0090 1AD0     		beq	.L11
 242:STM32Cube_FW_N6/Drivers/STM32N6xx_HAL_Driver/Src/stm32n6xx_hal_ramcfg.c **** 
 345              		.loc 1 242 3 discriminator 16 view .LVU72
 346 0092 02F18052 		add	r2, r2, #268435456
 347 0096 02F50072 		add	r2, r2, #512
 348 009a 9342     		cmp	r3, r2
 349 009c 14D0     		beq	.L11
 242:STM32Cube_FW_N6/Drivers/STM32N6xx_HAL_Driver/Src/stm32n6xx_hal_ramcfg.c **** 
 350              		.loc 1 242 3 discriminator 17 view .LVU73
 351 009e 02F17042 		add	r2, r2, #-268435456
 352 00a2 9342     		cmp	r3, r2
 353 00a4 10D0     		beq	.L11
 242:STM32Cube_FW_N6/Drivers/STM32N6xx_HAL_Driver/Src/stm32n6xx_hal_ramcfg.c **** 
 354              		.loc 1 242 3 discriminator 18 view .LVU74
 355 00a6 02F18052 		add	r2, r2, #268435456
 356 00aa 8032     		adds	r2, r2, #128
 357 00ac 9342     		cmp	r3, r2
 358 00ae 0BD0     		beq	.L11
 242:STM32Cube_FW_N6/Drivers/STM32N6xx_HAL_Driver/Src/stm32n6xx_hal_ramcfg.c **** 
 359              		.loc 1 242 3 discriminator 19 view .LVU75
 360 00b0 02F17042 		add	r2, r2, #-268435456
 361 00b4 9342     		cmp	r3, r2
 362 00b6 07D0     		beq	.L11
 242:STM32Cube_FW_N6/Drivers/STM32N6xx_HAL_Driver/Src/stm32n6xx_hal_ramcfg.c **** 
 363              		.loc 1 242 3 discriminator 20 view .LVU76
 364 00b8 A2F58072 		sub	r2, r2, #256
 365 00bc 9342     		cmp	r3, r2
 366 00be 03D0     		beq	.L11
 242:STM32Cube_FW_N6/Drivers/STM32N6xx_HAL_Driver/Src/stm32n6xx_hal_ramcfg.c **** 
 367              		.loc 1 242 3 discriminator 22 view .LVU77
 368 00c0 F221     		movs	r1, #242
ARM GAS  C:\Users\DJESSOU\AppData\Local\Temp\ccLWLfBx.s 			page 14


 369 00c2 0F48     		ldr	r0, .L13+8
 370              	.LVL8:
 242:STM32Cube_FW_N6/Drivers/STM32N6xx_HAL_Driver/Src/stm32n6xx_hal_ramcfg.c **** 
 371              		.loc 1 242 3 discriminator 22 view .LVU78
 372 00c4 FFF7FEFF 		bl	assert_failed
 373              	.LVL9:
 374              	.L11:
 245:STM32Cube_FW_N6/Drivers/STM32N6xx_HAL_Driver/Src/stm32n6xx_hal_ramcfg.c **** 
 375              		.loc 1 245 3 is_stmt 1 view .LVU79
 245:STM32Cube_FW_N6/Drivers/STM32N6xx_HAL_Driver/Src/stm32n6xx_hal_ramcfg.c **** 
 376              		.loc 1 245 10 is_stmt 0 view .LVU80
 377 00c8 2368     		ldr	r3, [r4]
 265:STM32Cube_FW_N6/Drivers/STM32N6xx_HAL_Driver/Src/stm32n6xx_hal_ramcfg.c **** #endif /* USE_HAL_RAMCFG_REGISTER_CALLBACKS */
 378              		.loc 1 265 3 view .LVU81
 379 00ca 2046     		mov	r0, r4
 245:STM32Cube_FW_N6/Drivers/STM32N6xx_HAL_Driver/Src/stm32n6xx_hal_ramcfg.c **** 
 380              		.loc 1 245 20 view .LVU82
 381 00cc 1A68     		ldr	r2, [r3]
 245:STM32Cube_FW_N6/Drivers/STM32N6xx_HAL_Driver/Src/stm32n6xx_hal_ramcfg.c **** 
 382              		.loc 1 245 25 view .LVU83
 383 00ce 22F01002 		bic	r2, r2, #16
 384 00d2 1A60     		str	r2, [r3]
 248:STM32Cube_FW_N6/Drivers/STM32N6xx_HAL_Driver/Src/stm32n6xx_hal_ramcfg.c **** 
 385              		.loc 1 248 3 is_stmt 1 view .LVU84
 386 00d4 5A68     		ldr	r2, [r3, #4]
 387 00d6 22F00302 		bic	r2, r2, #3
 388 00da 5A60     		str	r2, [r3, #4]
 251:STM32Cube_FW_N6/Drivers/STM32N6xx_HAL_Driver/Src/stm32n6xx_hal_ramcfg.c **** 
 389              		.loc 1 251 3 view .LVU85
 390 00dc 5A69     		ldr	r2, [r3, #20]
 391 00de 42F48172 		orr	r2, r2, #258
 392 00e2 42F00102 		orr	r2, r2, #1
 393 00e6 5A61     		str	r2, [r3, #20]
 265:STM32Cube_FW_N6/Drivers/STM32N6xx_HAL_Driver/Src/stm32n6xx_hal_ramcfg.c **** #endif /* USE_HAL_RAMCFG_REGISTER_CALLBACKS */
 394              		.loc 1 265 3 view .LVU86
 395 00e8 FFF7FEFF 		bl	HAL_RAMCFG_MspDeInit
 396              	.LVL10:
 269:STM32Cube_FW_N6/Drivers/STM32N6xx_HAL_Driver/Src/stm32n6xx_hal_ramcfg.c **** 
 397              		.loc 1 269 3 view .LVU87
 269:STM32Cube_FW_N6/Drivers/STM32N6xx_HAL_Driver/Src/stm32n6xx_hal_ramcfg.c **** 
 398              		.loc 1 269 22 is_stmt 0 view .LVU88
 399 00ec 0020     		movs	r0, #0
 400 00ee A060     		str	r0, [r4, #8]
 272:STM32Cube_FW_N6/Drivers/STM32N6xx_HAL_Driver/Src/stm32n6xx_hal_ramcfg.c **** 
 401              		.loc 1 272 3 is_stmt 1 view .LVU89
 272:STM32Cube_FW_N6/Drivers/STM32N6xx_HAL_Driver/Src/stm32n6xx_hal_ramcfg.c **** 
 402              		.loc 1 272 18 is_stmt 0 view .LVU90
 403 00f0 2071     		strb	r0, [r4, #4]
 274:STM32Cube_FW_N6/Drivers/STM32N6xx_HAL_Driver/Src/stm32n6xx_hal_ramcfg.c **** }
 404              		.loc 1 274 3 is_stmt 1 view .LVU91
 405              	.L10:
 275:STM32Cube_FW_N6/Drivers/STM32N6xx_HAL_Driver/Src/stm32n6xx_hal_ramcfg.c **** 
 406              		.loc 1 275 1 is_stmt 0 view .LVU92
 407 00f2 10BD     		pop	{r4, pc}
 408              	.LVL11:
 409              	.L12:
 238:STM32Cube_FW_N6/Drivers/STM32N6xx_HAL_Driver/Src/stm32n6xx_hal_ramcfg.c ****   }
ARM GAS  C:\Users\DJESSOU\AppData\Local\Temp\ccLWLfBx.s 			page 15


 410              		.loc 1 238 12 view .LVU93
 411 00f4 0120     		movs	r0, #1
 412              	.LVL12:
 238:STM32Cube_FW_N6/Drivers/STM32N6xx_HAL_Driver/Src/stm32n6xx_hal_ramcfg.c ****   }
 413              		.loc 1 238 12 view .LVU94
 414 00f6 FCE7     		b	.L10
 415              	.L14:
 416              		.align	2
 417              	.L13:
 418 00f8 00330252 		.word	1375875840
 419 00fc 00300252 		.word	1375875072
 420 0100 00000000 		.word	.LC0
 421              		.cfi_endproc
 422              	.LFE863:
 424              		.section	.text.HAL_RAMCFG_StartECC,"ax",%progbits
 425              		.align	1
 426              		.global	HAL_RAMCFG_StartECC
 427              		.syntax unified
 428              		.thumb
 429              		.thumb_func
 431              	HAL_RAMCFG_StartECC:
 432              	.LVL13:
 433              	.LFB866:
 299:STM32Cube_FW_N6/Drivers/STM32N6xx_HAL_Driver/Src/stm32n6xx_hal_ramcfg.c **** {
 300:STM32Cube_FW_N6/Drivers/STM32N6xx_HAL_Driver/Src/stm32n6xx_hal_ramcfg.c ****   /* Prevent unused argument(s) compilation warning */
 301:STM32Cube_FW_N6/Drivers/STM32N6xx_HAL_Driver/Src/stm32n6xx_hal_ramcfg.c ****   UNUSED(hramcfg);
 302:STM32Cube_FW_N6/Drivers/STM32N6xx_HAL_Driver/Src/stm32n6xx_hal_ramcfg.c **** 
 303:STM32Cube_FW_N6/Drivers/STM32N6xx_HAL_Driver/Src/stm32n6xx_hal_ramcfg.c ****   /* NOTE : This function should not be modified, when the callback is needed,
 304:STM32Cube_FW_N6/Drivers/STM32N6xx_HAL_Driver/Src/stm32n6xx_hal_ramcfg.c ****             the HAL_RAMCFG_MspDeInit can be implemented in the user file    */
 305:STM32Cube_FW_N6/Drivers/STM32N6xx_HAL_Driver/Src/stm32n6xx_hal_ramcfg.c **** }
 306:STM32Cube_FW_N6/Drivers/STM32N6xx_HAL_Driver/Src/stm32n6xx_hal_ramcfg.c **** /**
 307:STM32Cube_FW_N6/Drivers/STM32N6xx_HAL_Driver/Src/stm32n6xx_hal_ramcfg.c ****   * @}
 308:STM32Cube_FW_N6/Drivers/STM32N6xx_HAL_Driver/Src/stm32n6xx_hal_ramcfg.c ****   */
 309:STM32Cube_FW_N6/Drivers/STM32N6xx_HAL_Driver/Src/stm32n6xx_hal_ramcfg.c **** 
 310:STM32Cube_FW_N6/Drivers/STM32N6xx_HAL_Driver/Src/stm32n6xx_hal_ramcfg.c **** /** @addtogroup RAMCFG_Exported_Functions_Group2
 311:STM32Cube_FW_N6/Drivers/STM32N6xx_HAL_Driver/Src/stm32n6xx_hal_ramcfg.c ****   *
 312:STM32Cube_FW_N6/Drivers/STM32N6xx_HAL_Driver/Src/stm32n6xx_hal_ramcfg.c **** @verbatim
 313:STM32Cube_FW_N6/Drivers/STM32N6xx_HAL_Driver/Src/stm32n6xx_hal_ramcfg.c ****  ===============================================================================
 314:STM32Cube_FW_N6/Drivers/STM32N6xx_HAL_Driver/Src/stm32n6xx_hal_ramcfg.c ****                       ##### ECC Operations Functions  #####
 315:STM32Cube_FW_N6/Drivers/STM32N6xx_HAL_Driver/Src/stm32n6xx_hal_ramcfg.c ****  ===============================================================================
 316:STM32Cube_FW_N6/Drivers/STM32N6xx_HAL_Driver/Src/stm32n6xx_hal_ramcfg.c ****     [..]
 317:STM32Cube_FW_N6/Drivers/STM32N6xx_HAL_Driver/Src/stm32n6xx_hal_ramcfg.c ****       This section provides functions allowing to manage ECC feature provided by
 318:STM32Cube_FW_N6/Drivers/STM32N6xx_HAL_Driver/Src/stm32n6xx_hal_ramcfg.c ****       the RAMCFG peripheral.
 319:STM32Cube_FW_N6/Drivers/STM32N6xx_HAL_Driver/Src/stm32n6xx_hal_ramcfg.c ****     [..]
 320:STM32Cube_FW_N6/Drivers/STM32N6xx_HAL_Driver/Src/stm32n6xx_hal_ramcfg.c ****       The HAL_RAMCFG_StartECC() function allows starting the ECC mechanism and
 321:STM32Cube_FW_N6/Drivers/STM32N6xx_HAL_Driver/Src/stm32n6xx_hal_ramcfg.c ****       enabling ECC address latching for the selected RAMCFG instance.
 322:STM32Cube_FW_N6/Drivers/STM32N6xx_HAL_Driver/Src/stm32n6xx_hal_ramcfg.c ****       The HAL_RAMCFG_StopECC() function allows stopping the ECC mechanism and
 323:STM32Cube_FW_N6/Drivers/STM32N6xx_HAL_Driver/Src/stm32n6xx_hal_ramcfg.c ****       disabling ECC address latching for the selected RAMCFG instance.
 324:STM32Cube_FW_N6/Drivers/STM32N6xx_HAL_Driver/Src/stm32n6xx_hal_ramcfg.c ****       The HAL_RAMCFG_EnableNotification() function allows enabling interrupts
 325:STM32Cube_FW_N6/Drivers/STM32N6xx_HAL_Driver/Src/stm32n6xx_hal_ramcfg.c ****       for single ECC error, double ECC error and NMI error.
 326:STM32Cube_FW_N6/Drivers/STM32N6xx_HAL_Driver/Src/stm32n6xx_hal_ramcfg.c ****       The HAL_RAMCFG_DisableNotification() function allows disabling interrupts
 327:STM32Cube_FW_N6/Drivers/STM32N6xx_HAL_Driver/Src/stm32n6xx_hal_ramcfg.c ****       for single ECC error, double ECC error. When NMI interrupt is enabled it
 328:STM32Cube_FW_N6/Drivers/STM32N6xx_HAL_Driver/Src/stm32n6xx_hal_ramcfg.c ****       can only be disabled by a global peripheral reset or by a system reset.
 329:STM32Cube_FW_N6/Drivers/STM32N6xx_HAL_Driver/Src/stm32n6xx_hal_ramcfg.c ****       The HAL_RAMCFG_IsECCSingleErrorDetected() function allows to check if an
 330:STM32Cube_FW_N6/Drivers/STM32N6xx_HAL_Driver/Src/stm32n6xx_hal_ramcfg.c ****       single ECC error has occurred.
 331:STM32Cube_FW_N6/Drivers/STM32N6xx_HAL_Driver/Src/stm32n6xx_hal_ramcfg.c ****       The HAL_RAMCFG_IsECCDoubleErrorDetected() function allows to check if an
 332:STM32Cube_FW_N6/Drivers/STM32N6xx_HAL_Driver/Src/stm32n6xx_hal_ramcfg.c ****       double ECC error has occurred.
ARM GAS  C:\Users\DJESSOU\AppData\Local\Temp\ccLWLfBx.s 			page 16


 333:STM32Cube_FW_N6/Drivers/STM32N6xx_HAL_Driver/Src/stm32n6xx_hal_ramcfg.c ****       The HAL_RAMCFG_GetSingleErrorAddress() function allows to get the address of
 334:STM32Cube_FW_N6/Drivers/STM32N6xx_HAL_Driver/Src/stm32n6xx_hal_ramcfg.c ****       the last single ECC error detected.
 335:STM32Cube_FW_N6/Drivers/STM32N6xx_HAL_Driver/Src/stm32n6xx_hal_ramcfg.c ****       The HAL_RAMCFG_GetDoubleErrorAddress() function allows to get the address of
 336:STM32Cube_FW_N6/Drivers/STM32N6xx_HAL_Driver/Src/stm32n6xx_hal_ramcfg.c ****       the last double ECC error detected.
 337:STM32Cube_FW_N6/Drivers/STM32N6xx_HAL_Driver/Src/stm32n6xx_hal_ramcfg.c **** 
 338:STM32Cube_FW_N6/Drivers/STM32N6xx_HAL_Driver/Src/stm32n6xx_hal_ramcfg.c **** @endverbatim
 339:STM32Cube_FW_N6/Drivers/STM32N6xx_HAL_Driver/Src/stm32n6xx_hal_ramcfg.c ****   * @{
 340:STM32Cube_FW_N6/Drivers/STM32N6xx_HAL_Driver/Src/stm32n6xx_hal_ramcfg.c ****   */
 341:STM32Cube_FW_N6/Drivers/STM32N6xx_HAL_Driver/Src/stm32n6xx_hal_ramcfg.c **** 
 342:STM32Cube_FW_N6/Drivers/STM32N6xx_HAL_Driver/Src/stm32n6xx_hal_ramcfg.c **** /**
 343:STM32Cube_FW_N6/Drivers/STM32N6xx_HAL_Driver/Src/stm32n6xx_hal_ramcfg.c ****   * @brief  Start ECC mechanism for the given SRAM.
 344:STM32Cube_FW_N6/Drivers/STM32N6xx_HAL_Driver/Src/stm32n6xx_hal_ramcfg.c ****   * @param  hramcfg : Pointer to a RAMCFG_HandleTypeDef structure that contains
 345:STM32Cube_FW_N6/Drivers/STM32N6xx_HAL_Driver/Src/stm32n6xx_hal_ramcfg.c ****   *                   the configuration information for the specified RAMCFG
 346:STM32Cube_FW_N6/Drivers/STM32N6xx_HAL_Driver/Src/stm32n6xx_hal_ramcfg.c ****   *                   instance.
 347:STM32Cube_FW_N6/Drivers/STM32N6xx_HAL_Driver/Src/stm32n6xx_hal_ramcfg.c ****   * @retval HAL status.
 348:STM32Cube_FW_N6/Drivers/STM32N6xx_HAL_Driver/Src/stm32n6xx_hal_ramcfg.c ****   */
 349:STM32Cube_FW_N6/Drivers/STM32N6xx_HAL_Driver/Src/stm32n6xx_hal_ramcfg.c **** HAL_StatusTypeDef HAL_RAMCFG_StartECC(RAMCFG_HandleTypeDef *hramcfg)
 350:STM32Cube_FW_N6/Drivers/STM32N6xx_HAL_Driver/Src/stm32n6xx_hal_ramcfg.c **** {
 434              		.loc 1 350 1 is_stmt 1 view -0
 435              		.cfi_startproc
 436              		@ args = 0, pretend = 0, frame = 0
 437              		@ frame_needed = 0, uses_anonymous_args = 0
 351:STM32Cube_FW_N6/Drivers/STM32N6xx_HAL_Driver/Src/stm32n6xx_hal_ramcfg.c ****   HAL_StatusTypeDef status = HAL_OK;
 438              		.loc 1 351 3 view .LVU96
 352:STM32Cube_FW_N6/Drivers/STM32N6xx_HAL_Driver/Src/stm32n6xx_hal_ramcfg.c ****   /* Check the parameters */
 353:STM32Cube_FW_N6/Drivers/STM32N6xx_HAL_Driver/Src/stm32n6xx_hal_ramcfg.c ****   assert_param(IS_RAMCFG_ECC_INSTANCE(hramcfg->Instance));
 439              		.loc 1 353 3 view .LVU97
 440 0000 0368     		ldr	r3, [r0]
 441 0002 174A     		ldr	r2, .L22
 350:STM32Cube_FW_N6/Drivers/STM32N6xx_HAL_Driver/Src/stm32n6xx_hal_ramcfg.c ****   HAL_StatusTypeDef status = HAL_OK;
 442              		.loc 1 350 1 is_stmt 0 view .LVU98
 443 0004 10B5     		push	{r4, lr}
 444              		.cfi_def_cfa_offset 8
 445              		.cfi_offset 4, -8
 446              		.cfi_offset 14, -4
 447              		.loc 1 353 3 view .LVU99
 448 0006 9342     		cmp	r3, r2
 350:STM32Cube_FW_N6/Drivers/STM32N6xx_HAL_Driver/Src/stm32n6xx_hal_ramcfg.c ****   HAL_StatusTypeDef status = HAL_OK;
 449              		.loc 1 350 1 view .LVU100
 450 0008 0446     		mov	r4, r0
 451              		.loc 1 353 3 view .LVU101
 452 000a 11D0     		beq	.L16
 453              		.loc 1 353 3 discriminator 1 view .LVU102
 454 000c 02F17042 		add	r2, r2, #-268435456
 455 0010 9342     		cmp	r3, r2
 456 0012 0DD0     		beq	.L16
 457              		.loc 1 353 3 discriminator 2 view .LVU103
 458 0014 02F18052 		add	r2, r2, #268435456
 459 0018 8032     		adds	r2, r2, #128
 460 001a 9342     		cmp	r3, r2
 461 001c 08D0     		beq	.L16
 462              		.loc 1 353 3 discriminator 3 view .LVU104
 463 001e 02F17042 		add	r2, r2, #-268435456
 464 0022 9342     		cmp	r3, r2
 465 0024 04D0     		beq	.L16
 466              		.loc 1 353 3 discriminator 4 view .LVU105
 467 0026 40F26111 		movw	r1, #353
ARM GAS  C:\Users\DJESSOU\AppData\Local\Temp\ccLWLfBx.s 			page 17


 468 002a 0E48     		ldr	r0, .L22+4
 469              	.LVL14:
 470              		.loc 1 353 3 discriminator 4 view .LVU106
 471 002c FFF7FEFF 		bl	assert_failed
 472              	.LVL15:
 473              	.L16:
 354:STM32Cube_FW_N6/Drivers/STM32N6xx_HAL_Driver/Src/stm32n6xx_hal_ramcfg.c **** 
 355:STM32Cube_FW_N6/Drivers/STM32N6xx_HAL_Driver/Src/stm32n6xx_hal_ramcfg.c ****   /* Check RAMCFG state */
 356:STM32Cube_FW_N6/Drivers/STM32N6xx_HAL_Driver/Src/stm32n6xx_hal_ramcfg.c ****   if (hramcfg->State == HAL_RAMCFG_STATE_READY)
 474              		.loc 1 356 3 is_stmt 1 view .LVU107
 475              		.loc 1 356 14 is_stmt 0 view .LVU108
 476 0030 2379     		ldrb	r3, [r4, #4]	@ zero_extendqisi2
 477              		.loc 1 356 6 view .LVU109
 478 0032 012B     		cmp	r3, #1
 479 0034 4FF00203 		mov	r3, #2
 480 0038 0FD1     		bne	.L17
 357:STM32Cube_FW_N6/Drivers/STM32N6xx_HAL_Driver/Src/stm32n6xx_hal_ramcfg.c ****   {
 358:STM32Cube_FW_N6/Drivers/STM32N6xx_HAL_Driver/Src/stm32n6xx_hal_ramcfg.c ****     /* Update RAMCFG peripheral state */
 359:STM32Cube_FW_N6/Drivers/STM32N6xx_HAL_Driver/Src/stm32n6xx_hal_ramcfg.c ****     hramcfg->State = HAL_RAMCFG_STATE_BUSY;
 481              		.loc 1 359 5 is_stmt 1 view .LVU110
 482              		.loc 1 359 20 is_stmt 0 view .LVU111
 483 003a 2371     		strb	r3, [r4, #4]
 360:STM32Cube_FW_N6/Drivers/STM32N6xx_HAL_Driver/Src/stm32n6xx_hal_ramcfg.c **** 
 361:STM32Cube_FW_N6/Drivers/STM32N6xx_HAL_Driver/Src/stm32n6xx_hal_ramcfg.c ****     /* Check if ECC mechanism is non active */
 362:STM32Cube_FW_N6/Drivers/STM32N6xx_HAL_Driver/Src/stm32n6xx_hal_ramcfg.c ****     if ((hramcfg->Instance->CR & RAMCFG_CR_ECCE) != RAMCFG_CR_ECCE)
 484              		.loc 1 362 5 is_stmt 1 view .LVU112
 485              		.loc 1 362 17 is_stmt 0 view .LVU113
 486 003c 2368     		ldr	r3, [r4]
 351:STM32Cube_FW_N6/Drivers/STM32N6xx_HAL_Driver/Src/stm32n6xx_hal_ramcfg.c ****   /* Check the parameters */
 487              		.loc 1 351 21 view .LVU114
 488 003e 0020     		movs	r0, #0
 489              		.loc 1 362 27 view .LVU115
 490 0040 1A68     		ldr	r2, [r3]
 491              		.loc 1 362 8 view .LVU116
 492 0042 12F0010F 		tst	r2, #1
 363:STM32Cube_FW_N6/Drivers/STM32N6xx_HAL_Driver/Src/stm32n6xx_hal_ramcfg.c ****     {
 364:STM32Cube_FW_N6/Drivers/STM32N6xx_HAL_Driver/Src/stm32n6xx_hal_ramcfg.c ****       /* Start the SRAM ECC mechanism and latching the error address */
 365:STM32Cube_FW_N6/Drivers/STM32N6xx_HAL_Driver/Src/stm32n6xx_hal_ramcfg.c ****       hramcfg->Instance->CR |= (RAMCFG_CR_ECCE | RAMCFG_CR_ALE);
 493              		.loc 1 365 24 view .LVU117
 494 0046 1A68     		ldr	r2, [r3]
 495              		.loc 1 365 7 is_stmt 1 view .LVU118
 496              		.loc 1 365 29 is_stmt 0 view .LVU119
 497 0048 0CBF     		ite	eq
 498 004a 42F01102 		orreq	r2, r2, #17
 366:STM32Cube_FW_N6/Drivers/STM32N6xx_HAL_Driver/Src/stm32n6xx_hal_ramcfg.c ****     }
 367:STM32Cube_FW_N6/Drivers/STM32N6xx_HAL_Driver/Src/stm32n6xx_hal_ramcfg.c ****     else
 368:STM32Cube_FW_N6/Drivers/STM32N6xx_HAL_Driver/Src/stm32n6xx_hal_ramcfg.c ****     {
 369:STM32Cube_FW_N6/Drivers/STM32N6xx_HAL_Driver/Src/stm32n6xx_hal_ramcfg.c ****       /* Start latching the error address */
 370:STM32Cube_FW_N6/Drivers/STM32N6xx_HAL_Driver/Src/stm32n6xx_hal_ramcfg.c ****       hramcfg->Instance->CR |= RAMCFG_CR_ALE;
 499              		.loc 1 370 7 is_stmt 1 view .LVU120
 500              		.loc 1 370 29 is_stmt 0 view .LVU121
 501 004e 42F01002 		orrne	r2, r2, #16
 502 0052 1A60     		str	r2, [r3]
 371:STM32Cube_FW_N6/Drivers/STM32N6xx_HAL_Driver/Src/stm32n6xx_hal_ramcfg.c ****     }
 372:STM32Cube_FW_N6/Drivers/STM32N6xx_HAL_Driver/Src/stm32n6xx_hal_ramcfg.c **** 
 373:STM32Cube_FW_N6/Drivers/STM32N6xx_HAL_Driver/Src/stm32n6xx_hal_ramcfg.c ****     /* Update the RAMCFG state */
 374:STM32Cube_FW_N6/Drivers/STM32N6xx_HAL_Driver/Src/stm32n6xx_hal_ramcfg.c ****     hramcfg->State = HAL_RAMCFG_STATE_READY;
ARM GAS  C:\Users\DJESSOU\AppData\Local\Temp\ccLWLfBx.s 			page 18


 503              		.loc 1 374 5 is_stmt 1 view .LVU122
 504              		.loc 1 374 20 is_stmt 0 view .LVU123
 505 0054 0123     		movs	r3, #1
 506 0056 2371     		strb	r3, [r4, #4]
 507              	.LVL16:
 508              	.L20:
 375:STM32Cube_FW_N6/Drivers/STM32N6xx_HAL_Driver/Src/stm32n6xx_hal_ramcfg.c ****   }
 376:STM32Cube_FW_N6/Drivers/STM32N6xx_HAL_Driver/Src/stm32n6xx_hal_ramcfg.c ****   else
 377:STM32Cube_FW_N6/Drivers/STM32N6xx_HAL_Driver/Src/stm32n6xx_hal_ramcfg.c ****   {
 378:STM32Cube_FW_N6/Drivers/STM32N6xx_HAL_Driver/Src/stm32n6xx_hal_ramcfg.c ****     /* Update the RAMCFG error code and return error  */
 379:STM32Cube_FW_N6/Drivers/STM32N6xx_HAL_Driver/Src/stm32n6xx_hal_ramcfg.c ****     hramcfg->ErrorCode = HAL_RAMCFG_ERROR_BUSY;
 380:STM32Cube_FW_N6/Drivers/STM32N6xx_HAL_Driver/Src/stm32n6xx_hal_ramcfg.c ****     status = HAL_ERROR;
 381:STM32Cube_FW_N6/Drivers/STM32N6xx_HAL_Driver/Src/stm32n6xx_hal_ramcfg.c ****   }
 382:STM32Cube_FW_N6/Drivers/STM32N6xx_HAL_Driver/Src/stm32n6xx_hal_ramcfg.c **** 
 383:STM32Cube_FW_N6/Drivers/STM32N6xx_HAL_Driver/Src/stm32n6xx_hal_ramcfg.c ****   return status;
 509              		.loc 1 383 3 is_stmt 1 view .LVU124
 384:STM32Cube_FW_N6/Drivers/STM32N6xx_HAL_Driver/Src/stm32n6xx_hal_ramcfg.c **** }
 510              		.loc 1 384 1 is_stmt 0 view .LVU125
 511 0058 10BD     		pop	{r4, pc}
 512              	.LVL17:
 513              	.L17:
 379:STM32Cube_FW_N6/Drivers/STM32N6xx_HAL_Driver/Src/stm32n6xx_hal_ramcfg.c ****     status = HAL_ERROR;
 514              		.loc 1 379 5 is_stmt 1 view .LVU126
 380:STM32Cube_FW_N6/Drivers/STM32N6xx_HAL_Driver/Src/stm32n6xx_hal_ramcfg.c ****   }
 515              		.loc 1 380 12 is_stmt 0 view .LVU127
 516 005a 0120     		movs	r0, #1
 379:STM32Cube_FW_N6/Drivers/STM32N6xx_HAL_Driver/Src/stm32n6xx_hal_ramcfg.c ****     status = HAL_ERROR;
 517              		.loc 1 379 24 view .LVU128
 518 005c A360     		str	r3, [r4, #8]
 380:STM32Cube_FW_N6/Drivers/STM32N6xx_HAL_Driver/Src/stm32n6xx_hal_ramcfg.c ****   }
 519              		.loc 1 380 5 is_stmt 1 view .LVU129
 520              	.LVL18:
 380:STM32Cube_FW_N6/Drivers/STM32N6xx_HAL_Driver/Src/stm32n6xx_hal_ramcfg.c ****   }
 521              		.loc 1 380 5 is_stmt 0 view .LVU130
 522 005e FBE7     		b	.L20
 523              	.L23:
 524              		.align	2
 525              	.L22:
 526 0060 80340252 		.word	1375876224
 527 0064 00000000 		.word	.LC0
 528              		.cfi_endproc
 529              	.LFE866:
 531              		.section	.text.HAL_RAMCFG_StopECC,"ax",%progbits
 532              		.align	1
 533              		.global	HAL_RAMCFG_StopECC
 534              		.syntax unified
 535              		.thumb
 536              		.thumb_func
 538              	HAL_RAMCFG_StopECC:
 539              	.LVL19:
 540              	.LFB867:
 385:STM32Cube_FW_N6/Drivers/STM32N6xx_HAL_Driver/Src/stm32n6xx_hal_ramcfg.c **** 
 386:STM32Cube_FW_N6/Drivers/STM32N6xx_HAL_Driver/Src/stm32n6xx_hal_ramcfg.c **** /**
 387:STM32Cube_FW_N6/Drivers/STM32N6xx_HAL_Driver/Src/stm32n6xx_hal_ramcfg.c ****   * @brief  Stop ECC mechanism for the given SRAM.
 388:STM32Cube_FW_N6/Drivers/STM32N6xx_HAL_Driver/Src/stm32n6xx_hal_ramcfg.c ****   * @param  hramcfg : Pointer to a RAMCFG_HandleTypeDef structure that contains
 389:STM32Cube_FW_N6/Drivers/STM32N6xx_HAL_Driver/Src/stm32n6xx_hal_ramcfg.c ****   *                   the configuration information for the specified RAMCFG
 390:STM32Cube_FW_N6/Drivers/STM32N6xx_HAL_Driver/Src/stm32n6xx_hal_ramcfg.c ****   *                   instance.
ARM GAS  C:\Users\DJESSOU\AppData\Local\Temp\ccLWLfBx.s 			page 19


 391:STM32Cube_FW_N6/Drivers/STM32N6xx_HAL_Driver/Src/stm32n6xx_hal_ramcfg.c ****   * @retval HAL status.
 392:STM32Cube_FW_N6/Drivers/STM32N6xx_HAL_Driver/Src/stm32n6xx_hal_ramcfg.c ****   */
 393:STM32Cube_FW_N6/Drivers/STM32N6xx_HAL_Driver/Src/stm32n6xx_hal_ramcfg.c **** HAL_StatusTypeDef HAL_RAMCFG_StopECC(RAMCFG_HandleTypeDef *hramcfg)
 394:STM32Cube_FW_N6/Drivers/STM32N6xx_HAL_Driver/Src/stm32n6xx_hal_ramcfg.c **** {
 541              		.loc 1 394 1 is_stmt 1 view -0
 542              		.cfi_startproc
 543              		@ args = 0, pretend = 0, frame = 0
 544              		@ frame_needed = 0, uses_anonymous_args = 0
 395:STM32Cube_FW_N6/Drivers/STM32N6xx_HAL_Driver/Src/stm32n6xx_hal_ramcfg.c ****   HAL_StatusTypeDef status = HAL_OK;
 545              		.loc 1 395 3 view .LVU132
 396:STM32Cube_FW_N6/Drivers/STM32N6xx_HAL_Driver/Src/stm32n6xx_hal_ramcfg.c ****   /* Check the parameters */
 397:STM32Cube_FW_N6/Drivers/STM32N6xx_HAL_Driver/Src/stm32n6xx_hal_ramcfg.c ****   assert_param(IS_RAMCFG_ECC_INSTANCE(hramcfg->Instance));
 546              		.loc 1 397 3 view .LVU133
 547 0000 0368     		ldr	r3, [r0]
 548 0002 184A     		ldr	r2, .L32
 394:STM32Cube_FW_N6/Drivers/STM32N6xx_HAL_Driver/Src/stm32n6xx_hal_ramcfg.c ****   HAL_StatusTypeDef status = HAL_OK;
 549              		.loc 1 394 1 is_stmt 0 view .LVU134
 550 0004 10B5     		push	{r4, lr}
 551              		.cfi_def_cfa_offset 8
 552              		.cfi_offset 4, -8
 553              		.cfi_offset 14, -4
 554              		.loc 1 397 3 view .LVU135
 555 0006 9342     		cmp	r3, r2
 394:STM32Cube_FW_N6/Drivers/STM32N6xx_HAL_Driver/Src/stm32n6xx_hal_ramcfg.c ****   HAL_StatusTypeDef status = HAL_OK;
 556              		.loc 1 394 1 view .LVU136
 557 0008 0446     		mov	r4, r0
 558              		.loc 1 397 3 view .LVU137
 559 000a 11D0     		beq	.L25
 560              		.loc 1 397 3 discriminator 1 view .LVU138
 561 000c 02F17042 		add	r2, r2, #-268435456
 562 0010 9342     		cmp	r3, r2
 563 0012 0DD0     		beq	.L25
 564              		.loc 1 397 3 discriminator 2 view .LVU139
 565 0014 02F18052 		add	r2, r2, #268435456
 566 0018 8032     		adds	r2, r2, #128
 567 001a 9342     		cmp	r3, r2
 568 001c 08D0     		beq	.L25
 569              		.loc 1 397 3 discriminator 3 view .LVU140
 570 001e 02F17042 		add	r2, r2, #-268435456
 571 0022 9342     		cmp	r3, r2
 572 0024 04D0     		beq	.L25
 573              		.loc 1 397 3 discriminator 4 view .LVU141
 574 0026 40F28D11 		movw	r1, #397
 575 002a 0F48     		ldr	r0, .L32+4
 576              	.LVL20:
 577              		.loc 1 397 3 discriminator 4 view .LVU142
 578 002c FFF7FEFF 		bl	assert_failed
 579              	.LVL21:
 580              	.L25:
 398:STM32Cube_FW_N6/Drivers/STM32N6xx_HAL_Driver/Src/stm32n6xx_hal_ramcfg.c **** 
 399:STM32Cube_FW_N6/Drivers/STM32N6xx_HAL_Driver/Src/stm32n6xx_hal_ramcfg.c ****   /* Check RAMCFG state */
 400:STM32Cube_FW_N6/Drivers/STM32N6xx_HAL_Driver/Src/stm32n6xx_hal_ramcfg.c ****   if (hramcfg->State == HAL_RAMCFG_STATE_READY)
 581              		.loc 1 400 3 is_stmt 1 view .LVU143
 582              		.loc 1 400 14 is_stmt 0 view .LVU144
 583 0030 2379     		ldrb	r3, [r4, #4]	@ zero_extendqisi2
 584              		.loc 1 400 6 view .LVU145
 585 0032 012B     		cmp	r3, #1
ARM GAS  C:\Users\DJESSOU\AppData\Local\Temp\ccLWLfBx.s 			page 20


 586 0034 4FF00203 		mov	r3, #2
 587 0038 10D1     		bne	.L26
 401:STM32Cube_FW_N6/Drivers/STM32N6xx_HAL_Driver/Src/stm32n6xx_hal_ramcfg.c ****   {
 402:STM32Cube_FW_N6/Drivers/STM32N6xx_HAL_Driver/Src/stm32n6xx_hal_ramcfg.c ****     /* Update RAMCFG peripheral state */
 403:STM32Cube_FW_N6/Drivers/STM32N6xx_HAL_Driver/Src/stm32n6xx_hal_ramcfg.c ****     hramcfg->State = HAL_RAMCFG_STATE_BUSY;
 588              		.loc 1 403 5 is_stmt 1 view .LVU146
 589              		.loc 1 403 20 is_stmt 0 view .LVU147
 590 003a 2371     		strb	r3, [r4, #4]
 404:STM32Cube_FW_N6/Drivers/STM32N6xx_HAL_Driver/Src/stm32n6xx_hal_ramcfg.c **** 
 405:STM32Cube_FW_N6/Drivers/STM32N6xx_HAL_Driver/Src/stm32n6xx_hal_ramcfg.c ****     /* Check if ECC mechanism is active */
 406:STM32Cube_FW_N6/Drivers/STM32N6xx_HAL_Driver/Src/stm32n6xx_hal_ramcfg.c ****     if ((hramcfg->Instance->CR & RAMCFG_CR_ECCE) == RAMCFG_CR_ECCE)
 591              		.loc 1 406 5 is_stmt 1 view .LVU148
 592              		.loc 1 406 17 is_stmt 0 view .LVU149
 593 003c 2368     		ldr	r3, [r4]
 594              		.loc 1 406 27 view .LVU150
 595 003e 1A68     		ldr	r2, [r3]
 596              		.loc 1 406 8 view .LVU151
 597 0040 D207     		lsls	r2, r2, #31
 598 0042 07D5     		bpl	.L27
 407:STM32Cube_FW_N6/Drivers/STM32N6xx_HAL_Driver/Src/stm32n6xx_hal_ramcfg.c ****     {
 408:STM32Cube_FW_N6/Drivers/STM32N6xx_HAL_Driver/Src/stm32n6xx_hal_ramcfg.c ****       /* Unlock the SRAM ECC bit */
 409:STM32Cube_FW_N6/Drivers/STM32N6xx_HAL_Driver/Src/stm32n6xx_hal_ramcfg.c ****       WRITE_REG(hramcfg->Instance->ECCKEYR, RAMCFG_ECC_KEY1);
 599              		.loc 1 409 7 is_stmt 1 view .LVU152
 600 0044 AE22     		movs	r2, #174
 601 0046 5A62     		str	r2, [r3, #36]
 410:STM32Cube_FW_N6/Drivers/STM32N6xx_HAL_Driver/Src/stm32n6xx_hal_ramcfg.c ****       WRITE_REG(hramcfg->Instance->ECCKEYR, RAMCFG_ECC_KEY2);
 602              		.loc 1 410 7 view .LVU153
 603 0048 7522     		movs	r2, #117
 604 004a 5A62     		str	r2, [r3, #36]
 411:STM32Cube_FW_N6/Drivers/STM32N6xx_HAL_Driver/Src/stm32n6xx_hal_ramcfg.c **** 
 412:STM32Cube_FW_N6/Drivers/STM32N6xx_HAL_Driver/Src/stm32n6xx_hal_ramcfg.c ****       /* Stop the SRAM ECC mechanism and latching the error address */
 413:STM32Cube_FW_N6/Drivers/STM32N6xx_HAL_Driver/Src/stm32n6xx_hal_ramcfg.c ****       hramcfg->Instance->CR &= ~(RAMCFG_CR_ECCE | RAMCFG_CR_ALE);
 605              		.loc 1 413 7 view .LVU154
 606              		.loc 1 413 24 is_stmt 0 view .LVU155
 607 004c 1A68     		ldr	r2, [r3]
 608              		.loc 1 413 29 view .LVU156
 609 004e 22F01102 		bic	r2, r2, #17
 610 0052 1A60     		str	r2, [r3]
 611              	.L27:
 414:STM32Cube_FW_N6/Drivers/STM32N6xx_HAL_Driver/Src/stm32n6xx_hal_ramcfg.c ****     }
 415:STM32Cube_FW_N6/Drivers/STM32N6xx_HAL_Driver/Src/stm32n6xx_hal_ramcfg.c ****     /* Update the RAMCFG state */
 416:STM32Cube_FW_N6/Drivers/STM32N6xx_HAL_Driver/Src/stm32n6xx_hal_ramcfg.c ****     hramcfg->State = HAL_RAMCFG_STATE_READY;
 612              		.loc 1 416 5 is_stmt 1 view .LVU157
 613              		.loc 1 416 20 is_stmt 0 view .LVU158
 614 0054 0123     		movs	r3, #1
 395:STM32Cube_FW_N6/Drivers/STM32N6xx_HAL_Driver/Src/stm32n6xx_hal_ramcfg.c ****   /* Check the parameters */
 615              		.loc 1 395 21 view .LVU159
 616 0056 0020     		movs	r0, #0
 617              		.loc 1 416 20 view .LVU160
 618 0058 2371     		strb	r3, [r4, #4]
 619              	.LVL22:
 620              	.L28:
 417:STM32Cube_FW_N6/Drivers/STM32N6xx_HAL_Driver/Src/stm32n6xx_hal_ramcfg.c ****   }
 418:STM32Cube_FW_N6/Drivers/STM32N6xx_HAL_Driver/Src/stm32n6xx_hal_ramcfg.c ****   else
 419:STM32Cube_FW_N6/Drivers/STM32N6xx_HAL_Driver/Src/stm32n6xx_hal_ramcfg.c ****   {
 420:STM32Cube_FW_N6/Drivers/STM32N6xx_HAL_Driver/Src/stm32n6xx_hal_ramcfg.c ****     /* Update the RAMCFG error code and return error  */
 421:STM32Cube_FW_N6/Drivers/STM32N6xx_HAL_Driver/Src/stm32n6xx_hal_ramcfg.c ****     hramcfg->ErrorCode = HAL_RAMCFG_ERROR_BUSY;
ARM GAS  C:\Users\DJESSOU\AppData\Local\Temp\ccLWLfBx.s 			page 21


 422:STM32Cube_FW_N6/Drivers/STM32N6xx_HAL_Driver/Src/stm32n6xx_hal_ramcfg.c ****     status = HAL_ERROR;
 423:STM32Cube_FW_N6/Drivers/STM32N6xx_HAL_Driver/Src/stm32n6xx_hal_ramcfg.c ****   }
 424:STM32Cube_FW_N6/Drivers/STM32N6xx_HAL_Driver/Src/stm32n6xx_hal_ramcfg.c **** 
 425:STM32Cube_FW_N6/Drivers/STM32N6xx_HAL_Driver/Src/stm32n6xx_hal_ramcfg.c ****   return status;
 621              		.loc 1 425 3 is_stmt 1 view .LVU161
 426:STM32Cube_FW_N6/Drivers/STM32N6xx_HAL_Driver/Src/stm32n6xx_hal_ramcfg.c **** }
 622              		.loc 1 426 1 is_stmt 0 view .LVU162
 623 005a 10BD     		pop	{r4, pc}
 624              	.LVL23:
 625              	.L26:
 421:STM32Cube_FW_N6/Drivers/STM32N6xx_HAL_Driver/Src/stm32n6xx_hal_ramcfg.c ****     status = HAL_ERROR;
 626              		.loc 1 421 5 is_stmt 1 view .LVU163
 422:STM32Cube_FW_N6/Drivers/STM32N6xx_HAL_Driver/Src/stm32n6xx_hal_ramcfg.c ****   }
 627              		.loc 1 422 12 is_stmt 0 view .LVU164
 628 005c 0120     		movs	r0, #1
 421:STM32Cube_FW_N6/Drivers/STM32N6xx_HAL_Driver/Src/stm32n6xx_hal_ramcfg.c ****     status = HAL_ERROR;
 629              		.loc 1 421 24 view .LVU165
 630 005e A360     		str	r3, [r4, #8]
 422:STM32Cube_FW_N6/Drivers/STM32N6xx_HAL_Driver/Src/stm32n6xx_hal_ramcfg.c ****   }
 631              		.loc 1 422 5 is_stmt 1 view .LVU166
 632              	.LVL24:
 422:STM32Cube_FW_N6/Drivers/STM32N6xx_HAL_Driver/Src/stm32n6xx_hal_ramcfg.c ****   }
 633              		.loc 1 422 5 is_stmt 0 view .LVU167
 634 0060 FBE7     		b	.L28
 635              	.L33:
 636 0062 00BF     		.align	2
 637              	.L32:
 638 0064 80340252 		.word	1375876224
 639 0068 00000000 		.word	.LC0
 640              		.cfi_endproc
 641              	.LFE867:
 643              		.section	.text.HAL_RAMCFG_EnableNotification,"ax",%progbits
 644              		.align	1
 645              		.global	HAL_RAMCFG_EnableNotification
 646              		.syntax unified
 647              		.thumb
 648              		.thumb_func
 650              	HAL_RAMCFG_EnableNotification:
 651              	.LVL25:
 652              	.LFB868:
 427:STM32Cube_FW_N6/Drivers/STM32N6xx_HAL_Driver/Src/stm32n6xx_hal_ramcfg.c **** 
 428:STM32Cube_FW_N6/Drivers/STM32N6xx_HAL_Driver/Src/stm32n6xx_hal_ramcfg.c **** /**
 429:STM32Cube_FW_N6/Drivers/STM32N6xx_HAL_Driver/Src/stm32n6xx_hal_ramcfg.c ****   * @brief  Enable the RAMCFG error interrupts.
 430:STM32Cube_FW_N6/Drivers/STM32N6xx_HAL_Driver/Src/stm32n6xx_hal_ramcfg.c ****   * @param  hramcfg       : Pointer to a RAMCFG_HandleTypeDef structure that
 431:STM32Cube_FW_N6/Drivers/STM32N6xx_HAL_Driver/Src/stm32n6xx_hal_ramcfg.c ****   *                         contains the configuration information for the
 432:STM32Cube_FW_N6/Drivers/STM32N6xx_HAL_Driver/Src/stm32n6xx_hal_ramcfg.c ****   *                         specified RAMCFG instance.
 433:STM32Cube_FW_N6/Drivers/STM32N6xx_HAL_Driver/Src/stm32n6xx_hal_ramcfg.c ****   * @param  Notifications : Select the notification to be enabled.
 434:STM32Cube_FW_N6/Drivers/STM32N6xx_HAL_Driver/Src/stm32n6xx_hal_ramcfg.c ****   *                         This parameter can be any value of @ref
 435:STM32Cube_FW_N6/Drivers/STM32N6xx_HAL_Driver/Src/stm32n6xx_hal_ramcfg.c ****   *                         RAMCFG_Interrupt group.
 436:STM32Cube_FW_N6/Drivers/STM32N6xx_HAL_Driver/Src/stm32n6xx_hal_ramcfg.c ****   * @retval HAL status.
 437:STM32Cube_FW_N6/Drivers/STM32N6xx_HAL_Driver/Src/stm32n6xx_hal_ramcfg.c ****   */
 438:STM32Cube_FW_N6/Drivers/STM32N6xx_HAL_Driver/Src/stm32n6xx_hal_ramcfg.c **** HAL_StatusTypeDef HAL_RAMCFG_EnableNotification(RAMCFG_HandleTypeDef *hramcfg, uint32_t Notificatio
 439:STM32Cube_FW_N6/Drivers/STM32N6xx_HAL_Driver/Src/stm32n6xx_hal_ramcfg.c **** {
 653              		.loc 1 439 1 is_stmt 1 view -0
 654              		.cfi_startproc
 655              		@ args = 0, pretend = 0, frame = 0
 656              		@ frame_needed = 0, uses_anonymous_args = 0
ARM GAS  C:\Users\DJESSOU\AppData\Local\Temp\ccLWLfBx.s 			page 22


 440:STM32Cube_FW_N6/Drivers/STM32N6xx_HAL_Driver/Src/stm32n6xx_hal_ramcfg.c ****   HAL_StatusTypeDef status = HAL_OK;
 657              		.loc 1 440 3 view .LVU169
 441:STM32Cube_FW_N6/Drivers/STM32N6xx_HAL_Driver/Src/stm32n6xx_hal_ramcfg.c ****   /* Check the parameters */
 442:STM32Cube_FW_N6/Drivers/STM32N6xx_HAL_Driver/Src/stm32n6xx_hal_ramcfg.c ****   assert_param(IS_RAMCFG_ECC_INSTANCE(hramcfg->Instance));
 658              		.loc 1 442 3 view .LVU170
 439:STM32Cube_FW_N6/Drivers/STM32N6xx_HAL_Driver/Src/stm32n6xx_hal_ramcfg.c ****   HAL_StatusTypeDef status = HAL_OK;
 659              		.loc 1 439 1 is_stmt 0 view .LVU171
 660 0000 38B5     		push	{r3, r4, r5, lr}
 661              		.cfi_def_cfa_offset 16
 662              		.cfi_offset 3, -16
 663              		.cfi_offset 4, -12
 664              		.cfi_offset 5, -8
 665              		.cfi_offset 14, -4
 666              		.loc 1 442 3 view .LVU172
 667 0002 184A     		ldr	r2, .L39
 668 0004 0368     		ldr	r3, [r0]
 439:STM32Cube_FW_N6/Drivers/STM32N6xx_HAL_Driver/Src/stm32n6xx_hal_ramcfg.c ****   HAL_StatusTypeDef status = HAL_OK;
 669              		.loc 1 439 1 view .LVU173
 670 0006 0446     		mov	r4, r0
 671              		.loc 1 442 3 view .LVU174
 672 0008 9342     		cmp	r3, r2
 439:STM32Cube_FW_N6/Drivers/STM32N6xx_HAL_Driver/Src/stm32n6xx_hal_ramcfg.c ****   HAL_StatusTypeDef status = HAL_OK;
 673              		.loc 1 439 1 view .LVU175
 674 000a 0D46     		mov	r5, r1
 675              		.loc 1 442 3 view .LVU176
 676 000c 11D0     		beq	.L35
 677              		.loc 1 442 3 discriminator 1 view .LVU177
 678 000e 02F17042 		add	r2, r2, #-268435456
 679 0012 9342     		cmp	r3, r2
 680 0014 0DD0     		beq	.L35
 681              		.loc 1 442 3 discriminator 2 view .LVU178
 682 0016 02F18052 		add	r2, r2, #268435456
 683 001a 8032     		adds	r2, r2, #128
 684 001c 9342     		cmp	r3, r2
 685 001e 08D0     		beq	.L35
 686              		.loc 1 442 3 discriminator 3 view .LVU179
 687 0020 02F17042 		add	r2, r2, #-268435456
 688 0024 9342     		cmp	r3, r2
 689 0026 04D0     		beq	.L35
 690              		.loc 1 442 3 discriminator 4 view .LVU180
 691 0028 4FF4DD71 		mov	r1, #442
 692              	.LVL26:
 693              		.loc 1 442 3 discriminator 4 view .LVU181
 694 002c 0E48     		ldr	r0, .L39+4
 695              	.LVL27:
 696              		.loc 1 442 3 discriminator 4 view .LVU182
 697 002e FFF7FEFF 		bl	assert_failed
 698              	.LVL28:
 699              	.L35:
 443:STM32Cube_FW_N6/Drivers/STM32N6xx_HAL_Driver/Src/stm32n6xx_hal_ramcfg.c ****   assert_param(IS_RAMCFG_INTERRUPT(Notifications));
 700              		.loc 1 443 3 is_stmt 1 view .LVU183
 701 0032 6B1E     		subs	r3, r5, #1
 702 0034 022B     		cmp	r3, #2
 703 0036 04D9     		bls	.L36
 704              		.loc 1 443 3 is_stmt 0 discriminator 1 view .LVU184
 705 0038 40F2BB11 		movw	r1, #443
 706 003c 0A48     		ldr	r0, .L39+4
ARM GAS  C:\Users\DJESSOU\AppData\Local\Temp\ccLWLfBx.s 			page 23


 707 003e FFF7FEFF 		bl	assert_failed
 708              	.LVL29:
 709              	.L36:
 444:STM32Cube_FW_N6/Drivers/STM32N6xx_HAL_Driver/Src/stm32n6xx_hal_ramcfg.c **** 
 445:STM32Cube_FW_N6/Drivers/STM32N6xx_HAL_Driver/Src/stm32n6xx_hal_ramcfg.c ****   /* Check RAMCFG state */
 446:STM32Cube_FW_N6/Drivers/STM32N6xx_HAL_Driver/Src/stm32n6xx_hal_ramcfg.c ****   if (hramcfg->State == HAL_RAMCFG_STATE_READY)
 710              		.loc 1 446 3 is_stmt 1 view .LVU185
 711              		.loc 1 446 14 is_stmt 0 view .LVU186
 712 0042 2379     		ldrb	r3, [r4, #4]	@ zero_extendqisi2
 713              		.loc 1 446 6 view .LVU187
 714 0044 012B     		cmp	r3, #1
 715              		.loc 1 446 14 view .LVU188
 716 0046 D9B2     		uxtb	r1, r3
 717 0048 4FF00203 		mov	r3, #2
 718              		.loc 1 446 6 view .LVU189
 719 004c 07D1     		bne	.L37
 447:STM32Cube_FW_N6/Drivers/STM32N6xx_HAL_Driver/Src/stm32n6xx_hal_ramcfg.c ****   {
 448:STM32Cube_FW_N6/Drivers/STM32N6xx_HAL_Driver/Src/stm32n6xx_hal_ramcfg.c ****     /* Update RAMCFG peripheral state */
 449:STM32Cube_FW_N6/Drivers/STM32N6xx_HAL_Driver/Src/stm32n6xx_hal_ramcfg.c ****     hramcfg->State = HAL_RAMCFG_STATE_BUSY;
 720              		.loc 1 449 5 is_stmt 1 view .LVU190
 440:STM32Cube_FW_N6/Drivers/STM32N6xx_HAL_Driver/Src/stm32n6xx_hal_ramcfg.c ****   /* Check the parameters */
 721              		.loc 1 440 21 is_stmt 0 view .LVU191
 722 004e 0020     		movs	r0, #0
 450:STM32Cube_FW_N6/Drivers/STM32N6xx_HAL_Driver/Src/stm32n6xx_hal_ramcfg.c **** 
 451:STM32Cube_FW_N6/Drivers/STM32N6xx_HAL_Driver/Src/stm32n6xx_hal_ramcfg.c ****     /* Enable RAMCFG interrupts */
 452:STM32Cube_FW_N6/Drivers/STM32N6xx_HAL_Driver/Src/stm32n6xx_hal_ramcfg.c ****     __HAL_RAMCFG_ENABLE_IT(hramcfg, Notifications);
 723              		.loc 1 452 5 view .LVU192
 724 0050 2268     		ldr	r2, [r4]
 449:STM32Cube_FW_N6/Drivers/STM32N6xx_HAL_Driver/Src/stm32n6xx_hal_ramcfg.c **** 
 725              		.loc 1 449 20 view .LVU193
 726 0052 2371     		strb	r3, [r4, #4]
 727              		.loc 1 452 5 is_stmt 1 view .LVU194
 728 0054 5368     		ldr	r3, [r2, #4]
 729 0056 2B43     		orrs	r3, r3, r5
 730 0058 5360     		str	r3, [r2, #4]
 453:STM32Cube_FW_N6/Drivers/STM32N6xx_HAL_Driver/Src/stm32n6xx_hal_ramcfg.c **** 
 454:STM32Cube_FW_N6/Drivers/STM32N6xx_HAL_Driver/Src/stm32n6xx_hal_ramcfg.c ****     /* Update the RAMCFG state */
 455:STM32Cube_FW_N6/Drivers/STM32N6xx_HAL_Driver/Src/stm32n6xx_hal_ramcfg.c ****     hramcfg->State = HAL_RAMCFG_STATE_READY;
 731              		.loc 1 455 5 view .LVU195
 732              		.loc 1 455 20 is_stmt 0 view .LVU196
 733 005a 2171     		strb	r1, [r4, #4]
 734              	.LVL30:
 735              	.L38:
 456:STM32Cube_FW_N6/Drivers/STM32N6xx_HAL_Driver/Src/stm32n6xx_hal_ramcfg.c **** 
 457:STM32Cube_FW_N6/Drivers/STM32N6xx_HAL_Driver/Src/stm32n6xx_hal_ramcfg.c ****   }
 458:STM32Cube_FW_N6/Drivers/STM32N6xx_HAL_Driver/Src/stm32n6xx_hal_ramcfg.c ****   else
 459:STM32Cube_FW_N6/Drivers/STM32N6xx_HAL_Driver/Src/stm32n6xx_hal_ramcfg.c ****   {
 460:STM32Cube_FW_N6/Drivers/STM32N6xx_HAL_Driver/Src/stm32n6xx_hal_ramcfg.c ****     /* Update the RAMCFG error code and return error */
 461:STM32Cube_FW_N6/Drivers/STM32N6xx_HAL_Driver/Src/stm32n6xx_hal_ramcfg.c ****     hramcfg->ErrorCode = HAL_RAMCFG_ERROR_BUSY;
 462:STM32Cube_FW_N6/Drivers/STM32N6xx_HAL_Driver/Src/stm32n6xx_hal_ramcfg.c ****     status = HAL_ERROR;
 463:STM32Cube_FW_N6/Drivers/STM32N6xx_HAL_Driver/Src/stm32n6xx_hal_ramcfg.c ****   }
 464:STM32Cube_FW_N6/Drivers/STM32N6xx_HAL_Driver/Src/stm32n6xx_hal_ramcfg.c **** 
 465:STM32Cube_FW_N6/Drivers/STM32N6xx_HAL_Driver/Src/stm32n6xx_hal_ramcfg.c ****   return status;
 736              		.loc 1 465 3 is_stmt 1 view .LVU197
 466:STM32Cube_FW_N6/Drivers/STM32N6xx_HAL_Driver/Src/stm32n6xx_hal_ramcfg.c **** }
 737              		.loc 1 466 1 is_stmt 0 view .LVU198
 738 005c 38BD     		pop	{r3, r4, r5, pc}
ARM GAS  C:\Users\DJESSOU\AppData\Local\Temp\ccLWLfBx.s 			page 24


 739              	.LVL31:
 740              	.L37:
 461:STM32Cube_FW_N6/Drivers/STM32N6xx_HAL_Driver/Src/stm32n6xx_hal_ramcfg.c ****     status = HAL_ERROR;
 741              		.loc 1 461 5 is_stmt 1 view .LVU199
 462:STM32Cube_FW_N6/Drivers/STM32N6xx_HAL_Driver/Src/stm32n6xx_hal_ramcfg.c ****   }
 742              		.loc 1 462 12 is_stmt 0 view .LVU200
 743 005e 0120     		movs	r0, #1
 461:STM32Cube_FW_N6/Drivers/STM32N6xx_HAL_Driver/Src/stm32n6xx_hal_ramcfg.c ****     status = HAL_ERROR;
 744              		.loc 1 461 24 view .LVU201
 745 0060 A360     		str	r3, [r4, #8]
 462:STM32Cube_FW_N6/Drivers/STM32N6xx_HAL_Driver/Src/stm32n6xx_hal_ramcfg.c ****   }
 746              		.loc 1 462 5 is_stmt 1 view .LVU202
 747              	.LVL32:
 462:STM32Cube_FW_N6/Drivers/STM32N6xx_HAL_Driver/Src/stm32n6xx_hal_ramcfg.c ****   }
 748              		.loc 1 462 5 is_stmt 0 view .LVU203
 749 0062 FBE7     		b	.L38
 750              	.L40:
 751              		.align	2
 752              	.L39:
 753 0064 80340252 		.word	1375876224
 754 0068 00000000 		.word	.LC0
 755              		.cfi_endproc
 756              	.LFE868:
 758              		.section	.text.HAL_RAMCFG_DisableNotification,"ax",%progbits
 759              		.align	1
 760              		.global	HAL_RAMCFG_DisableNotification
 761              		.syntax unified
 762              		.thumb
 763              		.thumb_func
 765              	HAL_RAMCFG_DisableNotification:
 766              	.LVL33:
 767              	.LFB869:
 467:STM32Cube_FW_N6/Drivers/STM32N6xx_HAL_Driver/Src/stm32n6xx_hal_ramcfg.c **** 
 468:STM32Cube_FW_N6/Drivers/STM32N6xx_HAL_Driver/Src/stm32n6xx_hal_ramcfg.c **** /**
 469:STM32Cube_FW_N6/Drivers/STM32N6xx_HAL_Driver/Src/stm32n6xx_hal_ramcfg.c ****   * @brief  Disable the RAMCFG error interrupts.
 470:STM32Cube_FW_N6/Drivers/STM32N6xx_HAL_Driver/Src/stm32n6xx_hal_ramcfg.c ****   * @param  hramcfg       : Pointer to a RAMCFG_HandleTypeDef structure that
 471:STM32Cube_FW_N6/Drivers/STM32N6xx_HAL_Driver/Src/stm32n6xx_hal_ramcfg.c ****   *                         contains the configuration information for the
 472:STM32Cube_FW_N6/Drivers/STM32N6xx_HAL_Driver/Src/stm32n6xx_hal_ramcfg.c ****   *                         specified RAMCFG instance.
 473:STM32Cube_FW_N6/Drivers/STM32N6xx_HAL_Driver/Src/stm32n6xx_hal_ramcfg.c ****   * @param  Notifications : Select the notification to be disabled.
 474:STM32Cube_FW_N6/Drivers/STM32N6xx_HAL_Driver/Src/stm32n6xx_hal_ramcfg.c ****   *                         This parameter can be :
 475:STM32Cube_FW_N6/Drivers/STM32N6xx_HAL_Driver/Src/stm32n6xx_hal_ramcfg.c ****   *                         RAMCFG_IT_SINGLEERR : Single Error Interrupt.
 476:STM32Cube_FW_N6/Drivers/STM32N6xx_HAL_Driver/Src/stm32n6xx_hal_ramcfg.c ****   *                         RAMCFG_IT_DOUBLEERR : Double Error Interrupt.
 477:STM32Cube_FW_N6/Drivers/STM32N6xx_HAL_Driver/Src/stm32n6xx_hal_ramcfg.c ****   * @retval HAL status.
 478:STM32Cube_FW_N6/Drivers/STM32N6xx_HAL_Driver/Src/stm32n6xx_hal_ramcfg.c ****   */
 479:STM32Cube_FW_N6/Drivers/STM32N6xx_HAL_Driver/Src/stm32n6xx_hal_ramcfg.c **** HAL_StatusTypeDef HAL_RAMCFG_DisableNotification(RAMCFG_HandleTypeDef *hramcfg, uint32_t Notificati
 480:STM32Cube_FW_N6/Drivers/STM32N6xx_HAL_Driver/Src/stm32n6xx_hal_ramcfg.c **** {
 768              		.loc 1 480 1 is_stmt 1 view -0
 769              		.cfi_startproc
 770              		@ args = 0, pretend = 0, frame = 0
 771              		@ frame_needed = 0, uses_anonymous_args = 0
 481:STM32Cube_FW_N6/Drivers/STM32N6xx_HAL_Driver/Src/stm32n6xx_hal_ramcfg.c ****   HAL_StatusTypeDef status = HAL_OK;
 772              		.loc 1 481 3 view .LVU205
 482:STM32Cube_FW_N6/Drivers/STM32N6xx_HAL_Driver/Src/stm32n6xx_hal_ramcfg.c ****   /* Check the parameters */
 483:STM32Cube_FW_N6/Drivers/STM32N6xx_HAL_Driver/Src/stm32n6xx_hal_ramcfg.c ****   assert_param(IS_RAMCFG_ECC_INSTANCE(hramcfg->Instance));
 773              		.loc 1 483 3 view .LVU206
 480:STM32Cube_FW_N6/Drivers/STM32N6xx_HAL_Driver/Src/stm32n6xx_hal_ramcfg.c ****   HAL_StatusTypeDef status = HAL_OK;
 774              		.loc 1 480 1 is_stmt 0 view .LVU207
ARM GAS  C:\Users\DJESSOU\AppData\Local\Temp\ccLWLfBx.s 			page 25


 775 0000 38B5     		push	{r3, r4, r5, lr}
 776              		.cfi_def_cfa_offset 16
 777              		.cfi_offset 3, -16
 778              		.cfi_offset 4, -12
 779              		.cfi_offset 5, -8
 780              		.cfi_offset 14, -4
 781              		.loc 1 483 3 view .LVU208
 782 0002 194A     		ldr	r2, .L46
 783 0004 0368     		ldr	r3, [r0]
 480:STM32Cube_FW_N6/Drivers/STM32N6xx_HAL_Driver/Src/stm32n6xx_hal_ramcfg.c ****   HAL_StatusTypeDef status = HAL_OK;
 784              		.loc 1 480 1 view .LVU209
 785 0006 0446     		mov	r4, r0
 786              		.loc 1 483 3 view .LVU210
 787 0008 9342     		cmp	r3, r2
 480:STM32Cube_FW_N6/Drivers/STM32N6xx_HAL_Driver/Src/stm32n6xx_hal_ramcfg.c ****   HAL_StatusTypeDef status = HAL_OK;
 788              		.loc 1 480 1 view .LVU211
 789 000a 0D46     		mov	r5, r1
 790              		.loc 1 483 3 view .LVU212
 791 000c 11D0     		beq	.L42
 792              		.loc 1 483 3 discriminator 1 view .LVU213
 793 000e 02F17042 		add	r2, r2, #-268435456
 794 0012 9342     		cmp	r3, r2
 795 0014 0DD0     		beq	.L42
 796              		.loc 1 483 3 discriminator 2 view .LVU214
 797 0016 02F18052 		add	r2, r2, #268435456
 798 001a 8032     		adds	r2, r2, #128
 799 001c 9342     		cmp	r3, r2
 800 001e 08D0     		beq	.L42
 801              		.loc 1 483 3 discriminator 3 view .LVU215
 802 0020 02F17042 		add	r2, r2, #-268435456
 803 0024 9342     		cmp	r3, r2
 804 0026 04D0     		beq	.L42
 805              		.loc 1 483 3 discriminator 4 view .LVU216
 806 0028 40F2E311 		movw	r1, #483
 807              	.LVL34:
 808              		.loc 1 483 3 discriminator 4 view .LVU217
 809 002c 0F48     		ldr	r0, .L46+4
 810              	.LVL35:
 811              		.loc 1 483 3 discriminator 4 view .LVU218
 812 002e FFF7FEFF 		bl	assert_failed
 813              	.LVL36:
 814              	.L42:
 484:STM32Cube_FW_N6/Drivers/STM32N6xx_HAL_Driver/Src/stm32n6xx_hal_ramcfg.c ****   assert_param(IS_RAMCFG_INTERRUPT(Notifications));
 815              		.loc 1 484 3 is_stmt 1 view .LVU219
 816 0032 6B1E     		subs	r3, r5, #1
 817 0034 022B     		cmp	r3, #2
 818 0036 04D9     		bls	.L43
 819              		.loc 1 484 3 is_stmt 0 discriminator 1 view .LVU220
 820 0038 4FF4F271 		mov	r1, #484
 821 003c 0B48     		ldr	r0, .L46+4
 822 003e FFF7FEFF 		bl	assert_failed
 823              	.LVL37:
 824              	.L43:
 485:STM32Cube_FW_N6/Drivers/STM32N6xx_HAL_Driver/Src/stm32n6xx_hal_ramcfg.c **** 
 486:STM32Cube_FW_N6/Drivers/STM32N6xx_HAL_Driver/Src/stm32n6xx_hal_ramcfg.c ****   /* Check RAMCFG state */
 487:STM32Cube_FW_N6/Drivers/STM32N6xx_HAL_Driver/Src/stm32n6xx_hal_ramcfg.c ****   if (hramcfg->State == HAL_RAMCFG_STATE_READY)
 825              		.loc 1 487 3 is_stmt 1 view .LVU221
ARM GAS  C:\Users\DJESSOU\AppData\Local\Temp\ccLWLfBx.s 			page 26


 826              		.loc 1 487 14 is_stmt 0 view .LVU222
 827 0042 2379     		ldrb	r3, [r4, #4]	@ zero_extendqisi2
 828              		.loc 1 487 6 view .LVU223
 829 0044 012B     		cmp	r3, #1
 830              		.loc 1 487 14 view .LVU224
 831 0046 D9B2     		uxtb	r1, r3
 832 0048 4FF00203 		mov	r3, #2
 833              		.loc 1 487 6 view .LVU225
 834 004c 08D1     		bne	.L44
 488:STM32Cube_FW_N6/Drivers/STM32N6xx_HAL_Driver/Src/stm32n6xx_hal_ramcfg.c ****   {
 489:STM32Cube_FW_N6/Drivers/STM32N6xx_HAL_Driver/Src/stm32n6xx_hal_ramcfg.c ****     /* Update RAMCFG peripheral state */
 490:STM32Cube_FW_N6/Drivers/STM32N6xx_HAL_Driver/Src/stm32n6xx_hal_ramcfg.c ****     hramcfg->State = HAL_RAMCFG_STATE_BUSY;
 835              		.loc 1 490 5 is_stmt 1 view .LVU226
 481:STM32Cube_FW_N6/Drivers/STM32N6xx_HAL_Driver/Src/stm32n6xx_hal_ramcfg.c ****   /* Check the parameters */
 836              		.loc 1 481 21 is_stmt 0 view .LVU227
 837 004e 0020     		movs	r0, #0
 491:STM32Cube_FW_N6/Drivers/STM32N6xx_HAL_Driver/Src/stm32n6xx_hal_ramcfg.c **** 
 492:STM32Cube_FW_N6/Drivers/STM32N6xx_HAL_Driver/Src/stm32n6xx_hal_ramcfg.c ****     /* Disable RAMCFG interrupts */
 493:STM32Cube_FW_N6/Drivers/STM32N6xx_HAL_Driver/Src/stm32n6xx_hal_ramcfg.c ****     __HAL_RAMCFG_DISABLE_IT(hramcfg, Notifications);
 838              		.loc 1 493 5 view .LVU228
 839 0050 2268     		ldr	r2, [r4]
 490:STM32Cube_FW_N6/Drivers/STM32N6xx_HAL_Driver/Src/stm32n6xx_hal_ramcfg.c **** 
 840              		.loc 1 490 20 view .LVU229
 841 0052 2371     		strb	r3, [r4, #4]
 842              		.loc 1 493 5 is_stmt 1 view .LVU230
 843 0054 5368     		ldr	r3, [r2, #4]
 844 0056 23EA0503 		bic	r3, r3, r5
 845 005a 5360     		str	r3, [r2, #4]
 494:STM32Cube_FW_N6/Drivers/STM32N6xx_HAL_Driver/Src/stm32n6xx_hal_ramcfg.c **** 
 495:STM32Cube_FW_N6/Drivers/STM32N6xx_HAL_Driver/Src/stm32n6xx_hal_ramcfg.c ****     /* Update the RAMCFG state */
 496:STM32Cube_FW_N6/Drivers/STM32N6xx_HAL_Driver/Src/stm32n6xx_hal_ramcfg.c ****     hramcfg->State = HAL_RAMCFG_STATE_READY;
 846              		.loc 1 496 5 view .LVU231
 847              		.loc 1 496 20 is_stmt 0 view .LVU232
 848 005c 2171     		strb	r1, [r4, #4]
 849              	.LVL38:
 850              	.L45:
 497:STM32Cube_FW_N6/Drivers/STM32N6xx_HAL_Driver/Src/stm32n6xx_hal_ramcfg.c ****   }
 498:STM32Cube_FW_N6/Drivers/STM32N6xx_HAL_Driver/Src/stm32n6xx_hal_ramcfg.c ****   else
 499:STM32Cube_FW_N6/Drivers/STM32N6xx_HAL_Driver/Src/stm32n6xx_hal_ramcfg.c ****   {
 500:STM32Cube_FW_N6/Drivers/STM32N6xx_HAL_Driver/Src/stm32n6xx_hal_ramcfg.c ****     /* Update the RAMCFG error code and return error */
 501:STM32Cube_FW_N6/Drivers/STM32N6xx_HAL_Driver/Src/stm32n6xx_hal_ramcfg.c ****     hramcfg->ErrorCode = HAL_RAMCFG_ERROR_BUSY;
 502:STM32Cube_FW_N6/Drivers/STM32N6xx_HAL_Driver/Src/stm32n6xx_hal_ramcfg.c ****     status = HAL_ERROR;
 503:STM32Cube_FW_N6/Drivers/STM32N6xx_HAL_Driver/Src/stm32n6xx_hal_ramcfg.c ****   }
 504:STM32Cube_FW_N6/Drivers/STM32N6xx_HAL_Driver/Src/stm32n6xx_hal_ramcfg.c **** 
 505:STM32Cube_FW_N6/Drivers/STM32N6xx_HAL_Driver/Src/stm32n6xx_hal_ramcfg.c ****   return status;
 851              		.loc 1 505 3 is_stmt 1 view .LVU233
 506:STM32Cube_FW_N6/Drivers/STM32N6xx_HAL_Driver/Src/stm32n6xx_hal_ramcfg.c **** }
 852              		.loc 1 506 1 is_stmt 0 view .LVU234
 853 005e 38BD     		pop	{r3, r4, r5, pc}
 854              	.LVL39:
 855              	.L44:
 501:STM32Cube_FW_N6/Drivers/STM32N6xx_HAL_Driver/Src/stm32n6xx_hal_ramcfg.c ****     status = HAL_ERROR;
 856              		.loc 1 501 5 is_stmt 1 view .LVU235
 502:STM32Cube_FW_N6/Drivers/STM32N6xx_HAL_Driver/Src/stm32n6xx_hal_ramcfg.c ****   }
 857              		.loc 1 502 12 is_stmt 0 view .LVU236
 858 0060 0120     		movs	r0, #1
 501:STM32Cube_FW_N6/Drivers/STM32N6xx_HAL_Driver/Src/stm32n6xx_hal_ramcfg.c ****     status = HAL_ERROR;
ARM GAS  C:\Users\DJESSOU\AppData\Local\Temp\ccLWLfBx.s 			page 27


 859              		.loc 1 501 24 view .LVU237
 860 0062 A360     		str	r3, [r4, #8]
 502:STM32Cube_FW_N6/Drivers/STM32N6xx_HAL_Driver/Src/stm32n6xx_hal_ramcfg.c ****   }
 861              		.loc 1 502 5 is_stmt 1 view .LVU238
 862              	.LVL40:
 502:STM32Cube_FW_N6/Drivers/STM32N6xx_HAL_Driver/Src/stm32n6xx_hal_ramcfg.c ****   }
 863              		.loc 1 502 5 is_stmt 0 view .LVU239
 864 0064 FBE7     		b	.L45
 865              	.L47:
 866 0066 00BF     		.align	2
 867              	.L46:
 868 0068 80340252 		.word	1375876224
 869 006c 00000000 		.word	.LC0
 870              		.cfi_endproc
 871              	.LFE869:
 873              		.section	.text.HAL_RAMCFG_IsECCSingleErrorDetected,"ax",%progbits
 874              		.align	1
 875              		.global	HAL_RAMCFG_IsECCSingleErrorDetected
 876              		.syntax unified
 877              		.thumb
 878              		.thumb_func
 880              	HAL_RAMCFG_IsECCSingleErrorDetected:
 881              	.LVL41:
 882              	.LFB870:
 507:STM32Cube_FW_N6/Drivers/STM32N6xx_HAL_Driver/Src/stm32n6xx_hal_ramcfg.c **** 
 508:STM32Cube_FW_N6/Drivers/STM32N6xx_HAL_Driver/Src/stm32n6xx_hal_ramcfg.c **** /**
 509:STM32Cube_FW_N6/Drivers/STM32N6xx_HAL_Driver/Src/stm32n6xx_hal_ramcfg.c ****   * @brief  Check if an ECC single error has occurred.
 510:STM32Cube_FW_N6/Drivers/STM32N6xx_HAL_Driver/Src/stm32n6xx_hal_ramcfg.c ****   * @param  hramcfg       : Pointer to a RAMCFG_HandleTypeDef structure that
 511:STM32Cube_FW_N6/Drivers/STM32N6xx_HAL_Driver/Src/stm32n6xx_hal_ramcfg.c ****   *                         contains the configuration information for the
 512:STM32Cube_FW_N6/Drivers/STM32N6xx_HAL_Driver/Src/stm32n6xx_hal_ramcfg.c ****   *                         specified RAMCFG instance.
 513:STM32Cube_FW_N6/Drivers/STM32N6xx_HAL_Driver/Src/stm32n6xx_hal_ramcfg.c ****   * @retval State of bit (1 or 0).
 514:STM32Cube_FW_N6/Drivers/STM32N6xx_HAL_Driver/Src/stm32n6xx_hal_ramcfg.c ****   */
 515:STM32Cube_FW_N6/Drivers/STM32N6xx_HAL_Driver/Src/stm32n6xx_hal_ramcfg.c **** uint32_t HAL_RAMCFG_IsECCSingleErrorDetected(const RAMCFG_HandleTypeDef *hramcfg)
 516:STM32Cube_FW_N6/Drivers/STM32N6xx_HAL_Driver/Src/stm32n6xx_hal_ramcfg.c **** {
 883              		.loc 1 516 1 is_stmt 1 view -0
 884              		.cfi_startproc
 885              		@ args = 0, pretend = 0, frame = 0
 886              		@ frame_needed = 0, uses_anonymous_args = 0
 517:STM32Cube_FW_N6/Drivers/STM32N6xx_HAL_Driver/Src/stm32n6xx_hal_ramcfg.c ****   /* Check the parameters */
 518:STM32Cube_FW_N6/Drivers/STM32N6xx_HAL_Driver/Src/stm32n6xx_hal_ramcfg.c ****   assert_param(IS_RAMCFG_ECC_INSTANCE(hramcfg->Instance));
 887              		.loc 1 518 3 view .LVU241
 888 0000 0368     		ldr	r3, [r0]
 889 0002 0E4A     		ldr	r2, .L50
 516:STM32Cube_FW_N6/Drivers/STM32N6xx_HAL_Driver/Src/stm32n6xx_hal_ramcfg.c ****   /* Check the parameters */
 890              		.loc 1 516 1 is_stmt 0 view .LVU242
 891 0004 10B5     		push	{r4, lr}
 892              		.cfi_def_cfa_offset 8
 893              		.cfi_offset 4, -8
 894              		.cfi_offset 14, -4
 895              		.loc 1 518 3 view .LVU243
 896 0006 9342     		cmp	r3, r2
 516:STM32Cube_FW_N6/Drivers/STM32N6xx_HAL_Driver/Src/stm32n6xx_hal_ramcfg.c ****   /* Check the parameters */
 897              		.loc 1 516 1 view .LVU244
 898 0008 0446     		mov	r4, r0
 899              		.loc 1 518 3 view .LVU245
 900 000a 11D0     		beq	.L49
 901              		.loc 1 518 3 discriminator 1 view .LVU246
ARM GAS  C:\Users\DJESSOU\AppData\Local\Temp\ccLWLfBx.s 			page 28


 902 000c 02F17042 		add	r2, r2, #-268435456
 903 0010 9342     		cmp	r3, r2
 904 0012 0DD0     		beq	.L49
 905              		.loc 1 518 3 discriminator 2 view .LVU247
 906 0014 02F18052 		add	r2, r2, #268435456
 907 0018 8032     		adds	r2, r2, #128
 908 001a 9342     		cmp	r3, r2
 909 001c 08D0     		beq	.L49
 910              		.loc 1 518 3 discriminator 3 view .LVU248
 911 001e 02F17042 		add	r2, r2, #-268435456
 912 0022 9342     		cmp	r3, r2
 913 0024 04D0     		beq	.L49
 914              		.loc 1 518 3 discriminator 4 view .LVU249
 915 0026 40F20621 		movw	r1, #518
 916 002a 0548     		ldr	r0, .L50+4
 917              	.LVL42:
 918              		.loc 1 518 3 discriminator 4 view .LVU250
 919 002c FFF7FEFF 		bl	assert_failed
 920              	.LVL43:
 921              	.L49:
 519:STM32Cube_FW_N6/Drivers/STM32N6xx_HAL_Driver/Src/stm32n6xx_hal_ramcfg.c **** 
 520:STM32Cube_FW_N6/Drivers/STM32N6xx_HAL_Driver/Src/stm32n6xx_hal_ramcfg.c ****   /* Return the state of SEDC flag */
 521:STM32Cube_FW_N6/Drivers/STM32N6xx_HAL_Driver/Src/stm32n6xx_hal_ramcfg.c ****   return ((READ_BIT(hramcfg->Instance->ISR, RAMCFG_FLAG_SINGLEERR) == (RAMCFG_FLAG_SINGLEERR)) ? 1U
 922              		.loc 1 521 3 is_stmt 1 view .LVU251
 923              		.loc 1 521 12 is_stmt 0 view .LVU252
 924 0030 2368     		ldr	r3, [r4]
 925 0032 9868     		ldr	r0, [r3, #8]
 522:STM32Cube_FW_N6/Drivers/STM32N6xx_HAL_Driver/Src/stm32n6xx_hal_ramcfg.c **** }
 926              		.loc 1 522 1 view .LVU253
 927 0034 00F00100 		and	r0, r0, #1
 928 0038 10BD     		pop	{r4, pc}
 929              	.LVL44:
 930              	.L51:
 931              		.loc 1 522 1 view .LVU254
 932 003a 00BF     		.align	2
 933              	.L50:
 934 003c 80340252 		.word	1375876224
 935 0040 00000000 		.word	.LC0
 936              		.cfi_endproc
 937              	.LFE870:
 939              		.section	.text.HAL_RAMCFG_IsECCDoubleErrorDetected,"ax",%progbits
 940              		.align	1
 941              		.global	HAL_RAMCFG_IsECCDoubleErrorDetected
 942              		.syntax unified
 943              		.thumb
 944              		.thumb_func
 946              	HAL_RAMCFG_IsECCDoubleErrorDetected:
 947              	.LVL45:
 948              	.LFB871:
 523:STM32Cube_FW_N6/Drivers/STM32N6xx_HAL_Driver/Src/stm32n6xx_hal_ramcfg.c **** 
 524:STM32Cube_FW_N6/Drivers/STM32N6xx_HAL_Driver/Src/stm32n6xx_hal_ramcfg.c **** /**
 525:STM32Cube_FW_N6/Drivers/STM32N6xx_HAL_Driver/Src/stm32n6xx_hal_ramcfg.c ****   * @brief  Check if an ECC double error was occurred.
 526:STM32Cube_FW_N6/Drivers/STM32N6xx_HAL_Driver/Src/stm32n6xx_hal_ramcfg.c ****   * @param  hramcfg       : Pointer to a RAMCFG_HandleTypeDef structure that
 527:STM32Cube_FW_N6/Drivers/STM32N6xx_HAL_Driver/Src/stm32n6xx_hal_ramcfg.c ****   *                         contains the configuration information for the
 528:STM32Cube_FW_N6/Drivers/STM32N6xx_HAL_Driver/Src/stm32n6xx_hal_ramcfg.c ****   *                         specified RAMCFG instance.
 529:STM32Cube_FW_N6/Drivers/STM32N6xx_HAL_Driver/Src/stm32n6xx_hal_ramcfg.c ****   * @retval State of bit (1 or 0).
 530:STM32Cube_FW_N6/Drivers/STM32N6xx_HAL_Driver/Src/stm32n6xx_hal_ramcfg.c ****   */
ARM GAS  C:\Users\DJESSOU\AppData\Local\Temp\ccLWLfBx.s 			page 29


 531:STM32Cube_FW_N6/Drivers/STM32N6xx_HAL_Driver/Src/stm32n6xx_hal_ramcfg.c **** uint32_t HAL_RAMCFG_IsECCDoubleErrorDetected(const RAMCFG_HandleTypeDef *hramcfg)
 532:STM32Cube_FW_N6/Drivers/STM32N6xx_HAL_Driver/Src/stm32n6xx_hal_ramcfg.c **** {
 949              		.loc 1 532 1 is_stmt 1 view -0
 950              		.cfi_startproc
 951              		@ args = 0, pretend = 0, frame = 0
 952              		@ frame_needed = 0, uses_anonymous_args = 0
 533:STM32Cube_FW_N6/Drivers/STM32N6xx_HAL_Driver/Src/stm32n6xx_hal_ramcfg.c ****   /* Check the parameters */
 534:STM32Cube_FW_N6/Drivers/STM32N6xx_HAL_Driver/Src/stm32n6xx_hal_ramcfg.c ****   assert_param(IS_RAMCFG_ECC_INSTANCE(hramcfg->Instance));
 953              		.loc 1 534 3 view .LVU256
 954 0000 0368     		ldr	r3, [r0]
 955 0002 0E4A     		ldr	r2, .L54
 532:STM32Cube_FW_N6/Drivers/STM32N6xx_HAL_Driver/Src/stm32n6xx_hal_ramcfg.c ****   /* Check the parameters */
 956              		.loc 1 532 1 is_stmt 0 view .LVU257
 957 0004 10B5     		push	{r4, lr}
 958              		.cfi_def_cfa_offset 8
 959              		.cfi_offset 4, -8
 960              		.cfi_offset 14, -4
 961              		.loc 1 534 3 view .LVU258
 962 0006 9342     		cmp	r3, r2
 532:STM32Cube_FW_N6/Drivers/STM32N6xx_HAL_Driver/Src/stm32n6xx_hal_ramcfg.c ****   /* Check the parameters */
 963              		.loc 1 532 1 view .LVU259
 964 0008 0446     		mov	r4, r0
 965              		.loc 1 534 3 view .LVU260
 966 000a 11D0     		beq	.L53
 967              		.loc 1 534 3 discriminator 1 view .LVU261
 968 000c 02F17042 		add	r2, r2, #-268435456
 969 0010 9342     		cmp	r3, r2
 970 0012 0DD0     		beq	.L53
 971              		.loc 1 534 3 discriminator 2 view .LVU262
 972 0014 02F18052 		add	r2, r2, #268435456
 973 0018 8032     		adds	r2, r2, #128
 974 001a 9342     		cmp	r3, r2
 975 001c 08D0     		beq	.L53
 976              		.loc 1 534 3 discriminator 3 view .LVU263
 977 001e 02F17042 		add	r2, r2, #-268435456
 978 0022 9342     		cmp	r3, r2
 979 0024 04D0     		beq	.L53
 980              		.loc 1 534 3 discriminator 4 view .LVU264
 981 0026 40F21621 		movw	r1, #534
 982 002a 0548     		ldr	r0, .L54+4
 983              	.LVL46:
 984              		.loc 1 534 3 discriminator 4 view .LVU265
 985 002c FFF7FEFF 		bl	assert_failed
 986              	.LVL47:
 987              	.L53:
 535:STM32Cube_FW_N6/Drivers/STM32N6xx_HAL_Driver/Src/stm32n6xx_hal_ramcfg.c **** 
 536:STM32Cube_FW_N6/Drivers/STM32N6xx_HAL_Driver/Src/stm32n6xx_hal_ramcfg.c ****   /* Return the state of DED flag */
 537:STM32Cube_FW_N6/Drivers/STM32N6xx_HAL_Driver/Src/stm32n6xx_hal_ramcfg.c ****   return ((READ_BIT(hramcfg->Instance->ISR, RAMCFG_FLAG_DOUBLEERR) == (RAMCFG_FLAG_DOUBLEERR)) ? 1U
 988              		.loc 1 537 3 is_stmt 1 view .LVU266
 989              		.loc 1 537 12 is_stmt 0 view .LVU267
 990 0030 2368     		ldr	r3, [r4]
 991 0032 9868     		ldr	r0, [r3, #8]
 538:STM32Cube_FW_N6/Drivers/STM32N6xx_HAL_Driver/Src/stm32n6xx_hal_ramcfg.c **** }
 992              		.loc 1 538 1 view .LVU268
 993 0034 C0F34000 		ubfx	r0, r0, #1, #1
 994 0038 10BD     		pop	{r4, pc}
 995              	.LVL48:
ARM GAS  C:\Users\DJESSOU\AppData\Local\Temp\ccLWLfBx.s 			page 30


 996              	.L55:
 997              		.loc 1 538 1 view .LVU269
 998 003a 00BF     		.align	2
 999              	.L54:
 1000 003c 80340252 		.word	1375876224
 1001 0040 00000000 		.word	.LC0
 1002              		.cfi_endproc
 1003              	.LFE871:
 1005              		.section	.text.HAL_RAMCFG_GetSingleErrorAddress,"ax",%progbits
 1006              		.align	1
 1007              		.global	HAL_RAMCFG_GetSingleErrorAddress
 1008              		.syntax unified
 1009              		.thumb
 1010              		.thumb_func
 1012              	HAL_RAMCFG_GetSingleErrorAddress:
 1013              	.LVL49:
 1014              	.LFB872:
 539:STM32Cube_FW_N6/Drivers/STM32N6xx_HAL_Driver/Src/stm32n6xx_hal_ramcfg.c **** 
 540:STM32Cube_FW_N6/Drivers/STM32N6xx_HAL_Driver/Src/stm32n6xx_hal_ramcfg.c **** /**
 541:STM32Cube_FW_N6/Drivers/STM32N6xx_HAL_Driver/Src/stm32n6xx_hal_ramcfg.c ****   * @brief  Get the RAMCFG single error address.
 542:STM32Cube_FW_N6/Drivers/STM32N6xx_HAL_Driver/Src/stm32n6xx_hal_ramcfg.c ****   * @param  hramcfg       : Pointer to a RAMCFG_HandleTypeDef structure that
 543:STM32Cube_FW_N6/Drivers/STM32N6xx_HAL_Driver/Src/stm32n6xx_hal_ramcfg.c ****   *                         contains the configuration information for the
 544:STM32Cube_FW_N6/Drivers/STM32N6xx_HAL_Driver/Src/stm32n6xx_hal_ramcfg.c ****   *                         specified RAMCFG instance.
 545:STM32Cube_FW_N6/Drivers/STM32N6xx_HAL_Driver/Src/stm32n6xx_hal_ramcfg.c ****   * @retval Single error address offset.
 546:STM32Cube_FW_N6/Drivers/STM32N6xx_HAL_Driver/Src/stm32n6xx_hal_ramcfg.c ****   */
 547:STM32Cube_FW_N6/Drivers/STM32N6xx_HAL_Driver/Src/stm32n6xx_hal_ramcfg.c **** uint32_t HAL_RAMCFG_GetSingleErrorAddress(const RAMCFG_HandleTypeDef *hramcfg)
 548:STM32Cube_FW_N6/Drivers/STM32N6xx_HAL_Driver/Src/stm32n6xx_hal_ramcfg.c **** {
 1015              		.loc 1 548 1 is_stmt 1 view -0
 1016              		.cfi_startproc
 1017              		@ args = 0, pretend = 0, frame = 0
 1018              		@ frame_needed = 0, uses_anonymous_args = 0
 549:STM32Cube_FW_N6/Drivers/STM32N6xx_HAL_Driver/Src/stm32n6xx_hal_ramcfg.c ****   /* Check the parameters */
 550:STM32Cube_FW_N6/Drivers/STM32N6xx_HAL_Driver/Src/stm32n6xx_hal_ramcfg.c ****   assert_param(IS_RAMCFG_ECC_INSTANCE(hramcfg->Instance));
 1019              		.loc 1 550 3 view .LVU271
 1020 0000 0368     		ldr	r3, [r0]
 1021 0002 0D4A     		ldr	r2, .L58
 548:STM32Cube_FW_N6/Drivers/STM32N6xx_HAL_Driver/Src/stm32n6xx_hal_ramcfg.c ****   /* Check the parameters */
 1022              		.loc 1 548 1 is_stmt 0 view .LVU272
 1023 0004 10B5     		push	{r4, lr}
 1024              		.cfi_def_cfa_offset 8
 1025              		.cfi_offset 4, -8
 1026              		.cfi_offset 14, -4
 1027              		.loc 1 550 3 view .LVU273
 1028 0006 9342     		cmp	r3, r2
 548:STM32Cube_FW_N6/Drivers/STM32N6xx_HAL_Driver/Src/stm32n6xx_hal_ramcfg.c ****   /* Check the parameters */
 1029              		.loc 1 548 1 view .LVU274
 1030 0008 0446     		mov	r4, r0
 1031              		.loc 1 550 3 view .LVU275
 1032 000a 11D0     		beq	.L57
 1033              		.loc 1 550 3 discriminator 1 view .LVU276
 1034 000c 02F17042 		add	r2, r2, #-268435456
 1035 0010 9342     		cmp	r3, r2
 1036 0012 0DD0     		beq	.L57
 1037              		.loc 1 550 3 discriminator 2 view .LVU277
 1038 0014 02F18052 		add	r2, r2, #268435456
 1039 0018 8032     		adds	r2, r2, #128
 1040 001a 9342     		cmp	r3, r2
ARM GAS  C:\Users\DJESSOU\AppData\Local\Temp\ccLWLfBx.s 			page 31


 1041 001c 08D0     		beq	.L57
 1042              		.loc 1 550 3 discriminator 3 view .LVU278
 1043 001e 02F17042 		add	r2, r2, #-268435456
 1044 0022 9342     		cmp	r3, r2
 1045 0024 04D0     		beq	.L57
 1046              		.loc 1 550 3 discriminator 4 view .LVU279
 1047 0026 40F22621 		movw	r1, #550
 1048 002a 0448     		ldr	r0, .L58+4
 1049              	.LVL50:
 1050              		.loc 1 550 3 discriminator 4 view .LVU280
 1051 002c FFF7FEFF 		bl	assert_failed
 1052              	.LVL51:
 1053              	.L57:
 551:STM32Cube_FW_N6/Drivers/STM32N6xx_HAL_Driver/Src/stm32n6xx_hal_ramcfg.c **** 
 552:STM32Cube_FW_N6/Drivers/STM32N6xx_HAL_Driver/Src/stm32n6xx_hal_ramcfg.c ****   return hramcfg->Instance->ESEAR;
 1054              		.loc 1 552 3 is_stmt 1 view .LVU281
 1055              		.loc 1 552 17 is_stmt 0 view .LVU282
 1056 0030 2368     		ldr	r3, [r4]
 1057              		.loc 1 552 27 view .LVU283
 1058 0032 D868     		ldr	r0, [r3, #12]
 553:STM32Cube_FW_N6/Drivers/STM32N6xx_HAL_Driver/Src/stm32n6xx_hal_ramcfg.c **** }
 1059              		.loc 1 553 1 view .LVU284
 1060 0034 10BD     		pop	{r4, pc}
 1061              	.LVL52:
 1062              	.L59:
 1063              		.loc 1 553 1 view .LVU285
 1064 0036 00BF     		.align	2
 1065              	.L58:
 1066 0038 80340252 		.word	1375876224
 1067 003c 00000000 		.word	.LC0
 1068              		.cfi_endproc
 1069              	.LFE872:
 1071              		.section	.text.HAL_RAMCFG_GetDoubleErrorAddress,"ax",%progbits
 1072              		.align	1
 1073              		.global	HAL_RAMCFG_GetDoubleErrorAddress
 1074              		.syntax unified
 1075              		.thumb
 1076              		.thumb_func
 1078              	HAL_RAMCFG_GetDoubleErrorAddress:
 1079              	.LVL53:
 1080              	.LFB873:
 554:STM32Cube_FW_N6/Drivers/STM32N6xx_HAL_Driver/Src/stm32n6xx_hal_ramcfg.c **** 
 555:STM32Cube_FW_N6/Drivers/STM32N6xx_HAL_Driver/Src/stm32n6xx_hal_ramcfg.c **** /**
 556:STM32Cube_FW_N6/Drivers/STM32N6xx_HAL_Driver/Src/stm32n6xx_hal_ramcfg.c ****   * @brief  Get the RAMCFG double error address.
 557:STM32Cube_FW_N6/Drivers/STM32N6xx_HAL_Driver/Src/stm32n6xx_hal_ramcfg.c ****   * @param  hramcfg       : Pointer to a RAMCFG_HandleTypeDef structure that
 558:STM32Cube_FW_N6/Drivers/STM32N6xx_HAL_Driver/Src/stm32n6xx_hal_ramcfg.c ****   *                         contains the configuration information for the
 559:STM32Cube_FW_N6/Drivers/STM32N6xx_HAL_Driver/Src/stm32n6xx_hal_ramcfg.c ****   *                         specified RAMCFG instance.
 560:STM32Cube_FW_N6/Drivers/STM32N6xx_HAL_Driver/Src/stm32n6xx_hal_ramcfg.c ****   * @retval Double error address offset.
 561:STM32Cube_FW_N6/Drivers/STM32N6xx_HAL_Driver/Src/stm32n6xx_hal_ramcfg.c ****   */
 562:STM32Cube_FW_N6/Drivers/STM32N6xx_HAL_Driver/Src/stm32n6xx_hal_ramcfg.c **** uint32_t HAL_RAMCFG_GetDoubleErrorAddress(const RAMCFG_HandleTypeDef *hramcfg)
 563:STM32Cube_FW_N6/Drivers/STM32N6xx_HAL_Driver/Src/stm32n6xx_hal_ramcfg.c **** {
 1081              		.loc 1 563 1 is_stmt 1 view -0
 1082              		.cfi_startproc
 1083              		@ args = 0, pretend = 0, frame = 0
 1084              		@ frame_needed = 0, uses_anonymous_args = 0
 564:STM32Cube_FW_N6/Drivers/STM32N6xx_HAL_Driver/Src/stm32n6xx_hal_ramcfg.c ****   /* Check the parameters */
 565:STM32Cube_FW_N6/Drivers/STM32N6xx_HAL_Driver/Src/stm32n6xx_hal_ramcfg.c ****   assert_param(IS_RAMCFG_ECC_INSTANCE(hramcfg->Instance));
ARM GAS  C:\Users\DJESSOU\AppData\Local\Temp\ccLWLfBx.s 			page 32


 1085              		.loc 1 565 3 view .LVU287
 1086 0000 0368     		ldr	r3, [r0]
 1087 0002 0D4A     		ldr	r2, .L62
 563:STM32Cube_FW_N6/Drivers/STM32N6xx_HAL_Driver/Src/stm32n6xx_hal_ramcfg.c ****   /* Check the parameters */
 1088              		.loc 1 563 1 is_stmt 0 view .LVU288
 1089 0004 10B5     		push	{r4, lr}
 1090              		.cfi_def_cfa_offset 8
 1091              		.cfi_offset 4, -8
 1092              		.cfi_offset 14, -4
 1093              		.loc 1 565 3 view .LVU289
 1094 0006 9342     		cmp	r3, r2
 563:STM32Cube_FW_N6/Drivers/STM32N6xx_HAL_Driver/Src/stm32n6xx_hal_ramcfg.c ****   /* Check the parameters */
 1095              		.loc 1 563 1 view .LVU290
 1096 0008 0446     		mov	r4, r0
 1097              		.loc 1 565 3 view .LVU291
 1098 000a 11D0     		beq	.L61
 1099              		.loc 1 565 3 discriminator 1 view .LVU292
 1100 000c 02F17042 		add	r2, r2, #-268435456
 1101 0010 9342     		cmp	r3, r2
 1102 0012 0DD0     		beq	.L61
 1103              		.loc 1 565 3 discriminator 2 view .LVU293
 1104 0014 02F18052 		add	r2, r2, #268435456
 1105 0018 8032     		adds	r2, r2, #128
 1106 001a 9342     		cmp	r3, r2
 1107 001c 08D0     		beq	.L61
 1108              		.loc 1 565 3 discriminator 3 view .LVU294
 1109 001e 02F17042 		add	r2, r2, #-268435456
 1110 0022 9342     		cmp	r3, r2
 1111 0024 04D0     		beq	.L61
 1112              		.loc 1 565 3 discriminator 4 view .LVU295
 1113 0026 40F23521 		movw	r1, #565
 1114 002a 0448     		ldr	r0, .L62+4
 1115              	.LVL54:
 1116              		.loc 1 565 3 discriminator 4 view .LVU296
 1117 002c FFF7FEFF 		bl	assert_failed
 1118              	.LVL55:
 1119              	.L61:
 566:STM32Cube_FW_N6/Drivers/STM32N6xx_HAL_Driver/Src/stm32n6xx_hal_ramcfg.c **** 
 567:STM32Cube_FW_N6/Drivers/STM32N6xx_HAL_Driver/Src/stm32n6xx_hal_ramcfg.c ****   return hramcfg->Instance->EDEAR;
 1120              		.loc 1 567 3 is_stmt 1 view .LVU297
 1121              		.loc 1 567 17 is_stmt 0 view .LVU298
 1122 0030 2368     		ldr	r3, [r4]
 1123              		.loc 1 567 27 view .LVU299
 1124 0032 1869     		ldr	r0, [r3, #16]
 568:STM32Cube_FW_N6/Drivers/STM32N6xx_HAL_Driver/Src/stm32n6xx_hal_ramcfg.c **** }
 1125              		.loc 1 568 1 view .LVU300
 1126 0034 10BD     		pop	{r4, pc}
 1127              	.LVL56:
 1128              	.L63:
 1129              		.loc 1 568 1 view .LVU301
 1130 0036 00BF     		.align	2
 1131              	.L62:
 1132 0038 80340252 		.word	1375876224
 1133 003c 00000000 		.word	.LC0
 1134              		.cfi_endproc
 1135              	.LFE873:
 1137              		.section	.text.HAL_RAMCFG_Erase,"ax",%progbits
ARM GAS  C:\Users\DJESSOU\AppData\Local\Temp\ccLWLfBx.s 			page 33


 1138              		.align	1
 1139              		.global	HAL_RAMCFG_Erase
 1140              		.syntax unified
 1141              		.thumb
 1142              		.thumb_func
 1144              	HAL_RAMCFG_Erase:
 1145              	.LVL57:
 1146              	.LFB874:
 569:STM32Cube_FW_N6/Drivers/STM32N6xx_HAL_Driver/Src/stm32n6xx_hal_ramcfg.c **** 
 570:STM32Cube_FW_N6/Drivers/STM32N6xx_HAL_Driver/Src/stm32n6xx_hal_ramcfg.c **** /**
 571:STM32Cube_FW_N6/Drivers/STM32N6xx_HAL_Driver/Src/stm32n6xx_hal_ramcfg.c ****   * @}
 572:STM32Cube_FW_N6/Drivers/STM32N6xx_HAL_Driver/Src/stm32n6xx_hal_ramcfg.c ****   */
 573:STM32Cube_FW_N6/Drivers/STM32N6xx_HAL_Driver/Src/stm32n6xx_hal_ramcfg.c **** 
 574:STM32Cube_FW_N6/Drivers/STM32N6xx_HAL_Driver/Src/stm32n6xx_hal_ramcfg.c **** /** @addtogroup RAMCFG_Exported_Functions_Group5
 575:STM32Cube_FW_N6/Drivers/STM32N6xx_HAL_Driver/Src/stm32n6xx_hal_ramcfg.c ****   *
 576:STM32Cube_FW_N6/Drivers/STM32N6xx_HAL_Driver/Src/stm32n6xx_hal_ramcfg.c **** @verbatim
 577:STM32Cube_FW_N6/Drivers/STM32N6xx_HAL_Driver/Src/stm32n6xx_hal_ramcfg.c ****  ===============================================================================
 578:STM32Cube_FW_N6/Drivers/STM32N6xx_HAL_Driver/Src/stm32n6xx_hal_ramcfg.c ****                       ##### Erase Operation Functions  #####
 579:STM32Cube_FW_N6/Drivers/STM32N6xx_HAL_Driver/Src/stm32n6xx_hal_ramcfg.c ****  ===============================================================================
 580:STM32Cube_FW_N6/Drivers/STM32N6xx_HAL_Driver/Src/stm32n6xx_hal_ramcfg.c ****     [..]
 581:STM32Cube_FW_N6/Drivers/STM32N6xx_HAL_Driver/Src/stm32n6xx_hal_ramcfg.c ****       This section provides functions allowing a hardware erase for the given SRAM.
 582:STM32Cube_FW_N6/Drivers/STM32N6xx_HAL_Driver/Src/stm32n6xx_hal_ramcfg.c ****     [..]
 583:STM32Cube_FW_N6/Drivers/STM32N6xx_HAL_Driver/Src/stm32n6xx_hal_ramcfg.c ****       The HAL_RAMCFG_Erase() function allows a hardware mass erase for the given
 584:STM32Cube_FW_N6/Drivers/STM32N6xx_HAL_Driver/Src/stm32n6xx_hal_ramcfg.c ****       SRAM. The erase value for all SRAMs is 0.
 585:STM32Cube_FW_N6/Drivers/STM32N6xx_HAL_Driver/Src/stm32n6xx_hal_ramcfg.c **** 
 586:STM32Cube_FW_N6/Drivers/STM32N6xx_HAL_Driver/Src/stm32n6xx_hal_ramcfg.c **** @endverbatim
 587:STM32Cube_FW_N6/Drivers/STM32N6xx_HAL_Driver/Src/stm32n6xx_hal_ramcfg.c ****   * @{
 588:STM32Cube_FW_N6/Drivers/STM32N6xx_HAL_Driver/Src/stm32n6xx_hal_ramcfg.c ****   */
 589:STM32Cube_FW_N6/Drivers/STM32N6xx_HAL_Driver/Src/stm32n6xx_hal_ramcfg.c **** 
 590:STM32Cube_FW_N6/Drivers/STM32N6xx_HAL_Driver/Src/stm32n6xx_hal_ramcfg.c **** /**
 591:STM32Cube_FW_N6/Drivers/STM32N6xx_HAL_Driver/Src/stm32n6xx_hal_ramcfg.c ****   * @brief  Launch a Mass Erase for the given SRAM.
 592:STM32Cube_FW_N6/Drivers/STM32N6xx_HAL_Driver/Src/stm32n6xx_hal_ramcfg.c ****   * @param  hramcfg       : Pointer to a RAMCFG_HandleTypeDef structure that
 593:STM32Cube_FW_N6/Drivers/STM32N6xx_HAL_Driver/Src/stm32n6xx_hal_ramcfg.c ****   *                         contains the configuration information for the
 594:STM32Cube_FW_N6/Drivers/STM32N6xx_HAL_Driver/Src/stm32n6xx_hal_ramcfg.c ****   *                         specified RAMCFG instance.
 595:STM32Cube_FW_N6/Drivers/STM32N6xx_HAL_Driver/Src/stm32n6xx_hal_ramcfg.c **** 
 596:STM32Cube_FW_N6/Drivers/STM32N6xx_HAL_Driver/Src/stm32n6xx_hal_ramcfg.c ****   * @retval HAL status.
 597:STM32Cube_FW_N6/Drivers/STM32N6xx_HAL_Driver/Src/stm32n6xx_hal_ramcfg.c ****   */
 598:STM32Cube_FW_N6/Drivers/STM32N6xx_HAL_Driver/Src/stm32n6xx_hal_ramcfg.c **** HAL_StatusTypeDef HAL_RAMCFG_Erase(RAMCFG_HandleTypeDef *hramcfg)
 599:STM32Cube_FW_N6/Drivers/STM32N6xx_HAL_Driver/Src/stm32n6xx_hal_ramcfg.c **** {
 1147              		.loc 1 599 1 is_stmt 1 view -0
 1148              		.cfi_startproc
 1149              		@ args = 0, pretend = 0, frame = 0
 1150              		@ frame_needed = 0, uses_anonymous_args = 0
 600:STM32Cube_FW_N6/Drivers/STM32N6xx_HAL_Driver/Src/stm32n6xx_hal_ramcfg.c ****   uint32_t tickstart = HAL_GetTick();
 1151              		.loc 1 600 3 view .LVU303
 599:STM32Cube_FW_N6/Drivers/STM32N6xx_HAL_Driver/Src/stm32n6xx_hal_ramcfg.c ****   uint32_t tickstart = HAL_GetTick();
 1152              		.loc 1 599 1 is_stmt 0 view .LVU304
 1153 0000 70B5     		push	{r4, r5, r6, lr}
 1154              		.cfi_def_cfa_offset 16
 1155              		.cfi_offset 4, -16
 1156              		.cfi_offset 5, -12
 1157              		.cfi_offset 6, -8
 1158              		.cfi_offset 14, -4
 599:STM32Cube_FW_N6/Drivers/STM32N6xx_HAL_Driver/Src/stm32n6xx_hal_ramcfg.c ****   uint32_t tickstart = HAL_GetTick();
 1159              		.loc 1 599 1 view .LVU305
 1160 0002 0446     		mov	r4, r0
 1161              		.loc 1 600 24 view .LVU306
ARM GAS  C:\Users\DJESSOU\AppData\Local\Temp\ccLWLfBx.s 			page 34


 1162 0004 FFF7FEFF 		bl	HAL_GetTick
 1163              	.LVL58:
 601:STM32Cube_FW_N6/Drivers/STM32N6xx_HAL_Driver/Src/stm32n6xx_hal_ramcfg.c **** 
 602:STM32Cube_FW_N6/Drivers/STM32N6xx_HAL_Driver/Src/stm32n6xx_hal_ramcfg.c ****   /* Check the parameters */
 603:STM32Cube_FW_N6/Drivers/STM32N6xx_HAL_Driver/Src/stm32n6xx_hal_ramcfg.c ****   assert_param(IS_RAMCFG_ALL_INSTANCE(hramcfg->Instance));
 1164              		.loc 1 603 3 view .LVU307
 1165 0008 2368     		ldr	r3, [r4]
 1166 000a 434A     		ldr	r2, .L72
 600:STM32Cube_FW_N6/Drivers/STM32N6xx_HAL_Driver/Src/stm32n6xx_hal_ramcfg.c **** 
 1167              		.loc 1 600 24 view .LVU308
 1168 000c 0546     		mov	r5, r0
 1169              	.LVL59:
 1170              		.loc 1 603 3 is_stmt 1 view .LVU309
 1171 000e 9342     		cmp	r3, r2
 1172 0010 5CD0     		beq	.L65
 1173              		.loc 1 603 3 is_stmt 0 discriminator 1 view .LVU310
 1174 0012 02F17042 		add	r2, r2, #-268435456
 1175 0016 9342     		cmp	r3, r2
 1176 0018 58D0     		beq	.L65
 1177              		.loc 1 603 3 discriminator 2 view .LVU311
 1178 001a 02F18052 		add	r2, r2, #268435456
 1179 001e 8032     		adds	r2, r2, #128
 1180 0020 9342     		cmp	r3, r2
 1181 0022 53D0     		beq	.L65
 1182              		.loc 1 603 3 discriminator 3 view .LVU312
 1183 0024 02F17042 		add	r2, r2, #-268435456
 1184 0028 9342     		cmp	r3, r2
 1185 002a 4FD0     		beq	.L65
 1186              		.loc 1 603 3 discriminator 4 view .LVU313
 1187 002c 3B4A     		ldr	r2, .L72+4
 1188 002e 9342     		cmp	r3, r2
 1189 0030 4CD0     		beq	.L65
 1190              		.loc 1 603 3 discriminator 5 view .LVU314
 1191 0032 02F17042 		add	r2, r2, #-268435456
 1192 0036 9342     		cmp	r3, r2
 1193 0038 48D0     		beq	.L65
 1194              		.loc 1 603 3 discriminator 6 view .LVU315
 1195 003a 02F18052 		add	r2, r2, #268435456
 1196 003e 8032     		adds	r2, r2, #128
 1197 0040 9342     		cmp	r3, r2
 1198 0042 43D0     		beq	.L65
 1199              		.loc 1 603 3 discriminator 7 view .LVU316
 1200 0044 02F17042 		add	r2, r2, #-268435456
 1201 0048 9342     		cmp	r3, r2
 1202 004a 3FD0     		beq	.L65
 1203              		.loc 1 603 3 discriminator 8 view .LVU317
 1204 004c 02F18052 		add	r2, r2, #268435456
 1205 0050 8032     		adds	r2, r2, #128
 1206 0052 9342     		cmp	r3, r2
 1207 0054 3AD0     		beq	.L65
 1208              		.loc 1 603 3 discriminator 9 view .LVU318
 1209 0056 02F17042 		add	r2, r2, #-268435456
 1210 005a 9342     		cmp	r3, r2
 1211 005c 36D0     		beq	.L65
 1212              		.loc 1 603 3 discriminator 10 view .LVU319
 1213 005e 02F18052 		add	r2, r2, #268435456
 1214 0062 8032     		adds	r2, r2, #128
ARM GAS  C:\Users\DJESSOU\AppData\Local\Temp\ccLWLfBx.s 			page 35


 1215 0064 9342     		cmp	r3, r2
 1216 0066 31D0     		beq	.L65
 1217              		.loc 1 603 3 discriminator 11 view .LVU320
 1218 0068 02F17042 		add	r2, r2, #-268435456
 1219 006c 9342     		cmp	r3, r2
 1220 006e 2DD0     		beq	.L65
 1221              		.loc 1 603 3 discriminator 12 view .LVU321
 1222 0070 02F18052 		add	r2, r2, #268435456
 1223 0074 8032     		adds	r2, r2, #128
 1224 0076 9342     		cmp	r3, r2
 1225 0078 28D0     		beq	.L65
 1226              		.loc 1 603 3 discriminator 13 view .LVU322
 1227 007a 02F17042 		add	r2, r2, #-268435456
 1228 007e 9342     		cmp	r3, r2
 1229 0080 24D0     		beq	.L65
 1230              		.loc 1 603 3 discriminator 14 view .LVU323
 1231 0082 02F18052 		add	r2, r2, #268435456
 1232 0086 8032     		adds	r2, r2, #128
 1233 0088 9342     		cmp	r3, r2
 1234 008a 1FD0     		beq	.L65
 1235              		.loc 1 603 3 discriminator 15 view .LVU324
 1236 008c 02F17042 		add	r2, r2, #-268435456
 1237 0090 9342     		cmp	r3, r2
 1238 0092 1BD0     		beq	.L65
 1239              		.loc 1 603 3 discriminator 16 view .LVU325
 1240 0094 02F18052 		add	r2, r2, #268435456
 1241 0098 02F50072 		add	r2, r2, #512
 1242 009c 9342     		cmp	r3, r2
 1243 009e 15D0     		beq	.L65
 1244              		.loc 1 603 3 discriminator 17 view .LVU326
 1245 00a0 02F17042 		add	r2, r2, #-268435456
 1246 00a4 9342     		cmp	r3, r2
 1247 00a6 11D0     		beq	.L65
 1248              		.loc 1 603 3 discriminator 18 view .LVU327
 1249 00a8 02F18052 		add	r2, r2, #268435456
 1250 00ac 8032     		adds	r2, r2, #128
 1251 00ae 9342     		cmp	r3, r2
 1252 00b0 0CD0     		beq	.L65
 1253              		.loc 1 603 3 discriminator 19 view .LVU328
 1254 00b2 02F17042 		add	r2, r2, #-268435456
 1255 00b6 9342     		cmp	r3, r2
 1256 00b8 08D0     		beq	.L65
 1257              		.loc 1 603 3 discriminator 20 view .LVU329
 1258 00ba A2F58072 		sub	r2, r2, #256
 1259 00be 9342     		cmp	r3, r2
 1260 00c0 04D0     		beq	.L65
 1261              		.loc 1 603 3 discriminator 22 view .LVU330
 1262 00c2 40F25B21 		movw	r1, #603
 1263 00c6 1648     		ldr	r0, .L72+8
 1264              	.LVL60:
 1265              		.loc 1 603 3 discriminator 22 view .LVU331
 1266 00c8 FFF7FEFF 		bl	assert_failed
 1267              	.LVL61:
 1268              	.L65:
 604:STM32Cube_FW_N6/Drivers/STM32N6xx_HAL_Driver/Src/stm32n6xx_hal_ramcfg.c **** 
 605:STM32Cube_FW_N6/Drivers/STM32N6xx_HAL_Driver/Src/stm32n6xx_hal_ramcfg.c ****   /* Check RAMCFG state */
 606:STM32Cube_FW_N6/Drivers/STM32N6xx_HAL_Driver/Src/stm32n6xx_hal_ramcfg.c ****   if (hramcfg->State == HAL_RAMCFG_STATE_READY)
ARM GAS  C:\Users\DJESSOU\AppData\Local\Temp\ccLWLfBx.s 			page 36


 1269              		.loc 1 606 3 is_stmt 1 view .LVU332
 1270              		.loc 1 606 14 is_stmt 0 view .LVU333
 1271 00cc 2379     		ldrb	r3, [r4, #4]	@ zero_extendqisi2
 1272              		.loc 1 606 6 view .LVU334
 1273 00ce 012B     		cmp	r3, #1
 1274 00d0 4FF00203 		mov	r3, #2
 1275 00d4 1ED1     		bne	.L66
 607:STM32Cube_FW_N6/Drivers/STM32N6xx_HAL_Driver/Src/stm32n6xx_hal_ramcfg.c ****   {
 608:STM32Cube_FW_N6/Drivers/STM32N6xx_HAL_Driver/Src/stm32n6xx_hal_ramcfg.c ****     /* Update RAMCFG peripheral state */
 609:STM32Cube_FW_N6/Drivers/STM32N6xx_HAL_Driver/Src/stm32n6xx_hal_ramcfg.c ****     hramcfg->State = HAL_RAMCFG_STATE_BUSY;
 1276              		.loc 1 609 5 is_stmt 1 view .LVU335
 610:STM32Cube_FW_N6/Drivers/STM32N6xx_HAL_Driver/Src/stm32n6xx_hal_ramcfg.c **** 
 611:STM32Cube_FW_N6/Drivers/STM32N6xx_HAL_Driver/Src/stm32n6xx_hal_ramcfg.c ****     /* Unlock the RAMCFG erase bit */
 612:STM32Cube_FW_N6/Drivers/STM32N6xx_HAL_Driver/Src/stm32n6xx_hal_ramcfg.c ****     WRITE_REG(hramcfg->Instance->ERKEYR, RAMCFG_ERASE_KEY1);
 1277              		.loc 1 612 5 is_stmt 0 view .LVU336
 1278 00d6 CA22     		movs	r2, #202
 609:STM32Cube_FW_N6/Drivers/STM32N6xx_HAL_Driver/Src/stm32n6xx_hal_ramcfg.c **** 
 1279              		.loc 1 609 20 view .LVU337
 1280 00d8 2371     		strb	r3, [r4, #4]
 1281              		.loc 1 612 5 is_stmt 1 view .LVU338
 1282 00da 2368     		ldr	r3, [r4]
 613:STM32Cube_FW_N6/Drivers/STM32N6xx_HAL_Driver/Src/stm32n6xx_hal_ramcfg.c ****     WRITE_REG(hramcfg->Instance->ERKEYR, RAMCFG_ERASE_KEY2);
 614:STM32Cube_FW_N6/Drivers/STM32N6xx_HAL_Driver/Src/stm32n6xx_hal_ramcfg.c **** 
 615:STM32Cube_FW_N6/Drivers/STM32N6xx_HAL_Driver/Src/stm32n6xx_hal_ramcfg.c ****     /* Start the SRAM erase operation */
 616:STM32Cube_FW_N6/Drivers/STM32N6xx_HAL_Driver/Src/stm32n6xx_hal_ramcfg.c ****     hramcfg->Instance->CR |= RAMCFG_CR_SRAMER;
 617:STM32Cube_FW_N6/Drivers/STM32N6xx_HAL_Driver/Src/stm32n6xx_hal_ramcfg.c **** 
 618:STM32Cube_FW_N6/Drivers/STM32N6xx_HAL_Driver/Src/stm32n6xx_hal_ramcfg.c ****     /*
 619:STM32Cube_FW_N6/Drivers/STM32N6xx_HAL_Driver/Src/stm32n6xx_hal_ramcfg.c ****        Wait for the SRAM hardware erase operation to complete by polling on
 620:STM32Cube_FW_N6/Drivers/STM32N6xx_HAL_Driver/Src/stm32n6xx_hal_ramcfg.c ****        SRAMBUSY flag to be reset.
 621:STM32Cube_FW_N6/Drivers/STM32N6xx_HAL_Driver/Src/stm32n6xx_hal_ramcfg.c ****     */
 622:STM32Cube_FW_N6/Drivers/STM32N6xx_HAL_Driver/Src/stm32n6xx_hal_ramcfg.c ****     while (__HAL_RAMCFG_GET_FLAG(hramcfg, RAMCFG_FLAG_SRAMBUSY) != 0U)
 623:STM32Cube_FW_N6/Drivers/STM32N6xx_HAL_Driver/Src/stm32n6xx_hal_ramcfg.c ****     {
 624:STM32Cube_FW_N6/Drivers/STM32N6xx_HAL_Driver/Src/stm32n6xx_hal_ramcfg.c ****       if ((HAL_GetTick() - tickstart) > RAMCFG_TIMEOUT_VALUE)
 1283              		.loc 1 624 10 is_stmt 0 discriminator 1 view .LVU339
 1284 00dc 4CF25036 		movw	r6, #50000
 612:STM32Cube_FW_N6/Drivers/STM32N6xx_HAL_Driver/Src/stm32n6xx_hal_ramcfg.c ****     WRITE_REG(hramcfg->Instance->ERKEYR, RAMCFG_ERASE_KEY2);
 1285              		.loc 1 612 5 view .LVU340
 1286 00e0 9A62     		str	r2, [r3, #40]
 613:STM32Cube_FW_N6/Drivers/STM32N6xx_HAL_Driver/Src/stm32n6xx_hal_ramcfg.c ****     WRITE_REG(hramcfg->Instance->ERKEYR, RAMCFG_ERASE_KEY2);
 1287              		.loc 1 613 5 is_stmt 1 view .LVU341
 1288 00e2 5322     		movs	r2, #83
 1289 00e4 9A62     		str	r2, [r3, #40]
 616:STM32Cube_FW_N6/Drivers/STM32N6xx_HAL_Driver/Src/stm32n6xx_hal_ramcfg.c **** 
 1290              		.loc 1 616 5 view .LVU342
 616:STM32Cube_FW_N6/Drivers/STM32N6xx_HAL_Driver/Src/stm32n6xx_hal_ramcfg.c **** 
 1291              		.loc 1 616 22 is_stmt 0 view .LVU343
 1292 00e6 1A68     		ldr	r2, [r3]
 616:STM32Cube_FW_N6/Drivers/STM32N6xx_HAL_Driver/Src/stm32n6xx_hal_ramcfg.c **** 
 1293              		.loc 1 616 27 view .LVU344
 1294 00e8 42F48072 		orr	r2, r2, #256
 1295 00ec 1A60     		str	r2, [r3]
 622:STM32Cube_FW_N6/Drivers/STM32N6xx_HAL_Driver/Src/stm32n6xx_hal_ramcfg.c ****     {
 1296              		.loc 1 622 5 is_stmt 1 view .LVU345
 1297              	.L67:
 622:STM32Cube_FW_N6/Drivers/STM32N6xx_HAL_Driver/Src/stm32n6xx_hal_ramcfg.c ****     {
 1298              		.loc 1 622 65 view .LVU346
 622:STM32Cube_FW_N6/Drivers/STM32N6xx_HAL_Driver/Src/stm32n6xx_hal_ramcfg.c ****     {
ARM GAS  C:\Users\DJESSOU\AppData\Local\Temp\ccLWLfBx.s 			page 37


 1299              		.loc 1 622 12 is_stmt 0 view .LVU347
 1300 00ee 2368     		ldr	r3, [r4]
 1301 00f0 9868     		ldr	r0, [r3, #8]
 622:STM32Cube_FW_N6/Drivers/STM32N6xx_HAL_Driver/Src/stm32n6xx_hal_ramcfg.c ****     {
 1302              		.loc 1 622 65 view .LVU348
 1303 00f2 10F48070 		ands	r0, r0, #256
 1304 00f6 0AD0     		beq	.L69
 1305              		.loc 1 624 7 is_stmt 1 view .LVU349
 1306              		.loc 1 624 12 is_stmt 0 view .LVU350
 1307 00f8 FFF7FEFF 		bl	HAL_GetTick
 1308              	.LVL62:
 1309              		.loc 1 624 26 discriminator 1 view .LVU351
 1310 00fc 431B     		subs	r3, r0, r5
 1311              		.loc 1 624 10 discriminator 1 view .LVU352
 1312 00fe B342     		cmp	r3, r6
 1313 0100 F5D9     		bls	.L67
 625:STM32Cube_FW_N6/Drivers/STM32N6xx_HAL_Driver/Src/stm32n6xx_hal_ramcfg.c ****       {
 626:STM32Cube_FW_N6/Drivers/STM32N6xx_HAL_Driver/Src/stm32n6xx_hal_ramcfg.c ****         /* Update the RAMCFG error code */
 627:STM32Cube_FW_N6/Drivers/STM32N6xx_HAL_Driver/Src/stm32n6xx_hal_ramcfg.c ****         hramcfg->ErrorCode = HAL_RAMCFG_ERROR_TIMEOUT;
 1314              		.loc 1 627 9 is_stmt 1 view .LVU353
 1315              		.loc 1 627 28 is_stmt 0 view .LVU354
 1316 0102 0123     		movs	r3, #1
 1317 0104 A360     		str	r3, [r4, #8]
 628:STM32Cube_FW_N6/Drivers/STM32N6xx_HAL_Driver/Src/stm32n6xx_hal_ramcfg.c **** 
 629:STM32Cube_FW_N6/Drivers/STM32N6xx_HAL_Driver/Src/stm32n6xx_hal_ramcfg.c ****         /* Update the RAMCFG state and return error status */
 630:STM32Cube_FW_N6/Drivers/STM32N6xx_HAL_Driver/Src/stm32n6xx_hal_ramcfg.c ****         hramcfg->State = HAL_RAMCFG_STATE_ERROR;
 1318              		.loc 1 630 9 is_stmt 1 view .LVU355
 1319              		.loc 1 630 24 is_stmt 0 view .LVU356
 1320 0106 0323     		movs	r3, #3
 1321 0108 2371     		strb	r3, [r4, #4]
 631:STM32Cube_FW_N6/Drivers/STM32N6xx_HAL_Driver/Src/stm32n6xx_hal_ramcfg.c ****         return HAL_ERROR;
 1322              		.loc 1 631 9 is_stmt 1 view .LVU357
 1323              	.L68:
 1324              		.loc 1 631 16 is_stmt 0 view .LVU358
 1325 010a 0120     		movs	r0, #1
 1326 010c 01E0     		b	.L71
 1327              	.L69:
 632:STM32Cube_FW_N6/Drivers/STM32N6xx_HAL_Driver/Src/stm32n6xx_hal_ramcfg.c ****       }
 633:STM32Cube_FW_N6/Drivers/STM32N6xx_HAL_Driver/Src/stm32n6xx_hal_ramcfg.c ****     }
 634:STM32Cube_FW_N6/Drivers/STM32N6xx_HAL_Driver/Src/stm32n6xx_hal_ramcfg.c ****   }
 635:STM32Cube_FW_N6/Drivers/STM32N6xx_HAL_Driver/Src/stm32n6xx_hal_ramcfg.c ****   else
 636:STM32Cube_FW_N6/Drivers/STM32N6xx_HAL_Driver/Src/stm32n6xx_hal_ramcfg.c ****   {
 637:STM32Cube_FW_N6/Drivers/STM32N6xx_HAL_Driver/Src/stm32n6xx_hal_ramcfg.c ****     /* Update the error code and return error status */
 638:STM32Cube_FW_N6/Drivers/STM32N6xx_HAL_Driver/Src/stm32n6xx_hal_ramcfg.c ****     hramcfg->ErrorCode = HAL_RAMCFG_ERROR_BUSY;
 639:STM32Cube_FW_N6/Drivers/STM32N6xx_HAL_Driver/Src/stm32n6xx_hal_ramcfg.c ****     return HAL_ERROR;
 640:STM32Cube_FW_N6/Drivers/STM32N6xx_HAL_Driver/Src/stm32n6xx_hal_ramcfg.c ****   }
 641:STM32Cube_FW_N6/Drivers/STM32N6xx_HAL_Driver/Src/stm32n6xx_hal_ramcfg.c **** 
 642:STM32Cube_FW_N6/Drivers/STM32N6xx_HAL_Driver/Src/stm32n6xx_hal_ramcfg.c ****   /* Update the RAMCFG state */
 643:STM32Cube_FW_N6/Drivers/STM32N6xx_HAL_Driver/Src/stm32n6xx_hal_ramcfg.c ****   hramcfg->State = HAL_RAMCFG_STATE_READY;
 1328              		.loc 1 643 3 is_stmt 1 view .LVU359
 1329              		.loc 1 643 18 is_stmt 0 view .LVU360
 1330 010e 0123     		movs	r3, #1
 1331 0110 2371     		strb	r3, [r4, #4]
 644:STM32Cube_FW_N6/Drivers/STM32N6xx_HAL_Driver/Src/stm32n6xx_hal_ramcfg.c **** 
 645:STM32Cube_FW_N6/Drivers/STM32N6xx_HAL_Driver/Src/stm32n6xx_hal_ramcfg.c ****   return HAL_OK;
 1332              		.loc 1 645 3 is_stmt 1 view .LVU361
 1333              	.L71:
ARM GAS  C:\Users\DJESSOU\AppData\Local\Temp\ccLWLfBx.s 			page 38


 646:STM32Cube_FW_N6/Drivers/STM32N6xx_HAL_Driver/Src/stm32n6xx_hal_ramcfg.c **** }
 1334              		.loc 1 646 1 is_stmt 0 view .LVU362
 1335 0112 70BD     		pop	{r4, r5, r6, pc}
 1336              	.LVL63:
 1337              	.L66:
 638:STM32Cube_FW_N6/Drivers/STM32N6xx_HAL_Driver/Src/stm32n6xx_hal_ramcfg.c ****     return HAL_ERROR;
 1338              		.loc 1 638 5 is_stmt 1 view .LVU363
 638:STM32Cube_FW_N6/Drivers/STM32N6xx_HAL_Driver/Src/stm32n6xx_hal_ramcfg.c ****     return HAL_ERROR;
 1339              		.loc 1 638 24 is_stmt 0 view .LVU364
 1340 0114 A360     		str	r3, [r4, #8]
 639:STM32Cube_FW_N6/Drivers/STM32N6xx_HAL_Driver/Src/stm32n6xx_hal_ramcfg.c ****   }
 1341              		.loc 1 639 5 is_stmt 1 view .LVU365
 639:STM32Cube_FW_N6/Drivers/STM32N6xx_HAL_Driver/Src/stm32n6xx_hal_ramcfg.c ****   }
 1342              		.loc 1 639 12 is_stmt 0 view .LVU366
 1343 0116 F8E7     		b	.L68
 1344              	.L73:
 1345              		.align	2
 1346              	.L72:
 1347 0118 00330252 		.word	1375875840
 1348 011c 00300252 		.word	1375875072
 1349 0120 00000000 		.word	.LC0
 1350              		.cfi_endproc
 1351              	.LFE874:
 1353              		.section	.text.HAL_RAMCFG_DetectSingleErrorCallback,"ax",%progbits
 1354              		.align	1
 1355              		.weak	HAL_RAMCFG_DetectSingleErrorCallback
 1356              		.syntax unified
 1357              		.thumb
 1358              		.thumb_func
 1360              	HAL_RAMCFG_DetectSingleErrorCallback:
 1361              	.LFB885:
 1362              		.cfi_startproc
 647:STM32Cube_FW_N6/Drivers/STM32N6xx_HAL_Driver/Src/stm32n6xx_hal_ramcfg.c **** 
 648:STM32Cube_FW_N6/Drivers/STM32N6xx_HAL_Driver/Src/stm32n6xx_hal_ramcfg.c **** /**
 649:STM32Cube_FW_N6/Drivers/STM32N6xx_HAL_Driver/Src/stm32n6xx_hal_ramcfg.c ****   * @}
 650:STM32Cube_FW_N6/Drivers/STM32N6xx_HAL_Driver/Src/stm32n6xx_hal_ramcfg.c ****   */
 651:STM32Cube_FW_N6/Drivers/STM32N6xx_HAL_Driver/Src/stm32n6xx_hal_ramcfg.c **** 
 652:STM32Cube_FW_N6/Drivers/STM32N6xx_HAL_Driver/Src/stm32n6xx_hal_ramcfg.c **** /** @addtogroup RAMCFG_Exported_Functions_Group6
 653:STM32Cube_FW_N6/Drivers/STM32N6xx_HAL_Driver/Src/stm32n6xx_hal_ramcfg.c ****   *
 654:STM32Cube_FW_N6/Drivers/STM32N6xx_HAL_Driver/Src/stm32n6xx_hal_ramcfg.c **** @verbatim
 655:STM32Cube_FW_N6/Drivers/STM32N6xx_HAL_Driver/Src/stm32n6xx_hal_ramcfg.c ****  ===============================================================================
 656:STM32Cube_FW_N6/Drivers/STM32N6xx_HAL_Driver/Src/stm32n6xx_hal_ramcfg.c ****                ##### Handle Interrupt and Callbacks Functions  #####
 657:STM32Cube_FW_N6/Drivers/STM32N6xx_HAL_Driver/Src/stm32n6xx_hal_ramcfg.c ****  ===============================================================================
 658:STM32Cube_FW_N6/Drivers/STM32N6xx_HAL_Driver/Src/stm32n6xx_hal_ramcfg.c ****     [..]
 659:STM32Cube_FW_N6/Drivers/STM32N6xx_HAL_Driver/Src/stm32n6xx_hal_ramcfg.c ****       This section provides functions to handle RAMCFG interrupts and
 660:STM32Cube_FW_N6/Drivers/STM32N6xx_HAL_Driver/Src/stm32n6xx_hal_ramcfg.c ****       Register / UnRegister the different callbacks.
 661:STM32Cube_FW_N6/Drivers/STM32N6xx_HAL_Driver/Src/stm32n6xx_hal_ramcfg.c ****     [..]
 662:STM32Cube_FW_N6/Drivers/STM32N6xx_HAL_Driver/Src/stm32n6xx_hal_ramcfg.c ****       The HAL_RAMCFG_IRQHandler() function allows the user to handle the active RAMCFG
 663:STM32Cube_FW_N6/Drivers/STM32N6xx_HAL_Driver/Src/stm32n6xx_hal_ramcfg.c ****       interrupt request.
 664:STM32Cube_FW_N6/Drivers/STM32N6xx_HAL_Driver/Src/stm32n6xx_hal_ramcfg.c ****       The HAL_RAMCFG_RegisterCallback() function allows the user to register the selected
 665:STM32Cube_FW_N6/Drivers/STM32N6xx_HAL_Driver/Src/stm32n6xx_hal_ramcfg.c ****       RAMCFG callbacks.
 666:STM32Cube_FW_N6/Drivers/STM32N6xx_HAL_Driver/Src/stm32n6xx_hal_ramcfg.c ****       The HAL_RAMCFG_UnRegisterCallback() function allows the user to unregister the
 667:STM32Cube_FW_N6/Drivers/STM32N6xx_HAL_Driver/Src/stm32n6xx_hal_ramcfg.c ****       selected RAMCFG callbacks.
 668:STM32Cube_FW_N6/Drivers/STM32N6xx_HAL_Driver/Src/stm32n6xx_hal_ramcfg.c **** @endverbatim
 669:STM32Cube_FW_N6/Drivers/STM32N6xx_HAL_Driver/Src/stm32n6xx_hal_ramcfg.c ****   * @{
 670:STM32Cube_FW_N6/Drivers/STM32N6xx_HAL_Driver/Src/stm32n6xx_hal_ramcfg.c ****   */
 671:STM32Cube_FW_N6/Drivers/STM32N6xx_HAL_Driver/Src/stm32n6xx_hal_ramcfg.c **** 
ARM GAS  C:\Users\DJESSOU\AppData\Local\Temp\ccLWLfBx.s 			page 39


 672:STM32Cube_FW_N6/Drivers/STM32N6xx_HAL_Driver/Src/stm32n6xx_hal_ramcfg.c **** /**
 673:STM32Cube_FW_N6/Drivers/STM32N6xx_HAL_Driver/Src/stm32n6xx_hal_ramcfg.c ****   * @brief  Handles RAMCFG interrupt request.
 674:STM32Cube_FW_N6/Drivers/STM32N6xx_HAL_Driver/Src/stm32n6xx_hal_ramcfg.c ****   * @param  hramcfg       : Pointer to a RAMCFG_HandleTypeDef structure that
 675:STM32Cube_FW_N6/Drivers/STM32N6xx_HAL_Driver/Src/stm32n6xx_hal_ramcfg.c ****   *                         contains the configuration information for the
 676:STM32Cube_FW_N6/Drivers/STM32N6xx_HAL_Driver/Src/stm32n6xx_hal_ramcfg.c ****   *                         specified RAMCFG instance.
 677:STM32Cube_FW_N6/Drivers/STM32N6xx_HAL_Driver/Src/stm32n6xx_hal_ramcfg.c ****   * @retval None.
 678:STM32Cube_FW_N6/Drivers/STM32N6xx_HAL_Driver/Src/stm32n6xx_hal_ramcfg.c ****   */
 679:STM32Cube_FW_N6/Drivers/STM32N6xx_HAL_Driver/Src/stm32n6xx_hal_ramcfg.c **** void HAL_RAMCFG_IRQHandler(RAMCFG_HandleTypeDef *hramcfg)
 680:STM32Cube_FW_N6/Drivers/STM32N6xx_HAL_Driver/Src/stm32n6xx_hal_ramcfg.c **** {
 681:STM32Cube_FW_N6/Drivers/STM32N6xx_HAL_Driver/Src/stm32n6xx_hal_ramcfg.c ****   /* Single Error Interrupt Management ****************************************/
 682:STM32Cube_FW_N6/Drivers/STM32N6xx_HAL_Driver/Src/stm32n6xx_hal_ramcfg.c ****   if (__HAL_RAMCFG_GET_IT_SOURCE(hramcfg, RAMCFG_IT_SINGLEERR) != 0U)
 683:STM32Cube_FW_N6/Drivers/STM32N6xx_HAL_Driver/Src/stm32n6xx_hal_ramcfg.c ****   {
 684:STM32Cube_FW_N6/Drivers/STM32N6xx_HAL_Driver/Src/stm32n6xx_hal_ramcfg.c ****     if (__HAL_RAMCFG_GET_FLAG(hramcfg, RAMCFG_FLAG_SINGLEERR) != 0U)
 685:STM32Cube_FW_N6/Drivers/STM32N6xx_HAL_Driver/Src/stm32n6xx_hal_ramcfg.c ****     {
 686:STM32Cube_FW_N6/Drivers/STM32N6xx_HAL_Driver/Src/stm32n6xx_hal_ramcfg.c ****       /* Clear active flags */
 687:STM32Cube_FW_N6/Drivers/STM32N6xx_HAL_Driver/Src/stm32n6xx_hal_ramcfg.c ****       __HAL_RAMCFG_CLEAR_FLAG(hramcfg, RAMCFG_FLAG_SINGLEERR);
 688:STM32Cube_FW_N6/Drivers/STM32N6xx_HAL_Driver/Src/stm32n6xx_hal_ramcfg.c **** 
 689:STM32Cube_FW_N6/Drivers/STM32N6xx_HAL_Driver/Src/stm32n6xx_hal_ramcfg.c **** #if (USE_HAL_RAMCFG_REGISTER_CALLBACKS == 1)
 690:STM32Cube_FW_N6/Drivers/STM32N6xx_HAL_Driver/Src/stm32n6xx_hal_ramcfg.c ****       /* Check if a valid single error callback is registered */
 691:STM32Cube_FW_N6/Drivers/STM32N6xx_HAL_Driver/Src/stm32n6xx_hal_ramcfg.c ****       if (hramcfg->DetectSingleErrorCallback != NULL)
 692:STM32Cube_FW_N6/Drivers/STM32N6xx_HAL_Driver/Src/stm32n6xx_hal_ramcfg.c ****       {
 693:STM32Cube_FW_N6/Drivers/STM32N6xx_HAL_Driver/Src/stm32n6xx_hal_ramcfg.c ****         /* Single error detection callback */
 694:STM32Cube_FW_N6/Drivers/STM32N6xx_HAL_Driver/Src/stm32n6xx_hal_ramcfg.c ****         hramcfg->DetectSingleErrorCallback(hramcfg);
 695:STM32Cube_FW_N6/Drivers/STM32N6xx_HAL_Driver/Src/stm32n6xx_hal_ramcfg.c ****       }
 696:STM32Cube_FW_N6/Drivers/STM32N6xx_HAL_Driver/Src/stm32n6xx_hal_ramcfg.c **** #else
 697:STM32Cube_FW_N6/Drivers/STM32N6xx_HAL_Driver/Src/stm32n6xx_hal_ramcfg.c ****       HAL_RAMCFG_DetectSingleErrorCallback(hramcfg);
 698:STM32Cube_FW_N6/Drivers/STM32N6xx_HAL_Driver/Src/stm32n6xx_hal_ramcfg.c **** #endif /* USE_HAL_RAMCFG_REGISTER_CALLBACKS */
 699:STM32Cube_FW_N6/Drivers/STM32N6xx_HAL_Driver/Src/stm32n6xx_hal_ramcfg.c ****     }
 700:STM32Cube_FW_N6/Drivers/STM32N6xx_HAL_Driver/Src/stm32n6xx_hal_ramcfg.c ****   }
 701:STM32Cube_FW_N6/Drivers/STM32N6xx_HAL_Driver/Src/stm32n6xx_hal_ramcfg.c **** 
 702:STM32Cube_FW_N6/Drivers/STM32N6xx_HAL_Driver/Src/stm32n6xx_hal_ramcfg.c ****   /* Double Error Interrupt Management ****************************************/
 703:STM32Cube_FW_N6/Drivers/STM32N6xx_HAL_Driver/Src/stm32n6xx_hal_ramcfg.c ****   if (__HAL_RAMCFG_GET_IT_SOURCE(hramcfg, RAMCFG_IT_DOUBLEERR) != 0U)
 704:STM32Cube_FW_N6/Drivers/STM32N6xx_HAL_Driver/Src/stm32n6xx_hal_ramcfg.c ****   {
 705:STM32Cube_FW_N6/Drivers/STM32N6xx_HAL_Driver/Src/stm32n6xx_hal_ramcfg.c ****     if (__HAL_RAMCFG_GET_FLAG(hramcfg, RAMCFG_FLAG_DOUBLEERR) != 0U)
 706:STM32Cube_FW_N6/Drivers/STM32N6xx_HAL_Driver/Src/stm32n6xx_hal_ramcfg.c ****     {
 707:STM32Cube_FW_N6/Drivers/STM32N6xx_HAL_Driver/Src/stm32n6xx_hal_ramcfg.c ****       /* Clear active flags */
 708:STM32Cube_FW_N6/Drivers/STM32N6xx_HAL_Driver/Src/stm32n6xx_hal_ramcfg.c ****       __HAL_RAMCFG_CLEAR_FLAG(hramcfg, RAMCFG_FLAG_DOUBLEERR);
 709:STM32Cube_FW_N6/Drivers/STM32N6xx_HAL_Driver/Src/stm32n6xx_hal_ramcfg.c **** 
 710:STM32Cube_FW_N6/Drivers/STM32N6xx_HAL_Driver/Src/stm32n6xx_hal_ramcfg.c **** #if (USE_HAL_RAMCFG_REGISTER_CALLBACKS == 1)
 711:STM32Cube_FW_N6/Drivers/STM32N6xx_HAL_Driver/Src/stm32n6xx_hal_ramcfg.c ****       /* Check if a valid double error callback is registered */
 712:STM32Cube_FW_N6/Drivers/STM32N6xx_HAL_Driver/Src/stm32n6xx_hal_ramcfg.c ****       if (hramcfg->DetectDoubleErrorCallback != NULL)
 713:STM32Cube_FW_N6/Drivers/STM32N6xx_HAL_Driver/Src/stm32n6xx_hal_ramcfg.c ****       {
 714:STM32Cube_FW_N6/Drivers/STM32N6xx_HAL_Driver/Src/stm32n6xx_hal_ramcfg.c ****         /* Double error detection callback */
 715:STM32Cube_FW_N6/Drivers/STM32N6xx_HAL_Driver/Src/stm32n6xx_hal_ramcfg.c ****         hramcfg->DetectDoubleErrorCallback(hramcfg);
 716:STM32Cube_FW_N6/Drivers/STM32N6xx_HAL_Driver/Src/stm32n6xx_hal_ramcfg.c ****       }
 717:STM32Cube_FW_N6/Drivers/STM32N6xx_HAL_Driver/Src/stm32n6xx_hal_ramcfg.c **** #else
 718:STM32Cube_FW_N6/Drivers/STM32N6xx_HAL_Driver/Src/stm32n6xx_hal_ramcfg.c ****       HAL_RAMCFG_DetectDoubleErrorCallback(hramcfg);
 719:STM32Cube_FW_N6/Drivers/STM32N6xx_HAL_Driver/Src/stm32n6xx_hal_ramcfg.c **** #endif /* USE_HAL_RAMCFG_REGISTER_CALLBACKS */
 720:STM32Cube_FW_N6/Drivers/STM32N6xx_HAL_Driver/Src/stm32n6xx_hal_ramcfg.c ****     }
 721:STM32Cube_FW_N6/Drivers/STM32N6xx_HAL_Driver/Src/stm32n6xx_hal_ramcfg.c ****   }
 722:STM32Cube_FW_N6/Drivers/STM32N6xx_HAL_Driver/Src/stm32n6xx_hal_ramcfg.c **** }
 723:STM32Cube_FW_N6/Drivers/STM32N6xx_HAL_Driver/Src/stm32n6xx_hal_ramcfg.c **** 
 724:STM32Cube_FW_N6/Drivers/STM32N6xx_HAL_Driver/Src/stm32n6xx_hal_ramcfg.c **** /**
 725:STM32Cube_FW_N6/Drivers/STM32N6xx_HAL_Driver/Src/stm32n6xx_hal_ramcfg.c ****   * @brief  RAMCFG single error detection callback.
 726:STM32Cube_FW_N6/Drivers/STM32N6xx_HAL_Driver/Src/stm32n6xx_hal_ramcfg.c ****   * @param  hramcfg : Pointer to a RAMCFG_HandleTypeDef structure that contains
 727:STM32Cube_FW_N6/Drivers/STM32N6xx_HAL_Driver/Src/stm32n6xx_hal_ramcfg.c ****   *                   the configuration information for the specified RAMCFG.
 728:STM32Cube_FW_N6/Drivers/STM32N6xx_HAL_Driver/Src/stm32n6xx_hal_ramcfg.c ****   * @retval None.
ARM GAS  C:\Users\DJESSOU\AppData\Local\Temp\ccLWLfBx.s 			page 40


 729:STM32Cube_FW_N6/Drivers/STM32N6xx_HAL_Driver/Src/stm32n6xx_hal_ramcfg.c ****   */
 730:STM32Cube_FW_N6/Drivers/STM32N6xx_HAL_Driver/Src/stm32n6xx_hal_ramcfg.c **** __weak void HAL_RAMCFG_DetectSingleErrorCallback(RAMCFG_HandleTypeDef *hramcfg)
 1363              		.loc 1 730 13 is_stmt 1 view -0
 1364              		@ args = 0, pretend = 0, frame = 0
 1365              		@ frame_needed = 0, uses_anonymous_args = 0
 1366              		@ link register save eliminated.
 1367 0000 7047     		bx	lr
 1368              		.cfi_endproc
 1369              	.LFE885:
 1371              		.section	.text.HAL_RAMCFG_DetectDoubleErrorCallback,"ax",%progbits
 1372              		.align	1
 1373              		.weak	HAL_RAMCFG_DetectDoubleErrorCallback
 1374              		.syntax unified
 1375              		.thumb
 1376              		.thumb_func
 1378              	HAL_RAMCFG_DetectDoubleErrorCallback:
 1379              	.LFB887:
 1380              		.cfi_startproc
 731:STM32Cube_FW_N6/Drivers/STM32N6xx_HAL_Driver/Src/stm32n6xx_hal_ramcfg.c **** {
 732:STM32Cube_FW_N6/Drivers/STM32N6xx_HAL_Driver/Src/stm32n6xx_hal_ramcfg.c ****   /* Prevent unused argument(s) compilation warning */
 733:STM32Cube_FW_N6/Drivers/STM32N6xx_HAL_Driver/Src/stm32n6xx_hal_ramcfg.c ****   UNUSED(hramcfg);
 734:STM32Cube_FW_N6/Drivers/STM32N6xx_HAL_Driver/Src/stm32n6xx_hal_ramcfg.c **** 
 735:STM32Cube_FW_N6/Drivers/STM32N6xx_HAL_Driver/Src/stm32n6xx_hal_ramcfg.c ****   /* NOTE : This function should not be modified, when the callback is needed,
 736:STM32Cube_FW_N6/Drivers/STM32N6xx_HAL_Driver/Src/stm32n6xx_hal_ramcfg.c ****             the HAL_RAMCFG_DetectSingleErrorCallback can be implemented in
 737:STM32Cube_FW_N6/Drivers/STM32N6xx_HAL_Driver/Src/stm32n6xx_hal_ramcfg.c ****             the user file.                                                    */
 738:STM32Cube_FW_N6/Drivers/STM32N6xx_HAL_Driver/Src/stm32n6xx_hal_ramcfg.c **** }
 739:STM32Cube_FW_N6/Drivers/STM32N6xx_HAL_Driver/Src/stm32n6xx_hal_ramcfg.c **** 
 740:STM32Cube_FW_N6/Drivers/STM32N6xx_HAL_Driver/Src/stm32n6xx_hal_ramcfg.c **** /**
 741:STM32Cube_FW_N6/Drivers/STM32N6xx_HAL_Driver/Src/stm32n6xx_hal_ramcfg.c ****   * @brief  RAMCFG double error detection callback.
 742:STM32Cube_FW_N6/Drivers/STM32N6xx_HAL_Driver/Src/stm32n6xx_hal_ramcfg.c ****   * @param  hramcfg : Pointer to a RAMCFG_HandleTypeDef structure that contains
 743:STM32Cube_FW_N6/Drivers/STM32N6xx_HAL_Driver/Src/stm32n6xx_hal_ramcfg.c ****   *                   the configuration information for the specified RAMCFG.
 744:STM32Cube_FW_N6/Drivers/STM32N6xx_HAL_Driver/Src/stm32n6xx_hal_ramcfg.c ****   * @retval None.
 745:STM32Cube_FW_N6/Drivers/STM32N6xx_HAL_Driver/Src/stm32n6xx_hal_ramcfg.c ****   */
 746:STM32Cube_FW_N6/Drivers/STM32N6xx_HAL_Driver/Src/stm32n6xx_hal_ramcfg.c **** __weak void HAL_RAMCFG_DetectDoubleErrorCallback(RAMCFG_HandleTypeDef *hramcfg)
 1381              		.loc 1 746 13 view -0
 1382              		@ args = 0, pretend = 0, frame = 0
 1383              		@ frame_needed = 0, uses_anonymous_args = 0
 1384              		@ link register save eliminated.
 1385 0000 7047     		bx	lr
 1386              		.cfi_endproc
 1387              	.LFE887:
 1389              		.section	.text.HAL_RAMCFG_IRQHandler,"ax",%progbits
 1390              		.align	1
 1391              		.global	HAL_RAMCFG_IRQHandler
 1392              		.syntax unified
 1393              		.thumb
 1394              		.thumb_func
 1396              	HAL_RAMCFG_IRQHandler:
 1397              	.LVL64:
 1398              	.LFB875:
 680:STM32Cube_FW_N6/Drivers/STM32N6xx_HAL_Driver/Src/stm32n6xx_hal_ramcfg.c ****   /* Single Error Interrupt Management ****************************************/
 1399              		.loc 1 680 1 view -0
 1400              		.cfi_startproc
 1401              		@ args = 0, pretend = 0, frame = 0
 1402              		@ frame_needed = 0, uses_anonymous_args = 0
 682:STM32Cube_FW_N6/Drivers/STM32N6xx_HAL_Driver/Src/stm32n6xx_hal_ramcfg.c ****   {
 1403              		.loc 1 682 3 view .LVU370
ARM GAS  C:\Users\DJESSOU\AppData\Local\Temp\ccLWLfBx.s 			page 41


 682:STM32Cube_FW_N6/Drivers/STM32N6xx_HAL_Driver/Src/stm32n6xx_hal_ramcfg.c ****   {
 1404              		.loc 1 682 7 is_stmt 0 view .LVU371
 1405 0000 0368     		ldr	r3, [r0]
 680:STM32Cube_FW_N6/Drivers/STM32N6xx_HAL_Driver/Src/stm32n6xx_hal_ramcfg.c ****   /* Single Error Interrupt Management ****************************************/
 1406              		.loc 1 680 1 view .LVU372
 1407 0002 10B5     		push	{r4, lr}
 1408              		.cfi_def_cfa_offset 8
 1409              		.cfi_offset 4, -8
 1410              		.cfi_offset 14, -4
 682:STM32Cube_FW_N6/Drivers/STM32N6xx_HAL_Driver/Src/stm32n6xx_hal_ramcfg.c ****   {
 1411              		.loc 1 682 7 view .LVU373
 1412 0004 5A68     		ldr	r2, [r3, #4]
 680:STM32Cube_FW_N6/Drivers/STM32N6xx_HAL_Driver/Src/stm32n6xx_hal_ramcfg.c ****   /* Single Error Interrupt Management ****************************************/
 1413              		.loc 1 680 1 view .LVU374
 1414 0006 0446     		mov	r4, r0
 682:STM32Cube_FW_N6/Drivers/STM32N6xx_HAL_Driver/Src/stm32n6xx_hal_ramcfg.c ****   {
 1415              		.loc 1 682 6 view .LVU375
 1416 0008 D107     		lsls	r1, r2, #31
 1417 000a 08D5     		bpl	.L77
 684:STM32Cube_FW_N6/Drivers/STM32N6xx_HAL_Driver/Src/stm32n6xx_hal_ramcfg.c ****     {
 1418              		.loc 1 684 5 is_stmt 1 view .LVU376
 684:STM32Cube_FW_N6/Drivers/STM32N6xx_HAL_Driver/Src/stm32n6xx_hal_ramcfg.c ****     {
 1419              		.loc 1 684 9 is_stmt 0 view .LVU377
 1420 000c 9A68     		ldr	r2, [r3, #8]
 684:STM32Cube_FW_N6/Drivers/STM32N6xx_HAL_Driver/Src/stm32n6xx_hal_ramcfg.c ****     {
 1421              		.loc 1 684 63 view .LVU378
 1422 000e D207     		lsls	r2, r2, #31
 1423 0010 05D5     		bpl	.L77
 687:STM32Cube_FW_N6/Drivers/STM32N6xx_HAL_Driver/Src/stm32n6xx_hal_ramcfg.c **** 
 1424              		.loc 1 687 7 is_stmt 1 view .LVU379
 1425 0012 5A69     		ldr	r2, [r3, #20]
 1426 0014 42F00102 		orr	r2, r2, #1
 1427 0018 5A61     		str	r2, [r3, #20]
 697:STM32Cube_FW_N6/Drivers/STM32N6xx_HAL_Driver/Src/stm32n6xx_hal_ramcfg.c **** #endif /* USE_HAL_RAMCFG_REGISTER_CALLBACKS */
 1428              		.loc 1 697 7 view .LVU380
 1429 001a FFF7FEFF 		bl	HAL_RAMCFG_DetectSingleErrorCallback
 1430              	.LVL65:
 1431              	.L77:
 703:STM32Cube_FW_N6/Drivers/STM32N6xx_HAL_Driver/Src/stm32n6xx_hal_ramcfg.c ****   {
 1432              		.loc 1 703 3 view .LVU381
 703:STM32Cube_FW_N6/Drivers/STM32N6xx_HAL_Driver/Src/stm32n6xx_hal_ramcfg.c ****   {
 1433              		.loc 1 703 7 is_stmt 0 view .LVU382
 1434 001e 2368     		ldr	r3, [r4]
 1435 0020 5A68     		ldr	r2, [r3, #4]
 703:STM32Cube_FW_N6/Drivers/STM32N6xx_HAL_Driver/Src/stm32n6xx_hal_ramcfg.c ****   {
 1436              		.loc 1 703 6 view .LVU383
 1437 0022 9107     		lsls	r1, r2, #30
 1438 0024 09D5     		bpl	.L76
 705:STM32Cube_FW_N6/Drivers/STM32N6xx_HAL_Driver/Src/stm32n6xx_hal_ramcfg.c ****     {
 1439              		.loc 1 705 5 is_stmt 1 view .LVU384
 705:STM32Cube_FW_N6/Drivers/STM32N6xx_HAL_Driver/Src/stm32n6xx_hal_ramcfg.c ****     {
 1440              		.loc 1 705 9 is_stmt 0 view .LVU385
 1441 0026 9A68     		ldr	r2, [r3, #8]
 705:STM32Cube_FW_N6/Drivers/STM32N6xx_HAL_Driver/Src/stm32n6xx_hal_ramcfg.c ****     {
 1442              		.loc 1 705 63 view .LVU386
 1443 0028 9207     		lsls	r2, r2, #30
 1444 002a 06D5     		bpl	.L76
ARM GAS  C:\Users\DJESSOU\AppData\Local\Temp\ccLWLfBx.s 			page 42


 708:STM32Cube_FW_N6/Drivers/STM32N6xx_HAL_Driver/Src/stm32n6xx_hal_ramcfg.c **** 
 1445              		.loc 1 708 7 is_stmt 1 view .LVU387
 1446 002c 5A69     		ldr	r2, [r3, #20]
 718:STM32Cube_FW_N6/Drivers/STM32N6xx_HAL_Driver/Src/stm32n6xx_hal_ramcfg.c **** #endif /* USE_HAL_RAMCFG_REGISTER_CALLBACKS */
 1447              		.loc 1 718 7 is_stmt 0 view .LVU388
 1448 002e 2046     		mov	r0, r4
 708:STM32Cube_FW_N6/Drivers/STM32N6xx_HAL_Driver/Src/stm32n6xx_hal_ramcfg.c **** 
 1449              		.loc 1 708 7 view .LVU389
 1450 0030 42F00202 		orr	r2, r2, #2
 1451 0034 5A61     		str	r2, [r3, #20]
 718:STM32Cube_FW_N6/Drivers/STM32N6xx_HAL_Driver/Src/stm32n6xx_hal_ramcfg.c **** #endif /* USE_HAL_RAMCFG_REGISTER_CALLBACKS */
 1452              		.loc 1 718 7 is_stmt 1 view .LVU390
 1453 0036 FFF7FEFF 		bl	HAL_RAMCFG_DetectDoubleErrorCallback
 1454              	.LVL66:
 1455              	.L76:
 722:STM32Cube_FW_N6/Drivers/STM32N6xx_HAL_Driver/Src/stm32n6xx_hal_ramcfg.c **** 
 1456              		.loc 1 722 1 is_stmt 0 view .LVU391
 1457 003a 10BD     		pop	{r4, pc}
 722:STM32Cube_FW_N6/Drivers/STM32N6xx_HAL_Driver/Src/stm32n6xx_hal_ramcfg.c **** 
 1458              		.loc 1 722 1 view .LVU392
 1459              		.cfi_endproc
 1460              	.LFE875:
 1462              		.section	.text.HAL_RAMCFG_GetState,"ax",%progbits
 1463              		.align	1
 1464              		.global	HAL_RAMCFG_GetState
 1465              		.syntax unified
 1466              		.thumb
 1467              		.thumb_func
 1469              	HAL_RAMCFG_GetState:
 1470              	.LVL67:
 1471              	.LFB878:
 747:STM32Cube_FW_N6/Drivers/STM32N6xx_HAL_Driver/Src/stm32n6xx_hal_ramcfg.c **** {
 748:STM32Cube_FW_N6/Drivers/STM32N6xx_HAL_Driver/Src/stm32n6xx_hal_ramcfg.c ****   /* Prevent unused argument(s) compilation warning */
 749:STM32Cube_FW_N6/Drivers/STM32N6xx_HAL_Driver/Src/stm32n6xx_hal_ramcfg.c ****   UNUSED(hramcfg);
 750:STM32Cube_FW_N6/Drivers/STM32N6xx_HAL_Driver/Src/stm32n6xx_hal_ramcfg.c **** 
 751:STM32Cube_FW_N6/Drivers/STM32N6xx_HAL_Driver/Src/stm32n6xx_hal_ramcfg.c ****   /* NOTE : This function should not be modified, when the callback is needed,
 752:STM32Cube_FW_N6/Drivers/STM32N6xx_HAL_Driver/Src/stm32n6xx_hal_ramcfg.c ****             the HAL_RAMCFG_DetectDoubleErrorCallback can be implemented in
 753:STM32Cube_FW_N6/Drivers/STM32N6xx_HAL_Driver/Src/stm32n6xx_hal_ramcfg.c ****             the user file.                                                    */
 754:STM32Cube_FW_N6/Drivers/STM32N6xx_HAL_Driver/Src/stm32n6xx_hal_ramcfg.c **** }
 755:STM32Cube_FW_N6/Drivers/STM32N6xx_HAL_Driver/Src/stm32n6xx_hal_ramcfg.c **** 
 756:STM32Cube_FW_N6/Drivers/STM32N6xx_HAL_Driver/Src/stm32n6xx_hal_ramcfg.c **** #if (USE_HAL_RAMCFG_REGISTER_CALLBACKS == 1)
 757:STM32Cube_FW_N6/Drivers/STM32N6xx_HAL_Driver/Src/stm32n6xx_hal_ramcfg.c **** /**
 758:STM32Cube_FW_N6/Drivers/STM32N6xx_HAL_Driver/Src/stm32n6xx_hal_ramcfg.c ****   * @brief  Register RAMCFG callbacks.
 759:STM32Cube_FW_N6/Drivers/STM32N6xx_HAL_Driver/Src/stm32n6xx_hal_ramcfg.c ****   * @param  hramcfg       : Pointer to a RAMCFG_HandleTypeDef structure that
 760:STM32Cube_FW_N6/Drivers/STM32N6xx_HAL_Driver/Src/stm32n6xx_hal_ramcfg.c ****   *                         contains the configuration information for the
 761:STM32Cube_FW_N6/Drivers/STM32N6xx_HAL_Driver/Src/stm32n6xx_hal_ramcfg.c ****   *                         specified RAMCFG instance.
 762:STM32Cube_FW_N6/Drivers/STM32N6xx_HAL_Driver/Src/stm32n6xx_hal_ramcfg.c ****   * @param  CallbackID    : User Callback identifier a HAL_RAMCFG_CallbackIDTypeDef
 763:STM32Cube_FW_N6/Drivers/STM32N6xx_HAL_Driver/Src/stm32n6xx_hal_ramcfg.c ****   *                         ENUM as parameter.
 764:STM32Cube_FW_N6/Drivers/STM32N6xx_HAL_Driver/Src/stm32n6xx_hal_ramcfg.c ****   * @param  pCallback     : Pointer to private callback function.
 765:STM32Cube_FW_N6/Drivers/STM32N6xx_HAL_Driver/Src/stm32n6xx_hal_ramcfg.c ****   * @retval HAL status.
 766:STM32Cube_FW_N6/Drivers/STM32N6xx_HAL_Driver/Src/stm32n6xx_hal_ramcfg.c ****   */
 767:STM32Cube_FW_N6/Drivers/STM32N6xx_HAL_Driver/Src/stm32n6xx_hal_ramcfg.c **** HAL_StatusTypeDef HAL_RAMCFG_RegisterCallback(RAMCFG_HandleTypeDef *hramcfg,
 768:STM32Cube_FW_N6/Drivers/STM32N6xx_HAL_Driver/Src/stm32n6xx_hal_ramcfg.c ****                                               HAL_RAMCFG_CallbackIDTypeDef CallbackID,
 769:STM32Cube_FW_N6/Drivers/STM32N6xx_HAL_Driver/Src/stm32n6xx_hal_ramcfg.c ****                                               void (* pCallback)(RAMCFG_HandleTypeDef *_hramcfg))
 770:STM32Cube_FW_N6/Drivers/STM32N6xx_HAL_Driver/Src/stm32n6xx_hal_ramcfg.c **** {
 771:STM32Cube_FW_N6/Drivers/STM32N6xx_HAL_Driver/Src/stm32n6xx_hal_ramcfg.c ****   HAL_StatusTypeDef status = HAL_OK;
 772:STM32Cube_FW_N6/Drivers/STM32N6xx_HAL_Driver/Src/stm32n6xx_hal_ramcfg.c **** 
ARM GAS  C:\Users\DJESSOU\AppData\Local\Temp\ccLWLfBx.s 			page 43


 773:STM32Cube_FW_N6/Drivers/STM32N6xx_HAL_Driver/Src/stm32n6xx_hal_ramcfg.c ****   /* Check the parameters */
 774:STM32Cube_FW_N6/Drivers/STM32N6xx_HAL_Driver/Src/stm32n6xx_hal_ramcfg.c ****   assert_param(IS_RAMCFG_ALL_INSTANCE(hramcfg->Instance));
 775:STM32Cube_FW_N6/Drivers/STM32N6xx_HAL_Driver/Src/stm32n6xx_hal_ramcfg.c **** 
 776:STM32Cube_FW_N6/Drivers/STM32N6xx_HAL_Driver/Src/stm32n6xx_hal_ramcfg.c ****   if (pCallback == NULL)
 777:STM32Cube_FW_N6/Drivers/STM32N6xx_HAL_Driver/Src/stm32n6xx_hal_ramcfg.c ****   {
 778:STM32Cube_FW_N6/Drivers/STM32N6xx_HAL_Driver/Src/stm32n6xx_hal_ramcfg.c ****     /* Update the error code and return error */
 779:STM32Cube_FW_N6/Drivers/STM32N6xx_HAL_Driver/Src/stm32n6xx_hal_ramcfg.c ****     hramcfg->ErrorCode |= HAL_RAMCFG_ERROR_INVALID_CALLBACK;
 780:STM32Cube_FW_N6/Drivers/STM32N6xx_HAL_Driver/Src/stm32n6xx_hal_ramcfg.c ****     return HAL_ERROR;
 781:STM32Cube_FW_N6/Drivers/STM32N6xx_HAL_Driver/Src/stm32n6xx_hal_ramcfg.c ****   }
 782:STM32Cube_FW_N6/Drivers/STM32N6xx_HAL_Driver/Src/stm32n6xx_hal_ramcfg.c **** 
 783:STM32Cube_FW_N6/Drivers/STM32N6xx_HAL_Driver/Src/stm32n6xx_hal_ramcfg.c ****   /* Check RAMCFG state */
 784:STM32Cube_FW_N6/Drivers/STM32N6xx_HAL_Driver/Src/stm32n6xx_hal_ramcfg.c ****   if (hramcfg->State == HAL_RAMCFG_STATE_READY)
 785:STM32Cube_FW_N6/Drivers/STM32N6xx_HAL_Driver/Src/stm32n6xx_hal_ramcfg.c ****   {
 786:STM32Cube_FW_N6/Drivers/STM32N6xx_HAL_Driver/Src/stm32n6xx_hal_ramcfg.c ****     switch (CallbackID)
 787:STM32Cube_FW_N6/Drivers/STM32N6xx_HAL_Driver/Src/stm32n6xx_hal_ramcfg.c ****     {
 788:STM32Cube_FW_N6/Drivers/STM32N6xx_HAL_Driver/Src/stm32n6xx_hal_ramcfg.c ****       case  HAL_RAMCFG_SE_DETECT_CB_ID:
 789:STM32Cube_FW_N6/Drivers/STM32N6xx_HAL_Driver/Src/stm32n6xx_hal_ramcfg.c ****         /* Register single error callback */
 790:STM32Cube_FW_N6/Drivers/STM32N6xx_HAL_Driver/Src/stm32n6xx_hal_ramcfg.c ****         hramcfg->DetectSingleErrorCallback = pCallback;
 791:STM32Cube_FW_N6/Drivers/STM32N6xx_HAL_Driver/Src/stm32n6xx_hal_ramcfg.c ****         break;
 792:STM32Cube_FW_N6/Drivers/STM32N6xx_HAL_Driver/Src/stm32n6xx_hal_ramcfg.c **** 
 793:STM32Cube_FW_N6/Drivers/STM32N6xx_HAL_Driver/Src/stm32n6xx_hal_ramcfg.c ****       case  HAL_RAMCFG_DE_DETECT_CB_ID:
 794:STM32Cube_FW_N6/Drivers/STM32N6xx_HAL_Driver/Src/stm32n6xx_hal_ramcfg.c ****         /* Register double error callback */
 795:STM32Cube_FW_N6/Drivers/STM32N6xx_HAL_Driver/Src/stm32n6xx_hal_ramcfg.c ****         hramcfg->DetectDoubleErrorCallback = pCallback;
 796:STM32Cube_FW_N6/Drivers/STM32N6xx_HAL_Driver/Src/stm32n6xx_hal_ramcfg.c ****         break;
 797:STM32Cube_FW_N6/Drivers/STM32N6xx_HAL_Driver/Src/stm32n6xx_hal_ramcfg.c **** 
 798:STM32Cube_FW_N6/Drivers/STM32N6xx_HAL_Driver/Src/stm32n6xx_hal_ramcfg.c ****       case HAL_RAMCFG_MSPINIT_CB_ID :
 799:STM32Cube_FW_N6/Drivers/STM32N6xx_HAL_Driver/Src/stm32n6xx_hal_ramcfg.c ****         /* Register msp init callback */
 800:STM32Cube_FW_N6/Drivers/STM32N6xx_HAL_Driver/Src/stm32n6xx_hal_ramcfg.c ****         hramcfg->MspInitCallback = pCallback;
 801:STM32Cube_FW_N6/Drivers/STM32N6xx_HAL_Driver/Src/stm32n6xx_hal_ramcfg.c ****         break;
 802:STM32Cube_FW_N6/Drivers/STM32N6xx_HAL_Driver/Src/stm32n6xx_hal_ramcfg.c **** 
 803:STM32Cube_FW_N6/Drivers/STM32N6xx_HAL_Driver/Src/stm32n6xx_hal_ramcfg.c ****       case HAL_RAMCFG_MSPDEINIT_CB_ID :
 804:STM32Cube_FW_N6/Drivers/STM32N6xx_HAL_Driver/Src/stm32n6xx_hal_ramcfg.c ****         /* Register msp de-init callback */
 805:STM32Cube_FW_N6/Drivers/STM32N6xx_HAL_Driver/Src/stm32n6xx_hal_ramcfg.c ****         hramcfg->MspDeInitCallback = pCallback;
 806:STM32Cube_FW_N6/Drivers/STM32N6xx_HAL_Driver/Src/stm32n6xx_hal_ramcfg.c ****         break;
 807:STM32Cube_FW_N6/Drivers/STM32N6xx_HAL_Driver/Src/stm32n6xx_hal_ramcfg.c **** 
 808:STM32Cube_FW_N6/Drivers/STM32N6xx_HAL_Driver/Src/stm32n6xx_hal_ramcfg.c ****       default:
 809:STM32Cube_FW_N6/Drivers/STM32N6xx_HAL_Driver/Src/stm32n6xx_hal_ramcfg.c ****         /* Update the error code and return error */
 810:STM32Cube_FW_N6/Drivers/STM32N6xx_HAL_Driver/Src/stm32n6xx_hal_ramcfg.c ****         hramcfg->ErrorCode |= HAL_RAMCFG_ERROR_INVALID_CALLBACK;
 811:STM32Cube_FW_N6/Drivers/STM32N6xx_HAL_Driver/Src/stm32n6xx_hal_ramcfg.c ****         status = HAL_ERROR;
 812:STM32Cube_FW_N6/Drivers/STM32N6xx_HAL_Driver/Src/stm32n6xx_hal_ramcfg.c ****         break;
 813:STM32Cube_FW_N6/Drivers/STM32N6xx_HAL_Driver/Src/stm32n6xx_hal_ramcfg.c ****     }
 814:STM32Cube_FW_N6/Drivers/STM32N6xx_HAL_Driver/Src/stm32n6xx_hal_ramcfg.c ****   }
 815:STM32Cube_FW_N6/Drivers/STM32N6xx_HAL_Driver/Src/stm32n6xx_hal_ramcfg.c ****   else if (hramcfg->State == HAL_RAMCFG_STATE_RESET)
 816:STM32Cube_FW_N6/Drivers/STM32N6xx_HAL_Driver/Src/stm32n6xx_hal_ramcfg.c ****   {
 817:STM32Cube_FW_N6/Drivers/STM32N6xx_HAL_Driver/Src/stm32n6xx_hal_ramcfg.c ****     switch (CallbackID)
 818:STM32Cube_FW_N6/Drivers/STM32N6xx_HAL_Driver/Src/stm32n6xx_hal_ramcfg.c ****     {
 819:STM32Cube_FW_N6/Drivers/STM32N6xx_HAL_Driver/Src/stm32n6xx_hal_ramcfg.c ****       case HAL_RAMCFG_MSPINIT_CB_ID :
 820:STM32Cube_FW_N6/Drivers/STM32N6xx_HAL_Driver/Src/stm32n6xx_hal_ramcfg.c ****         /* Register msp init callback */
 821:STM32Cube_FW_N6/Drivers/STM32N6xx_HAL_Driver/Src/stm32n6xx_hal_ramcfg.c ****         hramcfg->MspInitCallback = pCallback;
 822:STM32Cube_FW_N6/Drivers/STM32N6xx_HAL_Driver/Src/stm32n6xx_hal_ramcfg.c ****         break;
 823:STM32Cube_FW_N6/Drivers/STM32N6xx_HAL_Driver/Src/stm32n6xx_hal_ramcfg.c **** 
 824:STM32Cube_FW_N6/Drivers/STM32N6xx_HAL_Driver/Src/stm32n6xx_hal_ramcfg.c ****       case HAL_RAMCFG_MSPDEINIT_CB_ID :
 825:STM32Cube_FW_N6/Drivers/STM32N6xx_HAL_Driver/Src/stm32n6xx_hal_ramcfg.c ****         /* Register msp de-init callback */
 826:STM32Cube_FW_N6/Drivers/STM32N6xx_HAL_Driver/Src/stm32n6xx_hal_ramcfg.c ****         hramcfg->MspDeInitCallback = pCallback;
 827:STM32Cube_FW_N6/Drivers/STM32N6xx_HAL_Driver/Src/stm32n6xx_hal_ramcfg.c ****         break;
 828:STM32Cube_FW_N6/Drivers/STM32N6xx_HAL_Driver/Src/stm32n6xx_hal_ramcfg.c **** 
 829:STM32Cube_FW_N6/Drivers/STM32N6xx_HAL_Driver/Src/stm32n6xx_hal_ramcfg.c ****       default :
ARM GAS  C:\Users\DJESSOU\AppData\Local\Temp\ccLWLfBx.s 			page 44


 830:STM32Cube_FW_N6/Drivers/STM32N6xx_HAL_Driver/Src/stm32n6xx_hal_ramcfg.c ****         /* Update the error code and return error */
 831:STM32Cube_FW_N6/Drivers/STM32N6xx_HAL_Driver/Src/stm32n6xx_hal_ramcfg.c ****         hramcfg->ErrorCode |= HAL_RAMCFG_ERROR_INVALID_CALLBACK;
 832:STM32Cube_FW_N6/Drivers/STM32N6xx_HAL_Driver/Src/stm32n6xx_hal_ramcfg.c ****         status =  HAL_ERROR;
 833:STM32Cube_FW_N6/Drivers/STM32N6xx_HAL_Driver/Src/stm32n6xx_hal_ramcfg.c ****         break;
 834:STM32Cube_FW_N6/Drivers/STM32N6xx_HAL_Driver/Src/stm32n6xx_hal_ramcfg.c ****     }
 835:STM32Cube_FW_N6/Drivers/STM32N6xx_HAL_Driver/Src/stm32n6xx_hal_ramcfg.c ****   }
 836:STM32Cube_FW_N6/Drivers/STM32N6xx_HAL_Driver/Src/stm32n6xx_hal_ramcfg.c ****   else
 837:STM32Cube_FW_N6/Drivers/STM32N6xx_HAL_Driver/Src/stm32n6xx_hal_ramcfg.c ****   {
 838:STM32Cube_FW_N6/Drivers/STM32N6xx_HAL_Driver/Src/stm32n6xx_hal_ramcfg.c ****     /* Update the error code and return error  */
 839:STM32Cube_FW_N6/Drivers/STM32N6xx_HAL_Driver/Src/stm32n6xx_hal_ramcfg.c ****     hramcfg->ErrorCode = HAL_RAMCFG_ERROR_INVALID_CALLBACK;
 840:STM32Cube_FW_N6/Drivers/STM32N6xx_HAL_Driver/Src/stm32n6xx_hal_ramcfg.c ****     status = HAL_ERROR;
 841:STM32Cube_FW_N6/Drivers/STM32N6xx_HAL_Driver/Src/stm32n6xx_hal_ramcfg.c ****   }
 842:STM32Cube_FW_N6/Drivers/STM32N6xx_HAL_Driver/Src/stm32n6xx_hal_ramcfg.c **** 
 843:STM32Cube_FW_N6/Drivers/STM32N6xx_HAL_Driver/Src/stm32n6xx_hal_ramcfg.c ****   return status;
 844:STM32Cube_FW_N6/Drivers/STM32N6xx_HAL_Driver/Src/stm32n6xx_hal_ramcfg.c **** }
 845:STM32Cube_FW_N6/Drivers/STM32N6xx_HAL_Driver/Src/stm32n6xx_hal_ramcfg.c **** 
 846:STM32Cube_FW_N6/Drivers/STM32N6xx_HAL_Driver/Src/stm32n6xx_hal_ramcfg.c **** /**
 847:STM32Cube_FW_N6/Drivers/STM32N6xx_HAL_Driver/Src/stm32n6xx_hal_ramcfg.c ****   * @brief  UnRegister RAMCFG callbacks.
 848:STM32Cube_FW_N6/Drivers/STM32N6xx_HAL_Driver/Src/stm32n6xx_hal_ramcfg.c ****   * @param  hramcfg       : Pointer to a RAMCFG_HandleTypeDef structure that
 849:STM32Cube_FW_N6/Drivers/STM32N6xx_HAL_Driver/Src/stm32n6xx_hal_ramcfg.c ****   *                         contains the configuration information for the
 850:STM32Cube_FW_N6/Drivers/STM32N6xx_HAL_Driver/Src/stm32n6xx_hal_ramcfg.c ****   *                         specified RAMCFG instance.
 851:STM32Cube_FW_N6/Drivers/STM32N6xx_HAL_Driver/Src/stm32n6xx_hal_ramcfg.c ****   * @param  CallbackID    : User Callback identifier a HAL_RAMCFG_CallbackIDTypeDef
 852:STM32Cube_FW_N6/Drivers/STM32N6xx_HAL_Driver/Src/stm32n6xx_hal_ramcfg.c ****   *                         ENUM as parameter.
 853:STM32Cube_FW_N6/Drivers/STM32N6xx_HAL_Driver/Src/stm32n6xx_hal_ramcfg.c ****   * @retval HAL status.
 854:STM32Cube_FW_N6/Drivers/STM32N6xx_HAL_Driver/Src/stm32n6xx_hal_ramcfg.c ****   */
 855:STM32Cube_FW_N6/Drivers/STM32N6xx_HAL_Driver/Src/stm32n6xx_hal_ramcfg.c **** HAL_StatusTypeDef HAL_RAMCFG_UnRegisterCallback(RAMCFG_HandleTypeDef *hramcfg, HAL_RAMCFG_CallbackI
 856:STM32Cube_FW_N6/Drivers/STM32N6xx_HAL_Driver/Src/stm32n6xx_hal_ramcfg.c **** {
 857:STM32Cube_FW_N6/Drivers/STM32N6xx_HAL_Driver/Src/stm32n6xx_hal_ramcfg.c ****   HAL_StatusTypeDef status = HAL_OK;
 858:STM32Cube_FW_N6/Drivers/STM32N6xx_HAL_Driver/Src/stm32n6xx_hal_ramcfg.c **** 
 859:STM32Cube_FW_N6/Drivers/STM32N6xx_HAL_Driver/Src/stm32n6xx_hal_ramcfg.c ****   /* Check the parameters */
 860:STM32Cube_FW_N6/Drivers/STM32N6xx_HAL_Driver/Src/stm32n6xx_hal_ramcfg.c ****   assert_param(IS_RAMCFG_ALL_INSTANCE(hramcfg->Instance));
 861:STM32Cube_FW_N6/Drivers/STM32N6xx_HAL_Driver/Src/stm32n6xx_hal_ramcfg.c **** 
 862:STM32Cube_FW_N6/Drivers/STM32N6xx_HAL_Driver/Src/stm32n6xx_hal_ramcfg.c ****   /* Check RAMCFG state */
 863:STM32Cube_FW_N6/Drivers/STM32N6xx_HAL_Driver/Src/stm32n6xx_hal_ramcfg.c ****   if (hramcfg->State == HAL_RAMCFG_STATE_READY)
 864:STM32Cube_FW_N6/Drivers/STM32N6xx_HAL_Driver/Src/stm32n6xx_hal_ramcfg.c ****   {
 865:STM32Cube_FW_N6/Drivers/STM32N6xx_HAL_Driver/Src/stm32n6xx_hal_ramcfg.c ****     switch (CallbackID)
 866:STM32Cube_FW_N6/Drivers/STM32N6xx_HAL_Driver/Src/stm32n6xx_hal_ramcfg.c ****     {
 867:STM32Cube_FW_N6/Drivers/STM32N6xx_HAL_Driver/Src/stm32n6xx_hal_ramcfg.c ****       case  HAL_RAMCFG_SE_DETECT_CB_ID:
 868:STM32Cube_FW_N6/Drivers/STM32N6xx_HAL_Driver/Src/stm32n6xx_hal_ramcfg.c ****         /* UnRegister single error callback */
 869:STM32Cube_FW_N6/Drivers/STM32N6xx_HAL_Driver/Src/stm32n6xx_hal_ramcfg.c ****         hramcfg->DetectSingleErrorCallback = NULL;
 870:STM32Cube_FW_N6/Drivers/STM32N6xx_HAL_Driver/Src/stm32n6xx_hal_ramcfg.c ****         break;
 871:STM32Cube_FW_N6/Drivers/STM32N6xx_HAL_Driver/Src/stm32n6xx_hal_ramcfg.c **** 
 872:STM32Cube_FW_N6/Drivers/STM32N6xx_HAL_Driver/Src/stm32n6xx_hal_ramcfg.c ****       case  HAL_RAMCFG_DE_DETECT_CB_ID:
 873:STM32Cube_FW_N6/Drivers/STM32N6xx_HAL_Driver/Src/stm32n6xx_hal_ramcfg.c ****         /* UnRegister double error callback */
 874:STM32Cube_FW_N6/Drivers/STM32N6xx_HAL_Driver/Src/stm32n6xx_hal_ramcfg.c ****         hramcfg->DetectDoubleErrorCallback = NULL;
 875:STM32Cube_FW_N6/Drivers/STM32N6xx_HAL_Driver/Src/stm32n6xx_hal_ramcfg.c ****         break;
 876:STM32Cube_FW_N6/Drivers/STM32N6xx_HAL_Driver/Src/stm32n6xx_hal_ramcfg.c **** 
 877:STM32Cube_FW_N6/Drivers/STM32N6xx_HAL_Driver/Src/stm32n6xx_hal_ramcfg.c ****       case HAL_RAMCFG_MSPINIT_CB_ID :
 878:STM32Cube_FW_N6/Drivers/STM32N6xx_HAL_Driver/Src/stm32n6xx_hal_ramcfg.c ****         /* UnRegister msp init callback */
 879:STM32Cube_FW_N6/Drivers/STM32N6xx_HAL_Driver/Src/stm32n6xx_hal_ramcfg.c ****         hramcfg->MspInitCallback = NULL;
 880:STM32Cube_FW_N6/Drivers/STM32N6xx_HAL_Driver/Src/stm32n6xx_hal_ramcfg.c ****         break;
 881:STM32Cube_FW_N6/Drivers/STM32N6xx_HAL_Driver/Src/stm32n6xx_hal_ramcfg.c **** 
 882:STM32Cube_FW_N6/Drivers/STM32N6xx_HAL_Driver/Src/stm32n6xx_hal_ramcfg.c ****       case HAL_RAMCFG_MSPDEINIT_CB_ID :
 883:STM32Cube_FW_N6/Drivers/STM32N6xx_HAL_Driver/Src/stm32n6xx_hal_ramcfg.c ****         /* UnRegister msp de-init callback */
 884:STM32Cube_FW_N6/Drivers/STM32N6xx_HAL_Driver/Src/stm32n6xx_hal_ramcfg.c ****         hramcfg->MspDeInitCallback = NULL;
 885:STM32Cube_FW_N6/Drivers/STM32N6xx_HAL_Driver/Src/stm32n6xx_hal_ramcfg.c ****         break;
 886:STM32Cube_FW_N6/Drivers/STM32N6xx_HAL_Driver/Src/stm32n6xx_hal_ramcfg.c **** 
ARM GAS  C:\Users\DJESSOU\AppData\Local\Temp\ccLWLfBx.s 			page 45


 887:STM32Cube_FW_N6/Drivers/STM32N6xx_HAL_Driver/Src/stm32n6xx_hal_ramcfg.c ****       case  HAL_RAMCFG_ALL_CB_ID:
 888:STM32Cube_FW_N6/Drivers/STM32N6xx_HAL_Driver/Src/stm32n6xx_hal_ramcfg.c ****         /* UnRegister all available callbacks */
 889:STM32Cube_FW_N6/Drivers/STM32N6xx_HAL_Driver/Src/stm32n6xx_hal_ramcfg.c ****         hramcfg->DetectSingleErrorCallback = NULL;
 890:STM32Cube_FW_N6/Drivers/STM32N6xx_HAL_Driver/Src/stm32n6xx_hal_ramcfg.c ****         hramcfg->DetectDoubleErrorCallback = NULL;
 891:STM32Cube_FW_N6/Drivers/STM32N6xx_HAL_Driver/Src/stm32n6xx_hal_ramcfg.c ****         hramcfg->MspDeInitCallback         = NULL;
 892:STM32Cube_FW_N6/Drivers/STM32N6xx_HAL_Driver/Src/stm32n6xx_hal_ramcfg.c ****         hramcfg->MspInitCallback           = NULL;
 893:STM32Cube_FW_N6/Drivers/STM32N6xx_HAL_Driver/Src/stm32n6xx_hal_ramcfg.c ****         break;
 894:STM32Cube_FW_N6/Drivers/STM32N6xx_HAL_Driver/Src/stm32n6xx_hal_ramcfg.c **** 
 895:STM32Cube_FW_N6/Drivers/STM32N6xx_HAL_Driver/Src/stm32n6xx_hal_ramcfg.c ****       default:
 896:STM32Cube_FW_N6/Drivers/STM32N6xx_HAL_Driver/Src/stm32n6xx_hal_ramcfg.c ****         /* Return error status */
 897:STM32Cube_FW_N6/Drivers/STM32N6xx_HAL_Driver/Src/stm32n6xx_hal_ramcfg.c ****         status = HAL_ERROR;
 898:STM32Cube_FW_N6/Drivers/STM32N6xx_HAL_Driver/Src/stm32n6xx_hal_ramcfg.c ****         break;
 899:STM32Cube_FW_N6/Drivers/STM32N6xx_HAL_Driver/Src/stm32n6xx_hal_ramcfg.c ****     }
 900:STM32Cube_FW_N6/Drivers/STM32N6xx_HAL_Driver/Src/stm32n6xx_hal_ramcfg.c ****   }
 901:STM32Cube_FW_N6/Drivers/STM32N6xx_HAL_Driver/Src/stm32n6xx_hal_ramcfg.c ****   else if (hramcfg->State == HAL_RAMCFG_STATE_RESET)
 902:STM32Cube_FW_N6/Drivers/STM32N6xx_HAL_Driver/Src/stm32n6xx_hal_ramcfg.c ****   {
 903:STM32Cube_FW_N6/Drivers/STM32N6xx_HAL_Driver/Src/stm32n6xx_hal_ramcfg.c ****     switch (CallbackID)
 904:STM32Cube_FW_N6/Drivers/STM32N6xx_HAL_Driver/Src/stm32n6xx_hal_ramcfg.c ****     {
 905:STM32Cube_FW_N6/Drivers/STM32N6xx_HAL_Driver/Src/stm32n6xx_hal_ramcfg.c ****       case HAL_RAMCFG_MSPINIT_CB_ID :
 906:STM32Cube_FW_N6/Drivers/STM32N6xx_HAL_Driver/Src/stm32n6xx_hal_ramcfg.c ****         /* UnRegister msp init callback */
 907:STM32Cube_FW_N6/Drivers/STM32N6xx_HAL_Driver/Src/stm32n6xx_hal_ramcfg.c ****         hramcfg->MspInitCallback = NULL;
 908:STM32Cube_FW_N6/Drivers/STM32N6xx_HAL_Driver/Src/stm32n6xx_hal_ramcfg.c ****         break;
 909:STM32Cube_FW_N6/Drivers/STM32N6xx_HAL_Driver/Src/stm32n6xx_hal_ramcfg.c **** 
 910:STM32Cube_FW_N6/Drivers/STM32N6xx_HAL_Driver/Src/stm32n6xx_hal_ramcfg.c ****       case HAL_RAMCFG_MSPDEINIT_CB_ID :
 911:STM32Cube_FW_N6/Drivers/STM32N6xx_HAL_Driver/Src/stm32n6xx_hal_ramcfg.c ****         /* UnRegister msp de-init callback */
 912:STM32Cube_FW_N6/Drivers/STM32N6xx_HAL_Driver/Src/stm32n6xx_hal_ramcfg.c ****         hramcfg->MspDeInitCallback = NULL;
 913:STM32Cube_FW_N6/Drivers/STM32N6xx_HAL_Driver/Src/stm32n6xx_hal_ramcfg.c ****         break;
 914:STM32Cube_FW_N6/Drivers/STM32N6xx_HAL_Driver/Src/stm32n6xx_hal_ramcfg.c **** 
 915:STM32Cube_FW_N6/Drivers/STM32N6xx_HAL_Driver/Src/stm32n6xx_hal_ramcfg.c ****       case  HAL_RAMCFG_ALL_CB_ID:
 916:STM32Cube_FW_N6/Drivers/STM32N6xx_HAL_Driver/Src/stm32n6xx_hal_ramcfg.c ****         /* UnRegister all available callbacks */
 917:STM32Cube_FW_N6/Drivers/STM32N6xx_HAL_Driver/Src/stm32n6xx_hal_ramcfg.c ****         hramcfg->MspDeInitCallback = NULL;
 918:STM32Cube_FW_N6/Drivers/STM32N6xx_HAL_Driver/Src/stm32n6xx_hal_ramcfg.c ****         hramcfg->MspInitCallback   = NULL;
 919:STM32Cube_FW_N6/Drivers/STM32N6xx_HAL_Driver/Src/stm32n6xx_hal_ramcfg.c ****         break;
 920:STM32Cube_FW_N6/Drivers/STM32N6xx_HAL_Driver/Src/stm32n6xx_hal_ramcfg.c **** 
 921:STM32Cube_FW_N6/Drivers/STM32N6xx_HAL_Driver/Src/stm32n6xx_hal_ramcfg.c ****       default :
 922:STM32Cube_FW_N6/Drivers/STM32N6xx_HAL_Driver/Src/stm32n6xx_hal_ramcfg.c ****         /* Update the error code */
 923:STM32Cube_FW_N6/Drivers/STM32N6xx_HAL_Driver/Src/stm32n6xx_hal_ramcfg.c ****         hramcfg->ErrorCode |= HAL_RAMCFG_ERROR_INVALID_CALLBACK;
 924:STM32Cube_FW_N6/Drivers/STM32N6xx_HAL_Driver/Src/stm32n6xx_hal_ramcfg.c **** 
 925:STM32Cube_FW_N6/Drivers/STM32N6xx_HAL_Driver/Src/stm32n6xx_hal_ramcfg.c ****         /* Update return status */
 926:STM32Cube_FW_N6/Drivers/STM32N6xx_HAL_Driver/Src/stm32n6xx_hal_ramcfg.c ****         status =  HAL_ERROR;
 927:STM32Cube_FW_N6/Drivers/STM32N6xx_HAL_Driver/Src/stm32n6xx_hal_ramcfg.c ****         break;
 928:STM32Cube_FW_N6/Drivers/STM32N6xx_HAL_Driver/Src/stm32n6xx_hal_ramcfg.c ****     }
 929:STM32Cube_FW_N6/Drivers/STM32N6xx_HAL_Driver/Src/stm32n6xx_hal_ramcfg.c ****   }
 930:STM32Cube_FW_N6/Drivers/STM32N6xx_HAL_Driver/Src/stm32n6xx_hal_ramcfg.c ****   else
 931:STM32Cube_FW_N6/Drivers/STM32N6xx_HAL_Driver/Src/stm32n6xx_hal_ramcfg.c ****   {
 932:STM32Cube_FW_N6/Drivers/STM32N6xx_HAL_Driver/Src/stm32n6xx_hal_ramcfg.c ****     /* Update the error code and return error */
 933:STM32Cube_FW_N6/Drivers/STM32N6xx_HAL_Driver/Src/stm32n6xx_hal_ramcfg.c ****     hramcfg->ErrorCode = HAL_RAMCFG_ERROR_INVALID_CALLBACK;
 934:STM32Cube_FW_N6/Drivers/STM32N6xx_HAL_Driver/Src/stm32n6xx_hal_ramcfg.c ****     status = HAL_ERROR;
 935:STM32Cube_FW_N6/Drivers/STM32N6xx_HAL_Driver/Src/stm32n6xx_hal_ramcfg.c ****   }
 936:STM32Cube_FW_N6/Drivers/STM32N6xx_HAL_Driver/Src/stm32n6xx_hal_ramcfg.c **** 
 937:STM32Cube_FW_N6/Drivers/STM32N6xx_HAL_Driver/Src/stm32n6xx_hal_ramcfg.c ****   return status;
 938:STM32Cube_FW_N6/Drivers/STM32N6xx_HAL_Driver/Src/stm32n6xx_hal_ramcfg.c **** }
 939:STM32Cube_FW_N6/Drivers/STM32N6xx_HAL_Driver/Src/stm32n6xx_hal_ramcfg.c **** 
 940:STM32Cube_FW_N6/Drivers/STM32N6xx_HAL_Driver/Src/stm32n6xx_hal_ramcfg.c **** /**
 941:STM32Cube_FW_N6/Drivers/STM32N6xx_HAL_Driver/Src/stm32n6xx_hal_ramcfg.c ****   * @}
 942:STM32Cube_FW_N6/Drivers/STM32N6xx_HAL_Driver/Src/stm32n6xx_hal_ramcfg.c ****   */
 943:STM32Cube_FW_N6/Drivers/STM32N6xx_HAL_Driver/Src/stm32n6xx_hal_ramcfg.c **** #endif /* USE_HAL_RAMCFG_REGISTER_CALLBACKS */
ARM GAS  C:\Users\DJESSOU\AppData\Local\Temp\ccLWLfBx.s 			page 46


 944:STM32Cube_FW_N6/Drivers/STM32N6xx_HAL_Driver/Src/stm32n6xx_hal_ramcfg.c **** 
 945:STM32Cube_FW_N6/Drivers/STM32N6xx_HAL_Driver/Src/stm32n6xx_hal_ramcfg.c **** /** @addtogroup RAMCFG_Exported_Functions_Group7
 946:STM32Cube_FW_N6/Drivers/STM32N6xx_HAL_Driver/Src/stm32n6xx_hal_ramcfg.c ****   *
 947:STM32Cube_FW_N6/Drivers/STM32N6xx_HAL_Driver/Src/stm32n6xx_hal_ramcfg.c **** @verbatim
 948:STM32Cube_FW_N6/Drivers/STM32N6xx_HAL_Driver/Src/stm32n6xx_hal_ramcfg.c ****  ===============================================================================
 949:STM32Cube_FW_N6/Drivers/STM32N6xx_HAL_Driver/Src/stm32n6xx_hal_ramcfg.c ****                     ##### State and Error Functions  #####
 950:STM32Cube_FW_N6/Drivers/STM32N6xx_HAL_Driver/Src/stm32n6xx_hal_ramcfg.c ****  ===============================================================================
 951:STM32Cube_FW_N6/Drivers/STM32N6xx_HAL_Driver/Src/stm32n6xx_hal_ramcfg.c ****     [..]
 952:STM32Cube_FW_N6/Drivers/STM32N6xx_HAL_Driver/Src/stm32n6xx_hal_ramcfg.c ****       This section provides functions to check and get the RAMCFG state
 953:STM32Cube_FW_N6/Drivers/STM32N6xx_HAL_Driver/Src/stm32n6xx_hal_ramcfg.c ****       and the error code.
 954:STM32Cube_FW_N6/Drivers/STM32N6xx_HAL_Driver/Src/stm32n6xx_hal_ramcfg.c ****     [..]
 955:STM32Cube_FW_N6/Drivers/STM32N6xx_HAL_Driver/Src/stm32n6xx_hal_ramcfg.c ****       The HAL_RAMCFG_GetState() function allows the user to get the RAMCFG peripheral
 956:STM32Cube_FW_N6/Drivers/STM32N6xx_HAL_Driver/Src/stm32n6xx_hal_ramcfg.c ****       state.
 957:STM32Cube_FW_N6/Drivers/STM32N6xx_HAL_Driver/Src/stm32n6xx_hal_ramcfg.c ****       The HAL_RAMCFG_GetError() function allows the user to get the RAMCFG peripheral error
 958:STM32Cube_FW_N6/Drivers/STM32N6xx_HAL_Driver/Src/stm32n6xx_hal_ramcfg.c ****       code.
 959:STM32Cube_FW_N6/Drivers/STM32N6xx_HAL_Driver/Src/stm32n6xx_hal_ramcfg.c **** 
 960:STM32Cube_FW_N6/Drivers/STM32N6xx_HAL_Driver/Src/stm32n6xx_hal_ramcfg.c **** @endverbatim
 961:STM32Cube_FW_N6/Drivers/STM32N6xx_HAL_Driver/Src/stm32n6xx_hal_ramcfg.c ****   * @{
 962:STM32Cube_FW_N6/Drivers/STM32N6xx_HAL_Driver/Src/stm32n6xx_hal_ramcfg.c ****   */
 963:STM32Cube_FW_N6/Drivers/STM32N6xx_HAL_Driver/Src/stm32n6xx_hal_ramcfg.c **** 
 964:STM32Cube_FW_N6/Drivers/STM32N6xx_HAL_Driver/Src/stm32n6xx_hal_ramcfg.c **** /**
 965:STM32Cube_FW_N6/Drivers/STM32N6xx_HAL_Driver/Src/stm32n6xx_hal_ramcfg.c ****   * @brief  Get the RAMCFG peripheral state.
 966:STM32Cube_FW_N6/Drivers/STM32N6xx_HAL_Driver/Src/stm32n6xx_hal_ramcfg.c ****   * @param  hramcfg       : Pointer to a RAMCFG_HandleTypeDef structure that
 967:STM32Cube_FW_N6/Drivers/STM32N6xx_HAL_Driver/Src/stm32n6xx_hal_ramcfg.c ****   *                         contains the configuration information for the
 968:STM32Cube_FW_N6/Drivers/STM32N6xx_HAL_Driver/Src/stm32n6xx_hal_ramcfg.c ****   *                         specified RAMCFG instance.
 969:STM32Cube_FW_N6/Drivers/STM32N6xx_HAL_Driver/Src/stm32n6xx_hal_ramcfg.c ****   * @retval RAMCFG state.
 970:STM32Cube_FW_N6/Drivers/STM32N6xx_HAL_Driver/Src/stm32n6xx_hal_ramcfg.c ****   */
 971:STM32Cube_FW_N6/Drivers/STM32N6xx_HAL_Driver/Src/stm32n6xx_hal_ramcfg.c **** HAL_RAMCFG_StateTypeDef HAL_RAMCFG_GetState(const RAMCFG_HandleTypeDef *hramcfg)
 972:STM32Cube_FW_N6/Drivers/STM32N6xx_HAL_Driver/Src/stm32n6xx_hal_ramcfg.c **** {
 1472              		.loc 1 972 1 is_stmt 1 view -0
 1473              		.cfi_startproc
 1474              		@ args = 0, pretend = 0, frame = 0
 1475              		@ frame_needed = 0, uses_anonymous_args = 0
 973:STM32Cube_FW_N6/Drivers/STM32N6xx_HAL_Driver/Src/stm32n6xx_hal_ramcfg.c ****   /* Check the parameters */
 974:STM32Cube_FW_N6/Drivers/STM32N6xx_HAL_Driver/Src/stm32n6xx_hal_ramcfg.c ****   assert_param(IS_RAMCFG_ALL_INSTANCE(hramcfg->Instance));
 1476              		.loc 1 974 3 view .LVU394
 1477 0000 0368     		ldr	r3, [r0]
 1478 0002 324A     		ldr	r2, .L93
 972:STM32Cube_FW_N6/Drivers/STM32N6xx_HAL_Driver/Src/stm32n6xx_hal_ramcfg.c ****   /* Check the parameters */
 1479              		.loc 1 972 1 is_stmt 0 view .LVU395
 1480 0004 10B5     		push	{r4, lr}
 1481              		.cfi_def_cfa_offset 8
 1482              		.cfi_offset 4, -8
 1483              		.cfi_offset 14, -4
 1484              		.loc 1 974 3 view .LVU396
 1485 0006 9342     		cmp	r3, r2
 972:STM32Cube_FW_N6/Drivers/STM32N6xx_HAL_Driver/Src/stm32n6xx_hal_ramcfg.c ****   /* Check the parameters */
 1486              		.loc 1 972 1 view .LVU397
 1487 0008 0446     		mov	r4, r0
 1488              		.loc 1 974 3 view .LVU398
 1489 000a 5CD0     		beq	.L92
 1490              		.loc 1 974 3 discriminator 1 view .LVU399
 1491 000c 02F17042 		add	r2, r2, #-268435456
 1492 0010 9342     		cmp	r3, r2
 1493 0012 58D0     		beq	.L92
 1494              		.loc 1 974 3 discriminator 2 view .LVU400
 1495 0014 02F18052 		add	r2, r2, #268435456
ARM GAS  C:\Users\DJESSOU\AppData\Local\Temp\ccLWLfBx.s 			page 47


 1496 0018 8032     		adds	r2, r2, #128
 1497 001a 9342     		cmp	r3, r2
 1498 001c 53D0     		beq	.L92
 1499              		.loc 1 974 3 discriminator 3 view .LVU401
 1500 001e 02F17042 		add	r2, r2, #-268435456
 1501 0022 9342     		cmp	r3, r2
 1502 0024 4FD0     		beq	.L92
 1503              		.loc 1 974 3 discriminator 4 view .LVU402
 1504 0026 2A4A     		ldr	r2, .L93+4
 1505 0028 9342     		cmp	r3, r2
 1506 002a 4CD0     		beq	.L92
 1507              		.loc 1 974 3 discriminator 5 view .LVU403
 1508 002c 02F17042 		add	r2, r2, #-268435456
 1509 0030 9342     		cmp	r3, r2
 1510 0032 48D0     		beq	.L92
 1511              		.loc 1 974 3 discriminator 6 view .LVU404
 1512 0034 02F18052 		add	r2, r2, #268435456
 1513 0038 8032     		adds	r2, r2, #128
 1514 003a 9342     		cmp	r3, r2
 1515 003c 43D0     		beq	.L92
 1516              		.loc 1 974 3 discriminator 7 view .LVU405
 1517 003e 02F17042 		add	r2, r2, #-268435456
 1518 0042 9342     		cmp	r3, r2
 1519 0044 3FD0     		beq	.L92
 1520              		.loc 1 974 3 discriminator 8 view .LVU406
 1521 0046 02F18052 		add	r2, r2, #268435456
 1522 004a 8032     		adds	r2, r2, #128
 1523 004c 9342     		cmp	r3, r2
 1524 004e 3AD0     		beq	.L92
 1525              		.loc 1 974 3 discriminator 9 view .LVU407
 1526 0050 02F17042 		add	r2, r2, #-268435456
 1527 0054 9342     		cmp	r3, r2
 1528 0056 36D0     		beq	.L92
 1529              		.loc 1 974 3 discriminator 10 view .LVU408
 1530 0058 02F18052 		add	r2, r2, #268435456
 1531 005c 8032     		adds	r2, r2, #128
 1532 005e 9342     		cmp	r3, r2
 1533 0060 31D0     		beq	.L92
 1534              		.loc 1 974 3 discriminator 11 view .LVU409
 1535 0062 02F17042 		add	r2, r2, #-268435456
 1536 0066 9342     		cmp	r3, r2
 1537 0068 2DD0     		beq	.L92
 1538              		.loc 1 974 3 discriminator 12 view .LVU410
 1539 006a 02F18052 		add	r2, r2, #268435456
 1540 006e 8032     		adds	r2, r2, #128
 1541 0070 9342     		cmp	r3, r2
 1542 0072 28D0     		beq	.L92
 1543              		.loc 1 974 3 discriminator 13 view .LVU411
 1544 0074 02F17042 		add	r2, r2, #-268435456
 1545 0078 9342     		cmp	r3, r2
 1546 007a 24D0     		beq	.L92
 1547              		.loc 1 974 3 discriminator 14 view .LVU412
 1548 007c 02F18052 		add	r2, r2, #268435456
 1549 0080 8032     		adds	r2, r2, #128
 1550 0082 9342     		cmp	r3, r2
 1551 0084 1FD0     		beq	.L92
 1552              		.loc 1 974 3 discriminator 15 view .LVU413
ARM GAS  C:\Users\DJESSOU\AppData\Local\Temp\ccLWLfBx.s 			page 48


 1553 0086 02F17042 		add	r2, r2, #-268435456
 1554 008a 9342     		cmp	r3, r2
 1555 008c 1BD0     		beq	.L92
 1556              		.loc 1 974 3 discriminator 16 view .LVU414
 1557 008e 02F18052 		add	r2, r2, #268435456
 1558 0092 02F50072 		add	r2, r2, #512
 1559 0096 9342     		cmp	r3, r2
 1560 0098 15D0     		beq	.L92
 1561              		.loc 1 974 3 discriminator 17 view .LVU415
 1562 009a 02F17042 		add	r2, r2, #-268435456
 1563 009e 9342     		cmp	r3, r2
 1564 00a0 11D0     		beq	.L92
 1565              		.loc 1 974 3 discriminator 18 view .LVU416
 1566 00a2 02F18052 		add	r2, r2, #268435456
 1567 00a6 8032     		adds	r2, r2, #128
 1568 00a8 9342     		cmp	r3, r2
 1569 00aa 0CD0     		beq	.L92
 1570              		.loc 1 974 3 discriminator 19 view .LVU417
 1571 00ac 02F17042 		add	r2, r2, #-268435456
 1572 00b0 9342     		cmp	r3, r2
 1573 00b2 08D0     		beq	.L92
 1574              		.loc 1 974 3 discriminator 20 view .LVU418
 1575 00b4 A2F58072 		sub	r2, r2, #256
 1576 00b8 9342     		cmp	r3, r2
 1577 00ba 04D0     		beq	.L92
 1578              		.loc 1 974 3 discriminator 22 view .LVU419
 1579 00bc 40F2CE31 		movw	r1, #974
 1580 00c0 0448     		ldr	r0, .L93+8
 1581              	.LVL68:
 1582              		.loc 1 974 3 discriminator 22 view .LVU420
 1583 00c2 FFF7FEFF 		bl	assert_failed
 1584              	.LVL69:
 1585              	.L92:
 975:STM32Cube_FW_N6/Drivers/STM32N6xx_HAL_Driver/Src/stm32n6xx_hal_ramcfg.c **** 
 976:STM32Cube_FW_N6/Drivers/STM32N6xx_HAL_Driver/Src/stm32n6xx_hal_ramcfg.c ****   /* Return the RAMCFG state */
 977:STM32Cube_FW_N6/Drivers/STM32N6xx_HAL_Driver/Src/stm32n6xx_hal_ramcfg.c ****   return hramcfg->State;
 1586              		.loc 1 977 3 is_stmt 1 view .LVU421
 1587              		.loc 1 977 17 is_stmt 0 view .LVU422
 1588 00c6 2079     		ldrb	r0, [r4, #4]	@ zero_extendqisi2
 978:STM32Cube_FW_N6/Drivers/STM32N6xx_HAL_Driver/Src/stm32n6xx_hal_ramcfg.c **** }
 1589              		.loc 1 978 1 view .LVU423
 1590 00c8 10BD     		pop	{r4, pc}
 1591              	.LVL70:
 1592              	.L94:
 1593              		.loc 1 978 1 view .LVU424
 1594 00ca 00BF     		.align	2
 1595              	.L93:
 1596 00cc 00330252 		.word	1375875840
 1597 00d0 00300252 		.word	1375875072
 1598 00d4 00000000 		.word	.LC0
 1599              		.cfi_endproc
 1600              	.LFE878:
 1602              		.section	.text.HAL_RAMCFG_GetError,"ax",%progbits
 1603              		.align	1
 1604              		.global	HAL_RAMCFG_GetError
 1605              		.syntax unified
 1606              		.thumb
ARM GAS  C:\Users\DJESSOU\AppData\Local\Temp\ccLWLfBx.s 			page 49


 1607              		.thumb_func
 1609              	HAL_RAMCFG_GetError:
 1610              	.LVL71:
 1611              	.LFB879:
 979:STM32Cube_FW_N6/Drivers/STM32N6xx_HAL_Driver/Src/stm32n6xx_hal_ramcfg.c **** 
 980:STM32Cube_FW_N6/Drivers/STM32N6xx_HAL_Driver/Src/stm32n6xx_hal_ramcfg.c **** /**
 981:STM32Cube_FW_N6/Drivers/STM32N6xx_HAL_Driver/Src/stm32n6xx_hal_ramcfg.c ****   * @brief  Get the RAMCFG peripheral error code.
 982:STM32Cube_FW_N6/Drivers/STM32N6xx_HAL_Driver/Src/stm32n6xx_hal_ramcfg.c ****   * @param  hramcfg       : Pointer to a RAMCFG_HandleTypeDef structure that
 983:STM32Cube_FW_N6/Drivers/STM32N6xx_HAL_Driver/Src/stm32n6xx_hal_ramcfg.c ****   *                         contains the configuration information for the
 984:STM32Cube_FW_N6/Drivers/STM32N6xx_HAL_Driver/Src/stm32n6xx_hal_ramcfg.c ****   *                         specified RAMCFG instance.
 985:STM32Cube_FW_N6/Drivers/STM32N6xx_HAL_Driver/Src/stm32n6xx_hal_ramcfg.c ****   * @retval RAMCFG error code.
 986:STM32Cube_FW_N6/Drivers/STM32N6xx_HAL_Driver/Src/stm32n6xx_hal_ramcfg.c ****   */
 987:STM32Cube_FW_N6/Drivers/STM32N6xx_HAL_Driver/Src/stm32n6xx_hal_ramcfg.c **** uint32_t HAL_RAMCFG_GetError(const RAMCFG_HandleTypeDef *hramcfg)
 988:STM32Cube_FW_N6/Drivers/STM32N6xx_HAL_Driver/Src/stm32n6xx_hal_ramcfg.c **** {
 1612              		.loc 1 988 1 is_stmt 1 view -0
 1613              		.cfi_startproc
 1614              		@ args = 0, pretend = 0, frame = 0
 1615              		@ frame_needed = 0, uses_anonymous_args = 0
 989:STM32Cube_FW_N6/Drivers/STM32N6xx_HAL_Driver/Src/stm32n6xx_hal_ramcfg.c ****   /* Check the parameters */
 990:STM32Cube_FW_N6/Drivers/STM32N6xx_HAL_Driver/Src/stm32n6xx_hal_ramcfg.c ****   assert_param(IS_RAMCFG_ALL_INSTANCE(hramcfg->Instance));
 1616              		.loc 1 990 3 view .LVU426
 1617 0000 0368     		ldr	r3, [r0]
 1618 0002 324A     		ldr	r2, .L97
 988:STM32Cube_FW_N6/Drivers/STM32N6xx_HAL_Driver/Src/stm32n6xx_hal_ramcfg.c ****   /* Check the parameters */
 1619              		.loc 1 988 1 is_stmt 0 view .LVU427
 1620 0004 10B5     		push	{r4, lr}
 1621              		.cfi_def_cfa_offset 8
 1622              		.cfi_offset 4, -8
 1623              		.cfi_offset 14, -4
 1624              		.loc 1 990 3 view .LVU428
 1625 0006 9342     		cmp	r3, r2
 988:STM32Cube_FW_N6/Drivers/STM32N6xx_HAL_Driver/Src/stm32n6xx_hal_ramcfg.c ****   /* Check the parameters */
 1626              		.loc 1 988 1 view .LVU429
 1627 0008 0446     		mov	r4, r0
 1628              		.loc 1 990 3 view .LVU430
 1629 000a 5CD0     		beq	.L96
 1630              		.loc 1 990 3 discriminator 1 view .LVU431
 1631 000c 02F17042 		add	r2, r2, #-268435456
 1632 0010 9342     		cmp	r3, r2
 1633 0012 58D0     		beq	.L96
 1634              		.loc 1 990 3 discriminator 2 view .LVU432
 1635 0014 02F18052 		add	r2, r2, #268435456
 1636 0018 8032     		adds	r2, r2, #128
 1637 001a 9342     		cmp	r3, r2
 1638 001c 53D0     		beq	.L96
 1639              		.loc 1 990 3 discriminator 3 view .LVU433
 1640 001e 02F17042 		add	r2, r2, #-268435456
 1641 0022 9342     		cmp	r3, r2
 1642 0024 4FD0     		beq	.L96
 1643              		.loc 1 990 3 discriminator 4 view .LVU434
 1644 0026 2A4A     		ldr	r2, .L97+4
 1645 0028 9342     		cmp	r3, r2
 1646 002a 4CD0     		beq	.L96
 1647              		.loc 1 990 3 discriminator 5 view .LVU435
 1648 002c 02F17042 		add	r2, r2, #-268435456
 1649 0030 9342     		cmp	r3, r2
 1650 0032 48D0     		beq	.L96
ARM GAS  C:\Users\DJESSOU\AppData\Local\Temp\ccLWLfBx.s 			page 50


 1651              		.loc 1 990 3 discriminator 6 view .LVU436
 1652 0034 02F18052 		add	r2, r2, #268435456
 1653 0038 8032     		adds	r2, r2, #128
 1654 003a 9342     		cmp	r3, r2
 1655 003c 43D0     		beq	.L96
 1656              		.loc 1 990 3 discriminator 7 view .LVU437
 1657 003e 02F17042 		add	r2, r2, #-268435456
 1658 0042 9342     		cmp	r3, r2
 1659 0044 3FD0     		beq	.L96
 1660              		.loc 1 990 3 discriminator 8 view .LVU438
 1661 0046 02F18052 		add	r2, r2, #268435456
 1662 004a 8032     		adds	r2, r2, #128
 1663 004c 9342     		cmp	r3, r2
 1664 004e 3AD0     		beq	.L96
 1665              		.loc 1 990 3 discriminator 9 view .LVU439
 1666 0050 02F17042 		add	r2, r2, #-268435456
 1667 0054 9342     		cmp	r3, r2
 1668 0056 36D0     		beq	.L96
 1669              		.loc 1 990 3 discriminator 10 view .LVU440
 1670 0058 02F18052 		add	r2, r2, #268435456
 1671 005c 8032     		adds	r2, r2, #128
 1672 005e 9342     		cmp	r3, r2
 1673 0060 31D0     		beq	.L96
 1674              		.loc 1 990 3 discriminator 11 view .LVU441
 1675 0062 02F17042 		add	r2, r2, #-268435456
 1676 0066 9342     		cmp	r3, r2
 1677 0068 2DD0     		beq	.L96
 1678              		.loc 1 990 3 discriminator 12 view .LVU442
 1679 006a 02F18052 		add	r2, r2, #268435456
 1680 006e 8032     		adds	r2, r2, #128
 1681 0070 9342     		cmp	r3, r2
 1682 0072 28D0     		beq	.L96
 1683              		.loc 1 990 3 discriminator 13 view .LVU443
 1684 0074 02F17042 		add	r2, r2, #-268435456
 1685 0078 9342     		cmp	r3, r2
 1686 007a 24D0     		beq	.L96
 1687              		.loc 1 990 3 discriminator 14 view .LVU444
 1688 007c 02F18052 		add	r2, r2, #268435456
 1689 0080 8032     		adds	r2, r2, #128
 1690 0082 9342     		cmp	r3, r2
 1691 0084 1FD0     		beq	.L96
 1692              		.loc 1 990 3 discriminator 15 view .LVU445
 1693 0086 02F17042 		add	r2, r2, #-268435456
 1694 008a 9342     		cmp	r3, r2
 1695 008c 1BD0     		beq	.L96
 1696              		.loc 1 990 3 discriminator 16 view .LVU446
 1697 008e 02F18052 		add	r2, r2, #268435456
 1698 0092 02F50072 		add	r2, r2, #512
 1699 0096 9342     		cmp	r3, r2
 1700 0098 15D0     		beq	.L96
 1701              		.loc 1 990 3 discriminator 17 view .LVU447
 1702 009a 02F17042 		add	r2, r2, #-268435456
 1703 009e 9342     		cmp	r3, r2
 1704 00a0 11D0     		beq	.L96
 1705              		.loc 1 990 3 discriminator 18 view .LVU448
 1706 00a2 02F18052 		add	r2, r2, #268435456
 1707 00a6 8032     		adds	r2, r2, #128
ARM GAS  C:\Users\DJESSOU\AppData\Local\Temp\ccLWLfBx.s 			page 51


 1708 00a8 9342     		cmp	r3, r2
 1709 00aa 0CD0     		beq	.L96
 1710              		.loc 1 990 3 discriminator 19 view .LVU449
 1711 00ac 02F17042 		add	r2, r2, #-268435456
 1712 00b0 9342     		cmp	r3, r2
 1713 00b2 08D0     		beq	.L96
 1714              		.loc 1 990 3 discriminator 20 view .LVU450
 1715 00b4 A2F58072 		sub	r2, r2, #256
 1716 00b8 9342     		cmp	r3, r2
 1717 00ba 04D0     		beq	.L96
 1718              		.loc 1 990 3 discriminator 22 view .LVU451
 1719 00bc 40F2DE31 		movw	r1, #990
 1720 00c0 0448     		ldr	r0, .L97+8
 1721              	.LVL72:
 1722              		.loc 1 990 3 discriminator 22 view .LVU452
 1723 00c2 FFF7FEFF 		bl	assert_failed
 1724              	.LVL73:
 1725              	.L96:
 991:STM32Cube_FW_N6/Drivers/STM32N6xx_HAL_Driver/Src/stm32n6xx_hal_ramcfg.c **** 
 992:STM32Cube_FW_N6/Drivers/STM32N6xx_HAL_Driver/Src/stm32n6xx_hal_ramcfg.c ****   /* Return the RAMCFG error code */
 993:STM32Cube_FW_N6/Drivers/STM32N6xx_HAL_Driver/Src/stm32n6xx_hal_ramcfg.c ****   return hramcfg->ErrorCode;
 1726              		.loc 1 993 3 is_stmt 1 view .LVU453
 1727              		.loc 1 993 17 is_stmt 0 view .LVU454
 1728 00c6 A068     		ldr	r0, [r4, #8]
 994:STM32Cube_FW_N6/Drivers/STM32N6xx_HAL_Driver/Src/stm32n6xx_hal_ramcfg.c **** }
 1729              		.loc 1 994 1 view .LVU455
 1730 00c8 10BD     		pop	{r4, pc}
 1731              	.LVL74:
 1732              	.L98:
 1733              		.loc 1 994 1 view .LVU456
 1734 00ca 00BF     		.align	2
 1735              	.L97:
 1736 00cc 00330252 		.word	1375875840
 1737 00d0 00300252 		.word	1375875072
 1738 00d4 00000000 		.word	.LC0
 1739              		.cfi_endproc
 1740              	.LFE879:
 1742              		.section	.text.HAL_RAMCFG_EnableAXISRAM,"ax",%progbits
 1743              		.align	1
 1744              		.global	HAL_RAMCFG_EnableAXISRAM
 1745              		.syntax unified
 1746              		.thumb
 1747              		.thumb_func
 1749              	HAL_RAMCFG_EnableAXISRAM:
 1750              	.LVL75:
 1751              	.LFB880:
 995:STM32Cube_FW_N6/Drivers/STM32N6xx_HAL_Driver/Src/stm32n6xx_hal_ramcfg.c **** 
 996:STM32Cube_FW_N6/Drivers/STM32N6xx_HAL_Driver/Src/stm32n6xx_hal_ramcfg.c **** /**
 997:STM32Cube_FW_N6/Drivers/STM32N6xx_HAL_Driver/Src/stm32n6xx_hal_ramcfg.c ****   * @}
 998:STM32Cube_FW_N6/Drivers/STM32N6xx_HAL_Driver/Src/stm32n6xx_hal_ramcfg.c ****   */
 999:STM32Cube_FW_N6/Drivers/STM32N6xx_HAL_Driver/Src/stm32n6xx_hal_ramcfg.c **** 
1000:STM32Cube_FW_N6/Drivers/STM32N6xx_HAL_Driver/Src/stm32n6xx_hal_ramcfg.c **** 
1001:STM32Cube_FW_N6/Drivers/STM32N6xx_HAL_Driver/Src/stm32n6xx_hal_ramcfg.c **** 
1002:STM32Cube_FW_N6/Drivers/STM32N6xx_HAL_Driver/Src/stm32n6xx_hal_ramcfg.c **** /** @addtogroup RAMCFG_Exported_Functions_Group9
1003:STM32Cube_FW_N6/Drivers/STM32N6xx_HAL_Driver/Src/stm32n6xx_hal_ramcfg.c ****   *
1004:STM32Cube_FW_N6/Drivers/STM32N6xx_HAL_Driver/Src/stm32n6xx_hal_ramcfg.c **** @verbatim
1005:STM32Cube_FW_N6/Drivers/STM32N6xx_HAL_Driver/Src/stm32n6xx_hal_ramcfg.c ****  ===============================================================================
ARM GAS  C:\Users\DJESSOU\AppData\Local\Temp\ccLWLfBx.s 			page 52


1006:STM32Cube_FW_N6/Drivers/STM32N6xx_HAL_Driver/Src/stm32n6xx_hal_ramcfg.c ****                       ##### AXISRAM Powerdown Functions  #####
1007:STM32Cube_FW_N6/Drivers/STM32N6xx_HAL_Driver/Src/stm32n6xx_hal_ramcfg.c ****  ===============================================================================
1008:STM32Cube_FW_N6/Drivers/STM32N6xx_HAL_Driver/Src/stm32n6xx_hal_ramcfg.c ****     [..]
1009:STM32Cube_FW_N6/Drivers/STM32N6xx_HAL_Driver/Src/stm32n6xx_hal_ramcfg.c ****       This section provides functions allowing to shutdown some AXISRAM memories
1010:STM32Cube_FW_N6/Drivers/STM32N6xx_HAL_Driver/Src/stm32n6xx_hal_ramcfg.c ****       reduce the consumption.
1011:STM32Cube_FW_N6/Drivers/STM32N6xx_HAL_Driver/Src/stm32n6xx_hal_ramcfg.c ****     [..]
1012:STM32Cube_FW_N6/Drivers/STM32N6xx_HAL_Driver/Src/stm32n6xx_hal_ramcfg.c ****       The HAL_RAMCFG_EnableAXISRAM() function allows to power on the selected AXISRAM.
1013:STM32Cube_FW_N6/Drivers/STM32N6xx_HAL_Driver/Src/stm32n6xx_hal_ramcfg.c ****     [..]
1014:STM32Cube_FW_N6/Drivers/STM32N6xx_HAL_Driver/Src/stm32n6xx_hal_ramcfg.c ****       The HAL_RAMCFG_DisableAXISRAM() function allows to power off the selected AXISRAM.
1015:STM32Cube_FW_N6/Drivers/STM32N6xx_HAL_Driver/Src/stm32n6xx_hal_ramcfg.c ****       AXISRAMi memory is in shutdown, and its content is not retained.
1016:STM32Cube_FW_N6/Drivers/STM32N6xx_HAL_Driver/Src/stm32n6xx_hal_ramcfg.c **** @endverbatim
1017:STM32Cube_FW_N6/Drivers/STM32N6xx_HAL_Driver/Src/stm32n6xx_hal_ramcfg.c ****   * @{
1018:STM32Cube_FW_N6/Drivers/STM32N6xx_HAL_Driver/Src/stm32n6xx_hal_ramcfg.c ****   */
1019:STM32Cube_FW_N6/Drivers/STM32N6xx_HAL_Driver/Src/stm32n6xx_hal_ramcfg.c **** 
1020:STM32Cube_FW_N6/Drivers/STM32N6xx_HAL_Driver/Src/stm32n6xx_hal_ramcfg.c **** /**
1021:STM32Cube_FW_N6/Drivers/STM32N6xx_HAL_Driver/Src/stm32n6xx_hal_ramcfg.c ****   * @brief  Enable AXISRAM power on.
1022:STM32Cube_FW_N6/Drivers/STM32N6xx_HAL_Driver/Src/stm32n6xx_hal_ramcfg.c ****   * @note   Only AXISRAM2 to AXISRAM6 are available for this feature.
1023:STM32Cube_FW_N6/Drivers/STM32N6xx_HAL_Driver/Src/stm32n6xx_hal_ramcfg.c ****   * @param  hramcfg : Pointer to a RAMCFG_HandleTypeDef structure that
1024:STM32Cube_FW_N6/Drivers/STM32N6xx_HAL_Driver/Src/stm32n6xx_hal_ramcfg.c ****   *                   contains the configuration information for the
1025:STM32Cube_FW_N6/Drivers/STM32N6xx_HAL_Driver/Src/stm32n6xx_hal_ramcfg.c ****   *                   specified RAMCFG instance.
1026:STM32Cube_FW_N6/Drivers/STM32N6xx_HAL_Driver/Src/stm32n6xx_hal_ramcfg.c ****   * @retval None.
1027:STM32Cube_FW_N6/Drivers/STM32N6xx_HAL_Driver/Src/stm32n6xx_hal_ramcfg.c ****   */
1028:STM32Cube_FW_N6/Drivers/STM32N6xx_HAL_Driver/Src/stm32n6xx_hal_ramcfg.c **** void HAL_RAMCFG_EnableAXISRAM(const RAMCFG_HandleTypeDef *hramcfg)
1029:STM32Cube_FW_N6/Drivers/STM32N6xx_HAL_Driver/Src/stm32n6xx_hal_ramcfg.c **** {
 1752              		.loc 1 1029 1 is_stmt 1 view -0
 1753              		.cfi_startproc
 1754              		@ args = 0, pretend = 0, frame = 0
 1755              		@ frame_needed = 0, uses_anonymous_args = 0
1030:STM32Cube_FW_N6/Drivers/STM32N6xx_HAL_Driver/Src/stm32n6xx_hal_ramcfg.c ****   /* Check the parameters */
1031:STM32Cube_FW_N6/Drivers/STM32N6xx_HAL_Driver/Src/stm32n6xx_hal_ramcfg.c ****   assert_param(IS_RAMCFG_AXISRAM_POWERDOWN_INSTANCE(hramcfg->Instance));
 1756              		.loc 1 1031 3 view .LVU458
 1757 0000 0368     		ldr	r3, [r0]
 1758 0002 1C4A     		ldr	r2, .L101
1029:STM32Cube_FW_N6/Drivers/STM32N6xx_HAL_Driver/Src/stm32n6xx_hal_ramcfg.c ****   /* Check the parameters */
 1759              		.loc 1 1029 1 is_stmt 0 view .LVU459
 1760 0004 10B5     		push	{r4, lr}
 1761              		.cfi_def_cfa_offset 8
 1762              		.cfi_offset 4, -8
 1763              		.cfi_offset 14, -4
 1764              		.loc 1 1031 3 view .LVU460
 1765 0006 9342     		cmp	r3, r2
1029:STM32Cube_FW_N6/Drivers/STM32N6xx_HAL_Driver/Src/stm32n6xx_hal_ramcfg.c ****   /* Check the parameters */
 1766              		.loc 1 1029 1 view .LVU461
 1767 0008 0446     		mov	r4, r0
 1768              		.loc 1 1031 3 view .LVU462
 1769 000a 2CD0     		beq	.L100
 1770              		.loc 1 1031 3 discriminator 1 view .LVU463
 1771 000c 02F17042 		add	r2, r2, #-268435456
 1772 0010 9342     		cmp	r3, r2
 1773 0012 28D0     		beq	.L100
 1774              		.loc 1 1031 3 discriminator 2 view .LVU464
 1775 0014 02F18052 		add	r2, r2, #268435456
 1776 0018 8032     		adds	r2, r2, #128
 1777 001a 9342     		cmp	r3, r2
 1778 001c 23D0     		beq	.L100
 1779              		.loc 1 1031 3 discriminator 3 view .LVU465
 1780 001e 02F17042 		add	r2, r2, #-268435456
ARM GAS  C:\Users\DJESSOU\AppData\Local\Temp\ccLWLfBx.s 			page 53


 1781 0022 9342     		cmp	r3, r2
 1782 0024 1FD0     		beq	.L100
 1783              		.loc 1 1031 3 discriminator 4 view .LVU466
 1784 0026 02F18052 		add	r2, r2, #268435456
 1785 002a 8032     		adds	r2, r2, #128
 1786 002c 9342     		cmp	r3, r2
 1787 002e 1AD0     		beq	.L100
 1788              		.loc 1 1031 3 discriminator 5 view .LVU467
 1789 0030 02F17042 		add	r2, r2, #-268435456
 1790 0034 9342     		cmp	r3, r2
 1791 0036 16D0     		beq	.L100
 1792              		.loc 1 1031 3 discriminator 6 view .LVU468
 1793 0038 02F18052 		add	r2, r2, #268435456
 1794 003c 8032     		adds	r2, r2, #128
 1795 003e 9342     		cmp	r3, r2
 1796 0040 11D0     		beq	.L100
 1797              		.loc 1 1031 3 discriminator 7 view .LVU469
 1798 0042 02F17042 		add	r2, r2, #-268435456
 1799 0046 9342     		cmp	r3, r2
 1800 0048 0DD0     		beq	.L100
 1801              		.loc 1 1031 3 discriminator 8 view .LVU470
 1802 004a 02F18052 		add	r2, r2, #268435456
 1803 004e 8032     		adds	r2, r2, #128
 1804 0050 9342     		cmp	r3, r2
 1805 0052 08D0     		beq	.L100
 1806              		.loc 1 1031 3 discriminator 9 view .LVU471
 1807 0054 02F17042 		add	r2, r2, #-268435456
 1808 0058 9342     		cmp	r3, r2
 1809 005a 04D0     		beq	.L100
 1810              		.loc 1 1031 3 discriminator 10 view .LVU472
 1811 005c 40F20741 		movw	r1, #1031
 1812 0060 0548     		ldr	r0, .L101+4
 1813              	.LVL76:
 1814              		.loc 1 1031 3 discriminator 10 view .LVU473
 1815 0062 FFF7FEFF 		bl	assert_failed
 1816              	.LVL77:
 1817              	.L100:
1032:STM32Cube_FW_N6/Drivers/STM32N6xx_HAL_Driver/Src/stm32n6xx_hal_ramcfg.c **** 
1033:STM32Cube_FW_N6/Drivers/STM32N6xx_HAL_Driver/Src/stm32n6xx_hal_ramcfg.c ****   /* AXISRAMi power on */
1034:STM32Cube_FW_N6/Drivers/STM32N6xx_HAL_Driver/Src/stm32n6xx_hal_ramcfg.c ****   CLEAR_BIT(hramcfg->Instance->CR, RAMCFG_AXISRAM_POWERDOWN);
 1818              		.loc 1 1034 3 is_stmt 1 view .LVU474
 1819 0066 2268     		ldr	r2, [r4]
 1820 0068 1368     		ldr	r3, [r2]
 1821 006a 23F48013 		bic	r3, r3, #1048576
 1822 006e 1360     		str	r3, [r2]
1035:STM32Cube_FW_N6/Drivers/STM32N6xx_HAL_Driver/Src/stm32n6xx_hal_ramcfg.c **** }
 1823              		.loc 1 1035 1 is_stmt 0 view .LVU475
 1824 0070 10BD     		pop	{r4, pc}
 1825              	.LVL78:
 1826              	.L102:
 1827              		.loc 1 1035 1 view .LVU476
 1828 0072 00BF     		.align	2
 1829              	.L101:
 1830 0074 80300252 		.word	1375875200
 1831 0078 00000000 		.word	.LC0
 1832              		.cfi_endproc
 1833              	.LFE880:
ARM GAS  C:\Users\DJESSOU\AppData\Local\Temp\ccLWLfBx.s 			page 54


 1835              		.section	.text.HAL_RAMCFG_DisableAXISRAM,"ax",%progbits
 1836              		.align	1
 1837              		.global	HAL_RAMCFG_DisableAXISRAM
 1838              		.syntax unified
 1839              		.thumb
 1840              		.thumb_func
 1842              	HAL_RAMCFG_DisableAXISRAM:
 1843              	.LVL79:
 1844              	.LFB881:
1036:STM32Cube_FW_N6/Drivers/STM32N6xx_HAL_Driver/Src/stm32n6xx_hal_ramcfg.c **** 
1037:STM32Cube_FW_N6/Drivers/STM32N6xx_HAL_Driver/Src/stm32n6xx_hal_ramcfg.c **** /**
1038:STM32Cube_FW_N6/Drivers/STM32N6xx_HAL_Driver/Src/stm32n6xx_hal_ramcfg.c ****   * @brief  Disable AXISRAM power on.
1039:STM32Cube_FW_N6/Drivers/STM32N6xx_HAL_Driver/Src/stm32n6xx_hal_ramcfg.c ****   * @note   Only AXISRAM2 to AXISRAM6 are available for this feature.
1040:STM32Cube_FW_N6/Drivers/STM32N6xx_HAL_Driver/Src/stm32n6xx_hal_ramcfg.c ****   * @note   AXISRAMi memory is in shutdown, and its content is not retained.
1041:STM32Cube_FW_N6/Drivers/STM32N6xx_HAL_Driver/Src/stm32n6xx_hal_ramcfg.c ****   * @note   This bit is used to reduce the consumption by powering off the AXISRAMi.
1042:STM32Cube_FW_N6/Drivers/STM32N6xx_HAL_Driver/Src/stm32n6xx_hal_ramcfg.c ****   * @param  hramcfg : Pointer to a RAMCFG_HandleTypeDef structure that
1043:STM32Cube_FW_N6/Drivers/STM32N6xx_HAL_Driver/Src/stm32n6xx_hal_ramcfg.c ****   *                   contains the configuration information for the
1044:STM32Cube_FW_N6/Drivers/STM32N6xx_HAL_Driver/Src/stm32n6xx_hal_ramcfg.c ****   *                   specified RAMCFG instance.
1045:STM32Cube_FW_N6/Drivers/STM32N6xx_HAL_Driver/Src/stm32n6xx_hal_ramcfg.c ****   * @retval None.
1046:STM32Cube_FW_N6/Drivers/STM32N6xx_HAL_Driver/Src/stm32n6xx_hal_ramcfg.c ****   */
1047:STM32Cube_FW_N6/Drivers/STM32N6xx_HAL_Driver/Src/stm32n6xx_hal_ramcfg.c **** void HAL_RAMCFG_DisableAXISRAM(const RAMCFG_HandleTypeDef *hramcfg)
1048:STM32Cube_FW_N6/Drivers/STM32N6xx_HAL_Driver/Src/stm32n6xx_hal_ramcfg.c **** {
 1845              		.loc 1 1048 1 is_stmt 1 view -0
 1846              		.cfi_startproc
 1847              		@ args = 0, pretend = 0, frame = 0
 1848              		@ frame_needed = 0, uses_anonymous_args = 0
1049:STM32Cube_FW_N6/Drivers/STM32N6xx_HAL_Driver/Src/stm32n6xx_hal_ramcfg.c ****   /* Check the parameters */
1050:STM32Cube_FW_N6/Drivers/STM32N6xx_HAL_Driver/Src/stm32n6xx_hal_ramcfg.c ****   assert_param(IS_RAMCFG_AXISRAM_POWERDOWN_INSTANCE(hramcfg->Instance));
 1849              		.loc 1 1050 3 view .LVU478
 1850 0000 0368     		ldr	r3, [r0]
 1851 0002 1C4A     		ldr	r2, .L105
1048:STM32Cube_FW_N6/Drivers/STM32N6xx_HAL_Driver/Src/stm32n6xx_hal_ramcfg.c ****   /* Check the parameters */
 1852              		.loc 1 1048 1 is_stmt 0 view .LVU479
 1853 0004 10B5     		push	{r4, lr}
 1854              		.cfi_def_cfa_offset 8
 1855              		.cfi_offset 4, -8
 1856              		.cfi_offset 14, -4
 1857              		.loc 1 1050 3 view .LVU480
 1858 0006 9342     		cmp	r3, r2
1048:STM32Cube_FW_N6/Drivers/STM32N6xx_HAL_Driver/Src/stm32n6xx_hal_ramcfg.c ****   /* Check the parameters */
 1859              		.loc 1 1048 1 view .LVU481
 1860 0008 0446     		mov	r4, r0
 1861              		.loc 1 1050 3 view .LVU482
 1862 000a 2CD0     		beq	.L104
 1863              		.loc 1 1050 3 discriminator 1 view .LVU483
 1864 000c 02F17042 		add	r2, r2, #-268435456
 1865 0010 9342     		cmp	r3, r2
 1866 0012 28D0     		beq	.L104
 1867              		.loc 1 1050 3 discriminator 2 view .LVU484
 1868 0014 02F18052 		add	r2, r2, #268435456
 1869 0018 8032     		adds	r2, r2, #128
 1870 001a 9342     		cmp	r3, r2
 1871 001c 23D0     		beq	.L104
 1872              		.loc 1 1050 3 discriminator 3 view .LVU485
 1873 001e 02F17042 		add	r2, r2, #-268435456
 1874 0022 9342     		cmp	r3, r2
 1875 0024 1FD0     		beq	.L104
ARM GAS  C:\Users\DJESSOU\AppData\Local\Temp\ccLWLfBx.s 			page 55


 1876              		.loc 1 1050 3 discriminator 4 view .LVU486
 1877 0026 02F18052 		add	r2, r2, #268435456
 1878 002a 8032     		adds	r2, r2, #128
 1879 002c 9342     		cmp	r3, r2
 1880 002e 1AD0     		beq	.L104
 1881              		.loc 1 1050 3 discriminator 5 view .LVU487
 1882 0030 02F17042 		add	r2, r2, #-268435456
 1883 0034 9342     		cmp	r3, r2
 1884 0036 16D0     		beq	.L104
 1885              		.loc 1 1050 3 discriminator 6 view .LVU488
 1886 0038 02F18052 		add	r2, r2, #268435456
 1887 003c 8032     		adds	r2, r2, #128
 1888 003e 9342     		cmp	r3, r2
 1889 0040 11D0     		beq	.L104
 1890              		.loc 1 1050 3 discriminator 7 view .LVU489
 1891 0042 02F17042 		add	r2, r2, #-268435456
 1892 0046 9342     		cmp	r3, r2
 1893 0048 0DD0     		beq	.L104
 1894              		.loc 1 1050 3 discriminator 8 view .LVU490
 1895 004a 02F18052 		add	r2, r2, #268435456
 1896 004e 8032     		adds	r2, r2, #128
 1897 0050 9342     		cmp	r3, r2
 1898 0052 08D0     		beq	.L104
 1899              		.loc 1 1050 3 discriminator 9 view .LVU491
 1900 0054 02F17042 		add	r2, r2, #-268435456
 1901 0058 9342     		cmp	r3, r2
 1902 005a 04D0     		beq	.L104
 1903              		.loc 1 1050 3 discriminator 10 view .LVU492
 1904 005c 40F21A41 		movw	r1, #1050
 1905 0060 0548     		ldr	r0, .L105+4
 1906              	.LVL80:
 1907              		.loc 1 1050 3 discriminator 10 view .LVU493
 1908 0062 FFF7FEFF 		bl	assert_failed
 1909              	.LVL81:
 1910              	.L104:
1051:STM32Cube_FW_N6/Drivers/STM32N6xx_HAL_Driver/Src/stm32n6xx_hal_ramcfg.c **** 
1052:STM32Cube_FW_N6/Drivers/STM32N6xx_HAL_Driver/Src/stm32n6xx_hal_ramcfg.c ****   /* AXISRAMi powered off */
1053:STM32Cube_FW_N6/Drivers/STM32N6xx_HAL_Driver/Src/stm32n6xx_hal_ramcfg.c ****   SET_BIT(hramcfg->Instance->CR, RAMCFG_AXISRAM_POWERDOWN);
 1911              		.loc 1 1053 3 is_stmt 1 view .LVU494
 1912 0066 2268     		ldr	r2, [r4]
 1913 0068 1368     		ldr	r3, [r2]
 1914 006a 43F48013 		orr	r3, r3, #1048576
 1915 006e 1360     		str	r3, [r2]
1054:STM32Cube_FW_N6/Drivers/STM32N6xx_HAL_Driver/Src/stm32n6xx_hal_ramcfg.c **** }
 1916              		.loc 1 1054 1 is_stmt 0 view .LVU495
 1917 0070 10BD     		pop	{r4, pc}
 1918              	.LVL82:
 1919              	.L106:
 1920              		.loc 1 1054 1 view .LVU496
 1921 0072 00BF     		.align	2
 1922              	.L105:
 1923 0074 80300252 		.word	1375875200
 1924 0078 00000000 		.word	.LC0
 1925              		.cfi_endproc
 1926              	.LFE881:
 1928              		.text
 1929              	.Letext0:
ARM GAS  C:\Users\DJESSOU\AppData\Local\Temp\ccLWLfBx.s 			page 56


 1930              		.file 2 "C:\\ST\\STM32CubeIDE_1.18.1\\STM32CubeIDE\\plugins\\com.st.stm32cube.ide.mcu.externaltool
 1931              		.file 3 "C:\\ST\\STM32CubeIDE_1.18.1\\STM32CubeIDE\\plugins\\com.st.stm32cube.ide.mcu.externaltool
 1932              		.file 4 "STM32Cube_FW_N6/Drivers/CMSIS/Device/ST/STM32N6xx/Include/stm32n657xx.h"
 1933              		.file 5 "STM32Cube_FW_N6/Drivers/STM32N6xx_HAL_Driver/Inc/stm32n6xx_hal_def.h"
 1934              		.file 6 "STM32Cube_FW_N6/Drivers/STM32N6xx_HAL_Driver/Inc/stm32n6xx_hal_ramcfg.h"
 1935              		.file 7 "Inc/stm32n6xx_hal_conf.h"
 1936              		.file 8 "STM32Cube_FW_N6/Drivers/STM32N6xx_HAL_Driver/Inc/stm32n6xx_hal.h"
ARM GAS  C:\Users\DJESSOU\AppData\Local\Temp\ccLWLfBx.s 			page 57

