ARM GAS  C:\Users\DJESSOU\AppData\Local\Temp\ccn9qHUf.s 			page 1


   1              		.arch armv8.1-m.main
   2              		.fpu fpv5-d16
   3              		.arch_extension dsp
   4              		.arch_extension fp
   5              		.arch_extension fp.dp
   6              		.arch_extension mve
   7              		.arch_extension mve.fp
   8              		.eabi_attribute 5, "cortex-m55"
   9              		.eabi_attribute 28, 1
  10              		.eabi_attribute 20, 1
  11              		.eabi_attribute 21, 1
  12              		.eabi_attribute 23, 3
  13              		.eabi_attribute 24, 1
  14              		.eabi_attribute 25, 1
  15              		.eabi_attribute 26, 1
  16              		.eabi_attribute 30, 4
  17              		.eabi_attribute 34, 1
  18              		.eabi_attribute 38, 1
  19              		.eabi_attribute 18, 4
  20              		.file	"stm32n6xx_hal_i2c_ex.c"
  21              		.text
  22              	.Ltext0:
  23              		.cfi_sections	.debug_frame
  24              		.file 1 "STM32Cube_FW_N6/Drivers/STM32N6xx_HAL_Driver/Src/stm32n6xx_hal_i2c_ex.c"
  25              		.section	.rodata.HAL_I2CEx_ConfigAnalogFilter.str1.1,"aMS",%progbits,1
  26              	.LC0:
  27 0000 53544D33 		.ascii	"STM32Cube_FW_N6/Drivers/STM32N6xx_HAL_Driver/Src/st"
  27      32437562 
  27      655F4657 
  27      5F4E362F 
  27      44726976 
  28 0033 6D33326E 		.ascii	"m32n6xx_hal_i2c_ex.c\000"
  28      3678785F 
  28      68616C5F 
  28      6932635F 
  28      65782E63 
  29              		.section	.text.HAL_I2CEx_ConfigAnalogFilter,"ax",%progbits
  30              		.align	1
  31              		.global	HAL_I2CEx_ConfigAnalogFilter
  32              		.syntax unified
  33              		.thumb
  34              		.thumb_func
  36              	HAL_I2CEx_ConfigAnalogFilter:
  37              	.LVL0:
  38              	.LFB862:
   1:STM32Cube_FW_N6/Drivers/STM32N6xx_HAL_Driver/Src/stm32n6xx_hal_i2c_ex.c **** /**
   2:STM32Cube_FW_N6/Drivers/STM32N6xx_HAL_Driver/Src/stm32n6xx_hal_i2c_ex.c ****   ******************************************************************************
   3:STM32Cube_FW_N6/Drivers/STM32N6xx_HAL_Driver/Src/stm32n6xx_hal_i2c_ex.c ****   * @file    stm32n6xx_hal_i2c_ex.c
   4:STM32Cube_FW_N6/Drivers/STM32N6xx_HAL_Driver/Src/stm32n6xx_hal_i2c_ex.c ****   * @author  MCD Application Team
   5:STM32Cube_FW_N6/Drivers/STM32N6xx_HAL_Driver/Src/stm32n6xx_hal_i2c_ex.c ****   * @brief   I2C Extended HAL module driver.
   6:STM32Cube_FW_N6/Drivers/STM32N6xx_HAL_Driver/Src/stm32n6xx_hal_i2c_ex.c ****   *          This file provides firmware functions to manage the following
   7:STM32Cube_FW_N6/Drivers/STM32N6xx_HAL_Driver/Src/stm32n6xx_hal_i2c_ex.c ****   *          functionalities of I2C Extended peripheral:
   8:STM32Cube_FW_N6/Drivers/STM32N6xx_HAL_Driver/Src/stm32n6xx_hal_i2c_ex.c ****   *           + Filter Mode Functions
   9:STM32Cube_FW_N6/Drivers/STM32N6xx_HAL_Driver/Src/stm32n6xx_hal_i2c_ex.c ****   *           + WakeUp Mode Functions
  10:STM32Cube_FW_N6/Drivers/STM32N6xx_HAL_Driver/Src/stm32n6xx_hal_i2c_ex.c ****   *           + FastModePlus Functions
  11:STM32Cube_FW_N6/Drivers/STM32N6xx_HAL_Driver/Src/stm32n6xx_hal_i2c_ex.c ****   *
  12:STM32Cube_FW_N6/Drivers/STM32N6xx_HAL_Driver/Src/stm32n6xx_hal_i2c_ex.c ****   ******************************************************************************
ARM GAS  C:\Users\DJESSOU\AppData\Local\Temp\ccn9qHUf.s 			page 2


  13:STM32Cube_FW_N6/Drivers/STM32N6xx_HAL_Driver/Src/stm32n6xx_hal_i2c_ex.c ****   * @attention
  14:STM32Cube_FW_N6/Drivers/STM32N6xx_HAL_Driver/Src/stm32n6xx_hal_i2c_ex.c ****   *
  15:STM32Cube_FW_N6/Drivers/STM32N6xx_HAL_Driver/Src/stm32n6xx_hal_i2c_ex.c ****   * Copyright (c) 2023 STMicroelectronics.
  16:STM32Cube_FW_N6/Drivers/STM32N6xx_HAL_Driver/Src/stm32n6xx_hal_i2c_ex.c ****   * All rights reserved.
  17:STM32Cube_FW_N6/Drivers/STM32N6xx_HAL_Driver/Src/stm32n6xx_hal_i2c_ex.c ****   *
  18:STM32Cube_FW_N6/Drivers/STM32N6xx_HAL_Driver/Src/stm32n6xx_hal_i2c_ex.c ****   * This software is licensed under terms that can be found in the LICENSE file
  19:STM32Cube_FW_N6/Drivers/STM32N6xx_HAL_Driver/Src/stm32n6xx_hal_i2c_ex.c ****   * in the root directory of this software component.
  20:STM32Cube_FW_N6/Drivers/STM32N6xx_HAL_Driver/Src/stm32n6xx_hal_i2c_ex.c ****   * If no LICENSE file comes with this software, it is provided AS-IS.
  21:STM32Cube_FW_N6/Drivers/STM32N6xx_HAL_Driver/Src/stm32n6xx_hal_i2c_ex.c ****   *
  22:STM32Cube_FW_N6/Drivers/STM32N6xx_HAL_Driver/Src/stm32n6xx_hal_i2c_ex.c ****   ******************************************************************************
  23:STM32Cube_FW_N6/Drivers/STM32N6xx_HAL_Driver/Src/stm32n6xx_hal_i2c_ex.c ****   @verbatim
  24:STM32Cube_FW_N6/Drivers/STM32N6xx_HAL_Driver/Src/stm32n6xx_hal_i2c_ex.c ****   ==============================================================================
  25:STM32Cube_FW_N6/Drivers/STM32N6xx_HAL_Driver/Src/stm32n6xx_hal_i2c_ex.c ****                ##### I2C peripheral Extended features  #####
  26:STM32Cube_FW_N6/Drivers/STM32N6xx_HAL_Driver/Src/stm32n6xx_hal_i2c_ex.c ****   ==============================================================================
  27:STM32Cube_FW_N6/Drivers/STM32N6xx_HAL_Driver/Src/stm32n6xx_hal_i2c_ex.c **** 
  28:STM32Cube_FW_N6/Drivers/STM32N6xx_HAL_Driver/Src/stm32n6xx_hal_i2c_ex.c ****   [..] Comparing to other previous devices, the I2C interface for STM32N6xx
  29:STM32Cube_FW_N6/Drivers/STM32N6xx_HAL_Driver/Src/stm32n6xx_hal_i2c_ex.c ****        devices contains the following additional features
  30:STM32Cube_FW_N6/Drivers/STM32N6xx_HAL_Driver/Src/stm32n6xx_hal_i2c_ex.c **** 
  31:STM32Cube_FW_N6/Drivers/STM32N6xx_HAL_Driver/Src/stm32n6xx_hal_i2c_ex.c ****        (+) Possibility to disable or enable Analog Noise Filter
  32:STM32Cube_FW_N6/Drivers/STM32N6xx_HAL_Driver/Src/stm32n6xx_hal_i2c_ex.c ****        (+) Use of a configured Digital Noise Filter
  33:STM32Cube_FW_N6/Drivers/STM32N6xx_HAL_Driver/Src/stm32n6xx_hal_i2c_ex.c ****        (+) Disable or enable wakeup from Stop mode(s)
  34:STM32Cube_FW_N6/Drivers/STM32N6xx_HAL_Driver/Src/stm32n6xx_hal_i2c_ex.c ****        (+) Disable or enable Fast Mode Plus
  35:STM32Cube_FW_N6/Drivers/STM32N6xx_HAL_Driver/Src/stm32n6xx_hal_i2c_ex.c **** 
  36:STM32Cube_FW_N6/Drivers/STM32N6xx_HAL_Driver/Src/stm32n6xx_hal_i2c_ex.c ****                      ##### How to use this driver #####
  37:STM32Cube_FW_N6/Drivers/STM32N6xx_HAL_Driver/Src/stm32n6xx_hal_i2c_ex.c ****   ==============================================================================
  38:STM32Cube_FW_N6/Drivers/STM32N6xx_HAL_Driver/Src/stm32n6xx_hal_i2c_ex.c ****   [..] This driver provides functions to configure Noise Filter and Wake Up Feature
  39:STM32Cube_FW_N6/Drivers/STM32N6xx_HAL_Driver/Src/stm32n6xx_hal_i2c_ex.c ****     (#) Configure I2C Analog noise filter using the function HAL_I2CEx_ConfigAnalogFilter()
  40:STM32Cube_FW_N6/Drivers/STM32N6xx_HAL_Driver/Src/stm32n6xx_hal_i2c_ex.c ****     (#) Configure I2C Digital noise filter using the function HAL_I2CEx_ConfigDigitalFilter()
  41:STM32Cube_FW_N6/Drivers/STM32N6xx_HAL_Driver/Src/stm32n6xx_hal_i2c_ex.c ****     (#) Configure the enable or disable of I2C Wake Up Mode using the functions :
  42:STM32Cube_FW_N6/Drivers/STM32N6xx_HAL_Driver/Src/stm32n6xx_hal_i2c_ex.c ****           (++) HAL_I2CEx_EnableWakeUp()
  43:STM32Cube_FW_N6/Drivers/STM32N6xx_HAL_Driver/Src/stm32n6xx_hal_i2c_ex.c ****           (++) HAL_I2CEx_DisableWakeUp()
  44:STM32Cube_FW_N6/Drivers/STM32N6xx_HAL_Driver/Src/stm32n6xx_hal_i2c_ex.c ****     (#) Configure the enable or disable of fast mode plus driving capability using the functions :
  45:STM32Cube_FW_N6/Drivers/STM32N6xx_HAL_Driver/Src/stm32n6xx_hal_i2c_ex.c ****           (++) HAL_I2CEx_ConfigFastModePlus()
  46:STM32Cube_FW_N6/Drivers/STM32N6xx_HAL_Driver/Src/stm32n6xx_hal_i2c_ex.c ****   @endverbatim
  47:STM32Cube_FW_N6/Drivers/STM32N6xx_HAL_Driver/Src/stm32n6xx_hal_i2c_ex.c ****   */
  48:STM32Cube_FW_N6/Drivers/STM32N6xx_HAL_Driver/Src/stm32n6xx_hal_i2c_ex.c **** 
  49:STM32Cube_FW_N6/Drivers/STM32N6xx_HAL_Driver/Src/stm32n6xx_hal_i2c_ex.c **** /* Includes ------------------------------------------------------------------*/
  50:STM32Cube_FW_N6/Drivers/STM32N6xx_HAL_Driver/Src/stm32n6xx_hal_i2c_ex.c **** #include "stm32n6xx_hal.h"
  51:STM32Cube_FW_N6/Drivers/STM32N6xx_HAL_Driver/Src/stm32n6xx_hal_i2c_ex.c **** 
  52:STM32Cube_FW_N6/Drivers/STM32N6xx_HAL_Driver/Src/stm32n6xx_hal_i2c_ex.c **** /** @addtogroup STM32N6xx_HAL_Driver
  53:STM32Cube_FW_N6/Drivers/STM32N6xx_HAL_Driver/Src/stm32n6xx_hal_i2c_ex.c ****   * @{
  54:STM32Cube_FW_N6/Drivers/STM32N6xx_HAL_Driver/Src/stm32n6xx_hal_i2c_ex.c ****   */
  55:STM32Cube_FW_N6/Drivers/STM32N6xx_HAL_Driver/Src/stm32n6xx_hal_i2c_ex.c **** 
  56:STM32Cube_FW_N6/Drivers/STM32N6xx_HAL_Driver/Src/stm32n6xx_hal_i2c_ex.c **** /** @defgroup I2CEx I2CEx
  57:STM32Cube_FW_N6/Drivers/STM32N6xx_HAL_Driver/Src/stm32n6xx_hal_i2c_ex.c ****   * @brief I2C Extended HAL module driver
  58:STM32Cube_FW_N6/Drivers/STM32N6xx_HAL_Driver/Src/stm32n6xx_hal_i2c_ex.c ****   * @{
  59:STM32Cube_FW_N6/Drivers/STM32N6xx_HAL_Driver/Src/stm32n6xx_hal_i2c_ex.c ****   */
  60:STM32Cube_FW_N6/Drivers/STM32N6xx_HAL_Driver/Src/stm32n6xx_hal_i2c_ex.c **** 
  61:STM32Cube_FW_N6/Drivers/STM32N6xx_HAL_Driver/Src/stm32n6xx_hal_i2c_ex.c **** #ifdef HAL_I2C_MODULE_ENABLED
  62:STM32Cube_FW_N6/Drivers/STM32N6xx_HAL_Driver/Src/stm32n6xx_hal_i2c_ex.c **** 
  63:STM32Cube_FW_N6/Drivers/STM32N6xx_HAL_Driver/Src/stm32n6xx_hal_i2c_ex.c **** /* Private typedef -----------------------------------------------------------*/
  64:STM32Cube_FW_N6/Drivers/STM32N6xx_HAL_Driver/Src/stm32n6xx_hal_i2c_ex.c **** /* Private define ------------------------------------------------------------*/
  65:STM32Cube_FW_N6/Drivers/STM32N6xx_HAL_Driver/Src/stm32n6xx_hal_i2c_ex.c **** /* Private macro -------------------------------------------------------------*/
  66:STM32Cube_FW_N6/Drivers/STM32N6xx_HAL_Driver/Src/stm32n6xx_hal_i2c_ex.c **** /* Private variables ---------------------------------------------------------*/
  67:STM32Cube_FW_N6/Drivers/STM32N6xx_HAL_Driver/Src/stm32n6xx_hal_i2c_ex.c **** /* Private function prototypes -----------------------------------------------*/
  68:STM32Cube_FW_N6/Drivers/STM32N6xx_HAL_Driver/Src/stm32n6xx_hal_i2c_ex.c **** /* Private functions ---------------------------------------------------------*/
  69:STM32Cube_FW_N6/Drivers/STM32N6xx_HAL_Driver/Src/stm32n6xx_hal_i2c_ex.c **** 
ARM GAS  C:\Users\DJESSOU\AppData\Local\Temp\ccn9qHUf.s 			page 3


  70:STM32Cube_FW_N6/Drivers/STM32N6xx_HAL_Driver/Src/stm32n6xx_hal_i2c_ex.c **** /** @defgroup I2CEx_Exported_Functions I2C Extended Exported Functions
  71:STM32Cube_FW_N6/Drivers/STM32N6xx_HAL_Driver/Src/stm32n6xx_hal_i2c_ex.c ****   * @{
  72:STM32Cube_FW_N6/Drivers/STM32N6xx_HAL_Driver/Src/stm32n6xx_hal_i2c_ex.c ****   */
  73:STM32Cube_FW_N6/Drivers/STM32N6xx_HAL_Driver/Src/stm32n6xx_hal_i2c_ex.c **** 
  74:STM32Cube_FW_N6/Drivers/STM32N6xx_HAL_Driver/Src/stm32n6xx_hal_i2c_ex.c **** /** @defgroup I2CEx_Exported_Functions_Group1 Filter Mode Functions
  75:STM32Cube_FW_N6/Drivers/STM32N6xx_HAL_Driver/Src/stm32n6xx_hal_i2c_ex.c ****   * @brief    Filter Mode Functions
  76:STM32Cube_FW_N6/Drivers/STM32N6xx_HAL_Driver/Src/stm32n6xx_hal_i2c_ex.c ****   *
  77:STM32Cube_FW_N6/Drivers/STM32N6xx_HAL_Driver/Src/stm32n6xx_hal_i2c_ex.c **** @verbatim
  78:STM32Cube_FW_N6/Drivers/STM32N6xx_HAL_Driver/Src/stm32n6xx_hal_i2c_ex.c ****  ===============================================================================
  79:STM32Cube_FW_N6/Drivers/STM32N6xx_HAL_Driver/Src/stm32n6xx_hal_i2c_ex.c ****                       ##### Filter Mode Functions #####
  80:STM32Cube_FW_N6/Drivers/STM32N6xx_HAL_Driver/Src/stm32n6xx_hal_i2c_ex.c ****  ===============================================================================
  81:STM32Cube_FW_N6/Drivers/STM32N6xx_HAL_Driver/Src/stm32n6xx_hal_i2c_ex.c ****     [..] This section provides functions allowing to:
  82:STM32Cube_FW_N6/Drivers/STM32N6xx_HAL_Driver/Src/stm32n6xx_hal_i2c_ex.c ****       (+) Configure Noise Filters
  83:STM32Cube_FW_N6/Drivers/STM32N6xx_HAL_Driver/Src/stm32n6xx_hal_i2c_ex.c **** 
  84:STM32Cube_FW_N6/Drivers/STM32N6xx_HAL_Driver/Src/stm32n6xx_hal_i2c_ex.c **** @endverbatim
  85:STM32Cube_FW_N6/Drivers/STM32N6xx_HAL_Driver/Src/stm32n6xx_hal_i2c_ex.c ****   * @{
  86:STM32Cube_FW_N6/Drivers/STM32N6xx_HAL_Driver/Src/stm32n6xx_hal_i2c_ex.c ****   */
  87:STM32Cube_FW_N6/Drivers/STM32N6xx_HAL_Driver/Src/stm32n6xx_hal_i2c_ex.c **** 
  88:STM32Cube_FW_N6/Drivers/STM32N6xx_HAL_Driver/Src/stm32n6xx_hal_i2c_ex.c **** /**
  89:STM32Cube_FW_N6/Drivers/STM32N6xx_HAL_Driver/Src/stm32n6xx_hal_i2c_ex.c ****   * @brief  Configure I2C Analog noise filter.
  90:STM32Cube_FW_N6/Drivers/STM32N6xx_HAL_Driver/Src/stm32n6xx_hal_i2c_ex.c ****   * @param  hi2c Pointer to a I2C_HandleTypeDef structure that contains
  91:STM32Cube_FW_N6/Drivers/STM32N6xx_HAL_Driver/Src/stm32n6xx_hal_i2c_ex.c ****   *                the configuration information for the specified I2Cx peripheral.
  92:STM32Cube_FW_N6/Drivers/STM32N6xx_HAL_Driver/Src/stm32n6xx_hal_i2c_ex.c ****   * @param  AnalogFilter New state of the Analog filter.
  93:STM32Cube_FW_N6/Drivers/STM32N6xx_HAL_Driver/Src/stm32n6xx_hal_i2c_ex.c ****   * @retval HAL status
  94:STM32Cube_FW_N6/Drivers/STM32N6xx_HAL_Driver/Src/stm32n6xx_hal_i2c_ex.c ****   */
  95:STM32Cube_FW_N6/Drivers/STM32N6xx_HAL_Driver/Src/stm32n6xx_hal_i2c_ex.c **** HAL_StatusTypeDef HAL_I2CEx_ConfigAnalogFilter(I2C_HandleTypeDef *hi2c, uint32_t AnalogFilter)
  96:STM32Cube_FW_N6/Drivers/STM32N6xx_HAL_Driver/Src/stm32n6xx_hal_i2c_ex.c **** {
  39              		.loc 1 96 1 view -0
  40              		.cfi_startproc
  41              		@ args = 0, pretend = 0, frame = 0
  42              		@ frame_needed = 0, uses_anonymous_args = 0
  97:STM32Cube_FW_N6/Drivers/STM32N6xx_HAL_Driver/Src/stm32n6xx_hal_i2c_ex.c ****   /* Check the parameters */
  98:STM32Cube_FW_N6/Drivers/STM32N6xx_HAL_Driver/Src/stm32n6xx_hal_i2c_ex.c ****   assert_param(IS_I2C_ALL_INSTANCE(hi2c->Instance));
  43              		.loc 1 98 3 view .LVU1
  96:STM32Cube_FW_N6/Drivers/STM32N6xx_HAL_Driver/Src/stm32n6xx_hal_i2c_ex.c ****   /* Check the parameters */
  44              		.loc 1 96 1 is_stmt 0 view .LVU2
  45 0000 38B5     		push	{r3, r4, r5, lr}
  46              		.cfi_def_cfa_offset 16
  47              		.cfi_offset 3, -16
  48              		.cfi_offset 4, -12
  49              		.cfi_offset 5, -8
  50              		.cfi_offset 14, -4
  51              		.loc 1 98 3 view .LVU3
  52 0002 274A     		ldr	r2, .L10
  53 0004 0368     		ldr	r3, [r0]
  96:STM32Cube_FW_N6/Drivers/STM32N6xx_HAL_Driver/Src/stm32n6xx_hal_i2c_ex.c ****   /* Check the parameters */
  54              		.loc 1 96 1 view .LVU4
  55 0006 0446     		mov	r4, r0
  56              		.loc 1 98 3 view .LVU5
  57 0008 9342     		cmp	r3, r2
  96:STM32Cube_FW_N6/Drivers/STM32N6xx_HAL_Driver/Src/stm32n6xx_hal_i2c_ex.c ****   /* Check the parameters */
  58              		.loc 1 96 1 view .LVU6
  59 000a 0D46     		mov	r5, r1
  60              		.loc 1 98 3 view .LVU7
  61 000c 1CD0     		beq	.L2
  62              		.loc 1 98 3 discriminator 1 view .LVU8
  63 000e 02F17042 		add	r2, r2, #-268435456
ARM GAS  C:\Users\DJESSOU\AppData\Local\Temp\ccn9qHUf.s 			page 4


  64 0012 9342     		cmp	r3, r2
  65 0014 18D0     		beq	.L2
  66              		.loc 1 98 3 discriminator 2 view .LVU9
  67 0016 234A     		ldr	r2, .L10+4
  68 0018 9342     		cmp	r3, r2
  69 001a 15D0     		beq	.L2
  70              		.loc 1 98 3 discriminator 3 view .LVU10
  71 001c 02F17042 		add	r2, r2, #-268435456
  72 0020 9342     		cmp	r3, r2
  73 0022 11D0     		beq	.L2
  74              		.loc 1 98 3 discriminator 4 view .LVU11
  75 0024 204A     		ldr	r2, .L10+8
  76 0026 9342     		cmp	r3, r2
  77 0028 0ED0     		beq	.L2
  78              		.loc 1 98 3 discriminator 5 view .LVU12
  79 002a 02F17042 		add	r2, r2, #-268435456
  80 002e 9342     		cmp	r3, r2
  81 0030 0AD0     		beq	.L2
  82              		.loc 1 98 3 discriminator 6 view .LVU13
  83 0032 1E4A     		ldr	r2, .L10+12
  84 0034 9342     		cmp	r3, r2
  85 0036 07D0     		beq	.L2
  86              		.loc 1 98 3 discriminator 7 view .LVU14
  87 0038 02F17042 		add	r2, r2, #-268435456
  88 003c 9342     		cmp	r3, r2
  89 003e 03D0     		beq	.L2
  90              		.loc 1 98 3 discriminator 8 view .LVU15
  91 0040 6221     		movs	r1, #98
  92              	.LVL1:
  93              		.loc 1 98 3 discriminator 8 view .LVU16
  94 0042 1B48     		ldr	r0, .L10+16
  95              	.LVL2:
  96              		.loc 1 98 3 discriminator 8 view .LVU17
  97 0044 FFF7FEFF 		bl	assert_failed
  98              	.LVL3:
  99              	.L2:
  99:STM32Cube_FW_N6/Drivers/STM32N6xx_HAL_Driver/Src/stm32n6xx_hal_i2c_ex.c ****   assert_param(IS_I2C_ANALOG_FILTER(AnalogFilter));
 100              		.loc 1 99 3 is_stmt 1 view .LVU18
 101 0048 35F48053 		bics	r3, r5, #4096
 102 004c 03D0     		beq	.L3
 103              		.loc 1 99 3 is_stmt 0 discriminator 2 view .LVU19
 104 004e 6321     		movs	r1, #99
 105 0050 1748     		ldr	r0, .L10+16
 106 0052 FFF7FEFF 		bl	assert_failed
 107              	.LVL4:
 108              	.L3:
 100:STM32Cube_FW_N6/Drivers/STM32N6xx_HAL_Driver/Src/stm32n6xx_hal_i2c_ex.c **** 
 101:STM32Cube_FW_N6/Drivers/STM32N6xx_HAL_Driver/Src/stm32n6xx_hal_i2c_ex.c ****   if (hi2c->State == HAL_I2C_STATE_READY)
 109              		.loc 1 101 3 is_stmt 1 view .LVU20
 110              		.loc 1 101 11 is_stmt 0 view .LVU21
 111 0056 94F84130 		ldrb	r3, [r4, #65]	@ zero_extendqisi2
 112              		.loc 1 101 6 view .LVU22
 113 005a 202B     		cmp	r3, #32
 114              		.loc 1 101 11 view .LVU23
 115 005c D9B2     		uxtb	r1, r3
 116              		.loc 1 101 6 view .LVU24
 117 005e 1CD1     		bne	.L6
ARM GAS  C:\Users\DJESSOU\AppData\Local\Temp\ccn9qHUf.s 			page 5


 102:STM32Cube_FW_N6/Drivers/STM32N6xx_HAL_Driver/Src/stm32n6xx_hal_i2c_ex.c ****   {
 103:STM32Cube_FW_N6/Drivers/STM32N6xx_HAL_Driver/Src/stm32n6xx_hal_i2c_ex.c ****     /* Process Locked */
 104:STM32Cube_FW_N6/Drivers/STM32N6xx_HAL_Driver/Src/stm32n6xx_hal_i2c_ex.c ****     __HAL_LOCK(hi2c);
 118              		.loc 1 104 5 is_stmt 1 view .LVU25
 119              		.loc 1 104 5 view .LVU26
 120 0060 94F84030 		ldrb	r3, [r4, #64]	@ zero_extendqisi2
 121 0064 012B     		cmp	r3, #1
 122 0066 18D0     		beq	.L6
 123              		.loc 1 104 5 discriminator 2 view .LVU27
 124              		.loc 1 104 5 discriminator 2 view .LVU28
 105:STM32Cube_FW_N6/Drivers/STM32N6xx_HAL_Driver/Src/stm32n6xx_hal_i2c_ex.c **** 
 106:STM32Cube_FW_N6/Drivers/STM32N6xx_HAL_Driver/Src/stm32n6xx_hal_i2c_ex.c ****     hi2c->State = HAL_I2C_STATE_BUSY;
 125              		.loc 1 106 5 view .LVU29
 126              		.loc 1 106 17 is_stmt 0 view .LVU30
 127 0068 2423     		movs	r3, #36
 107:STM32Cube_FW_N6/Drivers/STM32N6xx_HAL_Driver/Src/stm32n6xx_hal_i2c_ex.c **** 
 108:STM32Cube_FW_N6/Drivers/STM32N6xx_HAL_Driver/Src/stm32n6xx_hal_i2c_ex.c ****     /* Disable the selected I2C peripheral */
 109:STM32Cube_FW_N6/Drivers/STM32N6xx_HAL_Driver/Src/stm32n6xx_hal_i2c_ex.c ****     __HAL_I2C_DISABLE(hi2c);
 110:STM32Cube_FW_N6/Drivers/STM32N6xx_HAL_Driver/Src/stm32n6xx_hal_i2c_ex.c **** 
 111:STM32Cube_FW_N6/Drivers/STM32N6xx_HAL_Driver/Src/stm32n6xx_hal_i2c_ex.c ****     /* Reset I2Cx ANOFF bit */
 112:STM32Cube_FW_N6/Drivers/STM32N6xx_HAL_Driver/Src/stm32n6xx_hal_i2c_ex.c ****     hi2c->Instance->CR1 &= ~(I2C_CR1_ANFOFF);
 113:STM32Cube_FW_N6/Drivers/STM32N6xx_HAL_Driver/Src/stm32n6xx_hal_i2c_ex.c **** 
 114:STM32Cube_FW_N6/Drivers/STM32N6xx_HAL_Driver/Src/stm32n6xx_hal_i2c_ex.c ****     /* Set analog filter bit*/
 115:STM32Cube_FW_N6/Drivers/STM32N6xx_HAL_Driver/Src/stm32n6xx_hal_i2c_ex.c ****     hi2c->Instance->CR1 |= AnalogFilter;
 116:STM32Cube_FW_N6/Drivers/STM32N6xx_HAL_Driver/Src/stm32n6xx_hal_i2c_ex.c **** 
 117:STM32Cube_FW_N6/Drivers/STM32N6xx_HAL_Driver/Src/stm32n6xx_hal_i2c_ex.c ****     __HAL_I2C_ENABLE(hi2c);
 118:STM32Cube_FW_N6/Drivers/STM32N6xx_HAL_Driver/Src/stm32n6xx_hal_i2c_ex.c **** 
 119:STM32Cube_FW_N6/Drivers/STM32N6xx_HAL_Driver/Src/stm32n6xx_hal_i2c_ex.c ****     hi2c->State = HAL_I2C_STATE_READY;
 120:STM32Cube_FW_N6/Drivers/STM32N6xx_HAL_Driver/Src/stm32n6xx_hal_i2c_ex.c **** 
 121:STM32Cube_FW_N6/Drivers/STM32N6xx_HAL_Driver/Src/stm32n6xx_hal_i2c_ex.c ****     /* Process Unlocked */
 122:STM32Cube_FW_N6/Drivers/STM32N6xx_HAL_Driver/Src/stm32n6xx_hal_i2c_ex.c ****     __HAL_UNLOCK(hi2c);
 128              		.loc 1 122 5 view .LVU31
 129 006a 0020     		movs	r0, #0
 106:STM32Cube_FW_N6/Drivers/STM32N6xx_HAL_Driver/Src/stm32n6xx_hal_i2c_ex.c **** 
 130              		.loc 1 106 17 view .LVU32
 131 006c 84F84130 		strb	r3, [r4, #65]
 109:STM32Cube_FW_N6/Drivers/STM32N6xx_HAL_Driver/Src/stm32n6xx_hal_i2c_ex.c **** 
 132              		.loc 1 109 5 is_stmt 1 view .LVU33
 133 0070 2368     		ldr	r3, [r4]
 134 0072 1A68     		ldr	r2, [r3]
 135 0074 22F00102 		bic	r2, r2, #1
 136 0078 1A60     		str	r2, [r3]
 112:STM32Cube_FW_N6/Drivers/STM32N6xx_HAL_Driver/Src/stm32n6xx_hal_i2c_ex.c **** 
 137              		.loc 1 112 5 view .LVU34
 112:STM32Cube_FW_N6/Drivers/STM32N6xx_HAL_Driver/Src/stm32n6xx_hal_i2c_ex.c **** 
 138              		.loc 1 112 19 is_stmt 0 view .LVU35
 139 007a 1A68     		ldr	r2, [r3]
 112:STM32Cube_FW_N6/Drivers/STM32N6xx_HAL_Driver/Src/stm32n6xx_hal_i2c_ex.c **** 
 140              		.loc 1 112 25 view .LVU36
 141 007c 22F48052 		bic	r2, r2, #4096
 142 0080 1A60     		str	r2, [r3]
 115:STM32Cube_FW_N6/Drivers/STM32N6xx_HAL_Driver/Src/stm32n6xx_hal_i2c_ex.c **** 
 143              		.loc 1 115 5 is_stmt 1 view .LVU37
 115:STM32Cube_FW_N6/Drivers/STM32N6xx_HAL_Driver/Src/stm32n6xx_hal_i2c_ex.c **** 
 144              		.loc 1 115 19 is_stmt 0 view .LVU38
 145 0082 1A68     		ldr	r2, [r3]
 115:STM32Cube_FW_N6/Drivers/STM32N6xx_HAL_Driver/Src/stm32n6xx_hal_i2c_ex.c **** 
ARM GAS  C:\Users\DJESSOU\AppData\Local\Temp\ccn9qHUf.s 			page 6


 146              		.loc 1 115 25 view .LVU39
 147 0084 2A43     		orrs	r2, r2, r5
 148 0086 1A60     		str	r2, [r3]
 117:STM32Cube_FW_N6/Drivers/STM32N6xx_HAL_Driver/Src/stm32n6xx_hal_i2c_ex.c **** 
 149              		.loc 1 117 5 is_stmt 1 view .LVU40
 150 0088 1A68     		ldr	r2, [r3]
 151 008a 42F00102 		orr	r2, r2, #1
 152 008e 1A60     		str	r2, [r3]
 119:STM32Cube_FW_N6/Drivers/STM32N6xx_HAL_Driver/Src/stm32n6xx_hal_i2c_ex.c **** 
 153              		.loc 1 119 5 view .LVU41
 119:STM32Cube_FW_N6/Drivers/STM32N6xx_HAL_Driver/Src/stm32n6xx_hal_i2c_ex.c **** 
 154              		.loc 1 119 17 is_stmt 0 view .LVU42
 155 0090 84F84110 		strb	r1, [r4, #65]
 156              		.loc 1 122 5 is_stmt 1 view .LVU43
 157              		.loc 1 122 5 view .LVU44
 158 0094 84F84000 		strb	r0, [r4, #64]
 159              		.loc 1 122 5 view .LVU45
 123:STM32Cube_FW_N6/Drivers/STM32N6xx_HAL_Driver/Src/stm32n6xx_hal_i2c_ex.c **** 
 124:STM32Cube_FW_N6/Drivers/STM32N6xx_HAL_Driver/Src/stm32n6xx_hal_i2c_ex.c ****     return HAL_OK;
 160              		.loc 1 124 5 view .LVU46
 161              	.L4:
 125:STM32Cube_FW_N6/Drivers/STM32N6xx_HAL_Driver/Src/stm32n6xx_hal_i2c_ex.c ****   }
 126:STM32Cube_FW_N6/Drivers/STM32N6xx_HAL_Driver/Src/stm32n6xx_hal_i2c_ex.c ****   else
 127:STM32Cube_FW_N6/Drivers/STM32N6xx_HAL_Driver/Src/stm32n6xx_hal_i2c_ex.c ****   {
 128:STM32Cube_FW_N6/Drivers/STM32N6xx_HAL_Driver/Src/stm32n6xx_hal_i2c_ex.c ****     return HAL_BUSY;
 129:STM32Cube_FW_N6/Drivers/STM32N6xx_HAL_Driver/Src/stm32n6xx_hal_i2c_ex.c ****   }
 130:STM32Cube_FW_N6/Drivers/STM32N6xx_HAL_Driver/Src/stm32n6xx_hal_i2c_ex.c **** }
 162              		.loc 1 130 1 is_stmt 0 view .LVU47
 163 0098 38BD     		pop	{r3, r4, r5, pc}
 164              	.LVL5:
 165              	.L6:
 104:STM32Cube_FW_N6/Drivers/STM32N6xx_HAL_Driver/Src/stm32n6xx_hal_i2c_ex.c **** 
 166              		.loc 1 104 5 discriminator 1 view .LVU48
 167 009a 0220     		movs	r0, #2
 168 009c FCE7     		b	.L4
 169              	.L11:
 170 009e 00BF     		.align	2
 171              	.L10:
 172 00a0 00540050 		.word	1342198784
 173 00a4 00580050 		.word	1342199808
 174 00a8 005C0050 		.word	1342200832
 175 00ac 001C0056 		.word	1442847744
 176 00b0 00000000 		.word	.LC0
 177              		.cfi_endproc
 178              	.LFE862:
 180              		.section	.text.HAL_I2CEx_ConfigDigitalFilter,"ax",%progbits
 181              		.align	1
 182              		.global	HAL_I2CEx_ConfigDigitalFilter
 183              		.syntax unified
 184              		.thumb
 185              		.thumb_func
 187              	HAL_I2CEx_ConfigDigitalFilter:
 188              	.LVL6:
 189              	.LFB863:
 131:STM32Cube_FW_N6/Drivers/STM32N6xx_HAL_Driver/Src/stm32n6xx_hal_i2c_ex.c **** 
 132:STM32Cube_FW_N6/Drivers/STM32N6xx_HAL_Driver/Src/stm32n6xx_hal_i2c_ex.c **** /**
 133:STM32Cube_FW_N6/Drivers/STM32N6xx_HAL_Driver/Src/stm32n6xx_hal_i2c_ex.c ****   * @brief  Configure I2C Digital noise filter.
ARM GAS  C:\Users\DJESSOU\AppData\Local\Temp\ccn9qHUf.s 			page 7


 134:STM32Cube_FW_N6/Drivers/STM32N6xx_HAL_Driver/Src/stm32n6xx_hal_i2c_ex.c ****   * @param  hi2c Pointer to a I2C_HandleTypeDef structure that contains
 135:STM32Cube_FW_N6/Drivers/STM32N6xx_HAL_Driver/Src/stm32n6xx_hal_i2c_ex.c ****   *                the configuration information for the specified I2Cx peripheral.
 136:STM32Cube_FW_N6/Drivers/STM32N6xx_HAL_Driver/Src/stm32n6xx_hal_i2c_ex.c ****   * @param  DigitalFilter Coefficient of digital noise filter between Min_Data=0x00 and Max_Data=0x
 137:STM32Cube_FW_N6/Drivers/STM32N6xx_HAL_Driver/Src/stm32n6xx_hal_i2c_ex.c ****   * @retval HAL status
 138:STM32Cube_FW_N6/Drivers/STM32N6xx_HAL_Driver/Src/stm32n6xx_hal_i2c_ex.c ****   */
 139:STM32Cube_FW_N6/Drivers/STM32N6xx_HAL_Driver/Src/stm32n6xx_hal_i2c_ex.c **** HAL_StatusTypeDef HAL_I2CEx_ConfigDigitalFilter(I2C_HandleTypeDef *hi2c, uint32_t DigitalFilter)
 140:STM32Cube_FW_N6/Drivers/STM32N6xx_HAL_Driver/Src/stm32n6xx_hal_i2c_ex.c **** {
 190              		.loc 1 140 1 is_stmt 1 view -0
 191              		.cfi_startproc
 192              		@ args = 0, pretend = 0, frame = 0
 193              		@ frame_needed = 0, uses_anonymous_args = 0
 141:STM32Cube_FW_N6/Drivers/STM32N6xx_HAL_Driver/Src/stm32n6xx_hal_i2c_ex.c ****   uint32_t tmpreg;
 194              		.loc 1 141 3 view .LVU50
 142:STM32Cube_FW_N6/Drivers/STM32N6xx_HAL_Driver/Src/stm32n6xx_hal_i2c_ex.c **** 
 143:STM32Cube_FW_N6/Drivers/STM32N6xx_HAL_Driver/Src/stm32n6xx_hal_i2c_ex.c ****   /* Check the parameters */
 144:STM32Cube_FW_N6/Drivers/STM32N6xx_HAL_Driver/Src/stm32n6xx_hal_i2c_ex.c ****   assert_param(IS_I2C_ALL_INSTANCE(hi2c->Instance));
 195              		.loc 1 144 3 view .LVU51
 140:STM32Cube_FW_N6/Drivers/STM32N6xx_HAL_Driver/Src/stm32n6xx_hal_i2c_ex.c ****   uint32_t tmpreg;
 196              		.loc 1 140 1 is_stmt 0 view .LVU52
 197 0000 38B5     		push	{r3, r4, r5, lr}
 198              		.cfi_def_cfa_offset 16
 199              		.cfi_offset 3, -16
 200              		.cfi_offset 4, -12
 201              		.cfi_offset 5, -8
 202              		.cfi_offset 14, -4
 203              		.loc 1 144 3 view .LVU53
 204 0002 264A     		ldr	r2, .L18
 205 0004 0368     		ldr	r3, [r0]
 140:STM32Cube_FW_N6/Drivers/STM32N6xx_HAL_Driver/Src/stm32n6xx_hal_i2c_ex.c ****   uint32_t tmpreg;
 206              		.loc 1 140 1 view .LVU54
 207 0006 0446     		mov	r4, r0
 208              		.loc 1 144 3 view .LVU55
 209 0008 9342     		cmp	r3, r2
 140:STM32Cube_FW_N6/Drivers/STM32N6xx_HAL_Driver/Src/stm32n6xx_hal_i2c_ex.c ****   uint32_t tmpreg;
 210              		.loc 1 140 1 view .LVU56
 211 000a 0D46     		mov	r5, r1
 212              		.loc 1 144 3 view .LVU57
 213 000c 1CD0     		beq	.L13
 214              		.loc 1 144 3 discriminator 1 view .LVU58
 215 000e 02F17042 		add	r2, r2, #-268435456
 216 0012 9342     		cmp	r3, r2
 217 0014 18D0     		beq	.L13
 218              		.loc 1 144 3 discriminator 2 view .LVU59
 219 0016 224A     		ldr	r2, .L18+4
 220 0018 9342     		cmp	r3, r2
 221 001a 15D0     		beq	.L13
 222              		.loc 1 144 3 discriminator 3 view .LVU60
 223 001c 02F17042 		add	r2, r2, #-268435456
 224 0020 9342     		cmp	r3, r2
 225 0022 11D0     		beq	.L13
 226              		.loc 1 144 3 discriminator 4 view .LVU61
 227 0024 1F4A     		ldr	r2, .L18+8
 228 0026 9342     		cmp	r3, r2
 229 0028 0ED0     		beq	.L13
 230              		.loc 1 144 3 discriminator 5 view .LVU62
 231 002a 02F17042 		add	r2, r2, #-268435456
 232 002e 9342     		cmp	r3, r2
ARM GAS  C:\Users\DJESSOU\AppData\Local\Temp\ccn9qHUf.s 			page 8


 233 0030 0AD0     		beq	.L13
 234              		.loc 1 144 3 discriminator 6 view .LVU63
 235 0032 1D4A     		ldr	r2, .L18+12
 236 0034 9342     		cmp	r3, r2
 237 0036 07D0     		beq	.L13
 238              		.loc 1 144 3 discriminator 7 view .LVU64
 239 0038 02F17042 		add	r2, r2, #-268435456
 240 003c 9342     		cmp	r3, r2
 241 003e 03D0     		beq	.L13
 242              		.loc 1 144 3 discriminator 8 view .LVU65
 243 0040 9021     		movs	r1, #144
 244              	.LVL7:
 245              		.loc 1 144 3 discriminator 8 view .LVU66
 246 0042 1A48     		ldr	r0, .L18+16
 247              	.LVL8:
 248              		.loc 1 144 3 discriminator 8 view .LVU67
 249 0044 FFF7FEFF 		bl	assert_failed
 250              	.LVL9:
 251              	.L13:
 145:STM32Cube_FW_N6/Drivers/STM32N6xx_HAL_Driver/Src/stm32n6xx_hal_i2c_ex.c ****   assert_param(IS_I2C_DIGITAL_FILTER(DigitalFilter));
 252              		.loc 1 145 3 is_stmt 1 view .LVU68
 253 0048 0F2D     		cmp	r5, #15
 254 004a 03D9     		bls	.L14
 255              		.loc 1 145 3 is_stmt 0 discriminator 1 view .LVU69
 256 004c 9121     		movs	r1, #145
 257 004e 1748     		ldr	r0, .L18+16
 258 0050 FFF7FEFF 		bl	assert_failed
 259              	.LVL10:
 260              	.L14:
 146:STM32Cube_FW_N6/Drivers/STM32N6xx_HAL_Driver/Src/stm32n6xx_hal_i2c_ex.c **** 
 147:STM32Cube_FW_N6/Drivers/STM32N6xx_HAL_Driver/Src/stm32n6xx_hal_i2c_ex.c ****   if (hi2c->State == HAL_I2C_STATE_READY)
 261              		.loc 1 147 3 is_stmt 1 view .LVU70
 262              		.loc 1 147 11 is_stmt 0 view .LVU71
 263 0054 94F84130 		ldrb	r3, [r4, #65]	@ zero_extendqisi2
 264              		.loc 1 147 6 view .LVU72
 265 0058 202B     		cmp	r3, #32
 266              		.loc 1 147 11 view .LVU73
 267 005a D8B2     		uxtb	r0, r3
 268              		.loc 1 147 6 view .LVU74
 269 005c 1BD1     		bne	.L17
 148:STM32Cube_FW_N6/Drivers/STM32N6xx_HAL_Driver/Src/stm32n6xx_hal_i2c_ex.c ****   {
 149:STM32Cube_FW_N6/Drivers/STM32N6xx_HAL_Driver/Src/stm32n6xx_hal_i2c_ex.c ****     /* Process Locked */
 150:STM32Cube_FW_N6/Drivers/STM32N6xx_HAL_Driver/Src/stm32n6xx_hal_i2c_ex.c ****     __HAL_LOCK(hi2c);
 270              		.loc 1 150 5 is_stmt 1 view .LVU75
 271              		.loc 1 150 5 view .LVU76
 272 005e 94F84030 		ldrb	r3, [r4, #64]	@ zero_extendqisi2
 273 0062 012B     		cmp	r3, #1
 274 0064 17D0     		beq	.L17
 275              		.loc 1 150 5 discriminator 2 view .LVU77
 276              		.loc 1 150 5 discriminator 2 view .LVU78
 151:STM32Cube_FW_N6/Drivers/STM32N6xx_HAL_Driver/Src/stm32n6xx_hal_i2c_ex.c **** 
 152:STM32Cube_FW_N6/Drivers/STM32N6xx_HAL_Driver/Src/stm32n6xx_hal_i2c_ex.c ****     hi2c->State = HAL_I2C_STATE_BUSY;
 277              		.loc 1 152 5 view .LVU79
 278              		.loc 1 152 17 is_stmt 0 view .LVU80
 279 0066 2423     		movs	r3, #36
 280 0068 84F84130 		strb	r3, [r4, #65]
 153:STM32Cube_FW_N6/Drivers/STM32N6xx_HAL_Driver/Src/stm32n6xx_hal_i2c_ex.c **** 
ARM GAS  C:\Users\DJESSOU\AppData\Local\Temp\ccn9qHUf.s 			page 9


 154:STM32Cube_FW_N6/Drivers/STM32N6xx_HAL_Driver/Src/stm32n6xx_hal_i2c_ex.c ****     /* Disable the selected I2C peripheral */
 155:STM32Cube_FW_N6/Drivers/STM32N6xx_HAL_Driver/Src/stm32n6xx_hal_i2c_ex.c ****     __HAL_I2C_DISABLE(hi2c);
 281              		.loc 1 155 5 is_stmt 1 view .LVU81
 282 006c 2368     		ldr	r3, [r4]
 283 006e 1A68     		ldr	r2, [r3]
 284 0070 22F00102 		bic	r2, r2, #1
 285 0074 1A60     		str	r2, [r3]
 156:STM32Cube_FW_N6/Drivers/STM32N6xx_HAL_Driver/Src/stm32n6xx_hal_i2c_ex.c **** 
 157:STM32Cube_FW_N6/Drivers/STM32N6xx_HAL_Driver/Src/stm32n6xx_hal_i2c_ex.c ****     /* Get the old register value */
 158:STM32Cube_FW_N6/Drivers/STM32N6xx_HAL_Driver/Src/stm32n6xx_hal_i2c_ex.c ****     tmpreg = hi2c->Instance->CR1;
 286              		.loc 1 158 5 view .LVU82
 287              		.loc 1 158 12 is_stmt 0 view .LVU83
 288 0076 1A68     		ldr	r2, [r3]
 289              	.LVL11:
 159:STM32Cube_FW_N6/Drivers/STM32N6xx_HAL_Driver/Src/stm32n6xx_hal_i2c_ex.c **** 
 160:STM32Cube_FW_N6/Drivers/STM32N6xx_HAL_Driver/Src/stm32n6xx_hal_i2c_ex.c ****     /* Reset I2Cx DNF bits [11:8] */
 161:STM32Cube_FW_N6/Drivers/STM32N6xx_HAL_Driver/Src/stm32n6xx_hal_i2c_ex.c ****     tmpreg &= ~(I2C_CR1_DNF);
 290              		.loc 1 161 5 is_stmt 1 view .LVU84
 291              		.loc 1 161 12 is_stmt 0 view .LVU85
 292 0078 22F47062 		bic	r2, r2, #3840
 293              	.LVL12:
 162:STM32Cube_FW_N6/Drivers/STM32N6xx_HAL_Driver/Src/stm32n6xx_hal_i2c_ex.c **** 
 163:STM32Cube_FW_N6/Drivers/STM32N6xx_HAL_Driver/Src/stm32n6xx_hal_i2c_ex.c ****     /* Set I2Cx DNF coefficient */
 164:STM32Cube_FW_N6/Drivers/STM32N6xx_HAL_Driver/Src/stm32n6xx_hal_i2c_ex.c ****     tmpreg |= DigitalFilter << 8U;
 294              		.loc 1 164 5 is_stmt 1 view .LVU86
 295              		.loc 1 164 12 is_stmt 0 view .LVU87
 296 007c 42EA0522 		orr	r2, r2, r5, lsl #8
 297              	.LVL13:
 165:STM32Cube_FW_N6/Drivers/STM32N6xx_HAL_Driver/Src/stm32n6xx_hal_i2c_ex.c **** 
 166:STM32Cube_FW_N6/Drivers/STM32N6xx_HAL_Driver/Src/stm32n6xx_hal_i2c_ex.c ****     /* Store the new register value */
 167:STM32Cube_FW_N6/Drivers/STM32N6xx_HAL_Driver/Src/stm32n6xx_hal_i2c_ex.c ****     hi2c->Instance->CR1 = tmpreg;
 298              		.loc 1 167 5 is_stmt 1 view .LVU88
 299              		.loc 1 167 25 is_stmt 0 view .LVU89
 300 0080 1A60     		str	r2, [r3]
 168:STM32Cube_FW_N6/Drivers/STM32N6xx_HAL_Driver/Src/stm32n6xx_hal_i2c_ex.c **** 
 169:STM32Cube_FW_N6/Drivers/STM32N6xx_HAL_Driver/Src/stm32n6xx_hal_i2c_ex.c ****     __HAL_I2C_ENABLE(hi2c);
 301              		.loc 1 169 5 is_stmt 1 view .LVU90
 302 0082 1A68     		ldr	r2, [r3]
 303              	.LVL14:
 304              		.loc 1 169 5 is_stmt 0 view .LVU91
 305 0084 42F00102 		orr	r2, r2, #1
 306 0088 1A60     		str	r2, [r3]
 307              	.LVL15:
 170:STM32Cube_FW_N6/Drivers/STM32N6xx_HAL_Driver/Src/stm32n6xx_hal_i2c_ex.c **** 
 171:STM32Cube_FW_N6/Drivers/STM32N6xx_HAL_Driver/Src/stm32n6xx_hal_i2c_ex.c ****     hi2c->State = HAL_I2C_STATE_READY;
 308              		.loc 1 171 5 is_stmt 1 view .LVU92
 309              		.loc 1 171 17 is_stmt 0 view .LVU93
 310 008a 84F84100 		strb	r0, [r4, #65]
 172:STM32Cube_FW_N6/Drivers/STM32N6xx_HAL_Driver/Src/stm32n6xx_hal_i2c_ex.c **** 
 173:STM32Cube_FW_N6/Drivers/STM32N6xx_HAL_Driver/Src/stm32n6xx_hal_i2c_ex.c ****     /* Process Unlocked */
 174:STM32Cube_FW_N6/Drivers/STM32N6xx_HAL_Driver/Src/stm32n6xx_hal_i2c_ex.c ****     __HAL_UNLOCK(hi2c);
 311              		.loc 1 174 5 is_stmt 1 view .LVU94
 312              		.loc 1 174 5 view .LVU95
 313 008e 0020     		movs	r0, #0
 314 0090 84F84000 		strb	r0, [r4, #64]
 315              		.loc 1 174 5 view .LVU96
 175:STM32Cube_FW_N6/Drivers/STM32N6xx_HAL_Driver/Src/stm32n6xx_hal_i2c_ex.c **** 
ARM GAS  C:\Users\DJESSOU\AppData\Local\Temp\ccn9qHUf.s 			page 10


 176:STM32Cube_FW_N6/Drivers/STM32N6xx_HAL_Driver/Src/stm32n6xx_hal_i2c_ex.c ****     return HAL_OK;
 316              		.loc 1 176 5 view .LVU97
 317              	.LVL16:
 318              	.L15:
 177:STM32Cube_FW_N6/Drivers/STM32N6xx_HAL_Driver/Src/stm32n6xx_hal_i2c_ex.c ****   }
 178:STM32Cube_FW_N6/Drivers/STM32N6xx_HAL_Driver/Src/stm32n6xx_hal_i2c_ex.c ****   else
 179:STM32Cube_FW_N6/Drivers/STM32N6xx_HAL_Driver/Src/stm32n6xx_hal_i2c_ex.c ****   {
 180:STM32Cube_FW_N6/Drivers/STM32N6xx_HAL_Driver/Src/stm32n6xx_hal_i2c_ex.c ****     return HAL_BUSY;
 181:STM32Cube_FW_N6/Drivers/STM32N6xx_HAL_Driver/Src/stm32n6xx_hal_i2c_ex.c ****   }
 182:STM32Cube_FW_N6/Drivers/STM32N6xx_HAL_Driver/Src/stm32n6xx_hal_i2c_ex.c **** }
 319              		.loc 1 182 1 is_stmt 0 view .LVU98
 320 0094 38BD     		pop	{r3, r4, r5, pc}
 321              	.LVL17:
 322              	.L17:
 150:STM32Cube_FW_N6/Drivers/STM32N6xx_HAL_Driver/Src/stm32n6xx_hal_i2c_ex.c **** 
 323              		.loc 1 150 5 discriminator 1 view .LVU99
 324 0096 0220     		movs	r0, #2
 325 0098 FCE7     		b	.L15
 326              	.L19:
 327 009a 00BF     		.align	2
 328              	.L18:
 329 009c 00540050 		.word	1342198784
 330 00a0 00580050 		.word	1342199808
 331 00a4 005C0050 		.word	1342200832
 332 00a8 001C0056 		.word	1442847744
 333 00ac 00000000 		.word	.LC0
 334              		.cfi_endproc
 335              	.LFE863:
 337              		.section	.text.HAL_I2CEx_EnableWakeUp,"ax",%progbits
 338              		.align	1
 339              		.global	HAL_I2CEx_EnableWakeUp
 340              		.syntax unified
 341              		.thumb
 342              		.thumb_func
 344              	HAL_I2CEx_EnableWakeUp:
 345              	.LVL18:
 346              	.LFB864:
 183:STM32Cube_FW_N6/Drivers/STM32N6xx_HAL_Driver/Src/stm32n6xx_hal_i2c_ex.c **** /**
 184:STM32Cube_FW_N6/Drivers/STM32N6xx_HAL_Driver/Src/stm32n6xx_hal_i2c_ex.c ****   * @}
 185:STM32Cube_FW_N6/Drivers/STM32N6xx_HAL_Driver/Src/stm32n6xx_hal_i2c_ex.c ****   */
 186:STM32Cube_FW_N6/Drivers/STM32N6xx_HAL_Driver/Src/stm32n6xx_hal_i2c_ex.c **** 
 187:STM32Cube_FW_N6/Drivers/STM32N6xx_HAL_Driver/Src/stm32n6xx_hal_i2c_ex.c **** /** @defgroup I2CEx_Exported_Functions_Group2 WakeUp Mode Functions
 188:STM32Cube_FW_N6/Drivers/STM32N6xx_HAL_Driver/Src/stm32n6xx_hal_i2c_ex.c ****   * @brief    WakeUp Mode Functions
 189:STM32Cube_FW_N6/Drivers/STM32N6xx_HAL_Driver/Src/stm32n6xx_hal_i2c_ex.c ****   *
 190:STM32Cube_FW_N6/Drivers/STM32N6xx_HAL_Driver/Src/stm32n6xx_hal_i2c_ex.c **** @verbatim
 191:STM32Cube_FW_N6/Drivers/STM32N6xx_HAL_Driver/Src/stm32n6xx_hal_i2c_ex.c ****  ===============================================================================
 192:STM32Cube_FW_N6/Drivers/STM32N6xx_HAL_Driver/Src/stm32n6xx_hal_i2c_ex.c ****                       ##### WakeUp Mode Functions #####
 193:STM32Cube_FW_N6/Drivers/STM32N6xx_HAL_Driver/Src/stm32n6xx_hal_i2c_ex.c ****  ===============================================================================
 194:STM32Cube_FW_N6/Drivers/STM32N6xx_HAL_Driver/Src/stm32n6xx_hal_i2c_ex.c ****     [..] This section provides functions allowing to:
 195:STM32Cube_FW_N6/Drivers/STM32N6xx_HAL_Driver/Src/stm32n6xx_hal_i2c_ex.c ****       (+) Configure Wake Up Feature
 196:STM32Cube_FW_N6/Drivers/STM32N6xx_HAL_Driver/Src/stm32n6xx_hal_i2c_ex.c **** 
 197:STM32Cube_FW_N6/Drivers/STM32N6xx_HAL_Driver/Src/stm32n6xx_hal_i2c_ex.c **** @endverbatim
 198:STM32Cube_FW_N6/Drivers/STM32N6xx_HAL_Driver/Src/stm32n6xx_hal_i2c_ex.c ****   * @{
 199:STM32Cube_FW_N6/Drivers/STM32N6xx_HAL_Driver/Src/stm32n6xx_hal_i2c_ex.c ****   */
 200:STM32Cube_FW_N6/Drivers/STM32N6xx_HAL_Driver/Src/stm32n6xx_hal_i2c_ex.c **** 
 201:STM32Cube_FW_N6/Drivers/STM32N6xx_HAL_Driver/Src/stm32n6xx_hal_i2c_ex.c **** /**
 202:STM32Cube_FW_N6/Drivers/STM32N6xx_HAL_Driver/Src/stm32n6xx_hal_i2c_ex.c ****   * @brief  Enable I2C wakeup from Stop mode(s).
ARM GAS  C:\Users\DJESSOU\AppData\Local\Temp\ccn9qHUf.s 			page 11


 203:STM32Cube_FW_N6/Drivers/STM32N6xx_HAL_Driver/Src/stm32n6xx_hal_i2c_ex.c ****   * @param  hi2c Pointer to a I2C_HandleTypeDef structure that contains
 204:STM32Cube_FW_N6/Drivers/STM32N6xx_HAL_Driver/Src/stm32n6xx_hal_i2c_ex.c ****   *                the configuration information for the specified I2Cx peripheral.
 205:STM32Cube_FW_N6/Drivers/STM32N6xx_HAL_Driver/Src/stm32n6xx_hal_i2c_ex.c ****   * @retval HAL status
 206:STM32Cube_FW_N6/Drivers/STM32N6xx_HAL_Driver/Src/stm32n6xx_hal_i2c_ex.c ****   */
 207:STM32Cube_FW_N6/Drivers/STM32N6xx_HAL_Driver/Src/stm32n6xx_hal_i2c_ex.c **** HAL_StatusTypeDef HAL_I2CEx_EnableWakeUp(I2C_HandleTypeDef *hi2c)
 208:STM32Cube_FW_N6/Drivers/STM32N6xx_HAL_Driver/Src/stm32n6xx_hal_i2c_ex.c **** {
 347              		.loc 1 208 1 is_stmt 1 view -0
 348              		.cfi_startproc
 349              		@ args = 0, pretend = 0, frame = 0
 350              		@ frame_needed = 0, uses_anonymous_args = 0
 209:STM32Cube_FW_N6/Drivers/STM32N6xx_HAL_Driver/Src/stm32n6xx_hal_i2c_ex.c ****   /* Check the parameters */
 210:STM32Cube_FW_N6/Drivers/STM32N6xx_HAL_Driver/Src/stm32n6xx_hal_i2c_ex.c ****   assert_param(IS_I2C_WAKEUP_FROMSTOP_INSTANCE(hi2c->Instance));
 351              		.loc 1 210 3 view .LVU101
 352 0000 0368     		ldr	r3, [r0]
 353 0002 214A     		ldr	r2, .L25
 208:STM32Cube_FW_N6/Drivers/STM32N6xx_HAL_Driver/Src/stm32n6xx_hal_i2c_ex.c ****   /* Check the parameters */
 354              		.loc 1 208 1 is_stmt 0 view .LVU102
 355 0004 10B5     		push	{r4, lr}
 356              		.cfi_def_cfa_offset 8
 357              		.cfi_offset 4, -8
 358              		.cfi_offset 14, -4
 359              		.loc 1 210 3 view .LVU103
 360 0006 9342     		cmp	r3, r2
 208:STM32Cube_FW_N6/Drivers/STM32N6xx_HAL_Driver/Src/stm32n6xx_hal_i2c_ex.c ****   /* Check the parameters */
 361              		.loc 1 208 1 view .LVU104
 362 0008 0446     		mov	r4, r0
 363              		.loc 1 210 3 view .LVU105
 364 000a 1CD0     		beq	.L21
 365              		.loc 1 210 3 discriminator 1 view .LVU106
 366 000c 02F17042 		add	r2, r2, #-268435456
 367 0010 9342     		cmp	r3, r2
 368 0012 18D0     		beq	.L21
 369              		.loc 1 210 3 discriminator 2 view .LVU107
 370 0014 1D4A     		ldr	r2, .L25+4
 371 0016 9342     		cmp	r3, r2
 372 0018 15D0     		beq	.L21
 373              		.loc 1 210 3 discriminator 3 view .LVU108
 374 001a 02F17042 		add	r2, r2, #-268435456
 375 001e 9342     		cmp	r3, r2
 376 0020 11D0     		beq	.L21
 377              		.loc 1 210 3 discriminator 4 view .LVU109
 378 0022 1B4A     		ldr	r2, .L25+8
 379 0024 9342     		cmp	r3, r2
 380 0026 0ED0     		beq	.L21
 381              		.loc 1 210 3 discriminator 5 view .LVU110
 382 0028 02F17042 		add	r2, r2, #-268435456
 383 002c 9342     		cmp	r3, r2
 384 002e 0AD0     		beq	.L21
 385              		.loc 1 210 3 discriminator 6 view .LVU111
 386 0030 184A     		ldr	r2, .L25+12
 387 0032 9342     		cmp	r3, r2
 388 0034 07D0     		beq	.L21
 389              		.loc 1 210 3 discriminator 7 view .LVU112
 390 0036 02F17042 		add	r2, r2, #-268435456
 391 003a 9342     		cmp	r3, r2
 392 003c 03D0     		beq	.L21
 393              		.loc 1 210 3 discriminator 8 view .LVU113
ARM GAS  C:\Users\DJESSOU\AppData\Local\Temp\ccn9qHUf.s 			page 12


 394 003e D221     		movs	r1, #210
 395 0040 1548     		ldr	r0, .L25+16
 396              	.LVL19:
 397              		.loc 1 210 3 discriminator 8 view .LVU114
 398 0042 FFF7FEFF 		bl	assert_failed
 399              	.LVL20:
 400              	.L21:
 211:STM32Cube_FW_N6/Drivers/STM32N6xx_HAL_Driver/Src/stm32n6xx_hal_i2c_ex.c **** 
 212:STM32Cube_FW_N6/Drivers/STM32N6xx_HAL_Driver/Src/stm32n6xx_hal_i2c_ex.c ****   if (hi2c->State == HAL_I2C_STATE_READY)
 401              		.loc 1 212 3 is_stmt 1 view .LVU115
 402              		.loc 1 212 11 is_stmt 0 view .LVU116
 403 0046 94F84130 		ldrb	r3, [r4, #65]	@ zero_extendqisi2
 404              		.loc 1 212 6 view .LVU117
 405 004a 202B     		cmp	r3, #32
 406              		.loc 1 212 11 view .LVU118
 407 004c D9B2     		uxtb	r1, r3
 408              		.loc 1 212 6 view .LVU119
 409 004e 19D1     		bne	.L24
 213:STM32Cube_FW_N6/Drivers/STM32N6xx_HAL_Driver/Src/stm32n6xx_hal_i2c_ex.c ****   {
 214:STM32Cube_FW_N6/Drivers/STM32N6xx_HAL_Driver/Src/stm32n6xx_hal_i2c_ex.c ****     /* Process Locked */
 215:STM32Cube_FW_N6/Drivers/STM32N6xx_HAL_Driver/Src/stm32n6xx_hal_i2c_ex.c ****     __HAL_LOCK(hi2c);
 410              		.loc 1 215 5 is_stmt 1 view .LVU120
 411              		.loc 1 215 5 view .LVU121
 412 0050 94F84030 		ldrb	r3, [r4, #64]	@ zero_extendqisi2
 413 0054 012B     		cmp	r3, #1
 414 0056 15D0     		beq	.L24
 415              		.loc 1 215 5 discriminator 2 view .LVU122
 416              		.loc 1 215 5 discriminator 2 view .LVU123
 216:STM32Cube_FW_N6/Drivers/STM32N6xx_HAL_Driver/Src/stm32n6xx_hal_i2c_ex.c **** 
 217:STM32Cube_FW_N6/Drivers/STM32N6xx_HAL_Driver/Src/stm32n6xx_hal_i2c_ex.c ****     hi2c->State = HAL_I2C_STATE_BUSY;
 417              		.loc 1 217 5 view .LVU124
 418              		.loc 1 217 17 is_stmt 0 view .LVU125
 419 0058 2423     		movs	r3, #36
 218:STM32Cube_FW_N6/Drivers/STM32N6xx_HAL_Driver/Src/stm32n6xx_hal_i2c_ex.c **** 
 219:STM32Cube_FW_N6/Drivers/STM32N6xx_HAL_Driver/Src/stm32n6xx_hal_i2c_ex.c ****     /* Disable the selected I2C peripheral */
 220:STM32Cube_FW_N6/Drivers/STM32N6xx_HAL_Driver/Src/stm32n6xx_hal_i2c_ex.c ****     __HAL_I2C_DISABLE(hi2c);
 221:STM32Cube_FW_N6/Drivers/STM32N6xx_HAL_Driver/Src/stm32n6xx_hal_i2c_ex.c **** 
 222:STM32Cube_FW_N6/Drivers/STM32N6xx_HAL_Driver/Src/stm32n6xx_hal_i2c_ex.c ****     /* Enable wakeup from stop mode */
 223:STM32Cube_FW_N6/Drivers/STM32N6xx_HAL_Driver/Src/stm32n6xx_hal_i2c_ex.c ****     hi2c->Instance->CR1 |= I2C_CR1_WUPEN;
 224:STM32Cube_FW_N6/Drivers/STM32N6xx_HAL_Driver/Src/stm32n6xx_hal_i2c_ex.c **** 
 225:STM32Cube_FW_N6/Drivers/STM32N6xx_HAL_Driver/Src/stm32n6xx_hal_i2c_ex.c ****     __HAL_I2C_ENABLE(hi2c);
 226:STM32Cube_FW_N6/Drivers/STM32N6xx_HAL_Driver/Src/stm32n6xx_hal_i2c_ex.c **** 
 227:STM32Cube_FW_N6/Drivers/STM32N6xx_HAL_Driver/Src/stm32n6xx_hal_i2c_ex.c ****     hi2c->State = HAL_I2C_STATE_READY;
 228:STM32Cube_FW_N6/Drivers/STM32N6xx_HAL_Driver/Src/stm32n6xx_hal_i2c_ex.c **** 
 229:STM32Cube_FW_N6/Drivers/STM32N6xx_HAL_Driver/Src/stm32n6xx_hal_i2c_ex.c ****     /* Process Unlocked */
 230:STM32Cube_FW_N6/Drivers/STM32N6xx_HAL_Driver/Src/stm32n6xx_hal_i2c_ex.c ****     __HAL_UNLOCK(hi2c);
 420              		.loc 1 230 5 view .LVU126
 421 005a 0020     		movs	r0, #0
 217:STM32Cube_FW_N6/Drivers/STM32N6xx_HAL_Driver/Src/stm32n6xx_hal_i2c_ex.c **** 
 422              		.loc 1 217 17 view .LVU127
 423 005c 84F84130 		strb	r3, [r4, #65]
 220:STM32Cube_FW_N6/Drivers/STM32N6xx_HAL_Driver/Src/stm32n6xx_hal_i2c_ex.c **** 
 424              		.loc 1 220 5 is_stmt 1 view .LVU128
 425 0060 2368     		ldr	r3, [r4]
 426 0062 1A68     		ldr	r2, [r3]
 427 0064 22F00102 		bic	r2, r2, #1
 428 0068 1A60     		str	r2, [r3]
ARM GAS  C:\Users\DJESSOU\AppData\Local\Temp\ccn9qHUf.s 			page 13


 223:STM32Cube_FW_N6/Drivers/STM32N6xx_HAL_Driver/Src/stm32n6xx_hal_i2c_ex.c **** 
 429              		.loc 1 223 5 view .LVU129
 223:STM32Cube_FW_N6/Drivers/STM32N6xx_HAL_Driver/Src/stm32n6xx_hal_i2c_ex.c **** 
 430              		.loc 1 223 19 is_stmt 0 view .LVU130
 431 006a 1A68     		ldr	r2, [r3]
 223:STM32Cube_FW_N6/Drivers/STM32N6xx_HAL_Driver/Src/stm32n6xx_hal_i2c_ex.c **** 
 432              		.loc 1 223 25 view .LVU131
 433 006c 42F48022 		orr	r2, r2, #262144
 434 0070 1A60     		str	r2, [r3]
 225:STM32Cube_FW_N6/Drivers/STM32N6xx_HAL_Driver/Src/stm32n6xx_hal_i2c_ex.c **** 
 435              		.loc 1 225 5 is_stmt 1 view .LVU132
 436 0072 1A68     		ldr	r2, [r3]
 437 0074 42F00102 		orr	r2, r2, #1
 438 0078 1A60     		str	r2, [r3]
 227:STM32Cube_FW_N6/Drivers/STM32N6xx_HAL_Driver/Src/stm32n6xx_hal_i2c_ex.c **** 
 439              		.loc 1 227 5 view .LVU133
 227:STM32Cube_FW_N6/Drivers/STM32N6xx_HAL_Driver/Src/stm32n6xx_hal_i2c_ex.c **** 
 440              		.loc 1 227 17 is_stmt 0 view .LVU134
 441 007a 84F84110 		strb	r1, [r4, #65]
 442              		.loc 1 230 5 is_stmt 1 view .LVU135
 443              		.loc 1 230 5 view .LVU136
 444 007e 84F84000 		strb	r0, [r4, #64]
 445              		.loc 1 230 5 view .LVU137
 231:STM32Cube_FW_N6/Drivers/STM32N6xx_HAL_Driver/Src/stm32n6xx_hal_i2c_ex.c **** 
 232:STM32Cube_FW_N6/Drivers/STM32N6xx_HAL_Driver/Src/stm32n6xx_hal_i2c_ex.c ****     return HAL_OK;
 446              		.loc 1 232 5 view .LVU138
 447              	.L22:
 233:STM32Cube_FW_N6/Drivers/STM32N6xx_HAL_Driver/Src/stm32n6xx_hal_i2c_ex.c ****   }
 234:STM32Cube_FW_N6/Drivers/STM32N6xx_HAL_Driver/Src/stm32n6xx_hal_i2c_ex.c ****   else
 235:STM32Cube_FW_N6/Drivers/STM32N6xx_HAL_Driver/Src/stm32n6xx_hal_i2c_ex.c ****   {
 236:STM32Cube_FW_N6/Drivers/STM32N6xx_HAL_Driver/Src/stm32n6xx_hal_i2c_ex.c ****     return HAL_BUSY;
 237:STM32Cube_FW_N6/Drivers/STM32N6xx_HAL_Driver/Src/stm32n6xx_hal_i2c_ex.c ****   }
 238:STM32Cube_FW_N6/Drivers/STM32N6xx_HAL_Driver/Src/stm32n6xx_hal_i2c_ex.c **** }
 448              		.loc 1 238 1 is_stmt 0 view .LVU139
 449 0082 10BD     		pop	{r4, pc}
 450              	.LVL21:
 451              	.L24:
 215:STM32Cube_FW_N6/Drivers/STM32N6xx_HAL_Driver/Src/stm32n6xx_hal_i2c_ex.c **** 
 452              		.loc 1 215 5 discriminator 1 view .LVU140
 453 0084 0220     		movs	r0, #2
 454 0086 FCE7     		b	.L22
 455              	.L26:
 456              		.align	2
 457              	.L25:
 458 0088 00540050 		.word	1342198784
 459 008c 00580050 		.word	1342199808
 460 0090 005C0050 		.word	1342200832
 461 0094 001C0056 		.word	1442847744
 462 0098 00000000 		.word	.LC0
 463              		.cfi_endproc
 464              	.LFE864:
 466              		.section	.text.HAL_I2CEx_DisableWakeUp,"ax",%progbits
 467              		.align	1
 468              		.global	HAL_I2CEx_DisableWakeUp
 469              		.syntax unified
 470              		.thumb
 471              		.thumb_func
ARM GAS  C:\Users\DJESSOU\AppData\Local\Temp\ccn9qHUf.s 			page 14


 473              	HAL_I2CEx_DisableWakeUp:
 474              	.LVL22:
 475              	.LFB865:
 239:STM32Cube_FW_N6/Drivers/STM32N6xx_HAL_Driver/Src/stm32n6xx_hal_i2c_ex.c **** 
 240:STM32Cube_FW_N6/Drivers/STM32N6xx_HAL_Driver/Src/stm32n6xx_hal_i2c_ex.c **** /**
 241:STM32Cube_FW_N6/Drivers/STM32N6xx_HAL_Driver/Src/stm32n6xx_hal_i2c_ex.c ****   * @brief  Disable I2C wakeup from Stop mode(s).
 242:STM32Cube_FW_N6/Drivers/STM32N6xx_HAL_Driver/Src/stm32n6xx_hal_i2c_ex.c ****   * @param  hi2c Pointer to a I2C_HandleTypeDef structure that contains
 243:STM32Cube_FW_N6/Drivers/STM32N6xx_HAL_Driver/Src/stm32n6xx_hal_i2c_ex.c ****   *                the configuration information for the specified I2Cx peripheral.
 244:STM32Cube_FW_N6/Drivers/STM32N6xx_HAL_Driver/Src/stm32n6xx_hal_i2c_ex.c ****   * @retval HAL status
 245:STM32Cube_FW_N6/Drivers/STM32N6xx_HAL_Driver/Src/stm32n6xx_hal_i2c_ex.c ****   */
 246:STM32Cube_FW_N6/Drivers/STM32N6xx_HAL_Driver/Src/stm32n6xx_hal_i2c_ex.c **** HAL_StatusTypeDef HAL_I2CEx_DisableWakeUp(I2C_HandleTypeDef *hi2c)
 247:STM32Cube_FW_N6/Drivers/STM32N6xx_HAL_Driver/Src/stm32n6xx_hal_i2c_ex.c **** {
 476              		.loc 1 247 1 is_stmt 1 view -0
 477              		.cfi_startproc
 478              		@ args = 0, pretend = 0, frame = 0
 479              		@ frame_needed = 0, uses_anonymous_args = 0
 248:STM32Cube_FW_N6/Drivers/STM32N6xx_HAL_Driver/Src/stm32n6xx_hal_i2c_ex.c ****   /* Check the parameters */
 249:STM32Cube_FW_N6/Drivers/STM32N6xx_HAL_Driver/Src/stm32n6xx_hal_i2c_ex.c ****   assert_param(IS_I2C_WAKEUP_FROMSTOP_INSTANCE(hi2c->Instance));
 480              		.loc 1 249 3 view .LVU142
 481 0000 0368     		ldr	r3, [r0]
 482 0002 214A     		ldr	r2, .L32
 247:STM32Cube_FW_N6/Drivers/STM32N6xx_HAL_Driver/Src/stm32n6xx_hal_i2c_ex.c ****   /* Check the parameters */
 483              		.loc 1 247 1 is_stmt 0 view .LVU143
 484 0004 10B5     		push	{r4, lr}
 485              		.cfi_def_cfa_offset 8
 486              		.cfi_offset 4, -8
 487              		.cfi_offset 14, -4
 488              		.loc 1 249 3 view .LVU144
 489 0006 9342     		cmp	r3, r2
 247:STM32Cube_FW_N6/Drivers/STM32N6xx_HAL_Driver/Src/stm32n6xx_hal_i2c_ex.c ****   /* Check the parameters */
 490              		.loc 1 247 1 view .LVU145
 491 0008 0446     		mov	r4, r0
 492              		.loc 1 249 3 view .LVU146
 493 000a 1CD0     		beq	.L28
 494              		.loc 1 249 3 discriminator 1 view .LVU147
 495 000c 02F17042 		add	r2, r2, #-268435456
 496 0010 9342     		cmp	r3, r2
 497 0012 18D0     		beq	.L28
 498              		.loc 1 249 3 discriminator 2 view .LVU148
 499 0014 1D4A     		ldr	r2, .L32+4
 500 0016 9342     		cmp	r3, r2
 501 0018 15D0     		beq	.L28
 502              		.loc 1 249 3 discriminator 3 view .LVU149
 503 001a 02F17042 		add	r2, r2, #-268435456
 504 001e 9342     		cmp	r3, r2
 505 0020 11D0     		beq	.L28
 506              		.loc 1 249 3 discriminator 4 view .LVU150
 507 0022 1B4A     		ldr	r2, .L32+8
 508 0024 9342     		cmp	r3, r2
 509 0026 0ED0     		beq	.L28
 510              		.loc 1 249 3 discriminator 5 view .LVU151
 511 0028 02F17042 		add	r2, r2, #-268435456
 512 002c 9342     		cmp	r3, r2
 513 002e 0AD0     		beq	.L28
 514              		.loc 1 249 3 discriminator 6 view .LVU152
 515 0030 184A     		ldr	r2, .L32+12
 516 0032 9342     		cmp	r3, r2
ARM GAS  C:\Users\DJESSOU\AppData\Local\Temp\ccn9qHUf.s 			page 15


 517 0034 07D0     		beq	.L28
 518              		.loc 1 249 3 discriminator 7 view .LVU153
 519 0036 02F17042 		add	r2, r2, #-268435456
 520 003a 9342     		cmp	r3, r2
 521 003c 03D0     		beq	.L28
 522              		.loc 1 249 3 discriminator 8 view .LVU154
 523 003e F921     		movs	r1, #249
 524 0040 1548     		ldr	r0, .L32+16
 525              	.LVL23:
 526              		.loc 1 249 3 discriminator 8 view .LVU155
 527 0042 FFF7FEFF 		bl	assert_failed
 528              	.LVL24:
 529              	.L28:
 250:STM32Cube_FW_N6/Drivers/STM32N6xx_HAL_Driver/Src/stm32n6xx_hal_i2c_ex.c **** 
 251:STM32Cube_FW_N6/Drivers/STM32N6xx_HAL_Driver/Src/stm32n6xx_hal_i2c_ex.c ****   if (hi2c->State == HAL_I2C_STATE_READY)
 530              		.loc 1 251 3 is_stmt 1 view .LVU156
 531              		.loc 1 251 11 is_stmt 0 view .LVU157
 532 0046 94F84130 		ldrb	r3, [r4, #65]	@ zero_extendqisi2
 533              		.loc 1 251 6 view .LVU158
 534 004a 202B     		cmp	r3, #32
 535              		.loc 1 251 11 view .LVU159
 536 004c D9B2     		uxtb	r1, r3
 537              		.loc 1 251 6 view .LVU160
 538 004e 19D1     		bne	.L31
 252:STM32Cube_FW_N6/Drivers/STM32N6xx_HAL_Driver/Src/stm32n6xx_hal_i2c_ex.c ****   {
 253:STM32Cube_FW_N6/Drivers/STM32N6xx_HAL_Driver/Src/stm32n6xx_hal_i2c_ex.c ****     /* Process Locked */
 254:STM32Cube_FW_N6/Drivers/STM32N6xx_HAL_Driver/Src/stm32n6xx_hal_i2c_ex.c ****     __HAL_LOCK(hi2c);
 539              		.loc 1 254 5 is_stmt 1 view .LVU161
 540              		.loc 1 254 5 view .LVU162
 541 0050 94F84030 		ldrb	r3, [r4, #64]	@ zero_extendqisi2
 542 0054 012B     		cmp	r3, #1
 543 0056 15D0     		beq	.L31
 544              		.loc 1 254 5 discriminator 2 view .LVU163
 545              		.loc 1 254 5 discriminator 2 view .LVU164
 255:STM32Cube_FW_N6/Drivers/STM32N6xx_HAL_Driver/Src/stm32n6xx_hal_i2c_ex.c **** 
 256:STM32Cube_FW_N6/Drivers/STM32N6xx_HAL_Driver/Src/stm32n6xx_hal_i2c_ex.c ****     hi2c->State = HAL_I2C_STATE_BUSY;
 546              		.loc 1 256 5 view .LVU165
 547              		.loc 1 256 17 is_stmt 0 view .LVU166
 548 0058 2423     		movs	r3, #36
 257:STM32Cube_FW_N6/Drivers/STM32N6xx_HAL_Driver/Src/stm32n6xx_hal_i2c_ex.c **** 
 258:STM32Cube_FW_N6/Drivers/STM32N6xx_HAL_Driver/Src/stm32n6xx_hal_i2c_ex.c ****     /* Disable the selected I2C peripheral */
 259:STM32Cube_FW_N6/Drivers/STM32N6xx_HAL_Driver/Src/stm32n6xx_hal_i2c_ex.c ****     __HAL_I2C_DISABLE(hi2c);
 260:STM32Cube_FW_N6/Drivers/STM32N6xx_HAL_Driver/Src/stm32n6xx_hal_i2c_ex.c **** 
 261:STM32Cube_FW_N6/Drivers/STM32N6xx_HAL_Driver/Src/stm32n6xx_hal_i2c_ex.c ****     /* Enable wakeup from stop mode */
 262:STM32Cube_FW_N6/Drivers/STM32N6xx_HAL_Driver/Src/stm32n6xx_hal_i2c_ex.c ****     hi2c->Instance->CR1 &= ~(I2C_CR1_WUPEN);
 263:STM32Cube_FW_N6/Drivers/STM32N6xx_HAL_Driver/Src/stm32n6xx_hal_i2c_ex.c **** 
 264:STM32Cube_FW_N6/Drivers/STM32N6xx_HAL_Driver/Src/stm32n6xx_hal_i2c_ex.c ****     __HAL_I2C_ENABLE(hi2c);
 265:STM32Cube_FW_N6/Drivers/STM32N6xx_HAL_Driver/Src/stm32n6xx_hal_i2c_ex.c **** 
 266:STM32Cube_FW_N6/Drivers/STM32N6xx_HAL_Driver/Src/stm32n6xx_hal_i2c_ex.c ****     hi2c->State = HAL_I2C_STATE_READY;
 267:STM32Cube_FW_N6/Drivers/STM32N6xx_HAL_Driver/Src/stm32n6xx_hal_i2c_ex.c **** 
 268:STM32Cube_FW_N6/Drivers/STM32N6xx_HAL_Driver/Src/stm32n6xx_hal_i2c_ex.c ****     /* Process Unlocked */
 269:STM32Cube_FW_N6/Drivers/STM32N6xx_HAL_Driver/Src/stm32n6xx_hal_i2c_ex.c ****     __HAL_UNLOCK(hi2c);
 549              		.loc 1 269 5 view .LVU167
 550 005a 0020     		movs	r0, #0
 256:STM32Cube_FW_N6/Drivers/STM32N6xx_HAL_Driver/Src/stm32n6xx_hal_i2c_ex.c **** 
 551              		.loc 1 256 17 view .LVU168
 552 005c 84F84130 		strb	r3, [r4, #65]
ARM GAS  C:\Users\DJESSOU\AppData\Local\Temp\ccn9qHUf.s 			page 16


 259:STM32Cube_FW_N6/Drivers/STM32N6xx_HAL_Driver/Src/stm32n6xx_hal_i2c_ex.c **** 
 553              		.loc 1 259 5 is_stmt 1 view .LVU169
 554 0060 2368     		ldr	r3, [r4]
 555 0062 1A68     		ldr	r2, [r3]
 556 0064 22F00102 		bic	r2, r2, #1
 557 0068 1A60     		str	r2, [r3]
 262:STM32Cube_FW_N6/Drivers/STM32N6xx_HAL_Driver/Src/stm32n6xx_hal_i2c_ex.c **** 
 558              		.loc 1 262 5 view .LVU170
 262:STM32Cube_FW_N6/Drivers/STM32N6xx_HAL_Driver/Src/stm32n6xx_hal_i2c_ex.c **** 
 559              		.loc 1 262 19 is_stmt 0 view .LVU171
 560 006a 1A68     		ldr	r2, [r3]
 262:STM32Cube_FW_N6/Drivers/STM32N6xx_HAL_Driver/Src/stm32n6xx_hal_i2c_ex.c **** 
 561              		.loc 1 262 25 view .LVU172
 562 006c 22F48022 		bic	r2, r2, #262144
 563 0070 1A60     		str	r2, [r3]
 264:STM32Cube_FW_N6/Drivers/STM32N6xx_HAL_Driver/Src/stm32n6xx_hal_i2c_ex.c **** 
 564              		.loc 1 264 5 is_stmt 1 view .LVU173
 565 0072 1A68     		ldr	r2, [r3]
 566 0074 42F00102 		orr	r2, r2, #1
 567 0078 1A60     		str	r2, [r3]
 266:STM32Cube_FW_N6/Drivers/STM32N6xx_HAL_Driver/Src/stm32n6xx_hal_i2c_ex.c **** 
 568              		.loc 1 266 5 view .LVU174
 266:STM32Cube_FW_N6/Drivers/STM32N6xx_HAL_Driver/Src/stm32n6xx_hal_i2c_ex.c **** 
 569              		.loc 1 266 17 is_stmt 0 view .LVU175
 570 007a 84F84110 		strb	r1, [r4, #65]
 571              		.loc 1 269 5 is_stmt 1 view .LVU176
 572              		.loc 1 269 5 view .LVU177
 573 007e 84F84000 		strb	r0, [r4, #64]
 574              		.loc 1 269 5 view .LVU178
 270:STM32Cube_FW_N6/Drivers/STM32N6xx_HAL_Driver/Src/stm32n6xx_hal_i2c_ex.c **** 
 271:STM32Cube_FW_N6/Drivers/STM32N6xx_HAL_Driver/Src/stm32n6xx_hal_i2c_ex.c ****     return HAL_OK;
 575              		.loc 1 271 5 view .LVU179
 576              	.L29:
 272:STM32Cube_FW_N6/Drivers/STM32N6xx_HAL_Driver/Src/stm32n6xx_hal_i2c_ex.c ****   }
 273:STM32Cube_FW_N6/Drivers/STM32N6xx_HAL_Driver/Src/stm32n6xx_hal_i2c_ex.c ****   else
 274:STM32Cube_FW_N6/Drivers/STM32N6xx_HAL_Driver/Src/stm32n6xx_hal_i2c_ex.c ****   {
 275:STM32Cube_FW_N6/Drivers/STM32N6xx_HAL_Driver/Src/stm32n6xx_hal_i2c_ex.c ****     return HAL_BUSY;
 276:STM32Cube_FW_N6/Drivers/STM32N6xx_HAL_Driver/Src/stm32n6xx_hal_i2c_ex.c ****   }
 277:STM32Cube_FW_N6/Drivers/STM32N6xx_HAL_Driver/Src/stm32n6xx_hal_i2c_ex.c **** }
 577              		.loc 1 277 1 is_stmt 0 view .LVU180
 578 0082 10BD     		pop	{r4, pc}
 579              	.LVL25:
 580              	.L31:
 254:STM32Cube_FW_N6/Drivers/STM32N6xx_HAL_Driver/Src/stm32n6xx_hal_i2c_ex.c **** 
 581              		.loc 1 254 5 discriminator 1 view .LVU181
 582 0084 0220     		movs	r0, #2
 583 0086 FCE7     		b	.L29
 584              	.L33:
 585              		.align	2
 586              	.L32:
 587 0088 00540050 		.word	1342198784
 588 008c 00580050 		.word	1342199808
 589 0090 005C0050 		.word	1342200832
 590 0094 001C0056 		.word	1442847744
 591 0098 00000000 		.word	.LC0
 592              		.cfi_endproc
 593              	.LFE865:
ARM GAS  C:\Users\DJESSOU\AppData\Local\Temp\ccn9qHUf.s 			page 17


 595              		.section	.text.HAL_I2CEx_ConfigFastModePlus,"ax",%progbits
 596              		.align	1
 597              		.global	HAL_I2CEx_ConfigFastModePlus
 598              		.syntax unified
 599              		.thumb
 600              		.thumb_func
 602              	HAL_I2CEx_ConfigFastModePlus:
 603              	.LVL26:
 604              	.LFB866:
 278:STM32Cube_FW_N6/Drivers/STM32N6xx_HAL_Driver/Src/stm32n6xx_hal_i2c_ex.c **** /**
 279:STM32Cube_FW_N6/Drivers/STM32N6xx_HAL_Driver/Src/stm32n6xx_hal_i2c_ex.c ****   * @}
 280:STM32Cube_FW_N6/Drivers/STM32N6xx_HAL_Driver/Src/stm32n6xx_hal_i2c_ex.c ****   */
 281:STM32Cube_FW_N6/Drivers/STM32N6xx_HAL_Driver/Src/stm32n6xx_hal_i2c_ex.c **** 
 282:STM32Cube_FW_N6/Drivers/STM32N6xx_HAL_Driver/Src/stm32n6xx_hal_i2c_ex.c **** /** @defgroup I2CEx_Exported_Functions_Group3 Fast Mode Plus Functions
 283:STM32Cube_FW_N6/Drivers/STM32N6xx_HAL_Driver/Src/stm32n6xx_hal_i2c_ex.c ****   * @brief    Fast Mode Plus Functions
 284:STM32Cube_FW_N6/Drivers/STM32N6xx_HAL_Driver/Src/stm32n6xx_hal_i2c_ex.c ****   *
 285:STM32Cube_FW_N6/Drivers/STM32N6xx_HAL_Driver/Src/stm32n6xx_hal_i2c_ex.c **** @verbatim
 286:STM32Cube_FW_N6/Drivers/STM32N6xx_HAL_Driver/Src/stm32n6xx_hal_i2c_ex.c ****  ===============================================================================
 287:STM32Cube_FW_N6/Drivers/STM32N6xx_HAL_Driver/Src/stm32n6xx_hal_i2c_ex.c ****                       ##### Fast Mode Plus Functions #####
 288:STM32Cube_FW_N6/Drivers/STM32N6xx_HAL_Driver/Src/stm32n6xx_hal_i2c_ex.c ****  ===============================================================================
 289:STM32Cube_FW_N6/Drivers/STM32N6xx_HAL_Driver/Src/stm32n6xx_hal_i2c_ex.c ****     [..] This section provides functions allowing to:
 290:STM32Cube_FW_N6/Drivers/STM32N6xx_HAL_Driver/Src/stm32n6xx_hal_i2c_ex.c ****       (+) Configure Fast Mode Plus
 291:STM32Cube_FW_N6/Drivers/STM32N6xx_HAL_Driver/Src/stm32n6xx_hal_i2c_ex.c **** 
 292:STM32Cube_FW_N6/Drivers/STM32N6xx_HAL_Driver/Src/stm32n6xx_hal_i2c_ex.c **** @endverbatim
 293:STM32Cube_FW_N6/Drivers/STM32N6xx_HAL_Driver/Src/stm32n6xx_hal_i2c_ex.c ****   * @{
 294:STM32Cube_FW_N6/Drivers/STM32N6xx_HAL_Driver/Src/stm32n6xx_hal_i2c_ex.c ****   */
 295:STM32Cube_FW_N6/Drivers/STM32N6xx_HAL_Driver/Src/stm32n6xx_hal_i2c_ex.c **** 
 296:STM32Cube_FW_N6/Drivers/STM32N6xx_HAL_Driver/Src/stm32n6xx_hal_i2c_ex.c **** /**
 297:STM32Cube_FW_N6/Drivers/STM32N6xx_HAL_Driver/Src/stm32n6xx_hal_i2c_ex.c ****   * @brief  Configure I2C Fast Mode Plus.
 298:STM32Cube_FW_N6/Drivers/STM32N6xx_HAL_Driver/Src/stm32n6xx_hal_i2c_ex.c ****   * @param  hi2c Pointer to a I2C_HandleTypeDef structure that contains
 299:STM32Cube_FW_N6/Drivers/STM32N6xx_HAL_Driver/Src/stm32n6xx_hal_i2c_ex.c ****   *                the configuration information for the specified I2Cx peripheral.
 300:STM32Cube_FW_N6/Drivers/STM32N6xx_HAL_Driver/Src/stm32n6xx_hal_i2c_ex.c ****   * @param  FastModePlus New state of the Fast Mode Plus.
 301:STM32Cube_FW_N6/Drivers/STM32N6xx_HAL_Driver/Src/stm32n6xx_hal_i2c_ex.c ****   * @retval HAL status
 302:STM32Cube_FW_N6/Drivers/STM32N6xx_HAL_Driver/Src/stm32n6xx_hal_i2c_ex.c ****   */
 303:STM32Cube_FW_N6/Drivers/STM32N6xx_HAL_Driver/Src/stm32n6xx_hal_i2c_ex.c **** HAL_StatusTypeDef HAL_I2CEx_ConfigFastModePlus(I2C_HandleTypeDef *hi2c, uint32_t FastModePlus)
 304:STM32Cube_FW_N6/Drivers/STM32N6xx_HAL_Driver/Src/stm32n6xx_hal_i2c_ex.c **** {
 605              		.loc 1 304 1 is_stmt 1 view -0
 606              		.cfi_startproc
 607              		@ args = 0, pretend = 0, frame = 0
 608              		@ frame_needed = 0, uses_anonymous_args = 0
 305:STM32Cube_FW_N6/Drivers/STM32N6xx_HAL_Driver/Src/stm32n6xx_hal_i2c_ex.c ****   /* Check the parameters */
 306:STM32Cube_FW_N6/Drivers/STM32N6xx_HAL_Driver/Src/stm32n6xx_hal_i2c_ex.c ****   assert_param(IS_I2C_ALL_INSTANCE(hi2c->Instance));
 609              		.loc 1 306 3 view .LVU183
 304:STM32Cube_FW_N6/Drivers/STM32N6xx_HAL_Driver/Src/stm32n6xx_hal_i2c_ex.c ****   /* Check the parameters */
 610              		.loc 1 304 1 is_stmt 0 view .LVU184
 611 0000 38B5     		push	{r3, r4, r5, lr}
 612              		.cfi_def_cfa_offset 16
 613              		.cfi_offset 3, -16
 614              		.cfi_offset 4, -12
 615              		.cfi_offset 5, -8
 616              		.cfi_offset 14, -4
 617              		.loc 1 306 3 view .LVU185
 618 0002 294A     		ldr	r2, .L43
 619 0004 0368     		ldr	r3, [r0]
 304:STM32Cube_FW_N6/Drivers/STM32N6xx_HAL_Driver/Src/stm32n6xx_hal_i2c_ex.c ****   /* Check the parameters */
 620              		.loc 1 304 1 view .LVU186
 621 0006 0446     		mov	r4, r0
ARM GAS  C:\Users\DJESSOU\AppData\Local\Temp\ccn9qHUf.s 			page 18


 622              		.loc 1 306 3 view .LVU187
 623 0008 9342     		cmp	r3, r2
 304:STM32Cube_FW_N6/Drivers/STM32N6xx_HAL_Driver/Src/stm32n6xx_hal_i2c_ex.c ****   /* Check the parameters */
 624              		.loc 1 304 1 view .LVU188
 625 000a 0D46     		mov	r5, r1
 626              		.loc 1 306 3 view .LVU189
 627 000c 1DD0     		beq	.L35
 628              		.loc 1 306 3 discriminator 1 view .LVU190
 629 000e 02F17042 		add	r2, r2, #-268435456
 630 0012 9342     		cmp	r3, r2
 631 0014 19D0     		beq	.L35
 632              		.loc 1 306 3 discriminator 2 view .LVU191
 633 0016 254A     		ldr	r2, .L43+4
 634 0018 9342     		cmp	r3, r2
 635 001a 16D0     		beq	.L35
 636              		.loc 1 306 3 discriminator 3 view .LVU192
 637 001c 02F17042 		add	r2, r2, #-268435456
 638 0020 9342     		cmp	r3, r2
 639 0022 12D0     		beq	.L35
 640              		.loc 1 306 3 discriminator 4 view .LVU193
 641 0024 224A     		ldr	r2, .L43+8
 642 0026 9342     		cmp	r3, r2
 643 0028 0FD0     		beq	.L35
 644              		.loc 1 306 3 discriminator 5 view .LVU194
 645 002a 02F17042 		add	r2, r2, #-268435456
 646 002e 9342     		cmp	r3, r2
 647 0030 0BD0     		beq	.L35
 648              		.loc 1 306 3 discriminator 6 view .LVU195
 649 0032 204A     		ldr	r2, .L43+12
 650 0034 9342     		cmp	r3, r2
 651 0036 08D0     		beq	.L35
 652              		.loc 1 306 3 discriminator 7 view .LVU196
 653 0038 02F17042 		add	r2, r2, #-268435456
 654 003c 9342     		cmp	r3, r2
 655 003e 04D0     		beq	.L35
 656              		.loc 1 306 3 discriminator 8 view .LVU197
 657 0040 4FF49971 		mov	r1, #306
 658              	.LVL27:
 659              		.loc 1 306 3 discriminator 8 view .LVU198
 660 0044 1C48     		ldr	r0, .L43+16
 661              	.LVL28:
 662              		.loc 1 306 3 discriminator 8 view .LVU199
 663 0046 FFF7FEFF 		bl	assert_failed
 664              	.LVL29:
 665              	.L35:
 307:STM32Cube_FW_N6/Drivers/STM32N6xx_HAL_Driver/Src/stm32n6xx_hal_i2c_ex.c ****   assert_param(IS_I2C_FASTMODEPLUS(FastModePlus));
 666              		.loc 1 307 3 is_stmt 1 view .LVU200
 667 004a 012D     		cmp	r5, #1
 668 004c 04D9     		bls	.L36
 669              		.loc 1 307 3 is_stmt 0 discriminator 1 view .LVU201
 670 004e 40F23311 		movw	r1, #307
 671 0052 1948     		ldr	r0, .L43+16
 672 0054 FFF7FEFF 		bl	assert_failed
 673              	.LVL30:
 674              	.L36:
 308:STM32Cube_FW_N6/Drivers/STM32N6xx_HAL_Driver/Src/stm32n6xx_hal_i2c_ex.c **** 
 309:STM32Cube_FW_N6/Drivers/STM32N6xx_HAL_Driver/Src/stm32n6xx_hal_i2c_ex.c ****   if (hi2c->State == HAL_I2C_STATE_READY)
ARM GAS  C:\Users\DJESSOU\AppData\Local\Temp\ccn9qHUf.s 			page 19


 675              		.loc 1 309 3 is_stmt 1 view .LVU202
 676              		.loc 1 309 11 is_stmt 0 view .LVU203
 677 0058 94F84130 		ldrb	r3, [r4, #65]	@ zero_extendqisi2
 678              		.loc 1 309 6 view .LVU204
 679 005c 202B     		cmp	r3, #32
 680 005e 21D1     		bne	.L41
 310:STM32Cube_FW_N6/Drivers/STM32N6xx_HAL_Driver/Src/stm32n6xx_hal_i2c_ex.c ****   {
 311:STM32Cube_FW_N6/Drivers/STM32N6xx_HAL_Driver/Src/stm32n6xx_hal_i2c_ex.c ****     /* Process Locked */
 312:STM32Cube_FW_N6/Drivers/STM32N6xx_HAL_Driver/Src/stm32n6xx_hal_i2c_ex.c ****     __HAL_LOCK(hi2c);
 681              		.loc 1 312 5 is_stmt 1 view .LVU205
 682              		.loc 1 312 5 view .LVU206
 683 0060 94F84030 		ldrb	r3, [r4, #64]	@ zero_extendqisi2
 684 0064 012B     		cmp	r3, #1
 685 0066 1DD0     		beq	.L41
 686              		.loc 1 312 5 discriminator 2 view .LVU207
 687 0068 0123     		movs	r3, #1
 688 006a 84F84030 		strb	r3, [r4, #64]
 689              		.loc 1 312 5 discriminator 2 view .LVU208
 313:STM32Cube_FW_N6/Drivers/STM32N6xx_HAL_Driver/Src/stm32n6xx_hal_i2c_ex.c **** 
 314:STM32Cube_FW_N6/Drivers/STM32N6xx_HAL_Driver/Src/stm32n6xx_hal_i2c_ex.c ****     hi2c->State = HAL_I2C_STATE_BUSY;
 690              		.loc 1 314 5 view .LVU209
 691              		.loc 1 314 17 is_stmt 0 view .LVU210
 692 006e 2423     		movs	r3, #36
 693 0070 84F84130 		strb	r3, [r4, #65]
 315:STM32Cube_FW_N6/Drivers/STM32N6xx_HAL_Driver/Src/stm32n6xx_hal_i2c_ex.c **** 
 316:STM32Cube_FW_N6/Drivers/STM32N6xx_HAL_Driver/Src/stm32n6xx_hal_i2c_ex.c ****     /* Disable the selected I2C peripheral */
 317:STM32Cube_FW_N6/Drivers/STM32N6xx_HAL_Driver/Src/stm32n6xx_hal_i2c_ex.c ****     __HAL_I2C_DISABLE(hi2c);
 694              		.loc 1 317 5 is_stmt 1 view .LVU211
 695 0074 2368     		ldr	r3, [r4]
 696 0076 1A68     		ldr	r2, [r3]
 697 0078 22F00102 		bic	r2, r2, #1
 698 007c 1A60     		str	r2, [r3]
 318:STM32Cube_FW_N6/Drivers/STM32N6xx_HAL_Driver/Src/stm32n6xx_hal_i2c_ex.c **** 
 319:STM32Cube_FW_N6/Drivers/STM32N6xx_HAL_Driver/Src/stm32n6xx_hal_i2c_ex.c ****     if (FastModePlus == I2C_FASTMODEPLUS_ENABLE)
 699              		.loc 1 319 5 view .LVU212
 320:STM32Cube_FW_N6/Drivers/STM32N6xx_HAL_Driver/Src/stm32n6xx_hal_i2c_ex.c ****     {
 321:STM32Cube_FW_N6/Drivers/STM32N6xx_HAL_Driver/Src/stm32n6xx_hal_i2c_ex.c ****       /* Set I2Cx FMP bit */
 322:STM32Cube_FW_N6/Drivers/STM32N6xx_HAL_Driver/Src/stm32n6xx_hal_i2c_ex.c ****       hi2c->Instance->CR1 |= (I2C_CR1_FMP);
 700              		.loc 1 322 21 is_stmt 0 view .LVU213
 701 007e 1A68     		ldr	r2, [r3]
 319:STM32Cube_FW_N6/Drivers/STM32N6xx_HAL_Driver/Src/stm32n6xx_hal_i2c_ex.c ****     {
 702              		.loc 1 319 8 view .LVU214
 703 0080 6DB9     		cbnz	r5, .L38
 704              		.loc 1 322 7 is_stmt 1 view .LVU215
 705              		.loc 1 322 27 is_stmt 0 view .LVU216
 706 0082 42F08072 		orr	r2, r2, #16777216
 707              	.L42:
 323:STM32Cube_FW_N6/Drivers/STM32N6xx_HAL_Driver/Src/stm32n6xx_hal_i2c_ex.c ****     }
 324:STM32Cube_FW_N6/Drivers/STM32N6xx_HAL_Driver/Src/stm32n6xx_hal_i2c_ex.c ****     else
 325:STM32Cube_FW_N6/Drivers/STM32N6xx_HAL_Driver/Src/stm32n6xx_hal_i2c_ex.c ****     {
 326:STM32Cube_FW_N6/Drivers/STM32N6xx_HAL_Driver/Src/stm32n6xx_hal_i2c_ex.c ****       /* Reset I2Cx FMP bit */
 327:STM32Cube_FW_N6/Drivers/STM32N6xx_HAL_Driver/Src/stm32n6xx_hal_i2c_ex.c ****       hi2c->Instance->CR1 &= ~(I2C_CR1_FMP);
 708              		.loc 1 327 27 view .LVU217
 709 0086 1A60     		str	r2, [r3]
 328:STM32Cube_FW_N6/Drivers/STM32N6xx_HAL_Driver/Src/stm32n6xx_hal_i2c_ex.c ****     }
 329:STM32Cube_FW_N6/Drivers/STM32N6xx_HAL_Driver/Src/stm32n6xx_hal_i2c_ex.c **** 
 330:STM32Cube_FW_N6/Drivers/STM32N6xx_HAL_Driver/Src/stm32n6xx_hal_i2c_ex.c ****     __HAL_I2C_ENABLE(hi2c);
ARM GAS  C:\Users\DJESSOU\AppData\Local\Temp\ccn9qHUf.s 			page 20


 710              		.loc 1 330 5 is_stmt 1 view .LVU218
 711 0088 1A68     		ldr	r2, [r3]
 331:STM32Cube_FW_N6/Drivers/STM32N6xx_HAL_Driver/Src/stm32n6xx_hal_i2c_ex.c **** 
 332:STM32Cube_FW_N6/Drivers/STM32N6xx_HAL_Driver/Src/stm32n6xx_hal_i2c_ex.c ****     hi2c->State = HAL_I2C_STATE_READY;
 333:STM32Cube_FW_N6/Drivers/STM32N6xx_HAL_Driver/Src/stm32n6xx_hal_i2c_ex.c **** 
 334:STM32Cube_FW_N6/Drivers/STM32N6xx_HAL_Driver/Src/stm32n6xx_hal_i2c_ex.c ****     /* Process Unlocked */
 335:STM32Cube_FW_N6/Drivers/STM32N6xx_HAL_Driver/Src/stm32n6xx_hal_i2c_ex.c ****     __HAL_UNLOCK(hi2c);
 712              		.loc 1 335 5 is_stmt 0 view .LVU219
 713 008a 0020     		movs	r0, #0
 330:STM32Cube_FW_N6/Drivers/STM32N6xx_HAL_Driver/Src/stm32n6xx_hal_i2c_ex.c **** 
 714              		.loc 1 330 5 view .LVU220
 715 008c 42F00102 		orr	r2, r2, #1
 716 0090 1A60     		str	r2, [r3]
 332:STM32Cube_FW_N6/Drivers/STM32N6xx_HAL_Driver/Src/stm32n6xx_hal_i2c_ex.c **** 
 717              		.loc 1 332 5 is_stmt 1 view .LVU221
 332:STM32Cube_FW_N6/Drivers/STM32N6xx_HAL_Driver/Src/stm32n6xx_hal_i2c_ex.c **** 
 718              		.loc 1 332 17 is_stmt 0 view .LVU222
 719 0092 2023     		movs	r3, #32
 720              		.loc 1 335 5 view .LVU223
 721 0094 84F84000 		strb	r0, [r4, #64]
 332:STM32Cube_FW_N6/Drivers/STM32N6xx_HAL_Driver/Src/stm32n6xx_hal_i2c_ex.c **** 
 722              		.loc 1 332 17 view .LVU224
 723 0098 84F84130 		strb	r3, [r4, #65]
 724              		.loc 1 335 5 is_stmt 1 view .LVU225
 725              		.loc 1 335 5 view .LVU226
 726              		.loc 1 335 5 view .LVU227
 336:STM32Cube_FW_N6/Drivers/STM32N6xx_HAL_Driver/Src/stm32n6xx_hal_i2c_ex.c **** 
 337:STM32Cube_FW_N6/Drivers/STM32N6xx_HAL_Driver/Src/stm32n6xx_hal_i2c_ex.c ****     return HAL_OK;
 727              		.loc 1 337 5 view .LVU228
 728              	.L37:
 338:STM32Cube_FW_N6/Drivers/STM32N6xx_HAL_Driver/Src/stm32n6xx_hal_i2c_ex.c ****   }
 339:STM32Cube_FW_N6/Drivers/STM32N6xx_HAL_Driver/Src/stm32n6xx_hal_i2c_ex.c ****   else
 340:STM32Cube_FW_N6/Drivers/STM32N6xx_HAL_Driver/Src/stm32n6xx_hal_i2c_ex.c ****   {
 341:STM32Cube_FW_N6/Drivers/STM32N6xx_HAL_Driver/Src/stm32n6xx_hal_i2c_ex.c ****     return HAL_BUSY;
 342:STM32Cube_FW_N6/Drivers/STM32N6xx_HAL_Driver/Src/stm32n6xx_hal_i2c_ex.c ****   }
 343:STM32Cube_FW_N6/Drivers/STM32N6xx_HAL_Driver/Src/stm32n6xx_hal_i2c_ex.c **** }
 729              		.loc 1 343 1 is_stmt 0 view .LVU229
 730 009c 38BD     		pop	{r3, r4, r5, pc}
 731              	.LVL31:
 732              	.L38:
 327:STM32Cube_FW_N6/Drivers/STM32N6xx_HAL_Driver/Src/stm32n6xx_hal_i2c_ex.c ****     }
 733              		.loc 1 327 7 is_stmt 1 view .LVU230
 327:STM32Cube_FW_N6/Drivers/STM32N6xx_HAL_Driver/Src/stm32n6xx_hal_i2c_ex.c ****     }
 734              		.loc 1 327 27 is_stmt 0 view .LVU231
 735 009e 22F08072 		bic	r2, r2, #16777216
 736 00a2 F0E7     		b	.L42
 737              	.L41:
 312:STM32Cube_FW_N6/Drivers/STM32N6xx_HAL_Driver/Src/stm32n6xx_hal_i2c_ex.c **** 
 738              		.loc 1 312 5 discriminator 1 view .LVU232
 739 00a4 0220     		movs	r0, #2
 740 00a6 F9E7     		b	.L37
 741              	.L44:
 742              		.align	2
 743              	.L43:
 744 00a8 00540050 		.word	1342198784
 745 00ac 00580050 		.word	1342199808
 746 00b0 005C0050 		.word	1342200832
ARM GAS  C:\Users\DJESSOU\AppData\Local\Temp\ccn9qHUf.s 			page 21


 747 00b4 001C0056 		.word	1442847744
 748 00b8 00000000 		.word	.LC0
 749              		.cfi_endproc
 750              	.LFE866:
 752              		.text
 753              	.Letext0:
 754              		.file 2 "C:\\ST\\STM32CubeIDE_1.18.1\\STM32CubeIDE\\plugins\\com.st.stm32cube.ide.mcu.externaltool
 755              		.file 3 "C:\\ST\\STM32CubeIDE_1.18.1\\STM32CubeIDE\\plugins\\com.st.stm32cube.ide.mcu.externaltool
 756              		.file 4 "STM32Cube_FW_N6/Drivers/CMSIS/Device/ST/STM32N6xx/Include/stm32n657xx.h"
 757              		.file 5 "STM32Cube_FW_N6/Drivers/STM32N6xx_HAL_Driver/Inc/stm32n6xx_hal_def.h"
 758              		.file 6 "STM32Cube_FW_N6/Drivers/STM32N6xx_HAL_Driver/Inc/stm32n6xx_hal_dma.h"
 759              		.file 7 "STM32Cube_FW_N6/Drivers/STM32N6xx_HAL_Driver/Inc/stm32n6xx_hal_dma_ex.h"
 760              		.file 8 "STM32Cube_FW_N6/Drivers/STM32N6xx_HAL_Driver/Inc/stm32n6xx_hal_i2c.h"
 761              		.file 9 "Inc/stm32n6xx_hal_conf.h"
ARM GAS  C:\Users\DJESSOU\AppData\Local\Temp\ccn9qHUf.s 			page 22

