ARM GAS  C:\Users\DJESSOU\AppData\Local\Temp\ccR55SEh.s 			page 1


   1              		.arch armv8.1-m.main
   2              		.fpu fpv5-d16
   3              		.arch_extension dsp
   4              		.arch_extension fp
   5              		.arch_extension fp.dp
   6              		.arch_extension mve
   7              		.arch_extension mve.fp
   8              		.eabi_attribute 5, "cortex-m55"
   9              		.eabi_attribute 28, 1
  10              		.eabi_attribute 20, 1
  11              		.eabi_attribute 21, 1
  12              		.eabi_attribute 23, 3
  13              		.eabi_attribute 24, 1
  14              		.eabi_attribute 25, 1
  15              		.eabi_attribute 26, 1
  16              		.eabi_attribute 30, 4
  17              		.eabi_attribute 34, 1
  18              		.eabi_attribute 38, 1
  19              		.eabi_attribute 18, 4
  20              		.file	"stm32_lcd.c"
  21              		.text
  22              	.Ltext0:
  23              		.cfi_sections	.debug_frame
  24              		.file 1 "STM32Cube_FW_N6/Utilities/lcd/stm32_lcd.c"
  25              		.section	.text.UTIL_LCD_SetFuncDriver,"ax",%progbits
  26              		.align	1
  27              		.global	UTIL_LCD_SetFuncDriver
  28              		.syntax unified
  29              		.thumb
  30              		.thumb_func
  32              	UTIL_LCD_SetFuncDriver:
  33              	.LVL0:
  34              	.LFB0:
   1:STM32Cube_FW_N6/Utilities/lcd/stm32_lcd.c **** /**
   2:STM32Cube_FW_N6/Utilities/lcd/stm32_lcd.c ****   ******************************************************************************
   3:STM32Cube_FW_N6/Utilities/lcd/stm32_lcd.c ****   * @file    stm32_lcd.c
   4:STM32Cube_FW_N6/Utilities/lcd/stm32_lcd.c ****   * @author  MCD Application Team
   5:STM32Cube_FW_N6/Utilities/lcd/stm32_lcd.c ****   * @brief   This file includes the basic functionalities to drive LCD
   6:STM32Cube_FW_N6/Utilities/lcd/stm32_lcd.c ****   ******************************************************************************
   7:STM32Cube_FW_N6/Utilities/lcd/stm32_lcd.c ****   * @attention
   8:STM32Cube_FW_N6/Utilities/lcd/stm32_lcd.c ****   *
   9:STM32Cube_FW_N6/Utilities/lcd/stm32_lcd.c ****   * Copyright (c) 2019-2024 STMicroelectronics.
  10:STM32Cube_FW_N6/Utilities/lcd/stm32_lcd.c ****   * All rights reserved.
  11:STM32Cube_FW_N6/Utilities/lcd/stm32_lcd.c ****   *
  12:STM32Cube_FW_N6/Utilities/lcd/stm32_lcd.c ****   * This software is licensed under terms that can be found in the LICENSE file
  13:STM32Cube_FW_N6/Utilities/lcd/stm32_lcd.c ****   * in the root directory of this software component.
  14:STM32Cube_FW_N6/Utilities/lcd/stm32_lcd.c ****   * If no LICENSE file comes with this software, it is provided AS-IS.
  15:STM32Cube_FW_N6/Utilities/lcd/stm32_lcd.c ****   *
  16:STM32Cube_FW_N6/Utilities/lcd/stm32_lcd.c ****   ******************************************************************************
  17:STM32Cube_FW_N6/Utilities/lcd/stm32_lcd.c ****   */
  18:STM32Cube_FW_N6/Utilities/lcd/stm32_lcd.c **** 
  19:STM32Cube_FW_N6/Utilities/lcd/stm32_lcd.c **** /* File Info: ------------------------------------------------------------------
  20:STM32Cube_FW_N6/Utilities/lcd/stm32_lcd.c ****                                    User NOTES
  21:STM32Cube_FW_N6/Utilities/lcd/stm32_lcd.c **** 1. How To use this driver:
  22:STM32Cube_FW_N6/Utilities/lcd/stm32_lcd.c **** --------------------------
  23:STM32Cube_FW_N6/Utilities/lcd/stm32_lcd.c ****    - This driver is a generic driver that provides basic display services. It should
  24:STM32Cube_FW_N6/Utilities/lcd/stm32_lcd.c ****      be used by any platform once LCD is initialized and following draw methods are
ARM GAS  C:\Users\DJESSOU\AppData\Local\Temp\ccR55SEh.s 			page 2


  25:STM32Cube_FW_N6/Utilities/lcd/stm32_lcd.c ****      registered:
  26:STM32Cube_FW_N6/Utilities/lcd/stm32_lcd.c ****          BSP_LCD_DrawBitmap
  27:STM32Cube_FW_N6/Utilities/lcd/stm32_lcd.c ****          BSP_LCD_DrawHLine
  28:STM32Cube_FW_N6/Utilities/lcd/stm32_lcd.c ****          BSP_LCD_DrawVLine
  29:STM32Cube_FW_N6/Utilities/lcd/stm32_lcd.c ****          BSP_LCD_FillRect
  30:STM32Cube_FW_N6/Utilities/lcd/stm32_lcd.c ****          BSP_LCD_ReadPixel
  31:STM32Cube_FW_N6/Utilities/lcd/stm32_lcd.c ****          BSP_LCD_WritePixel
  32:STM32Cube_FW_N6/Utilities/lcd/stm32_lcd.c ****          BSP_LCD_GetXSize
  33:STM32Cube_FW_N6/Utilities/lcd/stm32_lcd.c ****          BSP_LCD_GetYSize
  34:STM32Cube_FW_N6/Utilities/lcd/stm32_lcd.c ****          BSP_LCD_SetActiveLayer
  35:STM32Cube_FW_N6/Utilities/lcd/stm32_lcd.c **** 
  36:STM32Cube_FW_N6/Utilities/lcd/stm32_lcd.c ****    - At application level, once the LCD is initialized, user should call UTIL_LCD_SetFuncDriver()
  37:STM32Cube_FW_N6/Utilities/lcd/stm32_lcd.c ****      API to link board LCD drivers to BASIC GUI LCD drivers.
  38:STM32Cube_FW_N6/Utilities/lcd/stm32_lcd.c ****      User can then call the BASIC GUI services:
  39:STM32Cube_FW_N6/Utilities/lcd/stm32_lcd.c ****          UTIL_LCD_SetFuncDriver()
  40:STM32Cube_FW_N6/Utilities/lcd/stm32_lcd.c ****          UTIL_LCD_SetLayer()
  41:STM32Cube_FW_N6/Utilities/lcd/stm32_lcd.c ****          UTIL_LCD_SetDevice()
  42:STM32Cube_FW_N6/Utilities/lcd/stm32_lcd.c ****          UTIL_LCD_SetTextColor()
  43:STM32Cube_FW_N6/Utilities/lcd/stm32_lcd.c ****          UTIL_LCD_GetTextColor()
  44:STM32Cube_FW_N6/Utilities/lcd/stm32_lcd.c ****          UTIL_LCD_SetBackColor()
  45:STM32Cube_FW_N6/Utilities/lcd/stm32_lcd.c ****          UTIL_LCD_GetBackColor()
  46:STM32Cube_FW_N6/Utilities/lcd/stm32_lcd.c ****          UTIL_LCD_SetFont()
  47:STM32Cube_FW_N6/Utilities/lcd/stm32_lcd.c ****          UTIL_LCD_GetFont()
  48:STM32Cube_FW_N6/Utilities/lcd/stm32_lcd.c ****          UTIL_LCD_Clear)
  49:STM32Cube_FW_N6/Utilities/lcd/stm32_lcd.c ****          UTIL_LCD_ClearStringLine()
  50:STM32Cube_FW_N6/Utilities/lcd/stm32_lcd.c ****          UTIL_LCD_DisplayStringAtLine()
  51:STM32Cube_FW_N6/Utilities/lcd/stm32_lcd.c ****          UTIL_LCD_DisplayStringAt()
  52:STM32Cube_FW_N6/Utilities/lcd/stm32_lcd.c ****          UTIL_LCD_DisplayChar()
  53:STM32Cube_FW_N6/Utilities/lcd/stm32_lcd.c ****          UTIL_LCD_GetPixel()
  54:STM32Cube_FW_N6/Utilities/lcd/stm32_lcd.c ****          UTIL_LCD_SetPixel()
  55:STM32Cube_FW_N6/Utilities/lcd/stm32_lcd.c ****          UTIL_LCD_FillRGBRect()
  56:STM32Cube_FW_N6/Utilities/lcd/stm32_lcd.c ****          UTIL_LCD_DrawHLine()
  57:STM32Cube_FW_N6/Utilities/lcd/stm32_lcd.c ****          UTIL_LCD_DrawVLine()
  58:STM32Cube_FW_N6/Utilities/lcd/stm32_lcd.c ****          UTIL_LCD_DrawBitmap()
  59:STM32Cube_FW_N6/Utilities/lcd/stm32_lcd.c ****          UTIL_LCD_FillRect()
  60:STM32Cube_FW_N6/Utilities/lcd/stm32_lcd.c ****          UTIL_LCD_DrawLine()
  61:STM32Cube_FW_N6/Utilities/lcd/stm32_lcd.c ****          UTIL_LCD_DrawRect()
  62:STM32Cube_FW_N6/Utilities/lcd/stm32_lcd.c ****          UTIL_LCD_DrawCircle()
  63:STM32Cube_FW_N6/Utilities/lcd/stm32_lcd.c ****          UTIL_LCD_DrawPolygon()
  64:STM32Cube_FW_N6/Utilities/lcd/stm32_lcd.c ****          UTIL_LCD_DrawEllipse()
  65:STM32Cube_FW_N6/Utilities/lcd/stm32_lcd.c ****          UTIL_LCD_FillCircle()
  66:STM32Cube_FW_N6/Utilities/lcd/stm32_lcd.c ****          UTIL_LCD_FillPolygon()
  67:STM32Cube_FW_N6/Utilities/lcd/stm32_lcd.c ****          UTIL_LCD_FillEllipse()
  68:STM32Cube_FW_N6/Utilities/lcd/stm32_lcd.c **** ------------------------------------------------------------------------------*/
  69:STM32Cube_FW_N6/Utilities/lcd/stm32_lcd.c **** 
  70:STM32Cube_FW_N6/Utilities/lcd/stm32_lcd.c **** /* Includes ------------------------------------------------------------------*/
  71:STM32Cube_FW_N6/Utilities/lcd/stm32_lcd.c **** #include "stm32_lcd.h"
  72:STM32Cube_FW_N6/Utilities/lcd/stm32_lcd.c **** #include "../Fonts/font24.c"
  73:STM32Cube_FW_N6/Utilities/lcd/stm32_lcd.c **** #include "../Fonts/font20.c"
  74:STM32Cube_FW_N6/Utilities/lcd/stm32_lcd.c **** #include "../Fonts/font16.c"
  75:STM32Cube_FW_N6/Utilities/lcd/stm32_lcd.c **** #include "../Fonts/font12.c"
  76:STM32Cube_FW_N6/Utilities/lcd/stm32_lcd.c **** #include "../Fonts/font8.c"
  77:STM32Cube_FW_N6/Utilities/lcd/stm32_lcd.c **** 
  78:STM32Cube_FW_N6/Utilities/lcd/stm32_lcd.c **** /** @addtogroup Utilities
  79:STM32Cube_FW_N6/Utilities/lcd/stm32_lcd.c ****   * @{
  80:STM32Cube_FW_N6/Utilities/lcd/stm32_lcd.c ****   */
  81:STM32Cube_FW_N6/Utilities/lcd/stm32_lcd.c **** 
ARM GAS  C:\Users\DJESSOU\AppData\Local\Temp\ccR55SEh.s 			page 3


  82:STM32Cube_FW_N6/Utilities/lcd/stm32_lcd.c **** /** @addtogroup STM32_EVAL
  83:STM32Cube_FW_N6/Utilities/lcd/stm32_lcd.c ****   * @{
  84:STM32Cube_FW_N6/Utilities/lcd/stm32_lcd.c ****   */
  85:STM32Cube_FW_N6/Utilities/lcd/stm32_lcd.c **** 
  86:STM32Cube_FW_N6/Utilities/lcd/stm32_lcd.c **** /** @addtogroup Common
  87:STM32Cube_FW_N6/Utilities/lcd/stm32_lcd.c ****   * @{
  88:STM32Cube_FW_N6/Utilities/lcd/stm32_lcd.c ****   */
  89:STM32Cube_FW_N6/Utilities/lcd/stm32_lcd.c **** 
  90:STM32Cube_FW_N6/Utilities/lcd/stm32_lcd.c **** /** @defgroup STM32_LCD STM32 LCD Utility
  91:STM32Cube_FW_N6/Utilities/lcd/stm32_lcd.c ****   * @{
  92:STM32Cube_FW_N6/Utilities/lcd/stm32_lcd.c ****   */
  93:STM32Cube_FW_N6/Utilities/lcd/stm32_lcd.c **** 
  94:STM32Cube_FW_N6/Utilities/lcd/stm32_lcd.c **** #ifndef UTIL_LCD_MAX_LAYERS_NBR
  95:STM32Cube_FW_N6/Utilities/lcd/stm32_lcd.c ****   #define UTIL_LCD_MAX_LAYERS_NBR    2U
  96:STM32Cube_FW_N6/Utilities/lcd/stm32_lcd.c **** #endif
  97:STM32Cube_FW_N6/Utilities/lcd/stm32_lcd.c **** 
  98:STM32Cube_FW_N6/Utilities/lcd/stm32_lcd.c **** /** @defgroup UTIL_LCD_Private_Macros STM32 LCD Utility Private Macros
  99:STM32Cube_FW_N6/Utilities/lcd/stm32_lcd.c ****   * @{
 100:STM32Cube_FW_N6/Utilities/lcd/stm32_lcd.c ****   */
 101:STM32Cube_FW_N6/Utilities/lcd/stm32_lcd.c **** #define ABS(X)                 ((X) > 0 ? (X) : -(X))
 102:STM32Cube_FW_N6/Utilities/lcd/stm32_lcd.c **** #define POLY_X(Z)              ((int32_t)((Points + (Z))->X))
 103:STM32Cube_FW_N6/Utilities/lcd/stm32_lcd.c **** #define POLY_Y(Z)              ((int32_t)((Points + (Z))->Y))
 104:STM32Cube_FW_N6/Utilities/lcd/stm32_lcd.c **** 
 105:STM32Cube_FW_N6/Utilities/lcd/stm32_lcd.c **** #define CONVERTARGB88882RGB565(Color)((((Color & 0xFFU) >> 3) & 0x1FU) |\
 106:STM32Cube_FW_N6/Utilities/lcd/stm32_lcd.c ****                                      (((((Color & 0xFF00U) >> 8) >>2) & 0x3FU) << 5) |\
 107:STM32Cube_FW_N6/Utilities/lcd/stm32_lcd.c ****                                      (((((Color & 0xFF0000U) >> 16) >>3) & 0x1FU) << 11))
 108:STM32Cube_FW_N6/Utilities/lcd/stm32_lcd.c **** 
 109:STM32Cube_FW_N6/Utilities/lcd/stm32_lcd.c **** #define CONVERTARGB88882ARGB4444(Color)((((Color & 0xFFU) >> 4) & 0xFU) |\
 110:STM32Cube_FW_N6/Utilities/lcd/stm32_lcd.c ****                                        (((((Color & 0xFF00U) >> 8) >> 4) & 0xFU) << 4) |\
 111:STM32Cube_FW_N6/Utilities/lcd/stm32_lcd.c ****                                        (((((Color & 0xFF0000U) >> 16) >> 4) & 0xFU) << 8) | \
 112:STM32Cube_FW_N6/Utilities/lcd/stm32_lcd.c ****                                        (((((Color & 0xFF000000U) >> 24) >> 4) & 0xFU) << 12))
 113:STM32Cube_FW_N6/Utilities/lcd/stm32_lcd.c **** 
 114:STM32Cube_FW_N6/Utilities/lcd/stm32_lcd.c **** #define CONVERTRGB5652ARGB8888(Color)(((((((Color >> 11) & 0x1FU) * 527) + 23) >> 6) << 16) |\
 115:STM32Cube_FW_N6/Utilities/lcd/stm32_lcd.c ****                                      ((((((Color >> 5) & 0x3FU) * 259) + 33) >> 6) << 8) |\
 116:STM32Cube_FW_N6/Utilities/lcd/stm32_lcd.c ****                                      ((((Color & 0x1FU) * 527) + 23) >> 6) | 0xFF000000)
 117:STM32Cube_FW_N6/Utilities/lcd/stm32_lcd.c **** 
 118:STM32Cube_FW_N6/Utilities/lcd/stm32_lcd.c **** #define CONVERTARGB44442ARGB8888(Color)(((((Color >> 12U) & 0xFU) * 17U) << 24U) |\
 119:STM32Cube_FW_N6/Utilities/lcd/stm32_lcd.c ****                                         ((((Color >>  8U) & 0xFU) * 17U) << 16U) |\
 120:STM32Cube_FW_N6/Utilities/lcd/stm32_lcd.c ****                                         ((((Color >>  4U) & 0xFU) * 17U) << 8U) |\
 121:STM32Cube_FW_N6/Utilities/lcd/stm32_lcd.c ****                                         ((((Color >>  0U) & 0xFU) * 17U) << 0U))
 122:STM32Cube_FW_N6/Utilities/lcd/stm32_lcd.c **** 
 123:STM32Cube_FW_N6/Utilities/lcd/stm32_lcd.c **** #define CONVERTRGB8882ARGB8888(Color)(Color | 0xFF000000U)
 124:STM32Cube_FW_N6/Utilities/lcd/stm32_lcd.c **** 
 125:STM32Cube_FW_N6/Utilities/lcd/stm32_lcd.c **** #define CONVERTARGB88882RGB888(Color)(Color & 0x00FFFFFFU)
 126:STM32Cube_FW_N6/Utilities/lcd/stm32_lcd.c **** 
 127:STM32Cube_FW_N6/Utilities/lcd/stm32_lcd.c **** /**
 128:STM32Cube_FW_N6/Utilities/lcd/stm32_lcd.c ****   * @}
 129:STM32Cube_FW_N6/Utilities/lcd/stm32_lcd.c ****   */
 130:STM32Cube_FW_N6/Utilities/lcd/stm32_lcd.c **** 
 131:STM32Cube_FW_N6/Utilities/lcd/stm32_lcd.c **** /** @defgroup UTIL_LCD_Private_Types STM32 LCD Utility Private Types
 132:STM32Cube_FW_N6/Utilities/lcd/stm32_lcd.c ****   * @{
 133:STM32Cube_FW_N6/Utilities/lcd/stm32_lcd.c ****   */
 134:STM32Cube_FW_N6/Utilities/lcd/stm32_lcd.c **** typedef struct
 135:STM32Cube_FW_N6/Utilities/lcd/stm32_lcd.c **** {
 136:STM32Cube_FW_N6/Utilities/lcd/stm32_lcd.c ****   uint32_t x1;
 137:STM32Cube_FW_N6/Utilities/lcd/stm32_lcd.c ****   uint32_t y1;
 138:STM32Cube_FW_N6/Utilities/lcd/stm32_lcd.c ****   uint32_t x2;
ARM GAS  C:\Users\DJESSOU\AppData\Local\Temp\ccR55SEh.s 			page 4


 139:STM32Cube_FW_N6/Utilities/lcd/stm32_lcd.c ****   uint32_t y2;
 140:STM32Cube_FW_N6/Utilities/lcd/stm32_lcd.c ****   uint32_t x3;
 141:STM32Cube_FW_N6/Utilities/lcd/stm32_lcd.c ****   uint32_t y3;
 142:STM32Cube_FW_N6/Utilities/lcd/stm32_lcd.c **** }Triangle_Positions_t;
 143:STM32Cube_FW_N6/Utilities/lcd/stm32_lcd.c **** 
 144:STM32Cube_FW_N6/Utilities/lcd/stm32_lcd.c **** /**
 145:STM32Cube_FW_N6/Utilities/lcd/stm32_lcd.c ****   * @}
 146:STM32Cube_FW_N6/Utilities/lcd/stm32_lcd.c ****   */
 147:STM32Cube_FW_N6/Utilities/lcd/stm32_lcd.c **** 
 148:STM32Cube_FW_N6/Utilities/lcd/stm32_lcd.c **** /** @defgroup UTIL_LCD_Private_Variables STM32 LCD Utility Private Variables
 149:STM32Cube_FW_N6/Utilities/lcd/stm32_lcd.c ****   * @{
 150:STM32Cube_FW_N6/Utilities/lcd/stm32_lcd.c ****   */
 151:STM32Cube_FW_N6/Utilities/lcd/stm32_lcd.c **** 
 152:STM32Cube_FW_N6/Utilities/lcd/stm32_lcd.c **** /**
 153:STM32Cube_FW_N6/Utilities/lcd/stm32_lcd.c ****   * @brief  Current Drawing Layer properties variable
 154:STM32Cube_FW_N6/Utilities/lcd/stm32_lcd.c ****   */
 155:STM32Cube_FW_N6/Utilities/lcd/stm32_lcd.c **** static UTIL_LCD_Ctx_t DrawProp[UTIL_LCD_MAX_LAYERS_NBR];
 156:STM32Cube_FW_N6/Utilities/lcd/stm32_lcd.c **** static LCD_UTILS_Drv_t FuncDriver;
 157:STM32Cube_FW_N6/Utilities/lcd/stm32_lcd.c **** 
 158:STM32Cube_FW_N6/Utilities/lcd/stm32_lcd.c **** /**
 159:STM32Cube_FW_N6/Utilities/lcd/stm32_lcd.c ****   * @}
 160:STM32Cube_FW_N6/Utilities/lcd/stm32_lcd.c ****   */
 161:STM32Cube_FW_N6/Utilities/lcd/stm32_lcd.c **** 
 162:STM32Cube_FW_N6/Utilities/lcd/stm32_lcd.c **** /** @defgroup UTIL_LCD_Private_FunctionPrototypes STM32 LCD Utility Private FunctionPrototypes
 163:STM32Cube_FW_N6/Utilities/lcd/stm32_lcd.c ****   * @{
 164:STM32Cube_FW_N6/Utilities/lcd/stm32_lcd.c ****   */
 165:STM32Cube_FW_N6/Utilities/lcd/stm32_lcd.c **** static void DrawChar(uint32_t Xpos, uint32_t Ypos, const uint8_t *pData);
 166:STM32Cube_FW_N6/Utilities/lcd/stm32_lcd.c **** static void FillTriangle(Triangle_Positions_t *Positions, uint32_t Color);
 167:STM32Cube_FW_N6/Utilities/lcd/stm32_lcd.c **** /**
 168:STM32Cube_FW_N6/Utilities/lcd/stm32_lcd.c ****   * @}
 169:STM32Cube_FW_N6/Utilities/lcd/stm32_lcd.c ****   */
 170:STM32Cube_FW_N6/Utilities/lcd/stm32_lcd.c **** 
 171:STM32Cube_FW_N6/Utilities/lcd/stm32_lcd.c **** /** @defgroup UTIL_LCD_Exported_Functions STM32 LCD Utility Exported Functions
 172:STM32Cube_FW_N6/Utilities/lcd/stm32_lcd.c ****   * @{
 173:STM32Cube_FW_N6/Utilities/lcd/stm32_lcd.c ****   */
 174:STM32Cube_FW_N6/Utilities/lcd/stm32_lcd.c **** 
 175:STM32Cube_FW_N6/Utilities/lcd/stm32_lcd.c **** /**
 176:STM32Cube_FW_N6/Utilities/lcd/stm32_lcd.c ****   * @brief  Link board LCD drivers to STM32 LCD Utility drivers
 177:STM32Cube_FW_N6/Utilities/lcd/stm32_lcd.c ****   * @param  pDrv Structure of LCD functions
 178:STM32Cube_FW_N6/Utilities/lcd/stm32_lcd.c ****   */
 179:STM32Cube_FW_N6/Utilities/lcd/stm32_lcd.c **** void UTIL_LCD_SetFuncDriver(const LCD_UTILS_Drv_t *pDrv)
 180:STM32Cube_FW_N6/Utilities/lcd/stm32_lcd.c **** {
  35              		.loc 1 180 1 view -0
  36              		.cfi_startproc
  37              		@ args = 0, pretend = 0, frame = 0
  38              		@ frame_needed = 0, uses_anonymous_args = 0
 181:STM32Cube_FW_N6/Utilities/lcd/stm32_lcd.c ****   FuncDriver.DrawBitmap     = pDrv->DrawBitmap;
  39              		.loc 1 181 3 view .LVU1
 180:STM32Cube_FW_N6/Utilities/lcd/stm32_lcd.c ****   FuncDriver.DrawBitmap     = pDrv->DrawBitmap;
  40              		.loc 1 180 1 is_stmt 0 view .LVU2
  41 0000 70B5     		push	{r4, r5, r6, lr}
  42              		.cfi_def_cfa_offset 16
  43              		.cfi_offset 4, -16
  44              		.cfi_offset 5, -12
  45              		.cfi_offset 6, -8
  46              		.cfi_offset 14, -4
 182:STM32Cube_FW_N6/Utilities/lcd/stm32_lcd.c ****   FuncDriver.FillRGBRect    = pDrv->FillRGBRect;
ARM GAS  C:\Users\DJESSOU\AppData\Local\Temp\ccR55SEh.s 			page 5


 183:STM32Cube_FW_N6/Utilities/lcd/stm32_lcd.c ****   FuncDriver.DrawHLine      = pDrv->DrawHLine;
 184:STM32Cube_FW_N6/Utilities/lcd/stm32_lcd.c ****   FuncDriver.DrawVLine      = pDrv->DrawVLine;
 185:STM32Cube_FW_N6/Utilities/lcd/stm32_lcd.c ****   FuncDriver.FillRect       = pDrv->FillRect;
 186:STM32Cube_FW_N6/Utilities/lcd/stm32_lcd.c ****   FuncDriver.GetPixel       = pDrv->GetPixel;
 187:STM32Cube_FW_N6/Utilities/lcd/stm32_lcd.c ****   FuncDriver.SetPixel       = pDrv->SetPixel;
 188:STM32Cube_FW_N6/Utilities/lcd/stm32_lcd.c ****   FuncDriver.GetXSize       = pDrv->GetXSize;
 189:STM32Cube_FW_N6/Utilities/lcd/stm32_lcd.c ****   FuncDriver.GetYSize       = pDrv->GetYSize;
 190:STM32Cube_FW_N6/Utilities/lcd/stm32_lcd.c ****   FuncDriver.SetLayer       = pDrv->SetLayer;
 191:STM32Cube_FW_N6/Utilities/lcd/stm32_lcd.c ****   FuncDriver.GetFormat      = pDrv->GetFormat;
 192:STM32Cube_FW_N6/Utilities/lcd/stm32_lcd.c **** 
 193:STM32Cube_FW_N6/Utilities/lcd/stm32_lcd.c ****   DrawProp->LcdLayer = 0;
  47              		.loc 1 193 22 view .LVU3
  48 0002 0026     		movs	r6, #0
 181:STM32Cube_FW_N6/Utilities/lcd/stm32_lcd.c ****   FuncDriver.FillRGBRect    = pDrv->FillRGBRect;
  49              		.loc 1 181 29 view .LVU4
  50 0004 164C     		ldr	r4, .L2
  51 0006 0368     		ldr	r3, [r0]
 189:STM32Cube_FW_N6/Utilities/lcd/stm32_lcd.c ****   FuncDriver.SetLayer       = pDrv->SetLayer;
  52              		.loc 1 189 29 view .LVU5
  53 0008 026A     		ldr	r2, [r0, #32]
 181:STM32Cube_FW_N6/Utilities/lcd/stm32_lcd.c ****   FuncDriver.FillRGBRect    = pDrv->FillRGBRect;
  54              		.loc 1 181 29 view .LVU6
  55 000a 2360     		str	r3, [r4]
 182:STM32Cube_FW_N6/Utilities/lcd/stm32_lcd.c ****   FuncDriver.FillRGBRect    = pDrv->FillRGBRect;
  56              		.loc 1 182 3 is_stmt 1 view .LVU7
 182:STM32Cube_FW_N6/Utilities/lcd/stm32_lcd.c ****   FuncDriver.FillRGBRect    = pDrv->FillRGBRect;
  57              		.loc 1 182 29 is_stmt 0 view .LVU8
  58 000c 4368     		ldr	r3, [r0, #4]
 189:STM32Cube_FW_N6/Utilities/lcd/stm32_lcd.c ****   FuncDriver.SetLayer       = pDrv->SetLayer;
  59              		.loc 1 189 29 view .LVU9
  60 000e 2262     		str	r2, [r4, #32]
 182:STM32Cube_FW_N6/Utilities/lcd/stm32_lcd.c ****   FuncDriver.FillRGBRect    = pDrv->FillRGBRect;
  61              		.loc 1 182 29 view .LVU10
  62 0010 6360     		str	r3, [r4, #4]
 183:STM32Cube_FW_N6/Utilities/lcd/stm32_lcd.c ****   FuncDriver.DrawVLine      = pDrv->DrawVLine;
  63              		.loc 1 183 3 is_stmt 1 view .LVU11
 183:STM32Cube_FW_N6/Utilities/lcd/stm32_lcd.c ****   FuncDriver.DrawVLine      = pDrv->DrawVLine;
  64              		.loc 1 183 29 is_stmt 0 view .LVU12
  65 0012 8368     		ldr	r3, [r0, #8]
 190:STM32Cube_FW_N6/Utilities/lcd/stm32_lcd.c ****   FuncDriver.GetFormat      = pDrv->GetFormat;
  66              		.loc 1 190 29 view .LVU13
  67 0014 426A     		ldr	r2, [r0, #36]
 183:STM32Cube_FW_N6/Utilities/lcd/stm32_lcd.c ****   FuncDriver.DrawVLine      = pDrv->DrawVLine;
  68              		.loc 1 183 29 view .LVU14
  69 0016 A360     		str	r3, [r4, #8]
 184:STM32Cube_FW_N6/Utilities/lcd/stm32_lcd.c ****   FuncDriver.FillRect       = pDrv->FillRect;
  70              		.loc 1 184 3 is_stmt 1 view .LVU15
 184:STM32Cube_FW_N6/Utilities/lcd/stm32_lcd.c ****   FuncDriver.FillRect       = pDrv->FillRect;
  71              		.loc 1 184 29 is_stmt 0 view .LVU16
  72 0018 C368     		ldr	r3, [r0, #12]
  73              		.loc 1 193 22 view .LVU17
  74 001a 124D     		ldr	r5, .L2+4
 184:STM32Cube_FW_N6/Utilities/lcd/stm32_lcd.c ****   FuncDriver.FillRect       = pDrv->FillRect;
  75              		.loc 1 184 29 view .LVU18
  76 001c E360     		str	r3, [r4, #12]
 185:STM32Cube_FW_N6/Utilities/lcd/stm32_lcd.c ****   FuncDriver.GetPixel       = pDrv->GetPixel;
  77              		.loc 1 185 3 is_stmt 1 view .LVU19
ARM GAS  C:\Users\DJESSOU\AppData\Local\Temp\ccR55SEh.s 			page 6


 185:STM32Cube_FW_N6/Utilities/lcd/stm32_lcd.c ****   FuncDriver.GetPixel       = pDrv->GetPixel;
  78              		.loc 1 185 29 is_stmt 0 view .LVU20
  79 001e 0369     		ldr	r3, [r0, #16]
 190:STM32Cube_FW_N6/Utilities/lcd/stm32_lcd.c ****   FuncDriver.GetFormat      = pDrv->GetFormat;
  80              		.loc 1 190 29 view .LVU21
  81 0020 6262     		str	r2, [r4, #36]
 185:STM32Cube_FW_N6/Utilities/lcd/stm32_lcd.c ****   FuncDriver.GetPixel       = pDrv->GetPixel;
  82              		.loc 1 185 29 view .LVU22
  83 0022 2361     		str	r3, [r4, #16]
 186:STM32Cube_FW_N6/Utilities/lcd/stm32_lcd.c ****   FuncDriver.SetPixel       = pDrv->SetPixel;
  84              		.loc 1 186 3 is_stmt 1 view .LVU23
 186:STM32Cube_FW_N6/Utilities/lcd/stm32_lcd.c ****   FuncDriver.SetPixel       = pDrv->SetPixel;
  85              		.loc 1 186 29 is_stmt 0 view .LVU24
  86 0024 4369     		ldr	r3, [r0, #20]
 191:STM32Cube_FW_N6/Utilities/lcd/stm32_lcd.c **** 
  87              		.loc 1 191 29 view .LVU25
  88 0026 826A     		ldr	r2, [r0, #40]
 186:STM32Cube_FW_N6/Utilities/lcd/stm32_lcd.c ****   FuncDriver.SetPixel       = pDrv->SetPixel;
  89              		.loc 1 186 29 view .LVU26
  90 0028 6361     		str	r3, [r4, #20]
 187:STM32Cube_FW_N6/Utilities/lcd/stm32_lcd.c ****   FuncDriver.GetXSize       = pDrv->GetXSize;
  91              		.loc 1 187 3 is_stmt 1 view .LVU27
 187:STM32Cube_FW_N6/Utilities/lcd/stm32_lcd.c ****   FuncDriver.GetXSize       = pDrv->GetXSize;
  92              		.loc 1 187 29 is_stmt 0 view .LVU28
  93 002a 8369     		ldr	r3, [r0, #24]
 194:STM32Cube_FW_N6/Utilities/lcd/stm32_lcd.c ****   DrawProp->LcdDevice = 0;
 195:STM32Cube_FW_N6/Utilities/lcd/stm32_lcd.c ****   FuncDriver.GetXSize(0, &DrawProp[DrawProp->LcdLayer].LcdXsize);
  94              		.loc 1 195 3 view .LVU29
  95 002c 05F11401 		add	r1, r5, #20
 187:STM32Cube_FW_N6/Utilities/lcd/stm32_lcd.c ****   FuncDriver.GetXSize       = pDrv->GetXSize;
  96              		.loc 1 187 29 view .LVU30
  97 0030 A361     		str	r3, [r4, #24]
 188:STM32Cube_FW_N6/Utilities/lcd/stm32_lcd.c ****   FuncDriver.GetYSize       = pDrv->GetYSize;
  98              		.loc 1 188 3 is_stmt 1 view .LVU31
 188:STM32Cube_FW_N6/Utilities/lcd/stm32_lcd.c ****   FuncDriver.GetYSize       = pDrv->GetYSize;
  99              		.loc 1 188 35 is_stmt 0 view .LVU32
 100 0032 C369     		ldr	r3, [r0, #28]
 194:STM32Cube_FW_N6/Utilities/lcd/stm32_lcd.c ****   DrawProp->LcdDevice = 0;
 101              		.loc 1 194 23 view .LVU33
 102 0034 C5E90366 		strd	r6, r6, [r5, #12]
 103              		.loc 1 195 3 view .LVU34
 104 0038 3046     		mov	r0, r6
 105              	.LVL1:
 188:STM32Cube_FW_N6/Utilities/lcd/stm32_lcd.c ****   FuncDriver.GetYSize       = pDrv->GetYSize;
 106              		.loc 1 188 29 view .LVU35
 107 003a E361     		str	r3, [r4, #28]
 189:STM32Cube_FW_N6/Utilities/lcd/stm32_lcd.c ****   FuncDriver.SetLayer       = pDrv->SetLayer;
 108              		.loc 1 189 3 is_stmt 1 view .LVU36
 190:STM32Cube_FW_N6/Utilities/lcd/stm32_lcd.c ****   FuncDriver.GetFormat      = pDrv->GetFormat;
 109              		.loc 1 190 3 view .LVU37
 191:STM32Cube_FW_N6/Utilities/lcd/stm32_lcd.c **** 
 110              		.loc 1 191 3 view .LVU38
 191:STM32Cube_FW_N6/Utilities/lcd/stm32_lcd.c **** 
 111              		.loc 1 191 29 is_stmt 0 view .LVU39
 112 003c A262     		str	r2, [r4, #40]
 193:STM32Cube_FW_N6/Utilities/lcd/stm32_lcd.c ****   DrawProp->LcdDevice = 0;
 113              		.loc 1 193 3 is_stmt 1 view .LVU40
ARM GAS  C:\Users\DJESSOU\AppData\Local\Temp\ccR55SEh.s 			page 7


 114              		.loc 1 195 3 view .LVU41
 115 003e 9847     		blx	r3
 116              	.LVL2:
 196:STM32Cube_FW_N6/Utilities/lcd/stm32_lcd.c ****   FuncDriver.GetYSize(0, &DrawProp[DrawProp->LcdLayer].LcdYsize);
 117              		.loc 1 196 3 view .LVU42
 118 0040 E968     		ldr	r1, [r5, #12]
 119 0042 236A     		ldr	r3, [r4, #32]
 120 0044 05EB4111 		add	r1, r5, r1, lsl #5
 121 0048 3046     		mov	r0, r6
 122 004a 1831     		adds	r1, r1, #24
 123 004c 9847     		blx	r3
 124              	.LVL3:
 197:STM32Cube_FW_N6/Utilities/lcd/stm32_lcd.c ****   FuncDriver.GetFormat(0, &DrawProp[DrawProp->LcdLayer].LcdPixelFormat);
 125              		.loc 1 197 3 view .LVU43
 126 004e EB68     		ldr	r3, [r5, #12]
 127 0050 3046     		mov	r0, r6
 128 0052 05EB4311 		add	r1, r5, r3, lsl #5
 129 0056 1C31     		adds	r1, r1, #28
 130 0058 A36A     		ldr	r3, [r4, #40]
 198:STM32Cube_FW_N6/Utilities/lcd/stm32_lcd.c **** }
 131              		.loc 1 198 1 is_stmt 0 view .LVU44
 132 005a BDE87040 		pop	{r4, r5, r6, lr}
 133              		.cfi_restore 14
 134              		.cfi_restore 6
 135              		.cfi_restore 5
 136              		.cfi_restore 4
 137              		.cfi_def_cfa_offset 0
 197:STM32Cube_FW_N6/Utilities/lcd/stm32_lcd.c ****   FuncDriver.GetFormat(0, &DrawProp[DrawProp->LcdLayer].LcdPixelFormat);
 138              		.loc 1 197 3 view .LVU45
 139 005e 1847     		bx	r3
 140              	.LVL4:
 141              	.L3:
 142              		.align	2
 143              	.L2:
 144 0060 00000000 		.word	FuncDriver
 145 0064 00000000 		.word	DrawProp
 146              		.cfi_endproc
 147              	.LFE0:
 149              		.section	.text.UTIL_LCD_SetLayer,"ax",%progbits
 150              		.align	1
 151              		.global	UTIL_LCD_SetLayer
 152              		.syntax unified
 153              		.thumb
 154              		.thumb_func
 156              	UTIL_LCD_SetLayer:
 157              	.LVL5:
 158              	.LFB1:
 199:STM32Cube_FW_N6/Utilities/lcd/stm32_lcd.c **** 
 200:STM32Cube_FW_N6/Utilities/lcd/stm32_lcd.c **** /**
 201:STM32Cube_FW_N6/Utilities/lcd/stm32_lcd.c ****   * @brief  Set the LCD layer.
 202:STM32Cube_FW_N6/Utilities/lcd/stm32_lcd.c ****   * @param  Layer  LCD layer
 203:STM32Cube_FW_N6/Utilities/lcd/stm32_lcd.c ****   */
 204:STM32Cube_FW_N6/Utilities/lcd/stm32_lcd.c **** void UTIL_LCD_SetLayer(uint32_t Layer)
 205:STM32Cube_FW_N6/Utilities/lcd/stm32_lcd.c **** {
 159              		.loc 1 205 1 is_stmt 1 view -0
 160              		.cfi_startproc
 161              		@ args = 0, pretend = 0, frame = 0
ARM GAS  C:\Users\DJESSOU\AppData\Local\Temp\ccR55SEh.s 			page 8


 162              		@ frame_needed = 0, uses_anonymous_args = 0
 206:STM32Cube_FW_N6/Utilities/lcd/stm32_lcd.c ****   if(FuncDriver.SetLayer != NULL)
 163              		.loc 1 206 3 view .LVU47
 205:STM32Cube_FW_N6/Utilities/lcd/stm32_lcd.c ****   if(FuncDriver.SetLayer != NULL)
 164              		.loc 1 205 1 is_stmt 0 view .LVU48
 165 0000 70B5     		push	{r4, r5, r6, lr}
 166              		.cfi_def_cfa_offset 16
 167              		.cfi_offset 4, -16
 168              		.cfi_offset 5, -12
 169              		.cfi_offset 6, -8
 170              		.cfi_offset 14, -4
 171              		.loc 1 206 16 view .LVU49
 172 0002 104E     		ldr	r6, .L8
 205:STM32Cube_FW_N6/Utilities/lcd/stm32_lcd.c ****   if(FuncDriver.SetLayer != NULL)
 173              		.loc 1 205 1 view .LVU50
 174 0004 0546     		mov	r5, r0
 175              		.loc 1 206 16 view .LVU51
 176 0006 736A     		ldr	r3, [r6, #36]
 177              		.loc 1 206 5 view .LVU52
 178 0008 DBB1     		cbz	r3, .L4
 207:STM32Cube_FW_N6/Utilities/lcd/stm32_lcd.c ****   {
 208:STM32Cube_FW_N6/Utilities/lcd/stm32_lcd.c ****     if(FuncDriver.SetLayer(DrawProp->LcdDevice, Layer) == 0)
 179              		.loc 1 208 5 is_stmt 1 view .LVU53
 180              		.loc 1 208 8 is_stmt 0 view .LVU54
 181 000a 0F4C     		ldr	r4, .L8+4
 182 000c 0146     		mov	r1, r0
 183 000e 2069     		ldr	r0, [r4, #16]
 184              	.LVL6:
 185              		.loc 1 208 8 view .LVU55
 186 0010 9847     		blx	r3
 187              	.LVL7:
 188              		.loc 1 208 7 discriminator 1 view .LVU56
 189 0012 B0B9     		cbnz	r0, .L4
 209:STM32Cube_FW_N6/Utilities/lcd/stm32_lcd.c ****     {
 210:STM32Cube_FW_N6/Utilities/lcd/stm32_lcd.c ****       DrawProp->LcdLayer = Layer;
 190              		.loc 1 210 7 is_stmt 1 view .LVU57
 211:STM32Cube_FW_N6/Utilities/lcd/stm32_lcd.c ****       FuncDriver.GetXSize(DrawProp->LcdDevice, &DrawProp[DrawProp->LcdLayer].LcdXsize);
 191              		.loc 1 211 7 is_stmt 0 view .LVU58
 192 0014 04EB4511 		add	r1, r4, r5, lsl #5
 193 0018 F369     		ldr	r3, [r6, #28]
 194 001a 2069     		ldr	r0, [r4, #16]
 210:STM32Cube_FW_N6/Utilities/lcd/stm32_lcd.c ****       FuncDriver.GetXSize(DrawProp->LcdDevice, &DrawProp[DrawProp->LcdLayer].LcdXsize);
 195              		.loc 1 210 26 view .LVU59
 196 001c E560     		str	r5, [r4, #12]
 197              		.loc 1 211 7 is_stmt 1 view .LVU60
 198 001e 1431     		adds	r1, r1, #20
 199 0020 9847     		blx	r3
 200              	.LVL8:
 212:STM32Cube_FW_N6/Utilities/lcd/stm32_lcd.c ****       FuncDriver.GetYSize(DrawProp->LcdDevice, &DrawProp[DrawProp->LcdLayer].LcdYsize);
 201              		.loc 1 212 7 view .LVU61
 202 0022 E168     		ldr	r1, [r4, #12]
 203 0024 336A     		ldr	r3, [r6, #32]
 204 0026 04EB4111 		add	r1, r4, r1, lsl #5
 205 002a 2069     		ldr	r0, [r4, #16]
 206 002c 1831     		adds	r1, r1, #24
 207 002e 9847     		blx	r3
 208              	.LVL9:
ARM GAS  C:\Users\DJESSOU\AppData\Local\Temp\ccR55SEh.s 			page 9


 213:STM32Cube_FW_N6/Utilities/lcd/stm32_lcd.c ****       FuncDriver.GetFormat(DrawProp->LcdDevice, &DrawProp[DrawProp->LcdLayer].LcdPixelFormat);
 209              		.loc 1 213 7 view .LVU62
 210 0030 E168     		ldr	r1, [r4, #12]
 211 0032 B36A     		ldr	r3, [r6, #40]
 212 0034 04EB4111 		add	r1, r4, r1, lsl #5
 213 0038 2069     		ldr	r0, [r4, #16]
 214 003a 1C31     		adds	r1, r1, #28
 214:STM32Cube_FW_N6/Utilities/lcd/stm32_lcd.c ****     }
 215:STM32Cube_FW_N6/Utilities/lcd/stm32_lcd.c ****   }
 216:STM32Cube_FW_N6/Utilities/lcd/stm32_lcd.c **** }
 215              		.loc 1 216 1 is_stmt 0 view .LVU63
 216 003c BDE87040 		pop	{r4, r5, r6, lr}
 217              		.cfi_remember_state
 218              		.cfi_restore 14
 219              		.cfi_restore 6
 220              		.cfi_restore 5
 221              		.cfi_restore 4
 222              		.cfi_def_cfa_offset 0
 223              	.LVL10:
 213:STM32Cube_FW_N6/Utilities/lcd/stm32_lcd.c ****       FuncDriver.GetFormat(DrawProp->LcdDevice, &DrawProp[DrawProp->LcdLayer].LcdPixelFormat);
 224              		.loc 1 213 7 view .LVU64
 225 0040 1847     		bx	r3
 226              	.LVL11:
 227              	.L4:
 228              		.cfi_restore_state
 229              		.loc 1 216 1 view .LVU65
 230 0042 70BD     		pop	{r4, r5, r6, pc}
 231              	.LVL12:
 232              	.L9:
 233              		.loc 1 216 1 view .LVU66
 234              		.align	2
 235              	.L8:
 236 0044 00000000 		.word	FuncDriver
 237 0048 00000000 		.word	DrawProp
 238              		.cfi_endproc
 239              	.LFE1:
 241              		.section	.text.UTIL_LCD_SetDevice,"ax",%progbits
 242              		.align	1
 243              		.global	UTIL_LCD_SetDevice
 244              		.syntax unified
 245              		.thumb
 246              		.thumb_func
 248              	UTIL_LCD_SetDevice:
 249              	.LVL13:
 250              	.LFB2:
 217:STM32Cube_FW_N6/Utilities/lcd/stm32_lcd.c **** 
 218:STM32Cube_FW_N6/Utilities/lcd/stm32_lcd.c **** /**
 219:STM32Cube_FW_N6/Utilities/lcd/stm32_lcd.c ****   * @brief  Set the LCD instance to be used.
 220:STM32Cube_FW_N6/Utilities/lcd/stm32_lcd.c ****   * @param  Device  LCD instance
 221:STM32Cube_FW_N6/Utilities/lcd/stm32_lcd.c ****   */
 222:STM32Cube_FW_N6/Utilities/lcd/stm32_lcd.c **** void UTIL_LCD_SetDevice(uint32_t Device)
 223:STM32Cube_FW_N6/Utilities/lcd/stm32_lcd.c **** {
 251              		.loc 1 223 1 is_stmt 1 view -0
 252              		.cfi_startproc
 253              		@ args = 0, pretend = 0, frame = 0
 254              		@ frame_needed = 0, uses_anonymous_args = 0
 224:STM32Cube_FW_N6/Utilities/lcd/stm32_lcd.c ****   DrawProp->LcdDevice = Device;
ARM GAS  C:\Users\DJESSOU\AppData\Local\Temp\ccR55SEh.s 			page 10


 255              		.loc 1 224 3 view .LVU68
 223:STM32Cube_FW_N6/Utilities/lcd/stm32_lcd.c ****   DrawProp->LcdDevice = Device;
 256              		.loc 1 223 1 is_stmt 0 view .LVU69
 257 0000 70B5     		push	{r4, r5, r6, lr}
 258              		.cfi_def_cfa_offset 16
 259              		.cfi_offset 4, -16
 260              		.cfi_offset 5, -12
 261              		.cfi_offset 6, -8
 262              		.cfi_offset 14, -4
 223:STM32Cube_FW_N6/Utilities/lcd/stm32_lcd.c ****   DrawProp->LcdDevice = Device;
 263              		.loc 1 223 1 view .LVU70
 264 0002 0446     		mov	r4, r0
 265              		.loc 1 224 23 view .LVU71
 266 0004 064D     		ldr	r5, .L11
 225:STM32Cube_FW_N6/Utilities/lcd/stm32_lcd.c ****   FuncDriver.GetXSize(Device, &DrawProp->LcdXsize);
 267              		.loc 1 225 13 view .LVU72
 268 0006 074E     		ldr	r6, .L11+4
 269              		.loc 1 225 3 view .LVU73
 270 0008 05F11401 		add	r1, r5, #20
 271 000c F369     		ldr	r3, [r6, #28]
 224:STM32Cube_FW_N6/Utilities/lcd/stm32_lcd.c ****   DrawProp->LcdDevice = Device;
 272              		.loc 1 224 23 view .LVU74
 273 000e 2861     		str	r0, [r5, #16]
 274              		.loc 1 225 3 is_stmt 1 view .LVU75
 275 0010 9847     		blx	r3
 276              	.LVL14:
 226:STM32Cube_FW_N6/Utilities/lcd/stm32_lcd.c ****   FuncDriver.GetYSize(Device, &DrawProp->LcdYsize);
 277              		.loc 1 226 3 view .LVU76
 278 0012 2046     		mov	r0, r4
 279 0014 336A     		ldr	r3, [r6, #32]
 280 0016 05F11801 		add	r1, r5, #24
 227:STM32Cube_FW_N6/Utilities/lcd/stm32_lcd.c **** }
 281              		.loc 1 227 1 is_stmt 0 view .LVU77
 282 001a BDE87040 		pop	{r4, r5, r6, lr}
 283              		.cfi_restore 14
 284              		.cfi_restore 6
 285              		.cfi_restore 5
 286              		.cfi_restore 4
 287              		.cfi_def_cfa_offset 0
 288              	.LVL15:
 226:STM32Cube_FW_N6/Utilities/lcd/stm32_lcd.c ****   FuncDriver.GetYSize(Device, &DrawProp->LcdYsize);
 289              		.loc 1 226 3 view .LVU78
 290 001e 1847     		bx	r3
 291              	.LVL16:
 292              	.L12:
 226:STM32Cube_FW_N6/Utilities/lcd/stm32_lcd.c ****   FuncDriver.GetYSize(Device, &DrawProp->LcdYsize);
 293              		.loc 1 226 3 view .LVU79
 294              		.align	2
 295              	.L11:
 296 0020 00000000 		.word	DrawProp
 297 0024 00000000 		.word	FuncDriver
 298              		.cfi_endproc
 299              	.LFE2:
 301              		.section	.text.UTIL_LCD_SetTextColor,"ax",%progbits
 302              		.align	1
 303              		.global	UTIL_LCD_SetTextColor
 304              		.syntax unified
ARM GAS  C:\Users\DJESSOU\AppData\Local\Temp\ccR55SEh.s 			page 11


 305              		.thumb
 306              		.thumb_func
 308              	UTIL_LCD_SetTextColor:
 309              	.LVL17:
 310              	.LFB3:
 228:STM32Cube_FW_N6/Utilities/lcd/stm32_lcd.c **** 
 229:STM32Cube_FW_N6/Utilities/lcd/stm32_lcd.c **** /**
 230:STM32Cube_FW_N6/Utilities/lcd/stm32_lcd.c ****   * @brief  Sets the LCD text color.
 231:STM32Cube_FW_N6/Utilities/lcd/stm32_lcd.c ****   * @param  Color  Text color code
 232:STM32Cube_FW_N6/Utilities/lcd/stm32_lcd.c ****   */
 233:STM32Cube_FW_N6/Utilities/lcd/stm32_lcd.c **** void UTIL_LCD_SetTextColor(uint32_t Color)
 234:STM32Cube_FW_N6/Utilities/lcd/stm32_lcd.c **** {
 311              		.loc 1 234 1 is_stmt 1 view -0
 312              		.cfi_startproc
 313              		@ args = 0, pretend = 0, frame = 0
 314              		@ frame_needed = 0, uses_anonymous_args = 0
 315              		@ link register save eliminated.
 235:STM32Cube_FW_N6/Utilities/lcd/stm32_lcd.c ****   DrawProp[DrawProp->LcdLayer].TextColor = Color;
 316              		.loc 1 235 3 view .LVU81
 317              		.loc 1 235 42 is_stmt 0 view .LVU82
 318 0000 024A     		ldr	r2, .L14
 319 0002 D368     		ldr	r3, [r2, #12]
 320 0004 5B01     		lsls	r3, r3, #5
 321 0006 D050     		str	r0, [r2, r3]
 236:STM32Cube_FW_N6/Utilities/lcd/stm32_lcd.c **** }
 322              		.loc 1 236 1 view .LVU83
 323 0008 7047     		bx	lr
 324              	.L15:
 325 000a 00BF     		.align	2
 326              	.L14:
 327 000c 00000000 		.word	DrawProp
 328              		.cfi_endproc
 329              	.LFE3:
 331              		.section	.text.UTIL_LCD_GetTextColor,"ax",%progbits
 332              		.align	1
 333              		.global	UTIL_LCD_GetTextColor
 334              		.syntax unified
 335              		.thumb
 336              		.thumb_func
 338              	UTIL_LCD_GetTextColor:
 339              	.LFB4:
 237:STM32Cube_FW_N6/Utilities/lcd/stm32_lcd.c **** 
 238:STM32Cube_FW_N6/Utilities/lcd/stm32_lcd.c **** /**
 239:STM32Cube_FW_N6/Utilities/lcd/stm32_lcd.c ****   * @brief  Gets the LCD text color.
 240:STM32Cube_FW_N6/Utilities/lcd/stm32_lcd.c ****   * @retval Used text color.
 241:STM32Cube_FW_N6/Utilities/lcd/stm32_lcd.c ****   */
 242:STM32Cube_FW_N6/Utilities/lcd/stm32_lcd.c **** uint32_t UTIL_LCD_GetTextColor(void)
 243:STM32Cube_FW_N6/Utilities/lcd/stm32_lcd.c **** {
 340              		.loc 1 243 1 is_stmt 1 view -0
 341              		.cfi_startproc
 342              		@ args = 0, pretend = 0, frame = 0
 343              		@ frame_needed = 0, uses_anonymous_args = 0
 344              		@ link register save eliminated.
 244:STM32Cube_FW_N6/Utilities/lcd/stm32_lcd.c ****   return DrawProp[DrawProp->LcdLayer].TextColor;
 345              		.loc 1 244 3 view .LVU85
 346              		.loc 1 244 38 is_stmt 0 view .LVU86
 347 0000 024A     		ldr	r2, .L17
ARM GAS  C:\Users\DJESSOU\AppData\Local\Temp\ccR55SEh.s 			page 12


 348 0002 D368     		ldr	r3, [r2, #12]
 349 0004 5B01     		lsls	r3, r3, #5
 245:STM32Cube_FW_N6/Utilities/lcd/stm32_lcd.c **** }
 350              		.loc 1 245 1 view .LVU87
 351 0006 D058     		ldr	r0, [r2, r3]
 352 0008 7047     		bx	lr
 353              	.L18:
 354 000a 00BF     		.align	2
 355              	.L17:
 356 000c 00000000 		.word	DrawProp
 357              		.cfi_endproc
 358              	.LFE4:
 360              		.section	.text.UTIL_LCD_SetBackColor,"ax",%progbits
 361              		.align	1
 362              		.global	UTIL_LCD_SetBackColor
 363              		.syntax unified
 364              		.thumb
 365              		.thumb_func
 367              	UTIL_LCD_SetBackColor:
 368              	.LVL18:
 369              	.LFB5:
 246:STM32Cube_FW_N6/Utilities/lcd/stm32_lcd.c **** 
 247:STM32Cube_FW_N6/Utilities/lcd/stm32_lcd.c **** /**
 248:STM32Cube_FW_N6/Utilities/lcd/stm32_lcd.c ****   * @brief  Sets the LCD background color.
 249:STM32Cube_FW_N6/Utilities/lcd/stm32_lcd.c ****   * @param  Color  Layer background color code
 250:STM32Cube_FW_N6/Utilities/lcd/stm32_lcd.c ****   */
 251:STM32Cube_FW_N6/Utilities/lcd/stm32_lcd.c **** void UTIL_LCD_SetBackColor(uint32_t Color)
 252:STM32Cube_FW_N6/Utilities/lcd/stm32_lcd.c **** {
 370              		.loc 1 252 1 is_stmt 1 view -0
 371              		.cfi_startproc
 372              		@ args = 0, pretend = 0, frame = 0
 373              		@ frame_needed = 0, uses_anonymous_args = 0
 374              		@ link register save eliminated.
 253:STM32Cube_FW_N6/Utilities/lcd/stm32_lcd.c ****   DrawProp[DrawProp->LcdLayer].BackColor = Color;
 375              		.loc 1 253 3 view .LVU89
 376              		.loc 1 253 42 is_stmt 0 view .LVU90
 377 0000 024B     		ldr	r3, .L20
 378 0002 DA68     		ldr	r2, [r3, #12]
 379 0004 03EB4213 		add	r3, r3, r2, lsl #5
 380 0008 5860     		str	r0, [r3, #4]
 254:STM32Cube_FW_N6/Utilities/lcd/stm32_lcd.c **** }
 381              		.loc 1 254 1 view .LVU91
 382 000a 7047     		bx	lr
 383              	.L21:
 384              		.align	2
 385              	.L20:
 386 000c 00000000 		.word	DrawProp
 387              		.cfi_endproc
 388              	.LFE5:
 390              		.section	.text.UTIL_LCD_GetBackColor,"ax",%progbits
 391              		.align	1
 392              		.global	UTIL_LCD_GetBackColor
 393              		.syntax unified
 394              		.thumb
 395              		.thumb_func
 397              	UTIL_LCD_GetBackColor:
 398              	.LFB6:
ARM GAS  C:\Users\DJESSOU\AppData\Local\Temp\ccR55SEh.s 			page 13


 255:STM32Cube_FW_N6/Utilities/lcd/stm32_lcd.c **** 
 256:STM32Cube_FW_N6/Utilities/lcd/stm32_lcd.c **** /**
 257:STM32Cube_FW_N6/Utilities/lcd/stm32_lcd.c ****   * @brief  Gets the LCD background color.
 258:STM32Cube_FW_N6/Utilities/lcd/stm32_lcd.c ****   * @retval Used background color
 259:STM32Cube_FW_N6/Utilities/lcd/stm32_lcd.c ****   */
 260:STM32Cube_FW_N6/Utilities/lcd/stm32_lcd.c **** uint32_t UTIL_LCD_GetBackColor(void)
 261:STM32Cube_FW_N6/Utilities/lcd/stm32_lcd.c **** {
 399              		.loc 1 261 1 is_stmt 1 view -0
 400              		.cfi_startproc
 401              		@ args = 0, pretend = 0, frame = 0
 402              		@ frame_needed = 0, uses_anonymous_args = 0
 403              		@ link register save eliminated.
 262:STM32Cube_FW_N6/Utilities/lcd/stm32_lcd.c ****   return DrawProp[DrawProp->LcdLayer].BackColor;
 404              		.loc 1 262 3 view .LVU93
 405              		.loc 1 262 38 is_stmt 0 view .LVU94
 406 0000 024B     		ldr	r3, .L23
 407 0002 DA68     		ldr	r2, [r3, #12]
 408 0004 03EB4213 		add	r3, r3, r2, lsl #5
 263:STM32Cube_FW_N6/Utilities/lcd/stm32_lcd.c **** }
 409              		.loc 1 263 1 view .LVU95
 410 0008 5868     		ldr	r0, [r3, #4]
 411 000a 7047     		bx	lr
 412              	.L24:
 413              		.align	2
 414              	.L23:
 415 000c 00000000 		.word	DrawProp
 416              		.cfi_endproc
 417              	.LFE6:
 419              		.section	.text.UTIL_LCD_SetFont,"ax",%progbits
 420              		.align	1
 421              		.global	UTIL_LCD_SetFont
 422              		.syntax unified
 423              		.thumb
 424              		.thumb_func
 426              	UTIL_LCD_SetFont:
 427              	.LVL19:
 428              	.LFB7:
 264:STM32Cube_FW_N6/Utilities/lcd/stm32_lcd.c **** 
 265:STM32Cube_FW_N6/Utilities/lcd/stm32_lcd.c **** /**
 266:STM32Cube_FW_N6/Utilities/lcd/stm32_lcd.c ****   * @brief  Sets the LCD text font.
 267:STM32Cube_FW_N6/Utilities/lcd/stm32_lcd.c ****   * @param  fonts  Layer font to be used
 268:STM32Cube_FW_N6/Utilities/lcd/stm32_lcd.c ****   */
 269:STM32Cube_FW_N6/Utilities/lcd/stm32_lcd.c **** void UTIL_LCD_SetFont(sFONT *fonts)
 270:STM32Cube_FW_N6/Utilities/lcd/stm32_lcd.c **** {
 429              		.loc 1 270 1 is_stmt 1 view -0
 430              		.cfi_startproc
 431              		@ args = 0, pretend = 0, frame = 0
 432              		@ frame_needed = 0, uses_anonymous_args = 0
 433              		@ link register save eliminated.
 271:STM32Cube_FW_N6/Utilities/lcd/stm32_lcd.c ****   DrawProp[DrawProp->LcdLayer].pFont = fonts;
 434              		.loc 1 271 3 view .LVU97
 435              		.loc 1 271 38 is_stmt 0 view .LVU98
 436 0000 024B     		ldr	r3, .L26
 437 0002 DA68     		ldr	r2, [r3, #12]
 438 0004 03EB4213 		add	r3, r3, r2, lsl #5
 439 0008 9860     		str	r0, [r3, #8]
 272:STM32Cube_FW_N6/Utilities/lcd/stm32_lcd.c **** }
ARM GAS  C:\Users\DJESSOU\AppData\Local\Temp\ccR55SEh.s 			page 14


 440              		.loc 1 272 1 view .LVU99
 441 000a 7047     		bx	lr
 442              	.L27:
 443              		.align	2
 444              	.L26:
 445 000c 00000000 		.word	DrawProp
 446              		.cfi_endproc
 447              	.LFE7:
 449              		.section	.text.UTIL_LCD_GetFont,"ax",%progbits
 450              		.align	1
 451              		.global	UTIL_LCD_GetFont
 452              		.syntax unified
 453              		.thumb
 454              		.thumb_func
 456              	UTIL_LCD_GetFont:
 457              	.LFB8:
 273:STM32Cube_FW_N6/Utilities/lcd/stm32_lcd.c **** 
 274:STM32Cube_FW_N6/Utilities/lcd/stm32_lcd.c **** /**
 275:STM32Cube_FW_N6/Utilities/lcd/stm32_lcd.c ****   * @brief  Gets the LCD text font.
 276:STM32Cube_FW_N6/Utilities/lcd/stm32_lcd.c ****   * @retval Used layer font
 277:STM32Cube_FW_N6/Utilities/lcd/stm32_lcd.c ****   */
 278:STM32Cube_FW_N6/Utilities/lcd/stm32_lcd.c **** sFONT *UTIL_LCD_GetFont(void)
 279:STM32Cube_FW_N6/Utilities/lcd/stm32_lcd.c **** {
 458              		.loc 1 279 1 is_stmt 1 view -0
 459              		.cfi_startproc
 460              		@ args = 0, pretend = 0, frame = 0
 461              		@ frame_needed = 0, uses_anonymous_args = 0
 462              		@ link register save eliminated.
 280:STM32Cube_FW_N6/Utilities/lcd/stm32_lcd.c ****   return DrawProp[DrawProp->LcdLayer].pFont;
 463              		.loc 1 280 3 view .LVU101
 464              		.loc 1 280 38 is_stmt 0 view .LVU102
 465 0000 024B     		ldr	r3, .L29
 466 0002 DA68     		ldr	r2, [r3, #12]
 467 0004 03EB4213 		add	r3, r3, r2, lsl #5
 281:STM32Cube_FW_N6/Utilities/lcd/stm32_lcd.c **** }
 468              		.loc 1 281 1 view .LVU103
 469 0008 9868     		ldr	r0, [r3, #8]
 470 000a 7047     		bx	lr
 471              	.L30:
 472              		.align	2
 473              	.L29:
 474 000c 00000000 		.word	DrawProp
 475              		.cfi_endproc
 476              	.LFE8:
 478              		.section	.text.UTIL_LCD_FillRGBRect,"ax",%progbits
 479              		.align	1
 480              		.global	UTIL_LCD_FillRGBRect
 481              		.syntax unified
 482              		.thumb
 483              		.thumb_func
 485              	UTIL_LCD_FillRGBRect:
 486              	.LVL20:
 487              	.LFB9:
 282:STM32Cube_FW_N6/Utilities/lcd/stm32_lcd.c **** 
 283:STM32Cube_FW_N6/Utilities/lcd/stm32_lcd.c **** /**
 284:STM32Cube_FW_N6/Utilities/lcd/stm32_lcd.c ****   * @brief  Draws a RGB rectangle in currently active layer.
 285:STM32Cube_FW_N6/Utilities/lcd/stm32_lcd.c ****   * @param  pData   Pointer to RGB rectangle data
ARM GAS  C:\Users\DJESSOU\AppData\Local\Temp\ccR55SEh.s 			page 15


 286:STM32Cube_FW_N6/Utilities/lcd/stm32_lcd.c ****   * @param  Xpos    X position
 287:STM32Cube_FW_N6/Utilities/lcd/stm32_lcd.c ****   * @param  Ypos    Y position
 288:STM32Cube_FW_N6/Utilities/lcd/stm32_lcd.c ****   * @param  Length  Line length
 289:STM32Cube_FW_N6/Utilities/lcd/stm32_lcd.c ****   */
 290:STM32Cube_FW_N6/Utilities/lcd/stm32_lcd.c **** void UTIL_LCD_FillRGBRect(uint32_t Xpos, uint32_t Ypos, uint8_t *pData, uint32_t Width, uint32_t He
 291:STM32Cube_FW_N6/Utilities/lcd/stm32_lcd.c **** {
 488              		.loc 1 291 1 is_stmt 1 view -0
 489              		.cfi_startproc
 490              		@ args = 4, pretend = 0, frame = 0
 491              		@ frame_needed = 0, uses_anonymous_args = 0
 292:STM32Cube_FW_N6/Utilities/lcd/stm32_lcd.c ****   /* Write RGB rectangle data */
 293:STM32Cube_FW_N6/Utilities/lcd/stm32_lcd.c ****   FuncDriver.FillRGBRect(DrawProp->LcdDevice, Xpos, Ypos, pData, Width, Height);
 492              		.loc 1 293 3 view .LVU105
 291:STM32Cube_FW_N6/Utilities/lcd/stm32_lcd.c ****   /* Write RGB rectangle data */
 493              		.loc 1 291 1 is_stmt 0 view .LVU106
 494 0000 13B5     		push	{r0, r1, r4, lr}
 495              		.cfi_def_cfa_offset 16
 496              		.cfi_offset 4, -8
 497              		.cfi_offset 14, -4
 498              		.loc 1 293 3 view .LVU107
 499 0002 049C     		ldr	r4, [sp, #16]
 500 0004 CDE90034 		strd	r3, r4, [sp]
 501 0008 044B     		ldr	r3, .L32
 502              	.LVL21:
 503              		.loc 1 293 3 view .LVU108
 504 000a 5C68     		ldr	r4, [r3, #4]
 505 000c 1346     		mov	r3, r2
 506 000e 0A46     		mov	r2, r1
 507              	.LVL22:
 508              		.loc 1 293 3 view .LVU109
 509 0010 0146     		mov	r1, r0
 510              	.LVL23:
 511              		.loc 1 293 3 view .LVU110
 512 0012 0348     		ldr	r0, .L32+4
 513              	.LVL24:
 514              		.loc 1 293 3 view .LVU111
 515 0014 0069     		ldr	r0, [r0, #16]
 516 0016 A047     		blx	r4
 517              	.LVL25:
 294:STM32Cube_FW_N6/Utilities/lcd/stm32_lcd.c **** }
 518              		.loc 1 294 1 view .LVU112
 519 0018 02B0     		add	sp, sp, #8
 520              		.cfi_def_cfa_offset 8
 521              		@ sp needed
 522 001a 10BD     		pop	{r4, pc}
 523              	.LVL26:
 524              	.L33:
 525              		.loc 1 294 1 view .LVU113
 526              		.align	2
 527              	.L32:
 528 001c 00000000 		.word	FuncDriver
 529 0020 00000000 		.word	DrawProp
 530              		.cfi_endproc
 531              	.LFE9:
 533              		.section	.text.UTIL_LCD_DrawHLine,"ax",%progbits
 534              		.align	1
 535              		.global	UTIL_LCD_DrawHLine
ARM GAS  C:\Users\DJESSOU\AppData\Local\Temp\ccR55SEh.s 			page 16


 536              		.syntax unified
 537              		.thumb
 538              		.thumb_func
 540              	UTIL_LCD_DrawHLine:
 541              	.LVL27:
 542              	.LFB10:
 295:STM32Cube_FW_N6/Utilities/lcd/stm32_lcd.c **** 
 296:STM32Cube_FW_N6/Utilities/lcd/stm32_lcd.c **** /**
 297:STM32Cube_FW_N6/Utilities/lcd/stm32_lcd.c ****   * @brief  Draws an horizontal line in currently active layer.
 298:STM32Cube_FW_N6/Utilities/lcd/stm32_lcd.c ****   * @param  Xpos    X position
 299:STM32Cube_FW_N6/Utilities/lcd/stm32_lcd.c ****   * @param  Ypos    Y position
 300:STM32Cube_FW_N6/Utilities/lcd/stm32_lcd.c ****   * @param  Length  Line length
 301:STM32Cube_FW_N6/Utilities/lcd/stm32_lcd.c ****   * @param  Color   Draw color
 302:STM32Cube_FW_N6/Utilities/lcd/stm32_lcd.c ****   */
 303:STM32Cube_FW_N6/Utilities/lcd/stm32_lcd.c **** void UTIL_LCD_DrawHLine(uint32_t Xpos, uint32_t Ypos, uint32_t Length, uint32_t Color)
 304:STM32Cube_FW_N6/Utilities/lcd/stm32_lcd.c **** {
 543              		.loc 1 304 1 is_stmt 1 view -0
 544              		.cfi_startproc
 545              		@ args = 0, pretend = 0, frame = 0
 546              		@ frame_needed = 0, uses_anonymous_args = 0
 305:STM32Cube_FW_N6/Utilities/lcd/stm32_lcd.c ****   /* Write line */
 306:STM32Cube_FW_N6/Utilities/lcd/stm32_lcd.c ****   if(DrawProp[DrawProp->LcdLayer].LcdPixelFormat == LCD_PIXEL_FORMAT_RGB565)
 547              		.loc 1 306 3 view .LVU115
 304:STM32Cube_FW_N6/Utilities/lcd/stm32_lcd.c ****   /* Write line */
 548              		.loc 1 304 1 is_stmt 0 view .LVU116
 549 0000 F7B5     		push	{r0, r1, r2, r4, r5, r6, r7, lr}
 550              		.cfi_def_cfa_offset 32
 551              		.cfi_offset 4, -20
 552              		.cfi_offset 5, -16
 553              		.cfi_offset 6, -12
 554              		.cfi_offset 7, -8
 555              		.cfi_offset 14, -4
 304:STM32Cube_FW_N6/Utilities/lcd/stm32_lcd.c ****   /* Write line */
 556              		.loc 1 304 1 view .LVU117
 557 0002 0646     		mov	r6, r0
 558              		.loc 1 306 34 view .LVU118
 559 0004 1748     		ldr	r0, .L41
 560              	.LVL28:
 307:STM32Cube_FW_N6/Utilities/lcd/stm32_lcd.c ****   {
 308:STM32Cube_FW_N6/Utilities/lcd/stm32_lcd.c ****     FuncDriver.DrawHLine(DrawProp->LcdDevice, Xpos, Ypos, Length, CONVERTARGB88882RGB565(Color));
 561              		.loc 1 308 15 view .LVU119
 562 0006 184D     		ldr	r5, .L41+4
 306:STM32Cube_FW_N6/Utilities/lcd/stm32_lcd.c ****   {
 563              		.loc 1 306 34 view .LVU120
 564 0008 C468     		ldr	r4, [r0, #12]
 565              		.loc 1 308 15 view .LVU121
 566 000a AD68     		ldr	r5, [r5, #8]
 306:STM32Cube_FW_N6/Utilities/lcd/stm32_lcd.c ****   {
 567              		.loc 1 306 34 view .LVU122
 568 000c 00EB4414 		add	r4, r0, r4, lsl #5
 569 0010 E469     		ldr	r4, [r4, #28]
 570              		.loc 1 308 5 view .LVU123
 571 0012 0069     		ldr	r0, [r0, #16]
 306:STM32Cube_FW_N6/Utilities/lcd/stm32_lcd.c ****   {
 572              		.loc 1 306 5 view .LVU124
 573 0014 022C     		cmp	r4, #2
 574 0016 10D1     		bne	.L35
ARM GAS  C:\Users\DJESSOU\AppData\Local\Temp\ccR55SEh.s 			page 17


 575              		.loc 1 308 5 is_stmt 1 view .LVU125
 576              		.loc 1 308 67 is_stmt 0 view .LVU126
 577 0018 5C09     		lsrs	r4, r3, #5
 578 001a 1F0A     		lsrs	r7, r3, #8
 579 001c 04F4FC64 		and	r4, r4, #2016
 580 0020 07F47847 		and	r7, r7, #63488
 581              		.loc 1 308 5 view .LVU127
 582 0024 3C43     		orrs	r4, r4, r7
 583              		.loc 1 308 67 view .LVU128
 584 0026 C3F3C403 		ubfx	r3, r3, #3, #5
 585              	.LVL29:
 586              	.L40:
 309:STM32Cube_FW_N6/Utilities/lcd/stm32_lcd.c ****   }
 310:STM32Cube_FW_N6/Utilities/lcd/stm32_lcd.c ****   else if(DrawProp[DrawProp->LcdLayer].LcdPixelFormat == LCD_PIXEL_FORMAT_RGB888)
 311:STM32Cube_FW_N6/Utilities/lcd/stm32_lcd.c ****   {
 312:STM32Cube_FW_N6/Utilities/lcd/stm32_lcd.c ****     FuncDriver.DrawHLine(DrawProp->LcdDevice, Xpos, Ypos, Length, CONVERTARGB88882RGB888(Color));
 313:STM32Cube_FW_N6/Utilities/lcd/stm32_lcd.c ****   }
 314:STM32Cube_FW_N6/Utilities/lcd/stm32_lcd.c ****   else if(DrawProp[DrawProp->LcdLayer].LcdPixelFormat == LCD_PIXEL_FORMAT_ARGB4444)
 315:STM32Cube_FW_N6/Utilities/lcd/stm32_lcd.c ****   {
 316:STM32Cube_FW_N6/Utilities/lcd/stm32_lcd.c ****     FuncDriver.DrawHLine(DrawProp->LcdDevice, Xpos, Ypos, Length, CONVERTARGB88882ARGB4444(Color));
 587              		.loc 1 316 5 view .LVU129
 588 002a 1C43     		orrs	r4, r4, r3
 589 002c 0094     		str	r4, [sp]
 590              	.L39:
 317:STM32Cube_FW_N6/Utilities/lcd/stm32_lcd.c ****   }
 318:STM32Cube_FW_N6/Utilities/lcd/stm32_lcd.c ****   else /*LCD_PIXEL_FORMAT_ARGB8888*/
 319:STM32Cube_FW_N6/Utilities/lcd/stm32_lcd.c ****   {
 320:STM32Cube_FW_N6/Utilities/lcd/stm32_lcd.c ****     FuncDriver.DrawHLine(DrawProp->LcdDevice, Xpos, Ypos, Length, Color);
 591              		.loc 1 320 5 view .LVU130
 592 002e 1346     		mov	r3, r2
 593 0030 0A46     		mov	r2, r1
 594              	.LVL30:
 595              		.loc 1 320 5 view .LVU131
 596 0032 3146     		mov	r1, r6
 597              	.LVL31:
 598              		.loc 1 320 5 view .LVU132
 599 0034 A847     		blx	r5
 600              	.LVL32:
 321:STM32Cube_FW_N6/Utilities/lcd/stm32_lcd.c ****   }
 322:STM32Cube_FW_N6/Utilities/lcd/stm32_lcd.c **** }
 601              		.loc 1 322 1 view .LVU133
 602 0036 03B0     		add	sp, sp, #12
 603              		.cfi_remember_state
 604              		.cfi_def_cfa_offset 20
 605              		@ sp needed
 606 0038 F0BD     		pop	{r4, r5, r6, r7, pc}
 607              	.LVL33:
 608              	.L35:
 609              		.cfi_restore_state
 310:STM32Cube_FW_N6/Utilities/lcd/stm32_lcd.c ****   {
 610              		.loc 1 310 8 is_stmt 1 view .LVU134
 310:STM32Cube_FW_N6/Utilities/lcd/stm32_lcd.c ****   {
 611              		.loc 1 310 10 is_stmt 0 view .LVU135
 612 003a 012C     		cmp	r4, #1
 613 003c 03D1     		bne	.L37
 312:STM32Cube_FW_N6/Utilities/lcd/stm32_lcd.c ****   }
 614              		.loc 1 312 5 is_stmt 1 view .LVU136
ARM GAS  C:\Users\DJESSOU\AppData\Local\Temp\ccR55SEh.s 			page 18


 615 003e 23F07F43 		bic	r3, r3, #-16777216
 616              	.LVL34:
 617              	.L38:
 320:STM32Cube_FW_N6/Utilities/lcd/stm32_lcd.c ****   }
 618              		.loc 1 320 5 view .LVU137
 619 0042 0093     		str	r3, [sp]
 620 0044 F3E7     		b	.L39
 621              	.LVL35:
 622              	.L37:
 314:STM32Cube_FW_N6/Utilities/lcd/stm32_lcd.c ****   {
 623              		.loc 1 314 8 view .LVU138
 314:STM32Cube_FW_N6/Utilities/lcd/stm32_lcd.c ****   {
 624              		.loc 1 314 10 is_stmt 0 view .LVU139
 625 0046 042C     		cmp	r4, #4
 626 0048 FBD1     		bne	.L38
 316:STM32Cube_FW_N6/Utilities/lcd/stm32_lcd.c ****   }
 627              		.loc 1 316 5 is_stmt 1 view .LVU140
 316:STM32Cube_FW_N6/Utilities/lcd/stm32_lcd.c ****   }
 628              		.loc 1 316 67 is_stmt 0 view .LVU141
 629 004a 1F0F     		lsrs	r7, r3, #28
 630 004c C3F30314 		ubfx	r4, r3, #4, #4
 316:STM32Cube_FW_N6/Utilities/lcd/stm32_lcd.c ****   }
 631              		.loc 1 316 5 view .LVU142
 632 0050 44EA0734 		orr	r4, r4, r7, lsl #12
 316:STM32Cube_FW_N6/Utilities/lcd/stm32_lcd.c ****   }
 633              		.loc 1 316 67 view .LVU143
 634 0054 1F0A     		lsrs	r7, r3, #8
 635 0056 07F0F007 		and	r7, r7, #240
 636 005a 1B0B     		lsrs	r3, r3, #12
 637              	.LVL36:
 316:STM32Cube_FW_N6/Utilities/lcd/stm32_lcd.c ****   }
 638              		.loc 1 316 5 view .LVU144
 639 005c 3C43     		orrs	r4, r4, r7
 316:STM32Cube_FW_N6/Utilities/lcd/stm32_lcd.c ****   }
 640              		.loc 1 316 67 view .LVU145
 641 005e 03F47063 		and	r3, r3, #3840
 642 0062 E2E7     		b	.L40
 643              	.L42:
 644              		.align	2
 645              	.L41:
 646 0064 00000000 		.word	DrawProp
 647 0068 00000000 		.word	FuncDriver
 648              		.cfi_endproc
 649              	.LFE10:
 651              		.section	.text.UTIL_LCD_DrawVLine,"ax",%progbits
 652              		.align	1
 653              		.global	UTIL_LCD_DrawVLine
 654              		.syntax unified
 655              		.thumb
 656              		.thumb_func
 658              	UTIL_LCD_DrawVLine:
 659              	.LVL37:
 660              	.LFB11:
 323:STM32Cube_FW_N6/Utilities/lcd/stm32_lcd.c **** 
 324:STM32Cube_FW_N6/Utilities/lcd/stm32_lcd.c **** /**
 325:STM32Cube_FW_N6/Utilities/lcd/stm32_lcd.c ****   * @brief  Draws a vertical line in currently active layer.
 326:STM32Cube_FW_N6/Utilities/lcd/stm32_lcd.c ****   * @param  Xpos    X position
ARM GAS  C:\Users\DJESSOU\AppData\Local\Temp\ccR55SEh.s 			page 19


 327:STM32Cube_FW_N6/Utilities/lcd/stm32_lcd.c ****   * @param  Ypos    Y position
 328:STM32Cube_FW_N6/Utilities/lcd/stm32_lcd.c ****   * @param  Length  Line length
 329:STM32Cube_FW_N6/Utilities/lcd/stm32_lcd.c ****   * @param  Color   Draw color
 330:STM32Cube_FW_N6/Utilities/lcd/stm32_lcd.c ****   */
 331:STM32Cube_FW_N6/Utilities/lcd/stm32_lcd.c **** void UTIL_LCD_DrawVLine(uint32_t Xpos, uint32_t Ypos, uint32_t Length, uint32_t Color)
 332:STM32Cube_FW_N6/Utilities/lcd/stm32_lcd.c **** {
 661              		.loc 1 332 1 is_stmt 1 view -0
 662              		.cfi_startproc
 663              		@ args = 0, pretend = 0, frame = 0
 664              		@ frame_needed = 0, uses_anonymous_args = 0
 333:STM32Cube_FW_N6/Utilities/lcd/stm32_lcd.c ****   /* Write line */
 334:STM32Cube_FW_N6/Utilities/lcd/stm32_lcd.c ****   if(DrawProp[DrawProp->LcdLayer].LcdPixelFormat == LCD_PIXEL_FORMAT_RGB565)
 665              		.loc 1 334 3 view .LVU147
 332:STM32Cube_FW_N6/Utilities/lcd/stm32_lcd.c ****   /* Write line */
 666              		.loc 1 332 1 is_stmt 0 view .LVU148
 667 0000 F7B5     		push	{r0, r1, r2, r4, r5, r6, r7, lr}
 668              		.cfi_def_cfa_offset 32
 669              		.cfi_offset 4, -20
 670              		.cfi_offset 5, -16
 671              		.cfi_offset 6, -12
 672              		.cfi_offset 7, -8
 673              		.cfi_offset 14, -4
 332:STM32Cube_FW_N6/Utilities/lcd/stm32_lcd.c ****   /* Write line */
 674              		.loc 1 332 1 view .LVU149
 675 0002 0646     		mov	r6, r0
 676              		.loc 1 334 34 view .LVU150
 677 0004 1748     		ldr	r0, .L50
 678              	.LVL38:
 335:STM32Cube_FW_N6/Utilities/lcd/stm32_lcd.c ****   {
 336:STM32Cube_FW_N6/Utilities/lcd/stm32_lcd.c ****     FuncDriver.DrawVLine(DrawProp->LcdDevice, Xpos, Ypos, Length, CONVERTARGB88882RGB565(Color));
 679              		.loc 1 336 15 view .LVU151
 680 0006 184D     		ldr	r5, .L50+4
 334:STM32Cube_FW_N6/Utilities/lcd/stm32_lcd.c ****   {
 681              		.loc 1 334 34 view .LVU152
 682 0008 C468     		ldr	r4, [r0, #12]
 683              		.loc 1 336 15 view .LVU153
 684 000a ED68     		ldr	r5, [r5, #12]
 334:STM32Cube_FW_N6/Utilities/lcd/stm32_lcd.c ****   {
 685              		.loc 1 334 34 view .LVU154
 686 000c 00EB4414 		add	r4, r0, r4, lsl #5
 687 0010 E469     		ldr	r4, [r4, #28]
 688              		.loc 1 336 5 view .LVU155
 689 0012 0069     		ldr	r0, [r0, #16]
 334:STM32Cube_FW_N6/Utilities/lcd/stm32_lcd.c ****   {
 690              		.loc 1 334 5 view .LVU156
 691 0014 022C     		cmp	r4, #2
 692 0016 10D1     		bne	.L44
 693              		.loc 1 336 5 is_stmt 1 view .LVU157
 694              		.loc 1 336 67 is_stmt 0 view .LVU158
 695 0018 5C09     		lsrs	r4, r3, #5
 696 001a 1F0A     		lsrs	r7, r3, #8
 697 001c 04F4FC64 		and	r4, r4, #2016
 698 0020 07F47847 		and	r7, r7, #63488
 699              		.loc 1 336 5 view .LVU159
 700 0024 3C43     		orrs	r4, r4, r7
 701              		.loc 1 336 67 view .LVU160
 702 0026 C3F3C403 		ubfx	r3, r3, #3, #5
ARM GAS  C:\Users\DJESSOU\AppData\Local\Temp\ccR55SEh.s 			page 20


 703              	.LVL39:
 704              	.L49:
 337:STM32Cube_FW_N6/Utilities/lcd/stm32_lcd.c ****   }
 338:STM32Cube_FW_N6/Utilities/lcd/stm32_lcd.c ****   else if(DrawProp[DrawProp->LcdLayer].LcdPixelFormat == LCD_PIXEL_FORMAT_RGB888)
 339:STM32Cube_FW_N6/Utilities/lcd/stm32_lcd.c ****   {
 340:STM32Cube_FW_N6/Utilities/lcd/stm32_lcd.c ****     FuncDriver.DrawVLine(DrawProp->LcdDevice, Xpos, Ypos, Length, CONVERTARGB88882RGB888(Color));
 341:STM32Cube_FW_N6/Utilities/lcd/stm32_lcd.c ****   }
 342:STM32Cube_FW_N6/Utilities/lcd/stm32_lcd.c ****   else if(DrawProp[DrawProp->LcdLayer].LcdPixelFormat == LCD_PIXEL_FORMAT_ARGB4444)
 343:STM32Cube_FW_N6/Utilities/lcd/stm32_lcd.c ****   {
 344:STM32Cube_FW_N6/Utilities/lcd/stm32_lcd.c ****     FuncDriver.DrawVLine(DrawProp->LcdDevice, Xpos, Ypos, Length, CONVERTARGB88882ARGB4444(Color));
 705              		.loc 1 344 5 view .LVU161
 706 002a 1C43     		orrs	r4, r4, r3
 707 002c 0094     		str	r4, [sp]
 708              	.L48:
 345:STM32Cube_FW_N6/Utilities/lcd/stm32_lcd.c ****   }
 346:STM32Cube_FW_N6/Utilities/lcd/stm32_lcd.c ****   else /*LCD_PIXEL_FORMAT_ARGB888*/
 347:STM32Cube_FW_N6/Utilities/lcd/stm32_lcd.c ****   {
 348:STM32Cube_FW_N6/Utilities/lcd/stm32_lcd.c ****     FuncDriver.DrawVLine(DrawProp->LcdDevice, Xpos, Ypos, Length, Color);
 709              		.loc 1 348 5 view .LVU162
 710 002e 1346     		mov	r3, r2
 711 0030 0A46     		mov	r2, r1
 712              	.LVL40:
 713              		.loc 1 348 5 view .LVU163
 714 0032 3146     		mov	r1, r6
 715              	.LVL41:
 716              		.loc 1 348 5 view .LVU164
 717 0034 A847     		blx	r5
 718              	.LVL42:
 349:STM32Cube_FW_N6/Utilities/lcd/stm32_lcd.c ****   }
 350:STM32Cube_FW_N6/Utilities/lcd/stm32_lcd.c **** }
 719              		.loc 1 350 1 view .LVU165
 720 0036 03B0     		add	sp, sp, #12
 721              		.cfi_remember_state
 722              		.cfi_def_cfa_offset 20
 723              		@ sp needed
 724 0038 F0BD     		pop	{r4, r5, r6, r7, pc}
 725              	.LVL43:
 726              	.L44:
 727              		.cfi_restore_state
 338:STM32Cube_FW_N6/Utilities/lcd/stm32_lcd.c ****   {
 728              		.loc 1 338 8 is_stmt 1 view .LVU166
 338:STM32Cube_FW_N6/Utilities/lcd/stm32_lcd.c ****   {
 729              		.loc 1 338 10 is_stmt 0 view .LVU167
 730 003a 012C     		cmp	r4, #1
 731 003c 03D1     		bne	.L46
 340:STM32Cube_FW_N6/Utilities/lcd/stm32_lcd.c ****   }
 732              		.loc 1 340 5 is_stmt 1 view .LVU168
 733 003e 23F07F43 		bic	r3, r3, #-16777216
 734              	.LVL44:
 735              	.L47:
 348:STM32Cube_FW_N6/Utilities/lcd/stm32_lcd.c ****   }
 736              		.loc 1 348 5 view .LVU169
 737 0042 0093     		str	r3, [sp]
 738 0044 F3E7     		b	.L48
 739              	.LVL45:
 740              	.L46:
 342:STM32Cube_FW_N6/Utilities/lcd/stm32_lcd.c ****   {
ARM GAS  C:\Users\DJESSOU\AppData\Local\Temp\ccR55SEh.s 			page 21


 741              		.loc 1 342 8 view .LVU170
 342:STM32Cube_FW_N6/Utilities/lcd/stm32_lcd.c ****   {
 742              		.loc 1 342 10 is_stmt 0 view .LVU171
 743 0046 042C     		cmp	r4, #4
 744 0048 FBD1     		bne	.L47
 344:STM32Cube_FW_N6/Utilities/lcd/stm32_lcd.c ****   }
 745              		.loc 1 344 5 is_stmt 1 view .LVU172
 344:STM32Cube_FW_N6/Utilities/lcd/stm32_lcd.c ****   }
 746              		.loc 1 344 67 is_stmt 0 view .LVU173
 747 004a 1F0F     		lsrs	r7, r3, #28
 748 004c C3F30314 		ubfx	r4, r3, #4, #4
 344:STM32Cube_FW_N6/Utilities/lcd/stm32_lcd.c ****   }
 749              		.loc 1 344 5 view .LVU174
 750 0050 44EA0734 		orr	r4, r4, r7, lsl #12
 344:STM32Cube_FW_N6/Utilities/lcd/stm32_lcd.c ****   }
 751              		.loc 1 344 67 view .LVU175
 752 0054 1F0A     		lsrs	r7, r3, #8
 753 0056 07F0F007 		and	r7, r7, #240
 754 005a 1B0B     		lsrs	r3, r3, #12
 755              	.LVL46:
 344:STM32Cube_FW_N6/Utilities/lcd/stm32_lcd.c ****   }
 756              		.loc 1 344 5 view .LVU176
 757 005c 3C43     		orrs	r4, r4, r7
 344:STM32Cube_FW_N6/Utilities/lcd/stm32_lcd.c ****   }
 758              		.loc 1 344 67 view .LVU177
 759 005e 03F47063 		and	r3, r3, #3840
 760 0062 E2E7     		b	.L49
 761              	.L51:
 762              		.align	2
 763              	.L50:
 764 0064 00000000 		.word	DrawProp
 765 0068 00000000 		.word	FuncDriver
 766              		.cfi_endproc
 767              	.LFE11:
 769              		.section	.text.UTIL_LCD_GetPixel,"ax",%progbits
 770              		.align	1
 771              		.global	UTIL_LCD_GetPixel
 772              		.syntax unified
 773              		.thumb
 774              		.thumb_func
 776              	UTIL_LCD_GetPixel:
 777              	.LVL47:
 778              	.LFB12:
 351:STM32Cube_FW_N6/Utilities/lcd/stm32_lcd.c **** 
 352:STM32Cube_FW_N6/Utilities/lcd/stm32_lcd.c **** /**
 353:STM32Cube_FW_N6/Utilities/lcd/stm32_lcd.c ****   * @brief  Read an LCD pixel.
 354:STM32Cube_FW_N6/Utilities/lcd/stm32_lcd.c ****   * @param  Xpos     X position
 355:STM32Cube_FW_N6/Utilities/lcd/stm32_lcd.c ****   * @param  Ypos     Y position
 356:STM32Cube_FW_N6/Utilities/lcd/stm32_lcd.c ****   * @retval Color    pixel color
 357:STM32Cube_FW_N6/Utilities/lcd/stm32_lcd.c ****   */
 358:STM32Cube_FW_N6/Utilities/lcd/stm32_lcd.c **** void UTIL_LCD_GetPixel(uint16_t Xpos, uint16_t Ypos, uint32_t *Color)
 359:STM32Cube_FW_N6/Utilities/lcd/stm32_lcd.c **** {
 779              		.loc 1 359 1 is_stmt 1 view -0
 780              		.cfi_startproc
 781              		@ args = 0, pretend = 0, frame = 0
 782              		@ frame_needed = 0, uses_anonymous_args = 0
 360:STM32Cube_FW_N6/Utilities/lcd/stm32_lcd.c ****   /* Get Pixel */
ARM GAS  C:\Users\DJESSOU\AppData\Local\Temp\ccR55SEh.s 			page 22


 361:STM32Cube_FW_N6/Utilities/lcd/stm32_lcd.c ****   FuncDriver.GetPixel(DrawProp->LcdDevice, Xpos, Ypos, Color);
 783              		.loc 1 361 3 view .LVU179
 359:STM32Cube_FW_N6/Utilities/lcd/stm32_lcd.c ****   /* Get Pixel */
 784              		.loc 1 359 1 is_stmt 0 view .LVU180
 785 0000 70B5     		push	{r4, r5, r6, lr}
 786              		.cfi_def_cfa_offset 16
 787              		.cfi_offset 4, -16
 788              		.cfi_offset 5, -12
 789              		.cfi_offset 6, -8
 790              		.cfi_offset 14, -4
 791              		.loc 1 361 13 view .LVU181
 792 0002 264B     		ldr	r3, .L57
 793              		.loc 1 361 3 view .LVU182
 794 0004 264D     		ldr	r5, .L57+4
 795 0006 5E69     		ldr	r6, [r3, #20]
 359:STM32Cube_FW_N6/Utilities/lcd/stm32_lcd.c ****   /* Get Pixel */
 796              		.loc 1 359 1 view .LVU183
 797 0008 1446     		mov	r4, r2
 798              		.loc 1 361 3 view .LVU184
 799 000a 1346     		mov	r3, r2
 800 000c 0A46     		mov	r2, r1
 801              	.LVL48:
 802              		.loc 1 361 3 view .LVU185
 803 000e 0146     		mov	r1, r0
 804              	.LVL49:
 805              		.loc 1 361 3 view .LVU186
 806 0010 2869     		ldr	r0, [r5, #16]
 807              	.LVL50:
 808              		.loc 1 361 3 view .LVU187
 809 0012 B047     		blx	r6
 810              	.LVL51:
 362:STM32Cube_FW_N6/Utilities/lcd/stm32_lcd.c ****   if(DrawProp[DrawProp->LcdLayer].LcdPixelFormat == LCD_PIXEL_FORMAT_RGB565)
 811              		.loc 1 362 3 is_stmt 1 view .LVU188
 812              		.loc 1 362 34 is_stmt 0 view .LVU189
 813 0014 EB68     		ldr	r3, [r5, #12]
 814 0016 05EB4315 		add	r5, r5, r3, lsl #5
 815 001a EB69     		ldr	r3, [r5, #28]
 816              		.loc 1 362 5 view .LVU190
 817 001c 022B     		cmp	r3, #2
 818 001e 1BD1     		bne	.L53
 363:STM32Cube_FW_N6/Utilities/lcd/stm32_lcd.c ****   {
 364:STM32Cube_FW_N6/Utilities/lcd/stm32_lcd.c ****     *Color = CONVERTRGB5652ARGB8888(*Color);
 819              		.loc 1 364 5 is_stmt 1 view .LVU191
 820              		.loc 1 364 14 is_stmt 0 view .LVU192
 821 0020 40F20315 		movw	r5, #259
 822 0024 40F20F20 		movw	r0, #527
 823 0028 2368     		ldr	r3, [r4]
 824 002a C3F34511 		ubfx	r1, r3, #5, #6
 825 002e C3F3C422 		ubfx	r2, r3, #11, #5
 826 0032 6943     		muls	r1, r5, r1
 827 0034 4243     		muls	r2, r0, r2
 828 0036 03F01F03 		and	r3, r3, #31
 829 003a 4343     		muls	r3, r0, r3
 830 003c 2131     		adds	r1, r1, #33
 831 003e 1732     		adds	r2, r2, #23
 832 0040 8909     		lsrs	r1, r1, #6
 833 0042 9209     		lsrs	r2, r2, #6
ARM GAS  C:\Users\DJESSOU\AppData\Local\Temp\ccR55SEh.s 			page 23


 834 0044 0902     		lsls	r1, r1, #8
 835 0046 41EA0241 		orr	r1, r1, r2, lsl #16
 836 004a 1733     		adds	r3, r3, #23
 837 004c 41EA9311 		orr	r1, r1, r3, lsr #6
 838 0050 41F07F41 		orr	r1, r1, #-16777216
 839              		.loc 1 364 12 view .LVU193
 840 0054 2160     		str	r1, [r4]
 841              	.L52:
 365:STM32Cube_FW_N6/Utilities/lcd/stm32_lcd.c ****   }
 366:STM32Cube_FW_N6/Utilities/lcd/stm32_lcd.c ****   else if(DrawProp[DrawProp->LcdLayer].LcdPixelFormat == LCD_PIXEL_FORMAT_RGB888)
 367:STM32Cube_FW_N6/Utilities/lcd/stm32_lcd.c ****   {
 368:STM32Cube_FW_N6/Utilities/lcd/stm32_lcd.c ****     *Color = CONVERTRGB8882ARGB8888(*Color);
 369:STM32Cube_FW_N6/Utilities/lcd/stm32_lcd.c ****   }
 370:STM32Cube_FW_N6/Utilities/lcd/stm32_lcd.c ****   else if(DrawProp[DrawProp->LcdLayer].LcdPixelFormat == LCD_PIXEL_FORMAT_ARGB4444)
 371:STM32Cube_FW_N6/Utilities/lcd/stm32_lcd.c ****   {
 372:STM32Cube_FW_N6/Utilities/lcd/stm32_lcd.c ****     *Color = CONVERTARGB44442ARGB8888(*Color);
 373:STM32Cube_FW_N6/Utilities/lcd/stm32_lcd.c ****   }
 374:STM32Cube_FW_N6/Utilities/lcd/stm32_lcd.c **** }
 842              		.loc 1 374 1 view .LVU194
 843 0056 70BD     		pop	{r4, r5, r6, pc}
 844              	.LVL52:
 845              	.L53:
 366:STM32Cube_FW_N6/Utilities/lcd/stm32_lcd.c ****   {
 846              		.loc 1 366 8 is_stmt 1 view .LVU195
 366:STM32Cube_FW_N6/Utilities/lcd/stm32_lcd.c ****   {
 847              		.loc 1 366 10 is_stmt 0 view .LVU196
 848 0058 012B     		cmp	r3, #1
 849 005a 04D1     		bne	.L55
 368:STM32Cube_FW_N6/Utilities/lcd/stm32_lcd.c ****   }
 850              		.loc 1 368 5 is_stmt 1 view .LVU197
 368:STM32Cube_FW_N6/Utilities/lcd/stm32_lcd.c ****   }
 851              		.loc 1 368 14 is_stmt 0 view .LVU198
 852 005c 2368     		ldr	r3, [r4]
 853 005e 43F07F43 		orr	r3, r3, #-16777216
 854              	.L56:
 372:STM32Cube_FW_N6/Utilities/lcd/stm32_lcd.c ****   }
 855              		.loc 1 372 12 view .LVU199
 856 0062 2360     		str	r3, [r4]
 857              		.loc 1 374 1 view .LVU200
 858 0064 F7E7     		b	.L52
 859              	.L55:
 370:STM32Cube_FW_N6/Utilities/lcd/stm32_lcd.c ****   {
 860              		.loc 1 370 8 is_stmt 1 view .LVU201
 370:STM32Cube_FW_N6/Utilities/lcd/stm32_lcd.c ****   {
 861              		.loc 1 370 10 is_stmt 0 view .LVU202
 862 0066 042B     		cmp	r3, #4
 863 0068 F5D1     		bne	.L52
 372:STM32Cube_FW_N6/Utilities/lcd/stm32_lcd.c ****   }
 864              		.loc 1 372 5 is_stmt 1 view .LVU203
 372:STM32Cube_FW_N6/Utilities/lcd/stm32_lcd.c ****   }
 865              		.loc 1 372 14 is_stmt 0 view .LVU204
 866 006a 2268     		ldr	r2, [r4]
 867 006c C2F30333 		ubfx	r3, r2, #12, #4
 868 0070 03EB0311 		add	r1, r3, r3, lsl #4
 869 0074 C2F30323 		ubfx	r3, r2, #8, #4
 870 0078 03EB0313 		add	r3, r3, r3, lsl #4
 871 007c 1B04     		lsls	r3, r3, #16
ARM GAS  C:\Users\DJESSOU\AppData\Local\Temp\ccR55SEh.s 			page 24


 872 007e 43EA0163 		orr	r3, r3, r1, lsl #24
 873 0082 02F00F01 		and	r1, r2, #15
 874 0086 01EB0111 		add	r1, r1, r1, lsl #4
 875 008a 0B43     		orrs	r3, r3, r1
 876 008c C2F30311 		ubfx	r1, r2, #4, #4
 877 0090 02F0F002 		and	r2, r2, #240
 878 0094 0A44     		add	r2, r2, r1
 879 0096 43EA0223 		orr	r3, r3, r2, lsl #8
 880 009a E2E7     		b	.L56
 881              	.L58:
 882              		.align	2
 883              	.L57:
 884 009c 00000000 		.word	FuncDriver
 885 00a0 00000000 		.word	DrawProp
 886              		.cfi_endproc
 887              	.LFE12:
 889              		.section	.text.UTIL_LCD_SetPixel,"ax",%progbits
 890              		.align	1
 891              		.global	UTIL_LCD_SetPixel
 892              		.syntax unified
 893              		.thumb
 894              		.thumb_func
 896              	UTIL_LCD_SetPixel:
 897              	.LVL53:
 898              	.LFB13:
 375:STM32Cube_FW_N6/Utilities/lcd/stm32_lcd.c **** 
 376:STM32Cube_FW_N6/Utilities/lcd/stm32_lcd.c **** /**
 377:STM32Cube_FW_N6/Utilities/lcd/stm32_lcd.c ****   * @brief  Draws a pixel on LCD.
 378:STM32Cube_FW_N6/Utilities/lcd/stm32_lcd.c ****   * @param  Xpos     X position
 379:STM32Cube_FW_N6/Utilities/lcd/stm32_lcd.c ****   * @param  Ypos     Y position
 380:STM32Cube_FW_N6/Utilities/lcd/stm32_lcd.c ****   * @param  Color    Pixel color
 381:STM32Cube_FW_N6/Utilities/lcd/stm32_lcd.c ****   */
 382:STM32Cube_FW_N6/Utilities/lcd/stm32_lcd.c **** void UTIL_LCD_SetPixel(uint16_t Xpos, uint16_t Ypos, uint32_t Color)
 383:STM32Cube_FW_N6/Utilities/lcd/stm32_lcd.c **** {
 899              		.loc 1 383 1 is_stmt 1 view -0
 900              		.cfi_startproc
 901              		@ args = 0, pretend = 0, frame = 0
 902              		@ frame_needed = 0, uses_anonymous_args = 0
 903              		@ link register save eliminated.
 384:STM32Cube_FW_N6/Utilities/lcd/stm32_lcd.c ****   /* Set Pixel */
 385:STM32Cube_FW_N6/Utilities/lcd/stm32_lcd.c ****   if(DrawProp[DrawProp->LcdLayer].LcdPixelFormat == LCD_PIXEL_FORMAT_RGB565)
 904              		.loc 1 385 3 view .LVU206
 383:STM32Cube_FW_N6/Utilities/lcd/stm32_lcd.c ****   /* Set Pixel */
 905              		.loc 1 383 1 is_stmt 0 view .LVU207
 906 0000 70B4     		push	{r4, r5, r6}
 907              		.cfi_def_cfa_offset 12
 908              		.cfi_offset 4, -12
 909              		.cfi_offset 5, -8
 910              		.cfi_offset 6, -4
 383:STM32Cube_FW_N6/Utilities/lcd/stm32_lcd.c ****   /* Set Pixel */
 911              		.loc 1 383 1 view .LVU208
 912 0002 0646     		mov	r6, r0
 913              		.loc 1 385 34 view .LVU209
 914 0004 1648     		ldr	r0, .L64
 915              	.LVL54:
 383:STM32Cube_FW_N6/Utilities/lcd/stm32_lcd.c ****   /* Set Pixel */
 916              		.loc 1 383 1 view .LVU210
ARM GAS  C:\Users\DJESSOU\AppData\Local\Temp\ccR55SEh.s 			page 25


 917 0006 1346     		mov	r3, r2
 918              		.loc 1 385 34 view .LVU211
 919 0008 C268     		ldr	r2, [r0, #12]
 920              	.LVL55:
 386:STM32Cube_FW_N6/Utilities/lcd/stm32_lcd.c ****   {
 387:STM32Cube_FW_N6/Utilities/lcd/stm32_lcd.c ****     FuncDriver.SetPixel(DrawProp->LcdDevice, Xpos, Ypos, CONVERTARGB88882RGB565(Color));
 921              		.loc 1 387 15 view .LVU212
 922 000a 164C     		ldr	r4, .L64+4
 385:STM32Cube_FW_N6/Utilities/lcd/stm32_lcd.c ****   {
 923              		.loc 1 385 34 view .LVU213
 924 000c 00EB4212 		add	r2, r0, r2, lsl #5
 925 0010 D269     		ldr	r2, [r2, #28]
 926              		.loc 1 387 15 view .LVU214
 927 0012 A569     		ldr	r5, [r4, #24]
 385:STM32Cube_FW_N6/Utilities/lcd/stm32_lcd.c ****   {
 928              		.loc 1 385 5 view .LVU215
 929 0014 022A     		cmp	r2, #2
 930              		.loc 1 387 5 view .LVU216
 931 0016 0069     		ldr	r0, [r0, #16]
 385:STM32Cube_FW_N6/Utilities/lcd/stm32_lcd.c ****   {
 932              		.loc 1 385 5 view .LVU217
 933 0018 0AD1     		bne	.L60
 934              		.loc 1 387 5 is_stmt 1 view .LVU218
 935              		.loc 1 387 58 is_stmt 0 view .LVU219
 936 001a 5C09     		lsrs	r4, r3, #5
 937 001c 1A0A     		lsrs	r2, r3, #8
 938 001e 04F4FC64 		and	r4, r4, #2016
 939 0022 02F47842 		and	r2, r2, #63488
 940              		.loc 1 387 5 view .LVU220
 941 0026 1443     		orrs	r4, r4, r2
 942              		.loc 1 387 58 view .LVU221
 943 0028 C3F3C403 		ubfx	r3, r3, #3, #5
 944              	.LVL56:
 945              	.L63:
 388:STM32Cube_FW_N6/Utilities/lcd/stm32_lcd.c ****   }
 389:STM32Cube_FW_N6/Utilities/lcd/stm32_lcd.c ****   else if(DrawProp[DrawProp->LcdLayer].LcdPixelFormat == LCD_PIXEL_FORMAT_RGB888)
 390:STM32Cube_FW_N6/Utilities/lcd/stm32_lcd.c ****   {
 391:STM32Cube_FW_N6/Utilities/lcd/stm32_lcd.c ****     FuncDriver.SetPixel(DrawProp->LcdDevice, Xpos, Ypos, CONVERTARGB88882RGB888(Color));
 392:STM32Cube_FW_N6/Utilities/lcd/stm32_lcd.c ****   }
 393:STM32Cube_FW_N6/Utilities/lcd/stm32_lcd.c ****   else if(DrawProp[DrawProp->LcdLayer].LcdPixelFormat == LCD_PIXEL_FORMAT_ARGB4444)
 394:STM32Cube_FW_N6/Utilities/lcd/stm32_lcd.c ****   {
 395:STM32Cube_FW_N6/Utilities/lcd/stm32_lcd.c ****     FuncDriver.SetPixel(DrawProp->LcdDevice, Xpos, Ypos, CONVERTARGB88882ARGB4444(Color));
 946              		.loc 1 395 5 view .LVU222
 947 002c 2343     		orrs	r3, r3, r4
 948 002e 03E0     		b	.L62
 949              	.LVL57:
 950              	.L60:
 389:STM32Cube_FW_N6/Utilities/lcd/stm32_lcd.c ****   {
 951              		.loc 1 389 8 is_stmt 1 view .LVU223
 389:STM32Cube_FW_N6/Utilities/lcd/stm32_lcd.c ****   {
 952              		.loc 1 389 10 is_stmt 0 view .LVU224
 953 0030 012A     		cmp	r2, #1
 954 0032 06D1     		bne	.L61
 391:STM32Cube_FW_N6/Utilities/lcd/stm32_lcd.c ****   }
 955              		.loc 1 391 5 is_stmt 1 view .LVU225
 956 0034 23F07F43 		bic	r3, r3, #-16777216
 957              	.LVL58:
ARM GAS  C:\Users\DJESSOU\AppData\Local\Temp\ccR55SEh.s 			page 26


 958              	.L62:
 396:STM32Cube_FW_N6/Utilities/lcd/stm32_lcd.c ****   }
 397:STM32Cube_FW_N6/Utilities/lcd/stm32_lcd.c ****   else /*LCD_PIXEL_FORMAT_ARGB888*/
 398:STM32Cube_FW_N6/Utilities/lcd/stm32_lcd.c ****   {
 399:STM32Cube_FW_N6/Utilities/lcd/stm32_lcd.c ****     FuncDriver.SetPixel(DrawProp->LcdDevice, Xpos, Ypos, Color);
 959              		.loc 1 399 5 view .LVU226
 960 0038 0A46     		mov	r2, r1
 961 003a AC46     		mov	ip, r5
 962 003c 3146     		mov	r1, r6
 963              	.LVL59:
 400:STM32Cube_FW_N6/Utilities/lcd/stm32_lcd.c ****   }
 401:STM32Cube_FW_N6/Utilities/lcd/stm32_lcd.c **** }
 964              		.loc 1 401 1 is_stmt 0 view .LVU227
 965 003e 70BC     		pop	{r4, r5, r6}
 966              		.cfi_remember_state
 967              		.cfi_restore 6
 968              		.cfi_restore 5
 969              		.cfi_restore 4
 970              		.cfi_def_cfa_offset 0
 971              	.LVL60:
 399:STM32Cube_FW_N6/Utilities/lcd/stm32_lcd.c ****   }
 972              		.loc 1 399 5 view .LVU228
 973 0040 6047     		bx	ip
 974              	.LVL61:
 975              	.L61:
 976              		.cfi_restore_state
 393:STM32Cube_FW_N6/Utilities/lcd/stm32_lcd.c ****   {
 977              		.loc 1 393 8 is_stmt 1 view .LVU229
 393:STM32Cube_FW_N6/Utilities/lcd/stm32_lcd.c ****   {
 978              		.loc 1 393 10 is_stmt 0 view .LVU230
 979 0042 042A     		cmp	r2, #4
 980 0044 F8D1     		bne	.L62
 395:STM32Cube_FW_N6/Utilities/lcd/stm32_lcd.c ****   }
 981              		.loc 1 395 5 is_stmt 1 view .LVU231
 395:STM32Cube_FW_N6/Utilities/lcd/stm32_lcd.c ****   }
 982              		.loc 1 395 58 is_stmt 0 view .LVU232
 983 0046 1A0F     		lsrs	r2, r3, #28
 984 0048 C3F30314 		ubfx	r4, r3, #4, #4
 395:STM32Cube_FW_N6/Utilities/lcd/stm32_lcd.c ****   }
 985              		.loc 1 395 5 view .LVU233
 986 004c 44EA0234 		orr	r4, r4, r2, lsl #12
 395:STM32Cube_FW_N6/Utilities/lcd/stm32_lcd.c ****   }
 987              		.loc 1 395 58 view .LVU234
 988 0050 1A0A     		lsrs	r2, r3, #8
 989 0052 02F0F002 		and	r2, r2, #240
 990 0056 1B0B     		lsrs	r3, r3, #12
 991              	.LVL62:
 395:STM32Cube_FW_N6/Utilities/lcd/stm32_lcd.c ****   }
 992              		.loc 1 395 5 view .LVU235
 993 0058 1443     		orrs	r4, r4, r2
 395:STM32Cube_FW_N6/Utilities/lcd/stm32_lcd.c ****   }
 994              		.loc 1 395 58 view .LVU236
 995 005a 03F47063 		and	r3, r3, #3840
 996 005e E5E7     		b	.L63
 997              	.L65:
 998              		.align	2
 999              	.L64:
ARM GAS  C:\Users\DJESSOU\AppData\Local\Temp\ccR55SEh.s 			page 27


 1000 0060 00000000 		.word	DrawProp
 1001 0064 00000000 		.word	FuncDriver
 1002              		.cfi_endproc
 1003              	.LFE13:
 1005              		.section	.text.UTIL_LCD_DisplayChar,"ax",%progbits
 1006              		.align	1
 1007              		.global	UTIL_LCD_DisplayChar
 1008              		.syntax unified
 1009              		.thumb
 1010              		.thumb_func
 1012              	UTIL_LCD_DisplayChar:
 1013              	.LVL63:
 1014              	.LFB16:
 402:STM32Cube_FW_N6/Utilities/lcd/stm32_lcd.c **** 
 403:STM32Cube_FW_N6/Utilities/lcd/stm32_lcd.c **** /**
 404:STM32Cube_FW_N6/Utilities/lcd/stm32_lcd.c ****   * @brief  Clears the whole currently active layer of LTDC.
 405:STM32Cube_FW_N6/Utilities/lcd/stm32_lcd.c ****   * @param  Color  Color of the background
 406:STM32Cube_FW_N6/Utilities/lcd/stm32_lcd.c ****   */
 407:STM32Cube_FW_N6/Utilities/lcd/stm32_lcd.c **** void UTIL_LCD_Clear(uint32_t Color)
 408:STM32Cube_FW_N6/Utilities/lcd/stm32_lcd.c **** {
 409:STM32Cube_FW_N6/Utilities/lcd/stm32_lcd.c ****   /* Clear the LCD */
 410:STM32Cube_FW_N6/Utilities/lcd/stm32_lcd.c ****   UTIL_LCD_FillRect(0, 0, DrawProp[DrawProp->LcdLayer].LcdXsize, DrawProp[DrawProp->LcdLayer].LcdYs
 411:STM32Cube_FW_N6/Utilities/lcd/stm32_lcd.c **** }
 412:STM32Cube_FW_N6/Utilities/lcd/stm32_lcd.c **** 
 413:STM32Cube_FW_N6/Utilities/lcd/stm32_lcd.c **** /**
 414:STM32Cube_FW_N6/Utilities/lcd/stm32_lcd.c ****   * @brief  Clears the selected line in currently active layer.
 415:STM32Cube_FW_N6/Utilities/lcd/stm32_lcd.c ****   * @param  Line  Line to be cleared
 416:STM32Cube_FW_N6/Utilities/lcd/stm32_lcd.c ****   */
 417:STM32Cube_FW_N6/Utilities/lcd/stm32_lcd.c **** void UTIL_LCD_ClearStringLine(uint32_t Line)
 418:STM32Cube_FW_N6/Utilities/lcd/stm32_lcd.c **** {
 419:STM32Cube_FW_N6/Utilities/lcd/stm32_lcd.c ****   /* Draw rectangle with background color */
 420:STM32Cube_FW_N6/Utilities/lcd/stm32_lcd.c ****   UTIL_LCD_FillRect(0, (Line * DrawProp[DrawProp->LcdLayer].pFont->Height), DrawProp[DrawProp->LcdL
 421:STM32Cube_FW_N6/Utilities/lcd/stm32_lcd.c **** }
 422:STM32Cube_FW_N6/Utilities/lcd/stm32_lcd.c **** 
 423:STM32Cube_FW_N6/Utilities/lcd/stm32_lcd.c **** /**
 424:STM32Cube_FW_N6/Utilities/lcd/stm32_lcd.c ****   * @brief  Displays one character in currently active layer.
 425:STM32Cube_FW_N6/Utilities/lcd/stm32_lcd.c ****   * @param  Xpos Start column address
 426:STM32Cube_FW_N6/Utilities/lcd/stm32_lcd.c ****   * @param  Ypos Line where to display the character shape.
 427:STM32Cube_FW_N6/Utilities/lcd/stm32_lcd.c ****   * @param  Ascii Character ascii code
 428:STM32Cube_FW_N6/Utilities/lcd/stm32_lcd.c ****   *           This parameter must be a number between Min_Data = 0x20 and Max_Data = 0x7E
 429:STM32Cube_FW_N6/Utilities/lcd/stm32_lcd.c ****   */
 430:STM32Cube_FW_N6/Utilities/lcd/stm32_lcd.c **** void UTIL_LCD_DisplayChar(uint32_t Xpos, uint32_t Ypos, uint8_t Ascii)
 431:STM32Cube_FW_N6/Utilities/lcd/stm32_lcd.c **** {
 1015              		.loc 1 431 1 is_stmt 1 view -0
 1016              		.cfi_startproc
 1017              		@ args = 0, pretend = 0, frame = 128
 1018              		@ frame_needed = 0, uses_anonymous_args = 0
 432:STM32Cube_FW_N6/Utilities/lcd/stm32_lcd.c ****   DrawChar(Xpos, Ypos, &DrawProp[DrawProp->LcdLayer].pFont->table[(Ascii-' ') *\
 1019              		.loc 1 432 3 view .LVU238
 431:STM32Cube_FW_N6/Utilities/lcd/stm32_lcd.c ****   DrawChar(Xpos, Ypos, &DrawProp[DrawProp->LcdLayer].pFont->table[(Ascii-' ') *\
 1020              		.loc 1 431 1 is_stmt 0 view .LVU239
 1021 0000 2DE9F04F 		push	{r4, r5, r6, r7, r8, r9, r10, fp, lr}
 1022              		.cfi_def_cfa_offset 36
 1023              		.cfi_offset 4, -36
 1024              		.cfi_offset 5, -32
 1025              		.cfi_offset 6, -28
 1026              		.cfi_offset 7, -24
ARM GAS  C:\Users\DJESSOU\AppData\Local\Temp\ccR55SEh.s 			page 28


 1027              		.cfi_offset 8, -20
 1028              		.cfi_offset 9, -16
 1029              		.cfi_offset 10, -12
 1030              		.cfi_offset 11, -8
 1031              		.cfi_offset 14, -4
 1032              		.loc 1 432 53 view .LVU240
 1033 0004 DFF8E081 		ldr	r8, .L102
 431:STM32Cube_FW_N6/Utilities/lcd/stm32_lcd.c ****   DrawChar(Xpos, Ypos, &DrawProp[DrawProp->LcdLayer].pFont->table[(Ascii-' ') *\
 1034              		.loc 1 431 1 view .LVU241
 1035 0008 A3B0     		sub	sp, sp, #140
 1036              		.cfi_def_cfa_offset 176
 1037              		.loc 1 432 53 view .LVU242
 1038 000a D8F80C30 		ldr	r3, [r8, #12]
 431:STM32Cube_FW_N6/Utilities/lcd/stm32_lcd.c ****   DrawChar(Xpos, Ypos, &DrawProp[DrawProp->LcdLayer].pFont->table[(Ascii-' ') *\
 1039              		.loc 1 431 1 view .LVU243
 1040 000e 0891     		str	r1, [sp, #32]
 1041              		.loc 1 432 53 view .LVU244
 1042 0010 08EB4313 		add	r3, r8, r3, lsl #5
 1043 0014 9968     		ldr	r1, [r3, #8]
 1044              	.LVL64:
 431:STM32Cube_FW_N6/Utilities/lcd/stm32_lcd.c ****   DrawChar(Xpos, Ypos, &DrawProp[DrawProp->LcdLayer].pFont->table[(Ascii-' ') *\
 1045              		.loc 1 431 1 view .LVU245
 1046 0016 0590     		str	r0, [sp, #20]
 433:STM32Cube_FW_N6/Utilities/lcd/stm32_lcd.c ****   DrawProp[DrawProp->LcdLayer].pFont->Height * ((DrawProp[DrawProp->LcdLayer].pFont->Width + 7) / 8
 1047              		.loc 1 433 37 view .LVU246
 1048 0018 CB88     		ldrh	r3, [r1, #6]
 1049              		.loc 1 433 84 view .LVU247
 1050 001a 8C88     		ldrh	r4, [r1, #4]
 1051              	.LVL65:
 1052              	.LBB4:
 1053              	.LBI4:
 434:STM32Cube_FW_N6/Utilities/lcd/stm32_lcd.c **** }
 435:STM32Cube_FW_N6/Utilities/lcd/stm32_lcd.c **** 
 436:STM32Cube_FW_N6/Utilities/lcd/stm32_lcd.c **** /**
 437:STM32Cube_FW_N6/Utilities/lcd/stm32_lcd.c ****   * @brief  Displays characters in currently active layer.
 438:STM32Cube_FW_N6/Utilities/lcd/stm32_lcd.c ****   * @param  Xpos X position (in pixel)
 439:STM32Cube_FW_N6/Utilities/lcd/stm32_lcd.c ****   * @param  Ypos Y position (in pixel)
 440:STM32Cube_FW_N6/Utilities/lcd/stm32_lcd.c ****   * @param  Text Pointer to string to display on LCD
 441:STM32Cube_FW_N6/Utilities/lcd/stm32_lcd.c ****   * @param  Mode Display mode
 442:STM32Cube_FW_N6/Utilities/lcd/stm32_lcd.c ****   *          This parameter can be one of the following values:
 443:STM32Cube_FW_N6/Utilities/lcd/stm32_lcd.c ****   *            @arg  CENTER_MODE
 444:STM32Cube_FW_N6/Utilities/lcd/stm32_lcd.c ****   *            @arg  RIGHT_MODE
 445:STM32Cube_FW_N6/Utilities/lcd/stm32_lcd.c ****   *            @arg  LEFT_MODE
 446:STM32Cube_FW_N6/Utilities/lcd/stm32_lcd.c ****   */
 447:STM32Cube_FW_N6/Utilities/lcd/stm32_lcd.c **** void UTIL_LCD_DisplayStringAt(uint32_t Xpos, uint32_t Ypos, uint8_t *Text, Text_AlignModeTypdef Mod
 448:STM32Cube_FW_N6/Utilities/lcd/stm32_lcd.c **** {
 449:STM32Cube_FW_N6/Utilities/lcd/stm32_lcd.c ****   uint32_t refcolumn = 1, i = 0;
 450:STM32Cube_FW_N6/Utilities/lcd/stm32_lcd.c ****   uint32_t size = 0, xsize = 0;
 451:STM32Cube_FW_N6/Utilities/lcd/stm32_lcd.c ****   uint8_t  *ptr = Text;
 452:STM32Cube_FW_N6/Utilities/lcd/stm32_lcd.c **** 
 453:STM32Cube_FW_N6/Utilities/lcd/stm32_lcd.c ****   /* Get the text size */
 454:STM32Cube_FW_N6/Utilities/lcd/stm32_lcd.c ****   while (*ptr++) size ++ ;
 455:STM32Cube_FW_N6/Utilities/lcd/stm32_lcd.c **** 
 456:STM32Cube_FW_N6/Utilities/lcd/stm32_lcd.c ****   /* Characters number per line */
 457:STM32Cube_FW_N6/Utilities/lcd/stm32_lcd.c ****   xsize = (DrawProp[DrawProp->LcdLayer].LcdXsize/DrawProp[DrawProp->LcdLayer].pFont->Width);
 458:STM32Cube_FW_N6/Utilities/lcd/stm32_lcd.c **** 
 459:STM32Cube_FW_N6/Utilities/lcd/stm32_lcd.c ****   switch (Mode)
ARM GAS  C:\Users\DJESSOU\AppData\Local\Temp\ccR55SEh.s 			page 29


 460:STM32Cube_FW_N6/Utilities/lcd/stm32_lcd.c ****   {
 461:STM32Cube_FW_N6/Utilities/lcd/stm32_lcd.c ****   case CENTER_MODE:
 462:STM32Cube_FW_N6/Utilities/lcd/stm32_lcd.c ****     {
 463:STM32Cube_FW_N6/Utilities/lcd/stm32_lcd.c ****       refcolumn = Xpos + ((xsize - size)* DrawProp[DrawProp->LcdLayer].pFont->Width) / 2;
 464:STM32Cube_FW_N6/Utilities/lcd/stm32_lcd.c ****       break;
 465:STM32Cube_FW_N6/Utilities/lcd/stm32_lcd.c ****     }
 466:STM32Cube_FW_N6/Utilities/lcd/stm32_lcd.c ****   case LEFT_MODE:
 467:STM32Cube_FW_N6/Utilities/lcd/stm32_lcd.c ****     {
 468:STM32Cube_FW_N6/Utilities/lcd/stm32_lcd.c ****       refcolumn = Xpos;
 469:STM32Cube_FW_N6/Utilities/lcd/stm32_lcd.c ****       break;
 470:STM32Cube_FW_N6/Utilities/lcd/stm32_lcd.c ****     }
 471:STM32Cube_FW_N6/Utilities/lcd/stm32_lcd.c ****   case RIGHT_MODE:
 472:STM32Cube_FW_N6/Utilities/lcd/stm32_lcd.c ****     {
 473:STM32Cube_FW_N6/Utilities/lcd/stm32_lcd.c ****       refcolumn = - Xpos + ((xsize - size)*DrawProp[DrawProp->LcdLayer].pFont->Width);
 474:STM32Cube_FW_N6/Utilities/lcd/stm32_lcd.c ****       break;
 475:STM32Cube_FW_N6/Utilities/lcd/stm32_lcd.c ****     }
 476:STM32Cube_FW_N6/Utilities/lcd/stm32_lcd.c ****   default:
 477:STM32Cube_FW_N6/Utilities/lcd/stm32_lcd.c ****     {
 478:STM32Cube_FW_N6/Utilities/lcd/stm32_lcd.c ****       refcolumn = Xpos;
 479:STM32Cube_FW_N6/Utilities/lcd/stm32_lcd.c ****       break;
 480:STM32Cube_FW_N6/Utilities/lcd/stm32_lcd.c ****     }
 481:STM32Cube_FW_N6/Utilities/lcd/stm32_lcd.c ****   }
 482:STM32Cube_FW_N6/Utilities/lcd/stm32_lcd.c **** 
 483:STM32Cube_FW_N6/Utilities/lcd/stm32_lcd.c ****   /* Check that the Start column is located in the screen */
 484:STM32Cube_FW_N6/Utilities/lcd/stm32_lcd.c ****   if ((refcolumn < 1) || (refcolumn >= 0x8000))
 485:STM32Cube_FW_N6/Utilities/lcd/stm32_lcd.c ****   {
 486:STM32Cube_FW_N6/Utilities/lcd/stm32_lcd.c ****     refcolumn = 1;
 487:STM32Cube_FW_N6/Utilities/lcd/stm32_lcd.c ****   }
 488:STM32Cube_FW_N6/Utilities/lcd/stm32_lcd.c **** 
 489:STM32Cube_FW_N6/Utilities/lcd/stm32_lcd.c ****   /* Send the string character by character on LCD */
 490:STM32Cube_FW_N6/Utilities/lcd/stm32_lcd.c ****   while ((*Text != 0) & (((DrawProp[DrawProp->LcdLayer].LcdXsize - (i*DrawProp[DrawProp->LcdLayer].
 491:STM32Cube_FW_N6/Utilities/lcd/stm32_lcd.c ****   {
 492:STM32Cube_FW_N6/Utilities/lcd/stm32_lcd.c ****     /* Display one character on LCD */
 493:STM32Cube_FW_N6/Utilities/lcd/stm32_lcd.c ****     UTIL_LCD_DisplayChar(refcolumn, Ypos, *Text);
 494:STM32Cube_FW_N6/Utilities/lcd/stm32_lcd.c ****     /* Decrement the column position by 16 */
 495:STM32Cube_FW_N6/Utilities/lcd/stm32_lcd.c ****     refcolumn += DrawProp[DrawProp->LcdLayer].pFont->Width;
 496:STM32Cube_FW_N6/Utilities/lcd/stm32_lcd.c **** 
 497:STM32Cube_FW_N6/Utilities/lcd/stm32_lcd.c ****     /* Point on the next character */
 498:STM32Cube_FW_N6/Utilities/lcd/stm32_lcd.c ****     Text++;
 499:STM32Cube_FW_N6/Utilities/lcd/stm32_lcd.c ****     i++;
 500:STM32Cube_FW_N6/Utilities/lcd/stm32_lcd.c ****   }
 501:STM32Cube_FW_N6/Utilities/lcd/stm32_lcd.c **** }
 502:STM32Cube_FW_N6/Utilities/lcd/stm32_lcd.c **** 
 503:STM32Cube_FW_N6/Utilities/lcd/stm32_lcd.c **** /**
 504:STM32Cube_FW_N6/Utilities/lcd/stm32_lcd.c ****   * @brief  Displays a maximum of 60 characters on the LCD.
 505:STM32Cube_FW_N6/Utilities/lcd/stm32_lcd.c ****   * @param  Line: Line where to display the character shape
 506:STM32Cube_FW_N6/Utilities/lcd/stm32_lcd.c ****   * @param  ptr: Pointer to string to display on LCD
 507:STM32Cube_FW_N6/Utilities/lcd/stm32_lcd.c ****   */
 508:STM32Cube_FW_N6/Utilities/lcd/stm32_lcd.c **** void UTIL_LCD_DisplayStringAtLine(uint32_t Line, uint8_t *ptr)
 509:STM32Cube_FW_N6/Utilities/lcd/stm32_lcd.c **** {
 510:STM32Cube_FW_N6/Utilities/lcd/stm32_lcd.c ****   UTIL_LCD_DisplayStringAt(0, LINE(Line), ptr, LEFT_MODE);
 511:STM32Cube_FW_N6/Utilities/lcd/stm32_lcd.c **** }
 512:STM32Cube_FW_N6/Utilities/lcd/stm32_lcd.c **** 
 513:STM32Cube_FW_N6/Utilities/lcd/stm32_lcd.c **** /**
 514:STM32Cube_FW_N6/Utilities/lcd/stm32_lcd.c ****   * @brief  Draws an uni-line (between two points) in currently active layer.
 515:STM32Cube_FW_N6/Utilities/lcd/stm32_lcd.c ****   * @param  Xpos1 Point 1 X position
 516:STM32Cube_FW_N6/Utilities/lcd/stm32_lcd.c ****   * @param  Ypos1 Point 1 Y position
ARM GAS  C:\Users\DJESSOU\AppData\Local\Temp\ccR55SEh.s 			page 30


 517:STM32Cube_FW_N6/Utilities/lcd/stm32_lcd.c ****   * @param  Xpos2 Point 2 X position
 518:STM32Cube_FW_N6/Utilities/lcd/stm32_lcd.c ****   * @param  Ypos2 Point 2 Y position
 519:STM32Cube_FW_N6/Utilities/lcd/stm32_lcd.c ****   * @param  Color Draw color
 520:STM32Cube_FW_N6/Utilities/lcd/stm32_lcd.c ****   */
 521:STM32Cube_FW_N6/Utilities/lcd/stm32_lcd.c **** void UTIL_LCD_DrawLine(uint32_t Xpos1, uint32_t Ypos1, uint32_t Xpos2, uint32_t Ypos2, uint32_t Col
 522:STM32Cube_FW_N6/Utilities/lcd/stm32_lcd.c **** {
 523:STM32Cube_FW_N6/Utilities/lcd/stm32_lcd.c ****   int16_t deltax = 0, deltay = 0, x = 0, y = 0, xinc1 = 0, xinc2 = 0,
 524:STM32Cube_FW_N6/Utilities/lcd/stm32_lcd.c ****   yinc1 = 0, yinc2 = 0, den = 0, num = 0, numadd = 0, numpixels = 0,
 525:STM32Cube_FW_N6/Utilities/lcd/stm32_lcd.c ****   curpixel = 0;
 526:STM32Cube_FW_N6/Utilities/lcd/stm32_lcd.c ****   int32_t x_diff, y_diff;
 527:STM32Cube_FW_N6/Utilities/lcd/stm32_lcd.c **** 
 528:STM32Cube_FW_N6/Utilities/lcd/stm32_lcd.c ****   x_diff = Xpos2 - Xpos1;
 529:STM32Cube_FW_N6/Utilities/lcd/stm32_lcd.c ****   y_diff = Ypos2 - Ypos1;
 530:STM32Cube_FW_N6/Utilities/lcd/stm32_lcd.c **** 
 531:STM32Cube_FW_N6/Utilities/lcd/stm32_lcd.c ****   deltax = ABS(x_diff);         /* The absolute difference between the x's */
 532:STM32Cube_FW_N6/Utilities/lcd/stm32_lcd.c ****   deltay = ABS(y_diff);         /* The absolute difference between the y's */
 533:STM32Cube_FW_N6/Utilities/lcd/stm32_lcd.c ****   x = Xpos1;                       /* Start x off at the first pixel */
 534:STM32Cube_FW_N6/Utilities/lcd/stm32_lcd.c ****   y = Ypos1;                       /* Start y off at the first pixel */
 535:STM32Cube_FW_N6/Utilities/lcd/stm32_lcd.c **** 
 536:STM32Cube_FW_N6/Utilities/lcd/stm32_lcd.c ****   if (Xpos2 >= Xpos1)                 /* The x-values are increasing */
 537:STM32Cube_FW_N6/Utilities/lcd/stm32_lcd.c ****   {
 538:STM32Cube_FW_N6/Utilities/lcd/stm32_lcd.c ****     xinc1 = 1;
 539:STM32Cube_FW_N6/Utilities/lcd/stm32_lcd.c ****     xinc2 = 1;
 540:STM32Cube_FW_N6/Utilities/lcd/stm32_lcd.c ****   }
 541:STM32Cube_FW_N6/Utilities/lcd/stm32_lcd.c ****   else                          /* The x-values are decreasing */
 542:STM32Cube_FW_N6/Utilities/lcd/stm32_lcd.c ****   {
 543:STM32Cube_FW_N6/Utilities/lcd/stm32_lcd.c ****     xinc1 = -1;
 544:STM32Cube_FW_N6/Utilities/lcd/stm32_lcd.c ****     xinc2 = -1;
 545:STM32Cube_FW_N6/Utilities/lcd/stm32_lcd.c ****   }
 546:STM32Cube_FW_N6/Utilities/lcd/stm32_lcd.c **** 
 547:STM32Cube_FW_N6/Utilities/lcd/stm32_lcd.c ****   if (Ypos2 >= Ypos1)                 /* The y-values are increasing */
 548:STM32Cube_FW_N6/Utilities/lcd/stm32_lcd.c ****   {
 549:STM32Cube_FW_N6/Utilities/lcd/stm32_lcd.c ****     yinc1 = 1;
 550:STM32Cube_FW_N6/Utilities/lcd/stm32_lcd.c ****     yinc2 = 1;
 551:STM32Cube_FW_N6/Utilities/lcd/stm32_lcd.c ****   }
 552:STM32Cube_FW_N6/Utilities/lcd/stm32_lcd.c ****   else                          /* The y-values are decreasing */
 553:STM32Cube_FW_N6/Utilities/lcd/stm32_lcd.c ****   {
 554:STM32Cube_FW_N6/Utilities/lcd/stm32_lcd.c ****     yinc1 = -1;
 555:STM32Cube_FW_N6/Utilities/lcd/stm32_lcd.c ****     yinc2 = -1;
 556:STM32Cube_FW_N6/Utilities/lcd/stm32_lcd.c ****   }
 557:STM32Cube_FW_N6/Utilities/lcd/stm32_lcd.c **** 
 558:STM32Cube_FW_N6/Utilities/lcd/stm32_lcd.c ****   if (deltax >= deltay)         /* There is at least one x-value for every y-value */
 559:STM32Cube_FW_N6/Utilities/lcd/stm32_lcd.c ****   {
 560:STM32Cube_FW_N6/Utilities/lcd/stm32_lcd.c ****     xinc1 = 0;                  /* Don't change the x when numerator >= denominator */
 561:STM32Cube_FW_N6/Utilities/lcd/stm32_lcd.c ****     yinc2 = 0;                  /* Don't change the y for every iteration */
 562:STM32Cube_FW_N6/Utilities/lcd/stm32_lcd.c ****     den = deltax;
 563:STM32Cube_FW_N6/Utilities/lcd/stm32_lcd.c ****     num = deltax / 2;
 564:STM32Cube_FW_N6/Utilities/lcd/stm32_lcd.c ****     numadd = deltay;
 565:STM32Cube_FW_N6/Utilities/lcd/stm32_lcd.c ****     numpixels = deltax;         /* There are more x-values than y-values */
 566:STM32Cube_FW_N6/Utilities/lcd/stm32_lcd.c ****   }
 567:STM32Cube_FW_N6/Utilities/lcd/stm32_lcd.c ****   else                          /* There is at least one y-value for every x-value */
 568:STM32Cube_FW_N6/Utilities/lcd/stm32_lcd.c ****   {
 569:STM32Cube_FW_N6/Utilities/lcd/stm32_lcd.c ****     xinc2 = 0;                  /* Don't change the x for every iteration */
 570:STM32Cube_FW_N6/Utilities/lcd/stm32_lcd.c ****     yinc1 = 0;                  /* Don't change the y when numerator >= denominator */
 571:STM32Cube_FW_N6/Utilities/lcd/stm32_lcd.c ****     den = deltay;
 572:STM32Cube_FW_N6/Utilities/lcd/stm32_lcd.c ****     num = deltay / 2;
 573:STM32Cube_FW_N6/Utilities/lcd/stm32_lcd.c ****     numadd = deltax;
ARM GAS  C:\Users\DJESSOU\AppData\Local\Temp\ccR55SEh.s 			page 31


 574:STM32Cube_FW_N6/Utilities/lcd/stm32_lcd.c ****     numpixels = deltay;         /* There are more y-values than x-values */
 575:STM32Cube_FW_N6/Utilities/lcd/stm32_lcd.c ****   }
 576:STM32Cube_FW_N6/Utilities/lcd/stm32_lcd.c **** 
 577:STM32Cube_FW_N6/Utilities/lcd/stm32_lcd.c ****   for (curpixel = 0; curpixel <= numpixels; curpixel++)
 578:STM32Cube_FW_N6/Utilities/lcd/stm32_lcd.c ****   {
 579:STM32Cube_FW_N6/Utilities/lcd/stm32_lcd.c ****     UTIL_LCD_SetPixel(x, y, Color);   /* Draw the current pixel */
 580:STM32Cube_FW_N6/Utilities/lcd/stm32_lcd.c ****     num += numadd;                            /* Increase the numerator by the top of the fraction 
 581:STM32Cube_FW_N6/Utilities/lcd/stm32_lcd.c ****     if (num >= den)                           /* Check if numerator >= denominator */
 582:STM32Cube_FW_N6/Utilities/lcd/stm32_lcd.c ****     {
 583:STM32Cube_FW_N6/Utilities/lcd/stm32_lcd.c ****       num -= den;                             /* Calculate the new numerator value */
 584:STM32Cube_FW_N6/Utilities/lcd/stm32_lcd.c ****       x += xinc1;                             /* Change the x as appropriate */
 585:STM32Cube_FW_N6/Utilities/lcd/stm32_lcd.c ****       y += yinc1;                             /* Change the y as appropriate */
 586:STM32Cube_FW_N6/Utilities/lcd/stm32_lcd.c ****     }
 587:STM32Cube_FW_N6/Utilities/lcd/stm32_lcd.c ****     x += xinc2;                               /* Change the x as appropriate */
 588:STM32Cube_FW_N6/Utilities/lcd/stm32_lcd.c ****     y += yinc2;                               /* Change the y as appropriate */
 589:STM32Cube_FW_N6/Utilities/lcd/stm32_lcd.c ****   }
 590:STM32Cube_FW_N6/Utilities/lcd/stm32_lcd.c **** }
 591:STM32Cube_FW_N6/Utilities/lcd/stm32_lcd.c **** 
 592:STM32Cube_FW_N6/Utilities/lcd/stm32_lcd.c **** /**
 593:STM32Cube_FW_N6/Utilities/lcd/stm32_lcd.c ****   * @brief  Draws a rectangle in currently active layer.
 594:STM32Cube_FW_N6/Utilities/lcd/stm32_lcd.c ****   * @param  Xpos X position
 595:STM32Cube_FW_N6/Utilities/lcd/stm32_lcd.c ****   * @param  Ypos Y position
 596:STM32Cube_FW_N6/Utilities/lcd/stm32_lcd.c ****   * @param  Width  Rectangle width
 597:STM32Cube_FW_N6/Utilities/lcd/stm32_lcd.c ****   * @param  Height Rectangle height
 598:STM32Cube_FW_N6/Utilities/lcd/stm32_lcd.c ****   * @param  Color  Draw color
 599:STM32Cube_FW_N6/Utilities/lcd/stm32_lcd.c ****   */
 600:STM32Cube_FW_N6/Utilities/lcd/stm32_lcd.c **** void UTIL_LCD_DrawRect(uint32_t Xpos, uint32_t Ypos, uint32_t Width, uint32_t Height, uint32_t Colo
 601:STM32Cube_FW_N6/Utilities/lcd/stm32_lcd.c **** {
 602:STM32Cube_FW_N6/Utilities/lcd/stm32_lcd.c ****   /* Draw horizontal lines */
 603:STM32Cube_FW_N6/Utilities/lcd/stm32_lcd.c ****   UTIL_LCD_DrawHLine(Xpos, Ypos, Width, Color);
 604:STM32Cube_FW_N6/Utilities/lcd/stm32_lcd.c ****   UTIL_LCD_DrawHLine(Xpos, (Ypos+ Height - 1U), Width, Color);
 605:STM32Cube_FW_N6/Utilities/lcd/stm32_lcd.c **** 
 606:STM32Cube_FW_N6/Utilities/lcd/stm32_lcd.c ****   /* Draw vertical lines */
 607:STM32Cube_FW_N6/Utilities/lcd/stm32_lcd.c ****   UTIL_LCD_DrawVLine(Xpos, Ypos, Height, Color);
 608:STM32Cube_FW_N6/Utilities/lcd/stm32_lcd.c ****   UTIL_LCD_DrawVLine((Xpos + Width - 1U), Ypos, Height, Color);
 609:STM32Cube_FW_N6/Utilities/lcd/stm32_lcd.c **** }
 610:STM32Cube_FW_N6/Utilities/lcd/stm32_lcd.c **** 
 611:STM32Cube_FW_N6/Utilities/lcd/stm32_lcd.c **** /**
 612:STM32Cube_FW_N6/Utilities/lcd/stm32_lcd.c ****   * @brief  Draws a circle in currently active layer.
 613:STM32Cube_FW_N6/Utilities/lcd/stm32_lcd.c ****   * @param  Xpos    X position
 614:STM32Cube_FW_N6/Utilities/lcd/stm32_lcd.c ****   * @param  Ypos    Y position
 615:STM32Cube_FW_N6/Utilities/lcd/stm32_lcd.c ****   * @param  Radius  Circle radius
 616:STM32Cube_FW_N6/Utilities/lcd/stm32_lcd.c ****   * @param  Color   Draw color
 617:STM32Cube_FW_N6/Utilities/lcd/stm32_lcd.c ****   */
 618:STM32Cube_FW_N6/Utilities/lcd/stm32_lcd.c **** void UTIL_LCD_DrawCircle(uint32_t Xpos, uint32_t Ypos, uint32_t Radius, uint32_t Color)
 619:STM32Cube_FW_N6/Utilities/lcd/stm32_lcd.c **** {
 620:STM32Cube_FW_N6/Utilities/lcd/stm32_lcd.c ****   int32_t   decision;  /* Decision Variable */
 621:STM32Cube_FW_N6/Utilities/lcd/stm32_lcd.c ****   uint32_t  current_x; /* Current X Value */
 622:STM32Cube_FW_N6/Utilities/lcd/stm32_lcd.c ****   uint32_t  current_y; /* Current Y Value */
 623:STM32Cube_FW_N6/Utilities/lcd/stm32_lcd.c **** 
 624:STM32Cube_FW_N6/Utilities/lcd/stm32_lcd.c ****   decision = 3 - (Radius << 1);
 625:STM32Cube_FW_N6/Utilities/lcd/stm32_lcd.c ****   current_x = 0;
 626:STM32Cube_FW_N6/Utilities/lcd/stm32_lcd.c ****   current_y = Radius;
 627:STM32Cube_FW_N6/Utilities/lcd/stm32_lcd.c **** 
 628:STM32Cube_FW_N6/Utilities/lcd/stm32_lcd.c ****   while (current_x <= current_y)
 629:STM32Cube_FW_N6/Utilities/lcd/stm32_lcd.c ****   {
 630:STM32Cube_FW_N6/Utilities/lcd/stm32_lcd.c ****     if((Ypos - current_y) < DrawProp[DrawProp->LcdLayer].LcdYsize)
ARM GAS  C:\Users\DJESSOU\AppData\Local\Temp\ccR55SEh.s 			page 32


 631:STM32Cube_FW_N6/Utilities/lcd/stm32_lcd.c ****     {
 632:STM32Cube_FW_N6/Utilities/lcd/stm32_lcd.c ****       if((Xpos + current_x) < DrawProp[DrawProp->LcdLayer].LcdXsize)
 633:STM32Cube_FW_N6/Utilities/lcd/stm32_lcd.c ****       {
 634:STM32Cube_FW_N6/Utilities/lcd/stm32_lcd.c ****         UTIL_LCD_SetPixel((Xpos + current_x), (Ypos - current_y), Color);
 635:STM32Cube_FW_N6/Utilities/lcd/stm32_lcd.c ****       }
 636:STM32Cube_FW_N6/Utilities/lcd/stm32_lcd.c ****       if((Xpos - current_x) < DrawProp[DrawProp->LcdLayer].LcdXsize)
 637:STM32Cube_FW_N6/Utilities/lcd/stm32_lcd.c ****       {
 638:STM32Cube_FW_N6/Utilities/lcd/stm32_lcd.c ****         UTIL_LCD_SetPixel((Xpos - current_x), (Ypos - current_y), Color);
 639:STM32Cube_FW_N6/Utilities/lcd/stm32_lcd.c ****       }
 640:STM32Cube_FW_N6/Utilities/lcd/stm32_lcd.c ****     }
 641:STM32Cube_FW_N6/Utilities/lcd/stm32_lcd.c **** 
 642:STM32Cube_FW_N6/Utilities/lcd/stm32_lcd.c ****     if((Ypos - current_x) < DrawProp[DrawProp->LcdLayer].LcdYsize)
 643:STM32Cube_FW_N6/Utilities/lcd/stm32_lcd.c ****     {
 644:STM32Cube_FW_N6/Utilities/lcd/stm32_lcd.c ****       if((Xpos + current_y) < DrawProp[DrawProp->LcdLayer].LcdXsize)
 645:STM32Cube_FW_N6/Utilities/lcd/stm32_lcd.c ****       {
 646:STM32Cube_FW_N6/Utilities/lcd/stm32_lcd.c ****         UTIL_LCD_SetPixel((Xpos + current_y), (Ypos - current_x), Color);
 647:STM32Cube_FW_N6/Utilities/lcd/stm32_lcd.c ****       }
 648:STM32Cube_FW_N6/Utilities/lcd/stm32_lcd.c ****       if((Xpos - current_y) < DrawProp[DrawProp->LcdLayer].LcdXsize)
 649:STM32Cube_FW_N6/Utilities/lcd/stm32_lcd.c ****       {
 650:STM32Cube_FW_N6/Utilities/lcd/stm32_lcd.c ****         UTIL_LCD_SetPixel((Xpos - current_y), (Ypos - current_x), Color);
 651:STM32Cube_FW_N6/Utilities/lcd/stm32_lcd.c ****       }
 652:STM32Cube_FW_N6/Utilities/lcd/stm32_lcd.c ****     }
 653:STM32Cube_FW_N6/Utilities/lcd/stm32_lcd.c **** 
 654:STM32Cube_FW_N6/Utilities/lcd/stm32_lcd.c ****     if((Ypos + current_y) < DrawProp[DrawProp->LcdLayer].LcdYsize)
 655:STM32Cube_FW_N6/Utilities/lcd/stm32_lcd.c ****     {
 656:STM32Cube_FW_N6/Utilities/lcd/stm32_lcd.c ****       if((Xpos + current_x) < DrawProp[DrawProp->LcdLayer].LcdXsize)
 657:STM32Cube_FW_N6/Utilities/lcd/stm32_lcd.c ****       {
 658:STM32Cube_FW_N6/Utilities/lcd/stm32_lcd.c ****         UTIL_LCD_SetPixel((Xpos + current_x), (Ypos + current_y), Color);
 659:STM32Cube_FW_N6/Utilities/lcd/stm32_lcd.c ****       }
 660:STM32Cube_FW_N6/Utilities/lcd/stm32_lcd.c ****       if((Xpos - current_x) < DrawProp[DrawProp->LcdLayer].LcdXsize)
 661:STM32Cube_FW_N6/Utilities/lcd/stm32_lcd.c ****       {
 662:STM32Cube_FW_N6/Utilities/lcd/stm32_lcd.c ****         UTIL_LCD_SetPixel((Xpos - current_x), (Ypos + current_y), Color);
 663:STM32Cube_FW_N6/Utilities/lcd/stm32_lcd.c ****       }
 664:STM32Cube_FW_N6/Utilities/lcd/stm32_lcd.c ****     }
 665:STM32Cube_FW_N6/Utilities/lcd/stm32_lcd.c **** 
 666:STM32Cube_FW_N6/Utilities/lcd/stm32_lcd.c ****     if((Ypos + current_x) < DrawProp[DrawProp->LcdLayer].LcdYsize)
 667:STM32Cube_FW_N6/Utilities/lcd/stm32_lcd.c ****     {
 668:STM32Cube_FW_N6/Utilities/lcd/stm32_lcd.c ****       if((Xpos + current_y) < DrawProp[DrawProp->LcdLayer].LcdXsize)
 669:STM32Cube_FW_N6/Utilities/lcd/stm32_lcd.c ****       {
 670:STM32Cube_FW_N6/Utilities/lcd/stm32_lcd.c ****         UTIL_LCD_SetPixel((Xpos + current_y), (Ypos + current_x), Color);
 671:STM32Cube_FW_N6/Utilities/lcd/stm32_lcd.c ****       }
 672:STM32Cube_FW_N6/Utilities/lcd/stm32_lcd.c ****       if((Xpos - current_y) < DrawProp[DrawProp->LcdLayer].LcdXsize)
 673:STM32Cube_FW_N6/Utilities/lcd/stm32_lcd.c ****       {
 674:STM32Cube_FW_N6/Utilities/lcd/stm32_lcd.c ****         UTIL_LCD_SetPixel((Xpos - current_y), (Ypos + current_x), Color);
 675:STM32Cube_FW_N6/Utilities/lcd/stm32_lcd.c ****       }
 676:STM32Cube_FW_N6/Utilities/lcd/stm32_lcd.c ****     }
 677:STM32Cube_FW_N6/Utilities/lcd/stm32_lcd.c **** 
 678:STM32Cube_FW_N6/Utilities/lcd/stm32_lcd.c ****     if (decision < 0)
 679:STM32Cube_FW_N6/Utilities/lcd/stm32_lcd.c ****     {
 680:STM32Cube_FW_N6/Utilities/lcd/stm32_lcd.c ****       decision += (current_x << 2) + 6;
 681:STM32Cube_FW_N6/Utilities/lcd/stm32_lcd.c ****     }
 682:STM32Cube_FW_N6/Utilities/lcd/stm32_lcd.c ****     else
 683:STM32Cube_FW_N6/Utilities/lcd/stm32_lcd.c ****     {
 684:STM32Cube_FW_N6/Utilities/lcd/stm32_lcd.c ****       decision += ((current_x - current_y) << 2) + 10;
 685:STM32Cube_FW_N6/Utilities/lcd/stm32_lcd.c ****       current_y--;
 686:STM32Cube_FW_N6/Utilities/lcd/stm32_lcd.c ****     }
 687:STM32Cube_FW_N6/Utilities/lcd/stm32_lcd.c ****     current_x++;
ARM GAS  C:\Users\DJESSOU\AppData\Local\Temp\ccR55SEh.s 			page 33


 688:STM32Cube_FW_N6/Utilities/lcd/stm32_lcd.c ****   }
 689:STM32Cube_FW_N6/Utilities/lcd/stm32_lcd.c **** }
 690:STM32Cube_FW_N6/Utilities/lcd/stm32_lcd.c **** 
 691:STM32Cube_FW_N6/Utilities/lcd/stm32_lcd.c **** /**
 692:STM32Cube_FW_N6/Utilities/lcd/stm32_lcd.c ****   * @brief  Draws an poly-line (between many points) in currently active layer.
 693:STM32Cube_FW_N6/Utilities/lcd/stm32_lcd.c ****   * @param  Points      Pointer to the points array
 694:STM32Cube_FW_N6/Utilities/lcd/stm32_lcd.c ****   * @param  PointCount  Number of points
 695:STM32Cube_FW_N6/Utilities/lcd/stm32_lcd.c ****   * @param  Color       Draw color
 696:STM32Cube_FW_N6/Utilities/lcd/stm32_lcd.c ****   */
 697:STM32Cube_FW_N6/Utilities/lcd/stm32_lcd.c **** void UTIL_LCD_DrawPolygon(pPoint Points, uint32_t PointCount, uint32_t Color)
 698:STM32Cube_FW_N6/Utilities/lcd/stm32_lcd.c **** {
 699:STM32Cube_FW_N6/Utilities/lcd/stm32_lcd.c ****   int16_t x_pos = 0, y_pos = 0;
 700:STM32Cube_FW_N6/Utilities/lcd/stm32_lcd.c **** 
 701:STM32Cube_FW_N6/Utilities/lcd/stm32_lcd.c ****   if(PointCount < 2)
 702:STM32Cube_FW_N6/Utilities/lcd/stm32_lcd.c ****   {
 703:STM32Cube_FW_N6/Utilities/lcd/stm32_lcd.c ****     return;
 704:STM32Cube_FW_N6/Utilities/lcd/stm32_lcd.c ****   }
 705:STM32Cube_FW_N6/Utilities/lcd/stm32_lcd.c **** 
 706:STM32Cube_FW_N6/Utilities/lcd/stm32_lcd.c ****   UTIL_LCD_DrawLine(Points->X, Points->Y, (Points+PointCount-1)->X, (Points+PointCount-1)->Y, Color
 707:STM32Cube_FW_N6/Utilities/lcd/stm32_lcd.c **** 
 708:STM32Cube_FW_N6/Utilities/lcd/stm32_lcd.c ****   while(--PointCount)
 709:STM32Cube_FW_N6/Utilities/lcd/stm32_lcd.c ****   {
 710:STM32Cube_FW_N6/Utilities/lcd/stm32_lcd.c ****     x_pos = Points->X;
 711:STM32Cube_FW_N6/Utilities/lcd/stm32_lcd.c ****     y_pos = Points->Y;
 712:STM32Cube_FW_N6/Utilities/lcd/stm32_lcd.c ****     Points++;
 713:STM32Cube_FW_N6/Utilities/lcd/stm32_lcd.c ****     UTIL_LCD_DrawLine(x_pos, y_pos, Points->X, Points->Y, Color);
 714:STM32Cube_FW_N6/Utilities/lcd/stm32_lcd.c ****   }
 715:STM32Cube_FW_N6/Utilities/lcd/stm32_lcd.c **** }
 716:STM32Cube_FW_N6/Utilities/lcd/stm32_lcd.c **** 
 717:STM32Cube_FW_N6/Utilities/lcd/stm32_lcd.c **** /**
 718:STM32Cube_FW_N6/Utilities/lcd/stm32_lcd.c ****   * @brief  Draws an ellipse on LCD in currently active layer.
 719:STM32Cube_FW_N6/Utilities/lcd/stm32_lcd.c ****   * @param  Xpos    X position
 720:STM32Cube_FW_N6/Utilities/lcd/stm32_lcd.c ****   * @param  Ypos    Y position
 721:STM32Cube_FW_N6/Utilities/lcd/stm32_lcd.c ****   * @param  XRadius Ellipse X radius
 722:STM32Cube_FW_N6/Utilities/lcd/stm32_lcd.c ****   * @param  YRadius Ellipse Y radius
 723:STM32Cube_FW_N6/Utilities/lcd/stm32_lcd.c ****   * @param  Color   Draw color
 724:STM32Cube_FW_N6/Utilities/lcd/stm32_lcd.c ****   */
 725:STM32Cube_FW_N6/Utilities/lcd/stm32_lcd.c **** void UTIL_LCD_DrawEllipse(int Xpos, int Ypos, int XRadius, int YRadius, uint32_t Color)
 726:STM32Cube_FW_N6/Utilities/lcd/stm32_lcd.c **** {
 727:STM32Cube_FW_N6/Utilities/lcd/stm32_lcd.c ****   int x_pos = 0, y_pos = -YRadius, err = 2-2*XRadius, e2;
 728:STM32Cube_FW_N6/Utilities/lcd/stm32_lcd.c ****   float k = 0, rad1 = 0, rad2 = 0;
 729:STM32Cube_FW_N6/Utilities/lcd/stm32_lcd.c **** 
 730:STM32Cube_FW_N6/Utilities/lcd/stm32_lcd.c ****   rad1 = XRadius;
 731:STM32Cube_FW_N6/Utilities/lcd/stm32_lcd.c ****   rad2 = YRadius;
 732:STM32Cube_FW_N6/Utilities/lcd/stm32_lcd.c **** 
 733:STM32Cube_FW_N6/Utilities/lcd/stm32_lcd.c ****   k = (float)(rad2/rad1);
 734:STM32Cube_FW_N6/Utilities/lcd/stm32_lcd.c **** 
 735:STM32Cube_FW_N6/Utilities/lcd/stm32_lcd.c ****   do
 736:STM32Cube_FW_N6/Utilities/lcd/stm32_lcd.c ****   {
 737:STM32Cube_FW_N6/Utilities/lcd/stm32_lcd.c ****     UTIL_LCD_SetPixel((Xpos-(uint32_t)(x_pos/k)), (Ypos + y_pos), Color);
 738:STM32Cube_FW_N6/Utilities/lcd/stm32_lcd.c ****     UTIL_LCD_SetPixel((Xpos+(uint32_t)(x_pos/k)), (Ypos + y_pos), Color);
 739:STM32Cube_FW_N6/Utilities/lcd/stm32_lcd.c ****     UTIL_LCD_SetPixel((Xpos+(uint32_t)(x_pos/k)), (Ypos - y_pos), Color);
 740:STM32Cube_FW_N6/Utilities/lcd/stm32_lcd.c ****     UTIL_LCD_SetPixel((Xpos-(uint32_t)(x_pos/k)), (Ypos - y_pos), Color);
 741:STM32Cube_FW_N6/Utilities/lcd/stm32_lcd.c **** 
 742:STM32Cube_FW_N6/Utilities/lcd/stm32_lcd.c ****     e2 = err;
 743:STM32Cube_FW_N6/Utilities/lcd/stm32_lcd.c ****     if (e2 <= x_pos)
 744:STM32Cube_FW_N6/Utilities/lcd/stm32_lcd.c ****     {
ARM GAS  C:\Users\DJESSOU\AppData\Local\Temp\ccR55SEh.s 			page 34


 745:STM32Cube_FW_N6/Utilities/lcd/stm32_lcd.c ****       err += ++x_pos*2+1;
 746:STM32Cube_FW_N6/Utilities/lcd/stm32_lcd.c ****       if (-y_pos == x_pos && e2 <= y_pos) e2 = 0;
 747:STM32Cube_FW_N6/Utilities/lcd/stm32_lcd.c ****     }
 748:STM32Cube_FW_N6/Utilities/lcd/stm32_lcd.c ****     if (e2 > y_pos)
 749:STM32Cube_FW_N6/Utilities/lcd/stm32_lcd.c ****     {
 750:STM32Cube_FW_N6/Utilities/lcd/stm32_lcd.c ****       err += ++y_pos*2+1;
 751:STM32Cube_FW_N6/Utilities/lcd/stm32_lcd.c ****     }
 752:STM32Cube_FW_N6/Utilities/lcd/stm32_lcd.c ****   }while (y_pos <= 0);
 753:STM32Cube_FW_N6/Utilities/lcd/stm32_lcd.c **** }
 754:STM32Cube_FW_N6/Utilities/lcd/stm32_lcd.c **** 
 755:STM32Cube_FW_N6/Utilities/lcd/stm32_lcd.c **** /**
 756:STM32Cube_FW_N6/Utilities/lcd/stm32_lcd.c ****   * @brief  Draws a bitmap picture loaded in the internal Flash (32 bpp) in currently active layer.
 757:STM32Cube_FW_N6/Utilities/lcd/stm32_lcd.c ****   * @param  Xpos  Bmp X position in the LCD
 758:STM32Cube_FW_N6/Utilities/lcd/stm32_lcd.c ****   * @param  Ypos  Bmp Y position in the LCD
 759:STM32Cube_FW_N6/Utilities/lcd/stm32_lcd.c ****   * @param  pData Pointer to Bmp picture address in the internal Flash
 760:STM32Cube_FW_N6/Utilities/lcd/stm32_lcd.c ****   */
 761:STM32Cube_FW_N6/Utilities/lcd/stm32_lcd.c **** void UTIL_LCD_DrawBitmap(uint32_t Xpos, uint32_t Ypos, uint8_t *pData)
 762:STM32Cube_FW_N6/Utilities/lcd/stm32_lcd.c **** {
 763:STM32Cube_FW_N6/Utilities/lcd/stm32_lcd.c ****   FuncDriver.DrawBitmap(DrawProp->LcdDevice, Xpos, Ypos, pData);
 764:STM32Cube_FW_N6/Utilities/lcd/stm32_lcd.c **** }
 765:STM32Cube_FW_N6/Utilities/lcd/stm32_lcd.c **** 
 766:STM32Cube_FW_N6/Utilities/lcd/stm32_lcd.c **** /**
 767:STM32Cube_FW_N6/Utilities/lcd/stm32_lcd.c ****   * @brief  Draws a full rectangle in currently active layer.
 768:STM32Cube_FW_N6/Utilities/lcd/stm32_lcd.c ****   * @param  Xpos   X position
 769:STM32Cube_FW_N6/Utilities/lcd/stm32_lcd.c ****   * @param  Ypos   Y position
 770:STM32Cube_FW_N6/Utilities/lcd/stm32_lcd.c ****   * @param  Width  Rectangle width
 771:STM32Cube_FW_N6/Utilities/lcd/stm32_lcd.c ****   * @param  Height Rectangle height
 772:STM32Cube_FW_N6/Utilities/lcd/stm32_lcd.c ****   * @param  Color  Draw color
 773:STM32Cube_FW_N6/Utilities/lcd/stm32_lcd.c ****   */
 774:STM32Cube_FW_N6/Utilities/lcd/stm32_lcd.c **** void UTIL_LCD_FillRect(uint32_t Xpos, uint32_t Ypos, uint32_t Width, uint32_t Height, uint32_t Colo
 775:STM32Cube_FW_N6/Utilities/lcd/stm32_lcd.c **** {
 776:STM32Cube_FW_N6/Utilities/lcd/stm32_lcd.c ****   /* Fill the rectangle */
 777:STM32Cube_FW_N6/Utilities/lcd/stm32_lcd.c ****   if(DrawProp[DrawProp->LcdLayer].LcdPixelFormat == LCD_PIXEL_FORMAT_RGB565)
 778:STM32Cube_FW_N6/Utilities/lcd/stm32_lcd.c ****   {
 779:STM32Cube_FW_N6/Utilities/lcd/stm32_lcd.c ****     FuncDriver.FillRect(DrawProp->LcdDevice, Xpos, Ypos, Width, Height, CONVERTARGB88882RGB565(Colo
 780:STM32Cube_FW_N6/Utilities/lcd/stm32_lcd.c ****   }
 781:STM32Cube_FW_N6/Utilities/lcd/stm32_lcd.c ****   else if(DrawProp[DrawProp->LcdLayer].LcdPixelFormat == LCD_PIXEL_FORMAT_RGB888)
 782:STM32Cube_FW_N6/Utilities/lcd/stm32_lcd.c ****   {
 783:STM32Cube_FW_N6/Utilities/lcd/stm32_lcd.c ****     FuncDriver.FillRect(DrawProp->LcdDevice, Xpos, Ypos, Width, Height, CONVERTARGB88882RGB888(Colo
 784:STM32Cube_FW_N6/Utilities/lcd/stm32_lcd.c ****   }
 785:STM32Cube_FW_N6/Utilities/lcd/stm32_lcd.c ****   else if(DrawProp[DrawProp->LcdLayer].LcdPixelFormat == LCD_PIXEL_FORMAT_ARGB4444)
 786:STM32Cube_FW_N6/Utilities/lcd/stm32_lcd.c ****   {
 787:STM32Cube_FW_N6/Utilities/lcd/stm32_lcd.c ****     FuncDriver.FillRect(DrawProp->LcdDevice, Xpos, Ypos, Width, Height, CONVERTARGB88882ARGB4444(Co
 788:STM32Cube_FW_N6/Utilities/lcd/stm32_lcd.c ****   }
 789:STM32Cube_FW_N6/Utilities/lcd/stm32_lcd.c ****   else /*LCD_PIXEL_FORMAT_ARGB8888*/
 790:STM32Cube_FW_N6/Utilities/lcd/stm32_lcd.c ****   {
 791:STM32Cube_FW_N6/Utilities/lcd/stm32_lcd.c ****     FuncDriver.FillRect(DrawProp->LcdDevice, Xpos, Ypos, Width, Height, Color);
 792:STM32Cube_FW_N6/Utilities/lcd/stm32_lcd.c ****   }
 793:STM32Cube_FW_N6/Utilities/lcd/stm32_lcd.c **** }
 794:STM32Cube_FW_N6/Utilities/lcd/stm32_lcd.c **** 
 795:STM32Cube_FW_N6/Utilities/lcd/stm32_lcd.c **** /**
 796:STM32Cube_FW_N6/Utilities/lcd/stm32_lcd.c ****   * @brief  Draws a full circle in currently active layer.
 797:STM32Cube_FW_N6/Utilities/lcd/stm32_lcd.c ****   * @param  Xpos   X position
 798:STM32Cube_FW_N6/Utilities/lcd/stm32_lcd.c ****   * @param  Ypos   Y position
 799:STM32Cube_FW_N6/Utilities/lcd/stm32_lcd.c ****   * @param  Radius Circle radius
 800:STM32Cube_FW_N6/Utilities/lcd/stm32_lcd.c ****   * @param  Color  Draw color
 801:STM32Cube_FW_N6/Utilities/lcd/stm32_lcd.c ****   */
ARM GAS  C:\Users\DJESSOU\AppData\Local\Temp\ccR55SEh.s 			page 35


 802:STM32Cube_FW_N6/Utilities/lcd/stm32_lcd.c **** void UTIL_LCD_FillCircle(uint32_t Xpos, uint32_t Ypos, uint32_t Radius, uint32_t Color)
 803:STM32Cube_FW_N6/Utilities/lcd/stm32_lcd.c **** {
 804:STM32Cube_FW_N6/Utilities/lcd/stm32_lcd.c ****   int32_t   decision;  /* Decision Variable */
 805:STM32Cube_FW_N6/Utilities/lcd/stm32_lcd.c ****   uint32_t  current_x; /* Current X Value */
 806:STM32Cube_FW_N6/Utilities/lcd/stm32_lcd.c ****   uint32_t  current_y; /* Current Y Value */
 807:STM32Cube_FW_N6/Utilities/lcd/stm32_lcd.c **** 
 808:STM32Cube_FW_N6/Utilities/lcd/stm32_lcd.c ****   decision = 3 - (Radius << 1);
 809:STM32Cube_FW_N6/Utilities/lcd/stm32_lcd.c **** 
 810:STM32Cube_FW_N6/Utilities/lcd/stm32_lcd.c ****   current_x = 0;
 811:STM32Cube_FW_N6/Utilities/lcd/stm32_lcd.c ****   current_y = Radius;
 812:STM32Cube_FW_N6/Utilities/lcd/stm32_lcd.c **** 
 813:STM32Cube_FW_N6/Utilities/lcd/stm32_lcd.c ****   while (current_x <= current_y)
 814:STM32Cube_FW_N6/Utilities/lcd/stm32_lcd.c ****   {
 815:STM32Cube_FW_N6/Utilities/lcd/stm32_lcd.c ****     if(current_y > 0)
 816:STM32Cube_FW_N6/Utilities/lcd/stm32_lcd.c ****     {
 817:STM32Cube_FW_N6/Utilities/lcd/stm32_lcd.c ****       if(current_y >= Xpos)
 818:STM32Cube_FW_N6/Utilities/lcd/stm32_lcd.c ****       {
 819:STM32Cube_FW_N6/Utilities/lcd/stm32_lcd.c ****         UTIL_LCD_DrawHLine(0, Ypos + current_x, 2*current_y - (current_y - Xpos), Color);
 820:STM32Cube_FW_N6/Utilities/lcd/stm32_lcd.c ****         UTIL_LCD_DrawHLine(0, Ypos - current_x, 2*current_y - (current_y - Xpos), Color);
 821:STM32Cube_FW_N6/Utilities/lcd/stm32_lcd.c ****       }
 822:STM32Cube_FW_N6/Utilities/lcd/stm32_lcd.c ****       else
 823:STM32Cube_FW_N6/Utilities/lcd/stm32_lcd.c ****       {
 824:STM32Cube_FW_N6/Utilities/lcd/stm32_lcd.c ****         UTIL_LCD_DrawHLine(Xpos - current_y, Ypos + current_x, 2*current_y, Color);
 825:STM32Cube_FW_N6/Utilities/lcd/stm32_lcd.c ****         UTIL_LCD_DrawHLine(Xpos - current_y, Ypos - current_x, 2*current_y, Color);
 826:STM32Cube_FW_N6/Utilities/lcd/stm32_lcd.c ****       }
 827:STM32Cube_FW_N6/Utilities/lcd/stm32_lcd.c ****     }
 828:STM32Cube_FW_N6/Utilities/lcd/stm32_lcd.c **** 
 829:STM32Cube_FW_N6/Utilities/lcd/stm32_lcd.c ****     if(current_x > 0)
 830:STM32Cube_FW_N6/Utilities/lcd/stm32_lcd.c ****     {
 831:STM32Cube_FW_N6/Utilities/lcd/stm32_lcd.c ****       if(current_x >= Xpos)
 832:STM32Cube_FW_N6/Utilities/lcd/stm32_lcd.c ****       {
 833:STM32Cube_FW_N6/Utilities/lcd/stm32_lcd.c ****         UTIL_LCD_DrawHLine(0, Ypos - current_y, 2*current_x - (current_x - Xpos), Color);
 834:STM32Cube_FW_N6/Utilities/lcd/stm32_lcd.c ****         UTIL_LCD_DrawHLine(0, Ypos + current_y, 2*current_x - (current_x - Xpos), Color);
 835:STM32Cube_FW_N6/Utilities/lcd/stm32_lcd.c ****       }
 836:STM32Cube_FW_N6/Utilities/lcd/stm32_lcd.c ****       else
 837:STM32Cube_FW_N6/Utilities/lcd/stm32_lcd.c ****       {
 838:STM32Cube_FW_N6/Utilities/lcd/stm32_lcd.c ****         UTIL_LCD_DrawHLine(Xpos - current_x, Ypos - current_y, 2*current_x, Color);
 839:STM32Cube_FW_N6/Utilities/lcd/stm32_lcd.c ****         UTIL_LCD_DrawHLine(Xpos - current_x, Ypos + current_y, 2*current_x, Color);
 840:STM32Cube_FW_N6/Utilities/lcd/stm32_lcd.c ****       }
 841:STM32Cube_FW_N6/Utilities/lcd/stm32_lcd.c ****     }
 842:STM32Cube_FW_N6/Utilities/lcd/stm32_lcd.c ****     if (decision < 0)
 843:STM32Cube_FW_N6/Utilities/lcd/stm32_lcd.c ****     {
 844:STM32Cube_FW_N6/Utilities/lcd/stm32_lcd.c ****       decision += (current_x << 2) + 6;
 845:STM32Cube_FW_N6/Utilities/lcd/stm32_lcd.c ****     }
 846:STM32Cube_FW_N6/Utilities/lcd/stm32_lcd.c ****     else
 847:STM32Cube_FW_N6/Utilities/lcd/stm32_lcd.c ****     {
 848:STM32Cube_FW_N6/Utilities/lcd/stm32_lcd.c ****       decision += ((current_x - current_y) << 2) + 10;
 849:STM32Cube_FW_N6/Utilities/lcd/stm32_lcd.c ****       current_y--;
 850:STM32Cube_FW_N6/Utilities/lcd/stm32_lcd.c ****     }
 851:STM32Cube_FW_N6/Utilities/lcd/stm32_lcd.c ****     current_x++;
 852:STM32Cube_FW_N6/Utilities/lcd/stm32_lcd.c ****   }
 853:STM32Cube_FW_N6/Utilities/lcd/stm32_lcd.c **** 
 854:STM32Cube_FW_N6/Utilities/lcd/stm32_lcd.c ****   UTIL_LCD_DrawCircle(Xpos, Ypos, Radius, Color);
 855:STM32Cube_FW_N6/Utilities/lcd/stm32_lcd.c **** }
 856:STM32Cube_FW_N6/Utilities/lcd/stm32_lcd.c **** 
 857:STM32Cube_FW_N6/Utilities/lcd/stm32_lcd.c **** /**
 858:STM32Cube_FW_N6/Utilities/lcd/stm32_lcd.c ****   * @brief  Draws a full poly-line (between many points) in currently active layer.
ARM GAS  C:\Users\DJESSOU\AppData\Local\Temp\ccR55SEh.s 			page 36


 859:STM32Cube_FW_N6/Utilities/lcd/stm32_lcd.c ****   * @param  Points     Pointer to the points array
 860:STM32Cube_FW_N6/Utilities/lcd/stm32_lcd.c ****   * @param  PointCount Number of points
 861:STM32Cube_FW_N6/Utilities/lcd/stm32_lcd.c ****   * @param  Color      Draw color
 862:STM32Cube_FW_N6/Utilities/lcd/stm32_lcd.c ****   */
 863:STM32Cube_FW_N6/Utilities/lcd/stm32_lcd.c **** void UTIL_LCD_FillPolygon(pPoint Points, uint32_t PointCount, uint32_t Color)
 864:STM32Cube_FW_N6/Utilities/lcd/stm32_lcd.c **** {
 865:STM32Cube_FW_N6/Utilities/lcd/stm32_lcd.c ****   int16_t X = 0, Y = 0, X2 = 0, Y2 = 0, x_center = 0, y_center = 0, x_first = 0, y_first = 0, pixel
 866:STM32Cube_FW_N6/Utilities/lcd/stm32_lcd.c ****   uint32_t  image_left = 0, image_right = 0, image_top = 0, image_bottom = 0;
 867:STM32Cube_FW_N6/Utilities/lcd/stm32_lcd.c ****   Triangle_Positions_t positions;
 868:STM32Cube_FW_N6/Utilities/lcd/stm32_lcd.c **** 
 869:STM32Cube_FW_N6/Utilities/lcd/stm32_lcd.c ****   image_left = image_right = Points->X;
 870:STM32Cube_FW_N6/Utilities/lcd/stm32_lcd.c ****   image_top= image_bottom = Points->Y;
 871:STM32Cube_FW_N6/Utilities/lcd/stm32_lcd.c **** 
 872:STM32Cube_FW_N6/Utilities/lcd/stm32_lcd.c ****   for(counter = 1; counter < PointCount; counter++)
 873:STM32Cube_FW_N6/Utilities/lcd/stm32_lcd.c ****   {
 874:STM32Cube_FW_N6/Utilities/lcd/stm32_lcd.c ****     pixel_x = POLY_X(counter);
 875:STM32Cube_FW_N6/Utilities/lcd/stm32_lcd.c ****     if(pixel_x < image_left)
 876:STM32Cube_FW_N6/Utilities/lcd/stm32_lcd.c ****     {
 877:STM32Cube_FW_N6/Utilities/lcd/stm32_lcd.c ****       image_left = pixel_x;
 878:STM32Cube_FW_N6/Utilities/lcd/stm32_lcd.c ****     }
 879:STM32Cube_FW_N6/Utilities/lcd/stm32_lcd.c ****     if(pixel_x > image_right)
 880:STM32Cube_FW_N6/Utilities/lcd/stm32_lcd.c ****     {
 881:STM32Cube_FW_N6/Utilities/lcd/stm32_lcd.c ****       image_right = pixel_x;
 882:STM32Cube_FW_N6/Utilities/lcd/stm32_lcd.c ****     }
 883:STM32Cube_FW_N6/Utilities/lcd/stm32_lcd.c **** 
 884:STM32Cube_FW_N6/Utilities/lcd/stm32_lcd.c ****     pixel_y = POLY_Y(counter);
 885:STM32Cube_FW_N6/Utilities/lcd/stm32_lcd.c ****     if(pixel_y < image_top)
 886:STM32Cube_FW_N6/Utilities/lcd/stm32_lcd.c ****     {
 887:STM32Cube_FW_N6/Utilities/lcd/stm32_lcd.c ****       image_top = pixel_y;
 888:STM32Cube_FW_N6/Utilities/lcd/stm32_lcd.c ****     }
 889:STM32Cube_FW_N6/Utilities/lcd/stm32_lcd.c ****     if(pixel_y > image_bottom)
 890:STM32Cube_FW_N6/Utilities/lcd/stm32_lcd.c ****     {
 891:STM32Cube_FW_N6/Utilities/lcd/stm32_lcd.c ****       image_bottom = pixel_y;
 892:STM32Cube_FW_N6/Utilities/lcd/stm32_lcd.c ****     }
 893:STM32Cube_FW_N6/Utilities/lcd/stm32_lcd.c ****   }
 894:STM32Cube_FW_N6/Utilities/lcd/stm32_lcd.c **** 
 895:STM32Cube_FW_N6/Utilities/lcd/stm32_lcd.c ****   if(PointCount < 2)
 896:STM32Cube_FW_N6/Utilities/lcd/stm32_lcd.c ****   {
 897:STM32Cube_FW_N6/Utilities/lcd/stm32_lcd.c ****     return;
 898:STM32Cube_FW_N6/Utilities/lcd/stm32_lcd.c ****   }
 899:STM32Cube_FW_N6/Utilities/lcd/stm32_lcd.c **** 
 900:STM32Cube_FW_N6/Utilities/lcd/stm32_lcd.c ****   x_center = (image_left + image_right)/2;
 901:STM32Cube_FW_N6/Utilities/lcd/stm32_lcd.c ****   y_center = (image_bottom + image_top)/2;
 902:STM32Cube_FW_N6/Utilities/lcd/stm32_lcd.c **** 
 903:STM32Cube_FW_N6/Utilities/lcd/stm32_lcd.c ****   x_first = Points->X;
 904:STM32Cube_FW_N6/Utilities/lcd/stm32_lcd.c ****   y_first = Points->Y;
 905:STM32Cube_FW_N6/Utilities/lcd/stm32_lcd.c **** 
 906:STM32Cube_FW_N6/Utilities/lcd/stm32_lcd.c ****   while(--PointCount)
 907:STM32Cube_FW_N6/Utilities/lcd/stm32_lcd.c ****   {
 908:STM32Cube_FW_N6/Utilities/lcd/stm32_lcd.c ****     X = Points->X;
 909:STM32Cube_FW_N6/Utilities/lcd/stm32_lcd.c ****     Y = Points->Y;
 910:STM32Cube_FW_N6/Utilities/lcd/stm32_lcd.c ****     Points++;
 911:STM32Cube_FW_N6/Utilities/lcd/stm32_lcd.c ****     X2 = Points->X;
 912:STM32Cube_FW_N6/Utilities/lcd/stm32_lcd.c ****     Y2 = Points->Y;
 913:STM32Cube_FW_N6/Utilities/lcd/stm32_lcd.c ****     positions.x1 = X;
 914:STM32Cube_FW_N6/Utilities/lcd/stm32_lcd.c ****     positions.y1 = Y;
 915:STM32Cube_FW_N6/Utilities/lcd/stm32_lcd.c ****     positions.x2 = X2;
ARM GAS  C:\Users\DJESSOU\AppData\Local\Temp\ccR55SEh.s 			page 37


 916:STM32Cube_FW_N6/Utilities/lcd/stm32_lcd.c ****     positions.y2 = Y2;
 917:STM32Cube_FW_N6/Utilities/lcd/stm32_lcd.c ****     positions.x3 = x_center;
 918:STM32Cube_FW_N6/Utilities/lcd/stm32_lcd.c ****     positions.y3 = y_center;
 919:STM32Cube_FW_N6/Utilities/lcd/stm32_lcd.c ****     FillTriangle(&positions, Color);
 920:STM32Cube_FW_N6/Utilities/lcd/stm32_lcd.c **** 
 921:STM32Cube_FW_N6/Utilities/lcd/stm32_lcd.c ****     positions.x2 = x_center;
 922:STM32Cube_FW_N6/Utilities/lcd/stm32_lcd.c ****     positions.y2 = y_center;
 923:STM32Cube_FW_N6/Utilities/lcd/stm32_lcd.c ****     positions.x3 = X2;
 924:STM32Cube_FW_N6/Utilities/lcd/stm32_lcd.c ****     positions.y3 = Y2;
 925:STM32Cube_FW_N6/Utilities/lcd/stm32_lcd.c ****     FillTriangle(&positions, Color);
 926:STM32Cube_FW_N6/Utilities/lcd/stm32_lcd.c **** 
 927:STM32Cube_FW_N6/Utilities/lcd/stm32_lcd.c ****     positions.x1 = x_center;
 928:STM32Cube_FW_N6/Utilities/lcd/stm32_lcd.c ****     positions.y1 = y_center;
 929:STM32Cube_FW_N6/Utilities/lcd/stm32_lcd.c ****     positions.x2 = X2;
 930:STM32Cube_FW_N6/Utilities/lcd/stm32_lcd.c ****     positions.y2 = Y2;
 931:STM32Cube_FW_N6/Utilities/lcd/stm32_lcd.c ****     positions.x3 = X;
 932:STM32Cube_FW_N6/Utilities/lcd/stm32_lcd.c ****     positions.y3 = Y;
 933:STM32Cube_FW_N6/Utilities/lcd/stm32_lcd.c ****     FillTriangle(&positions, Color);
 934:STM32Cube_FW_N6/Utilities/lcd/stm32_lcd.c ****   }
 935:STM32Cube_FW_N6/Utilities/lcd/stm32_lcd.c **** 
 936:STM32Cube_FW_N6/Utilities/lcd/stm32_lcd.c ****     positions.x1 = x_first;
 937:STM32Cube_FW_N6/Utilities/lcd/stm32_lcd.c ****     positions.y1 = y_first;
 938:STM32Cube_FW_N6/Utilities/lcd/stm32_lcd.c ****     positions.x2 = X2;
 939:STM32Cube_FW_N6/Utilities/lcd/stm32_lcd.c ****     positions.y2 = Y2;
 940:STM32Cube_FW_N6/Utilities/lcd/stm32_lcd.c ****     positions.x3 = x_center;
 941:STM32Cube_FW_N6/Utilities/lcd/stm32_lcd.c ****     positions.y3 = y_center;
 942:STM32Cube_FW_N6/Utilities/lcd/stm32_lcd.c ****     FillTriangle(&positions, Color);
 943:STM32Cube_FW_N6/Utilities/lcd/stm32_lcd.c **** 
 944:STM32Cube_FW_N6/Utilities/lcd/stm32_lcd.c ****     positions.x2 = x_center;
 945:STM32Cube_FW_N6/Utilities/lcd/stm32_lcd.c ****     positions.y2 = y_center;
 946:STM32Cube_FW_N6/Utilities/lcd/stm32_lcd.c ****     positions.x3 = X2;
 947:STM32Cube_FW_N6/Utilities/lcd/stm32_lcd.c ****     positions.y3 = Y2;
 948:STM32Cube_FW_N6/Utilities/lcd/stm32_lcd.c ****     FillTriangle(&positions, Color);
 949:STM32Cube_FW_N6/Utilities/lcd/stm32_lcd.c **** 
 950:STM32Cube_FW_N6/Utilities/lcd/stm32_lcd.c ****     positions.x1 = x_center;
 951:STM32Cube_FW_N6/Utilities/lcd/stm32_lcd.c ****     positions.y1 = y_center;
 952:STM32Cube_FW_N6/Utilities/lcd/stm32_lcd.c ****     positions.x2 = X2;
 953:STM32Cube_FW_N6/Utilities/lcd/stm32_lcd.c ****     positions.y2 = Y2;
 954:STM32Cube_FW_N6/Utilities/lcd/stm32_lcd.c ****     positions.x3 = x_first;
 955:STM32Cube_FW_N6/Utilities/lcd/stm32_lcd.c ****     positions.y3 = y_first;
 956:STM32Cube_FW_N6/Utilities/lcd/stm32_lcd.c ****     FillTriangle(&positions, Color);
 957:STM32Cube_FW_N6/Utilities/lcd/stm32_lcd.c **** }
 958:STM32Cube_FW_N6/Utilities/lcd/stm32_lcd.c **** 
 959:STM32Cube_FW_N6/Utilities/lcd/stm32_lcd.c **** /**
 960:STM32Cube_FW_N6/Utilities/lcd/stm32_lcd.c ****   * @brief  Draws a full ellipse in currently active layer.
 961:STM32Cube_FW_N6/Utilities/lcd/stm32_lcd.c ****   * @param  Xpos    X position
 962:STM32Cube_FW_N6/Utilities/lcd/stm32_lcd.c ****   * @param  Ypos    Y position
 963:STM32Cube_FW_N6/Utilities/lcd/stm32_lcd.c ****   * @param  XRadius Ellipse X radius
 964:STM32Cube_FW_N6/Utilities/lcd/stm32_lcd.c ****   * @param  YRadius Ellipse Y radius
 965:STM32Cube_FW_N6/Utilities/lcd/stm32_lcd.c ****   * @param  Color   Draw color
 966:STM32Cube_FW_N6/Utilities/lcd/stm32_lcd.c ****   */
 967:STM32Cube_FW_N6/Utilities/lcd/stm32_lcd.c **** void UTIL_LCD_FillEllipse(int Xpos, int Ypos, int XRadius, int YRadius, uint32_t Color)
 968:STM32Cube_FW_N6/Utilities/lcd/stm32_lcd.c **** {
 969:STM32Cube_FW_N6/Utilities/lcd/stm32_lcd.c ****   int x_pos = 0, y_pos = -YRadius, err = 2-2*XRadius, e2;
 970:STM32Cube_FW_N6/Utilities/lcd/stm32_lcd.c ****   float k = 0, rad1 = 0, rad2 = 0;
 971:STM32Cube_FW_N6/Utilities/lcd/stm32_lcd.c **** 
 972:STM32Cube_FW_N6/Utilities/lcd/stm32_lcd.c ****   rad1 = XRadius;
ARM GAS  C:\Users\DJESSOU\AppData\Local\Temp\ccR55SEh.s 			page 38


 973:STM32Cube_FW_N6/Utilities/lcd/stm32_lcd.c ****   rad2 = YRadius;
 974:STM32Cube_FW_N6/Utilities/lcd/stm32_lcd.c **** 
 975:STM32Cube_FW_N6/Utilities/lcd/stm32_lcd.c ****   k = (float)(rad2/rad1);
 976:STM32Cube_FW_N6/Utilities/lcd/stm32_lcd.c **** 
 977:STM32Cube_FW_N6/Utilities/lcd/stm32_lcd.c ****   do
 978:STM32Cube_FW_N6/Utilities/lcd/stm32_lcd.c ****   {
 979:STM32Cube_FW_N6/Utilities/lcd/stm32_lcd.c ****     UTIL_LCD_DrawHLine((Xpos-(uint32_t)(x_pos/k)), (Ypos + y_pos), (2*(uint32_t)(x_pos/k) + 1), Col
 980:STM32Cube_FW_N6/Utilities/lcd/stm32_lcd.c ****     UTIL_LCD_DrawHLine((Xpos-(uint32_t)(x_pos/k)), (Ypos - y_pos), (2*(uint32_t)(x_pos/k) + 1), Col
 981:STM32Cube_FW_N6/Utilities/lcd/stm32_lcd.c **** 
 982:STM32Cube_FW_N6/Utilities/lcd/stm32_lcd.c ****     e2 = err;
 983:STM32Cube_FW_N6/Utilities/lcd/stm32_lcd.c ****     if (e2 <= x_pos)
 984:STM32Cube_FW_N6/Utilities/lcd/stm32_lcd.c ****     {
 985:STM32Cube_FW_N6/Utilities/lcd/stm32_lcd.c ****       err += ++x_pos*2+1;
 986:STM32Cube_FW_N6/Utilities/lcd/stm32_lcd.c ****       if (-y_pos == x_pos && e2 <= y_pos) e2 = 0;
 987:STM32Cube_FW_N6/Utilities/lcd/stm32_lcd.c ****     }
 988:STM32Cube_FW_N6/Utilities/lcd/stm32_lcd.c ****     if (e2 > y_pos) err += ++y_pos*2+1;
 989:STM32Cube_FW_N6/Utilities/lcd/stm32_lcd.c ****   }
 990:STM32Cube_FW_N6/Utilities/lcd/stm32_lcd.c ****   while (y_pos <= 0);
 991:STM32Cube_FW_N6/Utilities/lcd/stm32_lcd.c **** }
 992:STM32Cube_FW_N6/Utilities/lcd/stm32_lcd.c **** 
 993:STM32Cube_FW_N6/Utilities/lcd/stm32_lcd.c **** /**
 994:STM32Cube_FW_N6/Utilities/lcd/stm32_lcd.c ****   * @brief  Draws a character on LCD.
 995:STM32Cube_FW_N6/Utilities/lcd/stm32_lcd.c ****   * @param  Xpos  Line where to display the character shape
 996:STM32Cube_FW_N6/Utilities/lcd/stm32_lcd.c ****   * @param  Ypos  Start column address
 997:STM32Cube_FW_N6/Utilities/lcd/stm32_lcd.c ****   * @param  pData Pointer to the character data
 998:STM32Cube_FW_N6/Utilities/lcd/stm32_lcd.c ****   */
 999:STM32Cube_FW_N6/Utilities/lcd/stm32_lcd.c **** static void DrawChar(uint32_t Xpos, uint32_t Ypos, const uint8_t *pData)
 1054              		.loc 1 999 13 is_stmt 1 view .LVU248
 1055              	.LBB5:
1000:STM32Cube_FW_N6/Utilities/lcd/stm32_lcd.c **** {
1001:STM32Cube_FW_N6/Utilities/lcd/stm32_lcd.c ****   uint32_t i = 0, j = 0, offset;
 1056              		.loc 1 1001 3 view .LVU249
1002:STM32Cube_FW_N6/Utilities/lcd/stm32_lcd.c ****   uint32_t height, width;
 1057              		.loc 1 1002 3 view .LVU250
1003:STM32Cube_FW_N6/Utilities/lcd/stm32_lcd.c ****   uint8_t  *pchar;
 1058              		.loc 1 1003 3 view .LVU251
1004:STM32Cube_FW_N6/Utilities/lcd/stm32_lcd.c ****   uint32_t line;
 1059              		.loc 1 1004 3 view .LVU252
1005:STM32Cube_FW_N6/Utilities/lcd/stm32_lcd.c **** 
1006:STM32Cube_FW_N6/Utilities/lcd/stm32_lcd.c ****   height = DrawProp[DrawProp->LcdLayer].pFont->Height;
 1060              		.loc 1 1006 3 view .LVU253
1007:STM32Cube_FW_N6/Utilities/lcd/stm32_lcd.c ****   width  = DrawProp[DrawProp->LcdLayer].pFont->Width;
 1061              		.loc 1 1007 3 view .LVU254
1008:STM32Cube_FW_N6/Utilities/lcd/stm32_lcd.c **** 
1009:STM32Cube_FW_N6/Utilities/lcd/stm32_lcd.c ****   uint8_t rgb8[24*4];
 1062              		.loc 1 1009 3 view .LVU255
1010:STM32Cube_FW_N6/Utilities/lcd/stm32_lcd.c ****   uint16_t* rgb16 = (uint16_t*)rgb8;
 1063              		.loc 1 1010 3 view .LVU256
1011:STM32Cube_FW_N6/Utilities/lcd/stm32_lcd.c ****   uint32_t* argb32 = (uint32_t*)rgb8;
 1064              		.loc 1 1011 3 view .LVU257
1012:STM32Cube_FW_N6/Utilities/lcd/stm32_lcd.c ****   uint16_t* argb4444 = (uint16_t*)rgb8;
 1065              		.loc 1 1012 3 view .LVU258
1013:STM32Cube_FW_N6/Utilities/lcd/stm32_lcd.c **** 
1014:STM32Cube_FW_N6/Utilities/lcd/stm32_lcd.c ****   offset =  8 *((width + 7)/8) -  width ;
 1066              		.loc 1 1014 3 view .LVU259
 1067              	.LBE5:
 1068              	.LBE4:
ARM GAS  C:\Users\DJESSOU\AppData\Local\Temp\ccR55SEh.s 			page 39


 433:STM32Cube_FW_N6/Utilities/lcd/stm32_lcd.c **** }
 1069              		.loc 1 433 37 is_stmt 0 view .LVU260
 1070 001c 0793     		str	r3, [sp, #28]
 1071              	.LVL66:
 1072              	.LBB9:
 1073              	.LBB6:
 1074              		.loc 1 1014 24 view .LVU261
 1075 001e E31D     		adds	r3, r4, #7
 1076              	.LVL67:
 1077              		.loc 1 1014 15 view .LVU262
 1078 0020 23F00700 		bic	r0, r3, #7
 1079              	.LVL68:
 1080              		.loc 1 1014 15 view .LVU263
 1081 0024 0390     		str	r0, [sp, #12]
 1082              	.LVL69:
1015:STM32Cube_FW_N6/Utilities/lcd/stm32_lcd.c **** 
1016:STM32Cube_FW_N6/Utilities/lcd/stm32_lcd.c ****   for(i = 0; i < height; i++)
 1083              		.loc 1 1016 3 is_stmt 1 view .LVU264
1017:STM32Cube_FW_N6/Utilities/lcd/stm32_lcd.c ****   {
1018:STM32Cube_FW_N6/Utilities/lcd/stm32_lcd.c ****     pchar = ((uint8_t *)pData + (width + 7)/8 * i);
 1084              		.loc 1 1018 44 is_stmt 0 view .LVU265
 1085 0026 D808     		lsrs	r0, r3, #3
 1086              	.LVL70:
 1087              		.loc 1 1018 44 view .LVU266
 1088 0028 0690     		str	r0, [sp, #24]
1019:STM32Cube_FW_N6/Utilities/lcd/stm32_lcd.c **** 
1020:STM32Cube_FW_N6/Utilities/lcd/stm32_lcd.c ****     switch(((width + 7)/8))
1021:STM32Cube_FW_N6/Utilities/lcd/stm32_lcd.c ****     {
1022:STM32Cube_FW_N6/Utilities/lcd/stm32_lcd.c **** 
1023:STM32Cube_FW_N6/Utilities/lcd/stm32_lcd.c ****     case 1:
1024:STM32Cube_FW_N6/Utilities/lcd/stm32_lcd.c ****       line =  pchar[0];
1025:STM32Cube_FW_N6/Utilities/lcd/stm32_lcd.c ****       break;
1026:STM32Cube_FW_N6/Utilities/lcd/stm32_lcd.c **** 
1027:STM32Cube_FW_N6/Utilities/lcd/stm32_lcd.c ****     case 2:
1028:STM32Cube_FW_N6/Utilities/lcd/stm32_lcd.c ****       line =  (pchar[0]<< 8) | pchar[1];
1029:STM32Cube_FW_N6/Utilities/lcd/stm32_lcd.c ****       break;
1030:STM32Cube_FW_N6/Utilities/lcd/stm32_lcd.c **** 
1031:STM32Cube_FW_N6/Utilities/lcd/stm32_lcd.c ****     case 3:
1032:STM32Cube_FW_N6/Utilities/lcd/stm32_lcd.c ****     default:
1033:STM32Cube_FW_N6/Utilities/lcd/stm32_lcd.c ****       line =  (pchar[0]<< 16) | (pchar[1]<< 8) | pchar[2];
1034:STM32Cube_FW_N6/Utilities/lcd/stm32_lcd.c ****       break;
1035:STM32Cube_FW_N6/Utilities/lcd/stm32_lcd.c ****     }
1036:STM32Cube_FW_N6/Utilities/lcd/stm32_lcd.c **** 
1037:STM32Cube_FW_N6/Utilities/lcd/stm32_lcd.c ****     if(DrawProp[DrawProp->LcdLayer].LcdPixelFormat == LCD_PIXEL_FORMAT_RGB565)
1038:STM32Cube_FW_N6/Utilities/lcd/stm32_lcd.c ****     {
1039:STM32Cube_FW_N6/Utilities/lcd/stm32_lcd.c ****       for (j = 0; j < width; j++)
1040:STM32Cube_FW_N6/Utilities/lcd/stm32_lcd.c ****       {
1041:STM32Cube_FW_N6/Utilities/lcd/stm32_lcd.c ****         if(line & (1 << (width- j + offset- 1)))
1042:STM32Cube_FW_N6/Utilities/lcd/stm32_lcd.c ****         {
1043:STM32Cube_FW_N6/Utilities/lcd/stm32_lcd.c ****           rgb16[j] = CONVERTARGB88882RGB565(DrawProp[DrawProp->LcdLayer].TextColor);
1044:STM32Cube_FW_N6/Utilities/lcd/stm32_lcd.c ****         }
1045:STM32Cube_FW_N6/Utilities/lcd/stm32_lcd.c ****         else
1046:STM32Cube_FW_N6/Utilities/lcd/stm32_lcd.c ****         {
1047:STM32Cube_FW_N6/Utilities/lcd/stm32_lcd.c ****           rgb16[j] = CONVERTARGB88882RGB565(DrawProp[DrawProp->LcdLayer].BackColor);
1048:STM32Cube_FW_N6/Utilities/lcd/stm32_lcd.c ****         }
1049:STM32Cube_FW_N6/Utilities/lcd/stm32_lcd.c ****       }
1050:STM32Cube_FW_N6/Utilities/lcd/stm32_lcd.c ****       UTIL_LCD_FillRGBRect(Xpos,  Ypos++, &rgb8[0], width, 1);
ARM GAS  C:\Users\DJESSOU\AppData\Local\Temp\ccR55SEh.s 			page 40


1051:STM32Cube_FW_N6/Utilities/lcd/stm32_lcd.c ****     }
1052:STM32Cube_FW_N6/Utilities/lcd/stm32_lcd.c ****     else if(DrawProp[DrawProp->LcdLayer].LcdPixelFormat == LCD_PIXEL_FORMAT_RGB888)
1053:STM32Cube_FW_N6/Utilities/lcd/stm32_lcd.c ****     {
1054:STM32Cube_FW_N6/Utilities/lcd/stm32_lcd.c ****       for (j = 0; j < width*3; j = j+ 3)
 1089              		.loc 1 1054 28 discriminator 1 view .LVU267
 1090 002a 04EB4400 		add	r0, r4, r4, lsl #1
 1091 002e 0990     		str	r0, [sp, #36]
 1092 0030 0898     		ldr	r0, [sp, #32]
 1093              	.LBE6:
 1094              	.LBE9:
 432:STM32Cube_FW_N6/Utilities/lcd/stm32_lcd.c ****   DrawProp[DrawProp->LcdLayer].pFont->Height * ((DrawProp[DrawProp->LcdLayer].pFont->Width + 7) / 8
 1095              		.loc 1 432 73 view .LVU268
 1096 0032 203A     		subs	r2, r2, #32
 1097              	.LVL71:
 432:STM32Cube_FW_N6/Utilities/lcd/stm32_lcd.c ****   DrawProp[DrawProp->LcdLayer].pFont->Height * ((DrawProp[DrawProp->LcdLayer].pFont->Width + 7) / 8
 1098              		.loc 1 432 73 view .LVU269
 1099 0034 0130     		adds	r0, r0, #1
 1100 0036 0490     		str	r0, [sp, #16]
 432:STM32Cube_FW_N6/Utilities/lcd/stm32_lcd.c ****   DrawProp[DrawProp->LcdLayer].pFont->Height * ((DrawProp[DrawProp->LcdLayer].pFont->Width + 7) / 8
 1101              		.loc 1 432 79 view .LVU270
 1102 0038 0798     		ldr	r0, [sp, #28]
 1103 003a 0D68     		ldr	r5, [r1]
 1104 003c 4243     		muls	r2, r0, r2
 433:STM32Cube_FW_N6/Utilities/lcd/stm32_lcd.c **** }
 1105              		.loc 1 433 97 view .LVU271
 1106 003e DB10     		asrs	r3, r3, #3
 1107              	.LVL72:
 433:STM32Cube_FW_N6/Utilities/lcd/stm32_lcd.c **** }
 1108              		.loc 1 433 97 view .LVU272
 1109 0040 03FB0255 		mla	r5, r3, r2, r5
 1110              	.LVL73:
 1111              	.L67:
 433:STM32Cube_FW_N6/Utilities/lcd/stm32_lcd.c **** }
 1112              		.loc 1 433 97 view .LVU273
 1113 0044 049B     		ldr	r3, [sp, #16]
 1114              	.LBB10:
 1115              	.LBB7:
1016:STM32Cube_FW_N6/Utilities/lcd/stm32_lcd.c ****   {
 1116              		.loc 1 1016 16 discriminator 1 view .LVU274
 1117 0046 089A     		ldr	r2, [sp, #32]
 1118 0048 591E     		subs	r1, r3, #1
 1119              	.LVL74:
1016:STM32Cube_FW_N6/Utilities/lcd/stm32_lcd.c ****   {
 1120              		.loc 1 1016 16 is_stmt 1 discriminator 1 view .LVU275
 1121 004a 9B1A     		subs	r3, r3, r2
 1122              	.LVL75:
1016:STM32Cube_FW_N6/Utilities/lcd/stm32_lcd.c ****   {
 1123              		.loc 1 1016 16 is_stmt 0 discriminator 1 view .LVU276
 1124 004c 079A     		ldr	r2, [sp, #28]
 1125              	.LVL76:
1016:STM32Cube_FW_N6/Utilities/lcd/stm32_lcd.c ****   {
 1126              		.loc 1 1016 16 discriminator 1 view .LVU277
 1127 004e 013B     		subs	r3, r3, #1
 1128 0050 9A42     		cmp	r2, r3
 1129 0052 02D8     		bhi	.L91
 1130              	.LBE7:
 1131              	.LBE10:
ARM GAS  C:\Users\DJESSOU\AppData\Local\Temp\ccR55SEh.s 			page 41


 434:STM32Cube_FW_N6/Utilities/lcd/stm32_lcd.c **** 
 1132              		.loc 1 434 1 view .LVU278
 1133 0054 23B0     		add	sp, sp, #140
 1134              		.cfi_remember_state
 1135              		.cfi_def_cfa_offset 36
 1136              		@ sp needed
 1137 0056 BDE8F08F 		pop	{r4, r5, r6, r7, r8, r9, r10, fp, pc}
 1138              	.LVL77:
 1139              	.L91:
 1140              		.cfi_restore_state
 1141              	.LBB11:
 1142              	.LBB8:
1018:STM32Cube_FW_N6/Utilities/lcd/stm32_lcd.c **** 
 1143              		.loc 1 1018 5 is_stmt 1 view .LVU279
1020:STM32Cube_FW_N6/Utilities/lcd/stm32_lcd.c ****     {
 1144              		.loc 1 1020 5 view .LVU280
 1145 005a 0698     		ldr	r0, [sp, #24]
1024:STM32Cube_FW_N6/Utilities/lcd/stm32_lcd.c ****       break;
 1146              		.loc 1 1024 20 is_stmt 0 view .LVU281
 1147 005c 2B78     		ldrb	r3, [r5]	@ zero_extendqisi2
1020:STM32Cube_FW_N6/Utilities/lcd/stm32_lcd.c ****     {
 1148              		.loc 1 1020 5 view .LVU282
 1149 005e 0128     		cmp	r0, #1
1024:STM32Cube_FW_N6/Utilities/lcd/stm32_lcd.c ****       break;
 1150              		.loc 1 1024 12 view .LVU283
 1151 0060 1A46     		mov	r2, r3
1020:STM32Cube_FW_N6/Utilities/lcd/stm32_lcd.c ****     {
 1152              		.loc 1 1020 5 view .LVU284
 1153 0062 04D0     		beq	.L71
 1154 0064 0228     		cmp	r0, #2
 1155 0066 27D1     		bne	.L95
1028:STM32Cube_FW_N6/Utilities/lcd/stm32_lcd.c ****       break;
 1156              		.loc 1 1028 7 is_stmt 1 view .LVU285
1028:STM32Cube_FW_N6/Utilities/lcd/stm32_lcd.c ****       break;
 1157              		.loc 1 1028 12 is_stmt 0 view .LVU286
 1158 0068 2A88     		ldrh	r2, [r5]	@ unaligned
 1159 006a 52BA     		rev16	r2, r2
 1160 006c 92B2     		uxth	r2, r2
 1161              	.LVL78:
1029:STM32Cube_FW_N6/Utilities/lcd/stm32_lcd.c **** 
 1162              		.loc 1 1029 7 is_stmt 1 view .LVU287
 1163              	.L71:
1037:STM32Cube_FW_N6/Utilities/lcd/stm32_lcd.c ****     {
 1164              		.loc 1 1037 5 view .LVU288
1037:STM32Cube_FW_N6/Utilities/lcd/stm32_lcd.c ****     {
 1165              		.loc 1 1037 25 is_stmt 0 view .LVU289
 1166 006e D8F80C00 		ldr	r0, [r8, #12]
1037:STM32Cube_FW_N6/Utilities/lcd/stm32_lcd.c ****     {
 1167              		.loc 1 1037 36 view .LVU290
 1168 0072 08EB4010 		add	r0, r8, r0, lsl #5
 1169 0076 C769     		ldr	r7, [r0, #28]
1037:STM32Cube_FW_N6/Utilities/lcd/stm32_lcd.c ****     {
 1170              		.loc 1 1037 7 view .LVU291
 1171 0078 022F     		cmp	r7, #2
 1172 007a 3CD1     		bne	.L72
 1173 007c 4FF0010C 		mov	ip, #1
1041:STM32Cube_FW_N6/Utilities/lcd/stm32_lcd.c ****         {
ARM GAS  C:\Users\DJESSOU\AppData\Local\Temp\ccR55SEh.s 			page 42


 1174              		.loc 1 1041 43 view .LVU292
 1175 0080 039B     		ldr	r3, [sp, #12]
1039:STM32Cube_FW_N6/Utilities/lcd/stm32_lcd.c ****       {
 1176              		.loc 1 1039 14 view .LVU293
 1177 0082 4FF0000E 		mov	lr, #0
1041:STM32Cube_FW_N6/Utilities/lcd/stm32_lcd.c ****         {
 1178              		.loc 1 1041 43 view .LVU294
 1179 0086 03F1FF3A 		add	r10, r3, #-1
 1180 008a 6346     		mov	r3, ip
 1181 008c 7445     		cmp	r4, lr
 1182 008e 04EB0306 		add	r6, r4, r3
 1183 0092 08BF     		it	eq
 1184 0094 6646     		moveq	r6, ip
 1185 0096 0DF12809 		add	r9, sp, #40
 1186              	.LVL79:
 1187              	.L73:
1039:STM32Cube_FW_N6/Utilities/lcd/stm32_lcd.c ****       {
 1188              		.loc 1 1039 21 is_stmt 1 discriminator 1 view .LVU295
 1189 009a 013E     		subs	r6, r6, #1
 1190 009c 13D1     		bne	.L76
 1191              	.L101:
1055:STM32Cube_FW_N6/Utilities/lcd/stm32_lcd.c ****       {
1056:STM32Cube_FW_N6/Utilities/lcd/stm32_lcd.c ****         if(line & (1 << (width- j/3 + offset- 1)))
1057:STM32Cube_FW_N6/Utilities/lcd/stm32_lcd.c ****         {
1058:STM32Cube_FW_N6/Utilities/lcd/stm32_lcd.c ****           rgb8[j] = CONVERTARGB88882RGB888((DrawProp[DrawProp->LcdLayer].TextColor)) & 0xFFU;
1059:STM32Cube_FW_N6/Utilities/lcd/stm32_lcd.c ****           rgb8[j + 1U] = (CONVERTARGB88882RGB888((DrawProp[DrawProp->LcdLayer].TextColor)) >> 8) & 
1060:STM32Cube_FW_N6/Utilities/lcd/stm32_lcd.c ****           rgb8[j + 2U] = (CONVERTARGB88882RGB888((DrawProp[DrawProp->LcdLayer].TextColor)) >> 16) &
1061:STM32Cube_FW_N6/Utilities/lcd/stm32_lcd.c ****         }
1062:STM32Cube_FW_N6/Utilities/lcd/stm32_lcd.c ****         else
1063:STM32Cube_FW_N6/Utilities/lcd/stm32_lcd.c ****         {
1064:STM32Cube_FW_N6/Utilities/lcd/stm32_lcd.c ****           rgb8[j] = CONVERTARGB88882RGB888((DrawProp[DrawProp->LcdLayer].BackColor)) & 0xFFU;
1065:STM32Cube_FW_N6/Utilities/lcd/stm32_lcd.c ****           rgb8[j + 1U] = (CONVERTARGB88882RGB888((DrawProp[DrawProp->LcdLayer].BackColor)) >> 8) & 
1066:STM32Cube_FW_N6/Utilities/lcd/stm32_lcd.c ****           rgb8[j + 2U] = (CONVERTARGB88882RGB888((DrawProp[DrawProp->LcdLayer].BackColor)) >> 16) &
1067:STM32Cube_FW_N6/Utilities/lcd/stm32_lcd.c ****         }
1068:STM32Cube_FW_N6/Utilities/lcd/stm32_lcd.c ****       }
1069:STM32Cube_FW_N6/Utilities/lcd/stm32_lcd.c **** 
1070:STM32Cube_FW_N6/Utilities/lcd/stm32_lcd.c ****       UTIL_LCD_FillRGBRect(Xpos,  Ypos++, &rgb8[0], width, 1);
1071:STM32Cube_FW_N6/Utilities/lcd/stm32_lcd.c ****     }
1072:STM32Cube_FW_N6/Utilities/lcd/stm32_lcd.c ****     else if(DrawProp[DrawProp->LcdLayer].LcdPixelFormat == LCD_PIXEL_FORMAT_ARGB4444)
1073:STM32Cube_FW_N6/Utilities/lcd/stm32_lcd.c ****     {
1074:STM32Cube_FW_N6/Utilities/lcd/stm32_lcd.c ****       for (j = 0; j < width; j++)
1075:STM32Cube_FW_N6/Utilities/lcd/stm32_lcd.c ****       {
1076:STM32Cube_FW_N6/Utilities/lcd/stm32_lcd.c ****         if(line & (1 << (width- j + offset- 1)))
1077:STM32Cube_FW_N6/Utilities/lcd/stm32_lcd.c ****         {
1078:STM32Cube_FW_N6/Utilities/lcd/stm32_lcd.c ****           argb4444[j] = CONVERTARGB88882ARGB4444(DrawProp[DrawProp->LcdLayer].TextColor);
1079:STM32Cube_FW_N6/Utilities/lcd/stm32_lcd.c ****         }
1080:STM32Cube_FW_N6/Utilities/lcd/stm32_lcd.c ****         else
1081:STM32Cube_FW_N6/Utilities/lcd/stm32_lcd.c ****         {
1082:STM32Cube_FW_N6/Utilities/lcd/stm32_lcd.c ****           argb4444[j] = CONVERTARGB88882ARGB4444(DrawProp[DrawProp->LcdLayer].BackColor);
1083:STM32Cube_FW_N6/Utilities/lcd/stm32_lcd.c ****         }
1084:STM32Cube_FW_N6/Utilities/lcd/stm32_lcd.c ****       }
1085:STM32Cube_FW_N6/Utilities/lcd/stm32_lcd.c ****       UTIL_LCD_FillRGBRect(Xpos,  Ypos++, (uint8_t*)&argb4444[0], width, 1);
 1192              		.loc 1 1085 7 view .LVU296
 1193              	.LVL80:
 1194              		.loc 1 1085 7 is_stmt 0 view .LVU297
 1195 009e CDF800C0 		str	ip, [sp]
 1196              	.LVL81:
ARM GAS  C:\Users\DJESSOU\AppData\Local\Temp\ccR55SEh.s 			page 43


 1197              	.L99:
1086:STM32Cube_FW_N6/Utilities/lcd/stm32_lcd.c ****     }
1087:STM32Cube_FW_N6/Utilities/lcd/stm32_lcd.c ****     else /*LCD_PIXEL_FORMAT_ARGB888*/
1088:STM32Cube_FW_N6/Utilities/lcd/stm32_lcd.c ****     {
1089:STM32Cube_FW_N6/Utilities/lcd/stm32_lcd.c ****       for (j = 0; j < width; j++)
1090:STM32Cube_FW_N6/Utilities/lcd/stm32_lcd.c ****       {
1091:STM32Cube_FW_N6/Utilities/lcd/stm32_lcd.c ****         if(line & (1 << (width- j + offset- 1)))
1092:STM32Cube_FW_N6/Utilities/lcd/stm32_lcd.c ****         {
1093:STM32Cube_FW_N6/Utilities/lcd/stm32_lcd.c ****           argb32[j] = DrawProp[DrawProp->LcdLayer].TextColor;
1094:STM32Cube_FW_N6/Utilities/lcd/stm32_lcd.c ****         }
1095:STM32Cube_FW_N6/Utilities/lcd/stm32_lcd.c ****         else
1096:STM32Cube_FW_N6/Utilities/lcd/stm32_lcd.c ****         {
1097:STM32Cube_FW_N6/Utilities/lcd/stm32_lcd.c ****           argb32[j] = DrawProp[DrawProp->LcdLayer].BackColor;
1098:STM32Cube_FW_N6/Utilities/lcd/stm32_lcd.c ****         }
1099:STM32Cube_FW_N6/Utilities/lcd/stm32_lcd.c ****       }
1100:STM32Cube_FW_N6/Utilities/lcd/stm32_lcd.c ****       UTIL_LCD_FillRGBRect(Xpos,  Ypos++, &rgb8[0], width, 1);
 1198              		.loc 1 1100 7 view .LVU298
 1199 00a2 2346     		mov	r3, r4
 1200 00a4 0598     		ldr	r0, [sp, #20]
 1201 00a6 0AAA     		add	r2, sp, #40
 1202              	.LVL82:
 1203              		.loc 1 1100 7 view .LVU299
 1204 00a8 FFF7FEFF 		bl	UTIL_LCD_FillRGBRect
 1205              	.LVL83:
1016:STM32Cube_FW_N6/Utilities/lcd/stm32_lcd.c ****   {
 1206              		.loc 1 1016 27 is_stmt 1 discriminator 2 view .LVU300
1016:STM32Cube_FW_N6/Utilities/lcd/stm32_lcd.c ****   {
 1207              		.loc 1 1016 27 is_stmt 0 discriminator 2 view .LVU301
 1208 00ac 049B     		ldr	r3, [sp, #16]
 1209 00ae 0133     		adds	r3, r3, #1
 1210 00b0 0493     		str	r3, [sp, #16]
 1211              	.LVL84:
1016:STM32Cube_FW_N6/Utilities/lcd/stm32_lcd.c ****   {
 1212              		.loc 1 1016 27 discriminator 2 view .LVU302
 1213 00b2 069B     		ldr	r3, [sp, #24]
 1214              	.LVL85:
1016:STM32Cube_FW_N6/Utilities/lcd/stm32_lcd.c ****   {
 1215              		.loc 1 1016 27 discriminator 2 view .LVU303
 1216 00b4 1D44     		add	r5, r5, r3
 1217              	.LVL86:
1016:STM32Cube_FW_N6/Utilities/lcd/stm32_lcd.c ****   {
 1218              		.loc 1 1016 27 discriminator 2 view .LVU304
 1219 00b6 C5E7     		b	.L67
 1220              	.LVL87:
 1221              	.L95:
1033:STM32Cube_FW_N6/Utilities/lcd/stm32_lcd.c ****       break;
 1222              		.loc 1 1033 7 is_stmt 1 view .LVU305
1033:STM32Cube_FW_N6/Utilities/lcd/stm32_lcd.c ****       break;
 1223              		.loc 1 1033 39 is_stmt 0 view .LVU306
 1224 00b8 6A78     		ldrb	r2, [r5, #1]	@ zero_extendqisi2
1033:STM32Cube_FW_N6/Utilities/lcd/stm32_lcd.c ****       break;
 1225              		.loc 1 1033 24 view .LVU307
 1226 00ba 1B04     		lsls	r3, r3, #16
1033:STM32Cube_FW_N6/Utilities/lcd/stm32_lcd.c ****       break;
 1227              		.loc 1 1033 31 view .LVU308
 1228 00bc 43EA0223 		orr	r3, r3, r2, lsl #8
1033:STM32Cube_FW_N6/Utilities/lcd/stm32_lcd.c ****       break;
ARM GAS  C:\Users\DJESSOU\AppData\Local\Temp\ccR55SEh.s 			page 44


 1229              		.loc 1 1033 55 view .LVU309
 1230 00c0 AA78     		ldrb	r2, [r5, #2]	@ zero_extendqisi2
1033:STM32Cube_FW_N6/Utilities/lcd/stm32_lcd.c ****       break;
 1231              		.loc 1 1033 48 view .LVU310
 1232 00c2 1A43     		orrs	r2, r2, r3
 1233              	.LVL88:
1034:STM32Cube_FW_N6/Utilities/lcd/stm32_lcd.c ****     }
 1234              		.loc 1 1034 7 is_stmt 1 view .LVU311
 1235 00c4 D3E7     		b	.L71
 1236              	.LVL89:
 1237              	.L76:
1041:STM32Cube_FW_N6/Utilities/lcd/stm32_lcd.c ****         {
 1238              		.loc 1 1041 9 view .LVU312
1041:STM32Cube_FW_N6/Utilities/lcd/stm32_lcd.c ****         {
 1239              		.loc 1 1041 43 is_stmt 0 view .LVU313
 1240 00c6 AAEB0E03 		sub	r3, r10, lr
1041:STM32Cube_FW_N6/Utilities/lcd/stm32_lcd.c ****         {
 1241              		.loc 1 1041 22 view .LVU314
 1242 00ca 0CFA03F3 		lsl	r3, ip, r3
1041:STM32Cube_FW_N6/Utilities/lcd/stm32_lcd.c ****         {
 1243              		.loc 1 1041 11 view .LVU315
 1244 00ce 1342     		tst	r3, r2
1043:STM32Cube_FW_N6/Utilities/lcd/stm32_lcd.c ****         }
 1245              		.loc 1 1043 11 is_stmt 1 view .LVU316
1043:STM32Cube_FW_N6/Utilities/lcd/stm32_lcd.c ****         }
 1246              		.loc 1 1043 22 is_stmt 0 view .LVU317
 1247 00d0 14BF     		ite	ne
 1248 00d2 0768     		ldrne	r7, [r0]
1047:STM32Cube_FW_N6/Utilities/lcd/stm32_lcd.c ****         }
 1249              		.loc 1 1047 11 is_stmt 1 view .LVU318
1047:STM32Cube_FW_N6/Utilities/lcd/stm32_lcd.c ****         }
 1250              		.loc 1 1047 22 is_stmt 0 view .LVU319
 1251 00d4 4768     		ldreq	r7, [r0, #4]
1039:STM32Cube_FW_N6/Utilities/lcd/stm32_lcd.c ****       {
 1252              		.loc 1 1039 31 discriminator 2 view .LVU320
 1253 00d6 0EF1010E 		add	lr, lr, #1
 1254              	.LVL90:
1047:STM32Cube_FW_N6/Utilities/lcd/stm32_lcd.c ****         }
 1255              		.loc 1 1047 22 view .LVU321
 1256 00da C7F3C403 		ubfx	r3, r7, #3, #5
 1257 00de 4FEAD74B 		lsr	fp, r7, #19
 1258 00e2 7F09     		lsrs	r7, r7, #5
 1259 00e4 43EACB23 		orr	r3, r3, fp, lsl #11
 1260 00e8 07F4FC67 		and	r7, r7, #2016
 1261 00ec 3B43     		orrs	r3, r3, r7
 1262 00ee 9BB2     		uxth	r3, r3
1043:STM32Cube_FW_N6/Utilities/lcd/stm32_lcd.c ****         }
 1263              		.loc 1 1043 20 view .LVU322
 1264 00f0 29F8023B 		strh	r3, [r9], #2	@ movhi
1039:STM32Cube_FW_N6/Utilities/lcd/stm32_lcd.c ****       {
 1265              		.loc 1 1039 31 is_stmt 1 discriminator 2 view .LVU323
 1266              	.LVL91:
1039:STM32Cube_FW_N6/Utilities/lcd/stm32_lcd.c ****       {
 1267              		.loc 1 1039 31 is_stmt 0 discriminator 2 view .LVU324
 1268 00f4 D1E7     		b	.L73
 1269              	.LVL92:
 1270              	.L72:
ARM GAS  C:\Users\DJESSOU\AppData\Local\Temp\ccR55SEh.s 			page 45


1052:STM32Cube_FW_N6/Utilities/lcd/stm32_lcd.c ****     {
 1271              		.loc 1 1052 10 is_stmt 1 view .LVU325
1052:STM32Cube_FW_N6/Utilities/lcd/stm32_lcd.c ****     {
 1272              		.loc 1 1052 12 is_stmt 0 view .LVU326
 1273 00f6 012F     		cmp	r7, #1
 1274 00f8 26D1     		bne	.L78
1054:STM32Cube_FW_N6/Utilities/lcd/stm32_lcd.c ****       {
 1275              		.loc 1 1054 14 view .LVU327
 1276 00fa 4FF0000C 		mov	ip, #0
1056:STM32Cube_FW_N6/Utilities/lcd/stm32_lcd.c ****         {
 1277              		.loc 1 1056 34 view .LVU328
 1278 00fe 4FF0030B 		mov	fp, #3
1056:STM32Cube_FW_N6/Utilities/lcd/stm32_lcd.c ****         {
 1279              		.loc 1 1056 45 view .LVU329
 1280 0102 039B     		ldr	r3, [sp, #12]
 1281 0104 0AAE     		add	r6, sp, #40
 1282              	.LVL93:
1056:STM32Cube_FW_N6/Utilities/lcd/stm32_lcd.c ****         {
 1283              		.loc 1 1056 45 view .LVU330
 1284 0106 03F1FF3A 		add	r10, r3, #-1
 1285              	.LVL94:
 1286              	.L79:
1054:STM32Cube_FW_N6/Utilities/lcd/stm32_lcd.c ****       {
 1287              		.loc 1 1054 21 is_stmt 1 discriminator 1 view .LVU331
 1288 010a 099B     		ldr	r3, [sp, #36]
 1289 010c 9C45     		cmp	ip, r3
 1290 010e 02D3     		bcc	.L82
 1291              	.LVL95:
 1292              	.L100:
 1293              		.loc 1 1100 7 view .LVU332
 1294              		.loc 1 1100 7 is_stmt 0 view .LVU333
 1295 0110 0123     		movs	r3, #1
 1296 0112 0093     		str	r3, [sp]
 1297 0114 C5E7     		b	.L99
 1298              	.LVL96:
 1299              	.L82:
1056:STM32Cube_FW_N6/Utilities/lcd/stm32_lcd.c ****         {
 1300              		.loc 1 1056 9 is_stmt 1 view .LVU334
1056:STM32Cube_FW_N6/Utilities/lcd/stm32_lcd.c ****         {
 1301              		.loc 1 1056 34 is_stmt 0 view .LVU335
 1302 0116 BCFBFBF3 		udiv	r3, ip, fp
1056:STM32Cube_FW_N6/Utilities/lcd/stm32_lcd.c ****         {
 1303              		.loc 1 1056 45 view .LVU336
 1304 011a AAEB0303 		sub	r3, r10, r3
1056:STM32Cube_FW_N6/Utilities/lcd/stm32_lcd.c ****         {
 1305              		.loc 1 1056 22 view .LVU337
 1306 011e 07FA03F3 		lsl	r3, r7, r3
1056:STM32Cube_FW_N6/Utilities/lcd/stm32_lcd.c ****         {
 1307              		.loc 1 1056 11 view .LVU338
 1308 0122 1342     		tst	r3, r2
1058:STM32Cube_FW_N6/Utilities/lcd/stm32_lcd.c ****           rgb8[j + 1U] = (CONVERTARGB88882RGB888((DrawProp[DrawProp->LcdLayer].TextColor)) >> 8) & 
 1309              		.loc 1 1058 11 is_stmt 1 view .LVU339
1058:STM32Cube_FW_N6/Utilities/lcd/stm32_lcd.c ****           rgb8[j + 1U] = (CONVERTARGB88882RGB888((DrawProp[DrawProp->LcdLayer].TextColor)) >> 8) & 
 1310              		.loc 1 1058 21 is_stmt 0 view .LVU340
 1311 0124 14BF     		ite	ne
 1312 0126 0368     		ldrne	r3, [r0]
1064:STM32Cube_FW_N6/Utilities/lcd/stm32_lcd.c ****           rgb8[j + 1U] = (CONVERTARGB88882RGB888((DrawProp[DrawProp->LcdLayer].BackColor)) >> 8) & 
ARM GAS  C:\Users\DJESSOU\AppData\Local\Temp\ccR55SEh.s 			page 46


 1313              		.loc 1 1064 11 is_stmt 1 view .LVU341
1064:STM32Cube_FW_N6/Utilities/lcd/stm32_lcd.c ****           rgb8[j + 1U] = (CONVERTARGB88882RGB888((DrawProp[DrawProp->LcdLayer].BackColor)) >> 8) & 
 1314              		.loc 1 1064 21 is_stmt 0 view .LVU342
 1315 0128 4368     		ldreq	r3, [r0, #4]
1054:STM32Cube_FW_N6/Utilities/lcd/stm32_lcd.c ****       {
 1316              		.loc 1 1054 34 discriminator 2 view .LVU343
 1317 012a 0CF1030C 		add	ip, ip, #3
 1318              	.LVL97:
1064:STM32Cube_FW_N6/Utilities/lcd/stm32_lcd.c ****           rgb8[j + 1U] = (CONVERTARGB88882RGB888((DrawProp[DrawProp->LcdLayer].BackColor)) >> 8) & 
 1319              		.loc 1 1064 19 view .LVU344
 1320 012e 5FFA83F9 		uxtb	r9, r3
1065:STM32Cube_FW_N6/Utilities/lcd/stm32_lcd.c ****           rgb8[j + 2U] = (CONVERTARGB88882RGB888((DrawProp[DrawProp->LcdLayer].BackColor)) >> 16) &
 1321              		.loc 1 1065 11 is_stmt 1 view .LVU345
1065:STM32Cube_FW_N6/Utilities/lcd/stm32_lcd.c ****           rgb8[j + 2U] = (CONVERTARGB88882RGB888((DrawProp[DrawProp->LcdLayer].BackColor)) >> 16) &
 1322              		.loc 1 1065 24 is_stmt 0 view .LVU346
 1323 0132 C3F3072E 		ubfx	lr, r3, #8, #8
1066:STM32Cube_FW_N6/Utilities/lcd/stm32_lcd.c ****         }
 1324              		.loc 1 1066 11 is_stmt 1 view .LVU347
1066:STM32Cube_FW_N6/Utilities/lcd/stm32_lcd.c ****         }
 1325              		.loc 1 1066 24 is_stmt 0 view .LVU348
 1326 0136 C3F30743 		ubfx	r3, r3, #16, #8
1058:STM32Cube_FW_N6/Utilities/lcd/stm32_lcd.c ****           rgb8[j + 1U] = (CONVERTARGB88882RGB888((DrawProp[DrawProp->LcdLayer].TextColor)) >> 8) & 
 1327              		.loc 1 1058 19 view .LVU349
 1328 013a 86F80090 		strb	r9, [r6]
1059:STM32Cube_FW_N6/Utilities/lcd/stm32_lcd.c ****           rgb8[j + 2U] = (CONVERTARGB88882RGB888((DrawProp[DrawProp->LcdLayer].TextColor)) >> 16) &
 1329              		.loc 1 1059 24 view .LVU350
 1330 013e 86F801E0 		strb	lr, [r6, #1]
1060:STM32Cube_FW_N6/Utilities/lcd/stm32_lcd.c ****         }
 1331              		.loc 1 1060 24 view .LVU351
 1332 0142 B370     		strb	r3, [r6, #2]
1054:STM32Cube_FW_N6/Utilities/lcd/stm32_lcd.c ****       {
 1333              		.loc 1 1054 34 is_stmt 1 discriminator 2 view .LVU352
 1334              	.LVL98:
1054:STM32Cube_FW_N6/Utilities/lcd/stm32_lcd.c ****       {
 1335              		.loc 1 1054 34 is_stmt 0 discriminator 2 view .LVU353
 1336 0144 0336     		adds	r6, r6, #3
 1337 0146 E0E7     		b	.L79
 1338              	.LVL99:
 1339              	.L78:
1072:STM32Cube_FW_N6/Utilities/lcd/stm32_lcd.c ****     {
 1340              		.loc 1 1072 10 is_stmt 1 view .LVU354
1072:STM32Cube_FW_N6/Utilities/lcd/stm32_lcd.c ****     {
 1341              		.loc 1 1072 12 is_stmt 0 view .LVU355
 1342 0148 042F     		cmp	r7, #4
 1343 014a 1FD0     		beq	.L83
1091:STM32Cube_FW_N6/Utilities/lcd/stm32_lcd.c ****         {
 1344              		.loc 1 1091 22 view .LVU356
 1345 014c 4FF0010A 		mov	r10, #1
1089:STM32Cube_FW_N6/Utilities/lcd/stm32_lcd.c ****       {
 1346              		.loc 1 1089 14 view .LVU357
 1347 0150 0027     		movs	r7, #0
 1348 0152 5646     		mov	r6, r10
1091:STM32Cube_FW_N6/Utilities/lcd/stm32_lcd.c ****         {
 1349              		.loc 1 1091 43 view .LVU358
 1350 0154 039B     		ldr	r3, [sp, #12]
 1351 0156 BC42     		cmp	r4, r7
 1352 0158 03F1FF3B 		add	fp, r3, #-1
ARM GAS  C:\Users\DJESSOU\AppData\Local\Temp\ccR55SEh.s 			page 47


 1353 015c 04EB0603 		add	r3, r4, r6
 1354 0160 14BF     		ite	ne
 1355 0162 9C46     		movne	ip, r3
 1356 0164 D446     		moveq	ip, r10
 1357 0166 0DF12809 		add	r9, sp, #40
 1358              	.LVL100:
 1359              	.L84:
1089:STM32Cube_FW_N6/Utilities/lcd/stm32_lcd.c ****       {
 1360              		.loc 1 1089 21 is_stmt 1 discriminator 1 view .LVU359
 1361 016a BCF1010C 		subs	ip, ip, #1
 1362 016e CFD0     		beq	.L100
1091:STM32Cube_FW_N6/Utilities/lcd/stm32_lcd.c ****         {
 1363              		.loc 1 1091 9 view .LVU360
1091:STM32Cube_FW_N6/Utilities/lcd/stm32_lcd.c ****         {
 1364              		.loc 1 1091 43 is_stmt 0 view .LVU361
 1365 0170 ABEB070E 		sub	lr, fp, r7
1091:STM32Cube_FW_N6/Utilities/lcd/stm32_lcd.c ****         {
 1366              		.loc 1 1091 11 view .LVU362
 1367 0174 4368     		ldr	r3, [r0, #4]
1091:STM32Cube_FW_N6/Utilities/lcd/stm32_lcd.c ****         {
 1368              		.loc 1 1091 22 view .LVU363
 1369 0176 0AFA0EFE 		lsl	lr, r10, lr
1091:STM32Cube_FW_N6/Utilities/lcd/stm32_lcd.c ****         {
 1370              		.loc 1 1091 11 view .LVU364
 1371 017a 1EEA020F 		tst	lr, r2
1093:STM32Cube_FW_N6/Utilities/lcd/stm32_lcd.c ****         }
 1372              		.loc 1 1093 51 view .LVU365
 1373 017e 0668     		ldr	r6, [r0]
1091:STM32Cube_FW_N6/Utilities/lcd/stm32_lcd.c ****         {
 1374              		.loc 1 1091 11 view .LVU366
 1375 0180 08BF     		it	eq
 1376 0182 1E46     		moveq	r6, r3
1089:STM32Cube_FW_N6/Utilities/lcd/stm32_lcd.c ****       {
 1377              		.loc 1 1089 31 discriminator 2 view .LVU367
 1378 0184 0137     		adds	r7, r7, #1
 1379              	.LVL101:
1093:STM32Cube_FW_N6/Utilities/lcd/stm32_lcd.c ****         }
 1380              		.loc 1 1093 21 view .LVU368
 1381 0186 49F8046B 		str	r6, [r9], #4
1089:STM32Cube_FW_N6/Utilities/lcd/stm32_lcd.c ****       {
 1382              		.loc 1 1089 31 is_stmt 1 discriminator 2 view .LVU369
 1383              	.LVL102:
1089:STM32Cube_FW_N6/Utilities/lcd/stm32_lcd.c ****       {
 1384              		.loc 1 1089 31 is_stmt 0 discriminator 2 view .LVU370
 1385 018a EEE7     		b	.L84
 1386              	.LVL103:
 1387              	.L83:
1089:STM32Cube_FW_N6/Utilities/lcd/stm32_lcd.c ****       {
 1388              		.loc 1 1089 31 discriminator 2 view .LVU371
 1389 018c 4FF0010C 		mov	ip, #1
1076:STM32Cube_FW_N6/Utilities/lcd/stm32_lcd.c ****         {
 1390              		.loc 1 1076 43 view .LVU372
 1391 0190 039B     		ldr	r3, [sp, #12]
1074:STM32Cube_FW_N6/Utilities/lcd/stm32_lcd.c ****       {
 1392              		.loc 1 1074 14 view .LVU373
 1393 0192 4FF0000E 		mov	lr, #0
1076:STM32Cube_FW_N6/Utilities/lcd/stm32_lcd.c ****         {
ARM GAS  C:\Users\DJESSOU\AppData\Local\Temp\ccR55SEh.s 			page 48


 1394              		.loc 1 1076 43 view .LVU374
 1395 0196 03F1FF3B 		add	fp, r3, #-1
 1396 019a 6346     		mov	r3, ip
 1397 019c 7445     		cmp	r4, lr
 1398 019e 04EB0306 		add	r6, r4, r3
 1399 01a2 08BF     		it	eq
 1400 01a4 6646     		moveq	r6, ip
 1401 01a6 0DF1280A 		add	r10, sp, #40
 1402              	.LVL104:
 1403              	.L85:
1074:STM32Cube_FW_N6/Utilities/lcd/stm32_lcd.c ****       {
 1404              		.loc 1 1074 21 is_stmt 1 discriminator 1 view .LVU375
 1405 01aa 013E     		subs	r6, r6, #1
 1406 01ac 3FF477AF 		beq	.L101
1076:STM32Cube_FW_N6/Utilities/lcd/stm32_lcd.c ****         {
 1407              		.loc 1 1076 9 view .LVU376
1076:STM32Cube_FW_N6/Utilities/lcd/stm32_lcd.c ****         {
 1408              		.loc 1 1076 43 is_stmt 0 view .LVU377
 1409 01b0 ABEB0E03 		sub	r3, fp, lr
1076:STM32Cube_FW_N6/Utilities/lcd/stm32_lcd.c ****         {
 1410              		.loc 1 1076 22 view .LVU378
 1411 01b4 0CFA03F3 		lsl	r3, ip, r3
1076:STM32Cube_FW_N6/Utilities/lcd/stm32_lcd.c ****         {
 1412              		.loc 1 1076 11 view .LVU379
 1413 01b8 1342     		tst	r3, r2
1078:STM32Cube_FW_N6/Utilities/lcd/stm32_lcd.c ****         }
 1414              		.loc 1 1078 11 is_stmt 1 view .LVU380
1078:STM32Cube_FW_N6/Utilities/lcd/stm32_lcd.c ****         }
 1415              		.loc 1 1078 25 is_stmt 0 view .LVU381
 1416 01ba 14BF     		ite	ne
 1417 01bc 0768     		ldrne	r7, [r0]
1082:STM32Cube_FW_N6/Utilities/lcd/stm32_lcd.c ****         }
 1418              		.loc 1 1082 11 is_stmt 1 view .LVU382
1082:STM32Cube_FW_N6/Utilities/lcd/stm32_lcd.c ****         }
 1419              		.loc 1 1082 25 is_stmt 0 view .LVU383
 1420 01be 4768     		ldreq	r7, [r0, #4]
1074:STM32Cube_FW_N6/Utilities/lcd/stm32_lcd.c ****       {
 1421              		.loc 1 1074 31 discriminator 2 view .LVU384
 1422 01c0 0EF1010E 		add	lr, lr, #1
 1423              	.LVL105:
1082:STM32Cube_FW_N6/Utilities/lcd/stm32_lcd.c ****         }
 1424              		.loc 1 1082 25 view .LVU385
 1425 01c4 3B0F     		lsrs	r3, r7, #28
 1426 01c6 C7F30319 		ubfx	r9, r7, #4, #4
 1427 01ca 49EA0339 		orr	r9, r9, r3, lsl #12
 1428 01ce 3B0A     		lsrs	r3, r7, #8
 1429 01d0 03F0F003 		and	r3, r3, #240
 1430 01d4 3F0B     		lsrs	r7, r7, #12
 1431 01d6 49EA0303 		orr	r3, r9, r3
 1432 01da 07F47067 		and	r7, r7, #3840
 1433 01de 3B43     		orrs	r3, r3, r7
1078:STM32Cube_FW_N6/Utilities/lcd/stm32_lcd.c ****         }
 1434              		.loc 1 1078 23 view .LVU386
 1435 01e0 2AF8023B 		strh	r3, [r10], #2	@ movhi
1074:STM32Cube_FW_N6/Utilities/lcd/stm32_lcd.c ****       {
 1436              		.loc 1 1074 31 is_stmt 1 discriminator 2 view .LVU387
 1437              	.LVL106:
ARM GAS  C:\Users\DJESSOU\AppData\Local\Temp\ccR55SEh.s 			page 49


1074:STM32Cube_FW_N6/Utilities/lcd/stm32_lcd.c ****       {
 1438              		.loc 1 1074 31 is_stmt 0 discriminator 2 view .LVU388
 1439 01e4 E1E7     		b	.L85
 1440              	.L103:
 1441 01e6 00BF     		.align	2
 1442              	.L102:
 1443 01e8 00000000 		.word	DrawProp
 1444              	.LBE8:
 1445              	.LBE11:
 1446              		.cfi_endproc
 1447              	.LFE16:
 1449              		.section	.text.UTIL_LCD_DisplayStringAt,"ax",%progbits
 1450              		.align	1
 1451              		.global	UTIL_LCD_DisplayStringAt
 1452              		.syntax unified
 1453              		.thumb
 1454              		.thumb_func
 1456              	UTIL_LCD_DisplayStringAt:
 1457              	.LVL107:
 1458              	.LFB17:
 448:STM32Cube_FW_N6/Utilities/lcd/stm32_lcd.c ****   uint32_t refcolumn = 1, i = 0;
 1459              		.loc 1 448 1 is_stmt 1 view -0
 1460              		.cfi_startproc
 1461              		@ args = 0, pretend = 0, frame = 0
 1462              		@ frame_needed = 0, uses_anonymous_args = 0
 449:STM32Cube_FW_N6/Utilities/lcd/stm32_lcd.c ****   uint32_t size = 0, xsize = 0;
 1463              		.loc 1 449 3 view .LVU390
 450:STM32Cube_FW_N6/Utilities/lcd/stm32_lcd.c ****   uint8_t  *ptr = Text;
 1464              		.loc 1 450 3 view .LVU391
 451:STM32Cube_FW_N6/Utilities/lcd/stm32_lcd.c **** 
 1465              		.loc 1 451 3 view .LVU392
 454:STM32Cube_FW_N6/Utilities/lcd/stm32_lcd.c **** 
 1466              		.loc 1 454 3 view .LVU393
 448:STM32Cube_FW_N6/Utilities/lcd/stm32_lcd.c ****   uint32_t refcolumn = 1, i = 0;
 1467              		.loc 1 448 1 is_stmt 0 view .LVU394
 1468 0000 2DE9F843 		push	{r3, r4, r5, r6, r7, r8, r9, lr}
 1469              		.cfi_def_cfa_offset 32
 1470              		.cfi_offset 3, -32
 1471              		.cfi_offset 4, -28
 1472              		.cfi_offset 5, -24
 1473              		.cfi_offset 6, -20
 1474              		.cfi_offset 7, -16
 1475              		.cfi_offset 8, -12
 1476              		.cfi_offset 9, -8
 1477              		.cfi_offset 14, -4
 457:STM32Cube_FW_N6/Utilities/lcd/stm32_lcd.c **** 
 1478              		.loc 1 457 29 view .LVU395
 1479 0004 DFF88880 		ldr	r8, .L116
 448:STM32Cube_FW_N6/Utilities/lcd/stm32_lcd.c ****   uint32_t refcolumn = 1, i = 0;
 1480              		.loc 1 448 1 view .LVU396
 1481 0008 0546     		mov	r5, r0
 454:STM32Cube_FW_N6/Utilities/lcd/stm32_lcd.c **** 
 1482              		.loc 1 454 10 discriminator 1 view .LVU397
 1483 000a 1046     		mov	r0, r2
 1484              	.LVL108:
 448:STM32Cube_FW_N6/Utilities/lcd/stm32_lcd.c ****   uint32_t refcolumn = 1, i = 0;
 1485              		.loc 1 448 1 view .LVU398
ARM GAS  C:\Users\DJESSOU\AppData\Local\Temp\ccR55SEh.s 			page 50


 1486 000c 9946     		mov	r9, r3
 1487 000e 1646     		mov	r6, r2
 1488 0010 0F46     		mov	r7, r1
 454:STM32Cube_FW_N6/Utilities/lcd/stm32_lcd.c **** 
 1489              		.loc 1 454 10 discriminator 1 view .LVU399
 1490 0012 FFF7FEFF 		bl	strlen
 1491              	.LVL109:
 457:STM32Cube_FW_N6/Utilities/lcd/stm32_lcd.c **** 
 1492              		.loc 1 457 3 is_stmt 1 view .LVU400
 457:STM32Cube_FW_N6/Utilities/lcd/stm32_lcd.c **** 
 1493              		.loc 1 457 29 is_stmt 0 view .LVU401
 1494 0016 D8F80C30 		ldr	r3, [r8, #12]
 459:STM32Cube_FW_N6/Utilities/lcd/stm32_lcd.c ****   {
 1495              		.loc 1 459 3 view .LVU402
 1496 001a B9F1010F 		cmp	r9, #1
 457:STM32Cube_FW_N6/Utilities/lcd/stm32_lcd.c **** 
 1497              		.loc 1 457 78 view .LVU403
 1498 001e 08EB4313 		add	r3, r8, r3, lsl #5
 457:STM32Cube_FW_N6/Utilities/lcd/stm32_lcd.c **** 
 1499              		.loc 1 457 84 view .LVU404
 1500 0022 9A68     		ldr	r2, [r3, #8]
 457:STM32Cube_FW_N6/Utilities/lcd/stm32_lcd.c **** 
 1501              		.loc 1 457 9 view .LVU405
 1502 0024 5C69     		ldr	r4, [r3, #20]
 457:STM32Cube_FW_N6/Utilities/lcd/stm32_lcd.c **** 
 1503              		.loc 1 457 84 view .LVU406
 1504 0026 9288     		ldrh	r2, [r2, #4]
 457:STM32Cube_FW_N6/Utilities/lcd/stm32_lcd.c **** 
 1505              		.loc 1 457 9 view .LVU407
 1506 0028 B4FBF2F4 		udiv	r4, r4, r2
 1507              	.LVL110:
 459:STM32Cube_FW_N6/Utilities/lcd/stm32_lcd.c ****   {
 1508              		.loc 1 459 3 is_stmt 1 view .LVU408
 473:STM32Cube_FW_N6/Utilities/lcd/stm32_lcd.c ****       break;
 1509              		.loc 1 473 17 is_stmt 0 view .LVU409
 1510 002c A4EB0004 		sub	r4, r4, r0
 1511              	.LVL111:
 473:STM32Cube_FW_N6/Utilities/lcd/stm32_lcd.c ****       break;
 1512              		.loc 1 473 17 view .LVU410
 1513 0030 02FB04F4 		mul	r4, r2, r4
 459:STM32Cube_FW_N6/Utilities/lcd/stm32_lcd.c ****   {
 1514              		.loc 1 459 3 view .LVU411
 1515 0034 1BD0     		beq	.L105
 473:STM32Cube_FW_N6/Utilities/lcd/stm32_lcd.c ****       break;
 1516              		.loc 1 473 17 view .LVU412
 1517 0036 641B     		subs	r4, r4, r5
 1518 0038 B9F1020F 		cmp	r9, #2
 1519 003c 08BF     		it	eq
 1520 003e 2546     		moveq	r5, r4
 1521              	.LVL112:
 1522              	.L107:
 484:STM32Cube_FW_N6/Utilities/lcd/stm32_lcd.c ****   {
 1523              		.loc 1 484 3 is_stmt 1 view .LVU413
 484:STM32Cube_FW_N6/Utilities/lcd/stm32_lcd.c ****   {
 1524              		.loc 1 484 6 is_stmt 0 view .LVU414
 1525 0040 47F6FE73 		movw	r3, #32766
 1526              	.LVL113:
ARM GAS  C:\Users\DJESSOU\AppData\Local\Temp\ccR55SEh.s 			page 51


 484:STM32Cube_FW_N6/Utilities/lcd/stm32_lcd.c ****   {
 1527              		.loc 1 484 23 view .LVU415
 1528 0044 6A1E     		subs	r2, r5, #1
 1529              	.LVL114:
 486:STM32Cube_FW_N6/Utilities/lcd/stm32_lcd.c ****   }
 1530              		.loc 1 486 15 view .LVU416
 1531 0046 9A42     		cmp	r2, r3
 1532 0048 88BF     		it	hi
 1533 004a 0125     		movhi	r5, #1
 1534              	.LVL115:
 486:STM32Cube_FW_N6/Utilities/lcd/stm32_lcd.c ****   }
 1535              		.loc 1 486 15 view .LVU417
 1536 004c 0024     		movs	r4, #0
 1537              	.LVL116:
 1538              	.L109:
 490:STM32Cube_FW_N6/Utilities/lcd/stm32_lcd.c ****   {
 1539              		.loc 1 490 10 is_stmt 1 view .LVU418
 490:STM32Cube_FW_N6/Utilities/lcd/stm32_lcd.c ****   {
 1540              		.loc 1 490 45 is_stmt 0 view .LVU419
 1541 004e D8F80C30 		ldr	r3, [r8, #12]
 490:STM32Cube_FW_N6/Utilities/lcd/stm32_lcd.c ****   {
 1542              		.loc 1 490 11 view .LVU420
 1543 0052 325D     		ldrb	r2, [r6, r4]	@ zero_extendqisi2
 490:STM32Cube_FW_N6/Utilities/lcd/stm32_lcd.c ****   {
 1544              		.loc 1 490 99 view .LVU421
 1545 0054 08EB4313 		add	r3, r8, r3, lsl #5
 490:STM32Cube_FW_N6/Utilities/lcd/stm32_lcd.c ****   {
 1546              		.loc 1 490 105 view .LVU422
 1547 0058 9968     		ldr	r1, [r3, #8]
 490:STM32Cube_FW_N6/Utilities/lcd/stm32_lcd.c ****   {
 1548              		.loc 1 490 66 view .LVU423
 1549 005a 5B69     		ldr	r3, [r3, #20]
 490:STM32Cube_FW_N6/Utilities/lcd/stm32_lcd.c ****   {
 1550              		.loc 1 490 105 view .LVU424
 1551 005c 8988     		ldrh	r1, [r1, #4]
 490:STM32Cube_FW_N6/Utilities/lcd/stm32_lcd.c ****   {
 1552              		.loc 1 490 66 view .LVU425
 1553 005e 04FB1133 		mls	r3, r4, r1, r3
 490:STM32Cube_FW_N6/Utilities/lcd/stm32_lcd.c ****   {
 1554              		.loc 1 490 115 view .LVU426
 1555 0062 9BB2     		uxth	r3, r3
 490:STM32Cube_FW_N6/Utilities/lcd/stm32_lcd.c ****   {
 1556              		.loc 1 490 10 view .LVU427
 1557 0064 9942     		cmp	r1, r3
 1558 0066 00D8     		bhi	.L104
 1559 0068 22B9     		cbnz	r2, .L110
 1560              	.L104:
 501:STM32Cube_FW_N6/Utilities/lcd/stm32_lcd.c **** 
 1561              		.loc 1 501 1 view .LVU428
 1562 006a BDE8F883 		pop	{r3, r4, r5, r6, r7, r8, r9, pc}
 1563              	.LVL117:
 1564              	.L105:
 463:STM32Cube_FW_N6/Utilities/lcd/stm32_lcd.c ****       break;
 1565              		.loc 1 463 7 is_stmt 1 view .LVU429
 463:STM32Cube_FW_N6/Utilities/lcd/stm32_lcd.c ****       break;
 1566              		.loc 1 463 17 is_stmt 0 view .LVU430
 1567 006e 05EB5405 		add	r5, r5, r4, lsr #1
ARM GAS  C:\Users\DJESSOU\AppData\Local\Temp\ccR55SEh.s 			page 52


 1568              	.LVL118:
 464:STM32Cube_FW_N6/Utilities/lcd/stm32_lcd.c ****     }
 1569              		.loc 1 464 7 is_stmt 1 view .LVU431
 1570 0072 E5E7     		b	.L107
 1571              	.LVL119:
 1572              	.L110:
 493:STM32Cube_FW_N6/Utilities/lcd/stm32_lcd.c ****     /* Decrement the column position by 16 */
 1573              		.loc 1 493 5 view .LVU432
 1574 0074 2846     		mov	r0, r5
 1575 0076 3946     		mov	r1, r7
 1576 0078 FFF7FEFF 		bl	UTIL_LCD_DisplayChar
 1577              	.LVL120:
 495:STM32Cube_FW_N6/Utilities/lcd/stm32_lcd.c **** 
 1578              		.loc 1 495 5 view .LVU433
 495:STM32Cube_FW_N6/Utilities/lcd/stm32_lcd.c **** 
 1579              		.loc 1 495 46 is_stmt 0 view .LVU434
 1580 007c D8F80C30 		ldr	r3, [r8, #12]
 499:STM32Cube_FW_N6/Utilities/lcd/stm32_lcd.c ****   }
 1581              		.loc 1 499 6 view .LVU435
 1582 0080 0134     		adds	r4, r4, #1
 1583              	.LVL121:
 495:STM32Cube_FW_N6/Utilities/lcd/stm32_lcd.c **** 
 1584              		.loc 1 495 46 view .LVU436
 1585 0082 08EB4313 		add	r3, r8, r3, lsl #5
 495:STM32Cube_FW_N6/Utilities/lcd/stm32_lcd.c **** 
 1586              		.loc 1 495 52 view .LVU437
 1587 0086 9B68     		ldr	r3, [r3, #8]
 1588 0088 9B88     		ldrh	r3, [r3, #4]
 495:STM32Cube_FW_N6/Utilities/lcd/stm32_lcd.c **** 
 1589              		.loc 1 495 15 view .LVU438
 1590 008a 1D44     		add	r5, r5, r3
 1591              	.LVL122:
 498:STM32Cube_FW_N6/Utilities/lcd/stm32_lcd.c ****     i++;
 1592              		.loc 1 498 5 is_stmt 1 view .LVU439
 499:STM32Cube_FW_N6/Utilities/lcd/stm32_lcd.c ****   }
 1593              		.loc 1 499 5 view .LVU440
 499:STM32Cube_FW_N6/Utilities/lcd/stm32_lcd.c ****   }
 1594              		.loc 1 499 5 is_stmt 0 view .LVU441
 1595 008c DFE7     		b	.L109
 1596              	.L117:
 1597 008e 00BF     		.align	2
 1598              	.L116:
 1599 0090 00000000 		.word	DrawProp
 1600              		.cfi_endproc
 1601              	.LFE17:
 1603              		.section	.text.UTIL_LCD_DisplayStringAtLine,"ax",%progbits
 1604              		.align	1
 1605              		.global	UTIL_LCD_DisplayStringAtLine
 1606              		.syntax unified
 1607              		.thumb
 1608              		.thumb_func
 1610              	UTIL_LCD_DisplayStringAtLine:
 1611              	.LVL123:
 1612              	.LFB18:
 509:STM32Cube_FW_N6/Utilities/lcd/stm32_lcd.c ****   UTIL_LCD_DisplayStringAt(0, LINE(Line), ptr, LEFT_MODE);
 1613              		.loc 1 509 1 is_stmt 1 view -0
 1614              		.cfi_startproc
ARM GAS  C:\Users\DJESSOU\AppData\Local\Temp\ccR55SEh.s 			page 53


 1615              		@ args = 0, pretend = 0, frame = 0
 1616              		@ frame_needed = 0, uses_anonymous_args = 0
 510:STM32Cube_FW_N6/Utilities/lcd/stm32_lcd.c **** }
 1617              		.loc 1 510 3 view .LVU443
 509:STM32Cube_FW_N6/Utilities/lcd/stm32_lcd.c ****   UTIL_LCD_DisplayStringAt(0, LINE(Line), ptr, LEFT_MODE);
 1618              		.loc 1 509 1 is_stmt 0 view .LVU444
 1619 0000 10B5     		push	{r4, lr}
 1620              		.cfi_def_cfa_offset 8
 1621              		.cfi_offset 4, -8
 1622              		.cfi_offset 14, -4
 509:STM32Cube_FW_N6/Utilities/lcd/stm32_lcd.c ****   UTIL_LCD_DisplayStringAt(0, LINE(Line), ptr, LEFT_MODE);
 1623              		.loc 1 509 1 view .LVU445
 1624 0002 0446     		mov	r4, r0
 510:STM32Cube_FW_N6/Utilities/lcd/stm32_lcd.c **** }
 1625              		.loc 1 510 31 view .LVU446
 1626 0004 FFF7FEFF 		bl	UTIL_LCD_GetFont
 1627              	.LVL124:
 510:STM32Cube_FW_N6/Utilities/lcd/stm32_lcd.c **** }
 1628              		.loc 1 510 31 discriminator 1 view .LVU447
 1629 0008 C088     		ldrh	r0, [r0, #6]
 510:STM32Cube_FW_N6/Utilities/lcd/stm32_lcd.c **** }
 1630              		.loc 1 510 3 discriminator 1 view .LVU448
 1631 000a 0A46     		mov	r2, r1
 1632 000c 0323     		movs	r3, #3
 1633 000e 04FB00F1 		mul	r1, r4, r0
 1634              	.LVL125:
 511:STM32Cube_FW_N6/Utilities/lcd/stm32_lcd.c **** 
 1635              		.loc 1 511 1 view .LVU449
 1636 0012 BDE81040 		pop	{r4, lr}
 1637              		.cfi_restore 14
 1638              		.cfi_restore 4
 1639              		.cfi_def_cfa_offset 0
 1640              	.LVL126:
 510:STM32Cube_FW_N6/Utilities/lcd/stm32_lcd.c **** }
 1641              		.loc 1 510 3 discriminator 1 view .LVU450
 1642 0016 0020     		movs	r0, #0
 1643 0018 FFF7FEBF 		b	UTIL_LCD_DisplayStringAt
 1644              	.LVL127:
 510:STM32Cube_FW_N6/Utilities/lcd/stm32_lcd.c **** }
 1645              		.loc 1 510 3 discriminator 1 view .LVU451
 1646              		.cfi_endproc
 1647              	.LFE18:
 1649              		.section	.text.UTIL_LCD_DrawLine,"ax",%progbits
 1650              		.align	1
 1651              		.global	UTIL_LCD_DrawLine
 1652              		.syntax unified
 1653              		.thumb
 1654              		.thumb_func
 1656              	UTIL_LCD_DrawLine:
 1657              	.LVL128:
 1658              	.LFB19:
 522:STM32Cube_FW_N6/Utilities/lcd/stm32_lcd.c ****   int16_t deltax = 0, deltay = 0, x = 0, y = 0, xinc1 = 0, xinc2 = 0,
 1659              		.loc 1 522 1 is_stmt 1 view -0
 1660              		.cfi_startproc
 1661              		@ args = 4, pretend = 0, frame = 16
 1662              		@ frame_needed = 0, uses_anonymous_args = 0
 523:STM32Cube_FW_N6/Utilities/lcd/stm32_lcd.c ****   yinc1 = 0, yinc2 = 0, den = 0, num = 0, numadd = 0, numpixels = 0,
ARM GAS  C:\Users\DJESSOU\AppData\Local\Temp\ccR55SEh.s 			page 54


 1663              		.loc 1 523 3 view .LVU453
 526:STM32Cube_FW_N6/Utilities/lcd/stm32_lcd.c **** 
 1664              		.loc 1 526 3 view .LVU454
 528:STM32Cube_FW_N6/Utilities/lcd/stm32_lcd.c ****   y_diff = Ypos2 - Ypos1;
 1665              		.loc 1 528 3 view .LVU455
 529:STM32Cube_FW_N6/Utilities/lcd/stm32_lcd.c **** 
 1666              		.loc 1 529 3 view .LVU456
 531:STM32Cube_FW_N6/Utilities/lcd/stm32_lcd.c ****   deltay = ABS(y_diff);         /* The absolute difference between the y's */
 1667              		.loc 1 531 3 view .LVU457
 522:STM32Cube_FW_N6/Utilities/lcd/stm32_lcd.c ****   int16_t deltax = 0, deltay = 0, x = 0, y = 0, xinc1 = 0, xinc2 = 0,
 1668              		.loc 1 522 1 is_stmt 0 view .LVU458
 1669 0000 2DE9F04F 		push	{r4, r5, r6, r7, r8, r9, r10, fp, lr}
 1670              		.cfi_def_cfa_offset 36
 1671              		.cfi_offset 4, -36
 1672              		.cfi_offset 5, -32
 1673              		.cfi_offset 6, -28
 1674              		.cfi_offset 7, -24
 1675              		.cfi_offset 8, -20
 1676              		.cfi_offset 9, -16
 1677              		.cfi_offset 10, -12
 1678              		.cfi_offset 11, -8
 1679              		.cfi_offset 14, -4
 528:STM32Cube_FW_N6/Utilities/lcd/stm32_lcd.c ****   y_diff = Ypos2 - Ypos1;
 1680              		.loc 1 528 18 view .LVU459
 1681 0004 141A     		subs	r4, r2, r0
 1682              	.LVL129:
 531:STM32Cube_FW_N6/Utilities/lcd/stm32_lcd.c ****   deltay = ABS(y_diff);         /* The absolute difference between the y's */
 1683              		.loc 1 531 12 view .LVU460
 1684 0006 002C     		cmp	r4, #0
 529:STM32Cube_FW_N6/Utilities/lcd/stm32_lcd.c **** 
 1685              		.loc 1 529 18 view .LVU461
 1686 0008 A3EB0106 		sub	r6, r3, r1
 1687              	.LVL130:
 531:STM32Cube_FW_N6/Utilities/lcd/stm32_lcd.c ****   deltay = ABS(y_diff);         /* The absolute difference between the y's */
 1688              		.loc 1 531 12 view .LVU462
 1689 000c B8BF     		it	lt
 1690 000e 6442     		rsblt	r4, r4, #0
 1691              	.LVL131:
 532:STM32Cube_FW_N6/Utilities/lcd/stm32_lcd.c ****   x = Xpos1;                       /* Start x off at the first pixel */
 1692              		.loc 1 532 12 view .LVU463
 1693 0010 002E     		cmp	r6, #0
 1694 0012 B8BF     		it	lt
 1695 0014 7642     		rsblt	r6, r6, #0
 1696              	.LVL132:
 538:STM32Cube_FW_N6/Utilities/lcd/stm32_lcd.c ****     xinc2 = 1;
 1697              		.loc 1 538 11 view .LVU464
 1698 0016 8242     		cmp	r2, r0
 1699 0018 34BF     		ite	cc
 1700 001a 4FF0FF39 		movcc	r9, #-1
 1701 001e 4FF00109 		movcs	r9, #1
 531:STM32Cube_FW_N6/Utilities/lcd/stm32_lcd.c ****   deltay = ABS(y_diff);         /* The absolute difference between the y's */
 1702              		.loc 1 531 10 view .LVU465
 1703 0022 24B2     		sxth	r4, r4
 1704              	.LVL133:
 532:STM32Cube_FW_N6/Utilities/lcd/stm32_lcd.c ****   x = Xpos1;                       /* Start x off at the first pixel */
 1705              		.loc 1 532 3 is_stmt 1 view .LVU466
 549:STM32Cube_FW_N6/Utilities/lcd/stm32_lcd.c ****     yinc2 = 1;
ARM GAS  C:\Users\DJESSOU\AppData\Local\Temp\ccR55SEh.s 			page 55


 1706              		.loc 1 549 11 is_stmt 0 view .LVU467
 1707 0024 8B42     		cmp	r3, r1
 532:STM32Cube_FW_N6/Utilities/lcd/stm32_lcd.c ****   x = Xpos1;                       /* Start x off at the first pixel */
 1708              		.loc 1 532 10 view .LVU468
 1709 0026 36B2     		sxth	r6, r6
 1710              	.LVL134:
 533:STM32Cube_FW_N6/Utilities/lcd/stm32_lcd.c ****   y = Ypos1;                       /* Start y off at the first pixel */
 1711              		.loc 1 533 3 is_stmt 1 view .LVU469
 549:STM32Cube_FW_N6/Utilities/lcd/stm32_lcd.c ****     yinc2 = 1;
 1712              		.loc 1 549 11 is_stmt 0 view .LVU470
 1713 0028 34BF     		ite	cc
 1714 002a 4FF0FF3A 		movcc	r10, #-1
 1715 002e 4FF0010A 		movcs	r10, #1
 558:STM32Cube_FW_N6/Utilities/lcd/stm32_lcd.c ****   {
 1716              		.loc 1 558 6 view .LVU471
 1717 0032 B442     		cmp	r4, r6
 522:STM32Cube_FW_N6/Utilities/lcd/stm32_lcd.c ****   int16_t deltax = 0, deltay = 0, x = 0, y = 0, xinc1 = 0, xinc2 = 0,
 1718              		.loc 1 522 1 view .LVU472
 1719 0034 85B0     		sub	sp, sp, #20
 1720              		.cfi_def_cfa_offset 56
 533:STM32Cube_FW_N6/Utilities/lcd/stm32_lcd.c ****   y = Ypos1;                       /* Start y off at the first pixel */
 1721              		.loc 1 533 5 view .LVU473
 1722 0036 07B2     		sxth	r7, r0
 1723              	.LVL135:
 534:STM32Cube_FW_N6/Utilities/lcd/stm32_lcd.c **** 
 1724              		.loc 1 534 3 is_stmt 1 view .LVU474
 534:STM32Cube_FW_N6/Utilities/lcd/stm32_lcd.c **** 
 1725              		.loc 1 534 5 is_stmt 0 view .LVU475
 1726 0038 0FFA81F8 		sxth	r8, r1
 1727              	.LVL136:
 536:STM32Cube_FW_N6/Utilities/lcd/stm32_lcd.c ****   {
 1728              		.loc 1 536 3 is_stmt 1 view .LVU476
 547:STM32Cube_FW_N6/Utilities/lcd/stm32_lcd.c ****   {
 1729              		.loc 1 547 3 view .LVU477
 558:STM32Cube_FW_N6/Utilities/lcd/stm32_lcd.c ****   {
 1730              		.loc 1 558 3 view .LVU478
 558:STM32Cube_FW_N6/Utilities/lcd/stm32_lcd.c ****   {
 1731              		.loc 1 558 6 is_stmt 0 view .LVU479
 1732 003c 10DB     		blt	.L122
 560:STM32Cube_FW_N6/Utilities/lcd/stm32_lcd.c ****     yinc2 = 0;                  /* Don't change the y for every iteration */
 1733              		.loc 1 560 5 is_stmt 1 view .LVU480
 1734              	.LVL137:
 561:STM32Cube_FW_N6/Utilities/lcd/stm32_lcd.c ****     den = deltax;
 1735              		.loc 1 561 5 view .LVU481
 562:STM32Cube_FW_N6/Utilities/lcd/stm32_lcd.c ****     num = deltax / 2;
 1736              		.loc 1 562 5 view .LVU482
 563:STM32Cube_FW_N6/Utilities/lcd/stm32_lcd.c ****     numadd = deltay;
 1737              		.loc 1 563 5 view .LVU483
 1738 003e CDF80090 		str	r9, [sp]
 561:STM32Cube_FW_N6/Utilities/lcd/stm32_lcd.c ****     den = deltax;
 1739              		.loc 1 561 11 is_stmt 0 view .LVU484
 1740 0042 4FF00009 		mov	r9, #0
 1741              	.LVL138:
 560:STM32Cube_FW_N6/Utilities/lcd/stm32_lcd.c ****     yinc2 = 0;                  /* Don't change the y for every iteration */
 1742              		.loc 1 560 11 view .LVU485
 1743 0046 4B46     		mov	r3, r9
 1744              	.LVL139:
ARM GAS  C:\Users\DJESSOU\AppData\Local\Temp\ccR55SEh.s 			page 56


 563:STM32Cube_FW_N6/Utilities/lcd/stm32_lcd.c ****     numadd = deltay;
 1745              		.loc 1 563 9 view .LVU486
 1746 0048 04EBD475 		add	r5, r4, r4, lsr #31
 1747 004c 6D10     		asrs	r5, r5, #1
 1748              	.LVL140:
 564:STM32Cube_FW_N6/Utilities/lcd/stm32_lcd.c ****     numpixels = deltax;         /* There are more x-values than y-values */
 1749              		.loc 1 564 5 is_stmt 1 view .LVU487
 565:STM32Cube_FW_N6/Utilities/lcd/stm32_lcd.c ****   }
 1750              		.loc 1 565 5 view .LVU488
 1751              	.L123:
 577:STM32Cube_FW_N6/Utilities/lcd/stm32_lcd.c ****   {
 1752              		.loc 1 577 3 view .LVU489
 577:STM32Cube_FW_N6/Utilities/lcd/stm32_lcd.c ****   {
 1753              		.loc 1 577 3 is_stmt 0 view .LVU490
 1754 004e 4FF0000B 		mov	fp, #0
 1755              	.LVL141:
 1756              	.L124:
 577:STM32Cube_FW_N6/Utilities/lcd/stm32_lcd.c ****   {
 1757              		.loc 1 577 31 is_stmt 1 discriminator 1 view .LVU491
 1758 0052 0FFA8BF2 		sxth	r2, fp
 1759 0056 9442     		cmp	r4, r2
 1760 0058 0FDA     		bge	.L126
 590:STM32Cube_FW_N6/Utilities/lcd/stm32_lcd.c **** 
 1761              		.loc 1 590 1 is_stmt 0 view .LVU492
 1762 005a 05B0     		add	sp, sp, #20
 1763              		.cfi_remember_state
 1764              		.cfi_def_cfa_offset 36
 1765              	.LVL142:
 590:STM32Cube_FW_N6/Utilities/lcd/stm32_lcd.c **** 
 1766              		.loc 1 590 1 view .LVU493
 1767              		@ sp needed
 1768 005c BDE8F08F 		pop	{r4, r5, r6, r7, r8, r9, r10, fp, pc}
 1769              	.LVL143:
 1770              	.L122:
 1771              		.cfi_restore_state
 569:STM32Cube_FW_N6/Utilities/lcd/stm32_lcd.c ****     yinc1 = 0;                  /* Don't change the y when numerator >= denominator */
 1772              		.loc 1 569 5 is_stmt 1 view .LVU494
 570:STM32Cube_FW_N6/Utilities/lcd/stm32_lcd.c ****     den = deltay;
 1773              		.loc 1 570 5 view .LVU495
 571:STM32Cube_FW_N6/Utilities/lcd/stm32_lcd.c ****     num = deltay / 2;
 1774              		.loc 1 571 5 view .LVU496
 572:STM32Cube_FW_N6/Utilities/lcd/stm32_lcd.c ****     numadd = deltax;
 1775              		.loc 1 572 5 view .LVU497
 572:STM32Cube_FW_N6/Utilities/lcd/stm32_lcd.c ****     numadd = deltax;
 1776              		.loc 1 572 9 is_stmt 0 view .LVU498
 1777 0060 2346     		mov	r3, r4
 1778              	.LVL144:
 572:STM32Cube_FW_N6/Utilities/lcd/stm32_lcd.c ****     numadd = deltax;
 1779              		.loc 1 572 9 view .LVU499
 1780 0062 06EBD675 		add	r5, r6, r6, lsr #31
 571:STM32Cube_FW_N6/Utilities/lcd/stm32_lcd.c ****     num = deltay / 2;
 1781              		.loc 1 571 9 view .LVU500
 1782 0066 3446     		mov	r4, r6
 1783              	.LVL145:
 573:STM32Cube_FW_N6/Utilities/lcd/stm32_lcd.c ****     numpixels = deltay;         /* There are more y-values than x-values */
 1784              		.loc 1 573 12 view .LVU501
 1785 0068 1E46     		mov	r6, r3
ARM GAS  C:\Users\DJESSOU\AppData\Local\Temp\ccR55SEh.s 			page 57


 1786              	.LVL146:
 572:STM32Cube_FW_N6/Utilities/lcd/stm32_lcd.c ****     numadd = deltax;
 1787              		.loc 1 572 9 view .LVU502
 1788 006a 5346     		mov	r3, r10
 1789              	.LVL147:
 570:STM32Cube_FW_N6/Utilities/lcd/stm32_lcd.c ****     den = deltay;
 1790              		.loc 1 570 11 view .LVU503
 1791 006c 4FF0000A 		mov	r10, #0
 1792              	.LVL148:
 572:STM32Cube_FW_N6/Utilities/lcd/stm32_lcd.c ****     numadd = deltax;
 1793              		.loc 1 572 9 view .LVU504
 1794 0070 45F34F05 		sbfx	r5, r5, #1, #16
 1795              	.LVL149:
 573:STM32Cube_FW_N6/Utilities/lcd/stm32_lcd.c ****     numpixels = deltay;         /* There are more y-values than x-values */
 1796              		.loc 1 573 5 is_stmt 1 view .LVU505
 574:STM32Cube_FW_N6/Utilities/lcd/stm32_lcd.c ****   }
 1797              		.loc 1 574 5 view .LVU506
 569:STM32Cube_FW_N6/Utilities/lcd/stm32_lcd.c ****     yinc1 = 0;                  /* Don't change the y when numerator >= denominator */
 1798              		.loc 1 569 11 is_stmt 0 view .LVU507
 1799 0074 CDF800A0 		str	r10, [sp]
 1800 0078 E9E7     		b	.L123
 1801              	.LVL150:
 1802              	.L126:
 579:STM32Cube_FW_N6/Utilities/lcd/stm32_lcd.c ****     num += numadd;                            /* Increase the numerator by the top of the fraction 
 1803              		.loc 1 579 5 view .LVU508
 1804 007a 0E9A     		ldr	r2, [sp, #56]
 1805 007c B8B2     		uxth	r0, r7
 1806 007e 1FFA88F1 		uxth	r1, r8
 580:STM32Cube_FW_N6/Utilities/lcd/stm32_lcd.c ****     if (num >= den)                           /* Check if numerator >= denominator */
 1807              		.loc 1 580 9 view .LVU509
 1808 0082 3544     		add	r5, r5, r6
 1809              	.LVL151:
 580:STM32Cube_FW_N6/Utilities/lcd/stm32_lcd.c ****     if (num >= den)                           /* Check if numerator >= denominator */
 1810              		.loc 1 580 9 view .LVU510
 1811 0084 0393     		str	r3, [sp, #12]
 579:STM32Cube_FW_N6/Utilities/lcd/stm32_lcd.c ****     num += numadd;                            /* Increase the numerator by the top of the fraction 
 1812              		.loc 1 579 5 is_stmt 1 view .LVU511
 1813 0086 CDE90101 		strd	r0, r1, [sp, #4]
 1814 008a FFF7FEFF 		bl	UTIL_LCD_SetPixel
 1815              	.LVL152:
 580:STM32Cube_FW_N6/Utilities/lcd/stm32_lcd.c ****     if (num >= den)                           /* Check if numerator >= denominator */
 1816              		.loc 1 580 5 view .LVU512
 580:STM32Cube_FW_N6/Utilities/lcd/stm32_lcd.c ****     if (num >= den)                           /* Check if numerator >= denominator */
 1817              		.loc 1 580 9 is_stmt 0 view .LVU513
 1818 008e AAB2     		uxth	r2, r5
 1819 0090 2DB2     		sxth	r5, r5
 1820              	.LVL153:
 581:STM32Cube_FW_N6/Utilities/lcd/stm32_lcd.c ****     {
 1821              		.loc 1 581 5 is_stmt 1 view .LVU514
 581:STM32Cube_FW_N6/Utilities/lcd/stm32_lcd.c ****     {
 1822              		.loc 1 581 8 is_stmt 0 view .LVU515
 1823 0092 AC42     		cmp	r4, r5
 1824 0094 039B     		ldr	r3, [sp, #12]
 1825 0096 08DC     		bgt	.L125
 583:STM32Cube_FW_N6/Utilities/lcd/stm32_lcd.c ****       x += xinc1;                             /* Change the x as appropriate */
 1826              		.loc 1 583 7 is_stmt 1 view .LVU516
 584:STM32Cube_FW_N6/Utilities/lcd/stm32_lcd.c ****       y += yinc1;                             /* Change the y as appropriate */
ARM GAS  C:\Users\DJESSOU\AppData\Local\Temp\ccR55SEh.s 			page 58


 1827              		.loc 1 584 9 is_stmt 0 view .LVU517
 1828 0098 0198     		ldr	r0, [sp, #4]
 585:STM32Cube_FW_N6/Utilities/lcd/stm32_lcd.c ****     }
 1829              		.loc 1 585 9 view .LVU518
 1830 009a 0299     		ldr	r1, [sp, #8]
 583:STM32Cube_FW_N6/Utilities/lcd/stm32_lcd.c ****       x += xinc1;                             /* Change the x as appropriate */
 1831              		.loc 1 583 11 view .LVU519
 1832 009c 121B     		subs	r2, r2, r4
 584:STM32Cube_FW_N6/Utilities/lcd/stm32_lcd.c ****       y += yinc1;                             /* Change the y as appropriate */
 1833              		.loc 1 584 9 view .LVU520
 1834 009e 4844     		add	r0, r0, r9
 585:STM32Cube_FW_N6/Utilities/lcd/stm32_lcd.c ****     }
 1835              		.loc 1 585 9 view .LVU521
 1836 00a0 5144     		add	r1, r1, r10
 583:STM32Cube_FW_N6/Utilities/lcd/stm32_lcd.c ****       x += xinc1;                             /* Change the x as appropriate */
 1837              		.loc 1 583 11 view .LVU522
 1838 00a2 15B2     		sxth	r5, r2
 1839              	.LVL154:
 584:STM32Cube_FW_N6/Utilities/lcd/stm32_lcd.c ****       y += yinc1;                             /* Change the y as appropriate */
 1840              		.loc 1 584 7 is_stmt 1 view .LVU523
 584:STM32Cube_FW_N6/Utilities/lcd/stm32_lcd.c ****       y += yinc1;                             /* Change the y as appropriate */
 1841              		.loc 1 584 9 is_stmt 0 view .LVU524
 1842 00a4 07B2     		sxth	r7, r0
 1843              	.LVL155:
 585:STM32Cube_FW_N6/Utilities/lcd/stm32_lcd.c ****     }
 1844              		.loc 1 585 7 is_stmt 1 view .LVU525
 585:STM32Cube_FW_N6/Utilities/lcd/stm32_lcd.c ****     }
 1845              		.loc 1 585 9 is_stmt 0 view .LVU526
 1846 00a6 0FFA81F8 		sxth	r8, r1
 1847              	.LVL156:
 1848              	.L125:
 587:STM32Cube_FW_N6/Utilities/lcd/stm32_lcd.c ****     y += yinc2;                               /* Change the y as appropriate */
 1849              		.loc 1 587 5 is_stmt 1 view .LVU527
 587:STM32Cube_FW_N6/Utilities/lcd/stm32_lcd.c ****     y += yinc2;                               /* Change the y as appropriate */
 1850              		.loc 1 587 7 is_stmt 0 view .LVU528
 1851 00aa 009A     		ldr	r2, [sp]
 588:STM32Cube_FW_N6/Utilities/lcd/stm32_lcd.c ****   }
 1852              		.loc 1 588 7 view .LVU529
 1853 00ac 9844     		add	r8, r8, r3
 1854              	.LVL157:
 587:STM32Cube_FW_N6/Utilities/lcd/stm32_lcd.c ****     y += yinc2;                               /* Change the y as appropriate */
 1855              		.loc 1 587 7 view .LVU530
 1856 00ae 1744     		add	r7, r7, r2
 1857              	.LVL158:
 587:STM32Cube_FW_N6/Utilities/lcd/stm32_lcd.c ****     y += yinc2;                               /* Change the y as appropriate */
 1858              		.loc 1 587 7 view .LVU531
 1859 00b0 3FB2     		sxth	r7, r7
 1860              	.LVL159:
 588:STM32Cube_FW_N6/Utilities/lcd/stm32_lcd.c ****   }
 1861              		.loc 1 588 5 is_stmt 1 view .LVU532
 588:STM32Cube_FW_N6/Utilities/lcd/stm32_lcd.c ****   }
 1862              		.loc 1 588 7 is_stmt 0 view .LVU533
 1863 00b2 0FFA88F8 		sxth	r8, r8
 1864              	.LVL160:
 577:STM32Cube_FW_N6/Utilities/lcd/stm32_lcd.c ****   {
 1865              		.loc 1 577 53 is_stmt 1 discriminator 2 view .LVU534
 577:STM32Cube_FW_N6/Utilities/lcd/stm32_lcd.c ****   {
ARM GAS  C:\Users\DJESSOU\AppData\Local\Temp\ccR55SEh.s 			page 59


 1866              		.loc 1 577 53 is_stmt 0 discriminator 2 view .LVU535
 1867 00b6 0BF1010B 		add	fp, fp, #1
 1868              	.LVL161:
 577:STM32Cube_FW_N6/Utilities/lcd/stm32_lcd.c ****   {
 1869              		.loc 1 577 53 discriminator 2 view .LVU536
 1870 00ba CAE7     		b	.L124
 1871              		.cfi_endproc
 1872              	.LFE19:
 1874              		.section	.text.FillTriangle,"ax",%progbits
 1875              		.align	1
 1876              		.syntax unified
 1877              		.thumb
 1878              		.thumb_func
 1880              	FillTriangle:
 1881              	.LVL162:
 1882              	.LFB30:
1101:STM32Cube_FW_N6/Utilities/lcd/stm32_lcd.c ****     }
1102:STM32Cube_FW_N6/Utilities/lcd/stm32_lcd.c ****   }
1103:STM32Cube_FW_N6/Utilities/lcd/stm32_lcd.c **** }
1104:STM32Cube_FW_N6/Utilities/lcd/stm32_lcd.c **** 
1105:STM32Cube_FW_N6/Utilities/lcd/stm32_lcd.c **** /**
1106:STM32Cube_FW_N6/Utilities/lcd/stm32_lcd.c ****   * @brief  Fills a triangle (between 3 points).
1107:STM32Cube_FW_N6/Utilities/lcd/stm32_lcd.c ****   * @param  Positions  pointer to riangle coordinates
1108:STM32Cube_FW_N6/Utilities/lcd/stm32_lcd.c ****   * @param  Color      Draw color
1109:STM32Cube_FW_N6/Utilities/lcd/stm32_lcd.c ****   */
1110:STM32Cube_FW_N6/Utilities/lcd/stm32_lcd.c **** static void FillTriangle(Triangle_Positions_t *Positions, uint32_t Color)
1111:STM32Cube_FW_N6/Utilities/lcd/stm32_lcd.c **** {
 1883              		.loc 1 1111 1 is_stmt 1 view -0
 1884              		.cfi_startproc
 1885              		@ args = 0, pretend = 0, frame = 16
 1886              		@ frame_needed = 0, uses_anonymous_args = 0
1112:STM32Cube_FW_N6/Utilities/lcd/stm32_lcd.c ****   int16_t deltax = 0, deltay = 0, x = 0, y = 0, xinc1 = 0, xinc2 = 0,
 1887              		.loc 1 1112 3 view .LVU538
1113:STM32Cube_FW_N6/Utilities/lcd/stm32_lcd.c ****   yinc1 = 0, yinc2 = 0, den = 0, num = 0, numadd = 0, numpixels = 0,
1114:STM32Cube_FW_N6/Utilities/lcd/stm32_lcd.c ****   curpixel = 0;
1115:STM32Cube_FW_N6/Utilities/lcd/stm32_lcd.c ****   int32_t x_diff, y_diff;
 1888              		.loc 1 1115 3 view .LVU539
1116:STM32Cube_FW_N6/Utilities/lcd/stm32_lcd.c **** 
1117:STM32Cube_FW_N6/Utilities/lcd/stm32_lcd.c ****   x_diff = Positions->x2 - Positions->x1;
 1889              		.loc 1 1117 3 view .LVU540
 1890              		.loc 1 1117 21 is_stmt 0 view .LVU541
 1891 0000 D0F808C0 		ldr	ip, [r0, #8]
 1892              		.loc 1 1117 37 view .LVU542
 1893 0004 0268     		ldr	r2, [r0]
 1894              	.LVL163:
1118:STM32Cube_FW_N6/Utilities/lcd/stm32_lcd.c ****   y_diff = Positions->y2 - Positions->y1;
 1895              		.loc 1 1118 3 is_stmt 1 view .LVU543
1111:STM32Cube_FW_N6/Utilities/lcd/stm32_lcd.c ****   int16_t deltax = 0, deltay = 0, x = 0, y = 0, xinc1 = 0, xinc2 = 0,
 1896              		.loc 1 1111 1 is_stmt 0 view .LVU544
 1897 0006 2DE9F04F 		push	{r4, r5, r6, r7, r8, r9, r10, fp, lr}
 1898              		.cfi_def_cfa_offset 36
 1899              		.cfi_offset 4, -36
 1900              		.cfi_offset 5, -32
 1901              		.cfi_offset 6, -28
 1902              		.cfi_offset 7, -24
 1903              		.cfi_offset 8, -20
 1904              		.cfi_offset 9, -16
ARM GAS  C:\Users\DJESSOU\AppData\Local\Temp\ccR55SEh.s 			page 60


 1905              		.cfi_offset 10, -12
 1906              		.cfi_offset 11, -8
 1907              		.cfi_offset 14, -4
 1908              		.loc 1 1118 37 view .LVU545
 1909 000a 4368     		ldr	r3, [r0, #4]
 1910              		.loc 1 1118 21 view .LVU546
 1911 000c C568     		ldr	r5, [r0, #12]
 1912              	.LVL164:
1119:STM32Cube_FW_N6/Utilities/lcd/stm32_lcd.c **** 
1120:STM32Cube_FW_N6/Utilities/lcd/stm32_lcd.c ****   deltax = ABS(x_diff);         /* The absolute difference between the x's */
 1913              		.loc 1 1120 3 is_stmt 1 view .LVU547
1117:STM32Cube_FW_N6/Utilities/lcd/stm32_lcd.c ****   y_diff = Positions->y2 - Positions->y1;
 1914              		.loc 1 1117 26 is_stmt 0 view .LVU548
 1915 000e ACEB0204 		sub	r4, ip, r2
 1916              	.LVL165:
 1917              		.loc 1 1120 12 view .LVU549
 1918 0012 002C     		cmp	r4, #0
1118:STM32Cube_FW_N6/Utilities/lcd/stm32_lcd.c **** 
 1919              		.loc 1 1118 26 view .LVU550
 1920 0014 A5EB0306 		sub	r6, r5, r3
 1921              	.LVL166:
 1922              		.loc 1 1120 12 view .LVU551
 1923 0018 B8BF     		it	lt
 1924 001a 6442     		rsblt	r4, r4, #0
 1925              	.LVL167:
1121:STM32Cube_FW_N6/Utilities/lcd/stm32_lcd.c ****   deltay = ABS(y_diff);         /* The absolute difference between the y's */
 1926              		.loc 1 1121 12 view .LVU552
 1927 001c 002E     		cmp	r6, #0
 1928 001e B8BF     		it	lt
 1929 0020 7642     		rsblt	r6, r6, #0
 1930              	.LVL168:
1122:STM32Cube_FW_N6/Utilities/lcd/stm32_lcd.c ****   x = Positions->x1;                       /* Start x off at the first pixel */
1123:STM32Cube_FW_N6/Utilities/lcd/stm32_lcd.c ****   y = Positions->y1;                       /* Start y off at the first pixel */
1124:STM32Cube_FW_N6/Utilities/lcd/stm32_lcd.c **** 
1125:STM32Cube_FW_N6/Utilities/lcd/stm32_lcd.c ****   if (Positions->x2 >= Positions->x1)                 /* The x-values are increasing */
1126:STM32Cube_FW_N6/Utilities/lcd/stm32_lcd.c ****   {
1127:STM32Cube_FW_N6/Utilities/lcd/stm32_lcd.c ****     xinc1 = 1;
 1931              		.loc 1 1127 11 view .LVU553
 1932 0022 9445     		cmp	ip, r2
 1933 0024 34BF     		ite	cc
 1934 0026 4FF0FF38 		movcc	r8, #-1
 1935 002a 4FF00108 		movcs	r8, #1
1120:STM32Cube_FW_N6/Utilities/lcd/stm32_lcd.c ****   deltay = ABS(y_diff);         /* The absolute difference between the y's */
 1936              		.loc 1 1120 10 view .LVU554
 1937 002e 24B2     		sxth	r4, r4
 1938              	.LVL169:
1121:STM32Cube_FW_N6/Utilities/lcd/stm32_lcd.c ****   deltay = ABS(y_diff);         /* The absolute difference between the y's */
 1939              		.loc 1 1121 3 is_stmt 1 view .LVU555
1128:STM32Cube_FW_N6/Utilities/lcd/stm32_lcd.c ****     xinc2 = 1;
1129:STM32Cube_FW_N6/Utilities/lcd/stm32_lcd.c ****   }
1130:STM32Cube_FW_N6/Utilities/lcd/stm32_lcd.c ****   else                          /* The x-values are decreasing */
1131:STM32Cube_FW_N6/Utilities/lcd/stm32_lcd.c ****   {
1132:STM32Cube_FW_N6/Utilities/lcd/stm32_lcd.c ****     xinc1 = -1;
1133:STM32Cube_FW_N6/Utilities/lcd/stm32_lcd.c ****     xinc2 = -1;
1134:STM32Cube_FW_N6/Utilities/lcd/stm32_lcd.c ****   }
1135:STM32Cube_FW_N6/Utilities/lcd/stm32_lcd.c **** 
1136:STM32Cube_FW_N6/Utilities/lcd/stm32_lcd.c ****   if (Positions->y2 >= Positions->y1)                 /* The y-values are increasing */
ARM GAS  C:\Users\DJESSOU\AppData\Local\Temp\ccR55SEh.s 			page 61


1137:STM32Cube_FW_N6/Utilities/lcd/stm32_lcd.c ****   {
1138:STM32Cube_FW_N6/Utilities/lcd/stm32_lcd.c ****     yinc1 = 1;
 1940              		.loc 1 1138 11 is_stmt 0 view .LVU556
 1941 0030 9D42     		cmp	r5, r3
1121:STM32Cube_FW_N6/Utilities/lcd/stm32_lcd.c ****   x = Positions->x1;                       /* Start x off at the first pixel */
 1942              		.loc 1 1121 10 view .LVU557
 1943 0032 36B2     		sxth	r6, r6
 1944              	.LVL170:
1122:STM32Cube_FW_N6/Utilities/lcd/stm32_lcd.c ****   y = Positions->y1;                       /* Start y off at the first pixel */
 1945              		.loc 1 1122 3 is_stmt 1 view .LVU558
 1946              		.loc 1 1138 11 is_stmt 0 view .LVU559
 1947 0034 34BF     		ite	cc
 1948 0036 4FF0FF39 		movcc	r9, #-1
 1949 003a 4FF00109 		movcs	r9, #1
1111:STM32Cube_FW_N6/Utilities/lcd/stm32_lcd.c ****   int16_t deltax = 0, deltay = 0, x = 0, y = 0, xinc1 = 0, xinc2 = 0,
 1950              		.loc 1 1111 1 view .LVU560
 1951 003e 87B0     		sub	sp, sp, #28
 1952              		.cfi_def_cfa_offset 64
1139:STM32Cube_FW_N6/Utilities/lcd/stm32_lcd.c ****     yinc2 = 1;
1140:STM32Cube_FW_N6/Utilities/lcd/stm32_lcd.c ****   }
1141:STM32Cube_FW_N6/Utilities/lcd/stm32_lcd.c ****   else                          /* The y-values are decreasing */
1142:STM32Cube_FW_N6/Utilities/lcd/stm32_lcd.c ****   {
1143:STM32Cube_FW_N6/Utilities/lcd/stm32_lcd.c ****     yinc1 = -1;
1144:STM32Cube_FW_N6/Utilities/lcd/stm32_lcd.c ****     yinc2 = -1;
1145:STM32Cube_FW_N6/Utilities/lcd/stm32_lcd.c ****   }
1146:STM32Cube_FW_N6/Utilities/lcd/stm32_lcd.c **** 
1147:STM32Cube_FW_N6/Utilities/lcd/stm32_lcd.c ****   if (deltax >= deltay)         /* There is at least one x-value for every y-value */
 1953              		.loc 1 1147 6 view .LVU561
 1954 0040 B442     		cmp	r4, r6
1111:STM32Cube_FW_N6/Utilities/lcd/stm32_lcd.c ****   int16_t deltax = 0, deltay = 0, x = 0, y = 0, xinc1 = 0, xinc2 = 0,
 1955              		.loc 1 1111 1 view .LVU562
 1956 0042 0746     		mov	r7, r0
 1957 0044 0391     		str	r1, [sp, #12]
1122:STM32Cube_FW_N6/Utilities/lcd/stm32_lcd.c ****   y = Positions->y1;                       /* Start y off at the first pixel */
 1958              		.loc 1 1122 5 view .LVU563
 1959 0046 10B2     		sxth	r0, r2
 1960              	.LVL171:
1123:STM32Cube_FW_N6/Utilities/lcd/stm32_lcd.c **** 
 1961              		.loc 1 1123 3 is_stmt 1 view .LVU564
1123:STM32Cube_FW_N6/Utilities/lcd/stm32_lcd.c **** 
 1962              		.loc 1 1123 5 is_stmt 0 view .LVU565
 1963 0048 19B2     		sxth	r1, r3
 1964              	.LVL172:
1125:STM32Cube_FW_N6/Utilities/lcd/stm32_lcd.c ****   {
 1965              		.loc 1 1125 3 is_stmt 1 view .LVU566
1136:STM32Cube_FW_N6/Utilities/lcd/stm32_lcd.c ****   {
 1966              		.loc 1 1136 3 view .LVU567
 1967              		.loc 1 1147 3 view .LVU568
 1968              		.loc 1 1147 6 is_stmt 0 view .LVU569
 1969 004a 10DB     		blt	.L132
1148:STM32Cube_FW_N6/Utilities/lcd/stm32_lcd.c ****   {
1149:STM32Cube_FW_N6/Utilities/lcd/stm32_lcd.c ****     xinc1 = 0;                  /* Don't change the x when numerator >= denominator */
 1970              		.loc 1 1149 5 is_stmt 1 view .LVU570
 1971              	.LVL173:
1150:STM32Cube_FW_N6/Utilities/lcd/stm32_lcd.c ****     yinc2 = 0;                  /* Don't change the y for every iteration */
 1972              		.loc 1 1150 5 view .LVU571
1151:STM32Cube_FW_N6/Utilities/lcd/stm32_lcd.c ****     den = deltax;
ARM GAS  C:\Users\DJESSOU\AppData\Local\Temp\ccR55SEh.s 			page 62


 1973              		.loc 1 1151 5 view .LVU572
1152:STM32Cube_FW_N6/Utilities/lcd/stm32_lcd.c ****     num = deltax / 2;
 1974              		.loc 1 1152 5 view .LVU573
 1975 004c CDF80880 		str	r8, [sp, #8]
1150:STM32Cube_FW_N6/Utilities/lcd/stm32_lcd.c ****     yinc2 = 0;                  /* Don't change the y for every iteration */
 1976              		.loc 1 1150 11 is_stmt 0 view .LVU574
 1977 0050 4FF00008 		mov	r8, #0
 1978              	.LVL174:
1149:STM32Cube_FW_N6/Utilities/lcd/stm32_lcd.c ****     yinc2 = 0;                  /* Don't change the y for every iteration */
 1979              		.loc 1 1149 11 view .LVU575
 1980 0054 C346     		mov	fp, r8
 1981              		.loc 1 1152 9 view .LVU576
 1982 0056 04EBD475 		add	r5, r4, r4, lsr #31
 1983              	.LVL175:
 1984              		.loc 1 1152 9 view .LVU577
 1985 005a 6D10     		asrs	r5, r5, #1
 1986              	.LVL176:
1153:STM32Cube_FW_N6/Utilities/lcd/stm32_lcd.c ****     numadd = deltay;
 1987              		.loc 1 1153 5 is_stmt 1 view .LVU578
1154:STM32Cube_FW_N6/Utilities/lcd/stm32_lcd.c ****     numpixels = deltax;         /* There are more x-values than y-values */
 1988              		.loc 1 1154 5 view .LVU579
 1989              	.L133:
1155:STM32Cube_FW_N6/Utilities/lcd/stm32_lcd.c ****   }
1156:STM32Cube_FW_N6/Utilities/lcd/stm32_lcd.c ****   else                          /* There is at least one y-value for every x-value */
1157:STM32Cube_FW_N6/Utilities/lcd/stm32_lcd.c ****   {
1158:STM32Cube_FW_N6/Utilities/lcd/stm32_lcd.c ****     xinc2 = 0;                  /* Don't change the x for every iteration */
1159:STM32Cube_FW_N6/Utilities/lcd/stm32_lcd.c ****     yinc1 = 0;                  /* Don't change the y when numerator >= denominator */
1160:STM32Cube_FW_N6/Utilities/lcd/stm32_lcd.c ****     den = deltay;
1161:STM32Cube_FW_N6/Utilities/lcd/stm32_lcd.c ****     num = deltay / 2;
1162:STM32Cube_FW_N6/Utilities/lcd/stm32_lcd.c ****     numadd = deltax;
1163:STM32Cube_FW_N6/Utilities/lcd/stm32_lcd.c ****     numpixels = deltay;         /* There are more y-values than x-values */
1164:STM32Cube_FW_N6/Utilities/lcd/stm32_lcd.c ****   }
1165:STM32Cube_FW_N6/Utilities/lcd/stm32_lcd.c **** 
1166:STM32Cube_FW_N6/Utilities/lcd/stm32_lcd.c ****   for (curpixel = 0; curpixel <= numpixels; curpixel++)
 1990              		.loc 1 1166 3 view .LVU580
 1991              		.loc 1 1166 3 is_stmt 0 view .LVU581
 1992 005c 4FF0000A 		mov	r10, #0
 1993              	.LVL177:
 1994              	.L134:
 1995              		.loc 1 1166 31 is_stmt 1 discriminator 1 view .LVU582
 1996 0060 0FFA8AF3 		sxth	r3, r10
 1997 0064 9C42     		cmp	r4, r3
 1998 0066 0FDA     		bge	.L136
1167:STM32Cube_FW_N6/Utilities/lcd/stm32_lcd.c ****   {
1168:STM32Cube_FW_N6/Utilities/lcd/stm32_lcd.c ****     UTIL_LCD_DrawLine(x, y, Positions->x3, Positions->y3, Color);
1169:STM32Cube_FW_N6/Utilities/lcd/stm32_lcd.c **** 
1170:STM32Cube_FW_N6/Utilities/lcd/stm32_lcd.c ****     num += numadd;              /* Increase the numerator by the top of the fraction */
1171:STM32Cube_FW_N6/Utilities/lcd/stm32_lcd.c ****     if (num >= den)             /* Check if numerator >= denominator */
1172:STM32Cube_FW_N6/Utilities/lcd/stm32_lcd.c ****     {
1173:STM32Cube_FW_N6/Utilities/lcd/stm32_lcd.c ****       num -= den;               /* Calculate the new numerator value */
1174:STM32Cube_FW_N6/Utilities/lcd/stm32_lcd.c ****       x += xinc1;               /* Change the x as appropriate */
1175:STM32Cube_FW_N6/Utilities/lcd/stm32_lcd.c ****       y += yinc1;               /* Change the y as appropriate */
1176:STM32Cube_FW_N6/Utilities/lcd/stm32_lcd.c ****     }
1177:STM32Cube_FW_N6/Utilities/lcd/stm32_lcd.c ****     x += xinc2;                 /* Change the x as appropriate */
1178:STM32Cube_FW_N6/Utilities/lcd/stm32_lcd.c ****     y += yinc2;                 /* Change the y as appropriate */
1179:STM32Cube_FW_N6/Utilities/lcd/stm32_lcd.c ****   }
1180:STM32Cube_FW_N6/Utilities/lcd/stm32_lcd.c **** }
ARM GAS  C:\Users\DJESSOU\AppData\Local\Temp\ccR55SEh.s 			page 63


 1999              		.loc 1 1180 1 is_stmt 0 view .LVU583
 2000 0068 07B0     		add	sp, sp, #28
 2001              		.cfi_remember_state
 2002              		.cfi_def_cfa_offset 36
 2003              		@ sp needed
 2004 006a BDE8F08F 		pop	{r4, r5, r6, r7, r8, r9, r10, fp, pc}
 2005              	.LVL178:
 2006              	.L132:
 2007              		.cfi_restore_state
1158:STM32Cube_FW_N6/Utilities/lcd/stm32_lcd.c ****     yinc1 = 0;                  /* Don't change the y when numerator >= denominator */
 2008              		.loc 1 1158 5 is_stmt 1 view .LVU584
1159:STM32Cube_FW_N6/Utilities/lcd/stm32_lcd.c ****     den = deltay;
 2009              		.loc 1 1159 5 view .LVU585
1160:STM32Cube_FW_N6/Utilities/lcd/stm32_lcd.c ****     num = deltay / 2;
 2010              		.loc 1 1160 5 view .LVU586
1161:STM32Cube_FW_N6/Utilities/lcd/stm32_lcd.c ****     numadd = deltax;
 2011              		.loc 1 1161 5 view .LVU587
1161:STM32Cube_FW_N6/Utilities/lcd/stm32_lcd.c ****     numadd = deltax;
 2012              		.loc 1 1161 9 is_stmt 0 view .LVU588
 2013 006e 2346     		mov	r3, r4
 2014              	.LVL179:
1161:STM32Cube_FW_N6/Utilities/lcd/stm32_lcd.c ****     numadd = deltax;
 2015              		.loc 1 1161 9 view .LVU589
 2016 0070 CB46     		mov	fp, r9
1159:STM32Cube_FW_N6/Utilities/lcd/stm32_lcd.c ****     den = deltay;
 2017              		.loc 1 1159 11 view .LVU590
 2018 0072 4FF00009 		mov	r9, #0
 2019              	.LVL180:
1161:STM32Cube_FW_N6/Utilities/lcd/stm32_lcd.c ****     numadd = deltax;
 2020              		.loc 1 1161 9 view .LVU591
 2021 0076 06EBD675 		add	r5, r6, r6, lsr #31
 2022              	.LVL181:
1160:STM32Cube_FW_N6/Utilities/lcd/stm32_lcd.c ****     num = deltay / 2;
 2023              		.loc 1 1160 9 view .LVU592
 2024 007a 3446     		mov	r4, r6
 2025              	.LVL182:
1161:STM32Cube_FW_N6/Utilities/lcd/stm32_lcd.c ****     numadd = deltax;
 2026              		.loc 1 1161 9 view .LVU593
 2027 007c 45F34F05 		sbfx	r5, r5, #1, #16
 2028              	.LVL183:
1162:STM32Cube_FW_N6/Utilities/lcd/stm32_lcd.c ****     numpixels = deltay;         /* There are more y-values than x-values */
 2029              		.loc 1 1162 5 is_stmt 1 view .LVU594
1163:STM32Cube_FW_N6/Utilities/lcd/stm32_lcd.c ****   }
 2030              		.loc 1 1163 5 view .LVU595
1162:STM32Cube_FW_N6/Utilities/lcd/stm32_lcd.c ****     numpixels = deltay;         /* There are more y-values than x-values */
 2031              		.loc 1 1162 12 is_stmt 0 view .LVU596
 2032 0080 1E46     		mov	r6, r3
 2033              	.LVL184:
1158:STM32Cube_FW_N6/Utilities/lcd/stm32_lcd.c ****     yinc1 = 0;                  /* Don't change the y when numerator >= denominator */
 2034              		.loc 1 1158 11 view .LVU597
 2035 0082 CDF80890 		str	r9, [sp, #8]
 2036 0086 E9E7     		b	.L133
 2037              	.LVL185:
 2038              	.L136:
1168:STM32Cube_FW_N6/Utilities/lcd/stm32_lcd.c **** 
 2039              		.loc 1 1168 5 is_stmt 1 view .LVU598
 2040 0088 039B     		ldr	r3, [sp, #12]
ARM GAS  C:\Users\DJESSOU\AppData\Local\Temp\ccR55SEh.s 			page 64


1170:STM32Cube_FW_N6/Utilities/lcd/stm32_lcd.c ****     if (num >= den)             /* Check if numerator >= denominator */
 2041              		.loc 1 1170 9 is_stmt 0 view .LVU599
 2042 008a 3544     		add	r5, r5, r6
 2043              	.LVL186:
1168:STM32Cube_FW_N6/Utilities/lcd/stm32_lcd.c **** 
 2044              		.loc 1 1168 5 view .LVU600
 2045 008c 0093     		str	r3, [sp]
 2046 008e D7E90423 		ldrd	r2, r3, [r7, #16]
 2047 0092 CDE90401 		strd	r0, r1, [sp, #16]
 2048 0096 FFF7FEFF 		bl	UTIL_LCD_DrawLine
 2049              	.LVL187:
1170:STM32Cube_FW_N6/Utilities/lcd/stm32_lcd.c ****     if (num >= den)             /* Check if numerator >= denominator */
 2050              		.loc 1 1170 5 is_stmt 1 view .LVU601
1171:STM32Cube_FW_N6/Utilities/lcd/stm32_lcd.c ****     {
 2051              		.loc 1 1171 8 is_stmt 0 view .LVU602
 2052 009a DDE90401 		ldrd	r0, r1, [sp, #16]
1170:STM32Cube_FW_N6/Utilities/lcd/stm32_lcd.c ****     if (num >= den)             /* Check if numerator >= denominator */
 2053              		.loc 1 1170 9 view .LVU603
 2054 009e ABB2     		uxth	r3, r5
 2055 00a0 2DB2     		sxth	r5, r5
 2056              	.LVL188:
1171:STM32Cube_FW_N6/Utilities/lcd/stm32_lcd.c ****     {
 2057              		.loc 1 1171 5 is_stmt 1 view .LVU604
1171:STM32Cube_FW_N6/Utilities/lcd/stm32_lcd.c ****     {
 2058              		.loc 1 1171 8 is_stmt 0 view .LVU605
 2059 00a2 AC42     		cmp	r4, r5
 2060 00a4 05DC     		bgt	.L135
1173:STM32Cube_FW_N6/Utilities/lcd/stm32_lcd.c ****       x += xinc1;               /* Change the x as appropriate */
 2061              		.loc 1 1173 7 is_stmt 1 view .LVU606
1173:STM32Cube_FW_N6/Utilities/lcd/stm32_lcd.c ****       x += xinc1;               /* Change the x as appropriate */
 2062              		.loc 1 1173 11 is_stmt 0 view .LVU607
 2063 00a6 1B1B     		subs	r3, r3, r4
1174:STM32Cube_FW_N6/Utilities/lcd/stm32_lcd.c ****       y += yinc1;               /* Change the y as appropriate */
 2064              		.loc 1 1174 9 view .LVU608
 2065 00a8 4044     		add	r0, r0, r8
1175:STM32Cube_FW_N6/Utilities/lcd/stm32_lcd.c ****     }
 2066              		.loc 1 1175 9 view .LVU609
 2067 00aa 4944     		add	r1, r1, r9
1173:STM32Cube_FW_N6/Utilities/lcd/stm32_lcd.c ****       x += xinc1;               /* Change the x as appropriate */
 2068              		.loc 1 1173 11 view .LVU610
 2069 00ac 1DB2     		sxth	r5, r3
 2070              	.LVL189:
1174:STM32Cube_FW_N6/Utilities/lcd/stm32_lcd.c ****       y += yinc1;               /* Change the y as appropriate */
 2071              		.loc 1 1174 7 is_stmt 1 view .LVU611
1174:STM32Cube_FW_N6/Utilities/lcd/stm32_lcd.c ****       y += yinc1;               /* Change the y as appropriate */
 2072              		.loc 1 1174 9 is_stmt 0 view .LVU612
 2073 00ae 00B2     		sxth	r0, r0
 2074              	.LVL190:
1175:STM32Cube_FW_N6/Utilities/lcd/stm32_lcd.c ****     }
 2075              		.loc 1 1175 7 is_stmt 1 view .LVU613
1175:STM32Cube_FW_N6/Utilities/lcd/stm32_lcd.c ****     }
 2076              		.loc 1 1175 9 is_stmt 0 view .LVU614
 2077 00b0 09B2     		sxth	r1, r1
 2078              	.LVL191:
 2079              	.L135:
1177:STM32Cube_FW_N6/Utilities/lcd/stm32_lcd.c ****     y += yinc2;                 /* Change the y as appropriate */
 2080              		.loc 1 1177 5 is_stmt 1 view .LVU615
ARM GAS  C:\Users\DJESSOU\AppData\Local\Temp\ccR55SEh.s 			page 65


1177:STM32Cube_FW_N6/Utilities/lcd/stm32_lcd.c ****     y += yinc2;                 /* Change the y as appropriate */
 2081              		.loc 1 1177 7 is_stmt 0 view .LVU616
 2082 00b2 029B     		ldr	r3, [sp, #8]
1178:STM32Cube_FW_N6/Utilities/lcd/stm32_lcd.c ****   }
 2083              		.loc 1 1178 7 view .LVU617
 2084 00b4 5944     		add	r1, r1, fp
 2085              	.LVL192:
1177:STM32Cube_FW_N6/Utilities/lcd/stm32_lcd.c ****     y += yinc2;                 /* Change the y as appropriate */
 2086              		.loc 1 1177 7 view .LVU618
 2087 00b6 1844     		add	r0, r0, r3
 2088              	.LVL193:
1177:STM32Cube_FW_N6/Utilities/lcd/stm32_lcd.c ****     y += yinc2;                 /* Change the y as appropriate */
 2089              		.loc 1 1177 7 view .LVU619
 2090 00b8 00B2     		sxth	r0, r0
 2091              	.LVL194:
1178:STM32Cube_FW_N6/Utilities/lcd/stm32_lcd.c ****   }
 2092              		.loc 1 1178 5 is_stmt 1 view .LVU620
1178:STM32Cube_FW_N6/Utilities/lcd/stm32_lcd.c ****   }
 2093              		.loc 1 1178 7 is_stmt 0 view .LVU621
 2094 00ba 09B2     		sxth	r1, r1
 2095              	.LVL195:
1166:STM32Cube_FW_N6/Utilities/lcd/stm32_lcd.c ****   {
 2096              		.loc 1 1166 53 is_stmt 1 discriminator 2 view .LVU622
1166:STM32Cube_FW_N6/Utilities/lcd/stm32_lcd.c ****   {
 2097              		.loc 1 1166 53 is_stmt 0 discriminator 2 view .LVU623
 2098 00bc 0AF1010A 		add	r10, r10, #1
 2099              	.LVL196:
1166:STM32Cube_FW_N6/Utilities/lcd/stm32_lcd.c ****   {
 2100              		.loc 1 1166 53 discriminator 2 view .LVU624
 2101 00c0 CEE7     		b	.L134
 2102              		.cfi_endproc
 2103              	.LFE30:
 2105              		.section	.text.UTIL_LCD_DrawRect,"ax",%progbits
 2106              		.align	1
 2107              		.global	UTIL_LCD_DrawRect
 2108              		.syntax unified
 2109              		.thumb
 2110              		.thumb_func
 2112              	UTIL_LCD_DrawRect:
 2113              	.LVL197:
 2114              	.LFB20:
 601:STM32Cube_FW_N6/Utilities/lcd/stm32_lcd.c ****   /* Draw horizontal lines */
 2115              		.loc 1 601 1 is_stmt 1 view -0
 2116              		.cfi_startproc
 2117              		@ args = 4, pretend = 0, frame = 0
 2118              		@ frame_needed = 0, uses_anonymous_args = 0
 603:STM32Cube_FW_N6/Utilities/lcd/stm32_lcd.c ****   UTIL_LCD_DrawHLine(Xpos, (Ypos+ Height - 1U), Width, Color);
 2119              		.loc 1 603 3 view .LVU626
 601:STM32Cube_FW_N6/Utilities/lcd/stm32_lcd.c ****   /* Draw horizontal lines */
 2120              		.loc 1 601 1 is_stmt 0 view .LVU627
 2121 0000 2DE9F041 		push	{r4, r5, r6, r7, r8, lr}
 2122              		.cfi_def_cfa_offset 24
 2123              		.cfi_offset 4, -24
 2124              		.cfi_offset 5, -20
 2125              		.cfi_offset 6, -16
 2126              		.cfi_offset 7, -12
 2127              		.cfi_offset 8, -8
ARM GAS  C:\Users\DJESSOU\AppData\Local\Temp\ccR55SEh.s 			page 66


 2128              		.cfi_offset 14, -4
 601:STM32Cube_FW_N6/Utilities/lcd/stm32_lcd.c ****   /* Draw horizontal lines */
 2129              		.loc 1 601 1 view .LVU628
 2130 0004 1F46     		mov	r7, r3
 2131 0006 0E46     		mov	r6, r1
 2132 0008 0546     		mov	r5, r0
 2133 000a 1446     		mov	r4, r2
 2134 000c DDF81880 		ldr	r8, [sp, #24]
 603:STM32Cube_FW_N6/Utilities/lcd/stm32_lcd.c ****   UTIL_LCD_DrawHLine(Xpos, (Ypos+ Height - 1U), Width, Color);
 2135              		.loc 1 603 3 view .LVU629
 2136 0010 4346     		mov	r3, r8
 2137              	.LVL198:
 603:STM32Cube_FW_N6/Utilities/lcd/stm32_lcd.c ****   UTIL_LCD_DrawHLine(Xpos, (Ypos+ Height - 1U), Width, Color);
 2138              		.loc 1 603 3 view .LVU630
 2139 0012 FFF7FEFF 		bl	UTIL_LCD_DrawHLine
 2140              	.LVL199:
 604:STM32Cube_FW_N6/Utilities/lcd/stm32_lcd.c **** 
 2141              		.loc 1 604 3 is_stmt 1 view .LVU631
 2142 0016 791E     		subs	r1, r7, #1
 2143 0018 4346     		mov	r3, r8
 2144 001a 2246     		mov	r2, r4
 2145 001c 2846     		mov	r0, r5
 2146 001e 3144     		add	r1, r1, r6
 2147 0020 FFF7FEFF 		bl	UTIL_LCD_DrawHLine
 2148              	.LVL200:
 607:STM32Cube_FW_N6/Utilities/lcd/stm32_lcd.c ****   UTIL_LCD_DrawVLine((Xpos + Width - 1U), Ypos, Height, Color);
 2149              		.loc 1 607 3 view .LVU632
 608:STM32Cube_FW_N6/Utilities/lcd/stm32_lcd.c **** }
 2150              		.loc 1 608 3 is_stmt 0 view .LVU633
 2151 0024 013C     		subs	r4, r4, #1
 2152              	.LVL201:
 607:STM32Cube_FW_N6/Utilities/lcd/stm32_lcd.c ****   UTIL_LCD_DrawVLine((Xpos + Width - 1U), Ypos, Height, Color);
 2153              		.loc 1 607 3 view .LVU634
 2154 0026 4346     		mov	r3, r8
 2155 0028 3A46     		mov	r2, r7
 2156 002a 3146     		mov	r1, r6
 2157 002c 2846     		mov	r0, r5
 2158 002e FFF7FEFF 		bl	UTIL_LCD_DrawVLine
 2159              	.LVL202:
 608:STM32Cube_FW_N6/Utilities/lcd/stm32_lcd.c **** }
 2160              		.loc 1 608 3 is_stmt 1 view .LVU635
 2161 0032 4346     		mov	r3, r8
 2162 0034 3A46     		mov	r2, r7
 2163 0036 3146     		mov	r1, r6
 2164 0038 6019     		adds	r0, r4, r5
 609:STM32Cube_FW_N6/Utilities/lcd/stm32_lcd.c **** 
 2165              		.loc 1 609 1 is_stmt 0 view .LVU636
 2166 003a BDE8F041 		pop	{r4, r5, r6, r7, r8, lr}
 2167              		.cfi_restore 14
 2168              		.cfi_restore 8
 2169              		.cfi_restore 7
 2170              		.cfi_restore 6
 2171              		.cfi_restore 5
 2172              		.cfi_restore 4
 2173              		.cfi_def_cfa_offset 0
 2174              	.LVL203:
 608:STM32Cube_FW_N6/Utilities/lcd/stm32_lcd.c **** }
ARM GAS  C:\Users\DJESSOU\AppData\Local\Temp\ccR55SEh.s 			page 67


 2175              		.loc 1 608 3 view .LVU637
 2176 003e FFF7FEBF 		b	UTIL_LCD_DrawVLine
 2177              	.LVL204:
 608:STM32Cube_FW_N6/Utilities/lcd/stm32_lcd.c **** }
 2178              		.loc 1 608 3 view .LVU638
 2179              		.cfi_endproc
 2180              	.LFE20:
 2182              		.section	.text.UTIL_LCD_DrawCircle,"ax",%progbits
 2183              		.align	1
 2184              		.global	UTIL_LCD_DrawCircle
 2185              		.syntax unified
 2186              		.thumb
 2187              		.thumb_func
 2189              	UTIL_LCD_DrawCircle:
 2190              	.LVL205:
 2191              	.LFB21:
 619:STM32Cube_FW_N6/Utilities/lcd/stm32_lcd.c ****   int32_t   decision;  /* Decision Variable */
 2192              		.loc 1 619 1 is_stmt 1 view -0
 2193              		.cfi_startproc
 2194              		@ args = 0, pretend = 0, frame = 0
 2195              		@ frame_needed = 0, uses_anonymous_args = 0
 620:STM32Cube_FW_N6/Utilities/lcd/stm32_lcd.c ****   uint32_t  current_x; /* Current X Value */
 2196              		.loc 1 620 3 view .LVU640
 621:STM32Cube_FW_N6/Utilities/lcd/stm32_lcd.c ****   uint32_t  current_y; /* Current Y Value */
 2197              		.loc 1 621 3 view .LVU641
 622:STM32Cube_FW_N6/Utilities/lcd/stm32_lcd.c **** 
 2198              		.loc 1 622 3 view .LVU642
 624:STM32Cube_FW_N6/Utilities/lcd/stm32_lcd.c ****   current_x = 0;
 2199              		.loc 1 624 3 view .LVU643
 619:STM32Cube_FW_N6/Utilities/lcd/stm32_lcd.c ****   int32_t   decision;  /* Decision Variable */
 2200              		.loc 1 619 1 is_stmt 0 view .LVU644
 2201 0000 2DE9F84F 		push	{r3, r4, r5, r6, r7, r8, r9, r10, fp, lr}
 2202              		.cfi_def_cfa_offset 40
 2203              		.cfi_offset 3, -40
 2204              		.cfi_offset 4, -36
 2205              		.cfi_offset 5, -32
 2206              		.cfi_offset 6, -28
 2207              		.cfi_offset 7, -24
 2208              		.cfi_offset 8, -20
 2209              		.cfi_offset 9, -16
 2210              		.cfi_offset 10, -12
 2211              		.cfi_offset 11, -8
 2212              		.cfi_offset 14, -4
 619:STM32Cube_FW_N6/Utilities/lcd/stm32_lcd.c ****   int32_t   decision;  /* Decision Variable */
 2213              		.loc 1 619 1 view .LVU645
 2214 0004 8046     		mov	r8, r0
 2215 0006 8A46     		mov	r10, r1
 2216 0008 1546     		mov	r5, r2
 2217 000a 9946     		mov	r9, r3
 625:STM32Cube_FW_N6/Utilities/lcd/stm32_lcd.c ****   current_y = Radius;
 2218              		.loc 1 625 13 view .LVU646
 2219 000c 0026     		movs	r6, #0
 624:STM32Cube_FW_N6/Utilities/lcd/stm32_lcd.c ****   current_x = 0;
 2220              		.loc 1 624 26 view .LVU647
 2221 000e 5700     		lsls	r7, r2, #1
 630:STM32Cube_FW_N6/Utilities/lcd/stm32_lcd.c ****     {
 2222              		.loc 1 630 46 view .LVU648
ARM GAS  C:\Users\DJESSOU\AppData\Local\Temp\ccR55SEh.s 			page 68


 2223 0010 4D4C     		ldr	r4, .L161
 624:STM32Cube_FW_N6/Utilities/lcd/stm32_lcd.c ****   current_x = 0;
 2224              		.loc 1 624 16 view .LVU649
 2225 0012 C7F10307 		rsb	r7, r7, #3
 2226              	.LVL206:
 625:STM32Cube_FW_N6/Utilities/lcd/stm32_lcd.c ****   current_y = Radius;
 2227              		.loc 1 625 3 is_stmt 1 view .LVU650
 626:STM32Cube_FW_N6/Utilities/lcd/stm32_lcd.c **** 
 2228              		.loc 1 626 3 view .LVU651
 628:STM32Cube_FW_N6/Utilities/lcd/stm32_lcd.c ****   {
 2229              		.loc 1 628 3 view .LVU652
 628:STM32Cube_FW_N6/Utilities/lcd/stm32_lcd.c ****   {
 2230              		.loc 1 628 20 view .LVU653
 2231              	.L159:
 630:STM32Cube_FW_N6/Utilities/lcd/stm32_lcd.c ****     {
 2232              		.loc 1 630 5 view .LVU654
 630:STM32Cube_FW_N6/Utilities/lcd/stm32_lcd.c ****     {
 2233              		.loc 1 630 46 is_stmt 0 view .LVU655
 2234 0016 E368     		ldr	r3, [r4, #12]
 630:STM32Cube_FW_N6/Utilities/lcd/stm32_lcd.c ****     {
 2235              		.loc 1 630 14 view .LVU656
 2236 0018 AAEB050B 		sub	fp, r10, r5
 630:STM32Cube_FW_N6/Utilities/lcd/stm32_lcd.c ****     {
 2237              		.loc 1 630 57 view .LVU657
 2238 001c 04EB4313 		add	r3, r4, r3, lsl #5
 630:STM32Cube_FW_N6/Utilities/lcd/stm32_lcd.c ****     {
 2239              		.loc 1 630 7 view .LVU658
 2240 0020 9A69     		ldr	r2, [r3, #24]
 2241 0022 9345     		cmp	fp, r2
 2242 0024 18D2     		bcs	.L142
 632:STM32Cube_FW_N6/Utilities/lcd/stm32_lcd.c ****       {
 2243              		.loc 1 632 7 is_stmt 1 view .LVU659
 632:STM32Cube_FW_N6/Utilities/lcd/stm32_lcd.c ****       {
 2244              		.loc 1 632 9 is_stmt 0 view .LVU660
 2245 0026 5B69     		ldr	r3, [r3, #20]
 2246 0028 08EB0600 		add	r0, r8, r6
 2247 002c 8342     		cmp	r3, r0
 2248 002e 05D9     		bls	.L143
 634:STM32Cube_FW_N6/Utilities/lcd/stm32_lcd.c ****       }
 2249              		.loc 1 634 9 is_stmt 1 view .LVU661
 2250 0030 4A46     		mov	r2, r9
 2251 0032 1FFA8BF1 		uxth	r1, fp
 2252 0036 80B2     		uxth	r0, r0
 2253 0038 FFF7FEFF 		bl	UTIL_LCD_SetPixel
 2254              	.LVL207:
 2255              	.L143:
 636:STM32Cube_FW_N6/Utilities/lcd/stm32_lcd.c ****       {
 2256              		.loc 1 636 7 view .LVU662
 636:STM32Cube_FW_N6/Utilities/lcd/stm32_lcd.c ****       {
 2257              		.loc 1 636 59 is_stmt 0 view .LVU663
 2258 003c E368     		ldr	r3, [r4, #12]
 636:STM32Cube_FW_N6/Utilities/lcd/stm32_lcd.c ****       {
 2259              		.loc 1 636 9 view .LVU664
 2260 003e A8EB0600 		sub	r0, r8, r6
 636:STM32Cube_FW_N6/Utilities/lcd/stm32_lcd.c ****       {
 2261              		.loc 1 636 59 view .LVU665
 2262 0042 04EB4313 		add	r3, r4, r3, lsl #5
ARM GAS  C:\Users\DJESSOU\AppData\Local\Temp\ccR55SEh.s 			page 69


 636:STM32Cube_FW_N6/Utilities/lcd/stm32_lcd.c ****       {
 2263              		.loc 1 636 9 view .LVU666
 2264 0046 5B69     		ldr	r3, [r3, #20]
 2265 0048 8342     		cmp	r3, r0
 2266 004a 05D9     		bls	.L142
 638:STM32Cube_FW_N6/Utilities/lcd/stm32_lcd.c ****       }
 2267              		.loc 1 638 9 is_stmt 1 view .LVU667
 2268 004c 4A46     		mov	r2, r9
 2269 004e 1FFA8BF1 		uxth	r1, fp
 2270 0052 80B2     		uxth	r0, r0
 2271 0054 FFF7FEFF 		bl	UTIL_LCD_SetPixel
 2272              	.LVL208:
 2273              	.L142:
 642:STM32Cube_FW_N6/Utilities/lcd/stm32_lcd.c ****     {
 2274              		.loc 1 642 5 view .LVU668
 642:STM32Cube_FW_N6/Utilities/lcd/stm32_lcd.c ****     {
 2275              		.loc 1 642 46 is_stmt 0 view .LVU669
 2276 0058 E368     		ldr	r3, [r4, #12]
 642:STM32Cube_FW_N6/Utilities/lcd/stm32_lcd.c ****     {
 2277              		.loc 1 642 7 view .LVU670
 2278 005a AAEB060B 		sub	fp, r10, r6
 642:STM32Cube_FW_N6/Utilities/lcd/stm32_lcd.c ****     {
 2279              		.loc 1 642 57 view .LVU671
 2280 005e 04EB4313 		add	r3, r4, r3, lsl #5
 642:STM32Cube_FW_N6/Utilities/lcd/stm32_lcd.c ****     {
 2281              		.loc 1 642 7 view .LVU672
 2282 0062 9A69     		ldr	r2, [r3, #24]
 2283 0064 5A45     		cmp	r2, fp
 2284 0066 18D9     		bls	.L146
 644:STM32Cube_FW_N6/Utilities/lcd/stm32_lcd.c ****       {
 2285              		.loc 1 644 7 is_stmt 1 view .LVU673
 644:STM32Cube_FW_N6/Utilities/lcd/stm32_lcd.c ****       {
 2286              		.loc 1 644 9 is_stmt 0 view .LVU674
 2287 0068 5B69     		ldr	r3, [r3, #20]
 644:STM32Cube_FW_N6/Utilities/lcd/stm32_lcd.c ****       {
 2288              		.loc 1 644 16 view .LVU675
 2289 006a 08EB0500 		add	r0, r8, r5
 644:STM32Cube_FW_N6/Utilities/lcd/stm32_lcd.c ****       {
 2290              		.loc 1 644 9 view .LVU676
 2291 006e 9842     		cmp	r0, r3
 2292 0070 05D2     		bcs	.L147
 646:STM32Cube_FW_N6/Utilities/lcd/stm32_lcd.c ****       }
 2293              		.loc 1 646 9 is_stmt 1 view .LVU677
 2294 0072 4A46     		mov	r2, r9
 2295 0074 1FFA8BF1 		uxth	r1, fp
 2296 0078 80B2     		uxth	r0, r0
 2297 007a FFF7FEFF 		bl	UTIL_LCD_SetPixel
 2298              	.LVL209:
 2299              	.L147:
 648:STM32Cube_FW_N6/Utilities/lcd/stm32_lcd.c ****       {
 2300              		.loc 1 648 7 view .LVU678
 648:STM32Cube_FW_N6/Utilities/lcd/stm32_lcd.c ****       {
 2301              		.loc 1 648 59 is_stmt 0 view .LVU679
 2302 007e E368     		ldr	r3, [r4, #12]
 648:STM32Cube_FW_N6/Utilities/lcd/stm32_lcd.c ****       {
 2303              		.loc 1 648 16 view .LVU680
 2304 0080 A8EB0500 		sub	r0, r8, r5
ARM GAS  C:\Users\DJESSOU\AppData\Local\Temp\ccR55SEh.s 			page 70


 648:STM32Cube_FW_N6/Utilities/lcd/stm32_lcd.c ****       {
 2305              		.loc 1 648 59 view .LVU681
 2306 0084 04EB4313 		add	r3, r4, r3, lsl #5
 648:STM32Cube_FW_N6/Utilities/lcd/stm32_lcd.c ****       {
 2307              		.loc 1 648 9 view .LVU682
 2308 0088 5B69     		ldr	r3, [r3, #20]
 2309 008a 9842     		cmp	r0, r3
 2310 008c 05D2     		bcs	.L146
 650:STM32Cube_FW_N6/Utilities/lcd/stm32_lcd.c ****       }
 2311              		.loc 1 650 9 is_stmt 1 view .LVU683
 2312 008e 4A46     		mov	r2, r9
 2313 0090 1FFA8BF1 		uxth	r1, fp
 2314 0094 80B2     		uxth	r0, r0
 2315 0096 FFF7FEFF 		bl	UTIL_LCD_SetPixel
 2316              	.LVL210:
 2317              	.L146:
 654:STM32Cube_FW_N6/Utilities/lcd/stm32_lcd.c ****     {
 2318              		.loc 1 654 5 view .LVU684
 654:STM32Cube_FW_N6/Utilities/lcd/stm32_lcd.c ****     {
 2319              		.loc 1 654 46 is_stmt 0 view .LVU685
 2320 009a E368     		ldr	r3, [r4, #12]
 654:STM32Cube_FW_N6/Utilities/lcd/stm32_lcd.c ****     {
 2321              		.loc 1 654 14 view .LVU686
 2322 009c 0AEB050B 		add	fp, r10, r5
 654:STM32Cube_FW_N6/Utilities/lcd/stm32_lcd.c ****     {
 2323              		.loc 1 654 57 view .LVU687
 2324 00a0 04EB4313 		add	r3, r4, r3, lsl #5
 654:STM32Cube_FW_N6/Utilities/lcd/stm32_lcd.c ****     {
 2325              		.loc 1 654 7 view .LVU688
 2326 00a4 9A69     		ldr	r2, [r3, #24]
 2327 00a6 9345     		cmp	fp, r2
 2328 00a8 18D2     		bcs	.L150
 656:STM32Cube_FW_N6/Utilities/lcd/stm32_lcd.c ****       {
 2329              		.loc 1 656 7 is_stmt 1 view .LVU689
 656:STM32Cube_FW_N6/Utilities/lcd/stm32_lcd.c ****       {
 2330              		.loc 1 656 9 is_stmt 0 view .LVU690
 2331 00aa 5B69     		ldr	r3, [r3, #20]
 2332 00ac 08EB0600 		add	r0, r8, r6
 2333 00b0 8342     		cmp	r3, r0
 2334 00b2 05D9     		bls	.L151
 658:STM32Cube_FW_N6/Utilities/lcd/stm32_lcd.c ****       }
 2335              		.loc 1 658 9 is_stmt 1 view .LVU691
 2336 00b4 4A46     		mov	r2, r9
 2337 00b6 1FFA8BF1 		uxth	r1, fp
 2338 00ba 80B2     		uxth	r0, r0
 2339 00bc FFF7FEFF 		bl	UTIL_LCD_SetPixel
 2340              	.LVL211:
 2341              	.L151:
 660:STM32Cube_FW_N6/Utilities/lcd/stm32_lcd.c ****       {
 2342              		.loc 1 660 7 view .LVU692
 660:STM32Cube_FW_N6/Utilities/lcd/stm32_lcd.c ****       {
 2343              		.loc 1 660 59 is_stmt 0 view .LVU693
 2344 00c0 E368     		ldr	r3, [r4, #12]
 660:STM32Cube_FW_N6/Utilities/lcd/stm32_lcd.c ****       {
 2345              		.loc 1 660 9 view .LVU694
 2346 00c2 A8EB0600 		sub	r0, r8, r6
 660:STM32Cube_FW_N6/Utilities/lcd/stm32_lcd.c ****       {
ARM GAS  C:\Users\DJESSOU\AppData\Local\Temp\ccR55SEh.s 			page 71


 2347              		.loc 1 660 59 view .LVU695
 2348 00c6 04EB4313 		add	r3, r4, r3, lsl #5
 660:STM32Cube_FW_N6/Utilities/lcd/stm32_lcd.c ****       {
 2349              		.loc 1 660 9 view .LVU696
 2350 00ca 5B69     		ldr	r3, [r3, #20]
 2351 00cc 8342     		cmp	r3, r0
 2352 00ce 05D9     		bls	.L150
 662:STM32Cube_FW_N6/Utilities/lcd/stm32_lcd.c ****       }
 2353              		.loc 1 662 9 is_stmt 1 view .LVU697
 2354 00d0 4A46     		mov	r2, r9
 2355 00d2 1FFA8BF1 		uxth	r1, fp
 2356 00d6 80B2     		uxth	r0, r0
 2357 00d8 FFF7FEFF 		bl	UTIL_LCD_SetPixel
 2358              	.LVL212:
 2359              	.L150:
 666:STM32Cube_FW_N6/Utilities/lcd/stm32_lcd.c ****     {
 2360              		.loc 1 666 5 view .LVU698
 666:STM32Cube_FW_N6/Utilities/lcd/stm32_lcd.c ****     {
 2361              		.loc 1 666 46 is_stmt 0 view .LVU699
 2362 00dc E368     		ldr	r3, [r4, #12]
 666:STM32Cube_FW_N6/Utilities/lcd/stm32_lcd.c ****     {
 2363              		.loc 1 666 7 view .LVU700
 2364 00de 0AEB060B 		add	fp, r10, r6
 666:STM32Cube_FW_N6/Utilities/lcd/stm32_lcd.c ****     {
 2365              		.loc 1 666 57 view .LVU701
 2366 00e2 04EB4313 		add	r3, r4, r3, lsl #5
 666:STM32Cube_FW_N6/Utilities/lcd/stm32_lcd.c ****     {
 2367              		.loc 1 666 7 view .LVU702
 2368 00e6 9A69     		ldr	r2, [r3, #24]
 2369 00e8 5A45     		cmp	r2, fp
 2370 00ea 18D9     		bls	.L154
 668:STM32Cube_FW_N6/Utilities/lcd/stm32_lcd.c ****       {
 2371              		.loc 1 668 7 is_stmt 1 view .LVU703
 668:STM32Cube_FW_N6/Utilities/lcd/stm32_lcd.c ****       {
 2372              		.loc 1 668 9 is_stmt 0 view .LVU704
 2373 00ec 5B69     		ldr	r3, [r3, #20]
 668:STM32Cube_FW_N6/Utilities/lcd/stm32_lcd.c ****       {
 2374              		.loc 1 668 16 view .LVU705
 2375 00ee 08EB0500 		add	r0, r8, r5
 668:STM32Cube_FW_N6/Utilities/lcd/stm32_lcd.c ****       {
 2376              		.loc 1 668 9 view .LVU706
 2377 00f2 9842     		cmp	r0, r3
 2378 00f4 05D2     		bcs	.L155
 670:STM32Cube_FW_N6/Utilities/lcd/stm32_lcd.c ****       }
 2379              		.loc 1 670 9 is_stmt 1 view .LVU707
 2380 00f6 4A46     		mov	r2, r9
 2381 00f8 1FFA8BF1 		uxth	r1, fp
 2382 00fc 80B2     		uxth	r0, r0
 2383 00fe FFF7FEFF 		bl	UTIL_LCD_SetPixel
 2384              	.LVL213:
 2385              	.L155:
 672:STM32Cube_FW_N6/Utilities/lcd/stm32_lcd.c ****       {
 2386              		.loc 1 672 7 view .LVU708
 672:STM32Cube_FW_N6/Utilities/lcd/stm32_lcd.c ****       {
 2387              		.loc 1 672 59 is_stmt 0 view .LVU709
 2388 0102 E368     		ldr	r3, [r4, #12]
 672:STM32Cube_FW_N6/Utilities/lcd/stm32_lcd.c ****       {
ARM GAS  C:\Users\DJESSOU\AppData\Local\Temp\ccR55SEh.s 			page 72


 2389              		.loc 1 672 16 view .LVU710
 2390 0104 A8EB0500 		sub	r0, r8, r5
 672:STM32Cube_FW_N6/Utilities/lcd/stm32_lcd.c ****       {
 2391              		.loc 1 672 59 view .LVU711
 2392 0108 04EB4313 		add	r3, r4, r3, lsl #5
 672:STM32Cube_FW_N6/Utilities/lcd/stm32_lcd.c ****       {
 2393              		.loc 1 672 9 view .LVU712
 2394 010c 5B69     		ldr	r3, [r3, #20]
 2395 010e 9842     		cmp	r0, r3
 2396 0110 05D2     		bcs	.L154
 674:STM32Cube_FW_N6/Utilities/lcd/stm32_lcd.c ****       }
 2397              		.loc 1 674 9 is_stmt 1 view .LVU713
 2398 0112 4A46     		mov	r2, r9
 2399 0114 1FFA8BF1 		uxth	r1, fp
 2400 0118 80B2     		uxth	r0, r0
 2401 011a FFF7FEFF 		bl	UTIL_LCD_SetPixel
 2402              	.LVL214:
 2403              	.L154:
 678:STM32Cube_FW_N6/Utilities/lcd/stm32_lcd.c ****     {
 2404              		.loc 1 678 5 view .LVU714
 678:STM32Cube_FW_N6/Utilities/lcd/stm32_lcd.c ****     {
 2405              		.loc 1 678 8 is_stmt 0 view .LVU715
 2406 011e 002F     		cmp	r7, #0
 680:STM32Cube_FW_N6/Utilities/lcd/stm32_lcd.c ****     }
 2407              		.loc 1 680 7 is_stmt 1 view .LVU716
 680:STM32Cube_FW_N6/Utilities/lcd/stm32_lcd.c ****     }
 2408              		.loc 1 680 16 is_stmt 0 view .LVU717
 2409 0120 B5BF     		itete	lt
 2410 0122 0637     		addlt	r7, r7, #6
 2411              	.LVL215:
 684:STM32Cube_FW_N6/Utilities/lcd/stm32_lcd.c ****       current_y--;
 2412              		.loc 1 684 31 view .LVU718
 2413 0124 731B     		subge	r3, r6, r5
 680:STM32Cube_FW_N6/Utilities/lcd/stm32_lcd.c ****     }
 2414              		.loc 1 680 16 view .LVU719
 2415 0126 07EB8607 		addlt	r7, r7, r6, lsl #2
 2416              	.LVL216:
 684:STM32Cube_FW_N6/Utilities/lcd/stm32_lcd.c ****       current_y--;
 2417              		.loc 1 684 7 is_stmt 1 view .LVU720
 684:STM32Cube_FW_N6/Utilities/lcd/stm32_lcd.c ****       current_y--;
 2418              		.loc 1 684 16 is_stmt 0 view .LVU721
 2419 012a 0A37     		addge	r7, r7, #10
 2420              	.LVL217:
 685:STM32Cube_FW_N6/Utilities/lcd/stm32_lcd.c ****     }
 2421              		.loc 1 685 16 view .LVU722
 2422 012c A8BF     		it	ge
 2423 012e 05F1FF35 		addge	r5, r5, #-1
 2424              	.LVL218:
 687:STM32Cube_FW_N6/Utilities/lcd/stm32_lcd.c ****   }
 2425              		.loc 1 687 14 view .LVU723
 2426 0132 06F10106 		add	r6, r6, #1
 2427              	.LVL219:
 684:STM32Cube_FW_N6/Utilities/lcd/stm32_lcd.c ****       current_y--;
 2428              		.loc 1 684 16 view .LVU724
 2429 0136 A8BF     		it	ge
 2430 0138 07EB8307 		addge	r7, r7, r3, lsl #2
 2431              	.LVL220:
ARM GAS  C:\Users\DJESSOU\AppData\Local\Temp\ccR55SEh.s 			page 73


 685:STM32Cube_FW_N6/Utilities/lcd/stm32_lcd.c ****     }
 2432              		.loc 1 685 7 is_stmt 1 view .LVU725
 687:STM32Cube_FW_N6/Utilities/lcd/stm32_lcd.c ****   }
 2433              		.loc 1 687 5 view .LVU726
 628:STM32Cube_FW_N6/Utilities/lcd/stm32_lcd.c ****   {
 2434              		.loc 1 628 20 view .LVU727
 2435 013c B542     		cmp	r5, r6
 2436 013e BFF46AAF 		bcs	.L159
 689:STM32Cube_FW_N6/Utilities/lcd/stm32_lcd.c **** 
 2437              		.loc 1 689 1 is_stmt 0 view .LVU728
 2438 0142 BDE8F88F 		pop	{r3, r4, r5, r6, r7, r8, r9, r10, fp, pc}
 2439              	.LVL221:
 2440              	.L162:
 689:STM32Cube_FW_N6/Utilities/lcd/stm32_lcd.c **** 
 2441              		.loc 1 689 1 view .LVU729
 2442 0146 00BF     		.align	2
 2443              	.L161:
 2444 0148 00000000 		.word	DrawProp
 2445              		.cfi_endproc
 2446              	.LFE21:
 2448              		.section	.text.UTIL_LCD_DrawPolygon,"ax",%progbits
 2449              		.align	1
 2450              		.global	UTIL_LCD_DrawPolygon
 2451              		.syntax unified
 2452              		.thumb
 2453              		.thumb_func
 2455              	UTIL_LCD_DrawPolygon:
 2456              	.LVL222:
 2457              	.LFB22:
 698:STM32Cube_FW_N6/Utilities/lcd/stm32_lcd.c ****   int16_t x_pos = 0, y_pos = 0;
 2458              		.loc 1 698 1 is_stmt 1 view -0
 2459              		.cfi_startproc
 2460              		@ args = 0, pretend = 0, frame = 0
 2461              		@ frame_needed = 0, uses_anonymous_args = 0
 699:STM32Cube_FW_N6/Utilities/lcd/stm32_lcd.c **** 
 2462              		.loc 1 699 3 view .LVU731
 701:STM32Cube_FW_N6/Utilities/lcd/stm32_lcd.c ****   {
 2463              		.loc 1 701 3 view .LVU732
 701:STM32Cube_FW_N6/Utilities/lcd/stm32_lcd.c ****   {
 2464              		.loc 1 701 5 is_stmt 0 view .LVU733
 2465 0000 0129     		cmp	r1, #1
 698:STM32Cube_FW_N6/Utilities/lcd/stm32_lcd.c ****   int16_t x_pos = 0, y_pos = 0;
 2466              		.loc 1 698 1 view .LVU734
 2467 0002 73B5     		push	{r0, r1, r4, r5, r6, lr}
 2468              		.cfi_def_cfa_offset 24
 2469              		.cfi_offset 4, -16
 2470              		.cfi_offset 5, -12
 2471              		.cfi_offset 6, -8
 2472              		.cfi_offset 14, -4
 698:STM32Cube_FW_N6/Utilities/lcd/stm32_lcd.c ****   int16_t x_pos = 0, y_pos = 0;
 2473              		.loc 1 698 1 view .LVU735
 2474 0004 0446     		mov	r4, r0
 2475 0006 0D46     		mov	r5, r1
 2476 0008 1646     		mov	r6, r2
 701:STM32Cube_FW_N6/Utilities/lcd/stm32_lcd.c ****   {
 2477              		.loc 1 701 5 view .LVU736
 2478 000a 1FD9     		bls	.L163
ARM GAS  C:\Users\DJESSOU\AppData\Local\Temp\ccR55SEh.s 			page 74


 706:STM32Cube_FW_N6/Utilities/lcd/stm32_lcd.c **** 
 2479              		.loc 1 706 3 is_stmt 1 view .LVU737
 706:STM32Cube_FW_N6/Utilities/lcd/stm32_lcd.c **** 
 2480              		.loc 1 706 61 is_stmt 0 view .LVU738
 2481 000c 01F18041 		add	r1, r1, #1073741824
 2482              	.LVL223:
 706:STM32Cube_FW_N6/Utilities/lcd/stm32_lcd.c **** 
 2483              		.loc 1 706 61 view .LVU739
 2484 0010 0139     		subs	r1, r1, #1
 706:STM32Cube_FW_N6/Utilities/lcd/stm32_lcd.c **** 
 2485              		.loc 1 706 3 view .LVU740
 2486 0012 0092     		str	r2, [sp]
 706:STM32Cube_FW_N6/Utilities/lcd/stm32_lcd.c **** 
 2487              		.loc 1 706 61 view .LVU741
 2488 0014 00EB8103 		add	r3, r0, r1, lsl #2
 706:STM32Cube_FW_N6/Utilities/lcd/stm32_lcd.c **** 
 2489              		.loc 1 706 3 view .LVU742
 2490 0018 30F92120 		ldrsh	r2, [r0, r1, lsl #2]
 2491              	.LVL224:
 706:STM32Cube_FW_N6/Utilities/lcd/stm32_lcd.c **** 
 2492              		.loc 1 706 3 view .LVU743
 2493 001c B3F90230 		ldrsh	r3, [r3, #2]
 2494 0020 B0F90210 		ldrsh	r1, [r0, #2]
 2495 0024 34F9040B 		ldrsh	r0, [r4], #4
 2496              	.LVL225:
 706:STM32Cube_FW_N6/Utilities/lcd/stm32_lcd.c **** 
 2497              		.loc 1 706 3 view .LVU744
 2498 0028 FFF7FEFF 		bl	UTIL_LCD_DrawLine
 2499              	.LVL226:
 708:STM32Cube_FW_N6/Utilities/lcd/stm32_lcd.c ****   {
 2500              		.loc 1 708 3 is_stmt 1 view .LVU745
 708:STM32Cube_FW_N6/Utilities/lcd/stm32_lcd.c ****   {
 2501              		.loc 1 708 9 view .LVU746
 2502 002c 013D     		subs	r5, r5, #1
 2503              	.LVL227:
 2504              	.L165:
 710:STM32Cube_FW_N6/Utilities/lcd/stm32_lcd.c ****     y_pos = Points->Y;
 2505              		.loc 1 710 5 view .LVU747
 711:STM32Cube_FW_N6/Utilities/lcd/stm32_lcd.c ****     Points++;
 2506              		.loc 1 711 5 view .LVU748
 712:STM32Cube_FW_N6/Utilities/lcd/stm32_lcd.c ****     UTIL_LCD_DrawLine(x_pos, y_pos, Points->X, Points->Y, Color);
 2507              		.loc 1 712 5 view .LVU749
 713:STM32Cube_FW_N6/Utilities/lcd/stm32_lcd.c ****   }
 2508              		.loc 1 713 5 view .LVU750
 2509 002e B4F90230 		ldrsh	r3, [r4, #2]
 2510 0032 34F9021C 		ldrsh	r1, [r4, #-2]
 2511 0036 34F9040C 		ldrsh	r0, [r4, #-4]
 2512 003a 0096     		str	r6, [sp]
 2513              	.LVL228:
 713:STM32Cube_FW_N6/Utilities/lcd/stm32_lcd.c ****   }
 2514              		.loc 1 713 5 is_stmt 0 view .LVU751
 2515 003c B4F90020 		ldrsh	r2, [r4]
 2516 0040 FFF7FEFF 		bl	UTIL_LCD_DrawLine
 2517              	.LVL229:
 708:STM32Cube_FW_N6/Utilities/lcd/stm32_lcd.c ****   {
 2518              		.loc 1 708 9 is_stmt 1 view .LVU752
 708:STM32Cube_FW_N6/Utilities/lcd/stm32_lcd.c ****   {
ARM GAS  C:\Users\DJESSOU\AppData\Local\Temp\ccR55SEh.s 			page 75


 2519              		.loc 1 708 9 is_stmt 0 view .LVU753
 2520 0044 013D     		subs	r5, r5, #1
 2521              	.LVL230:
 708:STM32Cube_FW_N6/Utilities/lcd/stm32_lcd.c ****   {
 2522              		.loc 1 708 9 view .LVU754
 2523 0046 04F10404 		add	r4, r4, #4
 2524              	.LVL231:
 708:STM32Cube_FW_N6/Utilities/lcd/stm32_lcd.c ****   {
 2525              		.loc 1 708 9 view .LVU755
 2526 004a F0D1     		bne	.L165
 2527              	.LVL232:
 2528              	.L163:
 715:STM32Cube_FW_N6/Utilities/lcd/stm32_lcd.c **** 
 2529              		.loc 1 715 1 view .LVU756
 2530 004c 02B0     		add	sp, sp, #8
 2531              		.cfi_def_cfa_offset 16
 2532              		@ sp needed
 2533 004e 70BD     		pop	{r4, r5, r6, pc}
 715:STM32Cube_FW_N6/Utilities/lcd/stm32_lcd.c **** 
 2534              		.loc 1 715 1 view .LVU757
 2535              		.cfi_endproc
 2536              	.LFE22:
 2538              		.section	.text.UTIL_LCD_DrawEllipse,"ax",%progbits
 2539              		.align	1
 2540              		.global	UTIL_LCD_DrawEllipse
 2541              		.syntax unified
 2542              		.thumb
 2543              		.thumb_func
 2545              	UTIL_LCD_DrawEllipse:
 2546              	.LVL233:
 2547              	.LFB23:
 726:STM32Cube_FW_N6/Utilities/lcd/stm32_lcd.c ****   int x_pos = 0, y_pos = -YRadius, err = 2-2*XRadius, e2;
 2548              		.loc 1 726 1 is_stmt 1 view -0
 2549              		.cfi_startproc
 2550              		@ args = 4, pretend = 0, frame = 8
 2551              		@ frame_needed = 0, uses_anonymous_args = 0
 727:STM32Cube_FW_N6/Utilities/lcd/stm32_lcd.c ****   float k = 0, rad1 = 0, rad2 = 0;
 2552              		.loc 1 727 3 view .LVU759
 731:STM32Cube_FW_N6/Utilities/lcd/stm32_lcd.c **** 
 2553              		.loc 1 731 8 is_stmt 0 view .LVU760
 2554 0000 07EE903A 		vmov	s15, r3	@ int
 2555 0004 B8EEE77A 		vcvt.f32.s32	s14, s15
 730:STM32Cube_FW_N6/Utilities/lcd/stm32_lcd.c ****   rad2 = YRadius;
 2556              		.loc 1 730 8 view .LVU761
 2557 0008 07EE902A 		vmov	s15, r2	@ int
 2558 000c F8EEE77A 		vcvt.f32.s32	s15, s15
 726:STM32Cube_FW_N6/Utilities/lcd/stm32_lcd.c ****   int x_pos = 0, y_pos = -YRadius, err = 2-2*XRadius, e2;
 2559              		.loc 1 726 1 view .LVU762
 2560 0010 2DE9F04F 		push	{r4, r5, r6, r7, r8, r9, r10, fp, lr}
 2561              		.cfi_def_cfa_offset 36
 2562              		.cfi_offset 4, -36
 2563              		.cfi_offset 5, -32
 2564              		.cfi_offset 6, -28
 2565              		.cfi_offset 7, -24
 2566              		.cfi_offset 8, -20
 2567              		.cfi_offset 9, -16
 2568              		.cfi_offset 10, -12
ARM GAS  C:\Users\DJESSOU\AppData\Local\Temp\ccR55SEh.s 			page 76


 2569              		.cfi_offset 11, -8
 2570              		.cfi_offset 14, -4
 2571 0014 2DED028B 		vpush.64	{d8}
 2572              		.cfi_def_cfa_offset 44
 2573              		.cfi_offset 80, -44
 2574              		.cfi_offset 81, -40
 727:STM32Cube_FW_N6/Utilities/lcd/stm32_lcd.c ****   float k = 0, rad1 = 0, rad2 = 0;
 2575              		.loc 1 727 7 view .LVU763
 2576 0018 4FF00008 		mov	r8, #0
 733:STM32Cube_FW_N6/Utilities/lcd/stm32_lcd.c **** 
 2577              		.loc 1 733 5 view .LVU764
 2578 001c 87EE278A 		vdiv.f32	s16, s14, s15
 726:STM32Cube_FW_N6/Utilities/lcd/stm32_lcd.c ****   int x_pos = 0, y_pos = -YRadius, err = 2-2*XRadius, e2;
 2579              		.loc 1 726 1 view .LVU765
 2580 0020 83B0     		sub	sp, sp, #12
 2581              		.cfi_def_cfa_offset 56
 727:STM32Cube_FW_N6/Utilities/lcd/stm32_lcd.c ****   float k = 0, rad1 = 0, rad2 = 0;
 2582              		.loc 1 727 43 view .LVU766
 2583 0022 C2F10105 		rsb	r5, r2, #1
 726:STM32Cube_FW_N6/Utilities/lcd/stm32_lcd.c ****   int x_pos = 0, y_pos = -YRadius, err = 2-2*XRadius, e2;
 2584              		.loc 1 726 1 view .LVU767
 2585 0026 DDF838B0 		ldr	fp, [sp, #56]
 727:STM32Cube_FW_N6/Utilities/lcd/stm32_lcd.c ****   float k = 0, rad1 = 0, rad2 = 0;
 2586              		.loc 1 727 18 view .LVU768
 2587 002a 5E42     		rsbs	r6, r3, #0
 2588              	.LVL234:
 727:STM32Cube_FW_N6/Utilities/lcd/stm32_lcd.c ****   float k = 0, rad1 = 0, rad2 = 0;
 2589              		.loc 1 727 36 view .LVU769
 2590 002c 6D00     		lsls	r5, r5, #1
 2591              	.LVL235:
 728:STM32Cube_FW_N6/Utilities/lcd/stm32_lcd.c **** 
 2592              		.loc 1 728 3 is_stmt 1 view .LVU770
 730:STM32Cube_FW_N6/Utilities/lcd/stm32_lcd.c ****   rad2 = YRadius;
 2593              		.loc 1 730 3 view .LVU771
 731:STM32Cube_FW_N6/Utilities/lcd/stm32_lcd.c **** 
 2594              		.loc 1 731 3 view .LVU772
 733:STM32Cube_FW_N6/Utilities/lcd/stm32_lcd.c **** 
 2595              		.loc 1 733 3 view .LVU773
 737:STM32Cube_FW_N6/Utilities/lcd/stm32_lcd.c ****     UTIL_LCD_SetPixel((Xpos+(uint32_t)(x_pos/k)), (Ypos + y_pos), Color);
 2596              		.loc 1 737 5 is_stmt 0 view .LVU774
 2597 002e 1FFA80F9 		uxth	r9, r0
 2598 0032 1FFA81FA 		uxth	r10, r1
 2599              	.LVL236:
 2600              	.L171:
 735:STM32Cube_FW_N6/Utilities/lcd/stm32_lcd.c ****   {
 2601              		.loc 1 735 3 is_stmt 1 view .LVU775
