ARM GAS  C:\Users\DJESSOU\AppData\Local\Temp\cccRfEH3.s 			page 1


   1              		.arch armv8.1-m.main
   2              		.fpu fpv5-d16
   3              		.arch_extension dsp
   4              		.arch_extension fp
   5              		.arch_extension fp.dp
   6              		.arch_extension mve
   7              		.arch_extension mve.fp
   8              		.eabi_attribute 5, "cortex-m55"
   9              		.eabi_attribute 28, 1
  10              		.eabi_attribute 20, 1
  11              		.eabi_attribute 21, 1
  12              		.eabi_attribute 23, 3
  13              		.eabi_attribute 24, 1
  14              		.eabi_attribute 25, 1
  15              		.eabi_attribute 26, 1
  16              		.eabi_attribute 30, 4
  17              		.eabi_attribute 34, 1
  18              		.eabi_attribute 38, 1
  19              		.eabi_attribute 18, 4
  20              		.file	"syscalls.c"
  21              		.text
  22              	.Ltext0:
  23              		.cfi_sections	.debug_frame
  24              		.file 1 "Gcc/Src/syscalls.c"
  25              		.section	.text.initialise_monitor_handles,"ax",%progbits
  26              		.align	1
  27              		.global	initialise_monitor_handles
  28              		.syntax unified
  29              		.thumb
  30              		.thumb_func
  32              	initialise_monitor_handles:
  33              	.LFB25:
   1:Gcc/Src/syscalls.c **** /**
   2:Gcc/Src/syscalls.c ****  ******************************************************************************
   3:Gcc/Src/syscalls.c ****  * @file      syscalls.c
   4:Gcc/Src/syscalls.c ****  * @author    Auto-generated by STM32CubeIDE
   5:Gcc/Src/syscalls.c ****  * @brief     STM32CubeIDE Minimal System calls file
   6:Gcc/Src/syscalls.c ****  *
   7:Gcc/Src/syscalls.c ****  *            For more information about which c-functions
   8:Gcc/Src/syscalls.c ****  *            need which of these lowlevel functions
   9:Gcc/Src/syscalls.c ****  *            please consult the Newlib libc-manual
  10:Gcc/Src/syscalls.c ****  ******************************************************************************
  11:Gcc/Src/syscalls.c ****  * @attention
  12:Gcc/Src/syscalls.c ****  *
  13:Gcc/Src/syscalls.c ****  * Copyright (c) 2020-2023 STMicroelectronics.
  14:Gcc/Src/syscalls.c ****  * All rights reserved.
  15:Gcc/Src/syscalls.c ****  *
  16:Gcc/Src/syscalls.c ****  * This software is licensed under terms that can be found in the LICENSE file
  17:Gcc/Src/syscalls.c ****  * in the root directory of this software component.
  18:Gcc/Src/syscalls.c ****  * If no LICENSE file comes with this software, it is provided AS-IS.
  19:Gcc/Src/syscalls.c ****  *
  20:Gcc/Src/syscalls.c ****  ******************************************************************************
  21:Gcc/Src/syscalls.c ****  */
  22:Gcc/Src/syscalls.c **** 
  23:Gcc/Src/syscalls.c **** /* Includes */
  24:Gcc/Src/syscalls.c **** #include <sys/stat.h>
  25:Gcc/Src/syscalls.c **** #include <stdlib.h>
ARM GAS  C:\Users\DJESSOU\AppData\Local\Temp\cccRfEH3.s 			page 2


  26:Gcc/Src/syscalls.c **** #include <errno.h>
  27:Gcc/Src/syscalls.c **** #include <stdio.h>
  28:Gcc/Src/syscalls.c **** #include <signal.h>
  29:Gcc/Src/syscalls.c **** #include <time.h>
  30:Gcc/Src/syscalls.c **** #include <sys/time.h>
  31:Gcc/Src/syscalls.c **** #include <sys/times.h>
  32:Gcc/Src/syscalls.c **** 
  33:Gcc/Src/syscalls.c **** 
  34:Gcc/Src/syscalls.c **** /* Variables */
  35:Gcc/Src/syscalls.c **** extern int __io_putchar(int ch) __attribute__((weak));
  36:Gcc/Src/syscalls.c **** extern int __io_getchar(void) __attribute__((weak));
  37:Gcc/Src/syscalls.c **** 
  38:Gcc/Src/syscalls.c **** 
  39:Gcc/Src/syscalls.c **** char *__env[1] = { 0 };
  40:Gcc/Src/syscalls.c **** char **environ = __env;
  41:Gcc/Src/syscalls.c **** 
  42:Gcc/Src/syscalls.c **** 
  43:Gcc/Src/syscalls.c **** /* Functions */
  44:Gcc/Src/syscalls.c **** void initialise_monitor_handles()
  45:Gcc/Src/syscalls.c **** {
  34              		.loc 1 45 1 view -0
  35              		.cfi_startproc
  36              		@ args = 0, pretend = 0, frame = 0
  37              		@ frame_needed = 0, uses_anonymous_args = 0
  38              		@ link register save eliminated.
  46:Gcc/Src/syscalls.c **** }
  39              		.loc 1 46 1 view .LVU1
  40 0000 7047     		bx	lr
  41              		.cfi_endproc
  42              	.LFE25:
  44              		.section	.text._getpid,"ax",%progbits
  45              		.align	1
  46              		.global	_getpid
  47              		.syntax unified
  48              		.thumb
  49              		.thumb_func
  51              	_getpid:
  52              	.LFB26:
  47:Gcc/Src/syscalls.c **** 
  48:Gcc/Src/syscalls.c **** int _getpid(void)
  49:Gcc/Src/syscalls.c **** {
  53              		.loc 1 49 1 view -0
  54              		.cfi_startproc
  55              		@ args = 0, pretend = 0, frame = 0
  56              		@ frame_needed = 0, uses_anonymous_args = 0
  57              		@ link register save eliminated.
  50:Gcc/Src/syscalls.c ****   return 1;
  58              		.loc 1 50 3 view .LVU3
  51:Gcc/Src/syscalls.c **** }
  59              		.loc 1 51 1 is_stmt 0 view .LVU4
  60 0000 0120     		movs	r0, #1
  61 0002 7047     		bx	lr
  62              		.cfi_endproc
  63              	.LFE26:
  65              		.section	.text._kill,"ax",%progbits
  66              		.align	1
  67              		.global	_kill
ARM GAS  C:\Users\DJESSOU\AppData\Local\Temp\cccRfEH3.s 			page 3


  68              		.syntax unified
  69              		.thumb
  70              		.thumb_func
  72              	_kill:
  73              	.LVL0:
  74              	.LFB27:
  52:Gcc/Src/syscalls.c **** 
  53:Gcc/Src/syscalls.c **** int _kill(int pid, int sig)
  54:Gcc/Src/syscalls.c **** {
  75              		.loc 1 54 1 is_stmt 1 view -0
  76              		.cfi_startproc
  77              		@ args = 0, pretend = 0, frame = 0
  78              		@ frame_needed = 0, uses_anonymous_args = 0
  55:Gcc/Src/syscalls.c ****   (void)pid;
  79              		.loc 1 55 3 view .LVU6
  56:Gcc/Src/syscalls.c ****   (void)sig;
  80              		.loc 1 56 3 view .LVU7
  57:Gcc/Src/syscalls.c ****   errno = EINVAL;
  81              		.loc 1 57 3 view .LVU8
  54:Gcc/Src/syscalls.c ****   (void)pid;
  82              		.loc 1 54 1 is_stmt 0 view .LVU9
  83 0000 08B5     		push	{r3, lr}
  84              		.cfi_def_cfa_offset 8
  85              		.cfi_offset 3, -8
  86              		.cfi_offset 14, -4
  87              		.loc 1 57 3 view .LVU10
  88 0002 FFF7FEFF 		bl	__errno
  89              	.LVL1:
  90              		.loc 1 57 9 discriminator 1 view .LVU11
  91 0006 1623     		movs	r3, #22
  92 0008 0360     		str	r3, [r0]
  58:Gcc/Src/syscalls.c ****   return -1;
  93              		.loc 1 58 3 is_stmt 1 view .LVU12
  59:Gcc/Src/syscalls.c **** }
  94              		.loc 1 59 1 is_stmt 0 view .LVU13
  95 000a 4FF0FF30 		mov	r0, #-1
  96 000e 08BD     		pop	{r3, pc}
  97              		.cfi_endproc
  98              	.LFE27:
 100              		.section	.text._exit,"ax",%progbits
 101              		.align	1
 102              		.global	_exit
 103              		.syntax unified
 104              		.thumb
 105              		.thumb_func
 107              	_exit:
 108              	.LVL2:
 109              	.LFB28:
  60:Gcc/Src/syscalls.c **** 
  61:Gcc/Src/syscalls.c **** void _exit (int status)
  62:Gcc/Src/syscalls.c **** {
 110              		.loc 1 62 1 is_stmt 1 view -0
 111              		.cfi_startproc
 112              		@ Volatile: function does not return.
 113              		@ args = 0, pretend = 0, frame = 0
 114              		@ frame_needed = 0, uses_anonymous_args = 0
  63:Gcc/Src/syscalls.c ****   _kill(status, -1);
ARM GAS  C:\Users\DJESSOU\AppData\Local\Temp\cccRfEH3.s 			page 4


 115              		.loc 1 63 3 view .LVU15
 116              	.LBB4:
 117              	.LBI4:
  53:Gcc/Src/syscalls.c **** {
 118              		.loc 1 53 5 view .LVU16
 119              	.LBB5:
  55:Gcc/Src/syscalls.c ****   (void)sig;
 120              		.loc 1 55 3 view .LVU17
  56:Gcc/Src/syscalls.c ****   errno = EINVAL;
 121              		.loc 1 56 3 view .LVU18
  57:Gcc/Src/syscalls.c ****   return -1;
 122              		.loc 1 57 3 view .LVU19
 123              	.LBE5:
 124              	.LBE4:
  62:Gcc/Src/syscalls.c ****   _kill(status, -1);
 125              		.loc 1 62 1 is_stmt 0 view .LVU20
 126 0000 08B5     		push	{r3, lr}
 127              		.cfi_def_cfa_offset 8
 128              		.cfi_offset 3, -8
 129              		.cfi_offset 14, -4
 130              	.LBB7:
 131              	.LBB6:
  57:Gcc/Src/syscalls.c ****   return -1;
 132              		.loc 1 57 3 view .LVU21
 133 0002 FFF7FEFF 		bl	__errno
 134              	.LVL3:
  57:Gcc/Src/syscalls.c ****   return -1;
 135              		.loc 1 57 9 discriminator 1 view .LVU22
 136 0006 1623     		movs	r3, #22
 137 0008 0360     		str	r3, [r0]
  58:Gcc/Src/syscalls.c **** }
 138              		.loc 1 58 3 is_stmt 1 view .LVU23
 139              	.LVL4:
 140              	.L5:
  58:Gcc/Src/syscalls.c **** }
 141              		.loc 1 58 3 is_stmt 0 view .LVU24
 142              	.LBE6:
 143              	.LBE7:
  64:Gcc/Src/syscalls.c ****   while (1) {}    /* Make sure we hang here */
 144              		.loc 1 64 3 is_stmt 1 view .LVU25
 145              		.loc 1 64 14 view .LVU26
 146              		.loc 1 64 9 view .LVU27
 147 000a FEE7     		b	.L5
 148              		.cfi_endproc
 149              	.LFE28:
 151              		.section	.text._read,"ax",%progbits
 152              		.align	1
 153              		.weak	_read
 154              		.syntax unified
 155              		.thumb
 156              		.thumb_func
 158              	_read:
 159              	.LVL5:
 160              	.LFB29:
  65:Gcc/Src/syscalls.c **** }
  66:Gcc/Src/syscalls.c **** 
  67:Gcc/Src/syscalls.c **** __attribute__((weak)) int _read(int file, char *ptr, int len)
ARM GAS  C:\Users\DJESSOU\AppData\Local\Temp\cccRfEH3.s 			page 5


  68:Gcc/Src/syscalls.c **** {
 161              		.loc 1 68 1 view -0
 162              		.cfi_startproc
 163              		@ args = 0, pretend = 0, frame = 0
 164              		@ frame_needed = 0, uses_anonymous_args = 0
  69:Gcc/Src/syscalls.c ****   (void)file;
 165              		.loc 1 69 3 view .LVU29
  70:Gcc/Src/syscalls.c ****   int DataIdx;
 166              		.loc 1 70 3 view .LVU30
  71:Gcc/Src/syscalls.c **** 
  72:Gcc/Src/syscalls.c ****   for (DataIdx = 0; DataIdx < len; DataIdx++)
 167              		.loc 1 72 3 view .LVU31
  68:Gcc/Src/syscalls.c ****   (void)file;
 168              		.loc 1 68 1 is_stmt 0 view .LVU32
 169 0000 70B5     		push	{r4, r5, r6, lr}
 170              		.cfi_def_cfa_offset 16
 171              		.cfi_offset 4, -16
 172              		.cfi_offset 5, -12
 173              		.cfi_offset 6, -8
 174              		.cfi_offset 14, -4
  68:Gcc/Src/syscalls.c ****   (void)file;
 175              		.loc 1 68 1 view .LVU33
 176 0002 0D46     		mov	r5, r1
 177 0004 1446     		mov	r4, r2
 178              		.loc 1 72 3 view .LVU34
 179 0006 0E46     		mov	r6, r1
 180              	.LVL6:
 181              	.L7:
 182              		.loc 1 72 29 is_stmt 1 discriminator 1 view .LVU35
 183 0008 731B     		subs	r3, r6, r5
 184              	.LVL7:
 185              		.loc 1 72 29 is_stmt 0 discriminator 1 view .LVU36
 186 000a 9C42     		cmp	r4, r3
 187 000c 01DC     		bgt	.L8
  73:Gcc/Src/syscalls.c ****   {
  74:Gcc/Src/syscalls.c ****     *ptr++ = __io_getchar();
  75:Gcc/Src/syscalls.c ****   }
  76:Gcc/Src/syscalls.c **** 
  77:Gcc/Src/syscalls.c ****   return len;
 188              		.loc 1 77 3 is_stmt 1 view .LVU37
  78:Gcc/Src/syscalls.c **** }
 189              		.loc 1 78 1 is_stmt 0 view .LVU38
 190 000e 2046     		mov	r0, r4
 191 0010 70BD     		pop	{r4, r5, r6, pc}
 192              	.LVL8:
 193              	.L8:
  74:Gcc/Src/syscalls.c ****   }
 194              		.loc 1 74 5 is_stmt 1 view .LVU39
  74:Gcc/Src/syscalls.c ****   }
 195              		.loc 1 74 14 is_stmt 0 view .LVU40
 196 0012 FFF7FEFF 		bl	__io_getchar
 197              	.LVL9:
  74:Gcc/Src/syscalls.c ****   }
 198              		.loc 1 74 12 discriminator 1 view .LVU41
 199 0016 06F8010B 		strb	r0, [r6], #1
 200              	.LVL10:
  72:Gcc/Src/syscalls.c ****   {
ARM GAS  C:\Users\DJESSOU\AppData\Local\Temp\cccRfEH3.s 			page 6


 201              		.loc 1 72 43 is_stmt 1 discriminator 3 view .LVU42
  72:Gcc/Src/syscalls.c ****   {
 202              		.loc 1 72 43 is_stmt 0 discriminator 3 view .LVU43
 203 001a F5E7     		b	.L7
 204              		.cfi_endproc
 205              	.LFE29:
 207              		.section	.text._write,"ax",%progbits
 208              		.align	1
 209              		.weak	_write
 210              		.syntax unified
 211              		.thumb
 212              		.thumb_func
 214              	_write:
 215              	.LVL11:
 216              	.LFB30:
  79:Gcc/Src/syscalls.c **** 
  80:Gcc/Src/syscalls.c **** __attribute__((weak)) int _write(int file, char *ptr, int len)
  81:Gcc/Src/syscalls.c **** {
 217              		.loc 1 81 1 is_stmt 1 view -0
 218              		.cfi_startproc
 219              		@ args = 0, pretend = 0, frame = 0
 220              		@ frame_needed = 0, uses_anonymous_args = 0
  82:Gcc/Src/syscalls.c ****   (void)file;
 221              		.loc 1 82 3 view .LVU45
  83:Gcc/Src/syscalls.c ****   int DataIdx;
 222              		.loc 1 83 3 view .LVU46
  84:Gcc/Src/syscalls.c **** 
  85:Gcc/Src/syscalls.c ****   for (DataIdx = 0; DataIdx < len; DataIdx++)
 223              		.loc 1 85 3 view .LVU47
  81:Gcc/Src/syscalls.c ****   (void)file;
 224              		.loc 1 81 1 is_stmt 0 view .LVU48
 225 0000 70B5     		push	{r4, r5, r6, lr}
 226              		.cfi_def_cfa_offset 16
 227              		.cfi_offset 4, -16
 228              		.cfi_offset 5, -12
 229              		.cfi_offset 6, -8
 230              		.cfi_offset 14, -4
  81:Gcc/Src/syscalls.c ****   (void)file;
 231              		.loc 1 81 1 view .LVU49
 232 0002 0D46     		mov	r5, r1
 233 0004 1446     		mov	r4, r2
 234              		.loc 1 85 3 view .LVU50
 235 0006 0E46     		mov	r6, r1
 236              	.LVL12:
 237              	.L10:
 238              		.loc 1 85 29 is_stmt 1 discriminator 1 view .LVU51
 239 0008 731B     		subs	r3, r6, r5
 240              	.LVL13:
 241              		.loc 1 85 29 is_stmt 0 discriminator 1 view .LVU52
 242 000a 9C42     		cmp	r4, r3
 243 000c 01DC     		bgt	.L11
  86:Gcc/Src/syscalls.c ****   {
  87:Gcc/Src/syscalls.c ****     __io_putchar(*ptr++);
  88:Gcc/Src/syscalls.c ****   }
  89:Gcc/Src/syscalls.c ****   return len;
 244              		.loc 1 89 3 is_stmt 1 view .LVU53
  90:Gcc/Src/syscalls.c **** }
ARM GAS  C:\Users\DJESSOU\AppData\Local\Temp\cccRfEH3.s 			page 7


 245              		.loc 1 90 1 is_stmt 0 view .LVU54
 246 000e 2046     		mov	r0, r4
 247 0010 70BD     		pop	{r4, r5, r6, pc}
 248              	.LVL14:
 249              	.L11:
  87:Gcc/Src/syscalls.c ****   }
 250              		.loc 1 87 5 is_stmt 1 view .LVU55
  87:Gcc/Src/syscalls.c ****   }
 251              		.loc 1 87 5 is_stmt 0 view .LVU56
 252 0012 16F8010B 		ldrb	r0, [r6], #1	@ zero_extendqisi2
 253              	.LVL15:
  87:Gcc/Src/syscalls.c ****   }
 254              		.loc 1 87 5 view .LVU57
 255 0016 FFF7FEFF 		bl	__io_putchar
 256              	.LVL16:
  85:Gcc/Src/syscalls.c ****   {
 257              		.loc 1 85 43 is_stmt 1 discriminator 3 view .LVU58
  85:Gcc/Src/syscalls.c ****   {
 258              		.loc 1 85 43 is_stmt 0 discriminator 3 view .LVU59
 259 001a F5E7     		b	.L10
 260              		.cfi_endproc
 261              	.LFE30:
 263              		.section	.text._close,"ax",%progbits
 264              		.align	1
 265              		.global	_close
 266              		.syntax unified
 267              		.thumb
 268              		.thumb_func
 270              	_close:
 271              	.LVL17:
 272              	.LFB31:
  91:Gcc/Src/syscalls.c **** 
  92:Gcc/Src/syscalls.c **** int _close(int file)
  93:Gcc/Src/syscalls.c **** {
 273              		.loc 1 93 1 is_stmt 1 view -0
 274              		.cfi_startproc
 275              		@ args = 0, pretend = 0, frame = 0
 276              		@ frame_needed = 0, uses_anonymous_args = 0
 277              		@ link register save eliminated.
  94:Gcc/Src/syscalls.c ****   (void)file;
 278              		.loc 1 94 3 view .LVU61
  95:Gcc/Src/syscalls.c ****   return -1;
 279              		.loc 1 95 3 view .LVU62
  96:Gcc/Src/syscalls.c **** }
 280              		.loc 1 96 1 is_stmt 0 view .LVU63
 281 0000 4FF0FF30 		mov	r0, #-1
 282              	.LVL18:
 283              		.loc 1 96 1 view .LVU64
 284 0004 7047     		bx	lr
 285              		.cfi_endproc
 286              	.LFE31:
 288              		.section	.text._fstat,"ax",%progbits
 289              		.align	1
 290              		.global	_fstat
 291              		.syntax unified
 292              		.thumb
 293              		.thumb_func
ARM GAS  C:\Users\DJESSOU\AppData\Local\Temp\cccRfEH3.s 			page 8


 295              	_fstat:
 296              	.LVL19:
 297              	.LFB32:
  97:Gcc/Src/syscalls.c **** 
  98:Gcc/Src/syscalls.c **** 
  99:Gcc/Src/syscalls.c **** int _fstat(int file, struct stat *st)
 100:Gcc/Src/syscalls.c **** {
 298              		.loc 1 100 1 is_stmt 1 view -0
 299              		.cfi_startproc
 300              		@ args = 0, pretend = 0, frame = 0
 301              		@ frame_needed = 0, uses_anonymous_args = 0
 302              		@ link register save eliminated.
 101:Gcc/Src/syscalls.c ****   (void)file;
 303              		.loc 1 101 3 view .LVU66
 102:Gcc/Src/syscalls.c ****   st->st_mode = S_IFCHR;
 304              		.loc 1 102 3 view .LVU67
 305              		.loc 1 102 15 is_stmt 0 view .LVU68
 306 0000 4FF40053 		mov	r3, #8192
 103:Gcc/Src/syscalls.c ****   return 0;
 104:Gcc/Src/syscalls.c **** }
 307              		.loc 1 104 1 view .LVU69
 308 0004 0020     		movs	r0, #0
 309              	.LVL20:
 102:Gcc/Src/syscalls.c ****   st->st_mode = S_IFCHR;
 310              		.loc 1 102 15 view .LVU70
 311 0006 4B60     		str	r3, [r1, #4]
 103:Gcc/Src/syscalls.c ****   return 0;
 312              		.loc 1 103 3 is_stmt 1 view .LVU71
 313              		.loc 1 104 1 is_stmt 0 view .LVU72
 314 0008 7047     		bx	lr
 315              		.cfi_endproc
 316              	.LFE32:
 318              		.section	.text._isatty,"ax",%progbits
 319              		.align	1
 320              		.global	_isatty
 321              		.syntax unified
 322              		.thumb
 323              		.thumb_func
 325              	_isatty:
 326              	.LVL21:
 327              	.LFB33:
 105:Gcc/Src/syscalls.c **** 
 106:Gcc/Src/syscalls.c **** int _isatty(int file)
 107:Gcc/Src/syscalls.c **** {
 328              		.loc 1 107 1 is_stmt 1 view -0
 329              		.cfi_startproc
 330              		@ args = 0, pretend = 0, frame = 0
 331              		@ frame_needed = 0, uses_anonymous_args = 0
 332              		@ link register save eliminated.
 108:Gcc/Src/syscalls.c ****   (void)file;
 333              		.loc 1 108 3 view .LVU74
 109:Gcc/Src/syscalls.c ****   return 1;
 334              		.loc 1 109 3 view .LVU75
 110:Gcc/Src/syscalls.c **** }
 335              		.loc 1 110 1 is_stmt 0 view .LVU76
 336 0000 0120     		movs	r0, #1
 337              	.LVL22:
ARM GAS  C:\Users\DJESSOU\AppData\Local\Temp\cccRfEH3.s 			page 9


 338              		.loc 1 110 1 view .LVU77
 339 0002 7047     		bx	lr
 340              		.cfi_endproc
 341              	.LFE33:
 343              		.section	.text._lseek,"ax",%progbits
 344              		.align	1
 345              		.global	_lseek
 346              		.syntax unified
 347              		.thumb
 348              		.thumb_func
 350              	_lseek:
 351              	.LVL23:
 352              	.LFB34:
 111:Gcc/Src/syscalls.c **** 
 112:Gcc/Src/syscalls.c **** int _lseek(int file, int ptr, int dir)
 113:Gcc/Src/syscalls.c **** {
 353              		.loc 1 113 1 is_stmt 1 view -0
 354              		.cfi_startproc
 355              		@ args = 0, pretend = 0, frame = 0
 356              		@ frame_needed = 0, uses_anonymous_args = 0
 357              		@ link register save eliminated.
 114:Gcc/Src/syscalls.c ****   (void)file;
 358              		.loc 1 114 3 view .LVU79
 115:Gcc/Src/syscalls.c ****   (void)ptr;
 359              		.loc 1 115 3 view .LVU80
 116:Gcc/Src/syscalls.c ****   (void)dir;
 360              		.loc 1 116 3 view .LVU81
 117:Gcc/Src/syscalls.c ****   return 0;
 361              		.loc 1 117 3 view .LVU82
 118:Gcc/Src/syscalls.c **** }
 362              		.loc 1 118 1 is_stmt 0 view .LVU83
 363 0000 0020     		movs	r0, #0
 364              	.LVL24:
 365              		.loc 1 118 1 view .LVU84
 366 0002 7047     		bx	lr
 367              		.cfi_endproc
 368              	.LFE34:
 370              		.section	.text._open,"ax",%progbits
 371              		.align	1
 372              		.global	_open
 373              		.syntax unified
 374              		.thumb
 375              		.thumb_func
 377              	_open:
 378              	.LVL25:
 379              	.LFB35:
 119:Gcc/Src/syscalls.c **** 
 120:Gcc/Src/syscalls.c **** int _open(char *path, int flags, ...)
 121:Gcc/Src/syscalls.c **** {
 380              		.loc 1 121 1 is_stmt 1 view -0
 381              		.cfi_startproc
 382              		@ args = 4, pretend = 12, frame = 0
 383              		@ frame_needed = 0, uses_anonymous_args = 1
 384              		@ link register save eliminated.
 122:Gcc/Src/syscalls.c ****   (void)path;
 385              		.loc 1 122 3 view .LVU86
 123:Gcc/Src/syscalls.c ****   (void)flags;
ARM GAS  C:\Users\DJESSOU\AppData\Local\Temp\cccRfEH3.s 			page 10


 386              		.loc 1 123 3 view .LVU87
 124:Gcc/Src/syscalls.c ****   /* Pretend like we always fail */
 125:Gcc/Src/syscalls.c ****   return -1;
 387              		.loc 1 125 3 view .LVU88
 121:Gcc/Src/syscalls.c ****   (void)path;
 388              		.loc 1 121 1 is_stmt 0 view .LVU89
 389 0000 0EB4     		push	{r1, r2, r3}
 390              		.cfi_def_cfa_offset 12
 391              		.cfi_offset 1, -12
 392              		.cfi_offset 2, -8
 393              		.cfi_offset 3, -4
 126:Gcc/Src/syscalls.c **** }
 394              		.loc 1 126 1 view .LVU90
 395 0002 4FF0FF30 		mov	r0, #-1
 396              	.LVL26:
 397              		.loc 1 126 1 view .LVU91
 398 0006 03B0     		add	sp, sp, #12
 399              		.cfi_restore 3
 400              		.cfi_restore 2
 401              		.cfi_restore 1
 402              		.cfi_def_cfa_offset 0
 403 0008 7047     		bx	lr
 404              		.cfi_endproc
 405              	.LFE35:
 407              		.section	.text._wait,"ax",%progbits
 408              		.align	1
 409              		.global	_wait
 410              		.syntax unified
 411              		.thumb
 412              		.thumb_func
 414              	_wait:
 415              	.LVL27:
 416              	.LFB36:
 127:Gcc/Src/syscalls.c **** 
 128:Gcc/Src/syscalls.c **** int _wait(int *status)
 129:Gcc/Src/syscalls.c **** {
 417              		.loc 1 129 1 is_stmt 1 view -0
 418              		.cfi_startproc
 419              		@ args = 0, pretend = 0, frame = 0
 420              		@ frame_needed = 0, uses_anonymous_args = 0
 130:Gcc/Src/syscalls.c ****   (void)status;
 421              		.loc 1 130 3 view .LVU93
 131:Gcc/Src/syscalls.c ****   errno = ECHILD;
 422              		.loc 1 131 3 view .LVU94
 129:Gcc/Src/syscalls.c ****   (void)status;
 423              		.loc 1 129 1 is_stmt 0 view .LVU95
 424 0000 08B5     		push	{r3, lr}
 425              		.cfi_def_cfa_offset 8
 426              		.cfi_offset 3, -8
 427              		.cfi_offset 14, -4
 428              		.loc 1 131 3 view .LVU96
 429 0002 FFF7FEFF 		bl	__errno
 430              	.LVL28:
 431              		.loc 1 131 9 discriminator 1 view .LVU97
 432 0006 0A23     		movs	r3, #10
 433 0008 0360     		str	r3, [r0]
 132:Gcc/Src/syscalls.c ****   return -1;
ARM GAS  C:\Users\DJESSOU\AppData\Local\Temp\cccRfEH3.s 			page 11


 434              		.loc 1 132 3 is_stmt 1 view .LVU98
 133:Gcc/Src/syscalls.c **** }
 435              		.loc 1 133 1 is_stmt 0 view .LVU99
 436 000a 4FF0FF30 		mov	r0, #-1
 437 000e 08BD     		pop	{r3, pc}
 438              		.cfi_endproc
 439              	.LFE36:
 441              		.section	.text._unlink,"ax",%progbits
 442              		.align	1
 443              		.global	_unlink
 444              		.syntax unified
 445              		.thumb
 446              		.thumb_func
 448              	_unlink:
 449              	.LVL29:
 450              	.LFB37:
 134:Gcc/Src/syscalls.c **** 
 135:Gcc/Src/syscalls.c **** int _unlink(char *name)
 136:Gcc/Src/syscalls.c **** {
 451              		.loc 1 136 1 is_stmt 1 view -0
 452              		.cfi_startproc
 453              		@ args = 0, pretend = 0, frame = 0
 454              		@ frame_needed = 0, uses_anonymous_args = 0
 137:Gcc/Src/syscalls.c ****   (void)name;
 455              		.loc 1 137 3 view .LVU101
 138:Gcc/Src/syscalls.c ****   errno = ENOENT;
 456              		.loc 1 138 3 view .LVU102
 136:Gcc/Src/syscalls.c ****   (void)name;
 457              		.loc 1 136 1 is_stmt 0 view .LVU103
 458 0000 08B5     		push	{r3, lr}
 459              		.cfi_def_cfa_offset 8
 460              		.cfi_offset 3, -8
 461              		.cfi_offset 14, -4
 462              		.loc 1 138 3 view .LVU104
 463 0002 FFF7FEFF 		bl	__errno
 464              	.LVL30:
 465              		.loc 1 138 9 discriminator 1 view .LVU105
 466 0006 0223     		movs	r3, #2
 467 0008 0360     		str	r3, [r0]
 139:Gcc/Src/syscalls.c ****   return -1;
 468              		.loc 1 139 3 is_stmt 1 view .LVU106
 140:Gcc/Src/syscalls.c **** }
 469              		.loc 1 140 1 is_stmt 0 view .LVU107
 470 000a 4FF0FF30 		mov	r0, #-1
 471 000e 08BD     		pop	{r3, pc}
 472              		.cfi_endproc
 473              	.LFE37:
 475              		.section	.text._times,"ax",%progbits
 476              		.align	1
 477              		.global	_times
 478              		.syntax unified
 479              		.thumb
 480              		.thumb_func
 482              	_times:
 483              	.LVL31:
 484              	.LFB38:
 141:Gcc/Src/syscalls.c **** 
ARM GAS  C:\Users\DJESSOU\AppData\Local\Temp\cccRfEH3.s 			page 12


 142:Gcc/Src/syscalls.c **** int _times(struct tms *buf)
 143:Gcc/Src/syscalls.c **** {
 485              		.loc 1 143 1 is_stmt 1 view -0
 486              		.cfi_startproc
 487              		@ args = 0, pretend = 0, frame = 0
 488              		@ frame_needed = 0, uses_anonymous_args = 0
 489              		@ link register save eliminated.
 144:Gcc/Src/syscalls.c ****   (void)buf;
 490              		.loc 1 144 3 view .LVU109
 145:Gcc/Src/syscalls.c ****   return -1;
 491              		.loc 1 145 3 view .LVU110
 146:Gcc/Src/syscalls.c **** }
 492              		.loc 1 146 1 is_stmt 0 view .LVU111
 493 0000 4FF0FF30 		mov	r0, #-1
 494              	.LVL32:
 495              		.loc 1 146 1 view .LVU112
 496 0004 7047     		bx	lr
 497              		.cfi_endproc
 498              	.LFE38:
 500              		.section	.text._stat,"ax",%progbits
 501              		.align	1
 502              		.global	_stat
 503              		.syntax unified
 504              		.thumb
 505              		.thumb_func
 507              	_stat:
 508              	.LVL33:
 509              	.LFB39:
 147:Gcc/Src/syscalls.c **** 
 148:Gcc/Src/syscalls.c **** int _stat(char *file, struct stat *st)
 149:Gcc/Src/syscalls.c **** {
 510              		.loc 1 149 1 is_stmt 1 view -0
 511              		.cfi_startproc
 512              		@ args = 0, pretend = 0, frame = 0
 513              		@ frame_needed = 0, uses_anonymous_args = 0
 514              		@ link register save eliminated.
 150:Gcc/Src/syscalls.c ****   (void)file;
 515              		.loc 1 150 3 view .LVU114
 151:Gcc/Src/syscalls.c ****   st->st_mode = S_IFCHR;
 516              		.loc 1 151 3 view .LVU115
 517              		.loc 1 151 15 is_stmt 0 view .LVU116
 518 0000 4FF40053 		mov	r3, #8192
 152:Gcc/Src/syscalls.c ****   return 0;
 153:Gcc/Src/syscalls.c **** }
 519              		.loc 1 153 1 view .LVU117
 520 0004 0020     		movs	r0, #0
 521              	.LVL34:
 151:Gcc/Src/syscalls.c ****   st->st_mode = S_IFCHR;
 522              		.loc 1 151 15 view .LVU118
 523 0006 4B60     		str	r3, [r1, #4]
 152:Gcc/Src/syscalls.c ****   return 0;
 524              		.loc 1 152 3 is_stmt 1 view .LVU119
 525              		.loc 1 153 1 is_stmt 0 view .LVU120
 526 0008 7047     		bx	lr
 527              		.cfi_endproc
 528              	.LFE39:
 530              		.section	.text._link,"ax",%progbits
ARM GAS  C:\Users\DJESSOU\AppData\Local\Temp\cccRfEH3.s 			page 13


 531              		.align	1
 532              		.global	_link
 533              		.syntax unified
 534              		.thumb
 535              		.thumb_func
 537              	_link:
 538              	.LVL35:
 539              	.LFB40:
 154:Gcc/Src/syscalls.c **** 
 155:Gcc/Src/syscalls.c **** int _link(char *old, char *new)
 156:Gcc/Src/syscalls.c **** {
 540              		.loc 1 156 1 is_stmt 1 view -0
 541              		.cfi_startproc
 542              		@ args = 0, pretend = 0, frame = 0
 543              		@ frame_needed = 0, uses_anonymous_args = 0
 157:Gcc/Src/syscalls.c ****   (void)old;
 544              		.loc 1 157 3 view .LVU122
 158:Gcc/Src/syscalls.c ****   (void)new;
 545              		.loc 1 158 3 view .LVU123
 159:Gcc/Src/syscalls.c ****   errno = EMLINK;
 546              		.loc 1 159 3 view .LVU124
 156:Gcc/Src/syscalls.c ****   (void)old;
 547              		.loc 1 156 1 is_stmt 0 view .LVU125
 548 0000 08B5     		push	{r3, lr}
 549              		.cfi_def_cfa_offset 8
 550              		.cfi_offset 3, -8
 551              		.cfi_offset 14, -4
 552              		.loc 1 159 3 view .LVU126
 553 0002 FFF7FEFF 		bl	__errno
 554              	.LVL36:
 555              		.loc 1 159 9 discriminator 1 view .LVU127
 556 0006 1F23     		movs	r3, #31
 557 0008 0360     		str	r3, [r0]
 160:Gcc/Src/syscalls.c ****   return -1;
 558              		.loc 1 160 3 is_stmt 1 view .LVU128
 161:Gcc/Src/syscalls.c **** }
 559              		.loc 1 161 1 is_stmt 0 view .LVU129
 560 000a 4FF0FF30 		mov	r0, #-1
 561 000e 08BD     		pop	{r3, pc}
 562              		.cfi_endproc
 563              	.LFE40:
 565              		.section	.text._fork,"ax",%progbits
 566              		.align	1
 567              		.global	_fork
 568              		.syntax unified
 569              		.thumb
 570              		.thumb_func
 572              	_fork:
 573              	.LFB41:
 162:Gcc/Src/syscalls.c **** 
 163:Gcc/Src/syscalls.c **** int _fork(void)
 164:Gcc/Src/syscalls.c **** {
 574              		.loc 1 164 1 is_stmt 1 view -0
 575              		.cfi_startproc
 576              		@ args = 0, pretend = 0, frame = 0
 577              		@ frame_needed = 0, uses_anonymous_args = 0
 165:Gcc/Src/syscalls.c ****   errno = EAGAIN;
ARM GAS  C:\Users\DJESSOU\AppData\Local\Temp\cccRfEH3.s 			page 14


 578              		.loc 1 165 3 view .LVU131
 164:Gcc/Src/syscalls.c ****   errno = EAGAIN;
 579              		.loc 1 164 1 is_stmt 0 view .LVU132
 580 0000 08B5     		push	{r3, lr}
 581              		.cfi_def_cfa_offset 8
 582              		.cfi_offset 3, -8
 583              		.cfi_offset 14, -4
 584              		.loc 1 165 3 view .LVU133
 585 0002 FFF7FEFF 		bl	__errno
 586              	.LVL37:
 587              		.loc 1 165 9 discriminator 1 view .LVU134
 588 0006 0B23     		movs	r3, #11
 589 0008 0360     		str	r3, [r0]
 166:Gcc/Src/syscalls.c ****   return -1;
 590              		.loc 1 166 3 is_stmt 1 view .LVU135
 167:Gcc/Src/syscalls.c **** }
 591              		.loc 1 167 1 is_stmt 0 view .LVU136
 592 000a 4FF0FF30 		mov	r0, #-1
 593 000e 08BD     		pop	{r3, pc}
 594              		.cfi_endproc
 595              	.LFE41:
 597              		.section	.text._execve,"ax",%progbits
 598              		.align	1
 599              		.global	_execve
 600              		.syntax unified
 601              		.thumb
 602              		.thumb_func
 604              	_execve:
 605              	.LVL38:
 606              	.LFB42:
 168:Gcc/Src/syscalls.c **** 
 169:Gcc/Src/syscalls.c **** int _execve(char *name, char **argv, char **env)
 170:Gcc/Src/syscalls.c **** {
 607              		.loc 1 170 1 is_stmt 1 view -0
 608              		.cfi_startproc
 609              		@ args = 0, pretend = 0, frame = 0
 610              		@ frame_needed = 0, uses_anonymous_args = 0
 171:Gcc/Src/syscalls.c ****   (void)name;
 611              		.loc 1 171 3 view .LVU138
 172:Gcc/Src/syscalls.c ****   (void)argv;
 612              		.loc 1 172 3 view .LVU139
 173:Gcc/Src/syscalls.c ****   (void)env;
 613              		.loc 1 173 3 view .LVU140
 174:Gcc/Src/syscalls.c ****   errno = ENOMEM;
 614              		.loc 1 174 3 view .LVU141
 170:Gcc/Src/syscalls.c ****   (void)name;
 615              		.loc 1 170 1 is_stmt 0 view .LVU142
 616 0000 08B5     		push	{r3, lr}
 617              		.cfi_def_cfa_offset 8
 618              		.cfi_offset 3, -8
 619              		.cfi_offset 14, -4
 620              		.loc 1 174 3 view .LVU143
 621 0002 FFF7FEFF 		bl	__errno
 622              	.LVL39:
 623              		.loc 1 174 9 discriminator 1 view .LVU144
 624 0006 0C23     		movs	r3, #12
 625 0008 0360     		str	r3, [r0]
ARM GAS  C:\Users\DJESSOU\AppData\Local\Temp\cccRfEH3.s 			page 15


 175:Gcc/Src/syscalls.c ****   return -1;
 626              		.loc 1 175 3 is_stmt 1 view .LVU145
 176:Gcc/Src/syscalls.c **** }
 627              		.loc 1 176 1 is_stmt 0 view .LVU146
 628 000a 4FF0FF30 		mov	r0, #-1
 629 000e 08BD     		pop	{r3, pc}
 630              		.cfi_endproc
 631              	.LFE42:
 633              		.global	environ
 634              		.section	.data.environ,"aw"
 635              		.align	2
 638              	environ:
 639 0000 00000000 		.word	__env
 640              		.global	__env
 641              		.section	.bss.__env,"aw",%nobits
 642              		.align	2
 645              	__env:
 646 0000 00000000 		.space	4
 647              		.weak	__io_putchar
 648              		.weak	__io_getchar
 649              		.text
 650              	.Letext0:
 651              		.file 2 "C:\\ST\\STM32CubeIDE_1.18.1\\STM32CubeIDE\\plugins\\com.st.stm32cube.ide.mcu.externaltool
 652              		.file 3 "C:\\ST\\STM32CubeIDE_1.18.1\\STM32CubeIDE\\plugins\\com.st.stm32cube.ide.mcu.externaltool
 653              		.file 4 "C:\\ST\\STM32CubeIDE_1.18.1\\STM32CubeIDE\\plugins\\com.st.stm32cube.ide.mcu.externaltool
 654              		.file 5 "C:\\ST\\STM32CubeIDE_1.18.1\\STM32CubeIDE\\plugins\\com.st.stm32cube.ide.mcu.externaltool
 655              		.file 6 "C:\\ST\\STM32CubeIDE_1.18.1\\STM32CubeIDE\\plugins\\com.st.stm32cube.ide.mcu.externaltool
 656              		.file 7 "C:\\ST\\STM32CubeIDE_1.18.1\\STM32CubeIDE\\plugins\\com.st.stm32cube.ide.mcu.externaltool
 657              		.file 8 "C:\\ST\\STM32CubeIDE_1.18.1\\STM32CubeIDE\\plugins\\com.st.stm32cube.ide.mcu.externaltool
 658              		.file 9 "C:\\ST\\STM32CubeIDE_1.18.1\\STM32CubeIDE\\plugins\\com.st.stm32cube.ide.mcu.externaltool
ARM GAS  C:\Users\DJESSOU\AppData\Local\Temp\cccRfEH3.s 			page 16

